{
 "array_types" :
 [
  {
   "alignment" : 4,
   "linker_set_key" : "_ZTIA0_i",
   "name" : "int [0]",
   "referenced_type" : "_ZTIi",
   "self_type" : "_ZTIA0_i",
   "source_file" : "system/core/libcutils/include_outside_system/cutils/native_handle.h"
  },
  {
   "alignment" : 4,
   "linker_set_key" : "_ZTIA1_PKc",
   "name" : "const char *[1]",
   "referenced_type" : "_ZTIPKc",
   "self_type" : "_ZTIA1_PKc",
   "size" : 4,
   "source_file" : "frameworks/native/libs/binder/include/binder/IInterface.h"
  },
  {
   "alignment" : 1,
   "linker_set_key" : "_ZTIA2_c",
   "name" : "char [2]",
   "referenced_type" : "_ZTIc",
   "self_type" : "_ZTIA2_c",
   "size" : 2,
   "source_file" : "frameworks/native/libs/binder/include/binder/TextOutput.h"
  },
  {
   "alignment" : 1,
   "linker_set_key" : "_ZTIA2_h",
   "name" : "unsigned char [2]",
   "referenced_type" : "_ZTIh",
   "self_type" : "_ZTIA2_h",
   "size" : 2,
   "source_file" : "frameworks/native/libs/binder/include/binder/Stability.h"
  },
  {
   "alignment" : 1,
   "linker_set_key" : "_ZTIA3_c",
   "name" : "char [3]",
   "referenced_type" : "_ZTIc",
   "self_type" : "_ZTIA3_c",
   "size" : 3,
   "source_file" : "frameworks/native/libs/binder/include/binder/TextOutput.h"
  },
  {
   "alignment" : 1,
   "linker_set_key" : "_ZTIA4_c",
   "name" : "char [4]",
   "referenced_type" : "_ZTIc",
   "self_type" : "_ZTIA4_c",
   "size" : 4,
   "source_file" : "frameworks/native/libs/binder/include/binder/TextOutput.h"
  },
  {
   "alignment" : 1,
   "linker_set_key" : "_ZTIA5121_h",
   "name" : "unsigned char [5121]",
   "referenced_type" : "_ZTIh",
   "self_type" : "_ZTIA5121_h",
   "size" : 5121,
   "source_file" : "system/logging/liblog/include_vndk/log/log_read.h"
  },
  {
   "alignment" : 1,
   "linker_set_key" : "_ZTIA5_c",
   "name" : "char [5]",
   "referenced_type" : "_ZTIc",
   "self_type" : "_ZTIA5_c",
   "size" : 5,
   "source_file" : "frameworks/native/libs/binder/include/binder/TextOutput.h"
  },
  {
   "alignment" : 4,
   "linker_set_key" : "_ZTIA76_PKc",
   "name" : "const char *[76]",
   "referenced_type" : "_ZTIPKc",
   "self_type" : "_ZTIA76_PKc",
   "size" : 304,
   "source_file" : "frameworks/native/libs/binder/include/binder/IInterface.h"
  },
  {
   "alignment" : 1,
   "linker_set_key" : "_ZTIA8_c",
   "name" : "char [8]",
   "referenced_type" : "_ZTIc",
   "self_type" : "_ZTIA8_c",
   "size" : 8,
   "source_file" : "frameworks/native/libs/binder/include/binder/TextOutput.h"
  },
  {
   "alignment" : 4,
   "linker_set_key" : "_ZTIA8_j",
   "name" : "unsigned int [8]",
   "referenced_type" : "_ZTIj",
   "self_type" : "_ZTIA8_j",
   "size" : 32,
   "source_file" : "system/core/libsystem/include/system/graphics.h"
  },
  {
   "alignment" : 1,
   "linker_set_key" : "_ZTIA9_c",
   "name" : "char [9]",
   "referenced_type" : "_ZTIc",
   "self_type" : "_ZTIA9_c",
   "size" : 9,
   "source_file" : "frameworks/native/libs/binder/include/binder/TextOutput.h"
  },
  {
   "linker_set_key" : "_ZTIA_f",
   "name" : "float []",
   "referenced_type" : "_ZTIf",
   "self_type" : "_ZTIA_f",
   "source_file" : "system/core/libsystem/include/system/graphics.h"
  }
 ],
 "builtin_types" :
 [
  {
   "alignment" : 4,
   "linker_set_key" : "_ZTIDn",
   "name" : "nullptr_t",
   "referenced_type" : "_ZTIDn",
   "self_type" : "_ZTIDn",
   "size" : 4
  },
  {
   "alignment" : 2,
   "is_integral" : true,
   "is_unsigned" : true,
   "linker_set_key" : "_ZTIDs",
   "name" : "char16_t",
   "referenced_type" : "_ZTIDs",
   "self_type" : "_ZTIDs",
   "size" : 2
  },
  {
   "alignment" : 1,
   "is_integral" : true,
   "linker_set_key" : "_ZTIa",
   "name" : "signed char",
   "referenced_type" : "_ZTIa",
   "self_type" : "_ZTIa",
   "size" : 1
  },
  {
   "alignment" : 1,
   "is_integral" : true,
   "is_unsigned" : true,
   "linker_set_key" : "_ZTIb",
   "name" : "bool",
   "referenced_type" : "_ZTIb",
   "self_type" : "_ZTIb",
   "size" : 1
  },
  {
   "alignment" : 1,
   "is_integral" : true,
   "is_unsigned" : true,
   "linker_set_key" : "_ZTIc",
   "name" : "char",
   "referenced_type" : "_ZTIc",
   "self_type" : "_ZTIc",
   "size" : 1
  },
  {
   "alignment" : 8,
   "linker_set_key" : "_ZTId",
   "name" : "double",
   "referenced_type" : "_ZTId",
   "self_type" : "_ZTId",
   "size" : 8
  },
  {
   "alignment" : 4,
   "linker_set_key" : "_ZTIf",
   "name" : "float",
   "referenced_type" : "_ZTIf",
   "self_type" : "_ZTIf",
   "size" : 4
  },
  {
   "alignment" : 1,
   "is_integral" : true,
   "is_unsigned" : true,
   "linker_set_key" : "_ZTIh",
   "name" : "unsigned char",
   "referenced_type" : "_ZTIh",
   "self_type" : "_ZTIh",
   "size" : 1
  },
  {
   "alignment" : 4,
   "is_integral" : true,
   "linker_set_key" : "_ZTIi",
   "name" : "int",
   "referenced_type" : "_ZTIi",
   "self_type" : "_ZTIi",
   "size" : 4
  },
  {
   "alignment" : 4,
   "is_integral" : true,
   "is_unsigned" : true,
   "linker_set_key" : "_ZTIj",
   "name" : "unsigned int",
   "referenced_type" : "_ZTIj",
   "self_type" : "_ZTIj",
   "size" : 4
  },
  {
   "alignment" : 4,
   "is_integral" : true,
   "linker_set_key" : "_ZTIl",
   "name" : "long",
   "referenced_type" : "_ZTIl",
   "self_type" : "_ZTIl",
   "size" : 4
  },
  {
   "alignment" : 4,
   "is_integral" : true,
   "is_unsigned" : true,
   "linker_set_key" : "_ZTIm",
   "name" : "unsigned long",
   "referenced_type" : "_ZTIm",
   "self_type" : "_ZTIm",
   "size" : 4
  },
  {
   "alignment" : 2,
   "is_integral" : true,
   "linker_set_key" : "_ZTIs",
   "name" : "short",
   "referenced_type" : "_ZTIs",
   "self_type" : "_ZTIs",
   "size" : 2
  },
  {
   "alignment" : 2,
   "is_integral" : true,
   "is_unsigned" : true,
   "linker_set_key" : "_ZTIt",
   "name" : "unsigned short",
   "referenced_type" : "_ZTIt",
   "self_type" : "_ZTIt",
   "size" : 2
  },
  {
   "linker_set_key" : "_ZTIv",
   "name" : "void",
   "referenced_type" : "_ZTIv",
   "self_type" : "_ZTIv"
  },
  {
   "alignment" : 8,
   "is_integral" : true,
   "linker_set_key" : "_ZTIx",
   "name" : "long long",
   "referenced_type" : "_ZTIx",
   "self_type" : "_ZTIx",
   "size" : 8
  },
  {
   "alignment" : 8,
   "is_integral" : true,
   "is_unsigned" : true,
   "linker_set_key" : "_ZTIy",
   "name" : "unsigned long long",
   "referenced_type" : "_ZTIy",
   "self_type" : "_ZTIy",
   "size" : 8
  }
 ],
 "elf_functions" : [],
 "elf_objects" : [],
 "enum_types" :
 [
  {
   "alignment" : 4,
   "enum_fields" :
   [
    {
     "enum_field_value" : 1,
     "name" : "HAL_HDR_DOLBY_VISION"
    },
    {
     "enum_field_value" : 2,
     "name" : "HAL_HDR_HDR10"
    },
    {
     "enum_field_value" : 3,
     "name" : "HAL_HDR_HLG"
    }
   ],
   "linker_set_key" : "_ZTI13android_hdr_t",
   "name" : "android_hdr_t",
   "referenced_type" : "_ZTI13android_hdr_t",
   "self_type" : "_ZTI13android_hdr_t",
   "size" : 4,
   "source_file" : "system/core/libsystem/include/system/graphics-base-v1.0.h",
   "underlying_type" : "_ZTIj"
  },
  {
   "alignment" : 4,
   "enum_fields" :
   [
    {
     "enum_field_value" : 4,
     "name" : "HAL_HDR_HDR10_PLUS"
    }
   ],
   "linker_set_key" : "_ZTI18android_hdr_v1_2_t",
   "name" : "android_hdr_v1_2_t",
   "referenced_type" : "_ZTI18android_hdr_v1_2_t",
   "self_type" : "_ZTI18android_hdr_v1_2_t",
   "size" : 4,
   "source_file" : "system/core/libsystem/include/system/graphics-base-v1.2.h",
   "underlying_type" : "_ZTIj"
  },
  {
   "alignment" : 4,
   "enum_fields" :
   [
    {
     "enum_field_value" : 0,
     "name" : "ANDROID_LOG_UNKNOWN"
    },
    {
     "enum_field_value" : 1,
     "name" : "ANDROID_LOG_DEFAULT"
    },
    {
     "enum_field_value" : 2,
     "name" : "ANDROID_LOG_VERBOSE"
    },
    {
     "enum_field_value" : 3,
     "name" : "ANDROID_LOG_DEBUG"
    },
    {
     "enum_field_value" : 4,
     "name" : "ANDROID_LOG_INFO"
    },
    {
     "enum_field_value" : 5,
     "name" : "ANDROID_LOG_WARN"
    },
    {
     "enum_field_value" : 6,
     "name" : "ANDROID_LOG_ERROR"
    },
    {
     "enum_field_value" : 7,
     "name" : "ANDROID_LOG_FATAL"
    },
    {
     "enum_field_value" : 8,
     "name" : "ANDROID_LOG_SILENT"
    }
   ],
   "linker_set_key" : "_ZTI19android_LogPriority",
   "name" : "android_LogPriority",
   "referenced_type" : "_ZTI19android_LogPriority",
   "self_type" : "_ZTI19android_LogPriority",
   "size" : 4,
   "source_file" : "system/logging/liblog/include_vndk/android/log.h",
   "underlying_type" : "_ZTIj"
  },
  {
   "alignment" : 4,
   "enum_fields" :
   [
    {
     "enum_field_value" : 0,
     "name" : "HAL_DATASPACE_UNKNOWN"
    },
    {
     "enum_field_value" : 1,
     "name" : "HAL_DATASPACE_ARBITRARY"
    },
    {
     "enum_field_value" : 16,
     "name" : "HAL_DATASPACE_STANDARD_SHIFT"
    },
    {
     "enum_field_value" : 4128768,
     "name" : "HAL_DATASPACE_STANDARD_MASK"
    },
    {
     "enum_field_value" : 0,
     "name" : "HAL_DATASPACE_STANDARD_UNSPECIFIED"
    },
    {
     "enum_field_value" : 65536,
     "name" : "HAL_DATASPACE_STANDARD_BT709"
    },
    {
     "enum_field_value" : 131072,
     "name" : "HAL_DATASPACE_STANDARD_BT601_625"
    },
    {
     "enum_field_value" : 196608,
     "name" : "HAL_DATASPACE_STANDARD_BT601_625_UNADJUSTED"
    },
    {
     "enum_field_value" : 262144,
     "name" : "HAL_DATASPACE_STANDARD_BT601_525"
    },
    {
     "enum_field_value" : 327680,
     "name" : "HAL_DATASPACE_STANDARD_BT601_525_UNADJUSTED"
    },
    {
     "enum_field_value" : 393216,
     "name" : "HAL_DATASPACE_STANDARD_BT2020"
    },
    {
     "enum_field_value" : 458752,
     "name" : "HAL_DATASPACE_STANDARD_BT2020_CONSTANT_LUMINANCE"
    },
    {
     "enum_field_value" : 524288,
     "name" : "HAL_DATASPACE_STANDARD_BT470M"
    },
    {
     "enum_field_value" : 589824,
     "name" : "HAL_DATASPACE_STANDARD_FILM"
    },
    {
     "enum_field_value" : 655360,
     "name" : "HAL_DATASPACE_STANDARD_DCI_P3"
    },
    {
     "enum_field_value" : 720896,
     "name" : "HAL_DATASPACE_STANDARD_ADOBE_RGB"
    },
    {
     "enum_field_value" : 22,
     "name" : "HAL_DATASPACE_TRANSFER_SHIFT"
    },
    {
     "enum_field_value" : 130023424,
     "name" : "HAL_DATASPACE_TRANSFER_MASK"
    },
    {
     "enum_field_value" : 0,
     "name" : "HAL_DATASPACE_TRANSFER_UNSPECIFIED"
    },
    {
     "enum_field_value" : 4194304,
     "name" : "HAL_DATASPACE_TRANSFER_LINEAR"
    },
    {
     "enum_field_value" : 8388608,
     "name" : "HAL_DATASPACE_TRANSFER_SRGB"
    },
    {
     "enum_field_value" : 12582912,
     "name" : "HAL_DATASPACE_TRANSFER_SMPTE_170M"
    },
    {
     "enum_field_value" : 16777216,
     "name" : "HAL_DATASPACE_TRANSFER_GAMMA2_2"
    },
    {
     "enum_field_value" : 20971520,
     "name" : "HAL_DATASPACE_TRANSFER_GAMMA2_6"
    },
    {
     "enum_field_value" : 25165824,
     "name" : "HAL_DATASPACE_TRANSFER_GAMMA2_8"
    },
    {
     "enum_field_value" : 29360128,
     "name" : "HAL_DATASPACE_TRANSFER_ST2084"
    },
    {
     "enum_field_value" : 33554432,
     "name" : "HAL_DATASPACE_TRANSFER_HLG"
    },
    {
     "enum_field_value" : 27,
     "name" : "HAL_DATASPACE_RANGE_SHIFT"
    },
    {
     "enum_field_value" : 939524096,
     "name" : "HAL_DATASPACE_RANGE_MASK"
    },
    {
     "enum_field_value" : 0,
     "name" : "HAL_DATASPACE_RANGE_UNSPECIFIED"
    },
    {
     "enum_field_value" : 134217728,
     "name" : "HAL_DATASPACE_RANGE_FULL"
    },
    {
     "enum_field_value" : 268435456,
     "name" : "HAL_DATASPACE_RANGE_LIMITED"
    },
    {
     "enum_field_value" : 402653184,
     "name" : "HAL_DATASPACE_RANGE_EXTENDED"
    },
    {
     "enum_field_value" : 512,
     "name" : "HAL_DATASPACE_SRGB_LINEAR"
    },
    {
     "enum_field_value" : 138477568,
     "name" : "HAL_DATASPACE_V0_SRGB_LINEAR"
    },
    {
     "enum_field_value" : 406913024,
     "name" : "HAL_DATASPACE_V0_SCRGB_LINEAR"
    },
    {
     "enum_field_value" : 513,
     "name" : "HAL_DATASPACE_SRGB"
    },
    {
     "enum_field_value" : 142671872,
     "name" : "HAL_DATASPACE_V0_SRGB"
    },
    {
     "enum_field_value" : 411107328,
     "name" : "HAL_DATASPACE_V0_SCRGB"
    },
    {
     "enum_field_value" : 257,
     "name" : "HAL_DATASPACE_JFIF"
    },
    {
     "enum_field_value" : 146931712,
     "name" : "HAL_DATASPACE_V0_JFIF"
    },
    {
     "enum_field_value" : 258,
     "name" : "HAL_DATASPACE_BT601_625"
    },
    {
     "enum_field_value" : 281149440,
     "name" : "HAL_DATASPACE_V0_BT601_625"
    },
    {
     "enum_field_value" : 259,
     "name" : "HAL_DATASPACE_BT601_525"
    },
    {
     "enum_field_value" : 281280512,
     "name" : "HAL_DATASPACE_V0_BT601_525"
    },
    {
     "enum_field_value" : 260,
     "name" : "HAL_DATASPACE_BT709"
    },
    {
     "enum_field_value" : 281083904,
     "name" : "HAL_DATASPACE_V0_BT709"
    },
    {
     "enum_field_value" : 139067392,
     "name" : "HAL_DATASPACE_DCI_P3_LINEAR"
    },
    {
     "enum_field_value" : 155844608,
     "name" : "HAL_DATASPACE_DCI_P3"
    },
    {
     "enum_field_value" : 139067392,
     "name" : "HAL_DATASPACE_DISPLAY_P3_LINEAR"
    },
    {
     "enum_field_value" : 143261696,
     "name" : "HAL_DATASPACE_DISPLAY_P3"
    },
    {
     "enum_field_value" : 151715840,
     "name" : "HAL_DATASPACE_ADOBE_RGB"
    },
    {
     "enum_field_value" : 138805248,
     "name" : "HAL_DATASPACE_BT2020_LINEAR"
    },
    {
     "enum_field_value" : 147193856,
     "name" : "HAL_DATASPACE_BT2020"
    },
    {
     "enum_field_value" : 163971072,
     "name" : "HAL_DATASPACE_BT2020_PQ"
    },
    {
     "enum_field_value" : 4096,
     "name" : "HAL_DATASPACE_DEPTH"
    },
    {
     "enum_field_value" : 4097,
     "name" : "HAL_DATASPACE_SENSOR"
    }
   ],
   "linker_set_key" : "_ZTI19android_dataspace_t",
   "name" : "android_dataspace_t",
   "referenced_type" : "_ZTI19android_dataspace_t",
   "self_type" : "_ZTI19android_dataspace_t",
   "size" : 4,
   "source_file" : "system/core/libsystem/include/system/graphics-base-v1.0.h",
   "underlying_type" : "_ZTIj"
  },
  {
   "alignment" : 4,
   "enum_fields" :
   [
    {
     "enum_field_value" : 0,
     "name" : "FLEX_FORMAT_INVALID"
    },
    {
     "enum_field_value" : 1,
     "name" : "FLEX_FORMAT_Y"
    },
    {
     "enum_field_value" : 7,
     "name" : "FLEX_FORMAT_YCbCr"
    },
    {
     "enum_field_value" : 1073741831,
     "name" : "FLEX_FORMAT_YCbCrA"
    },
    {
     "enum_field_value" : 7168,
     "name" : "FLEX_FORMAT_RGB"
    },
    {
     "enum_field_value" : 1073748992,
     "name" : "FLEX_FORMAT_RGBA"
    }
   ],
   "linker_set_key" : "_ZTI19android_flex_format",
   "name" : "android_flex_format",
   "referenced_type" : "_ZTI19android_flex_format",
   "self_type" : "_ZTI19android_flex_format",
   "size" : 4,
   "source_file" : "system/core/libsystem/include/system/graphics.h",
   "underlying_type" : "_ZTIj"
  },
  {
   "alignment" : 4,
   "enum_fields" :
   [
    {
     "enum_field_value" : 1,
     "name" : "HAL_TRANSFORM_FLIP_H"
    },
    {
     "enum_field_value" : 2,
     "name" : "HAL_TRANSFORM_FLIP_V"
    },
    {
     "enum_field_value" : 4,
     "name" : "HAL_TRANSFORM_ROT_90"
    },
    {
     "enum_field_value" : 3,
     "name" : "HAL_TRANSFORM_ROT_180"
    },
    {
     "enum_field_value" : 7,
     "name" : "HAL_TRANSFORM_ROT_270"
    }
   ],
   "linker_set_key" : "_ZTI19android_transform_t",
   "name" : "android_transform_t",
   "referenced_type" : "_ZTI19android_transform_t",
   "self_type" : "_ZTI19android_transform_t",
   "size" : 4,
   "source_file" : "system/core/libsystem/include/system/graphics-base-v1.0.h",
   "underlying_type" : "_ZTIj"
  },
  {
   "alignment" : 4,
   "enum_fields" :
   [
    {
     "enum_field_value" : 0,
     "name" : "HAL_COLOR_MODE_NATIVE"
    },
    {
     "enum_field_value" : 1,
     "name" : "HAL_COLOR_MODE_STANDARD_BT601_625"
    },
    {
     "enum_field_value" : 2,
     "name" : "HAL_COLOR_MODE_STANDARD_BT601_625_UNADJUSTED"
    },
    {
     "enum_field_value" : 3,
     "name" : "HAL_COLOR_MODE_STANDARD_BT601_525"
    },
    {
     "enum_field_value" : 4,
     "name" : "HAL_COLOR_MODE_STANDARD_BT601_525_UNADJUSTED"
    },
    {
     "enum_field_value" : 5,
     "name" : "HAL_COLOR_MODE_STANDARD_BT709"
    },
    {
     "enum_field_value" : 6,
     "name" : "HAL_COLOR_MODE_DCI_P3"
    },
    {
     "enum_field_value" : 7,
     "name" : "HAL_COLOR_MODE_SRGB"
    },
    {
     "enum_field_value" : 8,
     "name" : "HAL_COLOR_MODE_ADOBE_RGB"
    },
    {
     "enum_field_value" : 9,
     "name" : "HAL_COLOR_MODE_DISPLAY_P3"
    }
   ],
   "linker_set_key" : "_ZTI20android_color_mode_t",
   "name" : "android_color_mode_t",
   "referenced_type" : "_ZTI20android_color_mode_t",
   "self_type" : "_ZTI20android_color_mode_t",
   "size" : 4,
   "source_file" : "system/core/libsystem/include/system/graphics-base-v1.0.h",
   "underlying_type" : "_ZTIj"
  },
  {
   "alignment" : 4,
   "enum_fields" :
   [
    {
     "enum_field_value" : 0,
     "name" : "SYSTEM_TIME_REALTIME"
    },
    {
     "enum_field_value" : 1,
     "name" : "SYSTEM_TIME_MONOTONIC"
    },
    {
     "enum_field_value" : 2,
     "name" : "SYSTEM_TIME_PROCESS"
    },
    {
     "enum_field_value" : 3,
     "name" : "SYSTEM_TIME_THREAD"
    },
    {
     "enum_field_value" : 4,
     "name" : "SYSTEM_TIME_BOOTTIME"
    }
   ],
   "linker_set_key" : "_ZTI21$SYSTEM_TIME_BOOTTIME",
   "name" : "(anonymous enum at system/core/libutils/include/utils/Timers.h:75:1)",
   "referenced_type" : "_ZTI21$SYSTEM_TIME_BOOTTIME",
   "self_type" : "_ZTI21$SYSTEM_TIME_BOOTTIME",
   "size" : 4,
   "source_file" : "system/core/libutils/include/utils/Timers.h",
   "underlying_type" : "_ZTIj"
  },
  {
   "alignment" : 4,
   "enum_fields" :
   [
    {
     "enum_field_value" : 1,
     "name" : "FLEX_COMPONENT_Y"
    },
    {
     "enum_field_value" : 2,
     "name" : "FLEX_COMPONENT_Cb"
    },
    {
     "enum_field_value" : 4,
     "name" : "FLEX_COMPONENT_Cr"
    },
    {
     "enum_field_value" : 1024,
     "name" : "FLEX_COMPONENT_R"
    },
    {
     "enum_field_value" : 2048,
     "name" : "FLEX_COMPONENT_G"
    },
    {
     "enum_field_value" : 4096,
     "name" : "FLEX_COMPONENT_B"
    },
    {
     "enum_field_value" : 1073741824,
     "name" : "FLEX_COMPONENT_A"
    }
   ],
   "linker_set_key" : "_ZTI22android_flex_component",
   "name" : "android_flex_component",
   "referenced_type" : "_ZTI22android_flex_component",
   "self_type" : "_ZTI22android_flex_component",
   "size" : 4,
   "source_file" : "system/core/libsystem/include/system/graphics.h",
   "underlying_type" : "_ZTIj"
  },
  {
   "alignment" : 4,
   "enum_fields" :
   [
    {
     "enum_field_value" : 1,
     "name" : "HAL_PIXEL_FORMAT_RGBA_8888"
    },
    {
     "enum_field_value" : 2,
     "name" : "HAL_PIXEL_FORMAT_RGBX_8888"
    },
    {
     "enum_field_value" : 3,
     "name" : "HAL_PIXEL_FORMAT_RGB_888"
    },
    {
     "enum_field_value" : 4,
     "name" : "HAL_PIXEL_FORMAT_RGB_565"
    },
    {
     "enum_field_value" : 5,
     "name" : "HAL_PIXEL_FORMAT_BGRA_8888"
    },
    {
     "enum_field_value" : 16,
     "name" : "HAL_PIXEL_FORMAT_YCBCR_422_SP"
    },
    {
     "enum_field_value" : 17,
     "name" : "HAL_PIXEL_FORMAT_YCRCB_420_SP"
    },
    {
     "enum_field_value" : 20,
     "name" : "HAL_PIXEL_FORMAT_YCBCR_422_I"
    },
    {
     "enum_field_value" : 22,
     "name" : "HAL_PIXEL_FORMAT_RGBA_FP16"
    },
    {
     "enum_field_value" : 32,
     "name" : "HAL_PIXEL_FORMAT_RAW16"
    },
    {
     "enum_field_value" : 33,
     "name" : "HAL_PIXEL_FORMAT_BLOB"
    },
    {
     "enum_field_value" : 34,
     "name" : "HAL_PIXEL_FORMAT_IMPLEMENTATION_DEFINED"
    },
    {
     "enum_field_value" : 35,
     "name" : "HAL_PIXEL_FORMAT_YCBCR_420_888"
    },
    {
     "enum_field_value" : 36,
     "name" : "HAL_PIXEL_FORMAT_RAW_OPAQUE"
    },
    {
     "enum_field_value" : 37,
     "name" : "HAL_PIXEL_FORMAT_RAW10"
    },
    {
     "enum_field_value" : 38,
     "name" : "HAL_PIXEL_FORMAT_RAW12"
    },
    {
     "enum_field_value" : 43,
     "name" : "HAL_PIXEL_FORMAT_RGBA_1010102"
    },
    {
     "enum_field_value" : 538982489,
     "name" : "HAL_PIXEL_FORMAT_Y8"
    },
    {
     "enum_field_value" : 540422489,
     "name" : "HAL_PIXEL_FORMAT_Y16"
    },
    {
     "enum_field_value" : 842094169,
     "name" : "HAL_PIXEL_FORMAT_YV12"
    }
   ],
   "linker_set_key" : "_ZTI22android_pixel_format_t",
   "name" : "android_pixel_format_t",
   "referenced_type" : "_ZTI22android_pixel_format_t",
   "self_type" : "_ZTI22android_pixel_format_t",
   "size" : 4,
   "source_file" : "system/core/libsystem/include/system/graphics-base-v1.0.h",
   "underlying_type" : "_ZTIj"
  },
  {
   "alignment" : 4,
   "enum_fields" :
   [
    {
     "enum_field_value" : 19,
     "name" : "ANDROID_PRIORITY_LOWEST"
    },
    {
     "enum_field_value" : 10,
     "name" : "ANDROID_PRIORITY_BACKGROUND"
    },
    {
     "enum_field_value" : 0,
     "name" : "ANDROID_PRIORITY_NORMAL"
    },
    {
     "enum_field_value" : -2,
     "name" : "ANDROID_PRIORITY_FOREGROUND"
    },
    {
     "enum_field_value" : -4,
     "name" : "ANDROID_PRIORITY_DISPLAY"
    },
    {
     "enum_field_value" : -8,
     "name" : "ANDROID_PRIORITY_URGENT_DISPLAY"
    },
    {
     "enum_field_value" : -10,
     "name" : "ANDROID_PRIORITY_VIDEO"
    },
    {
     "enum_field_value" : -16,
     "name" : "ANDROID_PRIORITY_AUDIO"
    },
    {
     "enum_field_value" : -19,
     "name" : "ANDROID_PRIORITY_URGENT_AUDIO"
    },
    {
     "enum_field_value" : -20,
     "name" : "ANDROID_PRIORITY_HIGHEST"
    },
    {
     "enum_field_value" : 0,
     "name" : "ANDROID_PRIORITY_DEFAULT"
    },
    {
     "enum_field_value" : -1,
     "name" : "ANDROID_PRIORITY_MORE_FAVORABLE"
    },
    {
     "enum_field_value" : 1,
     "name" : "ANDROID_PRIORITY_LESS_FAVORABLE"
    }
   ],
   "linker_set_key" : "_ZTI23$ANDROID_PRIORITY_AUDIO",
   "name" : "(anonymous enum at system/core/libsystem/include/system/thread_defs.h:26:1)",
   "referenced_type" : "_ZTI23$ANDROID_PRIORITY_AUDIO",
   "self_type" : "_ZTI23$ANDROID_PRIORITY_AUDIO",
   "size" : 4,
   "source_file" : "system/core/libsystem/include/system/thread_defs.h",
   "underlying_type" : "_ZTIi"
  },
  {
   "alignment" : 4,
   "enum_fields" :
   [
    {
     "enum_field_value" : 281411584,
     "name" : "HAL_DATASPACE_BT2020_ITU"
    },
    {
     "enum_field_value" : 298188800,
     "name" : "HAL_DATASPACE_BT2020_ITU_PQ"
    },
    {
     "enum_field_value" : 302383104,
     "name" : "HAL_DATASPACE_BT2020_ITU_HLG"
    },
    {
     "enum_field_value" : 168165376,
     "name" : "HAL_DATASPACE_BT2020_HLG"
    }
   ],
   "linker_set_key" : "_ZTI24android_dataspace_v1_1_t",
   "name" : "android_dataspace_v1_1_t",
   "referenced_type" : "_ZTI24android_dataspace_v1_1_t",
   "self_type" : "_ZTI24android_dataspace_v1_1_t",
   "size" : 4,
   "source_file" : "system/core/libsystem/include/system/graphics-base-v1.1.h",
   "underlying_type" : "_ZTIj"
  },
  {
   "alignment" : 4,
   "enum_fields" :
   [
    {
     "enum_field_value" : 142999552,
     "name" : "HAL_DATASPACE_DISPLAY_BT2020"
    },
    {
     "enum_field_value" : 4098,
     "name" : "HAL_DATASPACE_DYNAMIC_DEPTH"
    },
    {
     "enum_field_value" : 4099,
     "name" : "HAL_DATASPACE_JPEG_APP_SEGMENTS"
    },
    {
     "enum_field_value" : 4100,
     "name" : "HAL_DATASPACE_HEIF"
    }
   ],
   "linker_set_key" : "_ZTI24android_dataspace_v1_2_t",
   "name" : "android_dataspace_v1_2_t",
   "referenced_type" : "_ZTI24android_dataspace_v1_2_t",
   "self_type" : "_ZTI24android_dataspace_v1_2_t",
   "size" : 4,
   "source_file" : "system/core/libsystem/include/system/graphics-base-v1.2.h",
   "underlying_type" : "_ZTIj"
  },
  {
   "alignment" : 4,
   "enum_fields" :
   [
    {
     "enum_field_value" : 10,
     "name" : "HAL_COLOR_MODE_BT2020"
    },
    {
     "enum_field_value" : 11,
     "name" : "HAL_COLOR_MODE_BT2100_PQ"
    },
    {
     "enum_field_value" : 12,
     "name" : "HAL_COLOR_MODE_BT2100_HLG"
    }
   ],
   "linker_set_key" : "_ZTI25android_color_mode_v1_1_t",
   "name" : "android_color_mode_v1_1_t",
   "referenced_type" : "_ZTI25android_color_mode_v1_1_t",
   "self_type" : "_ZTI25android_color_mode_v1_1_t",
   "size" : 4,
   "source_file" : "system/core/libsystem/include/system/graphics-base-v1.1.h",
   "underlying_type" : "_ZTIj"
  },
  {
   "alignment" : 4,
   "enum_fields" :
   [
    {
     "enum_field_value" : 0,
     "name" : "HAL_COLOR_TRANSFORM_IDENTITY"
    },
    {
     "enum_field_value" : 1,
     "name" : "HAL_COLOR_TRANSFORM_ARBITRARY_MATRIX"
    },
    {
     "enum_field_value" : 2,
     "name" : "HAL_COLOR_TRANSFORM_VALUE_INVERSE"
    },
    {
     "enum_field_value" : 3,
     "name" : "HAL_COLOR_TRANSFORM_GRAYSCALE"
    },
    {
     "enum_field_value" : 4,
     "name" : "HAL_COLOR_TRANSFORM_CORRECT_PROTANOPIA"
    },
    {
     "enum_field_value" : 5,
     "name" : "HAL_COLOR_TRANSFORM_CORRECT_DEUTERANOPIA"
    },
    {
     "enum_field_value" : 6,
     "name" : "HAL_COLOR_TRANSFORM_CORRECT_TRITANOPIA"
    }
   ],
   "linker_set_key" : "_ZTI25android_color_transform_t",
   "name" : "android_color_transform_t",
   "referenced_type" : "_ZTI25android_color_transform_t",
   "self_type" : "_ZTI25android_color_transform_t",
   "size" : 4,
   "source_file" : "system/core/libsystem/include/system/graphics-base-v1.0.h",
   "underlying_type" : "_ZTIj"
  },
  {
   "alignment" : 4,
   "enum_fields" :
   [
    {
     "enum_field_value" : 39,
     "name" : "HAL_PIXEL_FORMAT_YCBCR_422_888"
    },
    {
     "enum_field_value" : 40,
     "name" : "HAL_PIXEL_FORMAT_YCBCR_444_888"
    },
    {
     "enum_field_value" : 41,
     "name" : "HAL_PIXEL_FORMAT_FLEX_RGB_888"
    },
    {
     "enum_field_value" : 42,
     "name" : "HAL_PIXEL_FORMAT_FLEX_RGBA_8888"
    }
   ],
   "linker_set_key" : "_ZTI25android_pixel_format_sw_t",
   "name" : "android_pixel_format_sw_t",
   "referenced_type" : "_ZTI25android_pixel_format_sw_t",
   "self_type" : "_ZTI25android_pixel_format_sw_t",
   "size" : 4,
   "source_file" : "system/core/libsystem/include/system/graphics-sw.h",
   "underlying_type" : "_ZTIj"
  },
  {
   "alignment" : 4,
   "enum_fields" :
   [
    {
     "enum_field_value" : 48,
     "name" : "HAL_PIXEL_FORMAT_DEPTH_16"
    },
    {
     "enum_field_value" : 49,
     "name" : "HAL_PIXEL_FORMAT_DEPTH_24"
    },
    {
     "enum_field_value" : 50,
     "name" : "HAL_PIXEL_FORMAT_DEPTH_24_STENCIL_8"
    },
    {
     "enum_field_value" : 51,
     "name" : "HAL_PIXEL_FORMAT_DEPTH_32F"
    },
    {
     "enum_field_value" : 52,
     "name" : "HAL_PIXEL_FORMAT_DEPTH_32F_STENCIL_8"
    },
    {
     "enum_field_value" : 53,
     "name" : "HAL_PIXEL_FORMAT_STENCIL_8"
    },
    {
     "enum_field_value" : 54,
     "name" : "HAL_PIXEL_FORMAT_YCBCR_P010"
    }
   ],
   "linker_set_key" : "_ZTI27android_pixel_format_v1_1_t",
   "name" : "android_pixel_format_v1_1_t",
   "referenced_type" : "_ZTI27android_pixel_format_v1_1_t",
   "self_type" : "_ZTI27android_pixel_format_v1_1_t",
   "size" : 4,
   "source_file" : "system/core/libsystem/include/system/graphics-base-v1.1.h",
   "underlying_type" : "_ZTIj"
  },
  {
   "alignment" : 4,
   "enum_fields" :
   [
    {
     "enum_field_value" : 55,
     "name" : "HAL_PIXEL_FORMAT_HSV_888"
    }
   ],
   "linker_set_key" : "_ZTI27android_pixel_format_v1_2_t",
   "name" : "android_pixel_format_v1_2_t",
   "referenced_type" : "_ZTI27android_pixel_format_v1_2_t",
   "self_type" : "_ZTI27android_pixel_format_v1_2_t",
   "size" : 4,
   "source_file" : "system/core/libsystem/include/system/graphics-base-v1.2.h",
   "underlying_type" : "_ZTIj"
  },
  {
   "alignment" : 4,
   "enum_fields" :
   [
    {
     "enum_field_value" : 0,
     "name" : "HAL_RENDER_INTENT_COLORIMETRIC"
    },
    {
     "enum_field_value" : 1,
     "name" : "HAL_RENDER_INTENT_ENHANCE"
    },
    {
     "enum_field_value" : 2,
     "name" : "HAL_RENDER_INTENT_TONE_MAP_COLORIMETRIC"
    },
    {
     "enum_field_value" : 3,
     "name" : "HAL_RENDER_INTENT_TONE_MAP_ENHANCE"
    }
   ],
   "linker_set_key" : "_ZTI28android_render_intent_v1_1_t",
   "name" : "android_render_intent_v1_1_t",
   "referenced_type" : "_ZTI28android_render_intent_v1_1_t",
   "self_type" : "_ZTI28android_render_intent_v1_1_t",
   "size" : 4,
   "source_file" : "system/core/libsystem/include/system/graphics-base-v1.1.h",
   "underlying_type" : "_ZTIj"
  },
  {
   "alignment" : 4,
   "enum_fields" :
   [
    {
     "enum_field_value" : 0,
     "name" : "LOG_ID_MIN"
    },
    {
     "enum_field_value" : 0,
     "name" : "LOG_ID_MAIN"
    },
    {
     "enum_field_value" : 1,
     "name" : "LOG_ID_RADIO"
    },
    {
     "enum_field_value" : 2,
     "name" : "LOG_ID_EVENTS"
    },
    {
     "enum_field_value" : 3,
     "name" : "LOG_ID_SYSTEM"
    },
    {
     "enum_field_value" : 4,
     "name" : "LOG_ID_CRASH"
    },
    {
     "enum_field_value" : 5,
     "name" : "LOG_ID_STATS"
    },
    {
     "enum_field_value" : 6,
     "name" : "LOG_ID_SECURITY"
    },
    {
     "enum_field_value" : 7,
     "name" : "LOG_ID_KERNEL"
    },
    {
     "enum_field_value" : 8,
     "name" : "LOG_ID_MAX"
    },
    {
     "enum_field_value" : 2147483647,
     "name" : "LOG_ID_DEFAULT"
    }
   ],
   "linker_set_key" : "_ZTI6log_id",
   "name" : "log_id",
   "referenced_type" : "_ZTI6log_id",
   "self_type" : "_ZTI6log_id",
   "size" : 4,
   "source_file" : "system/logging/liblog/include_vndk/android/log.h",
   "underlying_type" : "_ZTIj"
  },
  {
   "alignment" : 4,
   "enum_fields" :
   [
    {
     "enum_field_value" : 0,
     "name" : "android::Parcelable::Stability::STABILITY_LOCAL"
    },
    {
     "enum_field_value" : 1,
     "name" : "android::Parcelable::Stability::STABILITY_VINTF"
    }
   ],
   "linker_set_key" : "_ZTIN7android10Parcelable9StabilityE",
   "name" : "android::Parcelable::Stability",
   "referenced_type" : "_ZTIN7android10Parcelable9StabilityE",
   "self_type" : "_ZTIN7android10Parcelable9StabilityE",
   "size" : 4,
   "source_file" : "frameworks/native/libs/binder/include/binder/Parcelable.h",
   "underlying_type" : "_ZTIi"
  },
  {
   "access" : "private",
   "alignment" : 4,
   "enum_fields" :
   [
    {
     "enum_field_value" : 0,
     "name" : "android::RpcSession::ConnectionUse::CLIENT"
    },
    {
     "enum_field_value" : 1,
     "name" : "android::RpcSession::ConnectionUse::CLIENT_ASYNC"
    },
    {
     "enum_field_value" : 2,
     "name" : "android::RpcSession::ConnectionUse::CLIENT_REFCOUNT"
    }
   ],
   "linker_set_key" : "_ZTIN7android10RpcSession13ConnectionUseE",
   "name" : "android::RpcSession::ConnectionUse",
   "referenced_type" : "_ZTIN7android10RpcSession13ConnectionUseE",
   "self_type" : "_ZTIN7android10RpcSession13ConnectionUseE",
   "size" : 4,
   "source_file" : "frameworks/native/libs/binder/include/binder/RpcSession.h",
   "underlying_type" : "_ZTIi"
  },
  {
   "alignment" : 4,
   "enum_fields" :
   [
    {
     "enum_field_value" : 1,
     "name" : "android::VectorImpl::HAS_TRIVIAL_CTOR"
    },
    {
     "enum_field_value" : 2,
     "name" : "android::VectorImpl::HAS_TRIVIAL_DTOR"
    },
    {
     "enum_field_value" : 4,
     "name" : "android::VectorImpl::HAS_TRIVIAL_COPY"
    }
   ],
   "linker_set_key" : "_ZTIN7android10VectorImpl17$HAS_TRIVIAL_COPYE",
   "name" : "android::VectorImpl::(anonymous enum at system/core/libutils/include/utils/VectorImpl.h:43:5)",
   "referenced_type" : "_ZTIN7android10VectorImpl17$HAS_TRIVIAL_COPYE",
   "self_type" : "_ZTIN7android10VectorImpl17$HAS_TRIVIAL_COPYE",
   "size" : 4,
   "source_file" : "system/core/libutils/include/utils/VectorImpl.h",
   "underlying_type" : "_ZTIj"
  },
  {
   "alignment" : 4,
   "enum_fields" :
   [
    {
     "enum_field_value" : 0,
     "name" : "android::ProcessState::CallRestriction::NONE"
    },
    {
     "enum_field_value" : 1,
     "name" : "android::ProcessState::CallRestriction::ERROR_IF_NOT_ONEWAY"
    },
    {
     "enum_field_value" : 2,
     "name" : "android::ProcessState::CallRestriction::FATAL_IF_NOT_ONEWAY"
    }
   ],
   "linker_set_key" : "_ZTIN7android12ProcessState15CallRestrictionE",
   "name" : "android::ProcessState::CallRestriction",
   "referenced_type" : "_ZTIN7android12ProcessState15CallRestrictionE",
   "self_type" : "_ZTIN7android12ProcessState15CallRestrictionE",
   "size" : 4,
   "source_file" : "frameworks/native/libs/binder/include/binder/ProcessState.h",
   "underlying_type" : "_ZTIi"
  },
  {
   "alignment" : 4,
   "enum_fields" :
   [
    {
     "enum_field_value" : 0,
     "name" : "android::OK"
    },
    {
     "enum_field_value" : 0,
     "name" : "android::NO_ERROR"
    },
    {
     "enum_field_value" : -2147483648,
     "name" : "android::UNKNOWN_ERROR"
    },
    {
     "enum_field_value" : -12,
     "name" : "android::NO_MEMORY"
    },
    {
     "enum_field_value" : -38,
     "name" : "android::INVALID_OPERATION"
    },
    {
     "enum_field_value" : -22,
     "name" : "android::BAD_VALUE"
    },
    {
     "enum_field_value" : -2147483647,
     "name" : "android::BAD_TYPE"
    },
    {
     "enum_field_value" : -2,
     "name" : "android::NAME_NOT_FOUND"
    },
    {
     "enum_field_value" : -1,
     "name" : "android::PERMISSION_DENIED"
    },
    {
     "enum_field_value" : -19,
     "name" : "android::NO_INIT"
    },
    {
     "enum_field_value" : -17,
     "name" : "android::ALREADY_EXISTS"
    },
    {
     "enum_field_value" : -32,
     "name" : "android::DEAD_OBJECT"
    },
    {
     "enum_field_value" : -2147483646,
     "name" : "android::FAILED_TRANSACTION"
    },
    {
     "enum_field_value" : -75,
     "name" : "android::BAD_INDEX"
    },
    {
     "enum_field_value" : -61,
     "name" : "android::NOT_ENOUGH_DATA"
    },
    {
     "enum_field_value" : -11,
     "name" : "android::WOULD_BLOCK"
    },
    {
     "enum_field_value" : -110,
     "name" : "android::TIMED_OUT"
    },
    {
     "enum_field_value" : -74,
     "name" : "android::UNKNOWN_TRANSACTION"
    },
    {
     "enum_field_value" : -2147483641,
     "name" : "android::FDS_NOT_ALLOWED"
    },
    {
     "enum_field_value" : -2147483640,
     "name" : "android::UNEXPECTED_NULL"
    }
   ],
   "linker_set_key" : "_ZTIN7android15$ALREADY_EXISTSE",
   "name" : "android::(anonymous enum at system/core/libutils/include/utils/Errors.h:43:1)",
   "referenced_type" : "_ZTIN7android15$ALREADY_EXISTSE",
   "self_type" : "_ZTIN7android15$ALREADY_EXISTSE",
   "size" : 4,
   "source_file" : "system/core/libutils/include/utils/Errors.h",
   "underlying_type" : "_ZTIi"
  },
  {
   "alignment" : 4,
   "enum_fields" :
   [
    {
     "enum_field_value" : 19,
     "name" : "android::PRIORITY_LOWEST"
    },
    {
     "enum_field_value" : 10,
     "name" : "android::PRIORITY_BACKGROUND"
    },
    {
     "enum_field_value" : 0,
     "name" : "android::PRIORITY_NORMAL"
    },
    {
     "enum_field_value" : -2,
     "name" : "android::PRIORITY_FOREGROUND"
    },
    {
     "enum_field_value" : -4,
     "name" : "android::PRIORITY_DISPLAY"
    },
    {
     "enum_field_value" : -8,
     "name" : "android::PRIORITY_URGENT_DISPLAY"
    },
    {
     "enum_field_value" : -16,
     "name" : "android::PRIORITY_AUDIO"
    },
    {
     "enum_field_value" : -19,
     "name" : "android::PRIORITY_URGENT_AUDIO"
    },
    {
     "enum_field_value" : -20,
     "name" : "android::PRIORITY_HIGHEST"
    },
    {
     "enum_field_value" : 0,
     "name" : "android::PRIORITY_DEFAULT"
    },
    {
     "enum_field_value" : -1,
     "name" : "android::PRIORITY_MORE_FAVORABLE"
    },
    {
     "enum_field_value" : 1,
     "name" : "android::PRIORITY_LESS_FAVORABLE"
    }
   ],
   "linker_set_key" : "_ZTIN7android15$PRIORITY_AUDIOE",
   "name" : "android::(anonymous enum at system/core/libutils/include/utils/ThreadDefs.h:53:1)",
   "referenced_type" : "_ZTIN7android15$PRIORITY_AUDIOE",
   "self_type" : "_ZTIN7android15$PRIORITY_AUDIOE",
   "size" : 4,
   "source_file" : "system/core/libutils/include/utils/ThreadDefs.h",
   "underlying_type" : "_ZTIi"
  },
  {
   "alignment" : 4,
   "enum_fields" :
   [
    {
     "enum_field_value" : 1,
     "name" : "android::trait_trivial_copy<bool>::value"
    }
   ],
   "linker_set_key" : "_ZTIN7android18trait_trivial_copyIbE6$valueE",
   "name" : "android::trait_trivial_copy<bool>::(anonymous enum at system/core/libutils/include/utils/TypeHelpers.h:98:1)",
   "referenced_type" : "_ZTIN7android18trait_trivial_copyIbE6$valueE",
   "self_type" : "_ZTIN7android18trait_trivial_copyIbE6$valueE",
   "size" : 4,
   "source_file" : "system/core/libutils/include/utils/TypeHelpers.h",
   "underlying_type" : "_ZTIj"
  },
  {
   "alignment" : 4,
   "enum_fields" :
   [
    {
     "enum_field_value" : 1,
     "name" : "android::trait_trivial_copy<char>::value"
    }
   ],
   "linker_set_key" : "_ZTIN7android18trait_trivial_copyIcE6$valueE",
   "name" : "android::trait_trivial_copy<char>::(anonymous enum at system/core/libutils/include/utils/TypeHelpers.h:99:1)",
   "referenced_type" : "_ZTIN7android18trait_trivial_copyIcE6$valueE",
   "self_type" : "_ZTIN7android18trait_trivial_copyIcE6$valueE",
   "size" : 4,
   "source_file" : "system/core/libutils/include/utils/TypeHelpers.h",
   "underlying_type" : "_ZTIj"
  },
  {
   "alignment" : 4,
   "enum_fields" :
   [
    {
     "enum_field_value" : 1,
     "name" : "android::trait_trivial_copy<double>::value"
    }
   ],
   "linker_set_key" : "_ZTIN7android18trait_trivial_copyIdE6$valueE",
   "name" : "android::trait_trivial_copy<double>::(anonymous enum at system/core/libutils/include/utils/TypeHelpers.h:110:1)",
   "referenced_type" : "_ZTIN7android18trait_trivial_copyIdE6$valueE",
   "self_type" : "_ZTIN7android18trait_trivial_copyIdE6$valueE",
   "size" : 4,
   "source_file" : "system/core/libutils/include/utils/TypeHelpers.h",
   "underlying_type" : "_ZTIj"
  },
  {
   "alignment" : 4,
   "enum_fields" :
   [
    {
     "enum_field_value" : 1,
     "name" : "android::trait_trivial_copy<float>::value"
    }
   ],
   "linker_set_key" : "_ZTIN7android18trait_trivial_copyIfE6$valueE",
   "name" : "android::trait_trivial_copy<float>::(anonymous enum at system/core/libutils/include/utils/TypeHelpers.h:109:1)",
   "referenced_type" : "_ZTIN7android18trait_trivial_copyIfE6$valueE",
   "self_type" : "_ZTIN7android18trait_trivial_copyIfE6$valueE",
   "size" : 4,
   "source_file" : "system/core/libutils/include/utils/TypeHelpers.h",
   "underlying_type" : "_ZTIj"
  },
  {
   "alignment" : 4,
   "enum_fields" :
   [
    {
     "enum_field_value" : 1,
     "name" : "android::trait_trivial_copy<unsigned char>::value"
    }
   ],
   "linker_set_key" : "_ZTIN7android18trait_trivial_copyIhE6$valueE",
   "name" : "android::trait_trivial_copy<unsigned char>::(anonymous enum at system/core/libutils/include/utils/TypeHelpers.h:100:1)",
   "referenced_type" : "_ZTIN7android18trait_trivial_copyIhE6$valueE",
   "self_type" : "_ZTIN7android18trait_trivial_copyIhE6$valueE",
   "size" : 4,
   "source_file" : "system/core/libutils/include/utils/TypeHelpers.h",
   "underlying_type" : "_ZTIj"
  },
  {
   "alignment" : 4,
   "enum_fields" :
   [
    {
     "enum_field_value" : 1,
     "name" : "android::trait_trivial_copy<int>::value"
    }
   ],
   "linker_set_key" : "_ZTIN7android18trait_trivial_copyIiE6$valueE",
   "name" : "android::trait_trivial_copy<int>::(anonymous enum at system/core/libutils/include/utils/TypeHelpers.h:103:1)",
   "referenced_type" : "_ZTIN7android18trait_trivial_copyIiE6$valueE",
   "self_type" : "_ZTIN7android18trait_trivial_copyIiE6$valueE",
   "size" : 4,
   "source_file" : "system/core/libutils/include/utils/TypeHelpers.h",
   "underlying_type" : "_ZTIj"
  },
  {
   "alignment" : 4,
   "enum_fields" :
   [
    {
     "enum_field_value" : 1,
     "name" : "android::trait_trivial_copy<unsigned int>::value"
    }
   ],
   "linker_set_key" : "_ZTIN7android18trait_trivial_copyIjE6$valueE",
   "name" : "android::trait_trivial_copy<unsigned int>::(anonymous enum at system/core/libutils/include/utils/TypeHelpers.h:104:1)",
   "referenced_type" : "_ZTIN7android18trait_trivial_copyIjE6$valueE",
   "self_type" : "_ZTIN7android18trait_trivial_copyIjE6$valueE",
   "size" : 4,
   "source_file" : "system/core/libutils/include/utils/TypeHelpers.h",
   "underlying_type" : "_ZTIj"
  },
  {
   "alignment" : 4,
   "enum_fields" :
   [
    {
     "enum_field_value" : 1,
     "name" : "android::trait_trivial_copy<long>::value"
    }
   ],
   "linker_set_key" : "_ZTIN7android18trait_trivial_copyIlE6$valueE",
   "name" : "android::trait_trivial_copy<long>::(anonymous enum at system/core/libutils/include/utils/TypeHelpers.h:105:1)",
   "referenced_type" : "_ZTIN7android18trait_trivial_copyIlE6$valueE",
   "self_type" : "_ZTIN7android18trait_trivial_copyIlE6$valueE",
   "size" : 4,
   "source_file" : "system/core/libutils/include/utils/TypeHelpers.h",
   "underlying_type" : "_ZTIj"
  },
  {
   "alignment" : 4,
   "enum_fields" :
   [
    {
     "enum_field_value" : 1,
     "name" : "android::trait_trivial_copy<unsigned long>::value"
    }
   ],
   "linker_set_key" : "_ZTIN7android18trait_trivial_copyImE6$valueE",
   "name" : "android::trait_trivial_copy<unsigned long>::(anonymous enum at system/core/libutils/include/utils/TypeHelpers.h:106:1)",
   "referenced_type" : "_ZTIN7android18trait_trivial_copyImE6$valueE",
   "self_type" : "_ZTIN7android18trait_trivial_copyImE6$valueE",
   "size" : 4,
   "source_file" : "system/core/libutils/include/utils/TypeHelpers.h",
   "underlying_type" : "_ZTIj"
  },
  {
   "alignment" : 4,
   "enum_fields" :
   [
    {
     "enum_field_value" : 1,
     "name" : "android::trait_trivial_copy<short>::value"
    }
   ],
   "linker_set_key" : "_ZTIN7android18trait_trivial_copyIsE6$valueE",
   "name" : "android::trait_trivial_copy<short>::(anonymous enum at system/core/libutils/include/utils/TypeHelpers.h:101:1)",
   "referenced_type" : "_ZTIN7android18trait_trivial_copyIsE6$valueE",
   "self_type" : "_ZTIN7android18trait_trivial_copyIsE6$valueE",
   "size" : 4,
   "source_file" : "system/core/libutils/include/utils/TypeHelpers.h",
   "underlying_type" : "_ZTIj"
  },
  {
   "alignment" : 4,
   "enum_fields" :
   [
    {
     "enum_field_value" : 1,
     "name" : "android::trait_trivial_copy<unsigned short>::value"
    }
   ],
   "linker_set_key" : "_ZTIN7android18trait_trivial_copyItE6$valueE",
   "name" : "android::trait_trivial_copy<unsigned short>::(anonymous enum at system/core/libutils/include/utils/TypeHelpers.h:102:1)",
   "referenced_type" : "_ZTIN7android18trait_trivial_copyItE6$valueE",
   "self_type" : "_ZTIN7android18trait_trivial_copyItE6$valueE",
   "size" : 4,
   "source_file" : "system/core/libutils/include/utils/TypeHelpers.h",
   "underlying_type" : "_ZTIj"
  },
  {
   "alignment" : 4,
   "enum_fields" :
   [
    {
     "enum_field_value" : 1,
     "name" : "android::trait_trivial_copy<void>::value"
    }
   ],
   "linker_set_key" : "_ZTIN7android18trait_trivial_copyIvE6$valueE",
   "name" : "android::trait_trivial_copy<void>::(anonymous enum at system/core/libutils/include/utils/TypeHelpers.h:97:1)",
   "referenced_type" : "_ZTIN7android18trait_trivial_copyIvE6$valueE",
   "self_type" : "_ZTIN7android18trait_trivial_copyIvE6$valueE",
   "size" : 4,
   "source_file" : "system/core/libutils/include/utils/TypeHelpers.h",
   "underlying_type" : "_ZTIj"
  },
  {
   "alignment" : 4,
   "enum_fields" :
   [
    {
     "enum_field_value" : 1,
     "name" : "android::trait_trivial_copy<long long>::value"
    }
   ],
   "linker_set_key" : "_ZTIN7android18trait_trivial_copyIxE6$valueE",
   "name" : "android::trait_trivial_copy<long long>::(anonymous enum at system/core/libutils/include/utils/TypeHelpers.h:107:1)",
   "referenced_type" : "_ZTIN7android18trait_trivial_copyIxE6$valueE",
   "self_type" : "_ZTIN7android18trait_trivial_copyIxE6$valueE",
   "size" : 4,
   "source_file" : "system/core/libutils/include/utils/TypeHelpers.h",
   "underlying_type" : "_ZTIj"
  },
  {
   "alignment" : 4,
   "enum_fields" :
   [
    {
     "enum_field_value" : 1,
     "name" : "android::trait_trivial_copy<unsigned long long>::value"
    }
   ],
   "linker_set_key" : "_ZTIN7android18trait_trivial_copyIyE6$valueE",
   "name" : "android::trait_trivial_copy<unsigned long long>::(anonymous enum at system/core/libutils/include/utils/TypeHelpers.h:108:1)",
   "referenced_type" : "_ZTIN7android18trait_trivial_copyIyE6$valueE",
   "self_type" : "_ZTIN7android18trait_trivial_copyIyE6$valueE",
   "size" : 4,
   "source_file" : "system/core/libutils/include/utils/TypeHelpers.h",
   "underlying_type" : "_ZTIj"
  },
  {
   "alignment" : 4,
   "enum_fields" :
   [
    {
     "enum_field_value" : 1,
     "name" : "android::trait_trivial_ctor<bool>::value"
    }
   ],
   "linker_set_key" : "_ZTIN7android18trait_trivial_ctorIbE6$valueE",
   "name" : "android::trait_trivial_ctor<bool>::(anonymous enum at system/core/libutils/include/utils/TypeHelpers.h:98:1)",
   "referenced_type" : "_ZTIN7android18trait_trivial_ctorIbE6$valueE",
   "self_type" : "_ZTIN7android18trait_trivial_ctorIbE6$valueE",
   "size" : 4,
   "source_file" : "system/core/libutils/include/utils/TypeHelpers.h",
   "underlying_type" : "_ZTIj"
  },
  {
   "alignment" : 4,
   "enum_fields" :
   [
    {
     "enum_field_value" : 1,
     "name" : "android::trait_trivial_ctor<char>::value"
    }
   ],
   "linker_set_key" : "_ZTIN7android18trait_trivial_ctorIcE6$valueE",
   "name" : "android::trait_trivial_ctor<char>::(anonymous enum at system/core/libutils/include/utils/TypeHelpers.h:99:1)",
   "referenced_type" : "_ZTIN7android18trait_trivial_ctorIcE6$valueE",
   "self_type" : "_ZTIN7android18trait_trivial_ctorIcE6$valueE",
   "size" : 4,
   "source_file" : "system/core/libutils/include/utils/TypeHelpers.h",
   "underlying_type" : "_ZTIj"
  },
  {
   "alignment" : 4,
   "enum_fields" :
   [
    {
     "enum_field_value" : 1,
     "name" : "android::trait_trivial_ctor<double>::value"
    }
   ],
   "linker_set_key" : "_ZTIN7android18trait_trivial_ctorIdE6$valueE",
   "name" : "android::trait_trivial_ctor<double>::(anonymous enum at system/core/libutils/include/utils/TypeHelpers.h:110:1)",
   "referenced_type" : "_ZTIN7android18trait_trivial_ctorIdE6$valueE",
   "self_type" : "_ZTIN7android18trait_trivial_ctorIdE6$valueE",
   "size" : 4,
   "source_file" : "system/core/libutils/include/utils/TypeHelpers.h",
   "underlying_type" : "_ZTIj"
  },
  {
   "alignment" : 4,
   "enum_fields" :
   [
    {
     "enum_field_value" : 1,
     "name" : "android::trait_trivial_ctor<float>::value"
    }
   ],
   "linker_set_key" : "_ZTIN7android18trait_trivial_ctorIfE6$valueE",
   "name" : "android::trait_trivial_ctor<float>::(anonymous enum at system/core/libutils/include/utils/TypeHelpers.h:109:1)",
   "referenced_type" : "_ZTIN7android18trait_trivial_ctorIfE6$valueE",
   "self_type" : "_ZTIN7android18trait_trivial_ctorIfE6$valueE",
   "size" : 4,
   "source_file" : "system/core/libutils/include/utils/TypeHelpers.h",
   "underlying_type" : "_ZTIj"
  },
  {
   "alignment" : 4,
   "enum_fields" :
   [
    {
     "enum_field_value" : 1,
     "name" : "android::trait_trivial_ctor<unsigned char>::value"
    }
   ],
   "linker_set_key" : "_ZTIN7android18trait_trivial_ctorIhE6$valueE",
   "name" : "android::trait_trivial_ctor<unsigned char>::(anonymous enum at system/core/libutils/include/utils/TypeHelpers.h:100:1)",
   "referenced_type" : "_ZTIN7android18trait_trivial_ctorIhE6$valueE",
   "self_type" : "_ZTIN7android18trait_trivial_ctorIhE6$valueE",
   "size" : 4,
   "source_file" : "system/core/libutils/include/utils/TypeHelpers.h",
   "underlying_type" : "_ZTIj"
  },
  {
   "alignment" : 4,
   "enum_fields" :
   [
    {
     "enum_field_value" : 1,
     "name" : "android::trait_trivial_ctor<int>::value"
    }
   ],
   "linker_set_key" : "_ZTIN7android18trait_trivial_ctorIiE6$valueE",
   "name" : "android::trait_trivial_ctor<int>::(anonymous enum at system/core/libutils/include/utils/TypeHelpers.h:103:1)",
   "referenced_type" : "_ZTIN7android18trait_trivial_ctorIiE6$valueE",
   "self_type" : "_ZTIN7android18trait_trivial_ctorIiE6$valueE",
   "size" : 4,
   "source_file" : "system/core/libutils/include/utils/TypeHelpers.h",
   "underlying_type" : "_ZTIj"
  },
  {
   "alignment" : 4,
   "enum_fields" :
   [
    {
     "enum_field_value" : 1,
     "name" : "android::trait_trivial_ctor<unsigned int>::value"
    }
   ],
   "linker_set_key" : "_ZTIN7android18trait_trivial_ctorIjE6$valueE",
   "name" : "android::trait_trivial_ctor<unsigned int>::(anonymous enum at system/core/libutils/include/utils/TypeHelpers.h:104:1)",
   "referenced_type" : "_ZTIN7android18trait_trivial_ctorIjE6$valueE",
   "self_type" : "_ZTIN7android18trait_trivial_ctorIjE6$valueE",
   "size" : 4,
   "source_file" : "system/core/libutils/include/utils/TypeHelpers.h",
   "underlying_type" : "_ZTIj"
  },
  {
   "alignment" : 4,
   "enum_fields" :
   [
    {
     "enum_field_value" : 1,
     "name" : "android::trait_trivial_ctor<long>::value"
    }
   ],
   "linker_set_key" : "_ZTIN7android18trait_trivial_ctorIlE6$valueE",
   "name" : "android::trait_trivial_ctor<long>::(anonymous enum at system/core/libutils/include/utils/TypeHelpers.h:105:1)",
   "referenced_type" : "_ZTIN7android18trait_trivial_ctorIlE6$valueE",
   "self_type" : "_ZTIN7android18trait_trivial_ctorIlE6$valueE",
   "size" : 4,
   "source_file" : "system/core/libutils/include/utils/TypeHelpers.h",
   "underlying_type" : "_ZTIj"
  },
  {
   "alignment" : 4,
   "enum_fields" :
   [
    {
     "enum_field_value" : 1,
     "name" : "android::trait_trivial_ctor<unsigned long>::value"
    }
   ],
   "linker_set_key" : "_ZTIN7android18trait_trivial_ctorImE6$valueE",
   "name" : "android::trait_trivial_ctor<unsigned long>::(anonymous enum at system/core/libutils/include/utils/TypeHelpers.h:106:1)",
   "referenced_type" : "_ZTIN7android18trait_trivial_ctorImE6$valueE",
   "self_type" : "_ZTIN7android18trait_trivial_ctorImE6$valueE",
   "size" : 4,
   "source_file" : "system/core/libutils/include/utils/TypeHelpers.h",
   "underlying_type" : "_ZTIj"
  },
  {
   "alignment" : 4,
   "enum_fields" :
   [
    {
     "enum_field_value" : 1,
     "name" : "android::trait_trivial_ctor<short>::value"
    }
   ],
   "linker_set_key" : "_ZTIN7android18trait_trivial_ctorIsE6$valueE",
   "name" : "android::trait_trivial_ctor<short>::(anonymous enum at system/core/libutils/include/utils/TypeHelpers.h:101:1)",
   "referenced_type" : "_ZTIN7android18trait_trivial_ctorIsE6$valueE",
   "self_type" : "_ZTIN7android18trait_trivial_ctorIsE6$valueE",
   "size" : 4,
   "source_file" : "system/core/libutils/include/utils/TypeHelpers.h",
   "underlying_type" : "_ZTIj"
  },
  {
   "alignment" : 4,
   "enum_fields" :
   [
    {
     "enum_field_value" : 1,
     "name" : "android::trait_trivial_ctor<unsigned short>::value"
    }
   ],
   "linker_set_key" : "_ZTIN7android18trait_trivial_ctorItE6$valueE",
   "name" : "android::trait_trivial_ctor<unsigned short>::(anonymous enum at system/core/libutils/include/utils/TypeHelpers.h:102:1)",
   "referenced_type" : "_ZTIN7android18trait_trivial_ctorItE6$valueE",
   "self_type" : "_ZTIN7android18trait_trivial_ctorItE6$valueE",
   "size" : 4,
   "source_file" : "system/core/libutils/include/utils/TypeHelpers.h",
   "underlying_type" : "_ZTIj"
  },
  {
   "alignment" : 4,
   "enum_fields" :
   [
    {
     "enum_field_value" : 1,
     "name" : "android::trait_trivial_ctor<void>::value"
    }
   ],
   "linker_set_key" : "_ZTIN7android18trait_trivial_ctorIvE6$valueE",
   "name" : "android::trait_trivial_ctor<void>::(anonymous enum at system/core/libutils/include/utils/TypeHelpers.h:97:1)",
   "referenced_type" : "_ZTIN7android18trait_trivial_ctorIvE6$valueE",
   "self_type" : "_ZTIN7android18trait_trivial_ctorIvE6$valueE",
   "size" : 4,
   "source_file" : "system/core/libutils/include/utils/TypeHelpers.h",
   "underlying_type" : "_ZTIj"
  },
  {
   "alignment" : 4,
   "enum_fields" :
   [
    {
     "enum_field_value" : 1,
     "name" : "android::trait_trivial_ctor<long long>::value"
    }
   ],
   "linker_set_key" : "_ZTIN7android18trait_trivial_ctorIxE6$valueE",
   "name" : "android::trait_trivial_ctor<long long>::(anonymous enum at system/core/libutils/include/utils/TypeHelpers.h:107:1)",
   "referenced_type" : "_ZTIN7android18trait_trivial_ctorIxE6$valueE",
   "self_type" : "_ZTIN7android18trait_trivial_ctorIxE6$valueE",
   "size" : 4,
   "source_file" : "system/core/libutils/include/utils/TypeHelpers.h",
   "underlying_type" : "_ZTIj"
  },
  {
   "alignment" : 4,
   "enum_fields" :
   [
    {
     "enum_field_value" : 1,
     "name" : "android::trait_trivial_ctor<unsigned long long>::value"
    }
   ],
   "linker_set_key" : "_ZTIN7android18trait_trivial_ctorIyE6$valueE",
   "name" : "android::trait_trivial_ctor<unsigned long long>::(anonymous enum at system/core/libutils/include/utils/TypeHelpers.h:108:1)",
   "referenced_type" : "_ZTIN7android18trait_trivial_ctorIyE6$valueE",
   "self_type" : "_ZTIN7android18trait_trivial_ctorIyE6$valueE",
   "size" : 4,
   "source_file" : "system/core/libutils/include/utils/TypeHelpers.h",
   "underlying_type" : "_ZTIj"
  },
  {
   "alignment" : 4,
   "enum_fields" :
   [
    {
     "enum_field_value" : 1,
     "name" : "android::trait_trivial_dtor<bool>::value"
    }
   ],
   "linker_set_key" : "_ZTIN7android18trait_trivial_dtorIbE6$valueE",
   "name" : "android::trait_trivial_dtor<bool>::(anonymous enum at system/core/libutils/include/utils/TypeHelpers.h:98:1)",
   "referenced_type" : "_ZTIN7android18trait_trivial_dtorIbE6$valueE",
   "self_type" : "_ZTIN7android18trait_trivial_dtorIbE6$valueE",
   "size" : 4,
   "source_file" : "system/core/libutils/include/utils/TypeHelpers.h",
   "underlying_type" : "_ZTIj"
  },
  {
   "alignment" : 4,
   "enum_fields" :
   [
    {
     "enum_field_value" : 1,
     "name" : "android::trait_trivial_dtor<char>::value"
    }
   ],
   "linker_set_key" : "_ZTIN7android18trait_trivial_dtorIcE6$valueE",
   "name" : "android::trait_trivial_dtor<char>::(anonymous enum at system/core/libutils/include/utils/TypeHelpers.h:99:1)",
   "referenced_type" : "_ZTIN7android18trait_trivial_dtorIcE6$valueE",
   "self_type" : "_ZTIN7android18trait_trivial_dtorIcE6$valueE",
   "size" : 4,
   "source_file" : "system/core/libutils/include/utils/TypeHelpers.h",
   "underlying_type" : "_ZTIj"
  },
  {
   "alignment" : 4,
   "enum_fields" :
   [
    {
     "enum_field_value" : 1,
     "name" : "android::trait_trivial_dtor<double>::value"
    }
   ],
   "linker_set_key" : "_ZTIN7android18trait_trivial_dtorIdE6$valueE",
   "name" : "android::trait_trivial_dtor<double>::(anonymous enum at system/core/libutils/include/utils/TypeHelpers.h:110:1)",
   "referenced_type" : "_ZTIN7android18trait_trivial_dtorIdE6$valueE",
   "self_type" : "_ZTIN7android18trait_trivial_dtorIdE6$valueE",
   "size" : 4,
   "source_file" : "system/core/libutils/include/utils/TypeHelpers.h",
   "underlying_type" : "_ZTIj"
  },
  {
   "alignment" : 4,
   "enum_fields" :
   [
    {
     "enum_field_value" : 1,
     "name" : "android::trait_trivial_dtor<float>::value"
    }
   ],
   "linker_set_key" : "_ZTIN7android18trait_trivial_dtorIfE6$valueE",
   "name" : "android::trait_trivial_dtor<float>::(anonymous enum at system/core/libutils/include/utils/TypeHelpers.h:109:1)",
   "referenced_type" : "_ZTIN7android18trait_trivial_dtorIfE6$valueE",
   "self_type" : "_ZTIN7android18trait_trivial_dtorIfE6$valueE",
   "size" : 4,
   "source_file" : "system/core/libutils/include/utils/TypeHelpers.h",
   "underlying_type" : "_ZTIj"
  },
  {
   "alignment" : 4,
   "enum_fields" :
   [
    {
     "enum_field_value" : 1,
     "name" : "android::trait_trivial_dtor<unsigned char>::value"
    }
   ],
   "linker_set_key" : "_ZTIN7android18trait_trivial_dtorIhE6$valueE",
   "name" : "android::trait_trivial_dtor<unsigned char>::(anonymous enum at system/core/libutils/include/utils/TypeHelpers.h:100:1)",
   "referenced_type" : "_ZTIN7android18trait_trivial_dtorIhE6$valueE",
   "self_type" : "_ZTIN7android18trait_trivial_dtorIhE6$valueE",
   "size" : 4,
   "source_file" : "system/core/libutils/include/utils/TypeHelpers.h",
   "underlying_type" : "_ZTIj"
  },
  {
   "alignment" : 4,
   "enum_fields" :
   [
    {
     "enum_field_value" : 1,
     "name" : "android::trait_trivial_dtor<int>::value"
    }
   ],
   "linker_set_key" : "_ZTIN7android18trait_trivial_dtorIiE6$valueE",
   "name" : "android::trait_trivial_dtor<int>::(anonymous enum at system/core/libutils/include/utils/TypeHelpers.h:103:1)",
   "referenced_type" : "_ZTIN7android18trait_trivial_dtorIiE6$valueE",
   "self_type" : "_ZTIN7android18trait_trivial_dtorIiE6$valueE",
   "size" : 4,
   "source_file" : "system/core/libutils/include/utils/TypeHelpers.h",
   "underlying_type" : "_ZTIj"
  },
  {
   "alignment" : 4,
   "enum_fields" :
   [
    {
     "enum_field_value" : 1,
     "name" : "android::trait_trivial_dtor<unsigned int>::value"
    }
   ],
   "linker_set_key" : "_ZTIN7android18trait_trivial_dtorIjE6$valueE",
   "name" : "android::trait_trivial_dtor<unsigned int>::(anonymous enum at system/core/libutils/include/utils/TypeHelpers.h:104:1)",
   "referenced_type" : "_ZTIN7android18trait_trivial_dtorIjE6$valueE",
   "self_type" : "_ZTIN7android18trait_trivial_dtorIjE6$valueE",
   "size" : 4,
   "source_file" : "system/core/libutils/include/utils/TypeHelpers.h",
   "underlying_type" : "_ZTIj"
  },
  {
   "alignment" : 4,
   "enum_fields" :
   [
    {
     "enum_field_value" : 1,
     "name" : "android::trait_trivial_dtor<long>::value"
    }
   ],
   "linker_set_key" : "_ZTIN7android18trait_trivial_dtorIlE6$valueE",
   "name" : "android::trait_trivial_dtor<long>::(anonymous enum at system/core/libutils/include/utils/TypeHelpers.h:105:1)",
   "referenced_type" : "_ZTIN7android18trait_trivial_dtorIlE6$valueE",
   "self_type" : "_ZTIN7android18trait_trivial_dtorIlE6$valueE",
   "size" : 4,
   "source_file" : "system/core/libutils/include/utils/TypeHelpers.h",
   "underlying_type" : "_ZTIj"
  },
  {
   "alignment" : 4,
   "enum_fields" :
   [
    {
     "enum_field_value" : 1,
     "name" : "android::trait_trivial_dtor<unsigned long>::value"
    }
   ],
   "linker_set_key" : "_ZTIN7android18trait_trivial_dtorImE6$valueE",
   "name" : "android::trait_trivial_dtor<unsigned long>::(anonymous enum at system/core/libutils/include/utils/TypeHelpers.h:106:1)",
   "referenced_type" : "_ZTIN7android18trait_trivial_dtorImE6$valueE",
   "self_type" : "_ZTIN7android18trait_trivial_dtorImE6$valueE",
   "size" : 4,
   "source_file" : "system/core/libutils/include/utils/TypeHelpers.h",
   "underlying_type" : "_ZTIj"
  },
  {
   "alignment" : 4,
   "enum_fields" :
   [
    {
     "enum_field_value" : 1,
     "name" : "android::trait_trivial_dtor<short>::value"
    }
   ],
   "linker_set_key" : "_ZTIN7android18trait_trivial_dtorIsE6$valueE",
   "name" : "android::trait_trivial_dtor<short>::(anonymous enum at system/core/libutils/include/utils/TypeHelpers.h:101:1)",
   "referenced_type" : "_ZTIN7android18trait_trivial_dtorIsE6$valueE",
   "self_type" : "_ZTIN7android18trait_trivial_dtorIsE6$valueE",
   "size" : 4,
   "source_file" : "system/core/libutils/include/utils/TypeHelpers.h",
   "underlying_type" : "_ZTIj"
  },
  {
   "alignment" : 4,
   "enum_fields" :
   [
    {
     "enum_field_value" : 1,
     "name" : "android::trait_trivial_dtor<unsigned short>::value"
    }
   ],
   "linker_set_key" : "_ZTIN7android18trait_trivial_dtorItE6$valueE",
   "name" : "android::trait_trivial_dtor<unsigned short>::(anonymous enum at system/core/libutils/include/utils/TypeHelpers.h:102:1)",
   "referenced_type" : "_ZTIN7android18trait_trivial_dtorItE6$valueE",
   "self_type" : "_ZTIN7android18trait_trivial_dtorItE6$valueE",
   "size" : 4,
   "source_file" : "system/core/libutils/include/utils/TypeHelpers.h",
   "underlying_type" : "_ZTIj"
  },
  {
   "alignment" : 4,
   "enum_fields" :
   [
    {
     "enum_field_value" : 1,
     "name" : "android::trait_trivial_dtor<void>::value"
    }
   ],
   "linker_set_key" : "_ZTIN7android18trait_trivial_dtorIvE6$valueE",
   "name" : "android::trait_trivial_dtor<void>::(anonymous enum at system/core/libutils/include/utils/TypeHelpers.h:97:1)",
   "referenced_type" : "_ZTIN7android18trait_trivial_dtorIvE6$valueE",
   "self_type" : "_ZTIN7android18trait_trivial_dtorIvE6$valueE",
   "size" : 4,
   "source_file" : "system/core/libutils/include/utils/TypeHelpers.h",
   "underlying_type" : "_ZTIj"
  },
  {
   "alignment" : 4,
   "enum_fields" :
   [
    {
     "enum_field_value" : 1,
     "name" : "android::trait_trivial_dtor<long long>::value"
    }
   ],
   "linker_set_key" : "_ZTIN7android18trait_trivial_dtorIxE6$valueE",
   "name" : "android::trait_trivial_dtor<long long>::(anonymous enum at system/core/libutils/include/utils/TypeHelpers.h:107:1)",
   "referenced_type" : "_ZTIN7android18trait_trivial_dtorIxE6$valueE",
   "self_type" : "_ZTIN7android18trait_trivial_dtorIxE6$valueE",
   "size" : 4,
   "source_file" : "system/core/libutils/include/utils/TypeHelpers.h",
   "underlying_type" : "_ZTIj"
  },
  {
   "alignment" : 4,
   "enum_fields" :
   [
    {
     "enum_field_value" : 1,
     "name" : "android::trait_trivial_dtor<unsigned long long>::value"
    }
   ],
   "linker_set_key" : "_ZTIN7android18trait_trivial_dtorIyE6$valueE",
   "name" : "android::trait_trivial_dtor<unsigned long long>::(anonymous enum at system/core/libutils/include/utils/TypeHelpers.h:108:1)",
   "referenced_type" : "_ZTIN7android18trait_trivial_dtorIyE6$valueE",
   "self_type" : "_ZTIN7android18trait_trivial_dtorIyE6$valueE",
   "size" : 4,
   "source_file" : "system/core/libutils/include/utils/TypeHelpers.h",
   "underlying_type" : "_ZTIj"
  },
  {
   "alignment" : 4,
   "enum_fields" :
   [
    {
     "enum_field_value" : 1,
     "name" : "android::trait_trivial_move<android::String8>::value"
    }
   ],
   "linker_set_key" : "_ZTIN7android18trait_trivial_moveINS_7String8EE6$valueE",
   "name" : "android::trait_trivial_move<String8>::(anonymous enum at system/core/libutils/include/utils/String8.h:231:1)",
   "referenced_type" : "_ZTIN7android18trait_trivial_moveINS_7String8EE6$valueE",
   "self_type" : "_ZTIN7android18trait_trivial_moveINS_7String8EE6$valueE",
   "size" : 4,
   "source_file" : "system/core/libutils/include/utils/String8.h",
   "underlying_type" : "_ZTIj"
  },
  {
   "alignment" : 4,
   "enum_fields" :
   [
    {
     "enum_field_value" : 1,
     "name" : "android::trait_trivial_move<android::String16>::value"
    }
   ],
   "linker_set_key" : "_ZTIN7android18trait_trivial_moveINS_8String16EE6$valueE",
   "name" : "android::trait_trivial_move<String16>::(anonymous enum at system/core/libutils/include/utils/String16.h:183:1)",
   "referenced_type" : "_ZTIN7android18trait_trivial_moveINS_8String16EE6$valueE",
   "self_type" : "_ZTIN7android18trait_trivial_moveINS_8String16EE6$valueE",
   "size" : 4,
   "source_file" : "system/core/libutils/include/utils/String16.h",
   "underlying_type" : "_ZTIj"
  },
  {
   "alignment" : 4,
   "enum_fields" :
   [
    {
     "enum_field_value" : 1,
     "name" : "android::trait_trivial_move<bool>::value"
    }
   ],
   "linker_set_key" : "_ZTIN7android18trait_trivial_moveIbE6$valueE",
   "name" : "android::trait_trivial_move<bool>::(anonymous enum at system/core/libutils/include/utils/TypeHelpers.h:98:1)",
   "referenced_type" : "_ZTIN7android18trait_trivial_moveIbE6$valueE",
   "self_type" : "_ZTIN7android18trait_trivial_moveIbE6$valueE",
   "size" : 4,
   "source_file" : "system/core/libutils/include/utils/TypeHelpers.h",
   "underlying_type" : "_ZTIj"
  },
  {
   "alignment" : 4,
   "enum_fields" :
   [
    {
     "enum_field_value" : 1,
     "name" : "android::trait_trivial_move<char>::value"
    }
   ],
   "linker_set_key" : "_ZTIN7android18trait_trivial_moveIcE6$valueE",
   "name" : "android::trait_trivial_move<char>::(anonymous enum at system/core/libutils/include/utils/TypeHelpers.h:99:1)",
   "referenced_type" : "_ZTIN7android18trait_trivial_moveIcE6$valueE",
   "self_type" : "_ZTIN7android18trait_trivial_moveIcE6$valueE",
   "size" : 4,
   "source_file" : "system/core/libutils/include/utils/TypeHelpers.h",
   "underlying_type" : "_ZTIj"
  },
  {
   "alignment" : 4,
   "enum_fields" :
   [
    {
     "enum_field_value" : 1,
     "name" : "android::trait_trivial_move<double>::value"
    }
   ],
   "linker_set_key" : "_ZTIN7android18trait_trivial_moveIdE6$valueE",
   "name" : "android::trait_trivial_move<double>::(anonymous enum at system/core/libutils/include/utils/TypeHelpers.h:110:1)",
   "referenced_type" : "_ZTIN7android18trait_trivial_moveIdE6$valueE",
   "self_type" : "_ZTIN7android18trait_trivial_moveIdE6$valueE",
   "size" : 4,
   "source_file" : "system/core/libutils/include/utils/TypeHelpers.h",
   "underlying_type" : "_ZTIj"
  },
  {
   "alignment" : 4,
   "enum_fields" :
   [
    {
     "enum_field_value" : 1,
     "name" : "android::trait_trivial_move<float>::value"
    }
   ],
   "linker_set_key" : "_ZTIN7android18trait_trivial_moveIfE6$valueE",
   "name" : "android::trait_trivial_move<float>::(anonymous enum at system/core/libutils/include/utils/TypeHelpers.h:109:1)",
   "referenced_type" : "_ZTIN7android18trait_trivial_moveIfE6$valueE",
   "self_type" : "_ZTIN7android18trait_trivial_moveIfE6$valueE",
   "size" : 4,
   "source_file" : "system/core/libutils/include/utils/TypeHelpers.h",
   "underlying_type" : "_ZTIj"
  },
  {
   "alignment" : 4,
   "enum_fields" :
   [
    {
     "enum_field_value" : 1,
     "name" : "android::trait_trivial_move<unsigned char>::value"
    }
   ],
   "linker_set_key" : "_ZTIN7android18trait_trivial_moveIhE6$valueE",
   "name" : "android::trait_trivial_move<unsigned char>::(anonymous enum at system/core/libutils/include/utils/TypeHelpers.h:100:1)",
   "referenced_type" : "_ZTIN7android18trait_trivial_moveIhE6$valueE",
   "self_type" : "_ZTIN7android18trait_trivial_moveIhE6$valueE",
   "size" : 4,
   "source_file" : "system/core/libutils/include/utils/TypeHelpers.h",
   "underlying_type" : "_ZTIj"
  },
  {
   "alignment" : 4,
   "enum_fields" :
   [
    {
     "enum_field_value" : 1,
     "name" : "android::trait_trivial_move<int>::value"
    }
   ],
   "linker_set_key" : "_ZTIN7android18trait_trivial_moveIiE6$valueE",
   "name" : "android::trait_trivial_move<int>::(anonymous enum at system/core/libutils/include/utils/TypeHelpers.h:103:1)",
   "referenced_type" : "_ZTIN7android18trait_trivial_moveIiE6$valueE",
   "self_type" : "_ZTIN7android18trait_trivial_moveIiE6$valueE",
   "size" : 4,
   "source_file" : "system/core/libutils/include/utils/TypeHelpers.h",
   "underlying_type" : "_ZTIj"
  },
  {
   "alignment" : 4,
   "enum_fields" :
   [
    {
     "enum_field_value" : 1,
     "name" : "android::trait_trivial_move<unsigned int>::value"
    }
   ],
   "linker_set_key" : "_ZTIN7android18trait_trivial_moveIjE6$valueE",
   "name" : "android::trait_trivial_move<unsigned int>::(anonymous enum at system/core/libutils/include/utils/TypeHelpers.h:104:1)",
   "referenced_type" : "_ZTIN7android18trait_trivial_moveIjE6$valueE",
   "self_type" : "_ZTIN7android18trait_trivial_moveIjE6$valueE",
   "size" : 4,
   "source_file" : "system/core/libutils/include/utils/TypeHelpers.h",
   "underlying_type" : "_ZTIj"
  },
  {
   "alignment" : 4,
   "enum_fields" :
   [
    {
     "enum_field_value" : 1,
     "name" : "android::trait_trivial_move<long>::value"
    }
   ],
   "linker_set_key" : "_ZTIN7android18trait_trivial_moveIlE6$valueE",
   "name" : "android::trait_trivial_move<long>::(anonymous enum at system/core/libutils/include/utils/TypeHelpers.h:105:1)",
   "referenced_type" : "_ZTIN7android18trait_trivial_moveIlE6$valueE",
   "self_type" : "_ZTIN7android18trait_trivial_moveIlE6$valueE",
   "size" : 4,
   "source_file" : "system/core/libutils/include/utils/TypeHelpers.h",
   "underlying_type" : "_ZTIj"
  },
  {
   "alignment" : 4,
   "enum_fields" :
   [
    {
     "enum_field_value" : 1,
     "name" : "android::trait_trivial_move<unsigned long>::value"
    }
   ],
   "linker_set_key" : "_ZTIN7android18trait_trivial_moveImE6$valueE",
   "name" : "android::trait_trivial_move<unsigned long>::(anonymous enum at system/core/libutils/include/utils/TypeHelpers.h:106:1)",
   "referenced_type" : "_ZTIN7android18trait_trivial_moveImE6$valueE",
   "self_type" : "_ZTIN7android18trait_trivial_moveImE6$valueE",
   "size" : 4,
   "source_file" : "system/core/libutils/include/utils/TypeHelpers.h",
   "underlying_type" : "_ZTIj"
  },
  {
   "alignment" : 4,
   "enum_fields" :
   [
    {
     "enum_field_value" : 1,
     "name" : "android::trait_trivial_move<short>::value"
    }
   ],
   "linker_set_key" : "_ZTIN7android18trait_trivial_moveIsE6$valueE",
   "name" : "android::trait_trivial_move<short>::(anonymous enum at system/core/libutils/include/utils/TypeHelpers.h:101:1)",
   "referenced_type" : "_ZTIN7android18trait_trivial_moveIsE6$valueE",
   "self_type" : "_ZTIN7android18trait_trivial_moveIsE6$valueE",
   "size" : 4,
   "source_file" : "system/core/libutils/include/utils/TypeHelpers.h",
   "underlying_type" : "_ZTIj"
  },
  {
   "alignment" : 4,
   "enum_fields" :
   [
    {
     "enum_field_value" : 1,
     "name" : "android::trait_trivial_move<unsigned short>::value"
    }
   ],
   "linker_set_key" : "_ZTIN7android18trait_trivial_moveItE6$valueE",
   "name" : "android::trait_trivial_move<unsigned short>::(anonymous enum at system/core/libutils/include/utils/TypeHelpers.h:102:1)",
   "referenced_type" : "_ZTIN7android18trait_trivial_moveItE6$valueE",
   "self_type" : "_ZTIN7android18trait_trivial_moveItE6$valueE",
   "size" : 4,
   "source_file" : "system/core/libutils/include/utils/TypeHelpers.h",
   "underlying_type" : "_ZTIj"
  },
  {
   "alignment" : 4,
   "enum_fields" :
   [
    {
     "enum_field_value" : 1,
     "name" : "android::trait_trivial_move<void>::value"
    }
   ],
   "linker_set_key" : "_ZTIN7android18trait_trivial_moveIvE6$valueE",
   "name" : "android::trait_trivial_move<void>::(anonymous enum at system/core/libutils/include/utils/TypeHelpers.h:97:1)",
   "referenced_type" : "_ZTIN7android18trait_trivial_moveIvE6$valueE",
   "self_type" : "_ZTIN7android18trait_trivial_moveIvE6$valueE",
   "size" : 4,
   "source_file" : "system/core/libutils/include/utils/TypeHelpers.h",
   "underlying_type" : "_ZTIj"
  },
  {
   "alignment" : 4,
   "enum_fields" :
   [
    {
     "enum_field_value" : 1,
     "name" : "android::trait_trivial_move<long long>::value"
    }
   ],
   "linker_set_key" : "_ZTIN7android18trait_trivial_moveIxE6$valueE",
   "name" : "android::trait_trivial_move<long long>::(anonymous enum at system/core/libutils/include/utils/TypeHelpers.h:107:1)",
   "referenced_type" : "_ZTIN7android18trait_trivial_moveIxE6$valueE",
   "self_type" : "_ZTIN7android18trait_trivial_moveIxE6$valueE",
   "size" : 4,
   "source_file" : "system/core/libutils/include/utils/TypeHelpers.h",
   "underlying_type" : "_ZTIj"
  },
  {
   "alignment" : 4,
   "enum_fields" :
   [
    {
     "enum_field_value" : 1,
     "name" : "android::trait_trivial_move<unsigned long long>::value"
    }
   ],
   "linker_set_key" : "_ZTIN7android18trait_trivial_moveIyE6$valueE",
   "name" : "android::trait_trivial_move<unsigned long long>::(anonymous enum at system/core/libutils/include/utils/TypeHelpers.h:108:1)",
   "referenced_type" : "_ZTIN7android18trait_trivial_moveIyE6$valueE",
   "self_type" : "_ZTIN7android18trait_trivial_moveIyE6$valueE",
   "size" : 4,
   "source_file" : "system/core/libutils/include/utils/TypeHelpers.h",
   "underlying_type" : "_ZTIj"
  },
  {
   "alignment" : 4,
   "enum_fields" :
   [
    {
     "enum_field_value" : 0,
     "name" : "android::Mutex::PRIVATE"
    },
    {
     "enum_field_value" : 1,
     "name" : "android::Mutex::SHARED"
    }
   ],
   "linker_set_key" : "_ZTIN7android5Mutex8$PRIVATEE",
   "name" : "android::Mutex::(anonymous enum at system/core/libutils/include/utils/Mutex.h:96:5)",
   "referenced_type" : "_ZTIN7android5Mutex8$PRIVATEE",
   "self_type" : "_ZTIN7android5Mutex8$PRIVATEE",
   "size" : 4,
   "source_file" : "system/core/libutils/include/utils/Mutex.h",
   "underlying_type" : "_ZTIj"
  },
  {
   "access" : "private",
   "alignment" : 4,
   "enum_fields" :
   [
    {
     "enum_field_value" : 0,
     "name" : "android::Parcel::READ_FLAG_NONE"
    },
    {
     "enum_field_value" : 1,
     "name" : "android::Parcel::READ_FLAG_SP_NULLABLE"
    }
   ],
   "linker_set_key" : "_ZTIN7android6Parcel9ReadFlagsE",
   "name" : "android::Parcel::ReadFlags",
   "referenced_type" : "_ZTIN7android6Parcel9ReadFlagsE",
   "self_type" : "_ZTIN7android6Parcel9ReadFlagsE",
   "size" : 4,
   "source_file" : "frameworks/native/libs/binder/include/binder/Parcel.h",
   "underlying_type" : "_ZTIj"
  },
  {
   "alignment" : 4,
   "enum_fields" :
   [
    {
     "enum_field_value" : 0,
     "name" : "android::RWLock::PRIVATE"
    },
    {
     "enum_field_value" : 1,
     "name" : "android::RWLock::SHARED"
    }
   ],
   "linker_set_key" : "_ZTIN7android6RWLock8$PRIVATEE",
   "name" : "android::RWLock::(anonymous enum at system/core/libutils/include/utils/RWLock.h:44:5)",
   "referenced_type" : "_ZTIN7android6RWLock8$PRIVATEE",
   "self_type" : "_ZTIN7android6RWLock8$PRIVATEE",
   "size" : 4,
   "source_file" : "system/core/libutils/include/utils/RWLock.h",
   "underlying_type" : "_ZTIj"
  },
  {
   "alignment" : 4,
   "enum_fields" :
   [
    {
     "enum_field_value" : 0,
     "name" : "android::binder::Status::EX_NONE"
    },
    {
     "enum_field_value" : -1,
     "name" : "android::binder::Status::EX_SECURITY"
    },
    {
     "enum_field_value" : -2,
     "name" : "android::binder::Status::EX_BAD_PARCELABLE"
    },
    {
     "enum_field_value" : -3,
     "name" : "android::binder::Status::EX_ILLEGAL_ARGUMENT"
    },
    {
     "enum_field_value" : -4,
     "name" : "android::binder::Status::EX_NULL_POINTER"
    },
    {
     "enum_field_value" : -5,
     "name" : "android::binder::Status::EX_ILLEGAL_STATE"
    },
    {
     "enum_field_value" : -6,
     "name" : "android::binder::Status::EX_NETWORK_MAIN_THREAD"
    },
    {
     "enum_field_value" : -7,
     "name" : "android::binder::Status::EX_UNSUPPORTED_OPERATION"
    },
    {
     "enum_field_value" : -8,
     "name" : "android::binder::Status::EX_SERVICE_SPECIFIC"
    },
    {
     "enum_field_value" : -9,
     "name" : "android::binder::Status::EX_PARCELABLE"
    },
    {
     "enum_field_value" : -128,
     "name" : "android::binder::Status::EX_HAS_REPLY_HEADER"
    },
    {
     "enum_field_value" : -129,
     "name" : "android::binder::Status::EX_TRANSACTION_FAILED"
    }
   ],
   "linker_set_key" : "_ZTIN7android6binder6Status9ExceptionE",
   "name" : "android::binder::Status::Exception",
   "referenced_type" : "_ZTIN7android6binder6Status9ExceptionE",
   "self_type" : "_ZTIN7android6binder6Status9ExceptionE",
   "size" : 4,
   "source_file" : "frameworks/native/libs/binder/include/binder/Status.h",
   "underlying_type" : "_ZTIi"
  },
  {
   "alignment" : 4,
   "enum_fields" :
   [
    {
     "enum_field_value" : 1,
     "name" : "android::IBinder::FIRST_CALL_TRANSACTION"
    },
    {
     "enum_field_value" : 16777215,
     "name" : "android::IBinder::LAST_CALL_TRANSACTION"
    },
    {
     "enum_field_value" : 1599098439,
     "name" : "android::IBinder::PING_TRANSACTION"
    },
    {
     "enum_field_value" : 1598311760,
     "name" : "android::IBinder::DUMP_TRANSACTION"
    },
    {
     "enum_field_value" : 1598246212,
     "name" : "android::IBinder::SHELL_COMMAND_TRANSACTION"
    },
    {
     "enum_field_value" : 1598968902,
     "name" : "android::IBinder::INTERFACE_TRANSACTION"
    },
    {
     "enum_field_value" : 1599295570,
     "name" : "android::IBinder::SYSPROPS_TRANSACTION"
    },
    {
     "enum_field_value" : 1598380116,
     "name" : "android::IBinder::EXTENSION_TRANSACTION"
    },
    {
     "enum_field_value" : 1599097156,
     "name" : "android::IBinder::DEBUG_PID_TRANSACTION"
    },
    {
     "enum_field_value" : 1599362900,
     "name" : "android::IBinder::TWEET_TRANSACTION"
    },
    {
     "enum_field_value" : 1598835019,
     "name" : "android::IBinder::LIKE_TRANSACTION"
    },
    {
     "enum_field_value" : 1,
     "name" : "android::IBinder::FLAG_ONEWAY"
    },
    {
     "enum_field_value" : 32,
     "name" : "android::IBinder::FLAG_CLEAR_BUF"
    },
    {
     "enum_field_value" : 268435456,
     "name" : "android::IBinder::FLAG_PRIVATE_VENDOR"
    }
   ],
   "linker_set_key" : "_ZTIN7android7IBinder22$DEBUG_PID_TRANSACTIONE",
   "name" : "android::IBinder::(anonymous enum at frameworks/native/libs/binder/include/binder/IBinder.h:52:5)",
   "referenced_type" : "_ZTIN7android7IBinder22$DEBUG_PID_TRANSACTIONE",
   "self_type" : "_ZTIN7android7IBinder22$DEBUG_PID_TRANSACTIONE",
   "size" : 4,
   "source_file" : "frameworks/native/libs/binder/include/binder/IBinder.h",
   "underlying_type" : "_ZTIj"
  },
  {
   "access" : "protected",
   "alignment" : 4,
   "enum_fields" :
   [
    {
     "enum_field_value" : 1,
     "name" : "android::RefBase::FIRST_INC_STRONG"
    }
   ],
   "linker_set_key" : "_ZTIN7android7RefBase17$FIRST_INC_STRONGE",
   "name" : "android::RefBase::(anonymous enum at system/core/libutils/include/utils/RefBase.h:358:5)",
   "referenced_type" : "_ZTIN7android7RefBase17$FIRST_INC_STRONGE",
   "self_type" : "_ZTIN7android7RefBase17$FIRST_INC_STRONGE",
   "size" : 4,
   "source_file" : "system/core/libutils/include/utils/RefBase.h",
   "underlying_type" : "_ZTIj"
  },
  {
   "access" : "protected",
   "alignment" : 4,
   "enum_fields" :
   [
    {
     "enum_field_value" : 0,
     "name" : "android::RefBase::OBJECT_LIFETIME_STRONG"
    },
    {
     "enum_field_value" : 1,
     "name" : "android::RefBase::OBJECT_LIFETIME_WEAK"
    },
    {
     "enum_field_value" : 1,
     "name" : "android::RefBase::OBJECT_LIFETIME_MASK"
    }
   ],
   "linker_set_key" : "_ZTIN7android7RefBase21$OBJECT_LIFETIME_MASKE",
   "name" : "android::RefBase::(anonymous enum at system/core/libutils/include/utils/RefBase.h:349:5)",
   "referenced_type" : "_ZTIN7android7RefBase21$OBJECT_LIFETIME_MASKE",
   "self_type" : "_ZTIN7android7RefBase21$OBJECT_LIFETIME_MASKE",
   "size" : 4,
   "source_file" : "system/core/libutils/include/utils/RefBase.h",
   "underlying_type" : "_ZTIj"
  },
  {
   "access" : "private",
   "alignment" : 4,
   "enum_fields" :
   [
    {
     "enum_field_value" : 0,
     "name" : "android::internal::Stability::REPR_NONE"
    },
    {
     "enum_field_value" : 1,
     "name" : "android::internal::Stability::REPR_LOG"
    },
    {
     "enum_field_value" : 2,
     "name" : "android::internal::Stability::REPR_ALLOW_DOWNGRADE"
    }
   ],
   "linker_set_key" : "_ZTIN7android8internal9Stability21$REPR_ALLOW_DOWNGRADEE",
   "name" : "android::internal::Stability::(anonymous enum at frameworks/native/libs/binder/include/binder/Stability.h:177:5)",
   "referenced_type" : "_ZTIN7android8internal9Stability21$REPR_ALLOW_DOWNGRADEE",
   "self_type" : "_ZTIN7android8internal9Stability21$REPR_ALLOW_DOWNGRADEE",
   "size" : 4,
   "source_file" : "frameworks/native/libs/binder/include/binder/Stability.h",
   "underlying_type" : "_ZTIj"
  },
  {
   "access" : "private",
   "alignment" : 1,
   "enum_fields" :
   [
    {
     "enum_field_value" : 0,
     "name" : "android::internal::Stability::UNDECLARED"
    },
    {
     "enum_field_value" : 3,
     "name" : "android::internal::Stability::VENDOR"
    },
    {
     "enum_field_value" : 12,
     "name" : "android::internal::Stability::SYSTEM"
    },
    {
     "enum_field_value" : 63,
     "name" : "android::internal::Stability::VINTF"
    }
   ],
   "linker_set_key" : "_ZTIN7android8internal9Stability5LevelE",
   "name" : "android::internal::Stability::Level",
   "referenced_type" : "_ZTIN7android8internal9Stability5LevelE",
   "self_type" : "_ZTIN7android8internal9Stability5LevelE",
   "size" : 1,
   "source_file" : "frameworks/native/libs/binder/include/binder/Stability.h",
   "underlying_type" : "_ZTIh"
  },
  {
   "alignment" : 4,
   "enum_fields" :
   [
    {
     "enum_field_value" : 0,
     "name" : "android::Condition::WAKE_UP_ONE"
    },
    {
     "enum_field_value" : 1,
     "name" : "android::Condition::WAKE_UP_ALL"
    }
   ],
   "linker_set_key" : "_ZTIN7android9Condition10WakeUpTypeE",
   "name" : "android::Condition::WakeUpType",
   "referenced_type" : "_ZTIN7android9Condition10WakeUpTypeE",
   "self_type" : "_ZTIN7android9Condition10WakeUpTypeE",
   "size" : 4,
   "source_file" : "system/core/libutils/include/utils/Condition.h",
   "underlying_type" : "_ZTIj"
  },
  {
   "alignment" : 4,
   "enum_fields" :
   [
    {
     "enum_field_value" : 0,
     "name" : "android::Condition::PRIVATE"
    },
    {
     "enum_field_value" : 1,
     "name" : "android::Condition::SHARED"
    }
   ],
   "linker_set_key" : "_ZTIN7android9Condition8$PRIVATEE",
   "name" : "android::Condition::(anonymous enum at system/core/libutils/include/utils/Condition.h:54:5)",
   "referenced_type" : "_ZTIN7android9Condition8$PRIVATEE",
   "self_type" : "_ZTIN7android9Condition8$PRIVATEE",
   "size" : 4,
   "source_file" : "system/core/libutils/include/utils/Condition.h",
   "underlying_type" : "_ZTIj"
  }
 ],
 "function_types" :
 [
  {
   "alignment" : 4,
   "linker_set_key" : "_ZTIFRN7android10TextOutputES1_E",
   "name" : "android::TextOutput &(android::TextOutput &)",
   "parameters" :
   [
    {
     "referenced_type" : "_ZTIRN7android10TextOutputE"
    }
   ],
   "referenced_type" : "_ZTIFRN7android10TextOutputES1_E",
   "return_type" : "_ZTIRN7android10TextOutputE",
   "self_type" : "_ZTIFRN7android10TextOutputES1_E",
   "source_file" : "frameworks/native/libs/binder/include/binder/TextOutput.h"
  },
  {
   "alignment" : 4,
   "linker_set_key" : "_ZTIFRNSt3__113basic_ostreamIcNS_11char_traitsIcEEEES4_E",
   "name" : "std::__1::basic_ostream<char> &(std::__1::basic_ostream<char> &)",
   "parameters" :
   [
    {
     "referenced_type" : "_ZTIRNSt3__113basic_ostreamIcNS_11char_traitsIcEEEE"
    }
   ],
   "referenced_type" : "_ZTIFRNSt3__113basic_ostreamIcNS_11char_traitsIcEEEES4_E",
   "return_type" : "_ZTIRNSt3__113basic_ostreamIcNS_11char_traitsIcEEEE",
   "self_type" : "_ZTIFRNSt3__113basic_ostreamIcNS_11char_traitsIcEEEES4_E",
   "source_file" : "frameworks/native/libs/binder/include/binder/TextOutput.h"
  },
  {
   "alignment" : 4,
   "linker_set_key" : "_ZTIFiPvE",
   "name" : "int (void *)",
   "parameters" :
   [
    {
     "referenced_type" : "_ZTIPv"
    }
   ],
   "referenced_type" : "_ZTIFiPvE",
   "return_type" : "_ZTIi",
   "self_type" : "_ZTIFiPvE",
   "source_file" : "system/core/libutils/include/utils/AndroidThreads.h"
  },
  {
   "alignment" : 4,
   "linker_set_key" : "_ZTIFvPKvPvS1_E",
   "name" : "void (const void *, void *, void *)",
   "parameters" :
   [
    {
     "referenced_type" : "_ZTIPKv"
    },
    {
     "referenced_type" : "_ZTIPv"
    },
    {
     "referenced_type" : "_ZTIPv"
    }
   ],
   "referenced_type" : "_ZTIFvPKvPvS1_E",
   "return_type" : "_ZTIv",
   "self_type" : "_ZTIFvPKvPvS1_E",
   "source_file" : "frameworks/native/libs/binder/include/binder/BpBinder.h"
  },
  {
   "alignment" : 4,
   "linker_set_key" : "_ZTIFvPN7android6ParcelEPKhjPKyjE",
   "name" : "void (android::Parcel *, const unsigned char *, unsigned int, const unsigned long long *, unsigned int)",
   "parameters" :
   [
    {
     "referenced_type" : "_ZTIPN7android6ParcelE"
    },
    {
     "referenced_type" : "_ZTIPKh"
    },
    {
     "referenced_type" : "_ZTIj"
    },
    {
     "referenced_type" : "_ZTIPKy"
    },
    {
     "referenced_type" : "_ZTIj"
    }
   ],
   "referenced_type" : "_ZTIFvPN7android6ParcelEPKhjPKyjE",
   "return_type" : "_ZTIv",
   "self_type" : "_ZTIFvPN7android6ParcelEPKhjPKyjE",
   "source_file" : "frameworks/native/libs/binder/include/binder/Parcel.h"
  },
  {
   "alignment" : 4,
   "linker_set_key" : "_ZTIFviE",
   "name" : "void (int)",
   "parameters" :
   [
    {
     "referenced_type" : "_ZTIi"
    }
   ],
   "referenced_type" : "_ZTIFviE",
   "return_type" : "_ZTIv",
   "self_type" : "_ZTIFviE",
   "source_file" : "frameworks/native/libs/binder/include/binder/BpBinder.h"
  }
 ],
 "functions" :
 [
  {
   "function_name" : "android::Parcelable::Parcelable",
   "linker_set_key" : "_ZN7android10ParcelableC2ERKS0_",
   "parameters" :
   [
    {
     "is_this_ptr" : true,
     "referenced_type" : "_ZTIPN7android10ParcelableE"
    },
    {
     "referenced_type" : "_ZTIRKN7android10ParcelableE"
    }
   ],
   "return_type" : "_ZTIv",
   "source_file" : "frameworks/native/libs/binder/include/binder/Parcelable.h"
  },
  {
   "function_name" : "android::Parcelable::Parcelable",
   "linker_set_key" : "_ZN7android10ParcelableC2Ev",
   "parameters" :
   [
    {
     "is_this_ptr" : true,
     "referenced_type" : "_ZTIPN7android10ParcelableE"
    }
   ],
   "return_type" : "_ZTIv",
   "source_file" : "frameworks/native/libs/binder/include/binder/Parcelable.h"
  },
  {
   "function_name" : "android::Parcelable::~Parcelable",
   "linker_set_key" : "_ZN7android10ParcelableD0Ev",
   "parameters" :
   [
    {
     "is_this_ptr" : true,
     "referenced_type" : "_ZTIPN7android10ParcelableE"
    }
   ],
   "return_type" : "_ZTIv",
   "source_file" : "frameworks/native/libs/binder/include/binder/Parcelable.h"
  },
  {
   "function_name" : "android::Parcelable::~Parcelable",
   "linker_set_key" : "_ZN7android10ParcelableD1Ev",
   "parameters" :
   [
    {
     "is_this_ptr" : true,
     "referenced_type" : "_ZTIPN7android10ParcelableE"
    }
   ],
   "return_type" : "_ZTIv",
   "source_file" : "frameworks/native/libs/binder/include/binder/Parcelable.h"
  },
  {
   "function_name" : "android::Parcelable::~Parcelable",
   "linker_set_key" : "_ZN7android10ParcelableD2Ev",
   "parameters" :
   [
    {
     "is_this_ptr" : true,
     "referenced_type" : "_ZTIPN7android10ParcelableE"
    }
   ],
   "return_type" : "_ZTIv",
   "source_file" : "frameworks/native/libs/binder/include/binder/Parcelable.h"
  },
  {
   "function_name" : "android::RpcSession::ExclusiveConnection::fd",
   "linker_set_key" : "_ZN7android10RpcSession19ExclusiveConnection2fdEv",
   "parameters" :
   [
    {
     "is_this_ptr" : true,
     "referenced_type" : "_ZTIPN7android10RpcSession19ExclusiveConnectionE"
    }
   ],
   "return_type" : "_ZTIRKN7android4base14unique_fd_implINS0_13DefaultCloserEEE",
   "source_file" : "frameworks/native/libs/binder/include/binder/RpcSession.h"
  },
  {
   "access" : "private",
   "function_name" : "android::RpcSession::PrivateAccessorForId::get",
   "linker_set_key" : "_ZN7android10RpcSession20PrivateAccessorForId3getEv",
   "parameters" :
   [
    {
     "is_this_ptr" : true,
     "referenced_type" : "_ZTIPN7android10RpcSession20PrivateAccessorForIdE"
    }
   ],
   "return_type" : "_ZTIKNSt3__18optionalIiEE",
   "source_file" : "frameworks/native/libs/binder/include/binder/RpcSession.h"
  },
  {
   "access" : "private",
   "function_name" : "android::RpcSession::PrivateAccessorForId::PrivateAccessorForId",
   "linker_set_key" : "_ZN7android10RpcSession20PrivateAccessorForIdC1EPKS0_",
   "parameters" :
   [
    {
     "is_this_ptr" : true,
     "referenced_type" : "_ZTIPN7android10RpcSession20PrivateAccessorForIdE"
    },
    {
     "referenced_type" : "_ZTIPKN7android10RpcSessionE"
    }
   ],
   "return_type" : "_ZTIv",
   "source_file" : "frameworks/native/libs/binder/include/binder/RpcSession.h"
  },
  {
   "access" : "private",
   "function_name" : "android::RpcSession::PrivateAccessorForId::PrivateAccessorForId",
   "linker_set_key" : "_ZN7android10RpcSession20PrivateAccessorForIdC2EPKS0_",
   "parameters" :
   [
    {
     "is_this_ptr" : true,
     "referenced_type" : "_ZTIPN7android10RpcSession20PrivateAccessorForIdE"
    },
    {
     "referenced_type" : "_ZTIPKN7android10RpcSessionE"
    }
   ],
   "return_type" : "_ZTIv",
   "source_file" : "frameworks/native/libs/binder/include/binder/RpcSession.h"
  },
  {
   "function_name" : "android::RpcSession::state",
   "linker_set_key" : "_ZN7android10RpcSession5stateEv",
   "parameters" :
   [
    {
     "is_this_ptr" : true,
     "referenced_type" : "_ZTIPN7android10RpcSessionE"
    }
   ],
   "return_type" : "_ZTIRKNSt3__110unique_ptrIN7android8RpcStateENS_14default_deleteIS2_EEEE",
   "source_file" : "frameworks/native/libs/binder/include/binder/RpcSession.h"
  },
  {
   "function_name" : "android::TextOutput::Bundle::Bundle",
   "linker_set_key" : "_ZN7android10TextOutput6BundleC1ERS0_",
   "parameters" :
   [
    {
     "is_this_ptr" : true,
     "referenced_type" : "_ZTIPN7android10TextOutput6BundleE"
    },
    {
     "referenced_type" : "_ZTIRN7android10TextOutputE"
    }
   ],
   "return_type" : "_ZTIv",
   "source_file" : "frameworks/native/libs/binder/include/binder/TextOutput.h"
  },
  {
   "function_name" : "android::TextOutput::Bundle::Bundle",
   "linker_set_key" : "_ZN7android10TextOutput6BundleC2ERS0_",
   "parameters" :
   [
    {
     "is_this_ptr" : true,
     "referenced_type" : "_ZTIPN7android10TextOutput6BundleE"
    },
    {
     "referenced_type" : "_ZTIRN7android10TextOutputE"
    }
   ],
   "return_type" : "_ZTIv",
   "source_file" : "frameworks/native/libs/binder/include/binder/TextOutput.h"
  },
  {
   "function_name" : "android::TextOutput::Bundle::~Bundle",
   "linker_set_key" : "_ZN7android10TextOutput6BundleD1Ev",
   "parameters" :
   [
    {
     "is_this_ptr" : true,
     "referenced_type" : "_ZTIPN7android10TextOutput6BundleE"
    }
   ],
   "return_type" : "_ZTIv",
   "source_file" : "frameworks/native/libs/binder/include/binder/TextOutput.h"
  },
  {
   "function_name" : "android::TextOutput::Bundle::~Bundle",
   "linker_set_key" : "_ZN7android10TextOutput6BundleD2Ev",
   "parameters" :
   [
    {
     "is_this_ptr" : true,
     "referenced_type" : "_ZTIPN7android10TextOutput6BundleE"
    }
   ],
   "return_type" : "_ZTIv",
   "source_file" : "frameworks/native/libs/binder/include/binder/TextOutput.h"
  },
  {
   "function_name" : "android::getThreadId",
   "linker_set_key" : "_ZN7android11getThreadIdEv",
   "return_type" : "_ZTIPv",
   "source_file" : "system/core/libutils/include/utils/AndroidThreads.h"
  },
  {
   "function_name" : "android::compare_type",
   "linker_set_key" : "_ZN7android12compare_typeERKNS_7String8ES2_",
   "parameters" :
   [
    {
     "referenced_type" : "_ZTIRKN7android7String8E"
    },
    {
     "referenced_type" : "_ZTIRKN7android7String8E"
    }
   ],
   "return_type" : "_ZTIi",
   "source_file" : "system/core/libutils/include/utils/String8.h"
  },
  {
   "function_name" : "android::compare_type",
   "linker_set_key" : "_ZN7android12compare_typeERKNS_8String16ES2_",
   "parameters" :
   [
    {
     "referenced_type" : "_ZTIRKN7android8String16E"
    },
    {
     "referenced_type" : "_ZTIRKN7android8String16E"
    }
   ],
   "return_type" : "_ZTIi",
   "source_file" : "system/core/libutils/include/utils/String16.h"
  },
  {
   "function_name" : "android::createThread",
   "linker_set_key" : "_ZN7android12createThreadEPFiPvES0_",
   "parameters" :
   [
    {
     "referenced_type" : "_ZTIPFiPvE"
    },
    {
     "referenced_type" : "_ZTIPv"
    }
   ],
   "return_type" : "_ZTIb",
   "source_file" : "system/core/libutils/include/utils/AndroidThreads.h"
  },
  {
   "function_name" : "android::createThreadEtc",
   "linker_set_key" : "_ZN7android15createThreadEtcEPFiPvES0_PKcijPS0_",
   "parameters" :
   [
    {
     "referenced_type" : "_ZTIPFiPvE"
    },
    {
     "referenced_type" : "_ZTIPv"
    },
    {
     "default_arg" : true,
     "referenced_type" : "_ZTIPKc"
    },
    {
     "default_arg" : true,
     "referenced_type" : "_ZTIi"
    },
    {
     "default_arg" : true,
     "referenced_type" : "_ZTIj"
    },
    {
     "default_arg" : true,
     "referenced_type" : "_ZTIPPv"
    }
   ],
   "return_type" : "_ZTIb",
   "source_file" : "system/core/libutils/include/utils/AndroidThreads.h"
  },
  {
   "function_name" : "android::FlattenableUtils::advance",
   "linker_set_key" : "_ZN7android16FlattenableUtils7advanceERPKvRjj",
   "parameters" :
   [
    {
     "referenced_type" : "_ZTIRPKv"
    },
    {
     "referenced_type" : "_ZTIRj"
    },
    {
     "referenced_type" : "_ZTIj"
    }
   ],
   "return_type" : "_ZTIv",
   "source_file" : "system/core/libutils/include/utils/Flattenable.h"
  },
  {
   "function_name" : "android::FlattenableUtils::advance",
   "linker_set_key" : "_ZN7android16FlattenableUtils7advanceERPvRjj",
   "parameters" :
   [
    {
     "referenced_type" : "_ZTIRPv"
    },
    {
     "referenced_type" : "_ZTIRj"
    },
    {
     "referenced_type" : "_ZTIj"
    }
   ],
   "return_type" : "_ZTIv",
   "source_file" : "system/core/libutils/include/utils/Flattenable.h"
  },
  {
   "access" : "protected",
   "function_name" : "android::ReferenceRenamer::~ReferenceRenamer",
   "linker_set_key" : "_ZN7android16ReferenceRenamerD1Ev",
   "parameters" :
   [
    {
     "is_this_ptr" : true,
     "referenced_type" : "_ZTIPN7android16ReferenceRenamerE"
    }
   ],
   "return_type" : "_ZTIv",
   "source_file" : "system/core/libutils/include/utils/RefBase.h"
  },
  {
   "access" : "protected",
   "function_name" : "android::ReferenceRenamer::~ReferenceRenamer",
   "linker_set_key" : "_ZN7android16ReferenceRenamerD2Ev",
   "parameters" :
   [
    {
     "is_this_ptr" : true,
     "referenced_type" : "_ZTIPN7android16ReferenceRenamerE"
    }
   ],
   "return_type" : "_ZTIv",
   "source_file" : "system/core/libutils/include/utils/RefBase.h"
  },
  {
   "function_name" : "android::VirtualLightRefBase::~VirtualLightRefBase",
   "linker_set_key" : "_ZN7android19VirtualLightRefBaseD0Ev",
   "parameters" :
   [
    {
     "is_this_ptr" : true,
     "referenced_type" : "_ZTIPN7android19VirtualLightRefBaseE"
    }
   ],
   "return_type" : "_ZTIv",
   "source_file" : "system/core/libutils/include/utils/LightRefBase.h"
  },
  {
   "function_name" : "android::VirtualLightRefBase::~VirtualLightRefBase",
   "linker_set_key" : "_ZN7android19VirtualLightRefBaseD1Ev",
   "parameters" :
   [
    {
     "is_this_ptr" : true,
     "referenced_type" : "_ZTIPN7android19VirtualLightRefBaseE"
    }
   ],
   "return_type" : "_ZTIv",
   "source_file" : "system/core/libutils/include/utils/LightRefBase.h"
  },
  {
   "function_name" : "android::VirtualLightRefBase::~VirtualLightRefBase",
   "linker_set_key" : "_ZN7android19VirtualLightRefBaseD2Ev",
   "parameters" :
   [
    {
     "is_this_ptr" : true,
     "referenced_type" : "_ZTIPN7android19VirtualLightRefBaseE"
    }
   ],
   "return_type" : "_ZTIv",
   "source_file" : "system/core/libutils/include/utils/LightRefBase.h"
  },
  {
   "function_name" : "android::strictly_order_type",
   "linker_set_key" : "_ZN7android19strictly_order_typeERKNS_7String8ES2_",
   "parameters" :
   [
    {
     "referenced_type" : "_ZTIRKN7android7String8E"
    },
    {
     "referenced_type" : "_ZTIRKN7android7String8E"
    }
   ],
   "return_type" : "_ZTIi",
   "source_file" : "system/core/libutils/include/utils/String8.h"
  },
  {
   "function_name" : "android::strictly_order_type",
   "linker_set_key" : "_ZN7android19strictly_order_typeERKNS_8String16ES2_",
   "parameters" :
   [
    {
     "referenced_type" : "_ZTIRKN7android8String16E"
    },
    {
     "referenced_type" : "_ZTIRKN7android8String16E"
    }
   ],
   "return_type" : "_ZTIi",
   "source_file" : "system/core/libutils/include/utils/String16.h"
  },
  {
   "function_name" : "android::sp<android::RpcSession>::sp",
   "linker_set_key" : "_ZN7android2spINS_10RpcSessionEEC1EDn",
   "parameters" :
   [
    {
     "is_this_ptr" : true,
     "referenced_type" : "_ZTIPN7android2spINS_10RpcSessionEEE"
    },
    {
     "referenced_type" : "_ZTIDn"
    }
   ],
   "return_type" : "_ZTIv",
   "source_file" : "system/core/libutils/include/utils/StrongPointer.h"
  },
  {
   "function_name" : "android::sp<android::RpcSession>::sp",
   "linker_set_key" : "_ZN7android2spINS_10RpcSessionEEC1Ev",
   "parameters" :
   [
    {
     "is_this_ptr" : true,
     "referenced_type" : "_ZTIPN7android2spINS_10RpcSessionEEE"
    }
   ],
   "return_type" : "_ZTIv",
   "source_file" : "system/core/libutils/include/utils/StrongPointer.h"
  },
  {
   "function_name" : "android::sp<android::RpcSession>::sp",
   "linker_set_key" : "_ZN7android2spINS_10RpcSessionEEC2EDn",
   "parameters" :
   [
    {
     "is_this_ptr" : true,
     "referenced_type" : "_ZTIPN7android2spINS_10RpcSessionEEE"
    },
    {
     "referenced_type" : "_ZTIDn"
    }
   ],
   "return_type" : "_ZTIv",
   "source_file" : "system/core/libutils/include/utils/StrongPointer.h"
  },
  {
   "function_name" : "android::sp<android::RpcSession>::sp",
   "linker_set_key" : "_ZN7android2spINS_10RpcSessionEEC2Ev",
   "parameters" :
   [
    {
     "is_this_ptr" : true,
     "referenced_type" : "_ZTIPN7android2spINS_10RpcSessionEEE"
    }
   ],
   "return_type" : "_ZTIv",
   "source_file" : "system/core/libutils/include/utils/StrongPointer.h"
  },
  {
   "function_name" : "android::sp<android::RpcSession>::~sp",
   "linker_set_key" : "_ZN7android2spINS_10RpcSessionEED1Ev",
   "parameters" :
   [
    {
     "is_this_ptr" : true,
     "referenced_type" : "_ZTIPN7android2spINS_10RpcSessionEEE"
    }
   ],
   "return_type" : "_ZTIv",
   "source_file" : "system/core/libutils/include/utils/StrongPointer.h"
  },
  {
   "function_name" : "android::sp<android::RpcSession>::~sp",
   "linker_set_key" : "_ZN7android2spINS_10RpcSessionEED2Ev",
   "parameters" :
   [
    {
     "is_this_ptr" : true,
     "referenced_type" : "_ZTIPN7android2spINS_10RpcSessionEEE"
    }
   ],
   "return_type" : "_ZTIv",
   "source_file" : "system/core/libutils/include/utils/StrongPointer.h"
  },
  {
   "function_name" : "android::sp<android::RpcSession>::operator=",
   "linker_set_key" : "_ZN7android2spINS_10RpcSessionEEaSEOS2_",
   "parameters" :
   [
    {
     "is_this_ptr" : true,
     "referenced_type" : "_ZTIPN7android2spINS_10RpcSessionEEE"
    },
    {
     "referenced_type" : "_ZTION7android2spINS_10RpcSessionEEE"
    }
   ],
   "return_type" : "_ZTIRN7android2spINS_10RpcSessionEEE",
   "source_file" : "system/core/libutils/include/utils/StrongPointer.h"
  },
  {
   "function_name" : "android::sp<android::RpcSession>::operator=",
   "linker_set_key" : "_ZN7android2spINS_10RpcSessionEEaSERKS2_",
   "parameters" :
   [
    {
     "is_this_ptr" : true,
     "referenced_type" : "_ZTIPN7android2spINS_10RpcSessionEEE"
    },
    {
     "referenced_type" : "_ZTIRKN7android2spINS_10RpcSessionEEE"
    }
   ],
   "return_type" : "_ZTIRN7android2spINS_10RpcSessionEEE",
   "source_file" : "system/core/libutils/include/utils/StrongPointer.h"
  },
  {
   "function_name" : "android::sp<android::ProcessState>::~sp",
   "linker_set_key" : "_ZN7android2spINS_12ProcessStateEED1Ev",
   "parameters" :
   [
    {
     "is_this_ptr" : true,
     "referenced_type" : "_ZTIPN7android2spINS_12ProcessStateEEE"
    }
   ],
   "return_type" : "_ZTIv",
   "source_file" : "system/core/libutils/include/utils/StrongPointer.h"
  },
  {
   "function_name" : "android::sp<android::ProcessState>::~sp",
   "linker_set_key" : "_ZN7android2spINS_12ProcessStateEED2Ev",
   "parameters" :
   [
    {
     "is_this_ptr" : true,
     "referenced_type" : "_ZTIPN7android2spINS_12ProcessStateEEE"
    }
   ],
   "return_type" : "_ZTIv",
   "source_file" : "system/core/libutils/include/utils/StrongPointer.h"
  },
  {
   "function_name" : "android::sp<android::IBinder>::fromExisting",
   "linker_set_key" : "_ZN7android2spINS_7IBinderEE12fromExistingEPS1_",
   "parameters" :
   [
    {
     "referenced_type" : "_ZTIPN7android7IBinderE"
    }
   ],
   "return_type" : "_ZTIN7android2spINS_7IBinderEEE",
   "source_file" : "system/core/libutils/include/utils/StrongPointer.h"
  },
  {
   "access" : "private",
   "function_name" : "android::sp<android::IBinder>::check_not_on_stack",
   "linker_set_key" : "_ZN7android2spINS_7IBinderEE18check_not_on_stackEPKv",
   "parameters" :
   [
    {
     "referenced_type" : "_ZTIPKv"
    }
   ],
   "return_type" : "_ZTIv",
   "source_file" : "system/core/libutils/include/utils/StrongPointer.h"
  },
  {
   "function_name" : "android::sp<android::IBinder>::sp",
   "linker_set_key" : "_ZN7android2spINS_7IBinderEEC1EDn",
   "parameters" :
   [
    {
     "is_this_ptr" : true,
     "referenced_type" : "_ZTIPN7android2spINS_7IBinderEEE"
    },
    {
     "referenced_type" : "_ZTIDn"
    }
   ],
   "return_type" : "_ZTIv",
   "source_file" : "system/core/libutils/include/utils/StrongPointer.h"
  },
  {
   "function_name" : "android::sp<android::IBinder>::sp",
   "linker_set_key" : "_ZN7android2spINS_7IBinderEEC1EOS2_",
   "parameters" :
   [
    {
     "is_this_ptr" : true,
     "referenced_type" : "_ZTIPN7android2spINS_7IBinderEEE"
    },
    {
     "referenced_type" : "_ZTION7android2spINS_7IBinderEEE"
    }
   ],
   "return_type" : "_ZTIv",
   "source_file" : "system/core/libutils/include/utils/StrongPointer.h"
  },
  {
   "function_name" : "android::sp<android::IBinder>::sp",
   "linker_set_key" : "_ZN7android2spINS_7IBinderEEC1Ev",
   "parameters" :
   [
    {
     "is_this_ptr" : true,
     "referenced_type" : "_ZTIPN7android2spINS_7IBinderEEE"
    }
   ],
   "return_type" : "_ZTIv",
   "source_file" : "system/core/libutils/include/utils/StrongPointer.h"
  },
  {
   "function_name" : "android::sp<android::IBinder>::sp",
   "linker_set_key" : "_ZN7android2spINS_7IBinderEEC2EDn",
   "parameters" :
   [
    {
     "is_this_ptr" : true,
     "referenced_type" : "_ZTIPN7android2spINS_7IBinderEEE"
    },
    {
     "referenced_type" : "_ZTIDn"
    }
   ],
   "return_type" : "_ZTIv",
   "source_file" : "system/core/libutils/include/utils/StrongPointer.h"
  },
  {
   "function_name" : "android::sp<android::IBinder>::sp",
   "linker_set_key" : "_ZN7android2spINS_7IBinderEEC2EOS2_",
   "parameters" :
   [
    {
     "is_this_ptr" : true,
     "referenced_type" : "_ZTIPN7android2spINS_7IBinderEEE"
    },
    {
     "referenced_type" : "_ZTION7android2spINS_7IBinderEEE"
    }
   ],
   "return_type" : "_ZTIv",
   "source_file" : "system/core/libutils/include/utils/StrongPointer.h"
  },
  {
   "function_name" : "android::sp<android::IBinder>::sp",
   "linker_set_key" : "_ZN7android2spINS_7IBinderEEC2Ev",
   "parameters" :
   [
    {
     "is_this_ptr" : true,
     "referenced_type" : "_ZTIPN7android2spINS_7IBinderEEE"
    }
   ],
   "return_type" : "_ZTIv",
   "source_file" : "system/core/libutils/include/utils/StrongPointer.h"
  },
  {
   "function_name" : "android::sp<android::IBinder>::~sp",
   "linker_set_key" : "_ZN7android2spINS_7IBinderEED1Ev",
   "parameters" :
   [
    {
     "is_this_ptr" : true,
     "referenced_type" : "_ZTIPN7android2spINS_7IBinderEEE"
    }
   ],
   "return_type" : "_ZTIv",
   "source_file" : "system/core/libutils/include/utils/StrongPointer.h"
  },
  {
   "function_name" : "android::sp<android::IBinder>::~sp",
   "linker_set_key" : "_ZN7android2spINS_7IBinderEED2Ev",
   "parameters" :
   [
    {
     "is_this_ptr" : true,
     "referenced_type" : "_ZTIPN7android2spINS_7IBinderEEE"
    }
   ],
   "return_type" : "_ZTIv",
   "source_file" : "system/core/libutils/include/utils/StrongPointer.h"
  },
  {
   "function_name" : "android::sp<android::IBinder>::operator=",
   "linker_set_key" : "_ZN7android2spINS_7IBinderEEaSEOS2_",
   "parameters" :
   [
    {
     "is_this_ptr" : true,
     "referenced_type" : "_ZTIPN7android2spINS_7IBinderEEE"
    },
    {
     "referenced_type" : "_ZTION7android2spINS_7IBinderEEE"
    }
   ],
   "return_type" : "_ZTIRN7android2spINS_7IBinderEEE",
   "source_file" : "system/core/libutils/include/utils/StrongPointer.h"
  },
  {
   "function_name" : "android::sp<android::IBinder>::operator=",
   "linker_set_key" : "_ZN7android2spINS_7IBinderEEaSERKS2_",
   "parameters" :
   [
    {
     "is_this_ptr" : true,
     "referenced_type" : "_ZTIPN7android2spINS_7IBinderEEE"
    },
    {
     "referenced_type" : "_ZTIRKN7android2spINS_7IBinderEEE"
    }
   ],
   "return_type" : "_ZTIRN7android2spINS_7IBinderEEE",
   "source_file" : "system/core/libutils/include/utils/StrongPointer.h"
  },
  {
   "function_name" : "android::base::borrowed_fd::borrowed_fd",
   "linker_set_key" : "_ZN7android4base11borrowed_fdC1Ei",
   "parameters" :
   [
    {
     "is_this_ptr" : true,
     "referenced_type" : "_ZTIPN7android4base11borrowed_fdE"
    },
    {
     "referenced_type" : "_ZTIi"
    }
   ],
   "return_type" : "_ZTIv",
   "source_file" : "system/libbase/include/android-base/unique_fd.h"
  },
  {
   "function_name" : "android::base::borrowed_fd::borrowed_fd",
   "linker_set_key" : "_ZN7android4base11borrowed_fdC2Ei",
   "parameters" :
   [
    {
     "is_this_ptr" : true,
     "referenced_type" : "_ZTIPN7android4base11borrowed_fdE"
    },
    {
     "referenced_type" : "_ZTIi"
    }
   ],
   "return_type" : "_ZTIv",
   "source_file" : "system/libbase/include/android-base/unique_fd.h"
  },
  {
   "function_name" : "android::base::DefaultCloser::Tag",
   "linker_set_key" : "_ZN7android4base13DefaultCloser3TagEiPvS2_",
   "parameters" :
   [
    {
     "referenced_type" : "_ZTIi"
    },
    {
     "referenced_type" : "_ZTIPv"
    },
    {
     "referenced_type" : "_ZTIPv"
    }
   ],
   "return_type" : "_ZTIv",
   "source_file" : "system/libbase/include/android-base/unique_fd.h"
  },
  {
   "function_name" : "android::base::DefaultCloser::Close",
   "linker_set_key" : "_ZN7android4base13DefaultCloser5CloseEiPv",
   "parameters" :
   [
    {
     "referenced_type" : "_ZTIi"
    },
    {
     "referenced_type" : "_ZTIPv"
    }
   ],
   "return_type" : "_ZTIv",
   "source_file" : "system/libbase/include/android-base/unique_fd.h"
  },
  {
   "access" : "private",
   "function_name" : "android::base::unique_fd_impl<android::base::DefaultCloser>::tag",
   "linker_set_key" : "_ZN7android4base14unique_fd_implINS0_13DefaultCloserEE3tagIS2_EEDTcmclsrT_3Tagfp_fp0_fp1_Ecvv_EEiPvS7_",
   "parameters" :
   [
    {
     "referenced_type" : "_ZTIi"
    },
    {
     "referenced_type" : "_ZTIPv"
    },
    {
     "referenced_type" : "_ZTIPv"
    }
   ],
   "return_type" : "_ZTIv",
   "source_file" : "system/libbase/include/android-base/unique_fd.h",
   "template_args" : [ "_ZTIN7android4base13DefaultCloserE" ]
  },
  {
   "access" : "private",
   "function_name" : "android::base::unique_fd_impl<android::base::DefaultCloser>::close",
   "linker_set_key" : "_ZN7android4base14unique_fd_implINS0_13DefaultCloserEE5closeIS2_EEDTcmclsrT_5Closefp_fp0_Ecvv_EEiPv",
   "parameters" :
   [
    {
     "referenced_type" : "_ZTIi"
    },
    {
     "referenced_type" : "_ZTIPv"
    }
   ],
   "return_type" : "_ZTIv",
   "source_file" : "system/libbase/include/android-base/unique_fd.h",
   "template_args" : [ "_ZTIN7android4base13DefaultCloserE" ]
  },
  {
   "function_name" : "android::base::unique_fd_impl<android::base::DefaultCloser>::reset",
   "linker_set_key" : "_ZN7android4base14unique_fd_implINS0_13DefaultCloserEE5resetEi",
   "parameters" :
   [
    {
     "is_this_ptr" : true,
     "referenced_type" : "_ZTIPN7android4base14unique_fd_implINS0_13DefaultCloserEEE"
    },
    {
     "default_arg" : true,
     "referenced_type" : "_ZTIi"
    }
   ],
   "return_type" : "_ZTIv",
   "source_file" : "system/libbase/include/android-base/unique_fd.h"
  },
  {
   "access" : "private",
   "function_name" : "android::base::unique_fd_impl<android::base::DefaultCloser>::reset",
   "linker_set_key" : "_ZN7android4base14unique_fd_implINS0_13DefaultCloserEE5resetEiPv",
   "parameters" :
   [
    {
     "is_this_ptr" : true,
     "referenced_type" : "_ZTIPN7android4base14unique_fd_implINS0_13DefaultCloserEEE"
    },
    {
     "referenced_type" : "_ZTIi"
    },
    {
     "referenced_type" : "_ZTIPv"
    }
   ],
   "return_type" : "_ZTIv",
   "source_file" : "system/libbase/include/android-base/unique_fd.h"
  },
  {
   "function_name" : "android::base::unique_fd_impl<android::base::DefaultCloser>::release",
   "linker_set_key" : "_ZN7android4base14unique_fd_implINS0_13DefaultCloserEE7releaseEv",
   "parameters" :
   [
    {
     "is_this_ptr" : true,
     "referenced_type" : "_ZTIPN7android4base14unique_fd_implINS0_13DefaultCloserEEE"
    }
   ],
   "return_type" : "_ZTIi",
   "source_file" : "system/libbase/include/android-base/unique_fd.h"
  },
  {
   "function_name" : "android::base::unique_fd_impl<android::base::DefaultCloser>::unique_fd_impl",
   "linker_set_key" : "_ZN7android4base14unique_fd_implINS0_13DefaultCloserEEC1EOS3_",
   "parameters" :
   [
    {
     "is_this_ptr" : true,
     "referenced_type" : "_ZTIPN7android4base14unique_fd_implINS0_13DefaultCloserEEE"
    },
    {
     "referenced_type" : "_ZTION7android4base14unique_fd_implINS0_13DefaultCloserEEE"
    }
   ],
   "return_type" : "_ZTIv",
   "source_file" : "system/libbase/include/android-base/unique_fd.h"
  },
  {
   "function_name" : "android::base::unique_fd_impl<android::base::DefaultCloser>::unique_fd_impl",
   "linker_set_key" : "_ZN7android4base14unique_fd_implINS0_13DefaultCloserEEC1Ev",
   "parameters" :
   [
    {
     "is_this_ptr" : true,
     "referenced_type" : "_ZTIPN7android4base14unique_fd_implINS0_13DefaultCloserEEE"
    }
   ],
   "return_type" : "_ZTIv",
   "source_file" : "system/libbase/include/android-base/unique_fd.h"
  },
  {
   "function_name" : "android::base::unique_fd_impl<android::base::DefaultCloser>::unique_fd_impl",
   "linker_set_key" : "_ZN7android4base14unique_fd_implINS0_13DefaultCloserEEC2EOS3_",
   "parameters" :
   [
    {
     "is_this_ptr" : true,
     "referenced_type" : "_ZTIPN7android4base14unique_fd_implINS0_13DefaultCloserEEE"
    },
    {
     "referenced_type" : "_ZTION7android4base14unique_fd_implINS0_13DefaultCloserEEE"
    }
   ],
   "return_type" : "_ZTIv",
   "source_file" : "system/libbase/include/android-base/unique_fd.h"
  },
  {
   "function_name" : "android::base::unique_fd_impl<android::base::DefaultCloser>::unique_fd_impl",
   "linker_set_key" : "_ZN7android4base14unique_fd_implINS0_13DefaultCloserEEC2Ev",
   "parameters" :
   [
    {
     "is_this_ptr" : true,
     "referenced_type" : "_ZTIPN7android4base14unique_fd_implINS0_13DefaultCloserEEE"
    }
   ],
   "return_type" : "_ZTIv",
   "source_file" : "system/libbase/include/android-base/unique_fd.h"
  },
  {
   "function_name" : "android::base::unique_fd_impl<android::base::DefaultCloser>::~unique_fd_impl",
   "linker_set_key" : "_ZN7android4base14unique_fd_implINS0_13DefaultCloserEED1Ev",
   "parameters" :
   [
    {
     "is_this_ptr" : true,
     "referenced_type" : "_ZTIPN7android4base14unique_fd_implINS0_13DefaultCloserEEE"
    }
   ],
   "return_type" : "_ZTIv",
   "source_file" : "system/libbase/include/android-base/unique_fd.h"
  },
  {
   "function_name" : "android::base::unique_fd_impl<android::base::DefaultCloser>::~unique_fd_impl",
   "linker_set_key" : "_ZN7android4base14unique_fd_implINS0_13DefaultCloserEED2Ev",
   "parameters" :
   [
    {
     "is_this_ptr" : true,
     "referenced_type" : "_ZTIPN7android4base14unique_fd_implINS0_13DefaultCloserEEE"
    }
   ],
   "return_type" : "_ZTIv",
   "source_file" : "system/libbase/include/android-base/unique_fd.h"
  },
  {
   "function_name" : "android::base::Fdopen",
   "linker_set_key" : "_ZN7android4base6FdopenEONS0_14unique_fd_implINS0_13DefaultCloserEEEPKc",
   "parameters" :
   [
    {
     "referenced_type" : "_ZTION7android4base14unique_fd_implINS0_13DefaultCloserEEE"
    },
    {
     "referenced_type" : "_ZTIPKc"
    }
   ],
   "return_type" : "_ZTIP7__sFILE",
   "source_file" : "system/libbase/include/android-base/unique_fd.h"
  },
  {
   "function_name" : "android::base::Fdopendir",
   "linker_set_key" : "_ZN7android4base9FdopendirEONS0_14unique_fd_implINS0_13DefaultCloserEEE",
   "parameters" :
   [
    {
     "referenced_type" : "_ZTION7android4base14unique_fd_implINS0_13DefaultCloserEEE"
    }
   ],
   "return_type" : "_ZTIP3DIR",
   "source_file" : "system/libbase/include/android-base/unique_fd.h"
  },
  {
   "function_name" : "android::endl",
   "linker_set_key" : "_ZN7android4endlERNS_10TextOutputE",
   "parameters" :
   [
    {
     "referenced_type" : "_ZTIRN7android10TextOutputE"
    }
   ],
   "return_type" : "_ZTIRN7android10TextOutputE",
   "source_file" : "frameworks/native/libs/binder/include/binder/TextOutput.h"
  },
  {
   "function_name" : "android::Mutex::lock",
   "linker_set_key" : "_ZN7android5Mutex4lockEv",
   "parameters" :
   [
    {
     "is_this_ptr" : true,
     "referenced_type" : "_ZTIPN7android5MutexE"
    }
   ],
   "return_type" : "_ZTIi",
   "source_file" : "system/core/libutils/include/utils/Mutex.h"
  },
  {
   "function_name" : "android::Mutex::unlock",
   "linker_set_key" : "_ZN7android5Mutex6unlockEv",
   "parameters" :
   [
    {
     "is_this_ptr" : true,
     "referenced_type" : "_ZTIPN7android5MutexE"
    }
   ],
   "return_type" : "_ZTIv",
   "source_file" : "system/core/libutils/include/utils/Mutex.h"
  },
  {
   "function_name" : "android::Mutex::tryLock",
   "linker_set_key" : "_ZN7android5Mutex7tryLockEv",
   "parameters" :
   [
    {
     "is_this_ptr" : true,
     "referenced_type" : "_ZTIPN7android5MutexE"
    }
   ],
   "return_type" : "_ZTIi",
   "source_file" : "system/core/libutils/include/utils/Mutex.h"
  },
  {
   "function_name" : "android::Mutex::Autolock::Autolock",
   "linker_set_key" : "_ZN7android5Mutex8AutolockC1EPS0_",
   "parameters" :
   [
    {
     "is_this_ptr" : true,
     "referenced_type" : "_ZTIPN7android5Mutex8AutolockE"
    },
    {
     "referenced_type" : "_ZTIPN7android5MutexE"
    }
   ],
   "return_type" : "_ZTIv",
   "source_file" : "system/core/libutils/include/utils/Mutex.h"
  },
  {
   "function_name" : "android::Mutex::Autolock::Autolock",
   "linker_set_key" : "_ZN7android5Mutex8AutolockC1ERS0_",
   "parameters" :
   [
    {
     "is_this_ptr" : true,
     "referenced_type" : "_ZTIPN7android5Mutex8AutolockE"
    },
    {
     "referenced_type" : "_ZTIRN7android5MutexE"
    }
   ],
   "return_type" : "_ZTIv",
   "source_file" : "system/core/libutils/include/utils/Mutex.h"
  },
  {
   "function_name" : "android::Mutex::Autolock::Autolock",
   "linker_set_key" : "_ZN7android5Mutex8AutolockC2EPS0_",
   "parameters" :
   [
    {
     "is_this_ptr" : true,
     "referenced_type" : "_ZTIPN7android5Mutex8AutolockE"
    },
    {
     "referenced_type" : "_ZTIPN7android5MutexE"
    }
   ],
   "return_type" : "_ZTIv",
   "source_file" : "system/core/libutils/include/utils/Mutex.h"
  },
  {
   "function_name" : "android::Mutex::Autolock::Autolock",
   "linker_set_key" : "_ZN7android5Mutex8AutolockC2ERS0_",
   "parameters" :
   [
    {
     "is_this_ptr" : true,
     "referenced_type" : "_ZTIPN7android5Mutex8AutolockE"
    },
    {
     "referenced_type" : "_ZTIRN7android5MutexE"
    }
   ],
   "return_type" : "_ZTIv",
   "source_file" : "system/core/libutils/include/utils/Mutex.h"
  },
  {
   "function_name" : "android::Mutex::Autolock::~Autolock",
   "linker_set_key" : "_ZN7android5Mutex8AutolockD1Ev",
   "parameters" :
   [
    {
     "is_this_ptr" : true,
     "referenced_type" : "_ZTIPN7android5Mutex8AutolockE"
    }
   ],
   "return_type" : "_ZTIv",
   "source_file" : "system/core/libutils/include/utils/Mutex.h"
  },
  {
   "function_name" : "android::Mutex::Autolock::~Autolock",
   "linker_set_key" : "_ZN7android5Mutex8AutolockD2Ev",
   "parameters" :
   [
    {
     "is_this_ptr" : true,
     "referenced_type" : "_ZTIPN7android5Mutex8AutolockE"
    }
   ],
   "return_type" : "_ZTIv",
   "source_file" : "system/core/libutils/include/utils/Mutex.h"
  },
  {
   "function_name" : "android::Mutex::timedLock",
   "linker_set_key" : "_ZN7android5Mutex9timedLockEx",
   "parameters" :
   [
    {
     "is_this_ptr" : true,
     "referenced_type" : "_ZTIPN7android5MutexE"
    },
    {
     "referenced_type" : "_ZTIx"
    }
   ],
   "return_type" : "_ZTIi",
   "source_file" : "system/core/libutils/include/utils/Mutex.h"
  },
  {
   "function_name" : "android::Mutex::Mutex",
   "linker_set_key" : "_ZN7android5MutexC1EPKc",
   "parameters" :
   [
    {
     "is_this_ptr" : true,
     "referenced_type" : "_ZTIPN7android5MutexE"
    },
    {
     "referenced_type" : "_ZTIPKc"
    }
   ],
   "return_type" : "_ZTIv",
   "source_file" : "system/core/libutils/include/utils/Mutex.h"
  },
  {
   "function_name" : "android::Mutex::Mutex",
   "linker_set_key" : "_ZN7android5MutexC1EiPKc",
   "parameters" :
   [
    {
     "is_this_ptr" : true,
     "referenced_type" : "_ZTIPN7android5MutexE"
    },
    {
     "referenced_type" : "_ZTIi"
    },
    {
     "default_arg" : true,
     "referenced_type" : "_ZTIPKc"
    }
   ],
   "return_type" : "_ZTIv",
   "source_file" : "system/core/libutils/include/utils/Mutex.h"
  },
  {
   "function_name" : "android::Mutex::Mutex",
   "linker_set_key" : "_ZN7android5MutexC1Ev",
   "parameters" :
   [
    {
     "is_this_ptr" : true,
     "referenced_type" : "_ZTIPN7android5MutexE"
    }
   ],
   "return_type" : "_ZTIv",
   "source_file" : "system/core/libutils/include/utils/Mutex.h"
  },
  {
   "function_name" : "android::Mutex::Mutex",
   "linker_set_key" : "_ZN7android5MutexC2EPKc",
   "parameters" :
   [
    {
     "is_this_ptr" : true,
     "referenced_type" : "_ZTIPN7android5MutexE"
    },
    {
     "referenced_type" : "_ZTIPKc"
    }
   ],
   "return_type" : "_ZTIv",
   "source_file" : "system/core/libutils/include/utils/Mutex.h"
  },
  {
   "function_name" : "android::Mutex::Mutex",
   "linker_set_key" : "_ZN7android5MutexC2EiPKc",
   "parameters" :
   [
    {
     "is_this_ptr" : true,
     "referenced_type" : "_ZTIPN7android5MutexE"
    },
    {
     "referenced_type" : "_ZTIi"
    },
    {
     "default_arg" : true,
     "referenced_type" : "_ZTIPKc"
    }
   ],
   "return_type" : "_ZTIv",
   "source_file" : "system/core/libutils/include/utils/Mutex.h"
  },
  {
   "function_name" : "android::Mutex::Mutex",
   "linker_set_key" : "_ZN7android5MutexC2Ev",
   "parameters" :
   [
    {
     "is_this_ptr" : true,
     "referenced_type" : "_ZTIPN7android5MutexE"
    }
   ],
   "return_type" : "_ZTIv",
   "source_file" : "system/core/libutils/include/utils/Mutex.h"
  },
  {
   "function_name" : "android::Mutex::~Mutex",
   "linker_set_key" : "_ZN7android5MutexD1Ev",
   "parameters" :
   [
    {
     "is_this_ptr" : true,
     "referenced_type" : "_ZTIPN7android5MutexE"
    }
   ],
   "return_type" : "_ZTIv",
   "source_file" : "system/core/libutils/include/utils/Mutex.h"
  },
  {
   "function_name" : "android::Mutex::~Mutex",
   "linker_set_key" : "_ZN7android5MutexD2Ev",
   "parameters" :
   [
    {
     "is_this_ptr" : true,
     "referenced_type" : "_ZTIPN7android5MutexE"
    }
   ],
   "return_type" : "_ZTIv",
   "source_file" : "system/core/libutils/include/utils/Mutex.h"
  },
  {
   "function_name" : "android::Parcel::appendFrom",
   "linker_set_key" : "_ZN7android6Parcel10appendFromEPKS0_jj",
   "parameters" :
   [
    {
     "is_this_ptr" : true,
     "referenced_type" : "_ZTIPN7android6ParcelE"
    },
    {
     "referenced_type" : "_ZTIPKN7android6ParcelE"
    },
    {
     "referenced_type" : "_ZTIj"
    },
    {
     "referenced_type" : "_ZTIj"
    }
   ],
   "return_type" : "_ZTIi",
   "source_file" : "frameworks/native/libs/binder/include/binder/Parcel.h"
  },
  {
   "function_name" : "android::Parcel::markForRpc",
   "linker_set_key" : "_ZN7android6Parcel10markForRpcERKNS_2spINS_10RpcSessionEEE",
   "parameters" :
   [
    {
     "is_this_ptr" : true,
     "referenced_type" : "_ZTIPN7android6ParcelE"
    },
    {
     "referenced_type" : "_ZTIRKN7android2spINS_10RpcSessionEEE"
    }
   ],
   "return_type" : "_ZTIv",
   "source_file" : "frameworks/native/libs/binder/include/binder/Parcel.h"
  },
  {
   "function_name" : "android::Parcel::writeFloat",
   "linker_set_key" : "_ZN7android6Parcel10writeFloatEf",
   "parameters" :
   [
    {
     "is_this_ptr" : true,
     "referenced_type" : "_ZTIPN7android6ParcelE"
    },
    {
     "referenced_type" : "_ZTIf"
    }
   ],
   "return_type" : "_ZTIi",
   "source_file" : "frameworks/native/libs/binder/include/binder/Parcel.h"
  },
  {
   "function_name" : "android::Parcel::writeInt32",
   "linker_set_key" : "_ZN7android6Parcel10writeInt32Ei",
   "parameters" :
   [
    {
     "is_this_ptr" : true,
     "referenced_type" : "_ZTIPN7android6ParcelE"
    },
    {
     "referenced_type" : "_ZTIi"
    }
   ],
   "return_type" : "_ZTIi",
   "source_file" : "frameworks/native/libs/binder/include/binder/Parcel.h"
  },
  {
   "function_name" : "android::Parcel::writeInt64",
   "linker_set_key" : "_ZN7android6Parcel10writeInt64Ex",
   "parameters" :
   [
    {
     "is_this_ptr" : true,
     "referenced_type" : "_ZTIPN7android6ParcelE"
    },
    {
     "referenced_type" : "_ZTIx"
    }
   ],
   "return_type" : "_ZTIi",
   "source_file" : "frameworks/native/libs/binder/include/binder/Parcel.h"
  },
  {
   "function_name" : "android::Parcel::compareData",
   "linker_set_key" : "_ZN7android6Parcel11compareDataERKS0_",
   "parameters" :
   [
    {
     "is_this_ptr" : true,
     "referenced_type" : "_ZTIPN7android6ParcelE"
    },
    {
     "referenced_type" : "_ZTIRKN7android6ParcelE"
    }
   ],
   "return_type" : "_ZTIi",
   "source_file" : "frameworks/native/libs/binder/include/binder/Parcel.h"
  },
  {
   "access" : "private",
   "function_name" : "android::Parcel::finishWrite",
   "linker_set_key" : "_ZN7android6Parcel11finishWriteEj",
   "parameters" :
   [
    {
     "is_this_ptr" : true,
     "referenced_type" : "_ZTIPN7android6ParcelE"
    },
    {
     "referenced_type" : "_ZTIj"
    }
   ],
   "return_type" : "_ZTIi",
   "source_file" : "frameworks/native/libs/binder/include/binder/Parcel.h"
  },
  {
   "function_name" : "android::Parcel::setDataSize",
   "linker_set_key" : "_ZN7android6Parcel11setDataSizeEj",
   "parameters" :
   [
    {
     "is_this_ptr" : true,
     "referenced_type" : "_ZTIPN7android6ParcelE"
    },
    {
     "referenced_type" : "_ZTIj"
    }
   ],
   "return_type" : "_ZTIi",
   "source_file" : "frameworks/native/libs/binder/include/binder/Parcel.h"
  },
  {
   "function_name" : "android::Parcel::writeDouble",
   "linker_set_key" : "_ZN7android6Parcel11writeDoubleEd",
   "parameters" :
   [
    {
     "is_this_ptr" : true,
     "referenced_type" : "_ZTIPN7android6ParcelE"
    },
    {
     "referenced_type" : "_ZTId"
    }
   ],
   "return_type" : "_ZTIi",
   "source_file" : "frameworks/native/libs/binder/include/binder/Parcel.h"
  },
  {
   "function_name" : "android::Parcel::writeObject",
   "linker_set_key" : "_ZN7android6Parcel11writeObjectERK18flat_binder_objectb",
   "parameters" :
   [
    {
     "is_this_ptr" : true,
     "referenced_type" : "_ZTIPN7android6ParcelE"
    },
    {
     "referenced_type" : "_ZTIRK18flat_binder_object"
    },
    {
     "referenced_type" : "_ZTIb"
    }
   ],
   "return_type" : "_ZTIi",
   "source_file" : "frameworks/native/libs/binder/include/binder/Parcel.h"
  },
  {
   "function_name" : "android::Parcel::writeUint32",
   "linker_set_key" : "_ZN7android6Parcel11writeUint32Ej",
   "parameters" :
   [
    {
     "is_this_ptr" : true,
     "referenced_type" : "_ZTIPN7android6ParcelE"
    },
    {
     "referenced_type" : "_ZTIj"
    }
   ],
   "return_type" : "_ZTIi",
   "source_file" : "frameworks/native/libs/binder/include/binder/Parcel.h"
  },
  {
   "function_name" : "android::Parcel::writeUint64",
   "linker_set_key" : "_ZN7android6Parcel11writeUint64Ey",
   "parameters" :
   [
    {
     "is_this_ptr" : true,
     "referenced_type" : "_ZTIPN7android6ParcelE"
    },
    {
     "referenced_type" : "_ZTIy"
    }
   ],
   "return_type" : "_ZTIi",
   "source_file" : "frameworks/native/libs/binder/include/binder/Parcel.h"
  },
  {
   "function_name" : "android::Parcel::ReadableBlob::mutableData",
   "linker_set_key" : "_ZN7android6Parcel12ReadableBlob11mutableDataEv",
   "parameters" :
   [
    {
     "is_this_ptr" : true,
     "referenced_type" : "_ZTIPN7android6Parcel12ReadableBlobE"
    }
   ],
   "return_type" : "_ZTIPv",
   "source_file" : "frameworks/native/libs/binder/include/binder/Parcel.h"
  },
  {
   "function_name" : "android::Parcel::WritableBlob::data",
   "linker_set_key" : "_ZN7android6Parcel12WritableBlob4dataEv",
   "parameters" :
   [
    {
     "is_this_ptr" : true,
     "referenced_type" : "_ZTIPN7android6Parcel12WritableBlobE"
    }
   ],
   "return_type" : "_ZTIPv",
   "source_file" : "frameworks/native/libs/binder/include/binder/Parcel.h"
  },
  {
   "function_name" : "android::Parcel::pushAllowFds",
   "linker_set_key" : "_ZN7android6Parcel12pushAllowFdsEb",
   "parameters" :
   [
    {
     "is_this_ptr" : true,
     "referenced_type" : "_ZTIPN7android6ParcelE"
    },
    {
     "referenced_type" : "_ZTIb"
    }
   ],
   "return_type" : "_ZTIb",
   "source_file" : "frameworks/native/libs/binder/include/binder/Parcel.h"
  },
  {
   "access" : "private",
   "function_name" : "android::Parcel::restartWrite",
   "linker_set_key" : "_ZN7android6Parcel12restartWriteEj",
   "parameters" :
   [
    {
     "is_this_ptr" : true,
     "referenced_type" : "_ZTIPN7android6ParcelE"
    },
    {
     "referenced_type" : "_ZTIj"
    }
   ],
   "return_type" : "_ZTIi",
   "source_file" : "frameworks/native/libs/binder/include/binder/Parcel.h"
  },
  {
   "access" : "private",
   "function_name" : "android::Parcel::writeAligned",
   "linker_set_key" : "_ZN7android6Parcel12writeAlignedIdEEiT_",
   "parameters" :
   [
    {
     "is_this_ptr" : true,
     "referenced_type" : "_ZTIPN7android6ParcelE"
    },
    {
     "referenced_type" : "_ZTId"
    }
   ],
   "return_type" : "_ZTIi",
   "source_file" : "frameworks/native/libs/binder/include/binder/Parcel.h",
   "template_args" : [ "_ZTId" ]
  },
  {
   "access" : "private",
   "function_name" : "android::Parcel::writeAligned",
   "linker_set_key" : "_ZN7android6Parcel12writeAlignedIfEEiT_",
   "parameters" :
   [
    {
     "is_this_ptr" : true,
     "referenced_type" : "_ZTIPN7android6ParcelE"
    },
    {
     "referenced_type" : "_ZTIf"
    }
   ],
   "return_type" : "_ZTIi",
   "source_file" : "frameworks/native/libs/binder/include/binder/Parcel.h",
   "template_args" : [ "_ZTIf" ]
  },
  {
   "access" : "private",
   "function_name" : "android::Parcel::writeAligned",
   "linker_set_key" : "_ZN7android6Parcel12writeAlignedIiEEiT_",
   "parameters" :
   [
    {
     "is_this_ptr" : true,
     "referenced_type" : "_ZTIPN7android6ParcelE"
    },
    {
     "referenced_type" : "_ZTIi"
    }
   ],
   "return_type" : "_ZTIi",
   "source_file" : "frameworks/native/libs/binder/include/binder/Parcel.h",
   "template_args" : [ "_ZTIi" ]
  },
  {
   "access" : "private",
   "function_name" : "android::Parcel::writeAligned",
   "linker_set_key" : "_ZN7android6Parcel12writeAlignedIjEEiT_",
   "parameters" :
   [
    {
     "is_this_ptr" : true,
     "referenced_type" : "_ZTIPN7android6ParcelE"
    },
    {
     "referenced_type" : "_ZTIj"
    }
   ],
   "return_type" : "_ZTIi",
   "source_file" : "frameworks/native/libs/binder/include/binder/Parcel.h",
   "template_args" : [ "_ZTIj" ]
  },
  {
   "access" : "private",
   "function_name" : "android::Parcel::writeAligned",
   "linker_set_key" : "_ZN7android6Parcel12writeAlignedIxEEiT_",
   "parameters" :
   [
    {
     "is_this_ptr" : true,
     "referenced_type" : "_ZTIPN7android6ParcelE"
    },
    {
     "referenced_type" : "_ZTIx"
    }
   ],
   "return_type" : "_ZTIi",
   "source_file" : "frameworks/native/libs/binder/include/binder/Parcel.h",
   "template_args" : [ "_ZTIx" ]
  },
  {
   "access" : "private",
   "function_name" : "android::Parcel::writeAligned",
   "linker_set_key" : "_ZN7android6Parcel12writeAlignedIyEEiT_",
   "parameters" :
   [
    {
     "is_this_ptr" : true,
     "referenced_type" : "_ZTIPN7android6ParcelE"
    },
    {
     "referenced_type" : "_ZTIy"
    }
   ],
   "return_type" : "_ZTIi",
   "source_file" : "frameworks/native/libs/binder/include/binder/Parcel.h",
   "template_args" : [ "_ZTIy" ]
  },
  {
   "function_name" : "android::Parcel::writeCString",
   "linker_set_key" : "_ZN7android6Parcel12writeCStringEPKc",
   "parameters" :
   [
    {
     "is_this_ptr" : true,
     "referenced_type" : "_ZTIPN7android6ParcelE"
    },
    {
     "referenced_type" : "_ZTIPKc"
    }
   ],
   "return_type" : "_ZTIi",
   "source_file" : "frameworks/native/libs/binder/include/binder/Parcel.h"
  },
  {
   "function_name" : "android::Parcel::writeInplace",
   "linker_set_key" : "_ZN7android6Parcel12writeInplaceEj",
   "parameters" :
   [
    {
     "is_this_ptr" : true,
     "referenced_type" : "_ZTIPN7android6ParcelE"
    },
    {
     "referenced_type" : "_ZTIj"
    }
   ],
   "return_type" : "_ZTIPv",
   "source_file" : "frameworks/native/libs/binder/include/binder/Parcel.h"
  },
  {
   "access" : "private",
   "function_name" : "android::Parcel::writePointer",
   "linker_set_key" : "_ZN7android6Parcel12writePointerEj",
   "parameters" :
   [
    {
     "is_this_ptr" : true,
     "referenced_type" : "_ZTIPN7android6ParcelE"
    },
    {
     "referenced_type" : "_ZTIj"
    }
   ],
   "return_type" : "_ZTIi",
   "source_file" : "frameworks/native/libs/binder/include/binder/Parcel.h"
  },
  {
   "function_name" : "android::Parcel::writeString8",
   "linker_set_key" : "_ZN7android6Parcel12writeString8EPKcj",
   "parameters" :
   [
    {
     "is_this_ptr" : true,
     "referenced_type" : "_ZTIPN7android6ParcelE"
    },
    {
     "referenced_type" : "_ZTIPKc"
    },
    {
     "referenced_type" : "_ZTIj"
    }
   ],
   "return_type" : "_ZTIi",
   "source_file" : "frameworks/native/libs/binder/include/binder/Parcel.h"
  },
  {
   "function_name" : "android::Parcel::writeString8",
   "linker_set_key" : "_ZN7android6Parcel12writeString8ERKNS_7String8E",
   "parameters" :
   [
    {
     "is_this_ptr" : true,
     "referenced_type" : "_ZTIPN7android6ParcelE"
    },
    {
     "referenced_type" : "_ZTIRKN7android7String8E"
    }
   ],
   "return_type" : "_ZTIi",
   "source_file" : "frameworks/native/libs/binder/include/binder/Parcel.h"
  },
  {
   "access" : "private",
   "function_name" : "android::Parcel::continueWrite",
   "linker_set_key" : "_ZN7android6Parcel13continueWriteEj",
   "parameters" :
   [
    {
     "is_this_ptr" : true,
     "referenced_type" : "_ZTIPN7android6ParcelE"
    },
    {
     "referenced_type" : "_ZTIj"
    }
   ],
   "return_type" : "_ZTIi",
   "source_file" : "frameworks/native/libs/binder/include/binder/Parcel.h"
  },
  {
   "access" : "private",
   "function_name" : "android::Parcel::flattenBinder",
   "linker_set_key" : "_ZN7android6Parcel13flattenBinderERKNS_2spINS_7IBinderEEE",
   "parameters" :
   [
    {
     "is_this_ptr" : true,
     "referenced_type" : "_ZTIPN7android6ParcelE"
    },
    {
     "referenced_type" : "_ZTIRKN7android2spINS_7IBinderEEE"
    }
   ],
   "return_type" : "_ZTIi",
   "source_file" : "frameworks/native/libs/binder/include/binder/Parcel.h"
  },
  {
   "function_name" : "android::Parcel::markForBinder",
   "linker_set_key" : "_ZN7android6Parcel13markForBinderERKNS_2spINS_7IBinderEEE",
   "parameters" :
   [
    {
     "is_this_ptr" : true,
     "referenced_type" : "_ZTIPN7android6ParcelE"
    },
    {
     "referenced_type" : "_ZTIRKN7android2spINS_7IBinderEEE"
    }
   ],
   "return_type" : "_ZTIv",
   "source_file" : "frameworks/native/libs/binder/include/binder/Parcel.h"
  },
  {
   "function_name" : "android::Parcel::writeString16",
   "linker_set_key" : "_ZN7android6Parcel13writeString16EPKDsj",
   "parameters" :
   [
    {
     "is_this_ptr" : true,
     "referenced_type" : "_ZTIPN7android6ParcelE"
    },
    {
     "referenced_type" : "_ZTIPKDs"
    },
    {
     "referenced_type" : "_ZTIj"
    }
   ],
   "return_type" : "_ZTIi",
   "source_file" : "frameworks/native/libs/binder/include/binder/Parcel.h"
  },
  {
   "function_name" : "android::Parcel::writeString16",
   "linker_set_key" : "_ZN7android6Parcel13writeString16ERKNS_8String16E",
   "parameters" :
   [
    {
     "is_this_ptr" : true,
     "referenced_type" : "_ZTIPN7android6ParcelE"
    },
    {
     "referenced_type" : "_ZTIRKN7android8String16E"
    }
   ],
   "return_type" : "_ZTIi",
   "source_file" : "frameworks/native/libs/binder/include/binder/Parcel.h"
  },
  {
   "function_name" : "android::Parcel::writeString16",
   "linker_set_key" : "_ZN7android6Parcel13writeString16ERKNSt3__110unique_ptrINS_8String16ENS1_14default_deleteIS3_EEEE",
   "parameters" :
   [
    {
     "is_this_ptr" : true,
     "referenced_type" : "_ZTIPN7android6ParcelE"
    },
    {
     "referenced_type" : "_ZTIRKNSt3__110unique_ptrIN7android8String16ENS_14default_deleteIS2_EEEE"
    }
   ],
   "return_type" : "_ZTIi",
   "source_file" : "frameworks/native/libs/binder/include/binder/Parcel.h"
  },
  {
   "function_name" : "android::Parcel::writeString16",
   "linker_set_key" : "_ZN7android6Parcel13writeString16ERKNSt3__18optionalINS_8String16EEE",
   "parameters" :
   [
    {
     "is_this_ptr" : true,
     "referenced_type" : "_ZTIPN7android6ParcelE"
    },
    {
     "referenced_type" : "_ZTIRKNSt3__18optionalIN7android8String16EEE"
    }
   ],
   "return_type" : "_ZTIi",
   "source_file" : "frameworks/native/libs/binder/include/binder/Parcel.h"
  },
  {
   "function_name" : "android::Parcel::writeUnpadded",
   "linker_set_key" : "_ZN7android6Parcel13writeUnpaddedEPKvj",
   "parameters" :
   [
    {
     "is_this_ptr" : true,
     "referenced_type" : "_ZTIPN7android6ParcelE"
    },
    {
     "referenced_type" : "_ZTIPKv"
    },
    {
     "referenced_type" : "_ZTIj"
    }
   ],
   "return_type" : "_ZTIi",
   "source_file" : "frameworks/native/libs/binder/include/binder/Parcel.h"
  },
  {
   "access" : "private",
   "function_name" : "android::Parcel::acquireObjects",
   "linker_set_key" : "_ZN7android6Parcel14acquireObjectsEv",
   "parameters" :
   [
    {
     "is_this_ptr" : true,
     "referenced_type" : "_ZTIPN7android6ParcelE"
    }
   ],
   "return_type" : "_ZTIv",
   "source_file" : "frameworks/native/libs/binder/include/binder/Parcel.h"
  },
  {
   "access" : "private",
   "function_name" : "android::Parcel::freeDataNoInit",
   "linker_set_key" : "_ZN7android6Parcel14freeDataNoInitEv",
   "parameters" :
   [
    {
     "is_this_ptr" : true,
     "referenced_type" : "_ZTIPN7android6ParcelE"
    }
   ],
   "return_type" : "_ZTIv",
   "source_file" : "frameworks/native/libs/binder/include/binder/Parcel.h"
  },
  {
   "access" : "private",
   "function_name" : "android::Parcel::releaseObjects",
   "linker_set_key" : "_ZN7android6Parcel14releaseObjectsEv",
   "parameters" :
   [
    {
     "is_this_ptr" : true,
     "referenced_type" : "_ZTIPN7android6ParcelE"
    }
   ],
   "return_type" : "_ZTIv",
   "source_file" : "frameworks/native/libs/binder/include/binder/Parcel.h"
  },
  {
   "function_name" : "android::Parcel::writeByteArray",
   "linker_set_key" : "_ZN7android6Parcel14writeByteArrayEjPKh",
   "parameters" :
   [
    {
     "is_this_ptr" : true,
     "referenced_type" : "_ZTIPN7android6ParcelE"
    },
    {
     "referenced_type" : "_ZTIj"
    },
    {
     "referenced_type" : "_ZTIPKh"
    }
   ],
   "return_type" : "_ZTIi",
   "source_file" : "frameworks/native/libs/binder/include/binder/Parcel.h"
  },
  {
   "function_name" : "android::Parcel::restoreAllowFds",
   "linker_set_key" : "_ZN7android6Parcel15restoreAllowFdsEb",
   "parameters" :
   [
    {
     "is_this_ptr" : true,
     "referenced_type" : "_ZTIPN7android6ParcelE"
    },
    {
     "referenced_type" : "_ZTIb"
    }
   ],
   "return_type" : "_ZTIv",
   "source_file" : "frameworks/native/libs/binder/include/binder/Parcel.h"
  },
  {
   "function_name" : "android::Parcel::setDataCapacity",
   "linker_set_key" : "_ZN7android6Parcel15setDataCapacityEj",
   "parameters" :
   [
    {
     "is_this_ptr" : true,
     "referenced_type" : "_ZTIPN7android6ParcelE"
    },
    {
     "referenced_type" : "_ZTIj"
    }
   ],
   "return_type" : "_ZTIi",
   "source_file" : "frameworks/native/libs/binder/include/binder/Parcel.h"
  },
  {
   "function_name" : "android::Parcel::writeBoolVector",
   "linker_set_key" : "_ZN7android6Parcel15writeBoolVectorERKNSt3__110unique_ptrINS1_6vectorIbNS1_9allocatorIbEEEENS1_14default_deleteIS6_EEEE",
   "parameters" :
   [
    {
     "is_this_ptr" : true,
     "referenced_type" : "_ZTIPN7android6ParcelE"
    },
    {
     "referenced_type" : "_ZTIRKNSt3__110unique_ptrINS_6vectorIbNS_9allocatorIbEEEENS_14default_deleteIS4_EEEE"
    }
   ],
   "return_type" : "_ZTIi",
   "source_file" : "frameworks/native/libs/binder/include/binder/Parcel.h"
  },
  {
   "function_name" : "android::Parcel::writeBoolVector",
   "linker_set_key" : "_ZN7android6Parcel15writeBoolVectorERKNSt3__16vectorIbNS1_9allocatorIbEEEE",
   "parameters" :
   [
    {
     "is_this_ptr" : true,
     "referenced_type" : "_ZTIPN7android6ParcelE"
    },
    {
     "referenced_type" : "_ZTIRKNSt3__16vectorIbNS_9allocatorIbEEEE"
    }
   ],
   "return_type" : "_ZTIi",
   "source_file" : "frameworks/native/libs/binder/include/binder/Parcel.h"
  },
  {
   "function_name" : "android::Parcel::writeBoolVector",
   "linker_set_key" : "_ZN7android6Parcel15writeBoolVectorERKNSt3__18optionalINS1_6vectorIbNS1_9allocatorIbEEEEEE",
   "parameters" :
   [
    {
     "is_this_ptr" : true,
     "referenced_type" : "_ZTIPN7android6ParcelE"
    },
    {
     "referenced_type" : "_ZTIRKNSt3__18optionalINS_6vectorIbNS_9allocatorIbEEEEEE"
    }
   ],
   "return_type" : "_ZTIi",
   "source_file" : "frameworks/native/libs/binder/include/binder/Parcel.h"
  },
  {
   "function_name" : "android::Parcel::writeByteVector",
   "linker_set_key" : "_ZN7android6Parcel15writeByteVectorERKNSt3__110unique_ptrINS1_6vectorIaNS1_9allocatorIaEEEENS1_14default_deleteIS6_EEEE",
   "parameters" :
   [
    {
     "is_this_ptr" : true,
     "referenced_type" : "_ZTIPN7android6ParcelE"
    },
    {
     "referenced_type" : "_ZTIRKNSt3__110unique_ptrINS_6vectorIaNS_9allocatorIaEEEENS_14default_deleteIS4_EEEE"
    }
   ],
   "return_type" : "_ZTIi",
   "source_file" : "frameworks/native/libs/binder/include/binder/Parcel.h"
  },
  {
   "function_name" : "android::Parcel::writeByteVector",
   "linker_set_key" : "_ZN7android6Parcel15writeByteVectorERKNSt3__110unique_ptrINS1_6vectorIhNS1_9allocatorIhEEEENS1_14default_deleteIS6_EEEE",
   "parameters" :
   [
    {
     "is_this_ptr" : true,
     "referenced_type" : "_ZTIPN7android6ParcelE"
    },
    {
     "referenced_type" : "_ZTIRKNSt3__110unique_ptrINS_6vectorIhNS_9allocatorIhEEEENS_14default_deleteIS4_EEEE"
    }
   ],
   "return_type" : "_ZTIi",
   "source_file" : "frameworks/native/libs/binder/include/binder/Parcel.h"
  },
  {
   "function_name" : "android::Parcel::writeByteVector",
   "linker_set_key" : "_ZN7android6Parcel15writeByteVectorERKNSt3__16vectorIaNS1_9allocatorIaEEEE",
   "parameters" :
   [
    {
     "is_this_ptr" : true,
     "referenced_type" : "_ZTIPN7android6ParcelE"
    },
    {
     "referenced_type" : "_ZTIRKNSt3__16vectorIaNS_9allocatorIaEEEE"
    }
   ],
   "return_type" : "_ZTIi",
   "source_file" : "frameworks/native/libs/binder/include/binder/Parcel.h"
  },
  {
   "function_name" : "android::Parcel::writeByteVector",
   "linker_set_key" : "_ZN7android6Parcel15writeByteVectorERKNSt3__16vectorIhNS1_9allocatorIhEEEE",
   "parameters" :
   [
    {
     "is_this_ptr" : true,
     "referenced_type" : "_ZTIPN7android6ParcelE"
    },
    {
     "referenced_type" : "_ZTIRKNSt3__16vectorIhNS_9allocatorIhEEEE"
    }
   ],
   "return_type" : "_ZTIi",
   "source_file" : "frameworks/native/libs/binder/include/binder/Parcel.h"
  },
  {
   "function_name" : "android::Parcel::writeByteVector",
   "linker_set_key" : "_ZN7android6Parcel15writeByteVectorERKNSt3__18optionalINS1_6vectorIaNS1_9allocatorIaEEEEEE",
   "parameters" :
   [
    {
     "is_this_ptr" : true,
     "referenced_type" : "_ZTIPN7android6ParcelE"
    },
    {
     "referenced_type" : "_ZTIRKNSt3__18optionalINS_6vectorIaNS_9allocatorIaEEEEEE"
    }
   ],
   "return_type" : "_ZTIi",
   "source_file" : "frameworks/native/libs/binder/include/binder/Parcel.h"
  },
  {
   "function_name" : "android::Parcel::writeByteVector",
   "linker_set_key" : "_ZN7android6Parcel15writeByteVectorERKNSt3__18optionalINS1_6vectorIhNS1_9allocatorIhEEEEEE",
   "parameters" :
   [
    {
     "is_this_ptr" : true,
     "referenced_type" : "_ZTIPN7android6ParcelE"
    },
    {
     "referenced_type" : "_ZTIRKNSt3__18optionalINS_6vectorIhNS_9allocatorIhEEEEEE"
    }
   ],
   "return_type" : "_ZTIi",
   "source_file" : "frameworks/native/libs/binder/include/binder/Parcel.h"
  },
  {
   "function_name" : "android::Parcel::writeCharVector",
   "linker_set_key" : "_ZN7android6Parcel15writeCharVectorERKNSt3__110unique_ptrINS1_6vectorIDsNS1_9allocatorIDsEEEENS1_14default_deleteIS6_EEEE",
   "parameters" :
   [
    {
     "is_this_ptr" : true,
     "referenced_type" : "_ZTIPN7android6ParcelE"
    },
    {
     "referenced_type" : "_ZTIRKNSt3__110unique_ptrINS_6vectorIDsNS_9allocatorIDsEEEENS_14default_deleteIS4_EEEE"
    }
   ],
   "return_type" : "_ZTIi",
   "source_file" : "frameworks/native/libs/binder/include/binder/Parcel.h"
  },
  {
   "function_name" : "android::Parcel::writeCharVector",
   "linker_set_key" : "_ZN7android6Parcel15writeCharVectorERKNSt3__16vectorIDsNS1_9allocatorIDsEEEE",
   "parameters" :
   [
    {
     "is_this_ptr" : true,
     "referenced_type" : "_ZTIPN7android6ParcelE"
    },
    {
     "referenced_type" : "_ZTIRKNSt3__16vectorIDsNS_9allocatorIDsEEEE"
    }
   ],
   "return_type" : "_ZTIi",
   "source_file" : "frameworks/native/libs/binder/include/binder/Parcel.h"
  },
  {
   "function_name" : "android::Parcel::writeCharVector",
   "linker_set_key" : "_ZN7android6Parcel15writeCharVectorERKNSt3__18optionalINS1_6vectorIDsNS1_9allocatorIDsEEEEEE",
   "parameters" :
   [
    {
     "is_this_ptr" : true,
     "referenced_type" : "_ZTIPN7android6ParcelE"
    },
    {
     "referenced_type" : "_ZTIRKNSt3__18optionalINS_6vectorIDsNS_9allocatorIDsEEEEEE"
    }
   ],
   "return_type" : "_ZTIi",
   "source_file" : "frameworks/native/libs/binder/include/binder/Parcel.h"
  },
  {
   "function_name" : "android::Parcel::writeInt32Array",
   "linker_set_key" : "_ZN7android6Parcel15writeInt32ArrayEjPKi",
   "parameters" :
   [
    {
     "is_this_ptr" : true,
     "referenced_type" : "_ZTIPN7android6ParcelE"
    },
    {
     "referenced_type" : "_ZTIj"
    },
    {
     "referenced_type" : "_ZTIPKi"
    }
   ],
   "return_type" : "_ZTIi",
   "source_file" : "frameworks/native/libs/binder/include/binder/Parcel.h"
  },
  {
   "function_name" : "android::Parcel::writeParcelable",
   "linker_set_key" : "_ZN7android6Parcel15writeParcelableERKNS_10ParcelableE",
   "parameters" :
   [
    {
     "is_this_ptr" : true,
     "referenced_type" : "_ZTIPN7android6ParcelE"
    },
    {
     "referenced_type" : "_ZTIRKN7android10ParcelableE"
    }
   ],
   "return_type" : "_ZTIi",
   "source_file" : "frameworks/native/libs/binder/include/binder/Parcel.h"
  },
  {
   "function_name" : "android::Parcel::writeFloatVector",
   "linker_set_key" : "_ZN7android6Parcel16writeFloatVectorERKNSt3__110unique_ptrINS1_6vectorIfNS1_9allocatorIfEEEENS1_14default_deleteIS6_EEEE",
   "parameters" :
   [
    {
     "is_this_ptr" : true,
     "referenced_type" : "_ZTIPN7android6ParcelE"
    },
    {
     "referenced_type" : "_ZTIRKNSt3__110unique_ptrINS_6vectorIfNS_9allocatorIfEEEENS_14default_deleteIS4_EEEE"
    }
   ],
   "return_type" : "_ZTIi",
   "source_file" : "frameworks/native/libs/binder/include/binder/Parcel.h"
  },
  {
   "function_name" : "android::Parcel::writeFloatVector",
   "linker_set_key" : "_ZN7android6Parcel16writeFloatVectorERKNSt3__16vectorIfNS1_9allocatorIfEEEE",
   "parameters" :
   [
    {
     "is_this_ptr" : true,
     "referenced_type" : "_ZTIPN7android6ParcelE"
    },
    {
     "referenced_type" : "_ZTIRKNSt3__16vectorIfNS_9allocatorIfEEEE"
    }
   ],
   "return_type" : "_ZTIi",
   "source_file" : "frameworks/native/libs/binder/include/binder/Parcel.h"
  },
  {
   "function_name" : "android::Parcel::writeFloatVector",
   "linker_set_key" : "_ZN7android6Parcel16writeFloatVectorERKNSt3__18optionalINS1_6vectorIfNS1_9allocatorIfEEEEEE",
   "parameters" :
   [
    {
     "is_this_ptr" : true,
     "referenced_type" : "_ZTIPN7android6ParcelE"
    },
    {
     "referenced_type" : "_ZTIRKNSt3__18optionalINS_6vectorIfNS_9allocatorIfEEEEEE"
    }
   ],
   "return_type" : "_ZTIi",
   "source_file" : "frameworks/native/libs/binder/include/binder/Parcel.h"
  },
  {
   "function_name" : "android::Parcel::writeInt32Vector",
   "linker_set_key" : "_ZN7android6Parcel16writeInt32VectorERKNSt3__110unique_ptrINS1_6vectorIiNS1_9allocatorIiEEEENS1_14default_deleteIS6_EEEE",
   "parameters" :
   [
    {
     "is_this_ptr" : true,
     "referenced_type" : "_ZTIPN7android6ParcelE"
    },
    {
     "referenced_type" : "_ZTIRKNSt3__110unique_ptrINS_6vectorIiNS_9allocatorIiEEEENS_14default_deleteIS4_EEEE"
    }
   ],
   "return_type" : "_ZTIi",
   "source_file" : "frameworks/native/libs/binder/include/binder/Parcel.h"
  },
  {
   "function_name" : "android::Parcel::writeInt32Vector",
   "linker_set_key" : "_ZN7android6Parcel16writeInt32VectorERKNSt3__16vectorIiNS1_9allocatorIiEEEE",
   "parameters" :
   [
    {
     "is_this_ptr" : true,
     "referenced_type" : "_ZTIPN7android6ParcelE"
    },
    {
     "referenced_type" : "_ZTIRKNSt3__16vectorIiNS_9allocatorIiEEEE"
    }
   ],
   "return_type" : "_ZTIi",
   "source_file" : "frameworks/native/libs/binder/include/binder/Parcel.h"
  },
  {
   "function_name" : "android::Parcel::writeInt32Vector",
   "linker_set_key" : "_ZN7android6Parcel16writeInt32VectorERKNSt3__18optionalINS1_6vectorIiNS1_9allocatorIiEEEEEE",
   "parameters" :
   [
    {
     "is_this_ptr" : true,
     "referenced_type" : "_ZTIPN7android6ParcelE"
    },
    {
     "referenced_type" : "_ZTIRKNSt3__18optionalINS_6vectorIiNS_9allocatorIiEEEEEE"
    }
   ],
   "return_type" : "_ZTIi",
   "source_file" : "frameworks/native/libs/binder/include/binder/Parcel.h"
  },
  {
   "function_name" : "android::Parcel::writeInt64Vector",
   "linker_set_key" : "_ZN7android6Parcel16writeInt64VectorERKNSt3__110unique_ptrINS1_6vectorIxNS1_9allocatorIxEEEENS1_14default_deleteIS6_EEEE",
   "parameters" :
   [
    {
     "is_this_ptr" : true,
     "referenced_type" : "_ZTIPN7android6ParcelE"
    },
    {
     "referenced_type" : "_ZTIRKNSt3__110unique_ptrINS_6vectorIxNS_9allocatorIxEEEENS_14default_deleteIS4_EEEE"
    }
   ],
   "return_type" : "_ZTIi",
   "source_file" : "frameworks/native/libs/binder/include/binder/Parcel.h"
  },
  {
   "function_name" : "android::Parcel::writeInt64Vector",
   "linker_set_key" : "_ZN7android6Parcel16writeInt64VectorERKNSt3__16vectorIxNS1_9allocatorIxEEEE",
   "parameters" :
   [
    {
     "is_this_ptr" : true,
     "referenced_type" : "_ZTIPN7android6ParcelE"
    },
    {
     "referenced_type" : "_ZTIRKNSt3__16vectorIxNS_9allocatorIxEEEE"
    }
   ],
   "return_type" : "_ZTIi",
   "source_file" : "frameworks/native/libs/binder/include/binder/Parcel.h"
  },
  {
   "function_name" : "android::Parcel::writeInt64Vector",
   "linker_set_key" : "_ZN7android6Parcel16writeInt64VectorERKNSt3__18optionalINS1_6vectorIxNS1_9allocatorIxEEEEEE",
   "parameters" :
   [
    {
     "is_this_ptr" : true,
     "referenced_type" : "_ZTIPN7android6ParcelE"
    },
    {
     "referenced_type" : "_ZTIRKNSt3__18optionalINS_6vectorIxNS_9allocatorIxEEEEEE"
    }
   ],
   "return_type" : "_ZTIi",
   "source_file" : "frameworks/native/libs/binder/include/binder/Parcel.h"
  },
  {
   "function_name" : "android::Parcel::writeNoException",
   "linker_set_key" : "_ZN7android6Parcel16writeNoExceptionEv",
   "parameters" :
   [
    {
     "is_this_ptr" : true,
     "referenced_type" : "_ZTIPN7android6ParcelE"
    }
   ],
   "return_type" : "_ZTIi",
   "source_file" : "frameworks/native/libs/binder/include/binder/Parcel.h"
  },
  {
   "function_name" : "android::Parcel::writeUtf8AsUtf16",
   "linker_set_key" : "_ZN7android6Parcel16writeUtf8AsUtf16ERKNSt3__110unique_ptrINS1_12basic_stringIcNS1_11char_traitsIcEENS1_9allocatorIcEEEENS1_14default_deleteIS8_EEEE",
   "parameters" :
   [
    {
     "is_this_ptr" : true,
     "referenced_type" : "_ZTIPN7android6ParcelE"
    },
    {
     "referenced_type" : "_ZTIRKNSt3__110unique_ptrINS_12basic_stringIcNS_11char_traitsIcEENS_9allocatorIcEEEENS_14default_deleteIS6_EEEE"
    }
   ],
   "return_type" : "_ZTIi",
   "source_file" : "frameworks/native/libs/binder/include/binder/Parcel.h"
  },
  {
   "function_name" : "android::Parcel::writeUtf8AsUtf16",
   "linker_set_key" : "_ZN7android6Parcel16writeUtf8AsUtf16ERKNSt3__112basic_stringIcNS1_11char_traitsIcEENS1_9allocatorIcEEEE",
   "parameters" :
   [
    {
     "is_this_ptr" : true,
     "referenced_type" : "_ZTIPN7android6ParcelE"
    },
    {
     "referenced_type" : "_ZTIRKNSt3__112basic_stringIcNS_11char_traitsIcEENS_9allocatorIcEEEE"
    }
   ],
   "return_type" : "_ZTIi",
   "source_file" : "frameworks/native/libs/binder/include/binder/Parcel.h"
  },
  {
   "function_name" : "android::Parcel::writeUtf8AsUtf16",
   "linker_set_key" : "_ZN7android6Parcel16writeUtf8AsUtf16ERKNSt3__18optionalINS1_12basic_stringIcNS1_11char_traitsIcEENS1_9allocatorIcEEEEEE",
   "parameters" :
   [
    {
     "is_this_ptr" : true,
     "referenced_type" : "_ZTIPN7android6ParcelE"
    },
    {
     "referenced_type" : "_ZTIRKNSt3__18optionalINS_12basic_stringIcNS_11char_traitsIcEENS_9allocatorIcEEEEEE"
    }
   ],
   "return_type" : "_ZTIi",
   "source_file" : "frameworks/native/libs/binder/include/binder/Parcel.h"
  },
  {
   "function_name" : "android::Parcel::writeDoubleVector",
   "linker_set_key" : "_ZN7android6Parcel17writeDoubleVectorERKNSt3__110unique_ptrINS1_6vectorIdNS1_9allocatorIdEEEENS1_14default_deleteIS6_EEEE",
   "parameters" :
   [
    {
     "is_this_ptr" : true,
     "referenced_type" : "_ZTIPN7android6ParcelE"
    },
    {
     "referenced_type" : "_ZTIRKNSt3__110unique_ptrINS_6vectorIdNS_9allocatorIdEEEENS_14default_deleteIS4_EEEE"
    }
   ],
   "return_type" : "_ZTIi",
   "source_file" : "frameworks/native/libs/binder/include/binder/Parcel.h"
  },
  {
   "function_name" : "android::Parcel::writeDoubleVector",
   "linker_set_key" : "_ZN7android6Parcel17writeDoubleVectorERKNSt3__16vectorIdNS1_9allocatorIdEEEE",
   "parameters" :
   [
    {
     "is_this_ptr" : true,
     "referenced_type" : "_ZTIPN7android6ParcelE"
    },
    {
     "referenced_type" : "_ZTIRKNSt3__16vectorIdNS_9allocatorIdEEEE"
    }
   ],
   "return_type" : "_ZTIi",
   "source_file" : "frameworks/native/libs/binder/include/binder/Parcel.h"
  },
  {
   "function_name" : "android::Parcel::writeDoubleVector",
   "linker_set_key" : "_ZN7android6Parcel17writeDoubleVectorERKNSt3__18optionalINS1_6vectorIdNS1_9allocatorIdEEEEEE",
   "parameters" :
   [
    {
     "is_this_ptr" : true,
     "referenced_type" : "_ZTIPN7android6ParcelE"
    },
    {
     "referenced_type" : "_ZTIRKNSt3__18optionalINS_6vectorIdNS_9allocatorIdEEEEEE"
    }
   ],
   "return_type" : "_ZTIi",
   "source_file" : "frameworks/native/libs/binder/include/binder/Parcel.h"
  },
  {
   "function_name" : "android::Parcel::writeNativeHandle",
   "linker_set_key" : "_ZN7android6Parcel17writeNativeHandleEPK13native_handle",
   "parameters" :
   [
    {
     "is_this_ptr" : true,
     "referenced_type" : "_ZTIPN7android6ParcelE"
    },
    {
     "referenced_type" : "_ZTIPK13native_handle"
    }
   ],
   "return_type" : "_ZTIi",
   "source_file" : "frameworks/native/libs/binder/include/binder/Parcel.h"
  },
  {
   "function_name" : "android::Parcel::writeStrongBinder",
   "linker_set_key" : "_ZN7android6Parcel17writeStrongBinderERKNS_2spINS_7IBinderEEE",
   "parameters" :
   [
    {
     "is_this_ptr" : true,
     "referenced_type" : "_ZTIPN7android6ParcelE"
    },
    {
     "referenced_type" : "_ZTIRKN7android2spINS_7IBinderEEE"
    }
   ],
   "return_type" : "_ZTIi",
   "source_file" : "frameworks/native/libs/binder/include/binder/Parcel.h"
  },
  {
   "function_name" : "android::Parcel::writeUint64Vector",
   "linker_set_key" : "_ZN7android6Parcel17writeUint64VectorERKNSt3__110unique_ptrINS1_6vectorIyNS1_9allocatorIyEEEENS1_14default_deleteIS6_EEEE",
   "parameters" :
   [
    {
     "is_this_ptr" : true,
     "referenced_type" : "_ZTIPN7android6ParcelE"
    },
    {
     "referenced_type" : "_ZTIRKNSt3__110unique_ptrINS_6vectorIyNS_9allocatorIyEEEENS_14default_deleteIS4_EEEE"
    }
   ],
   "return_type" : "_ZTIi",
   "source_file" : "frameworks/native/libs/binder/include/binder/Parcel.h"
  },
  {
   "function_name" : "android::Parcel::writeUint64Vector",
   "linker_set_key" : "_ZN7android6Parcel17writeUint64VectorERKNSt3__16vectorIyNS1_9allocatorIyEEEE",
   "parameters" :
   [
    {
     "is_this_ptr" : true,
     "referenced_type" : "_ZTIPN7android6ParcelE"
    },
    {
     "referenced_type" : "_ZTIRKNSt3__16vectorIyNS_9allocatorIyEEEE"
    }
   ],
   "return_type" : "_ZTIi",
   "source_file" : "frameworks/native/libs/binder/include/binder/Parcel.h"
  },
  {
   "function_name" : "android::Parcel::writeUint64Vector",
   "linker_set_key" : "_ZN7android6Parcel17writeUint64VectorERKNSt3__18optionalINS1_6vectorIyNS1_9allocatorIyEEEEEE",
   "parameters" :
   [
    {
     "is_this_ptr" : true,
     "referenced_type" : "_ZTIPN7android6ParcelE"
    },
    {
     "referenced_type" : "_ZTIRKNSt3__18optionalINS_6vectorIyNS_9allocatorIyEEEEEE"
    }
   ],
   "return_type" : "_ZTIi",
   "source_file" : "frameworks/native/libs/binder/include/binder/Parcel.h"
  },
  {
   "function_name" : "android::Parcel::getGlobalAllocSize",
   "linker_set_key" : "_ZN7android6Parcel18getGlobalAllocSizeEv",
   "return_type" : "_ZTIj",
   "source_file" : "frameworks/native/libs/binder/include/binder/Parcel.h"
  },
  {
   "access" : "private",
   "function_name" : "android::Parcel::finishFlattenBinder",
   "linker_set_key" : "_ZN7android6Parcel19finishFlattenBinderERKNS_2spINS_7IBinderEEE",
   "parameters" :
   [
    {
     "is_this_ptr" : true,
     "referenced_type" : "_ZTIPN7android6ParcelE"
    },
    {
     "referenced_type" : "_ZTIRKN7android2spINS_7IBinderEEE"
    }
   ],
   "return_type" : "_ZTIi",
   "source_file" : "frameworks/native/libs/binder/include/binder/Parcel.h"
  },
  {
   "function_name" : "android::Parcel::getGlobalAllocCount",
   "linker_set_key" : "_ZN7android6Parcel19getGlobalAllocCountEv",
   "return_type" : "_ZTIj",
   "source_file" : "frameworks/native/libs/binder/include/binder/Parcel.h"
  },
  {
   "access" : "private",
   "function_name" : "android::Parcel::ipcSetDataReference",
   "linker_set_key" : "_ZN7android6Parcel19ipcSetDataReferenceEPKhjPKyjPFvPS0_S2_jS4_jE",
   "parameters" :
   [
    {
     "is_this_ptr" : true,
     "referenced_type" : "_ZTIPN7android6ParcelE"
    },
    {
     "referenced_type" : "_ZTIPKh"
    },
    {
     "referenced_type" : "_ZTIj"
    },
    {
     "referenced_type" : "_ZTIPKy"
    },
    {
     "referenced_type" : "_ZTIj"
    },
    {
     "referenced_type" : "_ZTIPFvPN7android6ParcelEPKhjPKyjE"
    }
   ],
   "return_type" : "_ZTIv",
   "source_file" : "frameworks/native/libs/binder/include/binder/Parcel.h"
  },
  {
   "function_name" : "android::Parcel::writeFileDescriptor",
   "linker_set_key" : "_ZN7android6Parcel19writeFileDescriptorEib",
   "parameters" :
   [
    {
     "is_this_ptr" : true,
     "referenced_type" : "_ZTIPN7android6ParcelE"
    },
    {
     "referenced_type" : "_ZTIi"
    },
    {
     "default_arg" : true,
     "referenced_type" : "_ZTIb"
    }
   ],
   "return_type" : "_ZTIi",
   "source_file" : "frameworks/native/libs/binder/include/binder/Parcel.h"
  },
  {
   "function_name" : "android::Parcel::writeInterfaceToken",
   "linker_set_key" : "_ZN7android6Parcel19writeInterfaceTokenEPKDsj",
   "parameters" :
   [
    {
     "is_this_ptr" : true,
     "referenced_type" : "_ZTIPN7android6ParcelE"
    },
    {
     "referenced_type" : "_ZTIPKDs"
    },
    {
     "referenced_type" : "_ZTIj"
    }
   ],
   "return_type" : "_ZTIi",
   "source_file" : "frameworks/native/libs/binder/include/binder/Parcel.h"
  },
  {
   "function_name" : "android::Parcel::writeInterfaceToken",
   "linker_set_key" : "_ZN7android6Parcel19writeInterfaceTokenERKNS_8String16E",
   "parameters" :
   [
    {
     "is_this_ptr" : true,
     "referenced_type" : "_ZTIPN7android6ParcelE"
    },
    {
     "referenced_type" : "_ZTIRKN7android8String16E"
    }
   ],
   "return_type" : "_ZTIi",
   "source_file" : "frameworks/native/libs/binder/include/binder/Parcel.h"
  },
  {
   "function_name" : "android::Parcel::writeString16Vector",
   "linker_set_key" : "_ZN7android6Parcel19writeString16VectorERKNSt3__110unique_ptrINS1_6vectorINS2_INS_8String16ENS1_14default_deleteIS4_EEEENS1_9allocatorIS7_EEEENS5_ISA_EEEE",
   "parameters" :
   [
    {
     "is_this_ptr" : true,
     "referenced_type" : "_ZTIPN7android6ParcelE"
    },
    {
     "referenced_type" : "_ZTIRKNSt3__110unique_ptrINS_6vectorINS0_IN7android8String16ENS_14default_deleteIS3_EEEENS_9allocatorIS6_EEEENS4_IS9_EEEE"
    }
   ],
   "return_type" : "_ZTIi",
   "source_file" : "frameworks/native/libs/binder/include/binder/Parcel.h"
  },
  {
   "function_name" : "android::Parcel::writeString16Vector",
   "linker_set_key" : "_ZN7android6Parcel19writeString16VectorERKNSt3__16vectorINS_8String16ENS1_9allocatorIS3_EEEE",
   "parameters" :
   [
    {
     "is_this_ptr" : true,
     "referenced_type" : "_ZTIPN7android6ParcelE"
    },
    {
     "referenced_type" : "_ZTIRKNSt3__16vectorIN7android8String16ENS_9allocatorIS2_EEEE"
    }
   ],
   "return_type" : "_ZTIi",
   "source_file" : "frameworks/native/libs/binder/include/binder/Parcel.h"
  },
  {
   "function_name" : "android::Parcel::writeString16Vector",
   "linker_set_key" : "_ZN7android6Parcel19writeString16VectorERKNSt3__18optionalINS1_6vectorINS2_INS_8String16EEENS1_9allocatorIS5_EEEEEE",
   "parameters" :
   [
    {
     "is_this_ptr" : true,
     "referenced_type" : "_ZTIPN7android6ParcelE"
    },
    {
     "referenced_type" : "_ZTIRKNSt3__18optionalINS_6vectorINS0_IN7android8String16EEENS_9allocatorIS4_EEEEEE"
    }
   ],
   "return_type" : "_ZTIi",
   "source_file" : "frameworks/native/libs/binder/include/binder/Parcel.h"
  },
  {
   "function_name" : "android::Parcel::closeFileDescriptors",
   "linker_set_key" : "_ZN7android6Parcel20closeFileDescriptorsEv",
   "parameters" :
   [
    {
     "is_this_ptr" : true,
     "referenced_type" : "_ZTIPN7android6ParcelE"
    }
   ],
   "return_type" : "_ZTIv",
   "source_file" : "frameworks/native/libs/binder/include/binder/Parcel.h"
  },
  {
   "function_name" : "android::Parcel::writeDupFileDescriptor",
   "linker_set_key" : "_ZN7android6Parcel22writeDupFileDescriptorEi",
   "parameters" :
   [
    {
     "is_this_ptr" : true,
     "referenced_type" : "_ZTIPN7android6ParcelE"
    },
    {
     "referenced_type" : "_ZTIi"
    }
   ],
   "return_type" : "_ZTIi",
   "source_file" : "frameworks/native/libs/binder/include/binder/Parcel.h"
  },
  {
   "function_name" : "android::Parcel::writeStrongBinderVector",
   "linker_set_key" : "_ZN7android6Parcel23writeStrongBinderVectorERKNSt3__110unique_ptrINS1_6vectorINS_2spINS_7IBinderEEENS1_9allocatorIS6_EEEENS1_14default_deleteIS9_EEEE",
   "parameters" :
   [
    {
     "is_this_ptr" : true,
     "referenced_type" : "_ZTIPN7android6ParcelE"
    },
    {
     "referenced_type" : "_ZTIRKNSt3__110unique_ptrINS_6vectorIN7android2spINS2_7IBinderEEENS_9allocatorIS5_EEEENS_14default_deleteIS8_EEEE"
    }
   ],
   "return_type" : "_ZTIi",
   "source_file" : "frameworks/native/libs/binder/include/binder/Parcel.h"
  },
  {
   "function_name" : "android::Parcel::writeStrongBinderVector",
   "linker_set_key" : "_ZN7android6Parcel23writeStrongBinderVectorERKNSt3__16vectorINS_2spINS_7IBinderEEENS1_9allocatorIS5_EEEE",
   "parameters" :
   [
    {
     "is_this_ptr" : true,
     "referenced_type" : "_ZTIPN7android6ParcelE"
    },
    {
     "referenced_type" : "_ZTIRKNSt3__16vectorIN7android2spINS1_7IBinderEEENS_9allocatorIS4_EEEE"
    }
   ],
   "return_type" : "_ZTIi",
   "source_file" : "frameworks/native/libs/binder/include/binder/Parcel.h"
  },
  {
   "function_name" : "android::Parcel::writeStrongBinderVector",
   "linker_set_key" : "_ZN7android6Parcel23writeStrongBinderVectorERKNSt3__18optionalINS1_6vectorINS_2spINS_7IBinderEEENS1_9allocatorIS6_EEEEEE",
   "parameters" :
   [
    {
     "is_this_ptr" : true,
     "referenced_type" : "_ZTIPN7android6ParcelE"
    },
    {
     "referenced_type" : "_ZTIRKNSt3__18optionalINS_6vectorIN7android2spINS2_7IBinderEEENS_9allocatorIS5_EEEEEE"
    }
   ],
   "return_type" : "_ZTIi",
   "source_file" : "frameworks/native/libs/binder/include/binder/Parcel.h"
  },
  {
   "function_name" : "android::Parcel::writeParcelFileDescriptor",
   "linker_set_key" : "_ZN7android6Parcel25writeParcelFileDescriptorEib",
   "parameters" :
   [
    {
     "is_this_ptr" : true,
     "referenced_type" : "_ZTIPN7android6ParcelE"
    },
    {
     "referenced_type" : "_ZTIi"
    },
    {
     "default_arg" : true,
     "referenced_type" : "_ZTIb"
    }
   ],
   "return_type" : "_ZTIi",
   "source_file" : "frameworks/native/libs/binder/include/binder/Parcel.h"
  },
  {
   "function_name" : "android::Parcel::writeUniqueFileDescriptor",
   "linker_set_key" : "_ZN7android6Parcel25writeUniqueFileDescriptorERKNS_4base14unique_fd_implINS1_13DefaultCloserEEE",
   "parameters" :
   [
    {
     "is_this_ptr" : true,
     "referenced_type" : "_ZTIPN7android6ParcelE"
    },
    {
     "referenced_type" : "_ZTIRKN7android4base14unique_fd_implINS0_13DefaultCloserEEE"
    }
   ],
   "return_type" : "_ZTIi",
   "source_file" : "frameworks/native/libs/binder/include/binder/Parcel.h"
  },
  {
   "access" : "protected",
   "function_name" : "android::Parcel::FlattenableHelperInterface::~FlattenableHelperInterface",
   "linker_set_key" : "_ZN7android6Parcel26FlattenableHelperInterfaceD1Ev",
   "parameters" :
   [
    {
     "is_this_ptr" : true,
     "referenced_type" : "_ZTIPN7android6Parcel26FlattenableHelperInterfaceE"
    }
   ],
   "return_type" : "_ZTIv",
   "source_file" : "frameworks/native/libs/binder/include/binder/Parcel.h"
  },
  {
   "access" : "protected",
   "function_name" : "android::Parcel::FlattenableHelperInterface::~FlattenableHelperInterface",
   "linker_set_key" : "_ZN7android6Parcel26FlattenableHelperInterfaceD2Ev",
   "parameters" :
   [
    {
     "is_this_ptr" : true,
     "referenced_type" : "_ZTIPN7android6Parcel26FlattenableHelperInterfaceE"
    }
   ],
   "return_type" : "_ZTIv",
   "source_file" : "frameworks/native/libs/binder/include/binder/Parcel.h"
  },
  {
   "access" : "private",
   "function_name" : "android::Parcel::writeRawNullableParcelable",
   "linker_set_key" : "_ZN7android6Parcel26writeRawNullableParcelableEPKNS_10ParcelableE",
   "parameters" :
   [
    {
     "is_this_ptr" : true,
     "referenced_type" : "_ZTIPN7android6ParcelE"
    },
    {
     "referenced_type" : "_ZTIPKN7android10ParcelableE"
    }
   ],
   "return_type" : "_ZTIi",
   "source_file" : "frameworks/native/libs/binder/include/binder/Parcel.h"
  },
  {
   "function_name" : "android::Parcel::replaceCallingWorkSourceUid",
   "linker_set_key" : "_ZN7android6Parcel27replaceCallingWorkSourceUidEj",
   "parameters" :
   [
    {
     "is_this_ptr" : true,
     "referenced_type" : "_ZTIPN7android6ParcelE"
    },
    {
     "referenced_type" : "_ZTIj"
    }
   ],
   "return_type" : "_ZTIb",
   "source_file" : "frameworks/native/libs/binder/include/binder/Parcel.h"
  },
  {
   "function_name" : "android::Parcel::writeDupParcelFileDescriptor",
   "linker_set_key" : "_ZN7android6Parcel28writeDupParcelFileDescriptorEi",
   "parameters" :
   [
    {
     "is_this_ptr" : true,
     "referenced_type" : "_ZTIPN7android6ParcelE"
    },
    {
     "referenced_type" : "_ZTIi"
    }
   ],
   "return_type" : "_ZTIi",
   "source_file" : "frameworks/native/libs/binder/include/binder/Parcel.h"
  },
  {
   "function_name" : "android::Parcel::writeUtf8VectorAsUtf16Vector",
   "linker_set_key" : "_ZN7android6Parcel28writeUtf8VectorAsUtf16VectorERKNSt3__110unique_ptrINS1_6vectorINS2_INS1_12basic_stringIcNS1_11char_traitsIcEENS1_9allocatorIcEEEENS1_14default_deleteIS9_EEEENS7_ISC_EEEENSA_ISE_EEEE",
   "parameters" :
   [
    {
     "is_this_ptr" : true,
     "referenced_type" : "_ZTIPN7android6ParcelE"
    },
    {
     "referenced_type" : "_ZTIRKNSt3__110unique_ptrINS_6vectorINS0_INS_12basic_stringIcNS_11char_traitsIcEENS_9allocatorIcEEEENS_14default_deleteIS7_EEEENS5_ISA_EEEENS8_ISC_EEEE"
    }
   ],
   "return_type" : "_ZTIi",
   "source_file" : "frameworks/native/libs/binder/include/binder/Parcel.h"
  },
  {
   "function_name" : "android::Parcel::writeUtf8VectorAsUtf16Vector",
   "linker_set_key" : "_ZN7android6Parcel28writeUtf8VectorAsUtf16VectorERKNSt3__16vectorINS1_12basic_stringIcNS1_11char_traitsIcEENS1_9allocatorIcEEEENS6_IS8_EEEE",
   "parameters" :
   [
    {
     "is_this_ptr" : true,
     "referenced_type" : "_ZTIPN7android6ParcelE"
    },
    {
     "referenced_type" : "_ZTIRKNSt3__16vectorINS_12basic_stringIcNS_11char_traitsIcEENS_9allocatorIcEEEENS4_IS6_EEEE"
    }
   ],
   "return_type" : "_ZTIi",
   "source_file" : "frameworks/native/libs/binder/include/binder/Parcel.h"
  },
  {
   "function_name" : "android::Parcel::writeUtf8VectorAsUtf16Vector",
   "linker_set_key" : "_ZN7android6Parcel28writeUtf8VectorAsUtf16VectorERKNSt3__18optionalINS1_6vectorINS2_INS1_12basic_stringIcNS1_11char_traitsIcEENS1_9allocatorIcEEEEEENS7_ISA_EEEEEE",
   "parameters" :
   [
    {
     "is_this_ptr" : true,
     "referenced_type" : "_ZTIPN7android6ParcelE"
    },
    {
     "referenced_type" : "_ZTIRKNSt3__18optionalINS_6vectorINS0_INS_12basic_stringIcNS_11char_traitsIcEENS_9allocatorIcEEEEEENS5_IS8_EEEEEE"
    }
   ],
   "return_type" : "_ZTIi",
   "source_file" : "frameworks/native/libs/binder/include/binder/Parcel.h"
  },
  {
   "function_name" : "android::Parcel::writeUniqueFileDescriptorVector",
   "linker_set_key" : "_ZN7android6Parcel31writeUniqueFileDescriptorVectorERKNSt3__110unique_ptrINS1_6vectorINS_4base14unique_fd_implINS4_13DefaultCloserEEENS1_9allocatorIS7_EEEENS1_14default_deleteISA_EEEE",
   "parameters" :
   [
    {
     "is_this_ptr" : true,
     "referenced_type" : "_ZTIPN7android6ParcelE"
    },
    {
     "referenced_type" : "_ZTIRKNSt3__110unique_ptrINS_6vectorIN7android4base14unique_fd_implINS3_13DefaultCloserEEENS_9allocatorIS6_EEEENS_14default_deleteIS9_EEEE"
    }
   ],
   "return_type" : "_ZTIi",
   "source_file" : "frameworks/native/libs/binder/include/binder/Parcel.h"
  },
  {
   "function_name" : "android::Parcel::writeUniqueFileDescriptorVector",
   "linker_set_key" : "_ZN7android6Parcel31writeUniqueFileDescriptorVectorERKNSt3__16vectorINS_4base14unique_fd_implINS3_13DefaultCloserEEENS1_9allocatorIS6_EEEE",
   "parameters" :
   [
    {
     "is_this_ptr" : true,
     "referenced_type" : "_ZTIPN7android6ParcelE"
    },
    {
     "referenced_type" : "_ZTIRKNSt3__16vectorIN7android4base14unique_fd_implINS2_13DefaultCloserEEENS_9allocatorIS5_EEEE"
    }
   ],
   "return_type" : "_ZTIi",
   "source_file" : "frameworks/native/libs/binder/include/binder/Parcel.h"
  },
  {
   "function_name" : "android::Parcel::writeUniqueFileDescriptorVector",
   "linker_set_key" : "_ZN7android6Parcel31writeUniqueFileDescriptorVectorERKNSt3__18optionalINS1_6vectorINS_4base14unique_fd_implINS4_13DefaultCloserEEENS1_9allocatorIS7_EEEEEE",
   "parameters" :
   [
    {
     "is_this_ptr" : true,
     "referenced_type" : "_ZTIPN7android6ParcelE"
    },
    {
     "referenced_type" : "_ZTIRKNSt3__18optionalINS_6vectorIN7android4base14unique_fd_implINS3_13DefaultCloserEEENS_9allocatorIS6_EEEEEE"
    }
   ],
   "return_type" : "_ZTIi",
   "source_file" : "frameworks/native/libs/binder/include/binder/Parcel.h"
  },
  {
   "function_name" : "android::Parcel::writeDupImmutableBlobFileDescriptor",
   "linker_set_key" : "_ZN7android6Parcel35writeDupImmutableBlobFileDescriptorEi",
   "parameters" :
   [
    {
     "is_this_ptr" : true,
     "referenced_type" : "_ZTIPN7android6ParcelE"
    },
    {
     "referenced_type" : "_ZTIi"
    }
   ],
   "return_type" : "_ZTIi",
   "source_file" : "frameworks/native/libs/binder/include/binder/Parcel.h"
  },
  {
   "access" : "protected",
   "function_name" : "android::Parcel::Blob::init",
   "linker_set_key" : "_ZN7android6Parcel4Blob4initEiPvjb",
   "parameters" :
   [
    {
     "is_this_ptr" : true,
     "referenced_type" : "_ZTIPN7android6Parcel4BlobE"
    },
    {
     "referenced_type" : "_ZTIi"
    },
    {
     "referenced_type" : "_ZTIPv"
    },
    {
     "referenced_type" : "_ZTIj"
    },
    {
     "referenced_type" : "_ZTIb"
    }
   ],
   "return_type" : "_ZTIv",
   "source_file" : "frameworks/native/libs/binder/include/binder/Parcel.h"
  },
  {
   "function_name" : "android::Parcel::Blob::clear",
   "linker_set_key" : "_ZN7android6Parcel4Blob5clearEv",
   "parameters" :
   [
    {
     "is_this_ptr" : true,
     "referenced_type" : "_ZTIPN7android6Parcel4BlobE"
    }
   ],
   "return_type" : "_ZTIv",
   "source_file" : "frameworks/native/libs/binder/include/binder/Parcel.h"
  },
  {
   "function_name" : "android::Parcel::Blob::release",
   "linker_set_key" : "_ZN7android6Parcel4Blob7releaseEv",
   "parameters" :
   [
    {
     "is_this_ptr" : true,
     "referenced_type" : "_ZTIPN7android6Parcel4BlobE"
    }
   ],
   "return_type" : "_ZTIv",
   "source_file" : "frameworks/native/libs/binder/include/binder/Parcel.h"
  },
  {
   "function_name" : "android::Parcel::Blob::Blob",
   "linker_set_key" : "_ZN7android6Parcel4BlobC1Ev",
   "parameters" :
   [
    {
     "is_this_ptr" : true,
     "referenced_type" : "_ZTIPN7android6Parcel4BlobE"
    }
   ],
   "return_type" : "_ZTIv",
   "source_file" : "frameworks/native/libs/binder/include/binder/Parcel.h"
  },
  {
   "function_name" : "android::Parcel::Blob::Blob",
   "linker_set_key" : "_ZN7android6Parcel4BlobC2Ev",
   "parameters" :
   [
    {
     "is_this_ptr" : true,
     "referenced_type" : "_ZTIPN7android6Parcel4BlobE"
    }
   ],
   "return_type" : "_ZTIv",
   "source_file" : "frameworks/native/libs/binder/include/binder/Parcel.h"
  },
  {
   "function_name" : "android::Parcel::Blob::~Blob",
   "linker_set_key" : "_ZN7android6Parcel4BlobD1Ev",
   "parameters" :
   [
    {
     "is_this_ptr" : true,
     "referenced_type" : "_ZTIPN7android6Parcel4BlobE"
    }
   ],
   "return_type" : "_ZTIv",
   "source_file" : "frameworks/native/libs/binder/include/binder/Parcel.h"
  },
  {
   "function_name" : "android::Parcel::Blob::~Blob",
   "linker_set_key" : "_ZN7android6Parcel4BlobD2Ev",
   "parameters" :
   [
    {
     "is_this_ptr" : true,
     "referenced_type" : "_ZTIPN7android6Parcel4BlobE"
    }
   ],
   "return_type" : "_ZTIv",
   "source_file" : "frameworks/native/libs/binder/include/binder/Parcel.h"
  },
  {
   "function_name" : "android::Parcel::write",
   "linker_set_key" : "_ZN7android6Parcel5writeEPKvj",
   "parameters" :
   [
    {
     "is_this_ptr" : true,
     "referenced_type" : "_ZTIPN7android6ParcelE"
    },
    {
     "referenced_type" : "_ZTIPKv"
    },
    {
     "referenced_type" : "_ZTIj"
    }
   ],
   "return_type" : "_ZTIi",
   "source_file" : "frameworks/native/libs/binder/include/binder/Parcel.h"
  },
  {
   "access" : "private",
   "function_name" : "android::Parcel::write",
   "linker_set_key" : "_ZN7android6Parcel5writeERKNS0_26FlattenableHelperInterfaceE",
   "parameters" :
   [
    {
     "is_this_ptr" : true,
     "referenced_type" : "_ZTIPN7android6ParcelE"
    },
    {
     "referenced_type" : "_ZTIRKN7android6Parcel26FlattenableHelperInterfaceE"
    }
   ],
   "return_type" : "_ZTIi",
   "source_file" : "frameworks/native/libs/binder/include/binder/Parcel.h"
  },
  {
   "function_name" : "android::Parcel::setData",
   "linker_set_key" : "_ZN7android6Parcel7setDataEPKhj",
   "parameters" :
   [
    {
     "is_this_ptr" : true,
     "referenced_type" : "_ZTIPN7android6ParcelE"
    },
    {
     "referenced_type" : "_ZTIPKh"
    },
    {
     "referenced_type" : "_ZTIj"
    }
   ],
   "return_type" : "_ZTIi",
   "source_file" : "frameworks/native/libs/binder/include/binder/Parcel.h"
  },
  {
   "function_name" : "android::Parcel::freeData",
   "linker_set_key" : "_ZN7android6Parcel8freeDataEv",
   "parameters" :
   [
    {
     "is_this_ptr" : true,
     "referenced_type" : "_ZTIPN7android6ParcelE"
    }
   ],
   "return_type" : "_ZTIv",
   "source_file" : "frameworks/native/libs/binder/include/binder/Parcel.h"
  },
  {
   "access" : "private",
   "function_name" : "android::Parcel::growData",
   "linker_set_key" : "_ZN7android6Parcel8growDataEj",
   "parameters" :
   [
    {
     "is_this_ptr" : true,
     "referenced_type" : "_ZTIPN7android6ParcelE"
    },
    {
     "referenced_type" : "_ZTIj"
    }
   ],
   "return_type" : "_ZTIi",
   "source_file" : "frameworks/native/libs/binder/include/binder/Parcel.h"
  },
  {
   "function_name" : "android::Parcel::setError",
   "linker_set_key" : "_ZN7android6Parcel8setErrorEi",
   "parameters" :
   [
    {
     "is_this_ptr" : true,
     "referenced_type" : "_ZTIPN7android6ParcelE"
    },
    {
     "referenced_type" : "_ZTIi"
    }
   ],
   "return_type" : "_ZTIv",
   "source_file" : "frameworks/native/libs/binder/include/binder/Parcel.h"
  },
  {
   "access" : "private",
   "function_name" : "android::Parcel::initState",
   "linker_set_key" : "_ZN7android6Parcel9initStateEv",
   "parameters" :
   [
    {
     "is_this_ptr" : true,
     "referenced_type" : "_ZTIPN7android6ParcelE"
    }
   ],
   "return_type" : "_ZTIv",
   "source_file" : "frameworks/native/libs/binder/include/binder/Parcel.h"
  },
  {
   "function_name" : "android::Parcel::writeBlob",
   "linker_set_key" : "_ZN7android6Parcel9writeBlobEjbPNS0_12WritableBlobE",
   "parameters" :
   [
    {
     "is_this_ptr" : true,
     "referenced_type" : "_ZTIPN7android6ParcelE"
    },
    {
     "referenced_type" : "_ZTIj"
    },
    {
     "referenced_type" : "_ZTIb"
    },
    {
     "referenced_type" : "_ZTIPN7android6Parcel12WritableBlobE"
    }
   ],
   "return_type" : "_ZTIi",
   "source_file" : "frameworks/native/libs/binder/include/binder/Parcel.h"
  },
  {
   "function_name" : "android::Parcel::writeBool",
   "linker_set_key" : "_ZN7android6Parcel9writeBoolEb",
   "parameters" :
   [
    {
     "is_this_ptr" : true,
     "referenced_type" : "_ZTIPN7android6ParcelE"
    },
    {
     "referenced_type" : "_ZTIb"
    }
   ],
   "return_type" : "_ZTIi",
   "source_file" : "frameworks/native/libs/binder/include/binder/Parcel.h"
  },
  {
   "function_name" : "android::Parcel::writeByte",
   "linker_set_key" : "_ZN7android6Parcel9writeByteEa",
   "parameters" :
   [
    {
     "is_this_ptr" : true,
     "referenced_type" : "_ZTIPN7android6ParcelE"
    },
    {
     "referenced_type" : "_ZTIa"
    }
   ],
   "return_type" : "_ZTIi",
   "source_file" : "frameworks/native/libs/binder/include/binder/Parcel.h"
  },
  {
   "function_name" : "android::Parcel::writeChar",
   "linker_set_key" : "_ZN7android6Parcel9writeCharEDs",
   "parameters" :
   [
    {
     "is_this_ptr" : true,
     "referenced_type" : "_ZTIPN7android6ParcelE"
    },
    {
     "referenced_type" : "_ZTIDs"
    }
   ],
   "return_type" : "_ZTIi",
   "source_file" : "frameworks/native/libs/binder/include/binder/Parcel.h"
  },
  {
   "access" : "private",
   "function_name" : "android::Parcel::writeData",
   "linker_set_key" : "_ZN7android6Parcel9writeDataEDs",
   "parameters" :
   [
    {
     "is_this_ptr" : true,
     "referenced_type" : "_ZTIPN7android6ParcelE"
    },
    {
     "referenced_type" : "_ZTIDs"
    }
   ],
   "return_type" : "_ZTIi",
   "source_file" : "frameworks/native/libs/binder/include/binder/Parcel.h"
  },
  {
   "access" : "private",
   "function_name" : "android::Parcel::writeData",
   "linker_set_key" : "_ZN7android6Parcel9writeDataERKNS_10ParcelableE",
   "parameters" :
   [
    {
     "is_this_ptr" : true,
     "referenced_type" : "_ZTIPN7android6ParcelE"
    },
    {
     "referenced_type" : "_ZTIRKN7android10ParcelableE"
    }
   ],
   "return_type" : "_ZTIi",
   "source_file" : "frameworks/native/libs/binder/include/binder/Parcel.h"
  },
  {
   "access" : "private",
   "function_name" : "android::Parcel::writeData",
   "linker_set_key" : "_ZN7android6Parcel9writeDataERKNS_4base14unique_fd_implINS1_13DefaultCloserEEE",
   "parameters" :
   [
    {
     "is_this_ptr" : true,
     "referenced_type" : "_ZTIPN7android6ParcelE"
    },
    {
     "referenced_type" : "_ZTIRKN7android4base14unique_fd_implINS0_13DefaultCloserEEE"
    }
   ],
   "return_type" : "_ZTIi",
   "source_file" : "frameworks/native/libs/binder/include/binder/Parcel.h"
  },
  {
   "access" : "private",
   "function_name" : "android::Parcel::writeData",
   "linker_set_key" : "_ZN7android6Parcel9writeDataERKNS_8String16E",
   "parameters" :
   [
    {
     "is_this_ptr" : true,
     "referenced_type" : "_ZTIPN7android6ParcelE"
    },
    {
     "referenced_type" : "_ZTIRKN7android8String16E"
    }
   ],
   "return_type" : "_ZTIi",
   "source_file" : "frameworks/native/libs/binder/include/binder/Parcel.h"
  },
  {
   "access" : "private",
   "function_name" : "android::Parcel::writeData",
   "linker_set_key" : "_ZN7android6Parcel9writeDataERKNSt3__112basic_stringIcNS1_11char_traitsIcEENS1_9allocatorIcEEEE",
   "parameters" :
   [
    {
     "is_this_ptr" : true,
     "referenced_type" : "_ZTIPN7android6ParcelE"
    },
    {
     "referenced_type" : "_ZTIRKNSt3__112basic_stringIcNS_11char_traitsIcEENS_9allocatorIcEEEE"
    }
   ],
   "return_type" : "_ZTIi",
   "source_file" : "frameworks/native/libs/binder/include/binder/Parcel.h"
  },
  {
   "access" : "private",
   "function_name" : "android::Parcel::writeData",
   "linker_set_key" : "_ZN7android6Parcel9writeDataEa",
   "parameters" :
   [
    {
     "is_this_ptr" : true,
     "referenced_type" : "_ZTIPN7android6ParcelE"
    },
    {
     "referenced_type" : "_ZTIa"
    }
   ],
   "return_type" : "_ZTIi",
   "source_file" : "frameworks/native/libs/binder/include/binder/Parcel.h"
  },
  {
   "access" : "private",
   "function_name" : "android::Parcel::writeData",
   "linker_set_key" : "_ZN7android6Parcel9writeDataEb",
   "parameters" :
   [
    {
     "is_this_ptr" : true,
     "referenced_type" : "_ZTIPN7android6ParcelE"
    },
    {
     "referenced_type" : "_ZTIb"
    }
   ],
   "return_type" : "_ZTIi",
   "source_file" : "frameworks/native/libs/binder/include/binder/Parcel.h"
  },
  {
   "access" : "private",
   "function_name" : "android::Parcel::writeData",
   "linker_set_key" : "_ZN7android6Parcel9writeDataEd",
   "parameters" :
   [
    {
     "is_this_ptr" : true,
     "referenced_type" : "_ZTIPN7android6ParcelE"
    },
    {
     "referenced_type" : "_ZTId"
    }
   ],
   "return_type" : "_ZTIi",
   "source_file" : "frameworks/native/libs/binder/include/binder/Parcel.h"
  },
  {
   "access" : "private",
   "function_name" : "android::Parcel::writeData",
   "linker_set_key" : "_ZN7android6Parcel9writeDataEf",
   "parameters" :
   [
    {
     "is_this_ptr" : true,
     "referenced_type" : "_ZTIPN7android6ParcelE"
    },
    {
     "referenced_type" : "_ZTIf"
    }
   ],
   "return_type" : "_ZTIi",
   "source_file" : "frameworks/native/libs/binder/include/binder/Parcel.h"
  },
  {
   "access" : "private",
   "function_name" : "android::Parcel::writeData",
   "linker_set_key" : "_ZN7android6Parcel9writeDataEh",
   "parameters" :
   [
    {
     "is_this_ptr" : true,
     "referenced_type" : "_ZTIPN7android6ParcelE"
    },
    {
     "referenced_type" : "_ZTIh"
    }
   ],
   "return_type" : "_ZTIi",
   "source_file" : "frameworks/native/libs/binder/include/binder/Parcel.h"
  },
  {
   "access" : "private",
   "function_name" : "android::Parcel::writeData",
   "linker_set_key" : "_ZN7android6Parcel9writeDataEi",
   "parameters" :
   [
    {
     "is_this_ptr" : true,
     "referenced_type" : "_ZTIPN7android6ParcelE"
    },
    {
     "referenced_type" : "_ZTIi"
    }
   ],
   "return_type" : "_ZTIi",
   "source_file" : "frameworks/native/libs/binder/include/binder/Parcel.h"
  },
  {
   "access" : "private",
   "function_name" : "android::Parcel::writeData",
   "linker_set_key" : "_ZN7android6Parcel9writeDataEj",
   "parameters" :
   [
    {
     "is_this_ptr" : true,
     "referenced_type" : "_ZTIPN7android6ParcelE"
    },
    {
     "referenced_type" : "_ZTIj"
    }
   ],
   "return_type" : "_ZTIi",
   "source_file" : "frameworks/native/libs/binder/include/binder/Parcel.h"
  },
  {
   "access" : "private",
   "function_name" : "android::Parcel::writeData",
   "linker_set_key" : "_ZN7android6Parcel9writeDataEx",
   "parameters" :
   [
    {
     "is_this_ptr" : true,
     "referenced_type" : "_ZTIPN7android6ParcelE"
    },
    {
     "referenced_type" : "_ZTIx"
    }
   ],
   "return_type" : "_ZTIi",
   "source_file" : "frameworks/native/libs/binder/include/binder/Parcel.h"
  },
  {
   "access" : "private",
   "function_name" : "android::Parcel::writeData",
   "linker_set_key" : "_ZN7android6Parcel9writeDataEy",
   "parameters" :
   [
    {
     "is_this_ptr" : true,
     "referenced_type" : "_ZTIPN7android6ParcelE"
    },
    {
     "referenced_type" : "_ZTIy"
    }
   ],
   "return_type" : "_ZTIi",
   "source_file" : "frameworks/native/libs/binder/include/binder/Parcel.h"
  },
  {
   "access" : "private",
   "function_name" : "android::Parcel::writeData",
   "linker_set_key" : "_ZN7android6Parcel9writeDataINS_2spINS_7IBinderEEELb1EEEiRKT_",
   "parameters" :
   [
    {
     "is_this_ptr" : true,
     "referenced_type" : "_ZTIPN7android6ParcelE"
    },
    {
     "referenced_type" : "_ZTIRKN7android2spINS_7IBinderEEE"
    }
   ],
   "return_type" : "_ZTIi",
   "source_file" : "frameworks/native/libs/binder/include/binder/Parcel.h",
   "template_args" : [ "_ZTIN7android2spINS_7IBinderEEE" ]
  },
  {
   "access" : "private",
   "function_name" : "android::Parcel::writeData",
   "linker_set_key" : "_ZN7android6Parcel9writeDataINSt3__110unique_ptrINS2_12basic_stringIcNS2_11char_traitsIcEENS2_9allocatorIcEEEENS2_14default_deleteIS9_EEEELb1EEEiRKT_",
   "parameters" :
   [
    {
     "is_this_ptr" : true,
     "referenced_type" : "_ZTIPN7android6ParcelE"
    },
    {
     "referenced_type" : "_ZTIRKNSt3__110unique_ptrINS_12basic_stringIcNS_11char_traitsIcEENS_9allocatorIcEEEENS_14default_deleteIS6_EEEE"
    }
   ],
   "return_type" : "_ZTIi",
   "source_file" : "frameworks/native/libs/binder/include/binder/Parcel.h",
   "template_args" :
   [
    "_ZTINSt3__110unique_ptrINS_12basic_stringIcNS_11char_traitsIcEENS_9allocatorIcEEEENS_14default_deleteIS6_EEEE"
   ]
  },
  {
   "access" : "private",
   "function_name" : "android::Parcel::writeData",
   "linker_set_key" : "_ZN7android6Parcel9writeDataINSt3__110unique_ptrINS2_6vectorIDsNS2_9allocatorIDsEEEENS2_14default_deleteIS7_EEEELb1EEEiRKT_",
   "parameters" :
   [
    {
     "is_this_ptr" : true,
     "referenced_type" : "_ZTIPN7android6ParcelE"
    },
    {
     "referenced_type" : "_ZTIRKNSt3__110unique_ptrINS_6vectorIDsNS_9allocatorIDsEEEENS_14default_deleteIS4_EEEE"
    }
   ],
   "return_type" : "_ZTIi",
   "source_file" : "frameworks/native/libs/binder/include/binder/Parcel.h",
   "template_args" :
   [
    "_ZTINSt3__110unique_ptrINS_6vectorIDsNS_9allocatorIDsEEEENS_14default_deleteIS4_EEEE"
   ]
  },
  {
   "access" : "private",
   "function_name" : "android::Parcel::writeData",
   "linker_set_key" : "_ZN7android6Parcel9writeDataINSt3__110unique_ptrINS2_6vectorINS3_INS2_12basic_stringIcNS2_11char_traitsIcEENS2_9allocatorIcEEEENS2_14default_deleteISA_EEEENS8_ISD_EEEENSB_ISF_EEEELb1EEEiRKT_",
   "parameters" :
   [
    {
     "is_this_ptr" : true,
     "referenced_type" : "_ZTIPN7android6ParcelE"
    },
    {
     "referenced_type" : "_ZTIRKNSt3__110unique_ptrINS_6vectorINS0_INS_12basic_stringIcNS_11char_traitsIcEENS_9allocatorIcEEEENS_14default_deleteIS7_EEEENS5_ISA_EEEENS8_ISC_EEEE"
    }
   ],
   "return_type" : "_ZTIi",
   "source_file" : "frameworks/native/libs/binder/include/binder/Parcel.h",
   "template_args" :
   [
    "_ZTINSt3__110unique_ptrINS_6vectorINS0_INS_12basic_stringIcNS_11char_traitsIcEENS_9allocatorIcEEEENS_14default_deleteIS7_EEEENS5_ISA_EEEENS8_ISC_EEEE"
   ]
  },
  {
   "access" : "private",
   "function_name" : "android::Parcel::writeData",
   "linker_set_key" : "_ZN7android6Parcel9writeDataINSt3__110unique_ptrINS2_6vectorINS3_INS_8String16ENS2_14default_deleteIS5_EEEENS2_9allocatorIS8_EEEENS6_ISB_EEEELb1EEEiRKT_",
   "parameters" :
   [
    {
     "is_this_ptr" : true,
     "referenced_type" : "_ZTIPN7android6ParcelE"
    },
    {
     "referenced_type" : "_ZTIRKNSt3__110unique_ptrINS_6vectorINS0_IN7android8String16ENS_14default_deleteIS3_EEEENS_9allocatorIS6_EEEENS4_IS9_EEEE"
    }
   ],
   "return_type" : "_ZTIi",
   "source_file" : "frameworks/native/libs/binder/include/binder/Parcel.h",
   "template_args" :
   [
    "_ZTINSt3__110unique_ptrINS_6vectorINS0_IN7android8String16ENS_14default_deleteIS3_EEEENS_9allocatorIS6_EEEENS4_IS9_EEEE"
   ]
  },
  {
   "access" : "private",
   "function_name" : "android::Parcel::writeData",
   "linker_set_key" : "_ZN7android6Parcel9writeDataINSt3__110unique_ptrINS2_6vectorINS_2spINS_7IBinderEEENS2_9allocatorIS7_EEEENS2_14default_deleteISA_EEEELb1EEEiRKT_",
   "parameters" :
   [
    {
     "is_this_ptr" : true,
     "referenced_type" : "_ZTIPN7android6ParcelE"
    },
    {
     "referenced_type" : "_ZTIRKNSt3__110unique_ptrINS_6vectorIN7android2spINS2_7IBinderEEENS_9allocatorIS5_EEEENS_14default_deleteIS8_EEEE"
    }
   ],
   "return_type" : "_ZTIi",
   "source_file" : "frameworks/native/libs/binder/include/binder/Parcel.h",
   "template_args" :
   [
    "_ZTINSt3__110unique_ptrINS_6vectorIN7android2spINS2_7IBinderEEENS_9allocatorIS5_EEEENS_14default_deleteIS8_EEEE"
   ]
  },
  {
   "access" : "private",
   "function_name" : "android::Parcel::writeData",
   "linker_set_key" : "_ZN7android6Parcel9writeDataINSt3__110unique_ptrINS2_6vectorINS_4base14unique_fd_implINS5_13DefaultCloserEEENS2_9allocatorIS8_EEEENS2_14default_deleteISB_EEEELb1EEEiRKT_",
   "parameters" :
   [
    {
     "is_this_ptr" : true,
     "referenced_type" : "_ZTIPN7android6ParcelE"
    },
    {
     "referenced_type" : "_ZTIRKNSt3__110unique_ptrINS_6vectorIN7android4base14unique_fd_implINS3_13DefaultCloserEEENS_9allocatorIS6_EEEENS_14default_deleteIS9_EEEE"
    }
   ],
   "return_type" : "_ZTIi",
   "source_file" : "frameworks/native/libs/binder/include/binder/Parcel.h",
   "template_args" :
   [
    "_ZTINSt3__110unique_ptrINS_6vectorIN7android4base14unique_fd_implINS3_13DefaultCloserEEENS_9allocatorIS6_EEEENS_14default_deleteIS9_EEEE"
   ]
  },
  {
   "access" : "private",
   "function_name" : "android::Parcel::writeData",
   "linker_set_key" : "_ZN7android6Parcel9writeDataINSt3__110unique_ptrINS2_6vectorIaNS2_9allocatorIaEEEENS2_14default_deleteIS7_EEEELb1EEEiRKT_",
   "parameters" :
   [
    {
     "is_this_ptr" : true,
     "referenced_type" : "_ZTIPN7android6ParcelE"
    },
    {
     "referenced_type" : "_ZTIRKNSt3__110unique_ptrINS_6vectorIaNS_9allocatorIaEEEENS_14default_deleteIS4_EEEE"
    }
   ],
   "return_type" : "_ZTIi",
   "source_file" : "frameworks/native/libs/binder/include/binder/Parcel.h",
   "template_args" :
   [
    "_ZTINSt3__110unique_ptrINS_6vectorIaNS_9allocatorIaEEEENS_14default_deleteIS4_EEEE"
   ]
  },
  {
   "access" : "private",
   "function_name" : "android::Parcel::writeData",
   "linker_set_key" : "_ZN7android6Parcel9writeDataINSt3__110unique_ptrINS2_6vectorIbNS2_9allocatorIbEEEENS2_14default_deleteIS7_EEEELb1EEEiRKT_",
   "parameters" :
   [
    {
     "is_this_ptr" : true,
     "referenced_type" : "_ZTIPN7android6ParcelE"
    },
    {
     "referenced_type" : "_ZTIRKNSt3__110unique_ptrINS_6vectorIbNS_9allocatorIbEEEENS_14default_deleteIS4_EEEE"
    }
   ],
   "return_type" : "_ZTIi",
   "source_file" : "frameworks/native/libs/binder/include/binder/Parcel.h",
   "template_args" :
   [
    "_ZTINSt3__110unique_ptrINS_6vectorIbNS_9allocatorIbEEEENS_14default_deleteIS4_EEEE"
   ]
  },
  {
   "access" : "private",
   "function_name" : "android::Parcel::writeData",
   "linker_set_key" : "_ZN7android6Parcel9writeDataINSt3__110unique_ptrINS2_6vectorIdNS2_9allocatorIdEEEENS2_14default_deleteIS7_EEEELb1EEEiRKT_",
   "parameters" :
   [
    {
     "is_this_ptr" : true,
     "referenced_type" : "_ZTIPN7android6ParcelE"
    },
    {
     "referenced_type" : "_ZTIRKNSt3__110unique_ptrINS_6vectorIdNS_9allocatorIdEEEENS_14default_deleteIS4_EEEE"
    }
   ],
   "return_type" : "_ZTIi",
   "source_file" : "frameworks/native/libs/binder/include/binder/Parcel.h",
   "template_args" :
   [
    "_ZTINSt3__110unique_ptrINS_6vectorIdNS_9allocatorIdEEEENS_14default_deleteIS4_EEEE"
   ]
  },
  {
   "access" : "private",
   "function_name" : "android::Parcel::writeData",
   "linker_set_key" : "_ZN7android6Parcel9writeDataINSt3__110unique_ptrINS2_6vectorIfNS2_9allocatorIfEEEENS2_14default_deleteIS7_EEEELb1EEEiRKT_",
   "parameters" :
   [
    {
     "is_this_ptr" : true,
     "referenced_type" : "_ZTIPN7android6ParcelE"
    },
    {
     "referenced_type" : "_ZTIRKNSt3__110unique_ptrINS_6vectorIfNS_9allocatorIfEEEENS_14default_deleteIS4_EEEE"
    }
   ],
   "return_type" : "_ZTIi",
   "source_file" : "frameworks/native/libs/binder/include/binder/Parcel.h",
   "template_args" :
   [
    "_ZTINSt3__110unique_ptrINS_6vectorIfNS_9allocatorIfEEEENS_14default_deleteIS4_EEEE"
   ]
  },
  {
   "access" : "private",
   "function_name" : "android::Parcel::writeData",
   "linker_set_key" : "_ZN7android6Parcel9writeDataINSt3__110unique_ptrINS2_6vectorIhNS2_9allocatorIhEEEENS2_14default_deleteIS7_EEEELb1EEEiRKT_",
   "parameters" :
   [
    {
     "is_this_ptr" : true,
     "referenced_type" : "_ZTIPN7android6ParcelE"
    },
    {
     "referenced_type" : "_ZTIRKNSt3__110unique_ptrINS_6vectorIhNS_9allocatorIhEEEENS_14default_deleteIS4_EEEE"
    }
   ],
   "return_type" : "_ZTIi",
   "source_file" : "frameworks/native/libs/binder/include/binder/Parcel.h",
   "template_args" :
   [
    "_ZTINSt3__110unique_ptrINS_6vectorIhNS_9allocatorIhEEEENS_14default_deleteIS4_EEEE"
   ]
  },
  {
   "access" : "private",
   "function_name" : "android::Parcel::writeData",
   "linker_set_key" : "_ZN7android6Parcel9writeDataINSt3__110unique_ptrINS2_6vectorIiNS2_9allocatorIiEEEENS2_14default_deleteIS7_EEEELb1EEEiRKT_",
   "parameters" :
   [
    {
     "is_this_ptr" : true,
     "referenced_type" : "_ZTIPN7android6ParcelE"
    },
    {
     "referenced_type" : "_ZTIRKNSt3__110unique_ptrINS_6vectorIiNS_9allocatorIiEEEENS_14default_deleteIS4_EEEE"
    }
   ],
   "return_type" : "_ZTIi",
   "source_file" : "frameworks/native/libs/binder/include/binder/Parcel.h",
   "template_args" :
   [
    "_ZTINSt3__110unique_ptrINS_6vectorIiNS_9allocatorIiEEEENS_14default_deleteIS4_EEEE"
   ]
  },
  {
   "access" : "private",
   "function_name" : "android::Parcel::writeData",
   "linker_set_key" : "_ZN7android6Parcel9writeDataINSt3__110unique_ptrINS2_6vectorIxNS2_9allocatorIxEEEENS2_14default_deleteIS7_EEEELb1EEEiRKT_",
   "parameters" :
   [
    {
     "is_this_ptr" : true,
     "referenced_type" : "_ZTIPN7android6ParcelE"
    },
    {
     "referenced_type" : "_ZTIRKNSt3__110unique_ptrINS_6vectorIxNS_9allocatorIxEEEENS_14default_deleteIS4_EEEE"
    }
   ],
   "return_type" : "_ZTIi",
   "source_file" : "frameworks/native/libs/binder/include/binder/Parcel.h",
   "template_args" :
   [
    "_ZTINSt3__110unique_ptrINS_6vectorIxNS_9allocatorIxEEEENS_14default_deleteIS4_EEEE"
   ]
  },
  {
   "access" : "private",
   "function_name" : "android::Parcel::writeData",
   "linker_set_key" : "_ZN7android6Parcel9writeDataINSt3__110unique_ptrINS2_6vectorIyNS2_9allocatorIyEEEENS2_14default_deleteIS7_EEEELb1EEEiRKT_",
   "parameters" :
   [
    {
     "is_this_ptr" : true,
     "referenced_type" : "_ZTIPN7android6ParcelE"
    },
    {
     "referenced_type" : "_ZTIRKNSt3__110unique_ptrINS_6vectorIyNS_9allocatorIyEEEENS_14default_deleteIS4_EEEE"
    }
   ],
   "return_type" : "_ZTIi",
   "source_file" : "frameworks/native/libs/binder/include/binder/Parcel.h",
   "template_args" :
   [
    "_ZTINSt3__110unique_ptrINS_6vectorIyNS_9allocatorIyEEEENS_14default_deleteIS4_EEEE"
   ]
  },
  {
   "access" : "private",
   "function_name" : "android::Parcel::writeData",
   "linker_set_key" : "_ZN7android6Parcel9writeDataINSt3__110unique_ptrINS_8String16ENS2_14default_deleteIS4_EEEELb1EEEiRKT_",
   "parameters" :
   [
    {
     "is_this_ptr" : true,
     "referenced_type" : "_ZTIPN7android6ParcelE"
    },
    {
     "referenced_type" : "_ZTIRKNSt3__110unique_ptrIN7android8String16ENS_14default_deleteIS2_EEEE"
    }
   ],
   "return_type" : "_ZTIi",
   "source_file" : "frameworks/native/libs/binder/include/binder/Parcel.h",
   "template_args" :
   [
    "_ZTINSt3__110unique_ptrIN7android8String16ENS_14default_deleteIS2_EEEE"
   ]
  },
  {
   "access" : "private",
   "function_name" : "android::Parcel::writeData",
   "linker_set_key" : "_ZN7android6Parcel9writeDataINSt3__16vectorIDsNS2_9allocatorIDsEEEELb1EEEiRKT_",
   "parameters" :
   [
    {
     "is_this_ptr" : true,
     "referenced_type" : "_ZTIPN7android6ParcelE"
    },
    {
     "referenced_type" : "_ZTIRKNSt3__16vectorIDsNS_9allocatorIDsEEEE"
    }
   ],
   "return_type" : "_ZTIi",
   "source_file" : "frameworks/native/libs/binder/include/binder/Parcel.h",
   "template_args" : [ "_ZTINSt3__16vectorIDsNS_9allocatorIDsEEEE" ]
  },
  {
   "access" : "private",
   "function_name" : "android::Parcel::writeData",
   "linker_set_key" : "_ZN7android6Parcel9writeDataINSt3__16vectorINS2_10unique_ptrINS2_12basic_stringIcNS2_11char_traitsIcEENS2_9allocatorIcEEEENS2_14default_deleteISA_EEEENS8_ISD_EEEELb1EEEiRKT_",
   "parameters" :
   [
    {
     "is_this_ptr" : true,
     "referenced_type" : "_ZTIPN7android6ParcelE"
    },
    {
     "referenced_type" : "_ZTIRKNSt3__16vectorINS_10unique_ptrINS_12basic_stringIcNS_11char_traitsIcEENS_9allocatorIcEEEENS_14default_deleteIS7_EEEENS5_ISA_EEEE"
    }
   ],
   "return_type" : "_ZTIi",
   "source_file" : "frameworks/native/libs/binder/include/binder/Parcel.h",
   "template_args" :
   [
    "_ZTINSt3__16vectorINS_10unique_ptrINS_12basic_stringIcNS_11char_traitsIcEENS_9allocatorIcEEEENS_14default_deleteIS7_EEEENS5_ISA_EEEE"
   ]
  },
  {
   "access" : "private",
   "function_name" : "android::Parcel::writeData",
   "linker_set_key" : "_ZN7android6Parcel9writeDataINSt3__16vectorINS2_10unique_ptrINS_8String16ENS2_14default_deleteIS5_EEEENS2_9allocatorIS8_EEEELb1EEEiRKT_",
   "parameters" :
   [
    {
     "is_this_ptr" : true,
     "referenced_type" : "_ZTIPN7android6ParcelE"
    },
    {
     "referenced_type" : "_ZTIRKNSt3__16vectorINS_10unique_ptrIN7android8String16ENS_14default_deleteIS3_EEEENS_9allocatorIS6_EEEE"
    }
   ],
   "return_type" : "_ZTIi",
   "source_file" : "frameworks/native/libs/binder/include/binder/Parcel.h",
   "template_args" :
   [
    "_ZTINSt3__16vectorINS_10unique_ptrIN7android8String16ENS_14default_deleteIS3_EEEENS_9allocatorIS6_EEEE"
   ]
  },
  {
   "access" : "private",
   "function_name" : "android::Parcel::writeData",
   "linker_set_key" : "_ZN7android6Parcel9writeDataINSt3__16vectorINS2_12basic_stringIcNS2_11char_traitsIcEENS2_9allocatorIcEEEENS7_IS9_EEEELb1EEEiRKT_",
   "parameters" :
   [
    {
     "is_this_ptr" : true,
     "referenced_type" : "_ZTIPN7android6ParcelE"
    },
    {
     "referenced_type" : "_ZTIRKNSt3__16vectorINS_12basic_stringIcNS_11char_traitsIcEENS_9allocatorIcEEEENS4_IS6_EEEE"
    }
   ],
   "return_type" : "_ZTIi",
   "source_file" : "frameworks/native/libs/binder/include/binder/Parcel.h",
   "template_args" :
   [
    "_ZTINSt3__16vectorINS_12basic_stringIcNS_11char_traitsIcEENS_9allocatorIcEEEENS4_IS6_EEEE"
   ]
  },
  {
   "access" : "private",
   "function_name" : "android::Parcel::writeData",
   "linker_set_key" : "_ZN7android6Parcel9writeDataINSt3__16vectorINS2_8optionalINS2_12basic_stringIcNS2_11char_traitsIcEENS2_9allocatorIcEEEEEENS8_ISB_EEEELb1EEEiRKT_",
   "parameters" :
   [
    {
     "is_this_ptr" : true,
     "referenced_type" : "_ZTIPN7android6ParcelE"
    },
    {
     "referenced_type" : "_ZTIRKNSt3__16vectorINS_8optionalINS_12basic_stringIcNS_11char_traitsIcEENS_9allocatorIcEEEEEENS5_IS8_EEEE"
    }
   ],
   "return_type" : "_ZTIi",
   "source_file" : "frameworks/native/libs/binder/include/binder/Parcel.h",
   "template_args" :
   [
    "_ZTINSt3__16vectorINS_8optionalINS_12basic_stringIcNS_11char_traitsIcEENS_9allocatorIcEEEEEENS5_IS8_EEEE"
   ]
  },
  {
   "access" : "private",
   "function_name" : "android::Parcel::writeData",
   "linker_set_key" : "_ZN7android6Parcel9writeDataINSt3__16vectorINS2_8optionalINS_8String16EEENS2_9allocatorIS6_EEEELb1EEEiRKT_",
   "parameters" :
   [
    {
     "is_this_ptr" : true,
     "referenced_type" : "_ZTIPN7android6ParcelE"
    },
    {
     "referenced_type" : "_ZTIRKNSt3__16vectorINS_8optionalIN7android8String16EEENS_9allocatorIS4_EEEE"
    }
   ],
   "return_type" : "_ZTIi",
   "source_file" : "frameworks/native/libs/binder/include/binder/Parcel.h",
   "template_args" :
   [
    "_ZTINSt3__16vectorINS_8optionalIN7android8String16EEENS_9allocatorIS4_EEEE"
   ]
  },
  {
   "access" : "private",
   "function_name" : "android::Parcel::writeData",
   "linker_set_key" : "_ZN7android6Parcel9writeDataINSt3__16vectorINS_2spINS_7IBinderEEENS2_9allocatorIS6_EEEELb1EEEiRKT_",
   "parameters" :
   [
    {
     "is_this_ptr" : true,
     "referenced_type" : "_ZTIPN7android6ParcelE"
    },
    {
     "referenced_type" : "_ZTIRKNSt3__16vectorIN7android2spINS1_7IBinderEEENS_9allocatorIS4_EEEE"
    }
   ],
   "return_type" : "_ZTIi",
   "source_file" : "frameworks/native/libs/binder/include/binder/Parcel.h",
   "template_args" :
   [
    "_ZTINSt3__16vectorIN7android2spINS1_7IBinderEEENS_9allocatorIS4_EEEE"
   ]
  },
  {
   "access" : "private",
   "function_name" : "android::Parcel::writeData",
   "linker_set_key" : "_ZN7android6Parcel9writeDataINSt3__16vectorINS_4base14unique_fd_implINS4_13DefaultCloserEEENS2_9allocatorIS7_EEEELb1EEEiRKT_",
   "parameters" :
   [
    {
     "is_this_ptr" : true,
     "referenced_type" : "_ZTIPN7android6ParcelE"
    },
    {
     "referenced_type" : "_ZTIRKNSt3__16vectorIN7android4base14unique_fd_implINS2_13DefaultCloserEEENS_9allocatorIS5_EEEE"
    }
   ],
   "return_type" : "_ZTIi",
   "source_file" : "frameworks/native/libs/binder/include/binder/Parcel.h",
   "template_args" :
   [
    "_ZTINSt3__16vectorIN7android4base14unique_fd_implINS2_13DefaultCloserEEENS_9allocatorIS5_EEEE"
   ]
  },
  {
   "access" : "private",
   "function_name" : "android::Parcel::writeData",
   "linker_set_key" : "_ZN7android6Parcel9writeDataINSt3__16vectorINS_8String16ENS2_9allocatorIS4_EEEELb1EEEiRKT_",
   "parameters" :
   [
    {
     "is_this_ptr" : true,
     "referenced_type" : "_ZTIPN7android6ParcelE"
    },
    {
     "referenced_type" : "_ZTIRKNSt3__16vectorIN7android8String16ENS_9allocatorIS2_EEEE"
    }
   ],
   "return_type" : "_ZTIi",
   "source_file" : "frameworks/native/libs/binder/include/binder/Parcel.h",
   "template_args" : [ "_ZTINSt3__16vectorIN7android8String16ENS_9allocatorIS2_EEEE" ]
  },
  {
   "access" : "private",
   "function_name" : "android::Parcel::writeData",
   "linker_set_key" : "_ZN7android6Parcel9writeDataINSt3__16vectorIaNS2_9allocatorIaEEEELb1EEEiRKT_",
   "parameters" :
   [
    {
     "is_this_ptr" : true,
     "referenced_type" : "_ZTIPN7android6ParcelE"
    },
    {
     "referenced_type" : "_ZTIRKNSt3__16vectorIaNS_9allocatorIaEEEE"
    }
   ],
   "return_type" : "_ZTIi",
   "source_file" : "frameworks/native/libs/binder/include/binder/Parcel.h",
   "template_args" : [ "_ZTINSt3__16vectorIaNS_9allocatorIaEEEE" ]
  },
  {
   "access" : "private",
   "function_name" : "android::Parcel::writeData",
   "linker_set_key" : "_ZN7android6Parcel9writeDataINSt3__16vectorIbNS2_9allocatorIbEEEELb1EEEiRKT_",
   "parameters" :
   [
    {
     "is_this_ptr" : true,
     "referenced_type" : "_ZTIPN7android6ParcelE"
    },
    {
     "referenced_type" : "_ZTIRKNSt3__16vectorIbNS_9allocatorIbEEEE"
    }
   ],
   "return_type" : "_ZTIi",
   "source_file" : "frameworks/native/libs/binder/include/binder/Parcel.h",
   "template_args" : [ "_ZTINSt3__16vectorIbNS_9allocatorIbEEEE" ]
  },
  {
   "access" : "private",
   "function_name" : "android::Parcel::writeData",
   "linker_set_key" : "_ZN7android6Parcel9writeDataINSt3__16vectorIdNS2_9allocatorIdEEEELb1EEEiRKT_",
   "parameters" :
   [
    {
     "is_this_ptr" : true,
     "referenced_type" : "_ZTIPN7android6ParcelE"
    },
    {
     "referenced_type" : "_ZTIRKNSt3__16vectorIdNS_9allocatorIdEEEE"
    }
   ],
   "return_type" : "_ZTIi",
   "source_file" : "frameworks/native/libs/binder/include/binder/Parcel.h",
   "template_args" : [ "_ZTINSt3__16vectorIdNS_9allocatorIdEEEE" ]
  },
  {
   "access" : "private",
   "function_name" : "android::Parcel::writeData",
   "linker_set_key" : "_ZN7android6Parcel9writeDataINSt3__16vectorIfNS2_9allocatorIfEEEELb1EEEiRKT_",
   "parameters" :
   [
    {
     "is_this_ptr" : true,
     "referenced_type" : "_ZTIPN7android6ParcelE"
    },
    {
     "referenced_type" : "_ZTIRKNSt3__16vectorIfNS_9allocatorIfEEEE"
    }
   ],
   "return_type" : "_ZTIi",
   "source_file" : "frameworks/native/libs/binder/include/binder/Parcel.h",
   "template_args" : [ "_ZTINSt3__16vectorIfNS_9allocatorIfEEEE" ]
  },
  {
   "access" : "private",
   "function_name" : "android::Parcel::writeData",
   "linker_set_key" : "_ZN7android6Parcel9writeDataINSt3__16vectorIhNS2_9allocatorIhEEEELb1EEEiRKT_",
   "parameters" :
   [
    {
     "is_this_ptr" : true,
     "referenced_type" : "_ZTIPN7android6ParcelE"
    },
    {
     "referenced_type" : "_ZTIRKNSt3__16vectorIhNS_9allocatorIhEEEE"
    }
   ],
   "return_type" : "_ZTIi",
   "source_file" : "frameworks/native/libs/binder/include/binder/Parcel.h",
   "template_args" : [ "_ZTINSt3__16vectorIhNS_9allocatorIhEEEE" ]
  },
  {
   "access" : "private",
   "function_name" : "android::Parcel::writeData",
   "linker_set_key" : "_ZN7android6Parcel9writeDataINSt3__16vectorIiNS2_9allocatorIiEEEELb1EEEiRKT_",
   "parameters" :
   [
    {
     "is_this_ptr" : true,
     "referenced_type" : "_ZTIPN7android6ParcelE"
    },
    {
     "referenced_type" : "_ZTIRKNSt3__16vectorIiNS_9allocatorIiEEEE"
    }
   ],
   "return_type" : "_ZTIi",
   "source_file" : "frameworks/native/libs/binder/include/binder/Parcel.h",
   "template_args" : [ "_ZTINSt3__16vectorIiNS_9allocatorIiEEEE" ]
  },
  {
   "access" : "private",
   "function_name" : "android::Parcel::writeData",
   "linker_set_key" : "_ZN7android6Parcel9writeDataINSt3__16vectorIxNS2_9allocatorIxEEEELb1EEEiRKT_",
   "parameters" :
   [
    {
     "is_this_ptr" : true,
     "referenced_type" : "_ZTIPN7android6ParcelE"
    },
    {
     "referenced_type" : "_ZTIRKNSt3__16vectorIxNS_9allocatorIxEEEE"
    }
   ],
   "return_type" : "_ZTIi",
   "source_file" : "frameworks/native/libs/binder/include/binder/Parcel.h",
   "template_args" : [ "_ZTINSt3__16vectorIxNS_9allocatorIxEEEE" ]
  },
  {
   "access" : "private",
   "function_name" : "android::Parcel::writeData",
   "linker_set_key" : "_ZN7android6Parcel9writeDataINSt3__16vectorIyNS2_9allocatorIyEEEELb1EEEiRKT_",
   "parameters" :
   [
    {
     "is_this_ptr" : true,
     "referenced_type" : "_ZTIPN7android6ParcelE"
    },
    {
     "referenced_type" : "_ZTIRKNSt3__16vectorIyNS_9allocatorIyEEEE"
    }
   ],
   "return_type" : "_ZTIi",
   "source_file" : "frameworks/native/libs/binder/include/binder/Parcel.h",
   "template_args" : [ "_ZTINSt3__16vectorIyNS_9allocatorIyEEEE" ]
  },
  {
   "access" : "private",
   "function_name" : "android::Parcel::writeData",
   "linker_set_key" : "_ZN7android6Parcel9writeDataINSt3__18optionalINS2_12basic_stringIcNS2_11char_traitsIcEENS2_9allocatorIcEEEEEELb1EEEiRKT_",
   "parameters" :
   [
    {
     "is_this_ptr" : true,
     "referenced_type" : "_ZTIPN7android6ParcelE"
    },
    {
     "referenced_type" : "_ZTIRKNSt3__18optionalINS_12basic_stringIcNS_11char_traitsIcEENS_9allocatorIcEEEEEE"
    }
   ],
   "return_type" : "_ZTIi",
   "source_file" : "frameworks/native/libs/binder/include/binder/Parcel.h",
   "template_args" :
   [
    "_ZTINSt3__18optionalINS_12basic_stringIcNS_11char_traitsIcEENS_9allocatorIcEEEEEE"
   ]
  },
  {
   "access" : "private",
   "function_name" : "android::Parcel::writeData",
   "linker_set_key" : "_ZN7android6Parcel9writeDataINSt3__18optionalINS2_6vectorIDsNS2_9allocatorIDsEEEEEELb1EEEiRKT_",
   "parameters" :
   [
    {
     "is_this_ptr" : true,
     "referenced_type" : "_ZTIPN7android6ParcelE"
    },
    {
     "referenced_type" : "_ZTIRKNSt3__18optionalINS_6vectorIDsNS_9allocatorIDsEEEEEE"
    }
   ],
   "return_type" : "_ZTIi",
   "source_file" : "frameworks/native/libs/binder/include/binder/Parcel.h",
   "template_args" : [ "_ZTINSt3__18optionalINS_6vectorIDsNS_9allocatorIDsEEEEEE" ]
  },
  {
   "access" : "private",
   "function_name" : "android::Parcel::writeData",
   "linker_set_key" : "_ZN7android6Parcel9writeDataINSt3__18optionalINS2_6vectorINS3_INS2_12basic_stringIcNS2_11char_traitsIcEENS2_9allocatorIcEEEEEENS8_ISB_EEEEEELb1EEEiRKT_",
   "parameters" :
   [
    {
     "is_this_ptr" : true,
     "referenced_type" : "_ZTIPN7android6ParcelE"
    },
    {
     "referenced_type" : "_ZTIRKNSt3__18optionalINS_6vectorINS0_INS_12basic_stringIcNS_11char_traitsIcEENS_9allocatorIcEEEEEENS5_IS8_EEEEEE"
    }
   ],
   "return_type" : "_ZTIi",
   "source_file" : "frameworks/native/libs/binder/include/binder/Parcel.h",
   "template_args" :
   [
    "_ZTINSt3__18optionalINS_6vectorINS0_INS_12basic_stringIcNS_11char_traitsIcEENS_9allocatorIcEEEEEENS5_IS8_EEEEEE"
   ]
  },
  {
   "access" : "private",
   "function_name" : "android::Parcel::writeData",
   "linker_set_key" : "_ZN7android6Parcel9writeDataINSt3__18optionalINS2_6vectorINS3_INS_8String16EEENS2_9allocatorIS6_EEEEEELb1EEEiRKT_",
   "parameters" :
   [
    {
     "is_this_ptr" : true,
     "referenced_type" : "_ZTIPN7android6ParcelE"
    },
    {
     "referenced_type" : "_ZTIRKNSt3__18optionalINS_6vectorINS0_IN7android8String16EEENS_9allocatorIS4_EEEEEE"
    }
   ],
   "return_type" : "_ZTIi",
   "source_file" : "frameworks/native/libs/binder/include/binder/Parcel.h",
   "template_args" :
   [
    "_ZTINSt3__18optionalINS_6vectorINS0_IN7android8String16EEENS_9allocatorIS4_EEEEEE"
   ]
  },
  {
   "access" : "private",
   "function_name" : "android::Parcel::writeData",
   "linker_set_key" : "_ZN7android6Parcel9writeDataINSt3__18optionalINS2_6vectorINS_2spINS_7IBinderEEENS2_9allocatorIS7_EEEEEELb1EEEiRKT_",
   "parameters" :
   [
    {
     "is_this_ptr" : true,
     "referenced_type" : "_ZTIPN7android6ParcelE"
    },
    {
     "referenced_type" : "_ZTIRKNSt3__18optionalINS_6vectorIN7android2spINS2_7IBinderEEENS_9allocatorIS5_EEEEEE"
    }
   ],
   "return_type" : "_ZTIi",
   "source_file" : "frameworks/native/libs/binder/include/binder/Parcel.h",
   "template_args" :
   [
    "_ZTINSt3__18optionalINS_6vectorIN7android2spINS2_7IBinderEEENS_9allocatorIS5_EEEEEE"
   ]
  },
  {
   "access" : "private",
   "function_name" : "android::Parcel::writeData",
   "linker_set_key" : "_ZN7android6Parcel9writeDataINSt3__18optionalINS2_6vectorINS_4base14unique_fd_implINS5_13DefaultCloserEEENS2_9allocatorIS8_EEEEEELb1EEEiRKT_",
   "parameters" :
   [
    {
     "is_this_ptr" : true,
     "referenced_type" : "_ZTIPN7android6ParcelE"
    },
    {
     "referenced_type" : "_ZTIRKNSt3__18optionalINS_6vectorIN7android4base14unique_fd_implINS3_13DefaultCloserEEENS_9allocatorIS6_EEEEEE"
    }
   ],
   "return_type" : "_ZTIi",
   "source_file" : "frameworks/native/libs/binder/include/binder/Parcel.h",
   "template_args" :
   [
    "_ZTINSt3__18optionalINS_6vectorIN7android4base14unique_fd_implINS3_13DefaultCloserEEENS_9allocatorIS6_EEEEEE"
   ]
  },
  {
   "access" : "private",
   "function_name" : "android::Parcel::writeData",
   "linker_set_key" : "_ZN7android6Parcel9writeDataINSt3__18optionalINS2_6vectorIaNS2_9allocatorIaEEEEEELb1EEEiRKT_",
   "parameters" :
   [
    {
     "is_this_ptr" : true,
     "referenced_type" : "_ZTIPN7android6ParcelE"
    },
    {
     "referenced_type" : "_ZTIRKNSt3__18optionalINS_6vectorIaNS_9allocatorIaEEEEEE"
    }
   ],
   "return_type" : "_ZTIi",
   "source_file" : "frameworks/native/libs/binder/include/binder/Parcel.h",
   "template_args" : [ "_ZTINSt3__18optionalINS_6vectorIaNS_9allocatorIaEEEEEE" ]
  },
  {
   "access" : "private",
   "function_name" : "android::Parcel::writeData",
   "linker_set_key" : "_ZN7android6Parcel9writeDataINSt3__18optionalINS2_6vectorIbNS2_9allocatorIbEEEEEELb1EEEiRKT_",
   "parameters" :
   [
    {
     "is_this_ptr" : true,
     "referenced_type" : "_ZTIPN7android6ParcelE"
    },
    {
     "referenced_type" : "_ZTIRKNSt3__18optionalINS_6vectorIbNS_9allocatorIbEEEEEE"
    }
   ],
   "return_type" : "_ZTIi",
   "source_file" : "frameworks/native/libs/binder/include/binder/Parcel.h",
   "template_args" : [ "_ZTINSt3__18optionalINS_6vectorIbNS_9allocatorIbEEEEEE" ]
  },
  {
   "access" : "private",
   "function_name" : "android::Parcel::writeData",
   "linker_set_key" : "_ZN7android6Parcel9writeDataINSt3__18optionalINS2_6vectorIdNS2_9allocatorIdEEEEEELb1EEEiRKT_",
   "parameters" :
   [
    {
     "is_this_ptr" : true,
     "referenced_type" : "_ZTIPN7android6ParcelE"
    },
    {
     "referenced_type" : "_ZTIRKNSt3__18optionalINS_6vectorIdNS_9allocatorIdEEEEEE"
    }
   ],
   "return_type" : "_ZTIi",
   "source_file" : "frameworks/native/libs/binder/include/binder/Parcel.h",
   "template_args" : [ "_ZTINSt3__18optionalINS_6vectorIdNS_9allocatorIdEEEEEE" ]
  },
  {
   "access" : "private",
   "function_name" : "android::Parcel::writeData",
   "linker_set_key" : "_ZN7android6Parcel9writeDataINSt3__18optionalINS2_6vectorIfNS2_9allocatorIfEEEEEELb1EEEiRKT_",
   "parameters" :
   [
    {
     "is_this_ptr" : true,
     "referenced_type" : "_ZTIPN7android6ParcelE"
    },
    {
     "referenced_type" : "_ZTIRKNSt3__18optionalINS_6vectorIfNS_9allocatorIfEEEEEE"
    }
   ],
   "return_type" : "_ZTIi",
   "source_file" : "frameworks/native/libs/binder/include/binder/Parcel.h",
   "template_args" : [ "_ZTINSt3__18optionalINS_6vectorIfNS_9allocatorIfEEEEEE" ]
  },
  {
   "access" : "private",
   "function_name" : "android::Parcel::writeData",
   "linker_set_key" : "_ZN7android6Parcel9writeDataINSt3__18optionalINS2_6vectorIhNS2_9allocatorIhEEEEEELb1EEEiRKT_",
   "parameters" :
   [
    {
     "is_this_ptr" : true,
     "referenced_type" : "_ZTIPN7android6ParcelE"
    },
    {
     "referenced_type" : "_ZTIRKNSt3__18optionalINS_6vectorIhNS_9allocatorIhEEEEEE"
    }
   ],
   "return_type" : "_ZTIi",
   "source_file" : "frameworks/native/libs/binder/include/binder/Parcel.h",
   "template_args" : [ "_ZTINSt3__18optionalINS_6vectorIhNS_9allocatorIhEEEEEE" ]
  },
  {
   "access" : "private",
   "function_name" : "android::Parcel::writeData",
   "linker_set_key" : "_ZN7android6Parcel9writeDataINSt3__18optionalINS2_6vectorIiNS2_9allocatorIiEEEEEELb1EEEiRKT_",
   "parameters" :
   [
    {
     "is_this_ptr" : true,
     "referenced_type" : "_ZTIPN7android6ParcelE"
    },
    {
     "referenced_type" : "_ZTIRKNSt3__18optionalINS_6vectorIiNS_9allocatorIiEEEEEE"
    }
   ],
   "return_type" : "_ZTIi",
   "source_file" : "frameworks/native/libs/binder/include/binder/Parcel.h",
   "template_args" : [ "_ZTINSt3__18optionalINS_6vectorIiNS_9allocatorIiEEEEEE" ]
  },
  {
   "access" : "private",
   "function_name" : "android::Parcel::writeData",
   "linker_set_key" : "_ZN7android6Parcel9writeDataINSt3__18optionalINS2_6vectorIxNS2_9allocatorIxEEEEEELb1EEEiRKT_",
   "parameters" :
   [
    {
     "is_this_ptr" : true,
     "referenced_type" : "_ZTIPN7android6ParcelE"
    },
    {
     "referenced_type" : "_ZTIRKNSt3__18optionalINS_6vectorIxNS_9allocatorIxEEEEEE"
    }
   ],
   "return_type" : "_ZTIi",
   "source_file" : "frameworks/native/libs/binder/include/binder/Parcel.h",
   "template_args" : [ "_ZTINSt3__18optionalINS_6vectorIxNS_9allocatorIxEEEEEE" ]
  },
  {
   "access" : "private",
   "function_name" : "android::Parcel::writeData",
   "linker_set_key" : "_ZN7android6Parcel9writeDataINSt3__18optionalINS2_6vectorIyNS2_9allocatorIyEEEEEELb1EEEiRKT_",
   "parameters" :
   [
    {
     "is_this_ptr" : true,
     "referenced_type" : "_ZTIPN7android6ParcelE"
    },
    {
     "referenced_type" : "_ZTIRKNSt3__18optionalINS_6vectorIyNS_9allocatorIyEEEEEE"
    }
   ],
   "return_type" : "_ZTIi",
   "source_file" : "frameworks/native/libs/binder/include/binder/Parcel.h",
   "template_args" : [ "_ZTINSt3__18optionalINS_6vectorIyNS_9allocatorIyEEEEEE" ]
  },
  {
   "access" : "private",
   "function_name" : "android::Parcel::writeData",
   "linker_set_key" : "_ZN7android6Parcel9writeDataINSt3__18optionalINS_8String16EEELb1EEEiRKT_",
   "parameters" :
   [
    {
     "is_this_ptr" : true,
     "referenced_type" : "_ZTIPN7android6ParcelE"
    },
    {
     "referenced_type" : "_ZTIRKNSt3__18optionalIN7android8String16EEE"
    }
   ],
   "return_type" : "_ZTIi",
   "source_file" : "frameworks/native/libs/binder/include/binder/Parcel.h",
   "template_args" : [ "_ZTINSt3__18optionalIN7android8String16EEE" ]
  },
  {
   "function_name" : "android::Parcel::Parcel",
   "linker_set_key" : "_ZN7android6ParcelC1Ev",
   "parameters" :
   [
    {
     "is_this_ptr" : true,
     "referenced_type" : "_ZTIPN7android6ParcelE"
    }
   ],
   "return_type" : "_ZTIv",
   "source_file" : "frameworks/native/libs/binder/include/binder/Parcel.h"
  },
  {
   "function_name" : "android::Parcel::Parcel",
   "linker_set_key" : "_ZN7android6ParcelC2Ev",
   "parameters" :
   [
    {
     "is_this_ptr" : true,
     "referenced_type" : "_ZTIPN7android6ParcelE"
    }
   ],
   "return_type" : "_ZTIv",
   "source_file" : "frameworks/native/libs/binder/include/binder/Parcel.h"
  },
  {
   "function_name" : "android::Parcel::~Parcel",
   "linker_set_key" : "_ZN7android6ParcelD1Ev",
   "parameters" :
   [
    {
     "is_this_ptr" : true,
     "referenced_type" : "_ZTIPN7android6ParcelE"
    }
   ],
   "return_type" : "_ZTIv",
   "source_file" : "frameworks/native/libs/binder/include/binder/Parcel.h"
  },
  {
   "function_name" : "android::Parcel::~Parcel",
   "linker_set_key" : "_ZN7android6ParcelD2Ev",
   "parameters" :
   [
    {
     "is_this_ptr" : true,
     "referenced_type" : "_ZTIPN7android6ParcelE"
    }
   ],
   "return_type" : "_ZTIv",
   "source_file" : "frameworks/native/libs/binder/include/binder/Parcel.h"
  },
  {
   "function_name" : "android::RWLock::tryReadLock",
   "linker_set_key" : "_ZN7android6RWLock11tryReadLockEv",
   "parameters" :
   [
    {
     "is_this_ptr" : true,
     "referenced_type" : "_ZTIPN7android6RWLockE"
    }
   ],
   "return_type" : "_ZTIi",
   "source_file" : "system/core/libutils/include/utils/RWLock.h"
  },
  {
   "function_name" : "android::RWLock::tryWriteLock",
   "linker_set_key" : "_ZN7android6RWLock12tryWriteLockEv",
   "parameters" :
   [
    {
     "is_this_ptr" : true,
     "referenced_type" : "_ZTIPN7android6RWLockE"
    }
   ],
   "return_type" : "_ZTIi",
   "source_file" : "system/core/libutils/include/utils/RWLock.h"
  },
  {
   "function_name" : "android::RWLock::unlock",
   "linker_set_key" : "_ZN7android6RWLock6unlockEv",
   "parameters" :
   [
    {
     "is_this_ptr" : true,
     "referenced_type" : "_ZTIPN7android6RWLockE"
    }
   ],
   "return_type" : "_ZTIv",
   "source_file" : "system/core/libutils/include/utils/RWLock.h"
  },
  {
   "function_name" : "android::RWLock::readLock",
   "linker_set_key" : "_ZN7android6RWLock8readLockEv",
   "parameters" :
   [
    {
     "is_this_ptr" : true,
     "referenced_type" : "_ZTIPN7android6RWLockE"
    }
   ],
   "return_type" : "_ZTIi",
   "source_file" : "system/core/libutils/include/utils/RWLock.h"
  },
  {
   "function_name" : "android::RWLock::AutoRLock::AutoRLock",
   "linker_set_key" : "_ZN7android6RWLock9AutoRLockC1ERS0_",
   "parameters" :
   [
    {
     "is_this_ptr" : true,
     "referenced_type" : "_ZTIPN7android6RWLock9AutoRLockE"
    },
    {
     "referenced_type" : "_ZTIRN7android6RWLockE"
    }
   ],
   "return_type" : "_ZTIv",
   "source_file" : "system/core/libutils/include/utils/RWLock.h"
  },
  {
   "function_name" : "android::RWLock::AutoRLock::AutoRLock",
   "linker_set_key" : "_ZN7android6RWLock9AutoRLockC2ERS0_",
   "parameters" :
   [
    {
     "is_this_ptr" : true,
     "referenced_type" : "_ZTIPN7android6RWLock9AutoRLockE"
    },
    {
     "referenced_type" : "_ZTIRN7android6RWLockE"
    }
   ],
   "return_type" : "_ZTIv",
   "source_file" : "system/core/libutils/include/utils/RWLock.h"
  },
  {
   "function_name" : "android::RWLock::AutoRLock::~AutoRLock",
   "linker_set_key" : "_ZN7android6RWLock9AutoRLockD1Ev",
   "parameters" :
   [
    {
     "is_this_ptr" : true,
     "referenced_type" : "_ZTIPN7android6RWLock9AutoRLockE"
    }
   ],
   "return_type" : "_ZTIv",
   "source_file" : "system/core/libutils/include/utils/RWLock.h"
  },
  {
   "function_name" : "android::RWLock::AutoRLock::~AutoRLock",
   "linker_set_key" : "_ZN7android6RWLock9AutoRLockD2Ev",
   "parameters" :
   [
    {
     "is_this_ptr" : true,
     "referenced_type" : "_ZTIPN7android6RWLock9AutoRLockE"
    }
   ],
   "return_type" : "_ZTIv",
   "source_file" : "system/core/libutils/include/utils/RWLock.h"
  },
  {
   "function_name" : "android::RWLock::AutoWLock::AutoWLock",
   "linker_set_key" : "_ZN7android6RWLock9AutoWLockC1ERS0_",
   "parameters" :
   [
    {
     "is_this_ptr" : true,
     "referenced_type" : "_ZTIPN7android6RWLock9AutoWLockE"
    },
    {
     "referenced_type" : "_ZTIRN7android6RWLockE"
    }
   ],
   "return_type" : "_ZTIv",
   "source_file" : "system/core/libutils/include/utils/RWLock.h"
  },
  {
   "function_name" : "android::RWLock::AutoWLock::AutoWLock",
   "linker_set_key" : "_ZN7android6RWLock9AutoWLockC2ERS0_",
   "parameters" :
   [
    {
     "is_this_ptr" : true,
     "referenced_type" : "_ZTIPN7android6RWLock9AutoWLockE"
    },
    {
     "referenced_type" : "_ZTIRN7android6RWLockE"
    }
   ],
   "return_type" : "_ZTIv",
   "source_file" : "system/core/libutils/include/utils/RWLock.h"
  },
  {
   "function_name" : "android::RWLock::AutoWLock::~AutoWLock",
   "linker_set_key" : "_ZN7android6RWLock9AutoWLockD1Ev",
   "parameters" :
   [
    {
     "is_this_ptr" : true,
     "referenced_type" : "_ZTIPN7android6RWLock9AutoWLockE"
    }
   ],
   "return_type" : "_ZTIv",
   "source_file" : "system/core/libutils/include/utils/RWLock.h"
  },
  {
   "function_name" : "android::RWLock::AutoWLock::~AutoWLock",
   "linker_set_key" : "_ZN7android6RWLock9AutoWLockD2Ev",
   "parameters" :
   [
    {
     "is_this_ptr" : true,
     "referenced_type" : "_ZTIPN7android6RWLock9AutoWLockE"
    }
   ],
   "return_type" : "_ZTIv",
   "source_file" : "system/core/libutils/include/utils/RWLock.h"
  },
  {
   "function_name" : "android::RWLock::writeLock",
   "linker_set_key" : "_ZN7android6RWLock9writeLockEv",
   "parameters" :
   [
    {
     "is_this_ptr" : true,
     "referenced_type" : "_ZTIPN7android6RWLockE"
    }
   ],
   "return_type" : "_ZTIi",
   "source_file" : "system/core/libutils/include/utils/RWLock.h"
  },
  {
   "function_name" : "android::RWLock::RWLock",
   "linker_set_key" : "_ZN7android6RWLockC1EPKc",
   "parameters" :
   [
    {
     "is_this_ptr" : true,
     "referenced_type" : "_ZTIPN7android6RWLockE"
    },
    {
     "referenced_type" : "_ZTIPKc"
    }
   ],
   "return_type" : "_ZTIv",
   "source_file" : "system/core/libutils/include/utils/RWLock.h"
  },
  {
   "function_name" : "android::RWLock::RWLock",
   "linker_set_key" : "_ZN7android6RWLockC1EiPKc",
   "parameters" :
   [
    {
     "is_this_ptr" : true,
     "referenced_type" : "_ZTIPN7android6RWLockE"
    },
    {
     "referenced_type" : "_ZTIi"
    },
    {
     "default_arg" : true,
     "referenced_type" : "_ZTIPKc"
    }
   ],
   "return_type" : "_ZTIv",
   "source_file" : "system/core/libutils/include/utils/RWLock.h"
  },
  {
   "function_name" : "android::RWLock::RWLock",
   "linker_set_key" : "_ZN7android6RWLockC1Ev",
   "parameters" :
   [
    {
     "is_this_ptr" : true,
     "referenced_type" : "_ZTIPN7android6RWLockE"
    }
   ],
   "return_type" : "_ZTIv",
   "source_file" : "system/core/libutils/include/utils/RWLock.h"
  },
  {
   "function_name" : "android::RWLock::RWLock",
   "linker_set_key" : "_ZN7android6RWLockC2EPKc",
   "parameters" :
   [
    {
     "is_this_ptr" : true,
     "referenced_type" : "_ZTIPN7android6RWLockE"
    },
    {
     "referenced_type" : "_ZTIPKc"
    }
   ],
   "return_type" : "_ZTIv",
   "source_file" : "system/core/libutils/include/utils/RWLock.h"
  },
  {
   "function_name" : "android::RWLock::RWLock",
   "linker_set_key" : "_ZN7android6RWLockC2EiPKc",
   "parameters" :
   [
    {
     "is_this_ptr" : true,
     "referenced_type" : "_ZTIPN7android6RWLockE"
    },
    {
     "referenced_type" : "_ZTIi"
    },
    {
     "default_arg" : true,
     "referenced_type" : "_ZTIPKc"
    }
   ],
   "return_type" : "_ZTIv",
   "source_file" : "system/core/libutils/include/utils/RWLock.h"
  },
  {
   "function_name" : "android::RWLock::RWLock",
   "linker_set_key" : "_ZN7android6RWLockC2Ev",
   "parameters" :
   [
    {
     "is_this_ptr" : true,
     "referenced_type" : "_ZTIPN7android6RWLockE"
    }
   ],
   "return_type" : "_ZTIv",
   "source_file" : "system/core/libutils/include/utils/RWLock.h"
  },
  {
   "function_name" : "android::RWLock::~RWLock",
   "linker_set_key" : "_ZN7android6RWLockD1Ev",
   "parameters" :
   [
    {
     "is_this_ptr" : true,
     "referenced_type" : "_ZTIPN7android6RWLockE"
    }
   ],
   "return_type" : "_ZTIv",
   "source_file" : "system/core/libutils/include/utils/RWLock.h"
  },
  {
   "function_name" : "android::RWLock::~RWLock",
   "linker_set_key" : "_ZN7android6RWLockD2Ev",
   "parameters" :
   [
    {
     "is_this_ptr" : true,
     "referenced_type" : "_ZTIPN7android6RWLockE"
    }
   ],
   "return_type" : "_ZTIv",
   "source_file" : "system/core/libutils/include/utils/RWLock.h"
  },
  {
   "function_name" : "android::binder::Status::Status",
   "linker_set_key" : "_ZN7android6binder6StatusC1EOS1_",
   "parameters" :
   [
    {
     "is_this_ptr" : true,
     "referenced_type" : "_ZTIPN7android6binder6StatusE"
    },
    {
     "referenced_type" : "_ZTION7android6binder6StatusE"
    }
   ],
   "return_type" : "_ZTIv",
   "source_file" : "frameworks/native/libs/binder/include/binder/Status.h"
  },
  {
   "function_name" : "android::binder::Status::Status",
   "linker_set_key" : "_ZN7android6binder6StatusC1ERKS1_",
   "parameters" :
   [
    {
     "is_this_ptr" : true,
     "referenced_type" : "_ZTIPN7android6binder6StatusE"
    },
    {
     "referenced_type" : "_ZTIRKN7android6binder6StatusE"
    }
   ],
   "return_type" : "_ZTIv",
   "source_file" : "frameworks/native/libs/binder/include/binder/Status.h"
  },
  {
   "function_name" : "android::binder::Status::Status",
   "linker_set_key" : "_ZN7android6binder6StatusC1Ev",
   "parameters" :
   [
    {
     "is_this_ptr" : true,
     "referenced_type" : "_ZTIPN7android6binder6StatusE"
    }
   ],
   "return_type" : "_ZTIv",
   "source_file" : "frameworks/native/libs/binder/include/binder/Status.h"
  },
  {
   "function_name" : "android::binder::Status::Status",
   "linker_set_key" : "_ZN7android6binder6StatusC2EOS1_",
   "parameters" :
   [
    {
     "is_this_ptr" : true,
     "referenced_type" : "_ZTIPN7android6binder6StatusE"
    },
    {
     "referenced_type" : "_ZTION7android6binder6StatusE"
    }
   ],
   "return_type" : "_ZTIv",
   "source_file" : "frameworks/native/libs/binder/include/binder/Status.h"
  },
  {
   "function_name" : "android::binder::Status::Status",
   "linker_set_key" : "_ZN7android6binder6StatusC2ERKS1_",
   "parameters" :
   [
    {
     "is_this_ptr" : true,
     "referenced_type" : "_ZTIPN7android6binder6StatusE"
    },
    {
     "referenced_type" : "_ZTIRKN7android6binder6StatusE"
    }
   ],
   "return_type" : "_ZTIv",
   "source_file" : "frameworks/native/libs/binder/include/binder/Status.h"
  },
  {
   "function_name" : "android::binder::Status::Status",
   "linker_set_key" : "_ZN7android6binder6StatusC2Ev",
   "parameters" :
   [
    {
     "is_this_ptr" : true,
     "referenced_type" : "_ZTIPN7android6binder6StatusE"
    }
   ],
   "return_type" : "_ZTIv",
   "source_file" : "frameworks/native/libs/binder/include/binder/Status.h"
  },
  {
   "function_name" : "android::binder::Status::~Status",
   "linker_set_key" : "_ZN7android6binder6StatusD1Ev",
   "parameters" :
   [
    {
     "is_this_ptr" : true,
     "referenced_type" : "_ZTIPN7android6binder6StatusE"
    }
   ],
   "return_type" : "_ZTIv",
   "source_file" : "frameworks/native/libs/binder/include/binder/Status.h"
  },
  {
   "function_name" : "android::binder::Status::~Status",
   "linker_set_key" : "_ZN7android6binder6StatusD2Ev",
   "parameters" :
   [
    {
     "is_this_ptr" : true,
     "referenced_type" : "_ZTIPN7android6binder6StatusE"
    }
   ],
   "return_type" : "_ZTIv",
   "source_file" : "frameworks/native/libs/binder/include/binder/Status.h"
  },
  {
   "function_name" : "android::binder::Status::operator=",
   "linker_set_key" : "_ZN7android6binder6StatusaSERKS1_",
   "parameters" :
   [
    {
     "is_this_ptr" : true,
     "referenced_type" : "_ZTIPN7android6binder6StatusE"
    },
    {
     "referenced_type" : "_ZTIRKN7android6binder6StatusE"
    }
   ],
   "return_type" : "_ZTIRN7android6binder6StatusE",
   "source_file" : "frameworks/native/libs/binder/include/binder/Status.h"
  },
  {
   "function_name" : "android::dedent",
   "linker_set_key" : "_ZN7android6dedentERNS_10TextOutputE",
   "parameters" :
   [
    {
     "referenced_type" : "_ZTIRN7android10TextOutputE"
    }
   ],
   "return_type" : "_ZTIRN7android10TextOutputE",
   "source_file" : "frameworks/native/libs/binder/include/binder/TextOutput.h"
  },
  {
   "function_name" : "android::indent",
   "linker_set_key" : "_ZN7android6indentERNS_10TextOutputE",
   "parameters" :
   [
    {
     "referenced_type" : "_ZTIRN7android10TextOutputE"
    }
   ],
   "return_type" : "_ZTIRN7android10TextOutputE",
   "source_file" : "frameworks/native/libs/binder/include/binder/TextOutput.h"
  },
  {
   "function_name" : "android::HexDump::setAlignment",
   "linker_set_key" : "_ZN7android7HexDump12setAlignmentEj",
   "parameters" :
   [
    {
     "is_this_ptr" : true,
     "referenced_type" : "_ZTIPN7android7HexDumpE"
    },
    {
     "referenced_type" : "_ZTIj"
    }
   ],
   "return_type" : "_ZTIRN7android7HexDumpE",
   "source_file" : "frameworks/native/libs/binder/include/binder/TextOutput.h"
  },
  {
   "function_name" : "android::HexDump::setCArrayStyle",
   "linker_set_key" : "_ZN7android7HexDump14setCArrayStyleEb",
   "parameters" :
   [
    {
     "is_this_ptr" : true,
     "referenced_type" : "_ZTIPN7android7HexDumpE"
    },
    {
     "referenced_type" : "_ZTIb"
    }
   ],
   "return_type" : "_ZTIRN7android7HexDumpE",
   "source_file" : "frameworks/native/libs/binder/include/binder/TextOutput.h"
  },
  {
   "function_name" : "android::HexDump::setBytesPerLine",
   "linker_set_key" : "_ZN7android7HexDump15setBytesPerLineEj",
   "parameters" :
   [
    {
     "is_this_ptr" : true,
     "referenced_type" : "_ZTIPN7android7HexDumpE"
    },
    {
     "referenced_type" : "_ZTIj"
    }
   ],
   "return_type" : "_ZTIRN7android7HexDumpE",
   "source_file" : "frameworks/native/libs/binder/include/binder/TextOutput.h"
  },
  {
   "function_name" : "android::HexDump::setSingleLineCutoff",
   "linker_set_key" : "_ZN7android7HexDump19setSingleLineCutoffEi",
   "parameters" :
   [
    {
     "is_this_ptr" : true,
     "referenced_type" : "_ZTIPN7android7HexDumpE"
    },
    {
     "referenced_type" : "_ZTIi"
    }
   ],
   "return_type" : "_ZTIRN7android7HexDumpE",
   "source_file" : "frameworks/native/libs/binder/include/binder/TextOutput.h"
  },
  {
   "function_name" : "android::HexDump::~HexDump",
   "linker_set_key" : "_ZN7android7HexDumpD1Ev",
   "parameters" :
   [
    {
     "is_this_ptr" : true,
     "referenced_type" : "_ZTIPN7android7HexDumpE"
    }
   ],
   "return_type" : "_ZTIv",
   "source_file" : "frameworks/native/libs/binder/include/binder/TextOutput.h"
  },
  {
   "function_name" : "android::HexDump::~HexDump",
   "linker_set_key" : "_ZN7android7HexDumpD2Ev",
   "parameters" :
   [
    {
     "is_this_ptr" : true,
     "referenced_type" : "_ZTIPN7android7HexDumpE"
    }
   ],
   "return_type" : "_ZTIv",
   "source_file" : "frameworks/native/libs/binder/include/binder/TextOutput.h"
  },
  {
   "function_name" : "android::RefBase::trackMe",
   "linker_set_key" : "_ZN7android7RefBase7trackMeEbb",
   "parameters" :
   [
    {
     "is_this_ptr" : true,
     "referenced_type" : "_ZTIPN7android7RefBaseE"
    },
    {
     "referenced_type" : "_ZTIb"
    },
    {
     "referenced_type" : "_ZTIb"
    }
   ],
   "return_type" : "_ZTIv",
   "source_file" : "system/core/libutils/include/utils/RefBase.h"
  },
  {
   "function_name" : "android::String8::appendPath",
   "linker_set_key" : "_ZN7android7String810appendPathERKS0_",
   "parameters" :
   [
    {
     "is_this_ptr" : true,
     "referenced_type" : "_ZTIPN7android7String8E"
    },
    {
     "referenced_type" : "_ZTIRKN7android7String8E"
    }
   ],
   "return_type" : "_ZTIRN7android7String8E",
   "source_file" : "system/core/libutils/include/utils/String8.h"
  },
  {
   "access" : "private",
   "function_name" : "android::String8::std_string",
   "linker_set_key" : "_ZN7android7String810std_stringERKS0_",
   "parameters" :
   [
    {
     "referenced_type" : "_ZTIRKN7android7String8E"
    }
   ],
   "return_type" : "_ZTINSt3__112basic_stringIcNS_11char_traitsIcEENS_9allocatorIcEEEE",
   "source_file" : "system/core/libutils/include/utils/String8.h"
  },
  {
   "function_name" : "android::String8::empty",
   "linker_set_key" : "_ZN7android7String85emptyEv",
   "return_type" : "_ZTIKN7android7String8E",
   "source_file" : "system/core/libutils/include/utils/String8.h"
  },
  {
   "function_name" : "android::String8::operator=",
   "linker_set_key" : "_ZN7android7String8aSEPKc",
   "parameters" :
   [
    {
     "is_this_ptr" : true,
     "referenced_type" : "_ZTIPN7android7String8E"
    },
    {
     "referenced_type" : "_ZTIPKc"
    }
   ],
   "return_type" : "_ZTIRN7android7String8E",
   "source_file" : "system/core/libutils/include/utils/String8.h"
  },
  {
   "function_name" : "android::String8::operator=",
   "linker_set_key" : "_ZN7android7String8aSERKS0_",
   "parameters" :
   [
    {
     "is_this_ptr" : true,
     "referenced_type" : "_ZTIPN7android7String8E"
    },
    {
     "referenced_type" : "_ZTIRKN7android7String8E"
    }
   ],
   "return_type" : "_ZTIRN7android7String8E",
   "source_file" : "system/core/libutils/include/utils/String8.h"
  },
  {
   "function_name" : "android::String8::operator+=",
   "linker_set_key" : "_ZN7android7String8pLEPKc",
   "parameters" :
   [
    {
     "is_this_ptr" : true,
     "referenced_type" : "_ZTIPN7android7String8E"
    },
    {
     "referenced_type" : "_ZTIPKc"
    }
   ],
   "return_type" : "_ZTIRN7android7String8E",
   "source_file" : "system/core/libutils/include/utils/String8.h"
  },
  {
   "function_name" : "android::String8::operator+=",
   "linker_set_key" : "_ZN7android7String8pLERKS0_",
   "parameters" :
   [
    {
     "is_this_ptr" : true,
     "referenced_type" : "_ZTIPN7android7String8E"
    },
    {
     "referenced_type" : "_ZTIRKN7android7String8E"
    }
   ],
   "return_type" : "_ZTIRN7android7String8E",
   "source_file" : "system/core/libutils/include/utils/String8.h"
  },
  {
   "access" : "private",
   "function_name" : "android::BpBinder::PrivateAccessorForId::PrivateAccessorForId",
   "linker_set_key" : "_ZN7android8BpBinder20PrivateAccessorForIdC1EPKS0_",
   "parameters" :
   [
    {
     "is_this_ptr" : true,
     "referenced_type" : "_ZTIPN7android8BpBinder20PrivateAccessorForIdE"
    },
    {
     "referenced_type" : "_ZTIPKN7android8BpBinderE"
    }
   ],
   "return_type" : "_ZTIv",
   "source_file" : "frameworks/native/libs/binder/include/binder/BpBinder.h"
  },
  {
   "access" : "private",
   "function_name" : "android::BpBinder::PrivateAccessorForId::PrivateAccessorForId",
   "linker_set_key" : "_ZN7android8BpBinder20PrivateAccessorForIdC2EPKS0_",
   "parameters" :
   [
    {
     "is_this_ptr" : true,
     "referenced_type" : "_ZTIPN7android8BpBinder20PrivateAccessorForIdE"
    },
    {
     "referenced_type" : "_ZTIPKN7android8BpBinderE"
    }
   ],
   "return_type" : "_ZTIv",
   "source_file" : "frameworks/native/libs/binder/include/binder/BpBinder.h"
  },
  {
   "access" : "private",
   "function_name" : "android::String16::std_string",
   "linker_set_key" : "_ZN7android8String1610std_stringERKS0_",
   "parameters" :
   [
    {
     "referenced_type" : "_ZTIRKN7android8String16E"
    }
   ],
   "return_type" : "_ZTINSt3__112basic_stringIcNS_11char_traitsIcEENS_9allocatorIcEEEE",
   "source_file" : "system/core/libutils/include/utils/String16.h"
  },
  {
   "function_name" : "android::String16::operator=",
   "linker_set_key" : "_ZN7android8String16aSERKS0_",
   "parameters" :
   [
    {
     "is_this_ptr" : true,
     "referenced_type" : "_ZTIPN7android8String16E"
    },
    {
     "referenced_type" : "_ZTIRKN7android8String16E"
    }
   ],
   "return_type" : "_ZTIRN7android8String16E",
   "source_file" : "system/core/libutils/include/utils/String16.h"
  },
  {
   "function_name" : "android::String16::operator+=",
   "linker_set_key" : "_ZN7android8String16pLERKS0_",
   "parameters" :
   [
    {
     "is_this_ptr" : true,
     "referenced_type" : "_ZTIPN7android8String16E"
    },
    {
     "referenced_type" : "_ZTIRKN7android8String16E"
    }
   ],
   "return_type" : "_ZTIRN7android8String16E",
   "source_file" : "system/core/libutils/include/utils/String16.h"
  },
  {
   "function_name" : "android::TypeCode::TypeCode",
   "linker_set_key" : "_ZN7android8TypeCodeC1Ej",
   "parameters" :
   [
    {
     "is_this_ptr" : true,
     "referenced_type" : "_ZTIPN7android8TypeCodeE"
    },
    {
     "referenced_type" : "_ZTIj"
    }
   ],
   "return_type" : "_ZTIv",
   "source_file" : "frameworks/native/libs/binder/include/binder/TextOutput.h"
  },
  {
   "function_name" : "android::TypeCode::TypeCode",
   "linker_set_key" : "_ZN7android8TypeCodeC2Ej",
   "parameters" :
   [
    {
     "is_this_ptr" : true,
     "referenced_type" : "_ZTIPN7android8TypeCodeE"
    },
    {
     "referenced_type" : "_ZTIj"
    }
   ],
   "return_type" : "_ZTIv",
   "source_file" : "frameworks/native/libs/binder/include/binder/TextOutput.h"
  },
  {
   "function_name" : "android::TypeCode::~TypeCode",
   "linker_set_key" : "_ZN7android8TypeCodeD1Ev",
   "parameters" :
   [
    {
     "is_this_ptr" : true,
     "referenced_type" : "_ZTIPN7android8TypeCodeE"
    }
   ],
   "return_type" : "_ZTIv",
   "source_file" : "frameworks/native/libs/binder/include/binder/TextOutput.h"
  },
  {
   "function_name" : "android::TypeCode::~TypeCode",
   "linker_set_key" : "_ZN7android8TypeCodeD2Ev",
   "parameters" :
   [
    {
     "is_this_ptr" : true,
     "referenced_type" : "_ZTIPN7android8TypeCodeE"
    }
   ],
   "return_type" : "_ZTIv",
   "source_file" : "frameworks/native/libs/binder/include/binder/TextOutput.h"
  },
  {
   "function_name" : "android::internal::allowedManualInterface",
   "linker_set_key" : "_ZN7android8internal22allowedManualInterfaceEPKc",
   "parameters" :
   [
    {
     "referenced_type" : "_ZTIPKc"
    }
   ],
   "return_type" : "_ZTIb",
   "source_file" : "frameworks/native/libs/binder/include/binder/IInterface.h"
  },
  {
   "function_name" : "android::internal::equals",
   "linker_set_key" : "_ZN7android8internal6equalsEPKcS2_",
   "parameters" :
   [
    {
     "referenced_type" : "_ZTIPKc"
    },
    {
     "referenced_type" : "_ZTIPKc"
    }
   ],
   "return_type" : "_ZTIb",
   "source_file" : "frameworks/native/libs/binder/include/binder/IInterface.h"
  },
  {
   "function_name" : "android::internal::inList",
   "linker_set_key" : "_ZN7android8internal6inListEPKcPKS2_",
   "parameters" :
   [
    {
     "referenced_type" : "_ZTIPKc"
    },
    {
     "referenced_type" : "_ZTIPKPKc"
    }
   ],
   "return_type" : "_ZTIb",
   "source_file" : "frameworks/native/libs/binder/include/binder/IInterface.h"
  },
  {
   "function_name" : "android::internal::Stability::Category::fromRepr",
   "linker_set_key" : "_ZN7android8internal9Stability8Category8fromReprEi",
   "parameters" :
   [
    {
     "referenced_type" : "_ZTIi"
    }
   ],
   "return_type" : "_ZTIN7android8internal9Stability8CategoryE",
   "source_file" : "frameworks/native/libs/binder/include/binder/Stability.h"
  },
  {
   "function_name" : "android::Condition::waitRelative",
   "linker_set_key" : "_ZN7android9Condition12waitRelativeERNS_5MutexEx",
   "parameters" :
   [
    {
     "is_this_ptr" : true,
     "referenced_type" : "_ZTIPN7android9ConditionE"
    },
    {
     "referenced_type" : "_ZTIRN7android5MutexE"
    },
    {
     "referenced_type" : "_ZTIx"
    }
   ],
   "return_type" : "_ZTIi",
   "source_file" : "system/core/libutils/include/utils/Condition.h"
  },
  {
   "function_name" : "android::Condition::wait",
   "linker_set_key" : "_ZN7android9Condition4waitERNS_5MutexE",
   "parameters" :
   [
    {
     "is_this_ptr" : true,
     "referenced_type" : "_ZTIPN7android9ConditionE"
    },
    {
     "referenced_type" : "_ZTIRN7android5MutexE"
    }
   ],
   "return_type" : "_ZTIi",
   "source_file" : "system/core/libutils/include/utils/Condition.h"
  },
  {
   "function_name" : "android::Condition::signal",
   "linker_set_key" : "_ZN7android9Condition6signalENS0_10WakeUpTypeE",
   "parameters" :
   [
    {
     "is_this_ptr" : true,
     "referenced_type" : "_ZTIPN7android9ConditionE"
    },
    {
     "referenced_type" : "_ZTIN7android9Condition10WakeUpTypeE"
    }
   ],
   "return_type" : "_ZTIv",
   "source_file" : "system/core/libutils/include/utils/Condition.h"
  },
  {
   "function_name" : "android::Condition::signal",
   "linker_set_key" : "_ZN7android9Condition6signalEv",
   "parameters" :
   [
    {
     "is_this_ptr" : true,
     "referenced_type" : "_ZTIPN7android9ConditionE"
    }
   ],
   "return_type" : "_ZTIv",
   "source_file" : "system/core/libutils/include/utils/Condition.h"
  },
  {
   "function_name" : "android::Condition::broadcast",
   "linker_set_key" : "_ZN7android9Condition9broadcastEv",
   "parameters" :
   [
    {
     "is_this_ptr" : true,
     "referenced_type" : "_ZTIPN7android9ConditionE"
    }
   ],
   "return_type" : "_ZTIv",
   "source_file" : "system/core/libutils/include/utils/Condition.h"
  },
  {
   "function_name" : "android::Condition::Condition",
   "linker_set_key" : "_ZN7android9ConditionC1Ei",
   "parameters" :
   [
    {
     "is_this_ptr" : true,
     "referenced_type" : "_ZTIPN7android9ConditionE"
    },
    {
     "referenced_type" : "_ZTIi"
    }
   ],
   "return_type" : "_ZTIv",
   "source_file" : "system/core/libutils/include/utils/Condition.h"
  },
  {
   "function_name" : "android::Condition::Condition",
   "linker_set_key" : "_ZN7android9ConditionC1Ev",
   "parameters" :
   [
    {
     "is_this_ptr" : true,
     "referenced_type" : "_ZTIPN7android9ConditionE"
    }
   ],
   "return_type" : "_ZTIv",
   "source_file" : "system/core/libutils/include/utils/Condition.h"
  },
  {
   "function_name" : "android::Condition::Condition",
   "linker_set_key" : "_ZN7android9ConditionC2Ei",
   "parameters" :
   [
    {
     "is_this_ptr" : true,
     "referenced_type" : "_ZTIPN7android9ConditionE"
    },
    {
     "referenced_type" : "_ZTIi"
    }
   ],
   "return_type" : "_ZTIv",
   "source_file" : "system/core/libutils/include/utils/Condition.h"
  },
  {
   "function_name" : "android::Condition::Condition",
   "linker_set_key" : "_ZN7android9ConditionC2Ev",
   "parameters" :
   [
    {
     "is_this_ptr" : true,
     "referenced_type" : "_ZTIPN7android9ConditionE"
    }
   ],
   "return_type" : "_ZTIv",
   "source_file" : "system/core/libutils/include/utils/Condition.h"
  },
  {
   "function_name" : "android::Condition::~Condition",
   "linker_set_key" : "_ZN7android9ConditionD1Ev",
   "parameters" :
   [
    {
     "is_this_ptr" : true,
     "referenced_type" : "_ZTIPN7android9ConditionE"
    }
   ],
   "return_type" : "_ZTIv",
   "source_file" : "system/core/libutils/include/utils/Condition.h"
  },
  {
   "function_name" : "android::Condition::~Condition",
   "linker_set_key" : "_ZN7android9ConditionD2Ev",
   "parameters" :
   [
    {
     "is_this_ptr" : true,
     "referenced_type" : "_ZTIPN7android9ConditionE"
    }
   ],
   "return_type" : "_ZTIv",
   "source_file" : "system/core/libutils/include/utils/Condition.h"
  },
  {
   "function_name" : "android::hash_type",
   "linker_set_key" : "_ZN7android9hash_typeIaEEjRKT_",
   "parameters" :
   [
    {
     "referenced_type" : "_ZTIRKa"
    }
   ],
   "return_type" : "_ZTIj",
   "source_file" : "system/core/libutils/include/utils/TypeHelpers.h",
   "template_args" : [ "_ZTIa" ]
  },
  {
   "function_name" : "android::hash_type",
   "linker_set_key" : "_ZN7android9hash_typeIbEEjRKT_",
   "parameters" :
   [
    {
     "referenced_type" : "_ZTIRKb"
    }
   ],
   "return_type" : "_ZTIj",
   "source_file" : "system/core/libutils/include/utils/TypeHelpers.h",
   "template_args" : [ "_ZTIb" ]
  },
  {
   "function_name" : "android::hash_type",
   "linker_set_key" : "_ZN7android9hash_typeIdEEjRKT_",
   "parameters" :
   [
    {
     "referenced_type" : "_ZTIRKd"
    }
   ],
   "return_type" : "_ZTIj",
   "source_file" : "system/core/libutils/include/utils/TypeHelpers.h",
   "template_args" : [ "_ZTId" ]
  },
  {
   "function_name" : "android::hash_type",
   "linker_set_key" : "_ZN7android9hash_typeIfEEjRKT_",
   "parameters" :
   [
    {
     "referenced_type" : "_ZTIRKf"
    }
   ],
   "return_type" : "_ZTIj",
   "source_file" : "system/core/libutils/include/utils/TypeHelpers.h",
   "template_args" : [ "_ZTIf" ]
  },
  {
   "function_name" : "android::hash_type",
   "linker_set_key" : "_ZN7android9hash_typeIhEEjRKT_",
   "parameters" :
   [
    {
     "referenced_type" : "_ZTIRKh"
    }
   ],
   "return_type" : "_ZTIj",
   "source_file" : "system/core/libutils/include/utils/TypeHelpers.h",
   "template_args" : [ "_ZTIh" ]
  },
  {
   "function_name" : "android::hash_type",
   "linker_set_key" : "_ZN7android9hash_typeIiEEjRKT_",
   "parameters" :
   [
    {
     "referenced_type" : "_ZTIRKi"
    }
   ],
   "return_type" : "_ZTIj",
   "source_file" : "system/core/libutils/include/utils/TypeHelpers.h",
   "template_args" : [ "_ZTIi" ]
  },
  {
   "function_name" : "android::hash_type",
   "linker_set_key" : "_ZN7android9hash_typeIjEEjRKT_",
   "parameters" :
   [
    {
     "referenced_type" : "_ZTIRKj"
    }
   ],
   "return_type" : "_ZTIj",
   "source_file" : "system/core/libutils/include/utils/TypeHelpers.h",
   "template_args" : [ "_ZTIj" ]
  },
  {
   "function_name" : "android::hash_type",
   "linker_set_key" : "_ZN7android9hash_typeIsEEjRKT_",
   "parameters" :
   [
    {
     "referenced_type" : "_ZTIRKs"
    }
   ],
   "return_type" : "_ZTIj",
   "source_file" : "system/core/libutils/include/utils/TypeHelpers.h",
   "template_args" : [ "_ZTIs" ]
  },
  {
   "function_name" : "android::hash_type",
   "linker_set_key" : "_ZN7android9hash_typeItEEjRKT_",
   "parameters" :
   [
    {
     "referenced_type" : "_ZTIRKt"
    }
   ],
   "return_type" : "_ZTIj",
   "source_file" : "system/core/libutils/include/utils/TypeHelpers.h",
   "template_args" : [ "_ZTIt" ]
  },
  {
   "function_name" : "android::hash_type",
   "linker_set_key" : "_ZN7android9hash_typeIxEEjRKT_",
   "parameters" :
   [
    {
     "referenced_type" : "_ZTIRKx"
    }
   ],
   "return_type" : "_ZTIj",
   "source_file" : "system/core/libutils/include/utils/TypeHelpers.h",
   "template_args" : [ "_ZTIx" ]
  },
  {
   "function_name" : "android::hash_type",
   "linker_set_key" : "_ZN7android9hash_typeIyEEjRKT_",
   "parameters" :
   [
    {
     "referenced_type" : "_ZTIRKy"
    }
   ],
   "return_type" : "_ZTIj",
   "source_file" : "system/core/libutils/include/utils/TypeHelpers.h",
   "template_args" : [ "_ZTIy" ]
  },
  {
   "function_name" : "android::operator<<",
   "linker_set_key" : "_ZN7androidlsERNS_10TextOutputEPFRNSt3__113basic_ostreamIcNS2_11char_traitsIcEEEES7_E",
   "parameters" :
   [
    {
     "referenced_type" : "_ZTIRN7android10TextOutputE"
    },
    {
     "referenced_type" : "_ZTIPFRNSt3__113basic_ostreamIcNS_11char_traitsIcEEEES4_E"
    }
   ],
   "return_type" : "_ZTIRN7android10TextOutputE",
   "source_file" : "frameworks/native/libs/binder/include/binder/TextOutput.h"
  },
  {
   "function_name" : "android::operator<<",
   "linker_set_key" : "_ZN7androidlsERNS_10TextOutputEPFS1_S1_E",
   "parameters" :
   [
    {
     "referenced_type" : "_ZTIRN7android10TextOutputE"
    },
    {
     "referenced_type" : "_ZTIPFRN7android10TextOutputES1_E"
    }
   ],
   "return_type" : "_ZTIRN7android10TextOutputE",
   "source_file" : "frameworks/native/libs/binder/include/binder/TextOutput.h"
  },
  {
   "function_name" : "android::operator<<",
   "linker_set_key" : "_ZN7androidlsERNS_10TextOutputERKNS_6ParcelE",
   "parameters" :
   [
    {
     "referenced_type" : "_ZTIRN7android10TextOutputE"
    },
    {
     "referenced_type" : "_ZTIRKN7android6ParcelE"
    }
   ],
   "return_type" : "_ZTIRN7android10TextOutputE",
   "source_file" : "frameworks/native/libs/binder/include/binder/Parcel.h"
  },
  {
   "function_name" : "android::operator<<",
   "linker_set_key" : "_ZN7androidlsERNS_10TextOutputERKNS_8String16E",
   "parameters" :
   [
    {
     "referenced_type" : "_ZTIRN7android10TextOutputE"
    },
    {
     "referenced_type" : "_ZTIRKN7android8String16E"
    }
   ],
   "return_type" : "_ZTIRN7android10TextOutputE",
   "source_file" : "frameworks/native/libs/binder/include/binder/TextOutput.h"
  },
  {
   "function_name" : "android::operator<<",
   "linker_set_key" : "_ZN7androidlsERNS_10TextOutputERKb",
   "parameters" :
   [
    {
     "referenced_type" : "_ZTIRN7android10TextOutputE"
    },
    {
     "referenced_type" : "_ZTIRKb"
    }
   ],
   "return_type" : "_ZTIRN7android10TextOutputE",
   "source_file" : "frameworks/native/libs/binder/include/binder/TextOutput.h"
  },
  {
   "function_name" : "android::operator<<",
   "linker_set_key" : "_ZN7androidlsERNS_10TextOutputERKc",
   "parameters" :
   [
    {
     "referenced_type" : "_ZTIRN7android10TextOutputE"
    },
    {
     "referenced_type" : "_ZTIRKc"
    }
   ],
   "return_type" : "_ZTIRN7android10TextOutputE",
   "source_file" : "frameworks/native/libs/binder/include/binder/TextOutput.h"
  },
  {
   "function_name" : "android::operator<<",
   "linker_set_key" : "_ZN7androidlsIA2_cEERNS_10TextOutputES3_RKT_",
   "parameters" :
   [
    {
     "referenced_type" : "_ZTIRN7android10TextOutputE"
    },
    {
     "referenced_type" : "_ZTIRA2_Kc"
    }
   ],
   "return_type" : "_ZTIRN7android10TextOutputE",
   "source_file" : "frameworks/native/libs/binder/include/binder/TextOutput.h",
   "template_args" : [ "_ZTIA2_c" ]
  },
  {
   "function_name" : "android::operator<<",
   "linker_set_key" : "_ZN7androidlsIA3_cEERNS_10TextOutputES3_RKT_",
   "parameters" :
   [
    {
     "referenced_type" : "_ZTIRN7android10TextOutputE"
    },
    {
     "referenced_type" : "_ZTIRA3_Kc"
    }
   ],
   "return_type" : "_ZTIRN7android10TextOutputE",
   "source_file" : "frameworks/native/libs/binder/include/binder/TextOutput.h",
   "template_args" : [ "_ZTIA3_c" ]
  },
  {
   "function_name" : "android::operator<<",
   "linker_set_key" : "_ZN7androidlsIA4_cEERNS_10TextOutputES3_RKT_",
   "parameters" :
   [
    {
     "referenced_type" : "_ZTIRN7android10TextOutputE"
    },
    {
     "referenced_type" : "_ZTIRA4_Kc"
    }
   ],
   "return_type" : "_ZTIRN7android10TextOutputE",
   "source_file" : "frameworks/native/libs/binder/include/binder/TextOutput.h",
   "template_args" : [ "_ZTIA4_c" ]
  },
  {
   "function_name" : "android::operator<<",
   "linker_set_key" : "_ZN7androidlsIA5_cEERNS_10TextOutputES3_RKT_",
   "parameters" :
   [
    {
     "referenced_type" : "_ZTIRN7android10TextOutputE"
    },
    {
     "referenced_type" : "_ZTIRA5_Kc"
    }
   ],
   "return_type" : "_ZTIRN7android10TextOutputE",
   "source_file" : "frameworks/native/libs/binder/include/binder/TextOutput.h",
   "template_args" : [ "_ZTIA5_c" ]
  },
  {
   "function_name" : "android::operator<<",
   "linker_set_key" : "_ZN7androidlsIA8_cEERNS_10TextOutputES3_RKT_",
   "parameters" :
   [
    {
     "referenced_type" : "_ZTIRN7android10TextOutputE"
    },
    {
     "referenced_type" : "_ZTIRA8_Kc"
    }
   ],
   "return_type" : "_ZTIRN7android10TextOutputE",
   "source_file" : "frameworks/native/libs/binder/include/binder/TextOutput.h",
   "template_args" : [ "_ZTIA8_c" ]
  },
  {
   "function_name" : "android::operator<<",
   "linker_set_key" : "_ZN7androidlsIA9_cEERNS_10TextOutputES3_RKT_",
   "parameters" :
   [
    {
     "referenced_type" : "_ZTIRN7android10TextOutputE"
    },
    {
     "referenced_type" : "_ZTIRA9_Kc"
    }
   ],
   "return_type" : "_ZTIRN7android10TextOutputE",
   "source_file" : "frameworks/native/libs/binder/include/binder/TextOutput.h",
   "template_args" : [ "_ZTIA9_c" ]
  },
  {
   "function_name" : "android::operator<<",
   "linker_set_key" : "_ZN7androidlsIPKcEERNS_10TextOutputES4_RKT_",
   "parameters" :
   [
    {
     "referenced_type" : "_ZTIRN7android10TextOutputE"
    },
    {
     "referenced_type" : "_ZTIRKPKc"
    }
   ],
   "return_type" : "_ZTIRN7android10TextOutputE",
   "source_file" : "frameworks/native/libs/binder/include/binder/TextOutput.h",
   "template_args" : [ "_ZTIPKc" ]
  },
  {
   "function_name" : "android::operator<<",
   "linker_set_key" : "_ZN7androidlsIPcEERNS_10TextOutputES3_RKT_",
   "parameters" :
   [
    {
     "referenced_type" : "_ZTIRN7android10TextOutputE"
    },
    {
     "referenced_type" : "_ZTIRKPc"
    }
   ],
   "return_type" : "_ZTIRN7android10TextOutputE",
   "source_file" : "frameworks/native/libs/binder/include/binder/TextOutput.h",
   "template_args" : [ "_ZTIPc" ]
  },
  {
   "function_name" : "android::operator<<",
   "linker_set_key" : "_ZN7androidlsIPvEERNS_10TextOutputES3_RKT_",
   "parameters" :
   [
    {
     "referenced_type" : "_ZTIRN7android10TextOutputE"
    },
    {
     "referenced_type" : "_ZTIRKPv"
    }
   ],
   "return_type" : "_ZTIRN7android10TextOutputE",
   "source_file" : "frameworks/native/libs/binder/include/binder/TextOutput.h",
   "template_args" : [ "_ZTIPv" ]
  },
  {
   "function_name" : "android::operator<<",
   "linker_set_key" : "_ZN7androidlsIjEERNS_10TextOutputES2_RKT_",
   "parameters" :
   [
    {
     "referenced_type" : "_ZTIRN7android10TextOutputE"
    },
    {
     "referenced_type" : "_ZTIRKj"
    }
   ],
   "return_type" : "_ZTIRN7android10TextOutputE",
   "source_file" : "frameworks/native/libs/binder/include/binder/TextOutput.h",
   "template_args" : [ "_ZTIj" ]
  },
  {
   "function_name" : "android::operator<<",
   "linker_set_key" : "_ZN7androidlsIyEERNS_10TextOutputES2_RKT_",
   "parameters" :
   [
    {
     "referenced_type" : "_ZTIRN7android10TextOutputE"
    },
    {
     "referenced_type" : "_ZTIRKy"
    }
   ],
   "return_type" : "_ZTIRN7android10TextOutputE",
   "source_file" : "frameworks/native/libs/binder/include/binder/TextOutput.h",
   "template_args" : [ "_ZTIy" ]
  },
  {
   "function_name" : "log_msg::id",
   "linker_set_key" : "_ZN7log_msg2idEv",
   "parameters" :
   [
    {
     "is_this_ptr" : true,
     "referenced_type" : "_ZTIP7log_msg"
    }
   ],
   "return_type" : "_ZTI6log_id",
   "source_file" : "system/logging/liblog/include_vndk/log/log_read.h"
  },
  {
   "function_name" : "log_msg::len",
   "linker_set_key" : "_ZN7log_msg3lenEv",
   "parameters" :
   [
    {
     "is_this_ptr" : true,
     "referenced_type" : "_ZTIP7log_msg"
    }
   ],
   "return_type" : "_ZTIj",
   "source_file" : "system/logging/liblog/include_vndk/log/log_read.h"
  },
  {
   "function_name" : "log_msg::msg",
   "linker_set_key" : "_ZN7log_msg3msgEv",
   "parameters" :
   [
    {
     "is_this_ptr" : true,
     "referenced_type" : "_ZTIP7log_msg"
    }
   ],
   "return_type" : "_ZTIPc",
   "source_file" : "system/logging/liblog/include_vndk/log/log_read.h"
  },
  {
   "function_name" : "android::Parcelable::getStability",
   "linker_set_key" : "_ZNK7android10Parcelable12getStabilityEv",
   "parameters" :
   [
    {
     "is_this_ptr" : true,
     "referenced_type" : "_ZTIPKN7android10ParcelableE"
    }
   ],
   "return_type" : "_ZTIN7android10Parcelable9StabilityE",
   "source_file" : "frameworks/native/libs/binder/include/binder/Parcelable.h"
  },
  {
   "function_name" : "android::RpcSession::getPrivateAccessorForId",
   "linker_set_key" : "_ZNK7android10RpcSession23getPrivateAccessorForIdEv",
   "parameters" :
   [
    {
     "is_this_ptr" : true,
     "referenced_type" : "_ZTIPKN7android10RpcSessionE"
    }
   ],
   "return_type" : "_ZTIN7android10RpcSession20PrivateAccessorForIdE",
   "source_file" : "frameworks/native/libs/binder/include/binder/RpcSession.h"
  },
  {
   "function_name" : "android::VectorImpl::size",
   "linker_set_key" : "_ZNK7android10VectorImpl4sizeEv",
   "parameters" :
   [
    {
     "is_this_ptr" : true,
     "referenced_type" : "_ZTIPKN7android10VectorImplE"
    }
   ],
   "return_type" : "_ZTIj",
   "source_file" : "system/core/libutils/include/utils/VectorImpl.h"
  },
  {
   "function_name" : "android::VectorImpl::isEmpty",
   "linker_set_key" : "_ZNK7android10VectorImpl7isEmptyEv",
   "parameters" :
   [
    {
     "is_this_ptr" : true,
     "referenced_type" : "_ZTIPKN7android10VectorImplE"
    }
   ],
   "return_type" : "_ZTIb",
   "source_file" : "system/core/libutils/include/utils/VectorImpl.h"
  },
  {
   "function_name" : "android::VectorImpl::arrayImpl",
   "linker_set_key" : "_ZNK7android10VectorImpl9arrayImplEv",
   "parameters" :
   [
    {
     "is_this_ptr" : true,
     "referenced_type" : "_ZTIPKN7android10VectorImplE"
    }
   ],
   "return_type" : "_ZTIPKv",
   "source_file" : "system/core/libutils/include/utils/VectorImpl.h"
  },
  {
   "function_name" : "android::sp<android::RpcSession::RpcConnection>::operator->",
   "linker_set_key" : "_ZNK7android2spINS_10RpcSession13RpcConnectionEEptEv",
   "parameters" :
   [
    {
     "is_this_ptr" : true,
     "referenced_type" : "_ZTIPKN7android2spINS_10RpcSession13RpcConnectionEEE"
    }
   ],
   "return_type" : "_ZTIPN7android10RpcSession13RpcConnectionE",
   "source_file" : "system/core/libutils/include/utils/StrongPointer.h"
  },
  {
   "function_name" : "android::sp<android::RpcSession>::get",
   "linker_set_key" : "_ZNK7android2spINS_10RpcSessionEE3getEv",
   "parameters" :
   [
    {
     "is_this_ptr" : true,
     "referenced_type" : "_ZTIPKN7android2spINS_10RpcSessionEEE"
    }
   ],
   "return_type" : "_ZTIPN7android10RpcSessionE",
   "source_file" : "system/core/libutils/include/utils/StrongPointer.h"
  },
  {
   "function_name" : "android::sp<android::RpcSession>::operator->",
   "linker_set_key" : "_ZNK7android2spINS_10RpcSessionEEptEv",
   "parameters" :
   [
    {
     "is_this_ptr" : true,
     "referenced_type" : "_ZTIPKN7android2spINS_10RpcSessionEEE"
    }
   ],
   "return_type" : "_ZTIPN7android10RpcSessionE",
   "source_file" : "system/core/libutils/include/utils/StrongPointer.h"
  },
  {
   "function_name" : "android::sp<android::ProcessState>::operator->",
   "linker_set_key" : "_ZNK7android2spINS_12ProcessStateEEptEv",
   "parameters" :
   [
    {
     "is_this_ptr" : true,
     "referenced_type" : "_ZTIPKN7android2spINS_12ProcessStateEEE"
    }
   ],
   "return_type" : "_ZTIPN7android12ProcessStateE",
   "source_file" : "system/core/libutils/include/utils/StrongPointer.h"
  },
  {
   "function_name" : "android::sp<android::IBinder>::get",
   "linker_set_key" : "_ZNK7android2spINS_7IBinderEE3getEv",
   "parameters" :
   [
    {
     "is_this_ptr" : true,
     "referenced_type" : "_ZTIPKN7android2spINS_7IBinderEEE"
    }
   ],
   "return_type" : "_ZTIPN7android7IBinderE",
   "source_file" : "system/core/libutils/include/utils/StrongPointer.h"
  },
  {
   "function_name" : "android::sp<android::IBinder>::operator bool",
   "linker_set_key" : "_ZNK7android2spINS_7IBinderEEcvbEv",
   "parameters" :
   [
    {
     "is_this_ptr" : true,
     "referenced_type" : "_ZTIPKN7android2spINS_7IBinderEEE"
    }
   ],
   "return_type" : "_ZTIb",
   "source_file" : "system/core/libutils/include/utils/StrongPointer.h"
  },
  {
   "function_name" : "android::sp<android::IBinder>::operator->",
   "linker_set_key" : "_ZNK7android2spINS_7IBinderEEptEv",
   "parameters" :
   [
    {
     "is_this_ptr" : true,
     "referenced_type" : "_ZTIPKN7android2spINS_7IBinderEEE"
    }
   ],
   "return_type" : "_ZTIPN7android7IBinderE",
   "source_file" : "system/core/libutils/include/utils/StrongPointer.h"
  },
  {
   "function_name" : "android::base::borrowed_fd::get",
   "linker_set_key" : "_ZNK7android4base11borrowed_fd3getEv",
   "parameters" :
   [
    {
     "is_this_ptr" : true,
     "referenced_type" : "_ZTIPKN7android4base11borrowed_fdE"
    }
   ],
   "return_type" : "_ZTIi",
   "source_file" : "system/libbase/include/android-base/unique_fd.h"
  },
  {
   "function_name" : "android::base::borrowed_fd::operator==",
   "linker_set_key" : "_ZNK7android4base11borrowed_fdeqEi",
   "parameters" :
   [
    {
     "is_this_ptr" : true,
     "referenced_type" : "_ZTIPKN7android4base11borrowed_fdE"
    },
    {
     "referenced_type" : "_ZTIi"
    }
   ],
   "return_type" : "_ZTIb",
   "source_file" : "system/libbase/include/android-base/unique_fd.h"
  },
  {
   "function_name" : "android::base::borrowed_fd::operator>=",
   "linker_set_key" : "_ZNK7android4base11borrowed_fdgeEi",
   "parameters" :
   [
    {
     "is_this_ptr" : true,
     "referenced_type" : "_ZTIPKN7android4base11borrowed_fdE"
    },
    {
     "referenced_type" : "_ZTIi"
    }
   ],
   "return_type" : "_ZTIb",
   "source_file" : "system/libbase/include/android-base/unique_fd.h"
  },
  {
   "function_name" : "android::base::borrowed_fd::operator<",
   "linker_set_key" : "_ZNK7android4base11borrowed_fdltEi",
   "parameters" :
   [
    {
     "is_this_ptr" : true,
     "referenced_type" : "_ZTIPKN7android4base11borrowed_fdE"
    },
    {
     "referenced_type" : "_ZTIi"
    }
   ],
   "return_type" : "_ZTIb",
   "source_file" : "system/libbase/include/android-base/unique_fd.h"
  },
  {
   "function_name" : "android::base::borrowed_fd::operator!=",
   "linker_set_key" : "_ZNK7android4base11borrowed_fdneEi",
   "parameters" :
   [
    {
     "is_this_ptr" : true,
     "referenced_type" : "_ZTIPKN7android4base11borrowed_fdE"
    },
    {
     "referenced_type" : "_ZTIi"
    }
   ],
   "return_type" : "_ZTIb",
   "source_file" : "system/libbase/include/android-base/unique_fd.h"
  },
  {
   "function_name" : "android::base::unique_fd_impl<android::base::DefaultCloser>::get",
   "linker_set_key" : "_ZNK7android4base14unique_fd_implINS0_13DefaultCloserEE3getEv",
   "parameters" :
   [
    {
     "is_this_ptr" : true,
     "referenced_type" : "_ZTIPKN7android4base14unique_fd_implINS0_13DefaultCloserEEE"
    }
   ],
   "return_type" : "_ZTIi",
   "source_file" : "system/libbase/include/android-base/unique_fd.h"
  },
  {
   "function_name" : "android::Parcel::errorCheck",
   "linker_set_key" : "_ZNK7android6Parcel10errorCheckEv",
   "parameters" :
   [
    {
     "is_this_ptr" : true,
     "referenced_type" : "_ZTIPKN7android6ParcelE"
    }
   ],
   "return_type" : "_ZTIi",
   "source_file" : "frameworks/native/libs/binder/include/binder/Parcel.h"
  },
  {
   "access" : "private",
   "function_name" : "android::Parcel::ipcObjects",
   "linker_set_key" : "_ZNK7android6Parcel10ipcObjectsEv",
   "parameters" :
   [
    {
     "is_this_ptr" : true,
     "referenced_type" : "_ZTIPKN7android6ParcelE"
    }
   ],
   "return_type" : "_ZTIj",
   "source_file" : "frameworks/native/libs/binder/include/binder/Parcel.h"
  },
  {
   "function_name" : "android::Parcel::readDouble",
   "linker_set_key" : "_ZNK7android6Parcel10readDoubleEPd",
   "parameters" :
   [
    {
     "is_this_ptr" : true,
     "referenced_type" : "_ZTIPKN7android6ParcelE"
    },
    {
     "referenced_type" : "_ZTIPd"
    }
   ],
   "return_type" : "_ZTIi",
   "source_file" : "frameworks/native/libs/binder/include/binder/Parcel.h"
  },
  {
   "function_name" : "android::Parcel::readDouble",
   "linker_set_key" : "_ZNK7android6Parcel10readDoubleEv",
   "parameters" :
   [
    {
     "is_this_ptr" : true,
     "referenced_type" : "_ZTIPKN7android6ParcelE"
    }
   ],
   "return_type" : "_ZTId",
   "source_file" : "frameworks/native/libs/binder/include/binder/Parcel.h"
  },
  {
   "function_name" : "android::Parcel::readObject",
   "linker_set_key" : "_ZNK7android6Parcel10readObjectEb",
   "parameters" :
   [
    {
     "is_this_ptr" : true,
     "referenced_type" : "_ZTIPKN7android6ParcelE"
    },
    {
     "referenced_type" : "_ZTIb"
    }
   ],
   "return_type" : "_ZTIPK18flat_binder_object",
   "source_file" : "frameworks/native/libs/binder/include/binder/Parcel.h"
  },
  {
   "function_name" : "android::Parcel::readUint32",
   "linker_set_key" : "_ZNK7android6Parcel10readUint32EPj",
   "parameters" :
   [
    {
     "is_this_ptr" : true,
     "referenced_type" : "_ZTIPKN7android6ParcelE"
    },
    {
     "referenced_type" : "_ZTIPj"
    }
   ],
   "return_type" : "_ZTIi",
   "source_file" : "frameworks/native/libs/binder/include/binder/Parcel.h"
  },
  {
   "function_name" : "android::Parcel::readUint32",
   "linker_set_key" : "_ZNK7android6Parcel10readUint32Ev",
   "parameters" :
   [
    {
     "is_this_ptr" : true,
     "referenced_type" : "_ZTIPKN7android6ParcelE"
    }
   ],
   "return_type" : "_ZTIj",
   "source_file" : "frameworks/native/libs/binder/include/binder/Parcel.h"
  },
  {
   "function_name" : "android::Parcel::readUint64",
   "linker_set_key" : "_ZNK7android6Parcel10readUint64EPy",
   "parameters" :
   [
    {
     "is_this_ptr" : true,
     "referenced_type" : "_ZTIPKN7android6ParcelE"
    },
    {
     "referenced_type" : "_ZTIPy"
    }
   ],
   "return_type" : "_ZTIi",
   "source_file" : "frameworks/native/libs/binder/include/binder/Parcel.h"
  },
  {
   "function_name" : "android::Parcel::readUint64",
   "linker_set_key" : "_ZNK7android6Parcel10readUint64Ev",
   "parameters" :
   [
    {
     "is_this_ptr" : true,
     "referenced_type" : "_ZTIPKN7android6ParcelE"
    }
   ],
   "return_type" : "_ZTIy",
   "source_file" : "frameworks/native/libs/binder/include/binder/Parcel.h"
  },
  {
   "access" : "private",
   "function_name" : "android::Parcel::scanForFds",
   "linker_set_key" : "_ZNK7android6Parcel10scanForFdsEv",
   "parameters" :
   [
    {
     "is_this_ptr" : true,
     "referenced_type" : "_ZTIPKN7android6ParcelE"
    }
   ],
   "return_type" : "_ZTIv",
   "source_file" : "frameworks/native/libs/binder/include/binder/Parcel.h"
  },
  {
   "access" : "private",
   "function_name" : "android::Parcel::ipcDataSize",
   "linker_set_key" : "_ZNK7android6Parcel11ipcDataSizeEv",
   "parameters" :
   [
    {
     "is_this_ptr" : true,
     "referenced_type" : "_ZTIPKN7android6ParcelE"
    }
   ],
   "return_type" : "_ZTIj",
   "source_file" : "frameworks/native/libs/binder/include/binder/Parcel.h"
  },
  {
   "function_name" : "android::Parcel::readCString",
   "linker_set_key" : "_ZNK7android6Parcel11readCStringEv",
   "parameters" :
   [
    {
     "is_this_ptr" : true,
     "referenced_type" : "_ZTIPKN7android6ParcelE"
    }
   ],
   "return_type" : "_ZTIPKc",
   "source_file" : "frameworks/native/libs/binder/include/binder/Parcel.h"
  },
  {
   "function_name" : "android::Parcel::readInplace",
   "linker_set_key" : "_ZNK7android6Parcel11readInplaceEj",
   "parameters" :
   [
    {
     "is_this_ptr" : true,
     "referenced_type" : "_ZTIPKN7android6ParcelE"
    },
    {
     "referenced_type" : "_ZTIj"
    }
   ],
   "return_type" : "_ZTIPKv",
   "source_file" : "frameworks/native/libs/binder/include/binder/Parcel.h"
  },
  {
   "access" : "private",
   "function_name" : "android::Parcel::readPointer",
   "linker_set_key" : "_ZNK7android6Parcel11readPointerEPj",
   "parameters" :
   [
    {
     "is_this_ptr" : true,
     "referenced_type" : "_ZTIPKN7android6ParcelE"
    },
    {
     "referenced_type" : "_ZTIPj"
    }
   ],
   "return_type" : "_ZTIi",
   "source_file" : "frameworks/native/libs/binder/include/binder/Parcel.h"
  },
  {
   "access" : "private",
   "function_name" : "android::Parcel::readPointer",
   "linker_set_key" : "_ZNK7android6Parcel11readPointerEv",
   "parameters" :
   [
    {
     "is_this_ptr" : true,
     "referenced_type" : "_ZTIPKN7android6ParcelE"
    }
   ],
   "return_type" : "_ZTIj",
   "source_file" : "frameworks/native/libs/binder/include/binder/Parcel.h"
  },
  {
   "function_name" : "android::Parcel::readString8",
   "linker_set_key" : "_ZNK7android6Parcel11readString8EPNS_7String8E",
   "parameters" :
   [
    {
     "is_this_ptr" : true,
     "referenced_type" : "_ZTIPKN7android6ParcelE"
    },
    {
     "referenced_type" : "_ZTIPN7android7String8E"
    }
   ],
   "return_type" : "_ZTIi",
   "source_file" : "frameworks/native/libs/binder/include/binder/Parcel.h"
  },
  {
   "function_name" : "android::Parcel::readString8",
   "linker_set_key" : "_ZNK7android6Parcel11readString8Ev",
   "parameters" :
   [
    {
     "is_this_ptr" : true,
     "referenced_type" : "_ZTIPKN7android6ParcelE"
    }
   ],
   "return_type" : "_ZTIN7android7String8E",
   "source_file" : "frameworks/native/libs/binder/include/binder/Parcel.h"
  },
  {
   "function_name" : "android::Parcel::ReadableBlob::data",
   "linker_set_key" : "_ZNK7android6Parcel12ReadableBlob4dataEv",
   "parameters" :
   [
    {
     "is_this_ptr" : true,
     "referenced_type" : "_ZTIPKN7android6Parcel12ReadableBlobE"
    }
   ],
   "return_type" : "_ZTIPKv",
   "source_file" : "frameworks/native/libs/binder/include/binder/Parcel.h"
  },
  {
   "function_name" : "android::Parcel::dataCapacity",
   "linker_set_key" : "_ZNK7android6Parcel12dataCapacityEv",
   "parameters" :
   [
    {
     "is_this_ptr" : true,
     "referenced_type" : "_ZTIPKN7android6ParcelE"
    }
   ],
   "return_type" : "_ZTIj",
   "source_file" : "frameworks/native/libs/binder/include/binder/Parcel.h"
  },
  {
   "function_name" : "android::Parcel::dataPosition",
   "linker_set_key" : "_ZNK7android6Parcel12dataPositionEv",
   "parameters" :
   [
    {
     "is_this_ptr" : true,
     "referenced_type" : "_ZTIPKN7android6ParcelE"
    }
   ],
   "return_type" : "_ZTIj",
   "source_file" : "frameworks/native/libs/binder/include/binder/Parcel.h"
  },
  {
   "function_name" : "android::Parcel::objectsCount",
   "linker_set_key" : "_ZNK7android6Parcel12objectsCountEv",
   "parameters" :
   [
    {
     "is_this_ptr" : true,
     "referenced_type" : "_ZTIPKN7android6ParcelE"
    }
   ],
   "return_type" : "_ZTIj",
   "source_file" : "frameworks/native/libs/binder/include/binder/Parcel.h"
  },
  {
   "function_name" : "android::Parcel::readString16",
   "linker_set_key" : "_ZNK7android6Parcel12readString16EPNS_8String16E",
   "parameters" :
   [
    {
     "is_this_ptr" : true,
     "referenced_type" : "_ZTIPKN7android6ParcelE"
    },
    {
     "referenced_type" : "_ZTIPN7android8String16E"
    }
   ],
   "return_type" : "_ZTIi",
   "source_file" : "frameworks/native/libs/binder/include/binder/Parcel.h"
  },
  {
   "function_name" : "android::Parcel::readString16",
   "linker_set_key" : "_ZNK7android6Parcel12readString16EPNSt3__110unique_ptrINS_8String16ENS1_14default_deleteIS3_EEEE",
   "parameters" :
   [
    {
     "is_this_ptr" : true,
     "referenced_type" : "_ZTIPKN7android6ParcelE"
    },
    {
     "referenced_type" : "_ZTIPNSt3__110unique_ptrIN7android8String16ENS_14default_deleteIS2_EEEE"
    }
   ],
   "return_type" : "_ZTIi",
   "source_file" : "frameworks/native/libs/binder/include/binder/Parcel.h"
  },
  {
   "function_name" : "android::Parcel::readString16",
   "linker_set_key" : "_ZNK7android6Parcel12readString16EPNSt3__18optionalINS_8String16EEE",
   "parameters" :
   [
    {
     "is_this_ptr" : true,
     "referenced_type" : "_ZTIPKN7android6ParcelE"
    },
    {
     "referenced_type" : "_ZTIPNSt3__18optionalIN7android8String16EEE"
    }
   ],
   "return_type" : "_ZTIi",
   "source_file" : "frameworks/native/libs/binder/include/binder/Parcel.h"
  },
  {
   "function_name" : "android::Parcel::readString16",
   "linker_set_key" : "_ZNK7android6Parcel12readString16Ev",
   "parameters" :
   [
    {
     "is_this_ptr" : true,
     "referenced_type" : "_ZTIPKN7android6ParcelE"
    }
   ],
   "return_type" : "_ZTIN7android8String16E",
   "source_file" : "frameworks/native/libs/binder/include/binder/Parcel.h"
  },
  {
   "function_name" : "android::Parcel::markSensitive",
   "linker_set_key" : "_ZNK7android6Parcel13markSensitiveEv",
   "parameters" :
   [
    {
     "is_this_ptr" : true,
     "referenced_type" : "_ZTIPKN7android6ParcelE"
    }
   ],
   "return_type" : "_ZTIv",
   "source_file" : "frameworks/native/libs/binder/include/binder/Parcel.h"
  },
  {
   "function_name" : "android::Parcel::checkInterface",
   "linker_set_key" : "_ZNK7android6Parcel14checkInterfaceEPNS_7IBinderE",
   "parameters" :
   [
    {
     "is_this_ptr" : true,
     "referenced_type" : "_ZTIPKN7android6ParcelE"
    },
    {
     "referenced_type" : "_ZTIPN7android7IBinderE"
    }
   ],
   "return_type" : "_ZTIb",
   "source_file" : "frameworks/native/libs/binder/include/binder/Parcel.h"
  },
  {
   "function_name" : "android::Parcel::readBoolVector",
   "linker_set_key" : "_ZNK7android6Parcel14readBoolVectorEPNSt3__110unique_ptrINS1_6vectorIbNS1_9allocatorIbEEEENS1_14default_deleteIS6_EEEE",
   "parameters" :
   [
    {
     "is_this_ptr" : true,
     "referenced_type" : "_ZTIPKN7android6ParcelE"
    },
    {
     "referenced_type" : "_ZTIPNSt3__110unique_ptrINS_6vectorIbNS_9allocatorIbEEEENS_14default_deleteIS4_EEEE"
    }
   ],
   "return_type" : "_ZTIi",
   "source_file" : "frameworks/native/libs/binder/include/binder/Parcel.h"
  },
  {
   "function_name" : "android::Parcel::readBoolVector",
   "linker_set_key" : "_ZNK7android6Parcel14readBoolVectorEPNSt3__16vectorIbNS1_9allocatorIbEEEE",
   "parameters" :
   [
    {
     "is_this_ptr" : true,
     "referenced_type" : "_ZTIPKN7android6ParcelE"
    },
    {
     "referenced_type" : "_ZTIPNSt3__16vectorIbNS_9allocatorIbEEEE"
    }
   ],
   "return_type" : "_ZTIi",
   "source_file" : "frameworks/native/libs/binder/include/binder/Parcel.h"
  },
  {
   "function_name" : "android::Parcel::readBoolVector",
   "linker_set_key" : "_ZNK7android6Parcel14readBoolVectorEPNSt3__18optionalINS1_6vectorIbNS1_9allocatorIbEEEEEE",
   "parameters" :
   [
    {
     "is_this_ptr" : true,
     "referenced_type" : "_ZTIPKN7android6ParcelE"
    },
    {
     "referenced_type" : "_ZTIPNSt3__18optionalINS_6vectorIbNS_9allocatorIbEEEEEE"
    }
   ],
   "return_type" : "_ZTIi",
   "source_file" : "frameworks/native/libs/binder/include/binder/Parcel.h"
  },
  {
   "function_name" : "android::Parcel::readByteVector",
   "linker_set_key" : "_ZNK7android6Parcel14readByteVectorEPNSt3__110unique_ptrINS1_6vectorIaNS1_9allocatorIaEEEENS1_14default_deleteIS6_EEEE",
   "parameters" :
   [
    {
     "is_this_ptr" : true,
     "referenced_type" : "_ZTIPKN7android6ParcelE"
    },
    {
     "referenced_type" : "_ZTIPNSt3__110unique_ptrINS_6vectorIaNS_9allocatorIaEEEENS_14default_deleteIS4_EEEE"
    }
   ],
   "return_type" : "_ZTIi",
   "source_file" : "frameworks/native/libs/binder/include/binder/Parcel.h"
  },
  {
   "function_name" : "android::Parcel::readByteVector",
   "linker_set_key" : "_ZNK7android6Parcel14readByteVectorEPNSt3__110unique_ptrINS1_6vectorIhNS1_9allocatorIhEEEENS1_14default_deleteIS6_EEEE",
   "parameters" :
   [
    {
     "is_this_ptr" : true,
     "referenced_type" : "_ZTIPKN7android6ParcelE"
    },
    {
     "referenced_type" : "_ZTIPNSt3__110unique_ptrINS_6vectorIhNS_9allocatorIhEEEENS_14default_deleteIS4_EEEE"
    }
   ],
   "return_type" : "_ZTIi",
   "source_file" : "frameworks/native/libs/binder/include/binder/Parcel.h"
  },
  {
   "function_name" : "android::Parcel::readByteVector",
   "linker_set_key" : "_ZNK7android6Parcel14readByteVectorEPNSt3__16vectorIaNS1_9allocatorIaEEEE",
   "parameters" :
   [
    {
     "is_this_ptr" : true,
     "referenced_type" : "_ZTIPKN7android6ParcelE"
    },
    {
     "referenced_type" : "_ZTIPNSt3__16vectorIaNS_9allocatorIaEEEE"
    }
   ],
   "return_type" : "_ZTIi",
   "source_file" : "frameworks/native/libs/binder/include/binder/Parcel.h"
  },
  {
   "function_name" : "android::Parcel::readByteVector",
   "linker_set_key" : "_ZNK7android6Parcel14readByteVectorEPNSt3__16vectorIhNS1_9allocatorIhEEEE",
   "parameters" :
   [
    {
     "is_this_ptr" : true,
     "referenced_type" : "_ZTIPKN7android6ParcelE"
    },
    {
     "referenced_type" : "_ZTIPNSt3__16vectorIhNS_9allocatorIhEEEE"
    }
   ],
   "return_type" : "_ZTIi",
   "source_file" : "frameworks/native/libs/binder/include/binder/Parcel.h"
  },
  {
   "function_name" : "android::Parcel::readByteVector",
   "linker_set_key" : "_ZNK7android6Parcel14readByteVectorEPNSt3__18optionalINS1_6vectorIaNS1_9allocatorIaEEEEEE",
   "parameters" :
   [
    {
     "is_this_ptr" : true,
     "referenced_type" : "_ZTIPKN7android6ParcelE"
    },
    {
     "referenced_type" : "_ZTIPNSt3__18optionalINS_6vectorIaNS_9allocatorIaEEEEEE"
    }
   ],
   "return_type" : "_ZTIi",
   "source_file" : "frameworks/native/libs/binder/include/binder/Parcel.h"
  },
  {
   "function_name" : "android::Parcel::readByteVector",
   "linker_set_key" : "_ZNK7android6Parcel14readByteVectorEPNSt3__18optionalINS1_6vectorIhNS1_9allocatorIhEEEEEE",
   "parameters" :
   [
    {
     "is_this_ptr" : true,
     "referenced_type" : "_ZTIPKN7android6ParcelE"
    },
    {
     "referenced_type" : "_ZTIPNSt3__18optionalINS_6vectorIhNS_9allocatorIhEEEEEE"
    }
   ],
   "return_type" : "_ZTIi",
   "source_file" : "frameworks/native/libs/binder/include/binder/Parcel.h"
  },
  {
   "function_name" : "android::Parcel::readCharVector",
   "linker_set_key" : "_ZNK7android6Parcel14readCharVectorEPNSt3__110unique_ptrINS1_6vectorIDsNS1_9allocatorIDsEEEENS1_14default_deleteIS6_EEEE",
   "parameters" :
   [
    {
     "is_this_ptr" : true,
     "referenced_type" : "_ZTIPKN7android6ParcelE"
    },
    {
     "referenced_type" : "_ZTIPNSt3__110unique_ptrINS_6vectorIDsNS_9allocatorIDsEEEENS_14default_deleteIS4_EEEE"
    }
   ],
   "return_type" : "_ZTIi",
   "source_file" : "frameworks/native/libs/binder/include/binder/Parcel.h"
  },
  {
   "function_name" : "android::Parcel::readCharVector",
   "linker_set_key" : "_ZNK7android6Parcel14readCharVectorEPNSt3__16vectorIDsNS1_9allocatorIDsEEEE",
   "parameters" :
   [
    {
     "is_this_ptr" : true,
     "referenced_type" : "_ZTIPKN7android6ParcelE"
    },
    {
     "referenced_type" : "_ZTIPNSt3__16vectorIDsNS_9allocatorIDsEEEE"
    }
   ],
   "return_type" : "_ZTIi",
   "source_file" : "frameworks/native/libs/binder/include/binder/Parcel.h"
  },
  {
   "function_name" : "android::Parcel::readCharVector",
   "linker_set_key" : "_ZNK7android6Parcel14readCharVectorEPNSt3__18optionalINS1_6vectorIDsNS1_9allocatorIDsEEEEEE",
   "parameters" :
   [
    {
     "is_this_ptr" : true,
     "referenced_type" : "_ZTIPKN7android6ParcelE"
    },
    {
     "referenced_type" : "_ZTIPNSt3__18optionalINS_6vectorIDsNS_9allocatorIDsEEEEEE"
    }
   ],
   "return_type" : "_ZTIi",
   "source_file" : "frameworks/native/libs/binder/include/binder/Parcel.h"
  },
  {
   "function_name" : "android::Parcel::readParcelable",
   "linker_set_key" : "_ZNK7android6Parcel14readParcelableEPNS_10ParcelableE",
   "parameters" :
   [
    {
     "is_this_ptr" : true,
     "referenced_type" : "_ZTIPKN7android6ParcelE"
    },
    {
     "referenced_type" : "_ZTIPN7android10ParcelableE"
    }
   ],
   "return_type" : "_ZTIi",
   "source_file" : "frameworks/native/libs/binder/include/binder/Parcel.h"
  },
  {
   "access" : "private",
   "function_name" : "android::Parcel::ipcObjectsCount",
   "linker_set_key" : "_ZNK7android6Parcel15ipcObjectsCountEv",
   "parameters" :
   [
    {
     "is_this_ptr" : true,
     "referenced_type" : "_ZTIPKN7android6ParcelE"
    }
   ],
   "return_type" : "_ZTIj",
   "source_file" : "frameworks/native/libs/binder/include/binder/Parcel.h"
  },
  {
   "function_name" : "android::Parcel::readFloatVector",
   "linker_set_key" : "_ZNK7android6Parcel15readFloatVectorEPNSt3__110unique_ptrINS1_6vectorIfNS1_9allocatorIfEEEENS1_14default_deleteIS6_EEEE",
   "parameters" :
   [
    {
     "is_this_ptr" : true,
     "referenced_type" : "_ZTIPKN7android6ParcelE"
    },
    {
     "referenced_type" : "_ZTIPNSt3__110unique_ptrINS_6vectorIfNS_9allocatorIfEEEENS_14default_deleteIS4_EEEE"
    }
   ],
   "return_type" : "_ZTIi",
   "source_file" : "frameworks/native/libs/binder/include/binder/Parcel.h"
  },
  {
   "function_name" : "android::Parcel::readFloatVector",
   "linker_set_key" : "_ZNK7android6Parcel15readFloatVectorEPNSt3__16vectorIfNS1_9allocatorIfEEEE",
   "parameters" :
   [
    {
     "is_this_ptr" : true,
     "referenced_type" : "_ZTIPKN7android6ParcelE"
    },
    {
     "referenced_type" : "_ZTIPNSt3__16vectorIfNS_9allocatorIfEEEE"
    }
   ],
   "return_type" : "_ZTIi",
   "source_file" : "frameworks/native/libs/binder/include/binder/Parcel.h"
  },
  {
   "function_name" : "android::Parcel::readFloatVector",
   "linker_set_key" : "_ZNK7android6Parcel15readFloatVectorEPNSt3__18optionalINS1_6vectorIfNS1_9allocatorIfEEEEEE",
   "parameters" :
   [
    {
     "is_this_ptr" : true,
     "referenced_type" : "_ZTIPKN7android6ParcelE"
    },
    {
     "referenced_type" : "_ZTIPNSt3__18optionalINS_6vectorIfNS_9allocatorIfEEEEEE"
    }
   ],
   "return_type" : "_ZTIi",
   "source_file" : "frameworks/native/libs/binder/include/binder/Parcel.h"
  },
  {
   "function_name" : "android::Parcel::readInt32Vector",
   "linker_set_key" : "_ZNK7android6Parcel15readInt32VectorEPNSt3__110unique_ptrINS1_6vectorIiNS1_9allocatorIiEEEENS1_14default_deleteIS6_EEEE",
   "parameters" :
   [
    {
     "is_this_ptr" : true,
     "referenced_type" : "_ZTIPKN7android6ParcelE"
    },
    {
     "referenced_type" : "_ZTIPNSt3__110unique_ptrINS_6vectorIiNS_9allocatorIiEEEENS_14default_deleteIS4_EEEE"
    }
   ],
   "return_type" : "_ZTIi",
   "source_file" : "frameworks/native/libs/binder/include/binder/Parcel.h"
  },
  {
   "function_name" : "android::Parcel::readInt32Vector",
   "linker_set_key" : "_ZNK7android6Parcel15readInt32VectorEPNSt3__16vectorIiNS1_9allocatorIiEEEE",
   "parameters" :
   [
    {
     "is_this_ptr" : true,
     "referenced_type" : "_ZTIPKN7android6ParcelE"
    },
    {
     "referenced_type" : "_ZTIPNSt3__16vectorIiNS_9allocatorIiEEEE"
    }
   ],
   "return_type" : "_ZTIi",
   "source_file" : "frameworks/native/libs/binder/include/binder/Parcel.h"
  },
  {
   "function_name" : "android::Parcel::readInt32Vector",
   "linker_set_key" : "_ZNK7android6Parcel15readInt32VectorEPNSt3__18optionalINS1_6vectorIiNS1_9allocatorIiEEEEEE",
   "parameters" :
   [
    {
     "is_this_ptr" : true,
     "referenced_type" : "_ZTIPKN7android6ParcelE"
    },
    {
     "referenced_type" : "_ZTIPNSt3__18optionalINS_6vectorIiNS_9allocatorIiEEEEEE"
    }
   ],
   "return_type" : "_ZTIi",
   "source_file" : "frameworks/native/libs/binder/include/binder/Parcel.h"
  },
  {
   "function_name" : "android::Parcel::readInt64Vector",
   "linker_set_key" : "_ZNK7android6Parcel15readInt64VectorEPNSt3__110unique_ptrINS1_6vectorIxNS1_9allocatorIxEEEENS1_14default_deleteIS6_EEEE",
   "parameters" :
   [
    {
     "is_this_ptr" : true,
     "referenced_type" : "_ZTIPKN7android6ParcelE"
    },
    {
     "referenced_type" : "_ZTIPNSt3__110unique_ptrINS_6vectorIxNS_9allocatorIxEEEENS_14default_deleteIS4_EEEE"
    }
   ],
   "return_type" : "_ZTIi",
   "source_file" : "frameworks/native/libs/binder/include/binder/Parcel.h"
  },
  {
   "function_name" : "android::Parcel::readInt64Vector",
   "linker_set_key" : "_ZNK7android6Parcel15readInt64VectorEPNSt3__16vectorIxNS1_9allocatorIxEEEE",
   "parameters" :
   [
    {
     "is_this_ptr" : true,
     "referenced_type" : "_ZTIPKN7android6ParcelE"
    },
    {
     "referenced_type" : "_ZTIPNSt3__16vectorIxNS_9allocatorIxEEEE"
    }
   ],
   "return_type" : "_ZTIi",
   "source_file" : "frameworks/native/libs/binder/include/binder/Parcel.h"
  },
  {
   "function_name" : "android::Parcel::readInt64Vector",
   "linker_set_key" : "_ZNK7android6Parcel15readInt64VectorEPNSt3__18optionalINS1_6vectorIxNS1_9allocatorIxEEEEEE",
   "parameters" :
   [
    {
     "is_this_ptr" : true,
     "referenced_type" : "_ZTIPKN7android6ParcelE"
    },
    {
     "referenced_type" : "_ZTIPNSt3__18optionalINS_6vectorIxNS_9allocatorIxEEEEEE"
    }
   ],
   "return_type" : "_ZTIi",
   "source_file" : "frameworks/native/libs/binder/include/binder/Parcel.h"
  },
  {
   "function_name" : "android::Parcel::setDataPosition",
   "linker_set_key" : "_ZNK7android6Parcel15setDataPositionEj",
   "parameters" :
   [
    {
     "is_this_ptr" : true,
     "referenced_type" : "_ZTIPKN7android6ParcelE"
    },
    {
     "referenced_type" : "_ZTIj"
    }
   ],
   "return_type" : "_ZTIv",
   "source_file" : "frameworks/native/libs/binder/include/binder/Parcel.h"
  },
  {
   "access" : "private",
   "function_name" : "android::Parcel::unflattenBinder",
   "linker_set_key" : "_ZNK7android6Parcel15unflattenBinderEPNS_2spINS_7IBinderEEE",
   "parameters" :
   [
    {
     "is_this_ptr" : true,
     "referenced_type" : "_ZTIPKN7android6ParcelE"
    },
    {
     "referenced_type" : "_ZTIPN7android2spINS_7IBinderEEE"
    }
   ],
   "return_type" : "_ZTIi",
   "source_file" : "frameworks/native/libs/binder/include/binder/Parcel.h"
  },
  {
   "function_name" : "android::Parcel::enforceInterface",
   "linker_set_key" : "_ZNK7android6Parcel16enforceInterfaceEPKDsjPNS_14IPCThreadStateE",
   "parameters" :
   [
    {
     "is_this_ptr" : true,
     "referenced_type" : "_ZTIPKN7android6ParcelE"
    },
    {
     "referenced_type" : "_ZTIPKDs"
    },
    {
     "referenced_type" : "_ZTIj"
    },
    {
     "default_arg" : true,
     "referenced_type" : "_ZTIPN7android14IPCThreadStateE"
    }
   ],
   "return_type" : "_ZTIb",
   "source_file" : "frameworks/native/libs/binder/include/binder/Parcel.h"
  },
  {
   "function_name" : "android::Parcel::enforceInterface",
   "linker_set_key" : "_ZNK7android6Parcel16enforceInterfaceERKNS_8String16EPNS_14IPCThreadStateE",
   "parameters" :
   [
    {
     "is_this_ptr" : true,
     "referenced_type" : "_ZTIPKN7android6ParcelE"
    },
    {
     "referenced_type" : "_ZTIRKN7android8String16E"
    },
    {
     "default_arg" : true,
     "referenced_type" : "_ZTIPN7android14IPCThreadStateE"
    }
   ],
   "return_type" : "_ZTIb",
   "source_file" : "frameworks/native/libs/binder/include/binder/Parcel.h"
  },
  {
   "function_name" : "android::Parcel::readDoubleVector",
   "linker_set_key" : "_ZNK7android6Parcel16readDoubleVectorEPNSt3__110unique_ptrINS1_6vectorIdNS1_9allocatorIdEEEENS1_14default_deleteIS6_EEEE",
   "parameters" :
   [
    {
     "is_this_ptr" : true,
     "referenced_type" : "_ZTIPKN7android6ParcelE"
    },
    {
     "referenced_type" : "_ZTIPNSt3__110unique_ptrINS_6vectorIdNS_9allocatorIdEEEENS_14default_deleteIS4_EEEE"
    }
   ],
   "return_type" : "_ZTIi",
   "source_file" : "frameworks/native/libs/binder/include/binder/Parcel.h"
  },
  {
   "function_name" : "android::Parcel::readDoubleVector",
   "linker_set_key" : "_ZNK7android6Parcel16readDoubleVectorEPNSt3__16vectorIdNS1_9allocatorIdEEEE",
   "parameters" :
   [
    {
     "is_this_ptr" : true,
     "referenced_type" : "_ZTIPKN7android6ParcelE"
    },
    {
     "referenced_type" : "_ZTIPNSt3__16vectorIdNS_9allocatorIdEEEE"
    }
   ],
   "return_type" : "_ZTIi",
   "source_file" : "frameworks/native/libs/binder/include/binder/Parcel.h"
  },
  {
   "function_name" : "android::Parcel::readDoubleVector",
   "linker_set_key" : "_ZNK7android6Parcel16readDoubleVectorEPNSt3__18optionalINS1_6vectorIdNS1_9allocatorIdEEEEEE",
   "parameters" :
   [
    {
     "is_this_ptr" : true,
     "referenced_type" : "_ZTIPKN7android6ParcelE"
    },
    {
     "referenced_type" : "_ZTIPNSt3__18optionalINS_6vectorIdNS_9allocatorIdEEEEEE"
    }
   ],
   "return_type" : "_ZTIi",
   "source_file" : "frameworks/native/libs/binder/include/binder/Parcel.h"
  },
  {
   "function_name" : "android::Parcel::readNativeHandle",
   "linker_set_key" : "_ZNK7android6Parcel16readNativeHandleEv",
   "parameters" :
   [
    {
     "is_this_ptr" : true,
     "referenced_type" : "_ZTIPKN7android6ParcelE"
    }
   ],
   "return_type" : "_ZTIP13native_handle",
   "source_file" : "frameworks/native/libs/binder/include/binder/Parcel.h"
  },
  {
   "function_name" : "android::Parcel::readStrongBinder",
   "linker_set_key" : "_ZNK7android6Parcel16readStrongBinderEPNS_2spINS_7IBinderEEE",
   "parameters" :
   [
    {
     "is_this_ptr" : true,
     "referenced_type" : "_ZTIPKN7android6ParcelE"
    },
    {
     "referenced_type" : "_ZTIPN7android2spINS_7IBinderEEE"
    }
   ],
   "return_type" : "_ZTIi",
   "source_file" : "frameworks/native/libs/binder/include/binder/Parcel.h"
  },
  {
   "function_name" : "android::Parcel::readStrongBinder",
   "linker_set_key" : "_ZNK7android6Parcel16readStrongBinderEv",
   "parameters" :
   [
    {
     "is_this_ptr" : true,
     "referenced_type" : "_ZTIPKN7android6ParcelE"
    }
   ],
   "return_type" : "_ZTIN7android2spINS_7IBinderEEE",
   "source_file" : "frameworks/native/libs/binder/include/binder/Parcel.h"
  },
  {
   "function_name" : "android::Parcel::readUint64Vector",
   "linker_set_key" : "_ZNK7android6Parcel16readUint64VectorEPNSt3__110unique_ptrINS1_6vectorIyNS1_9allocatorIyEEEENS1_14default_deleteIS6_EEEE",
   "parameters" :
   [
    {
     "is_this_ptr" : true,
     "referenced_type" : "_ZTIPKN7android6ParcelE"
    },
    {
     "referenced_type" : "_ZTIPNSt3__110unique_ptrINS_6vectorIyNS_9allocatorIyEEEENS_14default_deleteIS4_EEEE"
    }
   ],
   "return_type" : "_ZTIi",
   "source_file" : "frameworks/native/libs/binder/include/binder/Parcel.h"
  },
  {
   "function_name" : "android::Parcel::readUint64Vector",
   "linker_set_key" : "_ZNK7android6Parcel16readUint64VectorEPNSt3__16vectorIyNS1_9allocatorIyEEEE",
   "parameters" :
   [
    {
     "is_this_ptr" : true,
     "referenced_type" : "_ZTIPKN7android6ParcelE"
    },
    {
     "referenced_type" : "_ZTIPNSt3__16vectorIyNS_9allocatorIyEEEE"
    }
   ],
   "return_type" : "_ZTIi",
   "source_file" : "frameworks/native/libs/binder/include/binder/Parcel.h"
  },
  {
   "function_name" : "android::Parcel::readUint64Vector",
   "linker_set_key" : "_ZNK7android6Parcel16readUint64VectorEPNSt3__18optionalINS1_6vectorIyNS1_9allocatorIyEEEEEE",
   "parameters" :
   [
    {
     "is_this_ptr" : true,
     "referenced_type" : "_ZTIPKN7android6ParcelE"
    },
    {
     "referenced_type" : "_ZTIPNSt3__18optionalINS_6vectorIyNS_9allocatorIyEEEEEE"
    }
   ],
   "return_type" : "_ZTIi",
   "source_file" : "frameworks/native/libs/binder/include/binder/Parcel.h"
  },
  {
   "access" : "private",
   "function_name" : "android::Parcel::validateReadData",
   "linker_set_key" : "_ZNK7android6Parcel16validateReadDataEj",
   "parameters" :
   [
    {
     "is_this_ptr" : true,
     "referenced_type" : "_ZTIPKN7android6ParcelE"
    },
    {
     "referenced_type" : "_ZTIj"
    }
   ],
   "return_type" : "_ZTIi",
   "source_file" : "frameworks/native/libs/binder/include/binder/Parcel.h"
  },
  {
   "function_name" : "android::Parcel::getBlobAshmemSize",
   "linker_set_key" : "_ZNK7android6Parcel17getBlobAshmemSizeEv",
   "parameters" :
   [
    {
     "is_this_ptr" : true,
     "referenced_type" : "_ZTIPKN7android6ParcelE"
    }
   ],
   "return_type" : "_ZTIj",
   "source_file" : "frameworks/native/libs/binder/include/binder/Parcel.h"
  },
  {
   "function_name" : "android::Parcel::getOpenAshmemSize",
   "linker_set_key" : "_ZNK7android6Parcel17getOpenAshmemSizeEv",
   "parameters" :
   [
    {
     "is_this_ptr" : true,
     "referenced_type" : "_ZTIPKN7android6ParcelE"
    }
   ],
   "return_type" : "_ZTIj",
   "source_file" : "frameworks/native/libs/binder/include/binder/Parcel.h"
  },
  {
   "function_name" : "android::Parcel::readExceptionCode",
   "linker_set_key" : "_ZNK7android6Parcel17readExceptionCodeEv",
   "parameters" :
   [
    {
     "is_this_ptr" : true,
     "referenced_type" : "_ZTIPKN7android6ParcelE"
    }
   ],
   "return_type" : "_ZTIi",
   "source_file" : "frameworks/native/libs/binder/include/binder/Parcel.h"
  },
  {
   "function_name" : "android::Parcel::readUtf8FromUtf16",
   "linker_set_key" : "_ZNK7android6Parcel17readUtf8FromUtf16EPNSt3__110unique_ptrINS1_12basic_stringIcNS1_11char_traitsIcEENS1_9allocatorIcEEEENS1_14default_deleteIS8_EEEE",
   "parameters" :
   [
    {
     "is_this_ptr" : true,
     "referenced_type" : "_ZTIPKN7android6ParcelE"
    },
    {
     "referenced_type" : "_ZTIPNSt3__110unique_ptrINS_12basic_stringIcNS_11char_traitsIcEENS_9allocatorIcEEEENS_14default_deleteIS6_EEEE"
    }
   ],
   "return_type" : "_ZTIi",
   "source_file" : "frameworks/native/libs/binder/include/binder/Parcel.h"
  },
  {
   "function_name" : "android::Parcel::readUtf8FromUtf16",
   "linker_set_key" : "_ZNK7android6Parcel17readUtf8FromUtf16EPNSt3__112basic_stringIcNS1_11char_traitsIcEENS1_9allocatorIcEEEE",
   "parameters" :
   [
    {
     "is_this_ptr" : true,
     "referenced_type" : "_ZTIPKN7android6ParcelE"
    },
    {
     "referenced_type" : "_ZTIPNSt3__112basic_stringIcNS_11char_traitsIcEENS_9allocatorIcEEEE"
    }
   ],
   "return_type" : "_ZTIi",
   "source_file" : "frameworks/native/libs/binder/include/binder/Parcel.h"
  },
  {
   "function_name" : "android::Parcel::readUtf8FromUtf16",
   "linker_set_key" : "_ZNK7android6Parcel17readUtf8FromUtf16EPNSt3__18optionalINS1_12basic_stringIcNS1_11char_traitsIcEENS1_9allocatorIcEEEEEE",
   "parameters" :
   [
    {
     "is_this_ptr" : true,
     "referenced_type" : "_ZTIPKN7android6ParcelE"
    },
    {
     "referenced_type" : "_ZTIPNSt3__18optionalINS_12basic_stringIcNS_11char_traitsIcEENS_9allocatorIcEEEEEE"
    }
   ],
   "return_type" : "_ZTIi",
   "source_file" : "frameworks/native/libs/binder/include/binder/Parcel.h"
  },
  {
   "function_name" : "android::Parcel::hasFileDescriptors",
   "linker_set_key" : "_ZNK7android6Parcel18hasFileDescriptorsEv",
   "parameters" :
   [
    {
     "is_this_ptr" : true,
     "referenced_type" : "_ZTIPKN7android6ParcelE"
    }
   ],
   "return_type" : "_ZTIb",
   "source_file" : "frameworks/native/libs/binder/include/binder/Parcel.h"
  },
  {
   "function_name" : "android::Parcel::readFileDescriptor",
   "linker_set_key" : "_ZNK7android6Parcel18readFileDescriptorEv",
   "parameters" :
   [
    {
     "is_this_ptr" : true,
     "referenced_type" : "_ZTIPKN7android6ParcelE"
    }
   ],
   "return_type" : "_ZTIi",
   "source_file" : "frameworks/native/libs/binder/include/binder/Parcel.h"
  },
  {
   "function_name" : "android::Parcel::readString16Vector",
   "linker_set_key" : "_ZNK7android6Parcel18readString16VectorEPNSt3__110unique_ptrINS1_6vectorINS2_INS_8String16ENS1_14default_deleteIS4_EEEENS1_9allocatorIS7_EEEENS5_ISA_EEEE",
   "parameters" :
   [
    {
     "is_this_ptr" : true,
     "referenced_type" : "_ZTIPKN7android6ParcelE"
    },
    {
     "referenced_type" : "_ZTIPNSt3__110unique_ptrINS_6vectorINS0_IN7android8String16ENS_14default_deleteIS3_EEEENS_9allocatorIS6_EEEENS4_IS9_EEEE"
    }
   ],
   "return_type" : "_ZTIi",
   "source_file" : "frameworks/native/libs/binder/include/binder/Parcel.h"
  },
  {
   "function_name" : "android::Parcel::readString16Vector",
   "linker_set_key" : "_ZNK7android6Parcel18readString16VectorEPNSt3__16vectorINS_8String16ENS1_9allocatorIS3_EEEE",
   "parameters" :
   [
    {
     "is_this_ptr" : true,
     "referenced_type" : "_ZTIPKN7android6ParcelE"
    },
    {
     "referenced_type" : "_ZTIPNSt3__16vectorIN7android8String16ENS_9allocatorIS2_EEEE"
    }
   ],
   "return_type" : "_ZTIi",
   "source_file" : "frameworks/native/libs/binder/include/binder/Parcel.h"
  },
  {
   "function_name" : "android::Parcel::readString16Vector",
   "linker_set_key" : "_ZNK7android6Parcel18readString16VectorEPNSt3__18optionalINS1_6vectorINS2_INS_8String16EEENS1_9allocatorIS5_EEEEEE",
   "parameters" :
   [
    {
     "is_this_ptr" : true,
     "referenced_type" : "_ZTIPKN7android6ParcelE"
    },
    {
     "referenced_type" : "_ZTIPNSt3__18optionalINS_6vectorINS0_IN7android8String16EEENS_9allocatorIS4_EEEEEE"
    }
   ],
   "return_type" : "_ZTIi",
   "source_file" : "frameworks/native/libs/binder/include/binder/Parcel.h"
  },
  {
   "function_name" : "android::Parcel::readString8Inplace",
   "linker_set_key" : "_ZNK7android6Parcel18readString8InplaceEPj",
   "parameters" :
   [
    {
     "is_this_ptr" : true,
     "referenced_type" : "_ZTIPKN7android6ParcelE"
    },
    {
     "referenced_type" : "_ZTIPj"
    }
   ],
   "return_type" : "_ZTIPKc",
   "source_file" : "frameworks/native/libs/binder/include/binder/Parcel.h"
  },
  {
   "function_name" : "android::Parcel::readString16Inplace",
   "linker_set_key" : "_ZNK7android6Parcel19readString16InplaceEPj",
   "parameters" :
   [
    {
     "is_this_ptr" : true,
     "referenced_type" : "_ZTIPKN7android6ParcelE"
    },
    {
     "referenced_type" : "_ZTIPj"
    }
   ],
   "return_type" : "_ZTIPKDs",
   "source_file" : "frameworks/native/libs/binder/include/binder/Parcel.h"
  },
  {
   "access" : "private",
   "function_name" : "android::Parcel::finishUnflattenBinder",
   "linker_set_key" : "_ZNK7android6Parcel21finishUnflattenBinderERKNS_2spINS_7IBinderEEEPS3_",
   "parameters" :
   [
    {
     "is_this_ptr" : true,
     "referenced_type" : "_ZTIPKN7android6ParcelE"
    },
    {
     "referenced_type" : "_ZTIRKN7android2spINS_7IBinderEEE"
    },
    {
     "referenced_type" : "_ZTIPN7android2spINS_7IBinderEEE"
    }
   ],
   "return_type" : "_ZTIi",
   "source_file" : "frameworks/native/libs/binder/include/binder/Parcel.h"
  },
  {
   "function_name" : "android::Parcel::readStrongBinderVector",
   "linker_set_key" : "_ZNK7android6Parcel22readStrongBinderVectorEPNSt3__110unique_ptrINS1_6vectorINS_2spINS_7IBinderEEENS1_9allocatorIS6_EEEENS1_14default_deleteIS9_EEEE",
   "parameters" :
   [
    {
     "is_this_ptr" : true,
     "referenced_type" : "_ZTIPKN7android6ParcelE"
    },
    {
     "referenced_type" : "_ZTIPNSt3__110unique_ptrINS_6vectorIN7android2spINS2_7IBinderEEENS_9allocatorIS5_EEEENS_14default_deleteIS8_EEEE"
    }
   ],
   "return_type" : "_ZTIi",
   "source_file" : "frameworks/native/libs/binder/include/binder/Parcel.h"
  },
  {
   "function_name" : "android::Parcel::readStrongBinderVector",
   "linker_set_key" : "_ZNK7android6Parcel22readStrongBinderVectorEPNSt3__16vectorINS_2spINS_7IBinderEEENS1_9allocatorIS5_EEEE",
   "parameters" :
   [
    {
     "is_this_ptr" : true,
     "referenced_type" : "_ZTIPKN7android6ParcelE"
    },
    {
     "referenced_type" : "_ZTIPNSt3__16vectorIN7android2spINS1_7IBinderEEENS_9allocatorIS4_EEEE"
    }
   ],
   "return_type" : "_ZTIi",
   "source_file" : "frameworks/native/libs/binder/include/binder/Parcel.h"
  },
  {
   "function_name" : "android::Parcel::readStrongBinderVector",
   "linker_set_key" : "_ZNK7android6Parcel22readStrongBinderVectorEPNSt3__18optionalINS1_6vectorINS_2spINS_7IBinderEEENS1_9allocatorIS6_EEEEEE",
   "parameters" :
   [
    {
     "is_this_ptr" : true,
     "referenced_type" : "_ZTIPKN7android6ParcelE"
    },
    {
     "referenced_type" : "_ZTIPNSt3__18optionalINS_6vectorIN7android2spINS2_7IBinderEEENS_9allocatorIS5_EEEEEE"
    }
   ],
   "return_type" : "_ZTIi",
   "source_file" : "frameworks/native/libs/binder/include/binder/Parcel.h"
  },
  {
   "function_name" : "android::Parcel::readCallingWorkSourceUid",
   "linker_set_key" : "_ZNK7android6Parcel24readCallingWorkSourceUidEv",
   "parameters" :
   [
    {
     "is_this_ptr" : true,
     "referenced_type" : "_ZTIPKN7android6ParcelE"
    }
   ],
   "return_type" : "_ZTIj",
   "source_file" : "frameworks/native/libs/binder/include/binder/Parcel.h"
  },
  {
   "function_name" : "android::Parcel::readNullableStrongBinder",
   "linker_set_key" : "_ZNK7android6Parcel24readNullableStrongBinderEPNS_2spINS_7IBinderEEE",
   "parameters" :
   [
    {
     "is_this_ptr" : true,
     "referenced_type" : "_ZTIPKN7android6ParcelE"
    },
    {
     "referenced_type" : "_ZTIPN7android2spINS_7IBinderEEE"
    }
   ],
   "return_type" : "_ZTIi",
   "source_file" : "frameworks/native/libs/binder/include/binder/Parcel.h"
  },
  {
   "function_name" : "android::Parcel::readParcelFileDescriptor",
   "linker_set_key" : "_ZNK7android6Parcel24readParcelFileDescriptorEv",
   "parameters" :
   [
    {
     "is_this_ptr" : true,
     "referenced_type" : "_ZTIPKN7android6ParcelE"
    }
   ],
   "return_type" : "_ZTIi",
   "source_file" : "frameworks/native/libs/binder/include/binder/Parcel.h"
  },
  {
   "function_name" : "android::Parcel::readUniqueFileDescriptor",
   "linker_set_key" : "_ZNK7android6Parcel24readUniqueFileDescriptorEPNS_4base14unique_fd_implINS1_13DefaultCloserEEE",
   "parameters" :
   [
    {
     "is_this_ptr" : true,
     "referenced_type" : "_ZTIPKN7android6ParcelE"
    },
    {
     "referenced_type" : "_ZTIPN7android4base14unique_fd_implINS0_13DefaultCloserEEE"
    }
   ],
   "return_type" : "_ZTIi",
   "source_file" : "frameworks/native/libs/binder/include/binder/Parcel.h"
  },
  {
   "function_name" : "android::Parcel::readUtf8VectorFromUtf16Vector",
   "linker_set_key" : "_ZNK7android6Parcel29readUtf8VectorFromUtf16VectorEPNSt3__110unique_ptrINS1_6vectorINS2_INS1_12basic_stringIcNS1_11char_traitsIcEENS1_9allocatorIcEEEENS1_14default_deleteIS9_EEEENS7_ISC_EEEENSA_ISE_EEEE",
   "parameters" :
   [
    {
     "is_this_ptr" : true,
     "referenced_type" : "_ZTIPKN7android6ParcelE"
    },
    {
     "referenced_type" : "_ZTIPNSt3__110unique_ptrINS_6vectorINS0_INS_12basic_stringIcNS_11char_traitsIcEENS_9allocatorIcEEEENS_14default_deleteIS7_EEEENS5_ISA_EEEENS8_ISC_EEEE"
    }
   ],
   "return_type" : "_ZTIi",
   "source_file" : "frameworks/native/libs/binder/include/binder/Parcel.h"
  },
  {
   "function_name" : "android::Parcel::readUtf8VectorFromUtf16Vector",
   "linker_set_key" : "_ZNK7android6Parcel29readUtf8VectorFromUtf16VectorEPNSt3__16vectorINS1_12basic_stringIcNS1_11char_traitsIcEENS1_9allocatorIcEEEENS6_IS8_EEEE",
   "parameters" :
   [
    {
     "is_this_ptr" : true,
     "referenced_type" : "_ZTIPKN7android6ParcelE"
    },
    {
     "referenced_type" : "_ZTIPNSt3__16vectorINS_12basic_stringIcNS_11char_traitsIcEENS_9allocatorIcEEEENS4_IS6_EEEE"
    }
   ],
   "return_type" : "_ZTIi",
   "source_file" : "frameworks/native/libs/binder/include/binder/Parcel.h"
  },
  {
   "function_name" : "android::Parcel::readUtf8VectorFromUtf16Vector",
   "linker_set_key" : "_ZNK7android6Parcel29readUtf8VectorFromUtf16VectorEPNSt3__18optionalINS1_6vectorINS2_INS1_12basic_stringIcNS1_11char_traitsIcEENS1_9allocatorIcEEEEEENS7_ISA_EEEEEE",
   "parameters" :
   [
    {
     "is_this_ptr" : true,
     "referenced_type" : "_ZTIPKN7android6ParcelE"
    },
    {
     "referenced_type" : "_ZTIPNSt3__18optionalINS_6vectorINS0_INS_12basic_stringIcNS_11char_traitsIcEENS_9allocatorIcEEEEEENS5_IS8_EEEEEE"
    }
   ],
   "return_type" : "_ZTIi",
   "source_file" : "frameworks/native/libs/binder/include/binder/Parcel.h"
  },
  {
   "function_name" : "android::Parcel::readUniqueFileDescriptorVector",
   "linker_set_key" : "_ZNK7android6Parcel30readUniqueFileDescriptorVectorEPNSt3__110unique_ptrINS1_6vectorINS_4base14unique_fd_implINS4_13DefaultCloserEEENS1_9allocatorIS7_EEEENS1_14default_deleteISA_EEEE",
   "parameters" :
   [
    {
     "is_this_ptr" : true,
     "referenced_type" : "_ZTIPKN7android6ParcelE"
    },
    {
     "referenced_type" : "_ZTIPNSt3__110unique_ptrINS_6vectorIN7android4base14unique_fd_implINS3_13DefaultCloserEEENS_9allocatorIS6_EEEENS_14default_deleteIS9_EEEE"
    }
   ],
   "return_type" : "_ZTIi",
   "source_file" : "frameworks/native/libs/binder/include/binder/Parcel.h"
  },
  {
   "function_name" : "android::Parcel::readUniqueFileDescriptorVector",
   "linker_set_key" : "_ZNK7android6Parcel30readUniqueFileDescriptorVectorEPNSt3__16vectorINS_4base14unique_fd_implINS3_13DefaultCloserEEENS1_9allocatorIS6_EEEE",
   "parameters" :
   [
    {
     "is_this_ptr" : true,
     "referenced_type" : "_ZTIPKN7android6ParcelE"
    },
    {
     "referenced_type" : "_ZTIPNSt3__16vectorIN7android4base14unique_fd_implINS2_13DefaultCloserEEENS_9allocatorIS5_EEEE"
    }
   ],
   "return_type" : "_ZTIi",
   "source_file" : "frameworks/native/libs/binder/include/binder/Parcel.h"
  },
  {
   "function_name" : "android::Parcel::readUniqueFileDescriptorVector",
   "linker_set_key" : "_ZNK7android6Parcel30readUniqueFileDescriptorVectorEPNSt3__18optionalINS1_6vectorINS_4base14unique_fd_implINS4_13DefaultCloserEEENS1_9allocatorIS7_EEEEEE",
   "parameters" :
   [
    {
     "is_this_ptr" : true,
     "referenced_type" : "_ZTIPKN7android6ParcelE"
    },
    {
     "referenced_type" : "_ZTIPNSt3__18optionalINS_6vectorIN7android4base14unique_fd_implINS3_13DefaultCloserEEENS_9allocatorIS6_EEEEEE"
    }
   ],
   "return_type" : "_ZTIi",
   "source_file" : "frameworks/native/libs/binder/include/binder/Parcel.h"
  },
  {
   "function_name" : "android::Parcel::readUniqueParcelFileDescriptor",
   "linker_set_key" : "_ZNK7android6Parcel30readUniqueParcelFileDescriptorEPNS_4base14unique_fd_implINS1_13DefaultCloserEEE",
   "parameters" :
   [
    {
     "is_this_ptr" : true,
     "referenced_type" : "_ZTIPKN7android6ParcelE"
    },
    {
     "referenced_type" : "_ZTIPN7android4base14unique_fd_implINS0_13DefaultCloserEEE"
    }
   ],
   "return_type" : "_ZTIi",
   "source_file" : "frameworks/native/libs/binder/include/binder/Parcel.h"
  },
  {
   "access" : "private",
   "function_name" : "android::Parcel::updateWorkSourceRequestHeaderPosition",
   "linker_set_key" : "_ZNK7android6Parcel37updateWorkSourceRequestHeaderPositionEv",
   "parameters" :
   [
    {
     "is_this_ptr" : true,
     "referenced_type" : "_ZTIPKN7android6ParcelE"
    }
   ],
   "return_type" : "_ZTIv",
   "source_file" : "frameworks/native/libs/binder/include/binder/Parcel.h"
  },
  {
   "function_name" : "android::Parcel::Blob::fd",
   "linker_set_key" : "_ZNK7android6Parcel4Blob2fdEv",
   "parameters" :
   [
    {
     "is_this_ptr" : true,
     "referenced_type" : "_ZTIPKN7android6Parcel4BlobE"
    }
   ],
   "return_type" : "_ZTIi",
   "source_file" : "frameworks/native/libs/binder/include/binder/Parcel.h"
  },
  {
   "function_name" : "android::Parcel::Blob::size",
   "linker_set_key" : "_ZNK7android6Parcel4Blob4sizeEv",
   "parameters" :
   [
    {
     "is_this_ptr" : true,
     "referenced_type" : "_ZTIPKN7android6Parcel4BlobE"
    }
   ],
   "return_type" : "_ZTIj",
   "source_file" : "frameworks/native/libs/binder/include/binder/Parcel.h"
  },
  {
   "function_name" : "android::Parcel::Blob::isMutable",
   "linker_set_key" : "_ZNK7android6Parcel4Blob9isMutableEv",
   "parameters" :
   [
    {
     "is_this_ptr" : true,
     "referenced_type" : "_ZTIPKN7android6Parcel4BlobE"
    }
   ],
   "return_type" : "_ZTIb",
   "source_file" : "frameworks/native/libs/binder/include/binder/Parcel.h"
  },
  {
   "function_name" : "android::Parcel::data",
   "linker_set_key" : "_ZNK7android6Parcel4dataEv",
   "parameters" :
   [
    {
     "is_this_ptr" : true,
     "referenced_type" : "_ZTIPKN7android6ParcelE"
    }
   ],
   "return_type" : "_ZTIPKh",
   "source_file" : "frameworks/native/libs/binder/include/binder/Parcel.h"
  },
  {
   "function_name" : "android::Parcel::read",
   "linker_set_key" : "_ZNK7android6Parcel4readEPvj",
   "parameters" :
   [
    {
     "is_this_ptr" : true,
     "referenced_type" : "_ZTIPKN7android6ParcelE"
    },
    {
     "referenced_type" : "_ZTIPv"
    },
    {
     "referenced_type" : "_ZTIj"
    }
   ],
   "return_type" : "_ZTIi",
   "source_file" : "frameworks/native/libs/binder/include/binder/Parcel.h"
  },
  {
   "access" : "private",
   "function_name" : "android::Parcel::read",
   "linker_set_key" : "_ZNK7android6Parcel4readERNS0_26FlattenableHelperInterfaceE",
   "parameters" :
   [
    {
     "is_this_ptr" : true,
     "referenced_type" : "_ZTIPKN7android6ParcelE"
    },
    {
     "referenced_type" : "_ZTIRN7android6Parcel26FlattenableHelperInterfaceE"
    }
   ],
   "return_type" : "_ZTIi",
   "source_file" : "frameworks/native/libs/binder/include/binder/Parcel.h"
  },
  {
   "function_name" : "android::Parcel::print",
   "linker_set_key" : "_ZNK7android6Parcel5printERNS_10TextOutputEj",
   "parameters" :
   [
    {
     "is_this_ptr" : true,
     "referenced_type" : "_ZTIPKN7android6ParcelE"
    },
    {
     "referenced_type" : "_ZTIRN7android10TextOutputE"
    },
    {
     "default_arg" : true,
     "referenced_type" : "_ZTIj"
    }
   ],
   "return_type" : "_ZTIv",
   "source_file" : "frameworks/native/libs/binder/include/binder/Parcel.h"
  },
  {
   "access" : "private",
   "function_name" : "android::Parcel::ipcData",
   "linker_set_key" : "_ZNK7android6Parcel7ipcDataEv",
   "parameters" :
   [
    {
     "is_this_ptr" : true,
     "referenced_type" : "_ZTIPKN7android6ParcelE"
    }
   ],
   "return_type" : "_ZTIj",
   "source_file" : "frameworks/native/libs/binder/include/binder/Parcel.h"
  },
  {
   "function_name" : "android::Parcel::allowFds",
   "linker_set_key" : "_ZNK7android6Parcel8allowFdsEv",
   "parameters" :
   [
    {
     "is_this_ptr" : true,
     "referenced_type" : "_ZTIPKN7android6ParcelE"
    }
   ],
   "return_type" : "_ZTIb",
   "source_file" : "frameworks/native/libs/binder/include/binder/Parcel.h"
  },
  {
   "function_name" : "android::Parcel::dataSize",
   "linker_set_key" : "_ZNK7android6Parcel8dataSizeEv",
   "parameters" :
   [
    {
     "is_this_ptr" : true,
     "referenced_type" : "_ZTIPKN7android6ParcelE"
    }
   ],
   "return_type" : "_ZTIj",
   "source_file" : "frameworks/native/libs/binder/include/binder/Parcel.h"
  },
  {
   "function_name" : "android::Parcel::isForRpc",
   "linker_set_key" : "_ZNK7android6Parcel8isForRpcEv",
   "parameters" :
   [
    {
     "is_this_ptr" : true,
     "referenced_type" : "_ZTIPKN7android6ParcelE"
    }
   ],
   "return_type" : "_ZTIb",
   "source_file" : "frameworks/native/libs/binder/include/binder/Parcel.h"
  },
  {
   "function_name" : "android::Parcel::readBlob",
   "linker_set_key" : "_ZNK7android6Parcel8readBlobEjPNS0_12ReadableBlobE",
   "parameters" :
   [
    {
     "is_this_ptr" : true,
     "referenced_type" : "_ZTIPKN7android6ParcelE"
    },
    {
     "referenced_type" : "_ZTIj"
    },
    {
     "referenced_type" : "_ZTIPN7android6Parcel12ReadableBlobE"
    }
   ],
   "return_type" : "_ZTIi",
   "source_file" : "frameworks/native/libs/binder/include/binder/Parcel.h"
  },
  {
   "function_name" : "android::Parcel::readBool",
   "linker_set_key" : "_ZNK7android6Parcel8readBoolEPb",
   "parameters" :
   [
    {
     "is_this_ptr" : true,
     "referenced_type" : "_ZTIPKN7android6ParcelE"
    },
    {
     "referenced_type" : "_ZTIPb"
    }
   ],
   "return_type" : "_ZTIi",
   "source_file" : "frameworks/native/libs/binder/include/binder/Parcel.h"
  },
  {
   "function_name" : "android::Parcel::readBool",
   "linker_set_key" : "_ZNK7android6Parcel8readBoolEv",
   "parameters" :
   [
    {
     "is_this_ptr" : true,
     "referenced_type" : "_ZTIPKN7android6ParcelE"
    }
   ],
   "return_type" : "_ZTIb",
   "source_file" : "frameworks/native/libs/binder/include/binder/Parcel.h"
  },
  {
   "function_name" : "android::Parcel::readByte",
   "linker_set_key" : "_ZNK7android6Parcel8readByteEPa",
   "parameters" :
   [
    {
     "is_this_ptr" : true,
     "referenced_type" : "_ZTIPKN7android6ParcelE"
    },
    {
     "referenced_type" : "_ZTIPa"
    }
   ],
   "return_type" : "_ZTIi",
   "source_file" : "frameworks/native/libs/binder/include/binder/Parcel.h"
  },
  {
   "function_name" : "android::Parcel::readByte",
   "linker_set_key" : "_ZNK7android6Parcel8readByteEv",
   "parameters" :
   [
    {
     "is_this_ptr" : true,
     "referenced_type" : "_ZTIPKN7android6ParcelE"
    }
   ],
   "return_type" : "_ZTIa",
   "source_file" : "frameworks/native/libs/binder/include/binder/Parcel.h"
  },
  {
   "function_name" : "android::Parcel::readChar",
   "linker_set_key" : "_ZNK7android6Parcel8readCharEPDs",
   "parameters" :
   [
    {
     "is_this_ptr" : true,
     "referenced_type" : "_ZTIPKN7android6ParcelE"
    },
    {
     "referenced_type" : "_ZTIPDs"
    }
   ],
   "return_type" : "_ZTIi",
   "source_file" : "frameworks/native/libs/binder/include/binder/Parcel.h"
  },
  {
   "function_name" : "android::Parcel::readChar",
   "linker_set_key" : "_ZNK7android6Parcel8readCharEv",
   "parameters" :
   [
    {
     "is_this_ptr" : true,
     "referenced_type" : "_ZTIPKN7android6ParcelE"
    }
   ],
   "return_type" : "_ZTIDs",
   "source_file" : "frameworks/native/libs/binder/include/binder/Parcel.h"
  },
  {
   "access" : "private",
   "function_name" : "android::Parcel::readData",
   "linker_set_key" : "_ZNK7android6Parcel8readDataEPDs",
   "parameters" :
   [
    {
     "is_this_ptr" : true,
     "referenced_type" : "_ZTIPKN7android6ParcelE"
    },
    {
     "referenced_type" : "_ZTIPDs"
    }
   ],
   "return_type" : "_ZTIi",
   "source_file" : "frameworks/native/libs/binder/include/binder/Parcel.h"
  },
  {
   "access" : "private",
   "function_name" : "android::Parcel::readData",
   "linker_set_key" : "_ZNK7android6Parcel8readDataEPNS_10ParcelableE",
   "parameters" :
   [
    {
     "is_this_ptr" : true,
     "referenced_type" : "_ZTIPKN7android6ParcelE"
    },
    {
     "referenced_type" : "_ZTIPN7android10ParcelableE"
    }
   ],
   "return_type" : "_ZTIi",
   "source_file" : "frameworks/native/libs/binder/include/binder/Parcel.h"
  },
  {
   "access" : "private",
   "function_name" : "android::Parcel::readData",
   "linker_set_key" : "_ZNK7android6Parcel8readDataEPNS_4base14unique_fd_implINS1_13DefaultCloserEEE",
   "parameters" :
   [
    {
     "is_this_ptr" : true,
     "referenced_type" : "_ZTIPKN7android6ParcelE"
    },
    {
     "referenced_type" : "_ZTIPN7android4base14unique_fd_implINS0_13DefaultCloserEEE"
    }
   ],
   "return_type" : "_ZTIi",
   "source_file" : "frameworks/native/libs/binder/include/binder/Parcel.h"
  },
  {
   "access" : "private",
   "function_name" : "android::Parcel::readData",
   "linker_set_key" : "_ZNK7android6Parcel8readDataEPNS_8String16E",
   "parameters" :
   [
    {
     "is_this_ptr" : true,
     "referenced_type" : "_ZTIPKN7android6ParcelE"
    },
    {
     "referenced_type" : "_ZTIPN7android8String16E"
    }
   ],
   "return_type" : "_ZTIi",
   "source_file" : "frameworks/native/libs/binder/include/binder/Parcel.h"
  },
  {
   "access" : "private",
   "function_name" : "android::Parcel::readData",
   "linker_set_key" : "_ZNK7android6Parcel8readDataEPNSt3__112basic_stringIcNS1_11char_traitsIcEENS1_9allocatorIcEEEE",
   "parameters" :
   [
    {
     "is_this_ptr" : true,
     "referenced_type" : "_ZTIPKN7android6ParcelE"
    },
    {
     "referenced_type" : "_ZTIPNSt3__112basic_stringIcNS_11char_traitsIcEENS_9allocatorIcEEEE"
    }
   ],
   "return_type" : "_ZTIi",
   "source_file" : "frameworks/native/libs/binder/include/binder/Parcel.h"
  },
  {
   "access" : "private",
   "function_name" : "android::Parcel::readData",
   "linker_set_key" : "_ZNK7android6Parcel8readDataEPa",
   "parameters" :
   [
    {
     "is_this_ptr" : true,
     "referenced_type" : "_ZTIPKN7android6ParcelE"
    },
    {
     "referenced_type" : "_ZTIPa"
    }
   ],
   "return_type" : "_ZTIi",
   "source_file" : "frameworks/native/libs/binder/include/binder/Parcel.h"
  },
  {
   "access" : "private",
   "function_name" : "android::Parcel::readData",
   "linker_set_key" : "_ZNK7android6Parcel8readDataEPb",
   "parameters" :
   [
    {
     "is_this_ptr" : true,
     "referenced_type" : "_ZTIPKN7android6ParcelE"
    },
    {
     "referenced_type" : "_ZTIPb"
    }
   ],
   "return_type" : "_ZTIi",
   "source_file" : "frameworks/native/libs/binder/include/binder/Parcel.h"
  },
  {
   "access" : "private",
   "function_name" : "android::Parcel::readData",
   "linker_set_key" : "_ZNK7android6Parcel8readDataEPd",
   "parameters" :
   [
    {
     "is_this_ptr" : true,
     "referenced_type" : "_ZTIPKN7android6ParcelE"
    },
    {
     "referenced_type" : "_ZTIPd"
    }
   ],
   "return_type" : "_ZTIi",
   "source_file" : "frameworks/native/libs/binder/include/binder/Parcel.h"
  },
  {
   "access" : "private",
   "function_name" : "android::Parcel::readData",
   "linker_set_key" : "_ZNK7android6Parcel8readDataEPf",
   "parameters" :
   [
    {
     "is_this_ptr" : true,
     "referenced_type" : "_ZTIPKN7android6ParcelE"
    },
    {
     "referenced_type" : "_ZTIPf"
    }
   ],
   "return_type" : "_ZTIi",
   "source_file" : "frameworks/native/libs/binder/include/binder/Parcel.h"
  },
  {
   "access" : "private",
   "function_name" : "android::Parcel::readData",
   "linker_set_key" : "_ZNK7android6Parcel8readDataEPh",
   "parameters" :
   [
    {
     "is_this_ptr" : true,
     "referenced_type" : "_ZTIPKN7android6ParcelE"
    },
    {
     "referenced_type" : "_ZTIPh"
    }
   ],
   "return_type" : "_ZTIi",
   "source_file" : "frameworks/native/libs/binder/include/binder/Parcel.h"
  },
  {
   "access" : "private",
   "function_name" : "android::Parcel::readData",
   "linker_set_key" : "_ZNK7android6Parcel8readDataEPi",
   "parameters" :
   [
    {
     "is_this_ptr" : true,
     "referenced_type" : "_ZTIPKN7android6ParcelE"
    },
    {
     "referenced_type" : "_ZTIPi"
    }
   ],
   "return_type" : "_ZTIi",
   "source_file" : "frameworks/native/libs/binder/include/binder/Parcel.h"
  },
  {
   "access" : "private",
   "function_name" : "android::Parcel::readData",
   "linker_set_key" : "_ZNK7android6Parcel8readDataEPj",
   "parameters" :
   [
    {
     "is_this_ptr" : true,
     "referenced_type" : "_ZTIPKN7android6ParcelE"
    },
    {
     "referenced_type" : "_ZTIPj"
    }
   ],
   "return_type" : "_ZTIi",
   "source_file" : "frameworks/native/libs/binder/include/binder/Parcel.h"
  },
  {
   "access" : "private",
   "function_name" : "android::Parcel::readData",
   "linker_set_key" : "_ZNK7android6Parcel8readDataEPx",
   "parameters" :
   [
    {
     "is_this_ptr" : true,
     "referenced_type" : "_ZTIPKN7android6ParcelE"
    },
    {
     "referenced_type" : "_ZTIPx"
    }
   ],
   "return_type" : "_ZTIi",
   "source_file" : "frameworks/native/libs/binder/include/binder/Parcel.h"
  },
  {
   "access" : "private",
   "function_name" : "android::Parcel::readData",
   "linker_set_key" : "_ZNK7android6Parcel8readDataEPy",
   "parameters" :
   [
    {
     "is_this_ptr" : true,
     "referenced_type" : "_ZTIPKN7android6ParcelE"
    },
    {
     "referenced_type" : "_ZTIPy"
    }
   ],
   "return_type" : "_ZTIi",
   "source_file" : "frameworks/native/libs/binder/include/binder/Parcel.h"
  },
  {
   "access" : "private",
   "function_name" : "android::Parcel::readData",
   "linker_set_key" : "_ZNK7android6Parcel8readDataINSt3__110unique_ptrINS2_12basic_stringIcNS2_11char_traitsIcEENS2_9allocatorIcEEEENS2_14default_deleteIS9_EEEELb1EEEiPT_",
   "parameters" :
   [
    {
     "is_this_ptr" : true,
     "referenced_type" : "_ZTIPKN7android6ParcelE"
    },
    {
     "referenced_type" : "_ZTIPNSt3__110unique_ptrINS_12basic_stringIcNS_11char_traitsIcEENS_9allocatorIcEEEENS_14default_deleteIS6_EEEE"
    }
   ],
   "return_type" : "_ZTIi",
   "source_file" : "frameworks/native/libs/binder/include/binder/Parcel.h",
   "template_args" :
   [
    "_ZTINSt3__110unique_ptrINS_12basic_stringIcNS_11char_traitsIcEENS_9allocatorIcEEEENS_14default_deleteIS6_EEEE"
   ]
  },
  {
   "access" : "private",
   "function_name" : "android::Parcel::readData",
   "linker_set_key" : "_ZNK7android6Parcel8readDataINSt3__110unique_ptrINS2_6vectorIDsNS2_9allocatorIDsEEEENS2_14default_deleteIS7_EEEELb1EEEiPT_",
   "parameters" :
   [
    {
     "is_this_ptr" : true,
     "referenced_type" : "_ZTIPKN7android6ParcelE"
    },
    {
     "referenced_type" : "_ZTIPNSt3__110unique_ptrINS_6vectorIDsNS_9allocatorIDsEEEENS_14default_deleteIS4_EEEE"
    }
   ],
   "return_type" : "_ZTIi",
   "source_file" : "frameworks/native/libs/binder/include/binder/Parcel.h",
   "template_args" :
   [
    "_ZTINSt3__110unique_ptrINS_6vectorIDsNS_9allocatorIDsEEEENS_14default_deleteIS4_EEEE"
   ]
  },
  {
   "access" : "private",
   "function_name" : "android::Parcel::readData",
   "linker_set_key" : "_ZNK7android6Parcel8readDataINSt3__110unique_ptrINS2_6vectorINS3_INS2_12basic_stringIcNS2_11char_traitsIcEENS2_9allocatorIcEEEENS2_14default_deleteISA_EEEENS8_ISD_EEEENSB_ISF_EEEELb1EEEiPT_",
   "parameters" :
   [
    {
     "is_this_ptr" : true,
     "referenced_type" : "_ZTIPKN7android6ParcelE"
    },
    {
     "referenced_type" : "_ZTIPNSt3__110unique_ptrINS_6vectorINS0_INS_12basic_stringIcNS_11char_traitsIcEENS_9allocatorIcEEEENS_14default_deleteIS7_EEEENS5_ISA_EEEENS8_ISC_EEEE"
    }
   ],
   "return_type" : "_ZTIi",
   "source_file" : "frameworks/native/libs/binder/include/binder/Parcel.h",
   "template_args" :
   [
    "_ZTINSt3__110unique_ptrINS_6vectorINS0_INS_12basic_stringIcNS_11char_traitsIcEENS_9allocatorIcEEEENS_14default_deleteIS7_EEEENS5_ISA_EEEENS8_ISC_EEEE"
   ]
  },
  {
   "access" : "private",
   "function_name" : "android::Parcel::readData",
   "linker_set_key" : "_ZNK7android6Parcel8readDataINSt3__110unique_ptrINS2_6vectorINS3_INS_8String16ENS2_14default_deleteIS5_EEEENS2_9allocatorIS8_EEEENS6_ISB_EEEELb1EEEiPT_",
   "parameters" :
   [
    {
     "is_this_ptr" : true,
     "referenced_type" : "_ZTIPKN7android6ParcelE"
    },
    {
     "referenced_type" : "_ZTIPNSt3__110unique_ptrINS_6vectorINS0_IN7android8String16ENS_14default_deleteIS3_EEEENS_9allocatorIS6_EEEENS4_IS9_EEEE"
    }
   ],
   "return_type" : "_ZTIi",
   "source_file" : "frameworks/native/libs/binder/include/binder/Parcel.h",
   "template_args" :
   [
    "_ZTINSt3__110unique_ptrINS_6vectorINS0_IN7android8String16ENS_14default_deleteIS3_EEEENS_9allocatorIS6_EEEENS4_IS9_EEEE"
   ]
  },
  {
   "access" : "private",
   "function_name" : "android::Parcel::readData",
   "linker_set_key" : "_ZNK7android6Parcel8readDataINSt3__110unique_ptrINS2_6vectorINS_2spINS_7IBinderEEENS2_9allocatorIS7_EEEENS2_14default_deleteISA_EEEELb1EEEiPT_",
   "parameters" :
   [
    {
     "is_this_ptr" : true,
     "referenced_type" : "_ZTIPKN7android6ParcelE"
    },
    {
     "referenced_type" : "_ZTIPNSt3__110unique_ptrINS_6vectorIN7android2spINS2_7IBinderEEENS_9allocatorIS5_EEEENS_14default_deleteIS8_EEEE"
    }
   ],
   "return_type" : "_ZTIi",
   "source_file" : "frameworks/native/libs/binder/include/binder/Parcel.h",
   "template_args" :
   [
    "_ZTINSt3__110unique_ptrINS_6vectorIN7android2spINS2_7IBinderEEENS_9allocatorIS5_EEEENS_14default_deleteIS8_EEEE"
   ]
  },
  {
   "access" : "private",
   "function_name" : "android::Parcel::readData",
   "linker_set_key" : "_ZNK7android6Parcel8readDataINSt3__110unique_ptrINS2_6vectorINS_4base14unique_fd_implINS5_13DefaultCloserEEENS2_9allocatorIS8_EEEENS2_14default_deleteISB_EEEELb1EEEiPT_",
   "parameters" :
   [
    {
     "is_this_ptr" : true,
     "referenced_type" : "_ZTIPKN7android6ParcelE"
    },
    {
     "referenced_type" : "_ZTIPNSt3__110unique_ptrINS_6vectorIN7android4base14unique_fd_implINS3_13DefaultCloserEEENS_9allocatorIS6_EEEENS_14default_deleteIS9_EEEE"
    }
   ],
   "return_type" : "_ZTIi",
   "source_file" : "frameworks/native/libs/binder/include/binder/Parcel.h",
   "template_args" :
   [
    "_ZTINSt3__110unique_ptrINS_6vectorIN7android4base14unique_fd_implINS3_13DefaultCloserEEENS_9allocatorIS6_EEEENS_14default_deleteIS9_EEEE"
   ]
  },
  {
   "access" : "private",
   "function_name" : "android::Parcel::readData",
   "linker_set_key" : "_ZNK7android6Parcel8readDataINSt3__110unique_ptrINS2_6vectorIaNS2_9allocatorIaEEEENS2_14default_deleteIS7_EEEELb1EEEiPT_",
   "parameters" :
   [
    {
     "is_this_ptr" : true,
     "referenced_type" : "_ZTIPKN7android6ParcelE"
    },
    {
     "referenced_type" : "_ZTIPNSt3__110unique_ptrINS_6vectorIaNS_9allocatorIaEEEENS_14default_deleteIS4_EEEE"
    }
   ],
   "return_type" : "_ZTIi",
   "source_file" : "frameworks/native/libs/binder/include/binder/Parcel.h",
   "template_args" :
   [
    "_ZTINSt3__110unique_ptrINS_6vectorIaNS_9allocatorIaEEEENS_14default_deleteIS4_EEEE"
   ]
  },
  {
   "access" : "private",
   "function_name" : "android::Parcel::readData",
   "linker_set_key" : "_ZNK7android6Parcel8readDataINSt3__110unique_ptrINS2_6vectorIbNS2_9allocatorIbEEEENS2_14default_deleteIS7_EEEELb1EEEiPT_",
   "parameters" :
   [
    {
     "is_this_ptr" : true,
     "referenced_type" : "_ZTIPKN7android6ParcelE"
    },
    {
     "referenced_type" : "_ZTIPNSt3__110unique_ptrINS_6vectorIbNS_9allocatorIbEEEENS_14default_deleteIS4_EEEE"
    }
   ],
   "return_type" : "_ZTIi",
   "source_file" : "frameworks/native/libs/binder/include/binder/Parcel.h",
   "template_args" :
   [
    "_ZTINSt3__110unique_ptrINS_6vectorIbNS_9allocatorIbEEEENS_14default_deleteIS4_EEEE"
   ]
  },
  {
   "access" : "private",
   "function_name" : "android::Parcel::readData",
   "linker_set_key" : "_ZNK7android6Parcel8readDataINSt3__110unique_ptrINS2_6vectorIdNS2_9allocatorIdEEEENS2_14default_deleteIS7_EEEELb1EEEiPT_",
   "parameters" :
   [
    {
     "is_this_ptr" : true,
     "referenced_type" : "_ZTIPKN7android6ParcelE"
    },
    {
     "referenced_type" : "_ZTIPNSt3__110unique_ptrINS_6vectorIdNS_9allocatorIdEEEENS_14default_deleteIS4_EEEE"
    }
   ],
   "return_type" : "_ZTIi",
   "source_file" : "frameworks/native/libs/binder/include/binder/Parcel.h",
   "template_args" :
   [
    "_ZTINSt3__110unique_ptrINS_6vectorIdNS_9allocatorIdEEEENS_14default_deleteIS4_EEEE"
   ]
  },
  {
   "access" : "private",
   "function_name" : "android::Parcel::readData",
   "linker_set_key" : "_ZNK7android6Parcel8readDataINSt3__110unique_ptrINS2_6vectorIfNS2_9allocatorIfEEEENS2_14default_deleteIS7_EEEELb1EEEiPT_",
   "parameters" :
   [
    {
     "is_this_ptr" : true,
     "referenced_type" : "_ZTIPKN7android6ParcelE"
    },
    {
     "referenced_type" : "_ZTIPNSt3__110unique_ptrINS_6vectorIfNS_9allocatorIfEEEENS_14default_deleteIS4_EEEE"
    }
   ],
   "return_type" : "_ZTIi",
   "source_file" : "frameworks/native/libs/binder/include/binder/Parcel.h",
   "template_args" :
   [
    "_ZTINSt3__110unique_ptrINS_6vectorIfNS_9allocatorIfEEEENS_14default_deleteIS4_EEEE"
   ]
  },
  {
   "access" : "private",
   "function_name" : "android::Parcel::readData",
   "linker_set_key" : "_ZNK7android6Parcel8readDataINSt3__110unique_ptrINS2_6vectorIhNS2_9allocatorIhEEEENS2_14default_deleteIS7_EEEELb1EEEiPT_",
   "parameters" :
   [
    {
     "is_this_ptr" : true,
     "referenced_type" : "_ZTIPKN7android6ParcelE"
    },
    {
     "referenced_type" : "_ZTIPNSt3__110unique_ptrINS_6vectorIhNS_9allocatorIhEEEENS_14default_deleteIS4_EEEE"
    }
   ],
   "return_type" : "_ZTIi",
   "source_file" : "frameworks/native/libs/binder/include/binder/Parcel.h",
   "template_args" :
   [
    "_ZTINSt3__110unique_ptrINS_6vectorIhNS_9allocatorIhEEEENS_14default_deleteIS4_EEEE"
   ]
  },
  {
   "access" : "private",
   "function_name" : "android::Parcel::readData",
   "linker_set_key" : "_ZNK7android6Parcel8readDataINSt3__110unique_ptrINS2_6vectorIiNS2_9allocatorIiEEEENS2_14default_deleteIS7_EEEELb1EEEiPT_",
   "parameters" :
   [
    {
     "is_this_ptr" : true,
     "referenced_type" : "_ZTIPKN7android6ParcelE"
    },
    {
     "referenced_type" : "_ZTIPNSt3__110unique_ptrINS_6vectorIiNS_9allocatorIiEEEENS_14default_deleteIS4_EEEE"
    }
   ],
   "return_type" : "_ZTIi",
   "source_file" : "frameworks/native/libs/binder/include/binder/Parcel.h",
   "template_args" :
   [
    "_ZTINSt3__110unique_ptrINS_6vectorIiNS_9allocatorIiEEEENS_14default_deleteIS4_EEEE"
   ]
  },
  {
   "access" : "private",
   "function_name" : "android::Parcel::readData",
   "linker_set_key" : "_ZNK7android6Parcel8readDataINSt3__110unique_ptrINS2_6vectorIxNS2_9allocatorIxEEEENS2_14default_deleteIS7_EEEELb1EEEiPT_",
   "parameters" :
   [
    {
     "is_this_ptr" : true,
     "referenced_type" : "_ZTIPKN7android6ParcelE"
    },
    {
     "referenced_type" : "_ZTIPNSt3__110unique_ptrINS_6vectorIxNS_9allocatorIxEEEENS_14default_deleteIS4_EEEE"
    }
   ],
   "return_type" : "_ZTIi",
   "source_file" : "frameworks/native/libs/binder/include/binder/Parcel.h",
   "template_args" :
   [
    "_ZTINSt3__110unique_ptrINS_6vectorIxNS_9allocatorIxEEEENS_14default_deleteIS4_EEEE"
   ]
  },
  {
   "access" : "private",
   "function_name" : "android::Parcel::readData",
   "linker_set_key" : "_ZNK7android6Parcel8readDataINSt3__110unique_ptrINS2_6vectorIyNS2_9allocatorIyEEEENS2_14default_deleteIS7_EEEELb1EEEiPT_",
   "parameters" :
   [
    {
     "is_this_ptr" : true,
     "referenced_type" : "_ZTIPKN7android6ParcelE"
    },
    {
     "referenced_type" : "_ZTIPNSt3__110unique_ptrINS_6vectorIyNS_9allocatorIyEEEENS_14default_deleteIS4_EEEE"
    }
   ],
   "return_type" : "_ZTIi",
   "source_file" : "frameworks/native/libs/binder/include/binder/Parcel.h",
   "template_args" :
   [
    "_ZTINSt3__110unique_ptrINS_6vectorIyNS_9allocatorIyEEEENS_14default_deleteIS4_EEEE"
   ]
  },
  {
   "access" : "private",
   "function_name" : "android::Parcel::readData",
   "linker_set_key" : "_ZNK7android6Parcel8readDataINSt3__110unique_ptrINS_8String16ENS2_14default_deleteIS4_EEEELb1EEEiPT_",
   "parameters" :
   [
    {
     "is_this_ptr" : true,
     "referenced_type" : "_ZTIPKN7android6ParcelE"
    },
    {
     "referenced_type" : "_ZTIPNSt3__110unique_ptrIN7android8String16ENS_14default_deleteIS2_EEEE"
    }
   ],
   "return_type" : "_ZTIi",
   "source_file" : "frameworks/native/libs/binder/include/binder/Parcel.h",
   "template_args" :
   [
    "_ZTINSt3__110unique_ptrIN7android8String16ENS_14default_deleteIS2_EEEE"
   ]
  },
  {
   "access" : "private",
   "function_name" : "android::Parcel::readData",
   "linker_set_key" : "_ZNK7android6Parcel8readDataINSt3__16vectorIDsNS2_9allocatorIDsEEEELb1EEEiPT_NS0_9ReadFlagsE",
   "parameters" :
   [
    {
     "is_this_ptr" : true,
     "referenced_type" : "_ZTIPKN7android6ParcelE"
    },
    {
     "referenced_type" : "_ZTIPNSt3__16vectorIDsNS_9allocatorIDsEEEE"
    },
    {
     "default_arg" : true,
     "referenced_type" : "_ZTIN7android6Parcel9ReadFlagsE"
    }
   ],
   "return_type" : "_ZTIi",
   "source_file" : "frameworks/native/libs/binder/include/binder/Parcel.h",
   "template_args" : [ "_ZTINSt3__16vectorIDsNS_9allocatorIDsEEEE" ]
  },
  {
   "access" : "private",
   "function_name" : "android::Parcel::readData",
   "linker_set_key" : "_ZNK7android6Parcel8readDataINSt3__16vectorINS2_10unique_ptrINS2_12basic_stringIcNS2_11char_traitsIcEENS2_9allocatorIcEEEENS2_14default_deleteISA_EEEENS8_ISD_EEEELb1EEEiPT_NS0_9ReadFlagsE",
   "parameters" :
   [
    {
     "is_this_ptr" : true,
     "referenced_type" : "_ZTIPKN7android6ParcelE"
    },
    {
     "referenced_type" : "_ZTIPNSt3__16vectorINS_10unique_ptrINS_12basic_stringIcNS_11char_traitsIcEENS_9allocatorIcEEEENS_14default_deleteIS7_EEEENS5_ISA_EEEE"
    },
    {
     "default_arg" : true,
     "referenced_type" : "_ZTIN7android6Parcel9ReadFlagsE"
    }
   ],
   "return_type" : "_ZTIi",
   "source_file" : "frameworks/native/libs/binder/include/binder/Parcel.h",
   "template_args" :
   [
    "_ZTINSt3__16vectorINS_10unique_ptrINS_12basic_stringIcNS_11char_traitsIcEENS_9allocatorIcEEEENS_14default_deleteIS7_EEEENS5_ISA_EEEE"
   ]
  },
  {
   "access" : "private",
   "function_name" : "android::Parcel::readData",
   "linker_set_key" : "_ZNK7android6Parcel8readDataINSt3__16vectorINS2_10unique_ptrINS_8String16ENS2_14default_deleteIS5_EEEENS2_9allocatorIS8_EEEELb1EEEiPT_NS0_9ReadFlagsE",
   "parameters" :
   [
    {
     "is_this_ptr" : true,
     "referenced_type" : "_ZTIPKN7android6ParcelE"
    },
    {
     "referenced_type" : "_ZTIPNSt3__16vectorINS_10unique_ptrIN7android8String16ENS_14default_deleteIS3_EEEENS_9allocatorIS6_EEEE"
    },
    {
     "default_arg" : true,
     "referenced_type" : "_ZTIN7android6Parcel9ReadFlagsE"
    }
   ],
   "return_type" : "_ZTIi",
   "source_file" : "frameworks/native/libs/binder/include/binder/Parcel.h",
   "template_args" :
   [
    "_ZTINSt3__16vectorINS_10unique_ptrIN7android8String16ENS_14default_deleteIS3_EEEENS_9allocatorIS6_EEEE"
   ]
  },
  {
   "access" : "private",
   "function_name" : "android::Parcel::readData",
   "linker_set_key" : "_ZNK7android6Parcel8readDataINSt3__16vectorINS2_12basic_stringIcNS2_11char_traitsIcEENS2_9allocatorIcEEEENS7_IS9_EEEELb1EEEiPT_NS0_9ReadFlagsE",
   "parameters" :
   [
    {
     "is_this_ptr" : true,
     "referenced_type" : "_ZTIPKN7android6ParcelE"
    },
    {
     "referenced_type" : "_ZTIPNSt3__16vectorINS_12basic_stringIcNS_11char_traitsIcEENS_9allocatorIcEEEENS4_IS6_EEEE"
    },
    {
     "default_arg" : true,
     "referenced_type" : "_ZTIN7android6Parcel9ReadFlagsE"
    }
   ],
   "return_type" : "_ZTIi",
   "source_file" : "frameworks/native/libs/binder/include/binder/Parcel.h",
   "template_args" :
   [
    "_ZTINSt3__16vectorINS_12basic_stringIcNS_11char_traitsIcEENS_9allocatorIcEEEENS4_IS6_EEEE"
   ]
  },
  {
   "access" : "private",
   "function_name" : "android::Parcel::readData",
   "linker_set_key" : "_ZNK7android6Parcel8readDataINSt3__16vectorINS2_8optionalINS2_12basic_stringIcNS2_11char_traitsIcEENS2_9allocatorIcEEEEEENS8_ISB_EEEELb1EEEiPT_NS0_9ReadFlagsE",
   "parameters" :
   [
    {
     "is_this_ptr" : true,
     "referenced_type" : "_ZTIPKN7android6ParcelE"
    },
    {
     "referenced_type" : "_ZTIPNSt3__16vectorINS_8optionalINS_12basic_stringIcNS_11char_traitsIcEENS_9allocatorIcEEEEEENS5_IS8_EEEE"
    },
    {
     "default_arg" : true,
     "referenced_type" : "_ZTIN7android6Parcel9ReadFlagsE"
    }
   ],
   "return_type" : "_ZTIi",
   "source_file" : "frameworks/native/libs/binder/include/binder/Parcel.h",
   "template_args" :
   [
    "_ZTINSt3__16vectorINS_8optionalINS_12basic_stringIcNS_11char_traitsIcEENS_9allocatorIcEEEEEENS5_IS8_EEEE"
   ]
  },
  {
   "access" : "private",
   "function_name" : "android::Parcel::readData",
   "linker_set_key" : "_ZNK7android6Parcel8readDataINSt3__16vectorINS2_8optionalINS_8String16EEENS2_9allocatorIS6_EEEELb1EEEiPT_NS0_9ReadFlagsE",
   "parameters" :
   [
    {
     "is_this_ptr" : true,
     "referenced_type" : "_ZTIPKN7android6ParcelE"
    },
    {
     "referenced_type" : "_ZTIPNSt3__16vectorINS_8optionalIN7android8String16EEENS_9allocatorIS4_EEEE"
    },
    {
     "default_arg" : true,
     "referenced_type" : "_ZTIN7android6Parcel9ReadFlagsE"
    }
   ],
   "return_type" : "_ZTIi",
   "source_file" : "frameworks/native/libs/binder/include/binder/Parcel.h",
   "template_args" :
   [
    "_ZTINSt3__16vectorINS_8optionalIN7android8String16EEENS_9allocatorIS4_EEEE"
   ]
  },
  {
   "access" : "private",
   "function_name" : "android::Parcel::readData",
   "linker_set_key" : "_ZNK7android6Parcel8readDataINSt3__16vectorINS_2spINS_7IBinderEEENS2_9allocatorIS6_EEEELb1EEEiPT_NS0_9ReadFlagsE",
   "parameters" :
   [
    {
     "is_this_ptr" : true,
     "referenced_type" : "_ZTIPKN7android6ParcelE"
    },
    {
     "referenced_type" : "_ZTIPNSt3__16vectorIN7android2spINS1_7IBinderEEENS_9allocatorIS4_EEEE"
    },
    {
     "default_arg" : true,
     "referenced_type" : "_ZTIN7android6Parcel9ReadFlagsE"
    }
   ],
   "return_type" : "_ZTIi",
   "source_file" : "frameworks/native/libs/binder/include/binder/Parcel.h",
   "template_args" :
   [
    "_ZTINSt3__16vectorIN7android2spINS1_7IBinderEEENS_9allocatorIS4_EEEE"
   ]
  },
  {
   "access" : "private",
   "function_name" : "android::Parcel::readData",
   "linker_set_key" : "_ZNK7android6Parcel8readDataINSt3__16vectorINS_4base14unique_fd_implINS4_13DefaultCloserEEENS2_9allocatorIS7_EEEELb1EEEiPT_NS0_9ReadFlagsE",
   "parameters" :
   [
    {
     "is_this_ptr" : true,
     "referenced_type" : "_ZTIPKN7android6ParcelE"
    },
    {
     "referenced_type" : "_ZTIPNSt3__16vectorIN7android4base14unique_fd_implINS2_13DefaultCloserEEENS_9allocatorIS5_EEEE"
    },
    {
     "default_arg" : true,
     "referenced_type" : "_ZTIN7android6Parcel9ReadFlagsE"
    }
   ],
   "return_type" : "_ZTIi",
   "source_file" : "frameworks/native/libs/binder/include/binder/Parcel.h",
   "template_args" :
   [
    "_ZTINSt3__16vectorIN7android4base14unique_fd_implINS2_13DefaultCloserEEENS_9allocatorIS5_EEEE"
   ]
  },
  {
   "access" : "private",
   "function_name" : "android::Parcel::readData",
   "linker_set_key" : "_ZNK7android6Parcel8readDataINSt3__16vectorINS_8String16ENS2_9allocatorIS4_EEEELb1EEEiPT_NS0_9ReadFlagsE",
   "parameters" :
   [
    {
     "is_this_ptr" : true,
     "referenced_type" : "_ZTIPKN7android6ParcelE"
    },
    {
     "referenced_type" : "_ZTIPNSt3__16vectorIN7android8String16ENS_9allocatorIS2_EEEE"
    },
    {
     "default_arg" : true,
     "referenced_type" : "_ZTIN7android6Parcel9ReadFlagsE"
    }
   ],
   "return_type" : "_ZTIi",
   "source_file" : "frameworks/native/libs/binder/include/binder/Parcel.h",
   "template_args" : [ "_ZTINSt3__16vectorIN7android8String16ENS_9allocatorIS2_EEEE" ]
  },
  {
   "access" : "private",
   "function_name" : "android::Parcel::readData",
   "linker_set_key" : "_ZNK7android6Parcel8readDataINSt3__16vectorIaNS2_9allocatorIaEEEELb1EEEiPT_NS0_9ReadFlagsE",
   "parameters" :
   [
    {
     "is_this_ptr" : true,
     "referenced_type" : "_ZTIPKN7android6ParcelE"
    },
    {
     "referenced_type" : "_ZTIPNSt3__16vectorIaNS_9allocatorIaEEEE"
    },
    {
     "default_arg" : true,
     "referenced_type" : "_ZTIN7android6Parcel9ReadFlagsE"
    }
   ],
   "return_type" : "_ZTIi",
   "source_file" : "frameworks/native/libs/binder/include/binder/Parcel.h",
   "template_args" : [ "_ZTINSt3__16vectorIaNS_9allocatorIaEEEE" ]
  },
  {
   "access" : "private",
   "function_name" : "android::Parcel::readData",
   "linker_set_key" : "_ZNK7android6Parcel8readDataINSt3__16vectorIbNS2_9allocatorIbEEEELb1EEEiPT_NS0_9ReadFlagsE",
   "parameters" :
   [
    {
     "is_this_ptr" : true,
     "referenced_type" : "_ZTIPKN7android6ParcelE"
    },
    {
     "referenced_type" : "_ZTIPNSt3__16vectorIbNS_9allocatorIbEEEE"
    },
    {
     "default_arg" : true,
     "referenced_type" : "_ZTIN7android6Parcel9ReadFlagsE"
    }
   ],
   "return_type" : "_ZTIi",
   "source_file" : "frameworks/native/libs/binder/include/binder/Parcel.h",
   "template_args" : [ "_ZTINSt3__16vectorIbNS_9allocatorIbEEEE" ]
  },
  {
   "access" : "private",
   "function_name" : "android::Parcel::readData",
   "linker_set_key" : "_ZNK7android6Parcel8readDataINSt3__16vectorIdNS2_9allocatorIdEEEELb1EEEiPT_NS0_9ReadFlagsE",
   "parameters" :
   [
    {
     "is_this_ptr" : true,
     "referenced_type" : "_ZTIPKN7android6ParcelE"
    },
    {
     "referenced_type" : "_ZTIPNSt3__16vectorIdNS_9allocatorIdEEEE"
    },
    {
     "default_arg" : true,
     "referenced_type" : "_ZTIN7android6Parcel9ReadFlagsE"
    }
   ],
   "return_type" : "_ZTIi",
   "source_file" : "frameworks/native/libs/binder/include/binder/Parcel.h",
   "template_args" : [ "_ZTINSt3__16vectorIdNS_9allocatorIdEEEE" ]
  },
  {
   "access" : "private",
   "function_name" : "android::Parcel::readData",
   "linker_set_key" : "_ZNK7android6Parcel8readDataINSt3__16vectorIfNS2_9allocatorIfEEEELb1EEEiPT_NS0_9ReadFlagsE",
   "parameters" :
   [
    {
     "is_this_ptr" : true,
     "referenced_type" : "_ZTIPKN7android6ParcelE"
    },
    {
     "referenced_type" : "_ZTIPNSt3__16vectorIfNS_9allocatorIfEEEE"
    },
    {
     "default_arg" : true,
     "referenced_type" : "_ZTIN7android6Parcel9ReadFlagsE"
    }
   ],
   "return_type" : "_ZTIi",
   "source_file" : "frameworks/native/libs/binder/include/binder/Parcel.h",
   "template_args" : [ "_ZTINSt3__16vectorIfNS_9allocatorIfEEEE" ]
  },
  {
   "access" : "private",
   "function_name" : "android::Parcel::readData",
   "linker_set_key" : "_ZNK7android6Parcel8readDataINSt3__16vectorIhNS2_9allocatorIhEEEELb1EEEiPT_NS0_9ReadFlagsE",
   "parameters" :
   [
    {
     "is_this_ptr" : true,
     "referenced_type" : "_ZTIPKN7android6ParcelE"
    },
    {
     "referenced_type" : "_ZTIPNSt3__16vectorIhNS_9allocatorIhEEEE"
    },
    {
     "default_arg" : true,
     "referenced_type" : "_ZTIN7android6Parcel9ReadFlagsE"
    }
   ],
   "return_type" : "_ZTIi",
   "source_file" : "frameworks/native/libs/binder/include/binder/Parcel.h",
   "template_args" : [ "_ZTINSt3__16vectorIhNS_9allocatorIhEEEE" ]
  },
  {
   "access" : "private",
   "function_name" : "android::Parcel::readData",
   "linker_set_key" : "_ZNK7android6Parcel8readDataINSt3__16vectorIiNS2_9allocatorIiEEEELb1EEEiPT_NS0_9ReadFlagsE",
   "parameters" :
   [
    {
     "is_this_ptr" : true,
     "referenced_type" : "_ZTIPKN7android6ParcelE"
    },
    {
     "referenced_type" : "_ZTIPNSt3__16vectorIiNS_9allocatorIiEEEE"
    },
    {
     "default_arg" : true,
     "referenced_type" : "_ZTIN7android6Parcel9ReadFlagsE"
    }
   ],
   "return_type" : "_ZTIi",
   "source_file" : "frameworks/native/libs/binder/include/binder/Parcel.h",
   "template_args" : [ "_ZTINSt3__16vectorIiNS_9allocatorIiEEEE" ]
  },
  {
   "access" : "private",
   "function_name" : "android::Parcel::readData",
   "linker_set_key" : "_ZNK7android6Parcel8readDataINSt3__16vectorIxNS2_9allocatorIxEEEELb1EEEiPT_NS0_9ReadFlagsE",
   "parameters" :
   [
    {
     "is_this_ptr" : true,
     "referenced_type" : "_ZTIPKN7android6ParcelE"
    },
    {
     "referenced_type" : "_ZTIPNSt3__16vectorIxNS_9allocatorIxEEEE"
    },
    {
     "default_arg" : true,
     "referenced_type" : "_ZTIN7android6Parcel9ReadFlagsE"
    }
   ],
   "return_type" : "_ZTIi",
   "source_file" : "frameworks/native/libs/binder/include/binder/Parcel.h",
   "template_args" : [ "_ZTINSt3__16vectorIxNS_9allocatorIxEEEE" ]
  },
  {
   "access" : "private",
   "function_name" : "android::Parcel::readData",
   "linker_set_key" : "_ZNK7android6Parcel8readDataINSt3__16vectorIyNS2_9allocatorIyEEEELb1EEEiPT_NS0_9ReadFlagsE",
   "parameters" :
   [
    {
     "is_this_ptr" : true,
     "referenced_type" : "_ZTIPKN7android6ParcelE"
    },
    {
     "referenced_type" : "_ZTIPNSt3__16vectorIyNS_9allocatorIyEEEE"
    },
    {
     "default_arg" : true,
     "referenced_type" : "_ZTIN7android6Parcel9ReadFlagsE"
    }
   ],
   "return_type" : "_ZTIi",
   "source_file" : "frameworks/native/libs/binder/include/binder/Parcel.h",
   "template_args" : [ "_ZTINSt3__16vectorIyNS_9allocatorIyEEEE" ]
  },
  {
   "access" : "private",
   "function_name" : "android::Parcel::readData",
   "linker_set_key" : "_ZNK7android6Parcel8readDataINSt3__18optionalINS2_12basic_stringIcNS2_11char_traitsIcEENS2_9allocatorIcEEEEEELb1EEEiPT_",
   "parameters" :
   [
    {
     "is_this_ptr" : true,
     "referenced_type" : "_ZTIPKN7android6ParcelE"
    },
    {
     "referenced_type" : "_ZTIPNSt3__18optionalINS_12basic_stringIcNS_11char_traitsIcEENS_9allocatorIcEEEEEE"
    }
   ],
   "return_type" : "_ZTIi",
   "source_file" : "frameworks/native/libs/binder/include/binder/Parcel.h",
   "template_args" :
   [
    "_ZTINSt3__18optionalINS_12basic_stringIcNS_11char_traitsIcEENS_9allocatorIcEEEEEE"
   ]
  },
  {
   "access" : "private",
   "function_name" : "android::Parcel::readData",
   "linker_set_key" : "_ZNK7android6Parcel8readDataINSt3__18optionalINS2_6vectorIDsNS2_9allocatorIDsEEEEEELb1EEEiPT_",
   "parameters" :
   [
    {
     "is_this_ptr" : true,
     "referenced_type" : "_ZTIPKN7android6ParcelE"
    },
    {
     "referenced_type" : "_ZTIPNSt3__18optionalINS_6vectorIDsNS_9allocatorIDsEEEEEE"
    }
   ],
   "return_type" : "_ZTIi",
   "source_file" : "frameworks/native/libs/binder/include/binder/Parcel.h",
   "template_args" : [ "_ZTINSt3__18optionalINS_6vectorIDsNS_9allocatorIDsEEEEEE" ]
  },
  {
   "access" : "private",
   "function_name" : "android::Parcel::readData",
   "linker_set_key" : "_ZNK7android6Parcel8readDataINSt3__18optionalINS2_6vectorINS3_INS2_12basic_stringIcNS2_11char_traitsIcEENS2_9allocatorIcEEEEEENS8_ISB_EEEEEELb1EEEiPT_",
   "parameters" :
   [
    {
     "is_this_ptr" : true,
     "referenced_type" : "_ZTIPKN7android6ParcelE"
    },
    {
     "referenced_type" : "_ZTIPNSt3__18optionalINS_6vectorINS0_INS_12basic_stringIcNS_11char_traitsIcEENS_9allocatorIcEEEEEENS5_IS8_EEEEEE"
    }
   ],
   "return_type" : "_ZTIi",
   "source_file" : "frameworks/native/libs/binder/include/binder/Parcel.h",
   "template_args" :
   [
    "_ZTINSt3__18optionalINS_6vectorINS0_INS_12basic_stringIcNS_11char_traitsIcEENS_9allocatorIcEEEEEENS5_IS8_EEEEEE"
   ]
  },
  {
   "access" : "private",
   "function_name" : "android::Parcel::readData",
   "linker_set_key" : "_ZNK7android6Parcel8readDataINSt3__18optionalINS2_6vectorINS3_INS_8String16EEENS2_9allocatorIS6_EEEEEELb1EEEiPT_",
   "parameters" :
   [
    {
     "is_this_ptr" : true,
     "referenced_type" : "_ZTIPKN7android6ParcelE"
    },
    {
     "referenced_type" : "_ZTIPNSt3__18optionalINS_6vectorINS0_IN7android8String16EEENS_9allocatorIS4_EEEEEE"
    }
   ],
   "return_type" : "_ZTIi",
   "source_file" : "frameworks/native/libs/binder/include/binder/Parcel.h",
   "template_args" :
   [
    "_ZTINSt3__18optionalINS_6vectorINS0_IN7android8String16EEENS_9allocatorIS4_EEEEEE"
   ]
  },
  {
   "access" : "private",
   "function_name" : "android::Parcel::readData",
   "linker_set_key" : "_ZNK7android6Parcel8readDataINSt3__18optionalINS2_6vectorINS_2spINS_7IBinderEEENS2_9allocatorIS7_EEEEEELb1EEEiPT_",
   "parameters" :
   [
    {
     "is_this_ptr" : true,
     "referenced_type" : "_ZTIPKN7android6ParcelE"
    },
    {
     "referenced_type" : "_ZTIPNSt3__18optionalINS_6vectorIN7android2spINS2_7IBinderEEENS_9allocatorIS5_EEEEEE"
    }
   ],
   "return_type" : "_ZTIi",
   "source_file" : "frameworks/native/libs/binder/include/binder/Parcel.h",
   "template_args" :
   [
    "_ZTINSt3__18optionalINS_6vectorIN7android2spINS2_7IBinderEEENS_9allocatorIS5_EEEEEE"
   ]
  },
  {
   "access" : "private",
   "function_name" : "android::Parcel::readData",
   "linker_set_key" : "_ZNK7android6Parcel8readDataINSt3__18optionalINS2_6vectorINS_4base14unique_fd_implINS5_13DefaultCloserEEENS2_9allocatorIS8_EEEEEELb1EEEiPT_",
   "parameters" :
   [
    {
     "is_this_ptr" : true,
     "referenced_type" : "_ZTIPKN7android6ParcelE"
    },
    {
     "referenced_type" : "_ZTIPNSt3__18optionalINS_6vectorIN7android4base14unique_fd_implINS3_13DefaultCloserEEENS_9allocatorIS6_EEEEEE"
    }
   ],
   "return_type" : "_ZTIi",
   "source_file" : "frameworks/native/libs/binder/include/binder/Parcel.h",
   "template_args" :
   [
    "_ZTINSt3__18optionalINS_6vectorIN7android4base14unique_fd_implINS3_13DefaultCloserEEENS_9allocatorIS6_EEEEEE"
   ]
  },
  {
   "access" : "private",
   "function_name" : "android::Parcel::readData",
   "linker_set_key" : "_ZNK7android6Parcel8readDataINSt3__18optionalINS2_6vectorIaNS2_9allocatorIaEEEEEELb1EEEiPT_",
   "parameters" :
   [
    {
     "is_this_ptr" : true,
     "referenced_type" : "_ZTIPKN7android6ParcelE"
    },
    {
     "referenced_type" : "_ZTIPNSt3__18optionalINS_6vectorIaNS_9allocatorIaEEEEEE"
    }
   ],
   "return_type" : "_ZTIi",
   "source_file" : "frameworks/native/libs/binder/include/binder/Parcel.h",
   "template_args" : [ "_ZTINSt3__18optionalINS_6vectorIaNS_9allocatorIaEEEEEE" ]
  },
  {
   "access" : "private",
   "function_name" : "android::Parcel::readData",
   "linker_set_key" : "_ZNK7android6Parcel8readDataINSt3__18optionalINS2_6vectorIbNS2_9allocatorIbEEEEEELb1EEEiPT_",
   "parameters" :
   [
    {
     "is_this_ptr" : true,
     "referenced_type" : "_ZTIPKN7android6ParcelE"
    },
    {
     "referenced_type" : "_ZTIPNSt3__18optionalINS_6vectorIbNS_9allocatorIbEEEEEE"
    }
   ],
   "return_type" : "_ZTIi",
   "source_file" : "frameworks/native/libs/binder/include/binder/Parcel.h",
   "template_args" : [ "_ZTINSt3__18optionalINS_6vectorIbNS_9allocatorIbEEEEEE" ]
  },
  {
   "access" : "private",
   "function_name" : "android::Parcel::readData",
   "linker_set_key" : "_ZNK7android6Parcel8readDataINSt3__18optionalINS2_6vectorIdNS2_9allocatorIdEEEEEELb1EEEiPT_",
   "parameters" :
   [
    {
     "is_this_ptr" : true,
     "referenced_type" : "_ZTIPKN7android6ParcelE"
    },
    {
     "referenced_type" : "_ZTIPNSt3__18optionalINS_6vectorIdNS_9allocatorIdEEEEEE"
    }
   ],
   "return_type" : "_ZTIi",
   "source_file" : "frameworks/native/libs/binder/include/binder/Parcel.h",
   "template_args" : [ "_ZTINSt3__18optionalINS_6vectorIdNS_9allocatorIdEEEEEE" ]
  },
  {
   "access" : "private",
   "function_name" : "android::Parcel::readData",
   "linker_set_key" : "_ZNK7android6Parcel8readDataINSt3__18optionalINS2_6vectorIfNS2_9allocatorIfEEEEEELb1EEEiPT_",
   "parameters" :
   [
    {
     "is_this_ptr" : true,
     "referenced_type" : "_ZTIPKN7android6ParcelE"
    },
    {
     "referenced_type" : "_ZTIPNSt3__18optionalINS_6vectorIfNS_9allocatorIfEEEEEE"
    }
   ],
   "return_type" : "_ZTIi",
   "source_file" : "frameworks/native/libs/binder/include/binder/Parcel.h",
   "template_args" : [ "_ZTINSt3__18optionalINS_6vectorIfNS_9allocatorIfEEEEEE" ]
  },
  {
   "access" : "private",
   "function_name" : "android::Parcel::readData",
   "linker_set_key" : "_ZNK7android6Parcel8readDataINSt3__18optionalINS2_6vectorIhNS2_9allocatorIhEEEEEELb1EEEiPT_",
   "parameters" :
   [
    {
     "is_this_ptr" : true,
     "referenced_type" : "_ZTIPKN7android6ParcelE"
    },
    {
     "referenced_type" : "_ZTIPNSt3__18optionalINS_6vectorIhNS_9allocatorIhEEEEEE"
    }
   ],
   "return_type" : "_ZTIi",
   "source_file" : "frameworks/native/libs/binder/include/binder/Parcel.h",
   "template_args" : [ "_ZTINSt3__18optionalINS_6vectorIhNS_9allocatorIhEEEEEE" ]
  },
  {
   "access" : "private",
   "function_name" : "android::Parcel::readData",
   "linker_set_key" : "_ZNK7android6Parcel8readDataINSt3__18optionalINS2_6vectorIiNS2_9allocatorIiEEEEEELb1EEEiPT_",
   "parameters" :
   [
    {
     "is_this_ptr" : true,
     "referenced_type" : "_ZTIPKN7android6ParcelE"
    },
    {
     "referenced_type" : "_ZTIPNSt3__18optionalINS_6vectorIiNS_9allocatorIiEEEEEE"
    }
   ],
   "return_type" : "_ZTIi",
   "source_file" : "frameworks/native/libs/binder/include/binder/Parcel.h",
   "template_args" : [ "_ZTINSt3__18optionalINS_6vectorIiNS_9allocatorIiEEEEEE" ]
  },
  {
   "access" : "private",
   "function_name" : "android::Parcel::readData",
   "linker_set_key" : "_ZNK7android6Parcel8readDataINSt3__18optionalINS2_6vectorIxNS2_9allocatorIxEEEEEELb1EEEiPT_",
   "parameters" :
   [
    {
     "is_this_ptr" : true,
     "referenced_type" : "_ZTIPKN7android6ParcelE"
    },
    {
     "referenced_type" : "_ZTIPNSt3__18optionalINS_6vectorIxNS_9allocatorIxEEEEEE"
    }
   ],
   "return_type" : "_ZTIi",
   "source_file" : "frameworks/native/libs/binder/include/binder/Parcel.h",
   "template_args" : [ "_ZTINSt3__18optionalINS_6vectorIxNS_9allocatorIxEEEEEE" ]
  },
  {
   "access" : "private",
   "function_name" : "android::Parcel::readData",
   "linker_set_key" : "_ZNK7android6Parcel8readDataINSt3__18optionalINS2_6vectorIyNS2_9allocatorIyEEEEEELb1EEEiPT_",
   "parameters" :
   [
    {
     "is_this_ptr" : true,
     "referenced_type" : "_ZTIPKN7android6ParcelE"
    },
    {
     "referenced_type" : "_ZTIPNSt3__18optionalINS_6vectorIyNS_9allocatorIyEEEEEE"
    }
   ],
   "return_type" : "_ZTIi",
   "source_file" : "frameworks/native/libs/binder/include/binder/Parcel.h",
   "template_args" : [ "_ZTINSt3__18optionalINS_6vectorIyNS_9allocatorIyEEEEEE" ]
  },
  {
   "access" : "private",
   "function_name" : "android::Parcel::readData",
   "linker_set_key" : "_ZNK7android6Parcel8readDataINSt3__18optionalINS_8String16EEELb1EEEiPT_",
   "parameters" :
   [
    {
     "is_this_ptr" : true,
     "referenced_type" : "_ZTIPKN7android6ParcelE"
    },
    {
     "referenced_type" : "_ZTIPNSt3__18optionalIN7android8String16EEE"
    }
   ],
   "return_type" : "_ZTIi",
   "source_file" : "frameworks/native/libs/binder/include/binder/Parcel.h",
   "template_args" : [ "_ZTINSt3__18optionalIN7android8String16EEE" ]
  },
  {
   "function_name" : "android::Parcel::dataAvail",
   "linker_set_key" : "_ZNK7android6Parcel9dataAvailEv",
   "parameters" :
   [
    {
     "is_this_ptr" : true,
     "referenced_type" : "_ZTIPKN7android6ParcelE"
    }
   ],
   "return_type" : "_ZTIj",
   "source_file" : "frameworks/native/libs/binder/include/binder/Parcel.h"
  },
  {
   "function_name" : "android::Parcel::readFloat",
   "linker_set_key" : "_ZNK7android6Parcel9readFloatEPf",
   "parameters" :
   [
    {
     "is_this_ptr" : true,
     "referenced_type" : "_ZTIPKN7android6ParcelE"
    },
    {
     "referenced_type" : "_ZTIPf"
    }
   ],
   "return_type" : "_ZTIi",
   "source_file" : "frameworks/native/libs/binder/include/binder/Parcel.h"
  },
  {
   "function_name" : "android::Parcel::readFloat",
   "linker_set_key" : "_ZNK7android6Parcel9readFloatEv",
   "parameters" :
   [
    {
     "is_this_ptr" : true,
     "referenced_type" : "_ZTIPKN7android6ParcelE"
    }
   ],
   "return_type" : "_ZTIf",
   "source_file" : "frameworks/native/libs/binder/include/binder/Parcel.h"
  },
  {
   "function_name" : "android::Parcel::readInt32",
   "linker_set_key" : "_ZNK7android6Parcel9readInt32EPi",
   "parameters" :
   [
    {
     "is_this_ptr" : true,
     "referenced_type" : "_ZTIPKN7android6ParcelE"
    },
    {
     "referenced_type" : "_ZTIPi"
    }
   ],
   "return_type" : "_ZTIi",
   "source_file" : "frameworks/native/libs/binder/include/binder/Parcel.h"
  },
  {
   "function_name" : "android::Parcel::readInt32",
   "linker_set_key" : "_ZNK7android6Parcel9readInt32Ev",
   "parameters" :
   [
    {
     "is_this_ptr" : true,
     "referenced_type" : "_ZTIPKN7android6ParcelE"
    }
   ],
   "return_type" : "_ZTIi",
   "source_file" : "frameworks/native/libs/binder/include/binder/Parcel.h"
  },
  {
   "function_name" : "android::Parcel::readInt64",
   "linker_set_key" : "_ZNK7android6Parcel9readInt64EPx",
   "parameters" :
   [
    {
     "is_this_ptr" : true,
     "referenced_type" : "_ZTIPKN7android6ParcelE"
    },
    {
     "referenced_type" : "_ZTIPx"
    }
   ],
   "return_type" : "_ZTIi",
   "source_file" : "frameworks/native/libs/binder/include/binder/Parcel.h"
  },
  {
   "function_name" : "android::Parcel::readInt64",
   "linker_set_key" : "_ZNK7android6Parcel9readInt64Ev",
   "parameters" :
   [
    {
     "is_this_ptr" : true,
     "referenced_type" : "_ZTIPKN7android6ParcelE"
    }
   ],
   "return_type" : "_ZTIx",
   "source_file" : "frameworks/native/libs/binder/include/binder/Parcel.h"
  },
  {
   "function_name" : "android::binder::Status::exceptionCode",
   "linker_set_key" : "_ZNK7android6binder6Status13exceptionCodeEv",
   "parameters" :
   [
    {
     "is_this_ptr" : true,
     "referenced_type" : "_ZTIPKN7android6binder6StatusE"
    }
   ],
   "return_type" : "_ZTIi",
   "source_file" : "frameworks/native/libs/binder/include/binder/Status.h"
  },
  {
   "function_name" : "android::binder::Status::exceptionMessage",
   "linker_set_key" : "_ZNK7android6binder6Status16exceptionMessageEv",
   "parameters" :
   [
    {
     "is_this_ptr" : true,
     "referenced_type" : "_ZTIPKN7android6binder6StatusE"
    }
   ],
   "return_type" : "_ZTIRKN7android7String8E",
   "source_file" : "frameworks/native/libs/binder/include/binder/Status.h"
  },
  {
   "function_name" : "android::binder::Status::transactionError",
   "linker_set_key" : "_ZNK7android6binder6Status16transactionErrorEv",
   "parameters" :
   [
    {
     "is_this_ptr" : true,
     "referenced_type" : "_ZTIPKN7android6binder6StatusE"
    }
   ],
   "return_type" : "_ZTIi",
   "source_file" : "frameworks/native/libs/binder/include/binder/Status.h"
  },
  {
   "function_name" : "android::binder::Status::serviceSpecificErrorCode",
   "linker_set_key" : "_ZNK7android6binder6Status24serviceSpecificErrorCodeEv",
   "parameters" :
   [
    {
     "is_this_ptr" : true,
     "referenced_type" : "_ZTIPKN7android6binder6StatusE"
    }
   ],
   "return_type" : "_ZTIi",
   "source_file" : "frameworks/native/libs/binder/include/binder/Status.h"
  },
  {
   "function_name" : "android::binder::Status::isOk",
   "linker_set_key" : "_ZNK7android6binder6Status4isOkEv",
   "parameters" :
   [
    {
     "is_this_ptr" : true,
     "referenced_type" : "_ZTIPKN7android6binder6StatusE"
    }
   ],
   "return_type" : "_ZTIb",
   "source_file" : "frameworks/native/libs/binder/include/binder/Status.h"
  },
  {
   "function_name" : "android::HexDump::carrayStyle",
   "linker_set_key" : "_ZNK7android7HexDump11carrayStyleEv",
   "parameters" :
   [
    {
     "is_this_ptr" : true,
     "referenced_type" : "_ZTIPKN7android7HexDumpE"
    }
   ],
   "return_type" : "_ZTIb",
   "source_file" : "frameworks/native/libs/binder/include/binder/TextOutput.h"
  },
  {
   "function_name" : "android::HexDump::bytesPerLine",
   "linker_set_key" : "_ZNK7android7HexDump12bytesPerLineEv",
   "parameters" :
   [
    {
     "is_this_ptr" : true,
     "referenced_type" : "_ZTIPKN7android7HexDumpE"
    }
   ],
   "return_type" : "_ZTIj",
   "source_file" : "frameworks/native/libs/binder/include/binder/TextOutput.h"
  },
  {
   "function_name" : "android::HexDump::singleLineCutoff",
   "linker_set_key" : "_ZNK7android7HexDump16singleLineCutoffEv",
   "parameters" :
   [
    {
     "is_this_ptr" : true,
     "referenced_type" : "_ZTIPKN7android7HexDumpE"
    }
   ],
   "return_type" : "_ZTIi",
   "source_file" : "frameworks/native/libs/binder/include/binder/TextOutput.h"
  },
  {
   "function_name" : "android::HexDump::size",
   "linker_set_key" : "_ZNK7android7HexDump4sizeEv",
   "parameters" :
   [
    {
     "is_this_ptr" : true,
     "referenced_type" : "_ZTIPKN7android7HexDumpE"
    }
   ],
   "return_type" : "_ZTIj",
   "source_file" : "frameworks/native/libs/binder/include/binder/TextOutput.h"
  },
  {
   "function_name" : "android::HexDump::buffer",
   "linker_set_key" : "_ZNK7android7HexDump6bufferEv",
   "parameters" :
   [
    {
     "is_this_ptr" : true,
     "referenced_type" : "_ZTIPKN7android7HexDumpE"
    }
   ],
   "return_type" : "_ZTIPKv",
   "source_file" : "frameworks/native/libs/binder/include/binder/TextOutput.h"
  },
  {
   "function_name" : "android::HexDump::alignment",
   "linker_set_key" : "_ZNK7android7HexDump9alignmentEv",
   "parameters" :
   [
    {
     "is_this_ptr" : true,
     "referenced_type" : "_ZTIPKN7android7HexDumpE"
    }
   ],
   "return_type" : "_ZTIj",
   "source_file" : "frameworks/native/libs/binder/include/binder/TextOutput.h"
  },
  {
   "function_name" : "android::RefBase::printRefs",
   "linker_set_key" : "_ZNK7android7RefBase9printRefsEv",
   "parameters" :
   [
    {
     "is_this_ptr" : true,
     "referenced_type" : "_ZTIPKN7android7RefBaseE"
    }
   ],
   "return_type" : "_ZTIv",
   "source_file" : "system/core/libutils/include/utils/RefBase.h"
  },
  {
   "function_name" : "android::String8::appendPathCopy",
   "linker_set_key" : "_ZNK7android7String814appendPathCopyEPKc",
   "parameters" :
   [
    {
     "is_this_ptr" : true,
     "referenced_type" : "_ZTIPKN7android7String8E"
    },
    {
     "referenced_type" : "_ZTIPKc"
    }
   ],
   "return_type" : "_ZTIN7android7String8E",
   "source_file" : "system/core/libutils/include/utils/String8.h"
  },
  {
   "function_name" : "android::String8::appendPathCopy",
   "linker_set_key" : "_ZNK7android7String814appendPathCopyERKS0_",
   "parameters" :
   [
    {
     "is_this_ptr" : true,
     "referenced_type" : "_ZTIPKN7android7String8E"
    },
    {
     "referenced_type" : "_ZTIRKN7android7String8E"
    }
   ],
   "return_type" : "_ZTIN7android7String8E",
   "source_file" : "system/core/libutils/include/utils/String8.h"
  },
  {
   "function_name" : "android::String8::size",
   "linker_set_key" : "_ZNK7android7String84sizeEv",
   "parameters" :
   [
    {
     "is_this_ptr" : true,
     "referenced_type" : "_ZTIPKN7android7String8E"
    }
   ],
   "return_type" : "_ZTIj",
   "source_file" : "system/core/libutils/include/utils/String8.h"
  },
  {
   "function_name" : "android::String8::bytes",
   "linker_set_key" : "_ZNK7android7String85bytesEv",
   "parameters" :
   [
    {
     "is_this_ptr" : true,
     "referenced_type" : "_ZTIPKN7android7String8E"
    }
   ],
   "return_type" : "_ZTIj",
   "source_file" : "system/core/libutils/include/utils/String8.h"
  },
  {
   "function_name" : "android::String8::c_str",
   "linker_set_key" : "_ZNK7android7String85c_strEv",
   "parameters" :
   [
    {
     "is_this_ptr" : true,
     "referenced_type" : "_ZTIPKN7android7String8E"
    }
   ],
   "return_type" : "_ZTIPKc",
   "source_file" : "system/core/libutils/include/utils/String8.h"
  },
  {
   "function_name" : "android::String8::string",
   "linker_set_key" : "_ZNK7android7String86stringEv",
   "parameters" :
   [
    {
     "is_this_ptr" : true,
     "referenced_type" : "_ZTIPKN7android7String8E"
    }
   ],
   "return_type" : "_ZTIPKc",
   "source_file" : "system/core/libutils/include/utils/String8.h"
  },
  {
   "function_name" : "android::String8::compare",
   "linker_set_key" : "_ZNK7android7String87compareERKS0_",
   "parameters" :
   [
    {
     "is_this_ptr" : true,
     "referenced_type" : "_ZTIPKN7android7String8E"
    },
    {
     "referenced_type" : "_ZTIRKN7android7String8E"
    }
   ],
   "return_type" : "_ZTIi",
   "source_file" : "system/core/libutils/include/utils/String8.h"
  },
  {
   "function_name" : "android::String8::isEmpty",
   "linker_set_key" : "_ZNK7android7String87isEmptyEv",
   "parameters" :
   [
    {
     "is_this_ptr" : true,
     "referenced_type" : "_ZTIPKN7android7String8E"
    }
   ],
   "return_type" : "_ZTIb",
   "source_file" : "system/core/libutils/include/utils/String8.h"
  },
  {
   "function_name" : "android::String8::contains",
   "linker_set_key" : "_ZNK7android7String88containsEPKc",
   "parameters" :
   [
    {
     "is_this_ptr" : true,
     "referenced_type" : "_ZTIPKN7android7String8E"
    },
    {
     "referenced_type" : "_ZTIPKc"
    }
   ],
   "return_type" : "_ZTIb",
   "source_file" : "system/core/libutils/include/utils/String8.h"
  },
  {
   "function_name" : "android::String8::operator const char *",
   "linker_set_key" : "_ZNK7android7String8cvPKcEv",
   "parameters" :
   [
    {
     "is_this_ptr" : true,
     "referenced_type" : "_ZTIPKN7android7String8E"
    }
   ],
   "return_type" : "_ZTIPKc",
   "source_file" : "system/core/libutils/include/utils/String8.h"
  },
  {
   "function_name" : "android::String8::operator==",
   "linker_set_key" : "_ZNK7android7String8eqEPKc",
   "parameters" :
   [
    {
     "is_this_ptr" : true,
     "referenced_type" : "_ZTIPKN7android7String8E"
    },
    {
     "referenced_type" : "_ZTIPKc"
    }
   ],
   "return_type" : "_ZTIb",
   "source_file" : "system/core/libutils/include/utils/String8.h"
  },
  {
   "function_name" : "android::String8::operator==",
   "linker_set_key" : "_ZNK7android7String8eqERKS0_",
   "parameters" :
   [
    {
     "is_this_ptr" : true,
     "referenced_type" : "_ZTIPKN7android7String8E"
    },
    {
     "referenced_type" : "_ZTIRKN7android7String8E"
    }
   ],
   "return_type" : "_ZTIb",
   "source_file" : "system/core/libutils/include/utils/String8.h"
  },
  {
   "function_name" : "android::String8::operator>=",
   "linker_set_key" : "_ZNK7android7String8geEPKc",
   "parameters" :
   [
    {
     "is_this_ptr" : true,
     "referenced_type" : "_ZTIPKN7android7String8E"
    },
    {
     "referenced_type" : "_ZTIPKc"
    }
   ],
   "return_type" : "_ZTIb",
   "source_file" : "system/core/libutils/include/utils/String8.h"
  },
  {
   "function_name" : "android::String8::operator>=",
   "linker_set_key" : "_ZNK7android7String8geERKS0_",
   "parameters" :
   [
    {
     "is_this_ptr" : true,
     "referenced_type" : "_ZTIPKN7android7String8E"
    },
    {
     "referenced_type" : "_ZTIRKN7android7String8E"
    }
   ],
   "return_type" : "_ZTIb",
   "source_file" : "system/core/libutils/include/utils/String8.h"
  },
  {
   "function_name" : "android::String8::operator>",
   "linker_set_key" : "_ZNK7android7String8gtEPKc",
   "parameters" :
   [
    {
     "is_this_ptr" : true,
     "referenced_type" : "_ZTIPKN7android7String8E"
    },
    {
     "referenced_type" : "_ZTIPKc"
    }
   ],
   "return_type" : "_ZTIb",
   "source_file" : "system/core/libutils/include/utils/String8.h"
  },
  {
   "function_name" : "android::String8::operator>",
   "linker_set_key" : "_ZNK7android7String8gtERKS0_",
   "parameters" :
   [
    {
     "is_this_ptr" : true,
     "referenced_type" : "_ZTIPKN7android7String8E"
    },
    {
     "referenced_type" : "_ZTIRKN7android7String8E"
    }
   ],
   "return_type" : "_ZTIb",
   "source_file" : "system/core/libutils/include/utils/String8.h"
  },
  {
   "function_name" : "android::String8::operator<=",
   "linker_set_key" : "_ZNK7android7String8leEPKc",
   "parameters" :
   [
    {
     "is_this_ptr" : true,
     "referenced_type" : "_ZTIPKN7android7String8E"
    },
    {
     "referenced_type" : "_ZTIPKc"
    }
   ],
   "return_type" : "_ZTIb",
   "source_file" : "system/core/libutils/include/utils/String8.h"
  },
  {
   "function_name" : "android::String8::operator<=",
   "linker_set_key" : "_ZNK7android7String8leERKS0_",
   "parameters" :
   [
    {
     "is_this_ptr" : true,
     "referenced_type" : "_ZTIPKN7android7String8E"
    },
    {
     "referenced_type" : "_ZTIRKN7android7String8E"
    }
   ],
   "return_type" : "_ZTIb",
   "source_file" : "system/core/libutils/include/utils/String8.h"
  },
  {
   "function_name" : "android::String8::operator<",
   "linker_set_key" : "_ZNK7android7String8ltEPKc",
   "parameters" :
   [
    {
     "is_this_ptr" : true,
     "referenced_type" : "_ZTIPKN7android7String8E"
    },
    {
     "referenced_type" : "_ZTIPKc"
    }
   ],
   "return_type" : "_ZTIb",
   "source_file" : "system/core/libutils/include/utils/String8.h"
  },
  {
   "function_name" : "android::String8::operator<",
   "linker_set_key" : "_ZNK7android7String8ltERKS0_",
   "parameters" :
   [
    {
     "is_this_ptr" : true,
     "referenced_type" : "_ZTIPKN7android7String8E"
    },
    {
     "referenced_type" : "_ZTIRKN7android7String8E"
    }
   ],
   "return_type" : "_ZTIb",
   "source_file" : "system/core/libutils/include/utils/String8.h"
  },
  {
   "function_name" : "android::String8::operator!=",
   "linker_set_key" : "_ZNK7android7String8neEPKc",
   "parameters" :
   [
    {
     "is_this_ptr" : true,
     "referenced_type" : "_ZTIPKN7android7String8E"
    },
    {
     "referenced_type" : "_ZTIPKc"
    }
   ],
   "return_type" : "_ZTIb",
   "source_file" : "system/core/libutils/include/utils/String8.h"
  },
  {
   "function_name" : "android::String8::operator!=",
   "linker_set_key" : "_ZNK7android7String8neERKS0_",
   "parameters" :
   [
    {
     "is_this_ptr" : true,
     "referenced_type" : "_ZTIPKN7android7String8E"
    },
    {
     "referenced_type" : "_ZTIRKN7android7String8E"
    }
   ],
   "return_type" : "_ZTIb",
   "source_file" : "system/core/libutils/include/utils/String8.h"
  },
  {
   "function_name" : "android::String8::operator+",
   "linker_set_key" : "_ZNK7android7String8plEPKc",
   "parameters" :
   [
    {
     "is_this_ptr" : true,
     "referenced_type" : "_ZTIPKN7android7String8E"
    },
    {
     "referenced_type" : "_ZTIPKc"
    }
   ],
   "return_type" : "_ZTIN7android7String8E",
   "source_file" : "system/core/libutils/include/utils/String8.h"
  },
  {
   "function_name" : "android::String8::operator+",
   "linker_set_key" : "_ZNK7android7String8plERKS0_",
   "parameters" :
   [
    {
     "is_this_ptr" : true,
     "referenced_type" : "_ZTIPKN7android7String8E"
    },
    {
     "referenced_type" : "_ZTIRKN7android7String8E"
    }
   ],
   "return_type" : "_ZTIN7android7String8E",
   "source_file" : "system/core/libutils/include/utils/String8.h"
  },
  {
   "access" : "private",
   "function_name" : "android::BpBinder::PrivateAccessorForId::rpcAddress",
   "linker_set_key" : "_ZNK7android8BpBinder20PrivateAccessorForId10rpcAddressEv",
   "parameters" :
   [
    {
     "is_this_ptr" : true,
     "referenced_type" : "_ZTIPKN7android8BpBinder20PrivateAccessorForIdE"
    }
   ],
   "return_type" : "_ZTIRKN7android10RpcAddressE",
   "source_file" : "frameworks/native/libs/binder/include/binder/BpBinder.h"
  },
  {
   "access" : "private",
   "function_name" : "android::BpBinder::PrivateAccessorForId::rpcSession",
   "linker_set_key" : "_ZNK7android8BpBinder20PrivateAccessorForId10rpcSessionEv",
   "parameters" :
   [
    {
     "is_this_ptr" : true,
     "referenced_type" : "_ZTIPKN7android8BpBinder20PrivateAccessorForIdE"
    }
   ],
   "return_type" : "_ZTIRKN7android2spINS_10RpcSessionEEE",
   "source_file" : "frameworks/native/libs/binder/include/binder/BpBinder.h"
  },
  {
   "access" : "private",
   "function_name" : "android::BpBinder::PrivateAccessorForId::binderHandle",
   "linker_set_key" : "_ZNK7android8BpBinder20PrivateAccessorForId12binderHandleEv",
   "parameters" :
   [
    {
     "is_this_ptr" : true,
     "referenced_type" : "_ZTIPKN7android8BpBinder20PrivateAccessorForIdE"
    }
   ],
   "return_type" : "_ZTIi",
   "source_file" : "frameworks/native/libs/binder/include/binder/BpBinder.h"
  },
  {
   "function_name" : "android::BpBinder::getPrivateAccessorForId",
   "linker_set_key" : "_ZNK7android8BpBinder23getPrivateAccessorForIdEv",
   "parameters" :
   [
    {
     "is_this_ptr" : true,
     "referenced_type" : "_ZTIPKN7android8BpBinderE"
    }
   ],
   "return_type" : "_ZTIKN7android8BpBinder20PrivateAccessorForIdE",
   "source_file" : "frameworks/native/libs/binder/include/binder/BpBinder.h"
  },
  {
   "function_name" : "android::String16::string",
   "linker_set_key" : "_ZNK7android8String166stringEv",
   "parameters" :
   [
    {
     "is_this_ptr" : true,
     "referenced_type" : "_ZTIPKN7android8String16E"
    }
   ],
   "return_type" : "_ZTIPKDs",
   "source_file" : "system/core/libutils/include/utils/String16.h"
  },
  {
   "function_name" : "android::String16::compare",
   "linker_set_key" : "_ZNK7android8String167compareERKS0_",
   "parameters" :
   [
    {
     "is_this_ptr" : true,
     "referenced_type" : "_ZTIPKN7android8String16E"
    },
    {
     "referenced_type" : "_ZTIRKN7android8String16E"
    }
   ],
   "return_type" : "_ZTIi",
   "source_file" : "system/core/libutils/include/utils/String16.h"
  },
  {
   "function_name" : "android::String16::operator const char16_t *",
   "linker_set_key" : "_ZNK7android8String16cvPKDsEv",
   "parameters" :
   [
    {
     "is_this_ptr" : true,
     "referenced_type" : "_ZTIPKN7android8String16E"
    }
   ],
   "return_type" : "_ZTIPKDs",
   "source_file" : "system/core/libutils/include/utils/String16.h"
  },
  {
   "function_name" : "android::String16::operator==",
   "linker_set_key" : "_ZNK7android8String16eqEPKDs",
   "parameters" :
   [
    {
     "is_this_ptr" : true,
     "referenced_type" : "_ZTIPKN7android8String16E"
    },
    {
     "referenced_type" : "_ZTIPKDs"
    }
   ],
   "return_type" : "_ZTIb",
   "source_file" : "system/core/libutils/include/utils/String16.h"
  },
  {
   "function_name" : "android::String16::operator==",
   "linker_set_key" : "_ZNK7android8String16eqERKS0_",
   "parameters" :
   [
    {
     "is_this_ptr" : true,
     "referenced_type" : "_ZTIPKN7android8String16E"
    },
    {
     "referenced_type" : "_ZTIRKN7android8String16E"
    }
   ],
   "return_type" : "_ZTIb",
   "source_file" : "system/core/libutils/include/utils/String16.h"
  },
  {
   "function_name" : "android::String16::operator>=",
   "linker_set_key" : "_ZNK7android8String16geEPKDs",
   "parameters" :
   [
    {
     "is_this_ptr" : true,
     "referenced_type" : "_ZTIPKN7android8String16E"
    },
    {
     "referenced_type" : "_ZTIPKDs"
    }
   ],
   "return_type" : "_ZTIb",
   "source_file" : "system/core/libutils/include/utils/String16.h"
  },
  {
   "function_name" : "android::String16::operator>=",
   "linker_set_key" : "_ZNK7android8String16geERKS0_",
   "parameters" :
   [
    {
     "is_this_ptr" : true,
     "referenced_type" : "_ZTIPKN7android8String16E"
    },
    {
     "referenced_type" : "_ZTIRKN7android8String16E"
    }
   ],
   "return_type" : "_ZTIb",
   "source_file" : "system/core/libutils/include/utils/String16.h"
  },
  {
   "function_name" : "android::String16::operator>",
   "linker_set_key" : "_ZNK7android8String16gtEPKDs",
   "parameters" :
   [
    {
     "is_this_ptr" : true,
     "referenced_type" : "_ZTIPKN7android8String16E"
    },
    {
     "referenced_type" : "_ZTIPKDs"
    }
   ],
   "return_type" : "_ZTIb",
   "source_file" : "system/core/libutils/include/utils/String16.h"
  },
  {
   "function_name" : "android::String16::operator>",
   "linker_set_key" : "_ZNK7android8String16gtERKS0_",
   "parameters" :
   [
    {
     "is_this_ptr" : true,
     "referenced_type" : "_ZTIPKN7android8String16E"
    },
    {
     "referenced_type" : "_ZTIRKN7android8String16E"
    }
   ],
   "return_type" : "_ZTIb",
   "source_file" : "system/core/libutils/include/utils/String16.h"
  },
  {
   "function_name" : "android::String16::operator<=",
   "linker_set_key" : "_ZNK7android8String16leEPKDs",
   "parameters" :
   [
    {
     "is_this_ptr" : true,
     "referenced_type" : "_ZTIPKN7android8String16E"
    },
    {
     "referenced_type" : "_ZTIPKDs"
    }
   ],
   "return_type" : "_ZTIb",
   "source_file" : "system/core/libutils/include/utils/String16.h"
  },
  {
   "function_name" : "android::String16::operator<=",
   "linker_set_key" : "_ZNK7android8String16leERKS0_",
   "parameters" :
   [
    {
     "is_this_ptr" : true,
     "referenced_type" : "_ZTIPKN7android8String16E"
    },
    {
     "referenced_type" : "_ZTIRKN7android8String16E"
    }
   ],
   "return_type" : "_ZTIb",
   "source_file" : "system/core/libutils/include/utils/String16.h"
  },
  {
   "function_name" : "android::String16::operator<",
   "linker_set_key" : "_ZNK7android8String16ltEPKDs",
   "parameters" :
   [
    {
     "is_this_ptr" : true,
     "referenced_type" : "_ZTIPKN7android8String16E"
    },
    {
     "referenced_type" : "_ZTIPKDs"
    }
   ],
   "return_type" : "_ZTIb",
   "source_file" : "system/core/libutils/include/utils/String16.h"
  },
  {
   "function_name" : "android::String16::operator<",
   "linker_set_key" : "_ZNK7android8String16ltERKS0_",
   "parameters" :
   [
    {
     "is_this_ptr" : true,
     "referenced_type" : "_ZTIPKN7android8String16E"
    },
    {
     "referenced_type" : "_ZTIRKN7android8String16E"
    }
   ],
   "return_type" : "_ZTIb",
   "source_file" : "system/core/libutils/include/utils/String16.h"
  },
  {
   "function_name" : "android::String16::operator!=",
   "linker_set_key" : "_ZNK7android8String16neEPKDs",
   "parameters" :
   [
    {
     "is_this_ptr" : true,
     "referenced_type" : "_ZTIPKN7android8String16E"
    },
    {
     "referenced_type" : "_ZTIPKDs"
    }
   ],
   "return_type" : "_ZTIb",
   "source_file" : "system/core/libutils/include/utils/String16.h"
  },
  {
   "function_name" : "android::String16::operator!=",
   "linker_set_key" : "_ZNK7android8String16neERKS0_",
   "parameters" :
   [
    {
     "is_this_ptr" : true,
     "referenced_type" : "_ZTIPKN7android8String16E"
    },
    {
     "referenced_type" : "_ZTIRKN7android8String16E"
    }
   ],
   "return_type" : "_ZTIb",
   "source_file" : "system/core/libutils/include/utils/String16.h"
  },
  {
   "function_name" : "android::String16::operator+",
   "linker_set_key" : "_ZNK7android8String16plERKS0_",
   "parameters" :
   [
    {
     "is_this_ptr" : true,
     "referenced_type" : "_ZTIPKN7android8String16E"
    },
    {
     "referenced_type" : "_ZTIRKN7android8String16E"
    }
   ],
   "return_type" : "_ZTIN7android8String16E",
   "source_file" : "system/core/libutils/include/utils/String16.h"
  },
  {
   "function_name" : "android::TypeCode::typeCode",
   "linker_set_key" : "_ZNK7android8TypeCode8typeCodeEv",
   "parameters" :
   [
    {
     "is_this_ptr" : true,
     "referenced_type" : "_ZTIPKN7android8TypeCodeE"
    }
   ],
   "return_type" : "_ZTIj",
   "source_file" : "frameworks/native/libs/binder/include/binder/TextOutput.h"
  },
  {
   "function_name" : "android::internal::Stability::Category::repr",
   "linker_set_key" : "_ZNK7android8internal9Stability8Category4reprEv",
   "parameters" :
   [
    {
     "is_this_ptr" : true,
     "referenced_type" : "_ZTIPKN7android8internal9Stability8CategoryE"
    }
   ],
   "return_type" : "_ZTIi",
   "source_file" : "frameworks/native/libs/binder/include/binder/Stability.h"
  },
  {
   "function_name" : "android::internal::Stability::Category::operator==",
   "linker_set_key" : "_ZNK7android8internal9Stability8CategoryeqERKS2_",
   "parameters" :
   [
    {
     "is_this_ptr" : true,
     "referenced_type" : "_ZTIPKN7android8internal9Stability8CategoryE"
    },
    {
     "referenced_type" : "_ZTIRKN7android8internal9Stability8CategoryE"
    }
   ],
   "return_type" : "_ZTIb",
   "source_file" : "frameworks/native/libs/binder/include/binder/Stability.h"
  },
  {
   "function_name" : "android::internal::Stability::Category::operator!=",
   "linker_set_key" : "_ZNK7android8internal9Stability8CategoryneERKS2_",
   "parameters" :
   [
    {
     "is_this_ptr" : true,
     "referenced_type" : "_ZTIPKN7android8internal9Stability8CategoryE"
    },
    {
     "referenced_type" : "_ZTIRKN7android8internal9Stability8CategoryE"
    }
   ],
   "return_type" : "_ZTIb",
   "source_file" : "frameworks/native/libs/binder/include/binder/Stability.h"
  },
  {
   "access" : "protected",
   "function_name" : "android::BpRefBase::remoteStrong",
   "linker_set_key" : "_ZNK7android9BpRefBase12remoteStrongEv",
   "parameters" :
   [
    {
     "is_this_ptr" : true,
     "referenced_type" : "_ZTIPKN7android9BpRefBaseE"
    }
   ],
   "return_type" : "_ZTIN7android2spINS_7IBinderEEE",
   "source_file" : "frameworks/native/libs/binder/include/binder/Binder.h"
  },
  {
   "access" : "protected",
   "function_name" : "android::BpRefBase::remote",
   "linker_set_key" : "_ZNK7android9BpRefBase6remoteEv",
   "parameters" :
   [
    {
     "is_this_ptr" : true,
     "referenced_type" : "_ZTIPKN7android9BpRefBaseE"
    }
   ],
   "return_type" : "_ZTIPN7android7IBinderE",
   "source_file" : "frameworks/native/libs/binder/include/binder/Binder.h"
  },
  {
   "function_name" : "log_msg::nsec",
   "linker_set_key" : "_ZNK7log_msg4nsecEv",
   "parameters" :
   [
    {
     "is_this_ptr" : true,
     "referenced_type" : "_ZTIPK7log_msg"
    }
   ],
   "return_type" : "_ZTIy",
   "source_file" : "system/logging/liblog/include_vndk/log/log_read.h"
  }
 ],
 "global_vars" :
 [
  {
   "linker_set_key" : "_ZN7android14IPCThreadState16kUnsetWorkSourceE",
   "name" : "android::IPCThreadState::kUnsetWorkSource",
   "referenced_type" : "_ZTIKi",
   "source_file" : "frameworks/native/libs/binder/include/binder/IPCThreadState.h"
  },
  {
   "linker_set_key" : "_ZN7android4aerrE",
   "name" : "android::aerr",
   "referenced_type" : "_ZTIRN7android10TextOutputE",
   "source_file" : "frameworks/native/libs/binder/include/binder/TextOutput.h"
  },
  {
   "linker_set_key" : "_ZN7android4alogE",
   "name" : "android::alog",
   "referenced_type" : "_ZTIRN7android10TextOutputE",
   "source_file" : "frameworks/native/libs/binder/include/binder/TextOutput.h"
  },
  {
   "linker_set_key" : "_ZN7android4aoutE",
   "name" : "android::aout",
   "referenced_type" : "_ZTIRN7android10TextOutputE",
   "source_file" : "frameworks/native/libs/binder/include/binder/TextOutput.h"
  },
  {
   "access" : "private",
   "linker_set_key" : "_ZN7android6Parcel15kNullVectorSizeE",
   "name" : "android::Parcel::kNullVectorSize",
   "referenced_type" : "_ZTIKi",
   "source_file" : "frameworks/native/libs/binder/include/binder/Parcel.h"
  },
  {
   "access" : "private",
   "linker_set_key" : "_ZN7android6Parcel17dependent_false_vE",
   "name" : "android::Parcel::dependent_false_v",
   "referenced_type" : "_ZTIKb",
   "source_file" : "frameworks/native/libs/binder/include/binder/Parcel.h"
  },
  {
   "access" : "private",
   "linker_set_key" : "_ZN7android6Parcel19is_specialization_vE",
   "name" : "android::Parcel::is_specialization_v",
   "referenced_type" : "_ZTIKb",
   "source_file" : "frameworks/native/libs/binder/include/binder/Parcel.h"
  },
  {
   "access" : "private",
   "linker_set_key" : "_ZN7android6Parcel19is_specialization_vINS_10ParcelableENS_2spEEE",
   "name" : "android::Parcel::is_specialization_v",
   "referenced_type" : "_ZTIKb",
   "source_file" : "frameworks/native/libs/binder/include/binder/Parcel.h"
  },
  {
   "access" : "private",
   "linker_set_key" : "_ZN7android6Parcel19is_specialization_vINS_10ParcelableENSt3__110shared_ptrEEE",
   "name" : "android::Parcel::is_specialization_v",
   "referenced_type" : "_ZTIKb",
   "source_file" : "frameworks/native/libs/binder/include/binder/Parcel.h"
  },
  {
   "access" : "private",
   "linker_set_key" : "_ZN7android6Parcel19is_specialization_vINS_10ParcelableENSt3__110unique_ptrEEE",
   "name" : "android::Parcel::is_specialization_v",
   "referenced_type" : "_ZTIKb",
   "source_file" : "frameworks/native/libs/binder/include/binder/Parcel.h"
  },
  {
   "access" : "private",
   "linker_set_key" : "_ZN7android6Parcel19is_specialization_vINS_10ParcelableENSt3__16vectorEEE",
   "name" : "android::Parcel::is_specialization_v",
   "referenced_type" : "_ZTIKb",
   "source_file" : "frameworks/native/libs/binder/include/binder/Parcel.h"
  },
  {
   "access" : "private",
   "linker_set_key" : "_ZN7android6Parcel19is_specialization_vINS_10ParcelableENSt3__18optionalEEE",
   "name" : "android::Parcel::is_specialization_v",
   "referenced_type" : "_ZTIKb",
   "source_file" : "frameworks/native/libs/binder/include/binder/Parcel.h"
  },
  {
   "access" : "private",
   "linker_set_key" : "_ZN7android6Parcel19is_specialization_vINS_2spINS_7IBinderEEENSt3__110shared_ptrEEE",
   "name" : "android::Parcel::is_specialization_v",
   "referenced_type" : "_ZTIKb",
   "source_file" : "frameworks/native/libs/binder/include/binder/Parcel.h"
  },
  {
   "access" : "private",
   "linker_set_key" : "_ZN7android6Parcel19is_specialization_vINS_2spINS_7IBinderEEENSt3__110unique_ptrEEE",
   "name" : "android::Parcel::is_specialization_v",
   "referenced_type" : "_ZTIKb",
   "source_file" : "frameworks/native/libs/binder/include/binder/Parcel.h"
  },
  {
   "access" : "private",
   "linker_set_key" : "_ZN7android6Parcel19is_specialization_vINS_2spINS_7IBinderEEENSt3__16vectorEEE",
   "name" : "android::Parcel::is_specialization_v",
   "referenced_type" : "_ZTIKb",
   "source_file" : "frameworks/native/libs/binder/include/binder/Parcel.h"
  },
  {
   "access" : "private",
   "linker_set_key" : "_ZN7android6Parcel19is_specialization_vINS_2spINS_7IBinderEEENSt3__18optionalEEE",
   "name" : "android::Parcel::is_specialization_v",
   "referenced_type" : "_ZTIKb",
   "source_file" : "frameworks/native/libs/binder/include/binder/Parcel.h"
  },
  {
   "access" : "private",
   "linker_set_key" : "_ZN7android6Parcel19is_specialization_vINS_2spINS_7IBinderEEES2_EE",
   "name" : "android::Parcel::is_specialization_v",
   "referenced_type" : "_ZTIKb",
   "source_file" : "frameworks/native/libs/binder/include/binder/Parcel.h"
  },
  {
   "access" : "private",
   "linker_set_key" : "_ZN7android6Parcel19is_specialization_vINS_4base14unique_fd_implINS2_13DefaultCloserEEENS_2spEEE",
   "name" : "android::Parcel::is_specialization_v",
   "referenced_type" : "_ZTIKb",
   "source_file" : "frameworks/native/libs/binder/include/binder/Parcel.h"
  },
  {
   "access" : "private",
   "linker_set_key" : "_ZN7android6Parcel19is_specialization_vINS_4base14unique_fd_implINS2_13DefaultCloserEEENSt3__110shared_ptrEEE",
   "name" : "android::Parcel::is_specialization_v",
   "referenced_type" : "_ZTIKb",
   "source_file" : "frameworks/native/libs/binder/include/binder/Parcel.h"
  },
  {
   "access" : "private",
   "linker_set_key" : "_ZN7android6Parcel19is_specialization_vINS_4base14unique_fd_implINS2_13DefaultCloserEEENSt3__110unique_ptrEEE",
   "name" : "android::Parcel::is_specialization_v",
   "referenced_type" : "_ZTIKb",
   "source_file" : "frameworks/native/libs/binder/include/binder/Parcel.h"
  },
  {
   "access" : "private",
   "linker_set_key" : "_ZN7android6Parcel19is_specialization_vINS_4base14unique_fd_implINS2_13DefaultCloserEEENSt3__16vectorEEE",
   "name" : "android::Parcel::is_specialization_v",
   "referenced_type" : "_ZTIKb",
   "source_file" : "frameworks/native/libs/binder/include/binder/Parcel.h"
  },
  {
   "access" : "private",
   "linker_set_key" : "_ZN7android6Parcel19is_specialization_vINS_4base14unique_fd_implINS2_13DefaultCloserEEENSt3__18optionalEEE",
   "name" : "android::Parcel::is_specialization_v",
   "referenced_type" : "_ZTIKb",
   "source_file" : "frameworks/native/libs/binder/include/binder/Parcel.h"
  },
  {
   "access" : "private",
   "linker_set_key" : "_ZN7android6Parcel19is_specialization_vINS_8String16ENS_2spEEE",
   "name" : "android::Parcel::is_specialization_v",
   "referenced_type" : "_ZTIKb",
   "source_file" : "frameworks/native/libs/binder/include/binder/Parcel.h"
  },
  {
   "access" : "private",
   "linker_set_key" : "_ZN7android6Parcel19is_specialization_vINS_8String16ENSt3__110shared_ptrEEE",
   "name" : "android::Parcel::is_specialization_v",
   "referenced_type" : "_ZTIKb",
   "source_file" : "frameworks/native/libs/binder/include/binder/Parcel.h"
  },
  {
   "access" : "private",
   "linker_set_key" : "_ZN7android6Parcel19is_specialization_vINS_8String16ENSt3__110unique_ptrEEE",
   "name" : "android::Parcel::is_specialization_v",
   "referenced_type" : "_ZTIKb",
   "source_file" : "frameworks/native/libs/binder/include/binder/Parcel.h"
  },
  {
   "access" : "private",
   "linker_set_key" : "_ZN7android6Parcel19is_specialization_vINS_8String16ENSt3__16vectorEEE",
   "name" : "android::Parcel::is_specialization_v",
   "referenced_type" : "_ZTIKb",
   "source_file" : "frameworks/native/libs/binder/include/binder/Parcel.h"
  },
  {
   "access" : "private",
   "linker_set_key" : "_ZN7android6Parcel19is_specialization_vINS_8String16ENSt3__18optionalEEE",
   "name" : "android::Parcel::is_specialization_v",
   "referenced_type" : "_ZTIKb",
   "source_file" : "frameworks/native/libs/binder/include/binder/Parcel.h"
  },
  {
   "access" : "private",
   "linker_set_key" : "_ZN7android6Parcel19is_specialization_vINSt3__110unique_ptrINS2_12basic_stringIcNS2_11char_traitsIcEENS2_9allocatorIcEEEENS2_14default_deleteIS9_EEEENS2_10shared_ptrEEE",
   "name" : "android::Parcel::is_specialization_v",
   "referenced_type" : "_ZTIKb",
   "source_file" : "frameworks/native/libs/binder/include/binder/Parcel.h"
  },
  {
   "access" : "private",
   "linker_set_key" : "_ZN7android6Parcel19is_specialization_vINSt3__110unique_ptrINS2_12basic_stringIcNS2_11char_traitsIcEENS2_9allocatorIcEEEENS2_14default_deleteIS9_EEEENS2_6vectorEEE",
   "name" : "android::Parcel::is_specialization_v",
   "referenced_type" : "_ZTIKb",
   "source_file" : "frameworks/native/libs/binder/include/binder/Parcel.h"
  },
  {
   "access" : "private",
   "linker_set_key" : "_ZN7android6Parcel19is_specialization_vINSt3__110unique_ptrINS2_12basic_stringIcNS2_11char_traitsIcEENS2_9allocatorIcEEEENS2_14default_deleteIS9_EEEENS2_8optionalEEE",
   "name" : "android::Parcel::is_specialization_v",
   "referenced_type" : "_ZTIKb",
   "source_file" : "frameworks/native/libs/binder/include/binder/Parcel.h"
  },
  {
   "access" : "private",
   "linker_set_key" : "_ZN7android6Parcel19is_specialization_vINSt3__110unique_ptrINS2_12basic_stringIcNS2_11char_traitsIcEENS2_9allocatorIcEEEENS2_14default_deleteIS9_EEEENS_2spEEE",
   "name" : "android::Parcel::is_specialization_v",
   "referenced_type" : "_ZTIKb",
   "source_file" : "frameworks/native/libs/binder/include/binder/Parcel.h"
  },
  {
   "access" : "private",
   "linker_set_key" : "_ZN7android6Parcel19is_specialization_vINSt3__110unique_ptrINS2_12basic_stringIcNS2_11char_traitsIcEENS2_9allocatorIcEEEENS2_14default_deleteIS9_EEEES3_EE",
   "name" : "android::Parcel::is_specialization_v",
   "referenced_type" : "_ZTIKb",
   "source_file" : "frameworks/native/libs/binder/include/binder/Parcel.h"
  },
  {
   "access" : "private",
   "linker_set_key" : "_ZN7android6Parcel19is_specialization_vINSt3__110unique_ptrINS2_6vectorIDsNS2_9allocatorIDsEEEENS2_14default_deleteIS7_EEEENS2_10shared_ptrEEE",
   "name" : "android::Parcel::is_specialization_v",
   "referenced_type" : "_ZTIKb",
   "source_file" : "frameworks/native/libs/binder/include/binder/Parcel.h"
  },
  {
   "access" : "private",
   "linker_set_key" : "_ZN7android6Parcel19is_specialization_vINSt3__110unique_ptrINS2_6vectorIDsNS2_9allocatorIDsEEEENS2_14default_deleteIS7_EEEENS2_8optionalEEE",
   "name" : "android::Parcel::is_specialization_v",
   "referenced_type" : "_ZTIKb",
   "source_file" : "frameworks/native/libs/binder/include/binder/Parcel.h"
  },
  {
   "access" : "private",
   "linker_set_key" : "_ZN7android6Parcel19is_specialization_vINSt3__110unique_ptrINS2_6vectorIDsNS2_9allocatorIDsEEEENS2_14default_deleteIS7_EEEENS_2spEEE",
   "name" : "android::Parcel::is_specialization_v",
   "referenced_type" : "_ZTIKb",
   "source_file" : "frameworks/native/libs/binder/include/binder/Parcel.h"
  },
  {
   "access" : "private",
   "linker_set_key" : "_ZN7android6Parcel19is_specialization_vINSt3__110unique_ptrINS2_6vectorIDsNS2_9allocatorIDsEEEENS2_14default_deleteIS7_EEEES3_EE",
   "name" : "android::Parcel::is_specialization_v",
   "referenced_type" : "_ZTIKb",
   "source_file" : "frameworks/native/libs/binder/include/binder/Parcel.h"
  },
  {
   "access" : "private",
   "linker_set_key" : "_ZN7android6Parcel19is_specialization_vINSt3__110unique_ptrINS2_6vectorIDsNS2_9allocatorIDsEEEENS2_14default_deleteIS7_EEEES4_EE",
   "name" : "android::Parcel::is_specialization_v",
   "referenced_type" : "_ZTIKb",
   "source_file" : "frameworks/native/libs/binder/include/binder/Parcel.h"
  },
  {
   "access" : "private",
   "linker_set_key" : "_ZN7android6Parcel19is_specialization_vINSt3__110unique_ptrINS2_6vectorINS3_INS2_12basic_stringIcNS2_11char_traitsIcEENS2_9allocatorIcEEEENS2_14default_deleteISA_EEEENS8_ISD_EEEENSB_ISF_EEEENS2_10shared_ptrEEE",
   "name" : "android::Parcel::is_specialization_v",
   "referenced_type" : "_ZTIKb",
   "source_file" : "frameworks/native/libs/binder/include/binder/Parcel.h"
  },
  {
   "access" : "private",
   "linker_set_key" : "_ZN7android6Parcel19is_specialization_vINSt3__110unique_ptrINS2_6vectorINS3_INS2_12basic_stringIcNS2_11char_traitsIcEENS2_9allocatorIcEEEENS2_14default_deleteISA_EEEENS8_ISD_EEEENSB_ISF_EEEENS2_8optionalEEE",
   "name" : "android::Parcel::is_specialization_v",
   "referenced_type" : "_ZTIKb",
   "source_file" : "frameworks/native/libs/binder/include/binder/Parcel.h"
  },
  {
   "access" : "private",
   "linker_set_key" : "_ZN7android6Parcel19is_specialization_vINSt3__110unique_ptrINS2_6vectorINS3_INS2_12basic_stringIcNS2_11char_traitsIcEENS2_9allocatorIcEEEENS2_14default_deleteISA_EEEENS8_ISD_EEEENSB_ISF_EEEENS_2spEEE",
   "name" : "android::Parcel::is_specialization_v",
   "referenced_type" : "_ZTIKb",
   "source_file" : "frameworks/native/libs/binder/include/binder/Parcel.h"
  },
  {
   "access" : "private",
   "linker_set_key" : "_ZN7android6Parcel19is_specialization_vINSt3__110unique_ptrINS2_6vectorINS3_INS2_12basic_stringIcNS2_11char_traitsIcEENS2_9allocatorIcEEEENS2_14default_deleteISA_EEEENS8_ISD_EEEENSB_ISF_EEEES3_EE",
   "name" : "android::Parcel::is_specialization_v",
   "referenced_type" : "_ZTIKb",
   "source_file" : "frameworks/native/libs/binder/include/binder/Parcel.h"
  },
  {
   "access" : "private",
   "linker_set_key" : "_ZN7android6Parcel19is_specialization_vINSt3__110unique_ptrINS2_6vectorINS3_INS2_12basic_stringIcNS2_11char_traitsIcEENS2_9allocatorIcEEEENS2_14default_deleteISA_EEEENS8_ISD_EEEENSB_ISF_EEEES4_EE",
   "name" : "android::Parcel::is_specialization_v",
   "referenced_type" : "_ZTIKb",
   "source_file" : "frameworks/native/libs/binder/include/binder/Parcel.h"
  },
  {
   "access" : "private",
   "linker_set_key" : "_ZN7android6Parcel19is_specialization_vINSt3__110unique_ptrINS2_6vectorINS3_INS_8String16ENS2_14default_deleteIS5_EEEENS2_9allocatorIS8_EEEENS6_ISB_EEEENS2_10shared_ptrEEE",
   "name" : "android::Parcel::is_specialization_v",
   "referenced_type" : "_ZTIKb",
   "source_file" : "frameworks/native/libs/binder/include/binder/Parcel.h"
  },
  {
   "access" : "private",
   "linker_set_key" : "_ZN7android6Parcel19is_specialization_vINSt3__110unique_ptrINS2_6vectorINS3_INS_8String16ENS2_14default_deleteIS5_EEEENS2_9allocatorIS8_EEEENS6_ISB_EEEENS2_8optionalEEE",
   "name" : "android::Parcel::is_specialization_v",
   "referenced_type" : "_ZTIKb",
   "source_file" : "frameworks/native/libs/binder/include/binder/Parcel.h"
  },
  {
   "access" : "private",
   "linker_set_key" : "_ZN7android6Parcel19is_specialization_vINSt3__110unique_ptrINS2_6vectorINS3_INS_8String16ENS2_14default_deleteIS5_EEEENS2_9allocatorIS8_EEEENS6_ISB_EEEENS_2spEEE",
   "name" : "android::Parcel::is_specialization_v",
   "referenced_type" : "_ZTIKb",
   "source_file" : "frameworks/native/libs/binder/include/binder/Parcel.h"
  },
  {
   "access" : "private",
   "linker_set_key" : "_ZN7android6Parcel19is_specialization_vINSt3__110unique_ptrINS2_6vectorINS3_INS_8String16ENS2_14default_deleteIS5_EEEENS2_9allocatorIS8_EEEENS6_ISB_EEEES3_EE",
   "name" : "android::Parcel::is_specialization_v",
   "referenced_type" : "_ZTIKb",
   "source_file" : "frameworks/native/libs/binder/include/binder/Parcel.h"
  },
  {
   "access" : "private",
   "linker_set_key" : "_ZN7android6Parcel19is_specialization_vINSt3__110unique_ptrINS2_6vectorINS3_INS_8String16ENS2_14default_deleteIS5_EEEENS2_9allocatorIS8_EEEENS6_ISB_EEEES4_EE",
   "name" : "android::Parcel::is_specialization_v",
   "referenced_type" : "_ZTIKb",
   "source_file" : "frameworks/native/libs/binder/include/binder/Parcel.h"
  },
  {
   "access" : "private",
   "linker_set_key" : "_ZN7android6Parcel19is_specialization_vINSt3__110unique_ptrINS2_6vectorINS_2spINS_7IBinderEEENS2_9allocatorIS7_EEEENS2_14default_deleteISA_EEEENS2_10shared_ptrEEE",
   "name" : "android::Parcel::is_specialization_v",
   "referenced_type" : "_ZTIKb",
   "source_file" : "frameworks/native/libs/binder/include/binder/Parcel.h"
  },
  {
   "access" : "private",
   "linker_set_key" : "_ZN7android6Parcel19is_specialization_vINSt3__110unique_ptrINS2_6vectorINS_2spINS_7IBinderEEENS2_9allocatorIS7_EEEENS2_14default_deleteISA_EEEENS2_8optionalEEE",
   "name" : "android::Parcel::is_specialization_v",
   "referenced_type" : "_ZTIKb",
   "source_file" : "frameworks/native/libs/binder/include/binder/Parcel.h"
  },
  {
   "access" : "private",
   "linker_set_key" : "_ZN7android6Parcel19is_specialization_vINSt3__110unique_ptrINS2_6vectorINS_2spINS_7IBinderEEENS2_9allocatorIS7_EEEENS2_14default_deleteISA_EEEES3_EE",
   "name" : "android::Parcel::is_specialization_v",
   "referenced_type" : "_ZTIKb",
   "source_file" : "frameworks/native/libs/binder/include/binder/Parcel.h"
  },
  {
   "access" : "private",
   "linker_set_key" : "_ZN7android6Parcel19is_specialization_vINSt3__110unique_ptrINS2_6vectorINS_2spINS_7IBinderEEENS2_9allocatorIS7_EEEENS2_14default_deleteISA_EEEES4_EE",
   "name" : "android::Parcel::is_specialization_v",
   "referenced_type" : "_ZTIKb",
   "source_file" : "frameworks/native/libs/binder/include/binder/Parcel.h"
  },
  {
   "access" : "private",
   "linker_set_key" : "_ZN7android6Parcel19is_specialization_vINSt3__110unique_ptrINS2_6vectorINS_2spINS_7IBinderEEENS2_9allocatorIS7_EEEENS2_14default_deleteISA_EEEES5_EE",
   "name" : "android::Parcel::is_specialization_v",
   "referenced_type" : "_ZTIKb",
   "source_file" : "frameworks/native/libs/binder/include/binder/Parcel.h"
  },
  {
   "access" : "private",
   "linker_set_key" : "_ZN7android6Parcel19is_specialization_vINSt3__110unique_ptrINS2_6vectorINS_4base14unique_fd_implINS5_13DefaultCloserEEENS2_9allocatorIS8_EEEENS2_14default_deleteISB_EEEENS2_10shared_ptrEEE",
   "name" : "android::Parcel::is_specialization_v",
   "referenced_type" : "_ZTIKb",
   "source_file" : "frameworks/native/libs/binder/include/binder/Parcel.h"
  },
  {
   "access" : "private",
   "linker_set_key" : "_ZN7android6Parcel19is_specialization_vINSt3__110unique_ptrINS2_6vectorINS_4base14unique_fd_implINS5_13DefaultCloserEEENS2_9allocatorIS8_EEEENS2_14default_deleteISB_EEEENS2_8optionalEEE",
   "name" : "android::Parcel::is_specialization_v",
   "referenced_type" : "_ZTIKb",
   "source_file" : "frameworks/native/libs/binder/include/binder/Parcel.h"
  },
  {
   "access" : "private",
   "linker_set_key" : "_ZN7android6Parcel19is_specialization_vINSt3__110unique_ptrINS2_6vectorINS_4base14unique_fd_implINS5_13DefaultCloserEEENS2_9allocatorIS8_EEEENS2_14default_deleteISB_EEEENS_2spEEE",
   "name" : "android::Parcel::is_specialization_v",
   "referenced_type" : "_ZTIKb",
   "source_file" : "frameworks/native/libs/binder/include/binder/Parcel.h"
  },
  {
   "access" : "private",
   "linker_set_key" : "_ZN7android6Parcel19is_specialization_vINSt3__110unique_ptrINS2_6vectorINS_4base14unique_fd_implINS5_13DefaultCloserEEENS2_9allocatorIS8_EEEENS2_14default_deleteISB_EEEES3_EE",
   "name" : "android::Parcel::is_specialization_v",
   "referenced_type" : "_ZTIKb",
   "source_file" : "frameworks/native/libs/binder/include/binder/Parcel.h"
  },
  {
   "access" : "private",
   "linker_set_key" : "_ZN7android6Parcel19is_specialization_vINSt3__110unique_ptrINS2_6vectorINS_4base14unique_fd_implINS5_13DefaultCloserEEENS2_9allocatorIS8_EEEENS2_14default_deleteISB_EEEES4_EE",
   "name" : "android::Parcel::is_specialization_v",
   "referenced_type" : "_ZTIKb",
   "source_file" : "frameworks/native/libs/binder/include/binder/Parcel.h"
  },
  {
   "access" : "private",
   "linker_set_key" : "_ZN7android6Parcel19is_specialization_vINSt3__110unique_ptrINS2_6vectorIaNS2_9allocatorIaEEEENS2_14default_deleteIS7_EEEENS2_10shared_ptrEEE",
   "name" : "android::Parcel::is_specialization_v",
   "referenced_type" : "_ZTIKb",
   "source_file" : "frameworks/native/libs/binder/include/binder/Parcel.h"
  },
  {
   "access" : "private",
   "linker_set_key" : "_ZN7android6Parcel19is_specialization_vINSt3__110unique_ptrINS2_6vectorIaNS2_9allocatorIaEEEENS2_14default_deleteIS7_EEEENS2_8optionalEEE",
   "name" : "android::Parcel::is_specialization_v",
   "referenced_type" : "_ZTIKb",
   "source_file" : "frameworks/native/libs/binder/include/binder/Parcel.h"
  },
  {
   "access" : "private",
   "linker_set_key" : "_ZN7android6Parcel19is_specialization_vINSt3__110unique_ptrINS2_6vectorIaNS2_9allocatorIaEEEENS2_14default_deleteIS7_EEEENS_2spEEE",
   "name" : "android::Parcel::is_specialization_v",
   "referenced_type" : "_ZTIKb",
   "source_file" : "frameworks/native/libs/binder/include/binder/Parcel.h"
  },
  {
   "access" : "private",
   "linker_set_key" : "_ZN7android6Parcel19is_specialization_vINSt3__110unique_ptrINS2_6vectorIaNS2_9allocatorIaEEEENS2_14default_deleteIS7_EEEES3_EE",
   "name" : "android::Parcel::is_specialization_v",
   "referenced_type" : "_ZTIKb",
   "source_file" : "frameworks/native/libs/binder/include/binder/Parcel.h"
  },
  {
   "access" : "private",
   "linker_set_key" : "_ZN7android6Parcel19is_specialization_vINSt3__110unique_ptrINS2_6vectorIaNS2_9allocatorIaEEEENS2_14default_deleteIS7_EEEES4_EE",
   "name" : "android::Parcel::is_specialization_v",
   "referenced_type" : "_ZTIKb",
   "source_file" : "frameworks/native/libs/binder/include/binder/Parcel.h"
  },
  {
   "access" : "private",
   "linker_set_key" : "_ZN7android6Parcel19is_specialization_vINSt3__110unique_ptrINS2_6vectorIbNS2_9allocatorIbEEEENS2_14default_deleteIS7_EEEENS2_10shared_ptrEEE",
   "name" : "android::Parcel::is_specialization_v",
   "referenced_type" : "_ZTIKb",
   "source_file" : "frameworks/native/libs/binder/include/binder/Parcel.h"
  },
  {
   "access" : "private",
   "linker_set_key" : "_ZN7android6Parcel19is_specialization_vINSt3__110unique_ptrINS2_6vectorIbNS2_9allocatorIbEEEENS2_14default_deleteIS7_EEEENS2_8optionalEEE",
   "name" : "android::Parcel::is_specialization_v",
   "referenced_type" : "_ZTIKb",
   "source_file" : "frameworks/native/libs/binder/include/binder/Parcel.h"
  },
  {
   "access" : "private",
   "linker_set_key" : "_ZN7android6Parcel19is_specialization_vINSt3__110unique_ptrINS2_6vectorIbNS2_9allocatorIbEEEENS2_14default_deleteIS7_EEEENS_2spEEE",
   "name" : "android::Parcel::is_specialization_v",
   "referenced_type" : "_ZTIKb",
   "source_file" : "frameworks/native/libs/binder/include/binder/Parcel.h"
  },
  {
   "access" : "private",
   "linker_set_key" : "_ZN7android6Parcel19is_specialization_vINSt3__110unique_ptrINS2_6vectorIbNS2_9allocatorIbEEEENS2_14default_deleteIS7_EEEES3_EE",
   "name" : "android::Parcel::is_specialization_v",
   "referenced_type" : "_ZTIKb",
   "source_file" : "frameworks/native/libs/binder/include/binder/Parcel.h"
  },
  {
   "access" : "private",
   "linker_set_key" : "_ZN7android6Parcel19is_specialization_vINSt3__110unique_ptrINS2_6vectorIbNS2_9allocatorIbEEEENS2_14default_deleteIS7_EEEES4_EE",
   "name" : "android::Parcel::is_specialization_v",
   "referenced_type" : "_ZTIKb",
   "source_file" : "frameworks/native/libs/binder/include/binder/Parcel.h"
  },
  {
   "access" : "private",
   "linker_set_key" : "_ZN7android6Parcel19is_specialization_vINSt3__110unique_ptrINS2_6vectorIdNS2_9allocatorIdEEEENS2_14default_deleteIS7_EEEENS2_10shared_ptrEEE",
   "name" : "android::Parcel::is_specialization_v",
   "referenced_type" : "_ZTIKb",
   "source_file" : "frameworks/native/libs/binder/include/binder/Parcel.h"
  },
  {
   "access" : "private",
   "linker_set_key" : "_ZN7android6Parcel19is_specialization_vINSt3__110unique_ptrINS2_6vectorIdNS2_9allocatorIdEEEENS2_14default_deleteIS7_EEEENS2_8optionalEEE",
   "name" : "android::Parcel::is_specialization_v",
   "referenced_type" : "_ZTIKb",
   "source_file" : "frameworks/native/libs/binder/include/binder/Parcel.h"
  },
  {
   "access" : "private",
   "linker_set_key" : "_ZN7android6Parcel19is_specialization_vINSt3__110unique_ptrINS2_6vectorIdNS2_9allocatorIdEEEENS2_14default_deleteIS7_EEEENS_2spEEE",
   "name" : "android::Parcel::is_specialization_v",
   "referenced_type" : "_ZTIKb",
   "source_file" : "frameworks/native/libs/binder/include/binder/Parcel.h"
  },
  {
   "access" : "private",
   "linker_set_key" : "_ZN7android6Parcel19is_specialization_vINSt3__110unique_ptrINS2_6vectorIdNS2_9allocatorIdEEEENS2_14default_deleteIS7_EEEES3_EE",
   "name" : "android::Parcel::is_specialization_v",
   "referenced_type" : "_ZTIKb",
   "source_file" : "frameworks/native/libs/binder/include/binder/Parcel.h"
  },
  {
   "access" : "private",
   "linker_set_key" : "_ZN7android6Parcel19is_specialization_vINSt3__110unique_ptrINS2_6vectorIdNS2_9allocatorIdEEEENS2_14default_deleteIS7_EEEES4_EE",
   "name" : "android::Parcel::is_specialization_v",
   "referenced_type" : "_ZTIKb",
   "source_file" : "frameworks/native/libs/binder/include/binder/Parcel.h"
  },
  {
   "access" : "private",
   "linker_set_key" : "_ZN7android6Parcel19is_specialization_vINSt3__110unique_ptrINS2_6vectorIfNS2_9allocatorIfEEEENS2_14default_deleteIS7_EEEENS2_10shared_ptrEEE",
   "name" : "android::Parcel::is_specialization_v",
   "referenced_type" : "_ZTIKb",
   "source_file" : "frameworks/native/libs/binder/include/binder/Parcel.h"
  },
  {
   "access" : "private",
   "linker_set_key" : "_ZN7android6Parcel19is_specialization_vINSt3__110unique_ptrINS2_6vectorIfNS2_9allocatorIfEEEENS2_14default_deleteIS7_EEEENS2_8optionalEEE",
   "name" : "android::Parcel::is_specialization_v",
   "referenced_type" : "_ZTIKb",
   "source_file" : "frameworks/native/libs/binder/include/binder/Parcel.h"
  },
  {
   "access" : "private",
   "linker_set_key" : "_ZN7android6Parcel19is_specialization_vINSt3__110unique_ptrINS2_6vectorIfNS2_9allocatorIfEEEENS2_14default_deleteIS7_EEEENS_2spEEE",
   "name" : "android::Parcel::is_specialization_v",
   "referenced_type" : "_ZTIKb",
   "source_file" : "frameworks/native/libs/binder/include/binder/Parcel.h"
  },
  {
   "access" : "private",
   "linker_set_key" : "_ZN7android6Parcel19is_specialization_vINSt3__110unique_ptrINS2_6vectorIfNS2_9allocatorIfEEEENS2_14default_deleteIS7_EEEES3_EE",
   "name" : "android::Parcel::is_specialization_v",
   "referenced_type" : "_ZTIKb",
   "source_file" : "frameworks/native/libs/binder/include/binder/Parcel.h"
  },
  {
   "access" : "private",
   "linker_set_key" : "_ZN7android6Parcel19is_specialization_vINSt3__110unique_ptrINS2_6vectorIfNS2_9allocatorIfEEEENS2_14default_deleteIS7_EEEES4_EE",
   "name" : "android::Parcel::is_specialization_v",
   "referenced_type" : "_ZTIKb",
   "source_file" : "frameworks/native/libs/binder/include/binder/Parcel.h"
  },
  {
   "access" : "private",
   "linker_set_key" : "_ZN7android6Parcel19is_specialization_vINSt3__110unique_ptrINS2_6vectorIhNS2_9allocatorIhEEEENS2_14default_deleteIS7_EEEENS2_10shared_ptrEEE",
   "name" : "android::Parcel::is_specialization_v",
   "referenced_type" : "_ZTIKb",
   "source_file" : "frameworks/native/libs/binder/include/binder/Parcel.h"
  },
  {
   "access" : "private",
   "linker_set_key" : "_ZN7android6Parcel19is_specialization_vINSt3__110unique_ptrINS2_6vectorIhNS2_9allocatorIhEEEENS2_14default_deleteIS7_EEEENS2_8optionalEEE",
   "name" : "android::Parcel::is_specialization_v",
   "referenced_type" : "_ZTIKb",
   "source_file" : "frameworks/native/libs/binder/include/binder/Parcel.h"
  },
  {
   "access" : "private",
   "linker_set_key" : "_ZN7android6Parcel19is_specialization_vINSt3__110unique_ptrINS2_6vectorIhNS2_9allocatorIhEEEENS2_14default_deleteIS7_EEEENS_2spEEE",
   "name" : "android::Parcel::is_specialization_v",
   "referenced_type" : "_ZTIKb",
   "source_file" : "frameworks/native/libs/binder/include/binder/Parcel.h"
  },
  {
   "access" : "private",
   "linker_set_key" : "_ZN7android6Parcel19is_specialization_vINSt3__110unique_ptrINS2_6vectorIhNS2_9allocatorIhEEEENS2_14default_deleteIS7_EEEES3_EE",
   "name" : "android::Parcel::is_specialization_v",
   "referenced_type" : "_ZTIKb",
   "source_file" : "frameworks/native/libs/binder/include/binder/Parcel.h"
  },
  {
   "access" : "private",
   "linker_set_key" : "_ZN7android6Parcel19is_specialization_vINSt3__110unique_ptrINS2_6vectorIhNS2_9allocatorIhEEEENS2_14default_deleteIS7_EEEES4_EE",
   "name" : "android::Parcel::is_specialization_v",
   "referenced_type" : "_ZTIKb",
   "source_file" : "frameworks/native/libs/binder/include/binder/Parcel.h"
  },
  {
   "access" : "private",
   "linker_set_key" : "_ZN7android6Parcel19is_specialization_vINSt3__110unique_ptrINS2_6vectorIiNS2_9allocatorIiEEEENS2_14default_deleteIS7_EEEENS2_10shared_ptrEEE",
   "name" : "android::Parcel::is_specialization_v",
   "referenced_type" : "_ZTIKb",
   "source_file" : "frameworks/native/libs/binder/include/binder/Parcel.h"
  },
  {
   "access" : "private",
   "linker_set_key" : "_ZN7android6Parcel19is_specialization_vINSt3__110unique_ptrINS2_6vectorIiNS2_9allocatorIiEEEENS2_14default_deleteIS7_EEEENS2_8optionalEEE",
   "name" : "android::Parcel::is_specialization_v",
   "referenced_type" : "_ZTIKb",
   "source_file" : "frameworks/native/libs/binder/include/binder/Parcel.h"
  },
  {
   "access" : "private",
   "linker_set_key" : "_ZN7android6Parcel19is_specialization_vINSt3__110unique_ptrINS2_6vectorIiNS2_9allocatorIiEEEENS2_14default_deleteIS7_EEEENS_2spEEE",
   "name" : "android::Parcel::is_specialization_v",
   "referenced_type" : "_ZTIKb",
   "source_file" : "frameworks/native/libs/binder/include/binder/Parcel.h"
  },
  {
   "access" : "private",
   "linker_set_key" : "_ZN7android6Parcel19is_specialization_vINSt3__110unique_ptrINS2_6vectorIiNS2_9allocatorIiEEEENS2_14default_deleteIS7_EEEES3_EE",
   "name" : "android::Parcel::is_specialization_v",
   "referenced_type" : "_ZTIKb",
   "source_file" : "frameworks/native/libs/binder/include/binder/Parcel.h"
  },
  {
   "access" : "private",
   "linker_set_key" : "_ZN7android6Parcel19is_specialization_vINSt3__110unique_ptrINS2_6vectorIiNS2_9allocatorIiEEEENS2_14default_deleteIS7_EEEES4_EE",
   "name" : "android::Parcel::is_specialization_v",
   "referenced_type" : "_ZTIKb",
   "source_file" : "frameworks/native/libs/binder/include/binder/Parcel.h"
  },
  {
   "access" : "private",
   "linker_set_key" : "_ZN7android6Parcel19is_specialization_vINSt3__110unique_ptrINS2_6vectorIxNS2_9allocatorIxEEEENS2_14default_deleteIS7_EEEENS2_10shared_ptrEEE",
   "name" : "android::Parcel::is_specialization_v",
   "referenced_type" : "_ZTIKb",
   "source_file" : "frameworks/native/libs/binder/include/binder/Parcel.h"
  },
  {
   "access" : "private",
   "linker_set_key" : "_ZN7android6Parcel19is_specialization_vINSt3__110unique_ptrINS2_6vectorIxNS2_9allocatorIxEEEENS2_14default_deleteIS7_EEEENS2_8optionalEEE",
   "name" : "android::Parcel::is_specialization_v",
   "referenced_type" : "_ZTIKb",
   "source_file" : "frameworks/native/libs/binder/include/binder/Parcel.h"
  },
  {
   "access" : "private",
   "linker_set_key" : "_ZN7android6Parcel19is_specialization_vINSt3__110unique_ptrINS2_6vectorIxNS2_9allocatorIxEEEENS2_14default_deleteIS7_EEEENS_2spEEE",
   "name" : "android::Parcel::is_specialization_v",
   "referenced_type" : "_ZTIKb",
   "source_file" : "frameworks/native/libs/binder/include/binder/Parcel.h"
  },
  {
   "access" : "private",
   "linker_set_key" : "_ZN7android6Parcel19is_specialization_vINSt3__110unique_ptrINS2_6vectorIxNS2_9allocatorIxEEEENS2_14default_deleteIS7_EEEES3_EE",
   "name" : "android::Parcel::is_specialization_v",
   "referenced_type" : "_ZTIKb",
   "source_file" : "frameworks/native/libs/binder/include/binder/Parcel.h"
  },
  {
   "access" : "private",
   "linker_set_key" : "_ZN7android6Parcel19is_specialization_vINSt3__110unique_ptrINS2_6vectorIxNS2_9allocatorIxEEEENS2_14default_deleteIS7_EEEES4_EE",
   "name" : "android::Parcel::is_specialization_v",
   "referenced_type" : "_ZTIKb",
   "source_file" : "frameworks/native/libs/binder/include/binder/Parcel.h"
  },
  {
   "access" : "private",
   "linker_set_key" : "_ZN7android6Parcel19is_specialization_vINSt3__110unique_ptrINS2_6vectorIyNS2_9allocatorIyEEEENS2_14default_deleteIS7_EEEENS2_10shared_ptrEEE",
   "name" : "android::Parcel::is_specialization_v",
   "referenced_type" : "_ZTIKb",
   "source_file" : "frameworks/native/libs/binder/include/binder/Parcel.h"
  },
  {
   "access" : "private",
   "linker_set_key" : "_ZN7android6Parcel19is_specialization_vINSt3__110unique_ptrINS2_6vectorIyNS2_9allocatorIyEEEENS2_14default_deleteIS7_EEEENS2_8optionalEEE",
   "name" : "android::Parcel::is_specialization_v",
   "referenced_type" : "_ZTIKb",
   "source_file" : "frameworks/native/libs/binder/include/binder/Parcel.h"
  },
  {
   "access" : "private",
   "linker_set_key" : "_ZN7android6Parcel19is_specialization_vINSt3__110unique_ptrINS2_6vectorIyNS2_9allocatorIyEEEENS2_14default_deleteIS7_EEEENS_2spEEE",
   "name" : "android::Parcel::is_specialization_v",
   "referenced_type" : "_ZTIKb",
   "source_file" : "frameworks/native/libs/binder/include/binder/Parcel.h"
  },
  {
   "access" : "private",
   "linker_set_key" : "_ZN7android6Parcel19is_specialization_vINSt3__110unique_ptrINS2_6vectorIyNS2_9allocatorIyEEEENS2_14default_deleteIS7_EEEES3_EE",
   "name" : "android::Parcel::is_specialization_v",
   "referenced_type" : "_ZTIKb",
   "source_file" : "frameworks/native/libs/binder/include/binder/Parcel.h"
  },
  {
   "access" : "private",
   "linker_set_key" : "_ZN7android6Parcel19is_specialization_vINSt3__110unique_ptrINS2_6vectorIyNS2_9allocatorIyEEEENS2_14default_deleteIS7_EEEES4_EE",
   "name" : "android::Parcel::is_specialization_v",
   "referenced_type" : "_ZTIKb",
   "source_file" : "frameworks/native/libs/binder/include/binder/Parcel.h"
  },
  {
   "access" : "private",
   "linker_set_key" : "_ZN7android6Parcel19is_specialization_vINSt3__110unique_ptrINS_8String16ENS2_14default_deleteIS4_EEEENS2_10shared_ptrEEE",
   "name" : "android::Parcel::is_specialization_v",
   "referenced_type" : "_ZTIKb",
   "source_file" : "frameworks/native/libs/binder/include/binder/Parcel.h"
  },
  {
   "access" : "private",
   "linker_set_key" : "_ZN7android6Parcel19is_specialization_vINSt3__110unique_ptrINS_8String16ENS2_14default_deleteIS4_EEEENS2_6vectorEEE",
   "name" : "android::Parcel::is_specialization_v",
   "referenced_type" : "_ZTIKb",
   "source_file" : "frameworks/native/libs/binder/include/binder/Parcel.h"
  },
  {
   "access" : "private",
   "linker_set_key" : "_ZN7android6Parcel19is_specialization_vINSt3__110unique_ptrINS_8String16ENS2_14default_deleteIS4_EEEENS2_8optionalEEE",
   "name" : "android::Parcel::is_specialization_v",
   "referenced_type" : "_ZTIKb",
   "source_file" : "frameworks/native/libs/binder/include/binder/Parcel.h"
  },
  {
   "access" : "private",
   "linker_set_key" : "_ZN7android6Parcel19is_specialization_vINSt3__110unique_ptrINS_8String16ENS2_14default_deleteIS4_EEEENS_2spEEE",
   "name" : "android::Parcel::is_specialization_v",
   "referenced_type" : "_ZTIKb",
   "source_file" : "frameworks/native/libs/binder/include/binder/Parcel.h"
  },
  {
   "access" : "private",
   "linker_set_key" : "_ZN7android6Parcel19is_specialization_vINSt3__110unique_ptrINS_8String16ENS2_14default_deleteIS4_EEEES3_EE",
   "name" : "android::Parcel::is_specialization_v",
   "referenced_type" : "_ZTIKb",
   "source_file" : "frameworks/native/libs/binder/include/binder/Parcel.h"
  },
  {
   "access" : "private",
   "linker_set_key" : "_ZN7android6Parcel19is_specialization_vINSt3__112basic_stringIcNS2_11char_traitsIcEENS2_9allocatorIcEEEENS2_10shared_ptrEEE",
   "name" : "android::Parcel::is_specialization_v",
   "referenced_type" : "_ZTIKb",
   "source_file" : "frameworks/native/libs/binder/include/binder/Parcel.h"
  },
  {
   "access" : "private",
   "linker_set_key" : "_ZN7android6Parcel19is_specialization_vINSt3__112basic_stringIcNS2_11char_traitsIcEENS2_9allocatorIcEEEENS2_10unique_ptrEEE",
   "name" : "android::Parcel::is_specialization_v",
   "referenced_type" : "_ZTIKb",
   "source_file" : "frameworks/native/libs/binder/include/binder/Parcel.h"
  },
  {
   "access" : "private",
   "linker_set_key" : "_ZN7android6Parcel19is_specialization_vINSt3__112basic_stringIcNS2_11char_traitsIcEENS2_9allocatorIcEEEENS2_6vectorEEE",
   "name" : "android::Parcel::is_specialization_v",
   "referenced_type" : "_ZTIKb",
   "source_file" : "frameworks/native/libs/binder/include/binder/Parcel.h"
  },
  {
   "access" : "private",
   "linker_set_key" : "_ZN7android6Parcel19is_specialization_vINSt3__112basic_stringIcNS2_11char_traitsIcEENS2_9allocatorIcEEEENS2_8optionalEEE",
   "name" : "android::Parcel::is_specialization_v",
   "referenced_type" : "_ZTIKb",
   "source_file" : "frameworks/native/libs/binder/include/binder/Parcel.h"
  },
  {
   "access" : "private",
   "linker_set_key" : "_ZN7android6Parcel19is_specialization_vINSt3__112basic_stringIcNS2_11char_traitsIcEENS2_9allocatorIcEEEENS_2spEEE",
   "name" : "android::Parcel::is_specialization_v",
   "referenced_type" : "_ZTIKb",
   "source_file" : "frameworks/native/libs/binder/include/binder/Parcel.h"
  },
  {
   "access" : "private",
   "linker_set_key" : "_ZN7android6Parcel19is_specialization_vINSt3__16vectorIDsNS2_9allocatorIDsEEEENS2_10shared_ptrEEE",
   "name" : "android::Parcel::is_specialization_v",
   "referenced_type" : "_ZTIKb",
   "source_file" : "frameworks/native/libs/binder/include/binder/Parcel.h"
  },
  {
   "access" : "private",
   "linker_set_key" : "_ZN7android6Parcel19is_specialization_vINSt3__16vectorIDsNS2_9allocatorIDsEEEENS2_10unique_ptrEEE",
   "name" : "android::Parcel::is_specialization_v",
   "referenced_type" : "_ZTIKb",
   "source_file" : "frameworks/native/libs/binder/include/binder/Parcel.h"
  },
  {
   "access" : "private",
   "linker_set_key" : "_ZN7android6Parcel19is_specialization_vINSt3__16vectorIDsNS2_9allocatorIDsEEEENS2_8optionalEEE",
   "name" : "android::Parcel::is_specialization_v",
   "referenced_type" : "_ZTIKb",
   "source_file" : "frameworks/native/libs/binder/include/binder/Parcel.h"
  },
  {
   "access" : "private",
   "linker_set_key" : "_ZN7android6Parcel19is_specialization_vINSt3__16vectorIDsNS2_9allocatorIDsEEEENS_2spEEE",
   "name" : "android::Parcel::is_specialization_v",
   "referenced_type" : "_ZTIKb",
   "source_file" : "frameworks/native/libs/binder/include/binder/Parcel.h"
  },
  {
   "access" : "private",
   "linker_set_key" : "_ZN7android6Parcel19is_specialization_vINSt3__16vectorIDsNS2_9allocatorIDsEEEES3_EE",
   "name" : "android::Parcel::is_specialization_v",
   "referenced_type" : "_ZTIKb",
   "source_file" : "frameworks/native/libs/binder/include/binder/Parcel.h"
  },
  {
   "access" : "private",
   "linker_set_key" : "_ZN7android6Parcel19is_specialization_vINSt3__16vectorINS2_10unique_ptrINS2_12basic_stringIcNS2_11char_traitsIcEENS2_9allocatorIcEEEENS2_14default_deleteISA_EEEENS8_ISD_EEEENS2_10shared_ptrEEE",
   "name" : "android::Parcel::is_specialization_v",
   "referenced_type" : "_ZTIKb",
   "source_file" : "frameworks/native/libs/binder/include/binder/Parcel.h"
  },
  {
   "access" : "private",
   "linker_set_key" : "_ZN7android6Parcel19is_specialization_vINSt3__16vectorINS2_10unique_ptrINS2_12basic_stringIcNS2_11char_traitsIcEENS2_9allocatorIcEEEENS2_14default_deleteISA_EEEENS8_ISD_EEEENS2_8optionalEEE",
   "name" : "android::Parcel::is_specialization_v",
   "referenced_type" : "_ZTIKb",
   "source_file" : "frameworks/native/libs/binder/include/binder/Parcel.h"
  },
  {
   "access" : "private",
   "linker_set_key" : "_ZN7android6Parcel19is_specialization_vINSt3__16vectorINS2_10unique_ptrINS2_12basic_stringIcNS2_11char_traitsIcEENS2_9allocatorIcEEEENS2_14default_deleteISA_EEEENS8_ISD_EEEENS_2spEEE",
   "name" : "android::Parcel::is_specialization_v",
   "referenced_type" : "_ZTIKb",
   "source_file" : "frameworks/native/libs/binder/include/binder/Parcel.h"
  },
  {
   "access" : "private",
   "linker_set_key" : "_ZN7android6Parcel19is_specialization_vINSt3__16vectorINS2_10unique_ptrINS2_12basic_stringIcNS2_11char_traitsIcEENS2_9allocatorIcEEEENS2_14default_deleteISA_EEEENS8_ISD_EEEES3_EE",
   "name" : "android::Parcel::is_specialization_v",
   "referenced_type" : "_ZTIKb",
   "source_file" : "frameworks/native/libs/binder/include/binder/Parcel.h"
  },
  {
   "access" : "private",
   "linker_set_key" : "_ZN7android6Parcel19is_specialization_vINSt3__16vectorINS2_10unique_ptrINS2_12basic_stringIcNS2_11char_traitsIcEENS2_9allocatorIcEEEENS2_14default_deleteISA_EEEENS8_ISD_EEEES4_EE",
   "name" : "android::Parcel::is_specialization_v",
   "referenced_type" : "_ZTIKb",
   "source_file" : "frameworks/native/libs/binder/include/binder/Parcel.h"
  },
  {
   "access" : "private",
   "linker_set_key" : "_ZN7android6Parcel19is_specialization_vINSt3__16vectorINS2_10unique_ptrINS_8String16ENS2_14default_deleteIS5_EEEENS2_9allocatorIS8_EEEENS2_10shared_ptrEEE",
   "name" : "android::Parcel::is_specialization_v",
   "referenced_type" : "_ZTIKb",
   "source_file" : "frameworks/native/libs/binder/include/binder/Parcel.h"
  },
  {
   "access" : "private",
   "linker_set_key" : "_ZN7android6Parcel19is_specialization_vINSt3__16vectorINS2_10unique_ptrINS_8String16ENS2_14default_deleteIS5_EEEENS2_9allocatorIS8_EEEENS2_8optionalEEE",
   "name" : "android::Parcel::is_specialization_v",
   "referenced_type" : "_ZTIKb",
   "source_file" : "frameworks/native/libs/binder/include/binder/Parcel.h"
  },
  {
   "access" : "private",
   "linker_set_key" : "_ZN7android6Parcel19is_specialization_vINSt3__16vectorINS2_10unique_ptrINS_8String16ENS2_14default_deleteIS5_EEEENS2_9allocatorIS8_EEEENS_2spEEE",
   "name" : "android::Parcel::is_specialization_v",
   "referenced_type" : "_ZTIKb",
   "source_file" : "frameworks/native/libs/binder/include/binder/Parcel.h"
  },
  {
   "access" : "private",
   "linker_set_key" : "_ZN7android6Parcel19is_specialization_vINSt3__16vectorINS2_10unique_ptrINS_8String16ENS2_14default_deleteIS5_EEEENS2_9allocatorIS8_EEEES3_EE",
   "name" : "android::Parcel::is_specialization_v",
   "referenced_type" : "_ZTIKb",
   "source_file" : "frameworks/native/libs/binder/include/binder/Parcel.h"
  },
  {
   "access" : "private",
   "linker_set_key" : "_ZN7android6Parcel19is_specialization_vINSt3__16vectorINS2_10unique_ptrINS_8String16ENS2_14default_deleteIS5_EEEENS2_9allocatorIS8_EEEES4_EE",
   "name" : "android::Parcel::is_specialization_v",
   "referenced_type" : "_ZTIKb",
   "source_file" : "frameworks/native/libs/binder/include/binder/Parcel.h"
  },
  {
   "access" : "private",
   "linker_set_key" : "_ZN7android6Parcel19is_specialization_vINSt3__16vectorINS2_12basic_stringIcNS2_11char_traitsIcEENS2_9allocatorIcEEEENS7_IS9_EEEENS2_10shared_ptrEEE",
   "name" : "android::Parcel::is_specialization_v",
   "referenced_type" : "_ZTIKb",
   "source_file" : "frameworks/native/libs/binder/include/binder/Parcel.h"
  },
  {
   "access" : "private",
   "linker_set_key" : "_ZN7android6Parcel19is_specialization_vINSt3__16vectorINS2_12basic_stringIcNS2_11char_traitsIcEENS2_9allocatorIcEEEENS7_IS9_EEEENS2_10unique_ptrEEE",
   "name" : "android::Parcel::is_specialization_v",
   "referenced_type" : "_ZTIKb",
   "source_file" : "frameworks/native/libs/binder/include/binder/Parcel.h"
  },
  {
   "access" : "private",
   "linker_set_key" : "_ZN7android6Parcel19is_specialization_vINSt3__16vectorINS2_12basic_stringIcNS2_11char_traitsIcEENS2_9allocatorIcEEEENS7_IS9_EEEENS2_8optionalEEE",
   "name" : "android::Parcel::is_specialization_v",
   "referenced_type" : "_ZTIKb",
   "source_file" : "frameworks/native/libs/binder/include/binder/Parcel.h"
  },
  {
   "access" : "private",
   "linker_set_key" : "_ZN7android6Parcel19is_specialization_vINSt3__16vectorINS2_12basic_stringIcNS2_11char_traitsIcEENS2_9allocatorIcEEEENS7_IS9_EEEENS_2spEEE",
   "name" : "android::Parcel::is_specialization_v",
   "referenced_type" : "_ZTIKb",
   "source_file" : "frameworks/native/libs/binder/include/binder/Parcel.h"
  },
  {
   "access" : "private",
   "linker_set_key" : "_ZN7android6Parcel19is_specialization_vINSt3__16vectorINS2_12basic_stringIcNS2_11char_traitsIcEENS2_9allocatorIcEEEENS7_IS9_EEEES3_EE",
   "name" : "android::Parcel::is_specialization_v",
   "referenced_type" : "_ZTIKb",
   "source_file" : "frameworks/native/libs/binder/include/binder/Parcel.h"
  },
  {
   "access" : "private",
   "linker_set_key" : "_ZN7android6Parcel19is_specialization_vINSt3__16vectorINS2_8optionalINS2_12basic_stringIcNS2_11char_traitsIcEENS2_9allocatorIcEEEEEENS8_ISB_EEEENS2_10shared_ptrEEE",
   "name" : "android::Parcel::is_specialization_v",
   "referenced_type" : "_ZTIKb",
   "source_file" : "frameworks/native/libs/binder/include/binder/Parcel.h"
  },
  {
   "access" : "private",
   "linker_set_key" : "_ZN7android6Parcel19is_specialization_vINSt3__16vectorINS2_8optionalINS2_12basic_stringIcNS2_11char_traitsIcEENS2_9allocatorIcEEEEEENS8_ISB_EEEENS2_10unique_ptrEEE",
   "name" : "android::Parcel::is_specialization_v",
   "referenced_type" : "_ZTIKb",
   "source_file" : "frameworks/native/libs/binder/include/binder/Parcel.h"
  },
  {
   "access" : "private",
   "linker_set_key" : "_ZN7android6Parcel19is_specialization_vINSt3__16vectorINS2_8optionalINS2_12basic_stringIcNS2_11char_traitsIcEENS2_9allocatorIcEEEEEENS8_ISB_EEEENS_2spEEE",
   "name" : "android::Parcel::is_specialization_v",
   "referenced_type" : "_ZTIKb",
   "source_file" : "frameworks/native/libs/binder/include/binder/Parcel.h"
  },
  {
   "access" : "private",
   "linker_set_key" : "_ZN7android6Parcel19is_specialization_vINSt3__16vectorINS2_8optionalINS2_12basic_stringIcNS2_11char_traitsIcEENS2_9allocatorIcEEEEEENS8_ISB_EEEES3_EE",
   "name" : "android::Parcel::is_specialization_v",
   "referenced_type" : "_ZTIKb",
   "source_file" : "frameworks/native/libs/binder/include/binder/Parcel.h"
  },
  {
   "access" : "private",
   "linker_set_key" : "_ZN7android6Parcel19is_specialization_vINSt3__16vectorINS2_8optionalINS2_12basic_stringIcNS2_11char_traitsIcEENS2_9allocatorIcEEEEEENS8_ISB_EEEES4_EE",
   "name" : "android::Parcel::is_specialization_v",
   "referenced_type" : "_ZTIKb",
   "source_file" : "frameworks/native/libs/binder/include/binder/Parcel.h"
  },
  {
   "access" : "private",
   "linker_set_key" : "_ZN7android6Parcel19is_specialization_vINSt3__16vectorINS2_8optionalINS_8String16EEENS2_9allocatorIS6_EEEENS2_10shared_ptrEEE",
   "name" : "android::Parcel::is_specialization_v",
   "referenced_type" : "_ZTIKb",
   "source_file" : "frameworks/native/libs/binder/include/binder/Parcel.h"
  },
  {
   "access" : "private",
   "linker_set_key" : "_ZN7android6Parcel19is_specialization_vINSt3__16vectorINS2_8optionalINS_8String16EEENS2_9allocatorIS6_EEEENS2_10unique_ptrEEE",
   "name" : "android::Parcel::is_specialization_v",
   "referenced_type" : "_ZTIKb",
   "source_file" : "frameworks/native/libs/binder/include/binder/Parcel.h"
  },
  {
   "access" : "private",
   "linker_set_key" : "_ZN7android6Parcel19is_specialization_vINSt3__16vectorINS2_8optionalINS_8String16EEENS2_9allocatorIS6_EEEENS_2spEEE",
   "name" : "android::Parcel::is_specialization_v",
   "referenced_type" : "_ZTIKb",
   "source_file" : "frameworks/native/libs/binder/include/binder/Parcel.h"
  },
  {
   "access" : "private",
   "linker_set_key" : "_ZN7android6Parcel19is_specialization_vINSt3__16vectorINS2_8optionalINS_8String16EEENS2_9allocatorIS6_EEEES3_EE",
   "name" : "android::Parcel::is_specialization_v",
   "referenced_type" : "_ZTIKb",
   "source_file" : "frameworks/native/libs/binder/include/binder/Parcel.h"
  },
  {
   "access" : "private",
   "linker_set_key" : "_ZN7android6Parcel19is_specialization_vINSt3__16vectorINS2_8optionalINS_8String16EEENS2_9allocatorIS6_EEEES4_EE",
   "name" : "android::Parcel::is_specialization_v",
   "referenced_type" : "_ZTIKb",
   "source_file" : "frameworks/native/libs/binder/include/binder/Parcel.h"
  },
  {
   "access" : "private",
   "linker_set_key" : "_ZN7android6Parcel19is_specialization_vINSt3__16vectorINS_2spINS_7IBinderEEENS2_9allocatorIS6_EEEENS2_10shared_ptrEEE",
   "name" : "android::Parcel::is_specialization_v",
   "referenced_type" : "_ZTIKb",
   "source_file" : "frameworks/native/libs/binder/include/binder/Parcel.h"
  },
  {
   "access" : "private",
   "linker_set_key" : "_ZN7android6Parcel19is_specialization_vINSt3__16vectorINS_2spINS_7IBinderEEENS2_9allocatorIS6_EEEENS2_10unique_ptrEEE",
   "name" : "android::Parcel::is_specialization_v",
   "referenced_type" : "_ZTIKb",
   "source_file" : "frameworks/native/libs/binder/include/binder/Parcel.h"
  },
  {
   "access" : "private",
   "linker_set_key" : "_ZN7android6Parcel19is_specialization_vINSt3__16vectorINS_2spINS_7IBinderEEENS2_9allocatorIS6_EEEENS2_8optionalEEE",
   "name" : "android::Parcel::is_specialization_v",
   "referenced_type" : "_ZTIKb",
   "source_file" : "frameworks/native/libs/binder/include/binder/Parcel.h"
  },
  {
   "access" : "private",
   "linker_set_key" : "_ZN7android6Parcel19is_specialization_vINSt3__16vectorINS_2spINS_7IBinderEEENS2_9allocatorIS6_EEEES3_EE",
   "name" : "android::Parcel::is_specialization_v",
   "referenced_type" : "_ZTIKb",
   "source_file" : "frameworks/native/libs/binder/include/binder/Parcel.h"
  },
  {
   "access" : "private",
   "linker_set_key" : "_ZN7android6Parcel19is_specialization_vINSt3__16vectorINS_2spINS_7IBinderEEENS2_9allocatorIS6_EEEES4_EE",
   "name" : "android::Parcel::is_specialization_v",
   "referenced_type" : "_ZTIKb",
   "source_file" : "frameworks/native/libs/binder/include/binder/Parcel.h"
  },
  {
   "access" : "private",
   "linker_set_key" : "_ZN7android6Parcel19is_specialization_vINSt3__16vectorINS_4base14unique_fd_implINS4_13DefaultCloserEEENS2_9allocatorIS7_EEEENS2_10shared_ptrEEE",
   "name" : "android::Parcel::is_specialization_v",
   "referenced_type" : "_ZTIKb",
   "source_file" : "frameworks/native/libs/binder/include/binder/Parcel.h"
  },
  {
   "access" : "private",
   "linker_set_key" : "_ZN7android6Parcel19is_specialization_vINSt3__16vectorINS_4base14unique_fd_implINS4_13DefaultCloserEEENS2_9allocatorIS7_EEEENS2_10unique_ptrEEE",
   "name" : "android::Parcel::is_specialization_v",
   "referenced_type" : "_ZTIKb",
   "source_file" : "frameworks/native/libs/binder/include/binder/Parcel.h"
  },
  {
   "access" : "private",
   "linker_set_key" : "_ZN7android6Parcel19is_specialization_vINSt3__16vectorINS_4base14unique_fd_implINS4_13DefaultCloserEEENS2_9allocatorIS7_EEEENS2_8optionalEEE",
   "name" : "android::Parcel::is_specialization_v",
   "referenced_type" : "_ZTIKb",
   "source_file" : "frameworks/native/libs/binder/include/binder/Parcel.h"
  },
  {
   "access" : "private",
   "linker_set_key" : "_ZN7android6Parcel19is_specialization_vINSt3__16vectorINS_4base14unique_fd_implINS4_13DefaultCloserEEENS2_9allocatorIS7_EEEENS_2spEEE",
   "name" : "android::Parcel::is_specialization_v",
   "referenced_type" : "_ZTIKb",
   "source_file" : "frameworks/native/libs/binder/include/binder/Parcel.h"
  },
  {
   "access" : "private",
   "linker_set_key" : "_ZN7android6Parcel19is_specialization_vINSt3__16vectorINS_4base14unique_fd_implINS4_13DefaultCloserEEENS2_9allocatorIS7_EEEES3_EE",
   "name" : "android::Parcel::is_specialization_v",
   "referenced_type" : "_ZTIKb",
   "source_file" : "frameworks/native/libs/binder/include/binder/Parcel.h"
  },
  {
   "access" : "private",
   "linker_set_key" : "_ZN7android6Parcel19is_specialization_vINSt3__16vectorINS_8String16ENS2_9allocatorIS4_EEEENS2_10shared_ptrEEE",
   "name" : "android::Parcel::is_specialization_v",
   "referenced_type" : "_ZTIKb",
   "source_file" : "frameworks/native/libs/binder/include/binder/Parcel.h"
  },
  {
   "access" : "private",
   "linker_set_key" : "_ZN7android6Parcel19is_specialization_vINSt3__16vectorINS_8String16ENS2_9allocatorIS4_EEEENS2_10unique_ptrEEE",
   "name" : "android::Parcel::is_specialization_v",
   "referenced_type" : "_ZTIKb",
   "source_file" : "frameworks/native/libs/binder/include/binder/Parcel.h"
  },
  {
   "access" : "private",
   "linker_set_key" : "_ZN7android6Parcel19is_specialization_vINSt3__16vectorINS_8String16ENS2_9allocatorIS4_EEEENS2_8optionalEEE",
   "name" : "android::Parcel::is_specialization_v",
   "referenced_type" : "_ZTIKb",
   "source_file" : "frameworks/native/libs/binder/include/binder/Parcel.h"
  },
  {
   "access" : "private",
   "linker_set_key" : "_ZN7android6Parcel19is_specialization_vINSt3__16vectorINS_8String16ENS2_9allocatorIS4_EEEENS_2spEEE",
   "name" : "android::Parcel::is_specialization_v",
   "referenced_type" : "_ZTIKb",
   "source_file" : "frameworks/native/libs/binder/include/binder/Parcel.h"
  },
  {
   "access" : "private",
   "linker_set_key" : "_ZN7android6Parcel19is_specialization_vINSt3__16vectorINS_8String16ENS2_9allocatorIS4_EEEES3_EE",
   "name" : "android::Parcel::is_specialization_v",
   "referenced_type" : "_ZTIKb",
   "source_file" : "frameworks/native/libs/binder/include/binder/Parcel.h"
  },
  {
   "access" : "private",
   "linker_set_key" : "_ZN7android6Parcel19is_specialization_vINSt3__16vectorIaNS2_9allocatorIaEEEENS2_10shared_ptrEEE",
   "name" : "android::Parcel::is_specialization_v",
   "referenced_type" : "_ZTIKb",
   "source_file" : "frameworks/native/libs/binder/include/binder/Parcel.h"
  },
  {
   "access" : "private",
   "linker_set_key" : "_ZN7android6Parcel19is_specialization_vINSt3__16vectorIaNS2_9allocatorIaEEEENS2_10unique_ptrEEE",
   "name" : "android::Parcel::is_specialization_v",
   "referenced_type" : "_ZTIKb",
   "source_file" : "frameworks/native/libs/binder/include/binder/Parcel.h"
  },
  {
   "access" : "private",
   "linker_set_key" : "_ZN7android6Parcel19is_specialization_vINSt3__16vectorIaNS2_9allocatorIaEEEENS2_8optionalEEE",
   "name" : "android::Parcel::is_specialization_v",
   "referenced_type" : "_ZTIKb",
   "source_file" : "frameworks/native/libs/binder/include/binder/Parcel.h"
  },
  {
   "access" : "private",
   "linker_set_key" : "_ZN7android6Parcel19is_specialization_vINSt3__16vectorIaNS2_9allocatorIaEEEENS_2spEEE",
   "name" : "android::Parcel::is_specialization_v",
   "referenced_type" : "_ZTIKb",
   "source_file" : "frameworks/native/libs/binder/include/binder/Parcel.h"
  },
  {
   "access" : "private",
   "linker_set_key" : "_ZN7android6Parcel19is_specialization_vINSt3__16vectorIaNS2_9allocatorIaEEEES3_EE",
   "name" : "android::Parcel::is_specialization_v",
   "referenced_type" : "_ZTIKb",
   "source_file" : "frameworks/native/libs/binder/include/binder/Parcel.h"
  },
  {
   "access" : "private",
   "linker_set_key" : "_ZN7android6Parcel19is_specialization_vINSt3__16vectorIbNS2_9allocatorIbEEEENS2_10shared_ptrEEE",
   "name" : "android::Parcel::is_specialization_v",
   "referenced_type" : "_ZTIKb",
   "source_file" : "frameworks/native/libs/binder/include/binder/Parcel.h"
  },
  {
   "access" : "private",
   "linker_set_key" : "_ZN7android6Parcel19is_specialization_vINSt3__16vectorIbNS2_9allocatorIbEEEENS2_10unique_ptrEEE",
   "name" : "android::Parcel::is_specialization_v",
   "referenced_type" : "_ZTIKb",
   "source_file" : "frameworks/native/libs/binder/include/binder/Parcel.h"
  },
  {
   "access" : "private",
   "linker_set_key" : "_ZN7android6Parcel19is_specialization_vINSt3__16vectorIbNS2_9allocatorIbEEEENS2_8optionalEEE",
   "name" : "android::Parcel::is_specialization_v",
   "referenced_type" : "_ZTIKb",
   "source_file" : "frameworks/native/libs/binder/include/binder/Parcel.h"
  },
  {
   "access" : "private",
   "linker_set_key" : "_ZN7android6Parcel19is_specialization_vINSt3__16vectorIbNS2_9allocatorIbEEEENS_2spEEE",
   "name" : "android::Parcel::is_specialization_v",
   "referenced_type" : "_ZTIKb",
   "source_file" : "frameworks/native/libs/binder/include/binder/Parcel.h"
  },
  {
   "access" : "private",
   "linker_set_key" : "_ZN7android6Parcel19is_specialization_vINSt3__16vectorIbNS2_9allocatorIbEEEES3_EE",
   "name" : "android::Parcel::is_specialization_v",
   "referenced_type" : "_ZTIKb",
   "source_file" : "frameworks/native/libs/binder/include/binder/Parcel.h"
  },
  {
   "access" : "private",
   "linker_set_key" : "_ZN7android6Parcel19is_specialization_vINSt3__16vectorIdNS2_9allocatorIdEEEENS2_10shared_ptrEEE",
   "name" : "android::Parcel::is_specialization_v",
   "referenced_type" : "_ZTIKb",
   "source_file" : "frameworks/native/libs/binder/include/binder/Parcel.h"
  },
  {
   "access" : "private",
   "linker_set_key" : "_ZN7android6Parcel19is_specialization_vINSt3__16vectorIdNS2_9allocatorIdEEEENS2_10unique_ptrEEE",
   "name" : "android::Parcel::is_specialization_v",
   "referenced_type" : "_ZTIKb",
   "source_file" : "frameworks/native/libs/binder/include/binder/Parcel.h"
  },
  {
   "access" : "private",
   "linker_set_key" : "_ZN7android6Parcel19is_specialization_vINSt3__16vectorIdNS2_9allocatorIdEEEENS2_8optionalEEE",
   "name" : "android::Parcel::is_specialization_v",
   "referenced_type" : "_ZTIKb",
   "source_file" : "frameworks/native/libs/binder/include/binder/Parcel.h"
  },
  {
   "access" : "private",
   "linker_set_key" : "_ZN7android6Parcel19is_specialization_vINSt3__16vectorIdNS2_9allocatorIdEEEENS_2spEEE",
   "name" : "android::Parcel::is_specialization_v",
   "referenced_type" : "_ZTIKb",
   "source_file" : "frameworks/native/libs/binder/include/binder/Parcel.h"
  },
  {
   "access" : "private",
   "linker_set_key" : "_ZN7android6Parcel19is_specialization_vINSt3__16vectorIdNS2_9allocatorIdEEEES3_EE",
   "name" : "android::Parcel::is_specialization_v",
   "referenced_type" : "_ZTIKb",
   "source_file" : "frameworks/native/libs/binder/include/binder/Parcel.h"
  },
  {
   "access" : "private",
   "linker_set_key" : "_ZN7android6Parcel19is_specialization_vINSt3__16vectorIfNS2_9allocatorIfEEEENS2_10shared_ptrEEE",
   "name" : "android::Parcel::is_specialization_v",
   "referenced_type" : "_ZTIKb",
   "source_file" : "frameworks/native/libs/binder/include/binder/Parcel.h"
  },
  {
   "access" : "private",
   "linker_set_key" : "_ZN7android6Parcel19is_specialization_vINSt3__16vectorIfNS2_9allocatorIfEEEENS2_10unique_ptrEEE",
   "name" : "android::Parcel::is_specialization_v",
   "referenced_type" : "_ZTIKb",
   "source_file" : "frameworks/native/libs/binder/include/binder/Parcel.h"
  },
  {
   "access" : "private",
   "linker_set_key" : "_ZN7android6Parcel19is_specialization_vINSt3__16vectorIfNS2_9allocatorIfEEEENS2_8optionalEEE",
   "name" : "android::Parcel::is_specialization_v",
   "referenced_type" : "_ZTIKb",
   "source_file" : "frameworks/native/libs/binder/include/binder/Parcel.h"
  },
  {
   "access" : "private",
   "linker_set_key" : "_ZN7android6Parcel19is_specialization_vINSt3__16vectorIfNS2_9allocatorIfEEEENS_2spEEE",
   "name" : "android::Parcel::is_specialization_v",
   "referenced_type" : "_ZTIKb",
   "source_file" : "frameworks/native/libs/binder/include/binder/Parcel.h"
  },
  {
   "access" : "private",
   "linker_set_key" : "_ZN7android6Parcel19is_specialization_vINSt3__16vectorIfNS2_9allocatorIfEEEES3_EE",
   "name" : "android::Parcel::is_specialization_v",
   "referenced_type" : "_ZTIKb",
   "source_file" : "frameworks/native/libs/binder/include/binder/Parcel.h"
  },
  {
   "access" : "private",
   "linker_set_key" : "_ZN7android6Parcel19is_specialization_vINSt3__16vectorIhNS2_9allocatorIhEEEENS2_10shared_ptrEEE",
   "name" : "android::Parcel::is_specialization_v",
   "referenced_type" : "_ZTIKb",
   "source_file" : "frameworks/native/libs/binder/include/binder/Parcel.h"
  },
  {
   "access" : "private",
   "linker_set_key" : "_ZN7android6Parcel19is_specialization_vINSt3__16vectorIhNS2_9allocatorIhEEEENS2_10unique_ptrEEE",
   "name" : "android::Parcel::is_specialization_v",
   "referenced_type" : "_ZTIKb",
   "source_file" : "frameworks/native/libs/binder/include/binder/Parcel.h"
  },
  {
   "access" : "private",
   "linker_set_key" : "_ZN7android6Parcel19is_specialization_vINSt3__16vectorIhNS2_9allocatorIhEEEENS2_8optionalEEE",
   "name" : "android::Parcel::is_specialization_v",
   "referenced_type" : "_ZTIKb",
   "source_file" : "frameworks/native/libs/binder/include/binder/Parcel.h"
  },
  {
   "access" : "private",
   "linker_set_key" : "_ZN7android6Parcel19is_specialization_vINSt3__16vectorIhNS2_9allocatorIhEEEENS_2spEEE",
   "name" : "android::Parcel::is_specialization_v",
   "referenced_type" : "_ZTIKb",
   "source_file" : "frameworks/native/libs/binder/include/binder/Parcel.h"
  },
  {
   "access" : "private",
   "linker_set_key" : "_ZN7android6Parcel19is_specialization_vINSt3__16vectorIhNS2_9allocatorIhEEEES3_EE",
   "name" : "android::Parcel::is_specialization_v",
   "referenced_type" : "_ZTIKb",
   "source_file" : "frameworks/native/libs/binder/include/binder/Parcel.h"
  },
  {
   "access" : "private",
   "linker_set_key" : "_ZN7android6Parcel19is_specialization_vINSt3__16vectorIiNS2_9allocatorIiEEEENS2_10shared_ptrEEE",
   "name" : "android::Parcel::is_specialization_v",
   "referenced_type" : "_ZTIKb",
   "source_file" : "frameworks/native/libs/binder/include/binder/Parcel.h"
  },
  {
   "access" : "private",
   "linker_set_key" : "_ZN7android6Parcel19is_specialization_vINSt3__16vectorIiNS2_9allocatorIiEEEENS2_10unique_ptrEEE",
   "name" : "android::Parcel::is_specialization_v",
   "referenced_type" : "_ZTIKb",
   "source_file" : "frameworks/native/libs/binder/include/binder/Parcel.h"
  },
  {
   "access" : "private",
   "linker_set_key" : "_ZN7android6Parcel19is_specialization_vINSt3__16vectorIiNS2_9allocatorIiEEEENS2_8optionalEEE",
   "name" : "android::Parcel::is_specialization_v",
   "referenced_type" : "_ZTIKb",
   "source_file" : "frameworks/native/libs/binder/include/binder/Parcel.h"
  },
  {
   "access" : "private",
   "linker_set_key" : "_ZN7android6Parcel19is_specialization_vINSt3__16vectorIiNS2_9allocatorIiEEEENS_2spEEE",
   "name" : "android::Parcel::is_specialization_v",
   "referenced_type" : "_ZTIKb",
   "source_file" : "frameworks/native/libs/binder/include/binder/Parcel.h"
  },
  {
   "access" : "private",
   "linker_set_key" : "_ZN7android6Parcel19is_specialization_vINSt3__16vectorIiNS2_9allocatorIiEEEES3_EE",
   "name" : "android::Parcel::is_specialization_v",
   "referenced_type" : "_ZTIKb",
   "source_file" : "frameworks/native/libs/binder/include/binder/Parcel.h"
  },
  {
   "access" : "private",
   "linker_set_key" : "_ZN7android6Parcel19is_specialization_vINSt3__16vectorIxNS2_9allocatorIxEEEENS2_10shared_ptrEEE",
   "name" : "android::Parcel::is_specialization_v",
   "referenced_type" : "_ZTIKb",
   "source_file" : "frameworks/native/libs/binder/include/binder/Parcel.h"
  },
  {
   "access" : "private",
   "linker_set_key" : "_ZN7android6Parcel19is_specialization_vINSt3__16vectorIxNS2_9allocatorIxEEEENS2_10unique_ptrEEE",
   "name" : "android::Parcel::is_specialization_v",
   "referenced_type" : "_ZTIKb",
   "source_file" : "frameworks/native/libs/binder/include/binder/Parcel.h"
  },
  {
   "access" : "private",
   "linker_set_key" : "_ZN7android6Parcel19is_specialization_vINSt3__16vectorIxNS2_9allocatorIxEEEENS2_8optionalEEE",
   "name" : "android::Parcel::is_specialization_v",
   "referenced_type" : "_ZTIKb",
   "source_file" : "frameworks/native/libs/binder/include/binder/Parcel.h"
  },
  {
   "access" : "private",
   "linker_set_key" : "_ZN7android6Parcel19is_specialization_vINSt3__16vectorIxNS2_9allocatorIxEEEENS_2spEEE",
   "name" : "android::Parcel::is_specialization_v",
   "referenced_type" : "_ZTIKb",
   "source_file" : "frameworks/native/libs/binder/include/binder/Parcel.h"
  },
  {
   "access" : "private",
   "linker_set_key" : "_ZN7android6Parcel19is_specialization_vINSt3__16vectorIxNS2_9allocatorIxEEEES3_EE",
   "name" : "android::Parcel::is_specialization_v",
   "referenced_type" : "_ZTIKb",
   "source_file" : "frameworks/native/libs/binder/include/binder/Parcel.h"
  },
  {
   "access" : "private",
   "linker_set_key" : "_ZN7android6Parcel19is_specialization_vINSt3__16vectorIyNS2_9allocatorIyEEEENS2_10shared_ptrEEE",
   "name" : "android::Parcel::is_specialization_v",
   "referenced_type" : "_ZTIKb",
   "source_file" : "frameworks/native/libs/binder/include/binder/Parcel.h"
  },
  {
   "access" : "private",
   "linker_set_key" : "_ZN7android6Parcel19is_specialization_vINSt3__16vectorIyNS2_9allocatorIyEEEENS2_10unique_ptrEEE",
   "name" : "android::Parcel::is_specialization_v",
   "referenced_type" : "_ZTIKb",
   "source_file" : "frameworks/native/libs/binder/include/binder/Parcel.h"
  },
  {
   "access" : "private",
   "linker_set_key" : "_ZN7android6Parcel19is_specialization_vINSt3__16vectorIyNS2_9allocatorIyEEEENS2_8optionalEEE",
   "name" : "android::Parcel::is_specialization_v",
   "referenced_type" : "_ZTIKb",
   "source_file" : "frameworks/native/libs/binder/include/binder/Parcel.h"
  },
  {
   "access" : "private",
   "linker_set_key" : "_ZN7android6Parcel19is_specialization_vINSt3__16vectorIyNS2_9allocatorIyEEEENS_2spEEE",
   "name" : "android::Parcel::is_specialization_v",
   "referenced_type" : "_ZTIKb",
   "source_file" : "frameworks/native/libs/binder/include/binder/Parcel.h"
  },
  {
   "access" : "private",
   "linker_set_key" : "_ZN7android6Parcel19is_specialization_vINSt3__16vectorIyNS2_9allocatorIyEEEES3_EE",
   "name" : "android::Parcel::is_specialization_v",
   "referenced_type" : "_ZTIKb",
   "source_file" : "frameworks/native/libs/binder/include/binder/Parcel.h"
  },
  {
   "access" : "private",
   "linker_set_key" : "_ZN7android6Parcel19is_specialization_vINSt3__18optionalINS2_12basic_stringIcNS2_11char_traitsIcEENS2_9allocatorIcEEEEEENS2_10shared_ptrEEE",
   "name" : "android::Parcel::is_specialization_v",
   "referenced_type" : "_ZTIKb",
   "source_file" : "frameworks/native/libs/binder/include/binder/Parcel.h"
  },
  {
   "access" : "private",
   "linker_set_key" : "_ZN7android6Parcel19is_specialization_vINSt3__18optionalINS2_12basic_stringIcNS2_11char_traitsIcEENS2_9allocatorIcEEEEEENS2_10unique_ptrEEE",
   "name" : "android::Parcel::is_specialization_v",
   "referenced_type" : "_ZTIKb",
   "source_file" : "frameworks/native/libs/binder/include/binder/Parcel.h"
  },
  {
   "access" : "private",
   "linker_set_key" : "_ZN7android6Parcel19is_specialization_vINSt3__18optionalINS2_12basic_stringIcNS2_11char_traitsIcEENS2_9allocatorIcEEEEEENS2_6vectorEEE",
   "name" : "android::Parcel::is_specialization_v",
   "referenced_type" : "_ZTIKb",
   "source_file" : "frameworks/native/libs/binder/include/binder/Parcel.h"
  },
  {
   "access" : "private",
   "linker_set_key" : "_ZN7android6Parcel19is_specialization_vINSt3__18optionalINS2_12basic_stringIcNS2_11char_traitsIcEENS2_9allocatorIcEEEEEENS_2spEEE",
   "name" : "android::Parcel::is_specialization_v",
   "referenced_type" : "_ZTIKb",
   "source_file" : "frameworks/native/libs/binder/include/binder/Parcel.h"
  },
  {
   "access" : "private",
   "linker_set_key" : "_ZN7android6Parcel19is_specialization_vINSt3__18optionalINS2_12basic_stringIcNS2_11char_traitsIcEENS2_9allocatorIcEEEEEES3_EE",
   "name" : "android::Parcel::is_specialization_v",
   "referenced_type" : "_ZTIKb",
   "source_file" : "frameworks/native/libs/binder/include/binder/Parcel.h"
  },
  {
   "access" : "private",
   "linker_set_key" : "_ZN7android6Parcel19is_specialization_vINSt3__18optionalINS2_6vectorIDsNS2_9allocatorIDsEEEEEENS2_10shared_ptrEEE",
   "name" : "android::Parcel::is_specialization_v",
   "referenced_type" : "_ZTIKb",
   "source_file" : "frameworks/native/libs/binder/include/binder/Parcel.h"
  },
  {
   "access" : "private",
   "linker_set_key" : "_ZN7android6Parcel19is_specialization_vINSt3__18optionalINS2_6vectorIDsNS2_9allocatorIDsEEEEEENS2_10unique_ptrEEE",
   "name" : "android::Parcel::is_specialization_v",
   "referenced_type" : "_ZTIKb",
   "source_file" : "frameworks/native/libs/binder/include/binder/Parcel.h"
  },
  {
   "access" : "private",
   "linker_set_key" : "_ZN7android6Parcel19is_specialization_vINSt3__18optionalINS2_6vectorIDsNS2_9allocatorIDsEEEEEENS_2spEEE",
   "name" : "android::Parcel::is_specialization_v",
   "referenced_type" : "_ZTIKb",
   "source_file" : "frameworks/native/libs/binder/include/binder/Parcel.h"
  },
  {
   "access" : "private",
   "linker_set_key" : "_ZN7android6Parcel19is_specialization_vINSt3__18optionalINS2_6vectorIDsNS2_9allocatorIDsEEEEEES3_EE",
   "name" : "android::Parcel::is_specialization_v",
   "referenced_type" : "_ZTIKb",
   "source_file" : "frameworks/native/libs/binder/include/binder/Parcel.h"
  },
  {
   "access" : "private",
   "linker_set_key" : "_ZN7android6Parcel19is_specialization_vINSt3__18optionalINS2_6vectorIDsNS2_9allocatorIDsEEEEEES4_EE",
   "name" : "android::Parcel::is_specialization_v",
   "referenced_type" : "_ZTIKb",
   "source_file" : "frameworks/native/libs/binder/include/binder/Parcel.h"
  },
  {
   "access" : "private",
   "linker_set_key" : "_ZN7android6Parcel19is_specialization_vINSt3__18optionalINS2_6vectorINS3_INS2_12basic_stringIcNS2_11char_traitsIcEENS2_9allocatorIcEEEEEENS8_ISB_EEEEEENS2_10shared_ptrEEE",
   "name" : "android::Parcel::is_specialization_v",
   "referenced_type" : "_ZTIKb",
   "source_file" : "frameworks/native/libs/binder/include/binder/Parcel.h"
  },
  {
   "access" : "private",
   "linker_set_key" : "_ZN7android6Parcel19is_specialization_vINSt3__18optionalINS2_6vectorINS3_INS2_12basic_stringIcNS2_11char_traitsIcEENS2_9allocatorIcEEEEEENS8_ISB_EEEEEENS2_10unique_ptrEEE",
   "name" : "android::Parcel::is_specialization_v",
   "referenced_type" : "_ZTIKb",
   "source_file" : "frameworks/native/libs/binder/include/binder/Parcel.h"
  },
  {
   "access" : "private",
   "linker_set_key" : "_ZN7android6Parcel19is_specialization_vINSt3__18optionalINS2_6vectorINS3_INS2_12basic_stringIcNS2_11char_traitsIcEENS2_9allocatorIcEEEEEENS8_ISB_EEEEEENS_2spEEE",
   "name" : "android::Parcel::is_specialization_v",
   "referenced_type" : "_ZTIKb",
   "source_file" : "frameworks/native/libs/binder/include/binder/Parcel.h"
  },
  {
   "access" : "private",
   "linker_set_key" : "_ZN7android6Parcel19is_specialization_vINSt3__18optionalINS2_6vectorINS3_INS2_12basic_stringIcNS2_11char_traitsIcEENS2_9allocatorIcEEEEEENS8_ISB_EEEEEES3_EE",
   "name" : "android::Parcel::is_specialization_v",
   "referenced_type" : "_ZTIKb",
   "source_file" : "frameworks/native/libs/binder/include/binder/Parcel.h"
  },
  {
   "access" : "private",
   "linker_set_key" : "_ZN7android6Parcel19is_specialization_vINSt3__18optionalINS2_6vectorINS3_INS2_12basic_stringIcNS2_11char_traitsIcEENS2_9allocatorIcEEEEEENS8_ISB_EEEEEES4_EE",
   "name" : "android::Parcel::is_specialization_v",
   "referenced_type" : "_ZTIKb",
   "source_file" : "frameworks/native/libs/binder/include/binder/Parcel.h"
  },
  {
   "access" : "private",
   "linker_set_key" : "_ZN7android6Parcel19is_specialization_vINSt3__18optionalINS2_6vectorINS3_INS_8String16EEENS2_9allocatorIS6_EEEEEENS2_10shared_ptrEEE",
   "name" : "android::Parcel::is_specialization_v",
   "referenced_type" : "_ZTIKb",
   "source_file" : "frameworks/native/libs/binder/include/binder/Parcel.h"
  },
  {
   "access" : "private",
   "linker_set_key" : "_ZN7android6Parcel19is_specialization_vINSt3__18optionalINS2_6vectorINS3_INS_8String16EEENS2_9allocatorIS6_EEEEEENS2_10unique_ptrEEE",
   "name" : "android::Parcel::is_specialization_v",
   "referenced_type" : "_ZTIKb",
   "source_file" : "frameworks/native/libs/binder/include/binder/Parcel.h"
  },
  {
   "access" : "private",
   "linker_set_key" : "_ZN7android6Parcel19is_specialization_vINSt3__18optionalINS2_6vectorINS3_INS_8String16EEENS2_9allocatorIS6_EEEEEENS_2spEEE",
   "name" : "android::Parcel::is_specialization_v",
   "referenced_type" : "_ZTIKb",
   "source_file" : "frameworks/native/libs/binder/include/binder/Parcel.h"
  },
  {
   "access" : "private",
   "linker_set_key" : "_ZN7android6Parcel19is_specialization_vINSt3__18optionalINS2_6vectorINS3_INS_8String16EEENS2_9allocatorIS6_EEEEEES3_EE",
   "name" : "android::Parcel::is_specialization_v",
   "referenced_type" : "_ZTIKb",
   "source_file" : "frameworks/native/libs/binder/include/binder/Parcel.h"
  },
  {
   "access" : "private",
   "linker_set_key" : "_ZN7android6Parcel19is_specialization_vINSt3__18optionalINS2_6vectorINS3_INS_8String16EEENS2_9allocatorIS6_EEEEEES4_EE",
   "name" : "android::Parcel::is_specialization_v",
   "referenced_type" : "_ZTIKb",
   "source_file" : "frameworks/native/libs/binder/include/binder/Parcel.h"
  },
  {
   "access" : "private",
   "linker_set_key" : "_ZN7android6Parcel19is_specialization_vINSt3__18optionalINS2_6vectorINS_2spINS_7IBinderEEENS2_9allocatorIS7_EEEEEENS2_10shared_ptrEEE",
   "name" : "android::Parcel::is_specialization_v",
   "referenced_type" : "_ZTIKb",
   "source_file" : "frameworks/native/libs/binder/include/binder/Parcel.h"
  },
  {
   "access" : "private",
   "linker_set_key" : "_ZN7android6Parcel19is_specialization_vINSt3__18optionalINS2_6vectorINS_2spINS_7IBinderEEENS2_9allocatorIS7_EEEEEENS2_10unique_ptrEEE",
   "name" : "android::Parcel::is_specialization_v",
   "referenced_type" : "_ZTIKb",
   "source_file" : "frameworks/native/libs/binder/include/binder/Parcel.h"
  },
  {
   "access" : "private",
   "linker_set_key" : "_ZN7android6Parcel19is_specialization_vINSt3__18optionalINS2_6vectorINS_2spINS_7IBinderEEENS2_9allocatorIS7_EEEEEES3_EE",
   "name" : "android::Parcel::is_specialization_v",
   "referenced_type" : "_ZTIKb",
   "source_file" : "frameworks/native/libs/binder/include/binder/Parcel.h"
  },
  {
   "access" : "private",
   "linker_set_key" : "_ZN7android6Parcel19is_specialization_vINSt3__18optionalINS2_6vectorINS_2spINS_7IBinderEEENS2_9allocatorIS7_EEEEEES4_EE",
   "name" : "android::Parcel::is_specialization_v",
   "referenced_type" : "_ZTIKb",
   "source_file" : "frameworks/native/libs/binder/include/binder/Parcel.h"
  },
  {
   "access" : "private",
   "linker_set_key" : "_ZN7android6Parcel19is_specialization_vINSt3__18optionalINS2_6vectorINS_2spINS_7IBinderEEENS2_9allocatorIS7_EEEEEES5_EE",
   "name" : "android::Parcel::is_specialization_v",
   "referenced_type" : "_ZTIKb",
   "source_file" : "frameworks/native/libs/binder/include/binder/Parcel.h"
  },
  {
   "access" : "private",
   "linker_set_key" : "_ZN7android6Parcel19is_specialization_vINSt3__18optionalINS2_6vectorINS_4base14unique_fd_implINS5_13DefaultCloserEEENS2_9allocatorIS8_EEEEEENS2_10shared_ptrEEE",
   "name" : "android::Parcel::is_specialization_v",
   "referenced_type" : "_ZTIKb",
   "source_file" : "frameworks/native/libs/binder/include/binder/Parcel.h"
  },
  {
   "access" : "private",
   "linker_set_key" : "_ZN7android6Parcel19is_specialization_vINSt3__18optionalINS2_6vectorINS_4base14unique_fd_implINS5_13DefaultCloserEEENS2_9allocatorIS8_EEEEEENS2_10unique_ptrEEE",
   "name" : "android::Parcel::is_specialization_v",
   "referenced_type" : "_ZTIKb",
   "source_file" : "frameworks/native/libs/binder/include/binder/Parcel.h"
  },
  {
   "access" : "private",
   "linker_set_key" : "_ZN7android6Parcel19is_specialization_vINSt3__18optionalINS2_6vectorINS_4base14unique_fd_implINS5_13DefaultCloserEEENS2_9allocatorIS8_EEEEEENS_2spEEE",
   "name" : "android::Parcel::is_specialization_v",
   "referenced_type" : "_ZTIKb",
   "source_file" : "frameworks/native/libs/binder/include/binder/Parcel.h"
  },
  {
   "access" : "private",
   "linker_set_key" : "_ZN7android6Parcel19is_specialization_vINSt3__18optionalINS2_6vectorINS_4base14unique_fd_implINS5_13DefaultCloserEEENS2_9allocatorIS8_EEEEEES3_EE",
   "name" : "android::Parcel::is_specialization_v",
   "referenced_type" : "_ZTIKb",
   "source_file" : "frameworks/native/libs/binder/include/binder/Parcel.h"
  },
  {
   "access" : "private",
   "linker_set_key" : "_ZN7android6Parcel19is_specialization_vINSt3__18optionalINS2_6vectorINS_4base14unique_fd_implINS5_13DefaultCloserEEENS2_9allocatorIS8_EEEEEES4_EE",
   "name" : "android::Parcel::is_specialization_v",
   "referenced_type" : "_ZTIKb",
   "source_file" : "frameworks/native/libs/binder/include/binder/Parcel.h"
  },
  {
   "access" : "private",
   "linker_set_key" : "_ZN7android6Parcel19is_specialization_vINSt3__18optionalINS2_6vectorIaNS2_9allocatorIaEEEEEENS2_10shared_ptrEEE",
   "name" : "android::Parcel::is_specialization_v",
   "referenced_type" : "_ZTIKb",
   "source_file" : "frameworks/native/libs/binder/include/binder/Parcel.h"
  },
  {
   "access" : "private",
   "linker_set_key" : "_ZN7android6Parcel19is_specialization_vINSt3__18optionalINS2_6vectorIaNS2_9allocatorIaEEEEEENS2_10unique_ptrEEE",
   "name" : "android::Parcel::is_specialization_v",
   "referenced_type" : "_ZTIKb",
   "source_file" : "frameworks/native/libs/binder/include/binder/Parcel.h"
  },
  {
   "access" : "private",
   "linker_set_key" : "_ZN7android6Parcel19is_specialization_vINSt3__18optionalINS2_6vectorIaNS2_9allocatorIaEEEEEENS_2spEEE",
   "name" : "android::Parcel::is_specialization_v",
   "referenced_type" : "_ZTIKb",
   "source_file" : "frameworks/native/libs/binder/include/binder/Parcel.h"
  },
  {
   "access" : "private",
   "linker_set_key" : "_ZN7android6Parcel19is_specialization_vINSt3__18optionalINS2_6vectorIaNS2_9allocatorIaEEEEEES3_EE",
   "name" : "android::Parcel::is_specialization_v",
   "referenced_type" : "_ZTIKb",
   "source_file" : "frameworks/native/libs/binder/include/binder/Parcel.h"
  },
  {
   "access" : "private",
   "linker_set_key" : "_ZN7android6Parcel19is_specialization_vINSt3__18optionalINS2_6vectorIaNS2_9allocatorIaEEEEEES4_EE",
   "name" : "android::Parcel::is_specialization_v",
   "referenced_type" : "_ZTIKb",
   "source_file" : "frameworks/native/libs/binder/include/binder/Parcel.h"
  },
  {
   "access" : "private",
   "linker_set_key" : "_ZN7android6Parcel19is_specialization_vINSt3__18optionalINS2_6vectorIbNS2_9allocatorIbEEEEEENS2_10shared_ptrEEE",
   "name" : "android::Parcel::is_specialization_v",
   "referenced_type" : "_ZTIKb",
   "source_file" : "frameworks/native/libs/binder/include/binder/Parcel.h"
  },
  {
   "access" : "private",
   "linker_set_key" : "_ZN7android6Parcel19is_specialization_vINSt3__18optionalINS2_6vectorIbNS2_9allocatorIbEEEEEENS2_10unique_ptrEEE",
   "name" : "android::Parcel::is_specialization_v",
   "referenced_type" : "_ZTIKb",
   "source_file" : "frameworks/native/libs/binder/include/binder/Parcel.h"
  },
  {
   "access" : "private",
   "linker_set_key" : "_ZN7android6Parcel19is_specialization_vINSt3__18optionalINS2_6vectorIbNS2_9allocatorIbEEEEEENS_2spEEE",
   "name" : "android::Parcel::is_specialization_v",
   "referenced_type" : "_ZTIKb",
   "source_file" : "frameworks/native/libs/binder/include/binder/Parcel.h"
  },
  {
   "access" : "private",
   "linker_set_key" : "_ZN7android6Parcel19is_specialization_vINSt3__18optionalINS2_6vectorIbNS2_9allocatorIbEEEEEES3_EE",
   "name" : "android::Parcel::is_specialization_v",
   "referenced_type" : "_ZTIKb",
   "source_file" : "frameworks/native/libs/binder/include/binder/Parcel.h"
  },
  {
   "access" : "private",
   "linker_set_key" : "_ZN7android6Parcel19is_specialization_vINSt3__18optionalINS2_6vectorIbNS2_9allocatorIbEEEEEES4_EE",
   "name" : "android::Parcel::is_specialization_v",
   "referenced_type" : "_ZTIKb",
   "source_file" : "frameworks/native/libs/binder/include/binder/Parcel.h"
  },
  {
   "access" : "private",
   "linker_set_key" : "_ZN7android6Parcel19is_specialization_vINSt3__18optionalINS2_6vectorIdNS2_9allocatorIdEEEEEENS2_10shared_ptrEEE",
   "name" : "android::Parcel::is_specialization_v",
   "referenced_type" : "_ZTIKb",
   "source_file" : "frameworks/native/libs/binder/include/binder/Parcel.h"
  },
  {
   "access" : "private",
   "linker_set_key" : "_ZN7android6Parcel19is_specialization_vINSt3__18optionalINS2_6vectorIdNS2_9allocatorIdEEEEEENS2_10unique_ptrEEE",
   "name" : "android::Parcel::is_specialization_v",
   "referenced_type" : "_ZTIKb",
   "source_file" : "frameworks/native/libs/binder/include/binder/Parcel.h"
  },
  {
   "access" : "private",
   "linker_set_key" : "_ZN7android6Parcel19is_specialization_vINSt3__18optionalINS2_6vectorIdNS2_9allocatorIdEEEEEENS_2spEEE",
   "name" : "android::Parcel::is_specialization_v",
   "referenced_type" : "_ZTIKb",
   "source_file" : "frameworks/native/libs/binder/include/binder/Parcel.h"
  },
  {
   "access" : "private",
   "linker_set_key" : "_ZN7android6Parcel19is_specialization_vINSt3__18optionalINS2_6vectorIdNS2_9allocatorIdEEEEEES3_EE",
   "name" : "android::Parcel::is_specialization_v",
   "referenced_type" : "_ZTIKb",
   "source_file" : "frameworks/native/libs/binder/include/binder/Parcel.h"
  },
  {
   "access" : "private",
   "linker_set_key" : "_ZN7android6Parcel19is_specialization_vINSt3__18optionalINS2_6vectorIdNS2_9allocatorIdEEEEEES4_EE",
   "name" : "android::Parcel::is_specialization_v",
   "referenced_type" : "_ZTIKb",
   "source_file" : "frameworks/native/libs/binder/include/binder/Parcel.h"
  },
  {
   "access" : "private",
   "linker_set_key" : "_ZN7android6Parcel19is_specialization_vINSt3__18optionalINS2_6vectorIfNS2_9allocatorIfEEEEEENS2_10shared_ptrEEE",
   "name" : "android::Parcel::is_specialization_v",
   "referenced_type" : "_ZTIKb",
   "source_file" : "frameworks/native/libs/binder/include/binder/Parcel.h"
  },
  {
   "access" : "private",
   "linker_set_key" : "_ZN7android6Parcel19is_specialization_vINSt3__18optionalINS2_6vectorIfNS2_9allocatorIfEEEEEENS2_10unique_ptrEEE",
   "name" : "android::Parcel::is_specialization_v",
   "referenced_type" : "_ZTIKb",
   "source_file" : "frameworks/native/libs/binder/include/binder/Parcel.h"
  },
  {
   "access" : "private",
   "linker_set_key" : "_ZN7android6Parcel19is_specialization_vINSt3__18optionalINS2_6vectorIfNS2_9allocatorIfEEEEEENS_2spEEE",
   "name" : "android::Parcel::is_specialization_v",
   "referenced_type" : "_ZTIKb",
   "source_file" : "frameworks/native/libs/binder/include/binder/Parcel.h"
  },
  {
   "access" : "private",
   "linker_set_key" : "_ZN7android6Parcel19is_specialization_vINSt3__18optionalINS2_6vectorIfNS2_9allocatorIfEEEEEES3_EE",
   "name" : "android::Parcel::is_specialization_v",
   "referenced_type" : "_ZTIKb",
   "source_file" : "frameworks/native/libs/binder/include/binder/Parcel.h"
  },
  {
   "access" : "private",
   "linker_set_key" : "_ZN7android6Parcel19is_specialization_vINSt3__18optionalINS2_6vectorIfNS2_9allocatorIfEEEEEES4_EE",
   "name" : "android::Parcel::is_specialization_v",
   "referenced_type" : "_ZTIKb",
   "source_file" : "frameworks/native/libs/binder/include/binder/Parcel.h"
  },
  {
   "access" : "private",
   "linker_set_key" : "_ZN7android6Parcel19is_specialization_vINSt3__18optionalINS2_6vectorIhNS2_9allocatorIhEEEEEENS2_10shared_ptrEEE",
   "name" : "android::Parcel::is_specialization_v",
   "referenced_type" : "_ZTIKb",
   "source_file" : "frameworks/native/libs/binder/include/binder/Parcel.h"
  },
  {
   "access" : "private",
   "linker_set_key" : "_ZN7android6Parcel19is_specialization_vINSt3__18optionalINS2_6vectorIhNS2_9allocatorIhEEEEEENS2_10unique_ptrEEE",
   "name" : "android::Parcel::is_specialization_v",
   "referenced_type" : "_ZTIKb",
   "source_file" : "frameworks/native/libs/binder/include/binder/Parcel.h"
  },
  {
   "access" : "private",
   "linker_set_key" : "_ZN7android6Parcel19is_specialization_vINSt3__18optionalINS2_6vectorIhNS2_9allocatorIhEEEEEENS_2spEEE",
   "name" : "android::Parcel::is_specialization_v",
   "referenced_type" : "_ZTIKb",
   "source_file" : "frameworks/native/libs/binder/include/binder/Parcel.h"
  },
  {
   "access" : "private",
   "linker_set_key" : "_ZN7android6Parcel19is_specialization_vINSt3__18optionalINS2_6vectorIhNS2_9allocatorIhEEEEEES3_EE",
   "name" : "android::Parcel::is_specialization_v",
   "referenced_type" : "_ZTIKb",
   "source_file" : "frameworks/native/libs/binder/include/binder/Parcel.h"
  },
  {
   "access" : "private",
   "linker_set_key" : "_ZN7android6Parcel19is_specialization_vINSt3__18optionalINS2_6vectorIhNS2_9allocatorIhEEEEEES4_EE",
   "name" : "android::Parcel::is_specialization_v",
   "referenced_type" : "_ZTIKb",
   "source_file" : "frameworks/native/libs/binder/include/binder/Parcel.h"
  },
  {
   "access" : "private",
   "linker_set_key" : "_ZN7android6Parcel19is_specialization_vINSt3__18optionalINS2_6vectorIiNS2_9allocatorIiEEEEEENS2_10shared_ptrEEE",
   "name" : "android::Parcel::is_specialization_v",
   "referenced_type" : "_ZTIKb",
   "source_file" : "frameworks/native/libs/binder/include/binder/Parcel.h"
  },
  {
   "access" : "private",
   "linker_set_key" : "_ZN7android6Parcel19is_specialization_vINSt3__18optionalINS2_6vectorIiNS2_9allocatorIiEEEEEENS2_10unique_ptrEEE",
   "name" : "android::Parcel::is_specialization_v",
   "referenced_type" : "_ZTIKb",
   "source_file" : "frameworks/native/libs/binder/include/binder/Parcel.h"
  },
  {
   "access" : "private",
   "linker_set_key" : "_ZN7android6Parcel19is_specialization_vINSt3__18optionalINS2_6vectorIiNS2_9allocatorIiEEEEEENS_2spEEE",
   "name" : "android::Parcel::is_specialization_v",
   "referenced_type" : "_ZTIKb",
   "source_file" : "frameworks/native/libs/binder/include/binder/Parcel.h"
  },
  {
   "access" : "private",
   "linker_set_key" : "_ZN7android6Parcel19is_specialization_vINSt3__18optionalINS2_6vectorIiNS2_9allocatorIiEEEEEES3_EE",
   "name" : "android::Parcel::is_specialization_v",
   "referenced_type" : "_ZTIKb",
   "source_file" : "frameworks/native/libs/binder/include/binder/Parcel.h"
  },
  {
   "access" : "private",
   "linker_set_key" : "_ZN7android6Parcel19is_specialization_vINSt3__18optionalINS2_6vectorIiNS2_9allocatorIiEEEEEES4_EE",
   "name" : "android::Parcel::is_specialization_v",
   "referenced_type" : "_ZTIKb",
   "source_file" : "frameworks/native/libs/binder/include/binder/Parcel.h"
  },
  {
   "access" : "private",
   "linker_set_key" : "_ZN7android6Parcel19is_specialization_vINSt3__18optionalINS2_6vectorIxNS2_9allocatorIxEEEEEENS2_10shared_ptrEEE",
   "name" : "android::Parcel::is_specialization_v",
   "referenced_type" : "_ZTIKb",
   "source_file" : "frameworks/native/libs/binder/include/binder/Parcel.h"
  },
  {
   "access" : "private",
   "linker_set_key" : "_ZN7android6Parcel19is_specialization_vINSt3__18optionalINS2_6vectorIxNS2_9allocatorIxEEEEEENS2_10unique_ptrEEE",
   "name" : "android::Parcel::is_specialization_v",
   "referenced_type" : "_ZTIKb",
   "source_file" : "frameworks/native/libs/binder/include/binder/Parcel.h"
  },
  {
   "access" : "private",
   "linker_set_key" : "_ZN7android6Parcel19is_specialization_vINSt3__18optionalINS2_6vectorIxNS2_9allocatorIxEEEEEENS_2spEEE",
   "name" : "android::Parcel::is_specialization_v",
   "referenced_type" : "_ZTIKb",
   "source_file" : "frameworks/native/libs/binder/include/binder/Parcel.h"
  },
  {
   "access" : "private",
   "linker_set_key" : "_ZN7android6Parcel19is_specialization_vINSt3__18optionalINS2_6vectorIxNS2_9allocatorIxEEEEEES3_EE",
   "name" : "android::Parcel::is_specialization_v",
   "referenced_type" : "_ZTIKb",
   "source_file" : "frameworks/native/libs/binder/include/binder/Parcel.h"
  },
  {
   "access" : "private",
   "linker_set_key" : "_ZN7android6Parcel19is_specialization_vINSt3__18optionalINS2_6vectorIxNS2_9allocatorIxEEEEEES4_EE",
   "name" : "android::Parcel::is_specialization_v",
   "referenced_type" : "_ZTIKb",
   "source_file" : "frameworks/native/libs/binder/include/binder/Parcel.h"
  },
  {
   "access" : "private",
   "linker_set_key" : "_ZN7android6Parcel19is_specialization_vINSt3__18optionalINS2_6vectorIyNS2_9allocatorIyEEEEEENS2_10shared_ptrEEE",
   "name" : "android::Parcel::is_specialization_v",
   "referenced_type" : "_ZTIKb",
   "source_file" : "frameworks/native/libs/binder/include/binder/Parcel.h"
  },
  {
   "access" : "private",
   "linker_set_key" : "_ZN7android6Parcel19is_specialization_vINSt3__18optionalINS2_6vectorIyNS2_9allocatorIyEEEEEENS2_10unique_ptrEEE",
   "name" : "android::Parcel::is_specialization_v",
   "referenced_type" : "_ZTIKb",
   "source_file" : "frameworks/native/libs/binder/include/binder/Parcel.h"
  },
  {
   "access" : "private",
   "linker_set_key" : "_ZN7android6Parcel19is_specialization_vINSt3__18optionalINS2_6vectorIyNS2_9allocatorIyEEEEEENS_2spEEE",
   "name" : "android::Parcel::is_specialization_v",
   "referenced_type" : "_ZTIKb",
   "source_file" : "frameworks/native/libs/binder/include/binder/Parcel.h"
  },
  {
   "access" : "private",
   "linker_set_key" : "_ZN7android6Parcel19is_specialization_vINSt3__18optionalINS2_6vectorIyNS2_9allocatorIyEEEEEES3_EE",
   "name" : "android::Parcel::is_specialization_v",
   "referenced_type" : "_ZTIKb",
   "source_file" : "frameworks/native/libs/binder/include/binder/Parcel.h"
  },
  {
   "access" : "private",
   "linker_set_key" : "_ZN7android6Parcel19is_specialization_vINSt3__18optionalINS2_6vectorIyNS2_9allocatorIyEEEEEES4_EE",
   "name" : "android::Parcel::is_specialization_v",
   "referenced_type" : "_ZTIKb",
   "source_file" : "frameworks/native/libs/binder/include/binder/Parcel.h"
  },
  {
   "access" : "private",
   "linker_set_key" : "_ZN7android6Parcel19is_specialization_vINSt3__18optionalINS_8String16EEENS2_10shared_ptrEEE",
   "name" : "android::Parcel::is_specialization_v",
   "referenced_type" : "_ZTIKb",
   "source_file" : "frameworks/native/libs/binder/include/binder/Parcel.h"
  },
  {
   "access" : "private",
   "linker_set_key" : "_ZN7android6Parcel19is_specialization_vINSt3__18optionalINS_8String16EEENS2_10unique_ptrEEE",
   "name" : "android::Parcel::is_specialization_v",
   "referenced_type" : "_ZTIKb",
   "source_file" : "frameworks/native/libs/binder/include/binder/Parcel.h"
  },
  {
   "access" : "private",
   "linker_set_key" : "_ZN7android6Parcel19is_specialization_vINSt3__18optionalINS_8String16EEENS2_6vectorEEE",
   "name" : "android::Parcel::is_specialization_v",
   "referenced_type" : "_ZTIKb",
   "source_file" : "frameworks/native/libs/binder/include/binder/Parcel.h"
  },
  {
   "access" : "private",
   "linker_set_key" : "_ZN7android6Parcel19is_specialization_vINSt3__18optionalINS_8String16EEENS_2spEEE",
   "name" : "android::Parcel::is_specialization_v",
   "referenced_type" : "_ZTIKb",
   "source_file" : "frameworks/native/libs/binder/include/binder/Parcel.h"
  },
  {
   "access" : "private",
   "linker_set_key" : "_ZN7android6Parcel19is_specialization_vINSt3__18optionalINS_8String16EEES3_EE",
   "name" : "android::Parcel::is_specialization_v",
   "referenced_type" : "_ZTIKb",
   "source_file" : "frameworks/native/libs/binder/include/binder/Parcel.h"
  },
  {
   "access" : "private",
   "linker_set_key" : "_ZN7android6Parcel19is_specialization_vIiNS_2spEEE",
   "name" : "android::Parcel::is_specialization_v",
   "referenced_type" : "_ZTIKb",
   "source_file" : "frameworks/native/libs/binder/include/binder/Parcel.h"
  },
  {
   "access" : "private",
   "linker_set_key" : "_ZN7android6Parcel19is_specialization_vIiNSt3__110shared_ptrEEE",
   "name" : "android::Parcel::is_specialization_v",
   "referenced_type" : "_ZTIKb",
   "source_file" : "frameworks/native/libs/binder/include/binder/Parcel.h"
  },
  {
   "access" : "private",
   "linker_set_key" : "_ZN7android6Parcel19is_specialization_vIiNSt3__110unique_ptrEEE",
   "name" : "android::Parcel::is_specialization_v",
   "referenced_type" : "_ZTIKb",
   "source_file" : "frameworks/native/libs/binder/include/binder/Parcel.h"
  },
  {
   "access" : "private",
   "linker_set_key" : "_ZN7android6Parcel19is_specialization_vIiNSt3__16vectorEEE",
   "name" : "android::Parcel::is_specialization_v",
   "referenced_type" : "_ZTIKb",
   "source_file" : "frameworks/native/libs/binder/include/binder/Parcel.h"
  },
  {
   "access" : "private",
   "linker_set_key" : "_ZN7android6Parcel19is_specialization_vIiNSt3__18optionalEEE",
   "name" : "android::Parcel::is_specialization_v",
   "referenced_type" : "_ZTIKb",
   "source_file" : "frameworks/native/libs/binder/include/binder/Parcel.h"
  },
  {
   "access" : "private",
   "linker_set_key" : "_ZN7android6Parcel19kNullParcelableFlagE",
   "name" : "android::Parcel::kNullParcelableFlag",
   "referenced_type" : "_ZTIKi",
   "source_file" : "frameworks/native/libs/binder/include/binder/Parcel.h"
  },
  {
   "access" : "private",
   "linker_set_key" : "_ZN7android6Parcel22kNonNullParcelableFlagE",
   "name" : "android::Parcel::kNonNullParcelableFlag",
   "referenced_type" : "_ZTIKi",
   "source_file" : "frameworks/native/libs/binder/include/binder/Parcel.h"
  },
  {
   "access" : "private",
   "linker_set_key" : "_ZN7android6Parcel25is_parcel_nullable_type_vE",
   "name" : "android::Parcel::is_parcel_nullable_type_v",
   "referenced_type" : "_ZTIKb",
   "source_file" : "frameworks/native/libs/binder/include/binder/Parcel.h"
  },
  {
   "access" : "private",
   "linker_set_key" : "_ZN7android6Parcel25is_parcel_nullable_type_vINS_10ParcelableEEE",
   "name" : "android::Parcel::is_parcel_nullable_type_v",
   "referenced_type" : "_ZTIKb",
   "source_file" : "frameworks/native/libs/binder/include/binder/Parcel.h"
  },
  {
   "access" : "private",
   "linker_set_key" : "_ZN7android6Parcel25is_parcel_nullable_type_vINS_2spINS_7IBinderEEEEE",
   "name" : "android::Parcel::is_parcel_nullable_type_v",
   "referenced_type" : "_ZTIKb",
   "source_file" : "frameworks/native/libs/binder/include/binder/Parcel.h"
  },
  {
   "access" : "private",
   "linker_set_key" : "_ZN7android6Parcel25is_parcel_nullable_type_vINS_4base14unique_fd_implINS2_13DefaultCloserEEEEE",
   "name" : "android::Parcel::is_parcel_nullable_type_v",
   "referenced_type" : "_ZTIKb",
   "source_file" : "frameworks/native/libs/binder/include/binder/Parcel.h"
  },
  {
   "access" : "private",
   "linker_set_key" : "_ZN7android6Parcel25is_parcel_nullable_type_vINS_8String16EEE",
   "name" : "android::Parcel::is_parcel_nullable_type_v",
   "referenced_type" : "_ZTIKb",
   "source_file" : "frameworks/native/libs/binder/include/binder/Parcel.h"
  },
  {
   "access" : "private",
   "linker_set_key" : "_ZN7android6Parcel25is_parcel_nullable_type_vINSt3__110unique_ptrINS2_12basic_stringIcNS2_11char_traitsIcEENS2_9allocatorIcEEEENS2_14default_deleteIS9_EEEEEE",
   "name" : "android::Parcel::is_parcel_nullable_type_v",
   "referenced_type" : "_ZTIKb",
   "source_file" : "frameworks/native/libs/binder/include/binder/Parcel.h"
  },
  {
   "access" : "private",
   "linker_set_key" : "_ZN7android6Parcel25is_parcel_nullable_type_vINSt3__110unique_ptrINS2_6vectorIDsNS2_9allocatorIDsEEEENS2_14default_deleteIS7_EEEEEE",
   "name" : "android::Parcel::is_parcel_nullable_type_v",
   "referenced_type" : "_ZTIKb",
   "source_file" : "frameworks/native/libs/binder/include/binder/Parcel.h"
  },
  {
   "access" : "private",
   "linker_set_key" : "_ZN7android6Parcel25is_parcel_nullable_type_vINSt3__110unique_ptrINS2_6vectorINS3_INS2_12basic_stringIcNS2_11char_traitsIcEENS2_9allocatorIcEEEENS2_14default_deleteISA_EEEENS8_ISD_EEEENSB_ISF_EEEEEE",
   "name" : "android::Parcel::is_parcel_nullable_type_v",
   "referenced_type" : "_ZTIKb",
   "source_file" : "frameworks/native/libs/binder/include/binder/Parcel.h"
  },
  {
   "access" : "private",
   "linker_set_key" : "_ZN7android6Parcel25is_parcel_nullable_type_vINSt3__110unique_ptrINS2_6vectorINS3_INS_8String16ENS2_14default_deleteIS5_EEEENS2_9allocatorIS8_EEEENS6_ISB_EEEEEE",
   "name" : "android::Parcel::is_parcel_nullable_type_v",
   "referenced_type" : "_ZTIKb",
   "source_file" : "frameworks/native/libs/binder/include/binder/Parcel.h"
  },
  {
   "access" : "private",
   "linker_set_key" : "_ZN7android6Parcel25is_parcel_nullable_type_vINSt3__110unique_ptrINS2_6vectorINS_2spINS_7IBinderEEENS2_9allocatorIS7_EEEENS2_14default_deleteISA_EEEEEE",
   "name" : "android::Parcel::is_parcel_nullable_type_v",
   "referenced_type" : "_ZTIKb",
   "source_file" : "frameworks/native/libs/binder/include/binder/Parcel.h"
  },
  {
   "access" : "private",
   "linker_set_key" : "_ZN7android6Parcel25is_parcel_nullable_type_vINSt3__110unique_ptrINS2_6vectorINS_4base14unique_fd_implINS5_13DefaultCloserEEENS2_9allocatorIS8_EEEENS2_14default_deleteISB_EEEEEE",
   "name" : "android::Parcel::is_parcel_nullable_type_v",
   "referenced_type" : "_ZTIKb",
   "source_file" : "frameworks/native/libs/binder/include/binder/Parcel.h"
  },
  {
   "access" : "private",
   "linker_set_key" : "_ZN7android6Parcel25is_parcel_nullable_type_vINSt3__110unique_ptrINS2_6vectorIaNS2_9allocatorIaEEEENS2_14default_deleteIS7_EEEEEE",
   "name" : "android::Parcel::is_parcel_nullable_type_v",
   "referenced_type" : "_ZTIKb",
   "source_file" : "frameworks/native/libs/binder/include/binder/Parcel.h"
  },
  {
   "access" : "private",
   "linker_set_key" : "_ZN7android6Parcel25is_parcel_nullable_type_vINSt3__110unique_ptrINS2_6vectorIbNS2_9allocatorIbEEEENS2_14default_deleteIS7_EEEEEE",
   "name" : "android::Parcel::is_parcel_nullable_type_v",
   "referenced_type" : "_ZTIKb",
   "source_file" : "frameworks/native/libs/binder/include/binder/Parcel.h"
  },
  {
   "access" : "private",
   "linker_set_key" : "_ZN7android6Parcel25is_parcel_nullable_type_vINSt3__110unique_ptrINS2_6vectorIdNS2_9allocatorIdEEEENS2_14default_deleteIS7_EEEEEE",
   "name" : "android::Parcel::is_parcel_nullable_type_v",
   "referenced_type" : "_ZTIKb",
   "source_file" : "frameworks/native/libs/binder/include/binder/Parcel.h"
  },
  {
   "access" : "private",
   "linker_set_key" : "_ZN7android6Parcel25is_parcel_nullable_type_vINSt3__110unique_ptrINS2_6vectorIfNS2_9allocatorIfEEEENS2_14default_deleteIS7_EEEEEE",
   "name" : "android::Parcel::is_parcel_nullable_type_v",
   "referenced_type" : "_ZTIKb",
   "source_file" : "frameworks/native/libs/binder/include/binder/Parcel.h"
  },
  {
   "access" : "private",
   "linker_set_key" : "_ZN7android6Parcel25is_parcel_nullable_type_vINSt3__110unique_ptrINS2_6vectorIhNS2_9allocatorIhEEEENS2_14default_deleteIS7_EEEEEE",
   "name" : "android::Parcel::is_parcel_nullable_type_v",
   "referenced_type" : "_ZTIKb",
   "source_file" : "frameworks/native/libs/binder/include/binder/Parcel.h"
  },
  {
   "access" : "private",
   "linker_set_key" : "_ZN7android6Parcel25is_parcel_nullable_type_vINSt3__110unique_ptrINS2_6vectorIiNS2_9allocatorIiEEEENS2_14default_deleteIS7_EEEEEE",
   "name" : "android::Parcel::is_parcel_nullable_type_v",
   "referenced_type" : "_ZTIKb",
   "source_file" : "frameworks/native/libs/binder/include/binder/Parcel.h"
  },
  {
   "access" : "private",
   "linker_set_key" : "_ZN7android6Parcel25is_parcel_nullable_type_vINSt3__110unique_ptrINS2_6vectorIxNS2_9allocatorIxEEEENS2_14default_deleteIS7_EEEEEE",
   "name" : "android::Parcel::is_parcel_nullable_type_v",
   "referenced_type" : "_ZTIKb",
   "source_file" : "frameworks/native/libs/binder/include/binder/Parcel.h"
  },
  {
   "access" : "private",
   "linker_set_key" : "_ZN7android6Parcel25is_parcel_nullable_type_vINSt3__110unique_ptrINS2_6vectorIyNS2_9allocatorIyEEEENS2_14default_deleteIS7_EEEEEE",
   "name" : "android::Parcel::is_parcel_nullable_type_v",
   "referenced_type" : "_ZTIKb",
   "source_file" : "frameworks/native/libs/binder/include/binder/Parcel.h"
  },
  {
   "access" : "private",
   "linker_set_key" : "_ZN7android6Parcel25is_parcel_nullable_type_vINSt3__110unique_ptrINS_8String16ENS2_14default_deleteIS4_EEEEEE",
   "name" : "android::Parcel::is_parcel_nullable_type_v",
   "referenced_type" : "_ZTIKb",
   "source_file" : "frameworks/native/libs/binder/include/binder/Parcel.h"
  },
  {
   "access" : "private",
   "linker_set_key" : "_ZN7android6Parcel25is_parcel_nullable_type_vINSt3__112basic_stringIcNS2_11char_traitsIcEENS2_9allocatorIcEEEEEE",
   "name" : "android::Parcel::is_parcel_nullable_type_v",
   "referenced_type" : "_ZTIKb",
   "source_file" : "frameworks/native/libs/binder/include/binder/Parcel.h"
  },
  {
   "access" : "private",
   "linker_set_key" : "_ZN7android6Parcel25is_parcel_nullable_type_vINSt3__16vectorIDsNS2_9allocatorIDsEEEEEE",
   "name" : "android::Parcel::is_parcel_nullable_type_v",
   "referenced_type" : "_ZTIKb",
   "source_file" : "frameworks/native/libs/binder/include/binder/Parcel.h"
  },
  {
   "access" : "private",
   "linker_set_key" : "_ZN7android6Parcel25is_parcel_nullable_type_vINSt3__16vectorINS2_10unique_ptrINS2_12basic_stringIcNS2_11char_traitsIcEENS2_9allocatorIcEEEENS2_14default_deleteISA_EEEENS8_ISD_EEEEEE",
   "name" : "android::Parcel::is_parcel_nullable_type_v",
   "referenced_type" : "_ZTIKb",
   "source_file" : "frameworks/native/libs/binder/include/binder/Parcel.h"
  },
  {
   "access" : "private",
   "linker_set_key" : "_ZN7android6Parcel25is_parcel_nullable_type_vINSt3__16vectorINS2_10unique_ptrINS_8String16ENS2_14default_deleteIS5_EEEENS2_9allocatorIS8_EEEEEE",
   "name" : "android::Parcel::is_parcel_nullable_type_v",
   "referenced_type" : "_ZTIKb",
   "source_file" : "frameworks/native/libs/binder/include/binder/Parcel.h"
  },
  {
   "access" : "private",
   "linker_set_key" : "_ZN7android6Parcel25is_parcel_nullable_type_vINSt3__16vectorINS2_12basic_stringIcNS2_11char_traitsIcEENS2_9allocatorIcEEEENS7_IS9_EEEEEE",
   "name" : "android::Parcel::is_parcel_nullable_type_v",
   "referenced_type" : "_ZTIKb",
   "source_file" : "frameworks/native/libs/binder/include/binder/Parcel.h"
  },
  {
   "access" : "private",
   "linker_set_key" : "_ZN7android6Parcel25is_parcel_nullable_type_vINSt3__16vectorINS2_8optionalINS2_12basic_stringIcNS2_11char_traitsIcEENS2_9allocatorIcEEEEEENS8_ISB_EEEEEE",
   "name" : "android::Parcel::is_parcel_nullable_type_v",
   "referenced_type" : "_ZTIKb",
   "source_file" : "frameworks/native/libs/binder/include/binder/Parcel.h"
  },
  {
   "access" : "private",
   "linker_set_key" : "_ZN7android6Parcel25is_parcel_nullable_type_vINSt3__16vectorINS2_8optionalINS_8String16EEENS2_9allocatorIS6_EEEEEE",
   "name" : "android::Parcel::is_parcel_nullable_type_v",
   "referenced_type" : "_ZTIKb",
   "source_file" : "frameworks/native/libs/binder/include/binder/Parcel.h"
  },
  {
   "access" : "private",
   "linker_set_key" : "_ZN7android6Parcel25is_parcel_nullable_type_vINSt3__16vectorINS_2spINS_7IBinderEEENS2_9allocatorIS6_EEEEEE",
   "name" : "android::Parcel::is_parcel_nullable_type_v",
   "referenced_type" : "_ZTIKb",
   "source_file" : "frameworks/native/libs/binder/include/binder/Parcel.h"
  },
  {
   "access" : "private",
   "linker_set_key" : "_ZN7android6Parcel25is_parcel_nullable_type_vINSt3__16vectorINS_4base14unique_fd_implINS4_13DefaultCloserEEENS2_9allocatorIS7_EEEEEE",
   "name" : "android::Parcel::is_parcel_nullable_type_v",
   "referenced_type" : "_ZTIKb",
   "source_file" : "frameworks/native/libs/binder/include/binder/Parcel.h"
  },
  {
   "access" : "private",
   "linker_set_key" : "_ZN7android6Parcel25is_parcel_nullable_type_vINSt3__16vectorINS_8String16ENS2_9allocatorIS4_EEEEEE",
   "name" : "android::Parcel::is_parcel_nullable_type_v",
   "referenced_type" : "_ZTIKb",
   "source_file" : "frameworks/native/libs/binder/include/binder/Parcel.h"
  },
  {
   "access" : "private",
   "linker_set_key" : "_ZN7android6Parcel25is_parcel_nullable_type_vINSt3__16vectorIaNS2_9allocatorIaEEEEEE",
   "name" : "android::Parcel::is_parcel_nullable_type_v",
   "referenced_type" : "_ZTIKb",
   "source_file" : "frameworks/native/libs/binder/include/binder/Parcel.h"
  },
  {
   "access" : "private",
   "linker_set_key" : "_ZN7android6Parcel25is_parcel_nullable_type_vINSt3__16vectorIbNS2_9allocatorIbEEEEEE",
   "name" : "android::Parcel::is_parcel_nullable_type_v",
   "referenced_type" : "_ZTIKb",
   "source_file" : "frameworks/native/libs/binder/include/binder/Parcel.h"
  },
  {
   "access" : "private",
   "linker_set_key" : "_ZN7android6Parcel25is_parcel_nullable_type_vINSt3__16vectorIdNS2_9allocatorIdEEEEEE",
   "name" : "android::Parcel::is_parcel_nullable_type_v",
   "referenced_type" : "_ZTIKb",
   "source_file" : "frameworks/native/libs/binder/include/binder/Parcel.h"
  },
  {
   "access" : "private",
   "linker_set_key" : "_ZN7android6Parcel25is_parcel_nullable_type_vINSt3__16vectorIfNS2_9allocatorIfEEEEEE",
   "name" : "android::Parcel::is_parcel_nullable_type_v",
   "referenced_type" : "_ZTIKb",
   "source_file" : "frameworks/native/libs/binder/include/binder/Parcel.h"
  },
  {
   "access" : "private",
   "linker_set_key" : "_ZN7android6Parcel25is_parcel_nullable_type_vINSt3__16vectorIhNS2_9allocatorIhEEEEEE",
   "name" : "android::Parcel::is_parcel_nullable_type_v",
   "referenced_type" : "_ZTIKb",
   "source_file" : "frameworks/native/libs/binder/include/binder/Parcel.h"
  },
  {
   "access" : "private",
   "linker_set_key" : "_ZN7android6Parcel25is_parcel_nullable_type_vINSt3__16vectorIiNS2_9allocatorIiEEEEEE",
   "name" : "android::Parcel::is_parcel_nullable_type_v",
   "referenced_type" : "_ZTIKb",
   "source_file" : "frameworks/native/libs/binder/include/binder/Parcel.h"
  },
  {
   "access" : "private",
   "linker_set_key" : "_ZN7android6Parcel25is_parcel_nullable_type_vINSt3__16vectorIxNS2_9allocatorIxEEEEEE",
   "name" : "android::Parcel::is_parcel_nullable_type_v",
   "referenced_type" : "_ZTIKb",
   "source_file" : "frameworks/native/libs/binder/include/binder/Parcel.h"
  },
  {
   "access" : "private",
   "linker_set_key" : "_ZN7android6Parcel25is_parcel_nullable_type_vINSt3__16vectorIyNS2_9allocatorIyEEEEEE",
   "name" : "android::Parcel::is_parcel_nullable_type_v",
   "referenced_type" : "_ZTIKb",
   "source_file" : "frameworks/native/libs/binder/include/binder/Parcel.h"
  },
  {
   "access" : "private",
   "linker_set_key" : "_ZN7android6Parcel25is_parcel_nullable_type_vINSt3__18optionalINS2_12basic_stringIcNS2_11char_traitsIcEENS2_9allocatorIcEEEEEEEE",
   "name" : "android::Parcel::is_parcel_nullable_type_v",
   "referenced_type" : "_ZTIKb",
   "source_file" : "frameworks/native/libs/binder/include/binder/Parcel.h"
  },
  {
   "access" : "private",
   "linker_set_key" : "_ZN7android6Parcel25is_parcel_nullable_type_vINSt3__18optionalINS2_6vectorIDsNS2_9allocatorIDsEEEEEEEE",
   "name" : "android::Parcel::is_parcel_nullable_type_v",
   "referenced_type" : "_ZTIKb",
   "source_file" : "frameworks/native/libs/binder/include/binder/Parcel.h"
  },
  {
   "access" : "private",
   "linker_set_key" : "_ZN7android6Parcel25is_parcel_nullable_type_vINSt3__18optionalINS2_6vectorINS3_INS2_12basic_stringIcNS2_11char_traitsIcEENS2_9allocatorIcEEEEEENS8_ISB_EEEEEEEE",
   "name" : "android::Parcel::is_parcel_nullable_type_v",
   "referenced_type" : "_ZTIKb",
   "source_file" : "frameworks/native/libs/binder/include/binder/Parcel.h"
  },
  {
   "access" : "private",
   "linker_set_key" : "_ZN7android6Parcel25is_parcel_nullable_type_vINSt3__18optionalINS2_6vectorINS3_INS_8String16EEENS2_9allocatorIS6_EEEEEEEE",
   "name" : "android::Parcel::is_parcel_nullable_type_v",
   "referenced_type" : "_ZTIKb",
   "source_file" : "frameworks/native/libs/binder/include/binder/Parcel.h"
  },
  {
   "access" : "private",
   "linker_set_key" : "_ZN7android6Parcel25is_parcel_nullable_type_vINSt3__18optionalINS2_6vectorINS_2spINS_7IBinderEEENS2_9allocatorIS7_EEEEEEEE",
   "name" : "android::Parcel::is_parcel_nullable_type_v",
   "referenced_type" : "_ZTIKb",
   "source_file" : "frameworks/native/libs/binder/include/binder/Parcel.h"
  },
  {
   "access" : "private",
   "linker_set_key" : "_ZN7android6Parcel25is_parcel_nullable_type_vINSt3__18optionalINS2_6vectorINS_4base14unique_fd_implINS5_13DefaultCloserEEENS2_9allocatorIS8_EEEEEEEE",
   "name" : "android::Parcel::is_parcel_nullable_type_v",
   "referenced_type" : "_ZTIKb",
   "source_file" : "frameworks/native/libs/binder/include/binder/Parcel.h"
  },
  {
   "access" : "private",
   "linker_set_key" : "_ZN7android6Parcel25is_parcel_nullable_type_vINSt3__18optionalINS2_6vectorIaNS2_9allocatorIaEEEEEEEE",
   "name" : "android::Parcel::is_parcel_nullable_type_v",
   "referenced_type" : "_ZTIKb",
   "source_file" : "frameworks/native/libs/binder/include/binder/Parcel.h"
  },
  {
   "access" : "private",
   "linker_set_key" : "_ZN7android6Parcel25is_parcel_nullable_type_vINSt3__18optionalINS2_6vectorIbNS2_9allocatorIbEEEEEEEE",
   "name" : "android::Parcel::is_parcel_nullable_type_v",
   "referenced_type" : "_ZTIKb",
   "source_file" : "frameworks/native/libs/binder/include/binder/Parcel.h"
  },
  {
   "access" : "private",
   "linker_set_key" : "_ZN7android6Parcel25is_parcel_nullable_type_vINSt3__18optionalINS2_6vectorIdNS2_9allocatorIdEEEEEEEE",
   "name" : "android::Parcel::is_parcel_nullable_type_v",
   "referenced_type" : "_ZTIKb",
   "source_file" : "frameworks/native/libs/binder/include/binder/Parcel.h"
  },
  {
   "access" : "private",
   "linker_set_key" : "_ZN7android6Parcel25is_parcel_nullable_type_vINSt3__18optionalINS2_6vectorIfNS2_9allocatorIfEEEEEEEE",
   "name" : "android::Parcel::is_parcel_nullable_type_v",
   "referenced_type" : "_ZTIKb",
   "source_file" : "frameworks/native/libs/binder/include/binder/Parcel.h"
  },
  {
   "access" : "private",
   "linker_set_key" : "_ZN7android6Parcel25is_parcel_nullable_type_vINSt3__18optionalINS2_6vectorIhNS2_9allocatorIhEEEEEEEE",
   "name" : "android::Parcel::is_parcel_nullable_type_v",
   "referenced_type" : "_ZTIKb",
   "source_file" : "frameworks/native/libs/binder/include/binder/Parcel.h"
  },
  {
   "access" : "private",
   "linker_set_key" : "_ZN7android6Parcel25is_parcel_nullable_type_vINSt3__18optionalINS2_6vectorIiNS2_9allocatorIiEEEEEEEE",
   "name" : "android::Parcel::is_parcel_nullable_type_v",
   "referenced_type" : "_ZTIKb",
   "source_file" : "frameworks/native/libs/binder/include/binder/Parcel.h"
  },
  {
   "access" : "private",
   "linker_set_key" : "_ZN7android6Parcel25is_parcel_nullable_type_vINSt3__18optionalINS2_6vectorIxNS2_9allocatorIxEEEEEEEE",
   "name" : "android::Parcel::is_parcel_nullable_type_v",
   "referenced_type" : "_ZTIKb",
   "source_file" : "frameworks/native/libs/binder/include/binder/Parcel.h"
  },
  {
   "access" : "private",
   "linker_set_key" : "_ZN7android6Parcel25is_parcel_nullable_type_vINSt3__18optionalINS2_6vectorIyNS2_9allocatorIyEEEEEEEE",
   "name" : "android::Parcel::is_parcel_nullable_type_v",
   "referenced_type" : "_ZTIKb",
   "source_file" : "frameworks/native/libs/binder/include/binder/Parcel.h"
  },
  {
   "access" : "private",
   "linker_set_key" : "_ZN7android6Parcel25is_parcel_nullable_type_vINSt3__18optionalINS_8String16EEEEE",
   "name" : "android::Parcel::is_parcel_nullable_type_v",
   "referenced_type" : "_ZTIKb",
   "source_file" : "frameworks/native/libs/binder/include/binder/Parcel.h"
  },
  {
   "access" : "private",
   "linker_set_key" : "_ZN7android6Parcel25is_parcel_nullable_type_vIiEE",
   "name" : "android::Parcel::is_parcel_nullable_type_v",
   "referenced_type" : "_ZTIKb",
   "source_file" : "frameworks/native/libs/binder/include/binder/Parcel.h"
  },
  {
   "access" : "private",
   "linker_set_key" : "_ZN7android6Parcel29is_pointer_equivalent_array_vE",
   "name" : "android::Parcel::is_pointer_equivalent_array_v",
   "referenced_type" : "_ZTIKb",
   "source_file" : "frameworks/native/libs/binder/include/binder/Parcel.h"
  },
  {
   "access" : "private",
   "linker_set_key" : "_ZN7android6Parcel29is_pointer_equivalent_array_vIDsEE",
   "name" : "android::Parcel::is_pointer_equivalent_array_v",
   "referenced_type" : "_ZTIKb",
   "source_file" : "frameworks/native/libs/binder/include/binder/Parcel.h"
  },
  {
   "access" : "private",
   "linker_set_key" : "_ZN7android6Parcel29is_pointer_equivalent_array_vINS_2spINS_7IBinderEEEEE",
   "name" : "android::Parcel::is_pointer_equivalent_array_v",
   "referenced_type" : "_ZTIKb",
   "source_file" : "frameworks/native/libs/binder/include/binder/Parcel.h"
  },
  {
   "access" : "private",
   "linker_set_key" : "_ZN7android6Parcel29is_pointer_equivalent_array_vINS_4base14unique_fd_implINS2_13DefaultCloserEEEEE",
   "name" : "android::Parcel::is_pointer_equivalent_array_v",
   "referenced_type" : "_ZTIKb",
   "source_file" : "frameworks/native/libs/binder/include/binder/Parcel.h"
  },
  {
   "access" : "private",
   "linker_set_key" : "_ZN7android6Parcel29is_pointer_equivalent_array_vINS_8String16EEE",
   "name" : "android::Parcel::is_pointer_equivalent_array_v",
   "referenced_type" : "_ZTIKb",
   "source_file" : "frameworks/native/libs/binder/include/binder/Parcel.h"
  },
  {
   "access" : "private",
   "linker_set_key" : "_ZN7android6Parcel29is_pointer_equivalent_array_vINSt3__110unique_ptrINS2_12basic_stringIcNS2_11char_traitsIcEENS2_9allocatorIcEEEENS2_14default_deleteIS9_EEEEEE",
   "name" : "android::Parcel::is_pointer_equivalent_array_v",
   "referenced_type" : "_ZTIKb",
   "source_file" : "frameworks/native/libs/binder/include/binder/Parcel.h"
  },
  {
   "access" : "private",
   "linker_set_key" : "_ZN7android6Parcel29is_pointer_equivalent_array_vINSt3__110unique_ptrINS_8String16ENS2_14default_deleteIS4_EEEEEE",
   "name" : "android::Parcel::is_pointer_equivalent_array_v",
   "referenced_type" : "_ZTIKb",
   "source_file" : "frameworks/native/libs/binder/include/binder/Parcel.h"
  },
  {
   "access" : "private",
   "linker_set_key" : "_ZN7android6Parcel29is_pointer_equivalent_array_vINSt3__112basic_stringIcNS2_11char_traitsIcEENS2_9allocatorIcEEEEEE",
   "name" : "android::Parcel::is_pointer_equivalent_array_v",
   "referenced_type" : "_ZTIKb",
   "source_file" : "frameworks/native/libs/binder/include/binder/Parcel.h"
  },
  {
   "access" : "private",
   "linker_set_key" : "_ZN7android6Parcel29is_pointer_equivalent_array_vINSt3__18optionalINS2_12basic_stringIcNS2_11char_traitsIcEENS2_9allocatorIcEEEEEEEE",
   "name" : "android::Parcel::is_pointer_equivalent_array_v",
   "referenced_type" : "_ZTIKb",
   "source_file" : "frameworks/native/libs/binder/include/binder/Parcel.h"
  },
  {
   "access" : "private",
   "linker_set_key" : "_ZN7android6Parcel29is_pointer_equivalent_array_vINSt3__18optionalINS_8String16EEEEE",
   "name" : "android::Parcel::is_pointer_equivalent_array_v",
   "referenced_type" : "_ZTIKb",
   "source_file" : "frameworks/native/libs/binder/include/binder/Parcel.h"
  },
  {
   "access" : "private",
   "linker_set_key" : "_ZN7android6Parcel29is_pointer_equivalent_array_vIaEE",
   "name" : "android::Parcel::is_pointer_equivalent_array_v",
   "referenced_type" : "_ZTIKb",
   "source_file" : "frameworks/native/libs/binder/include/binder/Parcel.h"
  },
  {
   "access" : "private",
   "linker_set_key" : "_ZN7android6Parcel29is_pointer_equivalent_array_vIbEE",
   "name" : "android::Parcel::is_pointer_equivalent_array_v",
   "referenced_type" : "_ZTIKb",
   "source_file" : "frameworks/native/libs/binder/include/binder/Parcel.h"
  },
  {
   "access" : "private",
   "linker_set_key" : "_ZN7android6Parcel29is_pointer_equivalent_array_vIdEE",
   "name" : "android::Parcel::is_pointer_equivalent_array_v",
   "referenced_type" : "_ZTIKb",
   "source_file" : "frameworks/native/libs/binder/include/binder/Parcel.h"
  },
  {
   "access" : "private",
   "linker_set_key" : "_ZN7android6Parcel29is_pointer_equivalent_array_vIfEE",
   "name" : "android::Parcel::is_pointer_equivalent_array_v",
   "referenced_type" : "_ZTIKb",
   "source_file" : "frameworks/native/libs/binder/include/binder/Parcel.h"
  },
  {
   "access" : "private",
   "linker_set_key" : "_ZN7android6Parcel29is_pointer_equivalent_array_vIhEE",
   "name" : "android::Parcel::is_pointer_equivalent_array_v",
   "referenced_type" : "_ZTIKb",
   "source_file" : "frameworks/native/libs/binder/include/binder/Parcel.h"
  },
  {
   "access" : "private",
   "linker_set_key" : "_ZN7android6Parcel29is_pointer_equivalent_array_vIiEE",
   "name" : "android::Parcel::is_pointer_equivalent_array_v",
   "referenced_type" : "_ZTIKb",
   "source_file" : "frameworks/native/libs/binder/include/binder/Parcel.h"
  },
  {
   "access" : "private",
   "linker_set_key" : "_ZN7android6Parcel29is_pointer_equivalent_array_vIxEE",
   "name" : "android::Parcel::is_pointer_equivalent_array_v",
   "referenced_type" : "_ZTIKb",
   "source_file" : "frameworks/native/libs/binder/include/binder/Parcel.h"
  },
  {
   "access" : "private",
   "linker_set_key" : "_ZN7android6Parcel29is_pointer_equivalent_array_vIyEE",
   "name" : "android::Parcel::is_pointer_equivalent_array_v",
   "referenced_type" : "_ZTIKb",
   "source_file" : "frameworks/native/libs/binder/include/binder/Parcel.h"
  },
  {
   "access" : "private",
   "linker_set_key" : "_ZN7android8BpBinder12sTrackingMapE",
   "name" : "android::BpBinder::sTrackingMap",
   "referenced_type" : "_ZTINSt3__113unordered_mapIijNS_4hashIiEENS_8equal_toIiEENS_9allocatorINS_4pairIKijEEEEEE",
   "source_file" : "frameworks/native/libs/binder/include/binder/BpBinder.h"
  },
  {
   "access" : "private",
   "linker_set_key" : "_ZN7android8BpBinder13sTrackingLockE",
   "name" : "android::BpBinder::sTrackingLock",
   "referenced_type" : "_ZTIN7android5MutexE",
   "source_file" : "frameworks/native/libs/binder/include/binder/BpBinder.h"
  },
  {
   "access" : "private",
   "linker_set_key" : "_ZN7android8BpBinder14sLimitCallbackE",
   "name" : "android::BpBinder::sLimitCallback",
   "referenced_type" : "_ZTIPFviE",
   "source_file" : "frameworks/native/libs/binder/include/binder/BpBinder.h"
  },
  {
   "access" : "private",
   "linker_set_key" : "_ZN7android8BpBinder15sNumTrackedUidsE",
   "name" : "android::BpBinder::sNumTrackedUids",
   "referenced_type" : "_ZTIi",
   "source_file" : "frameworks/native/libs/binder/include/binder/BpBinder.h"
  },
  {
   "access" : "private",
   "linker_set_key" : "_ZN7android8BpBinder18sCountByUidEnabledE",
   "name" : "android::BpBinder::sCountByUidEnabled",
   "referenced_type" : "_ZTINSt3__16atomicIbEE",
   "source_file" : "frameworks/native/libs/binder/include/binder/BpBinder.h"
  },
  {
   "access" : "private",
   "linker_set_key" : "_ZN7android8BpBinder26sBinderProxyThrottleCreateE",
   "name" : "android::BpBinder::sBinderProxyThrottleCreate",
   "referenced_type" : "_ZTIb",
   "source_file" : "frameworks/native/libs/binder/include/binder/BpBinder.h"
  },
  {
   "access" : "private",
   "linker_set_key" : "_ZN7android8BpBinder29sBinderProxyCountLowWatermarkE",
   "name" : "android::BpBinder::sBinderProxyCountLowWatermark",
   "referenced_type" : "_ZTIj",
   "source_file" : "frameworks/native/libs/binder/include/binder/BpBinder.h"
  },
  {
   "access" : "private",
   "linker_set_key" : "_ZN7android8BpBinder30sBinderProxyCountHighWatermarkE",
   "name" : "android::BpBinder::sBinderProxyCountHighWatermark",
   "referenced_type" : "_ZTIj",
   "source_file" : "frameworks/native/libs/binder/include/binder/BpBinder.h"
  },
  {
   "access" : "private",
   "linker_set_key" : "_ZN7android8String1624kIsSharedBufferAllocatedE",
   "name" : "android::String16::kIsSharedBufferAllocated",
   "referenced_type" : "_ZTIKj",
   "source_file" : "system/core/libutils/include/utils/String16.h"
  },
  {
   "linker_set_key" : "_ZN7android8internalL17kManualInterfacesE",
   "name" : "android::internal::kManualInterfaces",
   "referenced_type" : "_ZTIA76_KPKc",
   "source_file" : "frameworks/native/libs/binder/include/binder/IInterface.h"
  },
  {
   "linker_set_key" : "_ZN7android8internalL27kDownstreamManualInterfacesE",
   "name" : "android::internal::kDownstreamManualInterfaces",
   "referenced_type" : "_ZTIA1_KPKc",
   "source_file" : "frameworks/native/libs/binder/include/binder/IInterface.h"
  },
  {
   "linker_set_key" : "_ZZN7android2sp18check_not_on_stackEPKvE13MIN_PAGE_MASK",
   "name" : "MIN_PAGE_MASK",
   "referenced_type" : "_ZTIKj",
   "source_file" : "system/core/libutils/include/utils/StrongPointer.h"
  },
  {
   "linker_set_key" : "_ZZN7android2sp18check_not_on_stackEPKvE13MIN_PAGE_SIZE",
   "name" : "MIN_PAGE_SIZE",
   "referenced_type" : "_ZTIKi",
   "source_file" : "system/core/libutils/include/utils/StrongPointer.h"
  },
  {
   "linker_set_key" : "_ZZN7android2spINS_7IBinderEE18check_not_on_stackEPKvE13MIN_PAGE_MASK",
   "name" : "MIN_PAGE_MASK",
   "referenced_type" : "_ZTIKj",
   "source_file" : "system/core/libutils/include/utils/StrongPointer.h"
  },
  {
   "linker_set_key" : "_ZZN7android2spINS_7IBinderEE18check_not_on_stackEPKvE13MIN_PAGE_SIZE",
   "name" : "MIN_PAGE_SIZE",
   "referenced_type" : "_ZTIKi",
   "source_file" : "system/core/libutils/include/utils/StrongPointer.h"
  }
 ],
 "lvalue_reference_types" :
 [
  {
   "alignment" : 4,
   "linker_set_key" : "_ZTIRA2_Kc",
   "name" : "char const (&)[2]",
   "referenced_type" : "_ZTIA2_Kc",
   "self_type" : "_ZTIRA2_Kc",
   "size" : 4,
   "source_file" : "frameworks/native/libs/binder/include/binder/TextOutput.h"
  },
  {
   "alignment" : 4,
   "linker_set_key" : "_ZTIRA3_Kc",
   "name" : "char const (&)[3]",
   "referenced_type" : "_ZTIA3_Kc",
   "self_type" : "_ZTIRA3_Kc",
   "size" : 4,
   "source_file" : "frameworks/native/libs/binder/include/binder/TextOutput.h"
  },
  {
   "alignment" : 4,
   "linker_set_key" : "_ZTIRA4_Kc",
   "name" : "char const (&)[4]",
   "referenced_type" : "_ZTIA4_Kc",
   "self_type" : "_ZTIRA4_Kc",
   "size" : 4,
   "source_file" : "frameworks/native/libs/binder/include/binder/TextOutput.h"
  },
  {
   "alignment" : 4,
   "linker_set_key" : "_ZTIRA5_Kc",
   "name" : "char const (&)[5]",
   "referenced_type" : "_ZTIA5_Kc",
   "self_type" : "_ZTIRA5_Kc",
   "size" : 4,
   "source_file" : "frameworks/native/libs/binder/include/binder/TextOutput.h"
  },
  {
   "alignment" : 4,
   "linker_set_key" : "_ZTIRA8_Kc",
   "name" : "char const (&)[8]",
   "referenced_type" : "_ZTIA8_Kc",
   "self_type" : "_ZTIRA8_Kc",
   "size" : 4,
   "source_file" : "frameworks/native/libs/binder/include/binder/TextOutput.h"
  },
  {
   "alignment" : 4,
   "linker_set_key" : "_ZTIRA9_Kc",
   "name" : "char const (&)[9]",
   "referenced_type" : "_ZTIA9_Kc",
   "self_type" : "_ZTIRA9_Kc",
   "size" : 4,
   "source_file" : "frameworks/native/libs/binder/include/binder/TextOutput.h"
  },
  {
   "alignment" : 4,
   "linker_set_key" : "_ZTIRK18flat_binder_object",
   "name" : "const flat_binder_object &",
   "referenced_type" : "_ZTIK18flat_binder_object",
   "self_type" : "_ZTIRK18flat_binder_object",
   "size" : 4,
   "source_file" : "frameworks/native/libs/binder/include/binder/Parcel.h"
  },
  {
   "alignment" : 4,
   "linker_set_key" : "_ZTIRKN7android10ParcelableE",
   "name" : "const android::Parcelable &",
   "referenced_type" : "_ZTIKN7android10ParcelableE",
   "self_type" : "_ZTIRKN7android10ParcelableE",
   "size" : 4,
   "source_file" : "frameworks/native/libs/binder/include/binder/Parcelable.h"
  },
  {
   "alignment" : 4,
   "linker_set_key" : "_ZTIRKN7android10RpcAddressE",
   "name" : "const android::RpcAddress &",
   "referenced_type" : "_ZTIKN7android10RpcAddressE",
   "self_type" : "_ZTIRKN7android10RpcAddressE",
   "size" : 4,
   "source_file" : "frameworks/native/libs/binder/include/binder/BpBinder.h"
  },
  {
   "alignment" : 4,
   "linker_set_key" : "_ZTIRKN7android2spINS_10RpcSessionEEE",
   "name" : "const android::sp<android::RpcSession> &",
   "referenced_type" : "_ZTIKN7android2spINS_10RpcSessionEEE",
   "self_type" : "_ZTIRKN7android2spINS_10RpcSessionEEE",
   "size" : 4,
   "source_file" : "system/core/libutils/include/utils/StrongPointer.h"
  },
  {
   "alignment" : 4,
   "linker_set_key" : "_ZTIRKN7android2spINS_7IBinderEEE",
   "name" : "const android::sp<android::IBinder> &",
   "referenced_type" : "_ZTIKN7android2spINS_7IBinderEEE",
   "self_type" : "_ZTIRKN7android2spINS_7IBinderEEE",
   "size" : 4,
   "source_file" : "system/core/libutils/include/utils/StrongPointer.h"
  },
  {
   "alignment" : 4,
   "linker_set_key" : "_ZTIRKN7android4base14unique_fd_implINS0_13DefaultCloserEEE",
   "name" : "const android::base::unique_fd_impl<android::base::DefaultCloser> &",
   "referenced_type" : "_ZTIKN7android4base14unique_fd_implINS0_13DefaultCloserEEE",
   "self_type" : "_ZTIRKN7android4base14unique_fd_implINS0_13DefaultCloserEEE",
   "size" : 4,
   "source_file" : "frameworks/native/libs/binder/include/binder/Parcel.h"
  },
  {
   "alignment" : 4,
   "linker_set_key" : "_ZTIRKN7android6Parcel26FlattenableHelperInterfaceE",
   "name" : "const android::Parcel::FlattenableHelperInterface &",
   "referenced_type" : "_ZTIKN7android6Parcel26FlattenableHelperInterfaceE",
