{
 "array_types" :
 [
  {
   "alignment" : 4,
   "linker_set_key" : "_ZTIA10_i",
   "name" : "int [10]",
   "referenced_type" : "_ZTIi",
   "self_type" : "_ZTIA10_i",
   "size" : 40,
   "source_file" : "bionic/libc/include/bits/pthread_types.h"
  },
  {
   "alignment" : 2,
   "linker_set_key" : "_ZTIA11_Ds",
   "name" : "char16_t [11]",
   "referenced_type" : "_ZTIDs",
   "self_type" : "_ZTIA11_Ds",
   "size" : 22,
   "source_file" : "external/libcxx/include/string"
  },
  {
   "alignment" : 1,
   "linker_set_key" : "_ZTIA120_c",
   "name" : "char [120]",
   "referenced_type" : "_ZTIc",
   "self_type" : "_ZTIA120_c",
   "size" : 120,
   "source_file" : "bionic/libc/include/sys/ucontext.h"
  },
  {
   "alignment" : 4,
   "linker_set_key" : "_ZTIA12_i",
   "name" : "int [12]",
   "referenced_type" : "_ZTIi",
   "self_type" : "_ZTIA12_i",
   "size" : 48,
   "source_file" : "bionic/libc/include/bits/pthread_types.h"
  },
  {
   "alignment" : 4,
   "linker_set_key" : "_ZTIA14_i",
   "name" : "int [14]",
   "referenced_type" : "_ZTIi",
   "self_type" : "_ZTIA14_i",
   "size" : 56,
   "source_file" : "bionic/libc/include/bits/pthread_types.h"
  },
  {
   "alignment" : 16,
   "linker_set_key" : "_ZTIA16_11__Int32x4_t",
   "name" : "__attribute__((neon_vector_type(4))) int [16]",
   "referenced_type" : "_ZTI11__Int32x4_t",
   "self_type" : "_ZTIA16_11__Int32x4_t",
   "size" : 256,
   "source_file" : "external/gemmlowp/internal/simd_wrappers.h"
  },
  {
   "alignment" : 1,
   "linker_set_key" : "_ZTIA16_c",
   "name" : "char [16]",
   "referenced_type" : "_ZTIc",
   "self_type" : "_ZTIA16_c",
   "size" : 16,
   "source_file" : "bionic/libc/include/bits/pthread_types.h"
  },
  {
   "alignment" : 8,
   "linker_set_key" : "_ZTIA16_m",
   "name" : "unsigned long [16]",
   "referenced_type" : "_ZTIm",
   "self_type" : "_ZTIA16_m",
   "size" : 128,
   "source_file" : "bionic/libc/kernel/uapi/linux/posix_types.h"
  },
  {
   "alignment" : 8,
   "linker_set_key" : "_ZTIA1_10__Int8x8_t",
   "name" : "__attribute__((neon_vector_type(8))) signed char [1]",
   "referenced_type" : "_ZTI10__Int8x8_t",
   "self_type" : "_ZTIA1_10__Int8x8_t",
   "size" : 8,
   "source_file" : "external/gemmlowp/internal/simd_wrappers.h"
  },
  {
   "alignment" : 8,
   "linker_set_key" : "_ZTIA1_11__Int16x4_t",
   "name" : "__attribute__((neon_vector_type(4))) short [1]",
   "referenced_type" : "_ZTI11__Int16x4_t",
   "self_type" : "_ZTIA1_11__Int16x4_t",
   "size" : 8,
   "source_file" : "external/gemmlowp/internal/simd_wrappers.h"
  },
  {
   "alignment" : 16,
   "linker_set_key" : "_ZTIA1_11__Int16x8_t",
   "name" : "__attribute__((neon_vector_type(8))) short [1]",
   "referenced_type" : "_ZTI11__Int16x8_t",
   "self_type" : "_ZTIA1_11__Int16x8_t",
   "size" : 16,
   "source_file" : "external/gemmlowp/internal/simd_wrappers.h"
  },
  {
   "alignment" : 16,
   "linker_set_key" : "_ZTIA1_11__Int32x4_t",
   "name" : "__attribute__((neon_vector_type(4))) int [1]",
   "referenced_type" : "_ZTI11__Int32x4_t",
   "self_type" : "_ZTIA1_11__Int32x4_t",
   "size" : 16,
   "source_file" : "external/gemmlowp/internal/simd_wrappers.h"
  },
  {
   "alignment" : 8,
   "linker_set_key" : "_ZTIA1_11__Uint8x8_t",
   "name" : "__attribute__((neon_vector_type(8))) unsigned char [1]",
   "referenced_type" : "_ZTI11__Uint8x8_t",
   "self_type" : "_ZTIA1_11__Uint8x8_t",
   "size" : 8,
   "source_file" : "external/gemmlowp/internal/simd_wrappers.h"
  },
  {
   "alignment" : 4,
   "linker_set_key" : "_ZTIA1_i",
   "name" : "int [1]",
   "referenced_type" : "_ZTIi",
   "self_type" : "_ZTIA1_i",
   "size" : 4,
   "source_file" : "external/gemmlowp/internal/simd_wrappers.h"
  },
  {
   "alignment" : 4,
   "linker_set_key" : "_ZTIA1_j",
   "name" : "unsigned int [1]",
   "referenced_type" : "_ZTIj",
   "self_type" : "_ZTIA1_j",
   "size" : 4,
   "source_file" : "external/gemmlowp/internal/simd_wrappers.h"
  },
  {
   "alignment" : 8,
   "linker_set_key" : "_ZTIA1_m",
   "name" : "unsigned long [1]",
   "referenced_type" : "_ZTIm",
   "self_type" : "_ZTIA1_m",
   "size" : 8,
   "source_file" : "bionic/libc/kernel/uapi/asm-generic/signal.h"
  },
  {
   "alignment" : 1,
   "linker_set_key" : "_ZTIA23_c",
   "name" : "char [23]",
   "referenced_type" : "_ZTIc",
   "self_type" : "_ZTIA23_c",
   "size" : 23,
   "source_file" : "external/libcxx/include/string"
  },
  {
   "alignment" : 1,
   "linker_set_key" : "_ZTIA256_c",
   "name" : "char [256]",
   "referenced_type" : "_ZTIc",
   "self_type" : "_ZTIA256_c",
   "size" : 256,
   "source_file" : "external/gemmlowp/internal/kernel_reference.h"
  },
  {
   "alignment" : 8,
   "linker_set_key" : "_ZTIA2_10__Int8x8_t",
   "name" : "__attribute__((neon_vector_type(8))) signed char [2]",
   "referenced_type" : "_ZTI10__Int8x8_t",
   "self_type" : "_ZTIA2_10__Int8x8_t",
   "size" : 16,
   "source_file" : "prebuilts/clang-tools/linux-x86/clang-headers/arm_neon.h"
  },
  {
   "alignment" : 8,
   "linker_set_key" : "_ZTIA2_11__Int16x4_t",
   "name" : "__attribute__((neon_vector_type(4))) short [2]",
   "referenced_type" : "_ZTI11__Int16x4_t",
   "self_type" : "_ZTIA2_11__Int16x4_t",
   "size" : 16,
   "source_file" : "prebuilts/clang-tools/linux-x86/clang-headers/arm_neon.h"
  },
  {
   "alignment" : 16,
   "linker_set_key" : "_ZTIA2_11__Int16x8_t",
   "name" : "__attribute__((neon_vector_type(8))) short [2]",
   "referenced_type" : "_ZTI11__Int16x8_t",
   "self_type" : "_ZTIA2_11__Int16x8_t",
   "size" : 32,
   "source_file" : "prebuilts/clang-tools/linux-x86/clang-headers/arm_neon.h"
  },
  {
   "alignment" : 8,
   "linker_set_key" : "_ZTIA2_11__Int32x2_t",
   "name" : "__attribute__((neon_vector_type(2))) int [2]",
   "referenced_type" : "_ZTI11__Int32x2_t",
   "self_type" : "_ZTIA2_11__Int32x2_t",
   "size" : 16,
   "source_file" : "prebuilts/clang-tools/linux-x86/clang-headers/arm_neon.h"
  },
  {
   "alignment" : 16,
   "linker_set_key" : "_ZTIA2_11__Int32x4_t",
   "name" : "__attribute__((neon_vector_type(4))) int [2]",
   "referenced_type" : "_ZTI11__Int32x4_t",
   "self_type" : "_ZTIA2_11__Int32x4_t",
   "size" : 32,
   "source_file" : "prebuilts/clang-tools/linux-x86/clang-headers/arm_neon.h"
  },
  {
   "alignment" : 8,
   "linker_set_key" : "_ZTIA2_11__Int64x1_t",
   "name" : "__attribute__((neon_vector_type(1))) long [2]",
   "referenced_type" : "_ZTI11__Int64x1_t",
   "self_type" : "_ZTIA2_11__Int64x1_t",
   "size" : 16,
   "source_file" : "prebuilts/clang-tools/linux-x86/clang-headers/arm_neon.h"
  },
  {
   "alignment" : 16,
   "linker_set_key" : "_ZTIA2_11__Int64x2_t",
   "name" : "__attribute__((neon_vector_type(2))) long [2]",
   "referenced_type" : "_ZTI11__Int64x2_t",
   "self_type" : "_ZTIA2_11__Int64x2_t",
   "size" : 32,
   "source_file" : "prebuilts/clang-tools/linux-x86/clang-headers/arm_neon.h"
  },
  {
   "alignment" : 16,
   "linker_set_key" : "_ZTIA2_11__Int8x16_t",
   "name" : "__attribute__((neon_vector_type(16))) signed char [2]",
   "referenced_type" : "_ZTI11__Int8x16_t",
   "self_type" : "_ZTIA2_11__Int8x16_t",
   "size" : 32,
   "source_file" : "prebuilts/clang-tools/linux-x86/clang-headers/arm_neon.h"
  },
  {
   "alignment" : 8,
   "linker_set_key" : "_ZTIA2_11__Poly8x8_t",
   "name" : "__attribute__((neon_polyvector_type(8))) unsigned char [2]",
   "referenced_type" : "_ZTI11__Poly8x8_t",
   "self_type" : "_ZTIA2_11__Poly8x8_t",
   "size" : 16,
   "source_file" : "prebuilts/clang-tools/linux-x86/clang-headers/arm_neon.h"
  },
  {
   "alignment" : 8,
   "linker_set_key" : "_ZTIA2_11__Uint8x8_t",
   "name" : "__attribute__((neon_vector_type(8))) unsigned char [2]",
   "referenced_type" : "_ZTI11__Uint8x8_t",
   "self_type" : "_ZTIA2_11__Uint8x8_t",
   "size" : 16,
   "source_file" : "prebuilts/clang-tools/linux-x86/clang-headers/arm_neon.h"
  },
  {
   "alignment" : 8,
   "linker_set_key" : "_ZTIA2_12__Poly16x4_t",
   "name" : "__attribute__((neon_polyvector_type(4))) unsigned short [2]",
   "referenced_type" : "_ZTI12__Poly16x4_t",
   "self_type" : "_ZTIA2_12__Poly16x4_t",
   "size" : 16,
   "source_file" : "prebuilts/clang-tools/linux-x86/clang-headers/arm_neon.h"
  },
  {
   "alignment" : 16,
   "linker_set_key" : "_ZTIA2_12__Poly16x8_t",
   "name" : "__attribute__((neon_polyvector_type(8))) unsigned short [2]",
   "referenced_type" : "_ZTI12__Poly16x8_t",
   "self_type" : "_ZTIA2_12__Poly16x8_t",
   "size" : 32,
   "source_file" : "prebuilts/clang-tools/linux-x86/clang-headers/arm_neon.h"
  },
  {
   "alignment" : 8,
   "linker_set_key" : "_ZTIA2_12__Poly64x1_t",
   "name" : "__attribute__((neon_polyvector_type(1))) unsigned long [2]",
   "referenced_type" : "_ZTI12__Poly64x1_t",
   "self_type" : "_ZTIA2_12__Poly64x1_t",
   "size" : 16,
   "source_file" : "prebuilts/clang-tools/linux-x86/clang-headers/arm_neon.h"
  },
  {
   "alignment" : 16,
   "linker_set_key" : "_ZTIA2_12__Poly64x2_t",
   "name" : "__attribute__((neon_polyvector_type(2))) unsigned long [2]",
   "referenced_type" : "_ZTI12__Poly64x2_t",
   "self_type" : "_ZTIA2_12__Poly64x2_t",
   "size" : 32,
   "source_file" : "prebuilts/clang-tools/linux-x86/clang-headers/arm_neon.h"
  },
  {
   "alignment" : 16,
   "linker_set_key" : "_ZTIA2_12__Poly8x16_t",
   "name" : "__attribute__((neon_polyvector_type(16))) unsigned char [2]",
   "referenced_type" : "_ZTI12__Poly8x16_t",
   "self_type" : "_ZTIA2_12__Poly8x16_t",
   "size" : 32,
   "source_file" : "prebuilts/clang-tools/linux-x86/clang-headers/arm_neon.h"
  },
  {
   "alignment" : 8,
   "linker_set_key" : "_ZTIA2_12__Uint16x4_t",
   "name" : "__attribute__((neon_vector_type(4))) unsigned short [2]",
   "referenced_type" : "_ZTI12__Uint16x4_t",
   "self_type" : "_ZTIA2_12__Uint16x4_t",
   "size" : 16,
   "source_file" : "prebuilts/clang-tools/linux-x86/clang-headers/arm_neon.h"
  },
  {
   "alignment" : 16,
   "linker_set_key" : "_ZTIA2_12__Uint16x8_t",
   "name" : "__attribute__((neon_vector_type(8))) unsigned short [2]",
   "referenced_type" : "_ZTI12__Uint16x8_t",
   "self_type" : "_ZTIA2_12__Uint16x8_t",
   "size" : 32,
   "source_file" : "prebuilts/clang-tools/linux-x86/clang-headers/arm_neon.h"
  },
  {
   "alignment" : 8,
   "linker_set_key" : "_ZTIA2_12__Uint32x2_t",
   "name" : "__attribute__((neon_vector_type(2))) unsigned int [2]",
   "referenced_type" : "_ZTI12__Uint32x2_t",
   "self_type" : "_ZTIA2_12__Uint32x2_t",
   "size" : 16,
   "source_file" : "prebuilts/clang-tools/linux-x86/clang-headers/arm_neon.h"
  },
  {
   "alignment" : 16,
   "linker_set_key" : "_ZTIA2_12__Uint32x4_t",
   "name" : "__attribute__((neon_vector_type(4))) unsigned int [2]",
   "referenced_type" : "_ZTI12__Uint32x4_t",
   "self_type" : "_ZTIA2_12__Uint32x4_t",
   "size" : 32,
   "source_file" : "prebuilts/clang-tools/linux-x86/clang-headers/arm_neon.h"
  },
  {
   "alignment" : 8,
   "linker_set_key" : "_ZTIA2_12__Uint64x1_t",
   "name" : "__attribute__((neon_vector_type(1))) unsigned long [2]",
   "referenced_type" : "_ZTI12__Uint64x1_t",
   "self_type" : "_ZTIA2_12__Uint64x1_t",
   "size" : 16,
   "source_file" : "prebuilts/clang-tools/linux-x86/clang-headers/arm_neon.h"
  },
  {
   "alignment" : 16,
   "linker_set_key" : "_ZTIA2_12__Uint64x2_t",
   "name" : "__attribute__((neon_vector_type(2))) unsigned long [2]",
   "referenced_type" : "_ZTI12__Uint64x2_t",
   "self_type" : "_ZTIA2_12__Uint64x2_t",
   "size" : 32,
   "source_file" : "prebuilts/clang-tools/linux-x86/clang-headers/arm_neon.h"
  },
  {
   "alignment" : 16,
   "linker_set_key" : "_ZTIA2_12__Uint8x16_t",
   "name" : "__attribute__((neon_vector_type(16))) unsigned char [2]",
   "referenced_type" : "_ZTI12__Uint8x16_t",
   "self_type" : "_ZTIA2_12__Uint8x16_t",
   "size" : 32,
   "source_file" : "prebuilts/clang-tools/linux-x86/clang-headers/arm_neon.h"
  },
  {
   "alignment" : 8,
   "linker_set_key" : "_ZTIA2_13__Float16x4_t",
   "name" : "__attribute__((neon_vector_type(4))) __fp16 [2]",
   "referenced_type" : "_ZTI13__Float16x4_t",
   "self_type" : "_ZTIA2_13__Float16x4_t",
   "size" : 16,
   "source_file" : "prebuilts/clang-tools/linux-x86/clang-headers/arm_neon.h"
  },
  {
   "alignment" : 16,
   "linker_set_key" : "_ZTIA2_13__Float16x8_t",
   "name" : "__attribute__((neon_vector_type(8))) __fp16 [2]",
   "referenced_type" : "_ZTI13__Float16x8_t",
   "self_type" : "_ZTIA2_13__Float16x8_t",
   "size" : 32,
   "source_file" : "prebuilts/clang-tools/linux-x86/clang-headers/arm_neon.h"
  },
  {
   "alignment" : 8,
   "linker_set_key" : "_ZTIA2_13__Float32x2_t",
   "name" : "__attribute__((neon_vector_type(2))) float [2]",
   "referenced_type" : "_ZTI13__Float32x2_t",
   "self_type" : "_ZTIA2_13__Float32x2_t",
   "size" : 16,
   "source_file" : "prebuilts/clang-tools/linux-x86/clang-headers/arm_neon.h"
  },
  {
   "alignment" : 16,
   "linker_set_key" : "_ZTIA2_13__Float32x4_t",
   "name" : "__attribute__((neon_vector_type(4))) float [2]",
   "referenced_type" : "_ZTI13__Float32x4_t",
   "self_type" : "_ZTIA2_13__Float32x4_t",
   "size" : 32,
   "source_file" : "prebuilts/clang-tools/linux-x86/clang-headers/arm_neon.h"
  },
  {
   "alignment" : 8,
   "linker_set_key" : "_ZTIA2_13__Float64x1_t",
   "name" : "__attribute__((neon_vector_type(1))) double [2]",
   "referenced_type" : "_ZTI13__Float64x1_t",
   "self_type" : "_ZTIA2_13__Float64x1_t",
   "size" : 16,
   "source_file" : "prebuilts/clang-tools/linux-x86/clang-headers/arm_neon.h"
  },
  {
   "alignment" : 16,
   "linker_set_key" : "_ZTIA2_13__Float64x2_t",
   "name" : "__attribute__((neon_vector_type(2))) double [2]",
   "referenced_type" : "_ZTI13__Float64x2_t",
   "self_type" : "_ZTIA2_13__Float64x2_t",
   "size" : 32,
   "source_file" : "prebuilts/clang-tools/linux-x86/clang-headers/arm_neon.h"
  },
  {
   "alignment" : 1,
   "linker_set_key" : "_ZTIA2_c",
   "name" : "char [2]",
   "referenced_type" : "_ZTIc",
   "self_type" : "_ZTIA2_c",
   "size" : 2,
   "source_file" : "external/libcxx/include/type_traits"
  },
  {
   "alignment" : 4,
   "linker_set_key" : "_ZTIA2_i",
   "name" : "int [2]",
   "referenced_type" : "_ZTIi",
   "self_type" : "_ZTIA2_i",
   "size" : 8,
   "source_file" : "bionic/libc/kernel/uapi/asm-generic/posix_types.h"
  },
  {
   "alignment" : 8,
   "linker_set_key" : "_ZTIA31_m",
   "name" : "unsigned long [31]",
   "referenced_type" : "_ZTIm",
   "self_type" : "_ZTIA31_m",
   "size" : 248,
   "source_file" : "bionic/libc/include/sys/user.h"
  },
  {
   "alignment" : 8,
   "linker_set_key" : "_ZTIA31_y",
   "name" : "unsigned long long [31]",
   "referenced_type" : "_ZTIy",
   "self_type" : "_ZTIA31_y",
   "size" : 248,
   "source_file" : "bionic/libc/kernel/uapi/asm-arm64/asm/sigcontext.h"
  },
  {
   "alignment" : 1,
   "linker_set_key" : "_ZTIA32_h",
   "name" : "unsigned char [32]",
   "referenced_type" : "_ZTIh",
   "self_type" : "_ZTIA32_h",
   "size" : 32,
   "source_file" : "external/libcxx/include/type_traits"
  },
  {
   "alignment" : 4,
   "linker_set_key" : "_ZTIA32_i",
   "name" : "int [32]",
   "referenced_type" : "_ZTIi",
   "self_type" : "_ZTIA32_i",
   "size" : 128,
   "source_file" : "bionic/libc/kernel/uapi/asm-generic/siginfo.h"
  },
  {
   "alignment" : 16,
   "linker_set_key" : "_ZTIA32_o",
   "name" : "unsigned __int128 [32]",
   "referenced_type" : "_ZTIo",
   "self_type" : "_ZTIA32_o",
   "size" : 512,
   "source_file" : "bionic/libc/kernel/uapi/asm-arm64/asm/sigcontext.h"
  },
  {
   "alignment" : 8,
   "linker_set_key" : "_ZTIA3_10__Int8x8_t",
   "name" : "__attribute__((neon_vector_type(8))) signed char [3]",
   "referenced_type" : "_ZTI10__Int8x8_t",
   "self_type" : "_ZTIA3_10__Int8x8_t",
   "size" : 24,
   "source_file" : "prebuilts/clang-tools/linux-x86/clang-headers/arm_neon.h"
  },
  {
   "alignment" : 8,
   "linker_set_key" : "_ZTIA3_11__Int16x4_t",
   "name" : "__attribute__((neon_vector_type(4))) short [3]",
   "referenced_type" : "_ZTI11__Int16x4_t",
   "self_type" : "_ZTIA3_11__Int16x4_t",
   "size" : 24,
   "source_file" : "prebuilts/clang-tools/linux-x86/clang-headers/arm_neon.h"
  },
  {
   "alignment" : 16,
   "linker_set_key" : "_ZTIA3_11__Int16x8_t",
   "name" : "__attribute__((neon_vector_type(8))) short [3]",
   "referenced_type" : "_ZTI11__Int16x8_t",
   "self_type" : "_ZTIA3_11__Int16x8_t",
   "size" : 48,
   "source_file" : "prebuilts/clang-tools/linux-x86/clang-headers/arm_neon.h"
  },
  {
   "alignment" : 8,
   "linker_set_key" : "_ZTIA3_11__Int32x2_t",
   "name" : "__attribute__((neon_vector_type(2))) int [3]",
   "referenced_type" : "_ZTI11__Int32x2_t",
   "self_type" : "_ZTIA3_11__Int32x2_t",
   "size" : 24,
   "source_file" : "prebuilts/clang-tools/linux-x86/clang-headers/arm_neon.h"
  },
  {
   "alignment" : 16,
   "linker_set_key" : "_ZTIA3_11__Int32x4_t",
   "name" : "__attribute__((neon_vector_type(4))) int [3]",
   "referenced_type" : "_ZTI11__Int32x4_t",
   "self_type" : "_ZTIA3_11__Int32x4_t",
   "size" : 48,
   "source_file" : "prebuilts/clang-tools/linux-x86/clang-headers/arm_neon.h"
  },
  {
   "alignment" : 8,
   "linker_set_key" : "_ZTIA3_11__Int64x1_t",
   "name" : "__attribute__((neon_vector_type(1))) long [3]",
   "referenced_type" : "_ZTI11__Int64x1_t",
   "self_type" : "_ZTIA3_11__Int64x1_t",
   "size" : 24,
   "source_file" : "prebuilts/clang-tools/linux-x86/clang-headers/arm_neon.h"
  },
  {
   "alignment" : 16,
   "linker_set_key" : "_ZTIA3_11__Int64x2_t",
   "name" : "__attribute__((neon_vector_type(2))) long [3]",
   "referenced_type" : "_ZTI11__Int64x2_t",
   "self_type" : "_ZTIA3_11__Int64x2_t",
   "size" : 48,
   "source_file" : "prebuilts/clang-tools/linux-x86/clang-headers/arm_neon.h"
  },
  {
   "alignment" : 16,
   "linker_set_key" : "_ZTIA3_11__Int8x16_t",
   "name" : "__attribute__((neon_vector_type(16))) signed char [3]",
   "referenced_type" : "_ZTI11__Int8x16_t",
   "self_type" : "_ZTIA3_11__Int8x16_t",
   "size" : 48,
   "source_file" : "prebuilts/clang-tools/linux-x86/clang-headers/arm_neon.h"
  },
  {
   "alignment" : 8,
   "linker_set_key" : "_ZTIA3_11__Poly8x8_t",
   "name" : "__attribute__((neon_polyvector_type(8))) unsigned char [3]",
   "referenced_type" : "_ZTI11__Poly8x8_t",
   "self_type" : "_ZTIA3_11__Poly8x8_t",
   "size" : 24,
   "source_file" : "prebuilts/clang-tools/linux-x86/clang-headers/arm_neon.h"
  },
  {
   "alignment" : 8,
   "linker_set_key" : "_ZTIA3_11__Uint8x8_t",
   "name" : "__attribute__((neon_vector_type(8))) unsigned char [3]",
   "referenced_type" : "_ZTI11__Uint8x8_t",
   "self_type" : "_ZTIA3_11__Uint8x8_t",
   "size" : 24,
   "source_file" : "prebuilts/clang-tools/linux-x86/clang-headers/arm_neon.h"
  },
  {
   "alignment" : 8,
   "linker_set_key" : "_ZTIA3_12__Poly16x4_t",
   "name" : "__attribute__((neon_polyvector_type(4))) unsigned short [3]",
   "referenced_type" : "_ZTI12__Poly16x4_t",
   "self_type" : "_ZTIA3_12__Poly16x4_t",
   "size" : 24,
   "source_file" : "prebuilts/clang-tools/linux-x86/clang-headers/arm_neon.h"
  },
  {
   "alignment" : 16,
   "linker_set_key" : "_ZTIA3_12__Poly16x8_t",
   "name" : "__attribute__((neon_polyvector_type(8))) unsigned short [3]",
   "referenced_type" : "_ZTI12__Poly16x8_t",
   "self_type" : "_ZTIA3_12__Poly16x8_t",
   "size" : 48,
   "source_file" : "prebuilts/clang-tools/linux-x86/clang-headers/arm_neon.h"
  },
  {
   "alignment" : 8,
   "linker_set_key" : "_ZTIA3_12__Poly64x1_t",
   "name" : "__attribute__((neon_polyvector_type(1))) unsigned long [3]",
   "referenced_type" : "_ZTI12__Poly64x1_t",
   "self_type" : "_ZTIA3_12__Poly64x1_t",
   "size" : 24,
   "source_file" : "prebuilts/clang-tools/linux-x86/clang-headers/arm_neon.h"
  },
  {
   "alignment" : 16,
   "linker_set_key" : "_ZTIA3_12__Poly64x2_t",
   "name" : "__attribute__((neon_polyvector_type(2))) unsigned long [3]",
   "referenced_type" : "_ZTI12__Poly64x2_t",
   "self_type" : "_ZTIA3_12__Poly64x2_t",
   "size" : 48,
   "source_file" : "prebuilts/clang-tools/linux-x86/clang-headers/arm_neon.h"
  },
  {
   "alignment" : 16,
   "linker_set_key" : "_ZTIA3_12__Poly8x16_t",
   "name" : "__attribute__((neon_polyvector_type(16))) unsigned char [3]",
   "referenced_type" : "_ZTI12__Poly8x16_t",
   "self_type" : "_ZTIA3_12__Poly8x16_t",
   "size" : 48,
   "source_file" : "prebuilts/clang-tools/linux-x86/clang-headers/arm_neon.h"
  },
  {
   "alignment" : 8,
   "linker_set_key" : "_ZTIA3_12__Uint16x4_t",
   "name" : "__attribute__((neon_vector_type(4))) unsigned short [3]",
   "referenced_type" : "_ZTI12__Uint16x4_t",
   "self_type" : "_ZTIA3_12__Uint16x4_t",
   "size" : 24,
   "source_file" : "prebuilts/clang-tools/linux-x86/clang-headers/arm_neon.h"
  },
  {
   "alignment" : 16,
   "linker_set_key" : "_ZTIA3_12__Uint16x8_t",
   "name" : "__attribute__((neon_vector_type(8))) unsigned short [3]",
   "referenced_type" : "_ZTI12__Uint16x8_t",
   "self_type" : "_ZTIA3_12__Uint16x8_t",
   "size" : 48,
   "source_file" : "prebuilts/clang-tools/linux-x86/clang-headers/arm_neon.h"
  },
  {
   "alignment" : 8,
   "linker_set_key" : "_ZTIA3_12__Uint32x2_t",
   "name" : "__attribute__((neon_vector_type(2))) unsigned int [3]",
   "referenced_type" : "_ZTI12__Uint32x2_t",
   "self_type" : "_ZTIA3_12__Uint32x2_t",
   "size" : 24,
   "source_file" : "prebuilts/clang-tools/linux-x86/clang-headers/arm_neon.h"
  },
  {
   "alignment" : 16,
   "linker_set_key" : "_ZTIA3_12__Uint32x4_t",
   "name" : "__attribute__((neon_vector_type(4))) unsigned int [3]",
   "referenced_type" : "_ZTI12__Uint32x4_t",
   "self_type" : "_ZTIA3_12__Uint32x4_t",
   "size" : 48,
   "source_file" : "prebuilts/clang-tools/linux-x86/clang-headers/arm_neon.h"
  },
  {
   "alignment" : 8,
   "linker_set_key" : "_ZTIA3_12__Uint64x1_t",
   "name" : "__attribute__((neon_vector_type(1))) unsigned long [3]",
   "referenced_type" : "_ZTI12__Uint64x1_t",
   "self_type" : "_ZTIA3_12__Uint64x1_t",
   "size" : 24,
   "source_file" : "prebuilts/clang-tools/linux-x86/clang-headers/arm_neon.h"
  },
  {
   "alignment" : 16,
   "linker_set_key" : "_ZTIA3_12__Uint64x2_t",
   "name" : "__attribute__((neon_vector_type(2))) unsigned long [3]",
   "referenced_type" : "_ZTI12__Uint64x2_t",
   "self_type" : "_ZTIA3_12__Uint64x2_t",
   "size" : 48,
   "source_file" : "prebuilts/clang-tools/linux-x86/clang-headers/arm_neon.h"
  },
  {
   "alignment" : 16,
   "linker_set_key" : "_ZTIA3_12__Uint8x16_t",
   "name" : "__attribute__((neon_vector_type(16))) unsigned char [3]",
   "referenced_type" : "_ZTI12__Uint8x16_t",
   "self_type" : "_ZTIA3_12__Uint8x16_t",
   "size" : 48,
   "source_file" : "prebuilts/clang-tools/linux-x86/clang-headers/arm_neon.h"
  },
  {
   "alignment" : 8,
   "linker_set_key" : "_ZTIA3_13__Float16x4_t",
   "name" : "__attribute__((neon_vector_type(4))) __fp16 [3]",
   "referenced_type" : "_ZTI13__Float16x4_t",
   "self_type" : "_ZTIA3_13__Float16x4_t",
   "size" : 24,
   "source_file" : "prebuilts/clang-tools/linux-x86/clang-headers/arm_neon.h"
  },
  {
   "alignment" : 16,
   "linker_set_key" : "_ZTIA3_13__Float16x8_t",
   "name" : "__attribute__((neon_vector_type(8))) __fp16 [3]",
   "referenced_type" : "_ZTI13__Float16x8_t",
   "self_type" : "_ZTIA3_13__Float16x8_t",
   "size" : 48,
   "source_file" : "prebuilts/clang-tools/linux-x86/clang-headers/arm_neon.h"
  },
  {
   "alignment" : 8,
   "linker_set_key" : "_ZTIA3_13__Float32x2_t",
   "name" : "__attribute__((neon_vector_type(2))) float [3]",
   "referenced_type" : "_ZTI13__Float32x2_t",
   "self_type" : "_ZTIA3_13__Float32x2_t",
   "size" : 24,
   "source_file" : "prebuilts/clang-tools/linux-x86/clang-headers/arm_neon.h"
  },
  {
   "alignment" : 16,
   "linker_set_key" : "_ZTIA3_13__Float32x4_t",
   "name" : "__attribute__((neon_vector_type(4))) float [3]",
   "referenced_type" : "_ZTI13__Float32x4_t",
   "self_type" : "_ZTIA3_13__Float32x4_t",
   "size" : 48,
   "source_file" : "prebuilts/clang-tools/linux-x86/clang-headers/arm_neon.h"
  },
  {
   "alignment" : 8,
   "linker_set_key" : "_ZTIA3_13__Float64x1_t",
   "name" : "__attribute__((neon_vector_type(1))) double [3]",
   "referenced_type" : "_ZTI13__Float64x1_t",
   "self_type" : "_ZTIA3_13__Float64x1_t",
   "size" : 24,
   "source_file" : "prebuilts/clang-tools/linux-x86/clang-headers/arm_neon.h"
  },
  {
   "alignment" : 16,
   "linker_set_key" : "_ZTIA3_13__Float64x2_t",
   "name" : "__attribute__((neon_vector_type(2))) double [3]",
   "referenced_type" : "_ZTI13__Float64x2_t",
   "self_type" : "_ZTIA3_13__Float64x2_t",
   "size" : 48,
   "source_file" : "prebuilts/clang-tools/linux-x86/clang-headers/arm_neon.h"
  },
  {
   "alignment" : 4,
   "linker_set_key" : "_ZTIA3_j",
   "name" : "unsigned int [3]",
   "referenced_type" : "_ZTIj",
   "self_type" : "_ZTIA3_j",
   "size" : 12,
   "source_file" : "bionic/libc/kernel/uapi/asm-arm64/asm/sigcontext.h"
  },
  {
   "alignment" : 8,
   "linker_set_key" : "_ZTIA3_m",
   "name" : "unsigned long [3]",
   "referenced_type" : "_ZTIm",
   "self_type" : "_ZTIA3_m",
   "size" : 24,
   "source_file" : "external/libcxx/include/string"
  },
  {
   "alignment" : 2,
   "linker_set_key" : "_ZTIA3_t",
   "name" : "unsigned short [3]",
   "referenced_type" : "_ZTIt",
   "self_type" : "_ZTIA3_t",
   "size" : 6,
   "source_file" : "bionic/libc/kernel/uapi/asm-arm64/asm/sigcontext.h"
  },
  {
   "alignment" : 1,
   "linker_set_key" : "_ZTIA4096_h",
   "name" : "unsigned char [4096]",
   "referenced_type" : "_ZTIh",
   "self_type" : "_ZTIA4096_h",
   "size" : 4096,
   "source_file" : "bionic/libc/kernel/uapi/asm-arm64/asm/sigcontext.h"
  },
  {
   "alignment" : 8,
   "linker_set_key" : "_ZTIA4_10__Int8x8_t",
   "name" : "__attribute__((neon_vector_type(8))) signed char [4]",
   "referenced_type" : "_ZTI10__Int8x8_t",
   "self_type" : "_ZTIA4_10__Int8x8_t",
   "size" : 32,
   "source_file" : "prebuilts/clang-tools/linux-x86/clang-headers/arm_neon.h"
  },
  {
   "alignment" : 8,
   "linker_set_key" : "_ZTIA4_11__Int16x4_t",
   "name" : "__attribute__((neon_vector_type(4))) short [4]",
   "referenced_type" : "_ZTI11__Int16x4_t",
   "self_type" : "_ZTIA4_11__Int16x4_t",
   "size" : 32,
   "source_file" : "prebuilts/clang-tools/linux-x86/clang-headers/arm_neon.h"
  },
  {
   "alignment" : 16,
   "linker_set_key" : "_ZTIA4_11__Int16x8_t",
   "name" : "__attribute__((neon_vector_type(8))) short [4]",
   "referenced_type" : "_ZTI11__Int16x8_t",
   "self_type" : "_ZTIA4_11__Int16x8_t",
   "size" : 64,
   "source_file" : "prebuilts/clang-tools/linux-x86/clang-headers/arm_neon.h"
  },
  {
   "alignment" : 8,
   "linker_set_key" : "_ZTIA4_11__Int32x2_t",
   "name" : "__attribute__((neon_vector_type(2))) int [4]",
   "referenced_type" : "_ZTI11__Int32x2_t",
   "self_type" : "_ZTIA4_11__Int32x2_t",
   "size" : 32,
   "source_file" : "prebuilts/clang-tools/linux-x86/clang-headers/arm_neon.h"
  },
  {
   "alignment" : 16,
   "linker_set_key" : "_ZTIA4_11__Int32x4_t",
   "name" : "__attribute__((neon_vector_type(4))) int [4]",
   "referenced_type" : "_ZTI11__Int32x4_t",
   "self_type" : "_ZTIA4_11__Int32x4_t",
   "size" : 64,
   "source_file" : "prebuilts/clang-tools/linux-x86/clang-headers/arm_neon.h"
  },
  {
   "alignment" : 8,
   "linker_set_key" : "_ZTIA4_11__Int64x1_t",
   "name" : "__attribute__((neon_vector_type(1))) long [4]",
   "referenced_type" : "_ZTI11__Int64x1_t",
   "self_type" : "_ZTIA4_11__Int64x1_t",
   "size" : 32,
   "source_file" : "prebuilts/clang-tools/linux-x86/clang-headers/arm_neon.h"
  },
  {
   "alignment" : 16,
   "linker_set_key" : "_ZTIA4_11__Int64x2_t",
   "name" : "__attribute__((neon_vector_type(2))) long [4]",
   "referenced_type" : "_ZTI11__Int64x2_t",
   "self_type" : "_ZTIA4_11__Int64x2_t",
   "size" : 64,
   "source_file" : "prebuilts/clang-tools/linux-x86/clang-headers/arm_neon.h"
  },
  {
   "alignment" : 16,
   "linker_set_key" : "_ZTIA4_11__Int8x16_t",
   "name" : "__attribute__((neon_vector_type(16))) signed char [4]",
   "referenced_type" : "_ZTI11__Int8x16_t",
   "self_type" : "_ZTIA4_11__Int8x16_t",
   "size" : 64,
   "source_file" : "prebuilts/clang-tools/linux-x86/clang-headers/arm_neon.h"
  },
  {
   "alignment" : 8,
   "linker_set_key" : "_ZTIA4_11__Poly8x8_t",
   "name" : "__attribute__((neon_polyvector_type(8))) unsigned char [4]",
   "referenced_type" : "_ZTI11__Poly8x8_t",
   "self_type" : "_ZTIA4_11__Poly8x8_t",
   "size" : 32,
   "source_file" : "prebuilts/clang-tools/linux-x86/clang-headers/arm_neon.h"
  },
  {
   "alignment" : 8,
   "linker_set_key" : "_ZTIA4_11__Uint8x8_t",
   "name" : "__attribute__((neon_vector_type(8))) unsigned char [4]",
   "referenced_type" : "_ZTI11__Uint8x8_t",
   "self_type" : "_ZTIA4_11__Uint8x8_t",
   "size" : 32,
   "source_file" : "prebuilts/clang-tools/linux-x86/clang-headers/arm_neon.h"
  },
  {
   "alignment" : 8,
   "linker_set_key" : "_ZTIA4_12__Poly16x4_t",
   "name" : "__attribute__((neon_polyvector_type(4))) unsigned short [4]",
   "referenced_type" : "_ZTI12__Poly16x4_t",
   "self_type" : "_ZTIA4_12__Poly16x4_t",
   "size" : 32,
   "source_file" : "prebuilts/clang-tools/linux-x86/clang-headers/arm_neon.h"
  },
  {
   "alignment" : 16,
   "linker_set_key" : "_ZTIA4_12__Poly16x8_t",
   "name" : "__attribute__((neon_polyvector_type(8))) unsigned short [4]",
   "referenced_type" : "_ZTI12__Poly16x8_t",
   "self_type" : "_ZTIA4_12__Poly16x8_t",
   "size" : 64,
   "source_file" : "prebuilts/clang-tools/linux-x86/clang-headers/arm_neon.h"
  },
  {
   "alignment" : 8,
   "linker_set_key" : "_ZTIA4_12__Poly64x1_t",
   "name" : "__attribute__((neon_polyvector_type(1))) unsigned long [4]",
   "referenced_type" : "_ZTI12__Poly64x1_t",
   "self_type" : "_ZTIA4_12__Poly64x1_t",
   "size" : 32,
   "source_file" : "prebuilts/clang-tools/linux-x86/clang-headers/arm_neon.h"
  },
  {
   "alignment" : 16,
   "linker_set_key" : "_ZTIA4_12__Poly64x2_t",
   "name" : "__attribute__((neon_polyvector_type(2))) unsigned long [4]",
   "referenced_type" : "_ZTI12__Poly64x2_t",
   "self_type" : "_ZTIA4_12__Poly64x2_t",
   "size" : 64,
   "source_file" : "prebuilts/clang-tools/linux-x86/clang-headers/arm_neon.h"
  },
  {
   "alignment" : 16,
   "linker_set_key" : "_ZTIA4_12__Poly8x16_t",
   "name" : "__attribute__((neon_polyvector_type(16))) unsigned char [4]",
   "referenced_type" : "_ZTI12__Poly8x16_t",
   "self_type" : "_ZTIA4_12__Poly8x16_t",
   "size" : 64,
   "source_file" : "prebuilts/clang-tools/linux-x86/clang-headers/arm_neon.h"
  },
  {
   "alignment" : 8,
   "linker_set_key" : "_ZTIA4_12__Uint16x4_t",
   "name" : "__attribute__((neon_vector_type(4))) unsigned short [4]",
   "referenced_type" : "_ZTI12__Uint16x4_t",
   "self_type" : "_ZTIA4_12__Uint16x4_t",
   "size" : 32,
   "source_file" : "prebuilts/clang-tools/linux-x86/clang-headers/arm_neon.h"
  },
  {
   "alignment" : 16,
   "linker_set_key" : "_ZTIA4_12__Uint16x8_t",
   "name" : "__attribute__((neon_vector_type(8))) unsigned short [4]",
   "referenced_type" : "_ZTI12__Uint16x8_t",
   "self_type" : "_ZTIA4_12__Uint16x8_t",
   "size" : 64,
   "source_file" : "prebuilts/clang-tools/linux-x86/clang-headers/arm_neon.h"
  },
  {
   "alignment" : 8,
   "linker_set_key" : "_ZTIA4_12__Uint32x2_t",
   "name" : "__attribute__((neon_vector_type(2))) unsigned int [4]",
   "referenced_type" : "_ZTI12__Uint32x2_t",
   "self_type" : "_ZTIA4_12__Uint32x2_t",
   "size" : 32,
   "source_file" : "prebuilts/clang-tools/linux-x86/clang-headers/arm_neon.h"
  },
  {
   "alignment" : 16,
   "linker_set_key" : "_ZTIA4_12__Uint32x4_t",
   "name" : "__attribute__((neon_vector_type(4))) unsigned int [4]",
   "referenced_type" : "_ZTI12__Uint32x4_t",
   "self_type" : "_ZTIA4_12__Uint32x4_t",
   "size" : 64,
   "source_file" : "prebuilts/clang-tools/linux-x86/clang-headers/arm_neon.h"
  },
  {
   "alignment" : 8,
   "linker_set_key" : "_ZTIA4_12__Uint64x1_t",
   "name" : "__attribute__((neon_vector_type(1))) unsigned long [4]",
   "referenced_type" : "_ZTI12__Uint64x1_t",
   "self_type" : "_ZTIA4_12__Uint64x1_t",
   "size" : 32,
   "source_file" : "prebuilts/clang-tools/linux-x86/clang-headers/arm_neon.h"
  },
  {
   "alignment" : 16,
   "linker_set_key" : "_ZTIA4_12__Uint64x2_t",
   "name" : "__attribute__((neon_vector_type(2))) unsigned long [4]",
   "referenced_type" : "_ZTI12__Uint64x2_t",
   "self_type" : "_ZTIA4_12__Uint64x2_t",
   "size" : 64,
   "source_file" : "prebuilts/clang-tools/linux-x86/clang-headers/arm_neon.h"
  },
  {
   "alignment" : 16,
   "linker_set_key" : "_ZTIA4_12__Uint8x16_t",
   "name" : "__attribute__((neon_vector_type(16))) unsigned char [4]",
   "referenced_type" : "_ZTI12__Uint8x16_t",
   "self_type" : "_ZTIA4_12__Uint8x16_t",
   "size" : 64,
   "source_file" : "prebuilts/clang-tools/linux-x86/clang-headers/arm_neon.h"
  },
  {
   "alignment" : 8,
   "linker_set_key" : "_ZTIA4_13__Float16x4_t",
   "name" : "__attribute__((neon_vector_type(4))) __fp16 [4]",
   "referenced_type" : "_ZTI13__Float16x4_t",
   "self_type" : "_ZTIA4_13__Float16x4_t",
   "size" : 32,
   "source_file" : "prebuilts/clang-tools/linux-x86/clang-headers/arm_neon.h"
  },
  {
   "alignment" : 16,
   "linker_set_key" : "_ZTIA4_13__Float16x8_t",
   "name" : "__attribute__((neon_vector_type(8))) __fp16 [4]",
   "referenced_type" : "_ZTI13__Float16x8_t",
   "self_type" : "_ZTIA4_13__Float16x8_t",
   "size" : 64,
   "source_file" : "prebuilts/clang-tools/linux-x86/clang-headers/arm_neon.h"
  },
  {
   "alignment" : 8,
   "linker_set_key" : "_ZTIA4_13__Float32x2_t",
   "name" : "__attribute__((neon_vector_type(2))) float [4]",
   "referenced_type" : "_ZTI13__Float32x2_t",
   "self_type" : "_ZTIA4_13__Float32x2_t",
   "size" : 32,
   "source_file" : "prebuilts/clang-tools/linux-x86/clang-headers/arm_neon.h"
  },
  {
   "alignment" : 16,
   "linker_set_key" : "_ZTIA4_13__Float32x4_t",
   "name" : "__attribute__((neon_vector_type(4))) float [4]",
   "referenced_type" : "_ZTI13__Float32x4_t",
   "self_type" : "_ZTIA4_13__Float32x4_t",
   "size" : 64,
   "source_file" : "prebuilts/clang-tools/linux-x86/clang-headers/arm_neon.h"
  },
  {
   "alignment" : 8,
   "linker_set_key" : "_ZTIA4_13__Float64x1_t",
   "name" : "__attribute__((neon_vector_type(1))) double [4]",
   "referenced_type" : "_ZTI13__Float64x1_t",
   "self_type" : "_ZTIA4_13__Float64x1_t",
   "size" : 32,
   "source_file" : "prebuilts/clang-tools/linux-x86/clang-headers/arm_neon.h"
  },
  {
   "alignment" : 16,
   "linker_set_key" : "_ZTIA4_13__Float64x2_t",
   "name" : "__attribute__((neon_vector_type(2))) double [4]",
   "referenced_type" : "_ZTI13__Float64x2_t",
   "self_type" : "_ZTIA4_13__Float64x2_t",
   "size" : 64,
   "source_file" : "prebuilts/clang-tools/linux-x86/clang-headers/arm_neon.h"
  },
  {
   "alignment" : 8,
   "linker_set_key" : "_ZTIA4_d",
   "name" : "double [4]",
   "referenced_type" : "_ZTId",
   "self_type" : "_ZTIA4_d",
   "size" : 32,
   "source_file" : "external/libcxx/include/type_traits"
  },
  {
   "alignment" : 1,
   "linker_set_key" : "_ZTIA4_h",
   "name" : "unsigned char [4]",
   "referenced_type" : "_ZTIh",
   "self_type" : "_ZTIA4_h",
   "size" : 4,
   "source_file" : "bionic/libc/include/bits/mbstate_t.h"
  },
  {
   "alignment" : 8,
   "linker_set_key" : "_ZTIA4_l",
   "name" : "long [4]",
   "referenced_type" : "_ZTIl",
   "self_type" : "_ZTIA4_l",
   "size" : 32,
   "source_file" : "bionic/libc/include/bits/pthread_types.h"
  },
  {
   "alignment" : 4,
   "linker_set_key" : "_ZTIA5_Di",
   "name" : "char32_t [5]",
   "referenced_type" : "_ZTIDi",
   "self_type" : "_ZTIA5_Di",
   "size" : 20,
   "source_file" : "external/libcxx/include/string"
  },
  {
   "alignment" : 8,
   "linker_set_key" : "_ZTIA5_m",
   "name" : "unsigned long [5]",
   "referenced_type" : "_ZTIm",
   "self_type" : "_ZTIA5_m",
   "size" : 40,
   "source_file" : "external/gemmlowp/internal/allocator.h"
  },
  {
   "alignment" : 4,
   "linker_set_key" : "_ZTIA5_w",
   "name" : "wchar_t [5]",
   "referenced_type" : "_ZTIw",
   "self_type" : "_ZTIA5_w",
   "size" : 20,
   "source_file" : "external/libcxx/include/string"
  },
  {
   "alignment" : 8,
   "linker_set_key" : "_ZTIA65_PKc",
   "name" : "const char *[65]",
   "referenced_type" : "_ZTIPKc",
   "self_type" : "_ZTIA65_PKc",
   "size" : 520,
   "source_file" : "bionic/libc/include/signal.h"
  },
  {
   "alignment" : 8,
   "linker_set_key" : "_ZTIA8_10__Int8x8_t",
   "name" : "__attribute__((neon_vector_type(8))) signed char [8]",
   "referenced_type" : "_ZTI10__Int8x8_t",
   "self_type" : "_ZTIA8_10__Int8x8_t",
   "size" : 64,
   "source_file" : "external/gemmlowp/internal/simd_wrappers.h"
  },
  {
   "alignment" : 16,
   "linker_set_key" : "_ZTIA8_11__Int16x8_t",
   "name" : "__attribute__((neon_vector_type(8))) short [8]",
   "referenced_type" : "_ZTI11__Int16x8_t",
   "self_type" : "_ZTIA8_11__Int16x8_t",
   "size" : 128,
   "source_file" : "external/gemmlowp/internal/simd_wrappers.h"
  },
  {
   "alignment" : 16,
   "linker_set_key" : "_ZTIA8_11__Int32x4_t",
   "name" : "__attribute__((neon_vector_type(4))) int [8]",
   "referenced_type" : "_ZTI11__Int32x4_t",
   "self_type" : "_ZTIA8_11__Int32x4_t",
   "size" : 128,
   "source_file" : "external/gemmlowp/internal/simd_wrappers.h"
  },
  {
   "alignment" : 8,
   "linker_set_key" : "_ZTIA8_11__Uint8x8_t",
   "name" : "__attribute__((neon_vector_type(8))) unsigned char [8]",
   "referenced_type" : "_ZTI11__Uint8x8_t",
   "self_type" : "_ZTIA8_11__Uint8x8_t",
   "size" : 64,
   "source_file" : "external/gemmlowp/internal/simd_wrappers.h"
  },
  {
   "alignment" : 1,
   "linker_set_key" : "_ZTIA8_c",
   "name" : "char [8]",
   "referenced_type" : "_ZTIc",
   "self_type" : "_ZTIA8_c",
   "size" : 8,
   "source_file" : "bionic/libc/kernel/uapi/asm-generic/siginfo.h"
  },
  {
   "linker_set_key" : "_ZTIA_Pc",
   "name" : "char *[]",
   "referenced_type" : "_ZTIPc",
   "self_type" : "_ZTIA_Pc",
   "source_file" : "bionic/libc/include/time.h"
  },
  {
   "linker_set_key" : "_ZTIA_f",
   "name" : "float []",
   "referenced_type" : "_ZTIf",
   "self_type" : "_ZTIA_f",
   "source_file" : "external/tensorflow/tensorflow/lite/c/common.h"
  },
  {
   "linker_set_key" : "_ZTIA_i",
   "name" : "int []",
   "referenced_type" : "_ZTIi",
   "self_type" : "_ZTIA_i",
   "source_file" : "external/tensorflow/tensorflow/lite/c/common.h"
  }
 ],
 "builtin_types" :
 [
  {
   "alignment" : 4,
   "is_integral" : true,
   "is_unsigned" : true,
   "linker_set_key" : "_ZTIDi",
   "name" : "char32_t",
   "referenced_type" : "_ZTIDi",
   "self_type" : "_ZTIDi",
   "size" : 4
  },
  {
   "alignment" : 8,
   "linker_set_key" : "_ZTIDn",
   "name" : "nullptr_t",
   "referenced_type" : "_ZTIDn",
   "self_type" : "_ZTIDn",
   "size" : 8
  },
  {
   "alignment" : 2,
   "is_integral" : true,
   "is_unsigned" : true,
   "linker_set_key" : "_ZTIDs",
   "name" : "char16_t",
   "referenced_type" : "_ZTIDs",
   "self_type" : "_ZTIDs",
   "size" : 2
  },
  {
   "alignment" : 1,
   "is_integral" : true,
   "linker_set_key" : "_ZTIa",
   "name" : "signed char",
   "referenced_type" : "_ZTIa",
   "self_type" : "_ZTIa",
   "size" : 1
  },
  {
   "alignment" : 1,
   "is_integral" : true,
   "is_unsigned" : true,
   "linker_set_key" : "_ZTIb",
   "name" : "bool",
   "referenced_type" : "_ZTIb",
   "self_type" : "_ZTIb",
   "size" : 1
  },
  {
   "alignment" : 1,
   "is_integral" : true,
   "is_unsigned" : true,
   "linker_set_key" : "_ZTIc",
   "name" : "char",
   "referenced_type" : "_ZTIc",
   "self_type" : "_ZTIc",
   "size" : 1
  },
  {
   "alignment" : 8,
   "linker_set_key" : "_ZTId",
   "name" : "double",
   "referenced_type" : "_ZTId",
   "self_type" : "_ZTId",
   "size" : 8
  },
  {
   "alignment" : 16,
   "linker_set_key" : "_ZTIe",
   "name" : "long double",
   "referenced_type" : "_ZTIe",
   "self_type" : "_ZTIe",
   "size" : 16
  },
  {
   "alignment" : 4,
   "linker_set_key" : "_ZTIf",
   "name" : "float",
   "referenced_type" : "_ZTIf",
   "self_type" : "_ZTIf",
   "size" : 4
  },
  {
   "alignment" : 1,
   "is_integral" : true,
   "is_unsigned" : true,
   "linker_set_key" : "_ZTIh",
   "name" : "unsigned char",
   "referenced_type" : "_ZTIh",
   "self_type" : "_ZTIh",
   "size" : 1
  },
  {
   "alignment" : 4,
   "is_integral" : true,
   "linker_set_key" : "_ZTIi",
   "name" : "int",
   "referenced_type" : "_ZTIi",
   "self_type" : "_ZTIi",
   "size" : 4
  },
  {
   "alignment" : 4,
   "is_integral" : true,
   "is_unsigned" : true,
   "linker_set_key" : "_ZTIj",
   "name" : "unsigned int",
   "referenced_type" : "_ZTIj",
   "self_type" : "_ZTIj",
   "size" : 4
  },
  {
   "alignment" : 8,
   "is_integral" : true,
   "linker_set_key" : "_ZTIl",
   "name" : "long",
   "referenced_type" : "_ZTIl",
   "self_type" : "_ZTIl",
   "size" : 8
  },
  {
   "alignment" : 8,
   "is_integral" : true,
   "is_unsigned" : true,
   "linker_set_key" : "_ZTIm",
   "name" : "unsigned long",
   "referenced_type" : "_ZTIm",
   "self_type" : "_ZTIm",
   "size" : 8
  },
  {
   "alignment" : 16,
   "is_integral" : true,
   "linker_set_key" : "_ZTIn",
   "name" : "__int128",
   "referenced_type" : "_ZTIn",
   "self_type" : "_ZTIn",
   "size" : 16
  },
  {
   "alignment" : 16,
   "is_integral" : true,
   "is_unsigned" : true,
   "linker_set_key" : "_ZTIo",
   "name" : "unsigned __int128",
   "referenced_type" : "_ZTIo",
   "self_type" : "_ZTIo",
   "size" : 16
  },
  {
   "alignment" : 2,
   "is_integral" : true,
   "linker_set_key" : "_ZTIs",
   "name" : "short",
   "referenced_type" : "_ZTIs",
   "self_type" : "_ZTIs",
   "size" : 2
  },
  {
   "alignment" : 2,
   "is_integral" : true,
   "is_unsigned" : true,
   "linker_set_key" : "_ZTIt",
   "name" : "unsigned short",
   "referenced_type" : "_ZTIt",
   "self_type" : "_ZTIt",
   "size" : 2
  },
  {
   "linker_set_key" : "_ZTIv",
   "name" : "void",
   "referenced_type" : "_ZTIv",
   "self_type" : "_ZTIv"
  },
  {
   "alignment" : 4,
   "is_integral" : true,
   "is_unsigned" : true,
   "linker_set_key" : "_ZTIw",
   "name" : "wchar_t",
   "referenced_type" : "_ZTIw",
   "self_type" : "_ZTIw",
   "size" : 4
  },
  {
   "alignment" : 8,
   "is_integral" : true,
   "linker_set_key" : "_ZTIx",
   "name" : "long long",
   "referenced_type" : "_ZTIx",
   "self_type" : "_ZTIx",
   "size" : 8
  },
  {
   "alignment" : 8,
   "is_integral" : true,
   "is_unsigned" : true,
   "linker_set_key" : "_ZTIy",
   "name" : "unsigned long long",
   "referenced_type" : "_ZTIy",
   "self_type" : "_ZTIy",
   "size" : 8
  }
 ],
 "elf_functions" : [],
 "elf_objects" : [],
 "enum_types" :
 [
  {
   "alignment" : 4,
   "enum_fields" :
   [
    {
     "enum_field_value" : 0,
     "name" : "kTfLiteNoType"
    },
    {
     "enum_field_value" : 1,
     "name" : "kTfLiteFloat32"
    },
    {
     "enum_field_value" : 2,
     "name" : "kTfLiteInt32"
    },
    {
     "enum_field_value" : 3,
     "name" : "kTfLiteUInt8"
    },
    {
     "enum_field_value" : 4,
     "name" : "kTfLiteInt64"
    },
    {
     "enum_field_value" : 5,
     "name" : "kTfLiteString"
    },
    {
     "enum_field_value" : 6,
     "name" : "kTfLiteBool"
    },
    {
     "enum_field_value" : 7,
     "name" : "kTfLiteInt16"
    },
    {
     "enum_field_value" : 8,
     "name" : "kTfLiteComplex64"
    },
    {
     "enum_field_value" : 9,
     "name" : "kTfLiteInt8"
    },
    {
     "enum_field_value" : 10,
     "name" : "kTfLiteFloat16"
    },
    {
     "enum_field_value" : 11,
     "name" : "kTfLiteFloat64"
    },
    {
     "enum_field_value" : 12,
     "name" : "kTfLiteComplex128"
    },
    {
     "enum_field_value" : 13,
     "name" : "kTfLiteUInt64"
    },
    {
     "enum_field_value" : 14,
     "name" : "kTfLiteResource"
    },
    {
     "enum_field_value" : 15,
     "name" : "kTfLiteVariant"
    },
    {
     "enum_field_value" : 16,
     "name" : "kTfLiteUInt32"
    }
   ],
   "linker_set_key" : "_ZTI10TfLiteType",
   "name" : "TfLiteType",
   "referenced_type" : "_ZTI10TfLiteType",
   "self_type" : "_ZTI10TfLiteType",
   "size" : 4,
   "source_file" : "external/tensorflow/tensorflow/lite/c/c_api_types.h",
   "underlying_type" : "_ZTIj"
  },
  {
   "alignment" : 4,
   "enum_fields" :
   [
    {
     "enum_field_value" : 0,
     "name" : "kTfLiteOk"
    },
    {
     "enum_field_value" : 1,
     "name" : "kTfLiteError"
    },
    {
     "enum_field_value" : 2,
     "name" : "kTfLiteDelegateError"
    },
    {
     "enum_field_value" : 3,
     "name" : "kTfLiteApplicationError"
    }
   ],
   "linker_set_key" : "_ZTI12TfLiteStatus",
   "name" : "TfLiteStatus",
   "referenced_type" : "_ZTI12TfLiteStatus",
   "self_type" : "_ZTI12TfLiteStatus",
   "size" : 4,
   "source_file" : "external/tensorflow/tensorflow/lite/c/c_api_types.h",
   "underlying_type" : "_ZTIj"
  },
  {
   "alignment" : 4,
   "enum_fields" :
   [
    {
     "enum_field_value" : 0,
     "name" : "M_HEAP_TAGGING_LEVEL_NONE"
    },
    {
     "enum_field_value" : 1,
     "name" : "M_HEAP_TAGGING_LEVEL_TBI"
    },
    {
     "enum_field_value" : 2,
     "name" : "M_HEAP_TAGGING_LEVEL_ASYNC"
    },
    {
     "enum_field_value" : 3,
     "name" : "M_HEAP_TAGGING_LEVEL_SYNC"
    }
   ],
   "linker_set_key" : "_ZTI16HeapTaggingLevel",
   "name" : "HeapTaggingLevel",
   "referenced_type" : "_ZTI16HeapTaggingLevel",
   "self_type" : "_ZTI16HeapTaggingLevel",
   "size" : 4,
   "source_file" : "bionic/libc/include/malloc.h",
   "underlying_type" : "_ZTIj"
  },
  {
   "alignment" : 4,
   "enum_fields" :
   [
    {
     "enum_field_value" : 0,
     "name" : "kTfLiteDelegateFlagsNone"
    },
    {
     "enum_field_value" : 1,
     "name" : "kTfLiteDelegateFlagsAllowDynamicTensors"
    },
    {
     "enum_field_value" : 2,
     "name" : "kTfLiteDelegateFlagsRequirePropagatedShapes"
    }
   ],
   "linker_set_key" : "_ZTI19TfLiteDelegateFlags",
   "name" : "TfLiteDelegateFlags",
   "referenced_type" : "_ZTI19TfLiteDelegateFlags",
   "self_type" : "_ZTI19TfLiteDelegateFlags",
   "size" : 4,
   "source_file" : "external/tensorflow/tensorflow/lite/c/common.h",
   "underlying_type" : "_ZTIj"
  },
  {
   "alignment" : 4,
   "enum_fields" :
   [
    {
     "enum_field_value" : 0,
     "name" : "kTfLiteDimDense"
    },
    {
     "enum_field_value" : 1,
     "name" : "kTfLiteDimSparseCSR"
    }
   ],
   "linker_set_key" : "_ZTI19TfLiteDimensionType",
   "name" : "TfLiteDimensionType",
   "referenced_type" : "_ZTI19TfLiteDimensionType",
   "self_type" : "_ZTI19TfLiteDimensionType",
   "size" : 4,
   "source_file" : "external/tensorflow/tensorflow/lite/c/common.h",
   "underlying_type" : "_ZTIj"
  },
  {
   "alignment" : 4,
   "enum_fields" :
   [
    {
     "enum_field_value" : 0,
     "name" : "kTfLiteMemNone"
    },
    {
     "enum_field_value" : 1,
     "name" : "kTfLiteMmapRo"
    },
    {
     "enum_field_value" : 2,
     "name" : "kTfLiteArenaRw"
    },
    {
     "enum_field_value" : 3,
     "name" : "kTfLiteArenaRwPersistent"
    },
    {
     "enum_field_value" : 4,
     "name" : "kTfLiteDynamic"
    },
    {
     "enum_field_value" : 5,
     "name" : "kTfLitePersistentRo"
    },
    {
     "enum_field_value" : 6,
     "name" : "kTfLiteCustom"
    }
   ],
   "linker_set_key" : "_ZTI20TfLiteAllocationType",
   "name" : "TfLiteAllocationType",
   "referenced_type" : "_ZTI20TfLiteAllocationType",
   "self_type" : "_ZTI20TfLiteAllocationType",
   "size" : 4,
   "source_file" : "external/tensorflow/tensorflow/lite/c/common.h",
   "underlying_type" : "_ZTIj"
  },
  {
   "alignment" : 4,
   "enum_fields" :
   [
    {
     "enum_field_value" : 0,
     "name" : "PTHREAD_MUTEX_NORMAL"
    },
    {
     "enum_field_value" : 1,
     "name" : "PTHREAD_MUTEX_RECURSIVE"
    },
    {
     "enum_field_value" : 2,
     "name" : "PTHREAD_MUTEX_ERRORCHECK"
    },
    {
     "enum_field_value" : 2,
     "name" : "PTHREAD_MUTEX_ERRORCHECK_NP"
    },
    {
     "enum_field_value" : 1,
     "name" : "PTHREAD_MUTEX_RECURSIVE_NP"
    },
    {
     "enum_field_value" : 0,
     "name" : "PTHREAD_MUTEX_DEFAULT"
    }
   ],
   "linker_set_key" : "_ZTI22$PTHREAD_MUTEX_DEFAULT",
   "name" : "(anonymous enum at bionic/libc/include/pthread.h:41:1)",
   "referenced_type" : "_ZTI22$PTHREAD_MUTEX_DEFAULT",
   "self_type" : "_ZTI22$PTHREAD_MUTEX_DEFAULT",
   "size" : 4,
   "source_file" : "bionic/libc/include/pthread.h",
   "underlying_type" : "_ZTIj"
  },
  {
   "alignment" : 4,
   "enum_fields" :
   [
    {
     "enum_field_value" : 0,
     "name" : "kTfLiteNoQuantization"
    },
    {
     "enum_field_value" : 1,
     "name" : "kTfLiteAffineQuantization"
    }
   ],
   "linker_set_key" : "_ZTI22TfLiteQuantizationType",
   "name" : "TfLiteQuantizationType",
   "referenced_type" : "_ZTI22TfLiteQuantizationType",
   "self_type" : "_ZTI22TfLiteQuantizationType",
   "size" : 4,
   "source_file" : "external/tensorflow/tensorflow/lite/c/common.h",
   "underlying_type" : "_ZTIj"
  },
  {
   "alignment" : 4,
   "enum_fields" :
   [
    {
     "enum_field_value" : -1,
     "name" : "kTfLiteNullBufferHandle"
    }
   ],
   "linker_set_key" : "_ZTI24$kTfLiteNullBufferHandle",
   "name" : "(anonymous enum at external/tensorflow/tensorflow/lite/c/common.h:342:1)",
   "referenced_type" : "_ZTI24$kTfLiteNullBufferHandle",
   "self_type" : "_ZTI24$kTfLiteNullBufferHandle",
   "size" : 4,
   "source_file" : "external/tensorflow/tensorflow/lite/c/common.h",
   "underlying_type" : "_ZTIi"
  },
  {
   "alignment" : 4,
   "enum_fields" :
   [
    {
     "enum_field_value" : 0,
     "name" : "kTfLiteEigenContext"
    },
    {
     "enum_field_value" : 1,
     "name" : "kTfLiteGemmLowpContext"
    },
    {
     "enum_field_value" : 2,
     "name" : "kTfLiteEdgeTpuContext"
    },
    {
     "enum_field_value" : 3,
     "name" : "kTfLiteCpuBackendContext"
    },
    {
     "enum_field_value" : 4,
     "name" : "kTfLiteMaxExternalContexts"
    }
   ],
   "linker_set_key" : "_ZTI25TfLiteExternalContextType",
   "name" : "TfLiteExternalContextType",
   "referenced_type" : "_ZTI25TfLiteExternalContextType",
   "self_type" : "_ZTI25TfLiteExternalContextType",
   "size" : 4,
   "source_file" : "external/tensorflow/tensorflow/lite/c/common.h",
   "underlying_type" : "_ZTIj"
  },
  {
   "alignment" : 4,
   "enum_fields" :
   [
    {
     "enum_field_value" : 0,
     "name" : "PTHREAD_RWLOCK_PREFER_READER_NP"
    },
    {
     "enum_field_value" : 1,
     "name" : "PTHREAD_RWLOCK_PREFER_WRITER_NONRECURSIVE_NP"
    }
   ],
   "linker_set_key" : "_ZTI32$PTHREAD_RWLOCK_PREFER_READER_NP",
   "name" : "(anonymous enum at bionic/libc/include/pthread.h:63:1)",
   "referenced_type" : "_ZTI32$PTHREAD_RWLOCK_PREFER_READER_NP",
   "self_type" : "_ZTI32$PTHREAD_RWLOCK_PREFER_READER_NP",
   "size" : 4,
   "source_file" : "bionic/libc/include/pthread.h",
   "underlying_type" : "_ZTIj"
  },
  {
   "access" : "private",
   "alignment" : 4,
   "enum_fields" :
   [
    {
     "enum_field_value" : 0,
     "name" : "tflite::CpuBackendContext::CpuInfo::InitStatus::kNotYetAttempted"
    },
    {
     "enum_field_value" : 1,
     "name" : "tflite::CpuBackendContext::CpuInfo::InitStatus::kInitialized"
    },
    {
     "enum_field_value" : 2,
     "name" : "tflite::CpuBackendContext::CpuInfo::InitStatus::kFailed"
    }
   ],
   "linker_set_key" : "_ZTIN6tflite17CpuBackendContext7CpuInfo10InitStatusE",
   "name" : "tflite::CpuBackendContext::CpuInfo::InitStatus",
   "referenced_type" : "_ZTIN6tflite17CpuBackendContext7CpuInfo10InitStatusE",
   "self_type" : "_ZTIN6tflite17CpuBackendContext7CpuInfo10InitStatusE",
   "size" : 4,
   "source_file" : "external/tensorflow/tensorflow/lite/kernels/cpu_backend_context.h",
   "underlying_type" : "_ZTIi"
  },
  {
   "alignment" : 4,
   "enum_fields" :
   [
    {
     "enum_field_value" : 0,
     "name" : "gemmlowp::VectorShape::Col"
    },
    {
     "enum_field_value" : 1,
     "name" : "gemmlowp::VectorShape::Row"
    }
   ],
   "linker_set_key" : "_ZTIN8gemmlowp11VectorShapeE",
   "name" : "gemmlowp::VectorShape",
   "referenced_type" : "_ZTIN8gemmlowp11VectorShapeE",
   "self_type" : "_ZTIN8gemmlowp11VectorShapeE",
   "size" : 4,
   "source_file" : "external/gemmlowp/public/map.h",
   "underlying_type" : "_ZTIi"
  },
  {
   "alignment" : 4,
   "enum_fields" :
   [
    {
     "enum_field_value" : 0,
     "name" : "gemmlowp::SideMapOrder::WidthMajor"
    },
    {
     "enum_field_value" : 1,
     "name" : "gemmlowp::SideMapOrder::DepthMajor"
    }
   ],
   "linker_set_key" : "_ZTIN8gemmlowp12SideMapOrderE",
   "name" : "gemmlowp::SideMapOrder",
   "referenced_type" : "_ZTIN8gemmlowp12SideMapOrderE",
   "self_type" : "_ZTIN8gemmlowp12SideMapOrderE",
   "size" : 4,
   "source_file" : "external/gemmlowp/internal/pack.h",
   "underlying_type" : "_ZTIi"
  },
  {
   "alignment" : 4,
   "enum_fields" :
   [
    {
     "enum_field_value" : 0,
     "name" : "gemmlowp::Side::Lhs"
    },
    {
     "enum_field_value" : 1,
     "name" : "gemmlowp::Side::Rhs"
    }
   ],
   "linker_set_key" : "_ZTIN8gemmlowp4SideE",
   "name" : "gemmlowp::Side",
   "referenced_type" : "_ZTIN8gemmlowp4SideE",
   "self_type" : "_ZTIN8gemmlowp4SideE",
   "size" : 4,
   "source_file" : "external/gemmlowp/internal/block_params.h",
   "underlying_type" : "_ZTIi"
  },
  {
   "alignment" : 1,
   "enum_fields" :
   [
    {
     "enum_field_value" : 0,
     "name" : "gemmlowp::TypeId::Uint8"
    },
    {
     "enum_field_value" : 1,
     "name" : "gemmlowp::TypeId::Int8"
    },
    {
     "enum_field_value" : 2,
     "name" : "gemmlowp::TypeId::Uint16"
    },
    {
     "enum_field_value" : 3,
     "name" : "gemmlowp::TypeId::Int16"
    },
    {
     "enum_field_value" : 4,
     "name" : "gemmlowp::TypeId::Uint32"
    },
    {
     "enum_field_value" : 5,
     "name" : "gemmlowp::TypeId::Int32"
    }
   ],
   "linker_set_key" : "_ZTIN8gemmlowp6TypeIdE",
   "name" : "gemmlowp::TypeId",
   "referenced_type" : "_ZTIN8gemmlowp6TypeIdE",
   "self_type" : "_ZTIN8gemmlowp6TypeIdE",
   "size" : 1,
   "source_file" : "external/gemmlowp/internal/allocator.h",
   "underlying_type" : "_ZTIh"
  },
  {
   "alignment" : 4,
   "enum_fields" :
   [
    {
     "enum_field_value" : 0,
     "name" : "gemmlowp::Worker::State::ThreadStartup"
    },
    {
     "enum_field_value" : 1,
     "name" : "gemmlowp::Worker::State::Ready"
    },
    {
     "enum_field_value" : 2,
     "name" : "gemmlowp::Worker::State::HasWork"
    },
    {
     "enum_field_value" : 3,
     "name" : "gemmlowp::Worker::State::ExitAsSoonAsPossible"
    }
   ],
   "linker_set_key" : "_ZTIN8gemmlowp6Worker5StateE",
   "name" : "gemmlowp::Worker::State",
   "referenced_type" : "_ZTIN8gemmlowp6Worker5StateE",
   "self_type" : "_ZTIN8gemmlowp6Worker5StateE",
   "size" : 4,
   "source_file" : "external/gemmlowp/internal/multi_thread_gemm.h",
   "underlying_type" : "_ZTIi"
  },
  {
   "alignment" : 4,
   "enum_fields" :
   [
    {
     "enum_field_value" : 0,
     "name" : "gemmlowp::MapOrder::ColMajor"
    },
    {
     "enum_field_value" : 1,
     "name" : "gemmlowp::MapOrder::RowMajor"
    }
   ],
   "linker_set_key" : "_ZTIN8gemmlowp8MapOrderE",
   "name" : "gemmlowp::MapOrder",
   "referenced_type" : "_ZTIN8gemmlowp8MapOrderE",
   "self_type" : "_ZTIN8gemmlowp8MapOrderE",
   "size" : 4,
   "source_file" : "external/gemmlowp/public/map.h",
   "underlying_type" : "_ZTIi"
  },
  {
   "alignment" : 4,
   "enum_fields" :
   [
    {
     "enum_field_value" : 0,
     "name" : "gemmlowp::CellOrder::DepthMajor"
    },
    {
     "enum_field_value" : 1,
     "name" : "gemmlowp::CellOrder::WidthMajor"
    },
    {
     "enum_field_value" : 2,
     "name" : "gemmlowp::CellOrder::Diagonal"
    }
   ],
   "linker_set_key" : "_ZTIN8gemmlowp9CellOrderE",
   "name" : "gemmlowp::CellOrder",
   "referenced_type" : "_ZTIN8gemmlowp9CellOrderE",
   "self_type" : "_ZTIN8gemmlowp9CellOrderE",
   "size" : 4,
   "source_file" : "external/gemmlowp/internal/kernel.h",
   "underlying_type" : "_ZTIi"
  },
  {
   "access" : "private",
   "alignment" : 4,
   "enum_fields" :
   [
    {
     "enum_field_value" : 5,
     "name" : "std::__1::basic_string<char32_t, std::__1::char_traits<char32_t>, std::__1::allocator<char32_t>>::__min_cap"
    }
   ],
   "linker_set_key" : "_ZTINSt3__112basic_stringIDiNS_11char_traitsIDiEENS_9allocatorIDiEEE10$__min_capE",
   "name" : "std::basic_string<char32_t, char_traits<char32_t>, allocator<char32_t>>::(anonymous enum at external/libcxx/include/string:751:5)",
   "referenced_type" : "_ZTINSt3__112basic_stringIDiNS_11char_traitsIDiEENS_9allocatorIDiEEE10$__min_capE",
   "self_type" : "_ZTINSt3__112basic_stringIDiNS_11char_traitsIDiEENS_9allocatorIDiEEE10$__min_capE",
   "size" : 4,
   "source_file" : "external/libcxx/include/string",
   "underlying_type" : "_ZTIj"
  },
  {
   "access" : "private",
   "alignment" : 4,
   "enum_fields" :
   [
    {
     "enum_field_value" : 3,
     "name" : "std::__1::basic_string<char32_t, std::__1::char_traits<char32_t>, std::__1::allocator<char32_t>>::__n_words"
    }
   ],
   "linker_set_key" : "_ZTINSt3__112basic_stringIDiNS_11char_traitsIDiEENS_9allocatorIDiEEE10$__n_wordsE",
   "name" : "std::basic_string<char32_t, char_traits<char32_t>, allocator<char32_t>>::(anonymous enum at external/libcxx/include/string:768:5)",
   "referenced_type" : "_ZTINSt3__112basic_stringIDiNS_11char_traitsIDiEENS_9allocatorIDiEEE10$__n_wordsE",
   "self_type" : "_ZTINSt3__112basic_stringIDiNS_11char_traitsIDiEENS_9allocatorIDiEEE10$__n_wordsE",
   "size" : 4,
   "source_file" : "external/libcxx/include/string",
   "underlying_type" : "_ZTIj"
  },
  {
   "access" : "private",
   "alignment" : 4,
   "enum_fields" :
   [
    {
     "enum_field_value" : 16,
     "name" : "std::__1::basic_string<char32_t, std::__1::char_traits<char32_t>, std::__1::allocator<char32_t>>::__alignment"
    }
   ],
   "linker_set_key" : "_ZTINSt3__112basic_stringIDiNS_11char_traitsIDiEENS_9allocatorIDiEEE12$__alignmentE",
   "name" : "std::basic_string<char32_t, char_traits<char32_t>, allocator<char32_t>>::(anonymous enum at external/libcxx/include/string:1535:5)",
   "referenced_type" : "_ZTINSt3__112basic_stringIDiNS_11char_traitsIDiEENS_9allocatorIDiEEE12$__alignmentE",
   "self_type" : "_ZTINSt3__112basic_stringIDiNS_11char_traitsIDiEENS_9allocatorIDiEEE12$__alignmentE",
   "size" : 4,
   "source_file" : "external/libcxx/include/string",
   "underlying_type" : "_ZTIj"
  },
  {
   "access" : "private",
   "alignment" : 4,
   "enum_fields" :
   [
    {
     "enum_field_value" : 11,
     "name" : "std::__1::basic_string<char16_t, std::__1::char_traits<char16_t>, std::__1::allocator<char16_t>>::__min_cap"
    }
   ],
   "linker_set_key" : "_ZTINSt3__112basic_stringIDsNS_11char_traitsIDsEENS_9allocatorIDsEEE10$__min_capE",
   "name" : "std::basic_string<char16_t, char_traits<char16_t>, allocator<char16_t>>::(anonymous enum at external/libcxx/include/string:751:5)",
   "referenced_type" : "_ZTINSt3__112basic_stringIDsNS_11char_traitsIDsEENS_9allocatorIDsEEE10$__min_capE",
   "self_type" : "_ZTINSt3__112basic_stringIDsNS_11char_traitsIDsEENS_9allocatorIDsEEE10$__min_capE",
   "size" : 4,
   "source_file" : "external/libcxx/include/string",
   "underlying_type" : "_ZTIj"
  },
  {
   "access" : "private",
   "alignment" : 4,
   "enum_fields" :
   [
    {
     "enum_field_value" : 3,
     "name" : "std::__1::basic_string<char16_t, std::__1::char_traits<char16_t>, std::__1::allocator<char16_t>>::__n_words"
    }
   ],
   "linker_set_key" : "_ZTINSt3__112basic_stringIDsNS_11char_traitsIDsEENS_9allocatorIDsEEE10$__n_wordsE",
   "name" : "std::basic_string<char16_t, char_traits<char16_t>, allocator<char16_t>>::(anonymous enum at external/libcxx/include/string:768:5)",
   "referenced_type" : "_ZTINSt3__112basic_stringIDsNS_11char_traitsIDsEENS_9allocatorIDsEEE10$__n_wordsE",
   "self_type" : "_ZTINSt3__112basic_stringIDsNS_11char_traitsIDsEENS_9allocatorIDsEEE10$__n_wordsE",
   "size" : 4,
   "source_file" : "external/libcxx/include/string",
   "underlying_type" : "_ZTIj"
  },
  {
   "access" : "private",
   "alignment" : 4,
   "enum_fields" :
   [
    {
     "enum_field_value" : 16,
     "name" : "std::__1::basic_string<char16_t, std::__1::char_traits<char16_t>, std::__1::allocator<char16_t>>::__alignment"
    }
   ],
   "linker_set_key" : "_ZTINSt3__112basic_stringIDsNS_11char_traitsIDsEENS_9allocatorIDsEEE12$__alignmentE",
   "name" : "std::basic_string<char16_t, char_traits<char16_t>, allocator<char16_t>>::(anonymous enum at external/libcxx/include/string:1535:5)",
   "referenced_type" : "_ZTINSt3__112basic_stringIDsNS_11char_traitsIDsEENS_9allocatorIDsEEE12$__alignmentE",
   "self_type" : "_ZTINSt3__112basic_stringIDsNS_11char_traitsIDsEENS_9allocatorIDsEEE12$__alignmentE",
   "size" : 4,
   "source_file" : "external/libcxx/include/string",
   "underlying_type" : "_ZTIj"
  },
  {
   "access" : "private",
   "alignment" : 4,
   "enum_fields" :
   [
    {
     "enum_field_value" : 23,
     "name" : "std::__1::basic_string<char, std::__1::char_traits<char>, std::__1::allocator<char>>::__min_cap"
    }
   ],
   "linker_set_key" : "_ZTINSt3__112basic_stringIcNS_11char_traitsIcEENS_9allocatorIcEEE10$__min_capE",
   "name" : "std::basic_string<char>::(anonymous enum at external/libcxx/include/string:751:5)",
   "referenced_type" : "_ZTINSt3__112basic_stringIcNS_11char_traitsIcEENS_9allocatorIcEEE10$__min_capE",
   "self_type" : "_ZTINSt3__112basic_stringIcNS_11char_traitsIcEENS_9allocatorIcEEE10$__min_capE",
   "size" : 4,
   "source_file" : "external/libcxx/include/string",
   "underlying_type" : "_ZTIj"
  },
  {
   "access" : "private",
   "alignment" : 4,
   "enum_fields" :
   [
    {
     "enum_field_value" : 3,
     "name" : "std::__1::basic_string<char, std::__1::char_traits<char>, std::__1::allocator<char>>::__n_words"
    }
   ],
   "linker_set_key" : "_ZTINSt3__112basic_stringIcNS_11char_traitsIcEENS_9allocatorIcEEE10$__n_wordsE",
   "name" : "std::basic_string<char>::(anonymous enum at external/libcxx/include/string:768:5)",
   "referenced_type" : "_ZTINSt3__112basic_stringIcNS_11char_traitsIcEENS_9allocatorIcEEE10$__n_wordsE",
   "self_type" : "_ZTINSt3__112basic_stringIcNS_11char_traitsIcEENS_9allocatorIcEEE10$__n_wordsE",
   "size" : 4,
   "source_file" : "external/libcxx/include/string",
   "underlying_type" : "_ZTIj"
  },
  {
   "access" : "private",
   "alignment" : 4,
   "enum_fields" :
   [
    {
     "enum_field_value" : 16,
     "name" : "std::__1::basic_string<char, std::__1::char_traits<char>, std::__1::allocator<char>>::__alignment"
    }
   ],
   "linker_set_key" : "_ZTINSt3__112basic_stringIcNS_11char_traitsIcEENS_9allocatorIcEEE12$__alignmentE",
   "name" : "std::basic_string<char>::(anonymous enum at external/libcxx/include/string:1535:5)",
   "referenced_type" : "_ZTINSt3__112basic_stringIcNS_11char_traitsIcEENS_9allocatorIcEEE12$__alignmentE",
   "self_type" : "_ZTINSt3__112basic_stringIcNS_11char_traitsIcEENS_9allocatorIcEEE12$__alignmentE",
   "size" : 4,
   "source_file" : "external/libcxx/include/string",
   "underlying_type" : "_ZTIj"
  },
  {
   "access" : "private",
   "alignment" : 4,
   "enum_fields" :
   [
    {
     "enum_field_value" : 5,
     "name" : "std::__1::basic_string<wchar_t, std::__1::char_traits<wchar_t>, std::__1::allocator<wchar_t>>::__min_cap"
    }
   ],
   "linker_set_key" : "_ZTINSt3__112basic_stringIwNS_11char_traitsIwEENS_9allocatorIwEEE10$__min_capE",
   "name" : "std::basic_string<wchar_t>::(anonymous enum at external/libcxx/include/string:751:5)",
   "referenced_type" : "_ZTINSt3__112basic_stringIwNS_11char_traitsIwEENS_9allocatorIwEEE10$__min_capE",
   "self_type" : "_ZTINSt3__112basic_stringIwNS_11char_traitsIwEENS_9allocatorIwEEE10$__min_capE",
   "size" : 4,
   "source_file" : "external/libcxx/include/string",
   "underlying_type" : "_ZTIj"
  },
  {
   "access" : "private",
   "alignment" : 4,
   "enum_fields" :
   [
    {
     "enum_field_value" : 3,
     "name" : "std::__1::basic_string<wchar_t, std::__1::char_traits<wchar_t>, std::__1::allocator<wchar_t>>::__n_words"
    }
   ],
   "linker_set_key" : "_ZTINSt3__112basic_stringIwNS_11char_traitsIwEENS_9allocatorIwEEE10$__n_wordsE",
   "name" : "std::basic_string<wchar_t>::(anonymous enum at external/libcxx/include/string:768:5)",
   "referenced_type" : "_ZTINSt3__112basic_stringIwNS_11char_traitsIwEENS_9allocatorIwEEE10$__n_wordsE",
   "self_type" : "_ZTINSt3__112basic_stringIwNS_11char_traitsIwEENS_9allocatorIwEEE10$__n_wordsE",
   "size" : 4,
   "source_file" : "external/libcxx/include/string",
   "underlying_type" : "_ZTIj"
  },
  {
   "access" : "private",
   "alignment" : 4,
   "enum_fields" :
   [
    {
     "enum_field_value" : 16,
     "name" : "std::__1::basic_string<wchar_t, std::__1::char_traits<wchar_t>, std::__1::allocator<wchar_t>>::__alignment"
    }
   ],
   "linker_set_key" : "_ZTINSt3__112basic_stringIwNS_11char_traitsIwEENS_9allocatorIwEEE12$__alignmentE",
   "name" : "std::basic_string<wchar_t>::(anonymous enum at external/libcxx/include/string:1535:5)",
   "referenced_type" : "_ZTINSt3__112basic_stringIwNS_11char_traitsIwEENS_9allocatorIwEEE12$__alignmentE",
   "self_type" : "_ZTINSt3__112basic_stringIwNS_11char_traitsIwEENS_9allocatorIwEEE12$__alignmentE",
   "size" : 4,
   "source_file" : "external/libcxx/include/string",
   "underlying_type" : "_ZTIj"
  },
  {
   "alignment" : 4,
   "enum_fields" :
   [
    {
     "enum_field_value" : 0,
     "name" : "std::__1::memory_order_relaxed"
    },
    {
     "enum_field_value" : 1,
     "name" : "std::__1::memory_order_consume"
    },
    {
     "enum_field_value" : 2,
     "name" : "std::__1::memory_order_acquire"
    },
    {
     "enum_field_value" : 3,
     "name" : "std::__1::memory_order_release"
    },
    {
     "enum_field_value" : 4,
     "name" : "std::__1::memory_order_acq_rel"
    },
    {
     "enum_field_value" : 5,
     "name" : "std::__1::memory_order_seq_cst"
    }
   ],
   "linker_set_key" : "_ZTINSt3__112memory_orderE",
   "name" : "std::memory_order",
   "referenced_type" : "_ZTINSt3__112memory_orderE",
   "self_type" : "_ZTINSt3__112memory_orderE",
   "size" : 4,
   "source_file" : "external/libcxx/include/atomic",
   "underlying_type" : "_ZTIj"
  },
  {
   "alignment" : 4,
   "enum_fields" :
   [
    {
     "enum_field_value" : 0,
     "name" : "std::__1::pointer_safety::relaxed"
    },
    {
     "enum_field_value" : 1,
     "name" : "std::__1::pointer_safety::preferred"
    },
    {
     "enum_field_value" : 2,
     "name" : "std::__1::pointer_safety::strict"
    }
   ],
   "linker_set_key" : "_ZTINSt3__114pointer_safety4__lxE",
   "name" : "std::pointer_safety::__lx",
   "referenced_type" : "_ZTINSt3__114pointer_safety4__lxE",
   "self_type" : "_ZTINSt3__114pointer_safety4__lxE",
   "size" : 4,
   "source_file" : "external/libcxx/include/memory",
   "underlying_type" : "_ZTIj"
  },
  {
   "alignment" : 4,
   "enum_fields" :
   [
    {
     "enum_field_value" : -1,
     "name" : "std::__1::round_indeterminate"
    },
    {
     "enum_field_value" : 0,
     "name" : "std::__1::round_toward_zero"
    },
    {
     "enum_field_value" : 1,
     "name" : "std::__1::round_to_nearest"
    },
    {
     "enum_field_value" : 2,
     "name" : "std::__1::round_toward_infinity"
    },
    {
     "enum_field_value" : 3,
     "name" : "std::__1::round_toward_neg_infinity"
    }
   ],
   "linker_set_key" : "_ZTINSt3__117float_round_styleE",
   "name" : "std::float_round_style",
   "referenced_type" : "_ZTINSt3__117float_round_styleE",
   "self_type" : "_ZTINSt3__117float_round_styleE",
   "size" : 4,
   "source_file" : "external/libcxx/include/limits",
   "underlying_type" : "_ZTIi"
  },
  {
   "alignment" : 4,
   "enum_fields" :
   [
    {
     "enum_field_value" : -1,
     "name" : "std::__1::denorm_indeterminate"
    },
    {
     "enum_field_value" : 0,
     "name" : "std::__1::denorm_absent"
    },
    {
     "enum_field_value" : 1,
     "name" : "std::__1::denorm_present"
    }
   ],
   "linker_set_key" : "_ZTINSt3__118float_denorm_styleE",
   "name" : "std::float_denorm_style",
   "referenced_type" : "_ZTINSt3__118float_denorm_styleE",
   "self_type" : "_ZTINSt3__118float_denorm_styleE",
   "size" : 4,
   "source_file" : "external/libcxx/include/limits",
   "underlying_type" : "_ZTIi"
  },
  {
   "alignment" : 4,
   "enum_fields" :
   [
    {
     "enum_field_value" : 97,
     "name" : "std::__1::errc::address_family_not_supported"
    },
    {
     "enum_field_value" : 98,
     "name" : "std::__1::errc::address_in_use"
    },
    {
     "enum_field_value" : 99,
     "name" : "std::__1::errc::address_not_available"
    },
    {
     "enum_field_value" : 106,
     "name" : "std::__1::errc::already_connected"
    },
    {
     "enum_field_value" : 7,
     "name" : "std::__1::errc::argument_list_too_long"
    },
    {
     "enum_field_value" : 33,
     "name" : "std::__1::errc::argument_out_of_domain"
    },
    {
     "enum_field_value" : 14,
     "name" : "std::__1::errc::bad_address"
    },
    {
     "enum_field_value" : 9,
     "name" : "std::__1::errc::bad_file_descriptor"
    },
    {
     "enum_field_value" : 74,
     "name" : "std::__1::errc::bad_message"
    },
    {
     "enum_field_value" : 32,
     "name" : "std::__1::errc::broken_pipe"
    },
    {
     "enum_field_value" : 103,
     "name" : "std::__1::errc::connection_aborted"
    },
    {
     "enum_field_value" : 114,
     "name" : "std::__1::errc::connection_already_in_progress"
    },
    {
     "enum_field_value" : 111,
     "name" : "std::__1::errc::connection_refused"
    },
    {
     "enum_field_value" : 104,
     "name" : "std::__1::errc::connection_reset"
    },
    {
     "enum_field_value" : 18,
     "name" : "std::__1::errc::cross_device_link"
    },
    {
     "enum_field_value" : 89,
     "name" : "std::__1::errc::destination_address_required"
    },
    {
     "enum_field_value" : 16,
     "name" : "std::__1::errc::device_or_resource_busy"
    },
    {
     "enum_field_value" : 39,
     "name" : "std::__1::errc::directory_not_empty"
    },
    {
     "enum_field_value" : 8,
     "name" : "std::__1::errc::executable_format_error"
    },
    {
     "enum_field_value" : 17,
     "name" : "std::__1::errc::file_exists"
    },
    {
     "enum_field_value" : 27,
     "name" : "std::__1::errc::file_too_large"
    },
    {
     "enum_field_value" : 36,
     "name" : "std::__1::errc::filename_too_long"
    },
    {
     "enum_field_value" : 38,
     "name" : "std::__1::errc::function_not_supported"
    },
    {
     "enum_field_value" : 113,
     "name" : "std::__1::errc::host_unreachable"
    },
    {
     "enum_field_value" : 43,
     "name" : "std::__1::errc::identifier_removed"
    },
    {
     "enum_field_value" : 84,
     "name" : "std::__1::errc::illegal_byte_sequence"
    },
    {
     "enum_field_value" : 25,
     "name" : "std::__1::errc::inappropriate_io_control_operation"
    },
    {
     "enum_field_value" : 4,
     "name" : "std::__1::errc::interrupted"
    },
    {
     "enum_field_value" : 22,
     "name" : "std::__1::errc::invalid_argument"
    },
    {
     "enum_field_value" : 29,
     "name" : "std::__1::errc::invalid_seek"
    },
    {
     "enum_field_value" : 5,
     "name" : "std::__1::errc::io_error"
    },
    {
     "enum_field_value" : 21,
     "name" : "std::__1::errc::is_a_directory"
    },
    {
     "enum_field_value" : 90,
     "name" : "std::__1::errc::message_size"
    },
    {
     "enum_field_value" : 100,
     "name" : "std::__1::errc::network_down"
    },
    {
     "enum_field_value" : 102,
     "name" : "std::__1::errc::network_reset"
    },
    {
     "enum_field_value" : 101,
     "name" : "std::__1::errc::network_unreachable"
    },
    {
     "enum_field_value" : 105,
     "name" : "std::__1::errc::no_buffer_space"
    },
    {
     "enum_field_value" : 10,
     "name" : "std::__1::errc::no_child_process"
    },
    {
     "enum_field_value" : 67,
     "name" : "std::__1::errc::no_link"
    },
    {
     "enum_field_value" : 37,
     "name" : "std::__1::errc::no_lock_available"
    },
    {
     "enum_field_value" : 61,
     "name" : "std::__1::errc::no_message_available"
    },
    {
     "enum_field_value" : 42,
     "name" : "std::__1::errc::no_message"
    },
    {
     "enum_field_value" : 92,
     "name" : "std::__1::errc::no_protocol_option"
    },
    {
     "enum_field_value" : 28,
     "name" : "std::__1::errc::no_space_on_device"
    },
    {
     "enum_field_value" : 63,
     "name" : "std::__1::errc::no_stream_resources"
    },
    {
     "enum_field_value" : 6,
     "name" : "std::__1::errc::no_such_device_or_address"
    },
    {
     "enum_field_value" : 19,
     "name" : "std::__1::errc::no_such_device"
    },
    {
     "enum_field_value" : 2,
     "name" : "std::__1::errc::no_such_file_or_directory"
    },
    {
     "enum_field_value" : 3,
     "name" : "std::__1::errc::no_such_process"
    },
    {
     "enum_field_value" : 20,
     "name" : "std::__1::errc::not_a_directory"
    },
    {
     "enum_field_value" : 88,
     "name" : "std::__1::errc::not_a_socket"
    },
    {
     "enum_field_value" : 60,
     "name" : "std::__1::errc::not_a_stream"
    },
    {
     "enum_field_value" : 107,
     "name" : "std::__1::errc::not_connected"
    },
    {
     "enum_field_value" : 12,
     "name" : "std::__1::errc::not_enough_memory"
    },
    {
     "enum_field_value" : 95,
     "name" : "std::__1::errc::not_supported"
    },
    {
     "enum_field_value" : 125,
     "name" : "std::__1::errc::operation_canceled"
    },
    {
     "enum_field_value" : 115,
     "name" : "std::__1::errc::operation_in_progress"
    },
    {
     "enum_field_value" : 1,
     "name" : "std::__1::errc::operation_not_permitted"
    },
    {
     "enum_field_value" : 95,
     "name" : "std::__1::errc::operation_not_supported"
    },
    {
     "enum_field_value" : 11,
     "name" : "std::__1::errc::operation_would_block"
    },
    {
     "enum_field_value" : 130,
     "name" : "std::__1::errc::owner_dead"
    },
    {
     "enum_field_value" : 13,
     "name" : "std::__1::errc::permission_denied"
    },
    {
     "enum_field_value" : 71,
     "name" : "std::__1::errc::protocol_error"
    },
    {
     "enum_field_value" : 93,
     "name" : "std::__1::errc::protocol_not_supported"
    },
    {
     "enum_field_value" : 30,
     "name" : "std::__1::errc::read_only_file_system"
    },
    {
     "enum_field_value" : 35,
     "name" : "std::__1::errc::resource_deadlock_would_occur"
    },
    {
     "enum_field_value" : 11,
     "name" : "std::__1::errc::resource_unavailable_try_again"
    },
    {
     "enum_field_value" : 34,
     "name" : "std::__1::errc::result_out_of_range"
    },
    {
     "enum_field_value" : 131,
     "name" : "std::__1::errc::state_not_recoverable"
    },
    {
     "enum_field_value" : 62,
     "name" : "std::__1::errc::stream_timeout"
    },
    {
     "enum_field_value" : 26,
     "name" : "std::__1::errc::text_file_busy"
    },
    {
     "enum_field_value" : 110,
     "name" : "std::__1::errc::timed_out"
    },
    {
     "enum_field_value" : 23,
     "name" : "std::__1::errc::too_many_files_open_in_system"
    },
    {
     "enum_field_value" : 24,
     "name" : "std::__1::errc::too_many_files_open"
    },
    {
     "enum_field_value" : 31,
     "name" : "std::__1::errc::too_many_links"
    },
    {
     "enum_field_value" : 40,
     "name" : "std::__1::errc::too_many_symbolic_link_levels"
    },
    {
     "enum_field_value" : 75,
     "name" : "std::__1::errc::value_too_large"
    },
    {
     "enum_field_value" : 91,
     "name" : "std::__1::errc::wrong_protocol_type"
    }
   ],
   "linker_set_key" : "_ZTINSt3__14errcE",
   "name" : "std::errc",
   "referenced_type" : "_ZTINSt3__14errcE",
   "self_type" : "_ZTINSt3__14errcE",
   "size" : 4,
   "source_file" : "external/libcxx/include/__errc",
   "underlying_type" : "_ZTIi"
  },
  {
   "alignment" : 4,
   "enum_fields" :
   [
    {
     "enum_field_value" : 0,
     "name" : "std::__1::cv_status::no_timeout"
    },
    {
     "enum_field_value" : 1,
     "name" : "std::__1::cv_status::timeout"
    }
   ],
   "linker_set_key" : "_ZTINSt3__19cv_statusE",
   "name" : "std::cv_status",
   "referenced_type" : "_ZTINSt3__19cv_statusE",
   "self_type" : "_ZTINSt3__19cv_statusE",
   "size" : 4,
   "source_file" : "external/libcxx/include/__mutex_base",
   "underlying_type" : "_ZTIi"
  },
  {
   "alignment" : 8,
   "linker_set_key" : "_ZTISt11align_val_t",
   "name" : "std::align_val_t",
   "referenced_type" : "_ZTISt11align_val_t",
   "self_type" : "_ZTISt11align_val_t",
   "size" : 8,
   "source_file" : "external/libcxx/include/new",
   "underlying_type" : "_ZTIm"
  },
  {
   "alignment" : 1,
   "linker_set_key" : "_ZTISt4byte",
   "name" : "std::byte",
   "referenced_type" : "_ZTISt4byte",
   "self_type" : "_ZTISt4byte",
   "size" : 1,
   "source_file" : "external/libcxx/include/cstddef",
   "underlying_type" : "_ZTIh"
  }
 ],
 "function_types" :
 [
  {
   "alignment" : 4,
   "linker_set_key" : "_ZTIF12TfLiteStatusP13TfLiteContext18TfLiteRegistrationPK14TfLiteIntArrayP14TfLiteDelegateE",
   "name" : "TfLiteStatus (TfLiteContext *, TfLiteRegistration, const TfLiteIntArray *, TfLiteDelegate *)",
   "parameters" :
   [
    {
     "referenced_type" : "_ZTIP13TfLiteContext"
    },
    {
     "referenced_type" : "_ZTI18TfLiteRegistration"
    },
    {
     "referenced_type" : "_ZTIPK14TfLiteIntArray"
    },
    {
     "referenced_type" : "_ZTIP14TfLiteDelegate"
    }
   ],
   "referenced_type" : "_ZTIF12TfLiteStatusP13TfLiteContext18TfLiteRegistrationPK14TfLiteIntArrayP14TfLiteDelegateE",
   "return_type" : "_ZTI12TfLiteStatus",
   "self_type" : "_ZTIF12TfLiteStatusP13TfLiteContext18TfLiteRegistrationPK14TfLiteIntArrayP14TfLiteDelegateE",
   "source_file" : "external/tensorflow/tensorflow/lite/c/common.h"
  },
  {
   "alignment" : 4,
   "linker_set_key" : "_ZTIF12TfLiteStatusP13TfLiteContextE",
   "name" : "TfLiteStatus (TfLiteContext *)",
   "parameters" :
   [
    {
     "referenced_type" : "_ZTIP13TfLiteContext"
    }
   ],
   "referenced_type" : "_ZTIF12TfLiteStatusP13TfLiteContextE",
   "return_type" : "_ZTI12TfLiteStatus",
   "self_type" : "_ZTIF12TfLiteStatusP13TfLiteContextE",
   "source_file" : "external/tensorflow/tensorflow/lite/c/common.h"
  },
  {
   "alignment" : 4,
   "linker_set_key" : "_ZTIF12TfLiteStatusP13TfLiteContextP10TfLiteNodeE",
   "name" : "TfLiteStatus (TfLiteContext *, TfLiteNode *)",
   "parameters" :
   [
    {
     "referenced_type" : "_ZTIP13TfLiteContext"
    },
    {
     "referenced_type" : "_ZTIP10TfLiteNode"
    }
   ],
   "referenced_type" : "_ZTIF12TfLiteStatusP13TfLiteContextP10TfLiteNodeE",
   "return_type" : "_ZTI12TfLiteStatus",
   "self_type" : "_ZTIF12TfLiteStatusP13TfLiteContextP10TfLiteNodeE",
   "source_file" : "external/tensorflow/tensorflow/lite/c/common.h"
  },
  {
   "alignment" : 4,
   "linker_set_key" : "_ZTIF12TfLiteStatusP13TfLiteContextP12TfLiteTensorP14TfLiteIntArrayE",
   "name" : "TfLiteStatus (TfLiteContext *, TfLiteTensor *, TfLiteIntArray *)",
   "parameters" :
   [
    {
     "referenced_type" : "_ZTIP13TfLiteContext"
    },
    {
     "referenced_type" : "_ZTIP12TfLiteTensor"
    },
    {
     "referenced_type" : "_ZTIP14TfLiteIntArray"
    }
   ],
   "referenced_type" : "_ZTIF12TfLiteStatusP13TfLiteContextP12TfLiteTensorP14TfLiteIntArrayE",
   "return_type" : "_ZTI12TfLiteStatus",
   "self_type" : "_ZTIF12TfLiteStatusP13TfLiteContextP12TfLiteTensorP14TfLiteIntArrayE",
   "source_file" : "external/tensorflow/tensorflow/lite/c/common.h"
  },
  {
   "alignment" : 4,
   "linker_set_key" : "_ZTIF12TfLiteStatusP13TfLiteContextP12TfLiteTensoriPKiE",
   "name" : "TfLiteStatus (TfLiteContext *, TfLiteTensor *, int, const int *)",
   "parameters" :
   [
    {
     "referenced_type" : "_ZTIP13TfLiteContext"
    },
    {
     "referenced_type" : "_ZTIP12TfLiteTensor"
    },
    {
     "referenced_type" : "_ZTIi"
    },
    {
     "referenced_type" : "_ZTIPKi"
    }
   ],
   "referenced_type" : "_ZTIF12TfLiteStatusP13TfLiteContextP12TfLiteTensoriPKiE",
   "return_type" : "_ZTI12TfLiteStatus",
   "self_type" : "_ZTIF12TfLiteStatusP13TfLiteContextP12TfLiteTensoriPKiE",
   "source_file" : "external/tensorflow/tensorflow/lite/c/common.h"
  },
  {
   "alignment" : 4,
   "linker_set_key" : "_ZTIF12TfLiteStatusP13TfLiteContextP14TfLiteDelegateE",
   "name" : "TfLiteStatus (TfLiteContext *, TfLiteDelegate *)",
   "parameters" :
   [
    {
     "referenced_type" : "_ZTIP13TfLiteContext"
    },
    {
     "referenced_type" : "_ZTIP14TfLiteDelegate"
    }
   ],
   "referenced_type" : "_ZTIF12TfLiteStatusP13TfLiteContextP14TfLiteDelegateE",
   "return_type" : "_ZTI12TfLiteStatus",
   "self_type" : "_ZTIF12TfLiteStatusP13TfLiteContextP14TfLiteDelegateE",
   "source_file" : "external/tensorflow/tensorflow/lite/c/common.h"
  },
  {
   "alignment" : 4,
   "linker_set_key" : "_ZTIF12TfLiteStatusP13TfLiteContextP14TfLiteDelegateiP12TfLiteTensorE",
   "name" : "TfLiteStatus (TfLiteContext *, TfLiteDelegate *, int, TfLiteTensor *)",
   "parameters" :
   [
    {
     "referenced_type" : "_ZTIP13TfLiteContext"
    },
    {
     "referenced_type" : "_ZTIP14TfLiteDelegate"
    },
    {
     "referenced_type" : "_ZTIi"
    },
    {
     "referenced_type" : "_ZTIP12TfLiteTensor"
    }
   ],
   "referenced_type" : "_ZTIF12TfLiteStatusP13TfLiteContextP14TfLiteDelegateiP12TfLiteTensorE",
   "return_type" : "_ZTI12TfLiteStatus",
   "self_type" : "_ZTIF12TfLiteStatusP13TfLiteContextP14TfLiteDelegateiP12TfLiteTensorE",
   "source_file" : "external/tensorflow/tensorflow/lite/c/common.h"
  },
  {
   "alignment" : 4,
   "linker_set_key" : "_ZTIF12TfLiteStatusP13TfLiteContextPK14TfLiteIntArrayPP20TfLiteDelegateParamsPiE",
   "name" : "TfLiteStatus (TfLiteContext *, const TfLiteIntArray *, TfLiteDelegateParams **, int *)",
   "parameters" :
   [
    {
     "referenced_type" : "_ZTIP13TfLiteContext"
    },
    {
     "referenced_type" : "_ZTIPK14TfLiteIntArray"
    },
    {
     "referenced_type" : "_ZTIPP20TfLiteDelegateParams"
    },
    {
     "referenced_type" : "_ZTIPi"
    }
   ],
   "referenced_type" : "_ZTIF12TfLiteStatusP13TfLiteContextPK14TfLiteIntArrayPP20TfLiteDelegateParamsPiE",
   "return_type" : "_ZTI12TfLiteStatus",
   "self_type" : "_ZTIF12TfLiteStatusP13TfLiteContextPK14TfLiteIntArrayPP20TfLiteDelegateParamsPiE",
   "source_file" : "external/tensorflow/tensorflow/lite/c/common.h"
  },
  {
   "alignment" : 4,
   "linker_set_key" : "_ZTIF12TfLiteStatusP13TfLiteContextPP14TfLiteIntArrayE",
   "name" : "TfLiteStatus (TfLiteContext *, TfLiteIntArray **)",
   "parameters" :
   [
    {
     "referenced_type" : "_ZTIP13TfLiteContext"
    },
    {
     "referenced_type" : "_ZTIPP14TfLiteIntArray"
    }
   ],
   "referenced_type" : "_ZTIF12TfLiteStatusP13TfLiteContextPP14TfLiteIntArrayE",
   "return_type" : "_ZTI12TfLiteStatus",
   "self_type" : "_ZTIF12TfLiteStatusP13TfLiteContextPP14TfLiteIntArrayE",
   "source_file" : "external/tensorflow/tensorflow/lite/c/common.h"
  },
  {
   "alignment" : 4,
   "linker_set_key" : "_ZTIF12TfLiteStatusP13TfLiteContextiPP10TfLiteNodePP18TfLiteRegistrationE",
   "name" : "TfLiteStatus (TfLiteContext *, int, TfLiteNode **, TfLiteRegistration **)",
   "parameters" :
   [
    {
     "referenced_type" : "_ZTIP13TfLiteContext"
    },
    {
     "referenced_type" : "_ZTIi"
    },
    {
     "referenced_type" : "_ZTIPP10TfLiteNode"
    },
    {
     "referenced_type" : "_ZTIPP18TfLiteRegistration"
    }
   ],
   "referenced_type" : "_ZTIF12TfLiteStatusP13TfLiteContextiPP10TfLiteNodePP18TfLiteRegistrationE",
   "return_type" : "_ZTI12TfLiteStatus",
   "self_type" : "_ZTIF12TfLiteStatusP13TfLiteContextiPP10TfLiteNodePP18TfLiteRegistrationE",
   "source_file" : "external/tensorflow/tensorflow/lite/c/common.h"
  },
  {
   "alignment" : 4,
   "linker_set_key" : "_ZTIF12TfLiteStatusP13TfLiteContextiPiE",
   "name" : "TfLiteStatus (TfLiteContext *, int, int *)",
   "parameters" :
   [
    {
     "referenced_type" : "_ZTIP13TfLiteContext"
    },
    {
     "referenced_type" : "_ZTIi"
    },
    {
     "referenced_type" : "_ZTIPi"
    }
   ],
   "referenced_type" : "_ZTIF12TfLiteStatusP13TfLiteContextiPiE",
   "return_type" : "_ZTI12TfLiteStatus",
   "self_type" : "_ZTIF12TfLiteStatusP13TfLiteContextiPiE",
   "source_file" : "external/tensorflow/tensorflow/lite/c/common.h"
  },
  {
   "alignment" : 4,
   "linker_set_key" : "_ZTIF12TfLiteStatusP13TfLiteContextmPPvE",
   "name" : "TfLiteStatus (TfLiteContext *, unsigned long, void **)",
   "parameters" :
   [
    {
     "referenced_type" : "_ZTIP13TfLiteContext"
    },
    {
     "referenced_type" : "_ZTIm"
    },
    {
     "referenced_type" : "_ZTIPPv"
    }
   ],
   "referenced_type" : "_ZTIF12TfLiteStatusP13TfLiteContextmPPvE",
   "return_type" : "_ZTI12TfLiteStatus",
   "self_type" : "_ZTIF12TfLiteStatusP13TfLiteContextmPPvE",
   "source_file" : "external/tensorflow/tensorflow/lite/c/common.h"
  },
  {
   "alignment" : 4,
   "linker_set_key" : "_ZTIF12TfLiteStatusP13TfLiteContextmPiE",
   "name" : "TfLiteStatus (TfLiteContext *, unsigned long, int *)",
   "parameters" :
   [
    {
     "referenced_type" : "_ZTIP13TfLiteContext"
    },
    {
     "referenced_type" : "_ZTIm"
    },
    {
     "referenced_type" : "_ZTIPi"
    }
   ],
   "referenced_type" : "_ZTIF12TfLiteStatusP13TfLiteContextmPiE",
   "return_type" : "_ZTI12TfLiteStatus",
   "self_type" : "_ZTIF12TfLiteStatusP13TfLiteContextmPiE",
   "source_file" : "external/tensorflow/tensorflow/lite/c/common.h"
  },
  {
   "alignment" : 4,
   "linker_set_key" : "_ZTIFP12TfLiteTensorPK13TfLiteContextiE",
   "name" : "TfLiteTensor *(const TfLiteContext *, int)",
   "parameters" :
   [
    {
     "referenced_type" : "_ZTIPK13TfLiteContext"
    },
    {
     "referenced_type" : "_ZTIi"
    }
   ],
   "referenced_type" : "_ZTIFP12TfLiteTensorPK13TfLiteContextiE",
   "return_type" : "_ZTIP12TfLiteTensor",
   "self_type" : "_ZTIFP12TfLiteTensorPK13TfLiteContextiE",
   "source_file" : "external/tensorflow/tensorflow/lite/c/common.h"
  },
  {
   "alignment" : 4,
   "linker_set_key" : "_ZTIFP16TfLiteEvalTensorPK13TfLiteContextiE",
   "name" : "TfLiteEvalTensor *(const TfLiteContext *, int)",
   "parameters" :
   [
    {
     "referenced_type" : "_ZTIPK13TfLiteContext"
    },
    {
     "referenced_type" : "_ZTIi"
    }
   ],
   "referenced_type" : "_ZTIFP16TfLiteEvalTensorPK13TfLiteContextiE",
   "return_type" : "_ZTIP16TfLiteEvalTensor",
   "self_type" : "_ZTIFP16TfLiteEvalTensorPK13TfLiteContextiE",
   "source_file" : "external/tensorflow/tensorflow/lite/c/common.h"
  },
  {
   "alignment" : 4,
   "linker_set_key" : "_ZTIFP21TfLiteExternalContextP13TfLiteContext25TfLiteExternalContextTypeE",
   "name" : "TfLiteExternalContext *(TfLiteContext *, TfLiteExternalContextType)",
   "parameters" :
   [
    {
     "referenced_type" : "_ZTIP13TfLiteContext"
    },
    {
     "referenced_type" : "_ZTI25TfLiteExternalContextType"
    }
   ],
   "referenced_type" : "_ZTIFP21TfLiteExternalContextP13TfLiteContext25TfLiteExternalContextTypeE",
   "return_type" : "_ZTIP21TfLiteExternalContext",
   "self_type" : "_ZTIFP21TfLiteExternalContextP13TfLiteContext25TfLiteExternalContextTypeE",
   "source_file" : "external/tensorflow/tensorflow/lite/c/common.h"
  },
  {
   "alignment" : 4,
   "linker_set_key" : "_ZTIFPKcPK13TfLiteContextPK10TfLiteNodeE",
   "name" : "const char *(const TfLiteContext *, const TfLiteNode *)",
   "parameters" :
   [
    {
     "referenced_type" : "_ZTIPK13TfLiteContext"
    },
    {
     "referenced_type" : "_ZTIPK10TfLiteNode"
    }
   ],
   "referenced_type" : "_ZTIFPKcPK13TfLiteContextPK10TfLiteNodeE",
   "return_type" : "_ZTIPKc",
   "self_type" : "_ZTIFPKcPK13TfLiteContextPK10TfLiteNodeE",
   "source_file" : "external/tensorflow/tensorflow/lite/c/common.h"
  },
  {
   "alignment" : 4,
   "linker_set_key" : "_ZTIFPvP13TfLiteContextPKcmE",
   "name" : "void *(TfLiteContext *, const char *, unsigned long)",
   "parameters" :
   [
    {
     "referenced_type" : "_ZTIP13TfLiteContext"
    },
    {
     "referenced_type" : "_ZTIPKc"
    },
    {
     "referenced_type" : "_ZTIm"
    }
   ],
   "referenced_type" : "_ZTIFPvP13TfLiteContextPKcmE",
   "return_type" : "_ZTIPv",
   "self_type" : "_ZTIFPvP13TfLiteContextPKcmE",
   "source_file" : "external/tensorflow/tensorflow/lite/c/common.h"
  },
  {
   "alignment" : 4,
   "linker_set_key" : "_ZTIFPvP13TfLiteContextiE",
   "name" : "void *(TfLiteContext *, int)",
   "parameters" :
   [
    {
     "referenced_type" : "_ZTIP13TfLiteContext"
    },
    {
     "referenced_type" : "_ZTIi"
    }
   ],
   "referenced_type" : "_ZTIFPvP13TfLiteContextiE",
   "return_type" : "_ZTIPv",
   "self_type" : "_ZTIFPvP13TfLiteContextiE",
   "source_file" : "external/tensorflow/tensorflow/lite/c/common.h"
  },
  {
   "alignment" : 4,
   "linker_set_key" : "_ZTIFPvP13TfLiteContextmE",
   "name" : "void *(TfLiteContext *, unsigned long)",
   "parameters" :
   [
    {
     "referenced_type" : "_ZTIP13TfLiteContext"
    },
    {
     "referenced_type" : "_ZTIm"
    }
   ],
   "referenced_type" : "_ZTIFPvP13TfLiteContextmE",
   "return_type" : "_ZTIPv",
   "self_type" : "_ZTIFPvP13TfLiteContextmE",
   "source_file" : "external/tensorflow/tensorflow/lite/c/common.h"
  },
  {
   "alignment" : 4,
   "linker_set_key" : "_ZTIFPvPKvE",
   "name" : "void *(const void *)",
   "parameters" :
   [
    {
     "referenced_type" : "_ZTIPKv"
    }
   ],
   "referenced_type" : "_ZTIFPvPKvE",
   "return_type" : "_ZTIPv",
   "self_type" : "_ZTIFPvPKvE",
   "source_file" : "external/libcxx/include/functional"
  },
  {
   "alignment" : 4,
   "linker_set_key" : "_ZTIFPvS_E",
   "name" : "void *(void *)",
   "parameters" :
   [
    {
     "referenced_type" : "_ZTIPv"
    }
   ],
   "referenced_type" : "_ZTIFPvS_E",
   "return_type" : "_ZTIPv",
   "self_type" : "_ZTIFPvS_E",
   "source_file" : "external/libcxx/include/__threading_support"
  },
  {
   "alignment" : 4,
   "linker_set_key" : "_ZTIFPvS_mPKvE",
   "name" : "void *(void *, unsigned long, const void *)",
   "parameters" :
   [
    {
     "referenced_type" : "_ZTIPv"
    },
    {
     "referenced_type" : "_ZTIm"
    },
    {
     "referenced_type" : "_ZTIPKv"
    }
   ],
   "referenced_type" : "_ZTIFPvS_mPKvE",
   "return_type" : "_ZTIPv",
   "self_type" : "_ZTIFPvS_mPKvE",
   "source_file" : "bionic/libc/include/malloc.h"
  },
  {
   "alignment" : 4,
   "linker_set_key" : "_ZTIFPvmPKvE",
   "name" : "void *(unsigned long, const void *)",
   "parameters" :
   [
    {
     "referenced_type" : "_ZTIm"
    },
    {
     "referenced_type" : "_ZTIPKv"
    }
   ],
   "referenced_type" : "_ZTIFPvmPKvE",
   "return_type" : "_ZTIPv",
   "self_type" : "_ZTIFPvmPKvE",
   "source_file" : "bionic/libc/include/malloc.h"
  },
  {
   "alignment" : 4,
   "linker_set_key" : "_ZTIFPvmmPKvE",
   "name" : "void *(unsigned long, unsigned long, const void *)",
   "parameters" :
   [
    {
     "referenced_type" : "_ZTIm"
    },
    {
     "referenced_type" : "_ZTIm"
    },
    {
     "referenced_type" : "_ZTIPKv"
    }
   ],
   "referenced_type" : "_ZTIFPvmmPKvE",
   "return_type" : "_ZTIPv",
   "self_type" : "_ZTIFPvmmPKvE",
   "source_file" : "bionic/libc/include/malloc.h"
  },
  {
   "alignment" : 4,
   "linker_set_key" : "_ZTIFv6sigvalE",
   "name" : "void (sigval)",
   "parameters" :
   [
    {
     "referenced_type" : "_ZTI6sigval"
    }
   ],
   "referenced_type" : "_ZTIFv6sigvalE",
   "return_type" : "_ZTIv",
   "self_type" : "_ZTIFv6sigvalE",
   "source_file" : "bionic/libc/kernel/uapi/asm-generic/siginfo.h"
  },
  {
   "alignment" : 4,
   "linker_set_key" : "_ZTIFvP13TfLiteContext25TfLiteExternalContextTypeP21TfLiteExternalContextE",
   "name" : "void (TfLiteContext *, TfLiteExternalContextType, TfLiteExternalContext *)",
   "parameters" :
   [
    {
     "referenced_type" : "_ZTIP13TfLiteContext"
    },
    {
     "referenced_type" : "_ZTI25TfLiteExternalContextType"
    },
    {
     "referenced_type" : "_ZTIP21TfLiteExternalContext"
    }
   ],
   "referenced_type" : "_ZTIFvP13TfLiteContext25TfLiteExternalContextTypeP21TfLiteExternalContextE",
   "return_type" : "_ZTIv",
   "self_type" : "_ZTIFvP13TfLiteContext25TfLiteExternalContextTypeP21TfLiteExternalContextE",
   "source_file" : "external/tensorflow/tensorflow/lite/c/common.h"
  },
  {
   "alignment" : 4,
   "linker_set_key" : "_ZTIFvP13TfLiteContextP14TfLiteDelegatePiE",
   "name" : "void (TfLiteContext *, TfLiteDelegate *, int *)",
   "parameters" :
   [
    {
     "referenced_type" : "_ZTIP13TfLiteContext"
    },
    {
     "referenced_type" : "_ZTIP14TfLiteDelegate"
    },
    {
     "referenced_type" : "_ZTIPi"
    }
   ],
   "referenced_type" : "_ZTIFvP13TfLiteContextP14TfLiteDelegatePiE",
   "return_type" : "_ZTIv",
   "self_type" : "_ZTIFvP13TfLiteContextP14TfLiteDelegatePiE",
   "source_file" : "external/tensorflow/tensorflow/lite/c/common.h"
  },
  {
   "alignment" : 4,
   "linker_set_key" : "_ZTIFvP13TfLiteContextPKczE",
   "name" : "void (TfLiteContext *, const char *, ...)",
   "parameters" :
   [
    {
     "referenced_type" : "_ZTIP13TfLiteContext"
    },
    {
     "referenced_type" : "_ZTIPKc"
    }
   ],
   "referenced_type" : "_ZTIFvP13TfLiteContextPKczE",
   "return_type" : "_ZTIv",
   "self_type" : "_ZTIFvP13TfLiteContextPKczE",
   "source_file" : "external/tensorflow/tensorflow/lite/c/common.h"
  },
  {
   "alignment" : 4,
   "linker_set_key" : "_ZTIFvP13TfLiteContextPvE",
   "name" : "void (TfLiteContext *, void *)",
   "parameters" :
   [
    {
     "referenced_type" : "_ZTIP13TfLiteContext"
    },
    {
     "referenced_type" : "_ZTIPv"
    }
   ],
   "referenced_type" : "_ZTIFvP13TfLiteContextPvE",
   "return_type" : "_ZTIv",
   "self_type" : "_ZTIFvP13TfLiteContextPvE",
   "source_file" : "external/tensorflow/tensorflow/lite/c/common.h"
  },
  {
   "alignment" : 4,
   "linker_set_key" : "_ZTIFvPvE",
   "name" : "void (void *)",
   "parameters" :
   [
    {
     "referenced_type" : "_ZTIPv"
    }
   ],
   "referenced_type" : "_ZTIFvPvE",
   "return_type" : "_ZTIv",
   "self_type" : "_ZTIFvPvE",
   "source_file" : "bionic/libc/include/pthread.h"
  },
  {
   "alignment" : 4,
   "linker_set_key" : "_ZTIFvPvPKvE",
   "name" : "void (void *, const void *)",
   "parameters" :
   [
    {
     "referenced_type" : "_ZTIPv"
    },
    {
     "referenced_type" : "_ZTIPKv"
    }
   ],
   "referenced_type" : "_ZTIFvPvPKvE",
   "return_type" : "_ZTIv",
   "self_type" : "_ZTIFvPvPKvE",
   "source_file" : "bionic/libc/include/malloc.h"
  },
  {
   "alignment" : 4,
   "linker_set_key" : "_ZTIFvRKNSt3__119__libcpp_debug_infoEE",
   "name" : "void (const std::__1::__libcpp_debug_info &)",
   "parameters" :
   [
    {
     "referenced_type" : "_ZTIRKNSt3__119__libcpp_debug_infoE"
    }
   ],
   "referenced_type" : "_ZTIFvRKNSt3__119__libcpp_debug_infoEE",
   "return_type" : "_ZTIv",
   "self_type" : "_ZTIFvRKNSt3__119__libcpp_debug_infoEE",
   "source_file" : "external/libcxx/include/__debug"
  },
  {
   "alignment" : 4,
   "linker_set_key" : "_ZTIFviE",
   "name" : "void (int)",
   "parameters" :
   [
    {
     "referenced_type" : "_ZTIi"
    }
   ],
   "referenced_type" : "_ZTIFviE",
   "return_type" : "_ZTIv",
   "self_type" : "_ZTIFviE",
   "source_file" : "bionic/libc/kernel/uapi/asm-generic/signal.h"
  },
  {
   "alignment" : 4,
   "linker_set_key" : "_ZTIFviP7siginfoPvE",
   "name" : "void (int, siginfo *, void *)",
   "parameters" :
   [
    {
     "referenced_type" : "_ZTIi"
    },
    {
     "referenced_type" : "_ZTIP7siginfo"
    },
    {
     "referenced_type" : "_ZTIPv"
    }
   ],
   "referenced_type" : "_ZTIFviP7siginfoPvE",
   "return_type" : "_ZTIv",
   "self_type" : "_ZTIFviP7siginfoPvE",
   "source_file" : "bionic/libc/include/bits/signal_types.h"
  },
  {
   "alignment" : 4,
   "linker_set_key" : "_ZTIFvvE",
   "name" : "void ()",
   "referenced_type" : "_ZTIFvvE",
   "return_type" : "_ZTIv",
   "self_type" : "_ZTIFvvE",
   "source_file" : "bionic/libc/kernel/uapi/asm-generic/signal.h"
  }
 ],
 "functions" :
 [
  {
   "function_name" : "nexttoward",
   "linker_set_key" : "_Z10nexttowardee",
   "parameters" :
   [
    {
     "referenced_type" : "_ZTIe"
    },
    {
     "referenced_type" : "_ZTIe"
    }
   ],
   "return_type" : "_ZTIe",
   "source_file" : "external/libcxx/include/math.h"
  },
  {
   "function_name" : "nexttoward",
   "linker_set_key" : "_Z10nexttowardfe",
   "parameters" :
   [
    {
     "referenced_type" : "_ZTIf"
    },
    {
     "referenced_type" : "_ZTIe"
    }
   ],
   "return_type" : "_ZTIf",
   "source_file" : "external/libcxx/include/math.h"
  },
  {
   "function_name" : "__libcpp_isinf",
   "linker_set_key" : "_Z14__libcpp_isinfIdEbT_",
   "parameters" :
   [
    {
     "referenced_type" : "_ZTId"
    }
   ],
   "return_type" : "_ZTIb",
   "source_file" : "external/libcxx/include/math.h",
   "template_args" : [ "_ZTId" ]
  },
  {
   "function_name" : "__libcpp_isinf",
   "linker_set_key" : "_Z14__libcpp_isinfIeEbT_",
   "parameters" :
   [
    {
     "referenced_type" : "_ZTIe"
    }
   ],
   "return_type" : "_ZTIb",
   "source_file" : "external/libcxx/include/math.h",
   "template_args" : [ "_ZTIe" ]
  },
  {
   "function_name" : "__libcpp_isinf",
   "linker_set_key" : "_Z14__libcpp_isinfIfEbT_",
   "parameters" :
   [
    {
     "referenced_type" : "_ZTIf"
    }
   ],
   "return_type" : "_ZTIb",
   "source_file" : "external/libcxx/include/math.h",
   "template_args" : [ "_ZTIf" ]
  },
  {
   "function_name" : "__libcpp_isnan",
   "linker_set_key" : "_Z14__libcpp_isnanIdEbT_",
   "parameters" :
   [
    {
     "referenced_type" : "_ZTId"
    }
   ],
   "return_type" : "_ZTIb",
   "source_file" : "external/libcxx/include/math.h",
   "template_args" : [ "_ZTId" ]
  },
  {
   "function_name" : "__libcpp_isnan",
   "linker_set_key" : "_Z14__libcpp_isnanIeEbT_",
   "parameters" :
   [
    {
     "referenced_type" : "_ZTIe"
    }
   ],
   "return_type" : "_ZTIb",
   "source_file" : "external/libcxx/include/math.h",
   "template_args" : [ "_ZTIe" ]
  },
  {
   "function_name" : "__libcpp_isnan",
   "linker_set_key" : "_Z14__libcpp_isnanIfEbT_",
   "parameters" :
   [
    {
     "referenced_type" : "_ZTIf"
    }
   ],
   "return_type" : "_ZTIb",
   "source_file" : "external/libcxx/include/math.h",
   "template_args" : [ "_ZTIf" ]
  },
  {
   "function_name" : "__bionic_memchr",
   "linker_set_key" : "_Z15__bionic_memchrPKvU17pass_object_size1im",
   "parameters" :
   [
    {
     "referenced_type" : "_ZTIKPKv"
    },
    {
     "referenced_type" : "_ZTIi"
    },
    {
     "referenced_type" : "_ZTIm"
    }
   ],
   "return_type" : "_ZTIPv",
   "source_file" : "bionic/libc/include/string.h"
  },
  {
   "function_name" : "__bionic_strchr",
   "linker_set_key" : "_Z15__bionic_strchrPKcU17pass_object_size1i",
   "parameters" :
   [
    {
     "referenced_type" : "_ZTIKPKc"
    },
    {
     "referenced_type" : "_ZTIi"
    }
   ],
   "return_type" : "_ZTIPc",
   "source_file" : "bionic/libc/include/string.h"
  },
  {
   "function_name" : "__bionic_strstr",
   "linker_set_key" : "_Z15__bionic_strstrPKcS0_",
   "parameters" :
   [
    {
     "referenced_type" : "_ZTIPKc"
    },
    {
     "referenced_type" : "_ZTIPKc"
    }
   ],
   "return_type" : "_ZTIPc",
   "source_file" : "bionic/libc/include/string.h"
  },
  {
   "function_name" : "__libcpp_memchr",
   "linker_set_key" : "_Z15__libcpp_memchrPKvim",
   "parameters" :
   [
    {
     "referenced_type" : "_ZTIPKv"
    },
    {
     "referenced_type" : "_ZTIi"
    },
    {
     "referenced_type" : "_ZTIm"
    }
   ],
   "return_type" : "_ZTIPv",
   "source_file" : "external/libcxx/include/string.h"
  },
  {
   "function_name" : "__libcpp_strchr",
   "linker_set_key" : "_Z15__libcpp_strchrPKci",
   "parameters" :
   [
    {
     "referenced_type" : "_ZTIPKc"
    },
    {
     "referenced_type" : "_ZTIi"
    }
   ],
   "return_type" : "_ZTIPc",
   "source_file" : "external/libcxx/include/string.h"
  },
  {
   "function_name" : "__libcpp_strstr",
   "linker_set_key" : "_Z15__libcpp_strstrPKcS0_",
   "parameters" :
   [
    {
     "referenced_type" : "_ZTIPKc"
    },
    {
     "referenced_type" : "_ZTIPKc"
    }
   ],
   "return_type" : "_ZTIPc",
   "source_file" : "external/libcxx/include/string.h"
  },
  {
   "function_name" : "__libcpp_wcschr",
   "linker_set_key" : "_Z15__libcpp_wcschrPKww",
   "parameters" :
   [
    {
     "referenced_type" : "_ZTIPKw"
    },
    {
     "referenced_type" : "_ZTIw"
    }
   ],
   "return_type" : "_ZTIPw",
   "source_file" : "external/libcxx/include/wchar.h"
  },
  {
   "function_name" : "__libcpp_wcsstr",
   "linker_set_key" : "_Z15__libcpp_wcsstrPKwS0_",
   "parameters" :
   [
    {
     "referenced_type" : "_ZTIPKw"
    },
    {
     "referenced_type" : "_ZTIPKw"
    }
   ],
   "return_type" : "_ZTIPw",
   "source_file" : "external/libcxx/include/wchar.h"
  },
  {
   "function_name" : "__bionic_strpbrk",
   "linker_set_key" : "_Z16__bionic_strpbrkPKcS0_",
   "parameters" :
   [
    {
     "referenced_type" : "_ZTIPKc"
    },
    {
     "referenced_type" : "_ZTIPKc"
    }
   ],
   "return_type" : "_ZTIPc",
   "source_file" : "bionic/libc/include/string.h"
  },
  {
   "function_name" : "__bionic_strrchr",
   "linker_set_key" : "_Z16__bionic_strrchrPKcU17pass_object_size1i",
   "parameters" :
   [
    {
     "referenced_type" : "_ZTIKPKc"
    },
    {
     "referenced_type" : "_ZTIi"
    }
   ],
   "return_type" : "_ZTIPc",
   "source_file" : "bionic/libc/include/string.h"
  },
  {
   "function_name" : "__libcpp_strpbrk",
   "linker_set_key" : "_Z16__libcpp_strpbrkPKcS0_",
   "parameters" :
   [
    {
     "referenced_type" : "_ZTIPKc"
    },
    {
     "referenced_type" : "_ZTIPKc"
    }
   ],
   "return_type" : "_ZTIPc",
   "source_file" : "external/libcxx/include/string.h"
  },
  {
   "function_name" : "__libcpp_strrchr",
   "linker_set_key" : "_Z16__libcpp_strrchrPKci",
   "parameters" :
   [
    {
     "referenced_type" : "_ZTIPKc"
    },
    {
     "referenced_type" : "_ZTIi"
    }
   ],
   "return_type" : "_ZTIPc",
   "source_file" : "external/libcxx/include/string.h"
  },
  {
   "function_name" : "__libcpp_wcspbrk",
   "linker_set_key" : "_Z16__libcpp_wcspbrkPKwS0_",
   "parameters" :
   [
    {
     "referenced_type" : "_ZTIPKw"
    },
    {
     "referenced_type" : "_ZTIPKw"
    }
   ],
   "return_type" : "_ZTIPw",
   "source_file" : "external/libcxx/include/wchar.h"
  },
  {
   "function_name" : "__libcpp_wcsrchr",
   "linker_set_key" : "_Z16__libcpp_wcsrchrPKww",
   "parameters" :
   [
    {
     "referenced_type" : "_ZTIPKw"
    },
    {
     "referenced_type" : "_ZTIw"
    }
   ],
   "return_type" : "_ZTIPw",
   "source_file" : "external/libcxx/include/wchar.h"
  },
  {
   "function_name" : "__libcpp_wmemchr",
   "linker_set_key" : "_Z16__libcpp_wmemchrPKwwm",
   "parameters" :
   [
    {
     "referenced_type" : "_ZTIPKw"
    },
    {
     "referenced_type" : "_ZTIw"
    },
    {
     "referenced_type" : "_ZTIm"
    }
   ],
   "return_type" : "_ZTIPw",
   "source_file" : "external/libcxx/include/wchar.h"
  },
  {
   "function_name" : "abs",
   "linker_set_key" : "_Z3absd",
   "parameters" :
   [
    {
     "referenced_type" : "_ZTId"
    }
   ],
   "return_type" : "_ZTId",
   "source_file" : "external/libcxx/include/math.h"
  },
  {
   "function_name" : "abs",
   "linker_set_key" : "_Z3abse",
   "parameters" :
   [
    {
     "referenced_type" : "_ZTIe"
    }
   ],
   "return_type" : "_ZTIe",
   "source_file" : "external/libcxx/include/math.h"
  },
  {
   "function_name" : "abs",
   "linker_set_key" : "_Z3absf",
   "parameters" :
   [
    {
     "referenced_type" : "_ZTIf"
    }
   ],
   "return_type" : "_ZTIf",
   "source_file" : "external/libcxx/include/math.h"
  },
  {
   "function_name" : "abs",
   "linker_set_key" : "_Z3absl",
   "parameters" :
   [
    {
     "referenced_type" : "_ZTIl"
    }
   ],
   "return_type" : "_ZTIl",
   "source_file" : "external/libcxx/include/stdlib.h"
  },
  {
   "function_name" : "abs",
   "linker_set_key" : "_Z3absx",
   "parameters" :
   [
    {
     "referenced_type" : "_ZTIx"
    }
   ],
   "return_type" : "_ZTIx",
   "source_file" : "external/libcxx/include/stdlib.h"
  },
  {
   "function_name" : "cos",
   "linker_set_key" : "_Z3cose",
   "parameters" :
   [
    {
     "referenced_type" : "_ZTIe"
    }
   ],
   "return_type" : "_ZTIe",
   "source_file" : "external/libcxx/include/math.h"
  },
  {
   "function_name" : "cos",
   "linker_set_key" : "_Z3cosf",
   "parameters" :
   [
    {
     "referenced_type" : "_ZTIf"
    }
   ],
   "return_type" : "_ZTIf",
   "source_file" : "external/libcxx/include/math.h"
  },
  {
   "function_name" : "div",
   "linker_set_key" : "_Z3divll",
   "parameters" :
   [
    {
     "referenced_type" : "_ZTIl"
    },
    {
     "referenced_type" : "_ZTIl"
    }
   ],
   "return_type" : "_ZTI6ldiv_t",
   "source_file" : "external/libcxx/include/stdlib.h"
  },
  {
   "function_name" : "div",
   "linker_set_key" : "_Z3divxx",
   "parameters" :
   [
    {
     "referenced_type" : "_ZTIx"
    },
    {
     "referenced_type" : "_ZTIx"
    }
   ],
   "return_type" : "_ZTI7lldiv_t",
   "source_file" : "external/libcxx/include/stdlib.h"
  },
  {
   "function_name" : "erf",
   "linker_set_key" : "_Z3erfe",
   "parameters" :
   [
    {
     "referenced_type" : "_ZTIe"
    }
   ],
   "return_type" : "_ZTIe",
   "source_file" : "external/libcxx/include/math.h"
  },
  {
   "function_name" : "erf",
   "linker_set_key" : "_Z3erff",
   "parameters" :
   [
    {
     "referenced_type" : "_ZTIf"
    }
   ],
   "return_type" : "_ZTIf",
   "source_file" : "external/libcxx/include/math.h"
  },
  {
   "function_name" : "exp",
   "linker_set_key" : "_Z3expe",
   "parameters" :
   [
    {
     "referenced_type" : "_ZTIe"
    }
   ],
   "return_type" : "_ZTIe",
   "source_file" : "external/libcxx/include/math.h"
  },
  {
   "function_name" : "exp",
   "linker_set_key" : "_Z3expf",
   "parameters" :
   [
    {
     "referenced_type" : "_ZTIf"
    }
   ],
   "return_type" : "_ZTIf",
   "source_file" : "external/libcxx/include/math.h"
  },
  {
   "function_name" : "fma",
   "linker_set_key" : "_Z3fmaeee",
   "parameters" :
   [
    {
     "referenced_type" : "_ZTIe"
    },
    {
     "referenced_type" : "_ZTIe"
    },
    {
     "referenced_type" : "_ZTIe"
    }
   ],
   "return_type" : "_ZTIe",
   "source_file" : "external/libcxx/include/math.h"
  },
  {
   "function_name" : "fma",
   "linker_set_key" : "_Z3fmafff",
   "parameters" :
   [
    {
     "referenced_type" : "_ZTIf"
    },
    {
     "referenced_type" : "_ZTIf"
    },
    {
     "referenced_type" : "_ZTIf"
    }
   ],
   "return_type" : "_ZTIf",
   "source_file" : "external/libcxx/include/math.h"
  },
  {
   "function_name" : "log",
   "linker_set_key" : "_Z3loge",
   "parameters" :
   [
    {
     "referenced_type" : "_ZTIe"
    }
   ],
   "return_type" : "_ZTIe",
   "source_file" : "external/libcxx/include/math.h"
  },
  {
   "function_name" : "log",
   "linker_set_key" : "_Z3logf",
   "parameters" :
   [
    {
     "referenced_type" : "_ZTIf"
    }
   ],
   "return_type" : "_ZTIf",
   "source_file" : "external/libcxx/include/math.h"
  },
  {
   "function_name" : "pow",
   "linker_set_key" : "_Z3powee",
   "parameters" :
   [
    {
     "referenced_type" : "_ZTIe"
    },
    {
     "referenced_type" : "_ZTIe"
    }
   ],
   "return_type" : "_ZTIe",
   "source_file" : "external/libcxx/include/math.h"
  },
  {
   "function_name" : "pow",
   "linker_set_key" : "_Z3powff",
   "parameters" :
   [
    {
     "referenced_type" : "_ZTIf"
    },
    {
     "referenced_type" : "_ZTIf"
    }
   ],
   "return_type" : "_ZTIf",
   "source_file" : "external/libcxx/include/math.h"
  },
  {
   "function_name" : "sin",
   "linker_set_key" : "_Z3sine",
   "parameters" :
   [
    {
     "referenced_type" : "_ZTIe"
    }
   ],
   "return_type" : "_ZTIe",
   "source_file" : "external/libcxx/include/math.h"
  },
  {
   "function_name" : "sin",
   "linker_set_key" : "_Z3sinf",
   "parameters" :
   [
    {
     "referenced_type" : "_ZTIf"
    }
   ],
   "return_type" : "_ZTIf",
   "source_file" : "external/libcxx/include/math.h"
  },
  {
   "function_name" : "tan",
   "linker_set_key" : "_Z3tane",
   "parameters" :
   [
    {
     "referenced_type" : "_ZTIe"
    }
   ],
   "return_type" : "_ZTIe",
   "source_file" : "external/libcxx/include/math.h"
  },
  {
   "function_name" : "tan",
   "linker_set_key" : "_Z3tanf",
   "parameters" :
   [
    {
     "referenced_type" : "_ZTIf"
    }
   ],
   "return_type" : "_ZTIf",
   "source_file" : "external/libcxx/include/math.h"
  },
  {
   "function_name" : "acos",
   "linker_set_key" : "_Z4acose",
   "parameters" :
   [
    {
     "referenced_type" : "_ZTIe"
    }
   ],
   "return_type" : "_ZTIe",
   "source_file" : "external/libcxx/include/math.h"
  },
  {
   "function_name" : "acos",
   "linker_set_key" : "_Z4acosf",
   "parameters" :
   [
    {
     "referenced_type" : "_ZTIf"
    }
   ],
   "return_type" : "_ZTIf",
   "source_file" : "external/libcxx/include/math.h"
  },
  {
   "function_name" : "asin",
   "linker_set_key" : "_Z4asine",
   "parameters" :
   [
    {
     "referenced_type" : "_ZTIe"
    }
   ],
   "return_type" : "_ZTIe",
   "source_file" : "external/libcxx/include/math.h"
  },
  {
   "function_name" : "asin",
   "linker_set_key" : "_Z4asinf",
   "parameters" :
   [
    {
     "referenced_type" : "_ZTIf"
    }
   ],
   "return_type" : "_ZTIf",
   "source_file" : "external/libcxx/include/math.h"
  },
  {
   "function_name" : "atan",
   "linker_set_key" : "_Z4atane",
   "parameters" :
   [
    {
     "referenced_type" : "_ZTIe"
    }
   ],
   "return_type" : "_ZTIe",
   "source_file" : "external/libcxx/include/math.h"
  },
  {
   "function_name" : "atan",
   "linker_set_key" : "_Z4atanf",
   "parameters" :
   [
    {
     "referenced_type" : "_ZTIf"
    }
   ],
   "return_type" : "_ZTIf",
   "source_file" : "external/libcxx/include/math.h"
  },
  {
   "function_name" : "cbrt",
   "linker_set_key" : "_Z4cbrte",
   "parameters" :
   [
    {
     "referenced_type" : "_ZTIe"
    }
   ],
   "return_type" : "_ZTIe",
   "source_file" : "external/libcxx/include/math.h"
  },
  {
   "function_name" : "cbrt",
   "linker_set_key" : "_Z4cbrtf",
   "parameters" :
   [
    {
     "referenced_type" : "_ZTIf"
    }
   ],
   "return_type" : "_ZTIf",
   "source_file" : "external/libcxx/include/math.h"
  },
  {
   "function_name" : "ceil",
   "linker_set_key" : "_Z4ceile",
   "parameters" :
   [
    {
     "referenced_type" : "_ZTIe"
    }
   ],
   "return_type" : "_ZTIe",
   "source_file" : "external/libcxx/include/math.h"
  },
  {
   "function_name" : "ceil",
   "linker_set_key" : "_Z4ceilf",
   "parameters" :
   [
    {
     "referenced_type" : "_ZTIf"
    }
   ],
   "return_type" : "_ZTIf",
   "source_file" : "external/libcxx/include/math.h"
  },
  {
   "function_name" : "cosh",
   "linker_set_key" : "_Z4coshe",
   "parameters" :
   [
    {
     "referenced_type" : "_ZTIe"
    }
   ],
   "return_type" : "_ZTIe",
   "source_file" : "external/libcxx/include/math.h"
  },
  {
   "function_name" : "cosh",
   "linker_set_key" : "_Z4coshf",
   "parameters" :
   [
    {
     "referenced_type" : "_ZTIf"
    }
   ],
   "return_type" : "_ZTIf",
   "source_file" : "external/libcxx/include/math.h"
  },
  {
   "function_name" : "erfc",
   "linker_set_key" : "_Z4erfce",
   "parameters" :
   [
    {
     "referenced_type" : "_ZTIe"
    }
   ],
   "return_type" : "_ZTIe",
   "source_file" : "external/libcxx/include/math.h"
  },
  {
   "function_name" : "erfc",
   "linker_set_key" : "_Z4erfcf",
   "parameters" :
   [
    {
     "referenced_type" : "_ZTIf"
    }
   ],
   "return_type" : "_ZTIf",
   "source_file" : "external/libcxx/include/math.h"
  },
  {
   "function_name" : "exp2",
   "linker_set_key" : "_Z4exp2e",
   "parameters" :
   [
    {
     "referenced_type" : "_ZTIe"
    }
   ],
   "return_type" : "_ZTIe",
   "source_file" : "external/libcxx/include/math.h"
  },
  {
   "function_name" : "exp2",
   "linker_set_key" : "_Z4exp2f",
   "parameters" :
   [
    {
     "referenced_type" : "_ZTIf"
    }
   ],
   "return_type" : "_ZTIf",
   "source_file" : "external/libcxx/include/math.h"
  },
  {
   "function_name" : "fabs",
   "linker_set_key" : "_Z4fabse",
   "parameters" :
   [
    {
     "referenced_type" : "_ZTIe"
    }
   ],
   "return_type" : "_ZTIe",
   "source_file" : "external/libcxx/include/math.h"
  },
  {
   "function_name" : "fabs",
   "linker_set_key" : "_Z4fabsf",
   "parameters" :
   [
    {
     "referenced_type" : "_ZTIf"
    }
   ],
   "return_type" : "_ZTIf",
   "source_file" : "external/libcxx/include/math.h"
  },
  {
   "function_name" : "fdim",
   "linker_set_key" : "_Z4fdimee",
   "parameters" :
   [
    {
     "referenced_type" : "_ZTIe"
    },
    {
     "referenced_type" : "_ZTIe"
    }
   ],
   "return_type" : "_ZTIe",
   "source_file" : "external/libcxx/include/math.h"
  },
  {
   "function_name" : "fdim",
   "linker_set_key" : "_Z4fdimff",
   "parameters" :
   [
    {
     "referenced_type" : "_ZTIf"
    },
    {
     "referenced_type" : "_ZTIf"
    }
   ],
   "return_type" : "_ZTIf",
   "source_file" : "external/libcxx/include/math.h"
  },
  {
   "function_name" : "fmax",
   "linker_set_key" : "_Z4fmaxee",
   "parameters" :
   [
    {
     "referenced_type" : "_ZTIe"
    },
    {
     "referenced_type" : "_ZTIe"
    }
   ],
   "return_type" : "_ZTIe",
   "source_file" : "external/libcxx/include/math.h"
  },
  {
   "function_name" : "fmax",
   "linker_set_key" : "_Z4fmaxff",
   "parameters" :
   [
    {
     "referenced_type" : "_ZTIf"
    },
    {
     "referenced_type" : "_ZTIf"
    }
   ],
   "return_type" : "_ZTIf",
   "source_file" : "external/libcxx/include/math.h"
  },
  {
   "function_name" : "fmin",
   "linker_set_key" : "_Z4fminee",
   "parameters" :
   [
    {
     "referenced_type" : "_ZTIe"
    },
    {
     "referenced_type" : "_ZTIe"
    }
   ],
   "return_type" : "_ZTIe",
   "source_file" : "external/libcxx/include/math.h"
  },
  {
   "function_name" : "fmin",
   "linker_set_key" : "_Z4fminff",
   "parameters" :
   [
    {
     "referenced_type" : "_ZTIf"
    },
    {
     "referenced_type" : "_ZTIf"
    }
   ],
   "return_type" : "_ZTIf",
   "source_file" : "external/libcxx/include/math.h"
  },
  {
   "function_name" : "fmod",
   "linker_set_key" : "_Z4fmodee",
   "parameters" :
   [
    {
     "referenced_type" : "_ZTIe"
    },
    {
     "referenced_type" : "_ZTIe"
    }
   ],
   "return_type" : "_ZTIe",
   "source_file" : "external/libcxx/include/math.h"
  },
  {
   "function_name" : "fmod",
   "linker_set_key" : "_Z4fmodff",
   "parameters" :
   [
    {
     "referenced_type" : "_ZTIf"
    },
    {
     "referenced_type" : "_ZTIf"
    }
   ],
   "return_type" : "_ZTIf",
   "source_file" : "external/libcxx/include/math.h"
  },
  {
   "function_name" : "log2",
   "linker_set_key" : "_Z4log2e",
   "parameters" :
   [
    {
     "referenced_type" : "_ZTIe"
    }
   ],
   "return_type" : "_ZTIe",
   "source_file" : "external/libcxx/include/math.h"
  },
  {
   "function_name" : "log2",
   "linker_set_key" : "_Z4log2f",
   "parameters" :
   [
    {
     "referenced_type" : "_ZTIf"
    }
   ],
   "return_type" : "_ZTIf",
   "source_file" : "external/libcxx/include/math.h"
  },
  {
   "function_name" : "logb",
   "linker_set_key" : "_Z4logbe",
   "parameters" :
   [
    {
     "referenced_type" : "_ZTIe"
    }
   ],
   "return_type" : "_ZTIe",
   "source_file" : "external/libcxx/include/math.h"
  },
  {
   "function_name" : "logb",
   "linker_set_key" : "_Z4logbf",
   "parameters" :
   [
    {
     "referenced_type" : "_ZTIf"
    }
   ],
   "return_type" : "_ZTIf",
   "source_file" : "external/libcxx/include/math.h"
  },
  {
   "function_name" : "modf",
   "linker_set_key" : "_Z4modfePe",
   "parameters" :
   [
    {
     "referenced_type" : "_ZTIe"
    },
    {
     "referenced_type" : "_ZTIPe"
    }
   ],
   "return_type" : "_ZTIe",
   "source_file" : "external/libcxx/include/math.h"
  },
  {
   "function_name" : "modf",
   "linker_set_key" : "_Z4modffPf",
   "parameters" :
   [
    {
     "referenced_type" : "_ZTIf"
    },
    {
     "referenced_type" : "_ZTIPf"
    }
   ],
   "return_type" : "_ZTIf",
   "source_file" : "external/libcxx/include/math.h"
  },
  {
   "function_name" : "rint",
   "linker_set_key" : "_Z4rinte",
   "parameters" :
   [
    {
     "referenced_type" : "_ZTIe"
    }
   ],
   "return_type" : "_ZTIe",
   "source_file" : "external/libcxx/include/math.h"
  },
  {
   "function_name" : "rint",
   "linker_set_key" : "_Z4rintf",
   "parameters" :
   [
    {
     "referenced_type" : "_ZTIf"
    }
   ],
   "return_type" : "_ZTIf",
   "source_file" : "external/libcxx/include/math.h"
  },
  {
   "function_name" : "sinh",
   "linker_set_key" : "_Z4sinhe",
   "parameters" :
   [
    {
     "referenced_type" : "_ZTIe"
    }
   ],
   "return_type" : "_ZTIe",
   "source_file" : "external/libcxx/include/math.h"
  },
  {
   "function_name" : "sinh",
   "linker_set_key" : "_Z4sinhf",
   "parameters" :
   [
    {
     "referenced_type" : "_ZTIf"
    }
   ],
   "return_type" : "_ZTIf",
   "source_file" : "external/libcxx/include/math.h"
  },
  {
   "function_name" : "sqrt",
   "linker_set_key" : "_Z4sqrte",
   "parameters" :
   [
    {
     "referenced_type" : "_ZTIe"
    }
   ],
   "return_type" : "_ZTIe",
   "source_file" : "external/libcxx/include/math.h"
  },
  {
   "function_name" : "sqrt",
   "linker_set_key" : "_Z4sqrtf",
   "parameters" :
   [
    {
     "referenced_type" : "_ZTIf"
    }
   ],
   "return_type" : "_ZTIf",
   "source_file" : "external/libcxx/include/math.h"
  },
  {
   "function_name" : "tanh",
   "linker_set_key" : "_Z4tanhe",
   "parameters" :
   [
    {
     "referenced_type" : "_ZTIe"
    }
   ],
   "return_type" : "_ZTIe",
   "source_file" : "external/libcxx/include/math.h"
  },
  {
   "function_name" : "tanh",
   "linker_set_key" : "_Z4tanhf",
   "parameters" :
   [
    {
     "referenced_type" : "_ZTIf"
    }
   ],
   "return_type" : "_ZTIf",
   "source_file" : "external/libcxx/include/math.h"
  },
  {
   "function_name" : "acosh",
   "linker_set_key" : "_Z5acoshe",
   "parameters" :
   [
    {
     "referenced_type" : "_ZTIe"
    }
   ],
   "return_type" : "_ZTIe",
   "source_file" : "external/libcxx/include/math.h"
  },
  {
   "function_name" : "acosh",
   "linker_set_key" : "_Z5acoshf",
   "parameters" :
   [
    {
     "referenced_type" : "_ZTIf"
    }
   ],
   "return_type" : "_ZTIf",
   "source_file" : "external/libcxx/include/math.h"
  },
  {
   "function_name" : "asinh",
   "linker_set_key" : "_Z5asinhe",
   "parameters" :
   [
    {
     "referenced_type" : "_ZTIe"
    }
   ],
   "return_type" : "_ZTIe",
   "source_file" : "external/libcxx/include/math.h"
  },
  {
   "function_name" : "asinh",
   "linker_set_key" : "_Z5asinhf",
   "parameters" :
   [
    {
     "referenced_type" : "_ZTIf"
    }
   ],
   "return_type" : "_ZTIf",
   "source_file" : "external/libcxx/include/math.h"
  },
  {
   "function_name" : "atan2",
   "linker_set_key" : "_Z5atan2ee",
   "parameters" :
   [
    {
     "referenced_type" : "_ZTIe"
    },
    {
     "referenced_type" : "_ZTIe"
    }
   ],
   "return_type" : "_ZTIe",
   "source_file" : "external/libcxx/include/math.h"
  },
  {
   "function_name" : "atan2",
   "linker_set_key" : "_Z5atan2ff",
   "parameters" :
   [
    {
     "referenced_type" : "_ZTIf"
    },
    {
     "referenced_type" : "_ZTIf"
    }
   ],
   "return_type" : "_ZTIf",
   "source_file" : "external/libcxx/include/math.h"
  },
  {
   "function_name" : "atanh",
   "linker_set_key" : "_Z5atanhe",
   "parameters" :
   [
    {
     "referenced_type" : "_ZTIe"
    }
   ],
   "return_type" : "_ZTIe",
   "source_file" : "external/libcxx/include/math.h"
  },
  {
   "function_name" : "atanh",
   "linker_set_key" : "_Z5atanhf",
   "parameters" :
   [
    {
     "referenced_type" : "_ZTIf"
    }
   ],
   "return_type" : "_ZTIf",
   "source_file" : "external/libcxx/include/math.h"
  },
  {
   "function_name" : "expm1",
   "linker_set_key" : "_Z5expm1e",
   "parameters" :
   [
    {
     "referenced_type" : "_ZTIe"
    }
   ],
   "return_type" : "_ZTIe",
   "source_file" : "external/libcxx/include/math.h"
  },
  {
   "function_name" : "expm1",
   "linker_set_key" : "_Z5expm1f",
   "parameters" :
   [
    {
     "referenced_type" : "_ZTIf"
    }
   ],
   "return_type" : "_ZTIf",
   "source_file" : "external/libcxx/include/math.h"
  },
  {
   "function_name" : "floor",
   "linker_set_key" : "_Z5floore",
   "parameters" :
   [
    {
     "referenced_type" : "_ZTIe"
    }
   ],
   "return_type" : "_ZTIe",
   "source_file" : "external/libcxx/include/math.h"
  },
  {
   "function_name" : "floor",
   "linker_set_key" : "_Z5floorf",
   "parameters" :
   [
    {
     "referenced_type" : "_ZTIf"
    }
   ],
   "return_type" : "_ZTIf",
   "source_file" : "external/libcxx/include/math.h"
  },
  {
   "function_name" : "frexp",
   "linker_set_key" : "_Z5frexpePi",
   "parameters" :
   [
    {
     "referenced_type" : "_ZTIe"
    },
    {
     "referenced_type" : "_ZTIPi"
    }
   ],
   "return_type" : "_ZTIe",
   "source_file" : "external/libcxx/include/math.h"
  },
  {
   "function_name" : "frexp",
   "linker_set_key" : "_Z5frexpfPi",
   "parameters" :
   [
    {
     "referenced_type" : "_ZTIf"
    },
    {
     "referenced_type" : "_ZTIPi"
    }
   ],
   "return_type" : "_ZTIf",
   "source_file" : "external/libcxx/include/math.h"
  },
  {
   "function_name" : "hypot",
   "linker_set_key" : "_Z5hypotee",
   "parameters" :
   [
    {
     "referenced_type" : "_ZTIe"
    },
    {
     "referenced_type" : "_ZTIe"
    }
   ],
   "return_type" : "_ZTIe",
   "source_file" : "external/libcxx/include/math.h"
  },
  {
   "function_name" : "hypot",
   "linker_set_key" : "_Z5hypotff",
   "parameters" :
   [
    {
     "referenced_type" : "_ZTIf"
    },
    {
     "referenced_type" : "_ZTIf"
    }
   ],
   "return_type" : "_ZTIf",
   "source_file" : "external/libcxx/include/math.h"
  },
  {
   "function_name" : "ilogb",
   "linker_set_key" : "_Z5ilogbe",
   "parameters" :
   [
    {
     "referenced_type" : "_ZTIe"
    }
   ],
   "return_type" : "_ZTIi",
   "source_file" : "external/libcxx/include/math.h"
  },
  {
   "function_name" : "ilogb",
   "linker_set_key" : "_Z5ilogbf",
   "parameters" :
   [
    {
     "referenced_type" : "_ZTIf"
    }
   ],
   "return_type" : "_ZTIi",
   "source_file" : "external/libcxx/include/math.h"
  },
  {
   "function_name" : "isinf",
   "linker_set_key" : "_Z5isinfUa9enable_ifIXLb1EEEd",
   "parameters" :
   [
    {
     "referenced_type" : "_ZTId"
    }
   ],
   "return_type" : "_ZTIb",
   "source_file" : "external/libcxx/include/math.h"
  },
  {
   "function_name" : "isinf",
   "linker_set_key" : "_Z5isinfe",
   "parameters" :
   [
    {
     "referenced_type" : "_ZTIe"
    }
   ],
   "return_type" : "_ZTIb",
   "source_file" : "external/libcxx/include/math.h"
  },
  {
   "function_name" : "isinf",
   "linker_set_key" : "_Z5isinff",
   "parameters" :
   [
    {
     "referenced_type" : "_ZTIf"
    }
   ],
   "return_type" : "_ZTIb",
   "source_file" : "external/libcxx/include/math.h"
  },
  {
   "function_name" : "isnan",
   "linker_set_key" : "_Z5isnanUa9enable_ifIXLb1EEEd",
   "parameters" :
   [
    {
     "referenced_type" : "_ZTId"
    }
   ],
   "return_type" : "_ZTIb",
   "source_file" : "external/libcxx/include/math.h"
  },
  {
   "function_name" : "isnan",
   "linker_set_key" : "_Z5isnane",
   "parameters" :
   [
    {
     "referenced_type" : "_ZTIe"
    }
   ],
   "return_type" : "_ZTIb",
   "source_file" : "external/libcxx/include/math.h"
  },
  {
   "function_name" : "isnan",
   "linker_set_key" : "_Z5isnanf",
   "parameters" :
   [
    {
     "referenced_type" : "_ZTIf"
    }
   ],
   "return_type" : "_ZTIb",
   "source_file" : "external/libcxx/include/math.h"
  },
  {
   "function_name" : "ldexp",
   "linker_set_key" : "_Z5ldexpei",
   "parameters" :
   [
    {
     "referenced_type" : "_ZTIe"
    },
    {
     "referenced_type" : "_ZTIi"
    }
   ],
   "return_type" : "_ZTIe",
   "source_file" : "external/libcxx/include/math.h"
  },
  {
   "function_name" : "ldexp",
   "linker_set_key" : "_Z5ldexpfi",
   "parameters" :
   [
    {
     "referenced_type" : "_ZTIf"
    },
    {
     "referenced_type" : "_ZTIi"
    }
   ],
   "return_type" : "_ZTIf",
   "source_file" : "external/libcxx/include/math.h"
  },
  {
   "function_name" : "log10",
   "linker_set_key" : "_Z5log10e",
   "parameters" :
   [
    {
     "referenced_type" : "_ZTIe"
    }
   ],
   "return_type" : "_ZTIe",
   "source_file" : "external/libcxx/include/math.h"
  },
  {
   "function_name" : "log10",
   "linker_set_key" : "_Z5log10f",
   "parameters" :
   [
    {
     "referenced_type" : "_ZTIf"
    }
   ],
   "return_type" : "_ZTIf",
   "source_file" : "external/libcxx/include/math.h"
  },
  {
   "function_name" : "log1p",
   "linker_set_key" : "_Z5log1pe",
   "parameters" :
   [
    {
     "referenced_type" : "_ZTIe"
    }
   ],
   "return_type" : "_ZTIe",
   "source_file" : "external/libcxx/include/math.h"
  },
  {
   "function_name" : "log1p",
   "linker_set_key" : "_Z5log1pf",
   "parameters" :
   [
    {
     "referenced_type" : "_ZTIf"
    }
   ],
   "return_type" : "_ZTIf",
   "source_file" : "external/libcxx/include/math.h"
  },
  {
   "function_name" : "lrint",
   "linker_set_key" : "_Z5lrinte",
   "parameters" :
   [
    {
     "referenced_type" : "_ZTIe"
    }
   ],
   "return_type" : "_ZTIl",
   "source_file" : "external/libcxx/include/math.h"
  },
  {
   "function_name" : "lrint",
   "linker_set_key" : "_Z5lrintf",
   "parameters" :
   [
    {
     "referenced_type" : "_ZTIf"
    }
   ],
   "return_type" : "_ZTIl",
   "source_file" : "external/libcxx/include/math.h"
  },
  {
   "function_name" : "round",
   "linker_set_key" : "_Z5rounde",
   "parameters" :
   [
    {
     "referenced_type" : "_ZTIe"
    }
   ],
   "return_type" : "_ZTIe",
   "source_file" : "external/libcxx/include/math.h"
  },
  {
   "function_name" : "round",
   "linker_set_key" : "_Z5roundf",
   "parameters" :
   [
    {
     "referenced_type" : "_ZTIf"
    }
   ],
   "return_type" : "_ZTIf",
   "source_file" : "external/libcxx/include/math.h"
  },
  {
   "function_name" : "trunc",
   "linker_set_key" : "_Z5trunce",
   "parameters" :
   [
    {
     "referenced_type" : "_ZTIe"
    }
   ],
   "return_type" : "_ZTIe",
   "source_file" : "external/libcxx/include/math.h"
  },
  {
   "function_name" : "trunc",
   "linker_set_key" : "_Z5truncf",
   "parameters" :
   [
    {
     "referenced_type" : "_ZTIf"
    }
   ],
   "return_type" : "_ZTIf",
   "source_file" : "external/libcxx/include/math.h"
  },
  {
   "function_name" : "lgamma",
   "linker_set_key" : "_Z6lgammae",
   "parameters" :
   [
    {
     "referenced_type" : "_ZTIe"
    }
   ],
   "return_type" : "_ZTIe",
   "source_file" : "external/libcxx/include/math.h"
  },
  {
   "function_name" : "lgamma",
   "linker_set_key" : "_Z6lgammaf",
   "parameters" :
   [
    {
     "referenced_type" : "_ZTIf"
    }
   ],
   "return_type" : "_ZTIf",
   "source_file" : "external/libcxx/include/math.h"
  },
  {
   "function_name" : "llrint",
   "linker_set_key" : "_Z6llrinte",
   "parameters" :
   [
    {
     "referenced_type" : "_ZTIe"
    }
   ],
   "return_type" : "_ZTIx",
   "source_file" : "external/libcxx/include/math.h"
  },
  {
   "function_name" : "llrint",
   "linker_set_key" : "_Z6llrintf",
   "parameters" :
   [
    {
     "referenced_type" : "_ZTIf"
    }
   ],
   "return_type" : "_ZTIx",
   "source_file" : "external/libcxx/include/math.h"
  },
  {
   "function_name" : "lround",
   "linker_set_key" : "_Z6lrounde",
   "parameters" :
   [
    {
     "referenced_type" : "_ZTIe"
    }
   ],
   "return_type" : "_ZTIl",
   "source_file" : "external/libcxx/include/math.h"
  },
  {
   "function_name" : "lround",
   "linker_set_key" : "_Z6lroundf",
   "parameters" :
   [
    {
     "referenced_type" : "_ZTIf"
    }
   ],
   "return_type" : "_ZTIl",
   "source_file" : "external/libcxx/include/math.h"
  },
  {
   "function_name" : "memchr",
   "linker_set_key" : "_Z6memchrUa9enable_ifIXLb1EEEPKvim",
   "parameters" :
   [
    {
     "referenced_type" : "_ZTIPKv"
    },
    {
     "referenced_type" : "_ZTIi"
    },
    {
     "referenced_type" : "_ZTIm"
    }
   ],
   "return_type" : "_ZTIPKv",
   "source_file" : "external/libcxx/include/string.h"
  },
  {
   "function_name" : "memchr",
   "linker_set_key" : "_Z6memchrUa9enable_ifIXLb1EEEPvim",
   "parameters" :
   [
    {
     "referenced_type" : "_ZTIPv"
    },
    {
     "referenced_type" : "_ZTIi"
    },
    {
     "referenced_type" : "_ZTIm"
    }
   ],
   "return_type" : "_ZTIPv",
   "source_file" : "external/libcxx/include/string.h"
  },
  {
   "function_name" : "memchr",
   "linker_set_key" : "_Z6memchrUa9enable_ifIXLb1EEXLb1EEEPKvU17pass_object_size1im",
   "parameters" :
   [
    {
     "referenced_type" : "_ZTIKPKv"
    },
    {
     "referenced_type" : "_ZTIi"
    },
    {
     "referenced_type" : "_ZTIm"
    }
   ],
   "return_type" : "_ZTIPKv",
   "source_file" : "bionic/libc/include/string.h"
  },
  {
   "function_name" : "memchr",
   "linker_set_key" : "_Z6memchrUa9enable_ifIXLb1EEXLb1EEEPvU17pass_object_size1im",
   "parameters" :
   [
    {
     "referenced_type" : "_ZTIKPv"
    },
    {
     "referenced_type" : "_ZTIi"
    },
    {
     "referenced_type" : "_ZTIm"
    }
   ],
   "return_type" : "_ZTIPv",
   "source_file" : "bionic/libc/include/string.h"
  },
  {
   "function_name" : "remquo",
   "linker_set_key" : "_Z6remquoeePi",
   "parameters" :
   [
    {
     "referenced_type" : "_ZTIe"
    },
    {
     "referenced_type" : "_ZTIe"
    },
    {
     "referenced_type" : "_ZTIPi"
    }
   ],
   "return_type" : "_ZTIe",
   "source_file" : "external/libcxx/include/math.h"
  },
  {
   "function_name" : "remquo",
   "linker_set_key" : "_Z6remquoffPi",
   "parameters" :
   [
    {
     "referenced_type" : "_ZTIf"
    },
    {
     "referenced_type" : "_ZTIf"
    },
    {
     "referenced_type" : "_ZTIPi"
    }
   ],
   "return_type" : "_ZTIf",
   "source_file" : "external/libcxx/include/math.h"
  },
  {
   "function_name" : "scalbn",
   "linker_set_key" : "_Z6scalbnei",
   "parameters" :
   [
    {
     "referenced_type" : "_ZTIe"
    },
    {
     "referenced_type" : "_ZTIi"
    }
   ],
   "return_type" : "_ZTIe",
   "source_file" : "external/libcxx/include/math.h"
  },
  {
   "function_name" : "scalbn",
   "linker_set_key" : "_Z6scalbnfi",
   "parameters" :
   [
    {
     "referenced_type" : "_ZTIf"
    },
    {
     "referenced_type" : "_ZTIi"
    }
   ],
   "return_type" : "_ZTIf",
   "source_file" : "external/libcxx/include/math.h"
  },
  {
   "function_name" : "strchr",
   "linker_set_key" : "_Z6strchrUa9enable_ifIXLb1EEEPKci",
   "parameters" :
   [
    {
     "referenced_type" : "_ZTIPKc"
    },
    {
     "referenced_type" : "_ZTIi"
    }
   ],
   "return_type" : "_ZTIPKc",
   "source_file" : "external/libcxx/include/string.h"
  },
  {
   "function_name" : "strchr",
   "linker_set_key" : "_Z6strchrUa9enable_ifIXLb1EEEPci",
   "parameters" :
   [
    {
     "referenced_type" : "_ZTIPc"
    },
    {
     "referenced_type" : "_ZTIi"
    }
   ],
   "return_type" : "_ZTIPc",
   "source_file" : "external/libcxx/include/string.h"
  },
  {
   "function_name" : "strchr",
   "linker_set_key" : "_Z6strchrUa9enable_ifIXLb1EEXLb1EEEPKcU17pass_object_size1i",
   "parameters" :
   [
    {
     "referenced_type" : "_ZTIKPKc"
    },
    {
     "referenced_type" : "_ZTIi"
    }
   ],
   "return_type" : "_ZTIPKc",
   "source_file" : "bionic/libc/include/string.h"
  },
  {
   "function_name" : "strchr",
   "linker_set_key" : "_Z6strchrUa9enable_ifIXLb1EEXLb1EEEPcU17pass_object_size1i",
   "parameters" :
   [
    {
     "referenced_type" : "_ZTIKPc"
    },
    {
     "referenced_type" : "_ZTIi"
    }
   ],
   "return_type" : "_ZTIPc",
   "source_file" : "bionic/libc/include/string.h"
  },
  {
   "function_name" : "strstr",
   "linker_set_key" : "_Z6strstrUa9enable_ifIXLb1EEEPKcS0_",
   "parameters" :
   [
    {
     "referenced_type" : "_ZTIPKc"
    },
    {
     "referenced_type" : "_ZTIPKc"
    }
   ],
   "return_type" : "_ZTIPKc",
   "source_file" : "external/libcxx/include/string.h"
  },
  {
   "function_name" : "strstr",
   "linker_set_key" : "_Z6strstrUa9enable_ifIXLb1EEEPcPKc",
   "parameters" :
   [
    {
     "referenced_type" : "_ZTIPc"
    },
    {
     "referenced_type" : "_ZTIPKc"
    }
   ],
   "return_type" : "_ZTIPc",
   "source_file" : "external/libcxx/include/string.h"
  },
  {
   "function_name" : "strstr",
   "linker_set_key" : "_Z6strstrUa9enable_ifIXLb1EEXLb1EEEPKcS0_",
   "parameters" :
   [
    {
     "referenced_type" : "_ZTIPKc"
    },
    {
     "referenced_type" : "_ZTIPKc"
    }
   ],
   "return_type" : "_ZTIPKc",
   "source_file" : "bionic/libc/include/string.h"
  },
  {
   "function_name" : "strstr",
   "linker_set_key" : "_Z6strstrUa9enable_ifIXLb1EEXLb1EEEPcPKc",
   "parameters" :
   [
    {
     "referenced_type" : "_ZTIPc"
    },
    {
     "referenced_type" : "_ZTIPKc"
    }
   ],
   "return_type" : "_ZTIPc",
   "source_file" : "bionic/libc/include/string.h"
  },
  {
   "function_name" : "tgamma",
   "linker_set_key" : "_Z6tgammae",
   "parameters" :
   [
    {
     "referenced_type" : "_ZTIe"
    }
   ],
   "return_type" : "_ZTIe",
   "source_file" : "external/libcxx/include/math.h"
  },
  {
   "function_name" : "tgamma",
   "linker_set_key" : "_Z6tgammaf",
   "parameters" :
   [
    {
     "referenced_type" : "_ZTIf"
    }
   ],
   "return_type" : "_ZTIf",
   "source_file" : "external/libcxx/include/math.h"
  },
  {
   "function_name" : "wcschr",
   "linker_set_key" : "_Z6wcschrUa9enable_ifIXLb1EEEPKww",
   "parameters" :
   [
    {
     "referenced_type" : "_ZTIPKw"
    },
    {
     "referenced_type" : "_ZTIw"
    }
   ],
   "return_type" : "_ZTIPKw",
   "source_file" : "external/libcxx/include/wchar.h"
  },
  {
   "function_name" : "wcschr",
   "linker_set_key" : "_Z6wcschrUa9enable_ifIXLb1EEEPww",
   "parameters" :
   [
    {
     "referenced_type" : "_ZTIPw"
    },
    {
     "referenced_type" : "_ZTIw"
    }
   ],
   "return_type" : "_ZTIPw",
   "source_file" : "external/libcxx/include/wchar.h"
  },
  {
   "function_name" : "wcsstr",
   "linker_set_key" : "_Z6wcsstrUa9enable_ifIXLb1EEEPKwS0_",
   "parameters" :
   [
    {
     "referenced_type" : "_ZTIPKw"
    },
    {
     "referenced_type" : "_ZTIPKw"
    }
   ],
   "return_type" : "_ZTIPKw",
   "source_file" : "external/libcxx/include/wchar.h"
  },
  {
   "function_name" : "wcsstr",
   "linker_set_key" : "_Z6wcsstrUa9enable_ifIXLb1EEEPwPKw",
   "parameters" :
   [
    {
     "referenced_type" : "_ZTIPw"
    },
    {
     "referenced_type" : "_ZTIPKw"
    }
   ],
   "return_type" : "_ZTIPw",
   "source_file" : "external/libcxx/include/wchar.h"
  },
  {
   "function_name" : "llround",
   "linker_set_key" : "_Z7llrounde",
   "parameters" :
   [
    {
     "referenced_type" : "_ZTIe"
    }
   ],
   "return_type" : "_ZTIx",
   "source_file" : "external/libcxx/include/math.h"
  },
  {
   "function_name" : "llround",
   "linker_set_key" : "_Z7llroundf",
   "parameters" :
   [
    {
     "referenced_type" : "_ZTIf"
    }
   ],
   "return_type" : "_ZTIx",
   "source_file" : "external/libcxx/include/math.h"
  },
  {
   "function_name" : "scalbln",
   "linker_set_key" : "_Z7scalblnel",
   "parameters" :
   [
    {
     "referenced_type" : "_ZTIe"
    },
    {
     "referenced_type" : "_ZTIl"
    }
   ],
   "return_type" : "_ZTIe",
   "source_file" : "external/libcxx/include/math.h"
  },
  {
   "function_name" : "scalbln",
   "linker_set_key" : "_Z7scalblnfl",
   "parameters" :
   [
    {
     "referenced_type" : "_ZTIf"
    },
    {
     "referenced_type" : "_ZTIl"
    }
   ],
   "return_type" : "_ZTIf",
   "source_file" : "external/libcxx/include/math.h"
  },
  {
   "function_name" : "strpbrk",
   "linker_set_key" : "_Z7strpbrkUa9enable_ifIXLb1EEEPKcS0_",
   "parameters" :
   [
    {
     "referenced_type" : "_ZTIPKc"
    },
    {
     "referenced_type" : "_ZTIPKc"
    }
   ],
   "return_type" : "_ZTIPKc",
   "source_file" : "external/libcxx/include/string.h"
  },
  {
   "function_name" : "strpbrk",
   "linker_set_key" : "_Z7strpbrkUa9enable_ifIXLb1EEEPcPKc",
   "parameters" :
   [
    {
     "referenced_type" : "_ZTIPc"
    },
    {
     "referenced_type" : "_ZTIPKc"
    }
   ],
   "return_type" : "_ZTIPc",
   "source_file" : "external/libcxx/include/string.h"
  },
  {
   "function_name" : "strpbrk",
   "linker_set_key" : "_Z7strpbrkUa9enable_ifIXLb1EEXLb1EEEPKcS0_",
   "parameters" :
   [
    {
     "referenced_type" : "_ZTIPKc"
    },
    {
     "referenced_type" : "_ZTIPKc"
    }
   ],
   "return_type" : "_ZTIPKc",
   "source_file" : "bionic/libc/include/string.h"
  },
  {
   "function_name" : "strpbrk",
   "linker_set_key" : "_Z7strpbrkUa9enable_ifIXLb1EEXLb1EEEPcPKc",
   "parameters" :
   [
    {
     "referenced_type" : "_ZTIPc"
    },
    {
     "referenced_type" : "_ZTIPKc"
    }
   ],
   "return_type" : "_ZTIPc",
   "source_file" : "bionic/libc/include/string.h"
  },
  {
   "function_name" : "strrchr",
   "linker_set_key" : "_Z7strrchrUa9enable_ifIXLb1EEEPKci",
   "parameters" :
   [
    {
     "referenced_type" : "_ZTIPKc"
    },
    {
     "referenced_type" : "_ZTIi"
    }
   ],
   "return_type" : "_ZTIPKc",
   "source_file" : "external/libcxx/include/string.h"
  },
  {
   "function_name" : "strrchr",
   "linker_set_key" : "_Z7strrchrUa9enable_ifIXLb1EEEPci",
   "parameters" :
   [
    {
     "referenced_type" : "_ZTIPc"
    },
    {
     "referenced_type" : "_ZTIi"
    }
   ],
   "return_type" : "_ZTIPc",
   "source_file" : "external/libcxx/include/string.h"
  },
  {
   "function_name" : "strrchr",
   "linker_set_key" : "_Z7strrchrUa9enable_ifIXLb1EEXLb1EEEPKcU17pass_object_size1i",
   "parameters" :
   [
    {
     "referenced_type" : "_ZTIKPKc"
    },
    {
     "referenced_type" : "_ZTIi"
    }
   ],
   "return_type" : "_ZTIPKc",
   "source_file" : "bionic/libc/include/string.h"
  },
  {
   "function_name" : "strrchr",
   "linker_set_key" : "_Z7strrchrUa9enable_ifIXLb1EEXLb1EEEPcU17pass_object_size1i",
   "parameters" :
   [
    {
     "referenced_type" : "_ZTIKPc"
    },
    {
     "referenced_type" : "_ZTIi"
    }
   ],
   "return_type" : "_ZTIPc",
   "source_file" : "bionic/libc/include/string.h"
  },
  {
   "function_name" : "wcspbrk",
   "linker_set_key" : "_Z7wcspbrkUa9enable_ifIXLb1EEEPKwS0_",
   "parameters" :
   [
    {
     "referenced_type" : "_ZTIPKw"
    },
    {
     "referenced_type" : "_ZTIPKw"
    }
   ],
   "return_type" : "_ZTIPKw",
   "source_file" : "external/libcxx/include/wchar.h"
  },
  {
   "function_name" : "wcspbrk",
   "linker_set_key" : "_Z7wcspbrkUa9enable_ifIXLb1EEEPwPKw",
   "parameters" :
   [
    {
     "referenced_type" : "_ZTIPw"
    },
    {
     "referenced_type" : "_ZTIPKw"
    }
   ],
   "return_type" : "_ZTIPw",
   "source_file" : "external/libcxx/include/wchar.h"
  },
  {
   "function_name" : "wcsrchr",
   "linker_set_key" : "_Z7wcsrchrUa9enable_ifIXLb1EEEPKww",
   "parameters" :
   [
    {
     "referenced_type" : "_ZTIPKw"
    },
    {
     "referenced_type" : "_ZTIw"
    }
   ],
   "return_type" : "_ZTIPKw",
   "source_file" : "external/libcxx/include/wchar.h"
  },
  {
   "function_name" : "wcsrchr",
   "linker_set_key" : "_Z7wcsrchrUa9enable_ifIXLb1EEEPww",
   "parameters" :
   [
    {
     "referenced_type" : "_ZTIPw"
    },
    {
     "referenced_type" : "_ZTIw"
    }
   ],
   "return_type" : "_ZTIPw",
   "source_file" : "external/libcxx/include/wchar.h"
  },
  {
   "function_name" : "wmemchr",
   "linker_set_key" : "_Z7wmemchrUa9enable_ifIXLb1EEEPKwwm",
   "parameters" :
   [
    {
     "referenced_type" : "_ZTIPKw"
    },
    {
     "referenced_type" : "_ZTIw"
    },
    {
     "referenced_type" : "_ZTIm"
    }
   ],
   "return_type" : "_ZTIPKw",
   "source_file" : "external/libcxx/include/wchar.h"
  },
  {
   "function_name" : "wmemchr",
   "linker_set_key" : "_Z7wmemchrUa9enable_ifIXLb1EEEPwwm",
   "parameters" :
   [
    {
     "referenced_type" : "_ZTIPw"
    },
    {
     "referenced_type" : "_ZTIw"
    },
    {
     "referenced_type" : "_ZTIm"
    }
   ],
   "return_type" : "_ZTIPw",
   "source_file" : "external/libcxx/include/wchar.h"
  },
  {
   "function_name" : "copysign",
   "linker_set_key" : "_Z8copysignee",
   "parameters" :
   [
    {
     "referenced_type" : "_ZTIe"
    },
    {
     "referenced_type" : "_ZTIe"
    }
   ],
   "return_type" : "_ZTIe",
   "source_file" : "external/libcxx/include/math.h"
  },
  {
   "function_name" : "copysign",
   "linker_set_key" : "_Z8copysignff",
   "parameters" :
   [
    {
     "referenced_type" : "_ZTIf"
    },
    {
     "referenced_type" : "_ZTIf"
    }
   ],
   "return_type" : "_ZTIf",
   "source_file" : "external/libcxx/include/math.h"
  },
  {
   "function_name" : "nearbyint",
   "linker_set_key" : "_Z9nearbyinte",
   "parameters" :
   [
    {
     "referenced_type" : "_ZTIe"
    }
   ],
   "return_type" : "_ZTIe",
   "source_file" : "external/libcxx/include/math.h"
  },
  {
   "function_name" : "nearbyint",
   "linker_set_key" : "_Z9nearbyintf",
   "parameters" :
   [
    {
     "referenced_type" : "_ZTIf"
    }
   ],
   "return_type" : "_ZTIf",
   "source_file" : "external/libcxx/include/math.h"
  },
  {
   "function_name" : "nextafter",
   "linker_set_key" : "_Z9nextafteree",
   "parameters" :
   [
    {
     "referenced_type" : "_ZTIe"
    },
    {
     "referenced_type" : "_ZTIe"
    }
   ],
   "return_type" : "_ZTIe",
   "source_file" : "external/libcxx/include/math.h"
  },
  {
   "function_name" : "nextafter",
   "linker_set_key" : "_Z9nextafterff",
   "parameters" :
   [
    {
     "referenced_type" : "_ZTIf"
    },
    {
     "referenced_type" : "_ZTIf"
    }
   ],
   "return_type" : "_ZTIf",
   "source_file" : "external/libcxx/include/math.h"
  },
  {
   "function_name" : "remainder",
   "linker_set_key" : "_Z9remainderee",
   "parameters" :
   [
    {
     "referenced_type" : "_ZTIe"
    },
    {
     "referenced_type" : "_ZTIe"
    }
   ],
   "return_type" : "_ZTIe",
   "source_file" : "external/libcxx/include/math.h"
  },
  {
   "function_name" : "remainder",
   "linker_set_key" : "_Z9remainderff",
   "parameters" :
   [
    {
     "referenced_type" : "_ZTIf"
    },
    {
     "referenced_type" : "_ZTIf"
    }
   ],
   "return_type" : "_ZTIf",
   "source_file" : "external/libcxx/include/math.h"
  },
  {
   "function_name" : "tflite::CpuBackendContext::ClearCaches",
   "linker_set_key" : "_ZN6tflite17CpuBackendContext11ClearCachesEv",
   "parameters" :
   [
    {
     "is_this_ptr" : true,
     "referenced_type" : "_ZTIPN6tflite17CpuBackendContextE"
    }
   ],
   "return_type" : "_ZTIv",
   "source_file" : "external/tensorflow/tensorflow/lite/kernels/cpu_backend_context.h"
  },
  {
   "function_name" : "tflite::CpuBackendContext::CpuInfo::CpuInfo",
   "linker_set_key" : "_ZN6tflite17CpuBackendContext7CpuInfoC1Ev",
   "parameters" :
   [
    {
     "is_this_ptr" : true,
     "referenced_type" : "_ZTIPN6tflite17CpuBackendContext7CpuInfoE"
    }
   ],
   "return_type" : "_ZTIv",
   "source_file" : "external/tensorflow/tensorflow/lite/kernels/cpu_backend_context.h"
  },
  {
   "function_name" : "tflite::CpuBackendContext::CpuInfo::CpuInfo",
   "linker_set_key" : "_ZN6tflite17CpuBackendContext7CpuInfoC2Ev",
   "parameters" :
   [
    {
     "is_this_ptr" : true,
     "referenced_type" : "_ZTIPN6tflite17CpuBackendContext7CpuInfoE"
    }
   ],
   "return_type" : "_ZTIv",
   "source_file" : "external/tensorflow/tensorflow/lite/kernels/cpu_backend_context.h"
  },
  {
   "function_name" : "tflite::ExternalCpuBackendContext::set_internal_backend_context",
   "linker_set_key" : "_ZN6tflite25ExternalCpuBackendContext28set_internal_backend_contextENSt3__110unique_ptrINS_28TfLiteInternalBackendContextENS1_14default_deleteIS3_EEEE",
   "parameters" :
   [
    {
     "is_this_ptr" : true,
     "referenced_type" : "_ZTIPN6tflite25ExternalCpuBackendContextE"
    },
    {
     "referenced_type" : "_ZTINSt3__110unique_ptrIN6tflite28TfLiteInternalBackendContextENS_14default_deleteIS2_EEEE"
    }
   ],
   "return_type" : "_ZTIv",
   "source_file" : "external/tensorflow/tensorflow/lite/external_cpu_backend_context.h"
  },
  {
   "function_name" : "tflite::ExternalCpuBackendContext::~ExternalCpuBackendContext",
   "linker_set_key" : "_ZN6tflite25ExternalCpuBackendContextD1Ev",
   "parameters" :
   [
    {
     "is_this_ptr" : true,
     "referenced_type" : "_ZTIPN6tflite25ExternalCpuBackendContextE"
    }
   ],
   "return_type" : "_ZTIv",
   "source_file" : "external/tensorflow/tensorflow/lite/external_cpu_backend_context.h"
  },
  {
   "function_name" : "tflite::ExternalCpuBackendContext::~ExternalCpuBackendContext",
   "linker_set_key" : "_ZN6tflite25ExternalCpuBackendContextD2Ev",
   "parameters" :
   [
    {
     "is_this_ptr" : true,
     "referenced_type" : "_ZTIPN6tflite25ExternalCpuBackendContextE"
    }
   ],
   "return_type" : "_ZTIv",
   "source_file" : "external/tensorflow/tensorflow/lite/external_cpu_backend_context.h"
  },
  {
   "function_name" : "tflite::TfLiteInternalBackendContext::~TfLiteInternalBackendContext",
   "linker_set_key" : "_ZN6tflite28TfLiteInternalBackendContextD0Ev",
   "parameters" :
   [
    {
     "is_this_ptr" : true,
     "referenced_type" : "_ZTIPN6tflite28TfLiteInternalBackendContextE"
    }
   ],
   "return_type" : "_ZTIv",
   "source_file" : "external/tensorflow/tensorflow/lite/external_cpu_backend_context.h"
  },
  {
   "function_name" : "tflite::TfLiteInternalBackendContext::~TfLiteInternalBackendContext",
   "linker_set_key" : "_ZN6tflite28TfLiteInternalBackendContextD1Ev",
   "parameters" :
   [
    {
     "is_this_ptr" : true,
     "referenced_type" : "_ZTIPN6tflite28TfLiteInternalBackendContextE"
    }
   ],
   "return_type" : "_ZTIv",
   "source_file" : "external/tensorflow/tensorflow/lite/external_cpu_backend_context.h"
  },
  {
   "function_name" : "tflite::TfLiteInternalBackendContext::~TfLiteInternalBackendContext",
   "linker_set_key" : "_ZN6tflite28TfLiteInternalBackendContextD2Ev",
   "parameters" :
   [
    {
     "is_this_ptr" : true,
     "referenced_type" : "_ZTIPN6tflite28TfLiteInternalBackendContextE"
    }
   ],
   "return_type" : "_ZTIv",
   "source_file" : "external/tensorflow/tensorflow/lite/external_cpu_backend_context.h"
  },
  {
   "function_name" : "gemmlowp::DoSomeNOPs",
   "linker_set_key" : "_ZN8gemmlowp10DoSomeNOPsEv",
   "return_type" : "_ZTIi",
   "source_file" : "external/gemmlowp/internal/multi_thread_gemm.h"
  },
  {
   "function_name" : "gemmlowp::KernelBase::~KernelBase",
   "linker_set_key" : "_ZN8gemmlowp10KernelBaseD0Ev",
   "parameters" :
   [
    {
     "is_this_ptr" : true,
     "referenced_type" : "_ZTIPN8gemmlowp10KernelBaseE"
    }
   ],
   "return_type" : "_ZTIv",
   "source_file" : "external/gemmlowp/internal/kernel.h"
  },
  {
   "function_name" : "gemmlowp::KernelBase::~KernelBase",
   "linker_set_key" : "_ZN8gemmlowp10KernelBaseD1Ev",
   "parameters" :
   [
    {
     "is_this_ptr" : true,
     "referenced_type" : "_ZTIPN8gemmlowp10KernelBaseE"
    }
   ],
   "return_type" : "_ZTIv",
   "source_file" : "external/gemmlowp/internal/kernel.h"
  },
  {
   "function_name" : "gemmlowp::KernelBase::~KernelBase",
   "linker_set_key" : "_ZN8gemmlowp10KernelBaseD2Ev",
   "parameters" :
   [
    {
     "is_this_ptr" : true,
     "referenced_type" : "_ZTIPN8gemmlowp10KernelBaseE"
    }
   ],
   "return_type" : "_ZTIv",
   "source_file" : "external/gemmlowp/internal/kernel.h"
  },
  {
   "function_name" : "gemmlowp::MaskIfZero",
   "linker_set_key" : "_ZN8gemmlowp10MaskIfZeroI11__Int16x8_tEET_S2_",
   "parameters" :
   [
    {
     "referenced_type" : "_ZTI11__Int16x8_t"
    }
   ],
   "return_type" : "_ZTI11__Int16x8_t",
   "source_file" : "external/gemmlowp/fixedpoint/fixedpoint_neon.h",
   "template_args" : [ "_ZTI11__Int16x8_t" ]
  },
  {
   "function_name" : "gemmlowp::MaskIfZero",
   "linker_set_key" : "_ZN8gemmlowp10MaskIfZeroI11__Int32x4_tEET_S2_",
   "parameters" :
   [
    {
     "referenced_type" : "_ZTI11__Int32x4_t"
    }
   ],
   "return_type" : "_ZTI11__Int32x4_t",
   "source_file" : "external/gemmlowp/fixedpoint/fixedpoint_neon.h",
   "template_args" : [ "_ZTI11__Int32x4_t" ]
  },
  {
   "function_name" : "gemmlowp::ScopedLock::ScopedLock",
   "linker_set_key" : "_ZN8gemmlowp10ScopedLockC1EPNS_5MutexE",
   "parameters" :
   [
    {
     "is_this_ptr" : true,
     "referenced_type" : "_ZTIPN8gemmlowp10ScopedLockE"
    },
    {
     "referenced_type" : "_ZTIPN8gemmlowp5MutexE"
    }
   ],
   "return_type" : "_ZTIv",
   "source_file" : "external/gemmlowp/profiling/instrumentation.h"
  },
  {
   "function_name" : "gemmlowp::ScopedLock::ScopedLock",
   "linker_set_key" : "_ZN8gemmlowp10ScopedLockC2EPNS_5MutexE",
   "parameters" :
   [
    {
     "is_this_ptr" : true,
     "referenced_type" : "_ZTIPN8gemmlowp10ScopedLockE"
    },
    {
     "referenced_type" : "_ZTIPN8gemmlowp5MutexE"
    }
   ],
   "return_type" : "_ZTIv",
   "source_file" : "external/gemmlowp/profiling/instrumentation.h"
  },
  {
   "function_name" : "gemmlowp::ScopedLock::~ScopedLock",
   "linker_set_key" : "_ZN8gemmlowp10ScopedLockD1Ev",
   "parameters" :
   [
    {
     "is_this_ptr" : true,
     "referenced_type" : "_ZTIPN8gemmlowp10ScopedLockE"
    }
   ],
   "return_type" : "_ZTIv",
   "source_file" : "external/gemmlowp/profiling/instrumentation.h"
  },
  {
   "function_name" : "gemmlowp::ScopedLock::~ScopedLock",
   "linker_set_key" : "_ZN8gemmlowp10ScopedLockD2Ev",
   "parameters" :
   [
    {
     "is_this_ptr" : true,
     "referenced_type" : "_ZTIPN8gemmlowp10ScopedLockE"
    }
   ],
   "return_type" : "_ZTIv",
   "source_file" : "external/gemmlowp/profiling/instrumentation.h"
  },
  {
   "function_name" : "gemmlowp::ShiftRight",
   "linker_set_key" : "_ZN8gemmlowp10ShiftRightI11__Int16x8_tEET_S2_i",
   "parameters" :
   [
    {
     "referenced_type" : "_ZTI11__Int16x8_t"
    },
    {
     "referenced_type" : "_ZTIi"
    }
   ],
   "return_type" : "_ZTI11__Int16x8_t",
   "source_file" : "external/gemmlowp/fixedpoint/fixedpoint_neon.h",
   "template_args" : [ "_ZTI11__Int16x8_t" ]
  },
  {
   "function_name" : "gemmlowp::ShiftRight",
   "linker_set_key" : "_ZN8gemmlowp10ShiftRightI11__Int32x4_tEET_S2_i",
   "parameters" :
   [
    {
     "referenced_type" : "_ZTI11__Int32x4_t"
    },
    {
     "referenced_type" : "_ZTIi"
    }
   ],
   "return_type" : "_ZTI11__Int32x4_t",
   "source_file" : "external/gemmlowp/fixedpoint/fixedpoint_neon.h",
   "template_args" : [ "_ZTI11__Int32x4_t" ]
  },
  {
   "function_name" : "gemmlowp::LoadInt16x4",
   "linker_set_key" : "_ZN8gemmlowp11LoadInt16x4EPKs",
   "parameters" :
   [
    {
     "referenced_type" : "_ZTIPKs"
    }
   ],
   "return_type" : "_ZTI11__Int16x4_t",
   "source_file" : "external/gemmlowp/internal/simd_wrappers_neon.h"
  },
  {
   "function_name" : "gemmlowp::LoadInt16x8",
   "linker_set_key" : "_ZN8gemmlowp11LoadInt16x8EPKs",
   "parameters" :
   [
    {
     "referenced_type" : "_ZTIPKs"
    }
   ],
   "return_type" : "_ZTI11__Int16x8_t",
   "source_file" : "external/gemmlowp/internal/simd_wrappers_neon.h"
  },
  {
   "function_name" : "gemmlowp::LoadInt32x4",
   "linker_set_key" : "_ZN8gemmlowp11LoadInt32x4EPKi",
   "parameters" :
   [
    {
     "referenced_type" : "_ZTIPKi"
    }
   ],
   "return_type" : "_ZTI11__Int32x4_t",
   "source_file" : "external/gemmlowp/internal/simd_wrappers_neon.h"
  },
  {
   "function_name" : "gemmlowp::MaskIfEqual",
   "linker_set_key" : "_ZN8gemmlowp11MaskIfEqualI11__Int16x8_tEET_S2_S2_",
   "parameters" :
   [
    {
     "referenced_type" : "_ZTI11__Int16x8_t"
    },
    {
     "referenced_type" : "_ZTI11__Int16x8_t"
    }
   ],
   "return_type" : "_ZTI11__Int16x8_t",
   "source_file" : "external/gemmlowp/fixedpoint/fixedpoint_neon.h",
   "template_args" : [ "_ZTI11__Int16x8_t" ]
  },
  {
   "function_name" : "gemmlowp::MaskIfEqual",
   "linker_set_key" : "_ZN8gemmlowp11MaskIfEqualI11__Int32x4_tEET_S2_S2_",
   "parameters" :
   [
    {
     "referenced_type" : "_ZTI11__Int32x4_t"
    },
    {
     "referenced_type" : "_ZTI11__Int32x4_t"
    }
   ],
   "return_type" : "_ZTI11__Int32x4_t",
   "source_file" : "external/gemmlowp/fixedpoint/fixedpoint_neon.h",
   "template_args" : [ "_ZTI11__Int32x4_t" ]
  },
  {
   "access" : "private",
   "function_name" : "gemmlowp::WorkersPool::CreateWorkers",
   "linker_set_key" : "_ZN8gemmlowp11WorkersPool13CreateWorkersEm",
   "parameters" :
   [
    {
     "is_this_ptr" : true,
     "referenced_type" : "_ZTIPN8gemmlowp11WorkersPoolE"
    },
    {
     "referenced_type" : "_ZTIm"
    }
   ],
   "return_type" : "_ZTIv",
   "source_file" : "external/gemmlowp/internal/multi_thread_gemm.h"
  },
  {
   "function_name" : "gemmlowp::WorkersPool::LegacyExecuteAndDestroyTasks",
   "linker_set_key" : "_ZN8gemmlowp11WorkersPool28LegacyExecuteAndDestroyTasksERKNSt3__16vectorIPNS_4TaskENS1_9allocatorIS4_EEEE",
   "parameters" :
   [
    {
     "is_this_ptr" : true,
     "referenced_type" : "_ZTIPN8gemmlowp11WorkersPoolE"
    },
    {
     "referenced_type" : "_ZTIRKNSt3__16vectorIPN8gemmlowp4TaskENS_9allocatorIS3_EEEE"
    }
   ],
   "return_type" : "_ZTIv",
   "source_file" : "external/gemmlowp/internal/multi_thread_gemm.h"
  },
  {
   "function_name" : "gemmlowp::WorkersPool::Execute",
   "linker_set_key" : "_ZN8gemmlowp11WorkersPool7ExecuteERKNSt3__16vectorIPNS_4TaskENS1_9allocatorIS4_EEEE",
   "parameters" :
   [
    {
     "is_this_ptr" : true,
     "referenced_type" : "_ZTIPN8gemmlowp11WorkersPoolE"
    },
    {
     "referenced_type" : "_ZTIRKNSt3__16vectorIPN8gemmlowp4TaskENS_9allocatorIS3_EEEE"
    }
   ],
   "return_type" : "_ZTIv",
   "source_file" : "external/gemmlowp/internal/multi_thread_gemm.h"
  },
  {
   "function_name" : "gemmlowp::WorkersPool::WorkersPool",
   "linker_set_key" : "_ZN8gemmlowp11WorkersPoolC1Ev",
   "parameters" :
   [
    {
     "is_this_ptr" : true,
     "referenced_type" : "_ZTIPN8gemmlowp11WorkersPoolE"
    }
   ],
   "return_type" : "_ZTIv",
   "source_file" : "external/gemmlowp/internal/multi_thread_gemm.h"
  },
  {
   "function_name" : "gemmlowp::WorkersPool::WorkersPool",
   "linker_set_key" : "_ZN8gemmlowp11WorkersPoolC2Ev",
   "parameters" :
   [
    {
     "is_this_ptr" : true,
     "referenced_type" : "_ZTIPN8gemmlowp11WorkersPoolE"
    }
   ],
   "return_type" : "_ZTIv",
   "source_file" : "external/gemmlowp/internal/multi_thread_gemm.h"
  },
  {
   "function_name" : "gemmlowp::WorkersPool::~WorkersPool",
   "linker_set_key" : "_ZN8gemmlowp11WorkersPoolD1Ev",
   "parameters" :
   [
    {
     "is_this_ptr" : true,
     "referenced_type" : "_ZTIPN8gemmlowp11WorkersPoolE"
    }
   ],
   "return_type" : "_ZTIv",
   "source_file" : "external/gemmlowp/internal/multi_thread_gemm.h"
  },
  {
   "function_name" : "gemmlowp::WorkersPool::~WorkersPool",
   "linker_set_key" : "_ZN8gemmlowp11WorkersPoolD2Ev",
   "parameters" :
   [
    {
     "is_this_ptr" : true,
     "referenced_type" : "_ZTIPN8gemmlowp11WorkersPoolE"
    }
   ],
   "return_type" : "_ZTIv",
   "source_file" : "external/gemmlowp/internal/multi_thread_gemm.h"
  },
  {
   "function_name" : "gemmlowp::MulByRhsLane",
   "linker_set_key" : "_ZN8gemmlowp12MulByRhsLaneILi0EEE11__Int32x4_tS1_S1_",
   "parameters" :
   [
    {
     "referenced_type" : "_ZTI11__Int32x4_t"
    },
    {
     "referenced_type" : "_ZTI11__Int32x4_t"
    }
   ],
   "return_type" : "_ZTI11__Int32x4_t",
   "source_file" : "external/gemmlowp/internal/simd_wrappers_neon.h"
  },
  {
   "function_name" : "gemmlowp::MulByRhsLane",
   "linker_set_key" : "_ZN8gemmlowp12MulByRhsLaneILi1EEE11__Int32x4_tS1_S1_",
   "parameters" :
   [
    {
     "referenced_type" : "_ZTI11__Int32x4_t"
    },
    {
     "referenced_type" : "_ZTI11__Int32x4_t"
    }
   ],
   "return_type" : "_ZTI11__Int32x4_t",
   "source_file" : "external/gemmlowp/internal/simd_wrappers_neon.h"
  },
  {
   "function_name" : "gemmlowp::MulByRhsLane",
   "linker_set_key" : "_ZN8gemmlowp12MulByRhsLaneILi2EEE11__Int32x4_tS1_S1_",
   "parameters" :
   [
    {
     "referenced_type" : "_ZTI11__Int32x4_t"
    },
    {
     "referenced_type" : "_ZTI11__Int32x4_t"
    }
   ],
   "return_type" : "_ZTI11__Int32x4_t",
   "source_file" : "external/gemmlowp/internal/simd_wrappers_neon.h"
  },
  {
   "function_name" : "gemmlowp::MulByRhsLane",
   "linker_set_key" : "_ZN8gemmlowp12MulByRhsLaneILi3EEE11__Int32x4_tS1_S1_",
   "parameters" :
   [
    {
     "referenced_type" : "_ZTI11__Int32x4_t"
    },
    {
     "referenced_type" : "_ZTI11__Int32x4_t"
    }
   ],
   "return_type" : "_ZTI11__Int32x4_t",
   "source_file" : "external/gemmlowp/internal/simd_wrappers_neon.h"
  },
  {
   "function_name" : "gemmlowp::PackedResult::Map",
   "linker_set_key" : "_ZN8gemmlowp12PackedResult3MapEv",
   "parameters" :
   [
    {
     "is_this_ptr" : true,
     "referenced_type" : "_ZTIPN8gemmlowp12PackedResultE"
    }
   ],
   "return_type" : "_ZTIN8gemmlowp9MatrixMapIiLNS_8MapOrderE0EEE",
   "source_file" : "external/gemmlowp/internal/unpack.h"
  },
  {
   "function_name" : "gemmlowp::PackedResult::PackedResult",
   "linker_set_key" : "_ZN8gemmlowp12PackedResultC1EPNS_9AllocatorERKNS_11BlockParamsE",
   "parameters" :
   [
    {
     "is_this_ptr" : true,
     "referenced_type" : "_ZTIPN8gemmlowp12PackedResultE"
    },
    {
     "referenced_type" : "_ZTIPN8gemmlowp9AllocatorE"
    },
    {
     "referenced_type" : "_ZTIRKN8gemmlowp11BlockParamsE"
    }
   ],
   "return_type" : "_ZTIv",
   "source_file" : "external/gemmlowp/internal/unpack.h"
  },
  {
   "function_name" : "gemmlowp::PackedResult::PackedResult",
   "linker_set_key" : "_ZN8gemmlowp12PackedResultC2EPNS_9AllocatorERKNS_11BlockParamsE",
   "parameters" :
   [
    {
     "is_this_ptr" : true,
     "referenced_type" : "_ZTIPN8gemmlowp12PackedResultE"
    },
    {
     "referenced_type" : "_ZTIPN8gemmlowp9AllocatorE"
    },
    {
     "referenced_type" : "_ZTIRKN8gemmlowp11BlockParamsE"
    }
   ],
   "return_type" : "_ZTIv",
   "source_file" : "external/gemmlowp/internal/unpack.h"
  },
  {
   "function_name" : "gemmlowp::PackedResult::~PackedResult",
   "linker_set_key" : "_ZN8gemmlowp12PackedResultD1Ev",
   "parameters" :
   [
    {
     "is_this_ptr" : true,
     "referenced_type" : "_ZTIPN8gemmlowp12PackedResultE"
    }
   ],
   "return_type" : "_ZTIv",
   "source_file" : "external/gemmlowp/internal/unpack.h"
  },
  {
   "function_name" : "gemmlowp::PackedResult::~PackedResult",
   "linker_set_key" : "_ZN8gemmlowp12PackedResultD2Ev",
   "parameters" :
   [
    {
     "is_this_ptr" : true,
     "referenced_type" : "_ZTIPN8gemmlowp12PackedResultE"
    }
   ],
   "return_type" : "_ZTIv",
   "source_file" : "external/gemmlowp/internal/unpack.h"
  },
  {
   "function_name" : "gemmlowp::StoreInt16x4",
   "linker_set_key" : "_ZN8gemmlowp12StoreInt16x4EPs11__Int16x4_t",
   "parameters" :
   [
    {
     "referenced_type" : "_ZTIPs"
    },
    {
     "referenced_type" : "_ZTI11__Int16x4_t"
    }
   ],
   "return_type" : "_ZTIv",
   "source_file" : "external/gemmlowp/internal/simd_wrappers_neon.h"
  },
  {
   "function_name" : "gemmlowp::StoreInt16x8",
   "linker_set_key" : "_ZN8gemmlowp12StoreInt16x8EPs11__Int16x8_t",
   "parameters" :
   [
    {
     "referenced_type" : "_ZTIPs"
    },
    {
     "referenced_type" : "_ZTI11__Int16x8_t"
    }
   ],
   "return_type" : "_ZTIv",
   "source_file" : "external/gemmlowp/internal/simd_wrappers_neon.h"
  },
  {
   "function_name" : "gemmlowp::StoreInt32x4",
   "linker_set_key" : "_ZN8gemmlowp12StoreInt32x4EPi11__Int32x4_t",
   "parameters" :
   [
    {
     "referenced_type" : "_ZTIPi"
    },
    {
     "referenced_type" : "_ZTI11__Int32x4_t"
    }
   ],
   "return_type" : "_ZTIv",
   "source_file" : "external/gemmlowp/internal/simd_wrappers_neon.h"
  },
  {
   "function_name" : "gemmlowp::aligned_free",
   "linker_set_key" : "_ZN8gemmlowp12aligned_freeEPv",
   "parameters" :
   [
    {
     "referenced_type" : "_ZTIPv"
    }
   ],
   "return_type" : "_ZTIv",
   "source_file" : "external/gemmlowp/internal/platform.h"
  },
  {
   "function_name" : "gemmlowp::CellOrderName",
   "linker_set_key" : "_ZN8gemmlowp13CellOrderNameENS_9CellOrderE",
   "parameters" :
   [
    {
     "referenced_type" : "_ZTIN8gemmlowp9CellOrderE"
    }
   ],
   "return_type" : "_ZTIPKc",
   "source_file" : "external/gemmlowp/internal/kernel.h"
  },
  {
   "function_name" : "gemmlowp::GlobalMutexes::EightBitIntGemm",
   "linker_set_key" : "_ZN8gemmlowp13GlobalMutexes15EightBitIntGemmEv",
   "return_type" : "_ZTIPN8gemmlowp5MutexE",
   "source_file" : "external/gemmlowp/profiling/instrumentation.h"
  },
  {
   "function_name" : "gemmlowp::GlobalMutexes::Profiler",
   "linker_set_key" : "_ZN8gemmlowp13GlobalMutexes8ProfilerEv",
   "return_type" : "_ZTIPN8gemmlowp5MutexE",
   "source_file" : "external/gemmlowp/profiling/instrumentation.h"
  },
  {
   "function_name" : "gemmlowp::MaskIfNonZero",
   "linker_set_key" : "_ZN8gemmlowp13MaskIfNonZeroI11__Int16x8_tEET_S2_",
   "parameters" :
   [
    {
     "referenced_type" : "_ZTI11__Int16x8_t"
    }
   ],
   "return_type" : "_ZTI11__Int16x8_t",
   "source_file" : "external/gemmlowp/fixedpoint/fixedpoint_neon.h",
   "template_args" : [ "_ZTI11__Int16x8_t" ]
  },
  {
   "function_name" : "gemmlowp::MaskIfNonZero",
   "linker_set_key" : "_ZN8gemmlowp13MaskIfNonZeroI11__Int32x4_tEET_S2_",
   "parameters" :
   [
    {
     "referenced_type" : "_ZTI11__Int32x4_t"
    }
   ],
   "return_type" : "_ZTI11__Int32x4_t",
   "source_file" : "external/gemmlowp/fixedpoint/fixedpoint_neon.h",
   "template_args" : [ "_ZTI11__Int32x4_t" ]
  },
  {
   "function_name" : "gemmlowp::SaturatingAdd",
   "linker_set_key" : "_ZN8gemmlowp13SaturatingAddI11__Int16x8_tEET_S2_S2_",
   "parameters" :
   [
    {
     "referenced_type" : "_ZTI11__Int16x8_t"
    },
    {
     "referenced_type" : "_ZTI11__Int16x8_t"
    }
   ],
   "return_type" : "_ZTI11__Int16x8_t",
   "source_file" : "external/gemmlowp/fixedpoint/fixedpoint_neon.h",
   "template_args" : [ "_ZTI11__Int16x8_t" ]
  },
  {
   "function_name" : "gemmlowp::SaturatingAdd",
   "linker_set_key" : "_ZN8gemmlowp13SaturatingAddIaEET_S1_S1_",
   "parameters" :
   [
    {
     "referenced_type" : "_ZTIa"
    },
    {
     "referenced_type" : "_ZTIa"
    }
   ],
   "return_type" : "_ZTIa",
   "source_file" : "external/gemmlowp/fixedpoint/fixedpoint.h",
   "template_args" : [ "_ZTIa" ]
  },
  {
   "function_name" : "gemmlowp::SaturatingAdd",
   "linker_set_key" : "_ZN8gemmlowp13SaturatingAddIsEET_S1_S1_",
   "parameters" :
   [
    {
     "referenced_type" : "_ZTIs"
    },
    {
     "referenced_type" : "_ZTIs"
    }
   ],
   "return_type" : "_ZTIs",
   "source_file" : "external/gemmlowp/fixedpoint/fixedpoint.h",
   "template_args" : [ "_ZTIs" ]
  },
  {
   "function_name" : "gemmlowp::aligned_alloc",
   "linker_set_key" : "_ZN8gemmlowp13aligned_allocEmm",
   "parameters" :
   [
    {
     "referenced_type" : "_ZTIm"
    },
    {
     "referenced_type" : "_ZTIm"
    }
   ],
   "return_type" : "_ZTIPv",
   "source_file" : "external/gemmlowp/internal/platform.h"
  },
  {
   "function_name" : "gemmlowp::MaskIfLessThan",
   "linker_set_key" : "_ZN8gemmlowp14MaskIfLessThanI11__Int16x8_tEET_S2_S2_",
   "parameters" :
   [
    {
     "referenced_type" : "_ZTI11__Int16x8_t"
    },
    {
     "referenced_type" : "_ZTI11__Int16x8_t"
    }
   ],
   "return_type" : "_ZTI11__Int16x8_t",
   "source_file" : "external/gemmlowp/fixedpoint/fixedpoint_neon.h",
   "template_args" : [ "_ZTI11__Int16x8_t" ]
  },
  {
   "function_name" : "gemmlowp::MaskIfLessThan",
   "linker_set_key" : "_ZN8gemmlowp14MaskIfLessThanI11__Int32x4_tEET_S2_S2_",
   "parameters" :
   [
    {
     "referenced_type" : "_ZTI11__Int32x4_t"
    },
    {
     "referenced_type" : "_ZTI11__Int32x4_t"
    }
   ],
   "return_type" : "_ZTI11__Int32x4_t",
   "source_file" : "external/gemmlowp/fixedpoint/fixedpoint_neon.h",
   "template_args" : [ "_ZTI11__Int32x4_t" ]
  },
  {
   "function_name" : "gemmlowp::MaskIfNotEqual",
   "linker_set_key" : "_ZN8gemmlowp14MaskIfNotEqualI11__Int16x8_tEET_S2_S2_",
   "parameters" :
   [
    {
     "referenced_type" : "_ZTI11__Int16x8_t"
    },
    {
     "referenced_type" : "_ZTI11__Int16x8_t"
    }
   ],
   "return_type" : "_ZTI11__Int16x8_t",
   "source_file" : "external/gemmlowp/fixedpoint/fixedpoint_neon.h",
   "template_args" : [ "_ZTI11__Int16x8_t" ]
  },
  {
   "function_name" : "gemmlowp::MaskIfNotEqual",
   "linker_set_key" : "_ZN8gemmlowp14MaskIfNotEqualI11__Int32x4_tEET_S2_S2_",
   "parameters" :
   [
    {
     "referenced_type" : "_ZTI11__Int32x4_t"
    },
    {
     "referenced_type" : "_ZTI11__Int32x4_t"
    }
   ],
   "return_type" : "_ZTI11__Int32x4_t",
   "source_file" : "external/gemmlowp/fixedpoint/fixedpoint_neon.h",
   "template_args" : [ "_ZTI11__Int32x4_t" ]
  },
  {
   "function_name" : "gemmlowp::TransposeTuple",
   "linker_set_key" : "_ZN8gemmlowp14TransposeTupleERKNSt3__15tupleIJEEE",
   "parameters" :
   [
    {
     "referenced_type" : "_ZTIRKNSt3__15tupleIJEEE"
    }
   ],
   "return_type" : "_ZTINSt3__15tupleIJEEE",
   "source_file" : "external/gemmlowp/internal/dispatch_gemm_shape.h"
  },
  {
   "function_name" : "gemmlowp::BlockingCounter::DecrementCount",
   "linker_set_key" : "_ZN8gemmlowp15BlockingCounter14DecrementCountEv",
   "parameters" :
   [
    {
     "is_this_ptr" : true,
     "referenced_type" : "_ZTIPN8gemmlowp15BlockingCounterE"
    }
   ],
   "return_type" : "_ZTIb",
   "source_file" : "external/gemmlowp/internal/multi_thread_gemm.h"
  },
  {
   "function_name" : "gemmlowp::BlockingCounter::Wait",
   "linker_set_key" : "_ZN8gemmlowp15BlockingCounter4WaitEv",
   "parameters" :
   [
    {
     "is_this_ptr" : true,
     "referenced_type" : "_ZTIPN8gemmlowp15BlockingCounterE"
    }
   ],
   "return_type" : "_ZTIv",
   "source_file" : "external/gemmlowp/internal/multi_thread_gemm.h"
  },
  {
   "function_name" : "gemmlowp::BlockingCounter::Reset",
   "linker_set_key" : "_ZN8gemmlowp15BlockingCounter5ResetEm",
   "parameters" :
   [
    {
     "is_this_ptr" : true,
     "referenced_type" : "_ZTIPN8gemmlowp15BlockingCounterE"
    },
    {
     "referenced_type" : "_ZTIm"
    }
   ],
   "return_type" : "_ZTIv",
   "source_file" : "external/gemmlowp/internal/multi_thread_gemm.h"
  },
  {
   "function_name" : "gemmlowp::BlockingCounter::BlockingCounter",
   "linker_set_key" : "_ZN8gemmlowp15BlockingCounterC1Ev",
   "parameters" :
   [
    {
     "is_this_ptr" : true,
     "referenced_type" : "_ZTIPN8gemmlowp15BlockingCounterE"
    }
   ],
   "return_type" : "_ZTIv",
   "source_file" : "external/gemmlowp/internal/multi_thread_gemm.h"
  },
  {
   "function_name" : "gemmlowp::BlockingCounter::BlockingCounter",
   "linker_set_key" : "_ZN8gemmlowp15BlockingCounterC2Ev",
   "parameters" :
   [
    {
     "is_this_ptr" : true,
     "referenced_type" : "_ZTIPN8gemmlowp15BlockingCounterE"
    }
   ],
   "return_type" : "_ZTIv",
   "source_file" : "external/gemmlowp/internal/multi_thread_gemm.h"
  },
  {
   "function_name" : "gemmlowp::RoundingHalfSum",
   "linker_set_key" : "_ZN8gemmlowp15RoundingHalfSumI11__Int16x8_tEET_S2_S2_",
   "parameters" :
   [
    {
     "referenced_type" : "_ZTI11__Int16x8_t"
    },
    {
     "referenced_type" : "_ZTI11__Int16x8_t"
    }
   ],
   "return_type" : "_ZTI11__Int16x8_t",
   "source_file" : "external/gemmlowp/fixedpoint/fixedpoint_neon.h",
   "template_args" : [ "_ZTI11__Int16x8_t" ]
  },
  {
   "function_name" : "gemmlowp::RoundingHalfSum",
   "linker_set_key" : "_ZN8gemmlowp15RoundingHalfSumI11__Int32x4_tEET_S2_S2_",
   "parameters" :
   [
    {
     "referenced_type" : "_ZTI11__Int32x4_t"
    },
    {
     "referenced_type" : "_ZTI11__Int32x4_t"
    }
   ],
   "return_type" : "_ZTI11__Int32x4_t",
   "source_file" : "external/gemmlowp/fixedpoint/fixedpoint_neon.h",
   "template_args" : [ "_ZTI11__Int32x4_t" ]
  },
  {
   "function_name" : "gemmlowp::RoundingHalfSum",
   "linker_set_key" : "_ZN8gemmlowp15RoundingHalfSumIiEET_S1_S1_",
   "parameters" :
   [
    {
     "referenced_type" : "_ZTIi"
    },
    {
     "referenced_type" : "_ZTIi"
    }
   ],
   "return_type" : "_ZTIi",
   "source_file" : "external/gemmlowp/fixedpoint/fixedpoint.h",
   "template_args" : [ "_ZTIi" ]
  },
  {
   "function_name" : "gemmlowp::RoundingHalfSum",
   "linker_set_key" : "_ZN8gemmlowp15RoundingHalfSumIsEET_S1_S1_",
   "parameters" :
   [
    {
     "referenced_type" : "_ZTIs"
    },
    {
     "referenced_type" : "_ZTIs"
    }
   ],
   "return_type" : "_ZTIs",
   "source_file" : "external/gemmlowp/fixedpoint/fixedpoint.h",
   "template_args" : [ "_ZTIs" ]
  },
  {
   "function_name" : "gemmlowp::SelectUsingMask",
   "linker_set_key" : "_ZN8gemmlowp15SelectUsingMaskI11__Int16x8_tEET_S2_S2_S2_",
   "parameters" :
   [
    {
     "referenced_type" : "_ZTI11__Int16x8_t"
    },
    {
     "referenced_type" : "_ZTI11__Int16x8_t"
    },
    {
     "referenced_type" : "_ZTI11__Int16x8_t"
    }
   ],
   "return_type" : "_ZTI11__Int16x8_t",
   "source_file" : "external/gemmlowp/fixedpoint/fixedpoint_neon.h",
   "template_args" : [ "_ZTI11__Int16x8_t" ]
  },
  {
   "function_name" : "gemmlowp::SelectUsingMask",
   "linker_set_key" : "_ZN8gemmlowp15SelectUsingMaskI11__Int32x4_tEET_S2_S2_S2_",
   "parameters" :
   [
    {
     "referenced_type" : "_ZTI11__Int32x4_t"
    },
    {
     "referenced_type" : "_ZTI11__Int32x4_t"
    },
    {
     "referenced_type" : "_ZTI11__Int32x4_t"
    }
   ],
   "return_type" : "_ZTI11__Int32x4_t",
   "source_file" : "external/gemmlowp/fixedpoint/fixedpoint_neon.h",
   "template_args" : [ "_ZTI11__Int32x4_t" ]
  },
  {
   "function_name" : "gemmlowp::BroadcastAddImpl<gemmlowp::RegisterBlock<int, 1, 4>, gemmlowp::RegisterBlock<int, 1, 1>>::Run",
   "linker_set_key" : "_ZN8gemmlowp16BroadcastAddImplINS_13RegisterBlockIiLi1ELi4EEENS1_IiLi1ELi1EEEE3RunERKS2_RKS3_",
   "parameters" :
   [
    {
     "referenced_type" : "_ZTIRKN8gemmlowp13RegisterBlockIiLi1ELi4EEE"
    },
    {
     "referenced_type" : "_ZTIRKN8gemmlowp13RegisterBlockIiLi1ELi1EEE"
    }
   ],
   "return_type" : "_ZTIN8gemmlowp13RegisterBlockIiLi1ELi4EEE",
   "source_file" : "external/gemmlowp/internal/simd_wrappers_common_neon_sse.h"
  },
  {
   "function_name" : "gemmlowp::BroadcastAddImpl<gemmlowp::RegisterBlock<int, 1, 4>, gemmlowp::RegisterBlock<int, 1, 4>>::Run",
   "linker_set_key" : "_ZN8gemmlowp16BroadcastAddImplINS_13RegisterBlockIiLi1ELi4EEES2_E3RunERKS2_S5_",
   "parameters" :
   [
    {
     "referenced_type" : "_ZTIRKN8gemmlowp13RegisterBlockIiLi1ELi4EEE"
    },
    {
     "referenced_type" : "_ZTIRKN8gemmlowp13RegisterBlockIiLi1ELi4EEE"
    }
   ],
   "return_type" : "_ZTIN8gemmlowp13RegisterBlockIiLi1ELi4EEE",
   "source_file" : "external/gemmlowp/internal/simd_wrappers_common_neon_sse.h"
  },
  {
   "function_name" : "gemmlowp::BroadcastAddImpl<gemmlowp::RegisterBlock<int, 1, 8>, gemmlowp::RegisterBlock<int, 1, 1>>::Run",
   "linker_set_key" : "_ZN8gemmlowp16BroadcastAddImplINS_13RegisterBlockIiLi1ELi8EEENS1_IiLi1ELi1EEEE3RunERKS2_RKS3_",
   "parameters" :
   [
    {
     "referenced_type" : "_ZTIRKN8gemmlowp13RegisterBlockIiLi1ELi8EEE"
    },
    {
     "referenced_type" : "_ZTIRKN8gemmlowp13RegisterBlockIiLi1ELi1EEE"
    }
   ],
   "return_type" : "_ZTIN8gemmlowp13RegisterBlockIiLi1ELi8EEE",
   "source_file" : "external/gemmlowp/internal/simd_wrappers_common_neon_sse.h"
  },
  {
   "function_name" : "gemmlowp::BroadcastAddImpl<gemmlowp::RegisterBlock<int, 1, 8>, gemmlowp::RegisterBlock<int, 1, 8>>::Run",
   "linker_set_key" : "_ZN8gemmlowp16BroadcastAddImplINS_13RegisterBlockIiLi1ELi8EEES2_E3RunERKS2_S5_",
   "parameters" :
   [
    {
     "referenced_type" : "_ZTIRKN8gemmlowp13RegisterBlockIiLi1ELi8EEE"
    },
    {
     "referenced_type" : "_ZTIRKN8gemmlowp13RegisterBlockIiLi1ELi8EEE"
    }
   ],
   "return_type" : "_ZTIN8gemmlowp13RegisterBlockIiLi1ELi8EEE",
   "source_file" : "external/gemmlowp/internal/simd_wrappers_common_neon_sse.h"
  },
  {
   "function_name" : "gemmlowp::BroadcastAddImpl<gemmlowp::RegisterBlock<int, 4, 1>, gemmlowp::RegisterBlock<int, 1, 1>>::Run",
   "linker_set_key" : "_ZN8gemmlowp16BroadcastAddImplINS_13RegisterBlockIiLi4ELi1EEENS1_IiLi1ELi1EEEE3RunERKS2_RKS3_",
   "parameters" :
   [
    {
     "referenced_type" : "_ZTIRKN8gemmlowp13RegisterBlockIiLi4ELi1EEE"
    },
    {
     "referenced_type" : "_ZTIRKN8gemmlowp13RegisterBlockIiLi1ELi1EEE"
    }
   ],
   "return_type" : "_ZTIN8gemmlowp13RegisterBlockIiLi4ELi1EEE",
   "source_file" : "external/gemmlowp/internal/simd_wrappers_common_neon_sse.h"
  },
  {
   "function_name" : "gemmlowp::BroadcastAddImpl<gemmlowp::RegisterBlock<int, 4, 1>, gemmlowp::RegisterBlock<int, 4, 1>>::Run",
   "linker_set_key" : "_ZN8gemmlowp16BroadcastAddImplINS_13RegisterBlockIiLi4ELi1EEES2_E3RunERKS2_S5_",
   "parameters" :
   [
    {
     "referenced_type" : "_ZTIRKN8gemmlowp13RegisterBlockIiLi4ELi1EEE"
    },
    {
     "referenced_type" : "_ZTIRKN8gemmlowp13RegisterBlockIiLi4ELi1EEE"
    }
   ],
   "return_type" : "_ZTIN8gemmlowp13RegisterBlockIiLi4ELi1EEE",
   "source_file" : "external/gemmlowp/internal/simd_wrappers_common_neon_sse.h"
  },
  {
   "function_name" : "gemmlowp::BroadcastAddImpl<gemmlowp::RegisterBlock<int, 4, 4>, gemmlowp::RegisterBlock<int, 1, 4>>::Run",
   "linker_set_key" : "_ZN8gemmlowp16BroadcastAddImplINS_13RegisterBlockIiLi4ELi4EEENS1_IiLi1ELi4EEEE3RunERKS2_RKS3_",
   "parameters" :
   [
    {
     "referenced_type" : "_ZTIRKN8gemmlowp13RegisterBlockIiLi4ELi4EEE"
    },
    {
     "referenced_type" : "_ZTIRKN8gemmlowp13RegisterBlockIiLi1ELi4EEE"
    }
   ],
   "return_type" : "_ZTIN8gemmlowp13RegisterBlockIiLi4ELi4EEE",
   "source_file" : "external/gemmlowp/internal/simd_wrappers_common_neon_sse.h"
  },
  {
   "function_name" : "gemmlowp::BroadcastAddImpl<gemmlowp::RegisterBlock<int, 4, 4>, gemmlowp::RegisterBlock<int, 4, 1>>::Run",
   "linker_set_key" : "_ZN8gemmlowp16BroadcastAddImplINS_13RegisterBlockIiLi4ELi4EEENS1_IiLi4ELi1EEEE3RunERKS2_RKS3_",
   "parameters" :
   [
    {
     "referenced_type" : "_ZTIRKN8gemmlowp13RegisterBlockIiLi4ELi4EEE"
    },
    {
     "referenced_type" : "_ZTIRKN8gemmlowp13RegisterBlockIiLi4ELi1EEE"
    }
   ],
   "return_type" : "_ZTIN8gemmlowp13RegisterBlockIiLi4ELi4EEE",
   "source_file" : "external/gemmlowp/internal/simd_wrappers_common_neon_sse.h"
  },
  {
   "function_name" : "gemmlowp::BroadcastAddImpl<gemmlowp::RegisterBlock<int, 8, 1>, gemmlowp::RegisterBlock<int, 1, 1>>::Run",
   "linker_set_key" : "_ZN8gemmlowp16BroadcastAddImplINS_13RegisterBlockIiLi8ELi1EEENS1_IiLi1ELi1EEEE3RunERKS2_RKS3_",
   "parameters" :
   [
    {
     "referenced_type" : "_ZTIRKN8gemmlowp13RegisterBlockIiLi8ELi1EEE"
    },
    {
     "referenced_type" : "_ZTIRKN8gemmlowp13RegisterBlockIiLi1ELi1EEE"
    }
   ],
   "return_type" : "_ZTIN8gemmlowp13RegisterBlockIiLi8ELi1EEE",
   "source_file" : "external/gemmlowp/internal/simd_wrappers_common_neon_sse.h"
  },
  {
   "function_name" : "gemmlowp::BroadcastAddImpl<gemmlowp::RegisterBlock<int, 8, 1>, gemmlowp::RegisterBlock<int, 8, 1>>::Run",
   "linker_set_key" : "_ZN8gemmlowp16BroadcastAddImplINS_13RegisterBlockIiLi8ELi1EEES2_E3RunERKS2_S5_",
   "parameters" :
   [
    {
     "referenced_type" : "_ZTIRKN8gemmlowp13RegisterBlockIiLi8ELi1EEE"
    },
    {
     "referenced_type" : "_ZTIRKN8gemmlowp13RegisterBlockIiLi8ELi1EEE"
    }
   ],
   "return_type" : "_ZTIN8gemmlowp13RegisterBlockIiLi8ELi1EEE",
   "source_file" : "external/gemmlowp/internal/simd_wrappers_common_neon_sse.h"
  },
  {
   "function_name" : "gemmlowp::BroadcastAddImpl<gemmlowp::RegisterBlock<int, 8, 4>, gemmlowp::RegisterBlock<int, 1, 4>>::Run",
   "linker_set_key" : "_ZN8gemmlowp16BroadcastAddImplINS_13RegisterBlockIiLi8ELi4EEENS1_IiLi1ELi4EEEE3RunERKS2_RKS3_",
   "parameters" :
   [
    {
     "referenced_type" : "_ZTIRKN8gemmlowp13RegisterBlockIiLi8ELi4EEE"
    },
    {
     "referenced_type" : "_ZTIRKN8gemmlowp13RegisterBlockIiLi1ELi4EEE"
    }
   ],
   "return_type" : "_ZTIN8gemmlowp13RegisterBlockIiLi8ELi4EEE",
   "source_file" : "external/gemmlowp/internal/simd_wrappers_common_neon_sse.h"
  },
  {
   "function_name" : "gemmlowp::BroadcastAddImpl<gemmlowp::RegisterBlock<int, 8, 4>, gemmlowp::RegisterBlock<int, 8, 1>>::Run",
   "linker_set_key" : "_ZN8gemmlowp16BroadcastAddImplINS_13RegisterBlockIiLi8ELi4EEENS1_IiLi8ELi1EEEE3RunERKS2_RKS3_",
   "parameters" :
   [
    {
     "referenced_type" : "_ZTIRKN8gemmlowp13RegisterBlockIiLi8ELi4EEE"
    },
    {
     "referenced_type" : "_ZTIRKN8gemmlowp13RegisterBlockIiLi8ELi1EEE"
    }
   ],
   "return_type" : "_ZTIN8gemmlowp13RegisterBlockIiLi8ELi4EEE",
   "source_file" : "external/gemmlowp/internal/simd_wrappers_common_neon_sse.h"
  },
  {
   "function_name" : "gemmlowp::BroadcastMulImpl<gemmlowp::RegisterBlock<int, 1, 4>, gemmlowp::RegisterBlock<int, 1, 1>>::Run",
   "linker_set_key" : "_ZN8gemmlowp16BroadcastMulImplINS_13RegisterBlockIiLi1ELi4EEENS1_IiLi1ELi1EEEE3RunERKS2_RKS3_",
   "parameters" :
   [
    {
     "referenced_type" : "_ZTIRKN8gemmlowp13RegisterBlockIiLi1ELi4EEE"
    },
    {
     "referenced_type" : "_ZTIRKN8gemmlowp13RegisterBlockIiLi1ELi1EEE"
    }
   ],
   "return_type" : "_ZTIN8gemmlowp13RegisterBlockIiLi1ELi4EEE",
   "source_file" : "external/gemmlowp/internal/simd_wrappers_common_neon_sse.h"
  },
  {
   "function_name" : "gemmlowp::BroadcastMulImpl<gemmlowp::RegisterBlock<int, 1, 4>, gemmlowp::RegisterBlock<int, 1, 4>>::Run",
   "linker_set_key" : "_ZN8gemmlowp16BroadcastMulImplINS_13RegisterBlockIiLi1ELi4EEES2_E3RunERKS2_S5_",
   "parameters" :
   [
    {
     "referenced_type" : "_ZTIRKN8gemmlowp13RegisterBlockIiLi1ELi4EEE"
    },
    {
     "referenced_type" : "_ZTIRKN8gemmlowp13RegisterBlockIiLi1ELi4EEE"
    }
   ],
   "return_type" : "_ZTIN8gemmlowp13RegisterBlockIiLi1ELi4EEE",
   "source_file" : "external/gemmlowp/internal/simd_wrappers_common_neon_sse.h"
  },
  {
   "function_name" : "gemmlowp::BroadcastMulImpl<gemmlowp::RegisterBlock<int, 4, 1>, gemmlowp::RegisterBlock<int, 1, 1>>::Run",
   "linker_set_key" : "_ZN8gemmlowp16BroadcastMulImplINS_13RegisterBlockIiLi4ELi1EEENS1_IiLi1ELi1EEEE3RunERKS2_RKS3_",
   "parameters" :
   [
    {
     "referenced_type" : "_ZTIRKN8gemmlowp13RegisterBlockIiLi4ELi1EEE"
    },
    {
     "referenced_type" : "_ZTIRKN8gemmlowp13RegisterBlockIiLi1ELi1EEE"
    }
   ],
   "return_type" : "_ZTIN8gemmlowp13RegisterBlockIiLi4ELi1EEE",
   "source_file" : "external/gemmlowp/internal/simd_wrappers_common_neon_sse.h"
  },
  {
   "function_name" : "gemmlowp::BroadcastMulImpl<gemmlowp::RegisterBlock<int, 4, 1>, gemmlowp::RegisterBlock<int, 4, 1>>::Run",
   "linker_set_key" : "_ZN8gemmlowp16BroadcastMulImplINS_13RegisterBlockIiLi4ELi1EEES2_E3RunERKS2_S5_",
   "parameters" :
   [
    {
     "referenced_type" : "_ZTIRKN8gemmlowp13RegisterBlockIiLi4ELi1EEE"
    },
    {
     "referenced_type" : "_ZTIRKN8gemmlowp13RegisterBlockIiLi4ELi1EEE"
    }
   ],
   "return_type" : "_ZTIN8gemmlowp13RegisterBlockIiLi4ELi1EEE",
   "source_file" : "external/gemmlowp/internal/simd_wrappers_common_neon_sse.h"
  },
  {
   "function_name" : "gemmlowp::BroadcastMulImpl<gemmlowp::RegisterBlock<int, 4, 4>, gemmlowp::RegisterBlock<int, 1, 4>>::Run",
   "linker_set_key" : "_ZN8gemmlowp16BroadcastMulImplINS_13RegisterBlockIiLi4ELi4EEENS1_IiLi1ELi4EEEE3RunERKS2_RKS3_",
   "parameters" :
   [
    {
     "referenced_type" : "_ZTIRKN8gemmlowp13RegisterBlockIiLi4ELi4EEE"
    },
    {
     "referenced_type" : "_ZTIRKN8gemmlowp13RegisterBlockIiLi1ELi4EEE"
    }
   ],
   "return_type" : "_ZTIN8gemmlowp13RegisterBlockIiLi4ELi4EEE",
   "source_file" : "external/gemmlowp/internal/simd_wrappers_common_neon_sse.h"
  },
  {
   "function_name" : "gemmlowp::BroadcastMulImpl<gemmlowp::RegisterBlock<int, 4, 4>, gemmlowp::RegisterBlock<int, 4, 1>>::Run",
   "linker_set_key" : "_ZN8gemmlowp16BroadcastMulImplINS_13RegisterBlockIiLi4ELi4EEENS1_IiLi4ELi1EEEE3RunERKS2_RKS3_",
   "parameters" :
   [
    {
     "referenced_type" : "_ZTIRKN8gemmlowp13RegisterBlockIiLi4ELi4EEE"
    },
    {
     "referenced_type" : "_ZTIRKN8gemmlowp13RegisterBlockIiLi4ELi1EEE"
    }
   ],
   "return_type" : "_ZTIN8gemmlowp13RegisterBlockIiLi4ELi4EEE",
   "source_file" : "external/gemmlowp/internal/simd_wrappers_common_neon_sse.h"
  },
  {
   "function_name" : "gemmlowp::BroadcastMulImpl<gemmlowp::RegisterBlock<int, 8, 1>, gemmlowp::RegisterBlock<int, 1, 1>>::Run",
   "linker_set_key" : "_ZN8gemmlowp16BroadcastMulImplINS_13RegisterBlockIiLi8ELi1EEENS1_IiLi1ELi1EEEE3RunERKS2_RKS3_",
   "parameters" :
   [
    {
     "referenced_type" : "_ZTIRKN8gemmlowp13RegisterBlockIiLi8ELi1EEE"
    },
    {
     "referenced_type" : "_ZTIRKN8gemmlowp13RegisterBlockIiLi1ELi1EEE"
    }
   ],
   "return_type" : "_ZTIN8gemmlowp13RegisterBlockIiLi8ELi1EEE",
   "source_file" : "external/gemmlowp/internal/simd_wrappers_common_neon_sse.h"
  },
  {
   "function_name" : "gemmlowp::BroadcastMulImpl<gemmlowp::RegisterBlock<int, 8, 1>, gemmlowp::RegisterBlock<int, 8, 1>>::Run",
   "linker_set_key" : "_ZN8gemmlowp16BroadcastMulImplINS_13RegisterBlockIiLi8ELi1EEES2_E3RunERKS2_S5_",
   "parameters" :
   [
    {
     "referenced_type" : "_ZTIRKN8gemmlowp13RegisterBlockIiLi8ELi1EEE"
    },
    {
     "referenced_type" : "_ZTIRKN8gemmlowp13RegisterBlockIiLi8ELi1EEE"
    }
   ],
   "return_type" : "_ZTIN8gemmlowp13RegisterBlockIiLi8ELi1EEE",
   "source_file" : "external/gemmlowp/internal/simd_wrappers_common_neon_sse.h"
  },
  {
   "function_name" : "gemmlowp::BroadcastMulImpl<gemmlowp::RegisterBlock<int, 8, 4>, gemmlowp::RegisterBlock<int, 1, 4>>::Run",
   "linker_set_key" : "_ZN8gemmlowp16BroadcastMulImplINS_13RegisterBlockIiLi8ELi4EEENS1_IiLi1ELi4EEEE3RunERKS2_RKS3_",
   "parameters" :
   [
    {
     "referenced_type" : "_ZTIRKN8gemmlowp13RegisterBlockIiLi8ELi4EEE"
    },
    {
     "referenced_type" : "_ZTIRKN8gemmlowp13RegisterBlockIiLi1ELi4EEE"
    }
   ],
   "return_type" : "_ZTIN8gemmlowp13RegisterBlockIiLi8ELi4EEE",
   "source_file" : "external/gemmlowp/internal/simd_wrappers_common_neon_sse.h"
  },
  {
   "function_name" : "gemmlowp::BroadcastMulImpl<gemmlowp::RegisterBlock<int, 8, 4>, gemmlowp::RegisterBlock<int, 8, 1>>::Run",
   "linker_set_key" : "_ZN8gemmlowp16BroadcastMulImplINS_13RegisterBlockIiLi8ELi4EEENS1_IiLi8ELi1EEEE3RunERKS2_RKS3_",
   "parameters" :
   [
    {
     "referenced_type" : "_ZTIRKN8gemmlowp13RegisterBlockIiLi8ELi4EEE"
    },
    {
     "referenced_type" : "_ZTIRKN8gemmlowp13RegisterBlockIiLi8ELi1EEE"
    }
   ],
   "return_type" : "_ZTIN8gemmlowp13RegisterBlockIiLi8ELi4EEE",
   "source_file" : "external/gemmlowp/internal/simd_wrappers_common_neon_sse.h"
  },
  {
   "function_name" : "gemmlowp::MaskIfGreaterThan",
   "linker_set_key" : "_ZN8gemmlowp17MaskIfGreaterThanI11__Int16x8_tEET_S2_S2_",
   "parameters" :
   [
    {
     "referenced_type" : "_ZTI11__Int16x8_t"
    },
    {
     "referenced_type" : "_ZTI11__Int16x8_t"
    }
   ],
   "return_type" : "_ZTI11__Int16x8_t",
   "source_file" : "external/gemmlowp/fixedpoint/fixedpoint_neon.h",
   "template_args" : [ "_ZTI11__Int16x8_t" ]
  },
  {
   "function_name" : "gemmlowp::MaskIfGreaterThan",
   "linker_set_key" : "_ZN8gemmlowp17MaskIfGreaterThanI11__Int32x4_tEET_S2_S2_",
   "parameters" :
   [
    {
     "referenced_type" : "_ZTI11__Int32x4_t"
    },
    {
     "referenced_type" : "_ZTI11__Int32x4_t"
    }
   ],
   "return_type" : "_ZTI11__Int32x4_t",
   "source_file" : "external/gemmlowp/fixedpoint/fixedpoint_neon.h",
   "template_args" : [ "_ZTI11__Int32x4_t" ]
  },
  {
   "function_name" : "gemmlowp::MatrixBlockBounds::MatrixBlockBounds",
   "linker_set_key" : "_ZN8gemmlowp17MatrixBlockBoundsC1Eiiii",
   "parameters" :
   [
    {
     "is_this_ptr" : true,
     "referenced_type" : "_ZTIPN8gemmlowp17MatrixBlockBoundsE"
    },
    {
     "referenced_type" : "_ZTIi"
    },
    {
     "referenced_type" : "_ZTIi"
    },
    {
     "referenced_type" : "_ZTIi"
    },
    {
     "referenced_type" : "_ZTIi"
    }
   ],
   "return_type" : "_ZTIv",
   "source_file" : "external/gemmlowp/internal/unpack.h"
  },
  {
   "function_name" : "gemmlowp::MatrixBlockBounds::MatrixBlockBounds",
   "linker_set_key" : "_ZN8gemmlowp17MatrixBlockBoundsC2Eiiii",
   "parameters" :
   [
    {
     "is_this_ptr" : true,
     "referenced_type" : "_ZTIPN8gemmlowp17MatrixBlockBoundsE"
    },
    {
     "referenced_type" : "_ZTIi"
    },
    {
     "referenced_type" : "_ZTIi"
    },
    {
     "referenced_type" : "_ZTIi"
    },
    {
     "referenced_type" : "_ZTIi"
    }
   ],
   "return_type" : "_ZTIv",
   "source_file" : "external/gemmlowp/internal/unpack.h"
  },
  {
   "function_name" : "gemmlowp::GetSideBlockParams",
   "linker_set_key" : "_ZN8gemmlowp18GetSideBlockParamsENS_4SideEPNS_15SideBlockParamsERKNS_11BlockParamsE",
   "parameters" :
   [
    {
     "referenced_type" : "_ZTIN8gemmlowp4SideE"
    },
    {
     "referenced_type" : "_ZTIPN8gemmlowp15SideBlockParamsE"
    },
    {
     "referenced_type" : "_ZTIRKN8gemmlowp11BlockParamsE"
    }
   ],
   "return_type" : "_ZTIv",
   "source_file" : "external/gemmlowp/internal/block_params.h"
  },
  {
   "function_name" : "gemmlowp::LoadContiguousImpl<gemmlowp::RegisterBlock<signed char, 8, 8>>::Run",
   "linker_set_key" : "_ZN8gemmlowp18LoadContiguousImplINS_13RegisterBlockIaLi8ELi8EEEE3RunEPKa",
   "parameters" :
   [
    {
     "referenced_type" : "_ZTIPKa"
    }
   ],
   "return_type" : "_ZTIN8gemmlowp13RegisterBlockIaLi8ELi8EEE",
   "source_file" : "external/gemmlowp/internal/simd_wrappers_neon.h"
  },
  {
   "function_name" : "gemmlowp::LoadContiguousImpl<gemmlowp::RegisterBlock<unsigned char, 8, 8>>::Run",
   "linker_set_key" : "_ZN8gemmlowp18LoadContiguousImplINS_13RegisterBlockIhLi8ELi8EEEE3RunEPKh",
   "parameters" :
   [
    {
     "referenced_type" : "_ZTIPKh"
    }
   ],
   "return_type" : "_ZTIN8gemmlowp13RegisterBlockIhLi8ELi8EEE",
   "source_file" : "external/gemmlowp/internal/simd_wrappers_neon.h"
  },
  {
   "function_name" : "gemmlowp::LoadContiguousImpl<gemmlowp::RegisterBlock<int, 8, 8>>::Run",
   "linker_set_key" : "_ZN8gemmlowp18LoadContiguousImplINS_13RegisterBlockIiLi8ELi8EEEE3RunEPKi",
   "parameters" :
   [
    {
     "referenced_type" : "_ZTIPKi"
    }
   ],
   "return_type" : "_ZTIN8gemmlowp13RegisterBlockIiLi8ELi8EEE",
   "source_file" : "external/gemmlowp/internal/simd_wrappers_neon.h"
  },
  {
   "function_name" : "gemmlowp::LoadContiguousImpl<gemmlowp::RegisterBlock<short, 8, 8>>::Run",
   "linker_set_key" : "_ZN8gemmlowp18LoadContiguousImplINS_13RegisterBlockIsLi8ELi8EEEE3RunEPKs",
   "parameters" :
   [
    {
     "referenced_type" : "_ZTIPKs"
    }
   ],
   "return_type" : "_ZTIN8gemmlowp13RegisterBlockIsLi8ELi8EEE",
   "source_file" : "external/gemmlowp/internal/simd_wrappers_neon.h"
  },
  {
   "function_name" : "gemmlowp::BroadcastMulAddImpl<gemmlowp::RegisterBlock<int, 1, 1>, gemmlowp::RegisterBlock<int, 1, 1>, gemmlowp::RegisterBlock<int, 1, 1>>::Run",
   "linker_set_key" : "_ZN8gemmlowp19BroadcastMulAddImplINS_13RegisterBlockIiLi1ELi1EEES2_S2_E3RunERKS2_S5_PS2_",
   "parameters" :
   [
    {
     "referenced_type" : "_ZTIRKN8gemmlowp13RegisterBlockIiLi1ELi1EEE"
    },
    {
     "referenced_type" : "_ZTIRKN8gemmlowp13RegisterBlockIiLi1ELi1EEE"
    },
    {
     "referenced_type" : "_ZTIPN8gemmlowp13RegisterBlockIiLi1ELi1EEE"
    }
   ],
   "return_type" : "_ZTIv",
   "source_file" : "external/gemmlowp/internal/simd_wrappers_common_neon_sse.h"
  },
  {
   "function_name" : "gemmlowp::BroadcastMulAddImpl<gemmlowp::RegisterBlock<int, 1, 4>, gemmlowp::RegisterBlock<int, 1, 1>, gemmlowp::RegisterBlock<int, 1, 4>>::Run",
   "linker_set_key" : "_ZN8gemmlowp19BroadcastMulAddImplINS_13RegisterBlockIiLi1ELi4EEENS1_IiLi1ELi1EEES2_E3RunERKS2_RKS3_PS2_",
   "parameters" :
   [
    {
     "referenced_type" : "_ZTIRKN8gemmlowp13RegisterBlockIiLi1ELi4EEE"
    },
    {
     "referenced_type" : "_ZTIRKN8gemmlowp13RegisterBlockIiLi1ELi1EEE"
    },
    {
     "referenced_type" : "_ZTIPN8gemmlowp13RegisterBlockIiLi1ELi4EEE"
    }
   ],
   "return_type" : "_ZTIv",
   "source_file" : "external/gemmlowp/internal/simd_wrappers_common_neon_sse.h"
  },
  {
   "function_name" : "gemmlowp::BroadcastMulAddImpl<gemmlowp::RegisterBlock<int, 4, 1>, gemmlowp::RegisterBlock<int, 1, 1>, gemmlowp::RegisterBlock<int, 4, 1>>::Run",
   "linker_set_key" : "_ZN8gemmlowp19BroadcastMulAddImplINS_13RegisterBlockIiLi4ELi1EEENS1_IiLi1ELi1EEES2_E3RunERKS2_RKS3_PS2_",
   "parameters" :
   [
    {
     "referenced_type" : "_ZTIRKN8gemmlowp13RegisterBlockIiLi4ELi1EEE"
    },
    {
     "referenced_type" : "_ZTIRKN8gemmlowp13RegisterBlockIiLi1ELi1EEE"
    },
    {
     "referenced_type" : "_ZTIPN8gemmlowp13RegisterBlockIiLi4ELi1EEE"
    }
   ],
   "return_type" : "_ZTIv",
   "source_file" : "external/gemmlowp/internal/simd_wrappers_common_neon_sse.h"
  },
  {
   "function_name" : "gemmlowp::RoundUpToPowerOfTwo",
   "linker_set_key" : "_ZN8gemmlowp19RoundUpToPowerOfTwoImEET_S1_",
   "parameters" :
   [
    {
     "referenced_type" : "_ZTIm"
    }
   ],
   "return_type" : "_ZTIm",
   "source_file" : "external/gemmlowp/internal/common.h",
   "template_args" : [ "_ZTIm" ]
  },
  {
   "function_name" : "gemmlowp::RoundingDivideByPOT",
   "linker_set_key" : "_ZN8gemmlowp19RoundingDivideByPOTI11__Int16x8_tS1_EET_S2_T0_",
   "parameters" :
   [
    {
     "referenced_type" : "_ZTI11__Int16x8_t"
    },
    {
     "referenced_type" : "_ZTI11__Int16x8_t"
    }
   ],
   "return_type" : "_ZTI11__Int16x8_t",
   "source_file" : "external/gemmlowp/fixedpoint/fixedpoint_neon.h",
   "template_args" : [ "_ZTI11__Int16x8_t", "_ZTI11__Int16x8_t" ]
  },
  {
   "function_name" : "gemmlowp::RoundingDivideByPOT",
   "linker_set_key" : "_ZN8gemmlowp19RoundingDivideByPOTI11__Int16x8_tiEET_S2_T0_",
   "parameters" :
   [
    {
     "referenced_type" : "_ZTI11__Int16x8_t"
    },
    {
     "referenced_type" : "_ZTIi"
    }
   ],
   "return_type" : "_ZTI11__Int16x8_t",
   "source_file" : "external/gemmlowp/fixedpoint/fixedpoint_neon.h",
   "template_args" : [ "_ZTI11__Int16x8_t", "_ZTIi" ]
  },
  {
   "function_name" : "gemmlowp::RoundingDivideByPOT",
   "linker_set_key" : "_ZN8gemmlowp19RoundingDivideByPOTI11__Int32x4_tS1_EET_S2_T0_",
   "parameters" :
   [
    {
     "referenced_type" : "_ZTI11__Int32x4_t"
    },
    {
     "referenced_type" : "_ZTI11__Int32x4_t"
    }
   ],
   "return_type" : "_ZTI11__Int32x4_t",
   "source_file" : "external/gemmlowp/fixedpoint/fixedpoint_neon.h",
   "template_args" : [ "_ZTI11__Int32x4_t", "_ZTI11__Int32x4_t" ]
  },
  {
   "function_name" : "gemmlowp::RoundingDivideByPOT",
   "linker_set_key" : "_ZN8gemmlowp19RoundingDivideByPOTI11__Int32x4_tiEET_S2_T0_",
   "parameters" :
   [
    {
     "referenced_type" : "_ZTI11__Int32x4_t"
    },
    {
     "referenced_type" : "_ZTIi"
    }
   ],
   "return_type" : "_ZTI11__Int32x4_t",
   "source_file" : "external/gemmlowp/fixedpoint/fixedpoint_neon.h",
   "template_args" : [ "_ZTI11__Int32x4_t", "_ZTIi" ]
  },
  {
   "function_name" : "gemmlowp::ScopedProfilingLabel::Update",
   "linker_set_key" : "_ZN8gemmlowp20ScopedProfilingLabel6UpdateEPKc",
   "parameters" :
   [
    {
     "is_this_ptr" : true,
     "referenced_type" : "_ZTIPN8gemmlowp20ScopedProfilingLabelE"
    },
    {
     "referenced_type" : "_ZTIPKc"
    }
   ],
   "return_type" : "_ZTIv",
   "source_file" : "external/gemmlowp/profiling/instrumentation.h"
  },
  {
   "function_name" : "gemmlowp::ScopedProfilingLabel::ScopedProfilingLabel",
   "linker_set_key" : "_ZN8gemmlowp20ScopedProfilingLabelC1EPKc",
   "parameters" :
   [
    {
     "is_this_ptr" : true,
     "referenced_type" : "_ZTIPN8gemmlowp20ScopedProfilingLabelE"
    },
    {
     "referenced_type" : "_ZTIPKc"
    }
   ],
   "return_type" : "_ZTIv",
   "source_file" : "external/gemmlowp/profiling/instrumentation.h"
  },
  {
   "function_name" : "gemmlowp::ScopedProfilingLabel::ScopedProfilingLabel",
   "linker_set_key" : "_ZN8gemmlowp20ScopedProfilingLabelC2EPKc",
   "parameters" :
   [
    {
     "is_this_ptr" : true,
     "referenced_type" : "_ZTIPN8gemmlowp20ScopedProfilingLabelE"
    },
    {
     "referenced_type" : "_ZTIPKc"
    }
   ],
   "return_type" : "_ZTIv",
   "source_file" : "external/gemmlowp/profiling/instrumentation.h"
  },
  {
   "function_name" : "gemmlowp::real_time_in_seconds",
   "linker_set_key" : "_ZN8gemmlowp20real_time_in_secondsEv",
   "return_type" : "_ZTId",
   "source_file" : "external/gemmlowp/internal/platform.h"
  },
  {
   "function_name" : "gemmlowp::MaskIfLessThanOrEqual",
   "linker_set_key" : "_ZN8gemmlowp21MaskIfLessThanOrEqualI11__Int16x8_tEET_S2_S2_",
   "parameters" :
   [
    {
     "referenced_type" : "_ZTI11__Int16x8_t"
    },
    {
     "referenced_type" : "_ZTI11__Int16x8_t"
    }
   ],
   "return_type" : "_ZTI11__Int16x8_t",
   "source_file" : "external/gemmlowp/fixedpoint/fixedpoint_neon.h",
   "template_args" : [ "_ZTI11__Int16x8_t" ]
  },
  {
   "function_name" : "gemmlowp::MaskIfLessThanOrEqual",
   "linker_set_key" : "_ZN8gemmlowp21MaskIfLessThanOrEqualI11__Int32x4_tEET_S2_S2_",
   "parameters" :
   [
    {
     "referenced_type" : "_ZTI11__Int32x4_t"
    },
    {
     "referenced_type" : "_ZTI11__Int32x4_t"
    }
   ],
   "return_type" : "_ZTI11__Int32x4_t",
   "source_file" : "external/gemmlowp/fixedpoint/fixedpoint_neon.h",
   "template_args" : [ "_ZTI11__Int32x4_t" ]
  },
  {
   "function_name" : "gemmlowp::ReleaseBuildAssertion",
   "linker_set_key" : "_ZN8gemmlowp21ReleaseBuildAssertionEbPKc",
   "parameters" :
   [
    {
     "referenced_type" : "_ZTIb"
    },
    {
     "referenced_type" : "_ZTIPKc"
    }
   ],
   "return_type" : "_ZTIv",
   "source_file" : "external/gemmlowp/profiling/instrumentation.h"
  },
  {
   "function_name" : "gemmlowp::WaitForVariableChange",
   "linker_set_key" : "_ZN8gemmlowp21WaitForVariableChangeINS_6Worker5StateEEET_PNSt3__16atomicIS3_EES3_P14pthread_cond_tP15pthread_mutex_t",
   "parameters" :
   [
    {
     "referenced_type" : "_ZTIPNSt3__16atomicIN8gemmlowp6Worker5StateEEE"
    },
    {
     "referenced_type" : "_ZTIN8gemmlowp6Worker5StateE"
    },
    {
     "referenced_type" : "_ZTIP14pthread_cond_t"
    },
    {
     "referenced_type" : "_ZTIP15pthread_mutex_t"
    }
   ],
   "return_type" : "_ZTIN8gemmlowp6Worker5StateE",
   "source_file" : "external/gemmlowp/internal/multi_thread_gemm.h",
   "template_args" : [ "_ZTIN8gemmlowp6Worker5StateE" ]
  },
  {
   "function_name" : "gemmlowp::BroadcastShiftLeftImpl<gemmlowp::RegisterBlock<int, 1, 4>, gemmlowp::RegisterBlock<int, 1, 1>>::Run",
   "linker_set_key" : "_ZN8gemmlowp22BroadcastShiftLeftImplINS_13RegisterBlockIiLi1ELi4EEENS1_IiLi1ELi1EEEE3RunERKS2_RKS3_",
   "parameters" :
   [
    {
     "referenced_type" : "_ZTIRKN8gemmlowp13RegisterBlockIiLi1ELi4EEE"
    },
    {
     "referenced_type" : "_ZTIRKN8gemmlowp13RegisterBlockIiLi1ELi1EEE"
    }
   ],
   "return_type" : "_ZTIN8gemmlowp13RegisterBlockIiLi1ELi4EEE",
   "source_file" : "external/gemmlowp/internal/simd_wrappers_neon.h"
  },
  {
   "function_name" : "gemmlowp::BroadcastShiftLeftImpl<gemmlowp::RegisterBlock<int, 1, 4>, gemmlowp::RegisterBlock<int, 1, 4>>::Run",
   "linker_set_key" : "_ZN8gemmlowp22BroadcastShiftLeftImplINS_13RegisterBlockIiLi1ELi4EEES2_E3RunERKS2_S5_",
   "parameters" :
   [
    {
     "referenced_type" : "_ZTIRKN8gemmlowp13RegisterBlockIiLi1ELi4EEE"
    },
    {
     "referenced_type" : "_ZTIRKN8gemmlowp13RegisterBlockIiLi1ELi4EEE"
    }
   ],
   "return_type" : "_ZTIN8gemmlowp13RegisterBlockIiLi1ELi4EEE",
   "source_file" : "external/gemmlowp/internal/simd_wrappers_neon.h"
  },
  {
   "function_name" : "gemmlowp::BroadcastShiftLeftImpl<gemmlowp::RegisterBlock<int, 1, 8>, gemmlowp::RegisterBlock<int, 1, 1>>::Run",
   "linker_set_key" : "_ZN8gemmlowp22BroadcastShiftLeftImplINS_13RegisterBlockIiLi1ELi8EEENS1_IiLi1ELi1EEEE3RunERKS2_RKS3_",
   "parameters" :
   [
    {
     "referenced_type" : "_ZTIRKN8gemmlowp13RegisterBlockIiLi1ELi8EEE"
    },
    {
     "referenced_type" : "_ZTIRKN8gemmlowp13RegisterBlockIiLi1ELi1EEE"
    }
   ],
   "return_type" : "_ZTIN8gemmlowp13RegisterBlockIiLi1ELi8EEE",
   "source_file" : "external/gemmlowp/internal/simd_wrappers_neon.h"
  },
  {
   "function_name" : "gemmlowp::BroadcastShiftLeftImpl<gemmlowp::RegisterBlock<int, 1, 8>, gemmlowp::RegisterBlock<int, 1, 8>>::Run",
   "linker_set_key" : "_ZN8gemmlowp22BroadcastShiftLeftImplINS_13RegisterBlockIiLi1ELi8EEES2_E3RunERKS2_S5_",
   "parameters" :
   [
    {
     "referenced_type" : "_ZTIRKN8gemmlowp13RegisterBlockIiLi1ELi8EEE"
    },
    {
     "referenced_type" : "_ZTIRKN8gemmlowp13RegisterBlockIiLi1ELi8EEE"
    }
   ],
   "return_type" : "_ZTIN8gemmlowp13RegisterBlockIiLi1ELi8EEE",
   "source_file" : "external/gemmlowp/internal/simd_wrappers_neon.h"
  },
  {
   "function_name" : "gemmlowp::BroadcastShiftLeftImpl<gemmlowp::RegisterBlock<int, 4, 1>, gemmlowp::RegisterBlock<int, 1, 1>>::Run",
   "linker_set_key" : "_ZN8gemmlowp22BroadcastShiftLeftImplINS_13RegisterBlockIiLi4ELi1EEENS1_IiLi1ELi1EEEE3RunERKS2_RKS3_",
   "parameters" :
   [
    {
     "referenced_type" : "_ZTIRKN8gemmlowp13RegisterBlockIiLi4ELi1EEE"
    },
    {
     "referenced_type" : "_ZTIRKN8gemmlowp13RegisterBlockIiLi1ELi1EEE"
    }
   ],
   "return_type" : "_ZTIN8gemmlowp13RegisterBlockIiLi4ELi1EEE",
   "source_file" : "external/gemmlowp/internal/simd_wrappers_neon.h"
  },
  {
   "function_name" : "gemmlowp::BroadcastShiftLeftImpl<gemmlowp::RegisterBlock<int, 4, 1>, gemmlowp::RegisterBlock<int, 4, 1>>::Run",
   "linker_set_key" : "_ZN8gemmlowp22BroadcastShiftLeftImplINS_13RegisterBlockIiLi4ELi1EEES2_E3RunERKS2_S5_",
   "parameters" :
   [
    {
     "referenced_type" : "_ZTIRKN8gemmlowp13RegisterBlockIiLi4ELi1EEE"
    },
    {
     "referenced_type" : "_ZTIRKN8gemmlowp13RegisterBlockIiLi4ELi1EEE"
    }
   ],
   "return_type" : "_ZTIN8gemmlowp13RegisterBlockIiLi4ELi1EEE",
   "source_file" : "external/gemmlowp/internal/simd_wrappers_neon.h"
  },
  {
   "function_name" : "gemmlowp::BroadcastShiftLeftImpl<gemmlowp::RegisterBlock<int, 4, 4>, gemmlowp::RegisterBlock<int, 1, 4>>::Run",
   "linker_set_key" : "_ZN8gemmlowp22BroadcastShiftLeftImplINS_13RegisterBlockIiLi4ELi4EEENS1_IiLi1ELi4EEEE3RunERKS2_RKS3_",
   "parameters" :
   [
    {
     "referenced_type" : "_ZTIRKN8gemmlowp13RegisterBlockIiLi4ELi4EEE"
    },
    {
     "referenced_type" : "_ZTIRKN8gemmlowp13RegisterBlockIiLi1ELi4EEE"
    }
   ],
   "return_type" : "_ZTIN8gemmlowp13RegisterBlockIiLi4ELi4EEE",
   "source_file" : "external/gemmlowp/internal/simd_wrappers_neon.h"
  },
  {
   "function_name" : "gemmlowp::BroadcastShiftLeftImpl<gemmlowp::RegisterBlock<int, 4, 4>, gemmlowp::RegisterBlock<int, 4, 1>>::Run",
   "linker_set_key" : "_ZN8gemmlowp22BroadcastShiftLeftImplINS_13RegisterBlockIiLi4ELi4EEENS1_IiLi4ELi1EEEE3RunERKS2_RKS3_",
   "parameters" :
   [
    {
     "referenced_type" : "_ZTIRKN8gemmlowp13RegisterBlockIiLi4ELi4EEE"
    },
    {
     "referenced_type" : "_ZTIRKN8gemmlowp13RegisterBlockIiLi4ELi1EEE"
    }
   ],
   "return_type" : "_ZTIN8gemmlowp13RegisterBlockIiLi4ELi4EEE",
   "source_file" : "external/gemmlowp/internal/simd_wrappers_neon.h"
  },
  {
   "function_name" : "gemmlowp::BroadcastShiftLeftImpl<gemmlowp::RegisterBlock<int, 8, 1>, gemmlowp::RegisterBlock<int, 1, 1>>::Run",
   "linker_set_key" : "_ZN8gemmlowp22BroadcastShiftLeftImplINS_13RegisterBlockIiLi8ELi1EEENS1_IiLi1ELi1EEEE3RunERKS2_RKS3_",
   "parameters" :
   [
    {
     "referenced_type" : "_ZTIRKN8gemmlowp13RegisterBlockIiLi8ELi1EEE"
    },
    {
     "referenced_type" : "_ZTIRKN8gemmlowp13RegisterBlockIiLi1ELi1EEE"
    }
   ],
   "return_type" : "_ZTIN8gemmlowp13RegisterBlockIiLi8ELi1EEE",
   "source_file" : "external/gemmlowp/internal/simd_wrappers_neon.h"
  },
  {
   "function_name" : "gemmlowp::BroadcastShiftLeftImpl<gemmlowp::RegisterBlock<int, 8, 1>, gemmlowp::RegisterBlock<int, 8, 1>>::Run",
   "linker_set_key" : "_ZN8gemmlowp22BroadcastShiftLeftImplINS_13RegisterBlockIiLi8ELi1EEES2_E3RunERKS2_S5_",
   "parameters" :
   [
    {
     "referenced_type" : "_ZTIRKN8gemmlowp13RegisterBlockIiLi8ELi1EEE"
    },
    {
     "referenced_type" : "_ZTIRKN8gemmlowp13RegisterBlockIiLi8ELi1EEE"
    }
   ],
   "return_type" : "_ZTIN8gemmlowp13RegisterBlockIiLi8ELi1EEE",
   "source_file" : "external/gemmlowp/internal/simd_wrappers_neon.h"
  },
  {
   "function_name" : "gemmlowp::BroadcastShiftLeftImpl<gemmlowp::RegisterBlock<int, 8, 4>, gemmlowp::RegisterBlock<int, 1, 4>>::Run",
   "linker_set_key" : "_ZN8gemmlowp22BroadcastShiftLeftImplINS_13RegisterBlockIiLi8ELi4EEENS1_IiLi1ELi4EEEE3RunERKS2_RKS3_",
   "parameters" :
   [
    {
     "referenced_type" : "_ZTIRKN8gemmlowp13RegisterBlockIiLi8ELi4EEE"
    },
    {
     "referenced_type" : "_ZTIRKN8gemmlowp13RegisterBlockIiLi1ELi4EEE"
    }
   ],
   "return_type" : "_ZTIN8gemmlowp13RegisterBlockIiLi8ELi4EEE",
   "source_file" : "external/gemmlowp/internal/simd_wrappers_neon.h"
  },
  {
   "function_name" : "gemmlowp::BroadcastShiftLeftImpl<gemmlowp::RegisterBlock<int, 8, 4>, gemmlowp::RegisterBlock<int, 8, 1>>::Run",
   "linker_set_key" : "_ZN8gemmlowp22BroadcastShiftLeftImplINS_13RegisterBlockIiLi8ELi4EEENS1_IiLi8ELi1EEEE3RunERKS2_RKS3_",
   "parameters" :
   [
    {
     "referenced_type" : "_ZTIRKN8gemmlowp13RegisterBlockIiLi8ELi4EEE"
    },
    {
     "referenced_type" : "_ZTIRKN8gemmlowp13RegisterBlockIiLi8ELi1EEE"
    }
   ],
   "return_type" : "_ZTIN8gemmlowp13RegisterBlockIiLi8ELi4EEE",
   "source_file" : "external/gemmlowp/internal/simd_wrappers_neon.h"
  },
  {
   "function_name" : "gemmlowp::GetHardwareConcurrency",
   "linker_set_key" : "_ZN8gemmlowp22GetHardwareConcurrencyEi",
   "parameters" :
   [
    {
     "referenced_type" : "_ZTIi"
    }
   ],
   "return_type" : "_ZTIi",
   "source_file" : "external/gemmlowp/internal/platform.h"
  },
  {
   "function_name" : "gemmlowp::MultiThreadGemmContext::workers_pool",
   "linker_set_key" : "_ZN8gemmlowp22MultiThreadGemmContext12workers_poolEv",
   "parameters" :
   [
    {
     "is_this_ptr" : true,
     "referenced_type" : "_ZTIPN8gemmlowp22MultiThreadGemmContextE"
    }
   ],
   "return_type" : "_ZTIPN8gemmlowp11WorkersPoolE",
   "source_file" : "external/gemmlowp/internal/multi_thread_gemm.h"
  },
  {
   "function_name" : "gemmlowp::SingleThreadGemmContext::set_l2_rhs_factor",
   "linker_set_key" : "_ZN8gemmlowp23SingleThreadGemmContext17set_l2_rhs_factorEf",
   "parameters" :
   [
    {
     "is_this_ptr" : true,
     "referenced_type" : "_ZTIPN8gemmlowp23SingleThreadGemmContextE"
    },
    {
     "referenced_type" : "_ZTIf"
    }
   ],
   "return_type" : "_ZTIv",
   "source_file" : "external/gemmlowp/internal/single_thread_gemm.h"
  },
  {
   "function_name" : "gemmlowp::SingleThreadGemmContext::set_l1_bytes_to_use",
   "linker_set_key" : "_ZN8gemmlowp23SingleThreadGemmContext19set_l1_bytes_to_useEi",
   "parameters" :
   [
    {
     "is_this_ptr" : true,
     "referenced_type" : "_ZTIPN8gemmlowp23SingleThreadGemmContextE"
    },
    {
     "referenced_type" : "_ZTIi"
    }
   ],
   "return_type" : "_ZTIv",
   "source_file" : "external/gemmlowp/internal/single_thread_gemm.h"
  },
  {
   "function_name" : "gemmlowp::SingleThreadGemmContext::set_l2_bytes_to_use",
   "linker_set_key" : "_ZN8gemmlowp23SingleThreadGemmContext19set_l2_bytes_to_useEi",
   "parameters" :
   [
    {
     "is_this_ptr" : true,
     "referenced_type" : "_ZTIPN8gemmlowp23SingleThreadGemmContextE"
    },
    {
     "referenced_type" : "_ZTIi"
    }
   ],
   "return_type" : "_ZTIv",
   "source_file" : "external/gemmlowp/internal/single_thread_gemm.h"
  },
  {
   "function_name" : "gemmlowp::SingleThreadGemmContext::allocator",
   "linker_set_key" : "_ZN8gemmlowp23SingleThreadGemmContext9allocatorEv",
   "parameters" :
   [
    {
     "is_this_ptr" : true,
     "referenced_type" : "_ZTIPN8gemmlowp23SingleThreadGemmContextE"
    }
   ],
   "return_type" : "_ZTIPN8gemmlowp9AllocatorE",
   "source_file" : "external/gemmlowp/internal/single_thread_gemm.h"
  },
  {
   "function_name" : "gemmlowp::MaskIfGreaterThanOrEqual",
   "linker_set_key" : "_ZN8gemmlowp24MaskIfGreaterThanOrEqualI11__Int16x8_tEET_S2_S2_",
   "parameters" :
   [
    {
     "referenced_type" : "_ZTI11__Int16x8_t"
    },
    {
     "referenced_type" : "_ZTI11__Int16x8_t"
    }
   ],
   "return_type" : "_ZTI11__Int16x8_t",
   "source_file" : "external/gemmlowp/fixedpoint/fixedpoint_neon.h",
   "template_args" : [ "_ZTI11__Int16x8_t" ]
  },
  {
   "function_name" : "gemmlowp::MaskIfGreaterThanOrEqual",
   "linker_set_key" : "_ZN8gemmlowp24MaskIfGreaterThanOrEqualI11__Int32x4_tEET_S2_S2_",
   "parameters" :
   [
    {
     "referenced_type" : "_ZTI11__Int32x4_t"
    },
    {
     "referenced_type" : "_ZTI11__Int32x4_t"
    }
   ],
   "return_type" : "_ZTI11__Int32x4_t",
   "source_file" : "external/gemmlowp/fixedpoint/fixedpoint_neon.h",
   "template_args" : [ "_ZTI11__Int32x4_t" ]
  },
  {
   "function_name" : "gemmlowp::OutputStageEvalBufferImpl<gemmlowp::OutputStageSaturatingCastToInt8, gemmlowp::RegisterBuffer<int, 16>>::OutputStageEvalBufferImpl",
   "linker_set_key" : "_ZN8gemmlowp25OutputStageEvalBufferImplINS_31OutputStageSaturatingCastToInt8ENS_14RegisterBufferIiLi16EEEEC1ERKS1_",
   "parameters" :
   [
    {
     "is_this_ptr" : true,
     "referenced_type" : "_ZTIPN8gemmlowp25OutputStageEvalBufferImplINS_31OutputStageSaturatingCastToInt8ENS_14RegisterBufferIiLi16EEEEE"
    },
    {
     "referenced_type" : "_ZTIRKN8gemmlowp31OutputStageSaturatingCastToInt8E"
    }
   ],
   "return_type" : "_ZTIv",
   "source_file" : "external/gemmlowp/internal/output_neon.h"
  },
  {
   "function_name" : "gemmlowp::OutputStageEvalBufferImpl<gemmlowp::OutputStageSaturatingCastToInt8, gemmlowp::RegisterBuffer<int, 16>>::OutputStageEvalBufferImpl",
   "linker_set_key" : "_ZN8gemmlowp25OutputStageEvalBufferImplINS_31OutputStageSaturatingCastToInt8ENS_14RegisterBufferIiLi16EEEEC2ERKS1_",
   "parameters" :
   [
    {
     "is_this_ptr" : true,
     "referenced_type" : "_ZTIPN8gemmlowp25OutputStageEvalBufferImplINS_31OutputStageSaturatingCastToInt8ENS_14RegisterBufferIiLi16EEEEE"
    },
    {
     "referenced_type" : "_ZTIRKN8gemmlowp31OutputStageSaturatingCastToInt8E"
    }
   ],
   "return_type" : "_ZTIv",
   "source_file" : "external/gemmlowp/internal/output_neon.h"
  },
  {
   "function_name" : "gemmlowp::OutputStageEvalBufferImpl<gemmlowp::OutputStageSaturatingCastToInt8, gemmlowp::RegisterBuffer<int, 32>>::OutputStageEvalBufferImpl",
   "linker_set_key" : "_ZN8gemmlowp25OutputStageEvalBufferImplINS_31OutputStageSaturatingCastToInt8ENS_14RegisterBufferIiLi32EEEEC1ERKS1_",
   "parameters" :
   [
    {
     "is_this_ptr" : true,
     "referenced_type" : "_ZTIPN8gemmlowp25OutputStageEvalBufferImplINS_31OutputStageSaturatingCastToInt8ENS_14RegisterBufferIiLi32EEEEE"
    },
    {
     "referenced_type" : "_ZTIRKN8gemmlowp31OutputStageSaturatingCastToInt8E"
    }
   ],
   "return_type" : "_ZTIv",
   "source_file" : "external/gemmlowp/internal/output_neon.h"
  },
  {
   "function_name" : "gemmlowp::OutputStageEvalBufferImpl<gemmlowp::OutputStageSaturatingCastToInt8, gemmlowp::RegisterBuffer<int, 32>>::OutputStageEvalBufferImpl",
   "linker_set_key" : "_ZN8gemmlowp25OutputStageEvalBufferImplINS_31OutputStageSaturatingCastToInt8ENS_14RegisterBufferIiLi32EEEEC2ERKS1_",
   "parameters" :
   [
    {
     "is_this_ptr" : true,
     "referenced_type" : "_ZTIPN8gemmlowp25OutputStageEvalBufferImplINS_31OutputStageSaturatingCastToInt8ENS_14RegisterBufferIiLi32EEEEE"
    },
    {
     "referenced_type" : "_ZTIRKN8gemmlowp31OutputStageSaturatingCastToInt8E"
    }
   ],
   "return_type" : "_ZTIv",
   "source_file" : "external/gemmlowp/internal/output_neon.h"
  },
  {
   "function_name" : "gemmlowp::OutputStageEvalBufferImpl<gemmlowp::OutputStageSaturatingCastToInt8, gemmlowp::RegisterBuffer<int, 4>>::OutputStageEvalBufferImpl",
   "linker_set_key" : "_ZN8gemmlowp25OutputStageEvalBufferImplINS_31OutputStageSaturatingCastToInt8ENS_14RegisterBufferIiLi4EEEEC1ERKS1_",
   "parameters" :
   [
    {
     "is_this_ptr" : true,
     "referenced_type" : "_ZTIPN8gemmlowp25OutputStageEvalBufferImplINS_31OutputStageSaturatingCastToInt8ENS_14RegisterBufferIiLi4EEEEE"
    },
    {
     "referenced_type" : "_ZTIRKN8gemmlowp31OutputStageSaturatingCastToInt8E"
    }
   ],
   "return_type" : "_ZTIv",
   "source_file" : "external/gemmlowp/internal/output_neon.h"
  },
  {
   "function_name" : "gemmlowp::OutputStageEvalBufferImpl<gemmlowp::OutputStageSaturatingCastToInt8, gemmlowp::RegisterBuffer<int, 4>>::OutputStageEvalBufferImpl",
   "linker_set_key" : "_ZN8gemmlowp25OutputStageEvalBufferImplINS_31OutputStageSaturatingCastToInt8ENS_14RegisterBufferIiLi4EEEEC2ERKS1_",
   "parameters" :
   [
    {
     "is_this_ptr" : true,
     "referenced_type" : "_ZTIPN8gemmlowp25OutputStageEvalBufferImplINS_31OutputStageSaturatingCastToInt8ENS_14RegisterBufferIiLi4EEEEE"
    },
    {
     "referenced_type" : "_ZTIRKN8gemmlowp31OutputStageSaturatingCastToInt8E"
    }
   ],
   "return_type" : "_ZTIv",
   "source_file" : "external/gemmlowp/internal/output_neon.h"
  },
  {
   "function_name" : "gemmlowp::OutputStageEvalBufferImpl<gemmlowp::OutputStageSaturatingCastToInt8, gemmlowp::RegisterBuffer<int, 8>>::OutputStageEvalBufferImpl",
   "linker_set_key" : "_ZN8gemmlowp25OutputStageEvalBufferImplINS_31OutputStageSaturatingCastToInt8ENS_14RegisterBufferIiLi8EEEEC1ERKS1_",
   "parameters" :
   [
    {
     "is_this_ptr" : true,
     "referenced_type" : "_ZTIPN8gemmlowp25OutputStageEvalBufferImplINS_31OutputStageSaturatingCastToInt8ENS_14RegisterBufferIiLi8EEEEE"
    },
    {
     "referenced_type" : "_ZTIRKN8gemmlowp31OutputStageSaturatingCastToInt8E"
    }
   ],
   "return_type" : "_ZTIv",
   "source_file" : "external/gemmlowp/internal/output_neon.h"
  },
  {
   "function_name" : "gemmlowp::OutputStageEvalBufferImpl<gemmlowp::OutputStageSaturatingCastToInt8, gemmlowp::RegisterBuffer<int, 8>>::OutputStageEvalBufferImpl",
   "linker_set_key" : "_ZN8gemmlowp25OutputStageEvalBufferImplINS_31OutputStageSaturatingCastToInt8ENS_14RegisterBufferIiLi8EEEEC2ERKS1_",
   "parameters" :
   [
    {
     "is_this_ptr" : true,
     "referenced_type" : "_ZTIPN8gemmlowp25OutputStageEvalBufferImplINS_31OutputStageSaturatingCastToInt8ENS_14RegisterBufferIiLi8EEEEE"
    },
    {
     "referenced_type" : "_ZTIRKN8gemmlowp31OutputStageSaturatingCastToInt8E"
    }
   ],
   "return_type" : "_ZTIv",
   "source_file" : "external/gemmlowp/internal/output_neon.h"
  },
  {
   "function_name" : "gemmlowp::OutputStageEvalBufferImpl<gemmlowp::OutputStageSaturatingCastToInt16, gemmlowp::RegisterBuffer<int, 16>>::OutputStageEvalBufferImpl",
   "linker_set_key" : "_ZN8gemmlowp25OutputStageEvalBufferImplINS_32OutputStageSaturatingCastToInt16ENS_14RegisterBufferIiLi16EEEEC1ERKS1_",
   "parameters" :
   [
    {
     "is_this_ptr" : true,
     "referenced_type" : "_ZTIPN8gemmlowp25OutputStageEvalBufferImplINS_32OutputStageSaturatingCastToInt16ENS_14RegisterBufferIiLi16EEEEE"
    },
    {
     "referenced_type" : "_ZTIRKN8gemmlowp32OutputStageSaturatingCastToInt16E"
    }
   ],
   "return_type" : "_ZTIv",
   "source_file" : "external/gemmlowp/internal/output_neon.h"
  },
  {
   "function_name" : "gemmlowp::OutputStageEvalBufferImpl<gemmlowp::OutputStageSaturatingCastToInt16, gemmlowp::RegisterBuffer<int, 16>>::OutputStageEvalBufferImpl",
   "linker_set_key" : "_ZN8gemmlowp25OutputStageEvalBufferImplINS_32OutputStageSaturatingCastToInt16ENS_14RegisterBufferIiLi16EEEEC2ERKS1_",
   "parameters" :
   [
    {
     "is_this_ptr" : true,
     "referenced_type" : "_ZTIPN8gemmlowp25OutputStageEvalBufferImplINS_32OutputStageSaturatingCastToInt16ENS_14RegisterBufferIiLi16EEEEE"
    },
    {
     "referenced_type" : "_ZTIRKN8gemmlowp32OutputStageSaturatingCastToInt16E"
    }
   ],
   "return_type" : "_ZTIv",
   "source_file" : "external/gemmlowp/internal/output_neon.h"
  },
  {
   "function_name" : "gemmlowp::OutputStageEvalBufferImpl<gemmlowp::OutputStageSaturatingCastToInt16, gemmlowp::RegisterBuffer<int, 32>>::OutputStageEvalBufferImpl",
   "linker_set_key" : "_ZN8gemmlowp25OutputStageEvalBufferImplINS_32OutputStageSaturatingCastToInt16ENS_14RegisterBufferIiLi32EEEEC1ERKS1_",
   "parameters" :
   [
    {
     "is_this_ptr" : true,
     "referenced_type" : "_ZTIPN8gemmlowp25OutputStageEvalBufferImplINS_32OutputStageSaturatingCastToInt16ENS_14RegisterBufferIiLi32EEEEE"
    },
    {
     "referenced_type" : "_ZTIRKN8gemmlowp32OutputStageSaturatingCastToInt16E"
    }
   ],
   "return_type" : "_ZTIv",
   "source_file" : "external/gemmlowp/internal/output_neon.h"
  },
  {
   "function_name" : "gemmlowp::OutputStageEvalBufferImpl<gemmlowp::OutputStageSaturatingCastToInt16, gemmlowp::RegisterBuffer<int, 32>>::OutputStageEvalBufferImpl",
   "linker_set_key" : "_ZN8gemmlowp25OutputStageEvalBufferImplINS_32OutputStageSaturatingCastToInt16ENS_14RegisterBufferIiLi32EEEEC2ERKS1_",
   "parameters" :
   [
    {
     "is_this_ptr" : true,
     "referenced_type" : "_ZTIPN8gemmlowp25OutputStageEvalBufferImplINS_32OutputStageSaturatingCastToInt16ENS_14RegisterBufferIiLi32EEEEE"
    },
    {
     "referenced_type" : "_ZTIRKN8gemmlowp32OutputStageSaturatingCastToInt16E"
    }
   ],
   "return_type" : "_ZTIv",
   "source_file" : "external/gemmlowp/internal/output_neon.h"
  },
  {
   "function_name" : "gemmlowp::OutputStageEvalBufferImpl<gemmlowp::OutputStageSaturatingCastToInt16, gemmlowp::RegisterBuffer<int, 4>>::OutputStageEvalBufferImpl",
   "linker_set_key" : "_ZN8gemmlowp25OutputStageEvalBufferImplINS_32OutputStageSaturatingCastToInt16ENS_14RegisterBufferIiLi4EEEEC1ERKS1_",
   "parameters" :
   [
    {
     "is_this_ptr" : true,
     "referenced_type" : "_ZTIPN8gemmlowp25OutputStageEvalBufferImplINS_32OutputStageSaturatingCastToInt16ENS_14RegisterBufferIiLi4EEEEE"
    },
    {
     "referenced_type" : "_ZTIRKN8gemmlowp32OutputStageSaturatingCastToInt16E"
    }
   ],
   "return_type" : "_ZTIv",
   "source_file" : "external/gemmlowp/internal/output_neon.h"
  },
  {
   "function_name" : "gemmlowp::OutputStageEvalBufferImpl<gemmlowp::OutputStageSaturatingCastToInt16, gemmlowp::RegisterBuffer<int, 4>>::OutputStageEvalBufferImpl",
   "linker_set_key" : "_ZN8gemmlowp25OutputStageEvalBufferImplINS_32OutputStageSaturatingCastToInt16ENS_14RegisterBufferIiLi4EEEEC2ERKS1_",
   "parameters" :
   [
    {
     "is_this_ptr" : true,
     "referenced_type" : "_ZTIPN8gemmlowp25OutputStageEvalBufferImplINS_32OutputStageSaturatingCastToInt16ENS_14RegisterBufferIiLi4EEEEE"
    },
    {
     "referenced_type" : "_ZTIRKN8gemmlowp32OutputStageSaturatingCastToInt16E"
    }
   ],
   "return_type" : "_ZTIv",
   "source_file" : "external/gemmlowp/internal/output_neon.h"
  },
  {
   "function_name" : "gemmlowp::OutputStageEvalBufferImpl<gemmlowp::OutputStageSaturatingCastToInt16, gemmlowp::RegisterBuffer<int, 8>>::OutputStageEvalBufferImpl",
   "linker_set_key" : "_ZN8gemmlowp25OutputStageEvalBufferImplINS_32OutputStageSaturatingCastToInt16ENS_14RegisterBufferIiLi8EEEEC1ERKS1_",
   "parameters" :
   [
    {
     "is_this_ptr" : true,
     "referenced_type" : "_ZTIPN8gemmlowp25OutputStageEvalBufferImplINS_32OutputStageSaturatingCastToInt16ENS_14RegisterBufferIiLi8EEEEE"
    },
    {
     "referenced_type" : "_ZTIRKN8gemmlowp32OutputStageSaturatingCastToInt16E"
    }
   ],
   "return_type" : "_ZTIv",
   "source_file" : "external/gemmlowp/internal/output_neon.h"
  },
  {
   "function_name" : "gemmlowp::OutputStageEvalBufferImpl<gemmlowp::OutputStageSaturatingCastToInt16, gemmlowp::RegisterBuffer<int, 8>>::OutputStageEvalBufferImpl",
   "linker_set_key" : "_ZN8gemmlowp25OutputStageEvalBufferImplINS_32OutputStageSaturatingCastToInt16ENS_14RegisterBufferIiLi8EEEEC2ERKS1_",
   "parameters" :
   [
    {
     "is_this_ptr" : true,
     "referenced_type" : "_ZTIPN8gemmlowp25OutputStageEvalBufferImplINS_32OutputStageSaturatingCastToInt16ENS_14RegisterBufferIiLi8EEEEE"
    },
    {
     "referenced_type" : "_ZTIRKN8gemmlowp32OutputStageSaturatingCastToInt16E"
    }
   ],
   "return_type" : "_ZTIv",
   "source_file" : "external/gemmlowp/internal/output_neon.h"
  },
  {
   "function_name" : "gemmlowp::OutputStageEvalBufferImpl<gemmlowp::OutputStageSaturatingCastToUint8, gemmlowp::RegisterBuffer<int, 16>>::OutputStageEvalBufferImpl",
   "linker_set_key" : "_ZN8gemmlowp25OutputStageEvalBufferImplINS_32OutputStageSaturatingCastToUint8ENS_14RegisterBufferIiLi16EEEEC1ERKS1_",
   "parameters" :
   [
    {
     "is_this_ptr" : true,
     "referenced_type" : "_ZTIPN8gemmlowp25OutputStageEvalBufferImplINS_32OutputStageSaturatingCastToUint8ENS_14RegisterBufferIiLi16EEEEE"
    },
    {
     "referenced_type" : "_ZTIRKN8gemmlowp32OutputStageSaturatingCastToUint8E"
    }
   ],
   "return_type" : "_ZTIv",
   "source_file" : "external/gemmlowp/internal/output_neon.h"
  },
  {
   "function_name" : "gemmlowp::OutputStageEvalBufferImpl<gemmlowp::OutputStageSaturatingCastToUint8, gemmlowp::RegisterBuffer<int, 16>>::OutputStageEvalBufferImpl",
   "linker_set_key" : "_ZN8gemmlowp25OutputStageEvalBufferImplINS_32OutputStageSaturatingCastToUint8ENS_14RegisterBufferIiLi16EEEEC2ERKS1_",
   "parameters" :
   [
    {
     "is_this_ptr" : true,
     "referenced_type" : "_ZTIPN8gemmlowp25OutputStageEvalBufferImplINS_32OutputStageSaturatingCastToUint8ENS_14RegisterBufferIiLi16EEEEE"
    },
    {
     "referenced_type" : "_ZTIRKN8gemmlowp32OutputStageSaturatingCastToUint8E"
    }
   ],
   "return_type" : "_ZTIv",
   "source_file" : "external/gemmlowp/internal/output_neon.h"
  },
  {
   "function_name" : "gemmlowp::OutputStageEvalBufferImpl<gemmlowp::OutputStageSaturatingCastToUint8, gemmlowp::RegisterBuffer<int, 32>>::OutputStageEvalBufferImpl",
   "linker_set_key" : "_ZN8gemmlowp25OutputStageEvalBufferImplINS_32OutputStageSaturatingCastToUint8ENS_14RegisterBufferIiLi32EEEEC1ERKS1_",
   "parameters" :
   [
    {
     "is_this_ptr" : true,
     "referenced_type" : "_ZTIPN8gemmlowp25OutputStageEvalBufferImplINS_32OutputStageSaturatingCastToUint8ENS_14RegisterBufferIiLi32EEEEE"
    },
    {
     "referenced_type" : "_ZTIRKN8gemmlowp32OutputStageSaturatingCastToUint8E"
    }
   ],
   "return_type" : "_ZTIv",
   "source_file" : "external/gemmlowp/internal/output_neon.h"
  },
  {
   "function_name" : "gemmlowp::OutputStageEvalBufferImpl<gemmlowp::OutputStageSaturatingCastToUint8, gemmlowp::RegisterBuffer<int, 32>>::OutputStageEvalBufferImpl",
   "linker_set_key" : "_ZN8gemmlowp25OutputStageEvalBufferImplINS_32OutputStageSaturatingCastToUint8ENS_14RegisterBufferIiLi32EEEEC2ERKS1_",
   "parameters" :
   [
    {
     "is_this_ptr" : true,
     "referenced_type" : "_ZTIPN8gemmlowp25OutputStageEvalBufferImplINS_32OutputStageSaturatingCastToUint8ENS_14RegisterBufferIiLi32EEEEE"
    },
    {
     "referenced_type" : "_ZTIRKN8gemmlowp32OutputStageSaturatingCastToUint8E"
    }
   ],
   "return_type" : "_ZTIv",
   "source_file" : "external/gemmlowp/internal/output_neon.h"
  },
  {
   "function_name" : "gemmlowp::OutputStageEvalBufferImpl<gemmlowp::OutputStageSaturatingCastToUint8, gemmlowp::RegisterBuffer<int, 4>>::OutputStageEvalBufferImpl",
   "linker_set_key" : "_ZN8gemmlowp25OutputStageEvalBufferImplINS_32OutputStageSaturatingCastToUint8ENS_14RegisterBufferIiLi4EEEEC1ERKS1_",
   "parameters" :
   [
    {
     "is_this_ptr" : true,
     "referenced_type" : "_ZTIPN8gemmlowp25OutputStageEvalBufferImplINS_32OutputStageSaturatingCastToUint8ENS_14RegisterBufferIiLi4EEEEE"
    },
    {
     "referenced_type" : "_ZTIRKN8gemmlowp32OutputStageSaturatingCastToUint8E"
    }
   ],
   "return_type" : "_ZTIv",
   "source_file" : "external/gemmlowp/internal/output_neon.h"
  },
  {
   "function_name" : "gemmlowp::OutputStageEvalBufferImpl<gemmlowp::OutputStageSaturatingCastToUint8, gemmlowp::RegisterBuffer<int, 4>>::OutputStageEvalBufferImpl",
   "linker_set_key" : "_ZN8gemmlowp25OutputStageEvalBufferImplINS_32OutputStageSaturatingCastToUint8ENS_14RegisterBufferIiLi4EEEEC2ERKS1_",
   "parameters" :
   [
    {
     "is_this_ptr" : true,
     "referenced_type" : "_ZTIPN8gemmlowp25OutputStageEvalBufferImplINS_32OutputStageSaturatingCastToUint8ENS_14RegisterBufferIiLi4EEEEE"
    },
    {
     "referenced_type" : "_ZTIRKN8gemmlowp32OutputStageSaturatingCastToUint8E"
    }
   ],
   "return_type" : "_ZTIv",
   "source_file" : "external/gemmlowp/internal/output_neon.h"
  },
  {
   "function_name" : "gemmlowp::OutputStageEvalBufferImpl<gemmlowp::OutputStageSaturatingCastToUint8, gemmlowp::RegisterBuffer<int, 8>>::OutputStageEvalBufferImpl",
   "linker_set_key" : "_ZN8gemmlowp25OutputStageEvalBufferImplINS_32OutputStageSaturatingCastToUint8ENS_14RegisterBufferIiLi8EEEEC1ERKS1_",
   "parameters" :
   [
    {
     "is_this_ptr" : true,
     "referenced_type" : "_ZTIPN8gemmlowp25OutputStageEvalBufferImplINS_32OutputStageSaturatingCastToUint8ENS_14RegisterBufferIiLi8EEEEE"
    },
    {
     "referenced_type" : "_ZTIRKN8gemmlowp32OutputStageSaturatingCastToUint8E"
    }
   ],
   "return_type" : "_ZTIv",
   "source_file" : "external/gemmlowp/internal/output_neon.h"
  },
  {
   "function_name" : "gemmlowp::OutputStageEvalBufferImpl<gemmlowp::OutputStageSaturatingCastToUint8, gemmlowp::RegisterBuffer<int, 8>>::OutputStageEvalBufferImpl",
   "linker_set_key" : "_ZN8gemmlowp25OutputStageEvalBufferImplINS_32OutputStageSaturatingCastToUint8ENS_14RegisterBufferIiLi8EEEEC2ERKS1_",
   "parameters" :
   [
    {
     "is_this_ptr" : true,
     "referenced_type" : "_ZTIPN8gemmlowp25OutputStageEvalBufferImplINS_32OutputStageSaturatingCastToUint8ENS_14RegisterBufferIiLi8EEEEE"
    },
    {
     "referenced_type" : "_ZTIRKN8gemmlowp32OutputStageSaturatingCastToUint8E"
    }
   ],
   "return_type" : "_ZTIv",
   "source_file" : "external/gemmlowp/internal/output_neon.h"
  },
  {
   "function_name" : "gemmlowp::MakeStandardOutputPipeline",
   "linker_set_key" : "_ZN8gemmlowp26MakeStandardOutputPipelineEiii",
   "parameters" :
   [
    {
     "referenced_type" : "_ZTIi"
    },
    {
     "referenced_type" : "_ZTIi"
    },
    {
     "referenced_type" : "_ZTIi"
    }
   ],
   "return_type" : "_ZTINSt3__15tupleIJN8gemmlowp40OutputStageQuantizeDownInt32ToUint8ScaleENS1_32OutputStageSaturatingCastToUint8EEEE",
   "source_file" : "external/gemmlowp/public/output_stages.h"
  },
  {
   "function_name" : "gemmlowp::MultiThreadGemmContextBase::set_max_num_threads",
   "linker_set_key" : "_ZN8gemmlowp26MultiThreadGemmContextBase19set_max_num_threadsEi",
   "parameters" :
   [
    {
     "is_this_ptr" : true,
     "referenced_type" : "_ZTIPN8gemmlowp26MultiThreadGemmContextBaseE"
    },
    {
     "referenced_type" : "_ZTIi"
    }
   ],
   "return_type" : "_ZTIv",
   "source_file" : "external/gemmlowp/internal/multi_thread_gemm.h"
  },
  {
   "function_name" : "gemmlowp::BroadcastRoundingDivideByPOTImpl<gemmlowp::RegisterBlock<int, 1, 4>, gemmlowp::RegisterBlock<int, 1, 1>>::Run",
   "linker_set_key" : "_ZN8gemmlowp32BroadcastRoundingDivideByPOTImplINS_13RegisterBlockIiLi1ELi4EEENS1_IiLi1ELi1EEEE3RunERKS2_RKS3_",
   "parameters" :
   [
    {
     "referenced_type" : "_ZTIRKN8gemmlowp13RegisterBlockIiLi1ELi4EEE"
    },
    {
     "referenced_type" : "_ZTIRKN8gemmlowp13RegisterBlockIiLi1ELi1EEE"
    }
   ],
   "return_type" : "_ZTIN8gemmlowp13RegisterBlockIiLi1ELi4EEE",
   "source_file" : "external/gemmlowp/internal/simd_wrappers_neon.h"
  },
  {
   "function_name" : "gemmlowp::BroadcastRoundingDivideByPOTImpl<gemmlowp::RegisterBlock<int, 1, 4>, gemmlowp::RegisterBlock<int, 1, 4>>::Run",
   "linker_set_key" : "_ZN8gemmlowp32BroadcastRoundingDivideByPOTImplINS_13RegisterBlockIiLi1ELi4EEES2_E3RunERKS2_S5_",
   "parameters" :
   [
    {
     "referenced_type" : "_ZTIRKN8gemmlowp13RegisterBlockIiLi1ELi4EEE"
    },
    {
     "referenced_type" : "_ZTIRKN8gemmlowp13RegisterBlockIiLi1ELi4EEE"
    }
   ],
   "return_type" : "_ZTIN8gemmlowp13RegisterBlockIiLi1ELi4EEE",
   "source_file" : "external/gemmlowp/internal/simd_wrappers_neon.h"
  },
  {
   "function_name" : "gemmlowp::BroadcastRoundingDivideByPOTImpl<gemmlowp::RegisterBlock<int, 1, 8>, gemmlowp::RegisterBlock<int, 1, 1>>::Run",
   "linker_set_key" : "_ZN8gemmlowp32BroadcastRoundingDivideByPOTImplINS_13RegisterBlockIiLi1ELi8EEENS1_IiLi1ELi1EEEE3RunERKS2_RKS3_",
   "parameters" :
   [
    {
     "referenced_type" : "_ZTIRKN8gemmlowp13RegisterBlockIiLi1ELi8EEE"
    },
    {
     "referenced_type" : "_ZTIRKN8gemmlowp13RegisterBlockIiLi1ELi1EEE"
    }
   ],
   "return_type" : "_ZTIN8gemmlowp13RegisterBlockIiLi1ELi8EEE",
   "source_file" : "external/gemmlowp/internal/simd_wrappers_neon.h"
  },
  {
   "function_name" : "gemmlowp::BroadcastRoundingDivideByPOTImpl<gemmlowp::RegisterBlock<int, 1, 8>, gemmlowp::RegisterBlock<int, 1, 8>>::Run",
   "linker_set_key" : "_ZN8gemmlowp32BroadcastRoundingDivideByPOTImplINS_13RegisterBlockIiLi1ELi8EEES2_E3RunERKS2_S5_",
   "parameters" :
   [
    {
     "referenced_type" : "_ZTIRKN8gemmlowp13RegisterBlockIiLi1ELi8EEE"
    },
    {
     "referenced_type" : "_ZTIRKN8gemmlowp13RegisterBlockIiLi1ELi8EEE"
    }
   ],
   "return_type" : "_ZTIN8gemmlowp13RegisterBlockIiLi1ELi8EEE",
   "source_file" : "external/gemmlowp/internal/simd_wrappers_neon.h"
  },
  {
   "function_name" : "gemmlowp::BroadcastRoundingDivideByPOTImpl<gemmlowp::RegisterBlock<int, 4, 1>, gemmlowp::RegisterBlock<int, 1, 1>>::Run",
   "linker_set_key" : "_ZN8gemmlowp32BroadcastRoundingDivideByPOTImplINS_13RegisterBlockIiLi4ELi1EEENS1_IiLi1ELi1EEEE3RunERKS2_RKS3_",
   "parameters" :
   [
    {
     "referenced_type" : "_ZTIRKN8gemmlowp13RegisterBlockIiLi4ELi1EEE"
    },
    {
     "referenced_type" : "_ZTIRKN8gemmlowp13RegisterBlockIiLi1ELi1EEE"
    }
   ],
   "return_type" : "_ZTIN8gemmlowp13RegisterBlockIiLi4ELi1EEE",
   "source_file" : "external/gemmlowp/internal/simd_wrappers_neon.h"
  },
  {
   "function_name" : "gemmlowp::BroadcastRoundingDivideByPOTImpl<gemmlowp::RegisterBlock<int, 4, 1>, gemmlowp::RegisterBlock<int, 4, 1>>::Run",
   "linker_set_key" : "_ZN8gemmlowp32BroadcastRoundingDivideByPOTImplINS_13RegisterBlockIiLi4ELi1EEES2_E3RunERKS2_S5_",
   "parameters" :
   [
    {
     "referenced_type" : "_ZTIRKN8gemmlowp13RegisterBlockIiLi4ELi1EEE"
    },
    {
     "referenced_type" : "_ZTIRKN8gemmlowp13RegisterBlockIiLi4ELi1EEE"
    }
   ],
   "return_type" : "_ZTIN8gemmlowp13RegisterBlockIiLi4ELi1EEE",
   "source_file" : "external/gemmlowp/internal/simd_wrappers_neon.h"
  },
  {
   "function_name" : "gemmlowp::BroadcastRoundingDivideByPOTImpl<gemmlowp::RegisterBlock<int, 4, 4>, gemmlowp::RegisterBlock<int, 1, 4>>::Run",
   "linker_set_key" : "_ZN8gemmlowp32BroadcastRoundingDivideByPOTImplINS_13RegisterBlockIiLi4ELi4EEENS1_IiLi1ELi4EEEE3RunERKS2_RKS3_",
   "parameters" :
   [
    {
     "referenced_type" : "_ZTIRKN8gemmlowp13RegisterBlockIiLi4ELi4EEE"
    },
    {
     "referenced_type" : "_ZTIRKN8gemmlowp13RegisterBlockIiLi1ELi4EEE"
    }
   ],
   "return_type" : "_ZTIN8gemmlowp13RegisterBlockIiLi4ELi4EEE",
   "source_file" : "external/gemmlowp/internal/simd_wrappers_neon.h"
  },
  {
   "function_name" : "gemmlowp::BroadcastRoundingDivideByPOTImpl<gemmlowp::RegisterBlock<int, 4, 4>, gemmlowp::RegisterBlock<int, 4, 1>>::Run",
   "linker_set_key" : "_ZN8gemmlowp32BroadcastRoundingDivideByPOTImplINS_13RegisterBlockIiLi4ELi4EEENS1_IiLi4ELi1EEEE3RunERKS2_RKS3_",
   "parameters" :
   [
    {
     "referenced_type" : "_ZTIRKN8gemmlowp13RegisterBlockIiLi4ELi4EEE"
    },
    {
     "referenced_type" : "_ZTIRKN8gemmlowp13RegisterBlockIiLi4ELi1EEE"
    }
   ],
   "return_type" : "_ZTIN8gemmlowp13RegisterBlockIiLi4ELi4EEE",
   "source_file" : "external/gemmlowp/internal/simd_wrappers_neon.h"
  },
  {
   "function_name" : "gemmlowp::BroadcastRoundingDivideByPOTImpl<gemmlowp::RegisterBlock<int, 8, 1>, gemmlowp::RegisterBlock<int, 1, 1>>::Run",
   "linker_set_key" : "_ZN8gemmlowp32BroadcastRoundingDivideByPOTImplINS_13RegisterBlockIiLi8ELi1EEENS1_IiLi1ELi1EEEE3RunERKS2_RKS3_",
   "parameters" :
   [
    {
     "referenced_type" : "_ZTIRKN8gemmlowp13RegisterBlockIiLi8ELi1EEE"
    },
    {
     "referenced_type" : "_ZTIRKN8gemmlowp13RegisterBlockIiLi1ELi1EEE"
    }
   ],
   "return_type" : "_ZTIN8gemmlowp13RegisterBlockIiLi8ELi1EEE",
   "source_file" : "external/gemmlowp/internal/simd_wrappers_neon.h"
  },
  {
   "function_name" : "gemmlowp::BroadcastRoundingDivideByPOTImpl<gemmlowp::RegisterBlock<int, 8, 1>, gemmlowp::RegisterBlock<int, 8, 1>>::Run",
   "linker_set_key" : "_ZN8gemmlowp32BroadcastRoundingDivideByPOTImplINS_13RegisterBlockIiLi8ELi1EEES2_E3RunERKS2_S5_",
   "parameters" :
   [
    {
     "referenced_type" : "_ZTIRKN8gemmlowp13RegisterBlockIiLi8ELi1EEE"
    },
    {
     "referenced_type" : "_ZTIRKN8gemmlowp13RegisterBlockIiLi8ELi1EEE"
    }
   ],
   "return_type" : "_ZTIN8gemmlowp13RegisterBlockIiLi8ELi1EEE",
   "source_file" : "external/gemmlowp/internal/simd_wrappers_neon.h"
  },
  {
   "function_name" : "gemmlowp::BroadcastRoundingDivideByPOTImpl<gemmlowp::RegisterBlock<int, 8, 4>, gemmlowp::RegisterBlock<int, 1, 4>>::Run",
   "linker_set_key" : "_ZN8gemmlowp32BroadcastRoundingDivideByPOTImplINS_13RegisterBlockIiLi8ELi4EEENS1_IiLi1ELi4EEEE3RunERKS2_RKS3_",
   "parameters" :
   [
    {
     "referenced_type" : "_ZTIRKN8gemmlowp13RegisterBlockIiLi8ELi4EEE"
    },
    {
     "referenced_type" : "_ZTIRKN8gemmlowp13RegisterBlockIiLi1ELi4EEE"
    }
   ],
   "return_type" : "_ZTIN8gemmlowp13RegisterBlockIiLi8ELi4EEE",
   "source_file" : "external/gemmlowp/internal/simd_wrappers_neon.h"
  },
  {
   "function_name" : "gemmlowp::BroadcastRoundingDivideByPOTImpl<gemmlowp::RegisterBlock<int, 8, 4>, gemmlowp::RegisterBlock<int, 8, 1>>::Run",
   "linker_set_key" : "_ZN8gemmlowp32BroadcastRoundingDivideByPOTImplINS_13RegisterBlockIiLi8ELi4EEENS1_IiLi8ELi1EEEE3RunERKS2_RKS3_",
   "parameters" :
   [
    {
     "referenced_type" : "_ZTIRKN8gemmlowp13RegisterBlockIiLi8ELi4EEE"
    },
    {
     "referenced_type" : "_ZTIRKN8gemmlowp13RegisterBlockIiLi8ELi1EEE"
    }
   ],
   "return_type" : "_ZTIN8gemmlowp13RegisterBlockIiLi8ELi4EEE",
   "source_file" : "external/gemmlowp/internal/simd_wrappers_neon.h"
  },
  {
   "function_name" : "gemmlowp::RegisterCurrentThreadForProfiling",
   "linker_set_key" : "_ZN8gemmlowp33RegisterCurrentThreadForProfilingEv",
   "return_type" : "_ZTIv",
   "source_file" : "external/gemmlowp/profiling/instrumentation.h"
  },
  {
   "function_name" : "gemmlowp::SaturatingRoundingDoublingHighMul",
   "linker_set_key" : "_ZN8gemmlowp33SaturatingRoundingDoublingHighMulE11__Int32x4_ti",
   "parameters" :
   [
    {
     "referenced_type" : "_ZTI11__Int32x4_t"
    },
    {
     "referenced_type" : "_ZTIi"
    }
   ],
   "return_type" : "_ZTI11__Int32x4_t",
   "source_file" : "external/gemmlowp/internal/simd_wrappers_neon.h"
  },
  {
   "function_name" : "gemmlowp::SaturatingRoundingDoublingHighMul",
   "linker_set_key" : "_ZN8gemmlowp33SaturatingRoundingDoublingHighMulI11__Int16x8_tEET_S2_S2_",
   "parameters" :
   [
    {
     "referenced_type" : "_ZTI11__Int16x8_t"
    },
    {
     "referenced_type" : "_ZTI11__Int16x8_t"
    }
   ],
   "return_type" : "_ZTI11__Int16x8_t",
   "source_file" : "external/gemmlowp/fixedpoint/fixedpoint_neon.h",
   "template_args" : [ "_ZTI11__Int16x8_t" ]
  },
  {
   "function_name" : "gemmlowp::SaturatingRoundingDoublingHighMul",
   "linker_set_key" : "_ZN8gemmlowp33SaturatingRoundingDoublingHighMulI11__Int32x4_tEET_S2_S2_",
   "parameters" :
   [
    {
     "referenced_type" : "_ZTI11__Int32x4_t"
    },
    {
     "referenced_type" : "_ZTI11__Int32x4_t"
    }
   ],
   "return_type" : "_ZTI11__Int32x4_t",
   "source_file" : "external/gemmlowp/fixedpoint/fixedpoint_neon.h",
   "template_args" : [ "_ZTI11__Int32x4_t" ]
  },
  {
   "function_name" : "gemmlowp::SaturatingRoundingDoublingHighMul",
   "linker_set_key" : "_ZN8gemmlowp33SaturatingRoundingDoublingHighMulIiEET_S1_S1_",
   "parameters" :
   [
    {
     "referenced_type" : "_ZTIi"
    },
    {
     "referenced_type" : "_ZTIi"
    }
   ],
   "return_type" : "_ZTIi",
   "source_file" : "external/gemmlowp/fixedpoint/fixedpoint.h",
   "template_args" : [ "_ZTIi" ]
  },
  {
   "function_name" : "gemmlowp::SaturatingRoundingDoublingHighMul",
   "linker_set_key" : "_ZN8gemmlowp33SaturatingRoundingDoublingHighMulIsEET_S1_S1_",
   "parameters" :
   [
    {
     "referenced_type" : "_ZTIs"
    },
    {
     "referenced_type" : "_ZTIs"
    }
   ],
   "return_type" : "_ZTIs",
   "source_file" : "external/gemmlowp/fixedpoint/fixedpoint.h",
   "template_args" : [ "_ZTIs" ]
  },
  {
   "function_name" : "gemmlowp::Add",
   "linker_set_key" : "_ZN8gemmlowp3AddI11__Int16x8_tEET_S2_S2_",
   "parameters" :
   [
    {
     "referenced_type" : "_ZTI11__Int16x8_t"
    },
    {
     "referenced_type" : "_ZTI11__Int16x8_t"
    }
   ],
   "return_type" : "_ZTI11__Int16x8_t",
   "source_file" : "external/gemmlowp/fixedpoint/fixedpoint_neon.h",
   "template_args" : [ "_ZTI11__Int16x8_t" ]
  },
  {
   "function_name" : "gemmlowp::Add",
   "linker_set_key" : "_ZN8gemmlowp3AddI11__Int32x4_tEET_S2_S2_",
   "parameters" :
   [
    {
     "referenced_type" : "_ZTI11__Int32x4_t"
    },
    {
     "referenced_type" : "_ZTI11__Int32x4_t"
    }
   ],
   "return_type" : "_ZTI11__Int32x4_t",
   "source_file" : "external/gemmlowp/fixedpoint/fixedpoint_neon.h",
   "template_args" : [ "_ZTI11__Int32x4_t" ]
  },
  {
   "function_name" : "gemmlowp::All",
   "linker_set_key" : "_ZN8gemmlowp3AllI11__Int16x8_tEEbT_",
   "parameters" :
   [
    {
     "referenced_type" : "_ZTI11__Int16x8_t"
    }
   ],
   "return_type" : "_ZTIb",
   "source_file" : "external/gemmlowp/fixedpoint/fixedpoint_neon.h",
   "template_args" : [ "_ZTI11__Int16x8_t" ]
  },
  {
   "function_name" : "gemmlowp::All",
   "linker_set_key" : "_ZN8gemmlowp3AllI11__Int32x4_tEEbT_",
   "parameters" :
   [
    {
     "referenced_type" : "_ZTI11__Int32x4_t"
    }
   ],
   "return_type" : "_ZTIb",
   "source_file" : "external/gemmlowp/fixedpoint/fixedpoint_neon.h",
   "template_args" : [ "_ZTI11__Int32x4_t" ]
  },
  {
   "function_name" : "gemmlowp::Any",
   "linker_set_key" : "_ZN8gemmlowp3AnyI11__Int16x8_tEEbT_",
   "parameters" :
   [
    {
     "referenced_type" : "_ZTI11__Int16x8_t"
    }
   ],
   "return_type" : "_ZTIb",
   "source_file" : "external/gemmlowp/fixedpoint/fixedpoint_neon.h",
   "template_args" : [ "_ZTI11__Int16x8_t" ]
  },
  {
   "function_name" : "gemmlowp::Any",
   "linker_set_key" : "_ZN8gemmlowp3AnyI11__Int32x4_tEEbT_",
   "parameters" :
   [
    {
     "referenced_type" : "_ZTI11__Int32x4_t"
    }
   ],
   "return_type" : "_ZTIb",
   "source_file" : "external/gemmlowp/fixedpoint/fixedpoint_neon.h",
   "template_args" : [ "_ZTI11__Int32x4_t" ]
  },
  {
   "function_name" : "gemmlowp::Dup",
   "linker_set_key" : "_ZN8gemmlowp3DupI11__Int16x8_tEET_NS_23FixedPointRawTypeTraitsIS2_E13ScalarRawTypeE",
   "parameters" :
   [
    {
     "referenced_type" : "_ZTIs"
    }
   ],
   "return_type" : "_ZTI11__Int16x8_t",
   "source_file" : "external/gemmlowp/fixedpoint/fixedpoint_neon.h",
   "template_args" : [ "_ZTI11__Int16x8_t" ]
  },
  {
   "function_name" : "gemmlowp::Dup",
   "linker_set_key" : "_ZN8gemmlowp3DupI11__Int32x4_tEET_NS_23FixedPointRawTypeTraitsIS2_E13ScalarRawTypeE",
   "parameters" :
   [
    {
     "referenced_type" : "_ZTIi"
    }
   ],
   "return_type" : "_ZTI11__Int32x4_t",
   "source_file" : "external/gemmlowp/fixedpoint/fixedpoint_neon.h",
   "template_args" : [ "_ZTI11__Int32x4_t" ]
  },
  {
   "function_name" : "gemmlowp::Max",
   "linker_set_key" : "_ZN8gemmlowp3MaxE11__Int32x4_tS0_",
   "parameters" :
   [
    {
     "referenced_type" : "_ZTI11__Int32x4_t"
    },
    {
     "referenced_type" : "_ZTI11__Int32x4_t"
    }
   ],
   "return_type" : "_ZTI11__Int32x4_t",
   "source_file" : "external/gemmlowp/internal/simd_wrappers_neon.h"
  },
  {
   "function_name" : "gemmlowp::Max",
   "linker_set_key" : "_ZN8gemmlowp3MaxE11__Int32x4_ti",
   "parameters" :
   [
    {
     "referenced_type" : "_ZTI11__Int32x4_t"
    },
    {
     "referenced_type" : "_ZTIi"
    }
   ],
   "return_type" : "_ZTI11__Int32x4_t",
   "source_file" : "external/gemmlowp/internal/simd_wrappers_neon.h"
  },
  {
   "function_name" : "gemmlowp::Max",
   "linker_set_key" : "_ZN8gemmlowp3MaxEii",
   "parameters" :
   [
    {
     "referenced_type" : "_ZTIi"
    },
    {
     "referenced_type" : "_ZTIi"
    }
   ],
   "return_type" : "_ZTIi",
   "source_file" : "external/gemmlowp/internal/simd_wrappers.h"
  },
  {
   "function_name" : "gemmlowp::Min",
   "linker_set_key" : "_ZN8gemmlowp3MinE11__Int32x4_tS0_",
   "parameters" :
   [
    {
     "referenced_type" : "_ZTI11__Int32x4_t"
    },
    {
     "referenced_type" : "_ZTI11__Int32x4_t"
    }
   ],
   "return_type" : "_ZTI11__Int32x4_t",
   "source_file" : "external/gemmlowp/internal/simd_wrappers_neon.h"
  },
  {
   "function_name" : "gemmlowp::Min",
   "linker_set_key" : "_ZN8gemmlowp3MinEii",
   "parameters" :
   [
    {
     "referenced_type" : "_ZTIi"
    },
    {
     "referenced_type" : "_ZTIi"
    }
   ],
   "return_type" : "_ZTIi",
   "source_file" : "external/gemmlowp/internal/simd_wrappers.h"
  },
  {
   "function_name" : "gemmlowp::Mul",
   "linker_set_key" : "_ZN8gemmlowp3MulE11__Int32x4_ti",
   "parameters" :
   [
    {
     "referenced_type" : "_ZTI11__Int32x4_t"
    },
    {
     "referenced_type" : "_ZTIi"
    }
   ],
   "return_type" : "_ZTI11__Int32x4_t",
   "source_file" : "external/gemmlowp/internal/simd_wrappers_neon.h"
  },
  {
   "function_name" : "gemmlowp::Mul",
   "linker_set_key" : "_ZN8gemmlowp3MulI11__Int32x4_tEET_S2_S2_",
   "parameters" :
   [
    {
     "referenced_type" : "_ZTI11__Int32x4_t"
    },
    {
     "referenced_type" : "_ZTI11__Int32x4_t"
    }
   ],
   "return_type" : "_ZTI11__Int32x4_t",
   "source_file" : "external/gemmlowp/fixedpoint/fixedpoint.h",
   "template_args" : [ "_ZTI11__Int32x4_t" ]
  },
  {
   "function_name" : "gemmlowp::Neg",
   "linker_set_key" : "_ZN8gemmlowp3NegI11__Int16x8_tEET_S2_",
   "parameters" :
   [
    {
     "referenced_type" : "_ZTI11__Int16x8_t"
    }
   ],
   "return_type" : "_ZTI11__Int16x8_t",
   "source_file" : "external/gemmlowp/fixedpoint/fixedpoint_neon.h",
   "template_args" : [ "_ZTI11__Int16x8_t" ]
  },
  {
   "function_name" : "gemmlowp::Neg",
   "linker_set_key" : "_ZN8gemmlowp3NegI11__Int32x4_tEET_S2_",
   "parameters" :
   [
    {
     "referenced_type" : "_ZTI11__Int32x4_t"
    }
   ],
   "return_type" : "_ZTI11__Int32x4_t",
   "source_file" : "external/gemmlowp/fixedpoint/fixedpoint_neon.h",
   "template_args" : [ "_ZTI11__Int32x4_t" ]
  },
  {
   "function_name" : "gemmlowp::Sub",
   "linker_set_key" : "_ZN8gemmlowp3SubI11__Int16x8_tEET_S2_S2_",
   "parameters" :
   [
    {
     "referenced_type" : "_ZTI11__Int16x8_t"
    },
    {
     "referenced_type" : "_ZTI11__Int16x8_t"
    }
   ],
   "return_type" : "_ZTI11__Int16x8_t",
   "source_file" : "external/gemmlowp/fixedpoint/fixedpoint_neon.h",
   "template_args" : [ "_ZTI11__Int16x8_t" ]
  },
  {
   "function_name" : "gemmlowp::Sub",
   "linker_set_key" : "_ZN8gemmlowp3SubI11__Int32x4_tEET_S2_S2_",
   "parameters" :
   [
    {
     "referenced_type" : "_ZTI11__Int32x4_t"
    },
    {
     "referenced_type" : "_ZTI11__Int32x4_t"
    }
   ],
   "return_type" : "_ZTI11__Int32x4_t",
   "source_file" : "external/gemmlowp/fixedpoint/fixedpoint_neon.h",
   "template_args" : [ "_ZTI11__Int32x4_t" ]
  },
  {
   "function_name" : "gemmlowp::BroadcastSaturatingRoundingDoublingHighMulImpl<gemmlowp::RegisterBlock<int, 1, 4>, gemmlowp::RegisterBlock<int, 1, 1>>::Run",
   "linker_set_key" : "_ZN8gemmlowp46BroadcastSaturatingRoundingDoublingHighMulImplINS_13RegisterBlockIiLi1ELi4EEENS1_IiLi1ELi1EEEE3RunERKS2_RKS3_",
   "parameters" :
   [
    {
     "referenced_type" : "_ZTIRKN8gemmlowp13RegisterBlockIiLi1ELi4EEE"
    },
    {
     "referenced_type" : "_ZTIRKN8gemmlowp13RegisterBlockIiLi1ELi1EEE"
    }
   ],
   "return_type" : "_ZTIN8gemmlowp13RegisterBlockIiLi1ELi4EEE",
   "source_file" : "external/gemmlowp/internal/simd_wrappers_common_neon_sse.h"
  },
  {
   "function_name" : "gemmlowp::BroadcastSaturatingRoundingDoublingHighMulImpl<gemmlowp::RegisterBlock<int, 1, 4>, gemmlowp::RegisterBlock<int, 1, 4>>::Run",
   "linker_set_key" : "_ZN8gemmlowp46BroadcastSaturatingRoundingDoublingHighMulImplINS_13RegisterBlockIiLi1ELi4EEES2_E3RunERKS2_S5_",
   "parameters" :
   [
    {
     "referenced_type" : "_ZTIRKN8gemmlowp13RegisterBlockIiLi1ELi4EEE"
    },
    {
     "referenced_type" : "_ZTIRKN8gemmlowp13RegisterBlockIiLi1ELi4EEE"
    }
   ],
   "return_type" : "_ZTIN8gemmlowp13RegisterBlockIiLi1ELi4EEE",
   "source_file" : "external/gemmlowp/internal/simd_wrappers_common_neon_sse.h"
  },
  {
   "function_name" : "gemmlowp::BroadcastSaturatingRoundingDoublingHighMulImpl<gemmlowp::RegisterBlock<int, 1, 8>, gemmlowp::RegisterBlock<int, 1, 1>>::Run",
   "linker_set_key" : "_ZN8gemmlowp46BroadcastSaturatingRoundingDoublingHighMulImplINS_13RegisterBlockIiLi1ELi8EEENS1_IiLi1ELi1EEEE3RunERKS2_RKS3_",
   "parameters" :
   [
    {
     "referenced_type" : "_ZTIRKN8gemmlowp13RegisterBlockIiLi1ELi8EEE"
    },
    {
     "referenced_type" : "_ZTIRKN8gemmlowp13RegisterBlockIiLi1ELi1EEE"
    }
   ],
   "return_type" : "_ZTIN8gemmlowp13RegisterBlockIiLi1ELi8EEE",
   "source_file" : "external/gemmlowp/internal/simd_wrappers_common_neon_sse.h"
  },
  {
   "function_name" : "gemmlowp::BroadcastSaturatingRoundingDoublingHighMulImpl<gemmlowp::RegisterBlock<int, 1, 8>, gemmlowp::RegisterBlock<int, 1, 8>>::Run",
   "linker_set_key" : "_ZN8gemmlowp46BroadcastSaturatingRoundingDoublingHighMulImplINS_13RegisterBlockIiLi1ELi8EEES2_E3RunERKS2_S5_",
   "parameters" :
   [
    {
     "referenced_type" : "_ZTIRKN8gemmlowp13RegisterBlockIiLi1ELi8EEE"
    },
    {
     "referenced_type" : "_ZTIRKN8gemmlowp13RegisterBlockIiLi1ELi8EEE"
    }
   ],
   "return_type" : "_ZTIN8gemmlowp13RegisterBlockIiLi1ELi8EEE",
   "source_file" : "external/gemmlowp/internal/simd_wrappers_common_neon_sse.h"
  },
  {
   "function_name" : "gemmlowp::BroadcastSaturatingRoundingDoublingHighMulImpl<gemmlowp::RegisterBlock<int, 4, 1>, gemmlowp::RegisterBlock<int, 1, 1>>::Run",
   "linker_set_key" : "_ZN8gemmlowp46BroadcastSaturatingRoundingDoublingHighMulImplINS_13RegisterBlockIiLi4ELi1EEENS1_IiLi1ELi1EEEE3RunERKS2_RKS3_",
   "parameters" :
   [
    {
     "referenced_type" : "_ZTIRKN8gemmlowp13RegisterBlockIiLi4ELi1EEE"
    },
    {
     "referenced_type" : "_ZTIRKN8gemmlowp13RegisterBlockIiLi1ELi1EEE"
    }
   ],
   "return_type" : "_ZTIN8gemmlowp13RegisterBlockIiLi4ELi1EEE",
   "source_file" : "external/gemmlowp/internal/simd_wrappers_common_neon_sse.h"
  },
  {
   "function_name" : "gemmlowp::BroadcastSaturatingRoundingDoublingHighMulImpl<gemmlowp::RegisterBlock<int, 4, 1>, gemmlowp::RegisterBlock<int, 4, 1>>::Run",
   "linker_set_key" : "_ZN8gemmlowp46BroadcastSaturatingRoundingDoublingHighMulImplINS_13RegisterBlockIiLi4ELi1EEES2_E3RunERKS2_S5_",
   "parameters" :
   [
    {
     "referenced_type" : "_ZTIRKN8gemmlowp13RegisterBlockIiLi4ELi1EEE"
    },
    {
     "referenced_type" : "_ZTIRKN8gemmlowp13RegisterBlockIiLi4ELi1EEE"
    }
   ],
   "return_type" : "_ZTIN8gemmlowp13RegisterBlockIiLi4ELi1EEE",
   "source_file" : "external/gemmlowp/internal/simd_wrappers_common_neon_sse.h"
  },
  {
   "function_name" : "gemmlowp::BroadcastSaturatingRoundingDoublingHighMulImpl<gemmlowp::RegisterBlock<int, 4, 4>, gemmlowp::RegisterBlock<int, 1, 4>>::Run",
   "linker_set_key" : "_ZN8gemmlowp46BroadcastSaturatingRoundingDoublingHighMulImplINS_13RegisterBlockIiLi4ELi4EEENS1_IiLi1ELi4EEEE3RunERKS2_RKS3_",
   "parameters" :
   [
    {
     "referenced_type" : "_ZTIRKN8gemmlowp13RegisterBlockIiLi4ELi4EEE"
    },
    {
     "referenced_type" : "_ZTIRKN8gemmlowp13RegisterBlockIiLi1ELi4EEE"
    }
   ],
   "return_type" : "_ZTIN8gemmlowp13RegisterBlockIiLi4ELi4EEE",
   "source_file" : "external/gemmlowp/internal/simd_wrappers_common_neon_sse.h"
  },
  {
   "function_name" : "gemmlowp::BroadcastSaturatingRoundingDoublingHighMulImpl<gemmlowp::RegisterBlock<int, 4, 4>, gemmlowp::RegisterBlock<int, 4, 1>>::Run",
   "linker_set_key" : "_ZN8gemmlowp46BroadcastSaturatingRoundingDoublingHighMulImplINS_13RegisterBlockIiLi4ELi4EEENS1_IiLi4ELi1EEEE3RunERKS2_RKS3_",
   "parameters" :
   [
    {
     "referenced_type" : "_ZTIRKN8gemmlowp13RegisterBlockIiLi4ELi4EEE"
    },
    {
     "referenced_type" : "_ZTIRKN8gemmlowp13RegisterBlockIiLi4ELi1EEE"
    }
   ],
   "return_type" : "_ZTIN8gemmlowp13RegisterBlockIiLi4ELi4EEE",
   "source_file" : "external/gemmlowp/internal/simd_wrappers_common_neon_sse.h"
  },
  {
   "function_name" : "gemmlowp::BroadcastSaturatingRoundingDoublingHighMulImpl<gemmlowp::RegisterBlock<int, 8, 1>, gemmlowp::RegisterBlock<int, 1, 1>>::Run",
   "linker_set_key" : "_ZN8gemmlowp46BroadcastSaturatingRoundingDoublingHighMulImplINS_13RegisterBlockIiLi8ELi1EEENS1_IiLi1ELi1EEEE3RunERKS2_RKS3_",
   "parameters" :
   [
    {
     "referenced_type" : "_ZTIRKN8gemmlowp13RegisterBlockIiLi8ELi1EEE"
    },
    {
     "referenced_type" : "_ZTIRKN8gemmlowp13RegisterBlockIiLi1ELi1EEE"
    }
   ],
   "return_type" : "_ZTIN8gemmlowp13RegisterBlockIiLi8ELi1EEE",
   "source_file" : "external/gemmlowp/internal/simd_wrappers_common_neon_sse.h"
  },
  {
   "function_name" : "gemmlowp::BroadcastSaturatingRoundingDoublingHighMulImpl<gemmlowp::RegisterBlock<int, 8, 1>, gemmlowp::RegisterBlock<int, 8, 1>>::Run",
   "linker_set_key" : "_ZN8gemmlowp46BroadcastSaturatingRoundingDoublingHighMulImplINS_13RegisterBlockIiLi8ELi1EEES2_E3RunERKS2_S5_",
   "parameters" :
   [
    {
     "referenced_type" : "_ZTIRKN8gemmlowp13RegisterBlockIiLi8ELi1EEE"
    },
    {
     "referenced_type" : "_ZTIRKN8gemmlowp13RegisterBlockIiLi8ELi1EEE"
    }
   ],
   "return_type" : "_ZTIN8gemmlowp13RegisterBlockIiLi8ELi1EEE",
   "source_file" : "external/gemmlowp/internal/simd_wrappers_common_neon_sse.h"
  },
  {
   "function_name" : "gemmlowp::BroadcastSaturatingRoundingDoublingHighMulImpl<gemmlowp::RegisterBlock<int, 8, 4>, gemmlowp::RegisterBlock<int, 1, 4>>::Run",
   "linker_set_key" : "_ZN8gemmlowp46BroadcastSaturatingRoundingDoublingHighMulImplINS_13RegisterBlockIiLi8ELi4EEENS1_IiLi1ELi4EEEE3RunERKS2_RKS3_",
   "parameters" :
   [
    {
     "referenced_type" : "_ZTIRKN8gemmlowp13RegisterBlockIiLi8ELi4EEE"
    },
    {
     "referenced_type" : "_ZTIRKN8gemmlowp13RegisterBlockIiLi1ELi4EEE"
    }
   ],
   "return_type" : "_ZTIN8gemmlowp13RegisterBlockIiLi8ELi4EEE",
   "source_file" : "external/gemmlowp/internal/simd_wrappers_common_neon_sse.h"
  },
  {
   "function_name" : "gemmlowp::BroadcastSaturatingRoundingDoublingHighMulImpl<gemmlowp::RegisterBlock<int, 8, 4>, gemmlowp::RegisterBlock<int, 8, 1>>::Run",
   "linker_set_key" : "_ZN8gemmlowp46BroadcastSaturatingRoundingDoublingHighMulImplINS_13RegisterBlockIiLi8ELi4EEENS1_IiLi8ELi1EEEE3RunERKS2_RKS3_",
   "parameters" :
   [
    {
     "referenced_type" : "_ZTIRKN8gemmlowp13RegisterBlockIiLi8ELi4EEE"
    },
    {
     "referenced_type" : "_ZTIRKN8gemmlowp13RegisterBlockIiLi8ELi1EEE"
    }
   ],
   "return_type" : "_ZTIN8gemmlowp13RegisterBlockIiLi8ELi4EEE",
   "source_file" : "external/gemmlowp/internal/simd_wrappers_common_neon_sse.h"
  },
  {
   "function_name" : "gemmlowp::Task::Task",
   "linker_set_key" : "_ZN8gemmlowp4TaskC2Ev",
   "parameters" :
   [
    {
     "is_this_ptr" : true,
     "referenced_type" : "_ZTIPN8gemmlowp4TaskE"
    }
   ],
   "return_type" : "_ZTIv",
   "source_file" : "external/gemmlowp/internal/multi_thread_gemm.h"
  },
  {
   "function_name" : "gemmlowp::Task::~Task",
   "linker_set_key" : "_ZN8gemmlowp4TaskD0Ev",
   "parameters" :
   [
    {
     "is_this_ptr" : true,
     "referenced_type" : "_ZTIPN8gemmlowp4TaskE"
    }
   ],
   "return_type" : "_ZTIv",
   "source_file" : "external/gemmlowp/internal/multi_thread_gemm.h"
  },
  {
   "function_name" : "gemmlowp::Task::~Task",
   "linker_set_key" : "_ZN8gemmlowp4TaskD1Ev",
   "parameters" :
   [
    {
     "is_this_ptr" : true,
     "referenced_type" : "_ZTIPN8gemmlowp4TaskE"
    }
   ],
   "return_type" : "_ZTIv",
   "source_file" : "external/gemmlowp/internal/multi_thread_gemm.h"
  },
  {
   "function_name" : "gemmlowp::Task::~Task",
   "linker_set_key" : "_ZN8gemmlowp4TaskD2Ev",
   "parameters" :
   [
    {
     "is_this_ptr" : true,
     "referenced_type" : "_ZTIPN8gemmlowp4TaskE"
    }
   ],
   "return_type" : "_ZTIv",
   "source_file" : "external/gemmlowp/internal/multi_thread_gemm.h"
  },
  {
   "function_name" : "gemmlowp::BitOr",
   "linker_set_key" : "_ZN8gemmlowp5BitOrI11__Int16x8_tEET_S2_S2_",
   "parameters" :
   [
    {
     "referenced_type" : "_ZTI11__Int16x8_t"
    },
    {
     "referenced_type" : "_ZTI11__Int16x8_t"
    }
   ],
   "return_type" : "_ZTI11__Int16x8_t",
   "source_file" : "external/gemmlowp/fixedpoint/fixedpoint_neon.h",
   "template_args" : [ "_ZTI11__Int16x8_t" ]
  },
  {
   "function_name" : "gemmlowp::BitOr",
   "linker_set_key" : "_ZN8gemmlowp5BitOrI11__Int32x4_tEET_S2_S2_",
   "parameters" :
   [
    {
     "referenced_type" : "_ZTI11__Int32x4_t"
    },
    {
     "referenced_type" : "_ZTI11__Int32x4_t"
    }
   ],
   "return_type" : "_ZTI11__Int32x4_t",
   "source_file" : "external/gemmlowp/fixedpoint/fixedpoint_neon.h",
   "template_args" : [ "_ZTI11__Int32x4_t" ]
  },
  {
   "function_name" : "gemmlowp::Mutex::Lock",
   "linker_set_key" : "_ZN8gemmlowp5Mutex4LockEv",
   "parameters" :
   [
    {
     "is_this_ptr" : true,
     "referenced_type" : "_ZTIPN8gemmlowp5MutexE"
    }
   ],
   "return_type" : "_ZTIv",
   "source_file" : "external/gemmlowp/profiling/instrumentation.h"
  },
  {
   "function_name" : "gemmlowp::Mutex::Unlock",
   "linker_set_key" : "_ZN8gemmlowp5Mutex6UnlockEv",
   "parameters" :
   [
    {
     "is_this_ptr" : true,
     "referenced_type" : "_ZTIPN8gemmlowp5MutexE"
    }
   ],
   "return_type" : "_ZTIv",
   "source_file" : "external/gemmlowp/profiling/instrumentation.h"
  },
  {
   "function_name" : "gemmlowp::Mutex::Mutex",
   "linker_set_key" : "_ZN8gemmlowp5MutexC1Ev",
   "parameters" :
   [
    {
     "is_this_ptr" : true,
     "referenced_type" : "_ZTIPN8gemmlowp5MutexE"
    }
   ],
   "return_type" : "_ZTIv",
   "source_file" : "external/gemmlowp/profiling/instrumentation.h"
  },
  {
   "function_name" : "gemmlowp::Mutex::Mutex",
   "linker_set_key" : "_ZN8gemmlowp5MutexC2Ev",
   "parameters" :
   [
    {
     "is_this_ptr" : true,
     "referenced_type" : "_ZTIPN8gemmlowp5MutexE"
    }
   ],
   "return_type" : "_ZTIv",
   "source_file" : "external/gemmlowp/profiling/instrumentation.h"
  },
  {
   "function_name" : "gemmlowp::Mutex::~Mutex",
   "linker_set_key" : "_ZN8gemmlowp5MutexD1Ev",
   "parameters" :
   [
    {
     "is_this_ptr" : true,
     "referenced_type" : "_ZTIPN8gemmlowp5MutexE"
    }
   ],
   "return_type" : "_ZTIv",
   "source_file" : "external/gemmlowp/profiling/instrumentation.h"
  },
  {
   "function_name" : "gemmlowp::Mutex::~Mutex",
   "linker_set_key" : "_ZN8gemmlowp5MutexD2Ev",
   "parameters" :
   [
    {
     "is_this_ptr" : true,
     "referenced_type" : "_ZTIPN8gemmlowp5MutexE"
    }
   ],
   "return_type" : "_ZTIv",
   "source_file" : "external/gemmlowp/profiling/instrumentation.h"
  },
  {
   "function_name" : "gemmlowp::BitAnd",
   "linker_set_key" : "_ZN8gemmlowp6BitAndI11__Int16x8_tEET_S2_S2_",
   "parameters" :
   [
    {
     "referenced_type" : "_ZTI11__Int16x8_t"
    },
    {
     "referenced_type" : "_ZTI11__Int16x8_t"
    }
   ],
   "return_type" : "_ZTI11__Int16x8_t",
   "source_file" : "external/gemmlowp/fixedpoint/fixedpoint_neon.h",
   "template_args" : [ "_ZTI11__Int16x8_t" ]
  },
  {
   "function_name" : "gemmlowp::BitAnd",
   "linker_set_key" : "_ZN8gemmlowp6BitAndI11__Int32x4_tEET_S2_S2_",
   "parameters" :
   [
    {
     "referenced_type" : "_ZTI11__Int32x4_t"
    },
    {
     "referenced_type" : "_ZTI11__Int32x4_t"
    }
   ],
   "return_type" : "_ZTI11__Int32x4_t",
   "source_file" : "external/gemmlowp/fixedpoint/fixedpoint_neon.h",
   "template_args" : [ "_ZTI11__Int32x4_t" ]
  },
  {
   "function_name" : "gemmlowp::BitNot",
   "linker_set_key" : "_ZN8gemmlowp6BitNotI11__Int16x8_tEET_S2_",
   "parameters" :
   [
    {
     "referenced_type" : "_ZTI11__Int16x8_t"
    }
   ],
   "return_type" : "_ZTI11__Int16x8_t",
   "source_file" : "external/gemmlowp/fixedpoint/fixedpoint_neon.h",
   "template_args" : [ "_ZTI11__Int16x8_t" ]
  },
  {
   "function_name" : "gemmlowp::BitNot",
   "linker_set_key" : "_ZN8gemmlowp6BitNotI11__Int32x4_tEET_S2_",
   "parameters" :
   [
    {
     "referenced_type" : "_ZTI11__Int32x4_t"
    }
   ],
   "return_type" : "_ZTI11__Int32x4_t",
   "source_file" : "external/gemmlowp/fixedpoint/fixedpoint_neon.h",
   "template_args" : [ "_ZTI11__Int32x4_t" ]
  },
  {
   "function_name" : "gemmlowp::BitXor",
   "linker_set_key" : "_ZN8gemmlowp6BitXorI11__Int16x8_tEET_S2_S2_",
   "parameters" :
   [
    {
     "referenced_type" : "_ZTI11__Int16x8_t"
    },
    {
     "referenced_type" : "_ZTI11__Int16x8_t"
    }
   ],
   "return_type" : "_ZTI11__Int16x8_t",
   "source_file" : "external/gemmlowp/fixedpoint/fixedpoint_neon.h",
   "template_args" : [ "_ZTI11__Int16x8_t" ]
  },
  {
   "function_name" : "gemmlowp::BitXor",
   "linker_set_key" : "_ZN8gemmlowp6BitXorI11__Int32x4_tEET_S2_S2_",
   "parameters" :
   [
    {
     "referenced_type" : "_ZTI11__Int32x4_t"
    },
    {
     "referenced_type" : "_ZTI11__Int32x4_t"
    }
   ],
   "return_type" : "_ZTI11__Int32x4_t",
   "source_file" : "external/gemmlowp/fixedpoint/fixedpoint_neon.h",
   "template_args" : [ "_ZTI11__Int32x4_t" ]
  },
  {
   "function_name" : "gemmlowp::MulAdd",
   "linker_set_key" : "_ZN8gemmlowp6MulAddE11__Int32x4_tS0_PS0_",
   "parameters" :
   [
    {
     "referenced_type" : "_ZTI11__Int32x4_t"
    },
    {
     "referenced_type" : "_ZTI11__Int32x4_t"
    },
    {
     "referenced_type" : "_ZTIP11__Int32x4_t"
    }
   ],
   "return_type" : "_ZTIv",
   "source_file" : "external/gemmlowp/internal/simd_wrappers_neon.h"
  },
  {
   "function_name" : "gemmlowp::MulAdd",
   "linker_set_key" : "_ZN8gemmlowp6MulAddE11__Int32x4_tiPS0_",
   "parameters" :
   [
    {
     "referenced_type" : "_ZTI11__Int32x4_t"
    },
    {
     "referenced_type" : "_ZTIi"
    },
    {
     "referenced_type" : "_ZTIP11__Int32x4_t"
    }
   ],
   "return_type" : "_ZTIv",
   "source_file" : "external/gemmlowp/internal/simd_wrappers_neon.h"
  },
  {
   "function_name" : "gemmlowp::MulAdd",
   "linker_set_key" : "_ZN8gemmlowp6MulAddEiiPi",
   "parameters" :
   [
    {
     "referenced_type" : "_ZTIi"
    },
    {
     "referenced_type" : "_ZTIi"
    },
    {
     "referenced_type" : "_ZTIPi"
    }
   ],
   "return_type" : "_ZTIv",
   "source_file" : "external/gemmlowp/internal/simd_wrappers.h"
  },
  {
   "function_name" : "gemmlowp::Worker::ThreadFunc",
   "linker_set_key" : "_ZN8gemmlowp6Worker10ThreadFuncEPv",
   "parameters" :
   [
    {
     "referenced_type" : "_ZTIPv"
    }
   ],
   "return_type" : "_ZTIPv",
   "source_file" : "external/gemmlowp/internal/multi_thread_gemm.h"
  },
  {
   "function_name" : "gemmlowp::Worker::ThreadFunc",
   "linker_set_key" : "_ZN8gemmlowp6Worker10ThreadFuncEv",
   "parameters" :
   [
    {
     "is_this_ptr" : true,
     "referenced_type" : "_ZTIPN8gemmlowp6WorkerE"
    }
   ],
   "return_type" : "_ZTIv",
   "source_file" : "external/gemmlowp/internal/multi_thread_gemm.h"
  },
  {
   "function_name" : "gemmlowp::Worker::ChangeState",
   "linker_set_key" : "_ZN8gemmlowp6Worker11ChangeStateENS0_5StateEPNS_4TaskE",
   "parameters" :
   [
    {
     "is_this_ptr" : true,
     "referenced_type" : "_ZTIPN8gemmlowp6WorkerE"
    },
    {
     "referenced_type" : "_ZTIN8gemmlowp6Worker5StateE"
    },
    {
     "default_arg" : true,
     "referenced_type" : "_ZTIPN8gemmlowp4TaskE"
    }
   ],
   "return_type" : "_ZTIv",
   "source_file" : "external/gemmlowp/internal/multi_thread_gemm.h"
  },
  {
   "function_name" : "gemmlowp::Worker::StartWork",
   "linker_set_key" : "_ZN8gemmlowp6Worker9StartWorkEPNS_4TaskE",
   "parameters" :
   [
    {
     "is_this_ptr" : true,
     "referenced_type" : "_ZTIPN8gemmlowp6WorkerE"
    },
    {
     "referenced_type" : "_ZTIPN8gemmlowp4TaskE"
    }
   ],
   "return_type" : "_ZTIv",
   "source_file" : "external/gemmlowp/internal/multi_thread_gemm.h"
  },
  {
   "function_name" : "gemmlowp::Worker::Worker",
   "linker_set_key" : "_ZN8gemmlowp6WorkerC1EPNS_15BlockingCounterE",
   "parameters" :
   [
    {
     "is_this_ptr" : true,
     "referenced_type" : "_ZTIPN8gemmlowp6WorkerE"
    },
    {
     "referenced_type" : "_ZTIPN8gemmlowp15BlockingCounterE"
    }
   ],
   "return_type" : "_ZTIv",
   "source_file" : "external/gemmlowp/internal/multi_thread_gemm.h"
  },
  {
   "function_name" : "gemmlowp::Worker::Worker",
   "linker_set_key" : "_ZN8gemmlowp6WorkerC2EPNS_15BlockingCounterE",
   "parameters" :
   [
    {
     "is_this_ptr" : true,
     "referenced_type" : "_ZTIPN8gemmlowp6WorkerE"
    },
    {
     "referenced_type" : "_ZTIPN8gemmlowp15BlockingCounterE"
    }
   ],
   "return_type" : "_ZTIv",
   "source_file" : "external/gemmlowp/internal/multi_thread_gemm.h"
  },
  {
   "function_name" : "gemmlowp::Worker::~Worker",
   "linker_set_key" : "_ZN8gemmlowp6WorkerD1Ev",
   "parameters" :
   [
    {
     "is_this_ptr" : true,
     "referenced_type" : "_ZTIPN8gemmlowp6WorkerE"
    }
   ],
   "return_type" : "_ZTIv",
   "source_file" : "external/gemmlowp/internal/multi_thread_gemm.h"
  },
  {
   "function_name" : "gemmlowp::Worker::~Worker",
   "linker_set_key" : "_ZN8gemmlowp6WorkerD2Ev",
   "parameters" :
   [
    {
     "is_this_ptr" : true,
     "referenced_type" : "_ZTIPN8gemmlowp6WorkerE"
    }
   ],
   "return_type" : "_ZTIv",
   "source_file" : "external/gemmlowp/internal/multi_thread_gemm.h"
  },
  {
   "function_name" : "gemmlowp::DupLane",
   "linker_set_key" : "_ZN8gemmlowp7DupLaneILi0EEE11__Int32x4_tS1_",
   "parameters" :
   [
    {
     "referenced_type" : "_ZTI11__Int32x4_t"
    }
   ],
   "return_type" : "_ZTI11__Int32x4_t",
   "source_file" : "external/gemmlowp/internal/simd_wrappers_neon.h"
  },
  {
   "function_name" : "gemmlowp::DupLane",
   "linker_set_key" : "_ZN8gemmlowp7DupLaneILi1EEE11__Int32x4_tS1_",
   "parameters" :
   [
    {
     "referenced_type" : "_ZTI11__Int32x4_t"
    }
   ],
   "return_type" : "_ZTI11__Int32x4_t",
   "source_file" : "external/gemmlowp/internal/simd_wrappers_neon.h"
  },
  {
   "function_name" : "gemmlowp::DupLane",
   "linker_set_key" : "_ZN8gemmlowp7DupLaneILi2EEE11__Int32x4_tS1_",
   "parameters" :
   [
    {
     "referenced_type" : "_ZTI11__Int32x4_t"
    }
   ],
   "return_type" : "_ZTI11__Int32x4_t",
   "source_file" : "external/gemmlowp/internal/simd_wrappers_neon.h"
  },
  {
   "function_name" : "gemmlowp::DupLane",
   "linker_set_key" : "_ZN8gemmlowp7DupLaneILi3EEE11__Int32x4_tS1_",
   "parameters" :
   [
    {
     "referenced_type" : "_ZTI11__Int32x4_t"
    }
   ],
   "return_type" : "_ZTI11__Int32x4_t",
   "source_file" : "external/gemmlowp/internal/simd_wrappers_neon.h"
  },
  {
   "function_name" : "gemmlowp::RoundUp",
   "linker_set_key" : "_ZN8gemmlowp7RoundUpILj64EmEET0_S1_",
   "parameters" :
   [
    {
     "referenced_type" : "_ZTIm"
    }
   ],
   "return_type" : "_ZTIm",
   "source_file" : "external/gemmlowp/internal/common.h",
   "template_args" : [ "_ZTIm" ]
  },
  {
   "function_name" : "gemmlowp::Prefetch",
   "linker_set_key" : "_ZN8gemmlowp8PrefetchEPKv",
   "parameters" :
   [
    {
     "referenced_type" : "_ZTIPKv"
    }
   ],
   "return_type" : "_ZTIv",
   "source_file" : "external/gemmlowp/internal/common.h"
  },
  {
   "access" : "private",
   "function_name" : "gemmlowp::Allocator::DeallocateStorage",
   "linker_set_key" : "_ZN8gemmlowp9Allocator17DeallocateStorageEv",
   "parameters" :
   [
    {
     "is_this_ptr" : true,
     "referenced_type" : "_ZTIPN8gemmlowp9AllocatorE"
    }
   ],
   "return_type" : "_ZTIv",
   "source_file" : "external/gemmlowp/internal/allocator.h"
  },
  {
   "function_name" : "gemmlowp::Allocator::Commit",
   "linker_set_key" : "_ZN8gemmlowp9Allocator6CommitEv",
   "parameters" :
   [
    {
     "is_this_ptr" : true,
     "referenced_type" : "_ZTIPN8gemmlowp9AllocatorE"
    }
   ],
   "return_type" : "_ZTIv",
   "source_file" : "external/gemmlowp/internal/allocator.h"
  },
  {
   "function_name" : "gemmlowp::Allocator::Reserve",
   "linker_set_key" : "_ZN8gemmlowp9Allocator7ReserveIiEENS0_6HandleEm",
   "parameters" :
   [
    {
     "is_this_ptr" : true,
     "referenced_type" : "_ZTIPN8gemmlowp9AllocatorE"
    },
    {
     "referenced_type" : "_ZTIm"
    }
   ],
   "return_type" : "_ZTIN8gemmlowp9Allocator6HandleE",
   "source_file" : "external/gemmlowp/internal/allocator.h",
   "template_args" : [ "_ZTIi" ]
  },
  {
   "function_name" : "gemmlowp::Allocator::Decommit",
   "linker_set_key" : "_ZN8gemmlowp9Allocator8DecommitEv",
   "parameters" :
   [
    {
     "is_this_ptr" : true,
     "referenced_type" : "_ZTIPN8gemmlowp9AllocatorE"
    }
   ],
   "return_type" : "_ZTIv",
   "source_file" : "external/gemmlowp/internal/allocator.h"
  },
  {
   "function_name" : "gemmlowp::Allocator::Allocator",
   "linker_set_key" : "_ZN8gemmlowp9AllocatorC1Ev",
   "parameters" :
   [
    {
     "is_this_ptr" : true,
     "referenced_type" : "_ZTIPN8gemmlowp9AllocatorE"
    }
   ],
   "return_type" : "_ZTIv",
   "source_file" : "external/gemmlowp/internal/allocator.h"
  },
  {
   "function_name" : "gemmlowp::Allocator::Allocator",
   "linker_set_key" : "_ZN8gemmlowp9AllocatorC2Ev",
   "parameters" :
   [
    {
     "is_this_ptr" : true,
     "referenced_type" : "_ZTIPN8gemmlowp9AllocatorE"
    }
   ],
   "return_type" : "_ZTIv",
   "source_file" : "external/gemmlowp/internal/allocator.h"
  },
  {
   "function_name" : "gemmlowp::Allocator::~Allocator",
   "linker_set_key" : "_ZN8gemmlowp9AllocatorD1Ev",
   "parameters" :
   [
    {
     "is_this_ptr" : true,
     "referenced_type" : "_ZTIPN8gemmlowp9AllocatorE"
    }
   ],
   "return_type" : "_ZTIv",
   "source_file" : "external/gemmlowp/internal/allocator.h"
  },
  {
   "function_name" : "gemmlowp::Allocator::~Allocator",
   "linker_set_key" : "_ZN8gemmlowp9AllocatorD2Ev",
   "parameters" :
   [
    {
     "is_this_ptr" : true,
     "referenced_type" : "_ZTIPN8gemmlowp9AllocatorE"
    }
   ],
   "return_type" : "_ZTIv",
   "source_file" : "external/gemmlowp/internal/allocator.h"
  },
  {
   "function_name" : "gemmlowp::GetTypeId",
   "linker_set_key" : "_ZN8gemmlowp9GetTypeIdIiEENS_6TypeIdEv",
   "return_type" : "_ZTIN8gemmlowp6TypeIdE",
   "source_file" : "external/gemmlowp/internal/allocator.h",
   "template_args" : [ "_ZTIi" ]
  },
  {
   "function_name" : "gemmlowp::MatrixMap<const int, gemmlowp::MapOrder::ColMajor>::MatrixMap",
   "linker_set_key" : "_ZN8gemmlowp9MatrixMapIKiLNS_8MapOrderE0EEC1EPS1_iii",
   "parameters" :
   [
    {
     "is_this_ptr" : true,
     "referenced_type" : "_ZTIPN8gemmlowp9MatrixMapIKiLNS_8MapOrderE0EEE"
    },
    {
     "referenced_type" : "_ZTIPKi"
    },
    {
     "referenced_type" : "_ZTIi"
    },
    {
     "referenced_type" : "_ZTIi"
    },
    {
     "referenced_type" : "_ZTIi"
    }
   ],
   "return_type" : "_ZTIv",
   "source_file" : "external/gemmlowp/public/map.h"
  },
  {
   "function_name" : "gemmlowp::MatrixMap<const int, gemmlowp::MapOrder::ColMajor>::MatrixMap",
   "linker_set_key" : "_ZN8gemmlowp9MatrixMapIKiLNS_8MapOrderE0EEC2EPS1_iii",
   "parameters" :
   [
    {
     "is_this_ptr" : true,
     "referenced_type" : "_ZTIPN8gemmlowp9MatrixMapIKiLNS_8MapOrderE0EEE"
    },
    {
     "referenced_type" : "_ZTIPKi"
    },
    {
     "referenced_type" : "_ZTIi"
    },
    {
     "referenced_type" : "_ZTIi"
    },
    {
     "referenced_type" : "_ZTIi"
    }
   ],
   "return_type" : "_ZTIv",
   "source_file" : "external/gemmlowp/public/map.h"
  },
  {
   "function_name" : "gemmlowp::MatrixMap<int, gemmlowp::MapOrder::ColMajor>::MatrixMap",
   "linker_set_key" : "_ZN8gemmlowp9MatrixMapIiLNS_8MapOrderE0EEC1EPiiii",
   "parameters" :
   [
    {
     "is_this_ptr" : true,
     "referenced_type" : "_ZTIPN8gemmlowp9MatrixMapIiLNS_8MapOrderE0EEE"
    },
    {
     "referenced_type" : "_ZTIPi"
    },
    {
     "referenced_type" : "_ZTIi"
    },
    {
     "referenced_type" : "_ZTIi"
    },
    {
     "referenced_type" : "_ZTIi"
    }
   ],
   "return_type" : "_ZTIv",
   "source_file" : "external/gemmlowp/public/map.h"
  },
  {
   "function_name" : "gemmlowp::MatrixMap<int, gemmlowp::MapOrder::ColMajor>::MatrixMap",
   "linker_set_key" : "_ZN8gemmlowp9MatrixMapIiLNS_8MapOrderE0EEC2EPiiii",
   "parameters" :
   [
    {
     "is_this_ptr" : true,
     "referenced_type" : "_ZTIPN8gemmlowp9MatrixMapIiLNS_8MapOrderE0EEE"
    },
    {
     "referenced_type" : "_ZTIPi"
    },
    {
     "referenced_type" : "_ZTIi"
    },
    {
     "referenced_type" : "_ZTIi"
    },
    {
     "referenced_type" : "_ZTIi"
    }
   ],
   "return_type" : "_ZTIv",
   "source_file" : "external/gemmlowp/public/map.h"
  },
  {
   "function_name" : "gemmlowp::RoundDown",
   "linker_set_key" : "_ZN8gemmlowp9RoundDownILj64EmEET0_S1_",
   "parameters" :
   [
    {
     "referenced_type" : "_ZTIm"
    }
   ],
   "return_type" : "_ZTIm",
   "source_file" : "external/gemmlowp/internal/common.h",
   "template_args" : [ "_ZTIm" ]
  },
  {
   "function_name" : "gemmlowp::ShiftLeft",
   "linker_set_key" : "_ZN8gemmlowp9ShiftLeftI11__Int16x8_tS1_EET_S2_T0_",
   "parameters" :
   [
    {
     "referenced_type" : "_ZTI11__Int16x8_t"
    },
    {
     "referenced_type" : "_ZTI11__Int16x8_t"
    }
   ],
   "return_type" : "_ZTI11__Int16x8_t",
   "source_file" : "external/gemmlowp/fixedpoint/fixedpoint_neon.h",
   "template_args" : [ "_ZTI11__Int16x8_t", "_ZTI11__Int16x8_t" ]
  },
  {
   "function_name" : "gemmlowp::ShiftLeft",
   "linker_set_key" : "_ZN8gemmlowp9ShiftLeftI11__Int16x8_tiEET_S2_T0_",
   "parameters" :
   [
    {
     "referenced_type" : "_ZTI11__Int16x8_t"
    },
    {
     "referenced_type" : "_ZTIi"
    }
   ],
   "return_type" : "_ZTI11__Int16x8_t",
   "source_file" : "external/gemmlowp/fixedpoint/fixedpoint_neon.h",
   "template_args" : [ "_ZTI11__Int16x8_t", "_ZTIi" ]
  },
  {
   "function_name" : "gemmlowp::ShiftLeft",
   "linker_set_key" : "_ZN8gemmlowp9ShiftLeftI11__Int32x4_tS1_EET_S2_T0_",
   "parameters" :
   [
    {
     "referenced_type" : "_ZTI11__Int32x4_t"
    },
    {
     "referenced_type" : "_ZTI11__Int32x4_t"
    }
   ],
   "return_type" : "_ZTI11__Int32x4_t",
   "source_file" : "external/gemmlowp/fixedpoint/fixedpoint_neon.h",
   "template_args" : [ "_ZTI11__Int32x4_t", "_ZTI11__Int32x4_t" ]
  },
  {
   "function_name" : "gemmlowp::ShiftLeft",
   "linker_set_key" : "_ZN8gemmlowp9ShiftLeftI11__Int32x4_tiEET_S2_T0_",
   "parameters" :
   [
    {
     "referenced_type" : "_ZTI11__Int32x4_t"
    },
    {
     "referenced_type" : "_ZTIi"
    }
   ],
   "return_type" : "_ZTI11__Int32x4_t",
   "source_file" : "external/gemmlowp/fixedpoint/fixedpoint_neon.h",
   "template_args" : [ "_ZTI11__Int32x4_t", "_ZTIi" ]
  },
  {
   "function_name" : "gemmlowp::Transpose",
   "linker_set_key" : "_ZN8gemmlowp9TransposeERKNS_13RegisterBlockIaLi8ELi8EEE",
   "parameters" :
   [
    {
     "referenced_type" : "_ZTIRKN8gemmlowp13RegisterBlockIaLi8ELi8EEE"
    }
   ],
   "return_type" : "_ZTIN8gemmlowp13RegisterBlockIaLi8ELi8EEE",
   "source_file" : "external/gemmlowp/internal/output_neon.h"
  },
  {
   "function_name" : "gemmlowp::Transpose",
   "linker_set_key" : "_ZN8gemmlowp9TransposeERKNS_13RegisterBlockIhLi8ELi8EEE",
   "parameters" :
   [
    {
     "referenced_type" : "_ZTIRKN8gemmlowp13RegisterBlockIhLi8ELi8EEE"
    }
   ],
   "return_type" : "_ZTIN8gemmlowp13RegisterBlockIhLi8ELi8EEE",
   "source_file" : "external/gemmlowp/internal/output_neon.h"
  },
  {
   "function_name" : "gemmlowp::Transpose",
   "linker_set_key" : "_ZN8gemmlowp9TransposeERKNS_13RegisterBlockIiLi4ELi4EEE",
   "parameters" :
   [
    {
     "referenced_type" : "_ZTIRKN8gemmlowp13RegisterBlockIiLi4ELi4EEE"
    }
   ],
   "return_type" : "_ZTIN8gemmlowp13RegisterBlockIiLi4ELi4EEE",
   "source_file" : "external/gemmlowp/internal/output_neon.h"
  },
  {
   "function_name" : "tflite::CpuBackendContext::ruy_context",
   "linker_set_key" : "_ZNK6tflite17CpuBackendContext11ruy_contextEv",
   "parameters" :
   [
    {
     "is_this_ptr" : true,
     "referenced_type" : "_ZTIPKN6tflite17CpuBackendContextE"
    }
   ],
   "return_type" : "_ZTIPN3ruy7ContextE",
   "source_file" : "external/tensorflow/tensorflow/lite/kernels/cpu_backend_context.h"
  },
  {
   "function_name" : "tflite::CpuBackendContext::use_caching",
   "linker_set_key" : "_ZNK6tflite17CpuBackendContext11use_cachingEv",
   "parameters" :
   [
    {
     "is_this_ptr" : true,
     "referenced_type" : "_ZTIPKN6tflite17CpuBackendContextE"
    }
   ],
   "return_type" : "_ZTIb",
   "source_file" : "external/tensorflow/tensorflow/lite/kernels/cpu_backend_context.h"
  },
  {
   "function_name" : "tflite::CpuBackendContext::max_num_threads",
   "linker_set_key" : "_ZNK6tflite17CpuBackendContext15max_num_threadsEv",
   "parameters" :
   [
    {
     "is_this_ptr" : true,
     "referenced_type" : "_ZTIPKN6tflite17CpuBackendContextE"
    }
   ],
   "return_type" : "_ZTIi",
   "source_file" : "external/tensorflow/tensorflow/lite/kernels/cpu_backend_context.h"
  },
  {
   "function_name" : "tflite::CpuBackendContext::gemmlowp_context",
   "linker_set_key" : "_ZNK6tflite17CpuBackendContext16gemmlowp_contextEv",
   "parameters" :
   [
    {
     "is_this_ptr" : true,
     "referenced_type" : "_ZTIPKN6tflite17CpuBackendContextE"
    }
   ],
   "return_type" : "_ZTIPN8gemmlowp11GemmContextE",
   "source_file" : "external/tensorflow/tensorflow/lite/kernels/cpu_backend_context.h"
  },
  {
   "function_name" : "tflite::ExternalCpuBackendContext::internal_backend_context",
   "linker_set_key" : "_ZNK6tflite25ExternalCpuBackendContext24internal_backend_contextEv",
   "parameters" :
   [
    {
     "is_this_ptr" : true,
     "referenced_type" : "_ZTIPKN6tflite25ExternalCpuBackendContextE"
    }
   ],
   "return_type" : "_ZTIPN6tflite28TfLiteInternalBackendContextE",
   "source_file" : "external/tensorflow/tensorflow/lite/external_cpu_backend_context.h"
  },
  {
   "function_name" : "gemmlowp::PackedResult::Map",
   "linker_set_key" : "_ZNK8gemmlowp12PackedResult3MapEv",
   "parameters" :
   [
    {
     "is_this_ptr" : true,
     "referenced_type" : "_ZTIPKN8gemmlowp12PackedResultE"
    }
   ],
   "return_type" : "_ZTIN8gemmlowp9MatrixMapIKiLNS_8MapOrderE0EEE",
   "source_file" : "external/gemmlowp/internal/unpack.h"
  },
  {
   "function_name" : "gemmlowp::SingleThreadGemmContext::l2_rhs_factor",
   "linker_set_key" : "_ZNK8gemmlowp23SingleThreadGemmContext13l2_rhs_factorEv",
   "parameters" :
   [
    {
     "is_this_ptr" : true,
     "referenced_type" : "_ZTIPKN8gemmlowp23SingleThreadGemmContextE"
    }
   ],
   "return_type" : "_ZTIf",
   "source_file" : "external/gemmlowp/internal/single_thread_gemm.h"
  },
  {
   "function_name" : "gemmlowp::SingleThreadGemmContext::l1_bytes_to_use",
   "linker_set_key" : "_ZNK8gemmlowp23SingleThreadGemmContext15l1_bytes_to_useEv",
   "parameters" :
   [
    {
     "is_this_ptr" : true,
     "referenced_type" : "_ZTIPKN8gemmlowp23SingleThreadGemmContextE"
    }
   ],
   "return_type" : "_ZTIi",
   "source_file" : "external/gemmlowp/internal/single_thread_gemm.h"
  },
  {
   "function_name" : "gemmlowp::SingleThreadGemmContext::l2_bytes_to_use",
   "linker_set_key" : "_ZNK8gemmlowp23SingleThreadGemmContext15l2_bytes_to_useEv",
   "parameters" :
   [
    {
     "is_this_ptr" : true,
     "referenced_type" : "_ZTIPKN8gemmlowp23SingleThreadGemmContextE"
    }
   ],
   "return_type" : "_ZTIi",
   "source_file" : "external/gemmlowp/internal/single_thread_gemm.h"
  },
  {
   "function_name" : "gemmlowp::NEON_64_Kernel12x8Depth2::Run",
   "linker_set_key" : "_ZNK8gemmlowp24NEON_64_Kernel12x8Depth23RunEPimmPKhS3_mm",
   "parameters" :
   [
    {
     "is_this_ptr" : true,
     "referenced_type" : "_ZTIPKN8gemmlowp24NEON_64_Kernel12x8Depth2E"
    },
    {
     "referenced_type" : "_ZTIPi"
    },
    {
     "referenced_type" : "_ZTIm"
    },
    {
     "referenced_type" : "_ZTIm"
    },
    {
     "referenced_type" : "_ZTIPKh"
    },
    {
     "referenced_type" : "_ZTIPKh"
    },
    {
     "referenced_type" : "_ZTIm"
    },
    {
     "referenced_type" : "_ZTIm"
    }
   ],
   "return_type" : "_ZTIv",
   "source_file" : "external/gemmlowp/internal/kernel_neon.h"
  },
  {
   "function_name" : "gemmlowp::NEON_64_Kernel12x8Depth2::Name",
   "linker_set_key" : "_ZNK8gemmlowp24NEON_64_Kernel12x8Depth24NameEv",
   "parameters" :
   [
    {
     "is_this_ptr" : true,
     "referenced_type" : "_ZTIPKN8gemmlowp24NEON_64_Kernel12x8Depth2E"
    }
   ],
   "return_type" : "_ZTIPKc",
   "source_file" : "external/gemmlowp/internal/kernel_neon.h"
  },
  {
   "function_name" : "gemmlowp::OutputStageEvalBufferImpl<gemmlowp::OutputStageSaturatingCastToInt8, gemmlowp::RegisterBuffer<int, 16>>::Eval",
   "linker_set_key" : "_ZNK8gemmlowp25OutputStageEvalBufferImplINS_31OutputStageSaturatingCastToInt8ENS_14RegisterBufferIiLi16EEEE4EvalES3_",
   "parameters" :
   [
    {
     "is_this_ptr" : true,
     "referenced_type" : "_ZTIPKN8gemmlowp25OutputStageEvalBufferImplINS_31OutputStageSaturatingCastToInt8ENS_14RegisterBufferIiLi16EEEEE"
    },
    {
     "referenced_type" : "_ZTIN8gemmlowp14RegisterBufferIiLi16EEE"
    }
   ],
   "return_type" : "_ZTIN8gemmlowp14RegisterBufferIaLi16EEE",
   "source_file" : "external/gemmlowp/internal/output_neon.h"
  },
  {
   "function_name" : "gemmlowp::OutputStageEvalBufferImpl<gemmlowp::OutputStageSaturatingCastToInt8, gemmlowp::RegisterBuffer<int, 32>>::Eval",
   "linker_set_key" : "_ZNK8gemmlowp25OutputStageEvalBufferImplINS_31OutputStageSaturatingCastToInt8ENS_14RegisterBufferIiLi32EEEE4EvalES3_",
   "parameters" :
   [
    {
     "is_this_ptr" : true,
     "referenced_type" : "_ZTIPKN8gemmlowp25OutputStageEvalBufferImplINS_31OutputStageSaturatingCastToInt8ENS_14RegisterBufferIiLi32EEEEE"
    },
    {
     "referenced_type" : "_ZTIN8gemmlowp14RegisterBufferIiLi32EEE"
    }
   ],
   "return_type" : "_ZTIN8gemmlowp14RegisterBufferIaLi32EEE",
   "source_file" : "external/gemmlowp/internal/output_neon.h"
  },
  {
   "function_name" : "gemmlowp::OutputStageEvalBufferImpl<gemmlowp::OutputStageSaturatingCastToInt8, gemmlowp::RegisterBuffer<int, 4>>::Eval",
   "linker_set_key" : "_ZNK8gemmlowp25OutputStageEvalBufferImplINS_31OutputStageSaturatingCastToInt8ENS_14RegisterBufferIiLi4EEEE4EvalES3_",
   "parameters" :
   [
    {
     "is_this_ptr" : true,
     "referenced_type" : "_ZTIPKN8gemmlowp25OutputStageEvalBufferImplINS_31OutputStageSaturatingCastToInt8ENS_14RegisterBufferIiLi4EEEEE"
    },
    {
     "referenced_type" : "_ZTIN8gemmlowp14RegisterBufferIiLi4EEE"
    }
   ],
   "return_type" : "_ZTIN8gemmlowp14RegisterBufferIaLi4EEE",
   "source_file" : "external/gemmlowp/internal/output_neon.h"
  },
  {
   "function_name" : "gemmlowp::OutputStageEvalBufferImpl<gemmlowp::OutputStageSaturatingCastToInt8, gemmlowp::RegisterBuffer<int, 8>>::Eval",
   "linker_set_key" : "_ZNK8gemmlowp25OutputStageEvalBufferImplINS_31OutputStageSaturatingCastToInt8ENS_14RegisterBufferIiLi8EEEE4EvalES3_",
   "parameters" :
   [
    {
     "is_this_ptr" : true,
     "referenced_type" : "_ZTIPKN8gemmlowp25OutputStageEvalBufferImplINS_31OutputStageSaturatingCastToInt8ENS_14RegisterBufferIiLi8EEEEE"
    },
    {
     "referenced_type" : "_ZTIN8gemmlowp14RegisterBufferIiLi8EEE"
    }
   ],
   "return_type" : "_ZTIN8gemmlowp14RegisterBufferIaLi8EEE",
   "source_file" : "external/gemmlowp/internal/output_neon.h"
  },
  {
   "function_name" : "gemmlowp::OutputStageEvalBufferImpl<gemmlowp::OutputStageSaturatingCastToInt16, gemmlowp::RegisterBuffer<int, 16>>::Eval",
   "linker_set_key" : "_ZNK8gemmlowp25OutputStageEvalBufferImplINS_32OutputStageSaturatingCastToInt16ENS_14RegisterBufferIiLi16EEEE4EvalES3_",
   "parameters" :
   [
    {
     "is_this_ptr" : true,
     "referenced_type" : "_ZTIPKN8gemmlowp25OutputStageEvalBufferImplINS_32OutputStageSaturatingCastToInt16ENS_14RegisterBufferIiLi16EEEEE"
    },
    {
     "referenced_type" : "_ZTIN8gemmlowp14RegisterBufferIiLi16EEE"
    }
   ],
   "return_type" : "_ZTIN8gemmlowp14RegisterBufferIsLi16EEE",
   "source_file" : "external/gemmlowp/internal/output_neon.h"
  },
  {
   "function_name" : "gemmlowp::OutputStageEvalBufferImpl<gemmlowp::OutputStageSaturatingCastToInt16, gemmlowp::RegisterBuffer<int, 32>>::Eval",
   "linker_set_key" : "_ZNK8gemmlowp25OutputStageEvalBufferImplINS_32OutputStageSaturatingCastToInt16ENS_14RegisterBufferIiLi32EEEE4EvalES3_",
   "parameters" :
   [
    {
     "is_this_ptr" : true,
     "referenced_type" : "_ZTIPKN8gemmlowp25OutputStageEvalBufferImplINS_32OutputStageSaturatingCastToInt16ENS_14RegisterBufferIiLi32EEEEE"
    },
    {
     "referenced_type" : "_ZTIN8gemmlowp14RegisterBufferIiLi32EEE"
    }
   ],
   "return_type" : "_ZTIN8gemmlowp14RegisterBufferIsLi32EEE",
   "source_file" : "external/gemmlowp/internal/output_neon.h"
  },
  {
   "function_name" : "gemmlowp::OutputStageEvalBufferImpl<gemmlowp::OutputStageSaturatingCastToInt16, gemmlowp::RegisterBuffer<int, 4>>::Eval",
   "linker_set_key" : "_ZNK8gemmlowp25OutputStageEvalBufferImplINS_32OutputStageSaturatingCastToInt16ENS_14RegisterBufferIiLi4EEEE4EvalES3_",
   "parameters" :
   [
    {
     "is_this_ptr" : true,
     "referenced_type" : "_ZTIPKN8gemmlowp25OutputStageEvalBufferImplINS_32OutputStageSaturatingCastToInt16ENS_14RegisterBufferIiLi4EEEEE"
    },
    {
     "referenced_type" : "_ZTIN8gemmlowp14RegisterBufferIiLi4EEE"
    }
   ],
   "return_type" : "_ZTIN8gemmlowp14RegisterBufferIsLi4EEE",
   "source_file" : "external/gemmlowp/internal/output_neon.h"
  },
  {
   "function_name" : "gemmlowp::OutputStageEvalBufferImpl<gemmlowp::OutputStageSaturatingCastToInt16, gemmlowp::RegisterBuffer<int, 8>>::Eval",
   "linker_set_key" : "_ZNK8gemmlowp25OutputStageEvalBufferImplINS_32OutputStageSaturatingCastToInt16ENS_14RegisterBufferIiLi8EEEE4EvalES3_",
   "parameters" :
   [
    {
     "is_this_ptr" : true,
     "referenced_type" : "_ZTIPKN8gemmlowp25OutputStageEvalBufferImplINS_32OutputStageSaturatingCastToInt16ENS_14RegisterBufferIiLi8EEEEE"
    },
    {
     "referenced_type" : "_ZTIN8gemmlowp14RegisterBufferIiLi8EEE"
    }
   ],
   "return_type" : "_ZTIN8gemmlowp14RegisterBufferIsLi8EEE",
   "source_file" : "external/gemmlowp/internal/output_neon.h"
  },
  {
   "function_name" : "gemmlowp::OutputStageEvalBufferImpl<gemmlowp::OutputStageSaturatingCastToUint8, gemmlowp::RegisterBuffer<int, 16>>::Eval",
   "linker_set_key" : "_ZNK8gemmlowp25OutputStageEvalBufferImplINS_32OutputStageSaturatingCastToUint8ENS_14RegisterBufferIiLi16EEEE4EvalES3_",
   "parameters" :
   [
    {
     "is_this_ptr" : true,
     "referenced_type" : "_ZTIPKN8gemmlowp25OutputStageEvalBufferImplINS_32OutputStageSaturatingCastToUint8ENS_14RegisterBufferIiLi16EEEEE"
    },
    {
     "referenced_type" : "_ZTIN8gemmlowp14RegisterBufferIiLi16EEE"
    }
   ],
   "return_type" : "_ZTIN8gemmlowp14RegisterBufferIhLi16EEE",
   "source_file" : "external/gemmlowp/internal/output_neon.h"
  },
  {
   "function_name" : "gemmlowp::OutputStageEvalBufferImpl<gemmlowp::OutputStageSaturatingCastToUint8, gemmlowp::RegisterBuffer<int, 32>>::Eval",
   "linker_set_key" : "_ZNK8gemmlowp25OutputStageEvalBufferImplINS_32OutputStageSaturatingCastToUint8ENS_14RegisterBufferIiLi32EEEE4EvalES3_",
   "parameters" :
   [
    {
     "is_this_ptr" : true,
     "referenced_type" : "_ZTIPKN8gemmlowp25OutputStageEvalBufferImplINS_32OutputStageSaturatingCastToUint8ENS_14RegisterBufferIiLi32EEEEE"
    },
    {
     "referenced_type" : "_ZTIN8gemmlowp14RegisterBufferIiLi32EEE"
    }
   ],
   "return_type" : "_ZTIN8gemmlowp14RegisterBufferIhLi32EEE",
   "source_file" : "external/gemmlowp/internal/output_neon.h"
  },
  {
   "function_name" : "gemmlowp::OutputStageEvalBufferImpl<gemmlowp::OutputStageSaturatingCastToUint8, gemmlowp::RegisterBuffer<int, 4>>::Eval",
   "linker_set_key" : "_ZNK8gemmlowp25OutputStageEvalBufferImplINS_32OutputStageSaturatingCastToUint8ENS_14RegisterBufferIiLi4EEEE4EvalES3_",
   "parameters" :
   [
    {
     "is_this_ptr" : true,
     "referenced_type" : "_ZTIPKN8gemmlowp25OutputStageEvalBufferImplINS_32OutputStageSaturatingCastToUint8ENS_14RegisterBufferIiLi4EEEEE"
    },
    {
     "referenced_type" : "_ZTIN8gemmlowp14RegisterBufferIiLi4EEE"
    }
   ],
   "return_type" : "_ZTIN8gemmlowp14RegisterBufferIhLi4EEE",
   "source_file" : "external/gemmlowp/internal/output_neon.h"
  },
  {
   "function_name" : "gemmlowp::OutputStageEvalBufferImpl<gemmlowp::OutputStageSaturatingCastToUint8, gemmlowp::RegisterBuffer<int, 8>>::Eval",
   "linker_set_key" : "_ZNK8gemmlowp25OutputStageEvalBufferImplINS_32OutputStageSaturatingCastToUint8ENS_14RegisterBufferIiLi8EEEE4EvalES3_",
   "parameters" :
   [
    {
     "is_this_ptr" : true,
     "referenced_type" : "_ZTIPKN8gemmlowp25OutputStageEvalBufferImplINS_32OutputStageSaturatingCastToUint8ENS_14RegisterBufferIiLi8EEEEE"
    },
    {
     "referenced_type" : "_ZTIN8gemmlowp14RegisterBufferIiLi8EEE"
    }
   ],
   "return_type" : "_ZTIN8gemmlowp14RegisterBufferIhLi8EEE",
   "source_file" : "external/gemmlowp/internal/output_neon.h"
  },
  {
   "function_name" : "gemmlowp::MultiThreadGemmContextBase::max_num_threads",
   "linker_set_key" : "_ZNK8gemmlowp26MultiThreadGemmContextBase15max_num_threadsEv",
   "parameters" :
   [
    {
     "is_this_ptr" : true,
     "referenced_type" : "_ZTIPKN8gemmlowp26MultiThreadGemmContextBaseE"
    }
   ],
   "return_type" : "_ZTIi",
   "source_file" : "external/gemmlowp/internal/multi_thread_gemm.h"
  },
  {
   "function_name" : "gemmlowp::NEON_64bit_GEMM_Int8Operands_LhsNonzero::Run",
   "linker_set_key" : "_ZNK8gemmlowp39NEON_64bit_GEMM_Int8Operands_LhsNonzero3RunEPimmPKhS3_mm",
   "parameters" :
   [
    {
     "is_this_ptr" : true,
     "referenced_type" : "_ZTIPKN8gemmlowp39NEON_64bit_GEMM_Int8Operands_LhsNonzeroE"
    },
    {
     "referenced_type" : "_ZTIPi"
    },
    {
     "referenced_type" : "_ZTIm"
    },
    {
     "referenced_type" : "_ZTIm"
    },
    {
     "referenced_type" : "_ZTIPKh"
    },
    {
     "referenced_type" : "_ZTIPKh"
    },
    {
     "referenced_type" : "_ZTIm"
    },
    {
     "referenced_type" : "_ZTIm"
    }
   ],
   "return_type" : "_ZTIv",
   "source_file" : "external/gemmlowp/internal/kernel_neon.h"
  },
  {
   "function_name" : "gemmlowp::NEON_64bit_GEMM_Int8Operands_LhsNonzero::Name",
   "linker_set_key" : "_ZNK8gemmlowp39NEON_64bit_GEMM_Int8Operands_LhsNonzero4NameEv",
   "parameters" :
   [
    {
     "is_this_ptr" : true,
     "referenced_type" : "_ZTIPKN8gemmlowp39NEON_64bit_GEMM_Int8Operands_LhsNonzeroE"
    }
   ],
   "return_type" : "_ZTIPKc",
   "source_file" : "external/gemmlowp/internal/kernel_neon.h"
  },
  {
   "function_name" : "gemmlowp::Allocator::GetPointer",
   "linker_set_key" : "_ZNK8gemmlowp9Allocator10GetPointerIKiEEPT_RKNS0_6HandleE",
   "parameters" :
   [
    {
     "is_this_ptr" : true,
     "referenced_type" : "_ZTIPKN8gemmlowp9AllocatorE"
    },
    {
     "referenced_type" : "_ZTIRKN8gemmlowp9Allocator6HandleE"
    }
   ],
   "return_type" : "_ZTIPKi",
   "source_file" : "external/gemmlowp/internal/allocator.h",
   "template_args" : [ "_ZTIKi" ]
  },
  {
   "function_name" : "gemmlowp::Allocator::GetPointer",
   "linker_set_key" : "_ZNK8gemmlowp9Allocator10GetPointerIiEEPT_RKNS0_6HandleE",
   "parameters" :
   [
    {
     "is_this_ptr" : true,
     "referenced_type" : "_ZTIPKN8gemmlowp9AllocatorE"
    },
    {
     "referenced_type" : "_ZTIRKN8gemmlowp9Allocator6HandleE"
    }
   ],
   "return_type" : "_ZTIPi",
   "source_file" : "external/gemmlowp/internal/allocator.h",
   "template_args" : [ "_ZTIi" ]
  },
  {
   "function_name" : "std::exception_ptr::operator bool",
   "linker_set_key" : "_ZNKSt13exception_ptrcvbEv",
   "parameters" :
   [
    {
     "is_this_ptr" : true,
     "referenced_type" : "_ZTIPKSt13exception_ptr"
    }
   ],
   "return_type" : "_ZTIb",
   "source_file" : "external/libcxx/include/exception"
  },
  {
   "function_name" : "std::initializer_list<bool>::end",
   "linker_set_key" : "_ZNKSt16initializer_listIbE3endEv",
   "parameters" :
   [
    {
     "is_this_ptr" : true,
     "referenced_type" : "_ZTIPKSt16initializer_listIbE"
    }
   ],
   "return_type" : "_ZTIPKb",
   "source_file" : "external/libcxx/include/initializer_list"
  },
  {
   "function_name" : "std::initializer_list<bool>::size",
   "linker_set_key" : "_ZNKSt16initializer_listIbE4sizeEv",
   "parameters" :
   [
    {
     "is_this_ptr" : true,
     "referenced_type" : "_ZTIPKSt16initializer_listIbE"
    }
   ],
   "return_type" : "_ZTIm",
   "source_file" : "external/libcxx/include/initializer_list"
  },
  {
   "function_name" : "std::initializer_list<bool>::begin",
   "linker_set_key" : "_ZNKSt16initializer_listIbE5beginEv",
   "parameters" :
   [
    {
     "is_this_ptr" : true,
     "referenced_type" : "_ZTIPKSt16initializer_listIbE"
    }
   ],
   "return_type" : "_ZTIPKb",
   "source_file" : "external/libcxx/include/initializer_list"
  },
  {
   "function_name" : "std::nested_exception::nested_ptr",
   "linker_set_key" : "_ZNKSt16nested_exception10nested_ptrEv",
   "parameters" :
   [
    {
     "is_this_ptr" : true,
     "referenced_type" : "_ZTIPKSt16nested_exception"
    }
   ],
   "return_type" : "_ZTISt13exception_ptr",
   "source_file" : "external/libcxx/include/exception"
  },
  {
   "function_name" : "std::__1::error_code::default_error_condition",
   "linker_set_key" : "_ZNKSt3__110error_code23default_error_conditionEv",
   "parameters" :
   [
    {
     "is_this_ptr" : true,
     "referenced_type" : "_ZTIPKNSt3__110error_codeE"
    }
   ],
   "return_type" : "_ZTINSt3__115error_conditionE",
   "source_file" : "external/libcxx/include/system_error"
  },
  {
   "function_name" : "std::__1::error_code::value",
   "linker_set_key" : "_ZNKSt3__110error_code5valueEv",
   "parameters" :
   [
    {
     "is_this_ptr" : true,
     "referenced_type" : "_ZTIPKNSt3__110error_codeE"
    }
   ],
   "return_type" : "_ZTIi",
   "source_file" : "external/libcxx/include/system_error"
  },
  {
   "function_name" : "std::__1::error_code::category",
   "linker_set_key" : "_ZNKSt3__110error_code8categoryEv",
   "parameters" :
   [
    {
     "is_this_ptr" : true,
     "referenced_type" : "_ZTIPKNSt3__110error_codeE"
    }
   ],
   "return_type" : "_ZTIRKNSt3__114error_categoryE",
   "source_file" : "external/libcxx/include/system_error"
  },
  {
   "function_name" : "std::__1::error_code::operator bool",
   "linker_set_key" : "_ZNKSt3__110error_codecvbEv",
   "parameters" :
   [
    {
     "is_this_ptr" : true,
     "referenced_type" : "_ZTIPKNSt3__110error_codeE"
    }
   ],
   "return_type" : "_ZTIb",
   "source_file" : "external/libcxx/include/system_error"
  },
  {
   "function_name" : "std::__1::unique_ptr<ruy::Context, std::__1::default_delete<ruy::Context>>::get",
   "linker_set_key" : "_ZNKSt3__110unique_ptrIN3ruy7ContextENS_14default_deleteIS2_EEE3getEv",
   "parameters" :
   [
    {
     "is_this_ptr" : true,
     "referenced_type" : "_ZTIPKNSt3__110unique_ptrIN3ruy7ContextENS_14default_deleteIS2_EEEE"
    }
   ],
   "return_type" : "_ZTIPN3ruy7ContextE",
   "source_file" : "external/libcxx/include/memory"
  },
  {
   "function_name" : "std::__1::unique_ptr<ruy::Context, std::__1::default_delete<ruy::Context>>::operator->",
   "linker_set_key" : "_ZNKSt3__110unique_ptrIN3ruy7ContextENS_14default_deleteIS2_EEEptEv",
   "parameters" :
   [
    {
     "is_this_ptr" : true,
     "referenced_type" : "_ZTIPKNSt3__110unique_ptrIN3ruy7ContextENS_14default_deleteIS2_EEEE"
    }
   ],
   "return_type" : "_ZTIPN3ruy7ContextE",
   "source_file" : "external/libcxx/include/memory"
  },
  {
   "function_name" : "std::__1::unique_ptr<tflite::TfLiteInternalBackendContext, std::__1::default_delete<tflite::TfLiteInternalBackendContext>>::get",
   "linker_set_key" : "_ZNKSt3__110unique_ptrIN6tflite28TfLiteInternalBackendContextENS_14default_deleteIS2_EEE3getEv",
   "parameters" :
   [
    {
     "is_this_ptr" : true,
     "referenced_type" : "_ZTIPKNSt3__110unique_ptrIN6tflite28TfLiteInternalBackendContextENS_14default_deleteIS2_EEEE"
    }
   ],
   "return_type" : "_ZTIPN6tflite28TfLiteInternalBackendContextE",
   "source_file" : "external/libcxx/include/memory"
  },
  {
   "function_name" : "std::__1::unique_ptr<gemmlowp::GemmContext, std::__1::default_delete<gemmlowp::GemmContext>>::get",
   "linker_set_key" : "_ZNKSt3__110unique_ptrIN8gemmlowp11GemmContextENS_14default_deleteIS2_EEE3getEv",
   "parameters" :
   [
    {
     "is_this_ptr" : true,
     "referenced_type" : "_ZTIPKNSt3__110unique_ptrIN8gemmlowp11GemmContextENS_14default_deleteIS2_EEEE"
    }
   ],
   "return_type" : "_ZTIPN8gemmlowp11GemmContextE",
   "source_file" : "external/libcxx/include/memory"
  },
  {
   "function_name" : "std::__1::__wrap_iter<gemmlowp::Task *const *>::base",
   "linker_set_key" : "_ZNKSt3__111__wrap_iterIPKPN8gemmlowp4TaskEE4baseEv",
   "parameters" :
   [
    {
     "is_this_ptr" : true,
     "referenced_type" : "_ZTIPKNSt3__111__wrap_iterIPKPN8gemmlowp4TaskEEE"
    }
   ],
   "return_type" : "_ZTIPKPN8gemmlowp4TaskE",
   "source_file" : "external/libcxx/include/iterator"
  },
  {
   "function_name" : "std::__1::__wrap_iter<gemmlowp::Task *const *>::operator*",
   "linker_set_key" : "_ZNKSt3__111__wrap_iterIPKPN8gemmlowp4TaskEEdeEv",
   "parameters" :
   [
    {
     "is_this_ptr" : true,
     "referenced_type" : "_ZTIPKNSt3__111__wrap_iterIPKPN8gemmlowp4TaskEEE"
    }
   ],
   "return_type" : "_ZTIRKPN8gemmlowp4TaskE",
   "source_file" : "external/libcxx/include/iterator"
  },
  {
   "function_name" : "std::__1::__wrap_iter<gemmlowp::Worker **>::base",
   "linker_set_key" : "_ZNKSt3__111__wrap_iterIPPN8gemmlowp6WorkerEE4baseEv",
   "parameters" :
   [
    {
     "is_this_ptr" : true,
     "referenced_type" : "_ZTIPKNSt3__111__wrap_iterIPPN8gemmlowp6WorkerEEE"
    }
   ],
   "return_type" : "_ZTIPPN8gemmlowp6WorkerE",
   "source_file" : "external/libcxx/include/iterator"
  },
  {
   "function_name" : "std::__1::__wrap_iter<gemmlowp::Worker **>::operator*",
   "linker_set_key" : "_ZNKSt3__111__wrap_iterIPPN8gemmlowp6WorkerEEdeEv",
   "parameters" :
   [
    {
     "is_this_ptr" : true,
     "referenced_type" : "_ZTIPKNSt3__111__wrap_iterIPPN8gemmlowp6WorkerEEE"
    }
   ],
   "return_type" : "_ZTIRPN8gemmlowp6WorkerE",
   "source_file" : "external/libcxx/include/iterator"
  },
  {
   "access" : "private",
   "function_name" : "std::__1::basic_string<char32_t, std::__1::char_traits<char32_t>, std::__1::allocator<char32_t>>::__get_long_cap",
   "linker_set_key" : "_ZNKSt3__112basic_stringIDiNS_11char_traitsIDiEENS_9allocatorIDiEEE14__get_long_capEv",
   "parameters" :
   [
    {
     "is_this_ptr" : true,
     "referenced_type" : "_ZTIPKNSt3__112basic_stringIDiNS_11char_traitsIDiEENS_9allocatorIDiEEEE"
    }
   ],
   "return_type" : "_ZTIm",
   "source_file" : "external/libcxx/include/string"
  },
  {
   "access" : "private",
   "function_name" : "std::__1::basic_string<char32_t, std::__1::char_traits<char32_t>, std::__1::allocator<char32_t>>::__alloc",
   "linker_set_key" : "_ZNKSt3__112basic_stringIDiNS_11char_traitsIDiEENS_9allocatorIDiEEE7__allocEv",
   "parameters" :
   [
    {
     "is_this_ptr" : true,
     "referenced_type" : "_ZTIPKNSt3__112basic_stringIDiNS_11char_traitsIDiEENS_9allocatorIDiEEEE"
    }
   ],
   "return_type" : "_ZTIRKNSt3__19allocatorIDiEE",
   "source_file" : "external/libcxx/include/string"
  },
  {
   "function_name" : "std::__1::basic_string<char32_t, std::__1::char_traits<char32_t>, std::__1::allocator<char32_t>>::max_size",
   "linker_set_key" : "_ZNKSt3__112basic_stringIDiNS_11char_traitsIDiEENS_9allocatorIDiEEE8max_sizeEv",
   "parameters" :
   [
    {
     "is_this_ptr" : true,
     "referenced_type" : "_ZTIPKNSt3__112basic_stringIDiNS_11char_traitsIDiEENS_9allocatorIDiEEEE"
    }
   ],
   "return_type" : "_ZTIm",
   "source_file" : "external/libcxx/include/string"
  },
  {
   "function_name" : "std::__1::basic_string<char32_t, std::__1::char_traits<char32_t>, std::__1::allocator<char32_t>>::__is_long",
   "linker_set_key" : "_ZNKSt3__112basic_stringIDiNS_11char_traitsIDiEENS_9allocatorIDiEEE9__is_longEv",
   "parameters" :
   [
    {
     "is_this_ptr" : true,
     "referenced_type" : "_ZTIPKNSt3__112basic_stringIDiNS_11char_traitsIDiEENS_9allocatorIDiEEEE"
    }
   ],
   "return_type" : "_ZTIb",
   "source_file" : "external/libcxx/include/string"
  },
  {
   "access" : "private",
   "function_name" : "std::__1::basic_string<char16_t, std::__1::char_traits<char16_t>, std::__1::allocator<char16_t>>::__get_long_cap",
   "linker_set_key" : "_ZNKSt3__112basic_stringIDsNS_11char_traitsIDsEENS_9allocatorIDsEEE14__get_long_capEv",
   "parameters" :
   [
    {
     "is_this_ptr" : true,
     "referenced_type" : "_ZTIPKNSt3__112basic_stringIDsNS_11char_traitsIDsEENS_9allocatorIDsEEEE"
    }
   ],
   "return_type" : "_ZTIm",
   "source_file" : "external/libcxx/include/string"
  },
  {
   "access" : "private",
   "function_name" : "std::__1::basic_string<char16_t, std::__1::char_traits<char16_t>, std::__1::allocator<char16_t>>::__alloc",
   "linker_set_key" : "_ZNKSt3__112basic_stringIDsNS_11char_traitsIDsEENS_9allocatorIDsEEE7__allocEv",
   "parameters" :
   [
    {
     "is_this_ptr" : true,
     "referenced_type" : "_ZTIPKNSt3__112basic_stringIDsNS_11char_traitsIDsEENS_9allocatorIDsEEEE"
    }
   ],
   "return_type" : "_ZTIRKNSt3__19allocatorIDsEE",
   "source_file" : "external/libcxx/include/string"
  },
  {
   "function_name" : "std::__1::basic_string<char16_t, std::__1::char_traits<char16_t>, std::__1::allocator<char16_t>>::max_size",
   "linker_set_key" : "_ZNKSt3__112basic_stringIDsNS_11char_traitsIDsEENS_9allocatorIDsEEE8max_sizeEv",
   "parameters" :
   [
    {
     "is_this_ptr" : true,
     "referenced_type" : "_ZTIPKNSt3__112basic_stringIDsNS_11char_traitsIDsEENS_9allocatorIDsEEEE"
    }
   ],
   "return_type" : "_ZTIm",
   "source_file" : "external/libcxx/include/string"
  },
  {
   "function_name" : "std::__1::basic_string<char16_t, std::__1::char_traits<char16_t>, std::__1::allocator<char16_t>>::__is_long",
   "linker_set_key" : "_ZNKSt3__112basic_stringIDsNS_11char_traitsIDsEENS_9allocatorIDsEEE9__is_longEv",
   "parameters" :
   [
    {
     "is_this_ptr" : true,
     "referenced_type" : "_ZTIPKNSt3__112basic_stringIDsNS_11char_traitsIDsEENS_9allocatorIDsEEEE"
    }
   ],
   "return_type" : "_ZTIb",
   "source_file" : "external/libcxx/include/string"
  },
  {
   "access" : "private",
   "function_name" : "std::__1::basic_string<char, std::__1::char_traits<char>, std::__1::allocator<char>>::__get_long_cap",
   "linker_set_key" : "_ZNKSt3__112basic_stringIcNS_11char_traitsIcEENS_9allocatorIcEEE14__get_long_capEv",
   "parameters" :
   [
    {
     "is_this_ptr" : true,
     "referenced_type" : "_ZTIPKNSt3__112basic_stringIcNS_11char_traitsIcEENS_9allocatorIcEEEE"
    }
   ],
   "return_type" : "_ZTIm",
   "source_file" : "external/libcxx/include/string"
  },
  {
   "access" : "private",
   "function_name" : "std::__1::basic_string<char, std::__1::char_traits<char>, std::__1::allocator<char>>::__alloc",
   "linker_set_key" : "_ZNKSt3__112basic_stringIcNS_11char_traitsIcEENS_9allocatorIcEEE7__allocEv",
   "parameters" :
   [
    {
     "is_this_ptr" : true,
     "referenced_type" : "_ZTIPKNSt3__112basic_stringIcNS_11char_traitsIcEENS_9allocatorIcEEEE"
    }
   ],
   "return_type" : "_ZTIRKNSt3__19allocatorIcEE",
   "source_file" : "external/libcxx/include/string"
  },
  {
   "function_name" : "std::__1::basic_string<char, std::__1::char_traits<char>, std::__1::allocator<char>>::max_size",
   "linker_set_key" : "_ZNKSt3__112basic_stringIcNS_11char_traitsIcEENS_9allocatorIcEEE8max_sizeEv",
   "parameters" :
   [
    {
     "is_this_ptr" : true,
     "referenced_type" : "_ZTIPKNSt3__112basic_stringIcNS_11char_traitsIcEENS_9allocatorIcEEEE"
    }
   ],
   "return_type" : "_ZTIm",
   "source_file" : "external/libcxx/include/string"
  },
  {
   "function_name" : "std::__1::basic_string<char, std::__1::char_traits<char>, std::__1::allocator<char>>::__is_long",
   "linker_set_key" : "_ZNKSt3__112basic_stringIcNS_11char_traitsIcEENS_9allocatorIcEEE9__is_longEv",
   "parameters" :
   [
    {
     "is_this_ptr" : true,
     "referenced_type" : "_ZTIPKNSt3__112basic_stringIcNS_11char_traitsIcEENS_9allocatorIcEEEE"
    }
   ],
   "return_type" : "_ZTIb",
   "source_file" : "external/libcxx/include/string"
  },
  {
   "access" : "private",
   "function_name" : "std::__1::basic_string<wchar_t, std::__1::char_traits<wchar_t>, std::__1::allocator<wchar_t>>::__get_long_cap",
   "linker_set_key" : "_ZNKSt3__112basic_stringIwNS_11char_traitsIwEENS_9allocatorIwEEE14__get_long_capEv",
   "parameters" :
   [
    {
     "is_this_ptr" : true,
     "referenced_type" : "_ZTIPKNSt3__112basic_stringIwNS_11char_traitsIwEENS_9allocatorIwEEEE"
    }
   ],
   "return_type" : "_ZTIm",
   "source_file" : "external/libcxx/include/string"
  },
  {
   "access" : "private",
   "function_name" : "std::__1::basic_string<wchar_t, std::__1::char_traits<wchar_t>, std::__1::allocator<wchar_t>>::__alloc",
   "linker_set_key" : "_ZNKSt3__112basic_stringIwNS_11char_traitsIwEENS_9allocatorIwEEE7__allocEv",
   "parameters" :
   [
    {
     "is_this_ptr" : true,
     "referenced_type" : "_ZTIPKNSt3__112basic_stringIwNS_11char_traitsIwEENS_9allocatorIwEEEE"
    }
   ],
   "return_type" : "_ZTIRKNSt3__19allocatorIwEE",
   "source_file" : "external/libcxx/include/string"
  },
  {
   "function_name" : "std::__1::basic_string<wchar_t, std::__1::char_traits<wchar_t>, std::__1::allocator<wchar_t>>::max_size",
   "linker_set_key" : "_ZNKSt3__112basic_stringIwNS_11char_traitsIwEENS_9allocatorIwEEE8max_sizeEv",
   "parameters" :
   [
    {
     "is_this_ptr" : true,
     "referenced_type" : "_ZTIPKNSt3__112basic_stringIwNS_11char_traitsIwEENS_9allocatorIwEEEE"
    }
   ],
   "return_type" : "_ZTIm",
   "source_file" : "external/libcxx/include/string"
  },
  {
   "function_name" : "std::__1::basic_string<wchar_t, std::__1::char_traits<wchar_t>, std::__1::allocator<wchar_t>>::__is_long",
   "linker_set_key" : "_ZNKSt3__112basic_stringIwNS_11char_traitsIwEENS_9allocatorIwEEE9__is_longEv",
   "parameters" :
   [
    {
     "is_this_ptr" : true,
     "referenced_type" : "_ZTIPKNSt3__112basic_stringIwNS_11char_traitsIwEENS_9allocatorIwEEEE"
    }
   ],
   "return_type" : "_ZTIb",
   "source_file" : "external/libcxx/include/string"
  },
  {
   "function_name" : "std::__1::system_error::code",
   "linker_set_key" : "_ZNKSt3__112system_error4codeEv",
   "parameters" :
   [
    {
     "is_this_ptr" : true,
     "referenced_type" : "_ZTIPKNSt3__112system_errorE"
    }
   ],
   "return_type" : "_ZTIRKNSt3__110error_codeE",
   "source_file" : "external/libcxx/include/system_error"
  },
  {
   "function_name" : "std::__1::__atomic_base<gemmlowp::Worker::State, false>::load",
   "linker_set_key" : "_ZNKSt3__113__atomic_baseIN8gemmlowp6Worker5StateELb0EE4loadENS_12memory_orderE",
   "parameters" :
   [
    {
     "is_this_ptr" : true,
     "referenced_type" : "_ZTIPKNSt3__113__atomic_baseIN8gemmlowp6Worker5StateELb0EEE"
    },
    {
     "default_arg" : true,
     "referenced_type" : "_ZTINSt3__112memory_orderE"
    }
   ],
   "return_type" : "_ZTIN8gemmlowp6Worker5StateE",
   "source_file" : "external/libcxx/include/atomic"
  },
  {
   "function_name" : "std::__1::__atomic_base<unsigned long, false>::load",
   "linker_set_key" : "_ZNKSt3__113__atomic_baseImLb0EE4loadENS_12memory_orderE",
   "parameters" :
   [
    {
     "is_this_ptr" : true,
     "referenced_type" : "_ZTIPKNSt3__113__atomic_baseImLb0EEE"
    },
    {
     "default_arg" : true,
     "referenced_type" : "_ZTINSt3__112memory_orderE"
    }
   ],
   "return_type" : "_ZTIm",
   "source_file" : "external/libcxx/include/atomic"
  },
  {
   "function_name" : "std::__1::__scalar_hash<std::__1::_PairT, 2>::operator()",
   "linker_set_key" : "_ZNKSt3__113__scalar_hashINS_6_PairTELm2EEclES1_",
   "parameters" :
   [
    {
     "is_this_ptr" : true,
     "referenced_type" : "_ZTIPKNSt3__113__scalar_hashINS_6_PairTELm2EEE"
    },
    {
     "referenced_type" : "_ZTINSt3__16_PairTE"
    }
   ],
   "return_type" : "_ZTIm",
   "source_file" : "external/libcxx/include/utility"
  },
  {
   "function_name" : "std::__1::__scalar_hash<double, 1>::operator()",
   "linker_set_key" : "_ZNKSt3__113__scalar_hashIdLm1EEclEd",
   "parameters" :
   [
    {
     "is_this_ptr" : true,
     "referenced_type" : "_ZTIPKNSt3__113__scalar_hashIdLm1EEE"
    },
    {
     "referenced_type" : "_ZTId"
    }
   ],
   "return_type" : "_ZTIm",
   "source_file" : "external/libcxx/include/utility"
  },
  {
   "function_name" : "std::__1::__scalar_hash<long double, 2>::operator()",
   "linker_set_key" : "_ZNKSt3__113__scalar_hashIeLm2EEclEe",
   "parameters" :
   [
    {
     "is_this_ptr" : true,
     "referenced_type" : "_ZTIPKNSt3__113__scalar_hashIeLm2EEE"
    },
    {
     "referenced_type" : "_ZTIe"
    }
   ],
   "return_type" : "_ZTIm",
   "source_file" : "external/libcxx/include/utility"
  },
  {
   "function_name" : "std::__1::__scalar_hash<float, 0>::operator()",
   "linker_set_key" : "_ZNKSt3__113__scalar_hashIfLm0EEclEf",
   "parameters" :
   [
    {
     "is_this_ptr" : true,
     "referenced_type" : "_ZTIPKNSt3__113__scalar_hashIfLm0EEE"
    },
    {
     "referenced_type" : "_ZTIf"
    }
   ],
   "return_type" : "_ZTIm",
   "source_file" : "external/libcxx/include/utility"
  },
  {
   "access" : "protected",
   "function_name" : "std::__1::__vector_base<gemmlowp::Worker *, std::__1::allocator<gemmlowp::Worker *>>::__alloc",
   "linker_set_key" : "_ZNKSt3__113__vector_baseIPN8gemmlowp6WorkerENS_9allocatorIS3_EEE7__allocEv",
   "parameters" :
   [
    {
     "is_this_ptr" : true,
     "referenced_type" : "_ZTIPKNSt3__113__vector_baseIPN8gemmlowp6WorkerENS_9allocatorIS3_EEEE"
    }
   ],
   "return_type" : "_ZTIRKNSt3__19allocatorIPN8gemmlowp6WorkerEEE",
   "source_file" : "external/libcxx/include/vector"
  },
  {
   "access" : "protected",
   "function_name" : "std::__1::__vector_base<gemmlowp::Worker *, std::__1::allocator<gemmlowp::Worker *>>::capacity",
   "linker_set_key" : "_ZNKSt3__113__vector_baseIPN8gemmlowp6WorkerENS_9allocatorIS3_EEE8capacityEv",
   "parameters" :
   [
    {
     "is_this_ptr" : true,
     "referenced_type" : "_ZTIPKNSt3__113__vector_baseIPN8gemmlowp6WorkerENS_9allocatorIS3_EEEE"
    }
   ],
   "return_type" : "_ZTIm",
   "source_file" : "external/libcxx/include/vector"
  },
  {
   "access" : "protected",
   "function_name" : "std::__1::__vector_base<gemmlowp::Worker *, std::__1::allocator<gemmlowp::Worker *>>::__end_cap",
   "linker_set_key" : "_ZNKSt3__113__vector_baseIPN8gemmlowp6WorkerENS_9allocatorIS3_EEE9__end_capEv",
   "parameters" :
   [
    {
     "is_this_ptr" : true,
     "referenced_type" : "_ZTIPKNSt3__113__vector_baseIPN8gemmlowp6WorkerENS_9allocatorIS3_EEEE"
    }
   ],
   "return_type" : "_ZTIRKPPN8gemmlowp6WorkerE",
   "source_file" : "external/libcxx/include/vector"
  },
  {
   "function_name" : "std::__1::__shared_count::use_count",
   "linker_set_key" : "_ZNKSt3__114__shared_count9use_countEv",
   "parameters" :
   [
    {
     "is_this_ptr" : true,
     "referenced_type" : "_ZTIPKNSt3__114__shared_countE"
    }
   ],
   "return_type" : "_ZTIl",
   "source_file" : "external/libcxx/include/memory"
  },
  {
   "function_name" : "std::__1::__split_buffer<gemmlowp::Worker *, std::__1::allocator<gemmlowp::Worker *> &>::capacity",
   "linker_set_key" : "_ZNKSt3__114__split_bufferIPN8gemmlowp6WorkerERNS_9allocatorIS3_EEE8capacityEv",
   "parameters" :
   [
    {
     "is_this_ptr" : true,
     "referenced_type" : "_ZTIPKNSt3__114__split_bufferIPN8gemmlowp6WorkerERNS_9allocatorIS3_EEEE"
    }
   ],
   "return_type" : "_ZTIm",
   "source_file" : "external/libcxx/include/__split_buffer"
  },
  {
   "function_name" : "std::__1::__split_buffer<gemmlowp::Worker *, std::__1::allocator<gemmlowp::Worker *> &>::__end_cap",
   "linker_set_key" : "_ZNKSt3__114__split_bufferIPN8gemmlowp6WorkerERNS_9allocatorIS3_EEE9__end_capEv",
   "parameters" :
   [
    {
     "is_this_ptr" : true,
     "referenced_type" : "_ZTIPKNSt3__114__split_bufferIPN8gemmlowp6WorkerERNS_9allocatorIS3_EEEE"
    }
   ],
   "return_type" : "_ZTIRKPPN8gemmlowp6WorkerE",
   "source_file" : "external/libcxx/include/__split_buffer"
  },
  {
   "function_name" : "std::__1::default_delete<tflite::TfLiteInternalBackendContext>::operator()",
   "linker_set_key" : "_ZNKSt3__114default_deleteIN6tflite28TfLiteInternalBackendContextEEclEPS2_",
   "parameters" :
   [
    {
     "is_this_ptr" : true,
     "referenced_type" : "_ZTIPKNSt3__114default_deleteIN6tflite28TfLiteInternalBackendContextEEE"
    },
    {
     "referenced_type" : "_ZTIPN6tflite28TfLiteInternalBackendContextE"
    }
   ],
   "return_type" : "_ZTIv",
   "source_file" : "external/libcxx/include/memory"
  },
  {
   "function_name" : "std::__1::error_category::operator==",
   "linker_set_key" : "_ZNKSt3__114error_categoryeqERKS0_",
   "parameters" :
   [
    {
     "is_this_ptr" : true,
     "referenced_type" : "_ZTIPKNSt3__114error_categoryE"
    },
    {
     "referenced_type" : "_ZTIRKNSt3__114error_categoryE"
    }
   ],
   "return_type" : "_ZTIb",
   "source_file" : "external/libcxx/include/system_error"
  },
  {
   "function_name" : "std::__1::error_category::operator<",
   "linker_set_key" : "_ZNKSt3__114error_categoryltERKS0_",
   "parameters" :
   [
    {
     "is_this_ptr" : true,
     "referenced_type" : "_ZTIPKNSt3__114error_categoryE"
    },
    {
     "referenced_type" : "_ZTIRKNSt3__114error_categoryE"
    }
   ],
   "return_type" : "_ZTIb",
   "source_file" : "external/libcxx/include/system_error"
  },
  {
   "function_name" : "std::__1::error_category::operator!=",
   "linker_set_key" : "_ZNKSt3__114error_categoryneERKS0_",
   "parameters" :
   [
    {
     "is_this_ptr" : true,
     "referenced_type" : "_ZTIPKNSt3__114error_categoryE"
    },
    {
     "referenced_type" : "_ZTIRKNSt3__114error_categoryE"
    }
   ],
   "return_type" : "_ZTIb",
   "source_file" : "external/libcxx/include/system_error"
  },
  {
   "function_name" : "std::__1::pointer_safety::operator int",
   "linker_set_key" : "_ZNKSt3__114pointer_safetycviEv",
   "parameters" :
   [
    {
     "is_this_ptr" : true,
     "referenced_type" : "_ZTIPKNSt3__114pointer_safetyE"
    }
   ],
   "return_type" : "_ZTIi",
   "source_file" : "external/libcxx/include/memory"
  },
  {
   "function_name" : "std::__1::error_condition::value",
   "linker_set_key" : "_ZNKSt3__115error_condition5valueEv",
   "parameters" :
   [
    {
     "is_this_ptr" : true,
     "referenced_type" : "_ZTIPKNSt3__115error_conditionE"
    }
   ],
   "return_type" : "_ZTIi",
   "source_file" : "external/libcxx/include/system_error"
  },
  {
   "function_name" : "std::__1::error_condition::category",
   "linker_set_key" : "_ZNKSt3__115error_condition8categoryEv",
   "parameters" :
   [
    {
     "is_this_ptr" : true,
     "referenced_type" : "_ZTIPKNSt3__115error_conditionE"
    }
   ],
   "return_type" : "_ZTIRKNSt3__114error_categoryE",
   "source_file" : "external/libcxx/include/system_error"
  },
  {
   "function_name" : "std::__1::error_condition::operator bool",
   "linker_set_key" : "_ZNKSt3__115error_conditioncvbEv",
   "parameters" :
   [
    {
     "is_this_ptr" : true,
     "referenced_type" : "_ZTIPKNSt3__115error_conditionE"
    }
   ],
   "return_type" : "_ZTIb",
   "source_file" : "external/libcxx/include/system_error"
  },
  {
   "function_name" : "std::__1::__compressed_pair<std::__1::basic_string<char32_t, std::__1::char_traits<char32_t>, std::__1::allocator<char32_t>>::__rep, std::__1::allocator<char32_t>>::first",
   "linker_set_key" : "_ZNKSt3__117__compressed_pairINS_12basic_stringIDiNS_11char_traitsIDiEENS_9allocatorIDiEEE5__repES5_E5firstEv",
   "parameters" :
   [
    {
     "is_this_ptr" : true,
     "referenced_type" : "_ZTIPKNSt3__117__compressed_pairINS_12basic_stringIDiNS_11char_traitsIDiEENS_9allocatorIDiEEE5__repES5_EE"
    }
   ],
   "return_type" : "_ZTIRKNSt3__112basic_stringIDiNS_11char_traitsIDiEENS_9allocatorIDiEEE5__repE",
   "source_file" : "external/libcxx/include/memory"
  },
  {
   "function_name" : "std::__1::__compressed_pair<std::__1::basic_string<char32_t, std::__1::char_traits<char32_t>, std::__1::allocator<char32_t>>::__rep, std::__1::allocator<char32_t>>::second",
   "linker_set_key" : "_ZNKSt3__117__compressed_pairINS_12basic_stringIDiNS_11char_traitsIDiEENS_9allocatorIDiEEE5__repES5_E6secondEv",
   "parameters" :
   [
    {
     "is_this_ptr" : true,
     "referenced_type" : "_ZTIPKNSt3__117__compressed_pairINS_12basic_stringIDiNS_11char_traitsIDiEENS_9allocatorIDiEEE5__repES5_EE"
    }
   ],
   "return_type" : "_ZTIRKNSt3__19allocatorIDiEE",
   "source_file" : "external/libcxx/include/memory"
  },
  {
   "function_name" : "std::__1::__compressed_pair<std::__1::basic_string<char16_t, std::__1::char_traits<char16_t>, std::__1::allocator<char16_t>>::__rep, std::__1::allocator<char16_t>>::first",
   "linker_set_key" : "_ZNKSt3__117__compressed_pairINS_12basic_stringIDsNS_11char_traitsIDsEENS_9allocatorIDsEEE5__repES5_E5firstEv",
   "parameters" :
   [
    {
     "is_this_ptr" : true,
     "referenced_type" : "_ZTIPKNSt3__117__compressed_pairINS_12basic_stringIDsNS_11char_traitsIDsEENS_9allocatorIDsEEE5__repES5_EE"
    }
   ],
   "return_type" : "_ZTIRKNSt3__112basic_stringIDsNS_11char_traitsIDsEENS_9allocatorIDsEEE5__repE",
   "source_file" : "external/libcxx/include/memory"
  },
  {
   "function_name" : "std::__1::__compressed_pair<std::__1::basic_string<char16_t, std::__1::char_traits<char16_t>, std::__1::allocator<char16_t>>::__rep, std::__1::allocator<char16_t>>::second",
   "linker_set_key" : "_ZNKSt3__117__compressed_pairINS_12basic_stringIDsNS_11char_traitsIDsEENS_9allocatorIDsEEE5__repES5_E6secondEv",
   "parameters" :
   [
    {
     "is_this_ptr" : true,
     "referenced_type" : "_ZTIPKNSt3__117__compressed_pairINS_12basic_stringIDsNS_11char_traitsIDsEENS_9allocatorIDsEEE5__repES5_EE"
    }
   ],
   "return_type" : "_ZTIRKNSt3__19allocatorIDsEE",
   "source_file" : "external/libcxx/include/memory"
  },
  {
   "function_name" : "std::__1::__compressed_pair<std::__1::basic_string<char, std::__1::char_traits<char>, std::__1::allocator<char>>::__rep, std::__1::allocator<char>>::first",
   "linker_set_key" : "_ZNKSt3__117__compressed_pairINS_12basic_stringIcNS_11char_traitsIcEENS_9allocatorIcEEE5__repES5_E5firstEv",
   "parameters" :
   [
    {
     "is_this_ptr" : true,
     "referenced_type" : "_ZTIPKNSt3__117__compressed_pairINS_12basic_stringIcNS_11char_traitsIcEENS_9allocatorIcEEE5__repES5_EE"
    }
   ],
   "return_type" : "_ZTIRKNSt3__112basic_stringIcNS_11char_traitsIcEENS_9allocatorIcEEE5__repE",
   "source_file" : "external/libcxx/include/memory"
  },
  {
   "function_name" : "std::__1::__compressed_pair<std::__1::basic_string<char, std::__1::char_traits<char>, std::__1::allocator<char>>::__rep, std::__1::allocator<char>>::second",
   "linker_set_key" : "_ZNKSt3__117__compressed_pairINS_12basic_stringIcNS_11char_traitsIcEENS_9allocatorIcEEE5__repES5_E6secondEv",
   "parameters" :
   [
    {
     "is_this_ptr" : true,
     "referenced_type" : "_ZTIPKNSt3__117__compressed_pairINS_12basic_stringIcNS_11char_traitsIcEENS_9allocatorIcEEE5__repES5_EE"
    }
   ],
   "return_type" : "_ZTIRKNSt3__19allocatorIcEE",
   "source_file" : "external/libcxx/include/memory"
  },
  {
   "function_name" : "std::__1::__compressed_pair<std::__1::basic_string<wchar_t, std::__1::char_traits<wchar_t>, std::__1::allocator<wchar_t>>::__rep, std::__1::allocator<wchar_t>>::first",
   "linker_set_key" : "_ZNKSt3__117__compressed_pairINS_12basic_stringIwNS_11char_traitsIwEENS_9allocatorIwEEE5__repES5_E5firstEv",
   "parameters" :
   [
    {
     "is_this_ptr" : true,
     "referenced_type" : "_ZTIPKNSt3__117__compressed_pairINS_12basic_stringIwNS_11char_traitsIwEENS_9allocatorIwEEE5__repES5_EE"
    }
   ],
   "return_type" : "_ZTIRKNSt3__112basic_stringIwNS_11char_traitsIwEENS_9allocatorIwEEE5__repE",
   "source_file" : "external/libcxx/include/memory"
  },
  {
   "function_name" : "std::__1::__compressed_pair<std::__1::basic_string<wchar_t, std::__1::char_traits<wchar_t>, std::__1::allocator<wchar_t>>::__rep, std::__1::allocator<wchar_t>>::second",
   "linker_set_key" : "_ZNKSt3__117__compressed_pairINS_12basic_stringIwNS_11char_traitsIwEENS_9allocatorIwEEE5__repES5_E6secondEv",
   "parameters" :
   [
    {
     "is_this_ptr" : true,
     "referenced_type" : "_ZTIPKNSt3__117__compressed_pairINS_12basic_stringIwNS_11char_traitsIwEENS_9allocatorIwEEE5__repES5_EE"
    }
   ],
   "return_type" : "_ZTIRKNSt3__19allocatorIwEE",
   "source_file" : "external/libcxx/include/memory"
  },
  {
   "function_name" : "std::__1::__compressed_pair<ruy::Context *, std::__1::default_delete<ruy::Context>>::first",
   "linker_set_key" : "_ZNKSt3__117__compressed_pairIPN3ruy7ContextENS_14default_deleteIS2_EEE5firstEv",
   "parameters" :
   [
    {
     "is_this_ptr" : true,
     "referenced_type" : "_ZTIPKNSt3__117__compressed_pairIPN3ruy7ContextENS_14default_deleteIS2_EEEE"
    }
   ],
   "return_type" : "_ZTIRKPN3ruy7ContextE",
   "source_file" : "external/libcxx/include/memory"
  },
  {
   "function_name" : "std::__1::__compressed_pair<tflite::TfLiteInternalBackendContext *, std::__1::default_delete<tflite::TfLiteInternalBackendContext>>::first",
   "linker_set_key" : "_ZNKSt3__117__compressed_pairIPN6tflite28TfLiteInternalBackendContextENS_14default_deleteIS2_EEE5firstEv",
   "parameters" :
   [
    {
     "is_this_ptr" : true,
     "referenced_type" : "_ZTIPKNSt3__117__compressed_pairIPN6tflite28TfLiteInternalBackendContextENS_14default_deleteIS2_EEEE"
    }
   ],
   "return_type" : "_ZTIRKPN6tflite28TfLiteInternalBackendContextE",
   "source_file" : "external/libcxx/include/memory"
  },
  {
   "function_name" : "std::__1::__compressed_pair<gemmlowp::GemmContext *, std::__1::default_delete<gemmlowp::GemmContext>>::first",
   "linker_set_key" : "_ZNKSt3__117__compressed_pairIPN8gemmlowp11GemmContextENS_14default_deleteIS2_EEE5firstEv",
   "parameters" :
   [
    {
     "is_this_ptr" : true,
     "referenced_type" : "_ZTIPKNSt3__117__compressed_pairIPN8gemmlowp11GemmContextENS_14default_deleteIS2_EEEE"
    }
   ],
   "return_type" : "_ZTIRKPN8gemmlowp11GemmContextE",
   "source_file" : "external/libcxx/include/memory"
  },
  {
   "function_name" : "std::__1::__compressed_pair<gemmlowp::Worker **, std::__1::allocator<gemmlowp::Worker *>>::first",
   "linker_set_key" : "_ZNKSt3__117__compressed_pairIPPN8gemmlowp6WorkerENS_9allocatorIS3_EEE5firstEv",
   "parameters" :
   [
    {
     "is_this_ptr" : true,
     "referenced_type" : "_ZTIPKNSt3__117__compressed_pairIPPN8gemmlowp6WorkerENS_9allocatorIS3_EEEE"
    }
   ],
   "return_type" : "_ZTIRKPPN8gemmlowp6WorkerE",
   "source_file" : "external/libcxx/include/memory"
  },
  {
   "function_name" : "std::__1::__compressed_pair<gemmlowp::Worker **, std::__1::allocator<gemmlowp::Worker *>>::second",
   "linker_set_key" : "_ZNKSt3__117__compressed_pairIPPN8gemmlowp6WorkerENS_9allocatorIS3_EEE6secondEv",
   "parameters" :
   [
    {
     "is_this_ptr" : true,
     "referenced_type" : "_ZTIPKNSt3__117__compressed_pairIPPN8gemmlowp6WorkerENS_9allocatorIS3_EEEE"
    }
   ],
   "return_type" : "_ZTIRKNSt3__19allocatorIPN8gemmlowp6WorkerEEE",
   "source_file" : "external/libcxx/include/memory"
  },
  {
   "function_name" : "std::__1::__compressed_pair<gemmlowp::Worker **, std::__1::allocator<gemmlowp::Worker *> &>::first",
   "linker_set_key" : "_ZNKSt3__117__compressed_pairIPPN8gemmlowp6WorkerERNS_9allocatorIS3_EEE5firstEv",
   "parameters" :
   [
    {
     "is_this_ptr" : true,
     "referenced_type" : "_ZTIPKNSt3__117__compressed_pairIPPN8gemmlowp6WorkerERNS_9allocatorIS3_EEEE"
    }
   ],
   "return_type" : "_ZTIRKPPN8gemmlowp6WorkerE",
   "source_file" : "external/libcxx/include/memory"
  },
  {
   "function_name" : "std::__1::__libcpp_refstring::c_str",
   "linker_set_key" : "_ZNKSt3__118__libcpp_refstring5c_strEv",
   "parameters" :
   [
    {
     "is_this_ptr" : true,
     "referenced_type" : "_ZTIPKNSt3__118__libcpp_refstringE"
    }
   ],
   "return_type" : "_ZTIPKc",
   "source_file" : "external/libcxx/include/stdexcept"
  },
  {
   "function_name" : "std::__1::__shared_weak_count::use_count",
   "linker_set_key" : "_ZNKSt3__119__shared_weak_count9use_countEv",
   "parameters" :
   [
    {
     "is_this_ptr" : true,
     "referenced_type" : "_ZTIPKNSt3__119__shared_weak_countE"
    }
   ],
   "return_type" : "_ZTIl",
   "source_file" : "external/libcxx/include/memory"
  },
  {
   "function_name" : "std::__1::__compressed_pair_elem<std::__1::basic_string<char32_t, std::__1::char_traits<char32_t>, std::__1::allocator<char32_t>>::__rep, 0, false>::__get",
   "linker_set_key" : "_ZNKSt3__122__compressed_pair_elemINS_12basic_stringIDiNS_11char_traitsIDiEENS_9allocatorIDiEEE5__repELi0ELb0EE5__getEv",
   "parameters" :
   [
    {
     "is_this_ptr" : true,
     "referenced_type" : "_ZTIPKNSt3__122__compressed_pair_elemINS_12basic_stringIDiNS_11char_traitsIDiEENS_9allocatorIDiEEE5__repELi0ELb0EEE"
    }
   ],
   "return_type" : "_ZTIRKNSt3__112basic_stringIDiNS_11char_traitsIDiEENS_9allocatorIDiEEE5__repE",
   "source_file" : "external/libcxx/include/memory"
  },
  {
   "function_name" : "std::__1::__compressed_pair_elem<std::__1::basic_string<char16_t, std::__1::char_traits<char16_t>, std::__1::allocator<char16_t>>::__rep, 0, false>::__get",
   "linker_set_key" : "_ZNKSt3__122__compressed_pair_elemINS_12basic_stringIDsNS_11char_traitsIDsEENS_9allocatorIDsEEE5__repELi0ELb0EE5__getEv",
   "parameters" :
   [
    {
     "is_this_ptr" : true,
     "referenced_type" : "_ZTIPKNSt3__122__compressed_pair_elemINS_12basic_stringIDsNS_11char_traitsIDsEENS_9allocatorIDsEEE5__repELi0ELb0EEE"
    }
   ],
   "return_type" : "_ZTIRKNSt3__112basic_stringIDsNS_11char_traitsIDsEENS_9allocatorIDsEEE5__repE",
   "source_file" : "external/libcxx/include/memory"
  },
  {
   "function_name" : "std::__1::__compressed_pair_elem<std::__1::basic_string<char, std::__1::char_traits<char>, std::__1::allocator<char>>::__rep, 0, false>::__get",
   "linker_set_key" : "_ZNKSt3__122__compressed_pair_elemINS_12basic_stringIcNS_11char_traitsIcEENS_9allocatorIcEEE5__repELi0ELb0EE5__getEv",
   "parameters" :
   [
    {
     "is_this_ptr" : true,
     "referenced_type" : "_ZTIPKNSt3__122__compressed_pair_elemINS_12basic_stringIcNS_11char_traitsIcEENS_9allocatorIcEEE5__repELi0ELb0EEE"
    }
   ],
   "return_type" : "_ZTIRKNSt3__112basic_stringIcNS_11char_traitsIcEENS_9allocatorIcEEE5__repE",
   "source_file" : "external/libcxx/include/memory"
  },
  {
   "function_name" : "std::__1::__compressed_pair_elem<std::__1::basic_string<wchar_t, std::__1::char_traits<wchar_t>, std::__1::allocator<wchar_t>>::__rep, 0, false>::__get",
   "linker_set_key" : "_ZNKSt3__122__compressed_pair_elemINS_12basic_stringIwNS_11char_traitsIwEENS_9allocatorIwEEE5__repELi0ELb0EE5__getEv",
   "parameters" :
   [
    {
     "is_this_ptr" : true,
     "referenced_type" : "_ZTIPKNSt3__122__compressed_pair_elemINS_12basic_stringIwNS_11char_traitsIwEENS_9allocatorIwEEE5__repELi0ELb0EEE"
    }
   ],
   "return_type" : "_ZTIRKNSt3__112basic_stringIwNS_11char_traitsIwEENS_9allocatorIwEEE5__repE",
   "source_file" : "external/libcxx/include/memory"
  },
  {
   "function_name" : "std::__1::__compressed_pair_elem<std::__1::allocator<char32_t>, 1, true>::__get",
   "linker_set_key" : "_ZNKSt3__122__compressed_pair_elemINS_9allocatorIDiEELi1ELb1EE5__getEv",
   "parameters" :
   [
    {
     "is_this_ptr" : true,
     "referenced_type" : "_ZTIPKNSt3__122__compressed_pair_elemINS_9allocatorIDiEELi1ELb1EEE"
    }
   ],
   "return_type" : "_ZTIRKNSt3__19allocatorIDiEE",
   "source_file" : "external/libcxx/include/memory"
  },
  {
   "function_name" : "std::__1::__compressed_pair_elem<std::__1::allocator<char16_t>, 1, true>::__get",
   "linker_set_key" : "_ZNKSt3__122__compressed_pair_elemINS_9allocatorIDsEELi1ELb1EE5__getEv",
   "parameters" :
   [
    {
     "is_this_ptr" : true,
     "referenced_type" : "_ZTIPKNSt3__122__compressed_pair_elemINS_9allocatorIDsEELi1ELb1EEE"
    }
   ],
   "return_type" : "_ZTIRKNSt3__19allocatorIDsEE",
   "source_file" : "external/libcxx/include/memory"
  },
  {
   "function_name" : "std::__1::__compressed_pair_elem<std::__1::allocator<gemmlowp::Worker *>, 1, true>::__get",
   "linker_set_key" : "_ZNKSt3__122__compressed_pair_elemINS_9allocatorIPN8gemmlowp6WorkerEEELi1ELb1EE5__getEv",
   "parameters" :
   [
    {
     "is_this_ptr" : true,
     "referenced_type" : "_ZTIPKNSt3__122__compressed_pair_elemINS_9allocatorIPN8gemmlowp6WorkerEEELi1ELb1EEE"
    }
   ],
   "return_type" : "_ZTIRKNSt3__19allocatorIPN8gemmlowp6WorkerEEE",
   "source_file" : "external/libcxx/include/memory"
  },
  {
   "function_name" : "std::__1::__compressed_pair_elem<std::__1::allocator<char>, 1, true>::__get",
   "linker_set_key" : "_ZNKSt3__122__compressed_pair_elemINS_9allocatorIcEELi1ELb1EE5__getEv",
   "parameters" :
   [
    {
     "is_this_ptr" : true,
     "referenced_type" : "_ZTIPKNSt3__122__compressed_pair_elemINS_9allocatorIcEELi1ELb1EEE"
    }
   ],
   "return_type" : "_ZTIRKNSt3__19allocatorIcEE",
   "source_file" : "external/libcxx/include/memory"
  },
  {
   "function_name" : "std::__1::__compressed_pair_elem<std::__1::allocator<wchar_t>, 1, true>::__get",
   "linker_set_key" : "_ZNKSt3__122__compressed_pair_elemINS_9allocatorIwEELi1ELb1EE5__getEv",
   "parameters" :
   [
    {
     "is_this_ptr" : true,
     "referenced_type" : "_ZTIPKNSt3__122__compressed_pair_elemINS_9allocatorIwEELi1ELb1EEE"
    }
   ],
   "return_type" : "_ZTIRKNSt3__19allocatorIwEE",
   "source_file" : "external/libcxx/include/memory"
  },
  {
   "function_name" : "std::__1::__compressed_pair_elem<ruy::Context *, 0, false>::__get",
   "linker_set_key" : "_ZNKSt3__122__compressed_pair_elemIPN3ruy7ContextELi0ELb0EE5__getEv",
   "parameters" :
   [
    {
     "is_this_ptr" : true,
     "referenced_type" : "_ZTIPKNSt3__122__compressed_pair_elemIPN3ruy7ContextELi0ELb0EEE"
    }
   ],
   "return_type" : "_ZTIRKPN3ruy7ContextE",
   "source_file" : "external/libcxx/include/memory"
  },
  {
   "function_name" : "std::__1::__compressed_pair_elem<tflite::TfLiteInternalBackendContext *, 0, false>::__get",
   "linker_set_key" : "_ZNKSt3__122__compressed_pair_elemIPN6tflite28TfLiteInternalBackendContextELi0ELb0EE5__getEv",
   "parameters" :
   [
    {
     "is_this_ptr" : true,
     "referenced_type" : "_ZTIPKNSt3__122__compressed_pair_elemIPN6tflite28TfLiteInternalBackendContextELi0ELb0EEE"
    }
   ],
   "return_type" : "_ZTIRKPN6tflite28TfLiteInternalBackendContextE",
   "source_file" : "external/libcxx/include/memory"
  },
  {
   "function_name" : "std::__1::__compressed_pair_elem<gemmlowp::GemmContext *, 0, false>::__get",
   "linker_set_key" : "_ZNKSt3__122__compressed_pair_elemIPN8gemmlowp11GemmContextELi0ELb0EE5__getEv",
   "parameters" :
   [
    {
     "is_this_ptr" : true,
     "referenced_type" : "_ZTIPKNSt3__122__compressed_pair_elemIPN8gemmlowp11GemmContextELi0ELb0EEE"
    }
   ],
   "return_type" : "_ZTIRKPN8gemmlowp11GemmContextE",
   "source_file" : "external/libcxx/include/memory"
  },
  {
   "function_name" : "std::__1::__compressed_pair_elem<gemmlowp::Worker **, 0, false>::__get",
   "linker_set_key" : "_ZNKSt3__122__compressed_pair_elemIPPN8gemmlowp6WorkerELi0ELb0EE5__getEv",
   "parameters" :
   [
    {
     "is_this_ptr" : true,
     "referenced_type" : "_ZTIPKNSt3__122__compressed_pair_elemIPPN8gemmlowp6WorkerELi0ELb0EEE"
    }
   ],
   "return_type" : "_ZTIRKPPN8gemmlowp6WorkerE",
   "source_file" : "external/libcxx/include/memory"
  },
  {
   "function_name" : "std::__1::hash<char32_t>::operator()",
   "linker_set_key" : "_ZNKSt3__14hashIDiEclEDi",
   "parameters" :
   [
    {
     "is_this_ptr" : true,
     "referenced_type" : "_ZTIPKNSt3__14hashIDiEE"
    },
    {
     "referenced_type" : "_ZTIDi"
    }
   ],
   "return_type" : "_ZTIm",
   "source_file" : "external/libcxx/include/utility"
  },
  {
   "function_name" : "std::__1::hash<nullptr_t>::operator()",
   "linker_set_key" : "_ZNKSt3__14hashIDnEclEDn",
   "parameters" :
   [
    {
     "is_this_ptr" : true,
     "referenced_type" : "_ZTIPKNSt3__14hashIDnEE"
    },
    {
     "referenced_type" : "_ZTIDn"
    }
   ],
   "return_type" : "_ZTIm",
   "source_file" : "external/libcxx/include/utility"
  },
  {
   "function_name" : "std::__1::hash<char16_t>::operator()",
   "linker_set_key" : "_ZNKSt3__14hashIDsEclEDs",
   "parameters" :
   [
    {
     "is_this_ptr" : true,
     "referenced_type" : "_ZTIPKNSt3__14hashIDsEE"
    },
    {
     "referenced_type" : "_ZTIDs"
    }
   ],
   "return_type" : "_ZTIm",
   "source_file" : "external/libcxx/include/utility"
  },
  {
   "function_name" : "std::__1::hash<std::__1::error_code>::operator()",
   "linker_set_key" : "_ZNKSt3__14hashINS_10error_codeEEclERKS1_",
   "parameters" :
   [
    {
     "is_this_ptr" : true,
     "referenced_type" : "_ZTIPKNSt3__14hashINS_10error_codeEEE"
    },
    {
     "referenced_type" : "_ZTIRKNSt3__110error_codeE"
    }
   ],
   "return_type" : "_ZTIm",
   "source_file" : "external/libcxx/include/system_error"
  },
  {
   "function_name" : "std::__1::hash<std::__1::__thread_id>::operator()",
   "linker_set_key" : "_ZNKSt3__14hashINS_11__thread_idEEclES1_",
   "parameters" :
   [
    {
     "is_this_ptr" : true,
     "referenced_type" : "_ZTIPKNSt3__14hashINS_11__thread_idEEE"
    },
    {
     "referenced_type" : "_ZTINSt3__111__thread_idE"
    }
   ],
   "return_type" : "_ZTIm",
   "source_file" : "external/libcxx/include/thread"
  },
  {
   "function_name" : "std::__1::hash<std::__1::error_condition>::operator()",
   "linker_set_key" : "_ZNKSt3__14hashINS_15error_conditionEEclERKS1_",
   "parameters" :
   [
    {
     "is_this_ptr" : true,
     "referenced_type" : "_ZTIPKNSt3__14hashINS_15error_conditionEEE"
    },
    {
     "referenced_type" : "_ZTIRKNSt3__115error_conditionE"
    }
   ],
   "return_type" : "_ZTIm",
   "source_file" : "external/libcxx/include/system_error"
  },
  {
   "function_name" : "std::__1::hash<signed char>::operator()",
   "linker_set_key" : "_ZNKSt3__14hashIaEclEa",
   "parameters" :
   [
    {
     "is_this_ptr" : true,
     "referenced_type" : "_ZTIPKNSt3__14hashIaEE"
    },
    {
     "referenced_type" : "_ZTIa"
    }
   ],
   "return_type" : "_ZTIm",
   "source_file" : "external/libcxx/include/utility"
  },
  {
   "function_name" : "std::__1::hash<bool>::operator()",
   "linker_set_key" : "_ZNKSt3__14hashIbEclEb",
   "parameters" :
   [
    {
     "is_this_ptr" : true,
     "referenced_type" : "_ZTIPKNSt3__14hashIbEE"
    },
    {
     "referenced_type" : "_ZTIb"
    }
   ],
   "return_type" : "_ZTIm",
   "source_file" : "external/libcxx/include/utility"
  },
  {
   "function_name" : "std::__1::hash<char>::operator()",
   "linker_set_key" : "_ZNKSt3__14hashIcEclEc",
   "parameters" :
   [
    {
     "is_this_ptr" : true,
     "referenced_type" : "_ZTIPKNSt3__14hashIcEE"
    },
    {
     "referenced_type" : "_ZTIc"
    }
   ],
   "return_type" : "_ZTIm",
   "source_file" : "external/libcxx/include/utility"
  },
  {
   "function_name" : "std::__1::hash<double>::operator()",
   "linker_set_key" : "_ZNKSt3__14hashIdEclEd",
   "parameters" :
   [
    {
     "is_this_ptr" : true,
     "referenced_type" : "_ZTIPKNSt3__14hashIdEE"
    },
    {
     "referenced_type" : "_ZTId"
    }
   ],
   "return_type" : "_ZTIm",
   "source_file" : "external/libcxx/include/utility"
  },
  {
   "function_name" : "std::__1::hash<long double>::operator()",
   "linker_set_key" : "_ZNKSt3__14hashIeEclEe",
   "parameters" :
   [
    {
     "is_this_ptr" : true,
     "referenced_type" : "_ZTIPKNSt3__14hashIeEE"
    },
    {
     "referenced_type" : "_ZTIe"
    }
   ],
   "return_type" : "_ZTIm",
   "source_file" : "external/libcxx/include/utility"
  },
  {
   "function_name" : "std::__1::hash<float>::operator()",
   "linker_set_key" : "_ZNKSt3__14hashIfEclEf",
   "parameters" :
   [
    {
     "is_this_ptr" : true,
     "referenced_type" : "_ZTIPKNSt3__14hashIfEE"
    },
    {
     "referenced_type" : "_ZTIf"
    }
   ],
   "return_type" : "_ZTIm",
   "source_file" : "external/libcxx/include/utility"
  },
  {
   "function_name" : "std::__1::hash<unsigned char>::operator()",
   "linker_set_key" : "_ZNKSt3__14hashIhEclEh",
   "parameters" :
   [
    {
     "is_this_ptr" : true,
     "referenced_type" : "_ZTIPKNSt3__14hashIhEE"
    },
    {
     "referenced_type" : "_ZTIh"
    }
   ],
   "return_type" : "_ZTIm",
   "source_file" : "external/libcxx/include/utility"
  },
  {
   "function_name" : "std::__1::hash<int>::operator()",
   "linker_set_key" : "_ZNKSt3__14hashIiEclEi",
   "parameters" :
   [
    {
     "is_this_ptr" : true,
     "referenced_type" : "_ZTIPKNSt3__14hashIiEE"
    },
    {
     "referenced_type" : "_ZTIi"
    }
   ],
   "return_type" : "_ZTIm",
   "source_file" : "external/libcxx/include/utility"
  },
  {
   "function_name" : "std::__1::hash<unsigned int>::operator()",
   "linker_set_key" : "_ZNKSt3__14hashIjEclEj",
   "parameters" :
   [
    {
     "is_this_ptr" : true,
     "referenced_type" : "_ZTIPKNSt3__14hashIjEE"
    },
    {
     "referenced_type" : "_ZTIj"
    }
   ],
   "return_type" : "_ZTIm",
   "source_file" : "external/libcxx/include/utility"
  },
  {
   "function_name" : "std::__1::hash<long>::operator()",
   "linker_set_key" : "_ZNKSt3__14hashIlEclEl",
   "parameters" :
   [
    {
     "is_this_ptr" : true,
     "referenced_type" : "_ZTIPKNSt3__14hashIlEE"
    },
    {
     "referenced_type" : "_ZTIl"
    }
   ],
   "return_type" : "_ZTIm",
   "source_file" : "external/libcxx/include/utility"
  },
  {
   "function_name" : "std::__1::hash<unsigned long>::operator()",
   "linker_set_key" : "_ZNKSt3__14hashImEclEm",
   "parameters" :
   [
    {
     "is_this_ptr" : true,
     "referenced_type" : "_ZTIPKNSt3__14hashImEE"
    },
    {
     "referenced_type" : "_ZTIm"
    }
   ],
   "return_type" : "_ZTIm",
   "source_file" : "external/libcxx/include/utility"
  },
  {
   "function_name" : "std::__1::hash<short>::operator()",
   "linker_set_key" : "_ZNKSt3__14hashIsEclEs",
   "parameters" :
   [
    {
     "is_this_ptr" : true,
     "referenced_type" : "_ZTIPKNSt3__14hashIsEE"
    },
    {
     "referenced_type" : "_ZTIs"
    }
   ],
   "return_type" : "_ZTIm",
   "source_file" : "external/libcxx/include/utility"
  },
  {
   "function_name" : "std::__1::hash<unsigned short>::operator()",
   "linker_set_key" : "_ZNKSt3__14hashItEclEt",
   "parameters" :
   [
    {
     "is_this_ptr" : true,
     "referenced_type" : "_ZTIPKNSt3__14hashItEE"
    },
    {
     "referenced_type" : "_ZTIt"
    }
   ],
   "return_type" : "_ZTIm",
   "source_file" : "external/libcxx/include/utility"
  },
  {
   "function_name" : "std::__1::hash<wchar_t>::operator()",
   "linker_set_key" : "_ZNKSt3__14hashIwEclEw",
   "parameters" :
   [
    {
     "is_this_ptr" : true,
     "referenced_type" : "_ZTIPKNSt3__14hashIwEE"
    },
    {
     "referenced_type" : "_ZTIw"
    }
   ],
   "return_type" : "_ZTIm",
   "source_file" : "external/libcxx/include/utility"
  },
  {
   "function_name" : "std::__1::__less<double, double>::operator()",
   "linker_set_key" : "_ZNKSt3__16__lessIddEclERKdS3_",
   "parameters" :
   [
    {
     "is_this_ptr" : true,
     "referenced_type" : "_ZTIPKNSt3__16__lessIddEE"
    },
    {
     "referenced_type" : "_ZTIRKd"
    },
    {
     "referenced_type" : "_ZTIRKd"
    }
   ],
   "return_type" : "_ZTIb",
   "source_file" : "external/libcxx/include/algorithm"
  },
  {
   "function_name" : "std::__1::__less<int, int>::operator()",
   "linker_set_key" : "_ZNKSt3__16__lessIiiEclERKiS3_",
   "parameters" :
   [
    {
     "is_this_ptr" : true,
     "referenced_type" : "_ZTIPKNSt3__16__lessIiiEE"
    },
    {
     "referenced_type" : "_ZTIRKi"
    },
    {
     "referenced_type" : "_ZTIRKi"
    }
   ],
   "return_type" : "_ZTIb",
   "source_file" : "external/libcxx/include/algorithm"
  },
  {
   "function_name" : "std::__1::__less<unsigned long, unsigned long>::operator()",
   "linker_set_key" : "_ZNKSt3__16__lessImmEclERKmS3_",
   "parameters" :
   [
    {
     "is_this_ptr" : true,
     "referenced_type" : "_ZTIPKNSt3__16__lessImmEE"
    },
    {
     "referenced_type" : "_ZTIRKm"
    },
    {
     "referenced_type" : "_ZTIRKm"
    }
   ],
   "return_type" : "_ZTIb",
   "source_file" : "external/libcxx/include/algorithm"
  },
  {
   "function_name" : "std::__1::__less<short, short>::operator()",
   "linker_set_key" : "_ZNKSt3__16__lessIssEclERKsS3_",
   "parameters" :
   [
    {
     "is_this_ptr" : true,
     "referenced_type" : "_ZTIPKNSt3__16__lessIssEE"
    },
    {
     "referenced_type" : "_ZTIRKs"
    },
    {
     "referenced_type" : "_ZTIRKs"
    }
   ],
   "return_type" : "_ZTIb",
   "source_file" : "external/libcxx/include/algorithm"
  },
  {
   "function_name" : "std::__1::chrono::time_point<std::__1::chrono::steady_clock, std::__1::chrono::duration<long long, std::__1::ratio<1, 1000000000>>>::time_since_epoch",
   "linker_set_key" : "_ZNKSt3__16chrono10time_pointINS0_12steady_clockENS0_8durationIxNS_5ratioILl1ELl1000000000EEEEEE16time_since_epochEv",
   "parameters" :
   [
    {
     "is_this_ptr" : true,
     "referenced_type" : "_ZTIPKNSt3__16chrono10time_pointINS0_12steady_clockENS0_8durationIxNS_5ratioILl1ELl1000000000EEEEEEE"
    }
   ],
   "return_type" : "_ZTINSt3__16chrono8durationIxNS_5ratioILl1ELl1000000000EEEEE",
   "source_file" : "external/libcxx/include/chrono"
  },
  {
   "function_name" : "std::__1::chrono::time_point<std::__1::chrono::system_clock, std::__1::chrono::duration<long long, std::__1::ratio<1, 1000000000>>>::time_since_epoch",
   "linker_set_key" : "_ZNKSt3__16chrono10time_pointINS0_12system_clockENS0_8durationIxNS_5ratioILl1ELl1000000000EEEEEE16time_since_epochEv",
   "parameters" :
   [
    {
     "is_this_ptr" : true,
     "referenced_type" : "_ZTIPKNSt3__16chrono10time_pointINS0_12system_clockENS0_8durationIxNS_5ratioILl1ELl1000000000EEEEEEE"
    }
   ],
   "return_type" : "_ZTINSt3__16chrono8durationIxNS_5ratioILl1ELl1000000000EEEEE",
   "source_file" : "external/libcxx/include/chrono"
  },
  {
   "function_name" : "std::__1::chrono::time_point<std::__1::__fs::filesystem::_FilesystemClock, std::__1::chrono::duration<__int128, std::__1::ratio<1, 1000000000>>>::time_since_epoch",
   "linker_set_key" : "_ZNKSt3__16chrono10time_pointINS_4__fs10filesystem16_FilesystemClockENS0_8durationInNS_5ratioILl1ELl1000000000EEEEEE16time_since_epochEv",
   "parameters" :
   [
    {
     "is_this_ptr" : true,
     "referenced_type" : "_ZTIPKNSt3__16chrono10time_pointINS_4__fs10filesystem16_FilesystemClockENS0_8durationInNS_5ratioILl1ELl1000000000EEEEEEE"
    }
   ],
   "return_type" : "_ZTINSt3__16chrono8durationInNS_5ratioILl1ELl1000000000EEEEE",
   "source_file" : "external/libcxx/include/chrono"
  },
  {
   "function_name" : "std::__1::chrono::__duration_lt<std::__1::chrono::duration<long long, std::__1::ratio<1, 1000000000>>, std::__1::chrono::duration<long long, std::__1::ratio<1, 1000>>>::operator()",
   "linker_set_key" : "_ZNKSt3__16chrono13__duration_ltINS0_8durationIxNS_5ratioILl1ELl1000000000EEEEENS2_IxNS3_ILl1ELl1000EEEEEEclERKS5_RKS7_",
   "parameters" :
   [
    {
     "is_this_ptr" : true,
     "referenced_type" : "_ZTIPKNSt3__16chrono13__duration_ltINS0_8durationIxNS_5ratioILl1ELl1000000000EEEEENS2_IxNS3_ILl1ELl1000EEEEEEE"
    },
    {
     "referenced_type" : "_ZTIRKNSt3__16chrono8durationIxNS_5ratioILl1ELl1000000000EEEEE"
    },
    {
     "referenced_type" : "_ZTIRKNSt3__16chrono8durationIxNS_5ratioILl1ELl1000EEEEE"
    }
   ],
   "return_type" : "_ZTIb",
   "source_file" : "external/libcxx/include/chrono"
  },
  {
   "function_name" : "std::__1::chrono::__duration_lt<std::__1::chrono::duration<long long, std::__1::ratio<1, 1000>>, std::__1::chrono::duration<long double, std::__1::ratio<1, 1>>>::operator()",
   "linker_set_key" : "_ZNKSt3__16chrono13__duration_ltINS0_8durationIxNS_5ratioILl1ELl1000EEEEENS2_IeNS3_ILl1ELl1EEEEEEclERKS5_RKS7_",
   "parameters" :
   [
    {
     "is_this_ptr" : true,
     "referenced_type" : "_ZTIPKNSt3__16chrono13__duration_ltINS0_8durationIxNS_5ratioILl1ELl1000EEEEENS2_IeNS3_ILl1ELl1EEEEEEE"
    },
    {
     "referenced_type" : "_ZTIRKNSt3__16chrono8durationIxNS_5ratioILl1ELl1000EEEEE"
    },
    {
     "referenced_type" : "_ZTIRKNSt3__16chrono8durationIeNS_5ratioILl1ELl1EEEEE"
    }
   ],
   "return_type" : "_ZTIb",
   "source_file" : "external/libcxx/include/chrono"
  },
  {
   "function_name" : "std::__1::chrono::__duration_lt<std::__1::chrono::duration<long long, std::__1::ratio<1, 1000>>, std::__1::chrono::duration<long long, std::__1::ratio<1, 1000>>>::operator()",
   "linker_set_key" : "_ZNKSt3__16chrono13__duration_ltINS0_8durationIxNS_5ratioILl1ELl1000EEEEES5_EclERKS5_S8_",
   "parameters" :
   [
    {
     "is_this_ptr" : true,
     "referenced_type" : "_ZTIPKNSt3__16chrono13__duration_ltINS0_8durationIxNS_5ratioILl1ELl1000EEEEES5_EE"
    },
    {
     "referenced_type" : "_ZTIRKNSt3__16chrono8durationIxNS_5ratioILl1ELl1000EEEEE"
    },
    {
     "referenced_type" : "_ZTIRKNSt3__16chrono8durationIxNS_5ratioILl1ELl1000EEEEE"
    }
   ],
   "return_type" : "_ZTIb",
   "source_file" : "external/libcxx/include/chrono"
  },
  {
   "function_name" : "std::__1::chrono::__duration_cast<std::__1::chrono::duration<long double, std::__1::ratio<1, 1>>, std::__1::chrono::duration<long double, std::__1::ratio<1, 1000>>, std::__1::ratio<1000, 1>, false, true>::operator()",
   "linker_set_key" : "_ZNKSt3__16chrono15__duration_castINS0_8durationIeNS_5ratioILl1ELl1EEEEENS2_IeNS3_ILl1ELl1000EEEEENS3_ILl1000ELl1EEELb0ELb1EEclERKS5_",
   "parameters" :
   [
    {
     "is_this_ptr" : true,
     "referenced_type" : "_ZTIPKNSt3__16chrono15__duration_castINS0_8durationIeNS_5ratioILl1ELl1EEEEENS2_IeNS3_ILl1ELl1000EEEEENS3_ILl1000ELl1EEELb0ELb1EEE"
    },
    {
     "referenced_type" : "_ZTIRKNSt3__16chrono8durationIeNS_5ratioILl1ELl1EEEEE"
    }
   ],
   "return_type" : "_ZTINSt3__16chrono8durationIeNS_5ratioILl1ELl1000EEEEE",
   "source_file" : "external/libcxx/include/chrono"
  },
  {
   "function_name" : "std::__1::chrono::__duration_cast<std::__1::chrono::duration<__int128, std::__1::ratio<1, 1000000000>>, std::__1::chrono::duration<__int128, std::__1::ratio<1, 1>>, std::__1::ratio<1, 1000000000>, true, false>::operator()",
   "linker_set_key" : "_ZNKSt3__16chrono15__duration_castINS0_8durationInNS_5ratioILl1ELl1000000000EEEEENS2_InNS3_ILl1ELl1EEEEES4_Lb1ELb0EEclERKS5_",
   "parameters" :
   [
    {
     "is_this_ptr" : true,
     "referenced_type" : "_ZTIPKNSt3__16chrono15__duration_castINS0_8durationInNS_5ratioILl1ELl1000000000EEEEENS2_InNS3_ILl1ELl1EEEEES4_Lb1ELb0EEE"
    },
    {
     "referenced_type" : "_ZTIRKNSt3__16chrono8durationInNS_5ratioILl1ELl1000000000EEEEE"
    }
   ],
   "return_type" : "_ZTINSt3__16chrono8durationInNS_5ratioILl1ELl1EEEEE",
   "source_file" : "external/libcxx/include/chrono"
  },
  {
   "function_name" : "std::__1::chrono::__duration_cast<std::__1::chrono::duration<__int128, std::__1::ratio<1, 1>>, std::__1::chrono::duration<__int128, std::__1::ratio<1, 1000000000>>, std::__1::ratio<1000000000, 1>, false, true>::operator()",
   "linker_set_key" : "_ZNKSt3__16chrono15__duration_castINS0_8durationInNS_5ratioILl1ELl1EEEEENS2_InNS3_ILl1ELl1000000000EEEEENS3_ILl1000000000ELl1EEELb0ELb1EEclERKS5_",
   "parameters" :
   [
    {
     "is_this_ptr" : true,
     "referenced_type" : "_ZTIPKNSt3__16chrono15__duration_castINS0_8durationInNS_5ratioILl1ELl1EEEEENS2_InNS3_ILl1ELl1000000000EEEEENS3_ILl1000000000ELl1EEELb0ELb1EEE"
    },
    {
     "referenced_type" : "_ZTIRKNSt3__16chrono8durationInNS_5ratioILl1ELl1EEEEE"
    }
   ],
   "return_type" : "_ZTINSt3__16chrono8durationInNS_5ratioILl1ELl1000000000EEEEE",
   "source_file" : "external/libcxx/include/chrono"
  },
  {
   "function_name" : "std::__1::chrono::__duration_cast<std::__1::chrono::duration<long long, std::__1::ratio<1, 1000000000>>, std::__1::chrono::duration<long double, std::__1::ratio<1, 1>>, std::__1::ratio<1, 1000000000>, true, false>::operator()",
   "linker_set_key" : "_ZNKSt3__16chrono15__duration_castINS0_8durationIxNS_5ratioILl1ELl1000000000EEEEENS2_IeNS3_ILl1ELl1EEEEES4_Lb1ELb0EEclERKS5_",
   "parameters" :
   [
    {
     "is_this_ptr" : true,
     "referenced_type" : "_ZTIPKNSt3__16chrono15__duration_castINS0_8durationIxNS_5ratioILl1ELl1000000000EEEEENS2_IeNS3_ILl1ELl1EEEEES4_Lb1ELb0EEE"
    },
    {
     "referenced_type" : "_ZTIRKNSt3__16chrono8durationIxNS_5ratioILl1ELl1000000000EEEEE"
    }
   ],
   "return_type" : "_ZTINSt3__16chrono8durationIeNS_5ratioILl1ELl1EEEEE",
   "source_file" : "external/libcxx/include/chrono"
  },
  {
   "function_name" : "std::__1::chrono::__duration_cast<std::__1::chrono::duration<long long, std::__1::ratio<1, 1000000000>>, std::__1::chrono::duration<long double, std::__1::ratio<1, 1000000000>>, std::__1::ratio<1, 1>, true, true>::operator()",
   "linker_set_key" : "_ZNKSt3__16chrono15__duration_castINS0_8durationIxNS_5ratioILl1ELl1000000000EEEEENS2_IeS4_EENS3_ILl1ELl1EEELb1ELb1EEclERKS5_",
   "parameters" :
   [
    {
     "is_this_ptr" : true,
     "referenced_type" : "_ZTIPKNSt3__16chrono15__duration_castINS0_8durationIxNS_5ratioILl1ELl1000000000EEEEENS2_IeS4_EENS3_ILl1ELl1EEELb1ELb1EEE"
    },
    {
     "referenced_type" : "_ZTIRKNSt3__16chrono8durationIxNS_5ratioILl1ELl1000000000EEEEE"
    }
   ],
   "return_type" : "_ZTINSt3__16chrono8durationIeNS_5ratioILl1ELl1000000000EEEEE",
   "source_file" : "external/libcxx/include/chrono"
  },
  {
   "function_name" : "std::__1::chrono::__duration_cast<std::__1::chrono::duration<long long, std::__1::ratio<1, 1000000000>>, std::__1::chrono::duration<long long, std::__1::ratio<1, 1>>, std::__1::ratio<1, 1000000000>, true, false>::operator()",
   "linker_set_key" : "_ZNKSt3__16chrono15__duration_castINS0_8durationIxNS_5ratioILl1ELl1000000000EEEEENS2_IxNS3_ILl1ELl1EEEEES4_Lb1ELb0EEclERKS5_",
   "parameters" :
   [
    {
     "is_this_ptr" : true,
     "referenced_type" : "_ZTIPKNSt3__16chrono15__duration_castINS0_8durationIxNS_5ratioILl1ELl1000000000EEEEENS2_IxNS3_ILl1ELl1EEEEES4_Lb1ELb0EEE"
    },
    {
     "referenced_type" : "_ZTIRKNSt3__16chrono8durationIxNS_5ratioILl1ELl1000000000EEEEE"
    }
   ],
   "return_type" : "_ZTINSt3__16chrono8durationIxNS_5ratioILl1ELl1EEEEE",
   "source_file" : "external/libcxx/include/chrono"
  },
  {
   "function_name" : "std::__1::chrono::__duration_cast<std::__1::chrono::duration<long long, std::__1::ratio<1, 1000>>, std::__1::chrono::duration<long double, std::__1::ratio<1, 1000>>, std::__1::ratio<1, 1>, true, true>::operator()",
   "linker_set_key" : "_ZNKSt3__16chrono15__duration_castINS0_8durationIxNS_5ratioILl1ELl1000EEEEENS2_IeS4_EENS3_ILl1ELl1EEELb1ELb1EEclERKS5_",
   "parameters" :
   [
    {
     "is_this_ptr" : true,
     "referenced_type" : "_ZTIPKNSt3__16chrono15__duration_castINS0_8durationIxNS_5ratioILl1ELl1000EEEEENS2_IeS4_EENS3_ILl1ELl1EEELb1ELb1EEE"
    },
    {
     "referenced_type" : "_ZTIRKNSt3__16chrono8durationIxNS_5ratioILl1ELl1000EEEEE"
    }
   ],
   "return_type" : "_ZTINSt3__16chrono8durationIeNS_5ratioILl1ELl1000EEEEE",
   "source_file" : "external/libcxx/include/chrono"
  },
  {
   "function_name" : "std::__1::chrono::__duration_cast<std::__1::chrono::duration<long long, std::__1::ratio<1, 1000>>, std::__1::chrono::duration<long long, std::__1::ratio<1, 1000000000>>, std::__1::ratio<1000000, 1>, false, true>::operator()",
   "linker_set_key" : "_ZNKSt3__16chrono15__duration_castINS0_8durationIxNS_5ratioILl1ELl1000EEEEENS2_IxNS3_ILl1ELl1000000000EEEEENS3_ILl1000000ELl1EEELb0ELb1EEclERKS5_",
   "parameters" :
   [
    {
     "is_this_ptr" : true,
     "referenced_type" : "_ZTIPKNSt3__16chrono15__duration_castINS0_8durationIxNS_5ratioILl1ELl1000EEEEENS2_IxNS3_ILl1ELl1000000000EEEEENS3_ILl1000000ELl1EEELb0ELb1EEE"
    },
    {
     "referenced_type" : "_ZTIRKNSt3__16chrono8durationIxNS_5ratioILl1ELl1000EEEEE"
    }
   ],
   "return_type" : "_ZTINSt3__16chrono8durationIxNS_5ratioILl1ELl1000000000EEEEE",
   "source_file" : "external/libcxx/include/chrono"
  },
  {
   "function_name" : "std::__1::chrono::__duration_cast<std::__1::chrono::duration<long long, std::__1::ratio<1, 1>>, std::__1::chrono::duration<long long, std::__1::ratio<1, 1000000000>>, std::__1::ratio<1000000000, 1>, false, true>::operator()",
   "linker_set_key" : "_ZNKSt3__16chrono15__duration_castINS0_8durationIxNS_5ratioILl1ELl1EEEEENS2_IxNS3_ILl1ELl1000000000EEEEENS3_ILl1000000000ELl1EEELb0ELb1EEclERKS5_",
   "parameters" :
   [
    {
     "is_this_ptr" : true,
     "referenced_type" : "_ZTIPKNSt3__16chrono15__duration_castINS0_8durationIxNS_5ratioILl1ELl1EEEEENS2_IxNS3_ILl1ELl1000000000EEEEENS3_ILl1000000000ELl1EEELb0ELb1EEE"
    },
    {
     "referenced_type" : "_ZTIRKNSt3__16chrono8durationIxNS_5ratioILl1ELl1EEEEE"
    }
   ],
   "return_type" : "_ZTINSt3__16chrono8durationIxNS_5ratioILl1ELl1000000000EEEEE",
   "source_file" : "external/libcxx/include/chrono"
  },
  {
   "function_name" : "std::__1::chrono::duration<long double, std::__1::ratio<1, 1000000000>>::count",
   "linker_set_key" : "_ZNKSt3__16chrono8durationIeNS_5ratioILl1ELl1000000000EEEE5countEv",
   "parameters" :
   [
    {
     "is_this_ptr" : true,
     "referenced_type" : "_ZTIPKNSt3__16chrono8durationIeNS_5ratioILl1ELl1000000000EEEEE"
    }
   ],
   "return_type" : "_ZTIe",
   "source_file" : "external/libcxx/include/chrono"
  },
  {
   "function_name" : "std::__1::chrono::duration<long double, std::__1::ratio<1, 1000>>::count",
   "linker_set_key" : "_ZNKSt3__16chrono8durationIeNS_5ratioILl1ELl1000EEEE5countEv",
   "parameters" :
   [
    {
     "is_this_ptr" : true,
     "referenced_type" : "_ZTIPKNSt3__16chrono8durationIeNS_5ratioILl1ELl1000EEEEE"
    }
   ],
   "return_type" : "_ZTIe",
   "source_file" : "external/libcxx/include/chrono"
  },
  {
   "function_name" : "std::__1::chrono::duration<long double, std::__1::ratio<1, 1>>::count",
   "linker_set_key" : "_ZNKSt3__16chrono8durationIeNS_5ratioILl1ELl1EEEE5countEv",
   "parameters" :
   [
    {
     "is_this_ptr" : true,
     "referenced_type" : "_ZTIPKNSt3__16chrono8durationIeNS_5ratioILl1ELl1EEEEE"
    }
   ],
   "return_type" : "_ZTIe",
   "source_file" : "external/libcxx/include/chrono"
  },
  {
   "function_name" : "std::__1::chrono::duration<__int128, std::__1::ratio<1, 1000000000>>::count",
   "linker_set_key" : "_ZNKSt3__16chrono8durationInNS_5ratioILl1ELl1000000000EEEE5countEv",
   "parameters" :
   [
    {
     "is_this_ptr" : true,
     "referenced_type" : "_ZTIPKNSt3__16chrono8durationInNS_5ratioILl1ELl1000000000EEEEE"
    }
   ],
   "return_type" : "_ZTIn",
   "source_file" : "external/libcxx/include/chrono"
  },
  {
   "function_name" : "std::__1::chrono::duration<__int128, std::__1::ratio<1, 1>>::count",
   "linker_set_key" : "_ZNKSt3__16chrono8durationInNS_5ratioILl1ELl1EEEE5countEv",
   "parameters" :
   [
    {
     "is_this_ptr" : true,
     "referenced_type" : "_ZTIPKNSt3__16chrono8durationInNS_5ratioILl1ELl1EEEEE"
    }
   ],
   "return_type" : "_ZTIn",
   "source_file" : "external/libcxx/include/chrono"
  },
  {
   "function_name" : "std::__1::chrono::duration<long long, std::__1::ratio<1, 1000000000>>::count",
   "linker_set_key" : "_ZNKSt3__16chrono8durationIxNS_5ratioILl1ELl1000000000EEEE5countEv",
   "parameters" :
   [
    {
     "is_this_ptr" : true,
     "referenced_type" : "_ZTIPKNSt3__16chrono8durationIxNS_5ratioILl1ELl1000000000EEEEE"
    }
   ],
   "return_type" : "_ZTIx",
   "source_file" : "external/libcxx/include/chrono"
  },
  {
   "function_name" : "std::__1::chrono::duration<long long, std::__1::ratio<1, 1000>>::count",
   "linker_set_key" : "_ZNKSt3__16chrono8durationIxNS_5ratioILl1ELl1000EEEE5countEv",
   "parameters" :
   [
    {
     "is_this_ptr" : true,
     "referenced_type" : "_ZTIPKNSt3__16chrono8durationIxNS_5ratioILl1ELl1000EEEEE"
    }
   ],
   "return_type" : "_ZTIx",
   "source_file" : "external/libcxx/include/chrono"
  },
  {
   "function_name" : "std::__1::chrono::duration<long long, std::__1::ratio<1, 1>>::count",
   "linker_set_key" : "_ZNKSt3__16chrono8durationIxNS_5ratioILl1ELl1EEEE5countEv",
   "parameters" :
   [
    {
     "is_this_ptr" : true,
     "referenced_type" : "_ZTIPKNSt3__16chrono8durationIxNS_5ratioILl1ELl1EEEEE"
    }
   ],
   "return_type" : "_ZTIx",
   "source_file" : "external/libcxx/include/chrono"
  },
  {
   "function_name" : "std::__1::thread::get_id",
   "linker_set_key" : "_ZNKSt3__16thread6get_idEv",
   "parameters" :
   [
    {
     "is_this_ptr" : true,
     "referenced_type" : "_ZTIPKNSt3__16threadE"
    }
   ],
   "return_type" : "_ZTINSt3__111__thread_idE",
   "source_file" : "external/libcxx/include/thread"
  },
  {
   "function_name" : "std::__1::thread::joinable",
   "linker_set_key" : "_ZNKSt3__16thread8joinableEv",
   "parameters" :
   [
    {
     "is_this_ptr" : true,
     "referenced_type" : "_ZTIPKNSt3__16threadE"
    }
   ],
   "return_type" : "_ZTIb",
   "source_file" : "external/libcxx/include/thread"
  },
  {
   "access" : "private",
   "function_name" : "std::__1::vector<gemmlowp::Task *, std::__1::allocator<gemmlowp::Task *>>::__make_iter",
   "linker_set_key" : "_ZNKSt3__16vectorIPN8gemmlowp4TaskENS_9allocatorIS3_EEE11__make_iterEPKS3_",
   "parameters" :
   [
    {
     "is_this_ptr" : true,
     "referenced_type" : "_ZTIPKNSt3__16vectorIPN8gemmlowp4TaskENS_9allocatorIS3_EEEE"
    },
    {
     "referenced_type" : "_ZTIPKPN8gemmlowp4TaskE"
    }
   ],
   "return_type" : "_ZTINSt3__111__wrap_iterIPKPN8gemmlowp4TaskEEE",
   "source_file" : "external/libcxx/include/vector"
  },
  {
   "function_name" : "std::__1::vector<gemmlowp::Task *, std::__1::allocator<gemmlowp::Task *>>::end",
   "linker_set_key" : "_ZNKSt3__16vectorIPN8gemmlowp4TaskENS_9allocatorIS3_EEE3endEv",
   "parameters" :
   [
    {
     "is_this_ptr" : true,
     "referenced_type" : "_ZTIPKNSt3__16vectorIPN8gemmlowp4TaskENS_9allocatorIS3_EEEE"
    }
   ],
   "return_type" : "_ZTINSt3__111__wrap_iterIPKPN8gemmlowp4TaskEEE",
   "source_file" : "external/libcxx/include/vector"
  },
  {
   "function_name" : "std::__1::vector<gemmlowp::Task *, std::__1::allocator<gemmlowp::Task *>>::size",
   "linker_set_key" : "_ZNKSt3__16vectorIPN8gemmlowp4TaskENS_9allocatorIS3_EEE4sizeEv",
   "parameters" :
   [
    {
     "is_this_ptr" : true,
     "referenced_type" : "_ZTIPKNSt3__16vectorIPN8gemmlowp4TaskENS_9allocatorIS3_EEEE"
    }
   ],
   "return_type" : "_ZTIm",
   "source_file" : "external/libcxx/include/vector"
  },
  {
   "function_name" : "std::__1::vector<gemmlowp::Task *, std::__1::allocator<gemmlowp::Task *>>::begin",
   "linker_set_key" : "_ZNKSt3__16vectorIPN8gemmlowp4TaskENS_9allocatorIS3_EEE5beginEv",
   "parameters" :
   [
    {
     "is_this_ptr" : true,
     "referenced_type" : "_ZTIPKNSt3__16vectorIPN8gemmlowp4TaskENS_9allocatorIS3_EEEE"
    }
   ],
   "return_type" : "_ZTINSt3__111__wrap_iterIPKPN8gemmlowp4TaskEEE",
   "source_file" : "external/libcxx/include/vector"
  },
  {
   "function_name" : "std::__1::vector<gemmlowp::Task *, std::__1::allocator<gemmlowp::Task *>>::operator[]",
   "linker_set_key" : "_ZNKSt3__16vectorIPN8gemmlowp4TaskENS_9allocatorIS3_EEEixEm",
   "parameters" :
   [
    {
     "is_this_ptr" : true,
     "referenced_type" : "_ZTIPKNSt3__16vectorIPN8gemmlowp4TaskENS_9allocatorIS3_EEEE"
    },
    {
     "referenced_type" : "_ZTIm"
    }
   ],
   "return_type" : "_ZTIRKPN8gemmlowp4TaskE",
   "source_file" : "external/libcxx/include/vector"
  },
  {
   "access" : "private",
   "function_name" : "std::__1::vector<gemmlowp::Worker *, std::__1::allocator<gemmlowp::Worker *>>::__recommend",
   "linker_set_key" : "_ZNKSt3__16vectorIPN8gemmlowp6WorkerENS_9allocatorIS3_EEE11__recommendEm",
   "parameters" :
   [
    {
     "is_this_ptr" : true,
     "referenced_type" : "_ZTIPKNSt3__16vectorIPN8gemmlowp6WorkerENS_9allocatorIS3_EEEE"
    },
    {
     "referenced_type" : "_ZTIm"
    }
   ],
   "return_type" : "_ZTIm",
   "source_file" : "external/libcxx/include/vector"
  },
  {
   "access" : "private",
   "function_name" : "std::__1::vector<gemmlowp::Worker *, std::__1::allocator<gemmlowp::Worker *>>::__annotate_new",
   "linker_set_key" : "_ZNKSt3__16vectorIPN8gemmlowp6WorkerENS_9allocatorIS3_EEE14__annotate_newEm",
   "parameters" :
   [
    {
     "is_this_ptr" : true,
     "referenced_type" : "_ZTIPKNSt3__16vectorIPN8gemmlowp6WorkerENS_9allocatorIS3_EEEE"
    },
    {
     "referenced_type" : "_ZTIm"
    }
   ],
   "return_type" : "_ZTIv",
   "source_file" : "external/libcxx/include/vector"
  },
  {
   "access" : "private",
   "function_name" : "std::__1::vector<gemmlowp::Worker *, std::__1::allocator<gemmlowp::Worker *>>::__annotate_delete",
   "linker_set_key" : "_ZNKSt3__16vectorIPN8gemmlowp6WorkerENS_9allocatorIS3_EEE17__annotate_deleteEv",
   "parameters" :
   [
    {
     "is_this_ptr" : true,
     "referenced_type" : "_ZTIPKNSt3__16vectorIPN8gemmlowp6WorkerENS_9allocatorIS3_EEEE"
    }
   ],
   "return_type" : "_ZTIv",
   "source_file" : "external/libcxx/include/vector"
  },
  {
   "access" : "private",
   "function_name" : "std::__1::vector<gemmlowp::Worker *, std::__1::allocator<gemmlowp::Worker *>>::__annotate_contiguous_container",
   "linker_set_key" : "_ZNKSt3__16vectorIPN8gemmlowp6WorkerENS_9allocatorIS3_EEE31__annotate_contiguous_containerEPKvS8_S8_S8_",
   "parameters" :
   [
    {
     "is_this_ptr" : true,
     "referenced_type" : "_ZTIPKNSt3__16vectorIPN8gemmlowp6WorkerENS_9allocatorIS3_EEEE"
    },
    {
     "referenced_type" : "_ZTIPKv"
    },
    {
     "referenced_type" : "_ZTIPKv"
    },
    {
     "referenced_type" : "_ZTIPKv"
    },
    {
     "referenced_type" : "_ZTIPKv"
    }
   ],
   "return_type" : "_ZTIv",
   "source_file" : "external/libcxx/include/vector"
  },
  {
   "function_name" : "std::__1::vector<gemmlowp::Worker *, std::__1::allocator<gemmlowp::Worker *>>::data",
   "linker_set_key" : "_ZNKSt3__16vectorIPN8gemmlowp6WorkerENS_9allocatorIS3_EEE4dataEv",
   "parameters" :
   [
    {
     "is_this_ptr" : true,
     "referenced_type" : "_ZTIPKNSt3__16vectorIPN8gemmlowp6WorkerENS_9allocatorIS3_EEEE"
    }
   ],
   "return_type" : "_ZTIPKPN8gemmlowp6WorkerE",
   "source_file" : "external/libcxx/include/vector"
  },
  {
   "function_name" : "std::__1::vector<gemmlowp::Worker *, std::__1::allocator<gemmlowp::Worker *>>::size",
   "linker_set_key" : "_ZNKSt3__16vectorIPN8gemmlowp6WorkerENS_9allocatorIS3_EEE4sizeEv",
   "parameters" :
   [
    {
     "is_this_ptr" : true,
     "referenced_type" : "_ZTIPKNSt3__16vectorIPN8gemmlowp6WorkerENS_9allocatorIS3_EEEE"
    }
   ],
   "return_type" : "_ZTIm",
   "source_file" : "external/libcxx/include/vector"
  },
  {
   "function_name" : "std::__1::vector<gemmlowp::Worker *, std::__1::allocator<gemmlowp::Worker *>>::capacity",
   "linker_set_key" : "_ZNKSt3__16vectorIPN8gemmlowp6WorkerENS_9allocatorIS3_EEE8capacityEv",
   "parameters" :
   [
    {
     "is_this_ptr" : true,
     "referenced_type" : "_ZTIPKNSt3__16vectorIPN8gemmlowp6WorkerENS_9allocatorIS3_EEEE"
    }
   ],
   "return_type" : "_ZTIm",
   "source_file" : "external/libcxx/include/vector"
  },
  {
   "function_name" : "std::__1::vector<gemmlowp::Worker *, std::__1::allocator<gemmlowp::Worker *>>::max_size",
   "linker_set_key" : "_ZNKSt3__16vectorIPN8gemmlowp6WorkerENS_9allocatorIS3_EEE8max_sizeEv",
   "parameters" :
   [
    {
     "is_this_ptr" : true,
     "referenced_type" : "_ZTIPKNSt3__16vectorIPN8gemmlowp6WorkerENS_9allocatorIS3_EEEE"
    }
   ],
   "return_type" : "_ZTIm",
   "source_file" : "external/libcxx/include/vector"
  },
  {
   "function_name" : "std::__1::allocator<char32_t>::max_size",
   "linker_set_key" : "_ZNKSt3__19allocatorIDiE8max_sizeEv",
   "parameters" :
   [
    {
     "is_this_ptr" : true,
     "referenced_type" : "_ZTIPKNSt3__19allocatorIDiEE"
    }
   ],
   "return_type" : "_ZTIm",
   "source_file" : "external/libcxx/include/memory"
  },
  {
   "function_name" : "std::__1::allocator<char16_t>::max_size",
   "linker_set_key" : "_ZNKSt3__19allocatorIDsE8max_sizeEv",
   "parameters" :
   [
    {
     "is_this_ptr" : true,
     "referenced_type" : "_ZTIPKNSt3__19allocatorIDsEE"
    }
   ],
   "return_type" : "_ZTIm",
   "source_file" : "external/libcxx/include/memory"
  },
  {
   "function_name" : "std::__1::allocator<gemmlowp::Worker *>::max_size",
   "linker_set_key" : "_ZNKSt3__19allocatorIPN8gemmlowp6WorkerEE8max_sizeEv",
   "parameters" :
   [
    {
     "is_this_ptr" : true,
     "referenced_type" : "_ZTIPKNSt3__19allocatorIPN8gemmlowp6WorkerEEE"
    }
   ],
   "return_type" : "_ZTIm",
   "source_file" : "external/libcxx/include/memory"
  },
  {
   "function_name" : "std::__1::allocator<char>::max_size",
   "linker_set_key" : "_ZNKSt3__19allocatorIcE8max_sizeEv",
   "parameters" :
   [
    {
     "is_this_ptr" : true,
     "referenced_type" : "_ZTIPKNSt3__19allocatorIcEE"
    }
   ],
   "return_type" : "_ZTIm",
   "source_file" : "external/libcxx/include/memory"
  },
  {
   "function_name" : "std::__1::allocator<wchar_t>::max_size",
   "linker_set_key" : "_ZNKSt3__19allocatorIwE8max_sizeEv",
   "parameters" :
   [
    {
     "is_this_ptr" : true,
     "referenced_type" : "_ZTIPKNSt3__19allocatorIwEE"
    }
   ],
   "return_type" : "_ZTIm",
   "source_file" : "external/libcxx/include/memory"
  },
  {
   "function_name" : "std::type_info::name",
   "linker_set_key" : "_ZNKSt9type_info4nameEv",
   "parameters" :
   [
    {
     "is_this_ptr" : true,
     "referenced_type" : "_ZTIPKSt9type_info"
    }
   ],
   "return_type" : "_ZTIPKc",
   "source_file" : "external/libcxx/include/typeinfo"
  },
  {
   "function_name" : "std::type_info::before",
   "linker_set_key" : "_ZNKSt9type_info6beforeERKS_",
   "parameters" :
   [
    {
     "is_this_ptr" : true,
     "referenced_type" : "_ZTIPKSt9type_info"
    },
    {
     "referenced_type" : "_ZTIRKSt9type_info"
    }
   ],
   "return_type" : "_ZTIb",
   "source_file" : "external/libcxx/include/typeinfo"
  },
  {
   "function_name" : "std::type_info::hash_code",
   "linker_set_key" : "_ZNKSt9type_info9hash_codeEv",
   "parameters" :
   [
    {
     "is_this_ptr" : true,
     "referenced_type" : "_ZTIPKSt9type_info"
    }
   ],
   "return_type" : "_ZTIm",
   "source_file" : "external/libcxx/include/typeinfo"
  },
  {
   "function_name" : "std::type_info::operator==",
   "linker_set_key" : "_ZNKSt9type_infoeqERKS_",
   "parameters" :
   [
    {
     "is_this_ptr" : true,
     "referenced_type" : "_ZTIPKSt9type_info"
    },
    {
     "referenced_type" : "_ZTIRKSt9type_info"
    }
   ],
   "return_type" : "_ZTIb",
   "source_file" : "external/libcxx/include/typeinfo"
  },
  {
   "function_name" : "std::type_info::operator!=",
   "linker_set_key" : "_ZNKSt9type_infoneERKS_",
   "parameters" :
   [
    {
     "is_this_ptr" : true,
     "referenced_type" : "_ZTIPKSt9type_info"
    },
    {
     "referenced_type" : "_ZTIRKSt9type_info"
    }
   ],
   "return_type" : "_ZTIb",
   "source_file" : "external/libcxx/include/typeinfo"
  },
  {
   "function_name" : "std::range_error::range_error",
   "linker_set_key" : "_ZNSt11range_errorC1EPKc",
   "parameters" :
   [
    {
     "is_this_ptr" : true,
     "referenced_type" : "_ZTIPSt11range_error"
    },
    {
     "referenced_type" : "_ZTIPKc"
    }
   ],
   "return_type" : "_ZTIv",
   "source_file" : "external/libcxx/include/stdexcept"
  },
  {
   "function_name" : "std::range_error::range_error",
   "linker_set_key" : "_ZNSt11range_errorC1ERKNSt3__112basic_stringIcNS0_11char_traitsIcEENS0_9allocatorIcEEEE",
   "parameters" :
   [
    {
     "is_this_ptr" : true,
     "referenced_type" : "_ZTIPSt11range_error"
    },
    {
     "referenced_type" : "_ZTIRKNSt3__112basic_stringIcNS_11char_traitsIcEENS_9allocatorIcEEEE"
    }
   ],
   "return_type" : "_ZTIv",
   "source_file" : "external/libcxx/include/stdexcept"
  },
  {
   "function_name" : "std::range_error::range_error",
   "linker_set_key" : "_ZNSt11range_errorC2EPKc",
   "parameters" :
   [
    {
     "is_this_ptr" : true,
     "referenced_type" : "_ZTIPSt11range_error"
    },
    {
     "referenced_type" : "_ZTIPKc"
    }
   ],
   "return_type" : "_ZTIv",
   "source_file" : "external/libcxx/include/stdexcept"
  },
  {
   "function_name" : "std::range_error::range_error",
   "linker_set_key" : "_ZNSt11range_errorC2ERKNSt3__112basic_stringIcNS0_11char_traitsIcEENS0_9allocatorIcEEEE",
   "parameters" :
   [
    {
     "is_this_ptr" : true,
     "referenced_type" : "_ZTIPSt11range_error"
    },
    {
     "referenced_type" : "_ZTIRKNSt3__112basic_stringIcNS_11char_traitsIcEENS_9allocatorIcEEEE"
    }
   ],
   "return_type" : "_ZTIv",
   "source_file" : "external/libcxx/include/stdexcept"
  },
  {
   "function_name" : "std::domain_error::domain_error",
   "linker_set_key" : "_ZNSt12domain_errorC1EPKc",
   "parameters" :
   [
    {
     "is_this_ptr" : true,
     "referenced_type" : "_ZTIPSt12domain_error"
    },
    {
     "referenced_type" : "_ZTIPKc"
    }
   ],
   "return_type" : "_ZTIv",
   "source_file" : "external/libcxx/include/stdexcept"
  },
  {
   "function_name" : "std::domain_error::domain_error",
   "linker_set_key" : "_ZNSt12domain_errorC1ERKNSt3__112basic_stringIcNS0_11char_traitsIcEENS0_9allocatorIcEEEE",
   "parameters" :
   [
    {
     "is_this_ptr" : true,
     "referenced_type" : "_ZTIPSt12domain_error"
    },
    {
     "referenced_type" : "_ZTIRKNSt3__112basic_stringIcNS_11char_traitsIcEENS_9allocatorIcEEEE"
    }
   ],
   "return_type" : "_ZTIv",
   "source_file" : "external/libcxx/include/stdexcept"
  },
  {
   "function_name" : "std::domain_error::domain_error",
   "linker_set_key" : "_ZNSt12domain_errorC2EPKc",
   "parameters" :
   [
    {
     "is_this_ptr" : true,
     "referenced_type" : "_ZTIPSt12domain_error"
    },
    {
     "referenced_type" : "_ZTIPKc"
    }
   ],
   "return_type" : "_ZTIv",
   "source_file" : "external/libcxx/include/stdexcept"
  },
  {
   "function_name" : "std::domain_error::domain_error",
   "linker_set_key" : "_ZNSt12domain_errorC2ERKNSt3__112basic_stringIcNS0_11char_traitsIcEENS0_9allocatorIcEEEE",
   "parameters" :
   [
    {
     "is_this_ptr" : true,
     "referenced_type" : "_ZTIPSt12domain_error"
    },
    {
     "referenced_type" : "_ZTIRKNSt3__112basic_stringIcNS_11char_traitsIcEENS_9allocatorIcEEEE"
    }
   ],
   "return_type" : "_ZTIv",
   "source_file" : "external/libcxx/include/stdexcept"
  },
  {
   "function_name" : "std::length_error::length_error",
   "linker_set_key" : "_ZNSt12length_errorC1EPKc",
   "parameters" :
   [
    {
     "is_this_ptr" : true,
     "referenced_type" : "_ZTIPSt12length_error"
    },
    {
     "referenced_type" : "_ZTIPKc"
    }
   ],
   "return_type" : "_ZTIv",
   "source_file" : "external/libcxx/include/stdexcept"
  },
  {
   "function_name" : "std::length_error::length_error",
   "linker_set_key" : "_ZNSt12length_errorC1ERKNSt3__112basic_stringIcNS0_11char_traitsIcEENS0_9allocatorIcEEEE",
   "parameters" :
   [
    {
     "is_this_ptr" : true,
     "referenced_type" : "_ZTIPSt12length_error"
    },
    {
     "referenced_type" : "_ZTIRKNSt3__112basic_stringIcNS_11char_traitsIcEENS_9allocatorIcEEEE"
    }
   ],
   "return_type" : "_ZTIv",
   "source_file" : "external/libcxx/include/stdexcept"
  },
  {
   "function_name" : "std::length_error::length_error",
   "linker_set_key" : "_ZNSt12length_errorC2EPKc",
   "parameters" :
   [
    {
     "is_this_ptr" : true,
     "referenced_type" : "_ZTIPSt12length_error"
    },
    {
     "referenced_type" : "_ZTIPKc"
    }
   ],
   "return_type" : "_ZTIv",
   "source_file" : "external/libcxx/include/stdexcept"
  },
  {
   "function_name" : "std::length_error::length_error",
   "linker_set_key" : "_ZNSt12length_errorC2ERKNSt3__112basic_stringIcNS0_11char_traitsIcEENS0_9allocatorIcEEEE",
   "parameters" :
   [
    {
     "is_this_ptr" : true,
     "referenced_type" : "_ZTIPSt12length_error"
    },
    {
     "referenced_type" : "_ZTIRKNSt3__112basic_stringIcNS_11char_traitsIcEENS_9allocatorIcEEEE"
    }
   ],
   "return_type" : "_ZTIv",
   "source_file" : "external/libcxx/include/stdexcept"
  },
  {
   "function_name" : "std::out_of_range::out_of_range",
   "linker_set_key" : "_ZNSt12out_of_rangeC1EPKc",
   "parameters" :
   [
    {
     "is_this_ptr" : true,
     "referenced_type" : "_ZTIPSt12out_of_range"
    },
    {
     "referenced_type" : "_ZTIPKc"
    }
   ],
   "return_type" : "_ZTIv",
   "source_file" : "external/libcxx/include/stdexcept"
  },
  {
   "function_name" : "std::out_of_range::out_of_range",
   "linker_set_key" : "_ZNSt12out_of_rangeC1ERKNSt3__112basic_stringIcNS0_11char_traitsIcEENS0_9allocatorIcEEEE",
   "parameters" :
   [
    {
     "is_this_ptr" : true,
     "referenced_type" : "_ZTIPSt12out_of_range"
    },
    {
     "referenced_type" : "_ZTIRKNSt3__112basic_stringIcNS_11char_traitsIcEENS_9allocatorIcEEEE"
    }
   ],
   "return_type" : "_ZTIv",
   "source_file" : "external/libcxx/include/stdexcept"
  },
  {
   "function_name" : "std::out_of_range::out_of_range",
   "linker_set_key" : "_ZNSt12out_of_rangeC2EPKc",
   "parameters" :
   [
    {
     "is_this_ptr" : true,
     "referenced_type" : "_ZTIPSt12out_of_range"
    },
    {
     "referenced_type" : "_ZTIPKc"
    }
   ],
   "return_type" : "_ZTIv",
   "source_file" : "external/libcxx/include/stdexcept"
  },
  {
   "function_name" : "std::out_of_range::out_of_range",
   "linker_set_key" : "_ZNSt12out_of_rangeC2ERKNSt3__112basic_stringIcNS0_11char_traitsIcEENS0_9allocatorIcEEEE",
   "parameters" :
   [
    {
     "is_this_ptr" : true,
     "referenced_type" : "_ZTIPSt12out_of_range"
    },
    {
     "referenced_type" : "_ZTIRKNSt3__112basic_stringIcNS_11char_traitsIcEENS_9allocatorIcEEEE"
    }
   ],
   "return_type" : "_ZTIv",
   "source_file" : "external/libcxx/include/stdexcept"
  },
  {
   "function_name" : "std::bad_exception::bad_exception",
   "linker_set_key" : "_ZNSt13bad_exceptionC1Ev",
   "parameters" :
   [
    {
     "is_this_ptr" : true,
     "referenced_type" : "_ZTIPSt13bad_exception"
    }
   ],
   "return_type" : "_ZTIv",
   "source_file" : "external/libcxx/include/exception"
  },
  {
   "function_name" : "std::bad_exception::bad_exception",
   "linker_set_key" : "_ZNSt13bad_exceptionC2Ev",
   "parameters" :
   [
    {
     "is_this_ptr" : true,
     "referenced_type" : "_ZTIPSt13bad_exception"
    }
   ],
   "return_type" : "_ZTIv",
   "source_file" : "external/libcxx/include/exception"
  },
  {
   "function_name" : "std::exception_ptr::exception_ptr",
   "linker_set_key" : "_ZNSt13exception_ptrC1EDn",
   "parameters" :
   [
    {
     "is_this_ptr" : true,
     "referenced_type" : "_ZTIPSt13exception_ptr"
    },
    {
     "referenced_type" : "_ZTIDn"
    }
   ],
   "return_type" : "_ZTIv",
   "source_file" : "external/libcxx/include/exception"
  },
  {
   "function_name" : "std::exception_ptr::exception_ptr",
   "linker_set_key" : "_ZNSt13exception_ptrC1Ev",
   "parameters" :
   [
    {
     "is_this_ptr" : true,
     "referenced_type" : "_ZTIPSt13exception_ptr"
    }
   ],
   "return_type" : "_ZTIv",
   "source_file" : "external/libcxx/include/exception"
  },
  {
   "function_name" : "std::exception_ptr::exception_ptr",
   "linker_set_key" : "_ZNSt13exception_ptrC2EDn",
   "parameters" :
   [
    {
     "is_this_ptr" : true,
     "referenced_type" : "_ZTIPSt13exception_ptr"
    },
    {
     "referenced_type" : "_ZTIDn"
    }
   ],
   "return_type" : "_ZTIv",
   "source_file" : "external/libcxx/include/exception"
  },
  {
   "function_name" : "std::exception_ptr::exception_ptr",
   "linker_set_key" : "_ZNSt13exception_ptrC2Ev",
   "parameters" :
   [
    {
     "is_this_ptr" : true,
     "referenced_type" : "_ZTIPSt13exception_ptr"
    }
   ],
   "return_type" : "_ZTIv",
   "source_file" : "external/libcxx/include/exception"
  },
  {
   "function_name" : "std::overflow_error::overflow_error",
   "linker_set_key" : "_ZNSt14overflow_errorC1EPKc",
   "parameters" :
   [
    {
     "is_this_ptr" : true,
     "referenced_type" : "_ZTIPSt14overflow_error"
    },
    {
     "referenced_type" : "_ZTIPKc"
    }
   ],
   "return_type" : "_ZTIv",
   "source_file" : "external/libcxx/include/stdexcept"
  },
  {
   "function_name" : "std::overflow_error::overflow_error",
   "linker_set_key" : "_ZNSt14overflow_errorC1ERKNSt3__112basic_stringIcNS0_11char_traitsIcEENS0_9allocatorIcEEEE",
   "parameters" :
   [
    {
     "is_this_ptr" : true,
     "referenced_type" : "_ZTIPSt14overflow_error"
    },
    {
     "referenced_type" : "_ZTIRKNSt3__112basic_stringIcNS_11char_traitsIcEENS_9allocatorIcEEEE"
    }
   ],
   "return_type" : "_ZTIv",
   "source_file" : "external/libcxx/include/stdexcept"
  },
  {
   "function_name" : "std::overflow_error::overflow_error",
   "linker_set_key" : "_ZNSt14overflow_errorC2EPKc",
   "parameters" :
   [
    {
     "is_this_ptr" : true,
     "referenced_type" : "_ZTIPSt14overflow_error"
    },
    {
     "referenced_type" : "_ZTIPKc"
    }
   ],
   "return_type" : "_ZTIv",
   "source_file" : "external/libcxx/include/stdexcept"
  },
  {
   "function_name" : "std::overflow_error::overflow_error",
   "linker_set_key" : "_ZNSt14overflow_errorC2ERKNSt3__112basic_stringIcNS0_11char_traitsIcEENS0_9allocatorIcEEEE",
   "parameters" :
   [
    {
     "is_this_ptr" : true,
     "referenced_type" : "_ZTIPSt14overflow_error"
    },
    {
     "referenced_type" : "_ZTIRKNSt3__112basic_stringIcNS_11char_traitsIcEENS_9allocatorIcEEEE"
    }
   ],
   "return_type" : "_ZTIv",
   "source_file" : "external/libcxx/include/stdexcept"
  },
  {
   "function_name" : "std::underflow_error::underflow_error",
   "linker_set_key" : "_ZNSt15underflow_errorC1EPKc",
   "parameters" :
   [
    {
     "is_this_ptr" : true,
     "referenced_type" : "_ZTIPSt15underflow_error"
    },
    {
     "referenced_type" : "_ZTIPKc"
    }
   ],
   "return_type" : "_ZTIv",
   "source_file" : "external/libcxx/include/stdexcept"
  },
  {
   "function_name" : "std::underflow_error::underflow_error",
   "linker_set_key" : "_ZNSt15underflow_errorC1ERKNSt3__112basic_stringIcNS0_11char_traitsIcEENS0_9allocatorIcEEEE",
   "parameters" :
   [
    {
     "is_this_ptr" : true,
     "referenced_type" : "_ZTIPSt15underflow_error"
    },
    {
     "referenced_type" : "_ZTIRKNSt3__112basic_stringIcNS_11char_traitsIcEENS_9allocatorIcEEEE"
    }
   ],
   "return_type" : "_ZTIv",
   "source_file" : "external/libcxx/include/stdexcept"
  },
  {
   "function_name" : "std::underflow_error::underflow_error",
   "linker_set_key" : "_ZNSt15underflow_errorC2EPKc",
   "parameters" :
   [
    {
     "is_this_ptr" : true,
     "referenced_type" : "_ZTIPSt15underflow_error"
    },
    {
     "referenced_type" : "_ZTIPKc"
    }
   ],
   "return_type" : "_ZTIv",
   "source_file" : "external/libcxx/include/stdexcept"
  },
  {
   "function_name" : "std::underflow_error::underflow_error",
   "linker_set_key" : "_ZNSt15underflow_errorC2ERKNSt3__112basic_stringIcNS0_11char_traitsIcEENS0_9allocatorIcEEEE",
   "parameters" :
   [
    {
     "is_this_ptr" : true,
     "referenced_type" : "_ZTIPSt15underflow_error"
    },
    {
     "referenced_type" : "_ZTIRKNSt3__112basic_stringIcNS_11char_traitsIcEENS_9allocatorIcEEEE"
    }
   ],
   "return_type" : "_ZTIv",
   "source_file" : "external/libcxx/include/stdexcept"
  },
  {
   "function_name" : "std::invalid_argument::invalid_argument",
   "linker_set_key" : "_ZNSt16invalid_argumentC1EPKc",
   "parameters" :
   [
    {
     "is_this_ptr" : true,
     "referenced_type" : "_ZTIPSt16invalid_argument"
    },
    {
     "referenced_type" : "_ZTIPKc"
    }
   ],
   "return_type" : "_ZTIv",
   "source_file" : "external/libcxx/include/stdexcept"
  },
  {
   "function_name" : "std::invalid_argument::invalid_argument",
   "linker_set_key" : "_ZNSt16invalid_argumentC1ERKNSt3__112basic_stringIcNS0_11char_traitsIcEENS0_9allocatorIcEEEE",
   "parameters" :
   [
    {
     "is_this_ptr" : true,
     "referenced_type" : "_ZTIPSt16invalid_argument"
    },
    {
     "referenced_type" : "_ZTIRKNSt3__112basic_stringIcNS_11char_traitsIcEENS_9allocatorIcEEEE"
    }
   ],
   "return_type" : "_ZTIv",
   "source_file" : "external/libcxx/include/stdexcept"
  },
  {
   "function_name" : "std::invalid_argument::invalid_argument",
   "linker_set_key" : "_ZNSt16invalid_argumentC2EPKc",
   "parameters" :
   [
    {
     "is_this_ptr" : true,
     "referenced_type" : "_ZTIPSt16invalid_argument"
    },
    {
     "referenced_type" : "_ZTIPKc"
    }
   ],
   "return_type" : "_ZTIv",
   "source_file" : "external/libcxx/include/stdexcept"
  },
  {
   "function_name" : "std::invalid_argument::invalid_argument",
   "linker_set_key" : "_ZNSt16invalid_argumentC2ERKNSt3__112basic_stringIcNS0_11char_traitsIcEENS0_9allocatorIcEEEE",
   "parameters" :
   [
    {
     "is_this_ptr" : true,
     "referenced_type" : "_ZTIPSt16invalid_argument"
    },
    {
     "referenced_type" : "_ZTIRKNSt3__112basic_stringIcNS_11char_traitsIcEENS_9allocatorIcEEEE"
    }
   ],
   "return_type" : "_ZTIv",
   "source_file" : "external/libcxx/include/stdexcept"
  },
  {
   "function_name" : "std::__1::__function::__policy::__create_empty",
   "linker_set_key" : "_ZNSt3__110__function8__policy14__create_emptyEv",
   "return_type" : "_ZTIPKNSt3__110__function8__policyE",
   "source_file" : "external/libcxx/include/functional"
  },
  {
   "function_name" : "std::__1::__loadword",
   "linker_set_key" : "_ZNSt3__110__loadwordIjEET_PKv",
   "parameters" :
   [
    {
     "referenced_type" : "_ZTIPKv"
    }
   ],
   "return_type" : "_ZTIj",
   "source_file" : "external/libcxx/include/utility",
   "template_args" : [ "_ZTIj" ]
  },
  {
   "function_name" : "std::__1::__loadword",
   "linker_set_key" : "_ZNSt3__110__loadwordImEET_PKv",
   "parameters" :
   [
    {
     "referenced_type" : "_ZTIPKv"
    }
   ],
   "return_type" : "_ZTIm",
   "source_file" : "external/libcxx/include/utility",
   "template_args" : [ "_ZTIm" ]
  },
  {
   "function_name" : "std::__1::__popcount",
   "linker_set_key" : "_ZNSt3__110__popcountEj",
   "parameters" :
   [
    {
     "referenced_type" : "_ZTIj"
    }
   ],
   "return_type" : "_ZTIi",
   "source_file" : "external/libcxx/include/bit"
  },
  {
   "function_name" : "std::__1::__popcount",
   "linker_set_key" : "_ZNSt3__110__popcountEm",
   "parameters" :
   [
    {
     "referenced_type" : "_ZTIm"
    }
   ],
   "return_type" : "_ZTIi",
   "source_file" : "external/libcxx/include/bit"
  },
  {
   "function_name" : "std::__1::__popcount",
   "linker_set_key" : "_ZNSt3__110__popcountEy",
   "parameters" :
   [
    {
     "referenced_type" : "_ZTIy"
    }
   ],
   "return_type" : "_ZTIi",
   "source_file" : "external/libcxx/include/bit"
  },
  {
   "function_name" : "std::__1::error_code::clear",
   "linker_set_key" : "_ZNSt3__110error_code5clearEv",
   "parameters" :
   [
    {
     "is_this_ptr" : true,
     "referenced_type" : "_ZTIPNSt3__110error_codeE"
    }
   ],
   "return_type" : "_ZTIv",
   "source_file" : "external/libcxx/include/system_error"
  },
  {
   "function_name" : "std::__1::error_code::assign",
   "linker_set_key" : "_ZNSt3__110error_code6assignEiRKNS_14error_categoryE",
   "parameters" :
   [
    {
     "is_this_ptr" : true,
     "referenced_type" : "_ZTIPNSt3__110error_codeE"
    },
    {
     "referenced_type" : "_ZTIi"
    },
    {
     "referenced_type" : "_ZTIRKNSt3__114error_categoryE"
    }
   ],
   "return_type" : "_ZTIv",
   "source_file" : "external/libcxx/include/system_error"
  },
  {
   "function_name" : "std::__1::error_code::error_code",
   "linker_set_key" : "_ZNSt3__110error_codeC1EiRKNS_14error_categoryE",
   "parameters" :
   [
    {
     "is_this_ptr" : true,
     "referenced_type" : "_ZTIPNSt3__110error_codeE"
    },
    {
     "referenced_type" : "_ZTIi"
    },
    {
     "referenced_type" : "_ZTIRKNSt3__114error_categoryE"
    }
   ],
   "return_type" : "_ZTIv",
   "source_file" : "external/libcxx/include/system_error"
  },
  {
   "function_name" : "std::__1::error_code::error_code",
   "linker_set_key" : "_ZNSt3__110error_codeC1Ev",
   "parameters" :
   [
    {
     "is_this_ptr" : true,
     "referenced_type" : "_ZTIPNSt3__110error_codeE"
    }
   ],
   "return_type" : "_ZTIv",
   "source_file" : "external/libcxx/include/system_error"
  },
  {
   "function_name" : "std::__1::error_code::error_code",
   "linker_set_key" : "_ZNSt3__110error_codeC2EiRKNS_14error_categoryE",
   "parameters" :
   [
    {
     "is_this_ptr" : true,
     "referenced_type" : "_ZTIPNSt3__110error_codeE"
    },
    {
     "referenced_type" : "_ZTIi"
    },
    {
     "referenced_type" : "_ZTIRKNSt3__114error_categoryE"
    }
   ],
   "return_type" : "_ZTIv",
   "source_file" : "external/libcxx/include/system_error"
  },
  {
   "function_name" : "std::__1::error_code::error_code",
   "linker_set_key" : "_ZNSt3__110error_codeC2Ev",
   "parameters" :
   [
    {
     "is_this_ptr" : true,
     "referenced_type" : "_ZTIPNSt3__110error_codeE"
    }
   ],
   "return_type" : "_ZTIv",
   "source_file" : "external/libcxx/include/system_error"
  },
  {
   "function_name" : "std::__1::in_place_t::in_place_t",
   "linker_set_key" : "_ZNSt3__110in_place_tC1Ev",
   "parameters" :
   [
    {
     "is_this_ptr" : true,
     "referenced_type" : "_ZTIPNSt3__110in_place_tE"
    }
   ],
   "return_type" : "_ZTIv",
   "source_file" : "external/libcxx/include/utility"
  },
  {
   "function_name" : "std::__1::in_place_t::in_place_t",
   "linker_set_key" : "_ZNSt3__110in_place_tC2Ev",
   "parameters" :
   [
    {
     "is_this_ptr" : true,
     "referenced_type" : "_ZTIPNSt3__110in_place_tE"
    }
   ],
   "return_type" : "_ZTIv",
   "source_file" : "external/libcxx/include/utility"
  },
  {
   "function_name" : "std::__1::make_tuple",
   "linker_set_key" : "_ZNSt3__110make_tupleIJRN8gemmlowp40OutputStageQuantizeDownInt32ToUint8ScaleERNS1_32OutputStageSaturatingCastToUint8EEEENS_5tupleIJDpNS_18__unwrap_ref_decayIT_E4typeEEEEDpOS8_",
   "parameters" :
   [
    {
     "referenced_type" : "_ZTIRN8gemmlowp40OutputStageQuantizeDownInt32ToUint8ScaleE"
    },
    {
     "referenced_type" : "_ZTIRN8gemmlowp32OutputStageSaturatingCastToUint8E"
    }
   ],
   "return_type" : "_ZTINSt3__15tupleIJN8gemmlowp40OutputStageQuantizeDownInt32ToUint8ScaleENS1_32OutputStageSaturatingCastToUint8EEEE",
   "source_file" : "external/libcxx/include/tuple"
  },
  {
   "function_name" : "std::__1::unique_ptr<tflite::TfLiteInternalBackendContext, std::__1::default_delete<tflite::TfLiteInternalBackendContext>>::get_deleter",
   "linker_set_key" : "_ZNSt3__110unique_ptrIN6tflite28TfLiteInternalBackendContextENS_14default_deleteIS2_EEE11get_deleterEv",
   "parameters" :
   [
    {
     "is_this_ptr" : true,
     "referenced_type" : "_ZTIPNSt3__110unique_ptrIN6tflite28TfLiteInternalBackendContextENS_14default_deleteIS2_EEEE"
    }
   ],
   "return_type" : "_ZTIRNSt3__114default_deleteIN6tflite28TfLiteInternalBackendContextEEE",
   "source_file" : "external/libcxx/include/memory"
  },
  {
   "function_name" : "std::__1::unique_ptr<tflite::TfLiteInternalBackendContext, std::__1::default_delete<tflite::TfLiteInternalBackendContext>>::reset",
   "linker_set_key" : "_ZNSt3__110unique_ptrIN6tflite28TfLiteInternalBackendContextENS_14default_deleteIS2_EEE5resetEPS2_",
   "parameters" :
   [
    {
     "is_this_ptr" : true,
     "referenced_type" : "_ZTIPNSt3__110unique_ptrIN6tflite28TfLiteInternalBackendContextENS_14default_deleteIS2_EEEE"
    },
    {
     "default_arg" : true,
     "referenced_type" : "_ZTIPN6tflite28TfLiteInternalBackendContextE"
    }
   ],
   "return_type" : "_ZTIv",
   "source_file" : "external/libcxx/include/memory"
  },
  {
   "function_name" : "std::__1::unique_ptr<tflite::TfLiteInternalBackendContext, std::__1::default_delete<tflite::TfLiteInternalBackendContext>>::release",
   "linker_set_key" : "_ZNSt3__110unique_ptrIN6tflite28TfLiteInternalBackendContextENS_14default_deleteIS2_EEE7releaseEv",
   "parameters" :
   [
    {
     "is_this_ptr" : true,
     "referenced_type" : "_ZTIPNSt3__110unique_ptrIN6tflite28TfLiteInternalBackendContextENS_14default_deleteIS2_EEEE"
    }
   ],
   "return_type" : "_ZTIPN6tflite28TfLiteInternalBackendContextE",
   "source_file" : "external/libcxx/include/memory"
  },
  {
   "function_name" : "std::__1::unique_ptr<tflite::TfLiteInternalBackendContext, std::__1::default_delete<tflite::TfLiteInternalBackendContext>>::~unique_ptr",
   "linker_set_key" : "_ZNSt3__110unique_ptrIN6tflite28TfLiteInternalBackendContextENS_14default_deleteIS2_EEED1Ev",
   "parameters" :
   [
    {
     "is_this_ptr" : true,
     "referenced_type" : "_ZTIPNSt3__110unique_ptrIN6tflite28TfLiteInternalBackendContextENS_14default_deleteIS2_EEEE"
    }
   ],
   "return_type" : "_ZTIv",
   "source_file" : "external/libcxx/include/memory"
  },
  {
   "function_name" : "std::__1::unique_ptr<tflite::TfLiteInternalBackendContext, std::__1::default_delete<tflite::TfLiteInternalBackendContext>>::~unique_ptr",
   "linker_set_key" : "_ZNSt3__110unique_ptrIN6tflite28TfLiteInternalBackendContextENS_14default_deleteIS2_EEED2Ev",
   "parameters" :
   [
    {
     "is_this_ptr" : true,
     "referenced_type" : "_ZTIPNSt3__110unique_ptrIN6tflite28TfLiteInternalBackendContextENS_14default_deleteIS2_EEEE"
    }
   ],
   "return_type" : "_ZTIv",
   "source_file" : "external/libcxx/include/memory"
  },
  {
   "function_name" : "std::__1::unique_ptr<tflite::TfLiteInternalBackendContext, std::__1::default_delete<tflite::TfLiteInternalBackendContext>>::operator=",
   "linker_set_key" : "_ZNSt3__110unique_ptrIN6tflite28TfLiteInternalBackendContextENS_14default_deleteIS2_EEEaSEOS5_",
   "parameters" :
   [
    {
     "is_this_ptr" : true,
     "referenced_type" : "_ZTIPNSt3__110unique_ptrIN6tflite28TfLiteInternalBackendContextENS_14default_deleteIS2_EEEE"
    },
    {
     "referenced_type" : "_ZTIONSt3__110unique_ptrIN6tflite28TfLiteInternalBackendContextENS_14default_deleteIS2_EEEE"
    }
   ],
   "return_type" : "_ZTIRNSt3__110unique_ptrIN6tflite28TfLiteInternalBackendContextENS_14default_deleteIS2_EEEE",
   "source_file" : "external/libcxx/include/memory"
  },
  {
   "access" : "private",
   "function_name" : "std::__1::__thread_id::__thread_id",
   "linker_set_key" : "_ZNSt3__111__thread_idC1El",
   "parameters" :
   [
    {
     "is_this_ptr" : true,
     "referenced_type" : "_ZTIPNSt3__111__thread_idE"
    },
    {
     "referenced_type" : "_ZTIl"
    }
   ],
   "return_type" : "_ZTIv",
   "source_file" : "external/libcxx/include/thread"
  },
  {
   "function_name" : "std::__1::__thread_id::__thread_id",
   "linker_set_key" : "_ZNSt3__111__thread_idC1Ev",
   "parameters" :
   [
    {
     "is_this_ptr" : true,
     "referenced_type" : "_ZTIPNSt3__111__thread_idE"
    }
   ],
   "return_type" : "_ZTIv",
   "source_file" : "external/libcxx/include/thread"
  },
  {
   "access" : "private",
   "function_name" : "std::__1::__thread_id::__thread_id",
   "linker_set_key" : "_ZNSt3__111__thread_idC2El",
   "parameters" :
   [
    {
     "is_this_ptr" : true,
     "referenced_type" : "_ZTIPNSt3__111__thread_idE"
    },
    {
     "referenced_type" : "_ZTIl"
    }
   ],
   "return_type" : "_ZTIv",
   "source_file" : "external/libcxx/include/thread"
  },
  {
   "function_name" : "std::__1::__thread_id::__thread_id",
   "linker_set_key" : "_ZNSt3__111__thread_idC2Ev",
   "parameters" :
   [
    {
     "is_this_ptr" : true,
     "referenced_type" : "_ZTIPNSt3__111__thread_idE"
    }
   ],
   "return_type" : "_ZTIv",
   "source_file" : "external/libcxx/include/thread"
  },
  {
   "access" : "private",
   "function_name" : "std::__1::__wrap_iter<gemmlowp::Task *const *>::__wrap_iter",
   "linker_set_key" : "_ZNSt3__111__wrap_iterIPKPN8gemmlowp4TaskEEC1ES5_",
   "parameters" :
   [
    {
     "is_this_ptr" : true,
     "referenced_type" : "_ZTIPNSt3__111__wrap_iterIPKPN8gemmlowp4TaskEEE"
    },
    {
     "referenced_type" : "_ZTIPKPN8gemmlowp4TaskE"
    }
   ],
   "return_type" : "_ZTIv",
   "source_file" : "external/libcxx/include/iterator"
  },
  {
   "access" : "private",
   "function_name" : "std::__1::__wrap_iter<gemmlowp::Task *const *>::__wrap_iter",
   "linker_set_key" : "_ZNSt3__111__wrap_iterIPKPN8gemmlowp4TaskEEC2ES5_",
   "parameters" :
   [
    {
     "is_this_ptr" : true,
     "referenced_type" : "_ZTIPNSt3__111__wrap_iterIPKPN8gemmlowp4TaskEEE"
    },
    {
     "referenced_type" : "_ZTIPKPN8gemmlowp4TaskE"
    }
   ],
   "return_type" : "_ZTIv",
   "source_file" : "external/libcxx/include/iterator"
  },
  {
   "function_name" : "std::__1::__wrap_iter<gemmlowp::Task *const *>::operator++",
   "linker_set_key" : "_ZNSt3__111__wrap_iterIPKPN8gemmlowp4TaskEEppEv",
   "parameters" :
   [
    {
     "is_this_ptr" : true,
     "referenced_type" : "_ZTIPNSt3__111__wrap_iterIPKPN8gemmlowp4TaskEEE"
    }
   ],
   "return_type" : "_ZTIRNSt3__111__wrap_iterIPKPN8gemmlowp4TaskEEE",
   "source_file" : "external/libcxx/include/iterator"
  },
  {
   "access" : "private",
   "function_name" : "std::__1::__wrap_iter<gemmlowp::Worker **>::__wrap_iter",
   "linker_set_key" : "_ZNSt3__111__wrap_iterIPPN8gemmlowp6WorkerEEC1ES4_",
   "parameters" :
   [
    {
     "is_this_ptr" : true,
     "referenced_type" : "_ZTIPNSt3__111__wrap_iterIPPN8gemmlowp6WorkerEEE"
    },
    {
     "referenced_type" : "_ZTIPPN8gemmlowp6WorkerE"
    }
   ],
   "return_type" : "_ZTIv",
   "source_file" : "external/libcxx/include/iterator"
  },
  {
   "access" : "private",
   "function_name" : "std::__1::__wrap_iter<gemmlowp::Worker **>::__wrap_iter",
   "linker_set_key" : "_ZNSt3__111__wrap_iterIPPN8gemmlowp6WorkerEEC2ES4_",
   "parameters" :
   [
    {
     "is_this_ptr" : true,
     "referenced_type" : "_ZTIPNSt3__111__wrap_iterIPPN8gemmlowp6WorkerEEE"
    },
    {
     "referenced_type" : "_ZTIPPN8gemmlowp6WorkerE"
    }
   ],
   "return_type" : "_ZTIv",
   "source_file" : "external/libcxx/include/iterator"
  },
  {
   "function_name" : "std::__1::__wrap_iter<gemmlowp::Worker **>::operator++",
   "linker_set_key" : "_ZNSt3__111__wrap_iterIPPN8gemmlowp6WorkerEEppEv",
   "parameters" :
   [
    {
     "is_this_ptr" : true,
     "referenced_type" : "_ZTIPNSt3__111__wrap_iterIPPN8gemmlowp6WorkerEEE"
    }
   ],
   "return_type" : "_ZTIRNSt3__111__wrap_iterIPPN8gemmlowp6WorkerEEE",
   "source_file" : "external/libcxx/include/iterator"
  },
  {
   "function_name" : "std::__1::atomic_flag::test_and_set",
   "linker_set_key" : "_ZNSt3__111atomic_flag12test_and_setENS_12memory_orderE",
   "parameters" :
   [
    {
     "is_this_ptr" : true,
     "referenced_type" : "_ZTIPNSt3__111atomic_flagE"
    },
    {
     "default_arg" : true,
     "referenced_type" : "_ZTINSt3__112memory_orderE"
    }
   ],
   "return_type" : "_ZTIb",
   "source_file" : "external/libcxx/include/atomic"
  },
  {
   "function_name" : "std::__1::atomic_flag::clear",
   "linker_set_key" : "_ZNSt3__111atomic_flag5clearENS_12memory_orderE",
   "parameters" :
   [
    {
     "is_this_ptr" : true,
     "referenced_type" : "_ZTIPNSt3__111atomic_flagE"
    },
    {
     "default_arg" : true,
     "referenced_type" : "_ZTINSt3__112memory_orderE"
    }
   ],
   "return_type" : "_ZTIv",
   "source_file" : "external/libcxx/include/atomic"
  },
  {
   "function_name" : "std::__1::atomic_flag::atomic_flag",
   "linker_set_key" : "_ZNSt3__111atomic_flagC1Eb",
   "parameters" :
   [
    {
     "is_this_ptr" : true,
     "referenced_type" : "_ZTIPNSt3__111atomic_flagE"
    },
    {
     "referenced_type" : "_ZTIb"
    }
   ],
   "return_type" : "_ZTIv",
   "source_file" : "external/libcxx/include/atomic"
  },
  {
   "function_name" : "std::__1::atomic_flag::atomic_flag",
   "linker_set_key" : "_ZNSt3__111atomic_flagC1Ev",
   "parameters" :
   [
    {
     "is_this_ptr" : true,
     "referenced_type" : "_ZTIPNSt3__111atomic_flagE"
    }
   ],
   "return_type" : "_ZTIv",
   "source_file" : "external/libcxx/include/atomic"
  },
  {
   "function_name" : "std::__1::atomic_flag::atomic_flag",
   "linker_set_key" : "_ZNSt3__111atomic_flagC2Eb",
   "parameters" :
   [
    {
     "is_this_ptr" : true,
     "referenced_type" : "_ZTIPNSt3__111atomic_flagE"
    },
    {
     "referenced_type" : "_ZTIb"
    }
   ],
   "return_type" : "_ZTIv",
   "source_file" : "external/libcxx/include/atomic"
  },
  {
   "function_name" : "std::__1::atomic_flag::atomic_flag",
   "linker_set_key" : "_ZNSt3__111atomic_flagC2Ev",
   "parameters" :
   [
    {
     "is_this_ptr" : true,
     "referenced_type" : "_ZTIPNSt3__111atomic_flagE"
    }
   ],
   "return_type" : "_ZTIv",
   "source_file" : "external/libcxx/include/atomic"
  },
  {
   "function_name" : "std::__1::char_traits<char32_t>::eq_int_type",
   "linker_set_key" : "_ZNSt3__111char_traitsIDiE11eq_int_typeEjj",
   "parameters" :
   [
    {
     "referenced_type" : "_ZTIj"
    },
    {
     "referenced_type" : "_ZTIj"
    }
   ],
   "return_type" : "_ZTIb",
   "source_file" : "external/libcxx/include/__string"
  },
  {
   "function_name" : "std::__1::char_traits<char32_t>::to_int_type",
   "linker_set_key" : "_ZNSt3__111char_traitsIDiE11to_int_typeEDi",
   "parameters" :
   [
    {
     "referenced_type" : "_ZTIDi"
    }
   ],
   "return_type" : "_ZTIj",
   "source_file" : "external/libcxx/include/__string"
  },
  {
   "function_name" : "std::__1::char_traits<char32_t>::to_char_type",
   "linker_set_key" : "_ZNSt3__111char_traitsIDiE12to_char_typeEj",
   "parameters" :
   [
    {
     "referenced_type" : "_ZTIj"
    }
   ],
   "return_type" : "_ZTIDi",
   "source_file" : "external/libcxx/include/__string"
  },
  {
   "function_name" : "std::__1::char_traits<char32_t>::eq",
   "linker_set_key" : "_ZNSt3__111char_traitsIDiE2eqEDiDi",
   "parameters" :
   [
    {
     "referenced_type" : "_ZTIDi"
    },
    {
     "referenced_type" : "_ZTIDi"
    }
   ],
   "return_type" : "_ZTIb",
   "source_file" : "external/libcxx/include/__string"
  },
  {
   "function_name" : "std::__1::char_traits<char32_t>::lt",
   "linker_set_key" : "_ZNSt3__111char_traitsIDiE2ltEDiDi",
   "parameters" :
   [
    {
     "referenced_type" : "_ZTIDi"
    },
    {
     "referenced_type" : "_ZTIDi"
    }
   ],
   "return_type" : "_ZTIb",
   "source_file" : "external/libcxx/include/__string"
  },
  {
   "function_name" : "std::__1::char_traits<char32_t>::eof",
   "linker_set_key" : "_ZNSt3__111char_traitsIDiE3eofEv",
   "return_type" : "_ZTIj",
   "source_file" : "external/libcxx/include/__string"
  },
  {
   "function_name" : "std::__1::char_traits<char32_t>::copy",
   "linker_set_key" : "_ZNSt3__111char_traitsIDiE4copyEPDiPKDim",
   "parameters" :
   [
    {
     "referenced_type" : "_ZTIPDi"
    },
    {
     "referenced_type" : "_ZTIPKDi"
    },
    {
     "referenced_type" : "_ZTIm"
    }
   ],
   "return_type" : "_ZTIPDi",
   "source_file" : "external/libcxx/include/__string"
  },
  {
   "function_name" : "std::__1::char_traits<char32_t>::find",
   "linker_set_key" : "_ZNSt3__111char_traitsIDiE4findEPKDimRS2_",
   "parameters" :
   [
    {
     "referenced_type" : "_ZTIPKDi"
    },
    {
     "referenced_type" : "_ZTIm"
    },
    {
     "referenced_type" : "_ZTIRKDi"
    }
   ],
   "return_type" : "_ZTIPKDi",
   "source_file" : "external/libcxx/include/__string"
  },
  {
   "function_name" : "std::__1::char_traits<char32_t>::move",
   "linker_set_key" : "_ZNSt3__111char_traitsIDiE4moveEPDiPKDim",
   "parameters" :
   [
    {
     "referenced_type" : "_ZTIPDi"
    },
    {
     "referenced_type" : "_ZTIPKDi"
    },
    {
     "referenced_type" : "_ZTIm"
    }
   ],
   "return_type" : "_ZTIPDi",
   "source_file" : "external/libcxx/include/__string"
  },
  {
   "function_name" : "std::__1::char_traits<char32_t>::assign",
   "linker_set_key" : "_ZNSt3__111char_traitsIDiE6assignEPDimDi",
   "parameters" :
   [
    {
     "referenced_type" : "_ZTIPDi"
    },
    {
     "referenced_type" : "_ZTIm"
    },
    {
     "referenced_type" : "_ZTIDi"
    }
   ],
   "return_type" : "_ZTIPDi",
   "source_file" : "external/libcxx/include/__string"
  },
  {
   "function_name" : "std::__1::char_traits<char32_t>::assign",
   "linker_set_key" : "_ZNSt3__111char_traitsIDiE6assignERDiRKDi",
   "parameters" :
   [
    {
     "referenced_type" : "_ZTIRDi"
    },
    {
     "referenced_type" : "_ZTIRKDi"
    }
   ],
   "return_type" : "_ZTIv",
   "source_file" : "external/libcxx/include/__string"
  },
  {
   "function_name" : "std::__1::char_traits<char32_t>::length",
   "linker_set_key" : "_ZNSt3__111char_traitsIDiE6lengthEPKDi",
   "parameters" :
   [
    {
     "referenced_type" : "_ZTIPKDi"
    }
   ],
   "return_type" : "_ZTIm",
   "source_file" : "external/libcxx/include/__string"
  },
  {
   "function_name" : "std::__1::char_traits<char32_t>::compare",
   "linker_set_key" : "_ZNSt3__111char_traitsIDiE7compareEPKDiS3_m",
   "parameters" :
   [
    {
     "referenced_type" : "_ZTIPKDi"
    },
    {
     "referenced_type" : "_ZTIPKDi"
    },
    {
     "referenced_type" : "_ZTIm"
    }
   ],
   "return_type" : "_ZTIi",
   "source_file" : "external/libcxx/include/__string"
  },
  {
   "function_name" : "std::__1::char_traits<char32_t>::not_eof",
   "linker_set_key" : "_ZNSt3__111char_traitsIDiE7not_eofEj",
   "parameters" :
   [
    {
     "referenced_type" : "_ZTIj"
    }
   ],
   "return_type" : "_ZTIj",
   "source_file" : "external/libcxx/include/__string"
  },
  {
   "function_name" : "std::__1::char_traits<char16_t>::eq_int_type",
   "linker_set_key" : "_ZNSt3__111char_traitsIDsE11eq_int_typeEtt",
   "parameters" :
   [
    {
     "referenced_type" : "_ZTIt"
    },
    {
     "referenced_type" : "_ZTIt"
    }
   ],
   "return_type" : "_ZTIb",
   "source_file" : "external/libcxx/include/__string"
  },
  {
   "function_name" : "std::__1::char_traits<char16_t>::to_int_type",
   "linker_set_key" : "_ZNSt3__111char_traitsIDsE11to_int_typeEDs",
   "parameters" :
   [
    {
     "referenced_type" : "_ZTIDs"
    }
   ],
   "return_type" : "_ZTIt",
   "source_file" : "external/libcxx/include/__string"
  },
  {
   "function_name" : "std::__1::char_traits<char16_t>::to_char_type",
   "linker_set_key" : "_ZNSt3__111char_traitsIDsE12to_char_typeEt",
   "parameters" :
   [
    {
     "referenced_type" : "_ZTIt"
    }
   ],
   "return_type" : "_ZTIDs",
   "source_file" : "external/libcxx/include/__string"
  },
  {
   "function_name" : "std::__1::char_traits<char16_t>::eq",
   "linker_set_key" : "_ZNSt3__111char_traitsIDsE2eqEDsDs",
   "parameters" :
   [
    {
     "referenced_type" : "_ZTIDs"
    },
    {
     "referenced_type" : "_ZTIDs"
    }
   ],
   "return_type" : "_ZTIb",
   "source_file" : "external/libcxx/include/__string"
  },
  {
   "function_name" : "std::__1::char_traits<char16_t>::lt",
   "linker_set_key" : "_ZNSt3__111char_traitsIDsE2ltEDsDs",
   "parameters" :
   [
    {
     "referenced_type" : "_ZTIDs"
    },
    {
     "referenced_type" : "_ZTIDs"
    }
   ],
   "return_type" : "_ZTIb",
   "source_file" : "external/libcxx/include/__string"
  },
  {
   "function_name" : "std::__1::char_traits<char16_t>::eof",
   "linker_set_key" : "_ZNSt3__111char_traitsIDsE3eofEv",
   "return_type" : "_ZTIt",
   "source_file" : "external/libcxx/include/__string"
  },
  {
   "function_name" : "std::__1::char_traits<char16_t>::copy",
   "linker_set_key" : "_ZNSt3__111char_traitsIDsE4copyEPDsPKDsm",
   "parameters" :
   [
    {
     "referenced_type" : "_ZTIPDs"
    },
    {
     "referenced_type" : "_ZTIPKDs"
    },
    {
     "referenced_type" : "_ZTIm"
    }
   ],
   "return_type" : "_ZTIPDs",
   "source_file" : "external/libcxx/include/__string"
  },
  {
   "function_name" : "std::__1::char_traits<char16_t>::find",
   "linker_set_key" : "_ZNSt3__111char_traitsIDsE4findEPKDsmRS2_",
   "parameters" :
   [
    {
     "referenced_type" : "_ZTIPKDs"
    },
    {
     "referenced_type" : "_ZTIm"
    },
    {
     "referenced_type" : "_ZTIRKDs"
    }
   ],
   "return_type" : "_ZTIPKDs",
   "source_file" : "external/libcxx/include/__string"
  },
  {
   "function_name" : "std::__1::char_traits<char16_t>::move",
   "linker_set_key" : "_ZNSt3__111char_traitsIDsE4moveEPDsPKDsm",
   "parameters" :
   [
    {
     "referenced_type" : "_ZTIPDs"
    },
    {
     "referenced_type" : "_ZTIPKDs"
    },
    {
     "referenced_type" : "_ZTIm"
    }
   ],
   "return_type" : "_ZTIPDs",
   "source_file" : "external/libcxx/include/__string"
  },
  {
   "function_name" : "std::__1::char_traits<char16_t>::assign",
   "linker_set_key" : "_ZNSt3__111char_traitsIDsE6assignEPDsmDs",
   "parameters" :
   [
    {
     "referenced_type" : "_ZTIPDs"
    },
    {
     "referenced_type" : "_ZTIm"
    },
    {
     "referenced_type" : "_ZTIDs"
    }
   ],
   "return_type" : "_ZTIPDs",
   "source_file" : "external/libcxx/include/__string"
  },
  {
   "function_name" : "std::__1::char_traits<char16_t>::assign",
   "linker_set_key" : "_ZNSt3__111char_traitsIDsE6assignERDsRKDs",
   "parameters" :
   [
    {
     "referenced_type" : "_ZTIRDs"
    },
    {
     "referenced_type" : "_ZTIRKDs"
    }
   ],
   "return_type" : "_ZTIv",
   "source_file" : "external/libcxx/include/__string"
  },
  {
   "function_name" : "std::__1::char_traits<char16_t>::length",
   "linker_set_key" : "_ZNSt3__111char_traitsIDsE6lengthEPKDs",
   "parameters" :
   [
    {
     "referenced_type" : "_ZTIPKDs"
    }
   ],
   "return_type" : "_ZTIm",
   "source_file" : "external/libcxx/include/__string"
  },
  {
   "function_name" : "std::__1::char_traits<char16_t>::compare",
   "linker_set_key" : "_ZNSt3__111char_traitsIDsE7compareEPKDsS3_m",
   "parameters" :
   [
    {
     "referenced_type" : "_ZTIPKDs"
    },
    {
     "referenced_type" : "_ZTIPKDs"
    },
    {
     "referenced_type" : "_ZTIm"
    }
   ],
   "return_type" : "_ZTIi",
   "source_file" : "external/libcxx/include/__string"
  },
  {
   "function_name" : "std::__1::char_traits<char16_t>::not_eof",
   "linker_set_key" : "_ZNSt3__111char_traitsIDsE7not_eofEt",
   "parameters" :
   [
    {
     "referenced_type" : "_ZTIt"
    }
   ],
   "return_type" : "_ZTIt",
   "source_file" : "external/libcxx/include/__string"
  },
  {
   "function_name" : "std::__1::char_traits<char>::eq_int_type",
   "linker_set_key" : "_ZNSt3__111char_traitsIcE11eq_int_typeEii",
   "parameters" :
   [
    {
     "referenced_type" : "_ZTIi"
    },
    {
     "referenced_type" : "_ZTIi"
    }
   ],
   "return_type" : "_ZTIb",
   "source_file" : "external/libcxx/include/__string"
  },
  {
   "function_name" : "std::__1::char_traits<char>::to_int_type",
   "linker_set_key" : "_ZNSt3__111char_traitsIcE11to_int_typeEc",
   "parameters" :
   [
    {
     "referenced_type" : "_ZTIc"
    }
   ],
   "return_type" : "_ZTIi",
   "source_file" : "external/libcxx/include/__string"
  },
  {
   "function_name" : "std::__1::char_traits<char>::to_char_type",
   "linker_set_key" : "_ZNSt3__111char_traitsIcE12to_char_typeEi",
   "parameters" :
   [
    {
     "referenced_type" : "_ZTIi"
    }
   ],
   "return_type" : "_ZTIc",
   "source_file" : "external/libcxx/include/__string"
  },
  {
   "function_name" : "std::__1::char_traits<char>::eq",
   "linker_set_key" : "_ZNSt3__111char_traitsIcE2eqEcc",
   "parameters" :
   [
    {
     "referenced_type" : "_ZTIc"
    },
    {
     "referenced_type" : "_ZTIc"
    }
   ],
   "return_type" : "_ZTIb",
   "source_file" : "external/libcxx/include/__string"
  },
  {
   "function_name" : "std::__1::char_traits<char>::lt",
   "linker_set_key" : "_ZNSt3__111char_traitsIcE2ltEcc",
   "parameters" :
   [
    {
     "referenced_type" : "_ZTIc"
    },
    {
     "referenced_type" : "_ZTIc"
    }
   ],
   "return_type" : "_ZTIb",
   "source_file" : "external/libcxx/include/__string"
  },
  {
   "function_name" : "std::__1::char_traits<char>::eof",
   "linker_set_key" : "_ZNSt3__111char_traitsIcE3eofEv",
   "return_type" : "_ZTIi",
   "source_file" : "external/libcxx/include/__string"
  },
  {
   "function_name" : "std::__1::char_traits<char>::copy",
   "linker_set_key" : "_ZNSt3__111char_traitsIcE4copyEPcPKcm",
   "parameters" :
   [
    {
     "referenced_type" : "_ZTIPc"
    },
    {
     "referenced_type" : "_ZTIPKc"
    },
    {
     "referenced_type" : "_ZTIm"
    }
   ],
   "return_type" : "_ZTIPc",
   "source_file" : "external/libcxx/include/__string"
  },
  {
   "function_name" : "std::__1::char_traits<char>::find",
   "linker_set_key" : "_ZNSt3__111char_traitsIcE4findEPKcmRS2_",
   "parameters" :
   [
    {
     "referenced_type" : "_ZTIPKc"
    },
    {
     "referenced_type" : "_ZTIm"
    },
    {
     "referenced_type" : "_ZTIRKc"
    }
   ],
   "return_type" : "_ZTIPKc",
   "source_file" : "external/libcxx/include/__string"
  },
  {
   "function_name" : "std::__1::char_traits<char>::move",
   "linker_set_key" : "_ZNSt3__111char_traitsIcE4moveEPcPKcm",
   "parameters" :
   [
    {
     "referenced_type" : "_ZTIPc"
    },
    {
     "referenced_type" : "_ZTIPKc"
    },
    {
     "referenced_type" : "_ZTIm"
    }
   ],
   "return_type" : "_ZTIPc",
   "source_file" : "external/libcxx/include/__string"
  },
  {
   "function_name" : "std::__1::char_traits<char>::assign",
   "linker_set_key" : "_ZNSt3__111char_traitsIcE6assignEPcmc",
   "parameters" :
   [
    {
     "referenced_type" : "_ZTIPc"
    },
    {
     "referenced_type" : "_ZTIm"
    },
    {
     "referenced_type" : "_ZTIc"
    }
   ],
   "return_type" : "_ZTIPc",
   "source_file" : "external/libcxx/include/__string"
  },
  {
   "function_name" : "std::__1::char_traits<char>::assign",
   "linker_set_key" : "_ZNSt3__111char_traitsIcE6assignERcRKc",
   "parameters" :
   [
    {
     "referenced_type" : "_ZTIRc"
    },
    {
     "referenced_type" : "_ZTIRKc"
    }
   ],
   "return_type" : "_ZTIv",
   "source_file" : "external/libcxx/include/__string"
  },
  {
   "function_name" : "std::__1::char_traits<char>::length",
   "linker_set_key" : "_ZNSt3__111char_traitsIcE6lengthEPKc",
   "parameters" :
   [
    {
     "referenced_type" : "_ZTIPKc"
    }
   ],
   "return_type" : "_ZTIm",
   "source_file" : "external/libcxx/include/__string"
  },
  {
   "function_name" : "std::__1::char_traits<char>::compare",
   "linker_set_key" : "_ZNSt3__111char_traitsIcE7compareEPKcS3_m",
   "parameters" :
   [
    {
     "referenced_type" : "_ZTIPKc"
    },
    {
     "referenced_type" : "_ZTIPKc"
    },
    {
     "referenced_type" : "_ZTIm"
    }
   ],
   "return_type" : "_ZTIi",
   "source_file" : "external/libcxx/include/__string"
  },
  {
   "function_name" : "std::__1::char_traits<char>::not_eof",
   "linker_set_key" : "_ZNSt3__111char_traitsIcE7not_eofEi",
   "parameters" :
   [
    {
     "referenced_type" : "_ZTIi"
    }
   ],
   "return_type" : "_ZTIi",
   "source_file" : "external/libcxx/include/__string"
  },
  {
   "function_name" : "std::__1::char_traits<wchar_t>::eq_int_type",
   "linker_set_key" : "_ZNSt3__111char_traitsIwE11eq_int_typeEjj",
   "parameters" :
   [
    {
     "referenced_type" : "_ZTIj"
    },
    {
     "referenced_type" : "_ZTIj"
    }
   ],
   "return_type" : "_ZTIb",
   "source_file" : "external/libcxx/include/__string"
  },
  {
   "function_name" : "std::__1::char_traits<wchar_t>::to_int_type",
   "linker_set_key" : "_ZNSt3__111char_traitsIwE11to_int_typeEw",
   "parameters" :
   [
    {
     "referenced_type" : "_ZTIw"
    }
   ],
   "return_type" : "_ZTIj",
   "source_file" : "external/libcxx/include/__string"
  },
  {
   "function_name" : "std::__1::char_traits<wchar_t>::to_char_type",
   "linker_set_key" : "_ZNSt3__111char_traitsIwE12to_char_typeEj",
   "parameters" :
   [
    {
     "referenced_type" : "_ZTIj"
    }
   ],
   "return_type" : "_ZTIw",
   "source_file" : "external/libcxx/include/__string"
  },
  {
   "function_name" : "std::__1::char_traits<wchar_t>::eq",
   "linker_set_key" : "_ZNSt3__111char_traitsIwE2eqEww",
   "parameters" :
   [
    {
     "referenced_type" : "_ZTIw"
    },
    {
     "referenced_type" : "_ZTIw"
    }
   ],
   "return_type" : "_ZTIb",
   "source_file" : "external/libcxx/include/__string"
  },
  {
   "function_name" : "std::__1::char_traits<wchar_t>::lt",
   "linker_set_key" : "_ZNSt3__111char_traitsIwE2ltEww",
   "parameters" :
   [
    {
     "referenced_type" : "_ZTIw"
    },
    {
     "referenced_type" : "_ZTIw"
    }
   ],
   "return_type" : "_ZTIb",
   "source_file" : "external/libcxx/include/__string"
  },
  {
   "function_name" : "std::__1::char_traits<wchar_t>::eof",
   "linker_set_key" : "_ZNSt3__111char_traitsIwE3eofEv",
   "return_type" : "_ZTIj",
   "source_file" : "external/libcxx/include/__string"
  },
  {
   "function_name" : "std::__1::char_traits<wchar_t>::copy",
   "linker_set_key" : "_ZNSt3__111char_traitsIwE4copyEPwPKwm",
   "parameters" :
   [
    {
     "referenced_type" : "_ZTIPw"
    },
    {
     "referenced_type" : "_ZTIPKw"
    },
    {
     "referenced_type" : "_ZTIm"
    }
   ],
   "return_type" : "_ZTIPw",
   "source_file" : "external/libcxx/include/__string"
  },
  {
   "function_name" : "std::__1::char_traits<wchar_t>::find",
   "linker_set_key" : "_ZNSt3__111char_traitsIwE4findEPKwmRS2_",
   "parameters" :
   [
    {
     "referenced_type" : "_ZTIPKw"
    },
    {
     "referenced_type" : "_ZTIm"
    },
    {
     "referenced_type" : "_ZTIRKw"
    }
   ],
   "return_type" : "_ZTIPKw",
   "source_file" : "external/libcxx/include/__string"
  },
  {
   "function_name" : "std::__1::char_traits<wchar_t>::move",
   "linker_set_key" : "_ZNSt3__111char_traitsIwE4moveEPwPKwm",
   "parameters" :
   [
    {
     "referenced_type" : "_ZTIPw"
    },
    {
     "referenced_type" : "_ZTIPKw"
    },
    {
     "referenced_type" : "_ZTIm"
    }
   ],
   "return_type" : "_ZTIPw",
   "source_file" : "external/libcxx/include/__string"
  },
  {
   "function_name" : "std::__1::char_traits<wchar_t>::assign",
   "linker_set_key" : "_ZNSt3__111char_traitsIwE6assignEPwmw",
   "parameters" :
   [
    {
     "referenced_type" : "_ZTIPw"
    },
    {
     "referenced_type" : "_ZTIm"
    },
    {
     "referenced_type" : "_ZTIw"
    }
   ],
   "return_type" : "_ZTIPw",
   "source_file" : "external/libcxx/include/__string"
  },
  {
   "function_name" : "std::__1::char_traits<wchar_t>::assign",
   "linker_set_key" : "_ZNSt3__111char_traitsIwE6assignERwRKw",
   "parameters" :
   [
    {
     "referenced_type" : "_ZTIRw"
    },
    {
     "referenced_type" : "_ZTIRKw"
    }
   ],
   "return_type" : "_ZTIv",
   "source_file" : "external/libcxx/include/__string"
  },
  {
   "function_name" : "std::__1::char_traits<wchar_t>::length",
   "linker_set_key" : "_ZNSt3__111char_traitsIwE6lengthEPKw",
   "parameters" :
   [
    {
     "referenced_type" : "_ZTIPKw"
    }
   ],
   "return_type" : "_ZTIm",
   "source_file" : "external/libcxx/include/__string"
  },
  {
   "function_name" : "std::__1::char_traits<wchar_t>::compare",
   "linker_set_key" : "_ZNSt3__111char_traitsIwE7compareEPKwS3_m",
   "parameters" :
   [
    {
     "referenced_type" : "_ZTIPKw"
    },
    {
     "referenced_type" : "_ZTIPKw"
    },
    {
     "referenced_type" : "_ZTIm"
    }
   ],
   "return_type" : "_ZTIi",
   "source_file" : "external/libcxx/include/__string"
  },
  {
   "function_name" : "std::__1::char_traits<wchar_t>::not_eof",
   "linker_set_key" : "_ZNSt3__111char_traitsIwE7not_eofEj",
   "parameters" :
   [
    {
     "referenced_type" : "_ZTIj"
    }
   ],
   "return_type" : "_ZTIj",
   "source_file" : "external/libcxx/include/__string"
  },
  {
   "function_name" : "std::__1::this_thread::yield",
   "linker_set_key" : "_ZNSt3__111this_thread5yieldEv",
   "return_type" : "_ZTIv",
   "source_file" : "external/libcxx/include/thread"
  },
  {
   "function_name" : "std::__1::this_thread::get_id",
   "linker_set_key" : "_ZNSt3__111this_thread6get_idEv",
   "return_type" : "_ZTINSt3__111__thread_idE",
   "source_file" : "external/libcxx/include/thread"
  },
  {
   "function_name" : "std::__1::this_thread::sleep_for",
   "linker_set_key" : "_ZNSt3__111this_thread9sleep_forIxNS_5ratioILl1ELl1000EEEEEvRKNS_6chrono8durationIT_T0_EE",
   "parameters" :
   [
    {
     "referenced_type" : "_ZTIRKNSt3__16chrono8durationIxNS_5ratioILl1ELl1000EEEEE"
    }
   ],
   "return_type" : "_ZTIv",
   "source_file" : "external/libcxx/include/thread",
   "template_args" : [ "_ZTIx", "_ZTINSt3__15ratioILl1ELl1000EEE" ]
  },
  {
   "access" : "private",
   "function_name" : "std::__1::__destruct_n::__set",
   "linker_set_key" : "_ZNSt3__112__destruct_n5__setEmNS_17integral_constantIbLb0EEE",
   "parameters" :
   [
    {
     "is_this_ptr" : true,
     "referenced_type" : "_ZTIPNSt3__112__destruct_nE"
    },
    {
     "referenced_type" : "_ZTIm"
    },
    {
     "referenced_type" : "_ZTINSt3__117integral_constantIbLb0EEE"
    }
   ],
   "return_type" : "_ZTIv",
   "source_file" : "external/libcxx/include/memory"
  },
  {
   "access" : "private",
   "function_name" : "std::__1::__destruct_n::__set",
   "linker_set_key" : "_ZNSt3__112__destruct_n5__setEmNS_17integral_constantIbLb1EEE",
   "parameters" :
   [
    {
     "is_this_ptr" : true,
     "referenced_type" : "_ZTIPNSt3__112__destruct_nE"
    },
    {
     "referenced_type" : "_ZTIm"
    },
    {
     "referenced_type" : "_ZTINSt3__117integral_constantIbLb1EEE"
    }
   ],
   "return_type" : "_ZTIv",
   "source_file" : "external/libcxx/include/memory"
  },
  {
   "access" : "private",
   "function_name" : "std::__1::__destruct_n::__incr",
   "linker_set_key" : "_ZNSt3__112__destruct_n6__incrENS_17integral_constantIbLb0EEE",
   "parameters" :
   [
    {
     "is_this_ptr" : true,
     "referenced_type" : "_ZTIPNSt3__112__destruct_nE"
    },
    {
     "referenced_type" : "_ZTINSt3__117integral_constantIbLb0EEE"
    }
   ],
   "return_type" : "_ZTIv",
   "source_file" : "external/libcxx/include/memory"
  },
  {
   "access" : "private",
   "function_name" : "std::__1::__destruct_n::__incr",
   "linker_set_key" : "_ZNSt3__112__destruct_n6__incrENS_17integral_constantIbLb1EEE",
   "parameters" :
   [
    {
     "is_this_ptr" : true,
     "referenced_type" : "_ZTIPNSt3__112__destruct_nE"
    },
    {
     "referenced_type" : "_ZTINSt3__117integral_constantIbLb1EEE"
    }
   ],
   "return_type" : "_ZTIv",
   "source_file" : "external/libcxx/include/memory"
  },
  {
   "function_name" : "std::__1::__destruct_n::__destruct_n",
   "linker_set_key" : "_ZNSt3__112__destruct_nC1Em",
   "parameters" :
   [
    {
     "is_this_ptr" : true,
     "referenced_type" : "_ZTIPNSt3__112__destruct_nE"
    },
    {
     "referenced_type" : "_ZTIm"
    }
   ],
   "return_type" : "_ZTIv",
   "source_file" : "external/libcxx/include/memory"
  },
  {
   "function_name" : "std::__1::__destruct_n::__destruct_n",
   "linker_set_key" : "_ZNSt3__112__destruct_nC2Em",
   "parameters" :
   [
    {
     "is_this_ptr" : true,
     "referenced_type" : "_ZTIPNSt3__112__destruct_nE"
    },
    {
     "referenced_type" : "_ZTIm"
    }
   ],
   "return_type" : "_ZTIv",
   "source_file" : "external/libcxx/include/memory"
  },
  {
   "function_name" : "std::__1::__tuple_impl<std::__1::__tuple_indices<0, 1>, gemmlowp::OutputStageQuantizeDownInt32ToUint8Scale, gemmlowp::OutputStageSaturatingCastToUint8>::__tuple_impl",
   "linker_set_key" : "_ZNSt3__112__tuple_implINS_15__tuple_indicesIJLm0ELm1EEEEJN8gemmlowp40OutputStageQuantizeDownInt32ToUint8ScaleENS3_32OutputStageSaturatingCastToUint8EEEC1EOS6_",
   "parameters" :
   [
    {
     "is_this_ptr" : true,
     "referenced_type" : "_ZTIPNSt3__112__tuple_implINS_15__tuple_indicesIJLm0ELm1EEEEJN8gemmlowp40OutputStageQuantizeDownInt32ToUint8ScaleENS3_32OutputStageSaturatingCastToUint8EEEE"
    },
    {
     "referenced_type" : "_ZTIONSt3__112__tuple_implINS_15__tuple_indicesIJLm0ELm1EEEEJN8gemmlowp40OutputStageQuantizeDownInt32ToUint8ScaleENS3_32OutputStageSaturatingCastToUint8EEEE"
    }
   ],
   "return_type" : "_ZTIv",
   "source_file" : "external/libcxx/include/tuple"
  },
  {
   "function_name" : "std::__1::__tuple_impl<std::__1::__tuple_indices<0, 1>, gemmlowp::OutputStageQuantizeDownInt32ToUint8Scale, gemmlowp::OutputStageSaturatingCastToUint8>::__tuple_impl",
   "linker_set_key" : "_ZNSt3__112__tuple_implINS_15__tuple_indicesIJLm0ELm1EEEEJN8gemmlowp40OutputStageQuantizeDownInt32ToUint8ScaleENS3_32OutputStageSaturatingCastToUint8EEEC1ERKS6_",
   "parameters" :
   [
    {
     "is_this_ptr" : true,
     "referenced_type" : "_ZTIPNSt3__112__tuple_implINS_15__tuple_indicesIJLm0ELm1EEEEJN8gemmlowp40OutputStageQuantizeDownInt32ToUint8ScaleENS3_32OutputStageSaturatingCastToUint8EEEE"
    },
    {
     "referenced_type" : "_ZTIRKNSt3__112__tuple_implINS_15__tuple_indicesIJLm0ELm1EEEEJN8gemmlowp40OutputStageQuantizeDownInt32ToUint8ScaleENS3_32OutputStageSaturatingCastToUint8EEEE"
    }
   ],
   "return_type" : "_ZTIv",
   "source_file" : "external/libcxx/include/tuple"
  },
  {
   "function_name" : "std::__1::__tuple_impl<std::__1::__tuple_indices<0, 1>, gemmlowp::OutputStageQuantizeDownInt32ToUint8Scale, gemmlowp::OutputStageSaturatingCastToUint8>::__tuple_impl",
   "linker_set_key" : "_ZNSt3__112__tuple_implINS_15__tuple_indicesIJLm0ELm1EEEEJN8gemmlowp40OutputStageQuantizeDownInt32ToUint8ScaleENS3_32OutputStageSaturatingCastToUint8EEEC1IJLm0ELm1EEJS4_S5_EJEJEJRS4_RS5_EEENS1_IJXspT_EEEENS_13__tuple_typesIJDpT0_EEENS1_IJXspT1_EEEENSB_IJDpT2_EEEDpOT3_",
   "parameters" :
   [
    {
     "is_this_ptr" : true,
     "referenced_type" : "_ZTIPNSt3__112__tuple_implINS_15__tuple_indicesIJLm0ELm1EEEEJN8gemmlowp40OutputStageQuantizeDownInt32ToUint8ScaleENS3_32OutputStageSaturatingCastToUint8EEEE"
    },
    {
     "referenced_type" : "_ZTINSt3__115__tuple_indicesIJLm0ELm1EEEE"
    },
    {
     "referenced_type" : "_ZTINSt3__113__tuple_typesIJN8gemmlowp40OutputStageQuantizeDownInt32ToUint8ScaleENS1_32OutputStageSaturatingCastToUint8EEEE"
    },
    {
     "referenced_type" : "_ZTINSt3__115__tuple_indicesIJEEE"
    },
    {
     "referenced_type" : "_ZTINSt3__113__tuple_typesIJEEE"
    },
    {
     "referenced_type" : "_ZTIRN8gemmlowp40OutputStageQuantizeDownInt32ToUint8ScaleE"
    },
    {
     "referenced_type" : "_ZTIRN8gemmlowp32OutputStageSaturatingCastToUint8E"
    }
   ],
   "return_type" : "_ZTIv",
   "source_file" : "external/libcxx/include/tuple"
  },
  {
   "function_name" : "std::__1::__tuple_impl<std::__1::__tuple_indices<0, 1>, gemmlowp::OutputStageQuantizeDownInt32ToUint8Scale, gemmlowp::OutputStageSaturatingCastToUint8>::__tuple_impl",
   "linker_set_key" : "_ZNSt3__112__tuple_implINS_15__tuple_indicesIJLm0ELm1EEEEJN8gemmlowp40OutputStageQuantizeDownInt32ToUint8ScaleENS3_32OutputStageSaturatingCastToUint8EEEC2EOS6_",
   "parameters" :
   [
    {
     "is_this_ptr" : true,
     "referenced_type" : "_ZTIPNSt3__112__tuple_implINS_15__tuple_indicesIJLm0ELm1EEEEJN8gemmlowp40OutputStageQuantizeDownInt32ToUint8ScaleENS3_32OutputStageSaturatingCastToUint8EEEE"
    },
    {
     "referenced_type" : "_ZTIONSt3__112__tuple_implINS_15__tuple_indicesIJLm0ELm1EEEEJN8gemmlowp40OutputStageQuantizeDownInt32ToUint8ScaleENS3_32OutputStageSaturatingCastToUint8EEEE"
    }
   ],
   "return_type" : "_ZTIv",
   "source_file" : "external/libcxx/include/tuple"
  },
  {
   "function_name" : "std::__1::__tuple_impl<std::__1::__tuple_indices<0, 1>, gemmlowp::OutputStageQuantizeDownInt32ToUint8Scale, gemmlowp::OutputStageSaturatingCastToUint8>::__tuple_impl",
   "linker_set_key" : "_ZNSt3__112__tuple_implINS_15__tuple_indicesIJLm0ELm1EEEEJN8gemmlowp40OutputStageQuantizeDownInt32ToUint8ScaleENS3_32OutputStageSaturatingCastToUint8EEEC2ERKS6_",
   "parameters" :
   [
    {
     "is_this_ptr" : true,
     "referenced_type" : "_ZTIPNSt3__112__tuple_implINS_15__tuple_indicesIJLm0ELm1EEEEJN8gemmlowp40OutputStageQuantizeDownInt32ToUint8ScaleENS3_32OutputStageSaturatingCastToUint8EEEE"
    },
    {
     "referenced_type" : "_ZTIRKNSt3__112__tuple_implINS_15__tuple_indicesIJLm0ELm1EEEEJN8gemmlowp40OutputStageQuantizeDownInt32ToUint8ScaleENS3_32OutputStageSaturatingCastToUint8EEEE"
    }
   ],
   "return_type" : "_ZTIv",
   "source_file" : "external/libcxx/include/tuple"
  },
  {
   "function_name" : "std::__1::__tuple_impl<std::__1::__tuple_indices<0, 1>, gemmlowp::OutputStageQuantizeDownInt32ToUint8Scale, gemmlowp::OutputStageSaturatingCastToUint8>::__tuple_impl",
   "linker_set_key" : "_ZNSt3__112__tuple_implINS_15__tuple_indicesIJLm0ELm1EEEEJN8gemmlowp40OutputStageQuantizeDownInt32ToUint8ScaleENS3_32OutputStageSaturatingCastToUint8EEEC2IJLm0ELm1EEJS4_S5_EJEJEJRS4_RS5_EEENS1_IJXspT_EEEENS_13__tuple_typesIJDpT0_EEENS1_IJXspT1_EEEENSB_IJDpT2_EEEDpOT3_",
   "parameters" :
   [
    {
     "is_this_ptr" : true,
     "referenced_type" : "_ZTIPNSt3__112__tuple_implINS_15__tuple_indicesIJLm0ELm1EEEEJN8gemmlowp40OutputStageQuantizeDownInt32ToUint8ScaleENS3_32OutputStageSaturatingCastToUint8EEEE"
    },
    {
     "referenced_type" : "_ZTINSt3__115__tuple_indicesIJLm0ELm1EEEE"
    },
    {
     "referenced_type" : "_ZTINSt3__113__tuple_typesIJN8gemmlowp40OutputStageQuantizeDownInt32ToUint8ScaleENS1_32OutputStageSaturatingCastToUint8EEEE"
    },
    {
     "referenced_type" : "_ZTINSt3__115__tuple_indicesIJEEE"
    },
    {
     "referenced_type" : "_ZTINSt3__113__tuple_typesIJEEE"
    },
    {
     "referenced_type" : "_ZTIRN8gemmlowp40OutputStageQuantizeDownInt32ToUint8ScaleE"
    },
    {
     "referenced_type" : "_ZTIRN8gemmlowp32OutputStageSaturatingCastToUint8E"
    }
   ],
   "return_type" : "_ZTIv",
   "source_file" : "external/libcxx/include/tuple"
  },
  {
   "access" : "private",
   "function_name" : "std::__1::__tuple_leaf<0, gemmlowp::OutputStageQuantizeDownInt32ToUint8Scale, false>::__can_bind_reference",
   "linker_set_key" : "_ZNSt3__112__tuple_leafILm0EN8gemmlowp40OutputStageQuantizeDownInt32ToUint8ScaleELb0EE20__can_bind_referenceIRS2_EEbv",
   "return_type" : "_ZTIb",
   "source_file" : "external/libcxx/include/tuple",
   "template_args" : [ "_ZTIRN8gemmlowp40OutputStageQuantizeDownInt32ToUint8ScaleE" ]
  },
  {
   "function_name" : "std::__1::__tuple_leaf<0, gemmlowp::OutputStageQuantizeDownInt32ToUint8Scale, false>::__tuple_leaf",
   "linker_set_key" : "_ZNSt3__112__tuple_leafILm0EN8gemmlowp40OutputStageQuantizeDownInt32ToUint8ScaleELb0EEC1EOS3_",
   "parameters" :
   [
    {
     "is_this_ptr" : true,
     "referenced_type" : "_ZTIPNSt3__112__tuple_leafILm0EN8gemmlowp40OutputStageQuantizeDownInt32ToUint8ScaleELb0EEE"
    },
    {
     "referenced_type" : "_ZTIONSt3__112__tuple_leafILm0EN8gemmlowp40OutputStageQuantizeDownInt32ToUint8ScaleELb0EEE"
    }
   ],
   "return_type" : "_ZTIv",
   "source_file" : "external/libcxx/include/tuple"
  },
  {
   "function_name" : "std::__1::__tuple_leaf<0, gemmlowp::OutputStageQuantizeDownInt32ToUint8Scale, false>::__tuple_leaf",
   "linker_set_key" : "_ZNSt3__112__tuple_leafILm0EN8gemmlowp40OutputStageQuantizeDownInt32ToUint8ScaleELb0EEC1ERKS3_",
   "parameters" :
   [
    {
     "is_this_ptr" : true,
     "referenced_type" : "_ZTIPNSt3__112__tuple_leafILm0EN8gemmlowp40OutputStageQuantizeDownInt32ToUint8ScaleELb0EEE"
    },
    {
     "referenced_type" : "_ZTIRKNSt3__112__tuple_leafILm0EN8gemmlowp40OutputStageQuantizeDownInt32ToUint8ScaleELb0EEE"
    }
   ],
   "return_type" : "_ZTIv",
   "source_file" : "external/libcxx/include/tuple"
  },
  {
   "function_name" : "std::__1::__tuple_leaf<0, gemmlowp::OutputStageQuantizeDownInt32ToUint8Scale, false>::__tuple_leaf",
   "linker_set_key" : "_ZNSt3__112__tuple_leafILm0EN8gemmlowp40OutputStageQuantizeDownInt32ToUint8ScaleELb0EEC1IRS2_vEEOT_",
   "parameters" :
   [
    {
     "is_this_ptr" : true,
     "referenced_type" : "_ZTIPNSt3__112__tuple_leafILm0EN8gemmlowp40OutputStageQuantizeDownInt32ToUint8ScaleELb0EEE"
    },
    {
     "referenced_type" : "_ZTIRN8gemmlowp40OutputStageQuantizeDownInt32ToUint8ScaleE"
    }
   ],
   "return_type" : "_ZTIv",
   "source_file" : "external/libcxx/include/tuple",
   "template_args" : [ "_ZTIRN8gemmlowp40OutputStageQuantizeDownInt32ToUint8ScaleE", "_ZTIv" ]
  },
  {
   "function_name" : "std::__1::__tuple_leaf<0, gemmlowp::OutputStageQuantizeDownInt32ToUint8Scale, false>::__tuple_leaf",
   "linker_set_key" : "_ZNSt3__112__tuple_leafILm0EN8gemmlowp40OutputStageQuantizeDownInt32ToUint8ScaleELb0EEC2EOS3_",
   "parameters" :
   [
    {
     "is_this_ptr" : true,
     "referenced_type" : "_ZTIPNSt3__112__tuple_leafILm0EN8gemmlowp40OutputStageQuantizeDownInt32ToUint8ScaleELb0EEE"
    },
    {
     "referenced_type" : "_ZTIONSt3__112__tuple_leafILm0EN8gemmlowp40OutputStageQuantizeDownInt32ToUint8ScaleELb0EEE"
    }
   ],
   "return_type" : "_ZTIv",
   "source_file" : "external/libcxx/include/tuple"
  },
  {
   "function_name" : "std::__1::__tuple_leaf<0, gemmlowp::OutputStageQuantizeDownInt32ToUint8Scale, false>::__tuple_leaf",
   "linker_set_key" : "_ZNSt3__112__tuple_leafILm0EN8gemmlowp40OutputStageQuantizeDownInt32ToUint8ScaleELb0EEC2ERKS3_",
   "parameters" :
   [
    {
     "is_this_ptr" : true,
     "referenced_type" : "_ZTIPNSt3__112__tuple_leafILm0EN8gemmlowp40OutputStageQuantizeDownInt32ToUint8ScaleELb0EEE"
    },
    {
     "referenced_type" : "_ZTIRKNSt3__112__tuple_leafILm0EN8gemmlowp40OutputStageQuantizeDownInt32ToUint8ScaleELb0EEE"
    }
   ],
   "return_type" : "_ZTIv",
   "source_file" : "external/libcxx/include/tuple"
  },
  {
   "function_name" : "std::__1::__tuple_leaf<0, gemmlowp::OutputStageQuantizeDownInt32ToUint8Scale, false>::__tuple_leaf",
   "linker_set_key" : "_ZNSt3__112__tuple_leafILm0EN8gemmlowp40OutputStageQuantizeDownInt32ToUint8ScaleELb0EEC2IRS2_vEEOT_",
   "parameters" :
   [
    {
     "is_this_ptr" : true,
     "referenced_type" : "_ZTIPNSt3__112__tuple_leafILm0EN8gemmlowp40OutputStageQuantizeDownInt32ToUint8ScaleELb0EEE"
    },
    {
     "referenced_type" : "_ZTIRN8gemmlowp40OutputStageQuantizeDownInt32ToUint8ScaleE"
    }
   ],
   "return_type" : "_ZTIv",
   "source_file" : "external/libcxx/include/tuple",
   "template_args" : [ "_ZTIRN8gemmlowp40OutputStageQuantizeDownInt32ToUint8ScaleE", "_ZTIv" ]
  },
  {
   "function_name" : "std::__1::__tuple_leaf<1, gemmlowp::OutputStageSaturatingCastToUint8, true>::__tuple_leaf",
   "linker_set_key" : "_ZNSt3__112__tuple_leafILm1EN8gemmlowp32OutputStageSaturatingCastToUint8ELb1EEC1EOS3_",
   "parameters" :
   [
    {
     "is_this_ptr" : true,
     "referenced_type" : "_ZTIPNSt3__112__tuple_leafILm1EN8gemmlowp32OutputStageSaturatingCastToUint8ELb1EEE"
    },
    {
     "referenced_type" : "_ZTIONSt3__112__tuple_leafILm1EN8gemmlowp32OutputStageSaturatingCastToUint8ELb1EEE"
    }
   ],
   "return_type" : "_ZTIv",
   "source_file" : "external/libcxx/include/tuple"
  },
  {
   "function_name" : "std::__1::__tuple_leaf<1, gemmlowp::OutputStageSaturatingCastToUint8, true>::__tuple_leaf",
   "linker_set_key" : "_ZNSt3__112__tuple_leafILm1EN8gemmlowp32OutputStageSaturatingCastToUint8ELb1EEC1ERKS3_",
   "parameters" :
   [
    {
     "is_this_ptr" : true,
     "referenced_type" : "_ZTIPNSt3__112__tuple_leafILm1EN8gemmlowp32OutputStageSaturatingCastToUint8ELb1EEE"
    },
    {
     "referenced_type" : "_ZTIRKNSt3__112__tuple_leafILm1EN8gemmlowp32OutputStageSaturatingCastToUint8ELb1EEE"
    }
   ],
   "return_type" : "_ZTIv",
   "source_file" : "external/libcxx/include/tuple"
  },
  {
   "function_name" : "std::__1::__tuple_leaf<1, gemmlowp::OutputStageSaturatingCastToUint8, true>::__tuple_leaf",
   "linker_set_key" : "_ZNSt3__112__tuple_leafILm1EN8gemmlowp32OutputStageSaturatingCastToUint8ELb1EEC1IRS2_vEEOT_",
   "parameters" :
   [
    {
     "is_this_ptr" : true,
     "referenced_type" : "_ZTIPNSt3__112__tuple_leafILm1EN8gemmlowp32OutputStageSaturatingCastToUint8ELb1EEE"
    },
    {
     "referenced_type" : "_ZTIRN8gemmlowp32OutputStageSaturatingCastToUint8E"
    }
   ],
   "return_type" : "_ZTIv",
   "source_file" : "external/libcxx/include/tuple",
   "template_args" : [ "_ZTIRN8gemmlowp32OutputStageSaturatingCastToUint8E", "_ZTIv" ]
  },
  {
   "function_name" : "std::__1::__tuple_leaf<1, gemmlowp::OutputStageSaturatingCastToUint8, true>::__tuple_leaf",
   "linker_set_key" : "_ZNSt3__112__tuple_leafILm1EN8gemmlowp32OutputStageSaturatingCastToUint8ELb1EEC2EOS3_",
   "parameters" :
   [
    {
     "is_this_ptr" : true,
     "referenced_type" : "_ZTIPNSt3__112__tuple_leafILm1EN8gemmlowp32OutputStageSaturatingCastToUint8ELb1EEE"
    },
    {
     "referenced_type" : "_ZTIONSt3__112__tuple_leafILm1EN8gemmlowp32OutputStageSaturatingCastToUint8ELb1EEE"
    }
   ],
   "return_type" : "_ZTIv",
   "source_file" : "external/libcxx/include/tuple"
  },
  {
   "function_name" : "std::__1::__tuple_leaf<1, gemmlowp::OutputStageSaturatingCastToUint8, true>::__tuple_leaf",
   "linker_set_key" : "_ZNSt3__112__tuple_leafILm1EN8gemmlowp32OutputStageSaturatingCastToUint8ELb1EEC2ERKS3_",
   "parameters" :
   [
    {
     "is_this_ptr" : true,
     "referenced_type" : "_ZTIPNSt3__112__tuple_leafILm1EN8gemmlowp32OutputStageSaturatingCastToUint8ELb1EEE"
    },
    {
     "referenced_type" : "_ZTIRKNSt3__112__tuple_leafILm1EN8gemmlowp32OutputStageSaturatingCastToUint8ELb1EEE"
    }
   ],
   "return_type" : "_ZTIv",
   "source_file" : "external/libcxx/include/tuple"
  },
  {
   "function_name" : "std::__1::__tuple_leaf<1, gemmlowp::OutputStageSaturatingCastToUint8, true>::__tuple_leaf",
   "linker_set_key" : "_ZNSt3__112__tuple_leafILm1EN8gemmlowp32OutputStageSaturatingCastToUint8ELb1EEC2IRS2_vEEOT_",
   "parameters" :
   [
    {
     "is_this_ptr" : true,
     "referenced_type" : "_ZTIPNSt3__112__tuple_leafILm1EN8gemmlowp32OutputStageSaturatingCastToUint8ELb1EEE"
    },
    {
     "referenced_type" : "_ZTIRN8gemmlowp32OutputStageSaturatingCastToUint8E"
    }
   ],
   "return_type" : "_ZTIv",
   "source_file" : "external/libcxx/include/tuple",
   "template_args" : [ "_ZTIRN8gemmlowp32OutputStageSaturatingCastToUint8E", "_ZTIv" ]
  },
  {
   "access" : "private",
   "function_name" : "std::__1::basic_string<char32_t, std::__1::char_traits<char32_t>, std::__1::allocator<char32_t>>::__align_it",
   "linker_set_key" : "_ZNSt3__112basic_stringIDiNS_11char_traitsIDiEENS_9allocatorIDiEEE10__align_itILm4EEEmm",
   "parameters" :
   [
    {
     "referenced_type" : "_ZTIm"
    }
   ],
   "return_type" : "_ZTIm",
   "source_file" : "external/libcxx/include/string"
  },
  {
   "access" : "private",
   "function_name" : "std::__1::basic_string<char32_t, std::__1::char_traits<char32_t>, std::__1::allocator<char32_t>>::__recommend",
   "linker_set_key" : "_ZNSt3__112basic_stringIDiNS_11char_traitsIDiEENS_9allocatorIDiEEE11__recommendEm",
   "parameters" :
   [
    {
     "referenced_type" : "_ZTIm"
    }
   ],
   "return_type" : "_ZTIm",
   "source_file" : "external/libcxx/include/string"
  },
  {
   "access" : "private",
   "function_name" : "std::__1::basic_string<char32_t, std::__1::char_traits<char32_t>, std::__1::allocator<char32_t>>::__set_long_cap",
   "linker_set_key" : "_ZNSt3__112basic_stringIDiNS_11char_traitsIDiEENS_9allocatorIDiEEE14__set_long_capEm",
   "parameters" :
   [
    {
     "is_this_ptr" : true,
     "referenced_type" : "_ZTIPNSt3__112basic_stringIDiNS_11char_traitsIDiEENS_9allocatorIDiEEEE"
    },
    {
     "referenced_type" : "_ZTIm"
    }
   ],
   "return_type" : "_ZTIv",
   "source_file" : "external/libcxx/include/string"
  },
  {
   "access" : "private",
   "function_name" : "std::__1::basic_string<char32_t, std::__1::char_traits<char32_t>, std::__1::allocator<char32_t>>::__set_long_size",
   "linker_set_key" : "_ZNSt3__112basic_stringIDiNS_11char_traitsIDiEENS_9allocatorIDiEEE15__set_long_sizeEm",
   "parameters" :
   [
    {
     "is_this_ptr" : true,
     "referenced_type" : "_ZTIPNSt3__112basic_stringIDiNS_11char_traitsIDiEENS_9allocatorIDiEEEE"
    },
    {
     "referenced_type" : "_ZTIm"
    }
   ],
   "return_type" : "_ZTIv",
   "source_file" : "external/libcxx/include/string"
  },
  {
   "access" : "private",
   "function_name" : "std::__1::basic_string<char32_t, std::__1::char_traits<char32_t>, std::__1::allocator<char32_t>>::__set_short_size",
   "linker_set_key" : "_ZNSt3__112basic_stringIDiNS_11char_traitsIDiEENS_9allocatorIDiEEE16__set_short_sizeEm",
   "parameters" :
   [
    {
     "is_this_ptr" : true,
     "referenced_type" : "_ZTIPNSt3__112basic_stringIDiNS_11char_traitsIDiEENS_9allocatorIDiEEEE"
    },
    {
     "referenced_type" : "_ZTIm"
    }
   ],
   "return_type" : "_ZTIv",
   "source_file" : "external/libcxx/include/string"
  },
  {
   "access" : "private",
   "function_name" : "std::__1::basic_string<char32_t, std::__1::char_traits<char32_t>, std::__1::allocator<char32_t>>::__get_long_pointer",
   "linker_set_key" : "_ZNSt3__112basic_stringIDiNS_11char_traitsIDiEENS_9allocatorIDiEEE18__get_long_pointerEv",
   "parameters" :
   [
    {
     "is_this_ptr" : true,
     "referenced_type" : "_ZTIPNSt3__112basic_stringIDiNS_11char_traitsIDiEENS_9allocatorIDiEEEE"
    }
   ],
   "return_type" : "_ZTIPDi",
   "source_file" : "external/libcxx/include/string"
  },
  {
   "access" : "private",
   "function_name" : "std::__1::basic_string<char32_t, std::__1::char_traits<char32_t>, std::__1::allocator<char32_t>>::__set_long_pointer",
   "linker_set_key" : "_ZNSt3__112basic_stringIDiNS_11char_traitsIDiEENS_9allocatorIDiEEE18__set_long_pointerEPDi",
   "parameters" :
   [
    {
     "is_this_ptr" : true,
     "referenced_type" : "_ZTIPNSt3__112basic_stringIDiNS_11char_traitsIDiEENS_9allocatorIDiEEEE"
    },
    {
     "referenced_type" : "_ZTIPDi"
    }
   ],
   "return_type" : "_ZTIv",
   "source_file" : "external/libcxx/include/string"
  },
  {
   "access" : "private",
   "function_name" : "std::__1::basic_string<char32_t, std::__1::char_traits<char32_t>, std::__1::allocator<char32_t>>::__get_short_pointer",
   "linker_set_key" : "_ZNSt3__112basic_stringIDiNS_11char_traitsIDiEENS_9allocatorIDiEEE19__get_short_pointerEv",
   "parameters" :
   [
    {
     "is_this_ptr" : true,
     "referenced_type" : "_ZTIPNSt3__112basic_stringIDiNS_11char_traitsIDiEENS_9allocatorIDiEEEE"
    }
   ],
   "return_type" : "_ZTIPDi",
   "source_file" : "external/libcxx/include/string"
  },
  {
   "access" : "private",
   "function_name" : "std::__1::basic_string<char32_t, std::__1::char_traits<char32_t>, std::__1::allocator<char32_t>>::__init",
   "linker_set_key" : "_ZNSt3__112basic_stringIDiNS_11char_traitsIDiEENS_9allocatorIDiEEE6__initEPKDim",
   "parameters" :
   [
    {
     "is_this_ptr" : true,
     "referenced_type" : "_ZTIPNSt3__112basic_stringIDiNS_11char_traitsIDiEENS_9allocatorIDiEEEE"
    },
    {
     "referenced_type" : "_ZTIPKDi"
    },
    {
     "referenced_type" : "_ZTIm"
    }
   ],
   "return_type" : "_ZTIv",
   "source_file" : "external/libcxx/include/string"
  },
  {
   "access" : "private",
   "function_name" : "std::__1::basic_string<char32_t, std::__1::char_traits<char32_t>, std::__1::allocator<char32_t>>::__alloc",
   "linker_set_key" : "_ZNSt3__112basic_stringIDiNS_11char_traitsIDiEENS_9allocatorIDiEEE7__allocEv",
   "parameters" :
   [
    {
     "is_this_ptr" : true,
     "referenced_type" : "_ZTIPNSt3__112basic_stringIDiNS_11char_traitsIDiEENS_9allocatorIDiEEEE"
    }
   ],
   "return_type" : "_ZTIRNSt3__19allocatorIDiEE",
   "source_file" : "external/libcxx/include/string"
  },
  {
   "function_name" : "std::__1::basic_string<char32_t, std::__1::char_traits<char32_t>, std::__1::allocator<char32_t>>::basic_string",
   "linker_set_key" : "_ZNSt3__112basic_stringIDiNS_11char_traitsIDiEENS_9allocatorIDiEEEC1EPKDim",
   "parameters" :
   [
    {
     "is_this_ptr" : true,
     "referenced_type" : "_ZTIPNSt3__112basic_stringIDiNS_11char_traitsIDiEENS_9allocatorIDiEEEE"
    },
    {
     "referenced_type" : "_ZTIPKDi"
    },
    {
     "referenced_type" : "_ZTIm"
    }
   ],
   "return_type" : "_ZTIv",
   "source_file" : "external/libcxx/include/string"
  },
  {
   "function_name" : "std::__1::basic_string<char32_t, std::__1::char_traits<char32_t>, std::__1::allocator<char32_t>>::basic_string",
   "linker_set_key" : "_ZNSt3__112basic_stringIDiNS_11char_traitsIDiEENS_9allocatorIDiEEEC2EPKDim",
   "parameters" :
   [
    {
     "is_this_ptr" : true,
     "referenced_type" : "_ZTIPNSt3__112basic_stringIDiNS_11char_traitsIDiEENS_9allocatorIDiEEEE"
    },
    {
     "referenced_type" : "_ZTIPKDi"
    },
    {
     "referenced_type" : "_ZTIm"
    }
   ],
   "return_type" : "_ZTIv",
   "source_file" : "external/libcxx/include/string"
  },
  {
   "function_name" : "std::__1::basic_string<char32_t, std::__1::char_traits<char32_t>, std::__1::allocator<char32_t>>::~basic_string",
   "linker_set_key" : "_ZNSt3__112basic_stringIDiNS_11char_traitsIDiEENS_9allocatorIDiEEED1Ev",
   "parameters" :
   [
    {
     "is_this_ptr" : true,
     "referenced_type" : "_ZTIPNSt3__112basic_stringIDiNS_11char_traitsIDiEENS_9allocatorIDiEEEE"
    }
   ],
   "return_type" : "_ZTIv",
   "source_file" : "external/libcxx/include/string"
  },
  {
   "function_name" : "std::__1::basic_string<char32_t, std::__1::char_traits<char32_t>, std::__1::allocator<char32_t>>::~basic_string",
   "linker_set_key" : "_ZNSt3__112basic_stringIDiNS_11char_traitsIDiEENS_9allocatorIDiEEED2Ev",
   "parameters" :
   [
    {
     "is_this_ptr" : true,
     "referenced_type" : "_ZTIPNSt3__112basic_stringIDiNS_11char_traitsIDiEENS_9allocatorIDiEEEE"
    }
   ],
   "return_type" : "_ZTIv",
   "source_file" : "external/libcxx/include/string"
  },
  {
   "access" : "private",
   "function_name" : "std::__1::basic_string<char16_t, std::__1::char_traits<char16_t>, std::__1::allocator<char16_t>>::__align_it",
   "linker_set_key" : "_ZNSt3__112basic_stringIDsNS_11char_traitsIDsEENS_9allocatorIDsEEE10__align_itILm8EEEmm",
   "parameters" :
   [
    {
     "referenced_type" : "_ZTIm"
    }
   ],
   "return_type" : "_ZTIm",
   "source_file" : "external/libcxx/include/string"
  },
  {
   "access" : "private",
   "function_name" : "std::__1::basic_string<char16_t, std::__1::char_traits<char16_t>, std::__1::allocator<char16_t>>::__recommend",
   "linker_set_key" : "_ZNSt3__112basic_stringIDsNS_11char_traitsIDsEENS_9allocatorIDsEEE11__recommendEm",
   "parameters" :
   [
    {
     "referenced_type" : "_ZTIm"
    }
   ],
   "return_type" : "_ZTIm",
   "source_file" : "external/libcxx/include/string"
  },
  {
   "access" : "private",
   "function_name" : "std::__1::basic_string<char16_t, std::__1::char_traits<char16_t>, std::__1::allocator<char16_t>>::__set_long_cap",
   "linker_set_key" : "_ZNSt3__112basic_stringIDsNS_11char_traitsIDsEENS_9allocatorIDsEEE14__set_long_capEm",
   "parameters" :
   [
    {
     "is_this_ptr" : true,
     "referenced_type" : "_ZTIPNSt3__112basic_stringIDsNS_11char_traitsIDsEENS_9allocatorIDsEEEE"
    },
    {
     "referenced_type" : "_ZTIm"
    }
   ],
   "return_type" : "_ZTIv",
   "source_file" : "external/libcxx/include/string"
  },
  {
   "access" : "private",
   "function_name" : "std::__1::basic_string<char16_t, std::__1::char_traits<char16_t>, std::__1::allocator<char16_t>>::__set_long_size",
   "linker_set_key" : "_ZNSt3__112basic_stringIDsNS_11char_traitsIDsEENS_9allocatorIDsEEE15__set_long_sizeEm",
   "parameters" :
   [
    {
     "is_this_ptr" : true,
     "referenced_type" : "_ZTIPNSt3__112basic_stringIDsNS_11char_traitsIDsEENS_9allocatorIDsEEEE"
    },
    {
     "referenced_type" : "_ZTIm"
    }
   ],
   "return_type" : "_ZTIv",
   "source_file" : "external/libcxx/include/string"
  },
  {
   "access" : "private",
   "function_name" : "std::__1::basic_string<char16_t, std::__1::char_traits<char16_t>, std::__1::allocator<char16_t>>::__set_short_size",
   "linker_set_key" : "_ZNSt3__112basic_stringIDsNS_11char_traitsIDsEENS_9allocatorIDsEEE16__set_short_sizeEm",
   "parameters" :
   [
    {
     "is_this_ptr" : true,
     "referenced_type" : "_ZTIPNSt3__112basic_stringIDsNS_11char_traitsIDsEENS_9allocatorIDsEEEE"
    },
    {
     "referenced_type" : "_ZTIm"
    }
   ],
   "return_type" : "_ZTIv",
   "source_file" : "external/libcxx/include/string"
  },
  {
   "access" : "private",
   "function_name" : "std::__1::basic_string<char16_t, std::__1::char_traits<char16_t>, std::__1::allocator<char16_t>>::__get_long_pointer",
   "linker_set_key" : "_ZNSt3__112basic_stringIDsNS_11char_traitsIDsEENS_9allocatorIDsEEE18__get_long_pointerEv",
   "parameters" :
   [
    {
     "is_this_ptr" : true,
     "referenced_type" : "_ZTIPNSt3__112basic_stringIDsNS_11char_traitsIDsEENS_9allocatorIDsEEEE"
    }
   ],
   "return_type" : "_ZTIPDs",
   "source_file" : "external/libcxx/include/string"
  },
  {
   "access" : "private",
   "function_name" : "std::__1::basic_string<char16_t, std::__1::char_traits<char16_t>, std::__1::allocator<char16_t>>::__set_long_pointer",
   "linker_set_key" : "_ZNSt3__112basic_stringIDsNS_11char_traitsIDsEENS_9allocatorIDsEEE18__set_long_pointerEPDs",
   "parameters" :
   [
    {
     "is_this_ptr" : true,
     "referenced_type" : "_ZTIPNSt3__112basic_stringIDsNS_11char_traitsIDsEENS_9allocatorIDsEEEE"
    },
    {
     "referenced_type" : "_ZTIPDs"
    }
   ],
   "return_type" : "_ZTIv",
   "source_file" : "external/libcxx/include/string"
  },
  {
   "access" : "private",
   "function_name" : "std::__1::basic_string<char16_t, std::__1::char_traits<char16_t>, std::__1::allocator<char16_t>>::__get_short_pointer",
   "linker_set_key" : "_ZNSt3__112basic_stringIDsNS_11char_traitsIDsEENS_9allocatorIDsEEE19__get_short_pointerEv",
   "parameters" :
   [
    {
     "is_this_ptr" : true,
     "referenced_type" : "_ZTIPNSt3__112basic_stringIDsNS_11char_traitsIDsEENS_9allocatorIDsEEEE"
    }
   ],
   "return_type" : "_ZTIPDs",
   "source_file" : "external/libcxx/include/string"
  },
  {
   "access" : "private",
   "function_name" : "std::__1::basic_string<char16_t, std::__1::char_traits<char16_t>, std::__1::allocator<char16_t>>::__init",
   "linker_set_key" : "_ZNSt3__112basic_stringIDsNS_11char_traitsIDsEENS_9allocatorIDsEEE6__initEPKDsm",
   "parameters" :
   [
    {
     "is_this_ptr" : true,
     "referenced_type" : "_ZTIPNSt3__112basic_stringIDsNS_11char_traitsIDsEENS_9allocatorIDsEEEE"
    },
    {
     "referenced_type" : "_ZTIPKDs"
    },
    {
     "referenced_type" : "_ZTIm"
    }
   ],
   "return_type" : "_ZTIv",
   "source_file" : "external/libcxx/include/string"
  },
  {
   "access" : "private",
   "function_name" : "std::__1::basic_string<char16_t, std::__1::char_traits<char16_t>, std::__1::allocator<char16_t>>::__alloc",
   "linker_set_key" : "_ZNSt3__112basic_stringIDsNS_11char_traitsIDsEENS_9allocatorIDsEEE7__allocEv",
   "parameters" :
   [
    {
     "is_this_ptr" : true,
     "referenced_type" : "_ZTIPNSt3__112basic_stringIDsNS_11char_traitsIDsEENS_9allocatorIDsEEEE"
    }
   ],
   "return_type" : "_ZTIRNSt3__19allocatorIDsEE",
   "source_file" : "external/libcxx/include/string"
  },
  {
   "function_name" : "std::__1::basic_string<char16_t, std::__1::char_traits<char16_t>, std::__1::allocator<char16_t>>::basic_string",
   "linker_set_key" : "_ZNSt3__112basic_stringIDsNS_11char_traitsIDsEENS_9allocatorIDsEEEC1EPKDsm",
   "parameters" :
   [
    {
     "is_this_ptr" : true,
     "referenced_type" : "_ZTIPNSt3__112basic_stringIDsNS_11char_traitsIDsEENS_9allocatorIDsEEEE"
    },
    {
     "referenced_type" : "_ZTIPKDs"
    },
    {
     "referenced_type" : "_ZTIm"
    }
   ],
   "return_type" : "_ZTIv",
   "source_file" : "external/libcxx/include/string"
  },
  {
   "function_name" : "std::__1::basic_string<char16_t, std::__1::char_traits<char16_t>, std::__1::allocator<char16_t>>::basic_string",
   "linker_set_key" : "_ZNSt3__112basic_stringIDsNS_11char_traitsIDsEENS_9allocatorIDsEEEC2EPKDsm",
   "parameters" :
   [
    {
     "is_this_ptr" : true,
     "referenced_type" : "_ZTIPNSt3__112basic_stringIDsNS_11char_traitsIDsEENS_9allocatorIDsEEEE"
    },
    {
     "referenced_type" : "_ZTIPKDs"
    },
    {
     "referenced_type" : "_ZTIm"
    }
   ],
   "return_type" : "_ZTIv",
   "source_file" : "external/libcxx/include/string"
  },
  {
   "function_name" : "std::__1::basic_string<char16_t, std::__1::char_traits<char16_t>, std::__1::allocator<char16_t>>::~basic_string",
   "linker_set_key" : "_ZNSt3__112basic_stringIDsNS_11char_traitsIDsEENS_9allocatorIDsEEED1Ev",
   "parameters" :
   [
    {
     "is_this_ptr" : true,
     "referenced_type" : "_ZTIPNSt3__112basic_stringIDsNS_11char_traitsIDsEENS_9allocatorIDsEEEE"
    }
   ],
   "return_type" : "_ZTIv",
   "source_file" : "external/libcxx/include/string"
  },
  {
   "function_name" : "std::__1::basic_string<char16_t, std::__1::char_traits<char16_t>, std::__1::allocator<char16_t>>::~basic_string",
   "linker_set_key" : "_ZNSt3__112basic_stringIDsNS_11char_traitsIDsEENS_9allocatorIDsEEED2Ev",
   "parameters" :
   [
    {
     "is_this_ptr" : true,
     "referenced_type" : "_ZTIPNSt3__112basic_stringIDsNS_11char_traitsIDsEENS_9allocatorIDsEEEE"
    }
   ],
   "return_type" : "_ZTIv",
   "source_file" : "external/libcxx/include/string"
  },
  {
   "access" : "private",
   "function_name" : "std::__1::basic_string<char, std::__1::char_traits<char>, std::__1::allocator<char>>::__align_it",
   "linker_set_key" : "_ZNSt3__112basic_stringIcNS_11char_traitsIcEENS_9allocatorIcEEE10__align_itILm16EEEmm",
   "parameters" :
   [
    {
     "referenced_type" : "_ZTIm"
    }
   ],
   "return_type" : "_ZTIm",
   "source_file" : "external/libcxx/include/string"
  },
  {
   "access" : "private",
   "function_name" : "std::__1::basic_string<char, std::__1::char_traits<char>, std::__1::allocator<char>>::__recommend",
   "linker_set_key" : "_ZNSt3__112basic_stringIcNS_11char_traitsIcEENS_9allocatorIcEEE11__recommendEm",
   "parameters" :
   [
    {
     "referenced_type" : "_ZTIm"
    }
   ],
   "return_type" : "_ZTIm",
   "source_file" : "external/libcxx/include/string"
  },
  {
   "access" : "private",
   "function_name" : "std::__1::basic_string<char, std::__1::char_traits<char>, std::__1::allocator<char>>::__set_long_cap",
   "linker_set_key" : "_ZNSt3__112basic_stringIcNS_11char_traitsIcEENS_9allocatorIcEEE14__set_long_capEm",
   "parameters" :
   [
    {
     "is_this_ptr" : true,
     "referenced_type" : "_ZTIPNSt3__112basic_stringIcNS_11char_traitsIcEENS_9allocatorIcEEEE"
    },
    {
     "referenced_type" : "_ZTIm"
    }
   ],
   "return_type" : "_ZTIv",
   "source_file" : "external/libcxx/include/string"
  },
  {
   "access" : "private",
   "function_name" : "std::__1::basic_string<char, std::__1::char_traits<char>, std::__1::allocator<char>>::__set_long_size",
   "linker_set_key" : "_ZNSt3__112basic_stringIcNS_11char_traitsIcEENS_9allocatorIcEEE15__set_long_sizeEm",
   "parameters" :
   [
    {
     "is_this_ptr" : true,
     "referenced_type" : "_ZTIPNSt3__112basic_stringIcNS_11char_traitsIcEENS_9allocatorIcEEEE"
    },
    {
     "referenced_type" : "_ZTIm"
    }
   ],
   "return_type" : "_ZTIv",
   "source_file" : "external/libcxx/include/string"
  },
  {
   "access" : "private",
   "function_name" : "std::__1::basic_string<char, std::__1::char_traits<char>, std::__1::allocator<char>>::__set_short_size",
   "linker_set_key" : "_ZNSt3__112basic_stringIcNS_11char_traitsIcEENS_9allocatorIcEEE16__set_short_sizeEm",
   "parameters" :
   [
    {
     "is_this_ptr" : true,
     "referenced_type" : "_ZTIPNSt3__112basic_stringIcNS_11char_traitsIcEENS_9allocatorIcEEEE"
    },
    {
     "referenced_type" : "_ZTIm"
    }
   ],
   "return_type" : "_ZTIv",
   "source_file" : "external/libcxx/include/string"
  },
  {
   "access" : "private",
   "function_name" : "std::__1::basic_string<char, std::__1::char_traits<char>, std::__1::allocator<char>>::__get_long_pointer",
   "linker_set_key" : "_ZNSt3__112basic_stringIcNS_11char_traitsIcEENS_9allocatorIcEEE18__get_long_pointerEv",
   "parameters" :
   [
    {
     "is_this_ptr" : true,
     "referenced_type" : "_ZTIPNSt3__112basic_stringIcNS_11char_traitsIcEENS_9allocatorIcEEEE"
    }
   ],
   "return_type" : "_ZTIPc",
   "source_file" : "external/libcxx/include/string"
  },
  {
   "access" : "private",
   "function_name" : "std::__1::basic_string<char, std::__1::char_traits<char>, std::__1::allocator<char>>::__set_long_pointer",
   "linker_set_key" : "_ZNSt3__112basic_stringIcNS_11char_traitsIcEENS_9allocatorIcEEE18__set_long_pointerEPc",
   "parameters" :
   [
    {
     "is_this_ptr" : true,
     "referenced_type" : "_ZTIPNSt3__112basic_stringIcNS_11char_traitsIcEENS_9allocatorIcEEEE"
    },
    {
     "referenced_type" : "_ZTIPc"
    }
   ],
   "return_type" : "_ZTIv",
   "source_file" : "external/libcxx/include/string"
  },
  {
   "access" : "private",
   "function_name" : "std::__1::basic_string<char, std::__1::char_traits<char>, std::__1::allocator<char>>::__get_short_pointer",
   "linker_set_key" : "_ZNSt3__112basic_stringIcNS_11char_traitsIcEENS_9allocatorIcEEE19__get_short_pointerEv",
   "parameters" :
   [
    {
     "is_this_ptr" : true,
     "referenced_type" : "_ZTIPNSt3__112basic_stringIcNS_11char_traitsIcEENS_9allocatorIcEEEE"
    }
   ],
   "return_type" : "_ZTIPc",
   "source_file" : "external/libcxx/include/string"
  },
  {
   "access" : "private",
   "function_name" : "std::__1::basic_string<char, std::__1::char_traits<char>, std::__1::allocator<char>>::__init",
   "linker_set_key" : "_ZNSt3__112basic_stringIcNS_11char_traitsIcEENS_9allocatorIcEEE6__initEPKcm",
   "parameters" :
   [
    {
     "is_this_ptr" : true,
     "referenced_type" : "_ZTIPNSt3__112basic_stringIcNS_11char_traitsIcEENS_9allocatorIcEEEE"
    },
    {
     "referenced_type" : "_ZTIPKc"
    },
    {
     "referenced_type" : "_ZTIm"
    }
   ],
   "return_type" : "_ZTIv",
   "source_file" : "external/libcxx/include/string"
  },
  {
   "access" : "private",
   "function_name" : "std::__1::basic_string<char, std::__1::char_traits<char>, std::__1::allocator<char>>::__alloc",
   "linker_set_key" : "_ZNSt3__112basic_stringIcNS_11char_traitsIcEENS_9allocatorIcEEE7__allocEv",
   "parameters" :
   [
    {
     "is_this_ptr" : true,
     "referenced_type" : "_ZTIPNSt3__112basic_stringIcNS_11char_traitsIcEENS_9allocatorIcEEEE"
    }
   ],
   "return_type" : "_ZTIRNSt3__19allocatorIcEE",
   "source_file" : "external/libcxx/include/string"
  },
  {
   "function_name" : "std::__1::basic_string<char, std::__1::char_traits<char>, std::__1::allocator<char>>::basic_string",
   "linker_set_key" : "_ZNSt3__112basic_stringIcNS_11char_traitsIcEENS_9allocatorIcEEEC1EPKcm",
   "parameters" :
   [
    {
     "is_this_ptr" : true,
     "referenced_type" : "_ZTIPNSt3__112basic_stringIcNS_11char_traitsIcEENS_9allocatorIcEEEE"
    },
    {
     "referenced_type" : "_ZTIPKc"
    },
    {
     "referenced_type" : "_ZTIm"
    }
   ],
   "return_type" : "_ZTIv",
   "source_file" : "external/libcxx/include/string"
  },
  {
   "function_name" : "std::__1::basic_string<char, std::__1::char_traits<char>, std::__1::allocator<char>>::basic_string",
   "linker_set_key" : "_ZNSt3__112basic_stringIcNS_11char_traitsIcEENS_9allocatorIcEEEC2EPKcm",
   "parameters" :
   [
    {
     "is_this_ptr" : true,
     "referenced_type" : "_ZTIPNSt3__112basic_stringIcNS_11char_traitsIcEENS_9allocatorIcEEEE"
    },
    {
     "referenced_type" : "_ZTIPKc"
    },
    {
     "referenced_type" : "_ZTIm"
    }
   ],
   "return_type" : "_ZTIv",
   "source_file" : "external/libcxx/include/string"
  },
  {
   "function_name" : "std::__1::basic_string<char, std::__1::char_traits<char>, std::__1::allocator<char>>::~basic_string",
   "linker_set_key" : "_ZNSt3__112basic_stringIcNS_11char_traitsIcEENS_9allocatorIcEEED1Ev",
   "parameters" :
   [
    {
     "is_this_ptr" : true,
     "referenced_type" : "_ZTIPNSt3__112basic_stringIcNS_11char_traitsIcEENS_9allocatorIcEEEE"
    }
   ],
   "return_type" : "_ZTIv",
   "source_file" : "external/libcxx/include/string"
  },
  {
   "function_name" : "std::__1::basic_string<char, std::__1::char_traits<char>, std::__1::allocator<char>>::~basic_string",
   "linker_set_key" : "_ZNSt3__112basic_stringIcNS_11char_traitsIcEENS_9allocatorIcEEED2Ev",
   "parameters" :
   [
    {
     "is_this_ptr" : true,
     "referenced_type" : "_ZTIPNSt3__112basic_stringIcNS_11char_traitsIcEENS_9allocatorIcEEEE"
    }
   ],
   "return_type" : "_ZTIv",
   "source_file" : "external/libcxx/include/string"
  },
  {
   "access" : "private",
   "function_name" : "std::__1::basic_string<wchar_t, std::__1::char_traits<wchar_t>, std::__1::allocator<wchar_t>>::__align_it",
   "linker_set_key" : "_ZNSt3__112basic_stringIwNS_11char_traitsIwEENS_9allocatorIwEEE10__align_itILm4EEEmm",
   "parameters" :
   [
    {
     "referenced_type" : "_ZTIm"
    }
   ],
   "return_type" : "_ZTIm",
   "source_file" : "external/libcxx/include/string"
  },
  {
   "access" : "private",
   "function_name" : "std::__1::basic_string<wchar_t, std::__1::char_traits<wchar_t>, std::__1::allocator<wchar_t>>::__recommend",
   "linker_set_key" : "_ZNSt3__112basic_stringIwNS_11char_traitsIwEENS_9allocatorIwEEE11__recommendEm",
   "parameters" :
   [
    {
     "referenced_type" : "_ZTIm"
    }
   ],
   "return_type" : "_ZTIm",
   "source_file" : "external/libcxx/include/string"
  },
  {
   "access" : "private",
   "function_name" : "std::__1::basic_string<wchar_t, std::__1::char_traits<wchar_t>, std::__1::allocator<wchar_t>>::__set_long_cap",
   "linker_set_key" : "_ZNSt3__112basic_stringIwNS_11char_traitsIwEENS_9allocatorIwEEE14__set_long_capEm",
   "parameters" :
   [
    {
     "is_this_ptr" : true,
     "referenced_type" : "_ZTIPNSt3__112basic_stringIwNS_11char_traitsIwEENS_9allocatorIwEEEE"
    },
    {
     "referenced_type" : "_ZTIm"
    }
   ],
   "return_type" : "_ZTIv",
   "source_file" : "external/libcxx/include/string"
  },
  {
   "access" : "private",
   "function_name" : "std::__1::basic_string<wchar_t, std::__1::char_traits<wchar_t>, std::__1::allocator<wchar_t>>::__set_long_size",
   "linker_set_key" : "_ZNSt3__112basic_stringIwNS_11char_traitsIwEENS_9allocatorIwEEE15__set_long_sizeEm",
   "parameters" :
   [
    {
     "is_this_ptr" : true,
     "referenced_type" : "_ZTIPNSt3__112basic_stringIwNS_11char_traitsIwEENS_9allocatorIwEEEE"
    },
    {
     "referenced_type" : "_ZTIm"
    }
   ],
   "return_type" : "_ZTIv",
   "source_file" : "external/libcxx/include/string"
  },
  {
   "access" : "private",
   "function_name" : "std::__1::basic_string<wchar_t, std::__1::char_traits<wchar_t>, std::__1::allocator<wchar_t>>::__set_short_size",
   "linker_set_key" : "_ZNSt3__112basic_stringIwNS_11char_traitsIwEENS_9allocatorIwEEE16__set_short_sizeEm",
   "parameters" :
   [
    {
     "is_this_ptr" : true,
     "referenced_type" : "_ZTIPNSt3__112basic_stringIwNS_11char_traitsIwEENS_9allocatorIwEEEE"
    },
    {
     "referenced_type" : "_ZTIm"
    }
   ],
   "return_type" : "_ZTIv",
   "source_file" : "external/libcxx/include/string"
  },
  {
   "access" : "private",
   "function_name" : "std::__1::basic_string<wchar_t, std::__1::char_traits<wchar_t>, std::__1::allocator<wchar_t>>::__get_long_pointer",
   "linker_set_key" : "_ZNSt3__112basic_stringIwNS_11char_traitsIwEENS_9allocatorIwEEE18__get_long_pointerEv",
   "parameters" :
   [
    {
     "is_this_ptr" : true,
     "referenced_type" : "_ZTIPNSt3__112basic_stringIwNS_11char_traitsIwEENS_9allocatorIwEEEE"
    }
   ],
   "return_type" : "_ZTIPw",
   "source_file" : "external/libcxx/include/string"
  },
  {
   "access" : "private",
   "function_name" : "std::__1::basic_string<wchar_t, std::__1::char_traits<wchar_t>, std::__1::allocator<wchar_t>>::__set_long_pointer",
   "linker_set_key" : "_ZNSt3__112basic_stringIwNS_11char_traitsIwEENS_9allocatorIwEEE18__set_long_pointerEPw",
   "parameters" :
   [
    {
     "is_this_ptr" : true,
     "referenced_type" : "_ZTIPNSt3__112basic_stringIwNS_11char_traitsIwEENS_9allocatorIwEEEE"
    },
    {
     "referenced_type" : "_ZTIPw"
    }
   ],
   "return_type" : "_ZTIv",
   "source_file" : "external/libcxx/include/string"
  },
  {
   "access" : "private",
   "function_name" : "std::__1::basic_string<wchar_t, std::__1::char_traits<wchar_t>, std::__1::allocator<wchar_t>>::__get_short_pointer",
   "linker_set_key" : "_ZNSt3__112basic_stringIwNS_11char_traitsIwEENS_9allocatorIwEEE19__get_short_pointerEv",
   "parameters" :
   [
    {
     "is_this_ptr" : true,
     "referenced_type" : "_ZTIPNSt3__112basic_stringIwNS_11char_traitsIwEENS_9allocatorIwEEEE"
    }
   ],
   "return_type" : "_ZTIPw",
   "source_file" : "external/libcxx/include/string"
  },
  {
   "access" : "private",
   "function_name" : "std::__1::basic_string<wchar_t, std::__1::char_traits<wchar_t>, std::__1::allocator<wchar_t>>::__init",
   "linker_set_key" : "_ZNSt3__112basic_stringIwNS_11char_traitsIwEENS_9allocatorIwEEE6__initEPKwm",
   "parameters" :
   [
    {
     "is_this_ptr" : true,
     "referenced_type" : "_ZTIPNSt3__112basic_stringIwNS_11char_traitsIwEENS_9allocatorIwEEEE"
    },
    {
     "referenced_type" : "_ZTIPKw"
    },
    {
     "referenced_type" : "_ZTIm"
    }
   ],
   "return_type" : "_ZTIv",
   "source_file" : "external/libcxx/include/string"
  },
  {
   "access" : "private",
   "function_name" : "std::__1::basic_string<wchar_t, std::__1::char_traits<wchar_t>, std::__1::allocator<wchar_t>>::__alloc",
   "linker_set_key" : "_ZNSt3__112basic_stringIwNS_11char_traitsIwEENS_9allocatorIwEEE7__allocEv",
   "parameters" :
   [
    {
     "is_this_ptr" : true,
     "referenced_type" : "_ZTIPNSt3__112basic_stringIwNS_11char_traitsIwEENS_9allocatorIwEEEE"
    }
   ],
   "return_type" : "_ZTIRNSt3__19allocatorIwEE",
   "source_file" : "external/libcxx/include/string"
  },
  {
   "function_name" : "std::__1::basic_string<wchar_t, std::__1::char_traits<wchar_t>, std::__1::allocator<wchar_t>>::basic_string",
   "linker_set_key" : "_ZNSt3__112basic_stringIwNS_11char_traitsIwEENS_9allocatorIwEEEC1EPKwm",
   "parameters" :
   [
    {
     "is_this_ptr" : true,
     "referenced_type" : "_ZTIPNSt3__112basic_stringIwNS_11char_traitsIwEENS_9allocatorIwEEEE"
    },
    {
     "referenced_type" : "_ZTIPKw"
    },
    {
     "referenced_type" : "_ZTIm"
    }
   ],
   "return_type" : "_ZTIv",
   "source_file" : "external/libcxx/include/string"
  },
  {
   "function_name" : "std::__1::basic_string<wchar_t, std::__1::char_traits<wchar_t>, std::__1::allocator<wchar_t>>::basic_string",
   "linker_set_key" : "_ZNSt3__112basic_stringIwNS_11char_traitsIwEENS_9allocatorIwEEEC2EPKwm",
   "parameters" :
   [
    {
     "is_this_ptr" : true,
     "referenced_type" : "_ZTIPNSt3__112basic_stringIwNS_11char_traitsIwEENS_9allocatorIwEEEE"
    },
    {
     "referenced_type" : "_ZTIPKw"
    },
    {
     "referenced_type" : "_ZTIm"
    }
   ],
   "return_type" : "_ZTIv",
   "source_file" : "external/libcxx/include/string"
  },
  {
   "function_name" : "std::__1::basic_string<wchar_t, std::__1::char_traits<wchar_t>, std::__1::allocator<wchar_t>>::~basic_string",
   "linker_set_key" : "_ZNSt3__112basic_stringIwNS_11char_traitsIwEENS_9allocatorIwEEED1Ev",
   "parameters" :
   [
    {
     "is_this_ptr" : true,
     "referenced_type" : "_ZTIPNSt3__112basic_stringIwNS_11char_traitsIwEENS_9allocatorIwEEEE"
    }
   ],
   "return_type" : "_ZTIv",
   "source_file" : "external/libcxx/include/string"
  },
  {
   "function_name" : "std::__1::basic_string<wchar_t, std::__1::char_traits<wchar_t>, std::__1::allocator<wchar_t>>::~basic_string",
   "linker_set_key" : "_ZNSt3__112basic_stringIwNS_11char_traitsIwEENS_9allocatorIwEEED2Ev",
   "parameters" :
   [
    {
     "is_this_ptr" : true,
     "referenced_type" : "_ZTIPNSt3__112basic_stringIwNS_11char_traitsIwEENS_9allocatorIwEEEE"
    }
   ],
   "return_type" : "_ZTIv",
   "source_file" : "external/libcxx/include/string"
  },
  {
   "function_name" : "std::__1::__atomic_base<gemmlowp::Worker::State, false>::store",
   "linker_set_key" : "_ZNSt3__113__atomic_baseIN8gemmlowp6Worker5StateELb0EE5storeES3_NS_12memory_orderE",
   "parameters" :
   [
    {
     "is_this_ptr" : true,
     "referenced_type" : "_ZTIPNSt3__113__atomic_baseIN8gemmlowp6Worker5StateELb0EEE"
    },
    {
     "referenced_type" : "_ZTIN8gemmlowp6Worker5StateE"
    },
    {
     "default_arg" : true,
     "referenced_type" : "_ZTINSt3__112memory_orderE"
    }
   ],
   "return_type" : "_ZTIv",
   "source_file" : "external/libcxx/include/atomic"
  },
  {
   "function_name" : "std::__1::__atomic_base<gemmlowp::Worker::State, false>::__atomic_base",
   "linker_set_key" : "_ZNSt3__113__atomic_baseIN8gemmlowp6Worker5StateELb0EEC1ES3_",
   "parameters" :
   [
    {
     "is_this_ptr" : true,
     "referenced_type" : "_ZTIPNSt3__113__atomic_baseIN8gemmlowp6Worker5StateELb0EEE"
    },
    {
     "referenced_type" : "_ZTIN8gemmlowp6Worker5StateE"
    }
   ],
   "return_type" : "_ZTIv",
   "source_file" : "external/libcxx/include/atomic"
  },
  {
   "function_name" : "std::__1::__atomic_base<gemmlowp::Worker::State, false>::__atomic_base",
   "linker_set_key" : "_ZNSt3__113__atomic_baseIN8gemmlowp6Worker5StateELb0EEC1Ev",
   "parameters" :
   [
    {
     "is_this_ptr" : true,
     "referenced_type" : "_ZTIPNSt3__113__atomic_baseIN8gemmlowp6Worker5StateELb0EEE"
    }
   ],
   "return_type" : "_ZTIv",
   "source_file" : "external/libcxx/include/atomic"
  },
  {
   "function_name" : "std::__1::__atomic_base<gemmlowp::Worker::State, false>::__atomic_base",
   "linker_set_key" : "_ZNSt3__113__atomic_baseIN8gemmlowp6Worker5StateELb0EEC2ES3_",
   "parameters" :
   [
    {
     "is_this_ptr" : true,
     "referenced_type" : "_ZTIPNSt3__113__atomic_baseIN8gemmlowp6Worker5StateELb0EEE"
    },
    {
     "referenced_type" : "_ZTIN8gemmlowp6Worker5StateE"
    }
   ],
   "return_type" : "_ZTIv",
   "source_file" : "external/libcxx/include/atomic"
  },
  {
   "function_name" : "std::__1::__atomic_base<gemmlowp::Worker::State, false>::__atomic_base",
   "linker_set_key" : "_ZNSt3__113__atomic_baseIN8gemmlowp6Worker5StateELb0EEC2Ev",
   "parameters" :
   [
    {
     "is_this_ptr" : true,
     "referenced_type" : "_ZTIPNSt3__113__atomic_baseIN8gemmlowp6Worker5StateELb0EEE"
    }
   ],
   "return_type" : "_ZTIv",
   "source_file" : "external/libcxx/include/atomic"
  },
  {
   "function_name" : "std::__1::__atomic_base<unsigned long, false>::store",
   "linker_set_key" : "_ZNSt3__113__atomic_baseImLb0EE5storeEmNS_12memory_orderE",
   "parameters" :
   [
    {
     "is_this_ptr" : true,
     "referenced_type" : "_ZTIPNSt3__113__atomic_baseImLb0EEE"
    },
    {
     "referenced_type" : "_ZTIm"
    },
    {
     "default_arg" : true,
     "referenced_type" : "_ZTINSt3__112memory_orderE"
    }
   ],
   "return_type" : "_ZTIv",
   "source_file" : "external/libcxx/include/atomic"
  },
  {
   "function_name" : "std::__1::__atomic_base<unsigned long, false>::__atomic_base",
   "linker_set_key" : "_ZNSt3__113__atomic_baseImLb0EEC1Em",
   "parameters" :
   [
    {
     "is_this_ptr" : true,
     "referenced_type" : "_ZTIPNSt3__113__atomic_baseImLb0EEE"
    },
    {
     "referenced_type" : "_ZTIm"
    }
   ],
   "return_type" : "_ZTIv",
   "source_file" : "external/libcxx/include/atomic"
  },
  {
   "function_name" : "std::__1::__atomic_base<unsigned long, false>::__atomic_base",
   "linker_set_key" : "_ZNSt3__113__atomic_baseImLb0EEC1Ev",
   "parameters" :
   [
    {
     "is_this_ptr" : true,
     "referenced_type" : "_ZTIPNSt3__113__atomic_baseImLb0EEE"
    }
   ],
   "return_type" : "_ZTIv",
   "source_file" : "external/libcxx/include/atomic"
  },
  {
   "function_name" : "std::__1::__atomic_base<unsigned long, false>::__atomic_base",
   "linker_set_key" : "_ZNSt3__113__atomic_baseImLb0EEC2Em",
   "parameters" :
   [
    {
     "is_this_ptr" : true,
     "referenced_type" : "_ZTIPNSt3__113__atomic_baseImLb0EEE"
    },
    {
     "referenced_type" : "_ZTIm"
    }
   ],
   "return_type" : "_ZTIv",
   "source_file" : "external/libcxx/include/atomic"
  },
  {
   "function_name" : "std::__1::__atomic_base<unsigned long, false>::__atomic_base",
   "linker_set_key" : "_ZNSt3__113__atomic_baseImLb0EEC2Ev",
   "parameters" :
   [
    {
     "is_this_ptr" : true,
     "referenced_type" : "_ZTIPNSt3__113__atomic_baseImLb0EEE"
    }
   ],
   "return_type" : "_ZTIv",
   "source_file" : "external/libcxx/include/atomic"
  },
  {
   "function_name" : "std::__1::__atomic_base<unsigned long, true>::fetch_sub",
   "linker_set_key" : "_ZNSt3__113__atomic_baseImLb1EE9fetch_subEmNS_12memory_orderE",
   "parameters" :
   [
    {
     "is_this_ptr" : true,
     "referenced_type" : "_ZTIPNSt3__113__atomic_baseImLb1EEE"
    },
    {
     "referenced_type" : "_ZTIm"
    },
    {
     "default_arg" : true,
     "referenced_type" : "_ZTINSt3__112memory_orderE"
    }
   ],
   "return_type" : "_ZTIm",
   "source_file" : "external/libcxx/include/atomic"
  },
  {
   "function_name" : "std::__1::__atomic_base<unsigned long, true>::__atomic_base",
   "linker_set_key" : "_ZNSt3__113__atomic_baseImLb1EEC1Em",
   "parameters" :
   [
    {
     "is_this_ptr" : true,
     "referenced_type" : "_ZTIPNSt3__113__atomic_baseImLb1EEE"
    },
    {
     "referenced_type" : "_ZTIm"
    }
   ],
   "return_type" : "_ZTIv",
   "source_file" : "external/libcxx/include/atomic"
  },
  {
   "function_name" : "std::__1::__atomic_base<unsigned long, true>::__atomic_base",
   "linker_set_key" : "_ZNSt3__113__atomic_baseImLb1EEC1Ev",
   "parameters" :
   [
    {
     "is_this_ptr" : true,
     "referenced_type" : "_ZTIPNSt3__113__atomic_baseImLb1EEE"
    }
   ],
   "return_type" : "_ZTIv",
   "source_file" : "external/libcxx/include/atomic"
  },
  {
   "function_name" : "std::__1::__atomic_base<unsigned long, true>::__atomic_base",
   "linker_set_key" : "_ZNSt3__113__atomic_baseImLb1EEC2Em",
   "parameters" :
   [
    {
     "is_this_ptr" : true,
     "referenced_type" : "_ZTIPNSt3__113__atomic_baseImLb1EEE"
    },
    {
     "referenced_type" : "_ZTIm"
    }
   ],
   "return_type" : "_ZTIv",
   "source_file" : "external/libcxx/include/atomic"
  },
  {
   "function_name" : "std::__1::__atomic_base<unsigned long, true>::__atomic_base",
   "linker_set_key" : "_ZNSt3__113__atomic_baseImLb1EEC2Ev",
   "parameters" :
   [
    {
     "is_this_ptr" : true,
     "referenced_type" : "_ZTIPNSt3__113__atomic_baseImLb1EEE"
    }
   ],
   "return_type" : "_ZTIv",
   "source_file" : "external/libcxx/include/atomic"
  },
  {
   "function_name" : "std::__1::__find_detail::__find_idx_return",
   "linker_set_key" : "_ZNSt3__113__find_detail17__find_idx_returnEmmb",
   "parameters" :
   [
    {
     "referenced_type" : "_ZTIm"
    },
    {
     "referenced_type" : "_ZTIm"
    },
    {
     "referenced_type" : "_ZTIb"
    }
   ],
   "return_type" : "_ZTIm",
   "source_file" : "external/libcxx/include/tuple"
  },
  {
   "access" : "protected",
   "function_name" : "std::__1::__vector_base<gemmlowp::Worker *, std::__1::allocator<gemmlowp::Worker *>>::__destruct_at_end",
   "linker_set_key" : "_ZNSt3__113__vector_baseIPN8gemmlowp6WorkerENS_9allocatorIS3_EEE17__destruct_at_endEPS3_",
   "parameters" :
   [
    {
     "is_this_ptr" : true,
     "referenced_type" : "_ZTIPNSt3__113__vector_baseIPN8gemmlowp6WorkerENS_9allocatorIS3_EEEE"
    },
    {
     "referenced_type" : "_ZTIPPN8gemmlowp6WorkerE"
    }
   ],
   "return_type" : "_ZTIv",
   "source_file" : "external/libcxx/include/vector"
  },
  {
   "access" : "protected",
   "function_name" : "std::__1::__vector_base<gemmlowp::Worker *, std::__1::allocator<gemmlowp::Worker *>>::clear",
   "linker_set_key" : "_ZNSt3__113__vector_baseIPN8gemmlowp6WorkerENS_9allocatorIS3_EEE5clearEv",
   "parameters" :
   [
    {
     "is_this_ptr" : true,
     "referenced_type" : "_ZTIPNSt3__113__vector_baseIPN8gemmlowp6WorkerENS_9allocatorIS3_EEEE"
    }
   ],
   "return_type" : "_ZTIv",
   "source_file" : "external/libcxx/include/vector"
  },
  {
   "access" : "protected",
   "function_name" : "std::__1::__vector_base<gemmlowp::Worker *, std::__1::allocator<gemmlowp::Worker *>>::__alloc",
   "linker_set_key" : "_ZNSt3__113__vector_baseIPN8gemmlowp6WorkerENS_9allocatorIS3_EEE7__allocEv",
   "parameters" :
   [
    {
     "is_this_ptr" : true,
     "referenced_type" : "_ZTIPNSt3__113__vector_baseIPN8gemmlowp6WorkerENS_9allocatorIS3_EEEE"
    }
   ],
   "return_type" : "_ZTIRNSt3__19allocatorIPN8gemmlowp6WorkerEEE",
   "source_file" : "external/libcxx/include/vector"
  },
  {
   "access" : "protected",
   "function_name" : "std::__1::__vector_base<gemmlowp::Worker *, std::__1::allocator<gemmlowp::Worker *>>::__end_cap",
   "linker_set_key" : "_ZNSt3__113__vector_baseIPN8gemmlowp6WorkerENS_9allocatorIS3_EEE9__end_capEv",
   "parameters" :
   [
    {
     "is_this_ptr" : true,
     "referenced_type" : "_ZTIPNSt3__113__vector_baseIPN8gemmlowp6WorkerENS_9allocatorIS3_EEEE"
    }
   ],
   "return_type" : "_ZTIRPPN8gemmlowp6WorkerE",
   "source_file" : "external/libcxx/include/vector"
  },
  {
   "access" : "protected",
   "function_name" : "std::__1::__vector_base<gemmlowp::Worker *, std::__1::allocator<gemmlowp::Worker *>>::__vector_base",
   "linker_set_key" : "_ZNSt3__113__vector_baseIPN8gemmlowp6WorkerENS_9allocatorIS3_EEEC1Ev",
   "parameters" :
   [
    {
     "is_this_ptr" : true,
     "referenced_type" : "_ZTIPNSt3__113__vector_baseIPN8gemmlowp6WorkerENS_9allocatorIS3_EEEE"
    }
   ],
   "return_type" : "_ZTIv",
   "source_file" : "external/libcxx/include/vector"
  },
  {
   "access" : "protected",
   "function_name" : "std::__1::__vector_base<gemmlowp::Worker *, std::__1::allocator<gemmlowp::Worker *>>::__vector_base",
   "linker_set_key" : "_ZNSt3__113__vector_baseIPN8gemmlowp6WorkerENS_9allocatorIS3_EEEC2Ev",
   "parameters" :
   [
    {
     "is_this_ptr" : true,
     "referenced_type" : "_ZTIPNSt3__113__vector_baseIPN8gemmlowp6WorkerENS_9allocatorIS3_EEEE"
    }
   ],
   "return_type" : "_ZTIv",
   "source_file" : "external/libcxx/include/vector"
  },
  {
   "access" : "protected",
   "function_name" : "std::__1::__vector_base<gemmlowp::Worker *, std::__1::allocator<gemmlowp::Worker *>>::~__vector_base",
   "linker_set_key" : "_ZNSt3__113__vector_baseIPN8gemmlowp6WorkerENS_9allocatorIS3_EEED1Ev",
   "parameters" :
   [
    {
     "is_this_ptr" : true,
     "referenced_type" : "_ZTIPNSt3__113__vector_baseIPN8gemmlowp6WorkerENS_9allocatorIS3_EEEE"
    }
   ],
   "return_type" : "_ZTIv",
   "source_file" : "external/libcxx/include/vector"
  },
  {
   "access" : "protected",
   "function_name" : "std::__1::__vector_base<gemmlowp::Worker *, std::__1::allocator<gemmlowp::Worker *>>::~__vector_base",
   "linker_set_key" : "_ZNSt3__113__vector_baseIPN8gemmlowp6WorkerENS_9allocatorIS3_EEED2Ev",
   "parameters" :
   [
    {
     "is_this_ptr" : true,
     "referenced_type" : "_ZTIPNSt3__113__vector_baseIPN8gemmlowp6WorkerENS_9allocatorIS3_EEEE"
    }
   ],
   "return_type" : "_ZTIv",
   "source_file" : "external/libcxx/include/vector"
  },
  {
   "function_name" : "std::__1::__hash_combine",
   "linker_set_key" : "_ZNSt3__114__hash_combineEmm",
   "parameters" :
   [
    {
     "referenced_type" : "_ZTIm"
    },
    {
     "referenced_type" : "_ZTIm"
    }
   ],
   "return_type" : "_ZTIm",
   "source_file" : "external/libcxx/include/utility"
  },
  {
   "function_name" : "std::__1::__shared_count::__add_shared",
   "linker_set_key" : "_ZNSt3__114__shared_count12__add_sharedEv",
   "parameters" :
   [
    {
     "is_this_ptr" : true,
     "referenced_type" : "_ZTIPNSt3__114__shared_countE"
    }
   ],
   "return_type" : "_ZTIv",
   "source_file" : "external/libcxx/include/memory"
  },
  {
   "function_name" : "std::__1::__shared_count::__release_shared",
   "linker_set_key" : "_ZNSt3__114__shared_count16__release_sharedEv",
   "parameters" :
   [
    {
     "is_this_ptr" : true,
     "referenced_type" : "_ZTIPNSt3__114__shared_countE"
    }
   ],
   "return_type" : "_ZTIb",
   "source_file" : "external/libcxx/include/memory"
  },
  {
   "function_name" : "std::__1::__shared_count::__shared_count",
   "linker_set_key" : "_ZNSt3__114__shared_countC2El",
   "parameters" :
   [
    {
     "is_this_ptr" : true,
     "referenced_type" : "_ZTIPNSt3__114__shared_countE"
    },
    {
     "default_arg" : true,
     "referenced_type" : "_ZTIl"
    }
   ],
   "return_type" : "_ZTIv",
   "source_file" : "external/libcxx/include/memory"
  },
  {
   "function_name" : "std::__1::__split_buffer<gemmlowp::Worker *, std::__1::allocator<gemmlowp::Worker *> &>::__destruct_at_end",
   "linker_set_key" : "_ZNSt3__114__split_bufferIPN8gemmlowp6WorkerERNS_9allocatorIS3_EEE17__destruct_at_endEPS3_",
   "parameters" :
   [
    {
     "is_this_ptr" : true,
     "referenced_type" : "_ZTIPNSt3__114__split_bufferIPN8gemmlowp6WorkerERNS_9allocatorIS3_EEEE"
    },
    {
     "referenced_type" : "_ZTIPPN8gemmlowp6WorkerE"
    }
   ],
   "return_type" : "_ZTIv",
   "source_file" : "external/libcxx/include/__split_buffer"
  },
  {
   "function_name" : "std::__1::__split_buffer<gemmlowp::Worker *, std::__1::allocator<gemmlowp::Worker *> &>::__destruct_at_end",
   "linker_set_key" : "_ZNSt3__114__split_bufferIPN8gemmlowp6WorkerERNS_9allocatorIS3_EEE17__destruct_at_endEPS3_NS_17integral_constantIbLb0EEE",
   "parameters" :
   [
    {
     "is_this_ptr" : true,
     "referenced_type" : "_ZTIPNSt3__114__split_bufferIPN8gemmlowp6WorkerERNS_9allocatorIS3_EEEE"
    },
    {
     "referenced_type" : "_ZTIPPN8gemmlowp6WorkerE"
    },
    {
     "referenced_type" : "_ZTINSt3__117integral_constantIbLb0EEE"
    }
   ],
   "return_type" : "_ZTIv",
   "source_file" : "external/libcxx/include/__split_buffer"
  },
  {
   "function_name" : "std::__1::__split_buffer<gemmlowp::Worker *, std::__1::allocator<gemmlowp::Worker *> &>::clear",
   "linker_set_key" : "_ZNSt3__114__split_bufferIPN8gemmlowp6WorkerERNS_9allocatorIS3_EEE5clearEv",
   "parameters" :
   [
    {
     "is_this_ptr" : true,
     "referenced_type" : "_ZTIPNSt3__114__split_bufferIPN8gemmlowp6WorkerERNS_9allocatorIS3_EEEE"
    }
   ],
   "return_type" : "_ZTIv",
   "source_file" : "external/libcxx/include/__split_buffer"
  },
  {
   "function_name" : "std::__1::__split_buffer<gemmlowp::Worker *, std::__1::allocator<gemmlowp::Worker *> &>::__alloc",
   "linker_set_key" : "_ZNSt3__114__split_bufferIPN8gemmlowp6WorkerERNS_9allocatorIS3_EEE7__allocEv",
   "parameters" :
   [
    {
     "is_this_ptr" : true,
     "referenced_type" : "_ZTIPNSt3__114__split_bufferIPN8gemmlowp6WorkerERNS_9allocatorIS3_EEEE"
    }
   ],
   "return_type" : "_ZTIRNSt3__19allocatorIPN8gemmlowp6WorkerEEE",
   "source_file" : "external/libcxx/include/__split_buffer"
  },
  {
   "function_name" : "std::__1::__split_buffer<gemmlowp::Worker *, std::__1::allocator<gemmlowp::Worker *> &>::__end_cap",
   "linker_set_key" : "_ZNSt3__114__split_bufferIPN8gemmlowp6WorkerERNS_9allocatorIS3_EEE9__end_capEv",
   "parameters" :
   [
    {
     "is_this_ptr" : true,
     "referenced_type" : "_ZTIPNSt3__114__split_bufferIPN8gemmlowp6WorkerERNS_9allocatorIS3_EEEE"
    }
   ],
   "return_type" : "_ZTIRPPN8gemmlowp6WorkerE",
   "source_file" : "external/libcxx/include/__split_buffer"
  },
  {
   "function_name" : "std::__1::__split_buffer<gemmlowp::Worker *, std::__1::allocator<gemmlowp::Worker *> &>::__split_buffer",
   "linker_set_key" : "_ZNSt3__114__split_bufferIPN8gemmlowp6WorkerERNS_9allocatorIS3_EEEC1EmmS6_",
   "parameters" :
   [
    {
     "is_this_ptr" : true,
     "referenced_type" : "_ZTIPNSt3__114__split_bufferIPN8gemmlowp6WorkerERNS_9allocatorIS3_EEEE"
    },
    {
     "referenced_type" : "_ZTIm"
    },
    {
     "referenced_type" : "_ZTIm"
    },
    {
     "referenced_type" : "_ZTIRNSt3__19allocatorIPN8gemmlowp6WorkerEEE"
    }
   ],
   "return_type" : "_ZTIv",
   "source_file" : "external/libcxx/include/__split_buffer"
  },
  {
   "function_name" : "std::__1::__split_buffer<gemmlowp::Worker *, std::__1::allocator<gemmlowp::Worker *> &>::__split_buffer",
   "linker_set_key" : "_ZNSt3__114__split_bufferIPN8gemmlowp6WorkerERNS_9allocatorIS3_EEEC2EmmS6_",
   "parameters" :
   [
    {
     "is_this_ptr" : true,
     "referenced_type" : "_ZTIPNSt3__114__split_bufferIPN8gemmlowp6WorkerERNS_9allocatorIS3_EEEE"
    },
    {
     "referenced_type" : "_ZTIm"
    },
    {
     "referenced_type" : "_ZTIm"
    },
    {
     "referenced_type" : "_ZTIRNSt3__19allocatorIPN8gemmlowp6WorkerEEE"
    }
   ],
   "return_type" : "_ZTIv",
   "source_file" : "external/libcxx/include/__split_buffer"
  },
  {
   "function_name" : "std::__1::__split_buffer<gemmlowp::Worker *, std::__1::allocator<gemmlowp::Worker *> &>::~__split_buffer",
   "linker_set_key" : "_ZNSt3__114__split_bufferIPN8gemmlowp6WorkerERNS_9allocatorIS3_EEED1Ev",
   "parameters" :
   [
    {
     "is_this_ptr" : true,
     "referenced_type" : "_ZTIPNSt3__114__split_bufferIPN8gemmlowp6WorkerERNS_9allocatorIS3_EEEE"
    }
   ],
   "return_type" : "_ZTIv",
   "source_file" : "external/libcxx/include/__split_buffer"
  },
  {
   "function_name" : "std::__1::__split_buffer<gemmlowp::Worker *, std::__1::allocator<gemmlowp::Worker *> &>::~__split_buffer",
   "linker_set_key" : "_ZNSt3__114__split_bufferIPN8gemmlowp6WorkerERNS_9allocatorIS3_EEED2Ev",
   "parameters" :
   [
    {
     "is_this_ptr" : true,
     "referenced_type" : "_ZTIPNSt3__114__split_bufferIPN8gemmlowp6WorkerERNS_9allocatorIS3_EEEE"
    }
   ],
   "return_type" : "_ZTIv",
   "source_file" : "external/libcxx/include/__split_buffer"
  },
  {
   "function_name" : "std::__1::default_delete<ruy::Context>::default_delete",
   "linker_set_key" : "_ZNSt3__114default_deleteIN3ruy7ContextEEC1Ev",
   "parameters" :
   [
    {
     "is_this_ptr" : true,
     "referenced_type" : "_ZTIPNSt3__114default_deleteIN3ruy7ContextEEE"
    }
   ],
   "return_type" : "_ZTIv",
   "source_file" : "external/libcxx/include/memory"
  },
  {
   "function_name" : "std::__1::default_delete<ruy::Context>::default_delete",
   "linker_set_key" : "_ZNSt3__114default_deleteIN3ruy7ContextEEC2Ev",
   "parameters" :
   [
    {
     "is_this_ptr" : true,
     "referenced_type" : "_ZTIPNSt3__114default_deleteIN3ruy7ContextEEE"
    }
   ],
   "return_type" : "_ZTIv",
   "source_file" : "external/libcxx/include/memory"
  },
  {
   "function_name" : "std::__1::default_delete<tflite::TfLiteInternalBackendContext>::default_delete",
   "linker_set_key" : "_ZNSt3__114default_deleteIN6tflite28TfLiteInternalBackendContextEEC1Ev",
   "parameters" :
   [
    {
     "is_this_ptr" : true,
     "referenced_type" : "_ZTIPNSt3__114default_deleteIN6tflite28TfLiteInternalBackendContextEEE"
    }
   ],
   "return_type" : "_ZTIv",
   "source_file" : "external/libcxx/include/memory"
  },
  {
   "function_name" : "std::__1::default_delete<tflite::TfLiteInternalBackendContext>::default_delete",
   "linker_set_key" : "_ZNSt3__114default_deleteIN6tflite28TfLiteInternalBackendContextEEC2Ev",
   "parameters" :
   [
    {
     "is_this_ptr" : true,
     "referenced_type" : "_ZTIPNSt3__114default_deleteIN6tflite28TfLiteInternalBackendContextEEE"
    }
   ],
   "return_type" : "_ZTIv",
   "source_file" : "external/libcxx/include/memory"
  },
  {
   "function_name" : "std::__1::default_delete<gemmlowp::GemmContext>::default_delete",
   "linker_set_key" : "_ZNSt3__114default_deleteIN8gemmlowp11GemmContextEEC1Ev",
   "parameters" :
   [
    {
     "is_this_ptr" : true,
     "referenced_type" : "_ZTIPNSt3__114default_deleteIN8gemmlowp11GemmContextEEE"
    }
   ],
   "return_type" : "_ZTIv",
   "source_file" : "external/libcxx/include/memory"
  },
  {
   "function_name" : "std::__1::default_delete<gemmlowp::GemmContext>::default_delete",
   "linker_set_key" : "_ZNSt3__114default_deleteIN8gemmlowp11GemmContextEEC2Ev",
   "parameters" :
   [
    {
     "is_this_ptr" : true,
     "referenced_type" : "_ZTIPNSt3__114default_deleteIN8gemmlowp11GemmContextEEE"
    }
   ],
   "return_type" : "_ZTIv",
   "source_file" : "external/libcxx/include/memory"
  },
  {
   "function_name" : "std::__1::default_delete<std::__1::__thread_struct>::default_delete",
   "linker_set_key" : "_ZNSt3__114default_deleteINS_15__thread_structEEC1Ev",
   "parameters" :
   [
    {
     "is_this_ptr" : true,
     "referenced_type" : "_ZTIPNSt3__114default_deleteINS_15__thread_structEEE"
    }
   ],
   "return_type" : "_ZTIv",
   "source_file" : "external/libcxx/include/memory"
  },
  {
   "function_name" : "std::__1::default_delete<std::__1::__thread_struct>::default_delete",
   "linker_set_key" : "_ZNSt3__114default_deleteINS_15__thread_structEEC2Ev",
   "parameters" :
   [
    {
     "is_this_ptr" : true,
     "referenced_type" : "_ZTIPNSt3__114default_deleteINS_15__thread_structEEE"
    }
   ],
   "return_type" : "_ZTIv",
   "source_file" : "external/libcxx/include/memory"
  },
  {
   "function_name" : "std::__1::error_category::error_category",
   "linker_set_key" : "_ZNSt3__114error_categoryC2Ev",
   "parameters" :
   [
    {
     "is_this_ptr" : true,
     "referenced_type" : "_ZTIPNSt3__114error_categoryE"
    }
   ],
   "return_type" : "_ZTIv",
   "source_file" : "external/libcxx/include/system_error"
  },
  {
   "function_name" : "std::__1::numeric_limits<signed char>::max",
   "linker_set_key" : "_ZNSt3__114numeric_limitsIaE3maxEv",
   "return_type" : "_ZTIa",
   "source_file" : "external/libcxx/include/limits"
  },
  {
   "function_name" : "std::__1::numeric_limits<signed char>::min",
   "linker_set_key" : "_ZNSt3__114numeric_limitsIaE3minEv",
   "return_type" : "_ZTIa",
   "source_file" : "external/libcxx/include/limits"
  },
  {
   "function_name" : "std::__1::numeric_limits<int>::max",
   "linker_set_key" : "_ZNSt3__114numeric_limitsIiE3maxEv",
   "return_type" : "_ZTIi",
   "source_file" : "external/libcxx/include/limits"
  },
  {
   "function_name" : "std::__1::numeric_limits<int>::min",
   "linker_set_key" : "_ZNSt3__114numeric_limitsIiE3minEv",
   "return_type" : "_ZTIi",
   "source_file" : "external/libcxx/include/limits"
  },
  {
   "function_name" : "std::__1::numeric_limits<long>::max",
   "linker_set_key" : "_ZNSt3__114numeric_limitsIlE3maxEv",
   "return_type" : "_ZTIl",
   "source_file" : "external/libcxx/include/limits"
  },
  {
   "function_name" : "std::__1::numeric_limits<unsigned long>::max",
   "linker_set_key" : "_ZNSt3__114numeric_limitsImE3maxEv",
   "return_type" : "_ZTIm",
   "source_file" : "external/libcxx/include/limits"
  },
  {
   "function_name" : "std::__1::numeric_limits<short>::max",
   "linker_set_key" : "_ZNSt3__114numeric_limitsIsE3maxEv",
   "return_type" : "_ZTIs",
   "source_file" : "external/libcxx/include/limits"
  },
  {
   "function_name" : "std::__1::numeric_limits<short>::min",
   "linker_set_key" : "_ZNSt3__114numeric_limitsIsE3minEv",
   "return_type" : "_ZTIs",
   "source_file" : "external/libcxx/include/limits"
  },
  {
   "function_name" : "std::__1::numeric_limits<long long>::max",
   "linker_set_key" : "_ZNSt3__114numeric_limitsIxE3maxEv",
   "return_type" : "_ZTIx",
   "source_file" : "external/libcxx/include/limits"
  },
  {
   "function_name" : "std::__1::pointer_safety::pointer_safety",
   "linker_set_key" : "_ZNSt3__114pointer_safetyC1ENS0_4__lxE",
   "parameters" :
   [
    {
     "is_this_ptr" : true,
     "referenced_type" : "_ZTIPNSt3__114pointer_safetyE"
    },
    {
     "referenced_type" : "_ZTINSt3__114pointer_safety4__lxE"
    }
   ],
   "return_type" : "_ZTIv",
   "source_file" : "external/libcxx/include/memory"
  },
  {
   "function_name" : "std::__1::pointer_safety::pointer_safety",
   "linker_set_key" : "_ZNSt3__114pointer_safetyC1Ev",
   "parameters" :
   [
    {
     "is_this_ptr" : true,
     "referenced_type" : "_ZTIPNSt3__114pointer_safetyE"
    }
   ],
   "return_type" : "_ZTIv",
   "source_file" : "external/libcxx/include/memory"
  },
  {
   "function_name" : "std::__1::pointer_safety::pointer_safety",
   "linker_set_key" : "_ZNSt3__114pointer_safetyC2ENS0_4__lxE",
   "parameters" :
   [
    {
     "is_this_ptr" : true,
     "referenced_type" : "_ZTIPNSt3__114pointer_safetyE"
    },
    {
     "referenced_type" : "_ZTINSt3__114pointer_safety4__lxE"
    }
   ],
   "return_type" : "_ZTIv",
   "source_file" : "external/libcxx/include/memory"
  },
  {
   "function_name" : "std::__1::pointer_safety::pointer_safety",
   "linker_set_key" : "_ZNSt3__114pointer_safetyC2Ev",
   "parameters" :
   [
    {
     "is_this_ptr" : true,
     "referenced_type" : "_ZTIPNSt3__114pointer_safetyE"
    }
   ],
   "return_type" : "_ZTIv",
   "source_file" : "external/libcxx/include/memory"
  },
  {
   "function_name" : "std::__1::pointer_traits<char32_t *>::pointer_to",
   "linker_set_key" : "_ZNSt3__114pointer_traitsIPDiE10pointer_toERDi",
   "parameters" :
   [
    {
     "referenced_type" : "_ZTIRDi"
    }
   ],
   "return_type" : "_ZTIPDi",
   "source_file" : "external/libcxx/include/memory"
  },
  {
   "function_name" : "std::__1::pointer_traits<char16_t *>::pointer_to",
   "linker_set_key" : "_ZNSt3__114pointer_traitsIPDsE10pointer_toERDs",
   "parameters" :
   [
    {
     "referenced_type" : "_ZTIRDs"
    }
   ],
   "return_type" : "_ZTIPDs",
   "source_file" : "external/libcxx/include/memory"
  },
  {
   "function_name" : "std::__1::pointer_traits<char *>::pointer_to",
   "linker_set_key" : "_ZNSt3__114pointer_traitsIPcE10pointer_toERc",
   "parameters" :
   [
    {
     "referenced_type" : "_ZTIRc"
    }
   ],
   "return_type" : "_ZTIPc",
   "source_file" : "external/libcxx/include/memory"
  },
  {
   "function_name" : "std::__1::pointer_traits<wchar_t *>::pointer_to",
   "linker_set_key" : "_ZNSt3__114pointer_traitsIPwE10pointer_toERw",
   "parameters" :
   [
    {
     "referenced_type" : "_ZTIRw"
    }
   ],
   "return_type" : "_ZTIPw",
   "source_file" : "external/libcxx/include/memory"
  },
  {
   "function_name" : "std::__1::error_condition::clear",
   "linker_set_key" : "_ZNSt3__115error_condition5clearEv",
   "parameters" :
   [
    {
     "is_this_ptr" : true,
     "referenced_type" : "_ZTIPNSt3__115error_conditionE"
    }
   ],
   "return_type" : "_ZTIv",
   "source_file" : "external/libcxx/include/system_error"
  },
  {
   "function_name" : "std::__1::error_condition::assign",
   "linker_set_key" : "_ZNSt3__115error_condition6assignEiRKNS_14error_categoryE",
   "parameters" :
   [
    {
     "is_this_ptr" : true,
     "referenced_type" : "_ZTIPNSt3__115error_conditionE"
    },
    {
     "referenced_type" : "_ZTIi"
    },
    {
     "referenced_type" : "_ZTIRKNSt3__114error_categoryE"
    }
   ],
   "return_type" : "_ZTIv",
   "source_file" : "external/libcxx/include/system_error"
  },
  {
   "function_name" : "std::__1::error_condition::error_condition",
   "linker_set_key" : "_ZNSt3__115error_conditionC1EiRKNS_14error_categoryE",
   "parameters" :
   [
    {
     "is_this_ptr" : true,
     "referenced_type" : "_ZTIPNSt3__115error_conditionE"
    },
    {
     "referenced_type" : "_ZTIi"
    },
    {
     "referenced_type" : "_ZTIRKNSt3__114error_categoryE"
    }
   ],
   "return_type" : "_ZTIv",
   "source_file" : "external/libcxx/include/system_error"
  },
  {
   "function_name" : "std::__1::error_condition::error_condition",
   "linker_set_key" : "_ZNSt3__115error_conditionC1Ev",
   "parameters" :
   [
    {
     "is_this_ptr" : true,
     "referenced_type" : "_ZTIPNSt3__115error_conditionE"
    }
   ],
   "return_type" : "_ZTIv",
   "source_file" : "external/libcxx/include/system_error"
  },
  {
   "function_name" : "std::__1::error_condition::error_condition",
   "linker_set_key" : "_ZNSt3__115error_conditionC2EiRKNS_14error_categoryE",
   "parameters" :
   [
    {
     "is_this_ptr" : true,
     "referenced_type" : "_ZTIPNSt3__115error_conditionE"
    },
    {
     "referenced_type" : "_ZTIi"
    },
    {
     "referenced_type" : "_ZTIRKNSt3__114error_categoryE"
    }
   ],
   "return_type" : "_ZTIv",
   "source_file" : "external/libcxx/include/system_error"
  },
  {
   "function_name" : "std::__1::error_condition::error_condition",
   "linker_set_key" : "_ZNSt3__115error_conditionC2Ev",
   "parameters" :
   [
    {
     "is_this_ptr" : true,
     "referenced_type" : "_ZTIPNSt3__115error_conditionE"
    }
   ],
   "return_type" : "_ZTIv",
   "source_file" : "external/libcxx/include/system_error"
  },
  {
   "function_name" : "std::__1::make_error_code",
   "linker_set_key" : "_ZNSt3__115make_error_codeENS_4errcE",
   "parameters" :
   [
    {
     "referenced_type" : "_ZTINSt3__14errcE"
    }
   ],
   "return_type" : "_ZTINSt3__110error_codeE",
   "source_file" : "external/libcxx/include/system_error"
  },
  {
   "function_name" : "std::__1::__libcpp_tls_get",
   "linker_set_key" : "_ZNSt3__116__libcpp_tls_getEi",
   "parameters" :
   [
    {
     "referenced_type" : "_ZTIi"
    }
   ],
   "return_type" : "_ZTIPv",
   "source_file" : "external/libcxx/include/__threading_support"
  },
  {
   "function_name" : "std::__1::__libcpp_tls_set",
   "linker_set_key" : "_ZNSt3__116__libcpp_tls_setEiPv",
   "parameters" :
   [
    {
     "referenced_type" : "_ZTIi"
    },
    {
     "referenced_type" : "_ZTIPv"
    }
   ],
   "return_type" : "_ZTIi",
   "source_file" : "external/libcxx/include/__threading_support"
  },
  {
   "function_name" : "std::__1::__throw_bad_cast",
   "linker_set_key" : "_ZNSt3__116__throw_bad_castEv",
   "return_type" : "_ZTIv",
   "source_file" : "external/libcxx/include/typeinfo"
  },
  {
   "function_name" : "std::__1::__to_raw_pointer",
   "linker_set_key" : "_ZNSt3__116__to_raw_pointerIDiEEPT_S2_",
   "parameters" :
   [
    {
     "referenced_type" : "_ZTIPDi"
    }
   ],
   "return_type" : "_ZTIPDi",
   "source_file" : "external/libcxx/include/memory",
   "template_args" : [ "_ZTIDi" ]
  },
  {
   "function_name" : "std::__1::__to_raw_pointer",
   "linker_set_key" : "_ZNSt3__116__to_raw_pointerIDsEEPT_S2_",
   "parameters" :
   [
    {
     "referenced_type" : "_ZTIPDs"
    }
   ],
   "return_type" : "_ZTIPDs",
   "source_file" : "external/libcxx/include/memory",
   "template_args" : [ "_ZTIDs" ]
  },
  {
   "function_name" : "std::__1::__to_raw_pointer",
   "linker_set_key" : "_ZNSt3__116__to_raw_pointerIPN8gemmlowp6WorkerEEEPT_S5_",
   "parameters" :
   [
    {
     "referenced_type" : "_ZTIPPN8gemmlowp6WorkerE"
    }
   ],
   "return_type" : "_ZTIPPN8gemmlowp6WorkerE",
   "source_file" : "external/libcxx/include/memory",
   "template_args" : [ "_ZTIPN8gemmlowp6WorkerE" ]
  },
  {
   "function_name" : "std::__1::__to_raw_pointer",
   "linker_set_key" : "_ZNSt3__116__to_raw_pointerIcEEPT_S2_",
   "parameters" :
   [
    {
     "referenced_type" : "_ZTIPc"
    }
   ],
   "return_type" : "_ZTIPc",
   "source_file" : "external/libcxx/include/memory",
   "template_args" : [ "_ZTIc" ]
  },
  {
   "function_name" : "std::__1::__to_raw_pointer",
   "linker_set_key" : "_ZNSt3__116__to_raw_pointerIwEEPT_S2_",
   "parameters" :
   [
    {
     "referenced_type" : "_ZTIPw"
    }
   ],
   "return_type" : "_ZTIPw",
   "source_file" : "external/libcxx/include/memory",
   "template_args" : [ "_ZTIw" ]
  },
  {
   "access" : "private",
   "function_name" : "std::__1::allocator_traits<std::__1::allocator<char32_t>>::__max_size",
   "linker_set_key" : "_ZNSt3__116allocator_traitsINS_9allocatorIDiEEE10__max_sizeENS_17integral_constantIbLb1EEERKS2_",
   "parameters" :
   [
    {
     "referenced_type" : "_ZTINSt3__117integral_constantIbLb1EEE"
    },
    {
     "referenced_type" : "_ZTIRKNSt3__19allocatorIDiEE"
    }
   ],
   "return_type" : "_ZTIm",
   "source_file" : "external/libcxx/include/memory"
  },
  {
   "function_name" : "std::__1::allocator_traits<std::__1::allocator<char32_t>>::deallocate",
   "linker_set_key" : "_ZNSt3__116allocator_traitsINS_9allocatorIDiEEE10deallocateERS2_PDim",
   "parameters" :
   [
    {
     "referenced_type" : "_ZTIRNSt3__19allocatorIDiEE"
    },
    {
     "referenced_type" : "_ZTIPDi"
    },
    {
     "referenced_type" : "_ZTIm"
    }
   ],
   "return_type" : "_ZTIv",
   "source_file" : "external/libcxx/include/memory"
  },
  {
   "function_name" : "std::__1::allocator_traits<std::__1::allocator<char32_t>>::allocate",
   "linker_set_key" : "_ZNSt3__116allocator_traitsINS_9allocatorIDiEEE8allocateERS2_m",
   "parameters" :
   [
    {
     "referenced_type" : "_ZTIRNSt3__19allocatorIDiEE"
    },
    {
     "referenced_type" : "_ZTIm"
    }
   ],
   "return_type" : "_ZTIPDi",
   "source_file" : "external/libcxx/include/memory"
  },
  {
   "function_name" : "std::__1::allocator_traits<std::__1::allocator<char32_t>>::max_size",
   "linker_set_key" : "_ZNSt3__116allocator_traitsINS_9allocatorIDiEEE8max_sizeERKS2_",
   "parameters" :
   [
    {
     "referenced_type" : "_ZTIRKNSt3__19allocatorIDiEE"
    }
   ],
   "return_type" : "_ZTIm",
   "source_file" : "external/libcxx/include/memory"
  },
  {
   "access" : "private",
   "function_name" : "std::__1::allocator_traits<std::__1::allocator<char16_t>>::__max_size",
   "linker_set_key" : "_ZNSt3__116allocator_traitsINS_9allocatorIDsEEE10__max_sizeENS_17integral_constantIbLb1EEERKS2_",
   "parameters" :
   [
    {
     "referenced_type" : "_ZTINSt3__117integral_constantIbLb1EEE"
    },
    {
     "referenced_type" : "_ZTIRKNSt3__19allocatorIDsEE"
    }
   ],
   "return_type" : "_ZTIm",
   "source_file" : "external/libcxx/include/memory"
  },
  {
   "function_name" : "std::__1::allocator_traits<std::__1::allocator<char16_t>>::deallocate",
   "linker_set_key" : "_ZNSt3__116allocator_traitsINS_9allocatorIDsEEE10deallocateERS2_PDsm",
   "parameters" :
   [
    {
     "referenced_type" : "_ZTIRNSt3__19allocatorIDsEE"
    },
    {
     "referenced_type" : "_ZTIPDs"
    },
    {
     "referenced_type" : "_ZTIm"
    }
   ],
   "return_type" : "_ZTIv",
   "source_file" : "external/libcxx/include/memory"
  },
  {
   "function_name" : "std::__1::allocator_traits<std::__1::allocator<char16_t>>::allocate",
   "linker_set_key" : "_ZNSt3__116allocator_traitsINS_9allocatorIDsEEE8allocateERS2_m",
   "parameters" :
   [
    {
     "referenced_type" : "_ZTIRNSt3__19allocatorIDsEE"
    },
    {
     "referenced_type" : "_ZTIm"
    }
   ],
   "return_type" : "_ZTIPDs",
   "source_file" : "external/libcxx/include/memory"
  },
  {
   "function_name" : "std::__1::allocator_traits<std::__1::allocator<char16_t>>::max_size",
   "linker_set_key" : "_ZNSt3__116allocator_traitsINS_9allocatorIDsEEE8max_sizeERKS2_",
   "parameters" :
   [
    {
     "referenced_type" : "_ZTIRKNSt3__19allocatorIDsEE"
    }
   ],
   "return_type" : "_ZTIm",
   "source_file" : "external/libcxx/include/memory"
  },
  {
   "access" : "private",
   "function_name" : "std::__1::allocator_traits<std::__1::allocator<gemmlowp::Worker *>>::__max_size",
   "linker_set_key" : "_ZNSt3__116allocator_traitsINS_9allocatorIPN8gemmlowp6WorkerEEEE10__max_sizeENS_17integral_constantIbLb1EEERKS5_",
   "parameters" :
   [
    {
     "referenced_type" : "_ZTINSt3__117integral_constantIbLb1EEE"
    },
    {
     "referenced_type" : "_ZTIRKNSt3__19allocatorIPN8gemmlowp6WorkerEEE"
    }
   ],
   "return_type" : "_ZTIm",
   "source_file" : "external/libcxx/include/memory"
  },
  {
   "function_name" : "std::__1::allocator_traits<std::__1::allocator<gemmlowp::Worker *>>::deallocate",
   "linker_set_key" : "_ZNSt3__116allocator_traitsINS_9allocatorIPN8gemmlowp6WorkerEEEE10deallocateERS5_PS4_m",
   "parameters" :
   [
    {
     "referenced_type" : "_ZTIRNSt3__19allocatorIPN8gemmlowp6WorkerEEE"
    },
    {
     "referenced_type" : "_ZTIPPN8gemmlowp6WorkerE"
    },
    {
     "referenced_type" : "_ZTIm"
    }
   ],
   "return_type" : "_ZTIv",
   "source_file" : "external/libcxx/include/memory"
  },
  {
   "access" : "private",
   "function_name" : "std::__1::allocator_traits<std::__1::allocator<gemmlowp::Worker *>>::__construct",
   "linker_set_key" : "_ZNSt3__116allocator_traitsINS_9allocatorIPN8gemmlowp6WorkerEEEE11__constructIS4_JS4_EEEvNS_17integral_constantIbLb1EEERS5_PT_DpOT0_",
   "parameters" :
   [
    {
     "referenced_type" : "_ZTINSt3__117integral_constantIbLb1EEE"
    },
    {
     "referenced_type" : "_ZTIRNSt3__19allocatorIPN8gemmlowp6WorkerEEE"
    },
    {
     "referenced_type" : "_ZTIPPN8gemmlowp6WorkerE"
    },
    {
     "referenced_type" : "_ZTIOPN8gemmlowp6WorkerE"
    }
   ],
   "return_type" : "_ZTIv",
   "source_file" : "external/libcxx/include/memory",
   "template_args" : [ "_ZTIPN8gemmlowp6WorkerE" ]
  },
  {
   "function_name" : "std::__1::allocator_traits<std::__1::allocator<gemmlowp::Worker *>>::__construct_backward",
   "linker_set_key" : "_ZNSt3__116allocator_traitsINS_9allocatorIPN8gemmlowp6WorkerEEEE20__construct_backwardIS4_EENS_9enable_ifIXaaooL_ZNS_17integral_constantIbLb1EE5valueEEntsr15__has_constructIS5_PT_SB_EE5valuesr31is_trivially_move_constructibleISB_EE5valueEvE4typeERS5_SC_SC_RSC_",
   "parameters" :
   [
    {
     "referenced_type" : "_ZTIRNSt3__19allocatorIPN8gemmlowp6WorkerEEE"
    },
    {
     "referenced_type" : "_ZTIPPN8gemmlowp6WorkerE"
    },
    {
     "referenced_type" : "_ZTIPPN8gemmlowp6WorkerE"
    },
    {
     "referenced_type" : "_ZTIRPPN8gemmlowp6WorkerE"
    }
   ],
   "return_type" : "_ZTIv",
   "source_file" : "external/libcxx/include/memory",
   "template_args" : [ "_ZTIPN8gemmlowp6WorkerE" ]
  },
  {
   "function_name" : "std::__1::allocator_traits<std::__1::allocator<gemmlowp::Worker *>>::destroy",
   "linker_set_key" : "_ZNSt3__116allocator_traitsINS_9allocatorIPN8gemmlowp6WorkerEEEE7destroyIS4_EEvRS5_PT_",
   "parameters" :
   [
    {
     "referenced_type" : "_ZTIRNSt3__19allocatorIPN8gemmlowp6WorkerEEE"
    },
    {
     "referenced_type" : "_ZTIPPN8gemmlowp6WorkerE"
    }
   ],
   "return_type" : "_ZTIv",
   "source_file" : "external/libcxx/include/memory",
   "template_args" : [ "_ZTIPN8gemmlowp6WorkerE" ]
  },
  {
   "function_name" : "std::__1::allocator_traits<std::__1::allocator<gemmlowp::Worker *>>::allocate",
   "linker_set_key" : "_ZNSt3__116allocator_traitsINS_9allocatorIPN8gemmlowp6WorkerEEEE8allocateERS5_m",
   "parameters" :
   [
    {
     "referenced_type" : "_ZTIRNSt3__19allocatorIPN8gemmlowp6WorkerEEE"
    },
    {
     "referenced_type" : "_ZTIm"
    }
   ],
   "return_type" : "_ZTIPPN8gemmlowp6WorkerE",
   "source_file" : "external/libcxx/include/memory"
  },
  {
   "function_name" : "std::__1::allocator_traits<std::__1::allocator<gemmlowp::Worker *>>::max_size",
   "linker_set_key" : "_ZNSt3__116allocator_traitsINS_9allocatorIPN8gemmlowp6WorkerEEEE8max_sizeERKS5_",
   "parameters" :
   [
    {
     "referenced_type" : "_ZTIRKNSt3__19allocatorIPN8gemmlowp6WorkerEEE"
    }
   ],
   "return_type" : "_ZTIm",
   "source_file" : "external/libcxx/include/memory"
  },
  {
   "access" : "private",
   "function_name" : "std::__1::allocator_traits<std::__1::allocator<gemmlowp::Worker *>>::__destroy",
   "linker_set_key" : "_ZNSt3__116allocator_traitsINS_9allocatorIPN8gemmlowp6WorkerEEEE9__destroyIS4_EEvNS_17integral_constantIbLb1EEERS5_PT_",
   "parameters" :
   [
    {
     "referenced_type" : "_ZTINSt3__117integral_constantIbLb1EEE"
    },
    {
     "referenced_type" : "_ZTIRNSt3__19allocatorIPN8gemmlowp6WorkerEEE"
    },
    {
     "referenced_type" : "_ZTIPPN8gemmlowp6WorkerE"
    }
   ],
   "return_type" : "_ZTIv",
   "source_file" : "external/libcxx/include/memory",
   "template_args" : [ "_ZTIPN8gemmlowp6WorkerE" ]
  },
  {
   "function_name" : "std::__1::allocator_traits<std::__1::allocator<gemmlowp::Worker *>>::construct",
   "linker_set_key" : "_ZNSt3__116allocator_traitsINS_9allocatorIPN8gemmlowp6WorkerEEEE9constructIS4_JS4_EEEvRS5_PT_DpOT0_",
   "parameters" :
   [
    {
     "referenced_type" : "_ZTIRNSt3__19allocatorIPN8gemmlowp6WorkerEEE"
    },
    {
     "referenced_type" : "_ZTIPPN8gemmlowp6WorkerE"
    },
    {
     "referenced_type" : "_ZTIOPN8gemmlowp6WorkerE"
    }
   ],
   "return_type" : "_ZTIv",
   "source_file" : "external/libcxx/include/memory",
   "template_args" : [ "_ZTIPN8gemmlowp6WorkerE" ]
  },
  {
   "access" : "private",
   "function_name" : "std::__1::allocator_traits<std::__1::allocator<char>>::__max_size",
   "linker_set_key" : "_ZNSt3__116allocator_traitsINS_9allocatorIcEEE10__max_sizeENS_17integral_constantIbLb1EEERKS2_",
   "parameters" :
   [
    {
     "referenced_type" : "_ZTINSt3__117integral_constantIbLb1EEE"
    },
    {
     "referenced_type" : "_ZTIRKNSt3__19allocatorIcEE"
    }
   ],
   "return_type" : "_ZTIm",
   "source_file" : "external/libcxx/include/memory"
  },
  {
   "function_name" : "std::__1::allocator_traits<std::__1::allocator<char>>::deallocate",
   "linker_set_key" : "_ZNSt3__116allocator_traitsINS_9allocatorIcEEE10deallocateERS2_Pcm",
   "parameters" :
   [
    {
     "referenced_type" : "_ZTIRNSt3__19allocatorIcEE"
    },
    {
     "referenced_type" : "_ZTIPc"
    },
    {
     "referenced_type" : "_ZTIm"
    }
   ],
   "return_type" : "_ZTIv",
   "source_file" : "external/libcxx/include/memory"
  },
  {
   "function_name" : "std::__1::allocator_traits<std::__1::allocator<char>>::allocate",
   "linker_set_key" : "_ZNSt3__116allocator_traitsINS_9allocatorIcEEE8allocateERS2_m",
   "parameters" :
   [
    {
     "referenced_type" : "_ZTIRNSt3__19allocatorIcEE"
    },
    {
     "referenced_type" : "_ZTIm"
    }
   ],
   "return_type" : "_ZTIPc",
   "source_file" : "external/libcxx/include/memory"
  },
  {
   "function_name" : "std::__1::allocator_traits<std::__1::allocator<char>>::max_size",
   "linker_set_key" : "_ZNSt3__116allocator_traitsINS_9allocatorIcEEE8max_sizeERKS2_",
   "parameters" :
   [
    {
     "referenced_type" : "_ZTIRKNSt3__19allocatorIcEE"
    }
   ],
   "return_type" : "_ZTIm",
   "source_file" : "external/libcxx/include/memory"
  },
  {
   "access" : "private",
   "function_name" : "std::__1::allocator_traits<std::__1::allocator<wchar_t>>::__max_size",
   "linker_set_key" : "_ZNSt3__116allocator_traitsINS_9allocatorIwEEE10__max_sizeENS_17integral_constantIbLb1EEERKS2_",
   "parameters" :
   [
    {
     "referenced_type" : "_ZTINSt3__117integral_constantIbLb1EEE"
    },
    {
     "referenced_type" : "_ZTIRKNSt3__19allocatorIwEE"
    }
   ],
   "return_type" : "_ZTIm",
   "source_file" : "external/libcxx/include/memory"
  },
  {
   "function_name" : "std::__1::allocator_traits<std::__1::allocator<wchar_t>>::deallocate",
   "linker_set_key" : "_ZNSt3__116allocator_traitsINS_9allocatorIwEEE10deallocateERS2_Pwm",
   "parameters" :
   [
    {
     "referenced_type" : "_ZTIRNSt3__19allocatorIwEE"
    },
    {
     "referenced_type" : "_ZTIPw"
    },
    {
     "referenced_type" : "_ZTIm"
    }
   ],
   "return_type" : "_ZTIv",
   "source_file" : "external/libcxx/include/memory"
  },
  {
   "function_name" : "std::__1::allocator_traits<std::__1::allocator<wchar_t>>::allocate",
   "linker_set_key" : "_ZNSt3__116allocator_traitsINS_9allocatorIwEEE8allocateERS2_m",
   "parameters" :
   [
    {
     "referenced_type" : "_ZTIRNSt3__19allocatorIwEE"
    },
    {
     "referenced_type" : "_ZTIm"
    }
   ],
   "return_type" : "_ZTIPw",
   "source_file" : "external/libcxx/include/memory"
  },
  {
   "function_name" : "std::__1::allocator_traits<std::__1::allocator<wchar_t>>::max_size",
   "linker_set_key" : "_ZNSt3__116allocator_traitsINS_9allocatorIwEEE8max_sizeERKS2_",
   "parameters" :
   [
    {
     "referenced_type" : "_ZTIRKNSt3__19allocatorIwEE"
    }
   ],
   "return_type" : "_ZTIm",
   "source_file" : "external/libcxx/include/memory"
  },
  {
   "function_name" : "std::__1::forward_as_tuple",
   "linker_set_key" : "_ZNSt3__116forward_as_tupleIJEEENS_5tupleIJDpOT_EEES4_",
   "return_type" : "_ZTINSt3__15tupleIJEEE",
   "source_file" : "external/libcxx/include/tuple"
  },
  {
   "access" : "private",
   "function_name" : "std::__1::_DeallocateCaller::__do_deallocate_handle_size",
   "linker_set_key" : "_ZNSt3__117_DeallocateCaller27__do_deallocate_handle_sizeEPvm",
