{
 "array_types" :
 [
  {
   "alignment" : 1,
   "linker_set_key" : "_ZTIA16_h",
   "name" : "unsigned char [16]",
   "referenced_type" : "_ZTIh",
   "self_type" : "_ZTIA16_h",
   "size" : 16,
   "source_file" : "external/boringssl/src/include/openssl/cipher.h"
  },
  {
   "alignment" : 1,
   "linker_set_key" : "_ZTIA32_h",
   "name" : "unsigned char [32]",
   "referenced_type" : "_ZTIh",
   "self_type" : "_ZTIA32_h",
   "size" : 32,
   "source_file" : "external/boringssl/src/include/openssl/cipher.h"
  },
  {
   "alignment" : 1,
   "linker_set_key" : "_ZTIA48_h",
   "name" : "unsigned char [48]",
   "referenced_type" : "_ZTIh",
   "self_type" : "_ZTIA48_h",
   "size" : 48,
   "source_file" : "external/boringssl/src/include/openssl/base64.h"
  },
  {
   "alignment" : 1,
   "linker_set_key" : "_ZTIA56_h",
   "name" : "unsigned char [56]",
   "referenced_type" : "_ZTIh",
   "self_type" : "_ZTIA56_h",
   "size" : 56,
   "source_file" : "external/boringssl/src/include/openssl/thread.h"
  },
  {
   "alignment" : 1,
   "linker_set_key" : "_ZTIA580_h",
   "name" : "unsigned char [580]",
   "referenced_type" : "_ZTIh",
   "self_type" : "_ZTIA580_h",
   "size" : 580,
   "source_file" : "external/boringssl/src/include/openssl/aead.h"
  }
 ],
 "builtin_types" :
 [
  {
   "alignment" : 1,
   "is_integral" : true,
   "is_unsigned" : true,
   "linker_set_key" : "_ZTIc",
   "name" : "char",
   "referenced_type" : "_ZTIc",
   "self_type" : "_ZTIc",
   "size" : 1
  },
  {
   "alignment" : 8,
   "linker_set_key" : "_ZTId",
   "name" : "double",
   "referenced_type" : "_ZTId",
   "self_type" : "_ZTId",
   "size" : 8
  },
  {
   "alignment" : 1,
   "is_integral" : true,
   "is_unsigned" : true,
   "linker_set_key" : "_ZTIh",
   "name" : "unsigned char",
   "referenced_type" : "_ZTIh",
   "self_type" : "_ZTIh",
   "size" : 1
  },
  {
   "alignment" : 4,
   "is_integral" : true,
   "linker_set_key" : "_ZTIi",
   "name" : "int",
   "referenced_type" : "_ZTIi",
   "self_type" : "_ZTIi",
   "size" : 4
  },
  {
   "alignment" : 4,
   "is_integral" : true,
   "is_unsigned" : true,
   "linker_set_key" : "_ZTIj",
   "name" : "unsigned int",
   "referenced_type" : "_ZTIj",
   "self_type" : "_ZTIj",
   "size" : 4
  },
  {
   "linker_set_key" : "_ZTIv",
   "name" : "void",
   "referenced_type" : "_ZTIv",
   "self_type" : "_ZTIv"
  },
  {
   "alignment" : 8,
   "is_integral" : true,
   "is_unsigned" : true,
   "linker_set_key" : "_ZTIy",
   "name" : "unsigned long long",
   "referenced_type" : "_ZTIy",
   "self_type" : "_ZTIy",
   "size" : 8
  }
 ],
 "elf_functions" : [],
 "elf_objects" : [],
 "enum_types" :
 [
  {
   "alignment" : 4,
   "enum_fields" :
   [
    {
     "enum_field_value" : 1,
     "name" : "ERR_LIB_NONE"
    },
    {
     "enum_field_value" : 2,
     "name" : "ERR_LIB_SYS"
    },
    {
     "enum_field_value" : 3,
     "name" : "ERR_LIB_BN"
    },
    {
     "enum_field_value" : 4,
     "name" : "ERR_LIB_RSA"
    },
    {
     "enum_field_value" : 5,
     "name" : "ERR_LIB_DH"
    },
    {
     "enum_field_value" : 6,
     "name" : "ERR_LIB_EVP"
    },
    {
     "enum_field_value" : 7,
     "name" : "ERR_LIB_BUF"
    },
    {
     "enum_field_value" : 8,
     "name" : "ERR_LIB_OBJ"
    },
    {
     "enum_field_value" : 9,
     "name" : "ERR_LIB_PEM"
    },
    {
     "enum_field_value" : 10,
     "name" : "ERR_LIB_DSA"
    },
    {
     "enum_field_value" : 11,
     "name" : "ERR_LIB_X509"
    },
    {
     "enum_field_value" : 12,
     "name" : "ERR_LIB_ASN1"
    },
    {
     "enum_field_value" : 13,
     "name" : "ERR_LIB_CONF"
    },
    {
     "enum_field_value" : 14,
     "name" : "ERR_LIB_CRYPTO"
    },
    {
     "enum_field_value" : 15,
     "name" : "ERR_LIB_EC"
    },
    {
     "enum_field_value" : 16,
     "name" : "ERR_LIB_SSL"
    },
    {
     "enum_field_value" : 17,
     "name" : "ERR_LIB_BIO"
    },
    {
     "enum_field_value" : 18,
     "name" : "ERR_LIB_PKCS7"
    },
    {
     "enum_field_value" : 19,
     "name" : "ERR_LIB_PKCS8"
    },
    {
     "enum_field_value" : 20,
     "name" : "ERR_LIB_X509V3"
    },
    {
     "enum_field_value" : 21,
     "name" : "ERR_LIB_RAND"
    },
    {
     "enum_field_value" : 22,
     "name" : "ERR_LIB_ENGINE"
    },
    {
     "enum_field_value" : 23,
     "name" : "ERR_LIB_OCSP"
    },
    {
     "enum_field_value" : 24,
     "name" : "ERR_LIB_UI"
    },
    {
     "enum_field_value" : 25,
     "name" : "ERR_LIB_COMP"
    },
    {
     "enum_field_value" : 26,
     "name" : "ERR_LIB_ECDSA"
    },
    {
     "enum_field_value" : 27,
     "name" : "ERR_LIB_ECDH"
    },
    {
     "enum_field_value" : 28,
     "name" : "ERR_LIB_HMAC"
    },
    {
     "enum_field_value" : 29,
     "name" : "ERR_LIB_DIGEST"
    },
    {
     "enum_field_value" : 30,
     "name" : "ERR_LIB_CIPHER"
    },
    {
     "enum_field_value" : 31,
     "name" : "ERR_LIB_HKDF"
    },
    {
     "enum_field_value" : 32,
     "name" : "ERR_LIB_TRUST_TOKEN"
    },
    {
     "enum_field_value" : 33,
     "name" : "ERR_LIB_USER"
    },
    {
     "enum_field_value" : 34,
     "name" : "ERR_NUM_LIBS"
    }
   ],
   "linker_set_key" : "_ZTI13$ERR_LIB_ASN1",
   "name" : "(anonymous enum at external/boringssl/src/include/openssl/err.h:290:1)",
   "referenced_type" : "_ZTI13$ERR_LIB_ASN1",
   "self_type" : "_ZTI13$ERR_LIB_ASN1",
   "size" : 4,
   "source_file" : "external/boringssl/src/include/openssl/err.h",
   "underlying_type" : "_ZTIj"
  },
  {
   "alignment" : 4,
   "enum_fields" :
   [
    {
     "enum_field_value" : 0,
     "name" : "spake2_role_alice"
    },
    {
     "enum_field_value" : 1,
     "name" : "spake2_role_bob"
    }
   ],
   "linker_set_key" : "_ZTI13spake2_role_t",
   "name" : "spake2_role_t",
   "referenced_type" : "_ZTI13spake2_role_t",
   "self_type" : "_ZTI13spake2_role_t",
   "size" : 4,
   "source_file" : "external/boringssl/src/include/openssl/curve25519.h",
   "underlying_type" : "_ZTIj"
  },
  {
   "alignment" : 4,
   "enum_fields" :
   [
    {
     "enum_field_value" : 0,
     "name" : "evp_aead_open"
    },
    {
     "enum_field_value" : 1,
     "name" : "evp_aead_seal"
    }
   ],
   "linker_set_key" : "_ZTI20evp_aead_direction_t",
   "name" : "evp_aead_direction_t",
   "referenced_type" : "_ZTI20evp_aead_direction_t",
   "self_type" : "_ZTI20evp_aead_direction_t",
   "size" : 4,
   "source_file" : "external/boringssl/src/include/openssl/aead.h",
   "underlying_type" : "_ZTIj"
  }
 ],
 "function_types" :
 [
  {
   "alignment" : 4,
   "linker_set_key" : "_ZTIFiP17evp_cipher_ctx_stPKhS2_iE",
   "name" : "int (evp_cipher_ctx_st *, const unsigned char *, const unsigned char *, int)",
   "parameters" :
   [
    {
     "referenced_type" : "_ZTIP17evp_cipher_ctx_st"
    },
    {
     "referenced_type" : "_ZTIPKh"
    },
    {
     "referenced_type" : "_ZTIPKh"
    },
    {
     "referenced_type" : "_ZTIi"
    }
   ],
   "referenced_type" : "_ZTIFiP17evp_cipher_ctx_stPKhS2_iE",
   "return_type" : "_ZTIi",
   "self_type" : "_ZTIFiP17evp_cipher_ctx_stPKhS2_iE",
   "source_file" : "external/boringssl/src/include/openssl/cipher.h"
  },
  {
   "alignment" : 4,
   "linker_set_key" : "_ZTIFiP17evp_cipher_ctx_stPhPKhjE",
   "name" : "int (evp_cipher_ctx_st *, unsigned char *, const unsigned char *, unsigned int)",
   "parameters" :
   [
    {
     "referenced_type" : "_ZTIP17evp_cipher_ctx_st"
    },
    {
     "referenced_type" : "_ZTIPh"
    },
    {
     "referenced_type" : "_ZTIPKh"
    },
    {
     "referenced_type" : "_ZTIj"
    }
   ],
   "referenced_type" : "_ZTIFiP17evp_cipher_ctx_stPhPKhjE",
   "return_type" : "_ZTIi",
   "self_type" : "_ZTIFiP17evp_cipher_ctx_stPhPKhjE",
   "source_file" : "external/boringssl/src/include/openssl/cipher.h"
  },
  {
   "alignment" : 4,
   "linker_set_key" : "_ZTIFiP17evp_cipher_ctx_stiiPvE",
   "name" : "int (evp_cipher_ctx_st *, int, int, void *)",
   "parameters" :
   [
    {
     "referenced_type" : "_ZTIP17evp_cipher_ctx_st"
    },
    {
     "referenced_type" : "_ZTIi"
    },
    {
     "referenced_type" : "_ZTIi"
    },
    {
     "referenced_type" : "_ZTIPv"
    }
   ],
   "referenced_type" : "_ZTIFiP17evp_cipher_ctx_stiiPvE",
   "return_type" : "_ZTIi",
   "self_type" : "_ZTIFiP17evp_cipher_ctx_stiiPvE",
   "source_file" : "external/boringssl/src/include/openssl/cipher.h"
  },
  {
   "alignment" : 4,
   "linker_set_key" : "_ZTIFiP6rsa_stE",
   "name" : "int (rsa_st *)",
   "parameters" :
   [
    {
     "referenced_type" : "_ZTIP6rsa_st"
    }
   ],
   "referenced_type" : "_ZTIFiP6rsa_stE",
   "return_type" : "_ZTIi",
   "self_type" : "_ZTIFiP6rsa_stE",
   "source_file" : "external/boringssl/src/include/openssl/rsa.h"
  },
  {
   "alignment" : 4,
   "linker_set_key" : "_ZTIFiP6rsa_stPhPKhjE",
   "name" : "int (rsa_st *, unsigned char *, const unsigned char *, unsigned int)",
   "parameters" :
   [
    {
     "referenced_type" : "_ZTIP6rsa_st"
    },
    {
     "referenced_type" : "_ZTIPh"
    },
    {
     "referenced_type" : "_ZTIPKh"
    },
    {
     "referenced_type" : "_ZTIj"
    }
   ],
   "referenced_type" : "_ZTIFiP6rsa_stPhPKhjE",
   "return_type" : "_ZTIi",
   "self_type" : "_ZTIFiP6rsa_stPhPKhjE",
   "source_file" : "external/boringssl/src/include/openssl/rsa.h"
  },
  {
   "alignment" : 4,
   "linker_set_key" : "_ZTIFiP6rsa_stPjPhjPKhjiE",
   "name" : "int (rsa_st *, unsigned int *, unsigned char *, unsigned int, const unsigned char *, unsigned int, int)",
   "parameters" :
   [
    {
     "referenced_type" : "_ZTIP6rsa_st"
    },
    {
     "referenced_type" : "_ZTIPj"
    },
    {
     "referenced_type" : "_ZTIPh"
    },
    {
     "referenced_type" : "_ZTIj"
    },
    {
     "referenced_type" : "_ZTIPKh"
    },
    {
     "referenced_type" : "_ZTIj"
    },
    {
     "referenced_type" : "_ZTIi"
    }
   ],
   "referenced_type" : "_ZTIFiP6rsa_stPjPhjPKhjiE",
   "return_type" : "_ZTIi",
   "self_type" : "_ZTIFiP6rsa_stPjPhjPKhjiE",
   "source_file" : "external/boringssl/src/include/openssl/rsa.h"
  },
  {
   "alignment" : 4,
   "linker_set_key" : "_ZTIFiPPKvS1_E",
   "name" : "int (const void **, const void **)",
   "parameters" :
   [
    {
     "referenced_type" : "_ZTIPPKv"
    },
    {
     "referenced_type" : "_ZTIPPKv"
    }
   ],
   "referenced_type" : "_ZTIFiPPKvS1_E",
   "return_type" : "_ZTIi",
   "self_type" : "_ZTIFiPPKvS1_E",
   "source_file" : "external/boringssl/src/include/openssl/stack.h"
  },
  {
   "alignment" : 4,
   "linker_set_key" : "_ZTIFiiPKhjPhPjPK6rsa_stE",
   "name" : "int (int, const unsigned char *, unsigned int, unsigned char *, unsigned int *, const rsa_st *)",
   "parameters" :
   [
    {
     "referenced_type" : "_ZTIi"
    },
    {
     "referenced_type" : "_ZTIPKh"
    },
    {
     "referenced_type" : "_ZTIj"
    },
    {
     "referenced_type" : "_ZTIPh"
    },
    {
     "referenced_type" : "_ZTIPj"
    },
    {
     "referenced_type" : "_ZTIPK6rsa_st"
    }
   ],
   "referenced_type" : "_ZTIFiiPKhjPhPjPK6rsa_stE",
   "return_type" : "_ZTIi",
   "self_type" : "_ZTIFiiPKhjPhPjPK6rsa_stE",
   "source_file" : "external/boringssl/src/include/openssl/rsa.h"
  },
  {
   "alignment" : 4,
   "linker_set_key" : "_ZTIFjPK6rsa_stE",
   "name" : "unsigned int (const rsa_st *)",
   "parameters" :
   [
    {
     "referenced_type" : "_ZTIPK6rsa_st"
    }
   ],
   "referenced_type" : "_ZTIFjPK6rsa_stE",
   "return_type" : "_ZTIj",
   "self_type" : "_ZTIFjPK6rsa_stE",
   "source_file" : "external/boringssl/src/include/openssl/rsa.h"
  },
  {
   "alignment" : 4,
   "linker_set_key" : "_ZTIFvP17evp_cipher_ctx_stE",
   "name" : "void (evp_cipher_ctx_st *)",
   "parameters" :
   [
    {
     "referenced_type" : "_ZTIP17evp_cipher_ctx_st"
    }
   ],
   "referenced_type" : "_ZTIFvP17evp_cipher_ctx_stE",
   "return_type" : "_ZTIv",
   "self_type" : "_ZTIFvP17evp_cipher_ctx_stE",
   "source_file" : "external/boringssl/src/include/openssl/cipher.h"
  }
 ],
 "functions" : [],
 "global_vars" : [],
 "lvalue_reference_types" : [],
 "pointer_types" :
 [
  {
   "alignment" : 4,
   "linker_set_key" : "_ZTIP11rsa_meth_st",
   "name" : "rsa_meth_st *",
   "referenced_type" : "_ZTI11rsa_meth_st",
   "self_type" : "_ZTIP11rsa_meth_st",
   "size" : 4,
   "source_file" : "external/boringssl/src/include/openssl/rsa.h"
  },
  {
   "alignment" : 4,
   "linker_set_key" : "_ZTIP13cbb_buffer_st",
   "name" : "cbb_buffer_st *",
   "referenced_type" : "_ZTI13cbb_buffer_st",
   "self_type" : "_ZTIP13cbb_buffer_st",
   "size" : 4,
   "source_file" : "external/boringssl/src/include/openssl/bytestring.h"
  },
  {
   "alignment" : 4,
   "linker_set_key" : "_ZTIP13stack_st_void",
   "name" : "stack_st_void *",
   "referenced_type" : "_ZTI13stack_st_void",
   "self_type" : "_ZTIP13stack_st_void",
   "size" : 4,
   "source_file" : "external/boringssl/src/include/openssl/ex_data.h"
  },
  {
   "alignment" : 4,
   "linker_set_key" : "_ZTIP14bn_blinding_st",
   "name" : "bn_blinding_st *",
   "referenced_type" : "_ZTI14bn_blinding_st",
   "self_type" : "_ZTIP14bn_blinding_st",
   "size" : 4,
   "source_file" : "external/boringssl/src/include/openssl/rsa.h"
  },
  {
   "alignment" : 4,
   "linker_set_key" : "_ZTIP14bn_mont_ctx_st",
   "name" : "bn_mont_ctx_st *",
   "referenced_type" : "_ZTI14bn_mont_ctx_st",
   "self_type" : "_ZTIP14bn_mont_ctx_st",
   "size" : 4,
   "source_file" : "external/boringssl/src/include/openssl/rsa.h"
  },
  {
   "alignment" : 4,
   "linker_set_key" : "_ZTIP15evp_pkey_ctx_st",
   "name" : "evp_pkey_ctx_st *",
   "referenced_type" : "_ZTI15evp_pkey_ctx_st",
   "self_type" : "_ZTIP15evp_pkey_ctx_st",
   "size" : 4,
   "source_file" : "external/boringssl/src/include/openssl/digest.h"
  },
  {
   "alignment" : 4,
   "linker_set_key" : "_ZTIP17evp_cipher_ctx_st",
   "name" : "evp_cipher_ctx_st *",
   "referenced_type" : "_ZTI17evp_cipher_ctx_st",
   "self_type" : "_ZTIP17evp_cipher_ctx_st",
   "size" : 4,
   "source_file" : "external/boringssl/src/include/openssl/cipher.h"
  },
  {
   "alignment" : 4,
   "linker_set_key" : "_ZTIP20CRYPTO_dynlock_value",
   "name" : "CRYPTO_dynlock_value *",
   "referenced_type" : "_ZTI20CRYPTO_dynlock_value",
   "self_type" : "_ZTIP20CRYPTO_dynlock_value",
   "size" : 4,
   "source_file" : "external/boringssl/src/include/openssl/thread.h"
  },
  {
   "alignment" : 4,
   "linker_set_key" : "_ZTIP5dh_st",
   "name" : "dh_st *",
   "referenced_type" : "_ZTI5dh_st",
   "self_type" : "_ZTIP5dh_st",
   "size" : 4,
   "source_file" : "external/boringssl/src/include/openssl/evp.h"
  },
  {
   "alignment" : 4,
   "linker_set_key" : "_ZTIP6cbb_st",
   "name" : "cbb_st *",
   "referenced_type" : "_ZTI6cbb_st",
   "self_type" : "_ZTIP6cbb_st",
   "size" : 4,
   "source_file" : "external/boringssl/src/include/openssl/bytestring.h"
  },
  {
   "alignment" : 4,
   "linker_set_key" : "_ZTIP6dsa_st",
   "name" : "dsa_st *",
   "referenced_type" : "_ZTI6dsa_st",
   "self_type" : "_ZTIP6dsa_st",
   "size" : 4,
   "source_file" : "external/boringssl/src/include/openssl/evp.h"
  },
  {
   "alignment" : 4,
   "linker_set_key" : "_ZTIP6rsa_st",
   "name" : "rsa_st *",
   "referenced_type" : "_ZTI6rsa_st",
   "self_type" : "_ZTIP6rsa_st",
   "size" : 4,
   "source_file" : "external/boringssl/src/include/openssl/evp.h"
  },
  {
   "alignment" : 4,
   "linker_set_key" : "_ZTIP9bignum_st",
   "name" : "bignum_st *",
   "referenced_type" : "_ZTI9bignum_st",
   "self_type" : "_ZTIP9bignum_st",
   "size" : 4,
   "source_file" : "external/boringssl/src/include/openssl/rsa.h"
  },
  {
   "alignment" : 4,
   "linker_set_key" : "_ZTIP9ec_key_st",
   "name" : "ec_key_st *",
   "referenced_type" : "_ZTI9ec_key_st",
   "self_type" : "_ZTIP9ec_key_st",
   "size" : 4,
   "source_file" : "external/boringssl/src/include/openssl/evp.h"
  },
  {
   "alignment" : 4,
   "linker_set_key" : "_ZTIPFiP17evp_cipher_ctx_stPKhS2_iE",
   "name" : "int (*)(evp_cipher_ctx_st *, const unsigned char *, const unsigned char *, int)",
   "referenced_type" : "_ZTIFiP17evp_cipher_ctx_stPKhS2_iE",
   "self_type" : "_ZTIPFiP17evp_cipher_ctx_stPKhS2_iE",
   "size" : 4,
   "source_file" : "external/boringssl/src/include/openssl/cipher.h"
  },
  {
   "alignment" : 4,
   "linker_set_key" : "_ZTIPFiP17evp_cipher_ctx_stPhPKhjE",
   "name" : "int (*)(evp_cipher_ctx_st *, unsigned char *, const unsigned char *, unsigned int)",
   "referenced_type" : "_ZTIFiP17evp_cipher_ctx_stPhPKhjE",
   "self_type" : "_ZTIPFiP17evp_cipher_ctx_stPhPKhjE",
   "size" : 4,
   "source_file" : "external/boringssl/src/include/openssl/cipher.h"
  },
  {
   "alignment" : 4,
   "linker_set_key" : "_ZTIPFiP17evp_cipher_ctx_stiiPvE",
   "name" : "int (*)(evp_cipher_ctx_st *, int, int, void *)",
   "referenced_type" : "_ZTIFiP17evp_cipher_ctx_stiiPvE",
   "self_type" : "_ZTIPFiP17evp_cipher_ctx_stiiPvE",
   "size" : 4,
   "source_file" : "external/boringssl/src/include/openssl/cipher.h"
  },
  {
   "alignment" : 4,
   "linker_set_key" : "_ZTIPFiP6rsa_stE",
   "name" : "int (*)(rsa_st *)",
   "referenced_type" : "_ZTIFiP6rsa_stE",
   "self_type" : "_ZTIPFiP6rsa_stE",
   "size" : 4,
   "source_file" : "external/boringssl/src/include/openssl/rsa.h"
  },
  {
   "alignment" : 4,
   "linker_set_key" : "_ZTIPFiP6rsa_stPhPKhjE",
   "name" : "int (*)(rsa_st *, unsigned char *, const unsigned char *, unsigned int)",
   "referenced_type" : "_ZTIFiP6rsa_stPhPKhjE",
   "self_type" : "_ZTIPFiP6rsa_stPhPKhjE",
   "size" : 4,
   "source_file" : "external/boringssl/src/include/openssl/rsa.h"
  },
  {
   "alignment" : 4,
   "linker_set_key" : "_ZTIPFiP6rsa_stPjPhjPKhjiE",
   "name" : "int (*)(rsa_st *, unsigned int *, unsigned char *, unsigned int, const unsigned char *, unsigned int, int)",
   "referenced_type" : "_ZTIFiP6rsa_stPjPhjPKhjiE",
   "self_type" : "_ZTIPFiP6rsa_stPjPhjPKhjiE",
   "size" : 4,
   "source_file" : "external/boringssl/src/include/openssl/rsa.h"
  },
  {
   "alignment" : 4,
   "linker_set_key" : "_ZTIPFiPPKvS1_E",
   "name" : "int (*)(const void **, const void **)",
   "referenced_type" : "_ZTIFiPPKvS1_E",
   "self_type" : "_ZTIPFiPPKvS1_E",
   "size" : 4,
   "source_file" : "external/boringssl/src/include/openssl/stack.h"
  },
  {
   "alignment" : 4,
   "linker_set_key" : "_ZTIPFiiPKhjPhPjPK6rsa_stE",
   "name" : "int (*)(int, const unsigned char *, unsigned int, unsigned char *, unsigned int *, const rsa_st *)",
   "referenced_type" : "_ZTIFiiPKhjPhPjPK6rsa_stE",
   "self_type" : "_ZTIPFiiPKhjPhPjPK6rsa_stE",
   "size" : 4,
   "source_file" : "external/boringssl/src/include/openssl/rsa.h"
  },
  {
   "alignment" : 4,
   "linker_set_key" : "_ZTIPFjPK6rsa_stE",
   "name" : "unsigned int (*)(const rsa_st *)",
   "referenced_type" : "_ZTIFjPK6rsa_stE",
   "self_type" : "_ZTIPFjPK6rsa_stE",
   "size" : 4,
   "source_file" : "external/boringssl/src/include/openssl/rsa.h"
  },
  {
   "alignment" : 4,
   "linker_set_key" : "_ZTIPFvP17evp_cipher_ctx_stE",
   "name" : "void (*)(evp_cipher_ctx_st *)",
   "referenced_type" : "_ZTIFvP17evp_cipher_ctx_stE",
   "self_type" : "_ZTIPFvP17evp_cipher_ctx_stE",
   "size" : 4,
   "source_file" : "external/boringssl/src/include/openssl/cipher.h"
  },
  {
   "alignment" : 4,
   "linker_set_key" : "_ZTIPK11evp_aead_st",
   "name" : "const evp_aead_st *",
   "referenced_type" : "_ZTIK11evp_aead_st",
   "self_type" : "_ZTIPK11evp_aead_st",
   "size" : 4,
   "source_file" : "external/boringssl/src/include/openssl/aead.h"
  },
  {
   "alignment" : 4,
   "linker_set_key" : "_ZTIPK13evp_cipher_st",
   "name" : "const evp_cipher_st *",
   "referenced_type" : "_ZTIK13evp_cipher_st",
   "self_type" : "_ZTIPK13evp_cipher_st",
   "size" : 4,
   "source_file" : "external/boringssl/src/include/openssl/cipher.h"
  },
  {
   "alignment" : 4,
   "linker_set_key" : "_ZTIPK15evp_md_pctx_ops",
   "name" : "const evp_md_pctx_ops *",
   "referenced_type" : "_ZTIK15evp_md_pctx_ops",
   "self_type" : "_ZTIPK15evp_md_pctx_ops",
   "size" : 4,
   "source_file" : "external/boringssl/src/include/openssl/digest.h"
  },
  {
   "alignment" : 4,
   "linker_set_key" : "_ZTIPK23evp_pkey_asn1_method_st",
   "name" : "const evp_pkey_asn1_method_st *",
   "referenced_type" : "_ZTIK23evp_pkey_asn1_method_st",
   "self_type" : "_ZTIPK23evp_pkey_asn1_method_st",
   "size" : 4,
   "source_file" : "external/boringssl/src/include/openssl/evp.h"
  },
  {
   "alignment" : 4,
   "linker_set_key" : "_ZTIPK6rsa_st",
   "name" : "const rsa_st *",
   "referenced_type" : "_ZTIK6rsa_st",
   "self_type" : "_ZTIPK6rsa_st",
   "size" : 4,
   "source_file" : "external/boringssl/src/include/openssl/rsa.h"
  },
  {
   "alignment" : 4,
   "linker_set_key" : "_ZTIPK9env_md_st",
   "name" : "const env_md_st *",
   "referenced_type" : "_ZTIK9env_md_st",
   "self_type" : "_ZTIPK9env_md_st",
   "size" : 4,
   "source_file" : "external/boringssl/src/include/openssl/digest.h"
  },
  {
   "alignment" : 4,
   "linker_set_key" : "_ZTIPKh",
   "name" : "const unsigned char *",
   "referenced_type" : "_ZTIKh",
   "self_type" : "_ZTIPKh",
   "size" : 4,
   "source_file" : "external/boringssl/src/include/openssl/cipher.h"
  },
  {
   "alignment" : 4,
   "linker_set_key" : "_ZTIPKv",
   "name" : "const void *",
   "referenced_type" : "_ZTIKv",
   "self_type" : "_ZTIPKv",
   "size" : 4,
   "source_file" : "external/boringssl/src/include/openssl/stack.h"
  },
  {
   "alignment" : 4,
   "linker_set_key" : "_ZTIPP14bn_blinding_st",
   "name" : "bn_blinding_st **",
   "referenced_type" : "_ZTIP14bn_blinding_st",
   "self_type" : "_ZTIPP14bn_blinding_st",
   "size" : 4,
   "source_file" : "external/boringssl/src/include/openssl/rsa.h"
  },
  {
   "alignment" : 4,
   "linker_set_key" : "_ZTIPPKv",
   "name" : "const void **",
   "referenced_type" : "_ZTIPKv",
   "self_type" : "_ZTIPPKv",
   "size" : 4,
   "source_file" : "external/boringssl/src/include/openssl/stack.h"
  },
  {
   "alignment" : 4,
   "linker_set_key" : "_ZTIPPv",
   "name" : "void **",
   "referenced_type" : "_ZTIPv",
   "self_type" : "_ZTIPPv",
   "size" : 4,
   "source_file" : "external/boringssl/src/include/openssl/stack.h"
  },
  {
   "alignment" : 4,
   "linker_set_key" : "_ZTIPh",
   "name" : "unsigned char *",
   "referenced_type" : "_ZTIh",
   "self_type" : "_ZTIPh",
   "size" : 4,
   "source_file" : "external/boringssl/src/include/openssl/cipher.h"
  },
  {
   "alignment" : 4,
   "linker_set_key" : "_ZTIPj",
   "name" : "unsigned int *",
   "referenced_type" : "_ZTIj",
   "self_type" : "_ZTIPj",
   "size" : 4,
   "source_file" : "external/boringssl/src/include/openssl/rsa.h"
  },
  {
   "alignment" : 4,
   "linker_set_key" : "_ZTIPv",
   "name" : "void *",
   "referenced_type" : "_ZTIv",
   "self_type" : "_ZTIPv",
   "size" : 4,
   "source_file" : "external/boringssl/src/include/openssl/cipher.h"
  }
 ],
 "qualified_types" :
 [
  {
   "is_const" : true,
   "linker_set_key" : "_ZTIK11evp_aead_st",
   "name" : "const evp_aead_st",
   "referenced_type" : "_ZTI11evp_aead_st",
   "self_type" : "_ZTIK11evp_aead_st",
   "source_file" : "external/boringssl/src/include/openssl/aead.h"
  },
  {
   "alignment" : 4,
   "is_const" : true,
   "linker_set_key" : "_ZTIK13evp_cipher_st",
   "name" : "const evp_cipher_st",
   "referenced_type" : "_ZTI13evp_cipher_st",
   "self_type" : "_ZTIK13evp_cipher_st",
   "size" : 44,
   "source_file" : "external/boringssl/src/include/openssl/cipher.h"
  },
  {
   "is_const" : true,
   "linker_set_key" : "_ZTIK15evp_md_pctx_ops",
   "name" : "const evp_md_pctx_ops",
   "referenced_type" : "_ZTI15evp_md_pctx_ops",
   "self_type" : "_ZTIK15evp_md_pctx_ops",
   "source_file" : "external/boringssl/src/include/openssl/digest.h"
  },
  {
   "alignment" : 4,
   "is_const" : true,
   "linker_set_key" : "_ZTIK23evp_pkey_asn1_method_st",
   "name" : "const evp_pkey_asn1_method_st",
   "referenced_type" : "_ZTI23evp_pkey_asn1_method_st",
   "self_type" : "_ZTIK23evp_pkey_asn1_method_st",
   "size" : 80,
   "source_file" : "external/boringssl/src/include/openssl/evp.h"
  },
  {
   "alignment" : 8,
   "is_const" : true,
   "linker_set_key" : "_ZTIK6rsa_st",
   "name" : "const rsa_st",
   "referenced_type" : "_ZTI6rsa_st",
   "self_type" : "_ZTIK6rsa_st",
   "size" : 160,
   "source_file" : "external/boringssl/src/include/openssl/rsa.h"
  },
  {
   "is_const" : true,
   "linker_set_key" : "_ZTIK9env_md_st",
   "name" : "const env_md_st",
   "referenced_type" : "_ZTI9env_md_st",
   "self_type" : "_ZTIK9env_md_st",
   "source_file" : "external/boringssl/src/include/openssl/digest.h"
  },
  {
   "alignment" : 1,
   "is_const" : true,
   "linker_set_key" : "_ZTIKh",
   "name" : "const unsigned char",
   "referenced_type" : "_ZTIh",
   "self_type" : "_ZTIKh",
   "size" : 1,
   "source_file" : "external/boringssl/src/include/openssl/cipher.h"
  },
  {
   "is_const" : true,
   "linker_set_key" : "_ZTIKv",
   "name" : "const void",
   "referenced_type" : "_ZTIv",
   "self_type" : "_ZTIKv",
   "source_file" : "external/boringssl/src/include/openssl/stack.h"
  }
 ],
 "record_types" :
 [
  {
   "alignment" : 4,
   "fields" :
   [
    {
     "field_name" : "references",
     "referenced_type" : "_ZTIj"
    },
    {
     "field_name" : "type",
     "field_offset" : 32,
     "referenced_type" : "_ZTIi"
    },
    {
     "field_name" : "pkey",
     "field_offset" : 64,
     "referenced_type" : "_ZTIN11evp_pkey_stUt_E"
    },
    {
     "field_name" : "ameth",
     "field_offset" : 96,
     "referenced_type" : "_ZTIPK23evp_pkey_asn1_method_st"
    }
   ],
   "linker_set_key" : "_ZTI11evp_pkey_st",
   "name" : "evp_pkey_st",
   "referenced_type" : "_ZTI11evp_pkey_st",
   "self_type" : "_ZTI11evp_pkey_st",
   "size" : 16,
   "source_file" : "external/boringssl/src/include/openssl/evp.h"
  },
  {
   "alignment" : 4,
   "fields" :
   [
    {
     "field_name" : "common",
     "referenced_type" : "_ZTI24openssl_method_common_st"
    },
    {
     "field_name" : "app_data",
     "field_offset" : 64,
     "referenced_type" : "_ZTIPv"
    },
    {
     "field_name" : "init",
     "field_offset" : 96,
     "referenced_type" : "_ZTIPFiP6rsa_stE"
    },
    {
     "field_name" : "finish",
     "field_offset" : 128,
     "referenced_type" : "_ZTIPFiP6rsa_stE"
    },
    {
     "field_name" : "size",
     "field_offset" : 160,
     "referenced_type" : "_ZTIPFjPK6rsa_stE"
    },
    {
     "field_name" : "sign",
     "field_offset" : 192,
     "referenced_type" : "_ZTIPFiiPKhjPhPjPK6rsa_stE"
    },
    {
     "field_name" : "sign_raw",
     "field_offset" : 224,
     "referenced_type" : "_ZTIPFiP6rsa_stPjPhjPKhjiE"
    },
    {
     "field_name" : "decrypt",
     "field_offset" : 256,
     "referenced_type" : "_ZTIPFiP6rsa_stPjPhjPKhjiE"
    },
    {
     "field_name" : "private_transform",
     "field_offset" : 288,
     "referenced_type" : "_ZTIPFiP6rsa_stPhPKhjE"
    },
    {
     "field_name" : "flags",
     "field_offset" : 320,
     "referenced_type" : "_ZTIi"
    }
   ],
   "linker_set_key" : "_ZTI11rsa_meth_st",
   "name" : "rsa_meth_st",
   "referenced_type" : "_ZTI11rsa_meth_st",
   "self_type" : "_ZTI11rsa_meth_st",
   "size" : 44,
   "source_file" : "external/boringssl/src/include/openssl/rsa.h"
  },
  {
   "alignment" : 4,
   "fields" :
   [
    {
     "field_name" : "buf",
     "referenced_type" : "_ZTIPh"
    },
    {
     "field_name" : "len",
     "field_offset" : 32,
     "referenced_type" : "_ZTIj"
    },
    {
     "field_name" : "cap",
     "field_offset" : 64,
     "referenced_type" : "_ZTIj"
    },
    {
     "field_name" : "can_resize",
     "field_offset" : 96,
     "referenced_type" : "_ZTIc"
    },
    {
     "field_name" : "error",
     "field_offset" : 104,
     "referenced_type" : "_ZTIc"
    }
   ],
   "linker_set_key" : "_ZTI13cbb_buffer_st",
   "name" : "cbb_buffer_st",
   "referenced_type" : "_ZTI13cbb_buffer_st",
   "self_type" : "_ZTI13cbb_buffer_st",
   "size" : 16,
   "source_file" : "external/boringssl/src/include/openssl/bytestring.h"
  },
  {
   "alignment" : 4,
   "fields" :
   [
    {
     "field_name" : "digest",
     "referenced_type" : "_ZTIPK9env_md_st"
    },
    {
     "field_name" : "md_data",
     "field_offset" : 32,
     "referenced_type" : "_ZTIPv"
    },
    {
     "field_name" : "pctx",
     "field_offset" : 64,
     "referenced_type" : "_ZTIP15evp_pkey_ctx_st"
    },
    {
     "field_name" : "pctx_ops",
     "field_offset" : 96,
     "referenced_type" : "_ZTIPK15evp_md_pctx_ops"
    }
   ],
   "linker_set_key" : "_ZTI13env_md_ctx_st",
   "name" : "env_md_ctx_st",
   "referenced_type" : "_ZTI13env_md_ctx_st",
   "self_type" : "_ZTI13env_md_ctx_st",
   "size" : 16,
   "source_file" : "external/boringssl/src/include/openssl/digest.h"
  },
  {
   "alignment" : 4,
   "fields" :
   [
    {
     "field_name" : "nid",
     "referenced_type" : "_ZTIi"
    },
    {
     "field_name" : "block_size",
     "field_offset" : 32,
     "referenced_type" : "_ZTIj"
    },
    {
     "field_name" : "key_len",
     "field_offset" : 64,
     "referenced_type" : "_ZTIj"
    },
    {
     "field_name" : "iv_len",
     "field_offset" : 96,
     "referenced_type" : "_ZTIj"
    },
    {
     "field_name" : "ctx_size",
     "field_offset" : 128,
     "referenced_type" : "_ZTIj"
    },
    {
     "field_name" : "flags",
     "field_offset" : 160,
     "referenced_type" : "_ZTIj"
    },
    {
     "field_name" : "app_data",
     "field_offset" : 192,
     "referenced_type" : "_ZTIPv"
    },
    {
     "field_name" : "init",
     "field_offset" : 224,
     "referenced_type" : "_ZTIPFiP17evp_cipher_ctx_stPKhS2_iE"
    },
    {
     "field_name" : "cipher",
     "field_offset" : 256,
     "referenced_type" : "_ZTIPFiP17evp_cipher_ctx_stPhPKhjE"
    },
    {
     "field_name" : "cleanup",
     "field_offset" : 288,
     "referenced_type" : "_ZTIPFvP17evp_cipher_ctx_stE"
    },
    {
     "field_name" : "ctrl",
     "field_offset" : 320,
     "referenced_type" : "_ZTIPFiP17evp_cipher_ctx_stiiPvE"
    }
   ],
   "linker_set_key" : "_ZTI13evp_cipher_st",
   "name" : "evp_cipher_st",
   "referenced_type" : "_ZTI13evp_cipher_st",
   "self_type" : "_ZTI13evp_cipher_st",
   "size" : 44,
   "source_file" : "external/boringssl/src/include/openssl/cipher.h"
  },
  {
   "alignment" : 4,
   "fields" :
   [
    {
     "field_name" : "references",
     "referenced_type" : "_ZTIi"
    },
    {
     "field_name" : "data",
     "field_offset" : 32,
     "referenced_type" : "_ZTIP20CRYPTO_dynlock_value"
    }
   ],
   "linker_set_key" : "_ZTI14CRYPTO_dynlock",
   "name" : "CRYPTO_dynlock",
   "referenced_type" : "_ZTI14CRYPTO_dynlock",
   "self_type" : "_ZTI14CRYPTO_dynlock",
   "size" : 8,
   "source_file" : "external/boringssl/src/include/openssl/thread.h"
  },
  {
   "alignment" : 8,
   "fields" :
   [
    {
     "field_name" : "alignment",
     "referenced_type" : "_ZTId"
    },
    {
     "field_name" : "padding",
     "referenced_type" : "_ZTIA56_h"
    }
   ],
   "linker_set_key" : "_ZTI15crypto_mutex_st",
   "name" : "crypto_mutex_st",
   "record_kind" : "union",
   "referenced_type" : "_ZTI15crypto_mutex_st",
   "self_type" : "_ZTI15crypto_mutex_st",
   "size" : 56,
   "source_file" : "external/boringssl/src/include/openssl/thread.h"
  },
  {
   "alignment" : 8,
   "fields" :
   [
    {
     "field_name" : "aead",
     "referenced_type" : "_ZTIPK11evp_aead_st"
    },
    {
     "field_name" : "state",
     "field_offset" : 64,
     "referenced_type" : "_ZTI21evp_aead_ctx_st_state"
    },
    {
     "field_name" : "tag_len",
     "field_offset" : 4736,
     "referenced_type" : "_ZTIh"
    }
   ],
   "linker_set_key" : "_ZTI15evp_aead_ctx_st",
   "name" : "evp_aead_ctx_st",
   "referenced_type" : "_ZTI15evp_aead_ctx_st",
   "self_type" : "_ZTI15evp_aead_ctx_st",
   "size" : 600,
   "source_file" : "external/boringssl/src/include/openssl/aead.h"
  },
  {
   "alignment" : 4,
   "fields" :
   [
    {
     "field_name" : "sk",
     "referenced_type" : "_ZTIP13stack_st_void"
    }
   ],
   "linker_set_key" : "_ZTI17crypto_ex_data_st",
   "name" : "crypto_ex_data_st",
   "referenced_type" : "_ZTI17crypto_ex_data_st",
   "self_type" : "_ZTI17crypto_ex_data_st",
   "size" : 4,
   "source_file" : "external/boringssl/src/include/openssl/ex_data.h"
  },
  {
   "alignment" : 4,
   "fields" :
   [
    {
     "field_name" : "cipher",
     "referenced_type" : "_ZTIPK13evp_cipher_st"
    },
    {
     "field_name" : "app_data",
     "field_offset" : 32,
     "referenced_type" : "_ZTIPv"
    },
    {
     "field_name" : "cipher_data",
     "field_offset" : 64,
     "referenced_type" : "_ZTIPv"
    },
    {
     "field_name" : "key_len",
     "field_offset" : 96,
     "referenced_type" : "_ZTIj"
    },
    {
     "field_name" : "encrypt",
     "field_offset" : 128,
     "referenced_type" : "_ZTIi"
    },
    {
     "field_name" : "flags",
     "field_offset" : 160,
     "referenced_type" : "_ZTIj"
    },
    {
     "field_name" : "oiv",
     "field_offset" : 192,
     "referenced_type" : "_ZTIA16_h"
    },
    {
     "field_name" : "iv",
     "field_offset" : 320,
     "referenced_type" : "_ZTIA16_h"
    },
    {
     "field_name" : "buf",
     "field_offset" : 448,
     "referenced_type" : "_ZTIA32_h"
    },
    {
     "field_name" : "buf_len",
     "field_offset" : 704,
     "referenced_type" : "_ZTIi"
    },
    {
     "field_name" : "num",
     "field_offset" : 736,
     "referenced_type" : "_ZTIj"
    },
    {
     "field_name" : "final_used",
     "field_offset" : 768,
     "referenced_type" : "_ZTIi"
    },
    {
     "field_name" : "block_mask",
     "field_offset" : 800,
     "referenced_type" : "_ZTIi"
    },
    {
     "field_name" : "final",
     "field_offset" : 832,
     "referenced_type" : "_ZTIA32_h"
    }
   ],
   "linker_set_key" : "_ZTI17evp_cipher_ctx_st",
   "name" : "evp_cipher_ctx_st",
   "referenced_type" : "_ZTI17evp_cipher_ctx_st",
   "self_type" : "_ZTI17evp_cipher_ctx_st",
   "size" : 136,
   "source_file" : "external/boringssl/src/include/openssl/cipher.h"
  },
  {
   "alignment" : 4,
   "fields" :
   [
    {
     "field_name" : "data_used",
     "referenced_type" : "_ZTIj"
    },
    {
     "field_name" : "data",
     "field_offset" : 32,
     "referenced_type" : "_ZTIA48_h"
    },
    {
     "field_name" : "eof_seen",
     "field_offset" : 416,
     "referenced_type" : "_ZTIc"
    },
    {
     "field_name" : "error_encountered",
     "field_offset" : 424,
     "referenced_type" : "_ZTIc"
    }
   ],
   "linker_set_key" : "_ZTI17evp_encode_ctx_st",
   "name" : "evp_encode_ctx_st",
   "referenced_type" : "_ZTI17evp_encode_ctx_st",
   "self_type" : "_ZTI17evp_encode_ctx_st",
   "size" : 56,
   "source_file" : "external/boringssl/src/include/openssl/base64.h"
  },
  {
   "alignment" : 4,
   "fields" :
   [
    {
     "field_name" : "cipher",
     "referenced_type" : "_ZTIPK13evp_cipher_st"
    },
    {
     "field_name" : "iv",
     "field_offset" : 32,
     "referenced_type" : "_ZTIA16_h"
    }
   ],
   "linker_set_key" : "_ZTI18evp_cipher_info_st",
   "name" : "evp_cipher_info_st",
   "referenced_type" : "_ZTI18evp_cipher_info_st",
   "self_type" : "_ZTI18evp_cipher_info_st",
   "size" : 20,
   "source_file" : "external/boringssl/src/include/openssl/cipher.h"
  },
  {
   "alignment" : 8,
   "fields" :
   [
    {
     "field_name" : "opaque",
     "referenced_type" : "_ZTIA580_h"
    },
    {
     "field_name" : "alignment",
     "referenced_type" : "_ZTIy"
    }
   ],
   "linker_set_key" : "_ZTI21evp_aead_ctx_st_state",
   "name" : "evp_aead_ctx_st_state",
   "record_kind" : "union",
   "referenced_type" : "_ZTI21evp_aead_ctx_st_state",
   "self_type" : "_ZTI21evp_aead_ctx_st_state",
   "size" : 584,
   "source_file" : "external/boringssl/src/include/openssl/aead.h"
  },
  {
   "alignment" : 4,
   "fields" :
   [
    {
     "field_name" : "references",
     "referenced_type" : "_ZTIi"
    },
    {
     "field_name" : "is_static",
     "field_offset" : 32,
     "referenced_type" : "_ZTIc"
    }
   ],
   "linker_set_key" : "_ZTI24openssl_method_common_st",
   "name" : "openssl_method_common_st",
   "referenced_type" : "_ZTI24openssl_method_common_st",
   "self_type" : "_ZTI24openssl_method_common_st",
   "size" : 8,
   "source_file" : "external/boringssl/src/include/openssl/engine.h"
  },
  {
   "alignment" : 4,
   "fields" :
   [
    {
     "field_name" : "base",
     "referenced_type" : "_ZTIP13cbb_buffer_st"
    },
    {
     "field_name" : "child",
     "field_offset" : 32,
     "referenced_type" : "_ZTIP6cbb_st"
    },
    {
     "field_name" : "offset",
     "field_offset" : 64,
     "referenced_type" : "_ZTIj"
    },
    {
     "field_name" : "pending_len_len",
     "field_offset" : 96,
     "referenced_type" : "_ZTIh"
    },
    {
     "field_name" : "pending_is_asn1",
     "field_offset" : 104,
     "referenced_type" : "_ZTIc"
    },
    {
     "field_name" : "is_child",
     "field_offset" : 112,
     "referenced_type" : "_ZTIc"
    }
   ],
   "linker_set_key" : "_ZTI6cbb_st",
   "name" : "cbb_st",
   "referenced_type" : "_ZTI6cbb_st",
   "self_type" : "_ZTI6cbb_st",
   "size" : 16,
   "source_file" : "external/boringssl/src/include/openssl/bytestring.h"
  },
  {
   "alignment" : 4,
   "fields" :
   [
    {
     "field_name" : "data",
     "referenced_type" : "_ZTIPKh"
    },
    {
     "field_name" : "len",
     "field_offset" : 32,
     "referenced_type" : "_ZTIj"
    }
   ],
   "linker_set_key" : "_ZTI6cbs_st",
   "name" : "cbs_st",
   "referenced_type" : "_ZTI6cbs_st",
   "self_type" : "_ZTI6cbs_st",
   "size" : 8,
   "source_file" : "external/boringssl/src/include/openssl/bytestring.h"
  },
  {
   "alignment" : 8,
   "fields" :
   [
    {
     "field_name" : "meth",
     "referenced_type" : "_ZTIP11rsa_meth_st"
    },
    {
     "field_name" : "n",
     "field_offset" : 32,
     "referenced_type" : "_ZTIP9bignum_st"
    },
    {
     "field_name" : "e",
     "field_offset" : 64,
     "referenced_type" : "_ZTIP9bignum_st"
    },
    {
     "field_name" : "d",
     "field_offset" : 96,
     "referenced_type" : "_ZTIP9bignum_st"
    },
    {
     "field_name" : "p",
     "field_offset" : 128,
     "referenced_type" : "_ZTIP9bignum_st"
    },
    {
     "field_name" : "q",
     "field_offset" : 160,
     "referenced_type" : "_ZTIP9bignum_st"
    },
    {
     "field_name" : "dmp1",
     "field_offset" : 192,
     "referenced_type" : "_ZTIP9bignum_st"
    },
    {
     "field_name" : "dmq1",
     "field_offset" : 224,
     "referenced_type" : "_ZTIP9bignum_st"
    },
    {
     "field_name" : "iqmp",
     "field_offset" : 256,
     "referenced_type" : "_ZTIP9bignum_st"
    },
    {
     "field_name" : "ex_data",
     "field_offset" : 288,
     "referenced_type" : "_ZTI17crypto_ex_data_st"
    },
    {
     "field_name" : "references",
     "field_offset" : 320,
     "referenced_type" : "_ZTIj"
    },
    {
     "field_name" : "flags",
     "field_offset" : 352,
     "referenced_type" : "_ZTIi"
    },
    {
     "field_name" : "lock",
     "field_offset" : 384,
     "referenced_type" : "_ZTI15crypto_mutex_st"
    },
    {
     "field_name" : "mont_n",
     "field_offset" : 832,
     "referenced_type" : "_ZTIP14bn_mont_ctx_st"
    },
    {
     "field_name" : "mont_p",
     "field_offset" : 864,
     "referenced_type" : "_ZTIP14bn_mont_ctx_st"
    },
    {
     "field_name" : "mont_q",
     "field_offset" : 896,
     "referenced_type" : "_ZTIP14bn_mont_ctx_st"
    },
    {
     "field_name" : "d_fixed",
     "field_offset" : 928,
     "referenced_type" : "_ZTIP9bignum_st"
    },
    {
     "field_name" : "dmp1_fixed",
     "field_offset" : 960,
     "referenced_type" : "_ZTIP9bignum_st"
    },
    {
     "field_name" : "dmq1_fixed",
     "field_offset" : 992,
     "referenced_type" : "_ZTIP9bignum_st"
    },
    {
     "field_name" : "inv_small_mod_large_mont",
     "field_offset" : 1024,
     "referenced_type" : "_ZTIP9bignum_st"
    },
    {
     "field_name" : "num_blindings",
     "field_offset" : 1056,
     "referenced_type" : "_ZTIj"
    },
    {
     "field_name" : "blindings",
     "field_offset" : 1088,
     "referenced_type" : "_ZTIPP14bn_blinding_st"
    },
    {
     "field_name" : "blindings_inuse",
     "field_offset" : 1120,
     "referenced_type" : "_ZTIPh"
    },
    {
     "field_name" : "blinding_fork_generation",
     "field_offset" : 1152,
     "referenced_type" : "_ZTIy"
    },
    {
     "field_name" : "private_key_frozen",
     "field_offset" : 1216,
     "referenced_type" : "_ZTIj"
    }
   ],
   "linker_set_key" : "_ZTI6rsa_st",
   "name" : "rsa_st",
   "referenced_type" : "_ZTI6rsa_st",
   "self_type" : "_ZTI6rsa_st",
   "size" : 160,
   "source_file" : "external/boringssl/src/include/openssl/rsa.h"
  },
  {
   "alignment" : 4,
   "fields" :
   [
    {
     "field_name" : "num",
     "referenced_type" : "_ZTIj"
    },
    {
     "field_name" : "data",
     "field_offset" : 32,
     "referenced_type" : "_ZTIPPv"
    },
    {
     "field_name" : "sorted",
     "field_offset" : 64,
     "referenced_type" : "_ZTIi"
    },
    {
     "field_name" : "num_alloc",
     "field_offset" : 96,
     "referenced_type" : "_ZTIj"
    },
    {
     "field_name" : "comp",
     "field_offset" : 128,
     "referenced_type" : "_ZTIPFiPPKvS1_E"
    }
   ],
   "linker_set_key" : "_ZTI8stack_st",
   "name" : "stack_st",
   "referenced_type" : "_ZTI8stack_st",
   "self_type" : "_ZTI8stack_st",
   "size" : 20,
   "source_file" : "external/boringssl/src/include/openssl/stack.h"
  },
  {
   "alignment" : 4,
   "fields" :
   [
    {
     "field_name" : "ptr",
     "referenced_type" : "_ZTIPv"
    },
    {
     "field_name" : "rsa",
     "referenced_type" : "_ZTIP6rsa_st"
    },
    {
     "field_name" : "dsa",
     "referenced_type" : "_ZTIP6dsa_st"
    },
    {
     "field_name" : "dh",
     "referenced_type" : "_ZTIP5dh_st"
    },
    {
     "field_name" : "ec",
     "referenced_type" : "_ZTIP9ec_key_st"
    }
   ],
   "is_anonymous" : true,
   "linker_set_key" : "_ZTIN11evp_pkey_stUt_E",
   "name" : "evp_pkey_st::(anonymous union at external/boringssl/src/include/openssl/evp.h:1064:3)",
   "record_kind" : "union",
   "referenced_type" : "_ZTIN11evp_pkey_stUt_E",
   "self_type" : "_ZTIN11evp_pkey_stUt_E",
   "size" : 4,
   "source_file" : "external/boringssl/src/include/openssl/evp.h"
  }
 ],
 "rvalue_reference_types" : []
}
