{
 "array_types" :
 [
  {
   "alignment" : 8,
   "linker_set_key" : "_ZTIA0_22file_dedupe_range_info",
   "name" : "file_dedupe_range_info [0]",
   "referenced_type" : "_ZTI22file_dedupe_range_info",
   "self_type" : "_ZTIA0_22file_dedupe_range_info",
   "source_file" : "bionic/libc/kernel/uapi/linux/fs.h"
  },
  {
   "alignment" : 1,
   "linker_set_key" : "_ZTIA0_c",
   "name" : "char [0]",
   "referenced_type" : "_ZTIc",
   "self_type" : "_ZTIA0_c",
   "source_file" : "bionic/libc/kernel/uapi/linux/audit.h"
  },
  {
   "alignment" : 4,
   "linker_set_key" : "_ZTIA10_i",
   "name" : "int [10]",
   "referenced_type" : "_ZTIi",
   "self_type" : "_ZTIA10_i",
   "size" : 40,
   "source_file" : "out/soong/.intermediates/bionic/libc/libc/android_vendor.32_arm_armv8-a_shared/gen/include/bits/pthread_types.h"
  },
  {
   "alignment" : 1,
   "linker_set_key" : "_ZTIA120_c",
   "name" : "char [120]",
   "referenced_type" : "_ZTIc",
   "self_type" : "_ZTIA120_c",
   "size" : 120,
   "source_file" : "out/soong/.intermediates/bionic/libc/libc/android_vendor.32_arm_armv8-a_shared/gen/include/sys/ucontext.h"
  },
  {
   "alignment" : 1,
   "linker_set_key" : "_ZTIA126_c",
   "name" : "char [126]",
   "referenced_type" : "_ZTIc",
   "self_type" : "_ZTIA126_c",
   "size" : 126,
   "source_file" : "bionic/libc/kernel/uapi/linux/socket.h"
  },
  {
   "alignment" : 4,
   "linker_set_key" : "_ZTIA128_m",
   "name" : "unsigned long [128]",
   "referenced_type" : "_ZTIm",
   "self_type" : "_ZTIA128_m",
   "size" : 512,
   "source_file" : "out/soong/.intermediates/bionic/libc/libc/android_vendor.32_arm_armv8-a_shared/gen/include/sys/ucontext.h"
  },
  {
   "alignment" : 8,
   "linker_set_key" : "_ZTIA12_y",
   "name" : "unsigned long long [12]",
   "referenced_type" : "_ZTIy",
   "self_type" : "_ZTIA12_y",
   "size" : 96,
   "source_file" : "bionic/libc/kernel/uapi/linux/stat.h"
  },
  {
   "alignment" : 4,
   "linker_set_key" : "_ZTIA13_i",
   "name" : "int [13]",
   "referenced_type" : "_ZTIi",
   "self_type" : "_ZTIA13_i",
   "size" : 52,
   "source_file" : "bionic/libc/kernel/uapi/asm-generic/siginfo.h"
  },
  {
   "alignment" : 4,
   "linker_set_key" : "_ZTIA13_j",
   "name" : "unsigned int [13]",
   "referenced_type" : "_ZTIj",
   "self_type" : "_ZTIA13_j",
   "size" : 52,
   "source_file" : "bionic/libc/kernel/uapi/linux/fscrypt.h"
  },
  {
   "alignment" : 1,
   "linker_set_key" : "_ZTIA14_c",
   "name" : "char [14]",
   "referenced_type" : "_ZTIc",
   "self_type" : "_ZTIA14_c",
   "size" : 14,
   "source_file" : "out/soong/.intermediates/bionic/libc/libc/android_vendor.32_arm_armv8-a_shared/gen/include/sys/socket.h"
  },
  {
   "alignment" : 1,
   "linker_set_key" : "_ZTIA16_h",
   "name" : "unsigned char [16]",
   "referenced_type" : "_ZTIh",
   "self_type" : "_ZTIA16_h",
   "size" : 16,
   "source_file" : "bionic/libc/kernel/uapi/linux/fd.h"
  },
  {
   "alignment" : 4,
   "linker_set_key" : "_ZTIA18_m",
   "name" : "unsigned long [18]",
   "referenced_type" : "_ZTIm",
   "self_type" : "_ZTIA18_m",
   "size" : 72,
   "source_file" : "out/soong/.intermediates/bionic/libc/libc/android_vendor.32_arm_armv8-a_shared/gen/include/sys/user.h"
  },
  {
   "alignment" : 1,
   "linker_set_key" : "_ZTIA19_h",
   "name" : "unsigned char [19]",
   "referenced_type" : "_ZTIh",
   "self_type" : "_ZTIA19_h",
   "size" : 19,
   "source_file" : "bionic/libc/kernel/uapi/asm-generic/termbits.h"
  },
  {
   "alignment" : 1,
   "linker_set_key" : "_ZTIA1_c",
   "name" : "char [1]",
   "referenced_type" : "_ZTIc",
   "self_type" : "_ZTIA1_c",
   "size" : 1,
   "source_file" : "bionic/libc/kernel/uapi/linux/serial.h"
  },
  {
   "alignment" : 4,
   "linker_set_key" : "_ZTIA1_i",
   "name" : "int [1]",
   "referenced_type" : "_ZTIi",
   "self_type" : "_ZTIA1_i",
   "size" : 4,
   "source_file" : "out/soong/.intermediates/bionic/libc/libc/android_vendor.32_arm_armv8-a_shared/gen/include/bits/pthread_types.h"
  },
  {
   "alignment" : 2,
   "linker_set_key" : "_ZTIA1_t",
   "name" : "unsigned short [1]",
   "referenced_type" : "_ZTIt",
   "self_type" : "_ZTIA1_t",
   "size" : 2,
   "source_file" : "bionic/libc/kernel/uapi/linux/stat.h"
  },
  {
   "alignment" : 4,
   "linker_set_key" : "_ZTIA2100_14constant_entry",
   "name" : "constant_entry [2100]",
   "referenced_type" : "_ZTI14constant_entry",
   "self_type" : "_ZTIA2100_14constant_entry",
   "size" : 16800,
   "source_file" : "out/soong/.intermediates/external/minijail/libminijail_gen_constants/android_vendor.32_arm_armv8-a/gen/libconstants.c"
  },
  {
   "alignment" : 4,
   "linker_set_key" : "_ZTIA2_i",
   "name" : "int [2]",
   "referenced_type" : "_ZTIi",
   "self_type" : "_ZTIA2_i",
   "size" : 8,
   "source_file" : "bionic/libc/kernel/uapi/asm-generic/posix_types.h"
  },
  {
   "alignment" : 4,
   "linker_set_key" : "_ZTIA2_m",
   "name" : "unsigned long [2]",
   "referenced_type" : "_ZTIm",
   "self_type" : "_ZTIA2_m",
   "size" : 8,
   "source_file" : "bionic/libc/kernel/uapi/linux/loop.h"
  },
  {
   "alignment" : 8,
   "linker_set_key" : "_ZTIA2_y",
   "name" : "unsigned long long [2]",
   "referenced_type" : "_ZTIy",
   "self_type" : "_ZTIA2_y",
   "size" : 16,
   "source_file" : "bionic/libc/kernel/uapi/linux/loop.h"
  },
  {
   "alignment" : 1,
   "linker_set_key" : "_ZTIA32_c",
   "name" : "char [32]",
   "referenced_type" : "_ZTIc",
   "self_type" : "_ZTIA32_c",
   "size" : 32,
   "source_file" : "out/soong/.intermediates/bionic/libc/libc/android_vendor.32_arm_armv8-a_shared/gen/include/sys/user.h"
  },
  {
   "alignment" : 1,
   "linker_set_key" : "_ZTIA32_h",
   "name" : "unsigned char [32]",
   "referenced_type" : "_ZTIh",
   "self_type" : "_ZTIA32_h",
   "size" : 32,
   "source_file" : "bionic/libc/kernel/uapi/linux/fscrypt.h"
  },
  {
   "alignment" : 4,
   "linker_set_key" : "_ZTIA32_i",
   "name" : "int [32]",
   "referenced_type" : "_ZTIi",
   "self_type" : "_ZTIA32_i",
   "size" : 128,
   "source_file" : "bionic/libc/kernel/uapi/linux/serial.h"
  },
  {
   "alignment" : 4,
   "linker_set_key" : "_ZTIA32_m",
   "name" : "unsigned long [32]",
   "referenced_type" : "_ZTIm",
   "self_type" : "_ZTIA32_m",
   "size" : 128,
   "source_file" : "bionic/libc/kernel/uapi/linux/posix_types.h"
  },
  {
   "alignment" : 8,
   "linker_set_key" : "_ZTIA32_y",
   "name" : "unsigned long long [32]",
   "referenced_type" : "_ZTIy",
   "self_type" : "_ZTIA32_y",
   "size" : 256,
   "source_file" : "out/soong/.intermediates/bionic/libc/libc/android_vendor.32_arm_armv8-a_shared/gen/include/sys/user.h"
  },
  {
   "alignment" : 1,
   "linker_set_key" : "_ZTIA33_h",
   "name" : "unsigned char [33]",
   "referenced_type" : "_ZTIh",
   "self_type" : "_ZTIA33_h",
   "size" : 33,
   "source_file" : "bionic/libc/kernel/uapi/linux/fd.h"
  },
  {
   "alignment" : 1,
   "linker_set_key" : "_ZTIA4_c",
   "name" : "char [4]",
   "referenced_type" : "_ZTIc",
   "self_type" : "_ZTIA4_c",
   "size" : 4,
   "source_file" : "bionic/libc/kernel/uapi/linux/loop.h"
  },
  {
   "alignment" : 1,
   "linker_set_key" : "_ZTIA4_h",
   "name" : "unsigned char [4]",
   "referenced_type" : "_ZTIh",
   "self_type" : "_ZTIA4_h",
   "size" : 4,
   "source_file" : "bionic/libc/kernel/uapi/linux/fd.h"
  },
  {
   "alignment" : 4,
   "linker_set_key" : "_ZTIA5_j",
   "name" : "unsigned int [5]",
   "referenced_type" : "_ZTIj",
   "self_type" : "_ZTIA5_j",
   "size" : 20,
   "source_file" : "bionic/libc/kernel/uapi/linux/fscrypt.h"
  },
  {
   "alignment" : 4,
   "linker_set_key" : "_ZTIA5_l",
   "name" : "long [5]",
   "referenced_type" : "_ZTIl",
   "self_type" : "_ZTIA5_l",
   "size" : 20,
   "source_file" : "bionic/libc/kernel/uapi/linux/fs.h"
  },
  {
   "alignment" : 1,
   "linker_set_key" : "_ZTIA64_c",
   "name" : "char [64]",
   "referenced_type" : "_ZTIc",
   "self_type" : "_ZTIA64_c",
   "size" : 64,
   "source_file" : "bionic/libc/kernel/uapi/linux/loop.h"
  },
  {
   "alignment" : 1,
   "linker_set_key" : "_ZTIA64_h",
   "name" : "unsigned char [64]",
   "referenced_type" : "_ZTIh",
   "self_type" : "_ZTIA64_h",
   "size" : 64,
   "source_file" : "bionic/libc/kernel/uapi/linux/fscrypt.h"
  },
  {
   "alignment" : 4,
   "linker_set_key" : "_ZTIA64_j",
   "name" : "unsigned int [64]",
   "referenced_type" : "_ZTIj",
   "self_type" : "_ZTIA64_j",
   "size" : 256,
   "source_file" : "bionic/libc/kernel/uapi/linux/audit.h"
  },
  {
   "alignment" : 4,
   "linker_set_key" : "_ZTIA65_PKc",
   "name" : "const char *[65]",
   "referenced_type" : "_ZTIPKc",
   "self_type" : "_ZTIA65_PKc",
   "size" : 260,
   "source_file" : "out/soong/.intermediates/bionic/libc/libc/android_vendor.32_arm_armv8-a_shared/gen/include/signal.h"
  },
  {
   "alignment" : 4,
   "linker_set_key" : "_ZTIA6_j",
   "name" : "unsigned int [6]",
   "referenced_type" : "_ZTIj",
   "self_type" : "_ZTIA6_j",
   "size" : 24,
   "source_file" : "bionic/libc/kernel/uapi/linux/fscrypt.h"
  },
  {
   "alignment" : 4,
   "linker_set_key" : "_ZTIA7_j",
   "name" : "unsigned int [7]",
   "referenced_type" : "_ZTIj",
   "self_type" : "_ZTIA7_j",
   "size" : 28,
   "source_file" : "bionic/libc/kernel/uapi/linux/fscrypt.h"
  },
  {
   "alignment" : 4,
   "linker_set_key" : "_ZTIA8_6fp_reg",
   "name" : "fp_reg [8]",
   "referenced_type" : "_ZTI6fp_reg",
   "self_type" : "_ZTIA8_6fp_reg",
   "size" : 96,
   "source_file" : "out/soong/.intermediates/bionic/libc/libc/android_vendor.32_arm_armv8-a_shared/gen/include/sys/user.h"
  },
  {
   "alignment" : 1,
   "linker_set_key" : "_ZTIA8_h",
   "name" : "unsigned char [8]",
   "referenced_type" : "_ZTIh",
   "self_type" : "_ZTIA8_h",
   "size" : 8,
   "source_file" : "bionic/libc/kernel/uapi/linux/fscrypt.h"
  },
  {
   "alignment" : 4,
   "linker_set_key" : "_ZTIA8_i",
   "name" : "int [8]",
   "referenced_type" : "_ZTIi",
   "self_type" : "_ZTIA8_i",
   "size" : 32,
   "source_file" : "out/soong/.intermediates/bionic/libc/libc/android_vendor.32_arm_armv8-a_shared/gen/include/bits/pthread_types.h"
  },
  {
   "alignment" : 2,
   "linker_set_key" : "_ZTIA8_s",
   "name" : "short [8]",
   "referenced_type" : "_ZTIs",
   "self_type" : "_ZTIA8_s",
   "size" : 16,
   "source_file" : "bionic/libc/kernel/uapi/linux/fd.h"
  },
  {
   "alignment" : 8,
   "linker_set_key" : "_ZTIA8_y",
   "name" : "unsigned long long [8]",
   "referenced_type" : "_ZTIy",
   "self_type" : "_ZTIA8_y",
   "size" : 64,
   "source_file" : "bionic/libc/kernel/uapi/linux/loop.h"
  },
  {
   "alignment" : 4,
   "linker_set_key" : "_ZTIA9_i",
   "name" : "int [9]",
   "referenced_type" : "_ZTIi",
   "self_type" : "_ZTIA9_i",
   "size" : 36,
   "source_file" : "bionic/libc/kernel/uapi/linux/serial.h"
  },
  {
   "linker_set_key" : "_ZTIA_14constant_entry",
   "name" : "constant_entry []",
   "referenced_type" : "_ZTI14constant_entry",
   "self_type" : "_ZTIA_14constant_entry",
   "source_file" : "external/minijail/libconstants.h"
  },
  {
   "linker_set_key" : "_ZTIA_h",
   "name" : "unsigned char []",
   "referenced_type" : "_ZTIh",
   "self_type" : "_ZTIA_h",
   "source_file" : "bionic/libc/kernel/uapi/linux/fscrypt.h"
  }
 ],
 "builtin_types" :
 [
  {
   "alignment" : 1,
   "is_integral" : true,
   "linker_set_key" : "_ZTIa",
   "name" : "signed char",
   "referenced_type" : "_ZTIa",
   "self_type" : "_ZTIa",
   "size" : 1
  },
  {
   "alignment" : 1,
   "is_integral" : true,
   "is_unsigned" : true,
   "linker_set_key" : "_ZTIc",
   "name" : "char",
   "referenced_type" : "_ZTIc",
   "self_type" : "_ZTIc",
   "size" : 1
  },
  {
   "alignment" : 8,
   "linker_set_key" : "_ZTIe",
   "name" : "long double",
   "referenced_type" : "_ZTIe",
   "self_type" : "_ZTIe",
   "size" : 8
  },
  {
   "alignment" : 1,
   "is_integral" : true,
   "is_unsigned" : true,
   "linker_set_key" : "_ZTIh",
   "name" : "unsigned char",
   "referenced_type" : "_ZTIh",
   "self_type" : "_ZTIh",
   "size" : 1
  },
  {
   "alignment" : 4,
   "is_integral" : true,
   "linker_set_key" : "_ZTIi",
   "name" : "int",
   "referenced_type" : "_ZTIi",
   "self_type" : "_ZTIi",
   "size" : 4
  },
  {
   "alignment" : 4,
   "is_integral" : true,
   "is_unsigned" : true,
   "linker_set_key" : "_ZTIj",
   "name" : "unsigned int",
   "referenced_type" : "_ZTIj",
   "self_type" : "_ZTIj",
   "size" : 4
  },
  {
   "alignment" : 4,
   "is_integral" : true,
   "linker_set_key" : "_ZTIl",
   "name" : "long",
   "referenced_type" : "_ZTIl",
   "self_type" : "_ZTIl",
   "size" : 4
  },
  {
   "alignment" : 4,
   "is_integral" : true,
   "is_unsigned" : true,
   "linker_set_key" : "_ZTIm",
   "name" : "unsigned long",
   "referenced_type" : "_ZTIm",
   "self_type" : "_ZTIm",
   "size" : 4
  },
  {
   "alignment" : 2,
   "is_integral" : true,
   "linker_set_key" : "_ZTIs",
   "name" : "short",
   "referenced_type" : "_ZTIs",
   "self_type" : "_ZTIs",
   "size" : 2
  },
  {
   "alignment" : 2,
   "is_integral" : true,
   "is_unsigned" : true,
   "linker_set_key" : "_ZTIt",
   "name" : "unsigned short",
   "referenced_type" : "_ZTIt",
   "self_type" : "_ZTIt",
   "size" : 2
  },
  {
   "linker_set_key" : "_ZTIv",
   "name" : "void",
   "referenced_type" : "_ZTIv",
   "self_type" : "_ZTIv"
  },
  {
   "alignment" : 8,
   "is_integral" : true,
   "linker_set_key" : "_ZTIx",
   "name" : "long long",
   "referenced_type" : "_ZTIx",
   "self_type" : "_ZTIx",
   "size" : 8
  },
  {
   "alignment" : 8,
   "is_integral" : true,
   "is_unsigned" : true,
   "linker_set_key" : "_ZTIy",
   "name" : "unsigned long long",
   "referenced_type" : "_ZTIy",
   "self_type" : "_ZTIy",
   "size" : 8
  }
 ],
 "elf_functions" : [],
 "elf_objects" : [],
 "enum_types" :
 [
  {
   "alignment" : 4,
   "enum_fields" :
   [
    {
     "enum_field_value" : 0,
     "name" : "Audit_equal"
    },
    {
     "enum_field_value" : 1,
     "name" : "Audit_not_equal"
    },
    {
     "enum_field_value" : 2,
     "name" : "Audit_bitmask"
    },
    {
     "enum_field_value" : 3,
     "name" : "Audit_bittest"
    },
    {
     "enum_field_value" : 4,
     "name" : "Audit_lt"
    },
    {
     "enum_field_value" : 5,
     "name" : "Audit_gt"
    },
    {
     "enum_field_value" : 6,
     "name" : "Audit_le"
    },
    {
     "enum_field_value" : 7,
     "name" : "Audit_ge"
    },
    {
     "enum_field_value" : 8,
     "name" : "Audit_bad"
    }
   ],
   "linker_set_key" : "_ZTI10$Audit_bad",
   "name" : "(anonymous enum at bionic/libc/kernel/uapi/linux/audit.h:233:1)",
   "referenced_type" : "_ZTI10$Audit_bad",
   "self_type" : "_ZTI10$Audit_bad",
   "size" : 4,
   "source_file" : "bionic/libc/kernel/uapi/linux/audit.h",
   "underlying_type" : "_ZTIj"
  },
  {
   "alignment" : 4,
   "enum_fields" :
   [
    {
     "enum_field_value" : 0,
     "name" : "FD_RESET_IF_NEEDED"
    },
    {
     "enum_field_value" : 1,
     "name" : "FD_RESET_IF_RAWCMD"
    },
    {
     "enum_field_value" : 2,
     "name" : "FD_RESET_ALWAYS"
    }
   ],
   "linker_set_key" : "_ZTI10reset_mode",
   "name" : "reset_mode",
   "referenced_type" : "_ZTI10reset_mode",
   "self_type" : "_ZTI10reset_mode",
   "size" : 4,
   "source_file" : "bionic/libc/kernel/uapi/linux/fd.h",
   "underlying_type" : "_ZTIj"
  },
  {
   "alignment" : 4,
   "enum_fields" :
   [
    {
     "enum_field_value" : 0,
     "name" : "AUDIT_NLGRP_NONE"
    },
    {
     "enum_field_value" : 1,
     "name" : "AUDIT_NLGRP_READLOG"
    },
    {
     "enum_field_value" : 2,
     "name" : "__AUDIT_NLGRP_MAX"
    }
   ],
   "linker_set_key" : "_ZTI12audit_nlgrps",
   "name" : "audit_nlgrps",
   "referenced_type" : "_ZTI12audit_nlgrps",
   "self_type" : "_ZTI12audit_nlgrps",
   "size" : 4,
   "source_file" : "bionic/libc/kernel/uapi/linux/audit.h",
   "underlying_type" : "_ZTIj"
  },
  {
   "alignment" : 4,
   "enum_fields" :
   [
    {
     "enum_field_value" : 0,
     "name" : "SS_FREE"
    },
    {
     "enum_field_value" : 1,
     "name" : "SS_UNCONNECTED"
    },
    {
     "enum_field_value" : 2,
     "name" : "SS_CONNECTING"
    },
    {
     "enum_field_value" : 3,
     "name" : "SS_CONNECTED"
    },
    {
     "enum_field_value" : 4,
     "name" : "SS_DISCONNECTING"
    }
   ],
   "linker_set_key" : "_ZTI12socket_state",
   "name" : "socket_state",
   "referenced_type" : "_ZTI12socket_state",
   "self_type" : "_ZTI12socket_state",
   "size" : 4,
   "source_file" : "bionic/libc/kernel/uapi/linux/net.h",
   "underlying_type" : "_ZTIj"
  },
  {
   "alignment" : 4,
   "enum_fields" :
   [
    {
     "enum_field_value" : 0,
     "name" : "FSCONFIG_SET_FLAG"
    },
    {
     "enum_field_value" : 1,
     "name" : "FSCONFIG_SET_STRING"
    },
    {
     "enum_field_value" : 2,
     "name" : "FSCONFIG_SET_BINARY"
    },
    {
     "enum_field_value" : 3,
     "name" : "FSCONFIG_SET_PATH"
    },
    {
     "enum_field_value" : 4,
     "name" : "FSCONFIG_SET_PATH_EMPTY"
    },
    {
     "enum_field_value" : 5,
     "name" : "FSCONFIG_SET_FD"
    },
    {
     "enum_field_value" : 6,
     "name" : "FSCONFIG_CMD_CREATE"
    },
    {
     "enum_field_value" : 7,
     "name" : "FSCONFIG_CMD_RECONFIGURE"
    }
   ],
   "linker_set_key" : "_ZTI16fsconfig_command",
   "name" : "fsconfig_command",
   "referenced_type" : "_ZTI16fsconfig_command",
   "self_type" : "_ZTI16fsconfig_command",
   "size" : 4,
   "source_file" : "bionic/libc/kernel/uapi/linux/mount.h",
   "underlying_type" : "_ZTIj"
  },
  {
   "alignment" : 4,
   "enum_fields" :
   [
    {
     "enum_field_value" : 1,
     "name" : "LO_FLAGS_READ_ONLY"
    },
    {
     "enum_field_value" : 4,
     "name" : "LO_FLAGS_AUTOCLEAR"
    },
    {
     "enum_field_value" : 8,
     "name" : "LO_FLAGS_PARTSCAN"
    },
    {
     "enum_field_value" : 16,
     "name" : "LO_FLAGS_DIRECT_IO"
    }
   ],
   "linker_set_key" : "_ZTI19$LO_FLAGS_AUTOCLEAR",
   "name" : "(anonymous enum at bionic/libc/kernel/uapi/linux/loop.h:23:1)",
   "referenced_type" : "_ZTI19$LO_FLAGS_AUTOCLEAR",
   "self_type" : "_ZTI19$LO_FLAGS_AUTOCLEAR",
   "size" : 4,
   "source_file" : "bionic/libc/kernel/uapi/linux/loop.h",
   "underlying_type" : "_ZTIj"
  },
  {
   "alignment" : 4,
   "enum_fields" :
   [
    {
     "enum_field_value" : 0,
     "name" : "FD_NEED_TWADDLE_BIT"
    },
    {
     "enum_field_value" : 1,
     "name" : "FD_VERIFY_BIT"
    },
    {
     "enum_field_value" : 2,
     "name" : "FD_DISK_NEWCHANGE_BIT"
    },
    {
     "enum_field_value" : 3,
     "name" : "FD_UNUSED_BIT"
    },
    {
     "enum_field_value" : 4,
     "name" : "FD_DISK_CHANGED_BIT"
    },
    {
     "enum_field_value" : 5,
     "name" : "FD_DISK_WRITABLE_BIT"
    },
    {
     "enum_field_value" : 6,
     "name" : "FD_OPEN_SHOULD_FAIL_BIT"
    }
   ],
   "linker_set_key" : "_ZTI20$FD_DISK_CHANGED_BIT",
   "name" : "(anonymous enum at bionic/libc/kernel/uapi/linux/fd.h:92:1)",
   "referenced_type" : "_ZTI20$FD_DISK_CHANGED_BIT",
   "self_type" : "_ZTI20$FD_DISK_CHANGED_BIT",
   "size" : 4,
   "source_file" : "bionic/libc/kernel/uapi/linux/fd.h",
   "underlying_type" : "_ZTIj"
  },
  {
   "alignment" : 4,
   "enum_fields" :
   [
    {
     "enum_field_value" : 0,
     "name" : "REG_R0"
    },
    {
     "enum_field_value" : 1,
     "name" : "REG_R1"
    },
    {
     "enum_field_value" : 2,
     "name" : "REG_R2"
    },
    {
     "enum_field_value" : 3,
     "name" : "REG_R3"
    },
    {
     "enum_field_value" : 4,
     "name" : "REG_R4"
    },
    {
     "enum_field_value" : 5,
     "name" : "REG_R5"
    },
    {
     "enum_field_value" : 6,
     "name" : "REG_R6"
    },
    {
     "enum_field_value" : 7,
     "name" : "REG_R7"
    },
    {
     "enum_field_value" : 8,
     "name" : "REG_R8"
    },
    {
     "enum_field_value" : 9,
     "name" : "REG_R9"
    },
    {
     "enum_field_value" : 10,
     "name" : "REG_R10"
    },
    {
     "enum_field_value" : 11,
     "name" : "REG_R11"
    },
    {
     "enum_field_value" : 12,
     "name" : "REG_R12"
    },
    {
     "enum_field_value" : 13,
     "name" : "REG_R13"
    },
    {
     "enum_field_value" : 14,
     "name" : "REG_R14"
    },
    {
     "enum_field_value" : 15,
     "name" : "REG_R15"
    }
   ],
   "linker_set_key" : "_ZTI7$REG_R0",
   "name" : "(anonymous enum at out/soong/.intermediates/bionic/libc/libc/android_vendor.32_arm_armv8-a_shared/gen/include/sys/ucontext.h:41:1)",
   "referenced_type" : "_ZTI7$REG_R0",
   "self_type" : "_ZTI7$REG_R0",
   "size" : 4,
   "source_file" : "out/soong/.intermediates/bionic/libc/libc/android_vendor.32_arm_armv8-a_shared/gen/include/sys/ucontext.h",
   "underlying_type" : "_ZTIj"
  },
  {
   "alignment" : 4,
   "enum_fields" :
   [
    {
     "enum_field_value" : 0,
     "name" : "SHUT_RD"
    },
    {
     "enum_field_value" : 1,
     "name" : "SHUT_WR"
    },
    {
     "enum_field_value" : 2,
     "name" : "SHUT_RDWR"
    }
   ],
   "linker_set_key" : "_ZTI8$SHUT_RD",
   "name" : "(anonymous enum at out/soong/.intermediates/bionic/libc/libc/android_vendor.32_arm_armv8-a_shared/gen/include/sys/socket.h:60:1)",
   "referenced_type" : "_ZTI8$SHUT_RD",
   "self_type" : "_ZTI8$SHUT_RD",
   "size" : 4,
   "source_file" : "out/soong/.intermediates/bionic/libc/libc/android_vendor.32_arm_armv8-a_shared/gen/include/sys/socket.h",
   "underlying_type" : "_ZTIj"
  }
 ],
 "function_types" :
 [
  {
   "alignment" : 4,
   "linker_set_key" : "_ZTIFv6sigvalE",
   "name" : "void (sigval)",
   "parameters" :
   [
    {
     "referenced_type" : "_ZTI6sigval"
    }
   ],
   "referenced_type" : "_ZTIFv6sigvalE",
   "return_type" : "_ZTIv",
   "self_type" : "_ZTIFv6sigvalE",
   "source_file" : "bionic/libc/kernel/uapi/asm-generic/siginfo.h"
  },
  {
   "alignment" : 4,
   "linker_set_key" : "_ZTIFviE",
   "name" : "void (int)",
   "parameters" :
   [
    {
     "referenced_type" : "_ZTIi"
    }
   ],
   "referenced_type" : "_ZTIFviE",
   "return_type" : "_ZTIv",
   "self_type" : "_ZTIFviE",
   "source_file" : "bionic/libc/kernel/uapi/asm-arm/asm/signal.h"
  },
  {
   "alignment" : 4,
   "linker_set_key" : "_ZTIFviP7siginfoPvE",
   "name" : "void (int, siginfo *, void *)",
   "parameters" :
   [
    {
     "referenced_type" : "_ZTIi"
    },
    {
     "referenced_type" : "_ZTIP7siginfo"
    },
    {
     "referenced_type" : "_ZTIPv"
    }
   ],
   "referenced_type" : "_ZTIFviP7siginfoPvE",
   "return_type" : "_ZTIv",
   "self_type" : "_ZTIFviP7siginfoPvE",
   "source_file" : "bionic/libc/kernel/uapi/asm-arm/asm/signal.h"
  },
  {
   "alignment" : 4,
   "linker_set_key" : "_ZTIFvvE",
   "name" : "void (void)",
   "referenced_type" : "_ZTIFvvE",
   "return_type" : "_ZTIv",
   "self_type" : "_ZTIFvvE",
   "source_file" : "bionic/libc/kernel/uapi/asm-arm/asm/signal.h"
  }
 ],
 "functions" : [],
 "global_vars" :
 [
  {
   "linker_set_key" : "constant_table",
   "name" : "constant_table",
   "referenced_type" : "_ZTIA_K14constant_entry",
   "source_file" : "external/minijail/libconstants.h"
  },
  {
   "linker_set_key" : "sys_siglist",
   "name" : "sys_siglist",
   "referenced_type" : "_ZTIA65_KPKc",
   "source_file" : "out/soong/.intermediates/bionic/libc/libc/android_vendor.32_arm_armv8-a_shared/gen/include/signal.h"
  },
  {
   "linker_set_key" : "sys_signame",
   "name" : "sys_signame",
   "referenced_type" : "_ZTIA65_KPKc",
   "source_file" : "out/soong/.intermediates/bionic/libc/libc/android_vendor.32_arm_armv8-a_shared/gen/include/signal.h"
  }
 ],
 "lvalue_reference_types" : [],
 "pointer_types" :
 [
  {
   "alignment" : 4,
   "linker_set_key" : "_ZTIP11user_fpregs",
   "name" : "user_fpregs *",
   "referenced_type" : "_ZTI11user_fpregs",
   "self_type" : "_ZTIP11user_fpregs",
   "size" : 4,
   "source_file" : "out/soong/.intermediates/bionic/libc/libc/android_vendor.32_arm_armv8-a_shared/gen/include/sys/user.h"
  },
  {
   "alignment" : 4,
   "linker_set_key" : "_ZTIP14floppy_raw_cmd",
   "name" : "floppy_raw_cmd *",
   "referenced_type" : "_ZTI14floppy_raw_cmd",
   "self_type" : "_ZTIP14floppy_raw_cmd",
   "size" : 4,
   "source_file" : "bionic/libc/kernel/uapi/linux/fd.h"
  },
  {
   "alignment" : 4,
   "linker_set_key" : "_ZTIP5iovec",
   "name" : "iovec *",
   "referenced_type" : "_ZTI5iovec",
   "self_type" : "_ZTIP5iovec",
   "size" : 4,
   "source_file" : "out/soong/.intermediates/bionic/libc/libc/android_vendor.32_arm_armv8-a_shared/gen/include/sys/socket.h"
  },
  {
   "alignment" : 4,
   "linker_set_key" : "_ZTIP7siginfo",
   "name" : "siginfo *",
   "referenced_type" : "_ZTI7siginfo",
   "self_type" : "_ZTIP7siginfo",
   "size" : 4,
   "source_file" : "bionic/libc/kernel/uapi/asm-arm/asm/signal.h"
  },
  {
   "alignment" : 4,
   "linker_set_key" : "_ZTIP8ucontext",
   "name" : "ucontext *",
   "referenced_type" : "_ZTI8ucontext",
   "self_type" : "_ZTIP8ucontext",
   "size" : 4,
   "source_file" : "out/soong/.intermediates/bionic/libc/libc/android_vendor.32_arm_armv8-a_shared/gen/include/sys/ucontext.h"
  },
  {
   "alignment" : 4,
   "linker_set_key" : "_ZTIP9user_regs",
   "name" : "user_regs *",
   "referenced_type" : "_ZTI9user_regs",
   "self_type" : "_ZTIP9user_regs",
   "size" : 4,
   "source_file" : "out/soong/.intermediates/bionic/libc/libc/android_vendor.32_arm_armv8-a_shared/gen/include/sys/user.h"
  },
  {
   "alignment" : 4,
   "linker_set_key" : "_ZTIPFv6sigvalE",
   "name" : "void (*)(sigval)",
   "referenced_type" : "_ZTIFv6sigvalE",
   "self_type" : "_ZTIPFv6sigvalE",
   "size" : 4,
   "source_file" : "bionic/libc/kernel/uapi/asm-generic/siginfo.h"
  },
  {
   "alignment" : 4,
   "linker_set_key" : "_ZTIPFviE",
   "name" : "void (*)(int)",
   "referenced_type" : "_ZTIFviE",
   "self_type" : "_ZTIPFviE",
   "size" : 4,
   "source_file" : "bionic/libc/kernel/uapi/asm-arm/asm/signal.h"
  },
  {
   "alignment" : 4,
   "linker_set_key" : "_ZTIPFviP7siginfoPvE",
   "name" : "void (*)(int, siginfo *, void *)",
   "referenced_type" : "_ZTIFviP7siginfoPvE",
   "self_type" : "_ZTIPFviP7siginfoPvE",
   "size" : 4,
   "source_file" : "bionic/libc/kernel/uapi/asm-arm/asm/signal.h"
  },
  {
   "alignment" : 4,
   "linker_set_key" : "_ZTIPFvvE",
   "name" : "void (*)(void)",
   "referenced_type" : "_ZTIFvvE",
   "self_type" : "_ZTIPFvvE",
   "size" : 4,
   "source_file" : "bionic/libc/kernel/uapi/asm-arm/asm/signal.h"
  },
  {
   "alignment" : 4,
   "linker_set_key" : "_ZTIPKc",
   "name" : "const char *",
   "referenced_type" : "_ZTIKc",
   "self_type" : "_ZTIPKc",
   "size" : 4,
   "source_file" : "bionic/libc/kernel/uapi/linux/fd.h"
  },
  {
   "alignment" : 4,
   "linker_set_key" : "_ZTIPc",
   "name" : "char *",
   "referenced_type" : "_ZTIc",
   "self_type" : "_ZTIPc",
   "size" : 4,
   "source_file" : "bionic/libc/kernel/uapi/linux/fd.h"
  },
  {
   "alignment" : 4,
   "linker_set_key" : "_ZTIPh",
   "name" : "unsigned char *",
   "referenced_type" : "_ZTIh",
   "self_type" : "_ZTIPh",
   "size" : 4,
   "source_file" : "bionic/libc/kernel/uapi/linux/serial.h"
  },
  {
   "alignment" : 4,
   "linker_set_key" : "_ZTIPv",
   "name" : "void *",
   "referenced_type" : "_ZTIv",
   "self_type" : "_ZTIPv",
   "size" : 4,
   "source_file" : "out/soong/.intermediates/bionic/libc/libc/android_vendor.32_arm_armv8-a_shared/gen/include/bits/pthread_types.h"
  },
  {
   "alignment" : 4,
   "linker_set_key" : "_ZTIPy",
   "name" : "unsigned long long *",
   "referenced_type" : "_ZTIy",
   "self_type" : "_ZTIPy",
   "size" : 4,
   "source_file" : "bionic/libc/kernel/uapi/linux/prctl.h"
  }
 ],
 "qualified_types" :
 [
  {
   "alignment" : 4,
   "is_const" : true,
   "linker_set_key" : "_ZTIA2100_K14constant_entry",
   "name" : "constant_entry const[2100]",
   "referenced_type" : "_ZTIA2100_14constant_entry",
   "self_type" : "_ZTIA2100_K14constant_entry",
   "size" : 16800,
   "source_file" : "out/soong/.intermediates/external/minijail/libminijail_gen_constants/android_vendor.32_arm_armv8-a/gen/libconstants.c"
  },
  {
   "alignment" : 4,
   "is_const" : true,
   "linker_set_key" : "_ZTIA65_KPKc",
   "name" : "const char *const[65]",
   "referenced_type" : "_ZTIA65_PKc",
   "self_type" : "_ZTIA65_KPKc",
   "size" : 260,
   "source_file" : "out/soong/.intermediates/bionic/libc/libc/android_vendor.32_arm_armv8-a_shared/gen/include/signal.h"
  },
  {
   "is_const" : true,
   "linker_set_key" : "_ZTIA_K14constant_entry",
   "name" : "constant_entry const[]",
   "referenced_type" : "_ZTIA_14constant_entry",
   "self_type" : "_ZTIA_K14constant_entry",
   "source_file" : "external/minijail/libconstants.h"
  },
  {
   "alignment" : 1,
   "is_const" : true,
   "linker_set_key" : "_ZTIKc",
   "name" : "const char",
   "referenced_type" : "_ZTIc",
   "self_type" : "_ZTIKc",
   "size" : 1,
   "source_file" : "bionic/libc/kernel/uapi/linux/fd.h"
  }
 ],
 "record_types" :
 [
  {
   "alignment" : 4,
   "fields" :
   [
    {
     "field_name" : "_kill",
     "referenced_type" : "_ZTIN10__sifieldsUt_E"
    },
    {
     "field_name" : "_timer",
     "referenced_type" : "_ZTIN10__sifieldsUt_E"
    },
    {
     "field_name" : "_rt",
     "referenced_type" : "_ZTIN10__sifieldsUt_E"
    },
    {
     "field_name" : "_sigchld",
     "referenced_type" : "_ZTIN10__sifieldsUt_E"
    },
    {
     "field_name" : "_sigfault",
     "referenced_type" : "_ZTIN10__sifieldsUt_E"
    },
    {
     "field_name" : "_sigpoll",
     "referenced_type" : "_ZTIN10__sifieldsUt_E"
    },
    {
     "field_name" : "_sigsys",
     "referenced_type" : "_ZTIN10__sifieldsUt_E"
    }
   ],
   "linker_set_key" : "_ZTI10__sifields",
   "name" : "__sifields",
   "record_kind" : "union",
   "referenced_type" : "_ZTI10__sifields",
   "self_type" : "_ZTI10__sifields",
   "size" : 20,
   "source_file" : "bionic/libc/kernel/uapi/asm-generic/siginfo.h"
  },
  {
   "alignment" : 8,
   "fields" :
   [
    {
     "field_name" : "flags",
     "referenced_type" : "_ZTIy"
    },
    {
     "field_name" : "pidfd",
     "field_offset" : 64,
     "referenced_type" : "_ZTIy"
    },
    {
     "field_name" : "child_tid",
     "field_offset" : 128,
     "referenced_type" : "_ZTIy"
    },
    {
     "field_name" : "parent_tid",
     "field_offset" : 192,
     "referenced_type" : "_ZTIy"
    },
    {
     "field_name" : "exit_signal",
     "field_offset" : 256,
     "referenced_type" : "_ZTIy"
    },
    {
     "field_name" : "stack",
     "field_offset" : 320,
     "referenced_type" : "_ZTIy"
    },
    {
     "field_name" : "stack_size",
     "field_offset" : 384,
     "referenced_type" : "_ZTIy"
    },
    {
     "field_name" : "tls",
     "field_offset" : 448,
     "referenced_type" : "_ZTIy"
    },
    {
     "field_name" : "set_tid",
     "field_offset" : 512,
     "referenced_type" : "_ZTIy"
    },
    {
     "field_name" : "set_tid_size",
     "field_offset" : 576,
     "referenced_type" : "_ZTIy"
    },
    {
     "field_name" : "cgroup",
     "field_offset" : 640,
     "referenced_type" : "_ZTIy"
    }
   ],
   "linker_set_key" : "_ZTI10clone_args",
   "name" : "clone_args",
   "referenced_type" : "_ZTI10clone_args",
   "self_type" : "_ZTI10clone_args",
   "size" : 88,
   "source_file" : "bionic/libc/kernel/uapi/linux/sched.h"
  },
  {
   "alignment" : 4,
   "fields" :
   [
    {
     "field_name" : "type",
     "referenced_type" : "_ZTIi"
    },
    {
     "field_name" : "pid",
     "field_offset" : 32,
     "referenced_type" : "_ZTIi"
    }
   ],
   "linker_set_key" : "_ZTI10f_owner_ex",
   "name" : "f_owner_ex",
   "referenced_type" : "_ZTI10f_owner_ex",
   "self_type" : "_ZTI10f_owner_ex",
   "size" : 8,
   "source_file" : "bionic/libc/kernel/uapi/asm-generic/fcntl.h"
  },
  {
   "alignment" : 4,
   "fields" :
   [
    {
     "field_name" : "it_interval",
     "referenced_type" : "_ZTI8timespec"
    },
    {
     "field_name" : "it_value",
     "field_offset" : 64,
     "referenced_type" : "_ZTI8timespec"
    }
   ],
   "linker_set_key" : "_ZTI10itimerspec",
   "name" : "itimerspec",
   "referenced_type" : "_ZTI10itimerspec",
   "self_type" : "_ZTI10itimerspec",
   "size" : 16,
   "source_file" : "bionic/libc/kernel/uapi/linux/time.h"
  },
  {
   "alignment" : 8,
   "fields" :
   [
    {
     "field_name" : "attr_set",
     "referenced_type" : "_ZTIy"
    },
    {
     "field_name" : "attr_clr",
     "field_offset" : 64,
     "referenced_type" : "_ZTIy"
    },
    {
     "field_name" : "propagation",
     "field_offset" : 128,
     "referenced_type" : "_ZTIy"
    },
    {
     "field_name" : "userns_fd",
     "field_offset" : 192,
     "referenced_type" : "_ZTIy"
    }
   ],
   "linker_set_key" : "_ZTI10mount_attr",
   "name" : "mount_attr",
   "referenced_type" : "_ZTI10mount_attr",
   "self_type" : "_ZTI10mount_attr",
   "size" : 32,
   "source_file" : "bionic/libc/kernel/uapi/linux/mount.h"
  },
  {
   "alignment" : 4,
   "fields" :
   [
    {
     "field_name" : "trap_no",
     "referenced_type" : "_ZTIm"
    },
    {
     "field_name" : "error_code",
     "field_offset" : 32,
     "referenced_type" : "_ZTIm"
    },
    {
     "field_name" : "oldmask",
     "field_offset" : 64,
     "referenced_type" : "_ZTIm"
    },
    {
     "field_name" : "arm_r0",
     "field_offset" : 96,
     "referenced_type" : "_ZTIm"
    },
    {
     "field_name" : "arm_r1",
     "field_offset" : 128,
     "referenced_type" : "_ZTIm"
    },
    {
     "field_name" : "arm_r2",
     "field_offset" : 160,
     "referenced_type" : "_ZTIm"
    },
    {
     "field_name" : "arm_r3",
     "field_offset" : 192,
     "referenced_type" : "_ZTIm"
    },
    {
     "field_name" : "arm_r4",
     "field_offset" : 224,
     "referenced_type" : "_ZTIm"
    },
    {
     "field_name" : "arm_r5",
     "field_offset" : 256,
     "referenced_type" : "_ZTIm"
    },
    {
     "field_name" : "arm_r6",
     "field_offset" : 288,
     "referenced_type" : "_ZTIm"
    },
    {
     "field_name" : "arm_r7",
     "field_offset" : 320,
     "referenced_type" : "_ZTIm"
    },
    {
     "field_name" : "arm_r8",
     "field_offset" : 352,
     "referenced_type" : "_ZTIm"
    },
    {
     "field_name" : "arm_r9",
     "field_offset" : 384,
     "referenced_type" : "_ZTIm"
    },
    {
     "field_name" : "arm_r10",
     "field_offset" : 416,
     "referenced_type" : "_ZTIm"
    },
    {
     "field_name" : "arm_fp",
     "field_offset" : 448,
     "referenced_type" : "_ZTIm"
    },
    {
     "field_name" : "arm_ip",
     "field_offset" : 480,
     "referenced_type" : "_ZTIm"
    },
    {
     "field_name" : "arm_sp",
     "field_offset" : 512,
     "referenced_type" : "_ZTIm"
    },
    {
     "field_name" : "arm_lr",
     "field_offset" : 544,
     "referenced_type" : "_ZTIm"
    },
    {
     "field_name" : "arm_pc",
     "field_offset" : 576,
     "referenced_type" : "_ZTIm"
    },
    {
     "field_name" : "arm_cpsr",
     "field_offset" : 608,
     "referenced_type" : "_ZTIm"
    },
    {
     "field_name" : "fault_address",
     "field_offset" : 640,
     "referenced_type" : "_ZTIm"
    }
   ],
   "linker_set_key" : "_ZTI10sigcontext",
   "name" : "sigcontext",
   "referenced_type" : "_ZTI10sigcontext",
   "self_type" : "_ZTI10sigcontext",
   "size" : 84,
   "source_file" : "bionic/libc/kernel/uapi/asm-arm/asm/sigcontext.h"
  },
  {
   "alignment" : 4,
   "fields" :
   [
    {
     "field_name" : "__bits",
     "referenced_type" : "_ZTIA2_m"
    }
   ],
   "linker_set_key" : "_ZTI10sigset64_t",
   "name" : "sigset64_t",
   "referenced_type" : "_ZTI10sigset64_t",
   "self_type" : "_ZTI10sigset64_t",
   "size" : 8,
   "source_file" : "out/soong/.intermediates/bionic/libc/libc/android_vendor.32_arm_armv8-a_shared/gen/include/bits/signal_types.h"
  },
  {
   "alignment" : 4,
   "fields" :
   [
    {
     "field_name" : "mode",
     "referenced_type" : "_ZTIj"
    },
    {
     "field_name" : "raw",
     "field_offset" : 32,
     "referenced_type" : "_ZTIA64_h"
    },
    {
     "field_name" : "size",
     "field_offset" : 544,
     "referenced_type" : "_ZTIj"
    }
   ],
   "linker_set_key" : "_ZTI11fscrypt_key",
   "name" : "fscrypt_key",
   "referenced_type" : "_ZTI11fscrypt_key",
   "self_type" : "_ZTI11fscrypt_key",
   "size" : 72,
   "source_file" : "bionic/libc/kernel/uapi/linux/fscrypt.h"
  },
  {
   "alignment" : 8,
   "fields" :
   [
    {
     "field_name" : "fd",
     "referenced_type" : "_ZTIj"
    },
    {
     "field_name" : "block_size",
     "field_offset" : 32,
     "referenced_type" : "_ZTIj"
    },
    {
     "field_name" : "info",
     "field_offset" : 64,
     "referenced_type" : "_ZTI11loop_info64"
    },
    {
     "field_name" : "__reserved",
     "field_offset" : 1920,
     "referenced_type" : "_ZTIA8_y"
    }
   ],
   "linker_set_key" : "_ZTI11loop_config",
   "name" : "loop_config",
   "referenced_type" : "_ZTI11loop_config",
   "self_type" : "_ZTI11loop_config",
   "size" : 304,
   "source_file" : "bionic/libc/kernel/uapi/linux/loop.h"
  },
  {
   "alignment" : 8,
   "fields" :
   [
    {
     "field_name" : "lo_device",
     "referenced_type" : "_ZTIy"
    },
    {
     "field_name" : "lo_inode",
     "field_offset" : 64,
     "referenced_type" : "_ZTIy"
    },
    {
     "field_name" : "lo_rdevice",
     "field_offset" : 128,
     "referenced_type" : "_ZTIy"
    },
    {
     "field_name" : "lo_offset",
     "field_offset" : 192,
     "referenced_type" : "_ZTIy"
    },
    {
     "field_name" : "lo_sizelimit",
     "field_offset" : 256,
     "referenced_type" : "_ZTIy"
    },
    {
     "field_name" : "lo_number",
     "field_offset" : 320,
     "referenced_type" : "_ZTIj"
    },
    {
     "field_name" : "lo_encrypt_type",
     "field_offset" : 352,
     "referenced_type" : "_ZTIj"
    },
    {
     "field_name" : "lo_encrypt_key_size",
     "field_offset" : 384,
     "referenced_type" : "_ZTIj"
    },
    {
     "field_name" : "lo_flags",
     "field_offset" : 416,
     "referenced_type" : "_ZTIj"
    },
    {
     "field_name" : "lo_file_name",
     "field_offset" : 448,
     "referenced_type" : "_ZTIA64_h"
    },
    {
     "field_name" : "lo_crypt_name",
     "field_offset" : 960,
     "referenced_type" : "_ZTIA64_h"
    },
    {
     "field_name" : "lo_encrypt_key",
     "field_offset" : 1472,
     "referenced_type" : "_ZTIA32_h"
    },
    {
     "field_name" : "lo_init",
     "field_offset" : 1728,
     "referenced_type" : "_ZTIA2_y"
    }
   ],
   "linker_set_key" : "_ZTI11loop_info64",
   "name" : "loop_info64",
   "referenced_type" : "_ZTI11loop_info64",
   "self_type" : "_ZTI11loop_info64",
   "size" : 232,
   "source_file" : "bionic/libc/kernel/uapi/linux/loop.h"
  },
  {
   "alignment" : 8,
   "fields" :
   [
    {
     "field_name" : "__clang_max_align_nonce1",
     "referenced_type" : "_ZTIx"
    },
    {
     "field_name" : "__clang_max_align_nonce2",
     "field_offset" : 64,
     "referenced_type" : "_ZTIe"
    }
   ],
   "linker_set_key" : "_ZTI11max_align_t",
   "name" : "max_align_t",
   "referenced_type" : "_ZTI11max_align_t",
   "self_type" : "_ZTI11max_align_t",
   "size" : 16,
   "source_file" : "prebuilts/clang-tools/linux-x86/clang-headers/__stddef_max_align_t.h"
  },
  {
   "alignment" : 4,
   "fields" :
   [
    {
     "referenced_type" : "_ZTIN11sigaction64Ut_E"
    },
    {
     "field_name" : "sa_flags",
     "field_offset" : 32,
     "referenced_type" : "_ZTIi"
    },
    {
     "field_name" : "sa_restorer",
     "field_offset" : 64,
     "referenced_type" : "_ZTIPFvvE"
    },
    {
     "field_name" : "sa_mask",
     "field_offset" : 96,
     "referenced_type" : "_ZTI10sigset64_t"
    }
   ],
   "linker_set_key" : "_ZTI11sigaction64",
   "name" : "sigaction64",
   "referenced_type" : "_ZTI11sigaction64",
   "self_type" : "_ZTI11sigaction64",
   "size" : 20,
   "source_file" : "out/soong/.intermediates/bionic/libc/libc/android_vendor.32_arm_armv8-a_shared/gen/include/bits/signal_types.h"
  },
  {
   "alignment" : 4,
   "fields" :
   [
    {
     "field_name" : "ss_sp",
     "referenced_type" : "_ZTIPv"
    },
    {
     "field_name" : "ss_flags",
     "field_offset" : 32,
     "referenced_type" : "_ZTIi"
    },
    {
     "field_name" : "ss_size",
     "field_offset" : 64,
     "referenced_type" : "_ZTIj"
    }
   ],
   "linker_set_key" : "_ZTI11sigaltstack",
   "name" : "sigaltstack",
   "referenced_type" : "_ZTI11sigaltstack",
   "self_type" : "_ZTI11sigaltstack",
   "size" : 12,
   "source_file" : "bionic/libc/kernel/uapi/asm-arm/asm/signal.h"
  },
  {
   "alignment" : 4,
   "fields" :
   [
    {
     "field_name" : "fpregs",
     "referenced_type" : "_ZTIA8_6fp_reg"
    },
    {
     "field_name" : "fpsr",
     "field_offset" : 768,
     "referenced_type" : "_ZTIj"
    },
    {
     "field_name" : "fpcr",
     "field_offset" : 800,
     "referenced_type" : "_ZTIj"
    },
    {
     "field_name" : "ftype",
     "field_offset" : 832,
     "referenced_type" : "_ZTIA8_h"
    },
    {
     "field_name" : "init_flag",
     "field_offset" : 896,
     "referenced_type" : "_ZTIj"
    }
   ],
   "linker_set_key" : "_ZTI11user_fpregs",
   "name" : "user_fpregs",
   "referenced_type" : "_ZTI11user_fpregs",
   "self_type" : "_ZTI11user_fpregs",
   "size" : 116,
   "source_file" : "out/soong/.intermediates/bionic/libc/libc/android_vendor.32_arm_armv8-a_shared/gen/include/sys/user.h"
  },
  {
   "alignment" : 4,
   "fields" :
   [
    {
     "field_name" : "mask",
     "referenced_type" : "_ZTIj"
    },
    {
     "field_name" : "enabled",
     "field_offset" : 32,
     "referenced_type" : "_ZTIj"
    },
    {
     "field_name" : "failure",
     "field_offset" : 64,
     "referenced_type" : "_ZTIj"
    },
    {
     "field_name" : "pid",
     "field_offset" : 96,
     "referenced_type" : "_ZTIj"
    },
    {
     "field_name" : "rate_limit",
     "field_offset" : 128,
     "referenced_type" : "_ZTIj"
    },
    {
     "field_name" : "backlog_limit",
     "field_offset" : 160,
     "referenced_type" : "_ZTIj"
    },
    {
     "field_name" : "lost",
     "field_offset" : 192,
     "referenced_type" : "_ZTIj"
    },
    {
     "field_name" : "backlog",
     "field_offset" : 224,
     "referenced_type" : "_ZTIj"
    },
    {
     "field_offset" : 256,
     "referenced_type" : "_ZTIN12audit_statusUt_E"
    },
    {
     "field_name" : "backlog_wait_time",
     "field_offset" : 288,
     "referenced_type" : "_ZTIj"
    },
    {
     "field_name" : "backlog_wait_time_actual",
     "field_offset" : 320,
     "referenced_type" : "_ZTIj"
    }
   ],
   "linker_set_key" : "_ZTI12audit_status",
   "name" : "audit_status",
   "referenced_type" : "_ZTI12audit_status",
   "self_type" : "_ZTI12audit_status",
   "size" : 44,
   "source_file" : "bionic/libc/kernel/uapi/linux/audit.h"
  },
  {
   "alignment" : 4,
   "fields" :
   [
    {
     "field_name" : "device",
     "referenced_type" : "_ZTIj"
    },
    {
     "field_name" : "head",
     "field_offset" : 32,
     "referenced_type" : "_ZTIj"
    },
    {
     "field_name" : "track",
     "field_offset" : 64,
     "referenced_type" : "_ZTIj"
    }
   ],
   "linker_set_key" : "_ZTI12format_descr",
   "name" : "format_descr",
   "referenced_type" : "_ZTI12format_descr",
   "self_type" : "_ZTI12format_descr",
   "size" : 12,
   "source_file" : "bionic/libc/kernel/uapi/linux/fd.h"
  },
  {
   "alignment" : 8,
   "fields" :
   [
    {
     "field_name" : "start",
     "referenced_type" : "_ZTIy"
    },
    {
     "field_name" : "len",
     "field_offset" : 64,
     "referenced_type" : "_ZTIy"
    },
    {
     "field_name" : "minlen",
     "field_offset" : 128,
     "referenced_type" : "_ZTIy"
    }
   ],
   "linker_set_key" : "_ZTI12fstrim_range",
   "name" : "fstrim_range",
   "referenced_type" : "_ZTI12fstrim_range",
   "self_type" : "_ZTI12fstrim_range",
   "size" : 24,
   "source_file" : "bionic/libc/kernel/uapi/linux/fs.h"
  },
  {
   "alignment" : 8,
   "fields" :
   [
    {
     "field_name" : "start_code",
     "referenced_type" : "_ZTIy"
    },
    {
     "field_name" : "end_code",
     "field_offset" : 64,
     "referenced_type" : "_ZTIy"
    },
    {
     "field_name" : "start_data",
     "field_offset" : 128,
     "referenced_type" : "_ZTIy"
    },
    {
     "field_name" : "end_data",
     "field_offset" : 192,
     "referenced_type" : "_ZTIy"
    },
    {
     "field_name" : "start_brk",
     "field_offset" : 256,
     "referenced_type" : "_ZTIy"
    },
    {
     "field_name" : "brk",
     "field_offset" : 320,
     "referenced_type" : "_ZTIy"
    },
    {
     "field_name" : "start_stack",
     "field_offset" : 384,
     "referenced_type" : "_ZTIy"
    },
    {
     "field_name" : "arg_start",
     "field_offset" : 448,
     "referenced_type" : "_ZTIy"
    },
    {
     "field_name" : "arg_end",
     "field_offset" : 512,
     "referenced_type" : "_ZTIy"
    },
    {
     "field_name" : "env_start",
     "field_offset" : 576,
     "referenced_type" : "_ZTIy"
    },
    {
     "field_name" : "env_end",
     "field_offset" : 640,
     "referenced_type" : "_ZTIy"
    },
    {
     "field_name" : "auxv",
     "field_offset" : 704,
     "referenced_type" : "_ZTIPy"
    },
    {
     "field_name" : "auxv_size",
     "field_offset" : 736,
     "referenced_type" : "_ZTIj"
    },
    {
     "field_name" : "exe_fd",
     "field_offset" : 768,
     "referenced_type" : "_ZTIj"
    }
   ],
   "linker_set_key" : "_ZTI12prctl_mm_map",
   "name" : "prctl_mm_map",
   "referenced_type" : "_ZTI12prctl_mm_map",
   "self_type" : "_ZTI12prctl_mm_map",
   "size" : 104,
   "source_file" : "bionic/libc/kernel/uapi/linux/prctl.h"
  },
  {
   "alignment" : 4,
   "fields" :
   [
    {
     "field_name" : "flags",
     "referenced_type" : "_ZTIj"
    },
    {
     "field_name" : "delay_rts_before_send",
     "field_offset" : 32,
     "referenced_type" : "_ZTIj"
    },
    {
     "field_name" : "delay_rts_after_send",
     "field_offset" : 64,
     "referenced_type" : "_ZTIj"
    },
    {
     "field_name" : "padding",
     "field_offset" : 96,
     "referenced_type" : "_ZTIA5_j"
    }
   ],
   "linker_set_key" : "_ZTI12serial_rs485",
   "name" : "serial_rs485",
   "referenced_type" : "_ZTI12serial_rs485",
   "self_type" : "_ZTI12serial_rs485",
   "size" : 32,
   "source_file" : "bionic/libc/kernel/uapi/linux/serial.h"
  },
  {
   "alignment" : 4,
   "fields" :
   [
    {
     "field_name" : "fpexc",
     "referenced_type" : "_ZTIm"
    },
    {
     "field_name" : "fpinst",
     "field_offset" : 32,
     "referenced_type" : "_ZTIm"
    },
    {
     "field_name" : "fpinst2",
     "field_offset" : 64,
     "referenced_type" : "_ZTIm"
    }
   ],
   "linker_set_key" : "_ZTI12user_vfp_exc",
   "name" : "user_vfp_exc",
   "referenced_type" : "_ZTI12user_vfp_exc",
   "self_type" : "_ZTI12user_vfp_exc",
   "size" : 12,
   "source_file" : "out/soong/.intermediates/bionic/libc/libc/android_vendor.32_arm_armv8-a_shared/gen/include/sys/user.h"
  },
  {
   "alignment" : 4,
   "fields" :
   [
    {
     "field_name" : "size",
     "referenced_type" : "_ZTIj"
    },
    {
     "field_name" : "sect",
     "field_offset" : 32,
     "referenced_type" : "_ZTIj"
    },
    {
     "field_name" : "head",
     "field_offset" : 64,
     "referenced_type" : "_ZTIj"
    },
    {
     "field_name" : "track",
     "field_offset" : 96,
     "referenced_type" : "_ZTIj"
    },
    {
     "field_name" : "stretch",
     "field_offset" : 128,
     "referenced_type" : "_ZTIj"
    },
    {
     "field_name" : "gap",
     "field_offset" : 160,
     "referenced_type" : "_ZTIh"
    },
    {
     "field_name" : "rate",
     "field_offset" : 168,
     "referenced_type" : "_ZTIh"
    },
    {
     "field_name" : "spec1",
     "field_offset" : 176,
     "referenced_type" : "_ZTIh"
    },
    {
     "field_name" : "fmt_gap",
     "field_offset" : 184,
     "referenced_type" : "_ZTIh"
    },
    {
     "field_name" : "name",
     "field_offset" : 192,
     "referenced_type" : "_ZTIPKc"
    }
   ],
   "linker_set_key" : "_ZTI13floppy_struct",
   "name" : "floppy_struct",
   "referenced_type" : "_ZTI13floppy_struct",
   "self_type" : "_ZTI13floppy_struct",
   "size" : 28,
   "source_file" : "bionic/libc/kernel/uapi/linux/fd.h"
  },
  {
   "alignment" : 4,
   "fields" :
   [
    {
     "field_name" : "nr_inodes",
     "referenced_type" : "_ZTIl"
    },
    {
     "field_name" : "nr_unused",
     "field_offset" : 32,
     "referenced_type" : "_ZTIl"
    },
    {
     "field_name" : "dummy",
     "field_offset" : 64,
     "referenced_type" : "_ZTIA5_l"
    }
   ],
   "linker_set_key" : "_ZTI13inodes_stat_t",
   "name" : "inodes_stat_t",
   "referenced_type" : "_ZTI13inodes_stat_t",
   "self_type" : "_ZTI13inodes_stat_t",
   "size" : 28,
   "source_file" : "bionic/libc/kernel/uapi/linux/fs.h"
  },
  {
   "alignment" : 4,
   "fields" :
   [
    {
     "field_name" : "type",
     "referenced_type" : "_ZTIi"
    },
    {
     "field_name" : "line",
     "field_offset" : 32,
     "referenced_type" : "_ZTIi"
    },
    {
     "field_name" : "port",
     "field_offset" : 64,
     "referenced_type" : "_ZTIj"
    },
    {
     "field_name" : "irq",
     "field_offset" : 96,
     "referenced_type" : "_ZTIi"
    },
    {
     "field_name" : "flags",
     "field_offset" : 128,
     "referenced_type" : "_ZTIi"
    },
    {
     "field_name" : "xmit_fifo_size",
     "field_offset" : 160,
     "referenced_type" : "_ZTIi"
    },
    {
     "field_name" : "custom_divisor",
     "field_offset" : 192,
     "referenced_type" : "_ZTIi"
    },
    {
     "field_name" : "baud_base",
     "field_offset" : 224,
     "referenced_type" : "_ZTIi"
    },
    {
     "field_name" : "close_delay",
     "field_offset" : 256,
     "referenced_type" : "_ZTIt"
    },
    {
     "field_name" : "io_type",
     "field_offset" : 272,
     "referenced_type" : "_ZTIc"
    },
    {
     "field_name" : "reserved_char",
     "field_offset" : 280,
     "referenced_type" : "_ZTIA1_c"
    },
    {
     "field_name" : "hub6",
     "field_offset" : 288,
     "referenced_type" : "_ZTIi"
    },
    {
     "field_name" : "closing_wait",
     "field_offset" : 320,
     "referenced_type" : "_ZTIt"
    },
    {
     "field_name" : "closing_wait2",
     "field_offset" : 336,
     "referenced_type" : "_ZTIt"
    },
    {
     "field_name" : "iomem_base",
     "field_offset" : 352,
     "referenced_type" : "_ZTIPh"
    },
    {
     "field_name" : "iomem_reg_shift",
     "field_offset" : 384,
     "referenced_type" : "_ZTIt"
    },
    {
     "field_name" : "port_high",
     "field_offset" : 416,
     "referenced_type" : "_ZTIj"
    },
    {
     "field_name" : "iomap_base",
     "field_offset" : 448,
     "referenced_type" : "_ZTIm"
    }
   ],
   "linker_set_key" : "_ZTI13serial_struct",
   "name" : "serial_struct",
   "referenced_type" : "_ZTI13serial_struct",
   "self_type" : "_ZTI13serial_struct",
   "size" : 60,
   "source_file" : "bionic/libc/kernel/uapi/linux/serial.h"
  },
  {
   "alignment" : 4,
   "fields" :
   [
    {
     "field_name" : "vers",
     "referenced_type" : "_ZTIj"
    },
    {
     "field_name" : "mask",
     "field_offset" : 32,
     "referenced_type" : "_ZTIj"
    },
    {
     "field_name" : "features",
     "field_offset" : 64,
     "referenced_type" : "_ZTIj"
    },
    {
     "field_name" : "lock",
     "field_offset" : 96,
     "referenced_type" : "_ZTIj"
    }
   ],
   "linker_set_key" : "_ZTI14audit_features",
   "name" : "audit_features",
   "referenced_type" : "_ZTI14audit_features",
   "self_type" : "_ZTI14audit_features",
   "size" : 16,
   "source_file" : "bionic/libc/kernel/uapi/linux/audit.h"
  },
  {
   "alignment" : 4,
   "fields" :
   [
    {
     "field_name" : "name",
     "referenced_type" : "_ZTIPKc"
    },
    {
     "field_name" : "value",
     "field_offset" : 32,
     "referenced_type" : "_ZTIm"
    }
   ],
   "linker_set_key" : "_ZTI14constant_entry",
   "name" : "constant_entry",
   "referenced_type" : "_ZTI14constant_entry",
   "self_type" : "_ZTI14constant_entry",
   "size" : 8,
   "source_file" : "external/minijail/libconstants.h"
  },
  {
   "alignment" : 4,
   "fields" :
   [
    {
     "field_name" : "flags",
     "referenced_type" : "_ZTIj"
    },
    {
     "field_name" : "data",
     "field_offset" : 32,
     "referenced_type" : "_ZTIPv"
    },
    {
     "field_name" : "kernel_data",
     "field_offset" : 64,
     "referenced_type" : "_ZTIPc"
    },
    {
     "field_name" : "next",
     "field_offset" : 96,
     "referenced_type" : "_ZTIP14floppy_raw_cmd"
    },
    {
     "field_name" : "length",
     "field_offset" : 128,
     "referenced_type" : "_ZTIl"
    },
    {
     "field_name" : "phys_length",
     "field_offset" : 160,
     "referenced_type" : "_ZTIl"
    },
    {
     "field_name" : "buffer_length",
     "field_offset" : 192,
     "referenced_type" : "_ZTIi"
    },
    {
     "field_name" : "rate",
     "field_offset" : 224,
     "referenced_type" : "_ZTIh"
    },
    {
     "field_name" : "cmd_count",
     "field_offset" : 232,
     "referenced_type" : "_ZTIh"
    },
    {
     "field_offset" : 240,
     "referenced_type" : "_ZTIN14floppy_raw_cmdUt_E"
    },
    {
     "field_name" : "track",
     "field_offset" : 512,
     "referenced_type" : "_ZTIi"
    },
    {
     "field_name" : "resultcode",
     "field_offset" : 544,
     "referenced_type" : "_ZTIi"
    },
    {
     "field_name" : "reserved1",
     "field_offset" : 576,
     "referenced_type" : "_ZTIi"
    },
    {
     "field_name" : "reserved2",
     "field_offset" : 608,
     "referenced_type" : "_ZTIi"
    }
   ],
   "linker_set_key" : "_ZTI14floppy_raw_cmd",
   "name" : "floppy_raw_cmd",
   "referenced_type" : "_ZTI14floppy_raw_cmd",
   "self_type" : "_ZTI14floppy_raw_cmd",
   "size" : 80,
   "source_file" : "bionic/libc/kernel/uapi/linux/fd.h"
  },
  {
   "alignment" : 4,
   "fields" :
   [
    {
     "field_name" : "flags",
     "referenced_type" : "_ZTIj"
    },
    {
     "field_name" : "stack_base",
     "field_offset" : 32,
     "referenced_type" : "_ZTIPv"
    },
    {
     "field_name" : "stack_size",
     "field_offset" : 64,
     "referenced_type" : "_ZTIj"
    },
    {
     "field_name" : "guard_size",
     "field_offset" : 96,
     "referenced_type" : "_ZTIj"
    },
    {
     "field_name" : "sched_policy",
     "field_offset" : 128,
     "referenced_type" : "_ZTIi"
    },
    {
     "field_name" : "sched_priority",
     "field_offset" : 160,
     "referenced_type" : "_ZTIi"
    }
   ],
   "linker_set_key" : "_ZTI14pthread_attr_t",
   "name" : "pthread_attr_t",
   "referenced_type" : "_ZTI14pthread_attr_t",
   "self_type" : "_ZTI14pthread_attr_t",
   "size" : 24,
   "source_file" : "out/soong/.intermediates/bionic/libc/libc/android_vendor.32_arm_armv8-a_shared/gen/include/bits/pthread_types.h"
  },
  {
   "alignment" : 4,
   "fields" :
   [
    {
     "field_name" : "__private",
     "referenced_type" : "_ZTIA1_i"
    }
   ],
   "linker_set_key" : "_ZTI14pthread_cond_t",
   "name" : "pthread_cond_t",
   "referenced_type" : "_ZTI14pthread_cond_t",
   "self_type" : "_ZTI14pthread_cond_t",
   "size" : 4,
   "source_file" : "out/soong/.intermediates/bionic/libc/libc/android_vendor.32_arm_armv8-a_shared/gen/include/bits/pthread_types.h"
  },
  {
   "alignment" : 4,
   "fields" :
   [
    {
     "field_name" : "flags",
     "referenced_type" : "_ZTIj"
    },
    {
     "field_name" : "tg",
     "field_offset" : 32,
     "referenced_type" : "_ZTIj"
    },
    {
     "field_name" : "sc_fi",
     "field_offset" : 64,
     "referenced_type" : "_ZTIj"
    },
    {
     "field_name" : "sc_di",
     "field_offset" : 96,
     "referenced_type" : "_ZTIj"
    },
    {
     "field_name" : "clk",
     "field_offset" : 128,
     "referenced_type" : "_ZTIj"
    },
    {
     "field_name" : "reserved",
     "field_offset" : 160,
     "referenced_type" : "_ZTIA5_j"
    }
   ],
   "linker_set_key" : "_ZTI14serial_iso7816",
   "name" : "serial_iso7816",
   "referenced_type" : "_ZTI14serial_iso7816",
   "self_type" : "_ZTI14serial_iso7816",
   "size" : 40,
   "source_file" : "bionic/libc/kernel/uapi/linux/serial.h"
  },
  {
   "alignment" : 4,
   "fields" :
   [
    {
     "field_name" : "fds_bits",
     "referenced_type" : "_ZTIA32_m"
    }
   ],
   "linker_set_key" : "_ZTI15__kernel_fd_set",
   "name" : "__kernel_fd_set",
   "referenced_type" : "_ZTI15__kernel_fd_set",
   "self_type" : "_ZTI15__kernel_fd_set",
   "size" : 128,
   "source_file" : "bionic/libc/kernel/uapi/linux/posix_types.h"
  },
  {
   "alignment" : 4,
   "fields" :
   [
    {
     "field_name" : "val",
     "referenced_type" : "_ZTIA2_i"
    }
   ],
   "linker_set_key" : "_ZTI15__kernel_fsid_t",
   "name" : "__kernel_fsid_t",
   "referenced_type" : "_ZTI15__kernel_fsid_t",
   "self_type" : "_ZTI15__kernel_fsid_t",
   "size" : 8,
   "source_file" : "bionic/libc/kernel/uapi/asm-generic/posix_types.h"
  },
  {
   "alignment" : 4,
   "fields" :
   [
    {
     "field_name" : "flags",
     "referenced_type" : "_ZTIj"
    },
    {
     "field_name" : "action",
     "field_offset" : 32,
     "referenced_type" : "_ZTIj"
    },
    {
     "field_name" : "field_count",
     "field_offset" : 64,
     "referenced_type" : "_ZTIj"
    },
    {
     "field_name" : "mask",
     "field_offset" : 96,
     "referenced_type" : "_ZTIA64_j"
    },
    {
     "field_name" : "fields",
     "field_offset" : 2144,
     "referenced_type" : "_ZTIA64_j"
    },
    {
     "field_name" : "values",
     "field_offset" : 4192,
     "referenced_type" : "_ZTIA64_j"
    },
    {
     "field_name" : "fieldflags",
     "field_offset" : 6240,
     "referenced_type" : "_ZTIA64_j"
    },
    {
     "field_name" : "buflen",
     "field_offset" : 8288,
     "referenced_type" : "_ZTIj"
    },
    {
     "field_name" : "buf",
     "field_offset" : 8320,
     "referenced_type" : "_ZTIA0_c"
    }
   ],
   "linker_set_key" : "_ZTI15audit_rule_data",
   "name" : "audit_rule_data",
   "referenced_type" : "_ZTI15audit_rule_data",
   "self_type" : "_ZTI15audit_rule_data",
   "size" : 1040,
   "source_file" : "bionic/libc/kernel/uapi/linux/audit.h"
  },
  {
   "alignment" : 4,
   "fields" :
   [
    {
     "field_name" : "__private",
     "referenced_type" : "_ZTIA1_i"
    }
   ],
   "linker_set_key" : "_ZTI15pthread_mutex_t",
   "name" : "pthread_mutex_t",
   "referenced_type" : "_ZTI15pthread_mutex_t",
   "self_type" : "_ZTI15pthread_mutex_t",
   "size" : 4,
   "source_file" : "out/soong/.intermediates/bionic/libc/libc/android_vendor.32_arm_armv8-a_shared/gen/include/bits/pthread_types.h"
  },
  {
   "alignment" : 8,
   "fields" :
   [
    {
     "field_name" : "tv_sec",
     "referenced_type" : "_ZTIx"
    },
    {
     "field_name" : "tv_nsec",
     "field_offset" : 64,
     "referenced_type" : "_ZTIj"
    },
    {
     "field_name" : "__reserved",
     "field_offset" : 96,
     "referenced_type" : "_ZTIi"
    }
   ],
   "linker_set_key" : "_ZTI15statx_timestamp",
   "name" : "statx_timestamp",
   "referenced_type" : "_ZTI15statx_timestamp",
   "self_type" : "_ZTI15statx_timestamp",
   "size" : 16,
   "source_file" : "bionic/libc/kernel/uapi/linux/stat.h"
  },
  {
   "alignment" : 4,
   "fields" :
   [
    {
     "field_name" : "enabled",
     "referenced_type" : "_ZTIj"
    },
    {
     "field_name" : "log_passwd",
     "field_offset" : 32,
     "referenced_type" : "_ZTIj"
    }
   ],
   "linker_set_key" : "_ZTI16audit_tty_status",
   "name" : "audit_tty_status",
   "referenced_type" : "_ZTI16audit_tty_status",
   "self_type" : "_ZTI16audit_tty_status",
   "size" : 8,
   "source_file" : "bionic/libc/kernel/uapi/linux/audit.h"
  },
  {
   "alignment" : 8,
   "fields" :
   [
    {
     "field_name" : "src_fd",
     "referenced_type" : "_ZTIx"
    },
    {
     "field_name" : "src_offset",
     "field_offset" : 64,
     "referenced_type" : "_ZTIy"
    },
    {
     "field_name" : "src_length",
     "field_offset" : 128,
     "referenced_type" : "_ZTIy"
    },
    {
     "field_name" : "dest_offset",
     "field_offset" : 192,
     "referenced_type" : "_ZTIy"
    }
   ],
   "linker_set_key" : "_ZTI16file_clone_range",
   "name" : "file_clone_range",
   "referenced_type" : "_ZTI16file_clone_range",
   "self_type" : "_ZTI16file_clone_range",
   "size" : 32,
   "source_file" : "bionic/libc/kernel/uapi/linux/fs.h"
  },
  {
   "alignment" : 4,
   "fields" :
   [
    {
     "field_name" : "spec1",
     "referenced_type" : "_ZTIi"
    },
    {
     "field_name" : "spec2",
     "field_offset" : 32,
     "referenced_type" : "_ZTIi"
    },
    {
     "field_name" : "dtr",
     "field_offset" : 64,
     "referenced_type" : "_ZTIi"
    },
    {
     "field_name" : "version",
     "field_offset" : 96,
     "referenced_type" : "_ZTIh"
    },
    {
     "field_name" : "dor",
     "field_offset" : 104,
     "referenced_type" : "_ZTIh"
    },
    {
     "field_name" : "address",
     "field_offset" : 128,
     "referenced_type" : "_ZTIm"
    },
    {
     "field_name" : "rawcmd",
     "field_offset" : 160,
     "referenced_type" : "_ZTIj"
    },
    {
     "field_name" : "reset",
     "field_offset" : 162,
     "referenced_type" : "_ZTIj"
    },
    {
     "field_name" : "need_configure",
     "field_offset" : 163,
     "referenced_type" : "_ZTIj"
    },
    {
     "field_name" : "perp_mode",
     "field_offset" : 164,
     "referenced_type" : "_ZTIj"
    },
    {
     "field_name" : "has_fifo",
     "field_offset" : 166,
     "referenced_type" : "_ZTIj"
    },
    {
     "field_name" : "driver_version",
     "field_offset" : 192,
     "referenced_type" : "_ZTIj"
    },
    {
     "field_name" : "track",
     "field_offset" : 224,
     "referenced_type" : "_ZTIA4_h"
    }
   ],
   "linker_set_key" : "_ZTI16floppy_fdc_state",
   "name" : "floppy_fdc_state",
   "referenced_type" : "_ZTI16floppy_fdc_state",
   "self_type" : "_ZTI16floppy_fdc_state",
   "size" : 32,
   "source_file" : "bionic/libc/kernel/uapi/linux/fd.h"
  },
  {
   "alignment" : 4,
   "fields" :
   [
    {
     "field_name" : "__private",
     "referenced_type" : "_ZTIA10_i"
    }
   ],
   "linker_set_key" : "_ZTI16pthread_rwlock_t",
   "name" : "pthread_rwlock_t",
   "referenced_type" : "_ZTI16pthread_rwlock_t",
   "self_type" : "_ZTI16pthread_rwlock_t",
   "size" : 40,
   "source_file" : "out/soong/.intermediates/bionic/libc/libc/android_vendor.32_arm_armv8-a_shared/gen/include/bits/pthread_types.h"
  },
  {
   "alignment" : 4,
   "fields" :
   [
    {
     "referenced_type" : "_ZTIN16sockaddr_storageUt_E"
    }
   ],
   "linker_set_key" : "_ZTI16sockaddr_storage",
   "name" : "sockaddr_storage",
   "referenced_type" : "_ZTI16sockaddr_storage",
   "self_type" : "_ZTI16sockaddr_storage",
   "size" : 128,
   "source_file" : "bionic/libc/kernel/uapi/linux/socket.h"
  },
  {
   "alignment" : 8,
   "fields" :
   [
    {
     "field_name" : "tv_sec",
     "referenced_type" : "_ZTIx"
    },
    {
     "field_name" : "tv_nsec",
     "field_offset" : 64,
     "referenced_type" : "_ZTIx"
    }
   ],
   "linker_set_key" : "_ZTI17__kernel_timespec",
   "name" : "__kernel_timespec",
   "referenced_type" : "_ZTI17__kernel_timespec",
   "self_type" : "_ZTI17__kernel_timespec",
   "size" : 16,
   "source_file" : "bionic/libc/kernel/uapi/linux/time_types.h"
  },
  {
   "alignment" : 8,
   "fields" :
   [
    {
     "field_name" : "src_offset",
     "referenced_type" : "_ZTIy"
    },
    {
     "field_name" : "src_length",
     "field_offset" : 64,
     "referenced_type" : "_ZTIy"
    },
    {
     "field_name" : "dest_count",
     "field_offset" : 128,
     "referenced_type" : "_ZTIt"
    },
    {
     "field_name" : "reserved1",
     "field_offset" : 144,
     "referenced_type" : "_ZTIt"
    },
    {
     "field_name" : "reserved2",
     "field_offset" : 160,
     "referenced_type" : "_ZTIj"
    },
    {
     "field_name" : "info",
     "field_offset" : 192,
     "referenced_type" : "_ZTIA0_22file_dedupe_range_info"
    }
   ],
   "linker_set_key" : "_ZTI17file_dedupe_range",
   "name" : "file_dedupe_range",
   "referenced_type" : "_ZTI17file_dedupe_range",
   "self_type" : "_ZTI17file_dedupe_range",
   "size" : 24,
   "source_file" : "bionic/libc/kernel/uapi/linux/fs.h"
  },
  {
   "alignment" : 4,
   "fields" :
   [
    {
     "field_name" : "nr_files",
     "referenced_type" : "_ZTIm"
    },
    {
     "field_name" : "nr_free_files",
     "field_offset" : 32,
     "referenced_type" : "_ZTIm"
    },
    {
     "field_name" : "max_files",
     "field_offset" : 64,
     "referenced_type" : "_ZTIm"
    }
   ],
   "linker_set_key" : "_ZTI17files_stat_struct",
   "name" : "files_stat_struct",
   "referenced_type" : "_ZTI17files_stat_struct",
   "self_type" : "_ZTI17files_stat_struct",
   "size" : 12,
   "source_file" : "bionic/libc/kernel/uapi/linux/fs.h"
  },
  {
   "alignment" : 4,
   "fields" :
   [
    {
     "field_name" : "abort",
     "referenced_type" : "_ZTIj"
    },
    {
     "field_name" : "read_track",
     "field_offset" : 32,
     "referenced_type" : "_ZTIj"
    },
    {
     "field_name" : "reset",
     "field_offset" : 64,
     "referenced_type" : "_ZTIj"
    },
    {
     "field_name" : "recal",
     "field_offset" : 96,
     "referenced_type" : "_ZTIj"
    },
    {
     "field_name" : "reporting",
     "field_offset" : 128,
     "referenced_type" : "_ZTIj"
    }
   ],
   "linker_set_key" : "_ZTI17floppy_max_errors",
   "name" : "floppy_max_errors",
   "referenced_type" : "_ZTI17floppy_max_errors",
   "self_type" : "_ZTI17floppy_max_errors",
   "size" : 20,
   "source_file" : "bionic/libc/kernel/uapi/linux/fd.h"
  },
  {
   "alignment" : 1,
   "fields" :
   [
    {
     "field_name" : "version",
     "referenced_type" : "_ZTIh"
    },
    {
     "field_name" : "contents_encryption_mode",
     "field_offset" : 8,
     "referenced_type" : "_ZTIh"
    },
    {
     "field_name" : "filenames_encryption_mode",
     "field_offset" : 16,
     "referenced_type" : "_ZTIh"
    },
    {
     "field_name" : "flags",
     "field_offset" : 24,
     "referenced_type" : "_ZTIh"
    },
    {
     "field_name" : "master_key_descriptor",
     "field_offset" : 32,
     "referenced_type" : "_ZTIA8_h"
    }
   ],
   "linker_set_key" : "_ZTI17fscrypt_policy_v1",
   "name" : "fscrypt_policy_v1",
   "referenced_type" : "_ZTI17fscrypt_policy_v1",
   "self_type" : "_ZTI17fscrypt_policy_v1",
   "size" : 12,
   "source_file" : "bionic/libc/kernel/uapi/linux/fscrypt.h"
  },
  {
   "alignment" : 1,
   "fields" :
   [
    {
     "field_name" : "version",
     "referenced_type" : "_ZTIh"
    },
    {
     "field_name" : "contents_encryption_mode",
     "field_offset" : 8,
     "referenced_type" : "_ZTIh"
    },
    {
     "field_name" : "filenames_encryption_mode",
     "field_offset" : 16,
     "referenced_type" : "_ZTIh"
    },
    {
     "field_name" : "flags",
     "field_offset" : 24,
     "referenced_type" : "_ZTIh"
    },
    {
     "field_name" : "__reserved",
     "field_offset" : 32,
     "referenced_type" : "_ZTIA4_h"
    },
    {
     "field_name" : "master_key_identifier",
     "field_offset" : 64,
     "referenced_type" : "_ZTIA16_h"
    }
   ],
   "linker_set_key" : "_ZTI17fscrypt_policy_v2",
   "name" : "fscrypt_policy_v2",
   "referenced_type" : "_ZTI17fscrypt_policy_v2",
   "self_type" : "_ZTI17fscrypt_policy_v2",
   "size" : 24,
   "source_file" : "bionic/libc/kernel/uapi/linux/fscrypt.h"
  },
  {
   "alignment" : 4,
   "fields" :
   [
    {
     "field_name" : "__private",
     "referenced_type" : "_ZTIA8_i"
    }
   ],
   "linker_set_key" : "_ZTI17pthread_barrier_t",
   "name" : "pthread_barrier_t",
   "referenced_type" : "_ZTI17pthread_barrier_t",
   "self_type" : "_ZTI17pthread_barrier_t",
   "size" : 32,
   "source_file" : "out/soong/.intermediates/bionic/libc/libc/android_vendor.32_arm_armv8-a_shared/gen/include/bits/pthread_types.h"
  },
  {
   "alignment" : 4,
   "fields" :
   [
    {
     "field_name" : "_u",
     "referenced_type" : "_ZTIN18__kernel_sigactionUt_E"
    },
    {
     "field_name" : "sa_mask",
     "field_offset" : 32,
     "referenced_type" : "_ZTIm"
    },
    {
     "field_name" : "sa_flags",
     "field_offset" : 64,
     "referenced_type" : "_ZTIm"
    },
    {
     "field_name" : "sa_restorer",
     "field_offset" : 96,
     "referenced_type" : "_ZTIPFvvE"
    }
   ],
   "linker_set_key" : "_ZTI18__kernel_sigaction",
   "name" : "__kernel_sigaction",
   "referenced_type" : "_ZTI18__kernel_sigaction",
   "self_type" : "_ZTI18__kernel_sigaction",
   "size" : 16,
   "source_file" : "bionic/libc/kernel/uapi/asm-arm/asm/signal.h"
  },
  {
   "alignment" : 4,
   "fields" :
   [
    {
     "field_name" : "__private",
     "referenced_type" : "_ZTIA2_i"
    }
   ],
   "linker_set_key" : "_ZTI18pthread_spinlock_t",
   "name" : "pthread_spinlock_t",
   "referenced_type" : "_ZTI18pthread_spinlock_t",
   "self_type" : "_ZTI18pthread_spinlock_t",
   "size" : 8,
   "source_file" : "out/soong/.intermediates/bionic/libc/libc/android_vendor.32_arm_armv8-a_shared/gen/include/bits/pthread_types.h"
  },
  {
   "alignment" : 8,
   "fields" :
   [
    {
     "field_name" : "it_interval",
     "referenced_type" : "_ZTI17__kernel_timespec"
    },
    {
     "field_name" : "it_value",
     "field_offset" : 128,
     "referenced_type" : "_ZTI17__kernel_timespec"
    }
   ],
   "linker_set_key" : "_ZTI19__kernel_itimerspec",
   "name" : "__kernel_itimerspec",
   "referenced_type" : "_ZTI19__kernel_itimerspec",
   "self_type" : "_ZTI19__kernel_itimerspec",
   "size" : 32,
   "source_file" : "bionic/libc/kernel/uapi/linux/time_types.h"
  },
  {
   "alignment" : 4,
   "fields" :
   [
    {
     "field_name" : "cmos",
     "referenced_type" : "_ZTIa"
    },
    {
     "field_name" : "max_dtr",
     "field_offset" : 32,
     "referenced_type" : "_ZTIm"
    },
    {
     "field_name" : "hlt",
     "field_offset" : 64,
     "referenced_type" : "_ZTIm"
    },
    {
     "field_name" : "hut",
     "field_offset" : 96,
     "referenced_type" : "_ZTIm"
    },
    {
     "field_name" : "srt",
     "field_offset" : 128,
     "referenced_type" : "_ZTIm"
    },
    {
     "field_name" : "spinup",
     "field_offset" : 160,
     "referenced_type" : "_ZTIm"
    },
    {
     "field_name" : "spindown",
     "field_offset" : 192,
     "referenced_type" : "_ZTIm"
    },
    {
     "field_name" : "spindown_offset",
     "field_offset" : 224,
     "referenced_type" : "_ZTIh"
    },
    {
     "field_name" : "select_delay",
     "field_offset" : 232,
     "referenced_type" : "_ZTIh"
    },
    {
     "field_name" : "rps",
     "field_offset" : 240,
     "referenced_type" : "_ZTIh"
    },
    {
     "field_name" : "tracks",
     "field_offset" : 248,
     "referenced_type" : "_ZTIh"
    },
    {
     "field_name" : "timeout",
     "field_offset" : 256,
     "referenced_type" : "_ZTIm"
    },
    {
     "field_name" : "interleave_sect",
     "field_offset" : 288,
     "referenced_type" : "_ZTIh"
    },
    {
     "field_name" : "max_errors",
     "field_offset" : 320,
     "referenced_type" : "_ZTI17floppy_max_errors"
    },
    {
     "field_name" : "flags",
     "field_offset" : 480,
     "referenced_type" : "_ZTIc"
    },
    {
     "field_name" : "read_track",
     "field_offset" : 488,
     "referenced_type" : "_ZTIc"
    },
    {
     "field_name" : "autodetect",
     "field_offset" : 496,
     "referenced_type" : "_ZTIA8_s"
    },
    {
     "field_name" : "checkfreq",
     "field_offset" : 640,
     "referenced_type" : "_ZTIi"
    },
    {
     "field_name" : "native_format",
     "field_offset" : 672,
     "referenced_type" : "_ZTIi"
    }
   ],
   "linker_set_key" : "_ZTI19floppy_drive_params",
   "name" : "floppy_drive_params",
   "referenced_type" : "_ZTI19floppy_drive_params",
   "self_type" : "_ZTI19floppy_drive_params",
   "size" : 88,
   "source_file" : "bionic/libc/kernel/uapi/linux/fd.h"
  },
  {
   "alignment" : 4,
   "fields" :
   [
    {
     "field_name" : "flags",
     "referenced_type" : "_ZTIm"
    },
    {
     "field_name" : "spinup_date",
     "field_offset" : 32,
     "referenced_type" : "_ZTIm"
    },
    {
     "field_name" : "select_date",
     "field_offset" : 64,
     "referenced_type" : "_ZTIm"
    },
    {
     "field_name" : "first_read_date",
     "field_offset" : 96,
     "referenced_type" : "_ZTIm"
    },
    {
     "field_name" : "probed_format",
     "field_offset" : 128,
     "referenced_type" : "_ZTIs"
    },
    {
     "field_name" : "track",
     "field_offset" : 144,
     "referenced_type" : "_ZTIs"
    },
    {
     "field_name" : "maxblock",
     "field_offset" : 160,
     "referenced_type" : "_ZTIs"
    },
    {
     "field_name" : "maxtrack",
     "field_offset" : 176,
     "referenced_type" : "_ZTIs"
    },
    {
     "field_name" : "generation",
     "field_offset" : 192,
     "referenced_type" : "_ZTIi"
    },
    {
     "field_name" : "keep_data",
     "field_offset" : 224,
     "referenced_type" : "_ZTIi"
    },
    {
     "field_name" : "fd_ref",
     "field_offset" : 256,
     "referenced_type" : "_ZTIi"
    },
    {
     "field_name" : "fd_device",
     "field_offset" : 288,
     "referenced_type" : "_ZTIi"
    },
    {
     "field_name" : "last_checked",
     "field_offset" : 320,
     "referenced_type" : "_ZTIm"
    },
    {
     "field_name" : "dmabuf",
     "field_offset" : 352,
     "referenced_type" : "_ZTIPc"
    },
    {
     "field_name" : "bufblocks",
     "field_offset" : 384,
     "referenced_type" : "_ZTIi"
    }
   ],
   "linker_set_key" : "_ZTI19floppy_drive_struct",
   "name" : "floppy_drive_struct",
   "referenced_type" : "_ZTI19floppy_drive_struct",
   "self_type" : "_ZTI19floppy_drive_struct",
   "size" : 52,
   "source_file" : "bionic/libc/kernel/uapi/linux/fd.h"
  },
  {
   "alignment" : 4,
   "fields" :
   [
    {
     "field_name" : "write_errors",
     "referenced_type" : "_ZTIj"
    },
    {
     "field_name" : "first_error_sector",
     "field_offset" : 32,
     "referenced_type" : "_ZTIm"
    },
    {
     "field_name" : "first_error_generation",
     "field_offset" : 64,
     "referenced_type" : "_ZTIi"
    },
    {
     "field_name" : "last_error_sector",
     "field_offset" : 96,
     "referenced_type" : "_ZTIm"
    },
    {
     "field_name" : "last_error_generation",
     "field_offset" : 128,
     "referenced_type" : "_ZTIi"
    },
    {
     "field_name" : "badness",
     "field_offset" : 160,
     "referenced_type" : "_ZTIj"
    }
   ],
   "linker_set_key" : "_ZTI19floppy_write_errors",
   "name" : "floppy_write_errors",
   "referenced_type" : "_ZTI19floppy_write_errors",
   "self_type" : "_ZTI19floppy_write_errors",
   "size" : 24,
   "source_file" : "bionic/libc/kernel/uapi/linux/fd.h"
  },
  {
   "alignment" : 4,
   "fields" :
   [
    {
     "field_name" : "key_spec",
     "referenced_type" : "_ZTI21fscrypt_key_specifier"
    },
    {
     "field_name" : "raw_size",
     "field_offset" : 320,
     "referenced_type" : "_ZTIj"
    },
    {
     "field_name" : "key_id",
     "field_offset" : 352,
     "referenced_type" : "_ZTIj"
    },
    {
     "field_name" : "__reserved",
     "field_offset" : 384,
     "referenced_type" : "_ZTIA7_j"
    },
    {
     "field_name" : "__flags",
     "field_offset" : 608,
     "referenced_type" : "_ZTIj"
    },
    {
     "field_name" : "raw",
     "field_offset" : 640,
     "referenced_type" : "_ZTIA_h"
    }
   ],
   "linker_set_key" : "_ZTI19fscrypt_add_key_arg",
   "name" : "fscrypt_add_key_arg",
   "referenced_type" : "_ZTI19fscrypt_add_key_arg",
   "self_type" : "_ZTI19fscrypt_add_key_arg",
   "size" : 80,
   "source_file" : "bionic/libc/kernel/uapi/linux/fscrypt.h"
  },
  {
   "alignment" : 4,
   "fields" :
   [
    {
     "field_name" : "tv_sec",
     "referenced_type" : "_ZTIl"
    },
    {
     "field_name" : "tv_nsec",
     "field_offset" : 32,
     "referenced_type" : "_ZTIl"
    }
   ],
   "linker_set_key" : "_ZTI21__kernel_old_timespec",
   "name" : "__kernel_old_timespec",
   "referenced_type" : "_ZTI21__kernel_old_timespec",
   "self_type" : "_ZTI21__kernel_old_timespec",
   "size" : 8,
   "source_file" : "bionic/libc/kernel/uapi/linux/time_types.h"
  },
  {
   "alignment" : 8,
   "fields" :
   [
    {
     "field_name" : "tv_sec",
     "referenced_type" : "_ZTIx"
    },
    {
     "field_name" : "tv_usec",
     "field_offset" : 64,
     "referenced_type" : "_ZTIx"
    }
   ],
   "linker_set_key" : "_ZTI21__kernel_sock_timeval",
   "name" : "__kernel_sock_timeval",
   "referenced_type" : "_ZTI21__kernel_sock_timeval",
   "self_type" : "_ZTI21__kernel_sock_timeval",
   "size" : 16,
   "source_file" : "bionic/libc/kernel/uapi/linux/time_types.h"
  },
  {
   "alignment" : 4,
   "fields" :
   [
    {
     "field_name" : "type",
     "referenced_type" : "_ZTIj"
    },
    {
     "field_name" : "__reserved",
     "field_offset" : 32,
     "referenced_type" : "_ZTIj"
    },
    {
     "field_name" : "u",
     "field_offset" : 64,
     "referenced_type" : "_ZTIN21fscrypt_key_specifierUt_E"
    }
   ],
   "linker_set_key" : "_ZTI21fscrypt_key_specifier",
   "name" : "fscrypt_key_specifier",
   "referenced_type" : "_ZTI21fscrypt_key_specifier",
   "self_type" : "_ZTI21fscrypt_key_specifier",
   "size" : 40,
   "source_file" : "bionic/libc/kernel/uapi/linux/fscrypt.h"
  },
  {
   "alignment" : 8,
   "fields" :
   [
    {
     "field_name" : "dest_fd",
     "referenced_type" : "_ZTIx"
    },
    {
     "field_name" : "dest_offset",
     "field_offset" : 64,
     "referenced_type" : "_ZTIy"
    },
    {
     "field_name" : "bytes_deduped",
     "field_offset" : 128,
     "referenced_type" : "_ZTIy"
    },
    {
     "field_name" : "status",
     "field_offset" : 192,
     "referenced_type" : "_ZTIi"
    },
    {
     "field_name" : "reserved",
     "field_offset" : 224,
     "referenced_type" : "_ZTIj"
    }
   ],
   "linker_set_key" : "_ZTI22file_dedupe_range_info",
   "name" : "file_dedupe_range_info",
   "referenced_type" : "_ZTI22file_dedupe_range_info",
   "self_type" : "_ZTI22file_dedupe_range_info",
   "size" : 32,
   "source_file" : "bionic/libc/kernel/uapi/linux/fs.h"
  },
  {
   "alignment" : 4,
   "fields" :
   [
    {
     "field_name" : "key_spec",
     "referenced_type" : "_ZTI21fscrypt_key_specifier"
    },
    {
     "field_name" : "removal_status_flags",
     "field_offset" : 320,
     "referenced_type" : "_ZTIj"
    },
    {
     "field_name" : "__reserved",
     "field_offset" : 352,
     "referenced_type" : "_ZTIA5_j"
    }
   ],
   "linker_set_key" : "_ZTI22fscrypt_remove_key_arg",
   "name" : "fscrypt_remove_key_arg",
   "referenced_type" : "_ZTI22fscrypt_remove_key_arg",
   "self_type" : "_ZTI22fscrypt_remove_key_arg",
   "size" : 64,
   "source_file" : "bionic/libc/kernel/uapi/linux/fscrypt.h"
  },
  {
   "alignment" : 4,
   "fields" :
   [
    {
     "field_name" : "cts",
     "referenced_type" : "_ZTIi"
    },
    {
     "field_name" : "dsr",
     "field_offset" : 32,
     "referenced_type" : "_ZTIi"
    },
    {
     "field_name" : "rng",
     "field_offset" : 64,
     "referenced_type" : "_ZTIi"
    },
    {
     "field_name" : "dcd",
     "field_offset" : 96,
     "referenced_type" : "_ZTIi"
    },
    {
     "field_name" : "rx",
     "field_offset" : 128,
     "referenced_type" : "_ZTIi"
    },
    {
     "field_name" : "tx",
     "field_offset" : 160,
     "referenced_type" : "_ZTIi"
    },
    {
     "field_name" : "frame",
     "field_offset" : 192,
     "referenced_type" : "_ZTIi"
    },
    {
     "field_name" : "overrun",
     "field_offset" : 224,
     "referenced_type" : "_ZTIi"
    },
    {
     "field_name" : "parity",
     "field_offset" : 256,
     "referenced_type" : "_ZTIi"
    },
    {
     "field_name" : "brk",
     "field_offset" : 288,
     "referenced_type" : "_ZTIi"
    },
    {
     "field_name" : "buf_overrun",
     "field_offset" : 320,
     "referenced_type" : "_ZTIi"
    },
    {
     "field_name" : "reserved",
     "field_offset" : 352,
     "referenced_type" : "_ZTIA9_i"
    }
   ],
   "linker_set_key" : "_ZTI22serial_icounter_struct",
   "name" : "serial_icounter_struct",
   "referenced_type" : "_ZTI22serial_icounter_struct",
   "self_type" : "_ZTI22serial_icounter_struct",
   "size" : 80,
   "source_file" : "bionic/libc/kernel/uapi/linux/serial.h"
  },
  {
   "alignment" : 4,
   "fields" :
   [
    {
     "field_name" : "irq",
     "referenced_type" : "_ZTIi"
    },
    {
     "field_name" : "port1",
     "field_offset" : 32,
     "referenced_type" : "_ZTIi"
    },
    {
     "field_name" : "mask1",
     "field_offset" : 64,
     "referenced_type" : "_ZTIh"
    },
    {
     "field_name" : "match1",
     "field_offset" : 72,
     "referenced_type" : "_ZTIh"
    },
    {
     "field_name" : "port2",
     "field_offset" : 96,
     "referenced_type" : "_ZTIi"
    },
    {
     "field_name" : "mask2",
     "field_offset" : 128,
     "referenced_type" : "_ZTIh"
    },
    {
     "field_name" : "match2",
     "field_offset" : 136,
     "referenced_type" : "_ZTIh"
    },
    {
     "field_name" : "port3",
     "field_offset" : 160,
     "referenced_type" : "_ZTIi"
    },
    {
     "field_name" : "mask3",
     "field_offset" : 192,
     "referenced_type" : "_ZTIh"
    },
    {
     "field_name" : "match3",
     "field_offset" : 200,
     "referenced_type" : "_ZTIh"
    },
    {
     "field_name" : "port4",
     "field_offset" : 224,
     "referenced_type" : "_ZTIi"
    },
    {
     "field_name" : "mask4",
     "field_offset" : 256,
     "referenced_type" : "_ZTIh"
    },
    {
     "field_name" : "match4",
     "field_offset" : 264,
     "referenced_type" : "_ZTIh"
    },
    {
     "field_name" : "port_monitor",
     "field_offset" : 288,
     "referenced_type" : "_ZTIi"
    },
    {
     "field_name" : "reserved",
     "field_offset" : 320,
     "referenced_type" : "_ZTIA32_i"
    }
   ],
   "linker_set_key" : "_ZTI23serial_multiport_struct",
   "name" : "serial_multiport_struct",
   "referenced_type" : "_ZTI23serial_multiport_struct",
   "self_type" : "_ZTI23serial_multiport_struct",
   "size" : 168,
   "source_file" : "bionic/libc/kernel/uapi/linux/serial.h"
  },
  {
   "alignment" : 8,
   "fields" :
   [
    {
     "field_name" : "policy_size",
     "referenced_type" : "_ZTIy"
    },
    {
     "field_name" : "policy",
     "field_offset" : 64,
     "referenced_type" : "_ZTIN25fscrypt_get_policy_ex_argUt_E"
    }
   ],
   "linker_set_key" : "_ZTI25fscrypt_get_policy_ex_arg",
   "name" : "fscrypt_get_policy_ex_arg",
   "referenced_type" : "_ZTI25fscrypt_get_policy_ex_arg",
   "self_type" : "_ZTI25fscrypt_get_policy_ex_arg",
   "size" : 32,
   "source_file" : "bionic/libc/kernel/uapi/linux/fscrypt.h"
  },
  {
   "alignment" : 4,
   "fields" :
   [
    {
     "field_name" : "key_spec",
     "referenced_type" : "_ZTI21fscrypt_key_specifier"
    },
    {
     "field_name" : "__reserved",
     "field_offset" : 320,
     "referenced_type" : "_ZTIA6_j"
    },
    {
     "field_name" : "status",
     "field_offset" : 512,
     "referenced_type" : "_ZTIj"
    },
    {
     "field_name" : "status_flags",
     "field_offset" : 544,
     "referenced_type" : "_ZTIj"
    },
    {
     "field_name" : "user_count",
     "field_offset" : 576,
     "referenced_type" : "_ZTIj"
    },
    {
     "field_name" : "__out_reserved",
     "field_offset" : 608,
     "referenced_type" : "_ZTIA13_j"
    }
   ],
   "linker_set_key" : "_ZTI26fscrypt_get_key_status_arg",
   "name" : "fscrypt_get_key_status_arg",
   "referenced_type" : "_ZTI26fscrypt_get_key_status_arg",
   "self_type" : "_ZTI26fscrypt_get_key_status_arg",
   "size" : 128,
   "source_file" : "bionic/libc/kernel/uapi/linux/fscrypt.h"
  },
  {
   "alignment" : 4,
   "fields" :
   [
    {
     "field_name" : "type",
     "referenced_type" : "_ZTIj"
    },
    {
     "field_name" : "__reserved",
     "field_offset" : 32,
     "referenced_type" : "_ZTIj"
    },
    {
     "field_name" : "raw",
     "field_offset" : 64,
     "referenced_type" : "_ZTIA_h"
    }
   ],
   "linker_set_key" : "_ZTI32fscrypt_provisioning_key_payload",
   "name" : "fscrypt_provisioning_key_payload",
   "referenced_type" : "_ZTI32fscrypt_provisioning_key_payload",
   "self_type" : "_ZTI32fscrypt_provisioning_key_payload",
   "size" : 8,
   "source_file" : "bionic/libc/kernel/uapi/linux/fscrypt.h"
  },
  {
   "alignment" : 8,
   "fields" :
   [
    {
     "field_name" : "st_dev",
     "referenced_type" : "_ZTIy"
    },
    {
     "field_name" : "__pad0",
     "field_offset" : 64,
     "referenced_type" : "_ZTIA4_h"
    },
    {
     "field_name" : "__st_ino",
     "field_offset" : 96,
     "referenced_type" : "_ZTIm"
    },
    {
     "field_name" : "st_mode",
     "field_offset" : 128,
     "referenced_type" : "_ZTIj"
    },
    {
     "field_name" : "st_nlink",
     "field_offset" : 160,
     "referenced_type" : "_ZTIj"
    },
    {
     "field_name" : "st_uid",
     "field_offset" : 192,
     "referenced_type" : "_ZTIj"
    },
    {
     "field_name" : "st_gid",
     "field_offset" : 224,
     "referenced_type" : "_ZTIj"
    },
    {
     "field_name" : "st_rdev",
     "field_offset" : 256,
     "referenced_type" : "_ZTIy"
    },
    {
     "field_name" : "__pad3",
     "field_offset" : 320,
     "referenced_type" : "_ZTIA4_h"
    },
    {
     "field_name" : "st_size",
     "field_offset" : 384,
     "referenced_type" : "_ZTIx"
    },
    {
     "field_name" : "st_blksize",
     "field_offset" : 448,
     "referenced_type" : "_ZTIm"
    },
    {
     "field_name" : "st_blocks",
     "field_offset" : 512,
     "referenced_type" : "_ZTIy"
    },
    {
     "field_name" : "st_atim",
     "field_offset" : 576,
     "referenced_type" : "_ZTI8timespec"
    },
    {
     "field_name" : "st_mtim",
     "field_offset" : 640,
     "referenced_type" : "_ZTI8timespec"
    },
    {
     "field_name" : "st_ctim",
     "field_offset" : 704,
     "referenced_type" : "_ZTI8timespec"
    },
    {
     "field_name" : "st_ino",
     "field_offset" : 768,
     "referenced_type" : "_ZTIy"
    }
   ],
   "linker_set_key" : "_ZTI4stat",
   "name" : "stat",
   "referenced_type" : "_ZTI4stat",
   "self_type" : "_ZTI4stat",
   "size" : 104,
   "source_file" : "out/soong/.intermediates/bionic/libc/libc/android_vendor.32_arm_armv8-a_shared/gen/include/sys/stat.h"
  },
  {
   "alignment" : 4,
   "fields" :
   [
    {
     "field_name" : "regs",
     "referenced_type" : "_ZTI9user_regs"
    },
    {
     "field_name" : "u_fpvalid",
     "field_offset" : 576,
     "referenced_type" : "_ZTIi"
    },
    {
     "field_name" : "u_tsize",
     "field_offset" : 608,
     "referenced_type" : "_ZTIm"
    },
    {
     "field_name" : "u_dsize",
     "field_offset" : 640,
     "referenced_type" : "_ZTIm"
    },
    {
     "field_name" : "u_ssize",
     "field_offset" : 672,
     "referenced_type" : "_ZTIm"
    },
    {
     "field_name" : "start_code",
     "field_offset" : 704,
     "referenced_type" : "_ZTIm"
    },
    {
     "field_name" : "start_stack",
     "field_offset" : 736,
     "referenced_type" : "_ZTIm"
    },
    {
     "field_name" : "signal",
     "field_offset" : 768,
     "referenced_type" : "_ZTIl"
    },
    {
     "field_name" : "reserved",
     "field_offset" : 800,
     "referenced_type" : "_ZTIi"
    },
    {
     "field_name" : "u_ar0",
     "field_offset" : 832,
     "referenced_type" : "_ZTIP9user_regs"
    },
    {
     "field_name" : "magic",
     "field_offset" : 864,
     "referenced_type" : "_ZTIm"
    },
    {
     "field_name" : "u_comm",
     "field_offset" : 896,
     "referenced_type" : "_ZTIA32_c"
    },
    {
     "field_name" : "u_debugreg",
     "field_offset" : 1152,
     "referenced_type" : "_ZTIA8_i"
    },
    {
     "field_name" : "u_fp",
     "field_offset" : 1408,
     "referenced_type" : "_ZTI11user_fpregs"
    },
    {
     "field_name" : "u_fp0",
     "field_offset" : 2336,
     "referenced_type" : "_ZTIP11user_fpregs"
    }
   ],
   "linker_set_key" : "_ZTI4user",
   "name" : "user",
   "referenced_type" : "_ZTI4user",
   "self_type" : "_ZTI4user",
   "size" : 296,
   "source_file" : "out/soong/.intermediates/bionic/libc/libc/android_vendor.32_arm_armv8-a_shared/gen/include/sys/user.h"
  },
  {
   "alignment" : 8,
   "fields" :
   [
    {
     "field_name" : "l_type",
     "referenced_type" : "_ZTIs"
    },
    {
     "field_name" : "l_whence",
     "field_offset" : 16,
     "referenced_type" : "_ZTIs"
    },
    {
     "field_name" : "l_start",
     "field_offset" : 64,
     "referenced_type" : "_ZTIx"
    },
    {
     "field_name" : "l_len",
     "field_offset" : 128,
     "referenced_type" : "_ZTIx"
    },
    {
     "field_name" : "l_pid",
     "field_offset" : 192,
     "referenced_type" : "_ZTIi"
    }
   ],
   "linker_set_key" : "_ZTI5flock",
   "name" : "flock",
   "referenced_type" : "_ZTI5flock",
   "self_type" : "_ZTI5flock",
   "size" : 32,
   "source_file" : "out/soong/.intermediates/bionic/libc/libc/android_vendor.32_arm_armv8-a_shared/gen/include/bits/flock.h"
  },
  {
   "alignment" : 4,
   "fields" :
   [
    {
     "field_name" : "iov_base",
     "referenced_type" : "_ZTIPv"
    },
    {
     "field_name" : "iov_len",
     "field_offset" : 32,
     "referenced_type" : "_ZTIj"
    }
   ],
   "linker_set_key" : "_ZTI5iovec",
   "name" : "iovec",
   "referenced_type" : "_ZTI5iovec",
   "self_type" : "_ZTI5iovec",
   "size" : 8,
   "source_file" : "bionic/libc/kernel/uapi/linux/uio.h"
  },
  {
   "alignment" : 8,
   "fields" :
   [
    {
     "field_name" : "stx_mask",
     "referenced_type" : "_ZTIj"
    },
    {
     "field_name" : "stx_blksize",
     "field_offset" : 32,
     "referenced_type" : "_ZTIj"
    },
    {
     "field_name" : "stx_attributes",
     "field_offset" : 64,
     "referenced_type" : "_ZTIy"
    },
    {
     "field_name" : "stx_nlink",
     "field_offset" : 128,
     "referenced_type" : "_ZTIj"
    },
    {
     "field_name" : "stx_uid",
     "field_offset" : 160,
     "referenced_type" : "_ZTIj"
    },
    {
     "field_name" : "stx_gid",
     "field_offset" : 192,
     "referenced_type" : "_ZTIj"
    },
    {
     "field_name" : "stx_mode",
     "field_offset" : 224,
     "referenced_type" : "_ZTIt"
    },
    {
     "field_name" : "__spare0",
     "field_offset" : 240,
     "referenced_type" : "_ZTIA1_t"
    },
    {
     "field_name" : "stx_ino",
     "field_offset" : 256,
     "referenced_type" : "_ZTIy"
    },
    {
     "field_name" : "stx_size",
     "field_offset" : 320,
     "referenced_type" : "_ZTIy"
    },
    {
     "field_name" : "stx_blocks",
     "field_offset" : 384,
     "referenced_type" : "_ZTIy"
    },
    {
     "field_name" : "stx_attributes_mask",
     "field_offset" : 448,
     "referenced_type" : "_ZTIy"
    },
    {
     "field_name" : "stx_atime",
     "field_offset" : 512,
     "referenced_type" : "_ZTI15statx_timestamp"
    },
    {
     "field_name" : "stx_btime",
     "field_offset" : 640,
     "referenced_type" : "_ZTI15statx_timestamp"
    },
    {
     "field_name" : "stx_ctime",
     "field_offset" : 768,
     "referenced_type" : "_ZTI15statx_timestamp"
    },
    {
     "field_name" : "stx_mtime",
     "field_offset" : 896,
     "referenced_type" : "_ZTI15statx_timestamp"
    },
    {
     "field_name" : "stx_rdev_major",
     "field_offset" : 1024,
     "referenced_type" : "_ZTIj"
    },
    {
     "field_name" : "stx_rdev_minor",
     "field_offset" : 1056,
     "referenced_type" : "_ZTIj"
    },
    {
     "field_name" : "stx_dev_major",
     "field_offset" : 1088,
     "referenced_type" : "_ZTIj"
    },
    {
     "field_name" : "stx_dev_minor",
     "field_offset" : 1120,
     "referenced_type" : "_ZTIj"
    },
    {
     "field_name" : "stx_mnt_id",
     "field_offset" : 1152,
     "referenced_type" : "_ZTIy"
    },
    {
     "field_name" : "__spare2",
     "field_offset" : 1216,
     "referenced_type" : "_ZTIy"
    },
    {
     "field_name" : "__spare3",
     "field_offset" : 1280,
     "referenced_type" : "_ZTIA12_y"
    }
   ],
   "linker_set_key" : "_ZTI5statx",
   "name" : "statx",
   "referenced_type" : "_ZTI5statx",
   "self_type" : "_ZTI5statx",
   "size" : 256,
   "source_file" : "bionic/libc/kernel/uapi/linux/stat.h"
  },
  {
   "alignment" : 4,
   "fields" :
   [
    {
     "field_name" : "pid",
     "referenced_type" : "_ZTIi"
    },
    {
     "field_name" : "uid",
     "field_offset" : 32,
     "referenced_type" : "_ZTIj"
    },
    {
     "field_name" : "gid",
     "field_offset" : 64,
     "referenced_type" : "_ZTIj"
    }
   ],
   "linker_set_key" : "_ZTI5ucred",
   "name" : "ucred",
   "referenced_type" : "_ZTI5ucred",
   "self_type" : "_ZTI5ucred",
   "size" : 12,
   "source_file" : "out/soong/.intermediates/bionic/libc/libc/android_vendor.32_arm_armv8-a_shared/gen/include/sys/socket.h"
  },
  {
   "alignment" : 4,
   "fields" :
   [
    {
     "field_name" : "sign1",
     "referenced_type" : "_ZTIj"
    },
    {
     "field_name" : "unused",
     "field_offset" : 1,
     "referenced_type" : "_ZTIj"
    },
    {
     "field_name" : "sign2",
     "field_offset" : 16,
     "referenced_type" : "_ZTIj"
    },
    {
     "field_name" : "exponent",
     "field_offset" : 17,
     "referenced_type" : "_ZTIj"
    },
    {
     "field_name" : "j",
     "field_offset" : 31,
     "referenced_type" : "_ZTIj"
    },
    {
     "field_name" : "mantissa1",
     "field_offset" : 32,
     "referenced_type" : "_ZTIj"
    },
    {
     "field_name" : "mantissa0",
     "field_offset" : 64,
     "referenced_type" : "_ZTIj"
    }
   ],
   "linker_set_key" : "_ZTI6fp_reg",
   "name" : "fp_reg",
   "referenced_type" : "_ZTI6fp_reg",
   "self_type" : "_ZTI6fp_reg",
   "size" : 12,
   "source_file" : "out/soong/.intermediates/bionic/libc/libc/android_vendor.32_arm_armv8-a_shared/gen/include/sys/user.h"
  },
  {
   "alignment" : 4,
   "fields" :
   [
    {
     "field_name" : "l_onoff",
     "referenced_type" : "_ZTIi"
    },
    {
     "field_name" : "l_linger",
     "field_offset" : 32,
     "referenced_type" : "_ZTIi"
    }
   ],
   "linker_set_key" : "_ZTI6linger",
   "name" : "linger",
   "referenced_type" : "_ZTI6linger",
   "self_type" : "_ZTI6linger",
   "size" : 8,
   "source_file" : "out/soong/.intermediates/bionic/libc/libc/android_vendor.32_arm_armv8-a_shared/gen/include/sys/socket.h"
  },
  {
   "alignment" : 4,
   "fields" :
   [
    {
     "field_name" : "msg_name",
     "referenced_type" : "_ZTIPv"
    },
    {
     "field_name" : "msg_namelen",
     "field_offset" : 32,
     "referenced_type" : "_ZTIi"
    },
    {
     "field_name" : "msg_iov",
     "field_offset" : 64,
     "referenced_type" : "_ZTIP5iovec"
    },
    {
     "field_name" : "msg_iovlen",
     "field_offset" : 96,
     "referenced_type" : "_ZTIj"
    },
    {
     "field_name" : "msg_control",
     "field_offset" : 128,
     "referenced_type" : "_ZTIPv"
    },
    {
     "field_name" : "msg_controllen",
     "field_offset" : 160,
     "referenced_type" : "_ZTIj"
    },
    {
     "field_name" : "msg_flags",
     "field_offset" : 192,
     "referenced_type" : "_ZTIi"
    }
   ],
   "linker_set_key" : "_ZTI6msghdr",
   "name" : "msghdr",
   "referenced_type" : "_ZTI6msghdr",
   "self_type" : "_ZTI6msghdr",
   "size" : 28,
   "source_file" : "out/soong/.intermediates/bionic/libc/libc/android_vendor.32_arm_armv8-a_shared/gen/include/sys/socket.h"
  },
  {
   "alignment" : 4,
   "fields" :
   [
    {
     "field_name" : "rlim_cur",
     "referenced_type" : "_ZTIm"
    },
    {
     "field_name" : "rlim_max",
     "field_offset" : 32,
     "referenced_type" : "_ZTIm"
    }
   ],
   "linker_set_key" : "_ZTI6rlimit",
   "name" : "rlimit",
   "referenced_type" : "_ZTI6rlimit",
   "self_type" : "_ZTI6rlimit",
   "size" : 8,
   "source_file" : "bionic/libc/kernel/uapi/linux/resource.h"
  },
  {
   "alignment" : 4,
   "fields" :
   [
    {
     "field_name" : "ru_utime",
     "referenced_type" : "_ZTI7timeval"
    },
    {
     "field_name" : "ru_stime",
     "field_offset" : 64,
     "referenced_type" : "_ZTI7timeval"
    },
    {
     "field_name" : "ru_maxrss",
     "field_offset" : 128,
     "referenced_type" : "_ZTIl"
    },
    {
     "field_name" : "ru_ixrss",
     "field_offset" : 160,
     "referenced_type" : "_ZTIl"
    },
    {
     "field_name" : "ru_idrss",
     "field_offset" : 192,
     "referenced_type" : "_ZTIl"
    },
    {
     "field_name" : "ru_isrss",
     "field_offset" : 224,
     "referenced_type" : "_ZTIl"
    },
    {
     "field_name" : "ru_minflt",
     "field_offset" : 256,
     "referenced_type" : "_ZTIl"
    },
    {
     "field_name" : "ru_majflt",
     "field_offset" : 288,
     "referenced_type" : "_ZTIl"
    },
    {
     "field_name" : "ru_nswap",
     "field_offset" : 320,
     "referenced_type" : "_ZTIl"
    },
    {
     "field_name" : "ru_inblock",
     "field_offset" : 352,
     "referenced_type" : "_ZTIl"
    },
    {
     "field_name" : "ru_oublock",
     "field_offset" : 384,
     "referenced_type" : "_ZTIl"
    },
    {
     "field_name" : "ru_msgsnd",
     "field_offset" : 416,
     "referenced_type" : "_ZTIl"
    },
    {
     "field_name" : "ru_msgrcv",
     "field_offset" : 448,
     "referenced_type" : "_ZTIl"
    },
    {
     "field_name" : "ru_nsignals",
     "field_offset" : 480,
     "referenced_type" : "_ZTIl"
    },
    {
     "field_name" : "ru_nvcsw",
     "field_offset" : 512,
     "referenced_type" : "_ZTIl"
    },
    {
     "field_name" : "ru_nivcsw",
     "field_offset" : 544,
     "referenced_type" : "_ZTIl"
    }
   ],
   "linker_set_key" : "_ZTI6rusage",
   "name" : "rusage",
   "referenced_type" : "_ZTI6rusage",
   "self_type" : "_ZTI6rusage",
   "size" : 72,
   "source_file" : "bionic/libc/kernel/uapi/linux/resource.h"
  },
  {
   "alignment" : 4,
   "fields" :
   [
    {
     "field_name" : "sival_int",
     "referenced_type" : "_ZTIi"
    },
    {
     "field_name" : "sival_ptr",
     "referenced_type" : "_ZTIPv"
    }
   ],
   "linker_set_key" : "_ZTI6sigval",
   "name" : "sigval",
   "record_kind" : "union",
   "referenced_type" : "_ZTI6sigval",
   "self_type" : "_ZTI6sigval",
   "size" : 4,
   "source_file" : "bionic/libc/kernel/uapi/asm-generic/siginfo.h"
  },
  {
   "alignment" : 8,
   "fields" :
   [
    {
     "field_name" : "st_dev",
     "referenced_type" : "_ZTIy"
    },
    {
     "field_name" : "__pad0",
     "field_offset" : 64,
     "referenced_type" : "_ZTIA4_h"
    },
    {
     "field_name" : "__st_ino",
     "field_offset" : 96,
     "referenced_type" : "_ZTIm"
    },
    {
     "field_name" : "st_mode",
     "field_offset" : 128,
     "referenced_type" : "_ZTIj"
    },
    {
     "field_name" : "st_nlink",
     "field_offset" : 160,
     "referenced_type" : "_ZTIj"
    },
    {
     "field_name" : "st_uid",
     "field_offset" : 192,
     "referenced_type" : "_ZTIj"
    },
    {
     "field_name" : "st_gid",
     "field_offset" : 224,
     "referenced_type" : "_ZTIj"
    },
    {
     "field_name" : "st_rdev",
     "field_offset" : 256,
     "referenced_type" : "_ZTIy"
    },
    {
     "field_name" : "__pad3",
     "field_offset" : 320,
     "referenced_type" : "_ZTIA4_h"
    },
    {
     "field_name" : "st_size",
     "field_offset" : 384,
     "referenced_type" : "_ZTIx"
    },
    {
     "field_name" : "st_blksize",
     "field_offset" : 448,
     "referenced_type" : "_ZTIm"
    },
    {
     "field_name" : "st_blocks",
     "field_offset" : 512,
     "referenced_type" : "_ZTIy"
    },
    {
     "field_name" : "st_atim",
     "field_offset" : 576,
     "referenced_type" : "_ZTI8timespec"
    },
    {
     "field_name" : "st_mtim",
     "field_offset" : 640,
     "referenced_type" : "_ZTI8timespec"
    },
    {
     "field_name" : "st_ctim",
     "field_offset" : 704,
     "referenced_type" : "_ZTI8timespec"
    },
    {
     "field_name" : "st_ino",
     "field_offset" : 768,
     "referenced_type" : "_ZTIy"
    }
   ],
   "linker_set_key" : "_ZTI6stat64",
   "name" : "stat64",
   "referenced_type" : "_ZTI6stat64",
   "self_type" : "_ZTI6stat64",
   "size" : 104,
   "source_file" : "out/soong/.intermediates/bionic/libc/libc/android_vendor.32_arm_armv8-a_shared/gen/include/sys/stat.h"
  },
  {
   "alignment" : 2,
   "fields" :
   [
    {
     "field_name" : "c_iflag",
     "referenced_type" : "_ZTIt"
    },
    {
     "field_name" : "c_oflag",
     "field_offset" : 16,
     "referenced_type" : "_ZTIt"
    },
    {
     "field_name" : "c_cflag",
     "field_offset" : 32,
     "referenced_type" : "_ZTIt"
    },
    {
     "field_name" : "c_lflag",
     "field_offset" : 48,
     "referenced_type" : "_ZTIt"
    },
    {
     "field_name" : "c_line",
     "field_offset" : 64,
     "referenced_type" : "_ZTIh"
    },
    {
     "field_name" : "c_cc",
     "field_offset" : 72,
     "referenced_type" : "_ZTIA8_h"
    }
   ],
   "linker_set_key" : "_ZTI6termio",
   "name" : "termio",
   "referenced_type" : "_ZTI6termio",
   "self_type" : "_ZTI6termio",
   "size" : 18,
   "source_file" : "bionic/libc/kernel/uapi/asm-generic/termios.h"
  },
  {
   "alignment" : 4,
   "fields" :
   [
    {
     "field_name" : "cmsg_len",
     "referenced_type" : "_ZTIj"
    },
    {
     "field_name" : "cmsg_level",
     "field_offset" : 32,
     "referenced_type" : "_ZTIi"
    },
    {
     "field_name" : "cmsg_type",
     "field_offset" : 64,
     "referenced_type" : "_ZTIi"
    }
   ],
   "linker_set_key" : "_ZTI7cmsghdr",
   "name" : "cmsghdr",
   "referenced_type" : "_ZTI7cmsghdr",
   "self_type" : "_ZTI7cmsghdr",
   "size" : 12,
   "source_file" : "out/soong/.intermediates/bionic/libc/libc/android_vendor.32_arm_armv8-a_shared/gen/include/sys/socket.h"
  },
  {
   "alignment" : 8,
   "fields" :
   [
    {
     "field_name" : "l_type",
     "referenced_type" : "_ZTIs"
    },
    {
     "field_name" : "l_whence",
     "field_offset" : 16,
     "referenced_type" : "_ZTIs"
    },
    {
     "field_name" : "l_start",
     "field_offset" : 64,
     "referenced_type" : "_ZTIx"
    },
    {
     "field_name" : "l_len",
     "field_offset" : 128,
     "referenced_type" : "_ZTIx"
    },
    {
     "field_name" : "l_pid",
     "field_offset" : 192,
     "referenced_type" : "_ZTIi"
    }
   ],
   "linker_set_key" : "_ZTI7flock64",
   "name" : "flock64",
   "referenced_type" : "_ZTI7flock64",
   "self_type" : "_ZTI7flock64",
   "size" : 32,
   "source_file" : "out/soong/.intermediates/bionic/libc/libc/android_vendor.32_arm_armv8-a_shared/gen/include/bits/flock.h"
  },
  {
   "alignment" : 4,
   "fields" :
   [
    {
     "field_name" : "fsx_xflags",
     "referenced_type" : "_ZTIj"
    },
    {
     "field_name" : "fsx_extsize",
     "field_offset" : 32,
     "referenced_type" : "_ZTIj"
    },
    {
     "field_name" : "fsx_nextents",
     "field_offset" : 64,
     "referenced_type" : "_ZTIj"
    },
    {
     "field_name" : "fsx_projid",
     "field_offset" : 96,
     "referenced_type" : "_ZTIj"
    },
    {
     "field_name" : "fsx_cowextsize",
     "field_offset" : 128,
     "referenced_type" : "_ZTIj"
    },
    {
     "field_name" : "fsx_pad",
     "field_offset" : 160,
     "referenced_type" : "_ZTIA8_h"
    }
   ],
   "linker_set_key" : "_ZTI7fsxattr",
   "name" : "fsxattr",
   "referenced_type" : "_ZTI7fsxattr",
   "self_type" : "_ZTI7fsxattr",
   "size" : 28,
   "source_file" : "bionic/libc/kernel/uapi/linux/fs.h"
  },
  {
   "alignment" : 4,
   "fields" :
   [
    {
     "field_name" : "msg_hdr",
     "referenced_type" : "_ZTI6msghdr"
    },
    {
     "field_name" : "msg_len",
     "field_offset" : 224,
     "referenced_type" : "_ZTIj"
    }
   ],
   "linker_set_key" : "_ZTI7mmsghdr",
   "name" : "mmsghdr",
   "referenced_type" : "_ZTI7mmsghdr",
   "self_type" : "_ZTI7mmsghdr",
   "size" : 32,
   "source_file" : "out/soong/.intermediates/bionic/libc/libc/android_vendor.32_arm_armv8-a_shared/gen/include/sys/socket.h"
  },
  {
   "alignment" : 4,
   "fields" :
   [
    {
     "referenced_type" : "_ZTIN7siginfoUt_E"
    }
   ],
   "linker_set_key" : "_ZTI7siginfo",
   "name" : "siginfo",
   "referenced_type" : "_ZTI7siginfo",
   "self_type" : "_ZTI7siginfo",
   "size" : 128,
   "source_file" : "bionic/libc/kernel/uapi/asm-generic/siginfo.h"
  },
  {
   "alignment" : 4,
   "fields" :
   [
    {
     "field_name" : "c_iflag",
     "referenced_type" : "_ZTIj"
    },
    {
     "field_name" : "c_oflag",
     "field_offset" : 32,
     "referenced_type" : "_ZTIj"
    },
    {
     "field_name" : "c_cflag",
     "field_offset" : 64,
     "referenced_type" : "_ZTIj"
    },
    {
     "field_name" : "c_lflag",
     "field_offset" : 96,
     "referenced_type" : "_ZTIj"
    },
    {
     "field_name" : "c_line",
     "field_offset" : 128,
     "referenced_type" : "_ZTIh"
    },
    {
     "field_name" : "c_cc",
     "field_offset" : 136,
     "referenced_type" : "_ZTIA19_h"
    }
   ],
   "linker_set_key" : "_ZTI7termios",
   "name" : "termios",
   "referenced_type" : "_ZTI7termios",
   "self_type" : "_ZTI7termios",
   "size" : 36,
   "source_file" : "bionic/libc/kernel/uapi/asm-generic/termbits.h"
  },
  {
   "alignment" : 4,
   "fields" :
   [
    {
     "field_name" : "tv_sec",
     "referenced_type" : "_ZTIl"
    },
    {
     "field_name" : "tv_usec",
     "field_offset" : 32,
     "referenced_type" : "_ZTIl"
    }
   ],
   "linker_set_key" : "_ZTI7timeval",
   "name" : "timeval",
   "referenced_type" : "_ZTI7timeval",
   "self_type" : "_ZTI7timeval",
   "size" : 8,
   "source_file" : "bionic/libc/kernel/uapi/linux/time.h"
  },
  {
   "alignment" : 2,
   "fields" :
   [
    {
     "field_name" : "ws_row",
     "referenced_type" : "_ZTIt"
    },
    {
     "field_name" : "ws_col",
     "field_offset" : 16,
     "referenced_type" : "_ZTIt"
    },
    {
     "field_name" : "ws_xpixel",
     "field_offset" : 32,
     "referenced_type" : "_ZTIt"
    },
    {
     "field_name" : "ws_ypixel",
     "field_offset" : 48,
     "referenced_type" : "_ZTIt"
    }
   ],
   "linker_set_key" : "_ZTI7winsize",
   "name" : "winsize",
   "referenced_type" : "_ZTI7winsize",
   "self_type" : "_ZTI7winsize",
   "size" : 8,
   "source_file" : "bionic/libc/kernel/uapi/asm-generic/termios.h"
  },
  {
   "alignment" : 4,
   "fields" :
   [
    {
     "field_name" : "c_iflag",
     "referenced_type" : "_ZTIj"
    },
    {
     "field_name" : "c_oflag",
     "field_offset" : 32,
     "referenced_type" : "_ZTIj"
    },
    {
     "field_name" : "c_cflag",
     "field_offset" : 64,
     "referenced_type" : "_ZTIj"
    },
    {
     "field_name" : "c_lflag",
     "field_offset" : 96,
     "referenced_type" : "_ZTIj"
    },
    {
     "field_name" : "c_line",
     "field_offset" : 128,
     "referenced_type" : "_ZTIh"
    },
    {
     "field_name" : "c_cc",
     "field_offset" : 136,
     "referenced_type" : "_ZTIA19_h"
    },
    {
     "field_name" : "c_ispeed",
     "field_offset" : 288,
     "referenced_type" : "_ZTIj"
    },
    {
     "field_name" : "c_ospeed",
     "field_offset" : 320,
     "referenced_type" : "_ZTIj"
    }
   ],
   "linker_set_key" : "_ZTI8ktermios",
   "name" : "ktermios",
   "referenced_type" : "_ZTI8ktermios",
   "self_type" : "_ZTI8ktermios",
   "size" : 44,
   "source_file" : "bionic/libc/kernel/uapi/asm-generic/termbits.h"
  },
  {
   "alignment" : 8,
   "fields" :
   [
    {
     "field_name" : "flags",
     "referenced_type" : "_ZTIy"
    },
    {
     "field_name" : "mode",
     "field_offset" : 64,
     "referenced_type" : "_ZTIy"
    },
    {
     "field_name" : "resolve",
     "field_offset" : 128,
     "referenced_type" : "_ZTIy"
    }
   ],
   "linker_set_key" : "_ZTI8open_how",
   "name" : "open_how",
   "referenced_type" : "_ZTI8open_how",
   "self_type" : "_ZTI8open_how",
   "size" : 24,
   "source_file" : "bionic/libc/kernel/uapi/linux/openat2.h"
  },
  {
   "alignment" : 8,
   "fields" :
   [
    {
     "field_name" : "rlim_cur",
     "referenced_type" : "_ZTIy"
    },
    {
     "field_name" : "rlim_max",
     "field_offset" : 64,
     "referenced_type" : "_ZTIy"
    }
   ],
   "linker_set_key" : "_ZTI8rlimit64",
   "name" : "rlimit64",
   "referenced_type" : "_ZTI8rlimit64",
   "self_type" : "_ZTI8rlimit64",
   "size" : 16,
   "source_file" : "bionic/libc/kernel/uapi/linux/resource.h"
  },
  {
   "alignment" : 4,
   "fields" :
   [
    {
     "field_name" : "sigev_value",
     "referenced_type" : "_ZTI6sigval"
    },
    {
     "field_name" : "sigev_signo",
     "field_offset" : 32,
     "referenced_type" : "_ZTIi"
    },
    {
     "field_name" : "sigev_notify",
     "field_offset" : 64,
     "referenced_type" : "_ZTIi"
    },
    {
     "field_name" : "_sigev_un",
     "field_offset" : 96,
     "referenced_type" : "_ZTIN8sigeventUt_E"
    }
   ],
   "linker_set_key" : "_ZTI8sigevent",
   "name" : "sigevent",
   "referenced_type" : "_ZTI8sigevent",
   "self_type" : "_ZTI8sigevent",
   "size" : 64,
   "source_file" : "bionic/libc/kernel/uapi/asm-generic/siginfo.h"
  },
  {
   "alignment" : 2,
   "fields" :
   [
    {
     "field_name" : "sa_family",
     "referenced_type" : "_ZTIt"
    },
    {
     "field_name" : "sa_data",
     "field_offset" : 16,
     "referenced_type" : "_ZTIA14_c"
    }
   ],
   "linker_set_key" : "_ZTI8sockaddr",
   "name" : "sockaddr",
   "referenced_type" : "_ZTI8sockaddr",
   "self_type" : "_ZTI8sockaddr",
   "size" : 16,
   "source_file" : "out/soong/.intermediates/bionic/libc/libc/android_vendor.32_arm_armv8-a_shared/gen/include/sys/socket.h"
  },
  {
   "alignment" : 4,
   "fields" :
   [
    {
     "field_name" : "c_iflag",
     "referenced_type" : "_ZTIj"
    },
    {
     "field_name" : "c_oflag",
     "field_offset" : 32,
     "referenced_type" : "_ZTIj"
    },
    {
     "field_name" : "c_cflag",
     "field_offset" : 64,
     "referenced_type" : "_ZTIj"
    },
    {
     "field_name" : "c_lflag",
     "field_offset" : 96,
     "referenced_type" : "_ZTIj"
    },
    {
     "field_name" : "c_line",
     "field_offset" : 128,
     "referenced_type" : "_ZTIh"
    },
    {
     "field_name" : "c_cc",
     "field_offset" : 136,
     "referenced_type" : "_ZTIA19_h"
    },
    {
     "field_name" : "c_ispeed",
     "field_offset" : 288,
     "referenced_type" : "_ZTIj"
    },
    {
     "field_name" : "c_ospeed",
     "field_offset" : 320,
     "referenced_type" : "_ZTIj"
    }
   ],
   "linker_set_key" : "_ZTI8termios2",
   "name" : "termios2",
   "referenced_type" : "_ZTI8termios2",
   "self_type" : "_ZTI8termios2",
   "size" : 44,
   "source_file" : "bionic/libc/kernel/uapi/asm-generic/termbits.h"
  },
  {
   "alignment" : 4,
   "fields" :
   [
    {
     "field_name" : "tv_sec",
     "referenced_type" : "_ZTIl"
    },
    {
     "field_name" : "tv_nsec",
     "field_offset" : 32,
     "referenced_type" : "_ZTIl"
    }
   ],
   "linker_set_key" : "_ZTI8timespec",
   "name" : "timespec",
   "referenced_type" : "_ZTI8timespec",
   "self_type" : "_ZTI8timespec",
   "size" : 8,
   "source_file" : "out/soong/.intermediates/bionic/libc/libc/android_vendor.32_arm_armv8-a_shared/gen/include/bits/timespec.h"
  },
  {
   "alignment" : 4,
   "fields" :
   [
    {
     "field_name" : "tz_minuteswest",
     "referenced_type" : "_ZTIi"
    },
    {
     "field_name" : "tz_dsttime",
     "field_offset" : 32,
     "referenced_type" : "_ZTIi"
    }
   ],
   "linker_set_key" : "_ZTI8timezone",
   "name" : "timezone",
   "referenced_type" : "_ZTI8timezone",
   "self_type" : "_ZTI8timezone",
   "size" : 8,
   "source_file" : "bionic/libc/kernel/uapi/linux/time.h"
  },
  {
   "alignment" : 8,
   "fields" :
   [
    {
     "field_name" : "uc_flags",
     "referenced_type" : "_ZTIm"
    },
    {
     "field_name" : "uc_link",
     "field_offset" : 32,
     "referenced_type" : "_ZTIP8ucontext"
    },
    {
     "field_name" : "uc_stack",
     "field_offset" : 64,
     "referenced_type" : "_ZTI11sigaltstack"
    },
    {
     "field_name" : "uc_mcontext",
     "field_offset" : 160,
     "referenced_type" : "_ZTI10sigcontext"
    },
    {
     "field_offset" : 832,
     "referenced_type" : "_ZTIN8ucontextUt_E"
    },
    {
     "field_name" : "__padding",
     "field_offset" : 896,
     "referenced_type" : "_ZTIA120_c"
    },
    {
     "field_name" : "uc_regspace",
     "field_offset" : 1856,
     "referenced_type" : "_ZTIA128_m"
    }
   ],
   "linker_set_key" : "_ZTI8ucontext",
   "name" : "ucontext",
   "referenced_type" : "_ZTI8ucontext",
   "self_type" : "_ZTI8ucontext",
   "size" : 744,
   "source_file" : "out/soong/.intermediates/bionic/libc/libc/android_vendor.32_arm_armv8-a_shared/gen/include/sys/ucontext.h"
  },
  {
   "alignment" : 8,
   "fields" :
   [
    {
     "field_name" : "fpregs",
     "referenced_type" : "_ZTIA32_y"
    },
    {
     "field_name" : "fpscr",
     "field_offset" : 2048,
     "referenced_type" : "_ZTIm"
    }
   ],
   "linker_set_key" : "_ZTI8user_vfp",
   "name" : "user_vfp",
   "referenced_type" : "_ZTI8user_vfp",
   "self_type" : "_ZTI8user_vfp",
   "size" : 264,
   "source_file" : "out/soong/.intermediates/bionic/libc/libc/android_vendor.32_arm_armv8-a_shared/gen/include/sys/user.h"
  },
  {
   "alignment" : 4,
   "fields" :
   [
    {
     "field_name" : "it_interval",
     "referenced_type" : "_ZTI7timeval"
    },
    {
     "field_name" : "it_value",
     "field_offset" : 64,
     "referenced_type" : "_ZTI7timeval"
    }
   ],
   "linker_set_key" : "_ZTI9itimerval",
   "name" : "itimerval",
   "referenced_type" : "_ZTI9itimerval",
   "self_type" : "_ZTI9itimerval",
   "size" : 16,
   "source_file" : "bionic/libc/kernel/uapi/linux/time.h"
  },
  {
   "alignment" : 4,
   "fields" :
   [
    {
     "field_name" : "lo_number",
     "referenced_type" : "_ZTIi"
    },
    {
     "field_name" : "lo_device",
     "field_offset" : 32,
     "referenced_type" : "_ZTIt"
    },
    {
     "field_name" : "lo_inode",
     "field_offset" : 64,
     "referenced_type" : "_ZTIm"
    },
    {
     "field_name" : "lo_rdevice",
     "field_offset" : 96,
     "referenced_type" : "_ZTIt"
    },
    {
     "field_name" : "lo_offset",
     "field_offset" : 128,
     "referenced_type" : "_ZTIi"
    },
    {
     "field_name" : "lo_encrypt_type",
     "field_offset" : 160,
     "referenced_type" : "_ZTIi"
    },
    {
     "field_name" : "lo_encrypt_key_size",
     "field_offset" : 192,
     "referenced_type" : "_ZTIi"
    },
    {
     "field_name" : "lo_flags",
     "field_offset" : 224,
     "referenced_type" : "_ZTIi"
    },
    {
     "field_name" : "lo_name",
     "field_offset" : 256,
     "referenced_type" : "_ZTIA64_c"
    },
    {
     "field_name" : "lo_encrypt_key",
     "field_offset" : 768,
     "referenced_type" : "_ZTIA32_h"
    },
    {
     "field_name" : "lo_init",
     "field_offset" : 1024,
     "referenced_type" : "_ZTIA2_m"
    },
    {
     "field_name" : "reserved",
     "field_offset" : 1088,
     "referenced_type" : "_ZTIA4_c"
    }
   ],
   "linker_set_key" : "_ZTI9loop_info",
   "name" : "loop_info",
   "referenced_type" : "_ZTI9loop_info",
   "self_type" : "_ZTI9loop_info",
   "size" : 140,
   "source_file" : "bionic/libc/kernel/uapi/linux/loop.h"
  },
  {
   "alignment" : 4,
   "fields" :
   [
    {
     "referenced_type" : "_ZTIN9sigactionUt_E"
    },
    {
     "field_name" : "sa_mask",
     "field_offset" : 32,
     "referenced_type" : "_ZTIm"
    },
    {
     "field_name" : "sa_flags",
     "field_offset" : 64,
     "referenced_type" : "_ZTIi"
    },
    {
     "field_name" : "sa_restorer",
     "field_offset" : 96,
     "referenced_type" : "_ZTIPFvvE"
    }
   ],
   "linker_set_key" : "_ZTI9sigaction",
   "name" : "sigaction",
   "referenced_type" : "_ZTI9sigaction",
   "self_type" : "_ZTI9sigaction",
   "size" : 16,
   "source_file" : "out/soong/.intermediates/bionic/libc/libc/android_vendor.32_arm_armv8-a_shared/gen/include/bits/signal_types.h"
  },
  {
   "alignment" : 4,
   "fields" :
   [
    {
     "field_name" : "uregs",
     "referenced_type" : "_ZTIA18_m"
    }
   ],
   "linker_set_key" : "_ZTI9user_regs",
   "name" : "user_regs",
   "referenced_type" : "_ZTI9user_regs",
   "self_type" : "_ZTI9user_regs",
   "size" : 72,
   "source_file" : "out/soong/.intermediates/bionic/libc/libc/android_vendor.32_arm_armv8-a_shared/gen/include/sys/user.h"
  },
  {
   "alignment" : 4,
   "fields" :
   [
    {
     "field_name" : "_pid",
     "referenced_type" : "_ZTIi"
    },
    {
     "field_name" : "_uid",
     "field_offset" : 32,
     "referenced_type" : "_ZTIj"
    }
   ],
   "is_anonymous" : true,
   "linker_set_key" : "_ZTIN10__sifieldsUt_E",
   "name" : "__sifields::(anonymous struct at bionic/libc/kernel/uapi/asm-generic/siginfo.h:38:3)",
   "referenced_type" : "_ZTIN10__sifieldsUt_E",
   "self_type" : "_ZTIN10__sifieldsUt_E",
   "size" : 8,
   "source_file" : "bionic/libc/kernel/uapi/asm-generic/siginfo.h"
  },
  {
   "alignment" : 4,
   "fields" :
   [
    {
     "field_name" : "_addr_lsb",
     "referenced_type" : "_ZTIs"
    },
    {
     "field_name" : "_addr_bnd",
     "referenced_type" : "_ZTIN10__sifieldsUt_Ut_Ut_E"
    },
    {
     "field_name" : "_addr_pkey",
     "referenced_type" : "_ZTIN10__sifieldsUt_Ut_Ut_E"
    }
   ],
   "is_anonymous" : true,
   "linker_set_key" : "_ZTIN10__sifieldsUt_Ut_E",
   "name" : "__sifields::(anonymous struct at bionic/libc/kernel/uapi/asm-generic/siginfo.h:60:3)::(anonymous union at bionic/libc/kernel/uapi/asm-generic/siginfo.h:71:5)",
   "record_kind" : "union",
   "referenced_type" : "_ZTIN10__sifieldsUt_Ut_E",
   "self_type" : "_ZTIN10__sifieldsUt_Ut_E",
   "size" : 12,
   "source_file" : "bionic/libc/kernel/uapi/asm-generic/siginfo.h"
  },
  {
   "alignment" : 4,
   "fields" :
   [
    {
     "field_name" : "_dummy_bnd",
     "referenced_type" : "_ZTIA4_c"
    },
    {
     "field_name" : "_lower",
     "field_offset" : 32,
     "referenced_type" : "_ZTIPv"
    },
    {
     "field_name" : "_upper",
     "field_offset" : 64,
     "referenced_type" : "_ZTIPv"
    }
   ],
   "is_anonymous" : true,
   "linker_set_key" : "_ZTIN10__sifieldsUt_Ut_Ut_E",
   "name" : "__sifields::(anonymous struct at bionic/libc/kernel/uapi/asm-generic/siginfo.h:60:3)::(anonymous union at bionic/libc/kernel/uapi/asm-generic/siginfo.h:71:5)::(anonymous struct at bionic/libc/kernel/uapi/asm-generic/siginfo.h:73:7)",
   "referenced_type" : "_ZTIN10__sifieldsUt_Ut_Ut_E",
   "self_type" : "_ZTIN10__sifieldsUt_Ut_Ut_E",
   "size" : 12,
   "source_file" : "bionic/libc/kernel/uapi/asm-generic/siginfo.h"
  },
  {
   "alignment" : 4,
   "fields" :
   [
    {
     "field_name" : "sa_handler",
     "referenced_type" : "_ZTIPFviE"
    },
    {
     "field_name" : "sa_sigaction",
     "referenced_type" : "_ZTIPFviP7siginfoPvE"
    }
   ],
   "is_anonymous" : true,
   "linker_set_key" : "_ZTIN11sigaction64Ut_E",
   "name" : "sigaction64::(anonymous union at out/soong/.intermediates/bionic/libc/libc/android_vendor.32_arm_armv8-a_shared/gen/include/bits/signal_types.h:100:3)",
   "record_kind" : "union",
   "referenced_type" : "_ZTIN11sigaction64Ut_E",
   "self_type" : "_ZTIN11sigaction64Ut_E",
   "size" : 4,
   "source_file" : "out/soong/.intermediates/bionic/libc/libc/android_vendor.32_arm_armv8-a_shared/gen/include/bits/signal_types.h"
  },
  {
   "alignment" : 4,
   "fields" :
   [
    {
     "field_name" : "version",
     "referenced_type" : "_ZTIj"
    },
    {
     "field_name" : "feature_bitmap",
     "referenced_type" : "_ZTIj"
    }
   ],
   "is_anonymous" : true,
   "linker_set_key" : "_ZTIN12audit_statusUt_E",
   "name" : "audit_status::(anonymous union at bionic/libc/kernel/uapi/linux/audit.h:341:3)",
   "record_kind" : "union",
   "referenced_type" : "_ZTIN12audit_statusUt_E",
   "self_type" : "_ZTIN12audit_statusUt_E",
   "size" : 4,
   "source_file" : "bionic/libc/kernel/uapi/linux/audit.h"
  },
  {
   "alignment" : 1,
   "fields" :
   [
    {
     "referenced_type" : "_ZTIN14floppy_raw_cmdUt_Ut_E"
    },
    {
     "field_name" : "fullcmd",
     "referenced_type" : "_ZTIA33_h"
    }
   ],
   "is_anonymous" : true,
   "linker_set_key" : "_ZTIN14floppy_raw_cmdUt_E",
   "name" : "floppy_raw_cmd::(anonymous union at bionic/libc/kernel/uapi/linux/fd.h:189:3)",
   "record_kind" : "union",
   "referenced_type" : "_ZTIN14floppy_raw_cmdUt_E",
   "self_type" : "_ZTIN14floppy_raw_cmdUt_E",
   "size" : 33,
   "source_file" : "bionic/libc/kernel/uapi/linux/fd.h"
  },
  {
   "alignment" : 1,
   "fields" :
   [
    {
     "field_name" : "cmd",
     "referenced_type" : "_ZTIA16_h"
    },
    {
     "field_name" : "reply_count",
     "field_offset" : 128,
     "referenced_type" : "_ZTIh"
    },
    {
     "field_name" : "reply",
     "field_offset" : 136,
     "referenced_type" : "_ZTIA16_h"
    }
   ],
   "is_anonymous" : true,
   "linker_set_key" : "_ZTIN14floppy_raw_cmdUt_Ut_E",
   "name" : "floppy_raw_cmd::(anonymous union at bionic/libc/kernel/uapi/linux/fd.h:189:3)::(anonymous struct at bionic/libc/kernel/uapi/linux/fd.h:190:5)",
   "referenced_type" : "_ZTIN14floppy_raw_cmdUt_Ut_E",
   "self_type" : "_ZTIN14floppy_raw_cmdUt_Ut_E",
   "size" : 33,
   "source_file" : "bionic/libc/kernel/uapi/linux/fd.h"
  },
  {
   "alignment" : 4,
   "fields" :
   [
    {
     "referenced_type" : "_ZTIN16sockaddr_storageUt_Ut_E"
    },
    {
     "field_name" : "__align",
     "referenced_type" : "_ZTIPv"
    }
   ],
   "is_anonymous" : true,
   "linker_set_key" : "_ZTIN16sockaddr_storageUt_E",
   "name" : "sockaddr_storage::(anonymous union at bionic/libc/kernel/uapi/linux/socket.h:24:3)",
   "record_kind" : "union",
   "referenced_type" : "_ZTIN16sockaddr_storageUt_E",
   "self_type" : "_ZTIN16sockaddr_storageUt_E",
   "size" : 128,
   "source_file" : "bionic/libc/kernel/uapi/linux/socket.h"
  },
  {
   "alignment" : 2,
   "fields" :
   [
    {
     "field_name" : "ss_family",
     "referenced_type" : "_ZTIt"
    },
    {
     "field_name" : "__data",
     "field_offset" : 16,
     "referenced_type" : "_ZTIA126_c"
    }
   ],
   "is_anonymous" : true,
   "linker_set_key" : "_ZTIN16sockaddr_storageUt_Ut_E",
   "name" : "sockaddr_storage::(anonymous union at bionic/libc/kernel/uapi/linux/socket.h:24:3)::(anonymous struct at bionic/libc/kernel/uapi/linux/socket.h:25:5)",
   "referenced_type" : "_ZTIN16sockaddr_storageUt_Ut_E",
   "self_type" : "_ZTIN16sockaddr_storageUt_Ut_E",
   "size" : 128,
   "source_file" : "bionic/libc/kernel/uapi/linux/socket.h"
  },
  {
   "alignment" : 4,
   "fields" :
   [
    {
     "field_name" : "_sa_handler",
     "referenced_type" : "_ZTIPFviE"
    },
    {
     "field_name" : "_sa_sigaction",
     "referenced_type" : "_ZTIPFviP7siginfoPvE"
    }
   ],
   "is_anonymous" : true,
   "linker_set_key" : "_ZTIN18__kernel_sigactionUt_E",
   "name" : "__kernel_sigaction::(anonymous union at bionic/libc/kernel/uapi/asm-arm/asm/signal.h:68:3)",
   "record_kind" : "union",
   "referenced_type" : "_ZTIN18__kernel_sigactionUt_E",
   "self_type" : "_ZTIN18__kernel_sigactionUt_E",
   "size" : 4,
   "source_file" : "bionic/libc/kernel/uapi/asm-arm/asm/signal.h"
  },
  {
   "alignment" : 1,
   "fields" :
   [
    {
     "field_name" : "__reserved",
     "referenced_type" : "_ZTIA32_h"
    },
    {
     "field_name" : "descriptor",
     "referenced_type" : "_ZTIA8_h"
    },
    {
     "field_name" : "identifier",
     "referenced_type" : "_ZTIA16_h"
    }
   ],
   "is_anonymous" : true,
   "linker_set_key" : "_ZTIN21fscrypt_key_specifierUt_E",
   "name" : "fscrypt_key_specifier::(anonymous union at bionic/libc/kernel/uapi/linux/fscrypt.h:76:3)",
   "record_kind" : "union",
   "referenced_type" : "_ZTIN21fscrypt_key_specifierUt_E",
   "self_type" : "_ZTIN21fscrypt_key_specifierUt_E",
   "size" : 32,
   "source_file" : "bionic/libc/kernel/uapi/linux/fscrypt.h"
  },
  {
   "alignment" : 1,
   "fields" :
   [
    {
     "field_name" : "version",
     "referenced_type" : "_ZTIh"
    },
    {
     "field_name" : "v1",
     "referenced_type" : "_ZTI17fscrypt_policy_v1"
    },
    {
     "field_name" : "v2",
     "referenced_type" : "_ZTI17fscrypt_policy_v2"
    }
   ],
   "is_anonymous" : true,
   "linker_set_key" : "_ZTIN25fscrypt_get_policy_ex_argUt_E",
   "name" : "fscrypt_get_policy_ex_arg::(anonymous union at bionic/libc/kernel/uapi/linux/fscrypt.h:65:3)",
   "record_kind" : "union",
   "referenced_type" : "_ZTIN25fscrypt_get_policy_ex_argUt_E",
   "self_type" : "_ZTIN25fscrypt_get_policy_ex_argUt_E",
   "size" : 24,
   "source_file" : "bionic/libc/kernel/uapi/linux/fscrypt.h"
  },
  {
   "alignment" : 4,
   "fields" :
   [
    {
     "referenced_type" : "_ZTIN7siginfoUt_Ut_E"
    },
    {
     "field_name" : "_si_pad",
     "referenced_type" : "_ZTIA32_i"
    }
   ],
   "is_anonymous" : true,
   "linker_set_key" : "_ZTIN7siginfoUt_E",
   "name" : "siginfo::(anonymous union at bionic/libc/kernel/uapi/asm-generic/siginfo.h:102:3)",
   "record_kind" : "union",
   "referenced_type" : "_ZTIN7siginfoUt_E",
   "self_type" : "_ZTIN7siginfoUt_E",
   "size" : 128,
   "source_file" : "bionic/libc/kernel/uapi/asm-generic/siginfo.h"
  },
  {
   "alignment" : 4,
   "fields" :
   [
    {
     "field_name" : "si_signo",
     "referenced_type" : "_ZTIi"
    },
    {
     "field_name" : "si_errno",
     "field_offset" : 32,
     "referenced_type" : "_ZTIi"
    },
    {
     "field_name" : "si_code",
     "field_offset" : 64,
     "referenced_type" : "_ZTIi"
    },
    {
     "field_name" : "_sifields",
     "field_offset" : 96,
     "referenced_type" : "_ZTI10__sifields"
    }
   ],
   "is_anonymous" : true,
   "linker_set_key" : "_ZTIN7siginfoUt_Ut_E",
   "name" : "siginfo::(anonymous union at bionic/libc/kernel/uapi/asm-generic/siginfo.h:102:3)::(anonymous struct at bionic/libc/kernel/uapi/asm-generic/siginfo.h:103:5)",
   "referenced_type" : "_ZTIN7siginfoUt_Ut_E",
   "self_type" : "_ZTIN7siginfoUt_Ut_E",
   "size" : 32,
   "source_file" : "bionic/libc/kernel/uapi/asm-generic/siginfo.h"
  },
  {
   "alignment" : 4,
   "fields" :
   [
    {
     "field_name" : "_pad",
     "referenced_type" : "_ZTIA13_i"
    },
    {
     "field_name" : "_tid",
     "referenced_type" : "_ZTIi"
    },
    {
     "field_name" : "_sigev_thread",
     "referenced_type" : "_ZTIN8sigeventUt_Ut_E"
    }
   ],
   "is_anonymous" : true,
   "linker_set_key" : "_ZTIN8sigeventUt_E",
   "name" : "sigevent::(anonymous union at bionic/libc/kernel/uapi/asm-generic/siginfo.h:229:3)",
   "record_kind" : "union",
   "referenced_type" : "_ZTIN8sigeventUt_E",
   "self_type" : "_ZTIN8sigeventUt_E",
   "size" : 52,
   "source_file" : "bionic/libc/kernel/uapi/asm-generic/siginfo.h"
  },
  {
   "alignment" : 4,
   "fields" :
   [
    {
     "field_name" : "_function",
     "referenced_type" : "_ZTIPFv6sigvalE"
    },
    {
     "field_name" : "_attribute",
     "field_offset" : 32,
     "referenced_type" : "_ZTIPv"
    }
   ],
   "is_anonymous" : true,
   "linker_set_key" : "_ZTIN8sigeventUt_Ut_E",
   "name" : "sigevent::(anonymous union at bionic/libc/kernel/uapi/asm-generic/siginfo.h:229:3)::(anonymous struct at bionic/libc/kernel/uapi/asm-generic/siginfo.h:232:5)",
   "referenced_type" : "_ZTIN8sigeventUt_Ut_E",
   "self_type" : "_ZTIN8sigeventUt_Ut_E",
   "size" : 8,
   "source_file" : "bionic/libc/kernel/uapi/asm-generic/siginfo.h"
  },
  {
   "alignment" : 4,
   "fields" :
   [
    {
     "referenced_type" : "_ZTIN8ucontextUt_Ut_E"
    },
    {
     "field_name" : "uc_sigmask64",
     "referenced_type" : "_ZTI10sigset64_t"
    }
   ],
   "is_anonymous" : true,
   "linker_set_key" : "_ZTIN8ucontextUt_E",
   "name" : "ucontext::(anonymous union at out/soong/.intermediates/bionic/libc/libc/android_vendor.32_arm_armv8-a_shared/gen/include/sys/ucontext.h:90:3)",
   "record_kind" : "union",
   "referenced_type" : "_ZTIN8ucontextUt_E",
   "self_type" : "_ZTIN8ucontextUt_E",
   "size" : 8,
   "source_file" : "out/soong/.intermediates/bionic/libc/libc/android_vendor.32_arm_armv8-a_shared/gen/include/sys/ucontext.h"
  },
  {
   "alignment" : 4,
   "fields" :
   [
    {
     "field_name" : "uc_sigmask",
     "referenced_type" : "_ZTIm"
    },
    {
     "field_name" : "__padding_rt_sigset",
     "field_offset" : 32,
     "referenced_type" : "_ZTIj"
    }
   ],
   "is_anonymous" : true,
   "linker_set_key" : "_ZTIN8ucontextUt_Ut_E",
   "name" : "ucontext::(anonymous union at out/soong/.intermediates/bionic/libc/libc/android_vendor.32_arm_armv8-a_shared/gen/include/sys/ucontext.h:90:3)::(anonymous struct at out/soong/.intermediates/bionic/libc/libc/android_vendor.32_arm_armv8-a_shared/gen/include/sys/ucontext.h:91:5)",
   "referenced_type" : "_ZTIN8ucontextUt_Ut_E",
   "self_type" : "_ZTIN8ucontextUt_Ut_E",
   "size" : 8,
   "source_file" : "out/soong/.intermediates/bionic/libc/libc/android_vendor.32_arm_armv8-a_shared/gen/include/sys/ucontext.h"
  },
  {
   "alignment" : 4,
   "fields" :
   [
    {
     "field_name" : "sa_handler",
     "referenced_type" : "_ZTIPFviE"
    },
    {
     "field_name" : "sa_sigaction",
     "referenced_type" : "_ZTIPFviP7siginfoPvE"
    }
   ],
   "is_anonymous" : true,
   "linker_set_key" : "_ZTIN9sigactionUt_E",
   "name" : "sigaction::(anonymous union at out/soong/.intermediates/bionic/libc/libc/android_vendor.32_arm_armv8-a_shared/gen/include/bits/signal_types.h:89:3)",
   "record_kind" : "union",
   "referenced_type" : "_ZTIN9sigactionUt_E",
   "self_type" : "_ZTIN9sigactionUt_E",
   "size" : 4,
   "source_file" : "out/soong/.intermediates/bionic/libc/libc/android_vendor.32_arm_armv8-a_shared/gen/include/bits/signal_types.h"
  }
 ],
 "rvalue_reference_types" : []
}
