{
 "array_types" :
 [
  {
   "alignment" : 4,
   "linker_set_key" : "_ZTIA10_i",
   "name" : "int [10]",
   "referenced_type" : "_ZTIi",
   "self_type" : "_ZTIA10_i",
   "size" : 40,
   "source_file" : "out/soong/.intermediates/bionic/libc/libc/android_vendor.32_arm64_armv8-a_shared/gen/include/bits/pthread_types.h"
  },
  {
   "alignment" : 2,
   "linker_set_key" : "_ZTIA11_Ds",
   "name" : "char16_t [11]",
   "referenced_type" : "_ZTIDs",
   "self_type" : "_ZTIA11_Ds",
   "size" : 22,
   "source_file" : "external/libcxx/include/string"
  },
  {
   "alignment" : 1,
   "linker_set_key" : "_ZTIA120_c",
   "name" : "char [120]",
   "referenced_type" : "_ZTIc",
   "self_type" : "_ZTIA120_c",
   "size" : 120,
   "source_file" : "out/soong/.intermediates/bionic/libc/libc/android_vendor.32_arm64_armv8-a_shared/gen/include/sys/ucontext.h"
  },
  {
   "alignment" : 4,
   "linker_set_key" : "_ZTIA12_i",
   "name" : "int [12]",
   "referenced_type" : "_ZTIi",
   "self_type" : "_ZTIA12_i",
   "size" : 48,
   "source_file" : "out/soong/.intermediates/bionic/libc/libc/android_vendor.32_arm64_armv8-a_shared/gen/include/bits/pthread_types.h"
  },
  {
   "alignment" : 4,
   "linker_set_key" : "_ZTIA14_i",
   "name" : "int [14]",
   "referenced_type" : "_ZTIi",
   "self_type" : "_ZTIA14_i",
   "size" : 56,
   "source_file" : "out/soong/.intermediates/bionic/libc/libc/android_vendor.32_arm64_armv8-a_shared/gen/include/bits/pthread_types.h"
  },
  {
   "alignment" : 1,
   "linker_set_key" : "_ZTIA16_c",
   "name" : "char [16]",
   "referenced_type" : "_ZTIc",
   "self_type" : "_ZTIA16_c",
   "size" : 16,
   "source_file" : "out/soong/.intermediates/bionic/libc/libc/android_vendor.32_arm64_armv8-a_shared/gen/include/bits/pthread_types.h"
  },
  {
   "alignment" : 8,
   "linker_set_key" : "_ZTIA16_m",
   "name" : "unsigned long [16]",
   "referenced_type" : "_ZTIm",
   "self_type" : "_ZTIA16_m",
   "size" : 128,
   "source_file" : "bionic/libc/kernel/uapi/linux/posix_types.h"
  },
  {
   "alignment" : 8,
   "linker_set_key" : "_ZTIA1_m",
   "name" : "unsigned long [1]",
   "referenced_type" : "_ZTIm",
   "self_type" : "_ZTIA1_m",
   "size" : 8,
   "source_file" : "bionic/libc/kernel/uapi/asm-generic/signal.h"
  },
  {
   "alignment" : 1,
   "linker_set_key" : "_ZTIA23_c",
   "name" : "char [23]",
   "referenced_type" : "_ZTIc",
   "self_type" : "_ZTIA23_c",
   "size" : 23,
   "source_file" : "external/libcxx/include/string"
  },
  {
   "alignment" : 1,
   "linker_set_key" : "_ZTIA2_c",
   "name" : "char [2]",
   "referenced_type" : "_ZTIc",
   "self_type" : "_ZTIA2_c",
   "size" : 2,
   "source_file" : "external/libcxx/include/type_traits"
  },
  {
   "alignment" : 4,
   "linker_set_key" : "_ZTIA2_i",
   "name" : "int [2]",
   "referenced_type" : "_ZTIi",
   "self_type" : "_ZTIA2_i",
   "size" : 8,
   "source_file" : "bionic/libc/kernel/uapi/asm-generic/posix_types.h"
  },
  {
   "alignment" : 8,
   "linker_set_key" : "_ZTIA31_m",
   "name" : "unsigned long [31]",
   "referenced_type" : "_ZTIm",
   "self_type" : "_ZTIA31_m",
   "size" : 248,
   "source_file" : "out/soong/.intermediates/bionic/libc/libc/android_vendor.32_arm64_armv8-a_shared/gen/include/sys/user.h"
  },
  {
   "alignment" : 8,
   "linker_set_key" : "_ZTIA31_y",
   "name" : "unsigned long long [31]",
   "referenced_type" : "_ZTIy",
   "self_type" : "_ZTIA31_y",
   "size" : 248,
   "source_file" : "bionic/libc/kernel/uapi/asm-arm64/asm/sigcontext.h"
  },
  {
   "alignment" : 1,
   "linker_set_key" : "_ZTIA32_h",
   "name" : "unsigned char [32]",
   "referenced_type" : "_ZTIh",
   "self_type" : "_ZTIA32_h",
   "size" : 32,
   "source_file" : "external/libcxx/include/type_traits"
  },
  {
   "alignment" : 4,
   "linker_set_key" : "_ZTIA32_i",
   "name" : "int [32]",
   "referenced_type" : "_ZTIi",
   "self_type" : "_ZTIA32_i",
   "size" : 128,
   "source_file" : "bionic/libc/kernel/uapi/asm-generic/siginfo.h"
  },
  {
   "alignment" : 16,
   "linker_set_key" : "_ZTIA32_o",
   "name" : "unsigned __int128 [32]",
   "referenced_type" : "_ZTIo",
   "self_type" : "_ZTIA32_o",
   "size" : 512,
   "source_file" : "bionic/libc/kernel/uapi/asm-arm64/asm/sigcontext.h"
  },
  {
   "alignment" : 4,
   "linker_set_key" : "_ZTIA3_j",
   "name" : "unsigned int [3]",
   "referenced_type" : "_ZTIj",
   "self_type" : "_ZTIA3_j",
   "size" : 12,
   "source_file" : "bionic/libc/kernel/uapi/asm-arm64/asm/sigcontext.h"
  },
  {
   "alignment" : 8,
   "linker_set_key" : "_ZTIA3_m",
   "name" : "unsigned long [3]",
   "referenced_type" : "_ZTIm",
   "self_type" : "_ZTIA3_m",
   "size" : 24,
   "source_file" : "external/libcxx/include/string"
  },
  {
   "alignment" : 2,
   "linker_set_key" : "_ZTIA3_t",
   "name" : "unsigned short [3]",
   "referenced_type" : "_ZTIt",
   "self_type" : "_ZTIA3_t",
   "size" : 6,
   "source_file" : "bionic/libc/kernel/uapi/asm-arm64/asm/sigcontext.h"
  },
  {
   "alignment" : 1,
   "linker_set_key" : "_ZTIA4096_h",
   "name" : "unsigned char [4096]",
   "referenced_type" : "_ZTIh",
   "self_type" : "_ZTIA4096_h",
   "size" : 4096,
   "source_file" : "bionic/libc/kernel/uapi/asm-arm64/asm/sigcontext.h"
  },
  {
   "alignment" : 8,
   "linker_set_key" : "_ZTIA4_d",
   "name" : "double [4]",
   "referenced_type" : "_ZTId",
   "self_type" : "_ZTIA4_d",
   "size" : 32,
   "source_file" : "external/libcxx/include/type_traits"
  },
  {
   "alignment" : 1,
   "linker_set_key" : "_ZTIA4_h",
   "name" : "unsigned char [4]",
   "referenced_type" : "_ZTIh",
   "self_type" : "_ZTIA4_h",
   "size" : 4,
   "source_file" : "out/soong/.intermediates/bionic/libc/libc/android_vendor.32_arm64_armv8-a_shared/gen/include/bits/mbstate_t.h"
  },
  {
   "alignment" : 8,
   "linker_set_key" : "_ZTIA4_l",
   "name" : "long [4]",
   "referenced_type" : "_ZTIl",
   "self_type" : "_ZTIA4_l",
   "size" : 32,
   "source_file" : "out/soong/.intermediates/bionic/libc/libc/android_vendor.32_arm64_armv8-a_shared/gen/include/bits/pthread_types.h"
  },
  {
   "alignment" : 4,
   "linker_set_key" : "_ZTIA5_Di",
   "name" : "char32_t [5]",
   "referenced_type" : "_ZTIDi",
   "self_type" : "_ZTIA5_Di",
   "size" : 20,
   "source_file" : "external/libcxx/include/string"
  },
  {
   "alignment" : 4,
   "linker_set_key" : "_ZTIA5_w",
   "name" : "wchar_t [5]",
   "referenced_type" : "_ZTIw",
   "self_type" : "_ZTIA5_w",
   "size" : 20,
   "source_file" : "external/libcxx/include/string"
  },
  {
   "alignment" : 8,
   "linker_set_key" : "_ZTIA65_PKc",
   "name" : "const char *[65]",
   "referenced_type" : "_ZTIPKc",
   "self_type" : "_ZTIA65_PKc",
   "size" : 520,
   "source_file" : "out/soong/.intermediates/bionic/libc/libc/android_vendor.32_arm64_armv8-a_shared/gen/include/signal.h"
  },
  {
   "alignment" : 1,
   "linker_set_key" : "_ZTIA8_c",
   "name" : "char [8]",
   "referenced_type" : "_ZTIc",
   "self_type" : "_ZTIA8_c",
   "size" : 8,
   "source_file" : "bionic/libc/kernel/uapi/asm-generic/siginfo.h"
  },
  {
   "linker_set_key" : "_ZTIA_Pc",
   "name" : "char *[]",
   "referenced_type" : "_ZTIPc",
   "self_type" : "_ZTIA_Pc",
   "source_file" : "out/soong/.intermediates/bionic/libc/libc/android_vendor.32_arm64_armv8-a_shared/gen/include/time.h"
  }
 ],
 "builtin_types" :
 [
  {
   "alignment" : 4,
   "is_integral" : true,
   "is_unsigned" : true,
   "linker_set_key" : "_ZTIDi",
   "name" : "char32_t",
   "referenced_type" : "_ZTIDi",
   "self_type" : "_ZTIDi",
   "size" : 4
  },
  {
   "alignment" : 8,
   "linker_set_key" : "_ZTIDn",
   "name" : "nullptr_t",
   "referenced_type" : "_ZTIDn",
   "self_type" : "_ZTIDn",
   "size" : 8
  },
  {
   "alignment" : 2,
   "is_integral" : true,
   "is_unsigned" : true,
   "linker_set_key" : "_ZTIDs",
   "name" : "char16_t",
   "referenced_type" : "_ZTIDs",
   "self_type" : "_ZTIDs",
   "size" : 2
  },
  {
   "alignment" : 1,
   "is_integral" : true,
   "linker_set_key" : "_ZTIa",
   "name" : "signed char",
   "referenced_type" : "_ZTIa",
   "self_type" : "_ZTIa",
   "size" : 1
  },
  {
   "alignment" : 1,
   "is_integral" : true,
   "is_unsigned" : true,
   "linker_set_key" : "_ZTIb",
   "name" : "bool",
   "referenced_type" : "_ZTIb",
   "self_type" : "_ZTIb",
   "size" : 1
  },
  {
   "alignment" : 1,
   "is_integral" : true,
   "is_unsigned" : true,
   "linker_set_key" : "_ZTIc",
   "name" : "char",
   "referenced_type" : "_ZTIc",
   "self_type" : "_ZTIc",
   "size" : 1
  },
  {
   "alignment" : 8,
   "linker_set_key" : "_ZTId",
   "name" : "double",
   "referenced_type" : "_ZTId",
   "self_type" : "_ZTId",
   "size" : 8
  },
  {
   "alignment" : 16,
   "linker_set_key" : "_ZTIe",
   "name" : "long double",
   "referenced_type" : "_ZTIe",
   "self_type" : "_ZTIe",
   "size" : 16
  },
  {
   "alignment" : 4,
   "linker_set_key" : "_ZTIf",
   "name" : "float",
   "referenced_type" : "_ZTIf",
   "self_type" : "_ZTIf",
   "size" : 4
  },
  {
   "alignment" : 1,
   "is_integral" : true,
   "is_unsigned" : true,
   "linker_set_key" : "_ZTIh",
   "name" : "unsigned char",
   "referenced_type" : "_ZTIh",
   "self_type" : "_ZTIh",
   "size" : 1
  },
  {
   "alignment" : 4,
   "is_integral" : true,
   "linker_set_key" : "_ZTIi",
   "name" : "int",
   "referenced_type" : "_ZTIi",
   "self_type" : "_ZTIi",
   "size" : 4
  },
  {
   "alignment" : 4,
   "is_integral" : true,
   "is_unsigned" : true,
   "linker_set_key" : "_ZTIj",
   "name" : "unsigned int",
   "referenced_type" : "_ZTIj",
   "self_type" : "_ZTIj",
   "size" : 4
  },
  {
   "alignment" : 8,
   "is_integral" : true,
   "linker_set_key" : "_ZTIl",
   "name" : "long",
   "referenced_type" : "_ZTIl",
   "self_type" : "_ZTIl",
   "size" : 8
  },
  {
   "alignment" : 8,
   "is_integral" : true,
   "is_unsigned" : true,
   "linker_set_key" : "_ZTIm",
   "name" : "unsigned long",
   "referenced_type" : "_ZTIm",
   "self_type" : "_ZTIm",
   "size" : 8
  },
  {
   "alignment" : 16,
   "is_integral" : true,
   "linker_set_key" : "_ZTIn",
   "name" : "__int128",
   "referenced_type" : "_ZTIn",
   "self_type" : "_ZTIn",
   "size" : 16
  },
  {
   "alignment" : 16,
   "is_integral" : true,
   "is_unsigned" : true,
   "linker_set_key" : "_ZTIo",
   "name" : "unsigned __int128",
   "referenced_type" : "_ZTIo",
   "self_type" : "_ZTIo",
   "size" : 16
  },
  {
   "alignment" : 2,
   "is_integral" : true,
   "linker_set_key" : "_ZTIs",
   "name" : "short",
   "referenced_type" : "_ZTIs",
   "self_type" : "_ZTIs",
   "size" : 2
  },
  {
   "alignment" : 2,
   "is_integral" : true,
   "is_unsigned" : true,
   "linker_set_key" : "_ZTIt",
   "name" : "unsigned short",
   "referenced_type" : "_ZTIt",
   "self_type" : "_ZTIt",
   "size" : 2
  },
  {
   "linker_set_key" : "_ZTIv",
   "name" : "void",
   "referenced_type" : "_ZTIv",
   "self_type" : "_ZTIv"
  },
  {
   "alignment" : 4,
   "is_integral" : true,
   "is_unsigned" : true,
   "linker_set_key" : "_ZTIw",
   "name" : "wchar_t",
   "referenced_type" : "_ZTIw",
   "self_type" : "_ZTIw",
   "size" : 4
  },
  {
   "alignment" : 8,
   "is_integral" : true,
   "linker_set_key" : "_ZTIx",
   "name" : "long long",
   "referenced_type" : "_ZTIx",
   "self_type" : "_ZTIx",
   "size" : 8
  },
  {
   "alignment" : 8,
   "is_integral" : true,
   "is_unsigned" : true,
   "linker_set_key" : "_ZTIy",
   "name" : "unsigned long long",
   "referenced_type" : "_ZTIy",
   "self_type" : "_ZTIy",
   "size" : 8
  }
 ],
 "elf_functions" : [],
 "elf_objects" : [],
 "enum_types" :
 [
  {
   "alignment" : 4,
   "enum_fields" :
   [
    {
     "enum_field_value" : 0,
     "name" : "M_HEAP_TAGGING_LEVEL_NONE"
    },
    {
     "enum_field_value" : 1,
     "name" : "M_HEAP_TAGGING_LEVEL_TBI"
    },
    {
     "enum_field_value" : 2,
     "name" : "M_HEAP_TAGGING_LEVEL_ASYNC"
    },
    {
     "enum_field_value" : 3,
     "name" : "M_HEAP_TAGGING_LEVEL_SYNC"
    }
   ],
   "linker_set_key" : "_ZTI16HeapTaggingLevel",
   "name" : "HeapTaggingLevel",
   "referenced_type" : "_ZTI16HeapTaggingLevel",
   "self_type" : "_ZTI16HeapTaggingLevel",
   "size" : 4,
   "source_file" : "out/soong/.intermediates/bionic/libc/libc/android_vendor.32_arm64_armv8-a_shared/gen/include/malloc.h",
   "underlying_type" : "_ZTIj"
  },
  {
   "alignment" : 4,
   "enum_fields" :
   [
    {
     "enum_field_value" : 0,
     "name" : "PTHREAD_MUTEX_NORMAL"
    },
    {
     "enum_field_value" : 1,
     "name" : "PTHREAD_MUTEX_RECURSIVE"
    },
    {
     "enum_field_value" : 2,
     "name" : "PTHREAD_MUTEX_ERRORCHECK"
    },
    {
     "enum_field_value" : 2,
     "name" : "PTHREAD_MUTEX_ERRORCHECK_NP"
    },
    {
     "enum_field_value" : 1,
     "name" : "PTHREAD_MUTEX_RECURSIVE_NP"
    },
    {
     "enum_field_value" : 0,
     "name" : "PTHREAD_MUTEX_DEFAULT"
    }
   ],
   "linker_set_key" : "_ZTI22$PTHREAD_MUTEX_DEFAULT",
   "name" : "(anonymous enum at out/soong/.intermediates/bionic/libc/libc/android_vendor.32_arm64_armv8-a_shared/gen/include/pthread.h:41:1)",
   "referenced_type" : "_ZTI22$PTHREAD_MUTEX_DEFAULT",
   "self_type" : "_ZTI22$PTHREAD_MUTEX_DEFAULT",
   "size" : 4,
   "source_file" : "out/soong/.intermediates/bionic/libc/libc/android_vendor.32_arm64_armv8-a_shared/gen/include/pthread.h",
   "underlying_type" : "_ZTIj"
  },
  {
   "alignment" : 4,
   "enum_fields" :
   [
    {
     "enum_field_value" : 0,
     "name" : "PTHREAD_RWLOCK_PREFER_READER_NP"
    },
    {
     "enum_field_value" : 1,
     "name" : "PTHREAD_RWLOCK_PREFER_WRITER_NONRECURSIVE_NP"
    }
   ],
   "linker_set_key" : "_ZTI32$PTHREAD_RWLOCK_PREFER_READER_NP",
   "name" : "(anonymous enum at out/soong/.intermediates/bionic/libc/libc/android_vendor.32_arm64_armv8-a_shared/gen/include/pthread.h:63:1)",
   "referenced_type" : "_ZTI32$PTHREAD_RWLOCK_PREFER_READER_NP",
   "self_type" : "_ZTI32$PTHREAD_RWLOCK_PREFER_READER_NP",
   "size" : 4,
   "source_file" : "out/soong/.intermediates/bionic/libc/libc/android_vendor.32_arm64_armv8-a_shared/gen/include/pthread.h",
   "underlying_type" : "_ZTIj"
  },
  {
   "alignment" : 4,
   "enum_fields" :
   [
    {
     "enum_field_value" : 0,
     "name" : "piex::binary_parse::RANGE_CHECKED_BYTE_SUCCESS"
    },
    {
     "enum_field_value" : 1,
     "name" : "piex::binary_parse::RANGE_CHECKED_BYTE_ERROR"
    },
    {
     "enum_field_value" : 2,
     "name" : "piex::binary_parse::RANGE_CHECKED_BYTE_ERROR_OVERFLOW"
    },
    {
     "enum_field_value" : 3,
     "name" : "piex::binary_parse::RANGE_CHECKED_BYTE_ERROR_UNDERFLOW"
    }
   ],
   "linker_set_key" : "_ZTIN4piex12binary_parse12MemoryStatusE",
   "name" : "piex::binary_parse::MemoryStatus",
   "referenced_type" : "_ZTIN4piex12binary_parse12MemoryStatusE",
   "self_type" : "_ZTIN4piex12binary_parse12MemoryStatusE",
   "size" : 4,
   "source_file" : "external/piex/src/binary_parse/range_checked_byte_ptr.h",
   "underlying_type" : "_ZTIj"
  },
  {
   "access" : "private",
   "alignment" : 4,
   "enum_fields" :
   [
    {
     "enum_field_value" : 5,
     "name" : "std::__1::basic_string<char32_t, std::__1::char_traits<char32_t>, std::__1::allocator<char32_t>>::__min_cap"
    }
   ],
   "linker_set_key" : "_ZTINSt3__112basic_stringIDiNS_11char_traitsIDiEENS_9allocatorIDiEEE10$__min_capE",
   "name" : "std::basic_string<char32_t, char_traits<char32_t>, allocator<char32_t>>::(anonymous enum at external/libcxx/include/string:751:5)",
   "referenced_type" : "_ZTINSt3__112basic_stringIDiNS_11char_traitsIDiEENS_9allocatorIDiEEE10$__min_capE",
   "self_type" : "_ZTINSt3__112basic_stringIDiNS_11char_traitsIDiEENS_9allocatorIDiEEE10$__min_capE",
   "size" : 4,
   "source_file" : "external/libcxx/include/string",
   "underlying_type" : "_ZTIj"
  },
  {
   "access" : "private",
   "alignment" : 4,
   "enum_fields" :
   [
    {
     "enum_field_value" : 3,
     "name" : "std::__1::basic_string<char32_t, std::__1::char_traits<char32_t>, std::__1::allocator<char32_t>>::__n_words"
    }
   ],
   "linker_set_key" : "_ZTINSt3__112basic_stringIDiNS_11char_traitsIDiEENS_9allocatorIDiEEE10$__n_wordsE",
   "name" : "std::basic_string<char32_t, char_traits<char32_t>, allocator<char32_t>>::(anonymous enum at external/libcxx/include/string:768:5)",
   "referenced_type" : "_ZTINSt3__112basic_stringIDiNS_11char_traitsIDiEENS_9allocatorIDiEEE10$__n_wordsE",
   "self_type" : "_ZTINSt3__112basic_stringIDiNS_11char_traitsIDiEENS_9allocatorIDiEEE10$__n_wordsE",
   "size" : 4,
   "source_file" : "external/libcxx/include/string",
   "underlying_type" : "_ZTIj"
  },
  {
   "access" : "private",
   "alignment" : 4,
   "enum_fields" :
   [
    {
     "enum_field_value" : 16,
     "name" : "std::__1::basic_string<char32_t, std::__1::char_traits<char32_t>, std::__1::allocator<char32_t>>::__alignment"
    }
   ],
   "linker_set_key" : "_ZTINSt3__112basic_stringIDiNS_11char_traitsIDiEENS_9allocatorIDiEEE12$__alignmentE",
   "name" : "std::basic_string<char32_t, char_traits<char32_t>, allocator<char32_t>>::(anonymous enum at external/libcxx/include/string:1535:5)",
   "referenced_type" : "_ZTINSt3__112basic_stringIDiNS_11char_traitsIDiEENS_9allocatorIDiEEE12$__alignmentE",
   "self_type" : "_ZTINSt3__112basic_stringIDiNS_11char_traitsIDiEENS_9allocatorIDiEEE12$__alignmentE",
   "size" : 4,
   "source_file" : "external/libcxx/include/string",
   "underlying_type" : "_ZTIj"
  },
  {
   "access" : "private",
   "alignment" : 4,
   "enum_fields" :
   [
    {
     "enum_field_value" : 11,
     "name" : "std::__1::basic_string<char16_t, std::__1::char_traits<char16_t>, std::__1::allocator<char16_t>>::__min_cap"
    }
   ],
   "linker_set_key" : "_ZTINSt3__112basic_stringIDsNS_11char_traitsIDsEENS_9allocatorIDsEEE10$__min_capE",
   "name" : "std::basic_string<char16_t, char_traits<char16_t>, allocator<char16_t>>::(anonymous enum at external/libcxx/include/string:751:5)",
   "referenced_type" : "_ZTINSt3__112basic_stringIDsNS_11char_traitsIDsEENS_9allocatorIDsEEE10$__min_capE",
   "self_type" : "_ZTINSt3__112basic_stringIDsNS_11char_traitsIDsEENS_9allocatorIDsEEE10$__min_capE",
   "size" : 4,
   "source_file" : "external/libcxx/include/string",
   "underlying_type" : "_ZTIj"
  },
  {
   "access" : "private",
   "alignment" : 4,
   "enum_fields" :
   [
    {
     "enum_field_value" : 3,
     "name" : "std::__1::basic_string<char16_t, std::__1::char_traits<char16_t>, std::__1::allocator<char16_t>>::__n_words"
    }
   ],
   "linker_set_key" : "_ZTINSt3__112basic_stringIDsNS_11char_traitsIDsEENS_9allocatorIDsEEE10$__n_wordsE",
   "name" : "std::basic_string<char16_t, char_traits<char16_t>, allocator<char16_t>>::(anonymous enum at external/libcxx/include/string:768:5)",
   "referenced_type" : "_ZTINSt3__112basic_stringIDsNS_11char_traitsIDsEENS_9allocatorIDsEEE10$__n_wordsE",
   "self_type" : "_ZTINSt3__112basic_stringIDsNS_11char_traitsIDsEENS_9allocatorIDsEEE10$__n_wordsE",
   "size" : 4,
   "source_file" : "external/libcxx/include/string",
   "underlying_type" : "_ZTIj"
  },
  {
   "access" : "private",
   "alignment" : 4,
   "enum_fields" :
   [
    {
     "enum_field_value" : 16,
     "name" : "std::__1::basic_string<char16_t, std::__1::char_traits<char16_t>, std::__1::allocator<char16_t>>::__alignment"
    }
   ],
   "linker_set_key" : "_ZTINSt3__112basic_stringIDsNS_11char_traitsIDsEENS_9allocatorIDsEEE12$__alignmentE",
   "name" : "std::basic_string<char16_t, char_traits<char16_t>, allocator<char16_t>>::(anonymous enum at external/libcxx/include/string:1535:5)",
   "referenced_type" : "_ZTINSt3__112basic_stringIDsNS_11char_traitsIDsEENS_9allocatorIDsEEE12$__alignmentE",
   "self_type" : "_ZTINSt3__112basic_stringIDsNS_11char_traitsIDsEENS_9allocatorIDsEEE12$__alignmentE",
   "size" : 4,
   "source_file" : "external/libcxx/include/string",
   "underlying_type" : "_ZTIj"
  },
  {
   "access" : "private",
   "alignment" : 4,
   "enum_fields" :
   [
    {
     "enum_field_value" : 23,
     "name" : "std::__1::basic_string<char, std::__1::char_traits<char>, std::__1::allocator<char>>::__min_cap"
    }
   ],
   "linker_set_key" : "_ZTINSt3__112basic_stringIcNS_11char_traitsIcEENS_9allocatorIcEEE10$__min_capE",
   "name" : "std::basic_string<char>::(anonymous enum at external/libcxx/include/string:751:5)",
   "referenced_type" : "_ZTINSt3__112basic_stringIcNS_11char_traitsIcEENS_9allocatorIcEEE10$__min_capE",
   "self_type" : "_ZTINSt3__112basic_stringIcNS_11char_traitsIcEENS_9allocatorIcEEE10$__min_capE",
   "size" : 4,
   "source_file" : "external/libcxx/include/string",
   "underlying_type" : "_ZTIj"
  },
  {
   "access" : "private",
   "alignment" : 4,
   "enum_fields" :
   [
    {
     "enum_field_value" : 3,
     "name" : "std::__1::basic_string<char, std::__1::char_traits<char>, std::__1::allocator<char>>::__n_words"
    }
   ],
   "linker_set_key" : "_ZTINSt3__112basic_stringIcNS_11char_traitsIcEENS_9allocatorIcEEE10$__n_wordsE",
   "name" : "std::basic_string<char>::(anonymous enum at external/libcxx/include/string:768:5)",
   "referenced_type" : "_ZTINSt3__112basic_stringIcNS_11char_traitsIcEENS_9allocatorIcEEE10$__n_wordsE",
   "self_type" : "_ZTINSt3__112basic_stringIcNS_11char_traitsIcEENS_9allocatorIcEEE10$__n_wordsE",
   "size" : 4,
   "source_file" : "external/libcxx/include/string",
   "underlying_type" : "_ZTIj"
  },
  {
   "access" : "private",
   "alignment" : 4,
   "enum_fields" :
   [
    {
     "enum_field_value" : 16,
     "name" : "std::__1::basic_string<char, std::__1::char_traits<char>, std::__1::allocator<char>>::__alignment"
    }
   ],
   "linker_set_key" : "_ZTINSt3__112basic_stringIcNS_11char_traitsIcEENS_9allocatorIcEEE12$__alignmentE",
   "name" : "std::basic_string<char>::(anonymous enum at external/libcxx/include/string:1535:5)",
   "referenced_type" : "_ZTINSt3__112basic_stringIcNS_11char_traitsIcEENS_9allocatorIcEEE12$__alignmentE",
   "self_type" : "_ZTINSt3__112basic_stringIcNS_11char_traitsIcEENS_9allocatorIcEEE12$__alignmentE",
   "size" : 4,
   "source_file" : "external/libcxx/include/string",
   "underlying_type" : "_ZTIj"
  },
  {
   "access" : "private",
   "alignment" : 4,
   "enum_fields" :
   [
    {
     "enum_field_value" : 5,
     "name" : "std::__1::basic_string<wchar_t, std::__1::char_traits<wchar_t>, std::__1::allocator<wchar_t>>::__min_cap"
    }
   ],
   "linker_set_key" : "_ZTINSt3__112basic_stringIwNS_11char_traitsIwEENS_9allocatorIwEEE10$__min_capE",
   "name" : "std::basic_string<wchar_t>::(anonymous enum at external/libcxx/include/string:751:5)",
   "referenced_type" : "_ZTINSt3__112basic_stringIwNS_11char_traitsIwEENS_9allocatorIwEEE10$__min_capE",
   "self_type" : "_ZTINSt3__112basic_stringIwNS_11char_traitsIwEENS_9allocatorIwEEE10$__min_capE",
   "size" : 4,
   "source_file" : "external/libcxx/include/string",
   "underlying_type" : "_ZTIj"
  },
  {
   "access" : "private",
   "alignment" : 4,
   "enum_fields" :
   [
    {
     "enum_field_value" : 3,
     "name" : "std::__1::basic_string<wchar_t, std::__1::char_traits<wchar_t>, std::__1::allocator<wchar_t>>::__n_words"
    }
   ],
   "linker_set_key" : "_ZTINSt3__112basic_stringIwNS_11char_traitsIwEENS_9allocatorIwEEE10$__n_wordsE",
   "name" : "std::basic_string<wchar_t>::(anonymous enum at external/libcxx/include/string:768:5)",
   "referenced_type" : "_ZTINSt3__112basic_stringIwNS_11char_traitsIwEENS_9allocatorIwEEE10$__n_wordsE",
   "self_type" : "_ZTINSt3__112basic_stringIwNS_11char_traitsIwEENS_9allocatorIwEEE10$__n_wordsE",
   "size" : 4,
   "source_file" : "external/libcxx/include/string",
   "underlying_type" : "_ZTIj"
  },
  {
   "access" : "private",
   "alignment" : 4,
   "enum_fields" :
   [
    {
     "enum_field_value" : 16,
     "name" : "std::__1::basic_string<wchar_t, std::__1::char_traits<wchar_t>, std::__1::allocator<wchar_t>>::__alignment"
    }
   ],
   "linker_set_key" : "_ZTINSt3__112basic_stringIwNS_11char_traitsIwEENS_9allocatorIwEEE12$__alignmentE",
   "name" : "std::basic_string<wchar_t>::(anonymous enum at external/libcxx/include/string:1535:5)",
   "referenced_type" : "_ZTINSt3__112basic_stringIwNS_11char_traitsIwEENS_9allocatorIwEEE12$__alignmentE",
   "self_type" : "_ZTINSt3__112basic_stringIwNS_11char_traitsIwEENS_9allocatorIwEEE12$__alignmentE",
   "size" : 4,
   "source_file" : "external/libcxx/include/string",
   "underlying_type" : "_ZTIj"
  },
  {
   "alignment" : 4,
   "enum_fields" :
   [
    {
     "enum_field_value" : 0,
     "name" : "std::__1::memory_order_relaxed"
    },
    {
     "enum_field_value" : 1,
     "name" : "std::__1::memory_order_consume"
    },
    {
     "enum_field_value" : 2,
     "name" : "std::__1::memory_order_acquire"
    },
    {
     "enum_field_value" : 3,
     "name" : "std::__1::memory_order_release"
    },
    {
     "enum_field_value" : 4,
     "name" : "std::__1::memory_order_acq_rel"
    },
    {
     "enum_field_value" : 5,
     "name" : "std::__1::memory_order_seq_cst"
    }
   ],
   "linker_set_key" : "_ZTINSt3__112memory_orderE",
   "name" : "std::memory_order",
   "referenced_type" : "_ZTINSt3__112memory_orderE",
   "self_type" : "_ZTINSt3__112memory_orderE",
   "size" : 4,
   "source_file" : "external/libcxx/include/atomic",
   "underlying_type" : "_ZTIj"
  },
  {
   "alignment" : 4,
   "enum_fields" :
   [
    {
     "enum_field_value" : 0,
     "name" : "std::__1::pointer_safety::relaxed"
    },
    {
     "enum_field_value" : 1,
     "name" : "std::__1::pointer_safety::preferred"
    },
    {
     "enum_field_value" : 2,
     "name" : "std::__1::pointer_safety::strict"
    }
   ],
   "linker_set_key" : "_ZTINSt3__114pointer_safety4__lxE",
   "name" : "std::pointer_safety::__lx",
   "referenced_type" : "_ZTINSt3__114pointer_safety4__lxE",
   "self_type" : "_ZTINSt3__114pointer_safety4__lxE",
   "size" : 4,
   "source_file" : "external/libcxx/include/memory",
   "underlying_type" : "_ZTIj"
  },
  {
   "alignment" : 4,
   "enum_fields" :
   [
    {
     "enum_field_value" : -1,
     "name" : "std::__1::round_indeterminate"
    },
    {
     "enum_field_value" : 0,
     "name" : "std::__1::round_toward_zero"
    },
    {
     "enum_field_value" : 1,
     "name" : "std::__1::round_to_nearest"
    },
    {
     "enum_field_value" : 2,
     "name" : "std::__1::round_toward_infinity"
    },
    {
     "enum_field_value" : 3,
     "name" : "std::__1::round_toward_neg_infinity"
    }
   ],
   "linker_set_key" : "_ZTINSt3__117float_round_styleE",
   "name" : "std::float_round_style",
   "referenced_type" : "_ZTINSt3__117float_round_styleE",
   "self_type" : "_ZTINSt3__117float_round_styleE",
   "size" : 4,
   "source_file" : "external/libcxx/include/limits",
   "underlying_type" : "_ZTIi"
  },
  {
   "alignment" : 4,
   "enum_fields" :
   [
    {
     "enum_field_value" : -1,
     "name" : "std::__1::denorm_indeterminate"
    },
    {
     "enum_field_value" : 0,
     "name" : "std::__1::denorm_absent"
    },
    {
     "enum_field_value" : 1,
     "name" : "std::__1::denorm_present"
    }
   ],
   "linker_set_key" : "_ZTINSt3__118float_denorm_styleE",
   "name" : "std::float_denorm_style",
   "referenced_type" : "_ZTINSt3__118float_denorm_styleE",
   "self_type" : "_ZTINSt3__118float_denorm_styleE",
   "size" : 4,
   "source_file" : "external/libcxx/include/limits",
   "underlying_type" : "_ZTIi"
  },
  {
   "alignment" : 4,
   "enum_fields" :
   [
    {
     "enum_field_value" : 97,
     "name" : "std::__1::errc::address_family_not_supported"
    },
    {
     "enum_field_value" : 98,
     "name" : "std::__1::errc::address_in_use"
    },
    {
     "enum_field_value" : 99,
     "name" : "std::__1::errc::address_not_available"
    },
    {
     "enum_field_value" : 106,
     "name" : "std::__1::errc::already_connected"
    },
    {
     "enum_field_value" : 7,
     "name" : "std::__1::errc::argument_list_too_long"
    },
    {
     "enum_field_value" : 33,
     "name" : "std::__1::errc::argument_out_of_domain"
    },
    {
     "enum_field_value" : 14,
     "name" : "std::__1::errc::bad_address"
    },
    {
     "enum_field_value" : 9,
     "name" : "std::__1::errc::bad_file_descriptor"
    },
    {
     "enum_field_value" : 74,
     "name" : "std::__1::errc::bad_message"
    },
    {
     "enum_field_value" : 32,
     "name" : "std::__1::errc::broken_pipe"
    },
    {
     "enum_field_value" : 103,
     "name" : "std::__1::errc::connection_aborted"
    },
    {
     "enum_field_value" : 114,
     "name" : "std::__1::errc::connection_already_in_progress"
    },
    {
     "enum_field_value" : 111,
     "name" : "std::__1::errc::connection_refused"
    },
    {
     "enum_field_value" : 104,
     "name" : "std::__1::errc::connection_reset"
    },
    {
     "enum_field_value" : 18,
     "name" : "std::__1::errc::cross_device_link"
    },
    {
     "enum_field_value" : 89,
     "name" : "std::__1::errc::destination_address_required"
    },
    {
     "enum_field_value" : 16,
     "name" : "std::__1::errc::device_or_resource_busy"
    },
    {
     "enum_field_value" : 39,
     "name" : "std::__1::errc::directory_not_empty"
    },
    {
     "enum_field_value" : 8,
     "name" : "std::__1::errc::executable_format_error"
    },
    {
     "enum_field_value" : 17,
     "name" : "std::__1::errc::file_exists"
    },
    {
     "enum_field_value" : 27,
     "name" : "std::__1::errc::file_too_large"
    },
    {
     "enum_field_value" : 36,
     "name" : "std::__1::errc::filename_too_long"
    },
    {
     "enum_field_value" : 38,
     "name" : "std::__1::errc::function_not_supported"
    },
    {
     "enum_field_value" : 113,
     "name" : "std::__1::errc::host_unreachable"
    },
    {
     "enum_field_value" : 43,
     "name" : "std::__1::errc::identifier_removed"
    },
    {
     "enum_field_value" : 84,
     "name" : "std::__1::errc::illegal_byte_sequence"
    },
    {
     "enum_field_value" : 25,
     "name" : "std::__1::errc::inappropriate_io_control_operation"
    },
    {
     "enum_field_value" : 4,
     "name" : "std::__1::errc::interrupted"
    },
    {
     "enum_field_value" : 22,
     "name" : "std::__1::errc::invalid_argument"
    },
    {
     "enum_field_value" : 29,
     "name" : "std::__1::errc::invalid_seek"
    },
    {
     "enum_field_value" : 5,
     "name" : "std::__1::errc::io_error"
    },
    {
     "enum_field_value" : 21,
     "name" : "std::__1::errc::is_a_directory"
    },
    {
     "enum_field_value" : 90,
     "name" : "std::__1::errc::message_size"
    },
    {
     "enum_field_value" : 100,
     "name" : "std::__1::errc::network_down"
    },
    {
     "enum_field_value" : 102,
     "name" : "std::__1::errc::network_reset"
    },
    {
     "enum_field_value" : 101,
     "name" : "std::__1::errc::network_unreachable"
    },
    {
     "enum_field_value" : 105,
     "name" : "std::__1::errc::no_buffer_space"
    },
    {
     "enum_field_value" : 10,
     "name" : "std::__1::errc::no_child_process"
    },
    {
     "enum_field_value" : 67,
     "name" : "std::__1::errc::no_link"
    },
    {
     "enum_field_value" : 37,
     "name" : "std::__1::errc::no_lock_available"
    },
    {
     "enum_field_value" : 61,
     "name" : "std::__1::errc::no_message_available"
    },
    {
     "enum_field_value" : 42,
     "name" : "std::__1::errc::no_message"
    },
    {
     "enum_field_value" : 92,
     "name" : "std::__1::errc::no_protocol_option"
    },
    {
     "enum_field_value" : 28,
     "name" : "std::__1::errc::no_space_on_device"
    },
    {
     "enum_field_value" : 63,
     "name" : "std::__1::errc::no_stream_resources"
    },
    {
     "enum_field_value" : 6,
     "name" : "std::__1::errc::no_such_device_or_address"
    },
    {
     "enum_field_value" : 19,
     "name" : "std::__1::errc::no_such_device"
    },
    {
     "enum_field_value" : 2,
     "name" : "std::__1::errc::no_such_file_or_directory"
    },
    {
     "enum_field_value" : 3,
     "name" : "std::__1::errc::no_such_process"
    },
    {
     "enum_field_value" : 20,
     "name" : "std::__1::errc::not_a_directory"
    },
    {
     "enum_field_value" : 88,
     "name" : "std::__1::errc::not_a_socket"
    },
    {
     "enum_field_value" : 60,
     "name" : "std::__1::errc::not_a_stream"
    },
    {
     "enum_field_value" : 107,
     "name" : "std::__1::errc::not_connected"
    },
    {
     "enum_field_value" : 12,
     "name" : "std::__1::errc::not_enough_memory"
    },
    {
     "enum_field_value" : 95,
     "name" : "std::__1::errc::not_supported"
    },
    {
     "enum_field_value" : 125,
     "name" : "std::__1::errc::operation_canceled"
    },
    {
     "enum_field_value" : 115,
     "name" : "std::__1::errc::operation_in_progress"
    },
    {
     "enum_field_value" : 1,
     "name" : "std::__1::errc::operation_not_permitted"
    },
    {
     "enum_field_value" : 95,
     "name" : "std::__1::errc::operation_not_supported"
    },
    {
     "enum_field_value" : 11,
     "name" : "std::__1::errc::operation_would_block"
    },
    {
     "enum_field_value" : 130,
     "name" : "std::__1::errc::owner_dead"
    },
    {
     "enum_field_value" : 13,
     "name" : "std::__1::errc::permission_denied"
    },
    {
     "enum_field_value" : 71,
     "name" : "std::__1::errc::protocol_error"
    },
    {
     "enum_field_value" : 93,
     "name" : "std::__1::errc::protocol_not_supported"
    },
    {
     "enum_field_value" : 30,
     "name" : "std::__1::errc::read_only_file_system"
    },
    {
     "enum_field_value" : 35,
     "name" : "std::__1::errc::resource_deadlock_would_occur"
    },
    {
     "enum_field_value" : 11,
     "name" : "std::__1::errc::resource_unavailable_try_again"
    },
    {
     "enum_field_value" : 34,
     "name" : "std::__1::errc::result_out_of_range"
    },
    {
     "enum_field_value" : 131,
     "name" : "std::__1::errc::state_not_recoverable"
    },
    {
     "enum_field_value" : 62,
     "name" : "std::__1::errc::stream_timeout"
    },
    {
     "enum_field_value" : 26,
     "name" : "std::__1::errc::text_file_busy"
    },
    {
     "enum_field_value" : 110,
     "name" : "std::__1::errc::timed_out"
    },
    {
     "enum_field_value" : 23,
     "name" : "std::__1::errc::too_many_files_open_in_system"
    },
    {
     "enum_field_value" : 24,
     "name" : "std::__1::errc::too_many_files_open"
    },
    {
     "enum_field_value" : 31,
     "name" : "std::__1::errc::too_many_links"
    },
    {
     "enum_field_value" : 40,
     "name" : "std::__1::errc::too_many_symbolic_link_levels"
    },
    {
     "enum_field_value" : 75,
     "name" : "std::__1::errc::value_too_large"
    },
    {
     "enum_field_value" : 91,
     "name" : "std::__1::errc::wrong_protocol_type"
    }
   ],
   "linker_set_key" : "_ZTINSt3__14errcE",
   "name" : "std::errc",
   "referenced_type" : "_ZTINSt3__14errcE",
   "self_type" : "_ZTINSt3__14errcE",
   "size" : 4,
   "source_file" : "external/libcxx/include/__errc",
   "underlying_type" : "_ZTIi"
  },
  {
   "alignment" : 4,
   "enum_fields" :
   [
    {
     "enum_field_value" : 0,
     "name" : "std::__1::cv_status::no_timeout"
    },
    {
     "enum_field_value" : 1,
     "name" : "std::__1::cv_status::timeout"
    }
   ],
   "linker_set_key" : "_ZTINSt3__19cv_statusE",
   "name" : "std::cv_status",
   "referenced_type" : "_ZTINSt3__19cv_statusE",
   "self_type" : "_ZTINSt3__19cv_statusE",
   "size" : 4,
   "source_file" : "external/libcxx/include/__mutex_base",
   "underlying_type" : "_ZTIi"
  },
  {
   "alignment" : 8,
   "linker_set_key" : "_ZTISt11align_val_t",
   "name" : "std::align_val_t",
   "referenced_type" : "_ZTISt11align_val_t",
   "self_type" : "_ZTISt11align_val_t",
   "size" : 8,
   "source_file" : "external/libcxx/include/new",
   "underlying_type" : "_ZTIm"
  },
  {
   "alignment" : 1,
   "linker_set_key" : "_ZTISt4byte",
   "name" : "std::byte",
   "referenced_type" : "_ZTISt4byte",
   "self_type" : "_ZTISt4byte",
   "size" : 1,
   "source_file" : "external/libcxx/include/cstddef",
   "underlying_type" : "_ZTIh"
  }
 ],
 "function_types" :
 [
  {
   "alignment" : 4,
   "linker_set_key" : "_ZTIFPvPKvE",
   "name" : "void *(const void *)",
   "parameters" :
   [
    {
     "referenced_type" : "_ZTIPKv"
    }
   ],
   "referenced_type" : "_ZTIFPvPKvE",
   "return_type" : "_ZTIPv",
   "self_type" : "_ZTIFPvPKvE",
   "source_file" : "external/libcxx/include/functional"
  },
  {
   "alignment" : 4,
   "linker_set_key" : "_ZTIFPvS_E",
   "name" : "void *(void *)",
   "parameters" :
   [
    {
     "referenced_type" : "_ZTIPv"
    }
   ],
   "referenced_type" : "_ZTIFPvS_E",
   "return_type" : "_ZTIPv",
   "self_type" : "_ZTIFPvS_E",
   "source_file" : "external/libcxx/include/__threading_support"
  },
  {
   "alignment" : 4,
   "linker_set_key" : "_ZTIFPvS_mPKvE",
   "name" : "void *(void *, unsigned long, const void *)",
   "parameters" :
   [
    {
     "referenced_type" : "_ZTIPv"
    },
    {
     "referenced_type" : "_ZTIm"
    },
    {
     "referenced_type" : "_ZTIPKv"
    }
   ],
   "referenced_type" : "_ZTIFPvS_mPKvE",
   "return_type" : "_ZTIPv",
   "self_type" : "_ZTIFPvS_mPKvE",
   "source_file" : "out/soong/.intermediates/bionic/libc/libc/android_vendor.32_arm64_armv8-a_shared/gen/include/malloc.h"
  },
  {
   "alignment" : 4,
   "linker_set_key" : "_ZTIFPvmPKvE",
   "name" : "void *(unsigned long, const void *)",
   "parameters" :
   [
    {
     "referenced_type" : "_ZTIm"
    },
    {
     "referenced_type" : "_ZTIPKv"
    }
   ],
   "referenced_type" : "_ZTIFPvmPKvE",
   "return_type" : "_ZTIPv",
   "self_type" : "_ZTIFPvmPKvE",
   "source_file" : "out/soong/.intermediates/bionic/libc/libc/android_vendor.32_arm64_armv8-a_shared/gen/include/malloc.h"
  },
  {
   "alignment" : 4,
   "linker_set_key" : "_ZTIFPvmmPKvE",
   "name" : "void *(unsigned long, unsigned long, const void *)",
   "parameters" :
   [
    {
     "referenced_type" : "_ZTIm"
    },
    {
     "referenced_type" : "_ZTIm"
    },
    {
     "referenced_type" : "_ZTIPKv"
    }
   ],
   "referenced_type" : "_ZTIFPvmmPKvE",
   "return_type" : "_ZTIPv",
   "self_type" : "_ZTIFPvmmPKvE",
   "source_file" : "out/soong/.intermediates/bionic/libc/libc/android_vendor.32_arm64_armv8-a_shared/gen/include/malloc.h"
  },
  {
   "alignment" : 4,
   "linker_set_key" : "_ZTIFv6sigvalE",
   "name" : "void (sigval)",
   "parameters" :
   [
    {
     "referenced_type" : "_ZTI6sigval"
    }
   ],
   "referenced_type" : "_ZTIFv6sigvalE",
   "return_type" : "_ZTIv",
   "self_type" : "_ZTIFv6sigvalE",
   "source_file" : "bionic/libc/kernel/uapi/asm-generic/siginfo.h"
  },
  {
   "alignment" : 4,
   "linker_set_key" : "_ZTIFvPvE",
   "name" : "void (void *)",
   "parameters" :
   [
    {
     "referenced_type" : "_ZTIPv"
    }
   ],
   "referenced_type" : "_ZTIFvPvE",
   "return_type" : "_ZTIv",
   "self_type" : "_ZTIFvPvE",
   "source_file" : "external/libcxx/include/functional"
  },
  {
   "alignment" : 4,
   "linker_set_key" : "_ZTIFvPvPKvE",
   "name" : "void (void *, const void *)",
   "parameters" :
   [
    {
     "referenced_type" : "_ZTIPv"
    },
    {
     "referenced_type" : "_ZTIPKv"
    }
   ],
   "referenced_type" : "_ZTIFvPvPKvE",
   "return_type" : "_ZTIv",
   "self_type" : "_ZTIFvPvPKvE",
   "source_file" : "out/soong/.intermediates/bionic/libc/libc/android_vendor.32_arm64_armv8-a_shared/gen/include/malloc.h"
  },
  {
   "alignment" : 4,
   "linker_set_key" : "_ZTIFvRKNSt3__119__libcpp_debug_infoEE",
   "name" : "void (const std::__1::__libcpp_debug_info &)",
   "parameters" :
   [
    {
     "referenced_type" : "_ZTIRKNSt3__119__libcpp_debug_infoE"
    }
   ],
   "referenced_type" : "_ZTIFvRKNSt3__119__libcpp_debug_infoEE",
   "return_type" : "_ZTIv",
   "self_type" : "_ZTIFvRKNSt3__119__libcpp_debug_infoEE",
   "source_file" : "external/libcxx/include/__debug"
  },
  {
   "alignment" : 4,
   "linker_set_key" : "_ZTIFviE",
   "name" : "void (int)",
   "parameters" :
   [
    {
     "referenced_type" : "_ZTIi"
    }
   ],
   "referenced_type" : "_ZTIFviE",
   "return_type" : "_ZTIv",
   "self_type" : "_ZTIFviE",
   "source_file" : "bionic/libc/kernel/uapi/asm-generic/signal.h"
  },
  {
   "alignment" : 4,
   "linker_set_key" : "_ZTIFviP7siginfoPvE",
   "name" : "void (int, siginfo *, void *)",
   "parameters" :
   [
    {
     "referenced_type" : "_ZTIi"
    },
    {
     "referenced_type" : "_ZTIP7siginfo"
    },
    {
     "referenced_type" : "_ZTIPv"
    }
   ],
   "referenced_type" : "_ZTIFviP7siginfoPvE",
   "return_type" : "_ZTIv",
   "self_type" : "_ZTIFviP7siginfoPvE",
   "source_file" : "out/soong/.intermediates/bionic/libc/libc/android_vendor.32_arm64_armv8-a_shared/gen/include/bits/signal_types.h"
  },
  {
   "alignment" : 4,
   "linker_set_key" : "_ZTIFvvE",
   "name" : "void ()",
   "referenced_type" : "_ZTIFvvE",
   "return_type" : "_ZTIv",
   "self_type" : "_ZTIFvvE",
   "source_file" : "bionic/libc/kernel/uapi/asm-generic/signal.h"
  }
 ],
 "functions" :
 [
  {
   "function_name" : "__bionic_memchr",
   "linker_set_key" : "_Z15__bionic_memchrPKvU17pass_object_size1im",
   "parameters" :
   [
    {
     "referenced_type" : "_ZTIKPKv"
    },
    {
     "referenced_type" : "_ZTIi"
    },
    {
     "referenced_type" : "_ZTIm"
    }
   ],
   "return_type" : "_ZTIPv",
   "source_file" : "out/soong/.intermediates/bionic/libc/libc/android_vendor.32_arm64_armv8-a_shared/gen/include/string.h"
  },
  {
   "function_name" : "__bionic_strchr",
   "linker_set_key" : "_Z15__bionic_strchrPKcU17pass_object_size1i",
   "parameters" :
   [
    {
     "referenced_type" : "_ZTIKPKc"
    },
    {
     "referenced_type" : "_ZTIi"
    }
   ],
   "return_type" : "_ZTIPc",
   "source_file" : "out/soong/.intermediates/bionic/libc/libc/android_vendor.32_arm64_armv8-a_shared/gen/include/string.h"
  },
  {
   "function_name" : "__bionic_strstr",
   "linker_set_key" : "_Z15__bionic_strstrPKcS0_",
   "parameters" :
   [
    {
     "referenced_type" : "_ZTIPKc"
    },
    {
     "referenced_type" : "_ZTIPKc"
    }
   ],
   "return_type" : "_ZTIPc",
   "source_file" : "out/soong/.intermediates/bionic/libc/libc/android_vendor.32_arm64_armv8-a_shared/gen/include/string.h"
  },
  {
   "function_name" : "__libcpp_memchr",
   "linker_set_key" : "_Z15__libcpp_memchrPKvim",
   "parameters" :
   [
    {
     "referenced_type" : "_ZTIPKv"
    },
    {
     "referenced_type" : "_ZTIi"
    },
    {
     "referenced_type" : "_ZTIm"
    }
   ],
   "return_type" : "_ZTIPv",
   "source_file" : "external/libcxx/include/string.h"
  },
  {
   "function_name" : "__libcpp_strchr",
   "linker_set_key" : "_Z15__libcpp_strchrPKci",
   "parameters" :
   [
    {
     "referenced_type" : "_ZTIPKc"
    },
    {
     "referenced_type" : "_ZTIi"
    }
   ],
   "return_type" : "_ZTIPc",
   "source_file" : "external/libcxx/include/string.h"
  },
  {
   "function_name" : "__libcpp_strstr",
   "linker_set_key" : "_Z15__libcpp_strstrPKcS0_",
   "parameters" :
   [
    {
     "referenced_type" : "_ZTIPKc"
    },
    {
     "referenced_type" : "_ZTIPKc"
    }
   ],
   "return_type" : "_ZTIPc",
   "source_file" : "external/libcxx/include/string.h"
  },
  {
   "function_name" : "__libcpp_wcschr",
   "linker_set_key" : "_Z15__libcpp_wcschrPKww",
   "parameters" :
   [
    {
     "referenced_type" : "_ZTIPKw"
    },
    {
     "referenced_type" : "_ZTIw"
    }
   ],
   "return_type" : "_ZTIPw",
   "source_file" : "external/libcxx/include/wchar.h"
  },
  {
   "function_name" : "__libcpp_wcsstr",
   "linker_set_key" : "_Z15__libcpp_wcsstrPKwS0_",
   "parameters" :
   [
    {
     "referenced_type" : "_ZTIPKw"
    },
    {
     "referenced_type" : "_ZTIPKw"
    }
   ],
   "return_type" : "_ZTIPw",
   "source_file" : "external/libcxx/include/wchar.h"
  },
  {
   "function_name" : "__bionic_strpbrk",
   "linker_set_key" : "_Z16__bionic_strpbrkPKcS0_",
   "parameters" :
   [
    {
     "referenced_type" : "_ZTIPKc"
    },
    {
     "referenced_type" : "_ZTIPKc"
    }
   ],
   "return_type" : "_ZTIPc",
   "source_file" : "out/soong/.intermediates/bionic/libc/libc/android_vendor.32_arm64_armv8-a_shared/gen/include/string.h"
  },
  {
   "function_name" : "__bionic_strrchr",
   "linker_set_key" : "_Z16__bionic_strrchrPKcU17pass_object_size1i",
   "parameters" :
   [
    {
     "referenced_type" : "_ZTIKPKc"
    },
    {
     "referenced_type" : "_ZTIi"
    }
   ],
   "return_type" : "_ZTIPc",
   "source_file" : "out/soong/.intermediates/bionic/libc/libc/android_vendor.32_arm64_armv8-a_shared/gen/include/string.h"
  },
  {
   "function_name" : "__libcpp_strpbrk",
   "linker_set_key" : "_Z16__libcpp_strpbrkPKcS0_",
   "parameters" :
   [
    {
     "referenced_type" : "_ZTIPKc"
    },
    {
     "referenced_type" : "_ZTIPKc"
    }
   ],
   "return_type" : "_ZTIPc",
   "source_file" : "external/libcxx/include/string.h"
  },
  {
   "function_name" : "__libcpp_strrchr",
   "linker_set_key" : "_Z16__libcpp_strrchrPKci",
   "parameters" :
   [
    {
     "referenced_type" : "_ZTIPKc"
    },
    {
     "referenced_type" : "_ZTIi"
    }
   ],
   "return_type" : "_ZTIPc",
   "source_file" : "external/libcxx/include/string.h"
  },
  {
   "function_name" : "__libcpp_wcspbrk",
   "linker_set_key" : "_Z16__libcpp_wcspbrkPKwS0_",
   "parameters" :
   [
    {
     "referenced_type" : "_ZTIPKw"
    },
    {
     "referenced_type" : "_ZTIPKw"
    }
   ],
   "return_type" : "_ZTIPw",
   "source_file" : "external/libcxx/include/wchar.h"
  },
  {
   "function_name" : "__libcpp_wcsrchr",
   "linker_set_key" : "_Z16__libcpp_wcsrchrPKww",
   "parameters" :
   [
    {
     "referenced_type" : "_ZTIPKw"
    },
    {
     "referenced_type" : "_ZTIw"
    }
   ],
   "return_type" : "_ZTIPw",
   "source_file" : "external/libcxx/include/wchar.h"
  },
  {
   "function_name" : "__libcpp_wmemchr",
   "linker_set_key" : "_Z16__libcpp_wmemchrPKwwm",
   "parameters" :
   [
    {
     "referenced_type" : "_ZTIPKw"
    },
    {
     "referenced_type" : "_ZTIw"
    },
    {
     "referenced_type" : "_ZTIm"
    }
   ],
   "return_type" : "_ZTIPw",
   "source_file" : "external/libcxx/include/wchar.h"
  },
  {
   "function_name" : "abs",
   "linker_set_key" : "_Z3absl",
   "parameters" :
   [
    {
     "referenced_type" : "_ZTIl"
    }
   ],
   "return_type" : "_ZTIl",
   "source_file" : "external/libcxx/include/stdlib.h"
  },
  {
   "function_name" : "abs",
   "linker_set_key" : "_Z3absx",
   "parameters" :
   [
    {
     "referenced_type" : "_ZTIx"
    }
   ],
   "return_type" : "_ZTIx",
   "source_file" : "external/libcxx/include/stdlib.h"
  },
  {
   "function_name" : "div",
   "linker_set_key" : "_Z3divll",
   "parameters" :
   [
    {
     "referenced_type" : "_ZTIl"
    },
    {
     "referenced_type" : "_ZTIl"
    }
   ],
   "return_type" : "_ZTI6ldiv_t",
   "source_file" : "external/libcxx/include/stdlib.h"
  },
  {
   "function_name" : "div",
   "linker_set_key" : "_Z3divxx",
   "parameters" :
   [
    {
     "referenced_type" : "_ZTIx"
    },
    {
     "referenced_type" : "_ZTIx"
    }
   ],
   "return_type" : "_ZTI7lldiv_t",
   "source_file" : "external/libcxx/include/stdlib.h"
  },
  {
   "function_name" : "memchr",
   "linker_set_key" : "_Z6memchrUa9enable_ifIXLb1EEEPKvim",
   "parameters" :
   [
    {
     "referenced_type" : "_ZTIPKv"
    },
    {
     "referenced_type" : "_ZTIi"
    },
    {
     "referenced_type" : "_ZTIm"
    }
   ],
   "return_type" : "_ZTIPKv",
   "source_file" : "external/libcxx/include/string.h"
  },
  {
   "function_name" : "memchr",
   "linker_set_key" : "_Z6memchrUa9enable_ifIXLb1EEEPvim",
   "parameters" :
   [
    {
     "referenced_type" : "_ZTIPv"
    },
    {
     "referenced_type" : "_ZTIi"
    },
    {
     "referenced_type" : "_ZTIm"
    }
   ],
   "return_type" : "_ZTIPv",
   "source_file" : "external/libcxx/include/string.h"
  },
  {
   "function_name" : "memchr",
   "linker_set_key" : "_Z6memchrUa9enable_ifIXLb1EEXLb1EEEPKvU17pass_object_size1im",
   "parameters" :
   [
    {
     "referenced_type" : "_ZTIKPKv"
    },
    {
     "referenced_type" : "_ZTIi"
    },
    {
     "referenced_type" : "_ZTIm"
    }
   ],
   "return_type" : "_ZTIPKv",
   "source_file" : "out/soong/.intermediates/bionic/libc/libc/android_vendor.32_arm64_armv8-a_shared/gen/include/string.h"
  },
  {
   "function_name" : "memchr",
   "linker_set_key" : "_Z6memchrUa9enable_ifIXLb1EEXLb1EEEPvU17pass_object_size1im",
   "parameters" :
   [
    {
     "referenced_type" : "_ZTIKPv"
    },
    {
     "referenced_type" : "_ZTIi"
    },
    {
     "referenced_type" : "_ZTIm"
    }
   ],
   "return_type" : "_ZTIPv",
   "source_file" : "out/soong/.intermediates/bionic/libc/libc/android_vendor.32_arm64_armv8-a_shared/gen/include/string.h"
  },
  {
   "function_name" : "strchr",
   "linker_set_key" : "_Z6strchrUa9enable_ifIXLb1EEEPKci",
   "parameters" :
   [
    {
     "referenced_type" : "_ZTIPKc"
    },
    {
     "referenced_type" : "_ZTIi"
    }
   ],
   "return_type" : "_ZTIPKc",
   "source_file" : "external/libcxx/include/string.h"
  },
  {
   "function_name" : "strchr",
   "linker_set_key" : "_Z6strchrUa9enable_ifIXLb1EEEPci",
   "parameters" :
   [
    {
     "referenced_type" : "_ZTIPc"
    },
    {
     "referenced_type" : "_ZTIi"
    }
   ],
   "return_type" : "_ZTIPc",
   "source_file" : "external/libcxx/include/string.h"
  },
  {
   "function_name" : "strchr",
   "linker_set_key" : "_Z6strchrUa9enable_ifIXLb1EEXLb1EEEPKcU17pass_object_size1i",
   "parameters" :
   [
    {
     "referenced_type" : "_ZTIKPKc"
    },
    {
     "referenced_type" : "_ZTIi"
    }
   ],
   "return_type" : "_ZTIPKc",
   "source_file" : "out/soong/.intermediates/bionic/libc/libc/android_vendor.32_arm64_armv8-a_shared/gen/include/string.h"
  },
  {
   "function_name" : "strchr",
   "linker_set_key" : "_Z6strchrUa9enable_ifIXLb1EEXLb1EEEPcU17pass_object_size1i",
   "parameters" :
   [
    {
     "referenced_type" : "_ZTIKPc"
    },
    {
     "referenced_type" : "_ZTIi"
    }
   ],
   "return_type" : "_ZTIPc",
   "source_file" : "out/soong/.intermediates/bionic/libc/libc/android_vendor.32_arm64_armv8-a_shared/gen/include/string.h"
  },
  {
   "function_name" : "strstr",
   "linker_set_key" : "_Z6strstrUa9enable_ifIXLb1EEEPKcS0_",
   "parameters" :
   [
    {
     "referenced_type" : "_ZTIPKc"
    },
    {
     "referenced_type" : "_ZTIPKc"
    }
   ],
   "return_type" : "_ZTIPKc",
   "source_file" : "external/libcxx/include/string.h"
  },
  {
   "function_name" : "strstr",
   "linker_set_key" : "_Z6strstrUa9enable_ifIXLb1EEEPcPKc",
   "parameters" :
   [
    {
     "referenced_type" : "_ZTIPc"
    },
    {
     "referenced_type" : "_ZTIPKc"
    }
   ],
   "return_type" : "_ZTIPc",
   "source_file" : "external/libcxx/include/string.h"
  },
  {
   "function_name" : "strstr",
   "linker_set_key" : "_Z6strstrUa9enable_ifIXLb1EEXLb1EEEPKcS0_",
   "parameters" :
   [
    {
     "referenced_type" : "_ZTIPKc"
    },
    {
     "referenced_type" : "_ZTIPKc"
    }
   ],
   "return_type" : "_ZTIPKc",
   "source_file" : "out/soong/.intermediates/bionic/libc/libc/android_vendor.32_arm64_armv8-a_shared/gen/include/string.h"
  },
  {
   "function_name" : "strstr",
   "linker_set_key" : "_Z6strstrUa9enable_ifIXLb1EEXLb1EEEPcPKc",
   "parameters" :
   [
    {
     "referenced_type" : "_ZTIPc"
    },
    {
     "referenced_type" : "_ZTIPKc"
    }
   ],
   "return_type" : "_ZTIPc",
   "source_file" : "out/soong/.intermediates/bionic/libc/libc/android_vendor.32_arm64_armv8-a_shared/gen/include/string.h"
  },
  {
   "function_name" : "wcschr",
   "linker_set_key" : "_Z6wcschrUa9enable_ifIXLb1EEEPKww",
   "parameters" :
   [
    {
     "referenced_type" : "_ZTIPKw"
    },
    {
     "referenced_type" : "_ZTIw"
    }
   ],
   "return_type" : "_ZTIPKw",
   "source_file" : "external/libcxx/include/wchar.h"
  },
  {
   "function_name" : "wcschr",
   "linker_set_key" : "_Z6wcschrUa9enable_ifIXLb1EEEPww",
   "parameters" :
   [
    {
     "referenced_type" : "_ZTIPw"
    },
    {
     "referenced_type" : "_ZTIw"
    }
   ],
   "return_type" : "_ZTIPw",
   "source_file" : "external/libcxx/include/wchar.h"
  },
  {
   "function_name" : "wcsstr",
   "linker_set_key" : "_Z6wcsstrUa9enable_ifIXLb1EEEPKwS0_",
   "parameters" :
   [
    {
     "referenced_type" : "_ZTIPKw"
    },
    {
     "referenced_type" : "_ZTIPKw"
    }
   ],
   "return_type" : "_ZTIPKw",
   "source_file" : "external/libcxx/include/wchar.h"
  },
  {
   "function_name" : "wcsstr",
   "linker_set_key" : "_Z6wcsstrUa9enable_ifIXLb1EEEPwPKw",
   "parameters" :
   [
    {
     "referenced_type" : "_ZTIPw"
    },
    {
     "referenced_type" : "_ZTIPKw"
    }
   ],
   "return_type" : "_ZTIPw",
   "source_file" : "external/libcxx/include/wchar.h"
  },
  {
   "function_name" : "strpbrk",
   "linker_set_key" : "_Z7strpbrkUa9enable_ifIXLb1EEEPKcS0_",
   "parameters" :
   [
    {
     "referenced_type" : "_ZTIPKc"
    },
    {
     "referenced_type" : "_ZTIPKc"
    }
   ],
   "return_type" : "_ZTIPKc",
   "source_file" : "external/libcxx/include/string.h"
  },
  {
   "function_name" : "strpbrk",
   "linker_set_key" : "_Z7strpbrkUa9enable_ifIXLb1EEEPcPKc",
   "parameters" :
   [
    {
     "referenced_type" : "_ZTIPc"
    },
    {
     "referenced_type" : "_ZTIPKc"
    }
   ],
   "return_type" : "_ZTIPc",
   "source_file" : "external/libcxx/include/string.h"
  },
  {
   "function_name" : "strpbrk",
   "linker_set_key" : "_Z7strpbrkUa9enable_ifIXLb1EEXLb1EEEPKcS0_",
   "parameters" :
   [
    {
     "referenced_type" : "_ZTIPKc"
    },
    {
     "referenced_type" : "_ZTIPKc"
    }
   ],
   "return_type" : "_ZTIPKc",
   "source_file" : "out/soong/.intermediates/bionic/libc/libc/android_vendor.32_arm64_armv8-a_shared/gen/include/string.h"
  },
  {
   "function_name" : "strpbrk",
   "linker_set_key" : "_Z7strpbrkUa9enable_ifIXLb1EEXLb1EEEPcPKc",
   "parameters" :
   [
    {
     "referenced_type" : "_ZTIPc"
    },
    {
     "referenced_type" : "_ZTIPKc"
    }
   ],
   "return_type" : "_ZTIPc",
   "source_file" : "out/soong/.intermediates/bionic/libc/libc/android_vendor.32_arm64_armv8-a_shared/gen/include/string.h"
  },
  {
   "function_name" : "strrchr",
   "linker_set_key" : "_Z7strrchrUa9enable_ifIXLb1EEEPKci",
   "parameters" :
   [
    {
     "referenced_type" : "_ZTIPKc"
    },
    {
     "referenced_type" : "_ZTIi"
    }
   ],
   "return_type" : "_ZTIPKc",
   "source_file" : "external/libcxx/include/string.h"
  },
  {
   "function_name" : "strrchr",
   "linker_set_key" : "_Z7strrchrUa9enable_ifIXLb1EEEPci",
   "parameters" :
   [
    {
     "referenced_type" : "_ZTIPc"
    },
    {
     "referenced_type" : "_ZTIi"
    }
   ],
   "return_type" : "_ZTIPc",
   "source_file" : "external/libcxx/include/string.h"
  },
  {
   "function_name" : "strrchr",
   "linker_set_key" : "_Z7strrchrUa9enable_ifIXLb1EEXLb1EEEPKcU17pass_object_size1i",
   "parameters" :
   [
    {
     "referenced_type" : "_ZTIKPKc"
    },
    {
     "referenced_type" : "_ZTIi"
    }
   ],
   "return_type" : "_ZTIPKc",
   "source_file" : "out/soong/.intermediates/bionic/libc/libc/android_vendor.32_arm64_armv8-a_shared/gen/include/string.h"
  },
  {
   "function_name" : "strrchr",
   "linker_set_key" : "_Z7strrchrUa9enable_ifIXLb1EEXLb1EEEPcU17pass_object_size1i",
   "parameters" :
   [
    {
     "referenced_type" : "_ZTIKPc"
    },
    {
     "referenced_type" : "_ZTIi"
    }
   ],
   "return_type" : "_ZTIPc",
   "source_file" : "out/soong/.intermediates/bionic/libc/libc/android_vendor.32_arm64_armv8-a_shared/gen/include/string.h"
  },
  {
   "function_name" : "wcspbrk",
   "linker_set_key" : "_Z7wcspbrkUa9enable_ifIXLb1EEEPKwS0_",
   "parameters" :
   [
    {
     "referenced_type" : "_ZTIPKw"
    },
    {
     "referenced_type" : "_ZTIPKw"
    }
   ],
   "return_type" : "_ZTIPKw",
   "source_file" : "external/libcxx/include/wchar.h"
  },
  {
   "function_name" : "wcspbrk",
   "linker_set_key" : "_Z7wcspbrkUa9enable_ifIXLb1EEEPwPKw",
   "parameters" :
   [
    {
     "referenced_type" : "_ZTIPw"
    },
    {
     "referenced_type" : "_ZTIPKw"
    }
   ],
   "return_type" : "_ZTIPw",
   "source_file" : "external/libcxx/include/wchar.h"
  },
  {
   "function_name" : "wcsrchr",
   "linker_set_key" : "_Z7wcsrchrUa9enable_ifIXLb1EEEPKww",
   "parameters" :
   [
    {
     "referenced_type" : "_ZTIPKw"
    },
    {
     "referenced_type" : "_ZTIw"
    }
   ],
   "return_type" : "_ZTIPKw",
   "source_file" : "external/libcxx/include/wchar.h"
  },
  {
   "function_name" : "wcsrchr",
   "linker_set_key" : "_Z7wcsrchrUa9enable_ifIXLb1EEEPww",
   "parameters" :
   [
    {
     "referenced_type" : "_ZTIPw"
    },
    {
     "referenced_type" : "_ZTIw"
    }
   ],
   "return_type" : "_ZTIPw",
   "source_file" : "external/libcxx/include/wchar.h"
  },
  {
   "function_name" : "wmemchr",
   "linker_set_key" : "_Z7wmemchrUa9enable_ifIXLb1EEEPKwwm",
   "parameters" :
   [
    {
     "referenced_type" : "_ZTIPKw"
    },
    {
     "referenced_type" : "_ZTIw"
    },
    {
     "referenced_type" : "_ZTIm"
    }
   ],
   "return_type" : "_ZTIPKw",
   "source_file" : "external/libcxx/include/wchar.h"
  },
  {
   "function_name" : "wmemchr",
   "linker_set_key" : "_Z7wmemchrUa9enable_ifIXLb1EEEPwwm",
   "parameters" :
   [
    {
     "referenced_type" : "_ZTIPw"
    },
    {
     "referenced_type" : "_ZTIw"
    },
    {
     "referenced_type" : "_ZTIm"
    }
   ],
   "return_type" : "_ZTIPw",
   "source_file" : "external/libcxx/include/wchar.h"
  },
  {
   "function_name" : "piex::binary_parse::RangeCheckedBytePtr::operator-=",
   "linker_set_key" : "_ZN4piex12binary_parse19RangeCheckedBytePtrmIEm",
   "parameters" :
   [
    {
     "is_this_ptr" : true,
     "referenced_type" : "_ZTIPN4piex12binary_parse19RangeCheckedBytePtrE"
    },
    {
     "referenced_type" : "_ZTIm"
    }
   ],
   "return_type" : "_ZTIRN4piex12binary_parse19RangeCheckedBytePtrE",
   "source_file" : "external/piex/src/binary_parse/range_checked_byte_ptr.h"
  },
  {
   "function_name" : "piex::binary_parse::RangeCheckedBytePtr::operator--",
   "linker_set_key" : "_ZN4piex12binary_parse19RangeCheckedBytePtrmmEi",
   "parameters" :
   [
    {
     "is_this_ptr" : true,
     "referenced_type" : "_ZTIPN4piex12binary_parse19RangeCheckedBytePtrE"
    },
    {
     "referenced_type" : "_ZTIi"
    }
   ],
   "return_type" : "_ZTIN4piex12binary_parse19RangeCheckedBytePtrE",
   "source_file" : "external/piex/src/binary_parse/range_checked_byte_ptr.h"
  },
  {
   "function_name" : "piex::binary_parse::RangeCheckedBytePtr::operator--",
   "linker_set_key" : "_ZN4piex12binary_parse19RangeCheckedBytePtrmmEv",
   "parameters" :
   [
    {
     "is_this_ptr" : true,
     "referenced_type" : "_ZTIPN4piex12binary_parse19RangeCheckedBytePtrE"
    }
   ],
   "return_type" : "_ZTIRN4piex12binary_parse19RangeCheckedBytePtrE",
   "source_file" : "external/piex/src/binary_parse/range_checked_byte_ptr.h"
  },
  {
   "function_name" : "piex::binary_parse::RangeCheckedBytePtr::operator+=",
   "linker_set_key" : "_ZN4piex12binary_parse19RangeCheckedBytePtrpLEm",
   "parameters" :
   [
    {
     "is_this_ptr" : true,
     "referenced_type" : "_ZTIPN4piex12binary_parse19RangeCheckedBytePtrE"
    },
    {
     "referenced_type" : "_ZTIm"
    }
   ],
   "return_type" : "_ZTIRN4piex12binary_parse19RangeCheckedBytePtrE",
   "source_file" : "external/piex/src/binary_parse/range_checked_byte_ptr.h"
  },
  {
   "function_name" : "piex::binary_parse::RangeCheckedBytePtr::operator++",
   "linker_set_key" : "_ZN4piex12binary_parse19RangeCheckedBytePtrppEi",
   "parameters" :
   [
    {
     "is_this_ptr" : true,
     "referenced_type" : "_ZTIPN4piex12binary_parse19RangeCheckedBytePtrE"
    },
    {
     "referenced_type" : "_ZTIi"
    }
   ],
   "return_type" : "_ZTIN4piex12binary_parse19RangeCheckedBytePtrE",
   "source_file" : "external/piex/src/binary_parse/range_checked_byte_ptr.h"
  },
  {
   "function_name" : "piex::binary_parse::RangeCheckedBytePtr::operator++",
   "linker_set_key" : "_ZN4piex12binary_parse19RangeCheckedBytePtrppEv",
   "parameters" :
   [
    {
     "is_this_ptr" : true,
     "referenced_type" : "_ZTIPN4piex12binary_parse19RangeCheckedBytePtrE"
    }
   ],
   "return_type" : "_ZTIRN4piex12binary_parse19RangeCheckedBytePtrE",
   "source_file" : "external/piex/src/binary_parse/range_checked_byte_ptr.h"
  },
  {
   "function_name" : "piex::binary_parse::CachedPagedByteArray::CachedPagedByteArray",
   "linker_set_key" : "_ZN4piex12binary_parse20CachedPagedByteArrayC1EPKNS0_14PagedByteArrayEm",
   "parameters" :
   [
    {
     "is_this_ptr" : true,
     "referenced_type" : "_ZTIPN4piex12binary_parse20CachedPagedByteArrayE"
    },
    {
     "referenced_type" : "_ZTIPKN4piex12binary_parse14PagedByteArrayE"
    },
    {
     "referenced_type" : "_ZTIm"
    }
   ],
   "return_type" : "_ZTIv",
   "source_file" : "external/piex/src/binary_parse/cached_paged_byte_array.h"
  },
  {
   "function_name" : "piex::binary_parse::CachedPagedByteArray::CachedPagedByteArray",
   "linker_set_key" : "_ZN4piex12binary_parse20CachedPagedByteArrayC2EPKNS0_14PagedByteArrayEm",
   "parameters" :
   [
    {
     "is_this_ptr" : true,
     "referenced_type" : "_ZTIPN4piex12binary_parse20CachedPagedByteArrayE"
    },
    {
     "referenced_type" : "_ZTIPKN4piex12binary_parse14PagedByteArrayE"
    },
    {
     "referenced_type" : "_ZTIm"
    }
   ],
   "return_type" : "_ZTIv",
   "source_file" : "external/piex/src/binary_parse/cached_paged_byte_array.h"
  },
  {
   "function_name" : "piex::binary_parse::operator-",
   "linker_set_key" : "_ZN4piex12binary_parsemiERKNS0_19RangeCheckedBytePtrEm",
   "parameters" :
   [
    {
     "referenced_type" : "_ZTIRKN4piex12binary_parse19RangeCheckedBytePtrE"
    },
    {
     "referenced_type" : "_ZTIm"
    }
   ],
   "return_type" : "_ZTIN4piex12binary_parse19RangeCheckedBytePtrE",
   "source_file" : "external/piex/src/binary_parse/range_checked_byte_ptr.h"
  },
  {
   "function_name" : "piex::binary_parse::operator+",
   "linker_set_key" : "_ZN4piex12binary_parseplERKNS0_19RangeCheckedBytePtrEm",
   "parameters" :
   [
    {
     "referenced_type" : "_ZTIRKN4piex12binary_parse19RangeCheckedBytePtrE"
    },
    {
     "referenced_type" : "_ZTIm"
    }
   ],
   "return_type" : "_ZTIN4piex12binary_parse19RangeCheckedBytePtrE",
   "source_file" : "external/piex/src/binary_parse/range_checked_byte_ptr.h"
  },
  {
   "function_name" : "piex::binary_parse::RangeCheckedBytePtr::errorOccurred",
   "linker_set_key" : "_ZNK4piex12binary_parse19RangeCheckedBytePtr13errorOccurredEv",
   "parameters" :
   [
    {
     "is_this_ptr" : true,
     "referenced_type" : "_ZTIPKN4piex12binary_parse19RangeCheckedBytePtrE"
    }
   ],
   "return_type" : "_ZTIb",
   "source_file" : "external/piex/src/binary_parse/range_checked_byte_ptr.h"
  },
  {
   "function_name" : "piex::binary_parse::RangeCheckedBytePtr::remainingLength",
   "linker_set_key" : "_ZNK4piex12binary_parse19RangeCheckedBytePtr15remainingLengthEv",
   "parameters" :
   [
    {
     "is_this_ptr" : true,
     "referenced_type" : "_ZTIPKN4piex12binary_parse19RangeCheckedBytePtrE"
    }
   ],
   "return_type" : "_ZTIm",
   "source_file" : "external/piex/src/binary_parse/range_checked_byte_ptr.h"
  },
  {
   "function_name" : "piex::binary_parse::RangeCheckedBytePtr::operator*",
   "linker_set_key" : "_ZNK4piex12binary_parse19RangeCheckedBytePtrdeEv",
   "parameters" :
   [
    {
     "is_this_ptr" : true,
     "referenced_type" : "_ZTIPKN4piex12binary_parse19RangeCheckedBytePtrE"
    }
   ],
   "return_type" : "_ZTIh",
   "source_file" : "external/piex/src/binary_parse/range_checked_byte_ptr.h"
  },
  {
   "function_name" : "piex::binary_parse::RangeCheckedBytePtr::operator[]",
   "linker_set_key" : "_ZNK4piex12binary_parse19RangeCheckedBytePtrixEm",
   "parameters" :
   [
    {
     "is_this_ptr" : true,
     "referenced_type" : "_ZTIPKN4piex12binary_parse19RangeCheckedBytePtrE"
    },
    {
     "referenced_type" : "_ZTIm"
    }
   ],
   "return_type" : "_ZTIh",
   "source_file" : "external/piex/src/binary_parse/range_checked_byte_ptr.h"
  },
  {
   "access" : "private",
   "function_name" : "piex::binary_parse::CachedPagedByteArray::getFromCache",
   "linker_set_key" : "_ZNK4piex12binary_parse20CachedPagedByteArray12getFromCacheEmPm",
   "parameters" :
   [
    {
     "is_this_ptr" : true,
     "referenced_type" : "_ZTIPKN4piex12binary_parse20CachedPagedByteArrayE"
    },
    {
     "referenced_type" : "_ZTIm"
    },
    {
     "referenced_type" : "_ZTIPm"
    }
   ],
   "return_type" : "_ZTIb",
   "source_file" : "external/piex/src/binary_parse/cached_paged_byte_array.h"
  },
  {
   "function_name" : "piex::binary_parse::CachedPagedByteArray::length",
   "linker_set_key" : "_ZNK4piex12binary_parse20CachedPagedByteArray6lengthEv",
   "parameters" :
   [
    {
     "is_this_ptr" : true,
     "referenced_type" : "_ZTIPKN4piex12binary_parse20CachedPagedByteArrayE"
    }
   ],
   "return_type" : "_ZTIm",
   "source_file" : "external/piex/src/binary_parse/cached_paged_byte_array.h"
  },
  {
   "function_name" : "piex::binary_parse::CachedPagedByteArray::getPage",
   "linker_set_key" : "_ZNK4piex12binary_parse20CachedPagedByteArray7getPageEmPPKhS4_PNSt3__110shared_ptrINS0_14PagedByteArray4PageEEE",
   "parameters" :
   [
    {
     "is_this_ptr" : true,
     "referenced_type" : "_ZTIPKN4piex12binary_parse20CachedPagedByteArrayE"
    },
    {
     "referenced_type" : "_ZTIm"
    },
    {
     "referenced_type" : "_ZTIPPKh"
    },
    {
     "referenced_type" : "_ZTIPPKh"
    },
    {
     "referenced_type" : "_ZTIPNSt3__110shared_ptrIN4piex12binary_parse14PagedByteArray4PageEEE"
    }
   ],
   "return_type" : "_ZTIv",
   "source_file" : "external/piex/src/binary_parse/cached_paged_byte_array.h"
  },
  {
   "function_name" : "piex::binary_parse::CachedPagedByteArray::pageSize",
   "linker_set_key" : "_ZNK4piex12binary_parse20CachedPagedByteArray8pageSizeEv",
   "parameters" :
   [
    {
     "is_this_ptr" : true,
     "referenced_type" : "_ZTIPKN4piex12binary_parse20CachedPagedByteArrayE"
    }
   ],
   "return_type" : "_ZTIm",
   "source_file" : "external/piex/src/binary_parse/cached_paged_byte_array.h"
  },
  {
   "function_name" : "std::exception_ptr::operator bool",
   "linker_set_key" : "_ZNKSt13exception_ptrcvbEv",
   "parameters" :
   [
    {
     "is_this_ptr" : true,
     "referenced_type" : "_ZTIPKSt13exception_ptr"
    }
   ],
   "return_type" : "_ZTIb",
   "source_file" : "external/libcxx/include/exception"
  },
  {
   "function_name" : "std::initializer_list<bool>::end",
   "linker_set_key" : "_ZNKSt16initializer_listIbE3endEv",
   "parameters" :
   [
    {
     "is_this_ptr" : true,
     "referenced_type" : "_ZTIPKSt16initializer_listIbE"
    }
   ],
   "return_type" : "_ZTIPKb",
   "source_file" : "external/libcxx/include/initializer_list"
  },
  {
   "function_name" : "std::initializer_list<bool>::size",
   "linker_set_key" : "_ZNKSt16initializer_listIbE4sizeEv",
   "parameters" :
   [
    {
     "is_this_ptr" : true,
     "referenced_type" : "_ZTIPKSt16initializer_listIbE"
    }
   ],
   "return_type" : "_ZTIm",
   "source_file" : "external/libcxx/include/initializer_list"
  },
  {
   "function_name" : "std::initializer_list<bool>::begin",
   "linker_set_key" : "_ZNKSt16initializer_listIbE5beginEv",
   "parameters" :
   [
    {
     "is_this_ptr" : true,
     "referenced_type" : "_ZTIPKSt16initializer_listIbE"
    }
   ],
   "return_type" : "_ZTIPKb",
   "source_file" : "external/libcxx/include/initializer_list"
  },
  {
   "function_name" : "std::nested_exception::nested_ptr",
   "linker_set_key" : "_ZNKSt16nested_exception10nested_ptrEv",
   "parameters" :
   [
    {
     "is_this_ptr" : true,
     "referenced_type" : "_ZTIPKSt16nested_exception"
    }
   ],
   "return_type" : "_ZTISt13exception_ptr",
   "source_file" : "external/libcxx/include/exception"
  },
  {
   "function_name" : "std::__1::error_code::default_error_condition",
   "linker_set_key" : "_ZNKSt3__110error_code23default_error_conditionEv",
   "parameters" :
   [
    {
     "is_this_ptr" : true,
     "referenced_type" : "_ZTIPKNSt3__110error_codeE"
    }
   ],
   "return_type" : "_ZTINSt3__115error_conditionE",
   "source_file" : "external/libcxx/include/system_error"
  },
  {
   "function_name" : "std::__1::error_code::value",
   "linker_set_key" : "_ZNKSt3__110error_code5valueEv",
   "parameters" :
   [
    {
     "is_this_ptr" : true,
     "referenced_type" : "_ZTIPKNSt3__110error_codeE"
    }
   ],
   "return_type" : "_ZTIi",
   "source_file" : "external/libcxx/include/system_error"
  },
  {
   "function_name" : "std::__1::error_code::category",
   "linker_set_key" : "_ZNKSt3__110error_code8categoryEv",
   "parameters" :
   [
    {
     "is_this_ptr" : true,
     "referenced_type" : "_ZTIPKNSt3__110error_codeE"
    }
   ],
   "return_type" : "_ZTIRKNSt3__114error_categoryE",
   "source_file" : "external/libcxx/include/system_error"
  },
  {
   "function_name" : "std::__1::error_code::operator bool",
   "linker_set_key" : "_ZNKSt3__110error_codecvbEv",
   "parameters" :
   [
    {
     "is_this_ptr" : true,
     "referenced_type" : "_ZTIPKNSt3__110error_codeE"
    }
   ],
   "return_type" : "_ZTIb",
   "source_file" : "external/libcxx/include/system_error"
  },
  {
   "function_name" : "std::__1::__wrap_iter<const piex::binary_parse::CachedPagedByteArray::CachedPage *>::base",
   "linker_set_key" : "_ZNKSt3__111__wrap_iterIPKN4piex12binary_parse20CachedPagedByteArray10CachedPageEE4baseEv",
   "parameters" :
   [
    {
     "is_this_ptr" : true,
     "referenced_type" : "_ZTIPKNSt3__111__wrap_iterIPKN4piex12binary_parse20CachedPagedByteArray10CachedPageEEE"
    }
   ],
   "return_type" : "_ZTIPKN4piex12binary_parse20CachedPagedByteArray10CachedPageE",
   "source_file" : "external/libcxx/include/iterator"
  },
  {
   "function_name" : "std::__1::__wrap_iter<piex::binary_parse::CachedPagedByteArray::CachedPage *>::base",
   "linker_set_key" : "_ZNKSt3__111__wrap_iterIPN4piex12binary_parse20CachedPagedByteArray10CachedPageEE4baseEv",
   "parameters" :
   [
    {
     "is_this_ptr" : true,
     "referenced_type" : "_ZTIPKNSt3__111__wrap_iterIPN4piex12binary_parse20CachedPagedByteArray10CachedPageEEE"
    }
   ],
   "return_type" : "_ZTIPN4piex12binary_parse20CachedPagedByteArray10CachedPageE",
   "source_file" : "external/libcxx/include/iterator"
  },
  {
   "function_name" : "std::__1::__wrap_iter<piex::binary_parse::CachedPagedByteArray::CachedPage *>::operator+",
   "linker_set_key" : "_ZNKSt3__111__wrap_iterIPN4piex12binary_parse20CachedPagedByteArray10CachedPageEEplEl",
   "parameters" :
   [
    {
     "is_this_ptr" : true,
     "referenced_type" : "_ZTIPKNSt3__111__wrap_iterIPN4piex12binary_parse20CachedPagedByteArray10CachedPageEEE"
    },
    {
     "referenced_type" : "_ZTIl"
    }
   ],
   "return_type" : "_ZTINSt3__111__wrap_iterIPN4piex12binary_parse20CachedPagedByteArray10CachedPageEEE",
   "source_file" : "external/libcxx/include/iterator"
  },
  {
   "access" : "private",
   "function_name" : "std::__1::basic_string<char32_t, std::__1::char_traits<char32_t>, std::__1::allocator<char32_t>>::__get_long_cap",
   "linker_set_key" : "_ZNKSt3__112basic_stringIDiNS_11char_traitsIDiEENS_9allocatorIDiEEE14__get_long_capEv",
   "parameters" :
   [
    {
     "is_this_ptr" : true,
     "referenced_type" : "_ZTIPKNSt3__112basic_stringIDiNS_11char_traitsIDiEENS_9allocatorIDiEEEE"
    }
   ],
   "return_type" : "_ZTIm",
   "source_file" : "external/libcxx/include/string"
  },
  {
   "access" : "private",
   "function_name" : "std::__1::basic_string<char32_t, std::__1::char_traits<char32_t>, std::__1::allocator<char32_t>>::__alloc",
   "linker_set_key" : "_ZNKSt3__112basic_stringIDiNS_11char_traitsIDiEENS_9allocatorIDiEEE7__allocEv",
   "parameters" :
   [
    {
     "is_this_ptr" : true,
     "referenced_type" : "_ZTIPKNSt3__112basic_stringIDiNS_11char_traitsIDiEENS_9allocatorIDiEEEE"
    }
   ],
   "return_type" : "_ZTIRKNSt3__19allocatorIDiEE",
   "source_file" : "external/libcxx/include/string"
  },
  {
   "function_name" : "std::__1::basic_string<char32_t, std::__1::char_traits<char32_t>, std::__1::allocator<char32_t>>::max_size",
   "linker_set_key" : "_ZNKSt3__112basic_stringIDiNS_11char_traitsIDiEENS_9allocatorIDiEEE8max_sizeEv",
   "parameters" :
   [
    {
     "is_this_ptr" : true,
     "referenced_type" : "_ZTIPKNSt3__112basic_stringIDiNS_11char_traitsIDiEENS_9allocatorIDiEEEE"
    }
   ],
   "return_type" : "_ZTIm",
   "source_file" : "external/libcxx/include/string"
  },
  {
   "function_name" : "std::__1::basic_string<char32_t, std::__1::char_traits<char32_t>, std::__1::allocator<char32_t>>::__is_long",
   "linker_set_key" : "_ZNKSt3__112basic_stringIDiNS_11char_traitsIDiEENS_9allocatorIDiEEE9__is_longEv",
   "parameters" :
   [
    {
     "is_this_ptr" : true,
     "referenced_type" : "_ZTIPKNSt3__112basic_stringIDiNS_11char_traitsIDiEENS_9allocatorIDiEEEE"
    }
   ],
   "return_type" : "_ZTIb",
   "source_file" : "external/libcxx/include/string"
  },
  {
   "access" : "private",
   "function_name" : "std::__1::basic_string<char16_t, std::__1::char_traits<char16_t>, std::__1::allocator<char16_t>>::__get_long_cap",
   "linker_set_key" : "_ZNKSt3__112basic_stringIDsNS_11char_traitsIDsEENS_9allocatorIDsEEE14__get_long_capEv",
   "parameters" :
   [
    {
     "is_this_ptr" : true,
     "referenced_type" : "_ZTIPKNSt3__112basic_stringIDsNS_11char_traitsIDsEENS_9allocatorIDsEEEE"
    }
   ],
   "return_type" : "_ZTIm",
   "source_file" : "external/libcxx/include/string"
  },
  {
   "access" : "private",
   "function_name" : "std::__1::basic_string<char16_t, std::__1::char_traits<char16_t>, std::__1::allocator<char16_t>>::__alloc",
   "linker_set_key" : "_ZNKSt3__112basic_stringIDsNS_11char_traitsIDsEENS_9allocatorIDsEEE7__allocEv",
   "parameters" :
   [
    {
     "is_this_ptr" : true,
     "referenced_type" : "_ZTIPKNSt3__112basic_stringIDsNS_11char_traitsIDsEENS_9allocatorIDsEEEE"
    }
   ],
   "return_type" : "_ZTIRKNSt3__19allocatorIDsEE",
   "source_file" : "external/libcxx/include/string"
  },
  {
   "function_name" : "std::__1::basic_string<char16_t, std::__1::char_traits<char16_t>, std::__1::allocator<char16_t>>::max_size",
   "linker_set_key" : "_ZNKSt3__112basic_stringIDsNS_11char_traitsIDsEENS_9allocatorIDsEEE8max_sizeEv",
   "parameters" :
   [
    {
     "is_this_ptr" : true,
     "referenced_type" : "_ZTIPKNSt3__112basic_stringIDsNS_11char_traitsIDsEENS_9allocatorIDsEEEE"
    }
   ],
   "return_type" : "_ZTIm",
   "source_file" : "external/libcxx/include/string"
  },
  {
   "function_name" : "std::__1::basic_string<char16_t, std::__1::char_traits<char16_t>, std::__1::allocator<char16_t>>::__is_long",
   "linker_set_key" : "_ZNKSt3__112basic_stringIDsNS_11char_traitsIDsEENS_9allocatorIDsEEE9__is_longEv",
   "parameters" :
   [
    {
     "is_this_ptr" : true,
     "referenced_type" : "_ZTIPKNSt3__112basic_stringIDsNS_11char_traitsIDsEENS_9allocatorIDsEEEE"
    }
   ],
   "return_type" : "_ZTIb",
   "source_file" : "external/libcxx/include/string"
  },
  {
   "access" : "private",
   "function_name" : "std::__1::basic_string<char, std::__1::char_traits<char>, std::__1::allocator<char>>::__get_long_cap",
   "linker_set_key" : "_ZNKSt3__112basic_stringIcNS_11char_traitsIcEENS_9allocatorIcEEE14__get_long_capEv",
   "parameters" :
   [
    {
     "is_this_ptr" : true,
     "referenced_type" : "_ZTIPKNSt3__112basic_stringIcNS_11char_traitsIcEENS_9allocatorIcEEEE"
    }
   ],
   "return_type" : "_ZTIm",
   "source_file" : "external/libcxx/include/string"
  },
  {
   "access" : "private",
   "function_name" : "std::__1::basic_string<char, std::__1::char_traits<char>, std::__1::allocator<char>>::__alloc",
   "linker_set_key" : "_ZNKSt3__112basic_stringIcNS_11char_traitsIcEENS_9allocatorIcEEE7__allocEv",
   "parameters" :
   [
    {
     "is_this_ptr" : true,
     "referenced_type" : "_ZTIPKNSt3__112basic_stringIcNS_11char_traitsIcEENS_9allocatorIcEEEE"
    }
   ],
   "return_type" : "_ZTIRKNSt3__19allocatorIcEE",
   "source_file" : "external/libcxx/include/string"
  },
  {
   "function_name" : "std::__1::basic_string<char, std::__1::char_traits<char>, std::__1::allocator<char>>::max_size",
   "linker_set_key" : "_ZNKSt3__112basic_stringIcNS_11char_traitsIcEENS_9allocatorIcEEE8max_sizeEv",
   "parameters" :
   [
    {
     "is_this_ptr" : true,
     "referenced_type" : "_ZTIPKNSt3__112basic_stringIcNS_11char_traitsIcEENS_9allocatorIcEEEE"
    }
   ],
   "return_type" : "_ZTIm",
   "source_file" : "external/libcxx/include/string"
  },
  {
   "function_name" : "std::__1::basic_string<char, std::__1::char_traits<char>, std::__1::allocator<char>>::__is_long",
   "linker_set_key" : "_ZNKSt3__112basic_stringIcNS_11char_traitsIcEENS_9allocatorIcEEE9__is_longEv",
   "parameters" :
   [
    {
     "is_this_ptr" : true,
     "referenced_type" : "_ZTIPKNSt3__112basic_stringIcNS_11char_traitsIcEENS_9allocatorIcEEEE"
    }
   ],
   "return_type" : "_ZTIb",
   "source_file" : "external/libcxx/include/string"
  },
  {
   "access" : "private",
   "function_name" : "std::__1::basic_string<wchar_t, std::__1::char_traits<wchar_t>, std::__1::allocator<wchar_t>>::__get_long_cap",
   "linker_set_key" : "_ZNKSt3__112basic_stringIwNS_11char_traitsIwEENS_9allocatorIwEEE14__get_long_capEv",
   "parameters" :
   [
    {
     "is_this_ptr" : true,
     "referenced_type" : "_ZTIPKNSt3__112basic_stringIwNS_11char_traitsIwEENS_9allocatorIwEEEE"
    }
   ],
   "return_type" : "_ZTIm",
   "source_file" : "external/libcxx/include/string"
  },
  {
   "access" : "private",
   "function_name" : "std::__1::basic_string<wchar_t, std::__1::char_traits<wchar_t>, std::__1::allocator<wchar_t>>::__alloc",
   "linker_set_key" : "_ZNKSt3__112basic_stringIwNS_11char_traitsIwEENS_9allocatorIwEEE7__allocEv",
   "parameters" :
   [
    {
     "is_this_ptr" : true,
     "referenced_type" : "_ZTIPKNSt3__112basic_stringIwNS_11char_traitsIwEENS_9allocatorIwEEEE"
    }
   ],
   "return_type" : "_ZTIRKNSt3__19allocatorIwEE",
   "source_file" : "external/libcxx/include/string"
  },
  {
   "function_name" : "std::__1::basic_string<wchar_t, std::__1::char_traits<wchar_t>, std::__1::allocator<wchar_t>>::max_size",
   "linker_set_key" : "_ZNKSt3__112basic_stringIwNS_11char_traitsIwEENS_9allocatorIwEEE8max_sizeEv",
   "parameters" :
   [
    {
     "is_this_ptr" : true,
     "referenced_type" : "_ZTIPKNSt3__112basic_stringIwNS_11char_traitsIwEENS_9allocatorIwEEEE"
    }
   ],
   "return_type" : "_ZTIm",
   "source_file" : "external/libcxx/include/string"
  },
  {
   "function_name" : "std::__1::basic_string<wchar_t, std::__1::char_traits<wchar_t>, std::__1::allocator<wchar_t>>::__is_long",
   "linker_set_key" : "_ZNKSt3__112basic_stringIwNS_11char_traitsIwEENS_9allocatorIwEEE9__is_longEv",
   "parameters" :
   [
    {
     "is_this_ptr" : true,
     "referenced_type" : "_ZTIPKNSt3__112basic_stringIwNS_11char_traitsIwEENS_9allocatorIwEEEE"
    }
   ],
   "return_type" : "_ZTIb",
   "source_file" : "external/libcxx/include/string"
  },
  {
   "function_name" : "std::__1::system_error::code",
   "linker_set_key" : "_ZNKSt3__112system_error4codeEv",
   "parameters" :
   [
    {
     "is_this_ptr" : true,
     "referenced_type" : "_ZTIPKNSt3__112system_errorE"
    }
   ],
   "return_type" : "_ZTIRKNSt3__110error_codeE",
   "source_file" : "external/libcxx/include/system_error"
  },
  {
   "function_name" : "std::__1::__scalar_hash<std::__1::_PairT, 2>::operator()",
   "linker_set_key" : "_ZNKSt3__113__scalar_hashINS_6_PairTELm2EEclES1_",
   "parameters" :
   [
    {
     "is_this_ptr" : true,
     "referenced_type" : "_ZTIPKNSt3__113__scalar_hashINS_6_PairTELm2EEE"
    },
    {
     "referenced_type" : "_ZTINSt3__16_PairTE"
    }
   ],
   "return_type" : "_ZTIm",
   "source_file" : "external/libcxx/include/utility"
  },
  {
   "function_name" : "std::__1::__scalar_hash<double, 1>::operator()",
   "linker_set_key" : "_ZNKSt3__113__scalar_hashIdLm1EEclEd",
   "parameters" :
   [
    {
     "is_this_ptr" : true,
     "referenced_type" : "_ZTIPKNSt3__113__scalar_hashIdLm1EEE"
    },
    {
     "referenced_type" : "_ZTId"
    }
   ],
   "return_type" : "_ZTIm",
   "source_file" : "external/libcxx/include/utility"
  },
  {
   "function_name" : "std::__1::__scalar_hash<long double, 2>::operator()",
   "linker_set_key" : "_ZNKSt3__113__scalar_hashIeLm2EEclEe",
   "parameters" :
   [
    {
     "is_this_ptr" : true,
     "referenced_type" : "_ZTIPKNSt3__113__scalar_hashIeLm2EEE"
    },
    {
     "referenced_type" : "_ZTIe"
    }
   ],
   "return_type" : "_ZTIm",
   "source_file" : "external/libcxx/include/utility"
  },
  {
   "function_name" : "std::__1::__scalar_hash<float, 0>::operator()",
   "linker_set_key" : "_ZNKSt3__113__scalar_hashIfLm0EEclEf",
   "parameters" :
   [
    {
     "is_this_ptr" : true,
     "referenced_type" : "_ZTIPKNSt3__113__scalar_hashIfLm0EEE"
    },
    {
     "referenced_type" : "_ZTIf"
    }
   ],
   "return_type" : "_ZTIm",
   "source_file" : "external/libcxx/include/utility"
  },
  {
   "access" : "protected",
   "function_name" : "std::__1::__vector_base<piex::binary_parse::CachedPagedByteArray::CachedPage, std::__1::allocator<piex::binary_parse::CachedPagedByteArray::CachedPage>>::__alloc",
   "linker_set_key" : "_ZNKSt3__113__vector_baseIN4piex12binary_parse20CachedPagedByteArray10CachedPageENS_9allocatorIS4_EEE7__allocEv",
   "parameters" :
   [
    {
     "is_this_ptr" : true,
     "referenced_type" : "_ZTIPKNSt3__113__vector_baseIN4piex12binary_parse20CachedPagedByteArray10CachedPageENS_9allocatorIS4_EEEE"
    }
   ],
   "return_type" : "_ZTIRKNSt3__19allocatorIN4piex12binary_parse20CachedPagedByteArray10CachedPageEEE",
   "source_file" : "external/libcxx/include/vector"
  },
  {
   "access" : "protected",
   "function_name" : "std::__1::__vector_base<piex::binary_parse::CachedPagedByteArray::CachedPage, std::__1::allocator<piex::binary_parse::CachedPagedByteArray::CachedPage>>::capacity",
   "linker_set_key" : "_ZNKSt3__113__vector_baseIN4piex12binary_parse20CachedPagedByteArray10CachedPageENS_9allocatorIS4_EEE8capacityEv",
   "parameters" :
   [
    {
     "is_this_ptr" : true,
     "referenced_type" : "_ZTIPKNSt3__113__vector_baseIN4piex12binary_parse20CachedPagedByteArray10CachedPageENS_9allocatorIS4_EEEE"
    }
   ],
   "return_type" : "_ZTIm",
   "source_file" : "external/libcxx/include/vector"
  },
  {
   "access" : "protected",
   "function_name" : "std::__1::__vector_base<piex::binary_parse::CachedPagedByteArray::CachedPage, std::__1::allocator<piex::binary_parse::CachedPagedByteArray::CachedPage>>::__end_cap",
   "linker_set_key" : "_ZNKSt3__113__vector_baseIN4piex12binary_parse20CachedPagedByteArray10CachedPageENS_9allocatorIS4_EEE9__end_capEv",
   "parameters" :
   [
    {
     "is_this_ptr" : true,
     "referenced_type" : "_ZTIPKNSt3__113__vector_baseIN4piex12binary_parse20CachedPagedByteArray10CachedPageENS_9allocatorIS4_EEEE"
    }
   ],
   "return_type" : "_ZTIRKPN4piex12binary_parse20CachedPagedByteArray10CachedPageE",
   "source_file" : "external/libcxx/include/vector"
  },
  {
   "function_name" : "std::__1::__shared_count::use_count",
   "linker_set_key" : "_ZNKSt3__114__shared_count9use_countEv",
   "parameters" :
   [
    {
     "is_this_ptr" : true,
     "referenced_type" : "_ZTIPKNSt3__114__shared_countE"
    }
   ],
   "return_type" : "_ZTIl",
   "source_file" : "external/libcxx/include/memory"
  },
  {
   "function_name" : "std::__1::__split_buffer<piex::binary_parse::CachedPagedByteArray::CachedPage, std::__1::allocator<piex::binary_parse::CachedPagedByteArray::CachedPage> &>::capacity",
   "linker_set_key" : "_ZNKSt3__114__split_bufferIN4piex12binary_parse20CachedPagedByteArray10CachedPageERNS_9allocatorIS4_EEE8capacityEv",
   "parameters" :
   [
    {
     "is_this_ptr" : true,
     "referenced_type" : "_ZTIPKNSt3__114__split_bufferIN4piex12binary_parse20CachedPagedByteArray10CachedPageERNS_9allocatorIS4_EEEE"
    }
   ],
   "return_type" : "_ZTIm",
   "source_file" : "external/libcxx/include/__split_buffer"
  },
  {
   "function_name" : "std::__1::__split_buffer<piex::binary_parse::CachedPagedByteArray::CachedPage, std::__1::allocator<piex::binary_parse::CachedPagedByteArray::CachedPage> &>::__end_cap",
   "linker_set_key" : "_ZNKSt3__114__split_bufferIN4piex12binary_parse20CachedPagedByteArray10CachedPageERNS_9allocatorIS4_EEE9__end_capEv",
   "parameters" :
   [
    {
     "is_this_ptr" : true,
     "referenced_type" : "_ZTIPKNSt3__114__split_bufferIN4piex12binary_parse20CachedPagedByteArray10CachedPageERNS_9allocatorIS4_EEEE"
    }
   ],
   "return_type" : "_ZTIRKPN4piex12binary_parse20CachedPagedByteArray10CachedPageE",
   "source_file" : "external/libcxx/include/__split_buffer"
  },
  {
   "function_name" : "std::__1::error_category::operator==",
   "linker_set_key" : "_ZNKSt3__114error_categoryeqERKS0_",
   "parameters" :
   [
    {
     "is_this_ptr" : true,
     "referenced_type" : "_ZTIPKNSt3__114error_categoryE"
    },
    {
     "referenced_type" : "_ZTIRKNSt3__114error_categoryE"
    }
   ],
   "return_type" : "_ZTIb",
   "source_file" : "external/libcxx/include/system_error"
  },
  {
   "function_name" : "std::__1::error_category::operator<",
   "linker_set_key" : "_ZNKSt3__114error_categoryltERKS0_",
   "parameters" :
   [
    {
     "is_this_ptr" : true,
     "referenced_type" : "_ZTIPKNSt3__114error_categoryE"
    },
    {
     "referenced_type" : "_ZTIRKNSt3__114error_categoryE"
    }
   ],
   "return_type" : "_ZTIb",
   "source_file" : "external/libcxx/include/system_error"
  },
  {
   "function_name" : "std::__1::error_category::operator!=",
   "linker_set_key" : "_ZNKSt3__114error_categoryneERKS0_",
   "parameters" :
   [
    {
     "is_this_ptr" : true,
     "referenced_type" : "_ZTIPKNSt3__114error_categoryE"
    },
    {
     "referenced_type" : "_ZTIRKNSt3__114error_categoryE"
    }
   ],
   "return_type" : "_ZTIb",
   "source_file" : "external/libcxx/include/system_error"
  },
  {
   "function_name" : "std::__1::pointer_safety::operator int",
   "linker_set_key" : "_ZNKSt3__114pointer_safetycviEv",
   "parameters" :
   [
    {
     "is_this_ptr" : true,
     "referenced_type" : "_ZTIPKNSt3__114pointer_safetyE"
    }
   ],
   "return_type" : "_ZTIi",
   "source_file" : "external/libcxx/include/memory"
  },
  {
   "function_name" : "std::__1::error_condition::value",
   "linker_set_key" : "_ZNKSt3__115error_condition5valueEv",
   "parameters" :
   [
    {
     "is_this_ptr" : true,
     "referenced_type" : "_ZTIPKNSt3__115error_conditionE"
    }
   ],
   "return_type" : "_ZTIi",
   "source_file" : "external/libcxx/include/system_error"
  },
  {
   "function_name" : "std::__1::error_condition::category",
   "linker_set_key" : "_ZNKSt3__115error_condition8categoryEv",
   "parameters" :
   [
    {
     "is_this_ptr" : true,
     "referenced_type" : "_ZTIPKNSt3__115error_conditionE"
    }
   ],
   "return_type" : "_ZTIRKNSt3__114error_categoryE",
   "source_file" : "external/libcxx/include/system_error"
  },
  {
   "function_name" : "std::__1::error_condition::operator bool",
   "linker_set_key" : "_ZNKSt3__115error_conditioncvbEv",
   "parameters" :
   [
    {
     "is_this_ptr" : true,
     "referenced_type" : "_ZTIPKNSt3__115error_conditionE"
    }
   ],
   "return_type" : "_ZTIb",
   "source_file" : "external/libcxx/include/system_error"
  },
  {
   "function_name" : "std::__1::__compressed_pair<std::__1::basic_string<char32_t, std::__1::char_traits<char32_t>, std::__1::allocator<char32_t>>::__rep, std::__1::allocator<char32_t>>::first",
   "linker_set_key" : "_ZNKSt3__117__compressed_pairINS_12basic_stringIDiNS_11char_traitsIDiEENS_9allocatorIDiEEE5__repES5_E5firstEv",
   "parameters" :
   [
    {
     "is_this_ptr" : true,
     "referenced_type" : "_ZTIPKNSt3__117__compressed_pairINS_12basic_stringIDiNS_11char_traitsIDiEENS_9allocatorIDiEEE5__repES5_EE"
    }
   ],
   "return_type" : "_ZTIRKNSt3__112basic_stringIDiNS_11char_traitsIDiEENS_9allocatorIDiEEE5__repE",
   "source_file" : "external/libcxx/include/memory"
  },
  {
   "function_name" : "std::__1::__compressed_pair<std::__1::basic_string<char32_t, std::__1::char_traits<char32_t>, std::__1::allocator<char32_t>>::__rep, std::__1::allocator<char32_t>>::second",
   "linker_set_key" : "_ZNKSt3__117__compressed_pairINS_12basic_stringIDiNS_11char_traitsIDiEENS_9allocatorIDiEEE5__repES5_E6secondEv",
   "parameters" :
   [
    {
     "is_this_ptr" : true,
     "referenced_type" : "_ZTIPKNSt3__117__compressed_pairINS_12basic_stringIDiNS_11char_traitsIDiEENS_9allocatorIDiEEE5__repES5_EE"
    }
   ],
   "return_type" : "_ZTIRKNSt3__19allocatorIDiEE",
   "source_file" : "external/libcxx/include/memory"
  },
  {
   "function_name" : "std::__1::__compressed_pair<std::__1::basic_string<char16_t, std::__1::char_traits<char16_t>, std::__1::allocator<char16_t>>::__rep, std::__1::allocator<char16_t>>::first",
   "linker_set_key" : "_ZNKSt3__117__compressed_pairINS_12basic_stringIDsNS_11char_traitsIDsEENS_9allocatorIDsEEE5__repES5_E5firstEv",
   "parameters" :
   [
    {
     "is_this_ptr" : true,
     "referenced_type" : "_ZTIPKNSt3__117__compressed_pairINS_12basic_stringIDsNS_11char_traitsIDsEENS_9allocatorIDsEEE5__repES5_EE"
    }
   ],
   "return_type" : "_ZTIRKNSt3__112basic_stringIDsNS_11char_traitsIDsEENS_9allocatorIDsEEE5__repE",
   "source_file" : "external/libcxx/include/memory"
  },
  {
   "function_name" : "std::__1::__compressed_pair<std::__1::basic_string<char16_t, std::__1::char_traits<char16_t>, std::__1::allocator<char16_t>>::__rep, std::__1::allocator<char16_t>>::second",
   "linker_set_key" : "_ZNKSt3__117__compressed_pairINS_12basic_stringIDsNS_11char_traitsIDsEENS_9allocatorIDsEEE5__repES5_E6secondEv",
   "parameters" :
   [
    {
     "is_this_ptr" : true,
     "referenced_type" : "_ZTIPKNSt3__117__compressed_pairINS_12basic_stringIDsNS_11char_traitsIDsEENS_9allocatorIDsEEE5__repES5_EE"
    }
   ],
   "return_type" : "_ZTIRKNSt3__19allocatorIDsEE",
   "source_file" : "external/libcxx/include/memory"
  },
  {
   "function_name" : "std::__1::__compressed_pair<std::__1::basic_string<char, std::__1::char_traits<char>, std::__1::allocator<char>>::__rep, std::__1::allocator<char>>::first",
   "linker_set_key" : "_ZNKSt3__117__compressed_pairINS_12basic_stringIcNS_11char_traitsIcEENS_9allocatorIcEEE5__repES5_E5firstEv",
   "parameters" :
   [
    {
     "is_this_ptr" : true,
     "referenced_type" : "_ZTIPKNSt3__117__compressed_pairINS_12basic_stringIcNS_11char_traitsIcEENS_9allocatorIcEEE5__repES5_EE"
    }
   ],
   "return_type" : "_ZTIRKNSt3__112basic_stringIcNS_11char_traitsIcEENS_9allocatorIcEEE5__repE",
   "source_file" : "external/libcxx/include/memory"
  },
  {
   "function_name" : "std::__1::__compressed_pair<std::__1::basic_string<char, std::__1::char_traits<char>, std::__1::allocator<char>>::__rep, std::__1::allocator<char>>::second",
   "linker_set_key" : "_ZNKSt3__117__compressed_pairINS_12basic_stringIcNS_11char_traitsIcEENS_9allocatorIcEEE5__repES5_E6secondEv",
   "parameters" :
   [
    {
     "is_this_ptr" : true,
     "referenced_type" : "_ZTIPKNSt3__117__compressed_pairINS_12basic_stringIcNS_11char_traitsIcEENS_9allocatorIcEEE5__repES5_EE"
    }
   ],
   "return_type" : "_ZTIRKNSt3__19allocatorIcEE",
   "source_file" : "external/libcxx/include/memory"
  },
  {
   "function_name" : "std::__1::__compressed_pair<std::__1::basic_string<wchar_t, std::__1::char_traits<wchar_t>, std::__1::allocator<wchar_t>>::__rep, std::__1::allocator<wchar_t>>::first",
   "linker_set_key" : "_ZNKSt3__117__compressed_pairINS_12basic_stringIwNS_11char_traitsIwEENS_9allocatorIwEEE5__repES5_E5firstEv",
   "parameters" :
   [
    {
     "is_this_ptr" : true,
     "referenced_type" : "_ZTIPKNSt3__117__compressed_pairINS_12basic_stringIwNS_11char_traitsIwEENS_9allocatorIwEEE5__repES5_EE"
    }
   ],
   "return_type" : "_ZTIRKNSt3__112basic_stringIwNS_11char_traitsIwEENS_9allocatorIwEEE5__repE",
   "source_file" : "external/libcxx/include/memory"
  },
  {
   "function_name" : "std::__1::__compressed_pair<std::__1::basic_string<wchar_t, std::__1::char_traits<wchar_t>, std::__1::allocator<wchar_t>>::__rep, std::__1::allocator<wchar_t>>::second",
   "linker_set_key" : "_ZNKSt3__117__compressed_pairINS_12basic_stringIwNS_11char_traitsIwEENS_9allocatorIwEEE5__repES5_E6secondEv",
   "parameters" :
   [
    {
     "is_this_ptr" : true,
     "referenced_type" : "_ZTIPKNSt3__117__compressed_pairINS_12basic_stringIwNS_11char_traitsIwEENS_9allocatorIwEEE5__repES5_EE"
    }
   ],
   "return_type" : "_ZTIRKNSt3__19allocatorIwEE",
   "source_file" : "external/libcxx/include/memory"
  },
  {
   "function_name" : "std::__1::__compressed_pair<piex::binary_parse::CachedPagedByteArray::CachedPage *, std::__1::allocator<piex::binary_parse::CachedPagedByteArray::CachedPage>>::first",
   "linker_set_key" : "_ZNKSt3__117__compressed_pairIPN4piex12binary_parse20CachedPagedByteArray10CachedPageENS_9allocatorIS4_EEE5firstEv",
   "parameters" :
   [
    {
     "is_this_ptr" : true,
     "referenced_type" : "_ZTIPKNSt3__117__compressed_pairIPN4piex12binary_parse20CachedPagedByteArray10CachedPageENS_9allocatorIS4_EEEE"
    }
   ],
   "return_type" : "_ZTIRKPN4piex12binary_parse20CachedPagedByteArray10CachedPageE",
   "source_file" : "external/libcxx/include/memory"
  },
  {
   "function_name" : "std::__1::__compressed_pair<piex::binary_parse::CachedPagedByteArray::CachedPage *, std::__1::allocator<piex::binary_parse::CachedPagedByteArray::CachedPage>>::second",
   "linker_set_key" : "_ZNKSt3__117__compressed_pairIPN4piex12binary_parse20CachedPagedByteArray10CachedPageENS_9allocatorIS4_EEE6secondEv",
   "parameters" :
   [
    {
     "is_this_ptr" : true,
     "referenced_type" : "_ZTIPKNSt3__117__compressed_pairIPN4piex12binary_parse20CachedPagedByteArray10CachedPageENS_9allocatorIS4_EEEE"
    }
   ],
   "return_type" : "_ZTIRKNSt3__19allocatorIN4piex12binary_parse20CachedPagedByteArray10CachedPageEEE",
   "source_file" : "external/libcxx/include/memory"
  },
  {
   "function_name" : "std::__1::__compressed_pair<piex::binary_parse::CachedPagedByteArray::CachedPage *, std::__1::allocator<piex::binary_parse::CachedPagedByteArray::CachedPage> &>::first",
   "linker_set_key" : "_ZNKSt3__117__compressed_pairIPN4piex12binary_parse20CachedPagedByteArray10CachedPageERNS_9allocatorIS4_EEE5firstEv",
   "parameters" :
   [
    {
     "is_this_ptr" : true,
     "referenced_type" : "_ZTIPKNSt3__117__compressed_pairIPN4piex12binary_parse20CachedPagedByteArray10CachedPageERNS_9allocatorIS4_EEEE"
    }
   ],
   "return_type" : "_ZTIRKPN4piex12binary_parse20CachedPagedByteArray10CachedPageE",
   "source_file" : "external/libcxx/include/memory"
  },
  {
   "function_name" : "std::__1::__libcpp_refstring::c_str",
   "linker_set_key" : "_ZNKSt3__118__libcpp_refstring5c_strEv",
   "parameters" :
   [
    {
     "is_this_ptr" : true,
     "referenced_type" : "_ZTIPKNSt3__118__libcpp_refstringE"
    }
   ],
   "return_type" : "_ZTIPKc",
   "source_file" : "external/libcxx/include/stdexcept"
  },
  {
   "function_name" : "std::__1::__shared_weak_count::use_count",
   "linker_set_key" : "_ZNKSt3__119__shared_weak_count9use_countEv",
   "parameters" :
   [
    {
     "is_this_ptr" : true,
     "referenced_type" : "_ZTIPKNSt3__119__shared_weak_countE"
    }
   ],
   "return_type" : "_ZTIl",
   "source_file" : "external/libcxx/include/memory"
  },
  {
   "function_name" : "std::__1::__compressed_pair_elem<std::__1::basic_string<char32_t, std::__1::char_traits<char32_t>, std::__1::allocator<char32_t>>::__rep, 0, false>::__get",
   "linker_set_key" : "_ZNKSt3__122__compressed_pair_elemINS_12basic_stringIDiNS_11char_traitsIDiEENS_9allocatorIDiEEE5__repELi0ELb0EE5__getEv",
   "parameters" :
   [
    {
     "is_this_ptr" : true,
     "referenced_type" : "_ZTIPKNSt3__122__compressed_pair_elemINS_12basic_stringIDiNS_11char_traitsIDiEENS_9allocatorIDiEEE5__repELi0ELb0EEE"
    }
   ],
   "return_type" : "_ZTIRKNSt3__112basic_stringIDiNS_11char_traitsIDiEENS_9allocatorIDiEEE5__repE",
   "source_file" : "external/libcxx/include/memory"
  },
  {
   "function_name" : "std::__1::__compressed_pair_elem<std::__1::basic_string<char16_t, std::__1::char_traits<char16_t>, std::__1::allocator<char16_t>>::__rep, 0, false>::__get",
   "linker_set_key" : "_ZNKSt3__122__compressed_pair_elemINS_12basic_stringIDsNS_11char_traitsIDsEENS_9allocatorIDsEEE5__repELi0ELb0EE5__getEv",
   "parameters" :
   [
    {
     "is_this_ptr" : true,
     "referenced_type" : "_ZTIPKNSt3__122__compressed_pair_elemINS_12basic_stringIDsNS_11char_traitsIDsEENS_9allocatorIDsEEE5__repELi0ELb0EEE"
    }
   ],
   "return_type" : "_ZTIRKNSt3__112basic_stringIDsNS_11char_traitsIDsEENS_9allocatorIDsEEE5__repE",
   "source_file" : "external/libcxx/include/memory"
  },
  {
   "function_name" : "std::__1::__compressed_pair_elem<std::__1::basic_string<char, std::__1::char_traits<char>, std::__1::allocator<char>>::__rep, 0, false>::__get",
   "linker_set_key" : "_ZNKSt3__122__compressed_pair_elemINS_12basic_stringIcNS_11char_traitsIcEENS_9allocatorIcEEE5__repELi0ELb0EE5__getEv",
   "parameters" :
   [
    {
     "is_this_ptr" : true,
     "referenced_type" : "_ZTIPKNSt3__122__compressed_pair_elemINS_12basic_stringIcNS_11char_traitsIcEENS_9allocatorIcEEE5__repELi0ELb0EEE"
    }
   ],
   "return_type" : "_ZTIRKNSt3__112basic_stringIcNS_11char_traitsIcEENS_9allocatorIcEEE5__repE",
   "source_file" : "external/libcxx/include/memory"
  },
  {
   "function_name" : "std::__1::__compressed_pair_elem<std::__1::basic_string<wchar_t, std::__1::char_traits<wchar_t>, std::__1::allocator<wchar_t>>::__rep, 0, false>::__get",
   "linker_set_key" : "_ZNKSt3__122__compressed_pair_elemINS_12basic_stringIwNS_11char_traitsIwEENS_9allocatorIwEEE5__repELi0ELb0EE5__getEv",
   "parameters" :
   [
    {
     "is_this_ptr" : true,
     "referenced_type" : "_ZTIPKNSt3__122__compressed_pair_elemINS_12basic_stringIwNS_11char_traitsIwEENS_9allocatorIwEEE5__repELi0ELb0EEE"
    }
   ],
   "return_type" : "_ZTIRKNSt3__112basic_stringIwNS_11char_traitsIwEENS_9allocatorIwEEE5__repE",
   "source_file" : "external/libcxx/include/memory"
  },
  {
   "function_name" : "std::__1::__compressed_pair_elem<std::__1::allocator<char32_t>, 1, true>::__get",
   "linker_set_key" : "_ZNKSt3__122__compressed_pair_elemINS_9allocatorIDiEELi1ELb1EE5__getEv",
   "parameters" :
   [
    {
     "is_this_ptr" : true,
     "referenced_type" : "_ZTIPKNSt3__122__compressed_pair_elemINS_9allocatorIDiEELi1ELb1EEE"
    }
   ],
   "return_type" : "_ZTIRKNSt3__19allocatorIDiEE",
   "source_file" : "external/libcxx/include/memory"
  },
  {
   "function_name" : "std::__1::__compressed_pair_elem<std::__1::allocator<char16_t>, 1, true>::__get",
   "linker_set_key" : "_ZNKSt3__122__compressed_pair_elemINS_9allocatorIDsEELi1ELb1EE5__getEv",
   "parameters" :
   [
    {
     "is_this_ptr" : true,
     "referenced_type" : "_ZTIPKNSt3__122__compressed_pair_elemINS_9allocatorIDsEELi1ELb1EEE"
    }
   ],
   "return_type" : "_ZTIRKNSt3__19allocatorIDsEE",
   "source_file" : "external/libcxx/include/memory"
  },
  {
   "function_name" : "std::__1::__compressed_pair_elem<std::__1::allocator<piex::binary_parse::CachedPagedByteArray::CachedPage>, 1, true>::__get",
   "linker_set_key" : "_ZNKSt3__122__compressed_pair_elemINS_9allocatorIN4piex12binary_parse20CachedPagedByteArray10CachedPageEEELi1ELb1EE5__getEv",
   "parameters" :
   [
    {
     "is_this_ptr" : true,
     "referenced_type" : "_ZTIPKNSt3__122__compressed_pair_elemINS_9allocatorIN4piex12binary_parse20CachedPagedByteArray10CachedPageEEELi1ELb1EEE"
    }
   ],
   "return_type" : "_ZTIRKNSt3__19allocatorIN4piex12binary_parse20CachedPagedByteArray10CachedPageEEE",
   "source_file" : "external/libcxx/include/memory"
  },
  {
   "function_name" : "std::__1::__compressed_pair_elem<std::__1::allocator<char>, 1, true>::__get",
   "linker_set_key" : "_ZNKSt3__122__compressed_pair_elemINS_9allocatorIcEELi1ELb1EE5__getEv",
   "parameters" :
   [
    {
     "is_this_ptr" : true,
     "referenced_type" : "_ZTIPKNSt3__122__compressed_pair_elemINS_9allocatorIcEELi1ELb1EEE"
    }
   ],
   "return_type" : "_ZTIRKNSt3__19allocatorIcEE",
   "source_file" : "external/libcxx/include/memory"
  },
  {
   "function_name" : "std::__1::__compressed_pair_elem<std::__1::allocator<wchar_t>, 1, true>::__get",
   "linker_set_key" : "_ZNKSt3__122__compressed_pair_elemINS_9allocatorIwEELi1ELb1EE5__getEv",
   "parameters" :
   [
    {
     "is_this_ptr" : true,
     "referenced_type" : "_ZTIPKNSt3__122__compressed_pair_elemINS_9allocatorIwEELi1ELb1EEE"
    }
   ],
   "return_type" : "_ZTIRKNSt3__19allocatorIwEE",
   "source_file" : "external/libcxx/include/memory"
  },
  {
   "function_name" : "std::__1::__compressed_pair_elem<piex::binary_parse::CachedPagedByteArray::CachedPage *, 0, false>::__get",
   "linker_set_key" : "_ZNKSt3__122__compressed_pair_elemIPN4piex12binary_parse20CachedPagedByteArray10CachedPageELi0ELb0EE5__getEv",
   "parameters" :
   [
    {
     "is_this_ptr" : true,
     "referenced_type" : "_ZTIPKNSt3__122__compressed_pair_elemIPN4piex12binary_parse20CachedPagedByteArray10CachedPageELi0ELb0EEE"
    }
   ],
   "return_type" : "_ZTIRKPN4piex12binary_parse20CachedPagedByteArray10CachedPageE",
   "source_file" : "external/libcxx/include/memory"
  },
  {
   "function_name" : "std::__1::hash<char32_t>::operator()",
   "linker_set_key" : "_ZNKSt3__14hashIDiEclEDi",
   "parameters" :
   [
    {
     "is_this_ptr" : true,
     "referenced_type" : "_ZTIPKNSt3__14hashIDiEE"
    },
    {
     "referenced_type" : "_ZTIDi"
    }
   ],
   "return_type" : "_ZTIm",
   "source_file" : "external/libcxx/include/utility"
  },
  {
   "function_name" : "std::__1::hash<nullptr_t>::operator()",
   "linker_set_key" : "_ZNKSt3__14hashIDnEclEDn",
   "parameters" :
   [
    {
     "is_this_ptr" : true,
     "referenced_type" : "_ZTIPKNSt3__14hashIDnEE"
    },
    {
     "referenced_type" : "_ZTIDn"
    }
   ],
   "return_type" : "_ZTIm",
   "source_file" : "external/libcxx/include/utility"
  },
  {
   "function_name" : "std::__1::hash<char16_t>::operator()",
   "linker_set_key" : "_ZNKSt3__14hashIDsEclEDs",
   "parameters" :
   [
    {
     "is_this_ptr" : true,
     "referenced_type" : "_ZTIPKNSt3__14hashIDsEE"
    },
    {
     "referenced_type" : "_ZTIDs"
    }
   ],
   "return_type" : "_ZTIm",
   "source_file" : "external/libcxx/include/utility"
  },
  {
   "function_name" : "std::__1::hash<std::__1::error_code>::operator()",
   "linker_set_key" : "_ZNKSt3__14hashINS_10error_codeEEclERKS1_",
   "parameters" :
   [
    {
     "is_this_ptr" : true,
     "referenced_type" : "_ZTIPKNSt3__14hashINS_10error_codeEEE"
    },
    {
     "referenced_type" : "_ZTIRKNSt3__110error_codeE"
    }
   ],
   "return_type" : "_ZTIm",
   "source_file" : "external/libcxx/include/system_error"
  },
  {
   "function_name" : "std::__1::hash<std::__1::error_condition>::operator()",
   "linker_set_key" : "_ZNKSt3__14hashINS_15error_conditionEEclERKS1_",
   "parameters" :
   [
    {
     "is_this_ptr" : true,
     "referenced_type" : "_ZTIPKNSt3__14hashINS_15error_conditionEEE"
    },
    {
     "referenced_type" : "_ZTIRKNSt3__115error_conditionE"
    }
   ],
   "return_type" : "_ZTIm",
   "source_file" : "external/libcxx/include/system_error"
  },
  {
   "function_name" : "std::__1::hash<signed char>::operator()",
   "linker_set_key" : "_ZNKSt3__14hashIaEclEa",
   "parameters" :
   [
    {
     "is_this_ptr" : true,
     "referenced_type" : "_ZTIPKNSt3__14hashIaEE"
    },
    {
     "referenced_type" : "_ZTIa"
    }
   ],
   "return_type" : "_ZTIm",
   "source_file" : "external/libcxx/include/utility"
  },
  {
   "function_name" : "std::__1::hash<bool>::operator()",
   "linker_set_key" : "_ZNKSt3__14hashIbEclEb",
   "parameters" :
   [
    {
     "is_this_ptr" : true,
     "referenced_type" : "_ZTIPKNSt3__14hashIbEE"
    },
    {
     "referenced_type" : "_ZTIb"
    }
   ],
   "return_type" : "_ZTIm",
   "source_file" : "external/libcxx/include/utility"
  },
  {
   "function_name" : "std::__1::hash<char>::operator()",
   "linker_set_key" : "_ZNKSt3__14hashIcEclEc",
   "parameters" :
   [
    {
     "is_this_ptr" : true,
     "referenced_type" : "_ZTIPKNSt3__14hashIcEE"
    },
    {
     "referenced_type" : "_ZTIc"
    }
   ],
   "return_type" : "_ZTIm",
   "source_file" : "external/libcxx/include/utility"
  },
  {
   "function_name" : "std::__1::hash<double>::operator()",
   "linker_set_key" : "_ZNKSt3__14hashIdEclEd",
   "parameters" :
   [
    {
     "is_this_ptr" : true,
     "referenced_type" : "_ZTIPKNSt3__14hashIdEE"
    },
    {
     "referenced_type" : "_ZTId"
    }
   ],
   "return_type" : "_ZTIm",
   "source_file" : "external/libcxx/include/utility"
  },
  {
   "function_name" : "std::__1::hash<long double>::operator()",
   "linker_set_key" : "_ZNKSt3__14hashIeEclEe",
   "parameters" :
   [
    {
     "is_this_ptr" : true,
     "referenced_type" : "_ZTIPKNSt3__14hashIeEE"
    },
    {
     "referenced_type" : "_ZTIe"
    }
   ],
   "return_type" : "_ZTIm",
   "source_file" : "external/libcxx/include/utility"
  },
  {
   "function_name" : "std::__1::hash<float>::operator()",
   "linker_set_key" : "_ZNKSt3__14hashIfEclEf",
   "parameters" :
   [
    {
     "is_this_ptr" : true,
     "referenced_type" : "_ZTIPKNSt3__14hashIfEE"
    },
    {
     "referenced_type" : "_ZTIf"
    }
   ],
   "return_type" : "_ZTIm",
   "source_file" : "external/libcxx/include/utility"
  },
  {
   "function_name" : "std::__1::hash<unsigned char>::operator()",
   "linker_set_key" : "_ZNKSt3__14hashIhEclEh",
   "parameters" :
   [
    {
     "is_this_ptr" : true,
     "referenced_type" : "_ZTIPKNSt3__14hashIhEE"
    },
    {
     "referenced_type" : "_ZTIh"
    }
   ],
   "return_type" : "_ZTIm",
   "source_file" : "external/libcxx/include/utility"
  },
  {
   "function_name" : "std::__1::hash<int>::operator()",
   "linker_set_key" : "_ZNKSt3__14hashIiEclEi",
   "parameters" :
   [
    {
     "is_this_ptr" : true,
     "referenced_type" : "_ZTIPKNSt3__14hashIiEE"
    },
    {
     "referenced_type" : "_ZTIi"
    }
   ],
   "return_type" : "_ZTIm",
   "source_file" : "external/libcxx/include/utility"
  },
  {
   "function_name" : "std::__1::hash<unsigned int>::operator()",
   "linker_set_key" : "_ZNKSt3__14hashIjEclEj",
   "parameters" :
   [
    {
     "is_this_ptr" : true,
     "referenced_type" : "_ZTIPKNSt3__14hashIjEE"
    },
    {
     "referenced_type" : "_ZTIj"
    }
   ],
   "return_type" : "_ZTIm",
   "source_file" : "external/libcxx/include/utility"
  },
  {
   "function_name" : "std::__1::hash<long>::operator()",
   "linker_set_key" : "_ZNKSt3__14hashIlEclEl",
   "parameters" :
   [
    {
     "is_this_ptr" : true,
     "referenced_type" : "_ZTIPKNSt3__14hashIlEE"
    },
    {
     "referenced_type" : "_ZTIl"
    }
   ],
   "return_type" : "_ZTIm",
   "source_file" : "external/libcxx/include/utility"
  },
  {
   "function_name" : "std::__1::hash<unsigned long>::operator()",
   "linker_set_key" : "_ZNKSt3__14hashImEclEm",
   "parameters" :
   [
    {
     "is_this_ptr" : true,
     "referenced_type" : "_ZTIPKNSt3__14hashImEE"
    },
    {
     "referenced_type" : "_ZTIm"
    }
   ],
   "return_type" : "_ZTIm",
   "source_file" : "external/libcxx/include/utility"
  },
  {
   "function_name" : "std::__1::hash<short>::operator()",
   "linker_set_key" : "_ZNKSt3__14hashIsEclEs",
   "parameters" :
   [
    {
     "is_this_ptr" : true,
     "referenced_type" : "_ZTIPKNSt3__14hashIsEE"
    },
    {
     "referenced_type" : "_ZTIs"
    }
   ],
   "return_type" : "_ZTIm",
   "source_file" : "external/libcxx/include/utility"
  },
  {
   "function_name" : "std::__1::hash<unsigned short>::operator()",
   "linker_set_key" : "_ZNKSt3__14hashItEclEt",
   "parameters" :
   [
    {
     "is_this_ptr" : true,
     "referenced_type" : "_ZTIPKNSt3__14hashItEE"
    },
    {
     "referenced_type" : "_ZTIt"
    }
   ],
   "return_type" : "_ZTIm",
   "source_file" : "external/libcxx/include/utility"
  },
  {
   "function_name" : "std::__1::hash<wchar_t>::operator()",
   "linker_set_key" : "_ZNKSt3__14hashIwEclEw",
   "parameters" :
   [
    {
     "is_this_ptr" : true,
     "referenced_type" : "_ZTIPKNSt3__14hashIwEE"
    },
    {
     "referenced_type" : "_ZTIw"
    }
   ],
   "return_type" : "_ZTIm",
   "source_file" : "external/libcxx/include/utility"
  },
  {
   "function_name" : "std::__1::__less<unsigned long, unsigned long>::operator()",
   "linker_set_key" : "_ZNKSt3__16__lessImmEclERKmS3_",
   "parameters" :
   [
    {
     "is_this_ptr" : true,
     "referenced_type" : "_ZTIPKNSt3__16__lessImmEE"
    },
    {
     "referenced_type" : "_ZTIRKm"
    },
    {
     "referenced_type" : "_ZTIRKm"
    }
   ],
   "return_type" : "_ZTIb",
   "source_file" : "external/libcxx/include/algorithm"
  },
  {
   "function_name" : "std::__1::chrono::time_point<std::__1::chrono::steady_clock, std::__1::chrono::duration<long long, std::__1::ratio<1, 1000000000>>>::time_since_epoch",
   "linker_set_key" : "_ZNKSt3__16chrono10time_pointINS0_12steady_clockENS0_8durationIxNS_5ratioILl1ELl1000000000EEEEEE16time_since_epochEv",
   "parameters" :
   [
    {
     "is_this_ptr" : true,
     "referenced_type" : "_ZTIPKNSt3__16chrono10time_pointINS0_12steady_clockENS0_8durationIxNS_5ratioILl1ELl1000000000EEEEEEE"
    }
   ],
   "return_type" : "_ZTINSt3__16chrono8durationIxNS_5ratioILl1ELl1000000000EEEEE",
   "source_file" : "external/libcxx/include/chrono"
  },
  {
   "function_name" : "std::__1::chrono::time_point<std::__1::chrono::system_clock, std::__1::chrono::duration<long long, std::__1::ratio<1, 1000000000>>>::time_since_epoch",
   "linker_set_key" : "_ZNKSt3__16chrono10time_pointINS0_12system_clockENS0_8durationIxNS_5ratioILl1ELl1000000000EEEEEE16time_since_epochEv",
   "parameters" :
   [
    {
     "is_this_ptr" : true,
     "referenced_type" : "_ZTIPKNSt3__16chrono10time_pointINS0_12system_clockENS0_8durationIxNS_5ratioILl1ELl1000000000EEEEEEE"
    }
   ],
   "return_type" : "_ZTINSt3__16chrono8durationIxNS_5ratioILl1ELl1000000000EEEEE",
   "source_file" : "external/libcxx/include/chrono"
  },
  {
   "function_name" : "std::__1::chrono::time_point<std::__1::__fs::filesystem::_FilesystemClock, std::__1::chrono::duration<__int128, std::__1::ratio<1, 1000000000>>>::time_since_epoch",
   "linker_set_key" : "_ZNKSt3__16chrono10time_pointINS_4__fs10filesystem16_FilesystemClockENS0_8durationInNS_5ratioILl1ELl1000000000EEEEEE16time_since_epochEv",
   "parameters" :
   [
    {
     "is_this_ptr" : true,
     "referenced_type" : "_ZTIPKNSt3__16chrono10time_pointINS_4__fs10filesystem16_FilesystemClockENS0_8durationInNS_5ratioILl1ELl1000000000EEEEEEE"
    }
   ],
   "return_type" : "_ZTINSt3__16chrono8durationInNS_5ratioILl1ELl1000000000EEEEE",
   "source_file" : "external/libcxx/include/chrono"
  },
  {
   "function_name" : "std::__1::chrono::__duration_cast<std::__1::chrono::duration<__int128, std::__1::ratio<1, 1000000000>>, std::__1::chrono::duration<__int128, std::__1::ratio<1, 1>>, std::__1::ratio<1, 1000000000>, true, false>::operator()",
   "linker_set_key" : "_ZNKSt3__16chrono15__duration_castINS0_8durationInNS_5ratioILl1ELl1000000000EEEEENS2_InNS3_ILl1ELl1EEEEES4_Lb1ELb0EEclERKS5_",
   "parameters" :
   [
    {
     "is_this_ptr" : true,
     "referenced_type" : "_ZTIPKNSt3__16chrono15__duration_castINS0_8durationInNS_5ratioILl1ELl1000000000EEEEENS2_InNS3_ILl1ELl1EEEEES4_Lb1ELb0EEE"
    },
    {
     "referenced_type" : "_ZTIRKNSt3__16chrono8durationInNS_5ratioILl1ELl1000000000EEEEE"
    }
   ],
   "return_type" : "_ZTINSt3__16chrono8durationInNS_5ratioILl1ELl1EEEEE",
   "source_file" : "external/libcxx/include/chrono"
  },
  {
   "function_name" : "std::__1::chrono::__duration_cast<std::__1::chrono::duration<__int128, std::__1::ratio<1, 1>>, std::__1::chrono::duration<__int128, std::__1::ratio<1, 1000000000>>, std::__1::ratio<1000000000, 1>, false, true>::operator()",
   "linker_set_key" : "_ZNKSt3__16chrono15__duration_castINS0_8durationInNS_5ratioILl1ELl1EEEEENS2_InNS3_ILl1ELl1000000000EEEEENS3_ILl1000000000ELl1EEELb0ELb1EEclERKS5_",
   "parameters" :
   [
    {
     "is_this_ptr" : true,
     "referenced_type" : "_ZTIPKNSt3__16chrono15__duration_castINS0_8durationInNS_5ratioILl1ELl1EEEEENS2_InNS3_ILl1ELl1000000000EEEEENS3_ILl1000000000ELl1EEELb0ELb1EEE"
    },
    {
     "referenced_type" : "_ZTIRKNSt3__16chrono8durationInNS_5ratioILl1ELl1EEEEE"
    }
   ],
   "return_type" : "_ZTINSt3__16chrono8durationInNS_5ratioILl1ELl1000000000EEEEE",
   "source_file" : "external/libcxx/include/chrono"
  },
  {
   "function_name" : "std::__1::chrono::__duration_cast<std::__1::chrono::duration<long long, std::__1::ratio<1, 1000000000>>, std::__1::chrono::duration<long double, std::__1::ratio<1, 1000000000>>, std::__1::ratio<1, 1>, true, true>::operator()",
   "linker_set_key" : "_ZNKSt3__16chrono15__duration_castINS0_8durationIxNS_5ratioILl1ELl1000000000EEEEENS2_IeS4_EENS3_ILl1ELl1EEELb1ELb1EEclERKS5_",
   "parameters" :
   [
    {
     "is_this_ptr" : true,
     "referenced_type" : "_ZTIPKNSt3__16chrono15__duration_castINS0_8durationIxNS_5ratioILl1ELl1000000000EEEEENS2_IeS4_EENS3_ILl1ELl1EEELb1ELb1EEE"
    },
    {
     "referenced_type" : "_ZTIRKNSt3__16chrono8durationIxNS_5ratioILl1ELl1000000000EEEEE"
    }
   ],
   "return_type" : "_ZTINSt3__16chrono8durationIeNS_5ratioILl1ELl1000000000EEEEE",
   "source_file" : "external/libcxx/include/chrono"
  },
  {
   "function_name" : "std::__1::chrono::__duration_cast<std::__1::chrono::duration<long long, std::__1::ratio<1, 1000000000>>, std::__1::chrono::duration<long long, std::__1::ratio<1, 1>>, std::__1::ratio<1, 1000000000>, true, false>::operator()",
   "linker_set_key" : "_ZNKSt3__16chrono15__duration_castINS0_8durationIxNS_5ratioILl1ELl1000000000EEEEENS2_IxNS3_ILl1ELl1EEEEES4_Lb1ELb0EEclERKS5_",
   "parameters" :
   [
    {
     "is_this_ptr" : true,
     "referenced_type" : "_ZTIPKNSt3__16chrono15__duration_castINS0_8durationIxNS_5ratioILl1ELl1000000000EEEEENS2_IxNS3_ILl1ELl1EEEEES4_Lb1ELb0EEE"
    },
    {
     "referenced_type" : "_ZTIRKNSt3__16chrono8durationIxNS_5ratioILl1ELl1000000000EEEEE"
    }
   ],
   "return_type" : "_ZTINSt3__16chrono8durationIxNS_5ratioILl1ELl1EEEEE",
   "source_file" : "external/libcxx/include/chrono"
  },
  {
   "function_name" : "std::__1::chrono::__duration_cast<std::__1::chrono::duration<long long, std::__1::ratio<1, 1>>, std::__1::chrono::duration<long long, std::__1::ratio<1, 1000000000>>, std::__1::ratio<1000000000, 1>, false, true>::operator()",
   "linker_set_key" : "_ZNKSt3__16chrono15__duration_castINS0_8durationIxNS_5ratioILl1ELl1EEEEENS2_IxNS3_ILl1ELl1000000000EEEEENS3_ILl1000000000ELl1EEELb0ELb1EEclERKS5_",
   "parameters" :
   [
    {
     "is_this_ptr" : true,
     "referenced_type" : "_ZTIPKNSt3__16chrono15__duration_castINS0_8durationIxNS_5ratioILl1ELl1EEEEENS2_IxNS3_ILl1ELl1000000000EEEEENS3_ILl1000000000ELl1EEELb0ELb1EEE"
    },
    {
     "referenced_type" : "_ZTIRKNSt3__16chrono8durationIxNS_5ratioILl1ELl1EEEEE"
    }
   ],
   "return_type" : "_ZTINSt3__16chrono8durationIxNS_5ratioILl1ELl1000000000EEEEE",
   "source_file" : "external/libcxx/include/chrono"
  },
  {
   "function_name" : "std::__1::chrono::duration<long double, std::__1::ratio<1, 1000000000>>::count",
   "linker_set_key" : "_ZNKSt3__16chrono8durationIeNS_5ratioILl1ELl1000000000EEEE5countEv",
   "parameters" :
   [
    {
     "is_this_ptr" : true,
     "referenced_type" : "_ZTIPKNSt3__16chrono8durationIeNS_5ratioILl1ELl1000000000EEEEE"
    }
   ],
   "return_type" : "_ZTIe",
   "source_file" : "external/libcxx/include/chrono"
  },
  {
   "function_name" : "std::__1::chrono::duration<__int128, std::__1::ratio<1, 1000000000>>::count",
   "linker_set_key" : "_ZNKSt3__16chrono8durationInNS_5ratioILl1ELl1000000000EEEE5countEv",
   "parameters" :
   [
    {
     "is_this_ptr" : true,
     "referenced_type" : "_ZTIPKNSt3__16chrono8durationInNS_5ratioILl1ELl1000000000EEEEE"
    }
   ],
   "return_type" : "_ZTIn",
   "source_file" : "external/libcxx/include/chrono"
  },
  {
   "function_name" : "std::__1::chrono::duration<__int128, std::__1::ratio<1, 1>>::count",
   "linker_set_key" : "_ZNKSt3__16chrono8durationInNS_5ratioILl1ELl1EEEE5countEv",
   "parameters" :
   [
    {
     "is_this_ptr" : true,
     "referenced_type" : "_ZTIPKNSt3__16chrono8durationInNS_5ratioILl1ELl1EEEEE"
    }
   ],
   "return_type" : "_ZTIn",
   "source_file" : "external/libcxx/include/chrono"
  },
  {
   "function_name" : "std::__1::chrono::duration<long long, std::__1::ratio<1, 1000000000>>::count",
   "linker_set_key" : "_ZNKSt3__16chrono8durationIxNS_5ratioILl1ELl1000000000EEEE5countEv",
   "parameters" :
   [
    {
     "is_this_ptr" : true,
     "referenced_type" : "_ZTIPKNSt3__16chrono8durationIxNS_5ratioILl1ELl1000000000EEEEE"
    }
   ],
   "return_type" : "_ZTIx",
   "source_file" : "external/libcxx/include/chrono"
  },
  {
   "function_name" : "std::__1::chrono::duration<long long, std::__1::ratio<1, 1>>::count",
   "linker_set_key" : "_ZNKSt3__16chrono8durationIxNS_5ratioILl1ELl1EEEE5countEv",
   "parameters" :
   [
    {
     "is_this_ptr" : true,
     "referenced_type" : "_ZTIPKNSt3__16chrono8durationIxNS_5ratioILl1ELl1EEEEE"
    }
   ],
   "return_type" : "_ZTIx",
   "source_file" : "external/libcxx/include/chrono"
  },
  {
   "access" : "private",
   "function_name" : "std::__1::vector<piex::binary_parse::CachedPagedByteArray::CachedPage, std::__1::allocator<piex::binary_parse::CachedPagedByteArray::CachedPage>>::__make_iter",
   "linker_set_key" : "_ZNKSt3__16vectorIN4piex12binary_parse20CachedPagedByteArray10CachedPageENS_9allocatorIS4_EEE11__make_iterEPKS4_",
   "parameters" :
   [
    {
     "is_this_ptr" : true,
     "referenced_type" : "_ZTIPKNSt3__16vectorIN4piex12binary_parse20CachedPagedByteArray10CachedPageENS_9allocatorIS4_EEEE"
    },
    {
     "referenced_type" : "_ZTIPKN4piex12binary_parse20CachedPagedByteArray10CachedPageE"
    }
   ],
   "return_type" : "_ZTINSt3__111__wrap_iterIPKN4piex12binary_parse20CachedPagedByteArray10CachedPageEEE",
   "source_file" : "external/libcxx/include/vector"
  },
  {
   "access" : "private",
   "function_name" : "std::__1::vector<piex::binary_parse::CachedPagedByteArray::CachedPage, std::__1::allocator<piex::binary_parse::CachedPagedByteArray::CachedPage>>::__recommend",
   "linker_set_key" : "_ZNKSt3__16vectorIN4piex12binary_parse20CachedPagedByteArray10CachedPageENS_9allocatorIS4_EEE11__recommendEm",
   "parameters" :
   [
    {
     "is_this_ptr" : true,
     "referenced_type" : "_ZTIPKNSt3__16vectorIN4piex12binary_parse20CachedPagedByteArray10CachedPageENS_9allocatorIS4_EEEE"
    },
    {
     "referenced_type" : "_ZTIm"
    }
   ],
   "return_type" : "_ZTIm",
   "source_file" : "external/libcxx/include/vector"
  },
  {
   "access" : "private",
   "function_name" : "std::__1::vector<piex::binary_parse::CachedPagedByteArray::CachedPage, std::__1::allocator<piex::binary_parse::CachedPagedByteArray::CachedPage>>::__annotate_new",
   "linker_set_key" : "_ZNKSt3__16vectorIN4piex12binary_parse20CachedPagedByteArray10CachedPageENS_9allocatorIS4_EEE14__annotate_newEm",
   "parameters" :
   [
    {
     "is_this_ptr" : true,
     "referenced_type" : "_ZTIPKNSt3__16vectorIN4piex12binary_parse20CachedPagedByteArray10CachedPageENS_9allocatorIS4_EEEE"
    },
    {
     "referenced_type" : "_ZTIm"
    }
   ],
   "return_type" : "_ZTIv",
   "source_file" : "external/libcxx/include/vector"
  },
  {
   "access" : "private",
   "function_name" : "std::__1::vector<piex::binary_parse::CachedPagedByteArray::CachedPage, std::__1::allocator<piex::binary_parse::CachedPagedByteArray::CachedPage>>::__annotate_delete",
   "linker_set_key" : "_ZNKSt3__16vectorIN4piex12binary_parse20CachedPagedByteArray10CachedPageENS_9allocatorIS4_EEE17__annotate_deleteEv",
   "parameters" :
   [
    {
     "is_this_ptr" : true,
     "referenced_type" : "_ZTIPKNSt3__16vectorIN4piex12binary_parse20CachedPagedByteArray10CachedPageENS_9allocatorIS4_EEEE"
    }
   ],
   "return_type" : "_ZTIv",
   "source_file" : "external/libcxx/include/vector"
  },
  {
   "access" : "private",
   "function_name" : "std::__1::vector<piex::binary_parse::CachedPagedByteArray::CachedPage, std::__1::allocator<piex::binary_parse::CachedPagedByteArray::CachedPage>>::__annotate_shrink",
   "linker_set_key" : "_ZNKSt3__16vectorIN4piex12binary_parse20CachedPagedByteArray10CachedPageENS_9allocatorIS4_EEE17__annotate_shrinkEm",
   "parameters" :
   [
    {
     "is_this_ptr" : true,
     "referenced_type" : "_ZTIPKNSt3__16vectorIN4piex12binary_parse20CachedPagedByteArray10CachedPageENS_9allocatorIS4_EEEE"
    },
    {
     "referenced_type" : "_ZTIm"
    }
   ],
   "return_type" : "_ZTIv",
   "source_file" : "external/libcxx/include/vector"
  },
  {
   "access" : "private",
   "function_name" : "std::__1::vector<piex::binary_parse::CachedPagedByteArray::CachedPage, std::__1::allocator<piex::binary_parse::CachedPagedByteArray::CachedPage>>::__annotate_contiguous_container",
   "linker_set_key" : "_ZNKSt3__16vectorIN4piex12binary_parse20CachedPagedByteArray10CachedPageENS_9allocatorIS4_EEE31__annotate_contiguous_containerEPKvS9_S9_S9_",
   "parameters" :
   [
    {
     "is_this_ptr" : true,
     "referenced_type" : "_ZTIPKNSt3__16vectorIN4piex12binary_parse20CachedPagedByteArray10CachedPageENS_9allocatorIS4_EEEE"
    },
    {
     "referenced_type" : "_ZTIPKv"
    },
    {
     "referenced_type" : "_ZTIPKv"
    },
    {
     "referenced_type" : "_ZTIPKv"
    },
    {
     "referenced_type" : "_ZTIPKv"
    }
   ],
   "return_type" : "_ZTIv",
   "source_file" : "external/libcxx/include/vector"
  },
  {
   "function_name" : "std::__1::vector<piex::binary_parse::CachedPagedByteArray::CachedPage, std::__1::allocator<piex::binary_parse::CachedPagedByteArray::CachedPage>>::data",
   "linker_set_key" : "_ZNKSt3__16vectorIN4piex12binary_parse20CachedPagedByteArray10CachedPageENS_9allocatorIS4_EEE4dataEv",
   "parameters" :
   [
    {
     "is_this_ptr" : true,
     "referenced_type" : "_ZTIPKNSt3__16vectorIN4piex12binary_parse20CachedPagedByteArray10CachedPageENS_9allocatorIS4_EEEE"
    }
   ],
   "return_type" : "_ZTIPKN4piex12binary_parse20CachedPagedByteArray10CachedPageE",
   "source_file" : "external/libcxx/include/vector"
  },
  {
   "function_name" : "std::__1::vector<piex::binary_parse::CachedPagedByteArray::CachedPage, std::__1::allocator<piex::binary_parse::CachedPagedByteArray::CachedPage>>::size",
   "linker_set_key" : "_ZNKSt3__16vectorIN4piex12binary_parse20CachedPagedByteArray10CachedPageENS_9allocatorIS4_EEE4sizeEv",
   "parameters" :
   [
    {
     "is_this_ptr" : true,
     "referenced_type" : "_ZTIPKNSt3__16vectorIN4piex12binary_parse20CachedPagedByteArray10CachedPageENS_9allocatorIS4_EEEE"
    }
   ],
   "return_type" : "_ZTIm",
   "source_file" : "external/libcxx/include/vector"
  },
  {
   "function_name" : "std::__1::vector<piex::binary_parse::CachedPagedByteArray::CachedPage, std::__1::allocator<piex::binary_parse::CachedPagedByteArray::CachedPage>>::begin",
   "linker_set_key" : "_ZNKSt3__16vectorIN4piex12binary_parse20CachedPagedByteArray10CachedPageENS_9allocatorIS4_EEE5beginEv",
   "parameters" :
   [
    {
     "is_this_ptr" : true,
     "referenced_type" : "_ZTIPKNSt3__16vectorIN4piex12binary_parse20CachedPagedByteArray10CachedPageENS_9allocatorIS4_EEEE"
    }
   ],
   "return_type" : "_ZTINSt3__111__wrap_iterIPKN4piex12binary_parse20CachedPagedByteArray10CachedPageEEE",
   "source_file" : "external/libcxx/include/vector"
  },
  {
   "function_name" : "std::__1::vector<piex::binary_parse::CachedPagedByteArray::CachedPage, std::__1::allocator<piex::binary_parse::CachedPagedByteArray::CachedPage>>::cbegin",
   "linker_set_key" : "_ZNKSt3__16vectorIN4piex12binary_parse20CachedPagedByteArray10CachedPageENS_9allocatorIS4_EEE6cbeginEv",
   "parameters" :
   [
    {
     "is_this_ptr" : true,
     "referenced_type" : "_ZTIPKNSt3__16vectorIN4piex12binary_parse20CachedPagedByteArray10CachedPageENS_9allocatorIS4_EEEE"
    }
   ],
   "return_type" : "_ZTINSt3__111__wrap_iterIPKN4piex12binary_parse20CachedPagedByteArray10CachedPageEEE",
   "source_file" : "external/libcxx/include/vector"
  },
  {
   "function_name" : "std::__1::vector<piex::binary_parse::CachedPagedByteArray::CachedPage, std::__1::allocator<piex::binary_parse::CachedPagedByteArray::CachedPage>>::capacity",
   "linker_set_key" : "_ZNKSt3__16vectorIN4piex12binary_parse20CachedPagedByteArray10CachedPageENS_9allocatorIS4_EEE8capacityEv",
   "parameters" :
   [
    {
     "is_this_ptr" : true,
     "referenced_type" : "_ZTIPKNSt3__16vectorIN4piex12binary_parse20CachedPagedByteArray10CachedPageENS_9allocatorIS4_EEEE"
    }
   ],
   "return_type" : "_ZTIm",
   "source_file" : "external/libcxx/include/vector"
  },
  {
   "function_name" : "std::__1::vector<piex::binary_parse::CachedPagedByteArray::CachedPage, std::__1::allocator<piex::binary_parse::CachedPagedByteArray::CachedPage>>::max_size",
   "linker_set_key" : "_ZNKSt3__16vectorIN4piex12binary_parse20CachedPagedByteArray10CachedPageENS_9allocatorIS4_EEE8max_sizeEv",
   "parameters" :
   [
    {
     "is_this_ptr" : true,
     "referenced_type" : "_ZTIPKNSt3__16vectorIN4piex12binary_parse20CachedPagedByteArray10CachedPageENS_9allocatorIS4_EEEE"
    }
   ],
   "return_type" : "_ZTIm",
   "source_file" : "external/libcxx/include/vector"
  },
  {
   "function_name" : "std::__1::allocator<char32_t>::max_size",
   "linker_set_key" : "_ZNKSt3__19allocatorIDiE8max_sizeEv",
   "parameters" :
   [
    {
     "is_this_ptr" : true,
     "referenced_type" : "_ZTIPKNSt3__19allocatorIDiEE"
    }
   ],
   "return_type" : "_ZTIm",
   "source_file" : "external/libcxx/include/memory"
  },
  {
   "function_name" : "std::__1::allocator<char16_t>::max_size",
   "linker_set_key" : "_ZNKSt3__19allocatorIDsE8max_sizeEv",
   "parameters" :
   [
    {
     "is_this_ptr" : true,
     "referenced_type" : "_ZTIPKNSt3__19allocatorIDsEE"
    }
   ],
   "return_type" : "_ZTIm",
   "source_file" : "external/libcxx/include/memory"
  },
  {
   "function_name" : "std::__1::allocator<piex::binary_parse::CachedPagedByteArray::CachedPage>::max_size",
   "linker_set_key" : "_ZNKSt3__19allocatorIN4piex12binary_parse20CachedPagedByteArray10CachedPageEE8max_sizeEv",
   "parameters" :
   [
    {
     "is_this_ptr" : true,
     "referenced_type" : "_ZTIPKNSt3__19allocatorIN4piex12binary_parse20CachedPagedByteArray10CachedPageEEE"
    }
   ],
   "return_type" : "_ZTIm",
   "source_file" : "external/libcxx/include/memory"
  },
  {
   "function_name" : "std::__1::allocator<char>::max_size",
   "linker_set_key" : "_ZNKSt3__19allocatorIcE8max_sizeEv",
   "parameters" :
   [
    {
     "is_this_ptr" : true,
     "referenced_type" : "_ZTIPKNSt3__19allocatorIcEE"
    }
   ],
   "return_type" : "_ZTIm",
   "source_file" : "external/libcxx/include/memory"
  },
  {
   "function_name" : "std::__1::allocator<wchar_t>::max_size",
   "linker_set_key" : "_ZNKSt3__19allocatorIwE8max_sizeEv",
   "parameters" :
   [
    {
     "is_this_ptr" : true,
     "referenced_type" : "_ZTIPKNSt3__19allocatorIwEE"
    }
   ],
   "return_type" : "_ZTIm",
   "source_file" : "external/libcxx/include/memory"
  },
  {
   "function_name" : "std::type_info::name",
   "linker_set_key" : "_ZNKSt9type_info4nameEv",
   "parameters" :
   [
    {
     "is_this_ptr" : true,
     "referenced_type" : "_ZTIPKSt9type_info"
    }
   ],
   "return_type" : "_ZTIPKc",
   "source_file" : "external/libcxx/include/typeinfo"
  },
  {
   "function_name" : "std::type_info::before",
   "linker_set_key" : "_ZNKSt9type_info6beforeERKS_",
   "parameters" :
   [
    {
     "is_this_ptr" : true,
     "referenced_type" : "_ZTIPKSt9type_info"
    },
    {
     "referenced_type" : "_ZTIRKSt9type_info"
    }
   ],
   "return_type" : "_ZTIb",
   "source_file" : "external/libcxx/include/typeinfo"
  },
  {
   "function_name" : "std::type_info::hash_code",
   "linker_set_key" : "_ZNKSt9type_info9hash_codeEv",
   "parameters" :
   [
    {
     "is_this_ptr" : true,
     "referenced_type" : "_ZTIPKSt9type_info"
    }
   ],
   "return_type" : "_ZTIm",
   "source_file" : "external/libcxx/include/typeinfo"
  },
  {
   "function_name" : "std::type_info::operator==",
   "linker_set_key" : "_ZNKSt9type_infoeqERKS_",
   "parameters" :
   [
    {
     "is_this_ptr" : true,
     "referenced_type" : "_ZTIPKSt9type_info"
    },
    {
     "referenced_type" : "_ZTIRKSt9type_info"
    }
   ],
   "return_type" : "_ZTIb",
   "source_file" : "external/libcxx/include/typeinfo"
  },
  {
   "function_name" : "std::type_info::operator!=",
   "linker_set_key" : "_ZNKSt9type_infoneERKS_",
   "parameters" :
   [
    {
     "is_this_ptr" : true,
     "referenced_type" : "_ZTIPKSt9type_info"
    },
    {
     "referenced_type" : "_ZTIRKSt9type_info"
    }
   ],
   "return_type" : "_ZTIb",
   "source_file" : "external/libcxx/include/typeinfo"
  },
  {
   "function_name" : "std::range_error::range_error",
   "linker_set_key" : "_ZNSt11range_errorC1EPKc",
   "parameters" :
   [
    {
     "is_this_ptr" : true,
     "referenced_type" : "_ZTIPSt11range_error"
    },
    {
     "referenced_type" : "_ZTIPKc"
    }
   ],
   "return_type" : "_ZTIv",
   "source_file" : "external/libcxx/include/stdexcept"
  },
  {
   "function_name" : "std::range_error::range_error",
   "linker_set_key" : "_ZNSt11range_errorC1ERKNSt3__112basic_stringIcNS0_11char_traitsIcEENS0_9allocatorIcEEEE",
   "parameters" :
   [
    {
     "is_this_ptr" : true,
     "referenced_type" : "_ZTIPSt11range_error"
    },
    {
     "referenced_type" : "_ZTIRKNSt3__112basic_stringIcNS_11char_traitsIcEENS_9allocatorIcEEEE"
    }
   ],
   "return_type" : "_ZTIv",
   "source_file" : "external/libcxx/include/stdexcept"
  },
  {
   "function_name" : "std::range_error::range_error",
   "linker_set_key" : "_ZNSt11range_errorC2EPKc",
   "parameters" :
   [
    {
     "is_this_ptr" : true,
     "referenced_type" : "_ZTIPSt11range_error"
    },
    {
     "referenced_type" : "_ZTIPKc"
    }
   ],
   "return_type" : "_ZTIv",
   "source_file" : "external/libcxx/include/stdexcept"
  },
  {
   "function_name" : "std::range_error::range_error",
   "linker_set_key" : "_ZNSt11range_errorC2ERKNSt3__112basic_stringIcNS0_11char_traitsIcEENS0_9allocatorIcEEEE",
   "parameters" :
   [
    {
     "is_this_ptr" : true,
     "referenced_type" : "_ZTIPSt11range_error"
    },
    {
     "referenced_type" : "_ZTIRKNSt3__112basic_stringIcNS_11char_traitsIcEENS_9allocatorIcEEEE"
    }
   ],
   "return_type" : "_ZTIv",
   "source_file" : "external/libcxx/include/stdexcept"
  },
  {
   "function_name" : "std::domain_error::domain_error",
   "linker_set_key" : "_ZNSt12domain_errorC1EPKc",
   "parameters" :
   [
    {
     "is_this_ptr" : true,
     "referenced_type" : "_ZTIPSt12domain_error"
    },
    {
     "referenced_type" : "_ZTIPKc"
    }
   ],
   "return_type" : "_ZTIv",
   "source_file" : "external/libcxx/include/stdexcept"
  },
  {
   "function_name" : "std::domain_error::domain_error",
   "linker_set_key" : "_ZNSt12domain_errorC1ERKNSt3__112basic_stringIcNS0_11char_traitsIcEENS0_9allocatorIcEEEE",
   "parameters" :
   [
    {
     "is_this_ptr" : true,
     "referenced_type" : "_ZTIPSt12domain_error"
    },
    {
     "referenced_type" : "_ZTIRKNSt3__112basic_stringIcNS_11char_traitsIcEENS_9allocatorIcEEEE"
    }
   ],
   "return_type" : "_ZTIv",
   "source_file" : "external/libcxx/include/stdexcept"
  },
  {
   "function_name" : "std::domain_error::domain_error",
   "linker_set_key" : "_ZNSt12domain_errorC2EPKc",
   "parameters" :
   [
    {
     "is_this_ptr" : true,
     "referenced_type" : "_ZTIPSt12domain_error"
    },
    {
     "referenced_type" : "_ZTIPKc"
    }
   ],
   "return_type" : "_ZTIv",
   "source_file" : "external/libcxx/include/stdexcept"
  },
  {
   "function_name" : "std::domain_error::domain_error",
   "linker_set_key" : "_ZNSt12domain_errorC2ERKNSt3__112basic_stringIcNS0_11char_traitsIcEENS0_9allocatorIcEEEE",
   "parameters" :
   [
    {
     "is_this_ptr" : true,
     "referenced_type" : "_ZTIPSt12domain_error"
    },
    {
     "referenced_type" : "_ZTIRKNSt3__112basic_stringIcNS_11char_traitsIcEENS_9allocatorIcEEEE"
    }
   ],
   "return_type" : "_ZTIv",
   "source_file" : "external/libcxx/include/stdexcept"
  },
  {
   "function_name" : "std::length_error::length_error",
   "linker_set_key" : "_ZNSt12length_errorC1EPKc",
   "parameters" :
   [
    {
     "is_this_ptr" : true,
     "referenced_type" : "_ZTIPSt12length_error"
    },
    {
     "referenced_type" : "_ZTIPKc"
    }
   ],
   "return_type" : "_ZTIv",
   "source_file" : "external/libcxx/include/stdexcept"
  },
  {
   "function_name" : "std::length_error::length_error",
   "linker_set_key" : "_ZNSt12length_errorC1ERKNSt3__112basic_stringIcNS0_11char_traitsIcEENS0_9allocatorIcEEEE",
   "parameters" :
   [
    {
     "is_this_ptr" : true,
     "referenced_type" : "_ZTIPSt12length_error"
    },
    {
     "referenced_type" : "_ZTIRKNSt3__112basic_stringIcNS_11char_traitsIcEENS_9allocatorIcEEEE"
    }
   ],
   "return_type" : "_ZTIv",
   "source_file" : "external/libcxx/include/stdexcept"
  },
  {
   "function_name" : "std::length_error::length_error",
   "linker_set_key" : "_ZNSt12length_errorC2EPKc",
   "parameters" :
   [
    {
     "is_this_ptr" : true,
     "referenced_type" : "_ZTIPSt12length_error"
    },
    {
     "referenced_type" : "_ZTIPKc"
    }
   ],
   "return_type" : "_ZTIv",
   "source_file" : "external/libcxx/include/stdexcept"
  },
  {
   "function_name" : "std::length_error::length_error",
   "linker_set_key" : "_ZNSt12length_errorC2ERKNSt3__112basic_stringIcNS0_11char_traitsIcEENS0_9allocatorIcEEEE",
   "parameters" :
   [
    {
     "is_this_ptr" : true,
     "referenced_type" : "_ZTIPSt12length_error"
    },
    {
     "referenced_type" : "_ZTIRKNSt3__112basic_stringIcNS_11char_traitsIcEENS_9allocatorIcEEEE"
    }
   ],
   "return_type" : "_ZTIv",
   "source_file" : "external/libcxx/include/stdexcept"
  },
  {
   "function_name" : "std::out_of_range::out_of_range",
   "linker_set_key" : "_ZNSt12out_of_rangeC1EPKc",
   "parameters" :
   [
    {
     "is_this_ptr" : true,
     "referenced_type" : "_ZTIPSt12out_of_range"
    },
    {
     "referenced_type" : "_ZTIPKc"
    }
   ],
   "return_type" : "_ZTIv",
   "source_file" : "external/libcxx/include/stdexcept"
  },
  {
   "function_name" : "std::out_of_range::out_of_range",
   "linker_set_key" : "_ZNSt12out_of_rangeC1ERKNSt3__112basic_stringIcNS0_11char_traitsIcEENS0_9allocatorIcEEEE",
   "parameters" :
   [
    {
     "is_this_ptr" : true,
     "referenced_type" : "_ZTIPSt12out_of_range"
    },
    {
     "referenced_type" : "_ZTIRKNSt3__112basic_stringIcNS_11char_traitsIcEENS_9allocatorIcEEEE"
    }
   ],
   "return_type" : "_ZTIv",
   "source_file" : "external/libcxx/include/stdexcept"
  },
  {
   "function_name" : "std::out_of_range::out_of_range",
   "linker_set_key" : "_ZNSt12out_of_rangeC2EPKc",
   "parameters" :
   [
    {
     "is_this_ptr" : true,
     "referenced_type" : "_ZTIPSt12out_of_range"
    },
    {
     "referenced_type" : "_ZTIPKc"
    }
   ],
   "return_type" : "_ZTIv",
   "source_file" : "external/libcxx/include/stdexcept"
  },
  {
   "function_name" : "std::out_of_range::out_of_range",
   "linker_set_key" : "_ZNSt12out_of_rangeC2ERKNSt3__112basic_stringIcNS0_11char_traitsIcEENS0_9allocatorIcEEEE",
   "parameters" :
   [
    {
     "is_this_ptr" : true,
     "referenced_type" : "_ZTIPSt12out_of_range"
    },
    {
     "referenced_type" : "_ZTIRKNSt3__112basic_stringIcNS_11char_traitsIcEENS_9allocatorIcEEEE"
    }
   ],
   "return_type" : "_ZTIv",
   "source_file" : "external/libcxx/include/stdexcept"
  },
  {
   "function_name" : "std::bad_exception::bad_exception",
   "linker_set_key" : "_ZNSt13bad_exceptionC1Ev",
   "parameters" :
   [
    {
     "is_this_ptr" : true,
     "referenced_type" : "_ZTIPSt13bad_exception"
    }
   ],
   "return_type" : "_ZTIv",
   "source_file" : "external/libcxx/include/exception"
  },
  {
   "function_name" : "std::bad_exception::bad_exception",
   "linker_set_key" : "_ZNSt13bad_exceptionC2Ev",
   "parameters" :
   [
    {
     "is_this_ptr" : true,
     "referenced_type" : "_ZTIPSt13bad_exception"
    }
   ],
   "return_type" : "_ZTIv",
   "source_file" : "external/libcxx/include/exception"
  },
  {
   "function_name" : "std::exception_ptr::exception_ptr",
   "linker_set_key" : "_ZNSt13exception_ptrC1EDn",
   "parameters" :
   [
    {
     "is_this_ptr" : true,
     "referenced_type" : "_ZTIPSt13exception_ptr"
    },
    {
     "referenced_type" : "_ZTIDn"
    }
   ],
   "return_type" : "_ZTIv",
   "source_file" : "external/libcxx/include/exception"
  },
  {
   "function_name" : "std::exception_ptr::exception_ptr",
   "linker_set_key" : "_ZNSt13exception_ptrC1Ev",
   "parameters" :
   [
    {
     "is_this_ptr" : true,
     "referenced_type" : "_ZTIPSt13exception_ptr"
    }
   ],
   "return_type" : "_ZTIv",
   "source_file" : "external/libcxx/include/exception"
  },
  {
   "function_name" : "std::exception_ptr::exception_ptr",
   "linker_set_key" : "_ZNSt13exception_ptrC2EDn",
   "parameters" :
   [
    {
     "is_this_ptr" : true,
     "referenced_type" : "_ZTIPSt13exception_ptr"
    },
    {
     "referenced_type" : "_ZTIDn"
    }
   ],
   "return_type" : "_ZTIv",
   "source_file" : "external/libcxx/include/exception"
  },
  {
   "function_name" : "std::exception_ptr::exception_ptr",
   "linker_set_key" : "_ZNSt13exception_ptrC2Ev",
   "parameters" :
   [
    {
     "is_this_ptr" : true,
     "referenced_type" : "_ZTIPSt13exception_ptr"
    }
   ],
   "return_type" : "_ZTIv",
   "source_file" : "external/libcxx/include/exception"
  },
  {
   "function_name" : "std::overflow_error::overflow_error",
   "linker_set_key" : "_ZNSt14overflow_errorC1EPKc",
   "parameters" :
   [
    {
     "is_this_ptr" : true,
     "referenced_type" : "_ZTIPSt14overflow_error"
    },
    {
     "referenced_type" : "_ZTIPKc"
    }
   ],
   "return_type" : "_ZTIv",
   "source_file" : "external/libcxx/include/stdexcept"
  },
  {
   "function_name" : "std::overflow_error::overflow_error",
   "linker_set_key" : "_ZNSt14overflow_errorC1ERKNSt3__112basic_stringIcNS0_11char_traitsIcEENS0_9allocatorIcEEEE",
   "parameters" :
   [
    {
     "is_this_ptr" : true,
     "referenced_type" : "_ZTIPSt14overflow_error"
    },
    {
     "referenced_type" : "_ZTIRKNSt3__112basic_stringIcNS_11char_traitsIcEENS_9allocatorIcEEEE"
    }
   ],
   "return_type" : "_ZTIv",
   "source_file" : "external/libcxx/include/stdexcept"
  },
  {
   "function_name" : "std::overflow_error::overflow_error",
   "linker_set_key" : "_ZNSt14overflow_errorC2EPKc",
   "parameters" :
   [
    {
     "is_this_ptr" : true,
     "referenced_type" : "_ZTIPSt14overflow_error"
    },
    {
     "referenced_type" : "_ZTIPKc"
    }
   ],
   "return_type" : "_ZTIv",
   "source_file" : "external/libcxx/include/stdexcept"
  },
  {
   "function_name" : "std::overflow_error::overflow_error",
   "linker_set_key" : "_ZNSt14overflow_errorC2ERKNSt3__112basic_stringIcNS0_11char_traitsIcEENS0_9allocatorIcEEEE",
   "parameters" :
   [
    {
     "is_this_ptr" : true,
     "referenced_type" : "_ZTIPSt14overflow_error"
    },
    {
     "referenced_type" : "_ZTIRKNSt3__112basic_stringIcNS_11char_traitsIcEENS_9allocatorIcEEEE"
    }
   ],
   "return_type" : "_ZTIv",
   "source_file" : "external/libcxx/include/stdexcept"
  },
  {
   "function_name" : "std::underflow_error::underflow_error",
   "linker_set_key" : "_ZNSt15underflow_errorC1EPKc",
   "parameters" :
   [
    {
     "is_this_ptr" : true,
     "referenced_type" : "_ZTIPSt15underflow_error"
    },
    {
     "referenced_type" : "_ZTIPKc"
    }
   ],
   "return_type" : "_ZTIv",
   "source_file" : "external/libcxx/include/stdexcept"
  },
  {
   "function_name" : "std::underflow_error::underflow_error",
   "linker_set_key" : "_ZNSt15underflow_errorC1ERKNSt3__112basic_stringIcNS0_11char_traitsIcEENS0_9allocatorIcEEEE",
   "parameters" :
   [
    {
     "is_this_ptr" : true,
     "referenced_type" : "_ZTIPSt15underflow_error"
    },
    {
     "referenced_type" : "_ZTIRKNSt3__112basic_stringIcNS_11char_traitsIcEENS_9allocatorIcEEEE"
    }
   ],
   "return_type" : "_ZTIv",
   "source_file" : "external/libcxx/include/stdexcept"
  },
  {
   "function_name" : "std::underflow_error::underflow_error",
   "linker_set_key" : "_ZNSt15underflow_errorC2EPKc",
   "parameters" :
   [
    {
     "is_this_ptr" : true,
     "referenced_type" : "_ZTIPSt15underflow_error"
    },
    {
     "referenced_type" : "_ZTIPKc"
    }
   ],
   "return_type" : "_ZTIv",
   "source_file" : "external/libcxx/include/stdexcept"
  },
  {
   "function_name" : "std::underflow_error::underflow_error",
   "linker_set_key" : "_ZNSt15underflow_errorC2ERKNSt3__112basic_stringIcNS0_11char_traitsIcEENS0_9allocatorIcEEEE",
   "parameters" :
   [
    {
     "is_this_ptr" : true,
     "referenced_type" : "_ZTIPSt15underflow_error"
    },
    {
     "referenced_type" : "_ZTIRKNSt3__112basic_stringIcNS_11char_traitsIcEENS_9allocatorIcEEEE"
    }
   ],
   "return_type" : "_ZTIv",
   "source_file" : "external/libcxx/include/stdexcept"
  },
  {
   "function_name" : "std::invalid_argument::invalid_argument",
   "linker_set_key" : "_ZNSt16invalid_argumentC1EPKc",
   "parameters" :
   [
    {
     "is_this_ptr" : true,
     "referenced_type" : "_ZTIPSt16invalid_argument"
    },
    {
     "referenced_type" : "_ZTIPKc"
    }
   ],
   "return_type" : "_ZTIv",
   "source_file" : "external/libcxx/include/stdexcept"
  },
  {
   "function_name" : "std::invalid_argument::invalid_argument",
   "linker_set_key" : "_ZNSt16invalid_argumentC1ERKNSt3__112basic_stringIcNS0_11char_traitsIcEENS0_9allocatorIcEEEE",
   "parameters" :
   [
    {
     "is_this_ptr" : true,
     "referenced_type" : "_ZTIPSt16invalid_argument"
    },
    {
     "referenced_type" : "_ZTIRKNSt3__112basic_stringIcNS_11char_traitsIcEENS_9allocatorIcEEEE"
    }
   ],
   "return_type" : "_ZTIv",
   "source_file" : "external/libcxx/include/stdexcept"
  },
  {
   "function_name" : "std::invalid_argument::invalid_argument",
   "linker_set_key" : "_ZNSt16invalid_argumentC2EPKc",
   "parameters" :
   [
    {
     "is_this_ptr" : true,
     "referenced_type" : "_ZTIPSt16invalid_argument"
    },
    {
     "referenced_type" : "_ZTIPKc"
    }
   ],
   "return_type" : "_ZTIv",
   "source_file" : "external/libcxx/include/stdexcept"
  },
  {
   "function_name" : "std::invalid_argument::invalid_argument",
   "linker_set_key" : "_ZNSt16invalid_argumentC2ERKNSt3__112basic_stringIcNS0_11char_traitsIcEENS0_9allocatorIcEEEE",
   "parameters" :
   [
    {
     "is_this_ptr" : true,
     "referenced_type" : "_ZTIPSt16invalid_argument"
    },
    {
     "referenced_type" : "_ZTIRKNSt3__112basic_stringIcNS_11char_traitsIcEENS_9allocatorIcEEEE"
    }
   ],
   "return_type" : "_ZTIv",
   "source_file" : "external/libcxx/include/stdexcept"
  },
  {
   "function_name" : "std::__1::__function::__policy::__create_empty",
   "linker_set_key" : "_ZNSt3__110__function8__policy14__create_emptyEv",
   "return_type" : "_ZTIPKNSt3__110__function8__policyE",
   "source_file" : "external/libcxx/include/functional"
  },
  {
   "function_name" : "std::__1::__loadword",
   "linker_set_key" : "_ZNSt3__110__loadwordIjEET_PKv",
   "parameters" :
   [
    {
     "referenced_type" : "_ZTIPKv"
    }
   ],
   "return_type" : "_ZTIj",
   "source_file" : "external/libcxx/include/utility",
   "template_args" : [ "_ZTIj" ]
  },
  {
   "function_name" : "std::__1::__loadword",
   "linker_set_key" : "_ZNSt3__110__loadwordImEET_PKv",
   "parameters" :
   [
    {
     "referenced_type" : "_ZTIPKv"
    }
   ],
   "return_type" : "_ZTIm",
   "source_file" : "external/libcxx/include/utility",
   "template_args" : [ "_ZTIm" ]
  },
  {
   "function_name" : "std::__1::__popcount",
   "linker_set_key" : "_ZNSt3__110__popcountEj",
   "parameters" :
   [
    {
     "referenced_type" : "_ZTIj"
    }
   ],
   "return_type" : "_ZTIi",
   "source_file" : "external/libcxx/include/bit"
  },
  {
   "function_name" : "std::__1::__popcount",
   "linker_set_key" : "_ZNSt3__110__popcountEm",
   "parameters" :
   [
    {
     "referenced_type" : "_ZTIm"
    }
   ],
   "return_type" : "_ZTIi",
   "source_file" : "external/libcxx/include/bit"
  },
  {
   "function_name" : "std::__1::__popcount",
   "linker_set_key" : "_ZNSt3__110__popcountEy",
   "parameters" :
   [
    {
     "referenced_type" : "_ZTIy"
    }
   ],
   "return_type" : "_ZTIi",
   "source_file" : "external/libcxx/include/bit"
  },
  {
   "function_name" : "std::__1::error_code::clear",
   "linker_set_key" : "_ZNSt3__110error_code5clearEv",
   "parameters" :
   [
    {
     "is_this_ptr" : true,
     "referenced_type" : "_ZTIPNSt3__110error_codeE"
    }
   ],
   "return_type" : "_ZTIv",
   "source_file" : "external/libcxx/include/system_error"
  },
  {
   "function_name" : "std::__1::error_code::assign",
   "linker_set_key" : "_ZNSt3__110error_code6assignEiRKNS_14error_categoryE",
   "parameters" :
   [
    {
     "is_this_ptr" : true,
     "referenced_type" : "_ZTIPNSt3__110error_codeE"
    },
    {
     "referenced_type" : "_ZTIi"
    },
    {
     "referenced_type" : "_ZTIRKNSt3__114error_categoryE"
    }
   ],
   "return_type" : "_ZTIv",
   "source_file" : "external/libcxx/include/system_error"
  },
  {
   "function_name" : "std::__1::error_code::error_code",
   "linker_set_key" : "_ZNSt3__110error_codeC1EiRKNS_14error_categoryE",
   "parameters" :
   [
    {
     "is_this_ptr" : true,
     "referenced_type" : "_ZTIPNSt3__110error_codeE"
    },
    {
     "referenced_type" : "_ZTIi"
    },
    {
     "referenced_type" : "_ZTIRKNSt3__114error_categoryE"
    }
   ],
   "return_type" : "_ZTIv",
   "source_file" : "external/libcxx/include/system_error"
  },
  {
   "function_name" : "std::__1::error_code::error_code",
   "linker_set_key" : "_ZNSt3__110error_codeC1Ev",
   "parameters" :
   [
    {
     "is_this_ptr" : true,
     "referenced_type" : "_ZTIPNSt3__110error_codeE"
    }
   ],
   "return_type" : "_ZTIv",
   "source_file" : "external/libcxx/include/system_error"
  },
  {
   "function_name" : "std::__1::error_code::error_code",
   "linker_set_key" : "_ZNSt3__110error_codeC2EiRKNS_14error_categoryE",
   "parameters" :
   [
    {
     "is_this_ptr" : true,
     "referenced_type" : "_ZTIPNSt3__110error_codeE"
    },
    {
     "referenced_type" : "_ZTIi"
    },
    {
     "referenced_type" : "_ZTIRKNSt3__114error_categoryE"
    }
   ],
   "return_type" : "_ZTIv",
   "source_file" : "external/libcxx/include/system_error"
  },
  {
   "function_name" : "std::__1::error_code::error_code",
   "linker_set_key" : "_ZNSt3__110error_codeC2Ev",
   "parameters" :
   [
    {
     "is_this_ptr" : true,
     "referenced_type" : "_ZTIPNSt3__110error_codeE"
    }
   ],
   "return_type" : "_ZTIv",
   "source_file" : "external/libcxx/include/system_error"
  },
  {
   "function_name" : "std::__1::in_place_t::in_place_t",
   "linker_set_key" : "_ZNSt3__110in_place_tC1Ev",
   "parameters" :
   [
    {
     "is_this_ptr" : true,
     "referenced_type" : "_ZTIPNSt3__110in_place_tE"
    }
   ],
   "return_type" : "_ZTIv",
   "source_file" : "external/libcxx/include/utility"
  },
  {
   "function_name" : "std::__1::in_place_t::in_place_t",
   "linker_set_key" : "_ZNSt3__110in_place_tC2Ev",
   "parameters" :
   [
    {
     "is_this_ptr" : true,
     "referenced_type" : "_ZTIPNSt3__110in_place_tE"
    }
   ],
   "return_type" : "_ZTIv",
   "source_file" : "external/libcxx/include/utility"
  },
  {
   "function_name" : "std::__1::lock_guard<std::__1::mutex>::lock_guard",
   "linker_set_key" : "_ZNSt3__110lock_guardINS_5mutexEEC1ERS1_",
   "parameters" :
   [
    {
     "is_this_ptr" : true,
     "referenced_type" : "_ZTIPNSt3__110lock_guardINS_5mutexEEE"
    },
    {
     "referenced_type" : "_ZTIRNSt3__15mutexE"
    }
   ],
   "return_type" : "_ZTIv",
   "source_file" : "external/libcxx/include/__mutex_base"
  },
  {
   "function_name" : "std::__1::lock_guard<std::__1::mutex>::lock_guard",
   "linker_set_key" : "_ZNSt3__110lock_guardINS_5mutexEEC2ERS1_",
   "parameters" :
   [
    {
     "is_this_ptr" : true,
     "referenced_type" : "_ZTIPNSt3__110lock_guardINS_5mutexEEE"
    },
    {
     "referenced_type" : "_ZTIRNSt3__15mutexE"
    }
   ],
   "return_type" : "_ZTIv",
   "source_file" : "external/libcxx/include/__mutex_base"
  },
  {
   "function_name" : "std::__1::lock_guard<std::__1::mutex>::~lock_guard",
   "linker_set_key" : "_ZNSt3__110lock_guardINS_5mutexEED1Ev",
   "parameters" :
   [
    {
     "is_this_ptr" : true,
     "referenced_type" : "_ZTIPNSt3__110lock_guardINS_5mutexEEE"
    }
   ],
   "return_type" : "_ZTIv",
   "source_file" : "external/libcxx/include/__mutex_base"
  },
  {
   "function_name" : "std::__1::lock_guard<std::__1::mutex>::~lock_guard",
   "linker_set_key" : "_ZNSt3__110lock_guardINS_5mutexEED2Ev",
   "parameters" :
   [
    {
     "is_this_ptr" : true,
     "referenced_type" : "_ZTIPNSt3__110lock_guardINS_5mutexEEE"
    }
   ],
   "return_type" : "_ZTIv",
   "source_file" : "external/libcxx/include/__mutex_base"
  },
  {
   "function_name" : "std::__1::shared_ptr<piex::binary_parse::PagedByteArray::Page>::swap",
   "linker_set_key" : "_ZNSt3__110shared_ptrIN4piex12binary_parse14PagedByteArray4PageEE4swapERS5_",
   "parameters" :
   [
    {
     "is_this_ptr" : true,
     "referenced_type" : "_ZTIPNSt3__110shared_ptrIN4piex12binary_parse14PagedByteArray4PageEEE"
    },
    {
     "referenced_type" : "_ZTIRNSt3__110shared_ptrIN4piex12binary_parse14PagedByteArray4PageEEE"
    }
   ],
   "return_type" : "_ZTIv",
   "source_file" : "external/libcxx/include/memory"
  },
  {
   "function_name" : "std::__1::shared_ptr<piex::binary_parse::PagedByteArray::Page>::shared_ptr",
   "linker_set_key" : "_ZNSt3__110shared_ptrIN4piex12binary_parse14PagedByteArray4PageEEC1EOS5_",
   "parameters" :
   [
    {
     "is_this_ptr" : true,
     "referenced_type" : "_ZTIPNSt3__110shared_ptrIN4piex12binary_parse14PagedByteArray4PageEEE"
    },
    {
     "referenced_type" : "_ZTIONSt3__110shared_ptrIN4piex12binary_parse14PagedByteArray4PageEEE"
    }
   ],
   "return_type" : "_ZTIv",
   "source_file" : "external/libcxx/include/memory"
  },
  {
   "function_name" : "std::__1::shared_ptr<piex::binary_parse::PagedByteArray::Page>::shared_ptr",
   "linker_set_key" : "_ZNSt3__110shared_ptrIN4piex12binary_parse14PagedByteArray4PageEEC1ERKS5_",
   "parameters" :
   [
    {
     "is_this_ptr" : true,
     "referenced_type" : "_ZTIPNSt3__110shared_ptrIN4piex12binary_parse14PagedByteArray4PageEEE"
    },
    {
     "referenced_type" : "_ZTIRKNSt3__110shared_ptrIN4piex12binary_parse14PagedByteArray4PageEEE"
    }
   ],
   "return_type" : "_ZTIv",
   "source_file" : "external/libcxx/include/memory"
  },
  {
   "function_name" : "std::__1::shared_ptr<piex::binary_parse::PagedByteArray::Page>::shared_ptr",
   "linker_set_key" : "_ZNSt3__110shared_ptrIN4piex12binary_parse14PagedByteArray4PageEEC1Ev",
   "parameters" :
   [
    {
     "is_this_ptr" : true,
     "referenced_type" : "_ZTIPNSt3__110shared_ptrIN4piex12binary_parse14PagedByteArray4PageEEE"
    }
   ],
   "return_type" : "_ZTIv",
   "source_file" : "external/libcxx/include/memory"
  },
  {
   "function_name" : "std::__1::shared_ptr<piex::binary_parse::PagedByteArray::Page>::shared_ptr",
   "linker_set_key" : "_ZNSt3__110shared_ptrIN4piex12binary_parse14PagedByteArray4PageEEC2EOS5_",
   "parameters" :
   [
    {
     "is_this_ptr" : true,
     "referenced_type" : "_ZTIPNSt3__110shared_ptrIN4piex12binary_parse14PagedByteArray4PageEEE"
    },
    {
     "referenced_type" : "_ZTIONSt3__110shared_ptrIN4piex12binary_parse14PagedByteArray4PageEEE"
    }
   ],
   "return_type" : "_ZTIv",
   "source_file" : "external/libcxx/include/memory"
  },
  {
   "function_name" : "std::__1::shared_ptr<piex::binary_parse::PagedByteArray::Page>::shared_ptr",
   "linker_set_key" : "_ZNSt3__110shared_ptrIN4piex12binary_parse14PagedByteArray4PageEEC2ERKS5_",
   "parameters" :
   [
    {
     "is_this_ptr" : true,
     "referenced_type" : "_ZTIPNSt3__110shared_ptrIN4piex12binary_parse14PagedByteArray4PageEEE"
    },
    {
     "referenced_type" : "_ZTIRKNSt3__110shared_ptrIN4piex12binary_parse14PagedByteArray4PageEEE"
    }
   ],
   "return_type" : "_ZTIv",
   "source_file" : "external/libcxx/include/memory"
  },
  {
   "function_name" : "std::__1::shared_ptr<piex::binary_parse::PagedByteArray::Page>::shared_ptr",
   "linker_set_key" : "_ZNSt3__110shared_ptrIN4piex12binary_parse14PagedByteArray4PageEEC2Ev",
   "parameters" :
   [
    {
     "is_this_ptr" : true,
     "referenced_type" : "_ZTIPNSt3__110shared_ptrIN4piex12binary_parse14PagedByteArray4PageEEE"
    }
   ],
   "return_type" : "_ZTIv",
   "source_file" : "external/libcxx/include/memory"
  },
  {
   "function_name" : "std::__1::shared_ptr<piex::binary_parse::PagedByteArray::Page>::~shared_ptr",
   "linker_set_key" : "_ZNSt3__110shared_ptrIN4piex12binary_parse14PagedByteArray4PageEED1Ev",
   "parameters" :
   [
    {
     "is_this_ptr" : true,
     "referenced_type" : "_ZTIPNSt3__110shared_ptrIN4piex12binary_parse14PagedByteArray4PageEEE"
    }
   ],
   "return_type" : "_ZTIv",
   "source_file" : "external/libcxx/include/memory"
  },
  {
   "function_name" : "std::__1::shared_ptr<piex::binary_parse::PagedByteArray::Page>::~shared_ptr",
   "linker_set_key" : "_ZNSt3__110shared_ptrIN4piex12binary_parse14PagedByteArray4PageEED2Ev",
   "parameters" :
   [
    {
     "is_this_ptr" : true,
     "referenced_type" : "_ZTIPNSt3__110shared_ptrIN4piex12binary_parse14PagedByteArray4PageEEE"
    }
   ],
   "return_type" : "_ZTIv",
   "source_file" : "external/libcxx/include/memory"
  },
  {
   "function_name" : "std::__1::shared_ptr<piex::binary_parse::PagedByteArray::Page>::operator=",
   "linker_set_key" : "_ZNSt3__110shared_ptrIN4piex12binary_parse14PagedByteArray4PageEEaSEOS5_",
   "parameters" :
   [
    {
     "is_this_ptr" : true,
     "referenced_type" : "_ZTIPNSt3__110shared_ptrIN4piex12binary_parse14PagedByteArray4PageEEE"
    },
    {
     "referenced_type" : "_ZTIONSt3__110shared_ptrIN4piex12binary_parse14PagedByteArray4PageEEE"
    }
   ],
   "return_type" : "_ZTIRNSt3__110shared_ptrIN4piex12binary_parse14PagedByteArray4PageEEE",
   "source_file" : "external/libcxx/include/memory"
  },
  {
   "function_name" : "std::__1::shared_ptr<piex::binary_parse::PagedByteArray::Page>::operator=",
   "linker_set_key" : "_ZNSt3__110shared_ptrIN4piex12binary_parse14PagedByteArray4PageEEaSERKS5_",
   "parameters" :
   [
    {
     "is_this_ptr" : true,
     "referenced_type" : "_ZTIPNSt3__110shared_ptrIN4piex12binary_parse14PagedByteArray4PageEEE"
    },
    {
     "referenced_type" : "_ZTIRKNSt3__110shared_ptrIN4piex12binary_parse14PagedByteArray4PageEEE"
    }
   ],
   "return_type" : "_ZTIRNSt3__110shared_ptrIN4piex12binary_parse14PagedByteArray4PageEEE",
   "source_file" : "external/libcxx/include/memory"
  },
  {
   "function_name" : "std::__1::shared_ptr<piex::binary_parse::PagedByteArray>::shared_ptr",
   "linker_set_key" : "_ZNSt3__110shared_ptrIN4piex12binary_parse14PagedByteArrayEEC1EOS4_",
   "parameters" :
   [
    {
     "is_this_ptr" : true,
     "referenced_type" : "_ZTIPNSt3__110shared_ptrIN4piex12binary_parse14PagedByteArrayEEE"
    },
    {
     "referenced_type" : "_ZTIONSt3__110shared_ptrIN4piex12binary_parse14PagedByteArrayEEE"
    }
   ],
   "return_type" : "_ZTIv",
   "source_file" : "external/libcxx/include/memory"
  },
  {
   "function_name" : "std::__1::shared_ptr<piex::binary_parse::PagedByteArray>::shared_ptr",
   "linker_set_key" : "_ZNSt3__110shared_ptrIN4piex12binary_parse14PagedByteArrayEEC1ERKS4_",
   "parameters" :
   [
    {
     "is_this_ptr" : true,
     "referenced_type" : "_ZTIPNSt3__110shared_ptrIN4piex12binary_parse14PagedByteArrayEEE"
    },
    {
     "referenced_type" : "_ZTIRKNSt3__110shared_ptrIN4piex12binary_parse14PagedByteArrayEEE"
    }
   ],
   "return_type" : "_ZTIv",
   "source_file" : "external/libcxx/include/memory"
  },
  {
   "function_name" : "std::__1::shared_ptr<piex::binary_parse::PagedByteArray>::shared_ptr",
   "linker_set_key" : "_ZNSt3__110shared_ptrIN4piex12binary_parse14PagedByteArrayEEC2EOS4_",
   "parameters" :
   [
    {
     "is_this_ptr" : true,
     "referenced_type" : "_ZTIPNSt3__110shared_ptrIN4piex12binary_parse14PagedByteArrayEEE"
    },
    {
     "referenced_type" : "_ZTIONSt3__110shared_ptrIN4piex12binary_parse14PagedByteArrayEEE"
    }
   ],
   "return_type" : "_ZTIv",
   "source_file" : "external/libcxx/include/memory"
  },
  {
   "function_name" : "std::__1::shared_ptr<piex::binary_parse::PagedByteArray>::shared_ptr",
   "linker_set_key" : "_ZNSt3__110shared_ptrIN4piex12binary_parse14PagedByteArrayEEC2ERKS4_",
   "parameters" :
   [
    {
     "is_this_ptr" : true,
     "referenced_type" : "_ZTIPNSt3__110shared_ptrIN4piex12binary_parse14PagedByteArrayEEE"
    },
    {
     "referenced_type" : "_ZTIRKNSt3__110shared_ptrIN4piex12binary_parse14PagedByteArrayEEE"
    }
   ],
   "return_type" : "_ZTIv",
   "source_file" : "external/libcxx/include/memory"
  },
  {
   "function_name" : "std::__1::shared_ptr<piex::binary_parse::PagedByteArray>::~shared_ptr",
   "linker_set_key" : "_ZNSt3__110shared_ptrIN4piex12binary_parse14PagedByteArrayEED1Ev",
   "parameters" :
   [
    {
     "is_this_ptr" : true,
     "referenced_type" : "_ZTIPNSt3__110shared_ptrIN4piex12binary_parse14PagedByteArrayEEE"
    }
   ],
   "return_type" : "_ZTIv",
   "source_file" : "external/libcxx/include/memory"
  },
  {
   "function_name" : "std::__1::shared_ptr<piex::binary_parse::PagedByteArray>::~shared_ptr",
   "linker_set_key" : "_ZNSt3__110shared_ptrIN4piex12binary_parse14PagedByteArrayEED2Ev",
   "parameters" :
   [
    {
     "is_this_ptr" : true,
     "referenced_type" : "_ZTIPNSt3__110shared_ptrIN4piex12binary_parse14PagedByteArrayEEE"
    }
   ],
   "return_type" : "_ZTIv",
   "source_file" : "external/libcxx/include/memory"
  },
  {
   "access" : "private",
   "function_name" : "std::__1::__wrap_iter<const piex::binary_parse::CachedPagedByteArray::CachedPage *>::__wrap_iter",
   "linker_set_key" : "_ZNSt3__111__wrap_iterIPKN4piex12binary_parse20CachedPagedByteArray10CachedPageEEC1ES6_",
   "parameters" :
   [
    {
     "is_this_ptr" : true,
     "referenced_type" : "_ZTIPNSt3__111__wrap_iterIPKN4piex12binary_parse20CachedPagedByteArray10CachedPageEEE"
    },
    {
     "referenced_type" : "_ZTIPKN4piex12binary_parse20CachedPagedByteArray10CachedPageE"
    }
   ],
   "return_type" : "_ZTIv",
   "source_file" : "external/libcxx/include/iterator"
  },
  {
   "function_name" : "std::__1::__wrap_iter<const piex::binary_parse::CachedPagedByteArray::CachedPage *>::__wrap_iter",
   "linker_set_key" : "_ZNSt3__111__wrap_iterIPKN4piex12binary_parse20CachedPagedByteArray10CachedPageEEC1IPS4_EERKNS0_IT_EEPNS_9enable_ifIXsr14is_convertibleISA_S6_EE5valueEvE4typeE",
   "parameters" :
   [
    {
     "is_this_ptr" : true,
     "referenced_type" : "_ZTIPNSt3__111__wrap_iterIPKN4piex12binary_parse20CachedPagedByteArray10CachedPageEEE"
    },
    {
     "referenced_type" : "_ZTIRKNSt3__111__wrap_iterIPN4piex12binary_parse20CachedPagedByteArray10CachedPageEEE"
    },
    {
     "default_arg" : true,
     "referenced_type" : "_ZTIPv"
    }
   ],
   "return_type" : "_ZTIv",
   "source_file" : "external/libcxx/include/iterator",
   "template_args" : [ "_ZTIPN4piex12binary_parse20CachedPagedByteArray10CachedPageE" ]
  },
  {
   "access" : "private",
   "function_name" : "std::__1::__wrap_iter<const piex::binary_parse::CachedPagedByteArray::CachedPage *>::__wrap_iter",
   "linker_set_key" : "_ZNSt3__111__wrap_iterIPKN4piex12binary_parse20CachedPagedByteArray10CachedPageEEC2ES6_",
   "parameters" :
   [
    {
     "is_this_ptr" : true,
     "referenced_type" : "_ZTIPNSt3__111__wrap_iterIPKN4piex12binary_parse20CachedPagedByteArray10CachedPageEEE"
    },
    {
     "referenced_type" : "_ZTIPKN4piex12binary_parse20CachedPagedByteArray10CachedPageE"
    }
   ],
   "return_type" : "_ZTIv",
   "source_file" : "external/libcxx/include/iterator"
  },
  {
   "function_name" : "std::__1::__wrap_iter<const piex::binary_parse::CachedPagedByteArray::CachedPage *>::__wrap_iter",
   "linker_set_key" : "_ZNSt3__111__wrap_iterIPKN4piex12binary_parse20CachedPagedByteArray10CachedPageEEC2IPS4_EERKNS0_IT_EEPNS_9enable_ifIXsr14is_convertibleISA_S6_EE5valueEvE4typeE",
   "parameters" :
   [
    {
     "is_this_ptr" : true,
     "referenced_type" : "_ZTIPNSt3__111__wrap_iterIPKN4piex12binary_parse20CachedPagedByteArray10CachedPageEEE"
    },
    {
     "referenced_type" : "_ZTIRKNSt3__111__wrap_iterIPN4piex12binary_parse20CachedPagedByteArray10CachedPageEEE"
    },
    {
     "default_arg" : true,
     "referenced_type" : "_ZTIPv"
    }
   ],
   "return_type" : "_ZTIv",
   "source_file" : "external/libcxx/include/iterator",
   "template_args" : [ "_ZTIPN4piex12binary_parse20CachedPagedByteArray10CachedPageE" ]
  },
  {
   "access" : "private",
   "function_name" : "std::__1::__wrap_iter<piex::binary_parse::CachedPagedByteArray::CachedPage *>::__wrap_iter",
   "linker_set_key" : "_ZNSt3__111__wrap_iterIPN4piex12binary_parse20CachedPagedByteArray10CachedPageEEC1ES5_",
   "parameters" :
   [
    {
     "is_this_ptr" : true,
     "referenced_type" : "_ZTIPNSt3__111__wrap_iterIPN4piex12binary_parse20CachedPagedByteArray10CachedPageEEE"
    },
    {
     "referenced_type" : "_ZTIPN4piex12binary_parse20CachedPagedByteArray10CachedPageE"
    }
   ],
   "return_type" : "_ZTIv",
   "source_file" : "external/libcxx/include/iterator"
  },
  {
   "access" : "private",
   "function_name" : "std::__1::__wrap_iter<piex::binary_parse::CachedPagedByteArray::CachedPage *>::__wrap_iter",
   "linker_set_key" : "_ZNSt3__111__wrap_iterIPN4piex12binary_parse20CachedPagedByteArray10CachedPageEEC2ES5_",
   "parameters" :
   [
    {
     "is_this_ptr" : true,
     "referenced_type" : "_ZTIPNSt3__111__wrap_iterIPN4piex12binary_parse20CachedPagedByteArray10CachedPageEEE"
    },
    {
     "referenced_type" : "_ZTIPN4piex12binary_parse20CachedPagedByteArray10CachedPageE"
    }
   ],
   "return_type" : "_ZTIv",
   "source_file" : "external/libcxx/include/iterator"
  },
  {
   "function_name" : "std::__1::__wrap_iter<piex::binary_parse::CachedPagedByteArray::CachedPage *>::operator+=",
   "linker_set_key" : "_ZNSt3__111__wrap_iterIPN4piex12binary_parse20CachedPagedByteArray10CachedPageEEpLEl",
   "parameters" :
   [
    {
     "is_this_ptr" : true,
     "referenced_type" : "_ZTIPNSt3__111__wrap_iterIPN4piex12binary_parse20CachedPagedByteArray10CachedPageEEE"
    },
    {
     "referenced_type" : "_ZTIl"
    }
   ],
   "return_type" : "_ZTIRNSt3__111__wrap_iterIPN4piex12binary_parse20CachedPagedByteArray10CachedPageEEE",
   "source_file" : "external/libcxx/include/iterator"
  },
  {
   "function_name" : "std::__1::atomic_flag::test_and_set",
   "linker_set_key" : "_ZNSt3__111atomic_flag12test_and_setENS_12memory_orderE",
   "parameters" :
   [
    {
     "is_this_ptr" : true,
     "referenced_type" : "_ZTIPNSt3__111atomic_flagE"
    },
    {
     "default_arg" : true,
     "referenced_type" : "_ZTINSt3__112memory_orderE"
    }
   ],
   "return_type" : "_ZTIb",
   "source_file" : "external/libcxx/include/atomic"
  },
  {
   "function_name" : "std::__1::atomic_flag::clear",
   "linker_set_key" : "_ZNSt3__111atomic_flag5clearENS_12memory_orderE",
   "parameters" :
   [
    {
     "is_this_ptr" : true,
     "referenced_type" : "_ZTIPNSt3__111atomic_flagE"
    },
    {
     "default_arg" : true,
     "referenced_type" : "_ZTINSt3__112memory_orderE"
    }
   ],
   "return_type" : "_ZTIv",
   "source_file" : "external/libcxx/include/atomic"
  },
  {
   "function_name" : "std::__1::atomic_flag::atomic_flag",
   "linker_set_key" : "_ZNSt3__111atomic_flagC1Eb",
   "parameters" :
   [
    {
     "is_this_ptr" : true,
     "referenced_type" : "_ZTIPNSt3__111atomic_flagE"
    },
    {
     "referenced_type" : "_ZTIb"
    }
   ],
   "return_type" : "_ZTIv",
   "source_file" : "external/libcxx/include/atomic"
  },
  {
   "function_name" : "std::__1::atomic_flag::atomic_flag",
   "linker_set_key" : "_ZNSt3__111atomic_flagC1Ev",
   "parameters" :
   [
    {
     "is_this_ptr" : true,
     "referenced_type" : "_ZTIPNSt3__111atomic_flagE"
    }
   ],
   "return_type" : "_ZTIv",
   "source_file" : "external/libcxx/include/atomic"
  },
  {
   "function_name" : "std::__1::atomic_flag::atomic_flag",
   "linker_set_key" : "_ZNSt3__111atomic_flagC2Eb",
   "parameters" :
   [
    {
     "is_this_ptr" : true,
     "referenced_type" : "_ZTIPNSt3__111atomic_flagE"
    },
    {
     "referenced_type" : "_ZTIb"
    }
   ],
   "return_type" : "_ZTIv",
   "source_file" : "external/libcxx/include/atomic"
  },
  {
   "function_name" : "std::__1::atomic_flag::atomic_flag",
   "linker_set_key" : "_ZNSt3__111atomic_flagC2Ev",
   "parameters" :
   [
    {
     "is_this_ptr" : true,
     "referenced_type" : "_ZTIPNSt3__111atomic_flagE"
    }
   ],
   "return_type" : "_ZTIv",
   "source_file" : "external/libcxx/include/atomic"
  },
  {
   "function_name" : "std::__1::char_traits<char32_t>::eq_int_type",
   "linker_set_key" : "_ZNSt3__111char_traitsIDiE11eq_int_typeEjj",
   "parameters" :
   [
    {
     "referenced_type" : "_ZTIj"
    },
    {
     "referenced_type" : "_ZTIj"
    }
   ],
   "return_type" : "_ZTIb",
   "source_file" : "external/libcxx/include/__string"
  },
  {
   "function_name" : "std::__1::char_traits<char32_t>::to_int_type",
   "linker_set_key" : "_ZNSt3__111char_traitsIDiE11to_int_typeEDi",
   "parameters" :
   [
    {
     "referenced_type" : "_ZTIDi"
    }
   ],
   "return_type" : "_ZTIj",
   "source_file" : "external/libcxx/include/__string"
  },
  {
   "function_name" : "std::__1::char_traits<char32_t>::to_char_type",
   "linker_set_key" : "_ZNSt3__111char_traitsIDiE12to_char_typeEj",
   "parameters" :
   [
    {
     "referenced_type" : "_ZTIj"
    }
   ],
   "return_type" : "_ZTIDi",
   "source_file" : "external/libcxx/include/__string"
  },
  {
   "function_name" : "std::__1::char_traits<char32_t>::eq",
   "linker_set_key" : "_ZNSt3__111char_traitsIDiE2eqEDiDi",
   "parameters" :
   [
    {
     "referenced_type" : "_ZTIDi"
    },
    {
     "referenced_type" : "_ZTIDi"
    }
   ],
   "return_type" : "_ZTIb",
   "source_file" : "external/libcxx/include/__string"
  },
  {
   "function_name" : "std::__1::char_traits<char32_t>::lt",
   "linker_set_key" : "_ZNSt3__111char_traitsIDiE2ltEDiDi",
   "parameters" :
   [
    {
     "referenced_type" : "_ZTIDi"
    },
    {
     "referenced_type" : "_ZTIDi"
    }
   ],
   "return_type" : "_ZTIb",
   "source_file" : "external/libcxx/include/__string"
  },
  {
   "function_name" : "std::__1::char_traits<char32_t>::eof",
   "linker_set_key" : "_ZNSt3__111char_traitsIDiE3eofEv",
   "return_type" : "_ZTIj",
   "source_file" : "external/libcxx/include/__string"
  },
  {
   "function_name" : "std::__1::char_traits<char32_t>::copy",
   "linker_set_key" : "_ZNSt3__111char_traitsIDiE4copyEPDiPKDim",
   "parameters" :
   [
    {
     "referenced_type" : "_ZTIPDi"
    },
    {
     "referenced_type" : "_ZTIPKDi"
    },
    {
     "referenced_type" : "_ZTIm"
    }
   ],
   "return_type" : "_ZTIPDi",
   "source_file" : "external/libcxx/include/__string"
  },
  {
   "function_name" : "std::__1::char_traits<char32_t>::find",
   "linker_set_key" : "_ZNSt3__111char_traitsIDiE4findEPKDimRS2_",
   "parameters" :
   [
    {
     "referenced_type" : "_ZTIPKDi"
    },
    {
     "referenced_type" : "_ZTIm"
    },
    {
     "referenced_type" : "_ZTIRKDi"
    }
   ],
   "return_type" : "_ZTIPKDi",
   "source_file" : "external/libcxx/include/__string"
  },
  {
   "function_name" : "std::__1::char_traits<char32_t>::move",
   "linker_set_key" : "_ZNSt3__111char_traitsIDiE4moveEPDiPKDim",
   "parameters" :
   [
    {
     "referenced_type" : "_ZTIPDi"
    },
    {
     "referenced_type" : "_ZTIPKDi"
    },
    {
     "referenced_type" : "_ZTIm"
    }
   ],
   "return_type" : "_ZTIPDi",
   "source_file" : "external/libcxx/include/__string"
  },
  {
   "function_name" : "std::__1::char_traits<char32_t>::assign",
   "linker_set_key" : "_ZNSt3__111char_traitsIDiE6assignEPDimDi",
   "parameters" :
   [
    {
     "referenced_type" : "_ZTIPDi"
    },
    {
     "referenced_type" : "_ZTIm"
    },
    {
     "referenced_type" : "_ZTIDi"
    }
   ],
   "return_type" : "_ZTIPDi",
   "source_file" : "external/libcxx/include/__string"
  },
  {
   "function_name" : "std::__1::char_traits<char32_t>::assign",
   "linker_set_key" : "_ZNSt3__111char_traitsIDiE6assignERDiRKDi",
   "parameters" :
   [
    {
     "referenced_type" : "_ZTIRDi"
    },
    {
     "referenced_type" : "_ZTIRKDi"
    }
   ],
   "return_type" : "_ZTIv",
   "source_file" : "external/libcxx/include/__string"
  },
  {
   "function_name" : "std::__1::char_traits<char32_t>::length",
   "linker_set_key" : "_ZNSt3__111char_traitsIDiE6lengthEPKDi",
   "parameters" :
   [
    {
     "referenced_type" : "_ZTIPKDi"
    }
   ],
   "return_type" : "_ZTIm",
   "source_file" : "external/libcxx/include/__string"
  },
  {
   "function_name" : "std::__1::char_traits<char32_t>::compare",
   "linker_set_key" : "_ZNSt3__111char_traitsIDiE7compareEPKDiS3_m",
   "parameters" :
   [
    {
     "referenced_type" : "_ZTIPKDi"
    },
    {
     "referenced_type" : "_ZTIPKDi"
    },
    {
     "referenced_type" : "_ZTIm"
    }
   ],
   "return_type" : "_ZTIi",
   "source_file" : "external/libcxx/include/__string"
  },
  {
   "function_name" : "std::__1::char_traits<char32_t>::not_eof",
   "linker_set_key" : "_ZNSt3__111char_traitsIDiE7not_eofEj",
   "parameters" :
   [
    {
     "referenced_type" : "_ZTIj"
    }
   ],
   "return_type" : "_ZTIj",
   "source_file" : "external/libcxx/include/__string"
  },
  {
   "function_name" : "std::__1::char_traits<char16_t>::eq_int_type",
   "linker_set_key" : "_ZNSt3__111char_traitsIDsE11eq_int_typeEtt",
   "parameters" :
   [
    {
     "referenced_type" : "_ZTIt"
    },
    {
     "referenced_type" : "_ZTIt"
    }
   ],
   "return_type" : "_ZTIb",
   "source_file" : "external/libcxx/include/__string"
  },
  {
   "function_name" : "std::__1::char_traits<char16_t>::to_int_type",
   "linker_set_key" : "_ZNSt3__111char_traitsIDsE11to_int_typeEDs",
   "parameters" :
   [
    {
     "referenced_type" : "_ZTIDs"
    }
   ],
   "return_type" : "_ZTIt",
   "source_file" : "external/libcxx/include/__string"
  },
  {
   "function_name" : "std::__1::char_traits<char16_t>::to_char_type",
   "linker_set_key" : "_ZNSt3__111char_traitsIDsE12to_char_typeEt",
   "parameters" :
   [
    {
     "referenced_type" : "_ZTIt"
    }
   ],
   "return_type" : "_ZTIDs",
   "source_file" : "external/libcxx/include/__string"
  },
  {
   "function_name" : "std::__1::char_traits<char16_t>::eq",
   "linker_set_key" : "_ZNSt3__111char_traitsIDsE2eqEDsDs",
   "parameters" :
   [
    {
     "referenced_type" : "_ZTIDs"
    },
    {
     "referenced_type" : "_ZTIDs"
    }
   ],
   "return_type" : "_ZTIb",
   "source_file" : "external/libcxx/include/__string"
  },
  {
   "function_name" : "std::__1::char_traits<char16_t>::lt",
   "linker_set_key" : "_ZNSt3__111char_traitsIDsE2ltEDsDs",
   "parameters" :
   [
    {
     "referenced_type" : "_ZTIDs"
    },
    {
     "referenced_type" : "_ZTIDs"
    }
   ],
   "return_type" : "_ZTIb",
   "source_file" : "external/libcxx/include/__string"
  },
  {
   "function_name" : "std::__1::char_traits<char16_t>::eof",
   "linker_set_key" : "_ZNSt3__111char_traitsIDsE3eofEv",
   "return_type" : "_ZTIt",
   "source_file" : "external/libcxx/include/__string"
  },
  {
   "function_name" : "std::__1::char_traits<char16_t>::copy",
   "linker_set_key" : "_ZNSt3__111char_traitsIDsE4copyEPDsPKDsm",
   "parameters" :
   [
    {
     "referenced_type" : "_ZTIPDs"
    },
    {
     "referenced_type" : "_ZTIPKDs"
    },
    {
     "referenced_type" : "_ZTIm"
    }
   ],
   "return_type" : "_ZTIPDs",
   "source_file" : "external/libcxx/include/__string"
  },
  {
   "function_name" : "std::__1::char_traits<char16_t>::find",
   "linker_set_key" : "_ZNSt3__111char_traitsIDsE4findEPKDsmRS2_",
   "parameters" :
   [
    {
     "referenced_type" : "_ZTIPKDs"
    },
    {
     "referenced_type" : "_ZTIm"
    },
    {
     "referenced_type" : "_ZTIRKDs"
    }
   ],
   "return_type" : "_ZTIPKDs",
   "source_file" : "external/libcxx/include/__string"
  },
  {
   "function_name" : "std::__1::char_traits<char16_t>::move",
   "linker_set_key" : "_ZNSt3__111char_traitsIDsE4moveEPDsPKDsm",
   "parameters" :
   [
    {
     "referenced_type" : "_ZTIPDs"
    },
    {
     "referenced_type" : "_ZTIPKDs"
    },
    {
     "referenced_type" : "_ZTIm"
    }
   ],
   "return_type" : "_ZTIPDs",
   "source_file" : "external/libcxx/include/__string"
  },
  {
   "function_name" : "std::__1::char_traits<char16_t>::assign",
   "linker_set_key" : "_ZNSt3__111char_traitsIDsE6assignEPDsmDs",
   "parameters" :
   [
    {
     "referenced_type" : "_ZTIPDs"
    },
    {
     "referenced_type" : "_ZTIm"
    },
    {
     "referenced_type" : "_ZTIDs"
    }
   ],
   "return_type" : "_ZTIPDs",
   "source_file" : "external/libcxx/include/__string"
  },
  {
   "function_name" : "std::__1::char_traits<char16_t>::assign",
   "linker_set_key" : "_ZNSt3__111char_traitsIDsE6assignERDsRKDs",
   "parameters" :
   [
    {
     "referenced_type" : "_ZTIRDs"
    },
    {
     "referenced_type" : "_ZTIRKDs"
    }
   ],
   "return_type" : "_ZTIv",
   "source_file" : "external/libcxx/include/__string"
  },
  {
   "function_name" : "std::__1::char_traits<char16_t>::length",
   "linker_set_key" : "_ZNSt3__111char_traitsIDsE6lengthEPKDs",
   "parameters" :
   [
    {
     "referenced_type" : "_ZTIPKDs"
    }
   ],
   "return_type" : "_ZTIm",
   "source_file" : "external/libcxx/include/__string"
  },
  {
   "function_name" : "std::__1::char_traits<char16_t>::compare",
   "linker_set_key" : "_ZNSt3__111char_traitsIDsE7compareEPKDsS3_m",
   "parameters" :
   [
    {
     "referenced_type" : "_ZTIPKDs"
    },
    {
     "referenced_type" : "_ZTIPKDs"
    },
    {
     "referenced_type" : "_ZTIm"
    }
   ],
   "return_type" : "_ZTIi",
   "source_file" : "external/libcxx/include/__string"
  },
  {
   "function_name" : "std::__1::char_traits<char16_t>::not_eof",
   "linker_set_key" : "_ZNSt3__111char_traitsIDsE7not_eofEt",
   "parameters" :
   [
    {
     "referenced_type" : "_ZTIt"
    }
   ],
   "return_type" : "_ZTIt",
   "source_file" : "external/libcxx/include/__string"
  },
  {
   "function_name" : "std::__1::char_traits<char>::eq_int_type",
   "linker_set_key" : "_ZNSt3__111char_traitsIcE11eq_int_typeEii",
   "parameters" :
   [
    {
     "referenced_type" : "_ZTIi"
    },
    {
     "referenced_type" : "_ZTIi"
    }
   ],
   "return_type" : "_ZTIb",
   "source_file" : "external/libcxx/include/__string"
  },
  {
   "function_name" : "std::__1::char_traits<char>::to_int_type",
   "linker_set_key" : "_ZNSt3__111char_traitsIcE11to_int_typeEc",
   "parameters" :
   [
    {
     "referenced_type" : "_ZTIc"
    }
   ],
   "return_type" : "_ZTIi",
   "source_file" : "external/libcxx/include/__string"
  },
  {
   "function_name" : "std::__1::char_traits<char>::to_char_type",
   "linker_set_key" : "_ZNSt3__111char_traitsIcE12to_char_typeEi",
   "parameters" :
   [
    {
     "referenced_type" : "_ZTIi"
    }
   ],
   "return_type" : "_ZTIc",
   "source_file" : "external/libcxx/include/__string"
  },
  {
   "function_name" : "std::__1::char_traits<char>::eq",
   "linker_set_key" : "_ZNSt3__111char_traitsIcE2eqEcc",
   "parameters" :
   [
    {
     "referenced_type" : "_ZTIc"
    },
    {
     "referenced_type" : "_ZTIc"
    }
   ],
   "return_type" : "_ZTIb",
   "source_file" : "external/libcxx/include/__string"
  },
  {
   "function_name" : "std::__1::char_traits<char>::lt",
   "linker_set_key" : "_ZNSt3__111char_traitsIcE2ltEcc",
   "parameters" :
   [
    {
     "referenced_type" : "_ZTIc"
    },
    {
     "referenced_type" : "_ZTIc"
    }
   ],
   "return_type" : "_ZTIb",
   "source_file" : "external/libcxx/include/__string"
  },
  {
   "function_name" : "std::__1::char_traits<char>::eof",
   "linker_set_key" : "_ZNSt3__111char_traitsIcE3eofEv",
   "return_type" : "_ZTIi",
   "source_file" : "external/libcxx/include/__string"
  },
  {
   "function_name" : "std::__1::char_traits<char>::copy",
   "linker_set_key" : "_ZNSt3__111char_traitsIcE4copyEPcPKcm",
   "parameters" :
   [
    {
     "referenced_type" : "_ZTIPc"
    },
    {
     "referenced_type" : "_ZTIPKc"
    },
    {
     "referenced_type" : "_ZTIm"
    }
   ],
   "return_type" : "_ZTIPc",
   "source_file" : "external/libcxx/include/__string"
  },
  {
   "function_name" : "std::__1::char_traits<char>::find",
   "linker_set_key" : "_ZNSt3__111char_traitsIcE4findEPKcmRS2_",
   "parameters" :
   [
    {
     "referenced_type" : "_ZTIPKc"
    },
    {
     "referenced_type" : "_ZTIm"
    },
    {
     "referenced_type" : "_ZTIRKc"
    }
   ],
   "return_type" : "_ZTIPKc",
   "source_file" : "external/libcxx/include/__string"
  },
  {
   "function_name" : "std::__1::char_traits<char>::move",
   "linker_set_key" : "_ZNSt3__111char_traitsIcE4moveEPcPKcm",
   "parameters" :
   [
    {
     "referenced_type" : "_ZTIPc"
    },
    {
     "referenced_type" : "_ZTIPKc"
    },
    {
     "referenced_type" : "_ZTIm"
    }
   ],
   "return_type" : "_ZTIPc",
   "source_file" : "external/libcxx/include/__string"
  },
  {
   "function_name" : "std::__1::char_traits<char>::assign",
   "linker_set_key" : "_ZNSt3__111char_traitsIcE6assignEPcmc",
   "parameters" :
   [
    {
     "referenced_type" : "_ZTIPc"
    },
    {
     "referenced_type" : "_ZTIm"
    },
    {
     "referenced_type" : "_ZTIc"
    }
   ],
   "return_type" : "_ZTIPc",
   "source_file" : "external/libcxx/include/__string"
  },
  {
   "function_name" : "std::__1::char_traits<char>::assign",
   "linker_set_key" : "_ZNSt3__111char_traitsIcE6assignERcRKc",
   "parameters" :
   [
    {
     "referenced_type" : "_ZTIRc"
    },
    {
     "referenced_type" : "_ZTIRKc"
    }
   ],
   "return_type" : "_ZTIv",
   "source_file" : "external/libcxx/include/__string"
  },
  {
   "function_name" : "std::__1::char_traits<char>::length",
   "linker_set_key" : "_ZNSt3__111char_traitsIcE6lengthEPKc",
   "parameters" :
   [
    {
     "referenced_type" : "_ZTIPKc"
    }
   ],
   "return_type" : "_ZTIm",
   "source_file" : "external/libcxx/include/__string"
  },
  {
   "function_name" : "std::__1::char_traits<char>::compare",
   "linker_set_key" : "_ZNSt3__111char_traitsIcE7compareEPKcS3_m",
   "parameters" :
   [
    {
     "referenced_type" : "_ZTIPKc"
    },
    {
     "referenced_type" : "_ZTIPKc"
    },
    {
     "referenced_type" : "_ZTIm"
    }
   ],
   "return_type" : "_ZTIi",
   "source_file" : "external/libcxx/include/__string"
  },
  {
   "function_name" : "std::__1::char_traits<char>::not_eof",
   "linker_set_key" : "_ZNSt3__111char_traitsIcE7not_eofEi",
   "parameters" :
   [
    {
     "referenced_type" : "_ZTIi"
    }
   ],
   "return_type" : "_ZTIi",
   "source_file" : "external/libcxx/include/__string"
  },
  {
   "function_name" : "std::__1::char_traits<wchar_t>::eq_int_type",
   "linker_set_key" : "_ZNSt3__111char_traitsIwE11eq_int_typeEjj",
   "parameters" :
   [
    {
     "referenced_type" : "_ZTIj"
    },
    {
     "referenced_type" : "_ZTIj"
    }
   ],
   "return_type" : "_ZTIb",
   "source_file" : "external/libcxx/include/__string"
  },
  {
   "function_name" : "std::__1::char_traits<wchar_t>::to_int_type",
   "linker_set_key" : "_ZNSt3__111char_traitsIwE11to_int_typeEw",
   "parameters" :
   [
    {
     "referenced_type" : "_ZTIw"
    }
   ],
   "return_type" : "_ZTIj",
   "source_file" : "external/libcxx/include/__string"
  },
  {
   "function_name" : "std::__1::char_traits<wchar_t>::to_char_type",
   "linker_set_key" : "_ZNSt3__111char_traitsIwE12to_char_typeEj",
   "parameters" :
   [
    {
     "referenced_type" : "_ZTIj"
    }
   ],
   "return_type" : "_ZTIw",
   "source_file" : "external/libcxx/include/__string"
  },
  {
   "function_name" : "std::__1::char_traits<wchar_t>::eq",
   "linker_set_key" : "_ZNSt3__111char_traitsIwE2eqEww",
   "parameters" :
   [
    {
     "referenced_type" : "_ZTIw"
    },
    {
     "referenced_type" : "_ZTIw"
    }
   ],
   "return_type" : "_ZTIb",
   "source_file" : "external/libcxx/include/__string"
  },
  {
   "function_name" : "std::__1::char_traits<wchar_t>::lt",
   "linker_set_key" : "_ZNSt3__111char_traitsIwE2ltEww",
   "parameters" :
   [
    {
     "referenced_type" : "_ZTIw"
    },
    {
     "referenced_type" : "_ZTIw"
    }
   ],
   "return_type" : "_ZTIb",
   "source_file" : "external/libcxx/include/__string"
  },
  {
   "function_name" : "std::__1::char_traits<wchar_t>::eof",
   "linker_set_key" : "_ZNSt3__111char_traitsIwE3eofEv",
   "return_type" : "_ZTIj",
   "source_file" : "external/libcxx/include/__string"
  },
  {
   "function_name" : "std::__1::char_traits<wchar_t>::copy",
   "linker_set_key" : "_ZNSt3__111char_traitsIwE4copyEPwPKwm",
   "parameters" :
   [
    {
     "referenced_type" : "_ZTIPw"
    },
    {
     "referenced_type" : "_ZTIPKw"
    },
    {
     "referenced_type" : "_ZTIm"
    }
   ],
   "return_type" : "_ZTIPw",
   "source_file" : "external/libcxx/include/__string"
  },
  {
   "function_name" : "std::__1::char_traits<wchar_t>::find",
   "linker_set_key" : "_ZNSt3__111char_traitsIwE4findEPKwmRS2_",
   "parameters" :
   [
    {
     "referenced_type" : "_ZTIPKw"
    },
    {
     "referenced_type" : "_ZTIm"
    },
    {
     "referenced_type" : "_ZTIRKw"
    }
   ],
   "return_type" : "_ZTIPKw",
   "source_file" : "external/libcxx/include/__string"
  },
  {
   "function_name" : "std::__1::char_traits<wchar_t>::move",
   "linker_set_key" : "_ZNSt3__111char_traitsIwE4moveEPwPKwm",
   "parameters" :
   [
    {
     "referenced_type" : "_ZTIPw"
    },
    {
     "referenced_type" : "_ZTIPKw"
    },
    {
     "referenced_type" : "_ZTIm"
    }
   ],
   "return_type" : "_ZTIPw",
   "source_file" : "external/libcxx/include/__string"
  },
  {
   "function_name" : "std::__1::char_traits<wchar_t>::assign",
   "linker_set_key" : "_ZNSt3__111char_traitsIwE6assignEPwmw",
   "parameters" :
   [
    {
     "referenced_type" : "_ZTIPw"
    },
    {
     "referenced_type" : "_ZTIm"
    },
    {
     "referenced_type" : "_ZTIw"
    }
   ],
   "return_type" : "_ZTIPw",
   "source_file" : "external/libcxx/include/__string"
  },
  {
   "function_name" : "std::__1::char_traits<wchar_t>::assign",
   "linker_set_key" : "_ZNSt3__111char_traitsIwE6assignERwRKw",
   "parameters" :
   [
    {
     "referenced_type" : "_ZTIRw"
    },
    {
     "referenced_type" : "_ZTIRKw"
    }
   ],
   "return_type" : "_ZTIv",
   "source_file" : "external/libcxx/include/__string"
  },
  {
   "function_name" : "std::__1::char_traits<wchar_t>::length",
   "linker_set_key" : "_ZNSt3__111char_traitsIwE6lengthEPKw",
   "parameters" :
   [
    {
     "referenced_type" : "_ZTIPKw"
    }
   ],
   "return_type" : "_ZTIm",
   "source_file" : "external/libcxx/include/__string"
  },
  {
   "function_name" : "std::__1::char_traits<wchar_t>::compare",
   "linker_set_key" : "_ZNSt3__111char_traitsIwE7compareEPKwS3_m",
   "parameters" :
   [
    {
     "referenced_type" : "_ZTIPKw"
    },
    {
     "referenced_type" : "_ZTIPKw"
    },
    {
     "referenced_type" : "_ZTIm"
    }
   ],
   "return_type" : "_ZTIi",
   "source_file" : "external/libcxx/include/__string"
  },
  {
   "function_name" : "std::__1::char_traits<wchar_t>::not_eof",
   "linker_set_key" : "_ZNSt3__111char_traitsIwE7not_eofEj",
   "parameters" :
   [
    {
     "referenced_type" : "_ZTIj"
    }
   ],
   "return_type" : "_ZTIj",
   "source_file" : "external/libcxx/include/__string"
  },
  {
   "function_name" : "std::__1::scoped_lock<>::scoped_lock",
   "linker_set_key" : "_ZNSt3__111scoped_lockIJEEC1ENS_12adopt_lock_tE",
   "parameters" :
   [
    {
     "is_this_ptr" : true,
     "referenced_type" : "_ZTIPNSt3__111scoped_lockIJEEE"
    },
    {
     "referenced_type" : "_ZTINSt3__112adopt_lock_tE"
    }
   ],
   "return_type" : "_ZTIv",
   "source_file" : "external/libcxx/include/mutex"
  },
  {
   "function_name" : "std::__1::scoped_lock<>::scoped_lock",
   "linker_set_key" : "_ZNSt3__111scoped_lockIJEEC1Ev",
   "parameters" :
   [
    {
     "is_this_ptr" : true,
     "referenced_type" : "_ZTIPNSt3__111scoped_lockIJEEE"
    }
   ],
   "return_type" : "_ZTIv",
   "source_file" : "external/libcxx/include/mutex"
  },
  {
   "function_name" : "std::__1::scoped_lock<>::scoped_lock",
   "linker_set_key" : "_ZNSt3__111scoped_lockIJEEC2ENS_12adopt_lock_tE",
   "parameters" :
   [
    {
     "is_this_ptr" : true,
     "referenced_type" : "_ZTIPNSt3__111scoped_lockIJEEE"
    },
    {
     "referenced_type" : "_ZTINSt3__112adopt_lock_tE"
    }
   ],
   "return_type" : "_ZTIv",
   "source_file" : "external/libcxx/include/mutex"
  },
  {
   "function_name" : "std::__1::scoped_lock<>::scoped_lock",
   "linker_set_key" : "_ZNSt3__111scoped_lockIJEEC2Ev",
   "parameters" :
   [
    {
     "is_this_ptr" : true,
     "referenced_type" : "_ZTIPNSt3__111scoped_lockIJEEE"
    }
   ],
   "return_type" : "_ZTIv",
   "source_file" : "external/libcxx/include/mutex"
  },
  {
   "function_name" : "std::__1::scoped_lock<>::~scoped_lock",
   "linker_set_key" : "_ZNSt3__111scoped_lockIJEED1Ev",
   "parameters" :
   [
    {
     "is_this_ptr" : true,
     "referenced_type" : "_ZTIPNSt3__111scoped_lockIJEEE"
    }
   ],
   "return_type" : "_ZTIv",
   "source_file" : "external/libcxx/include/mutex"
  },
  {
   "function_name" : "std::__1::scoped_lock<>::~scoped_lock",
   "linker_set_key" : "_ZNSt3__111scoped_lockIJEED2Ev",
   "parameters" :
   [
    {
     "is_this_ptr" : true,
     "referenced_type" : "_ZTIPNSt3__111scoped_lockIJEEE"
    }
   ],
   "return_type" : "_ZTIv",
   "source_file" : "external/libcxx/include/mutex"
  },
  {
   "access" : "private",
   "function_name" : "std::__1::__destruct_n::__set",
   "linker_set_key" : "_ZNSt3__112__destruct_n5__setEmNS_17integral_constantIbLb0EEE",
   "parameters" :
   [
    {
     "is_this_ptr" : true,
     "referenced_type" : "_ZTIPNSt3__112__destruct_nE"
    },
    {
     "referenced_type" : "_ZTIm"
    },
    {
     "referenced_type" : "_ZTINSt3__117integral_constantIbLb0EEE"
    }
   ],
   "return_type" : "_ZTIv",
   "source_file" : "external/libcxx/include/memory"
  },
  {
   "access" : "private",
   "function_name" : "std::__1::__destruct_n::__set",
   "linker_set_key" : "_ZNSt3__112__destruct_n5__setEmNS_17integral_constantIbLb1EEE",
   "parameters" :
   [
    {
     "is_this_ptr" : true,
     "referenced_type" : "_ZTIPNSt3__112__destruct_nE"
    },
    {
     "referenced_type" : "_ZTIm"
    },
    {
     "referenced_type" : "_ZTINSt3__117integral_constantIbLb1EEE"
    }
   ],
   "return_type" : "_ZTIv",
   "source_file" : "external/libcxx/include/memory"
  },
  {
   "access" : "private",
   "function_name" : "std::__1::__destruct_n::__incr",
   "linker_set_key" : "_ZNSt3__112__destruct_n6__incrENS_17integral_constantIbLb0EEE",
   "parameters" :
   [
    {
     "is_this_ptr" : true,
     "referenced_type" : "_ZTIPNSt3__112__destruct_nE"
    },
    {
     "referenced_type" : "_ZTINSt3__117integral_constantIbLb0EEE"
    }
   ],
   "return_type" : "_ZTIv",
   "source_file" : "external/libcxx/include/memory"
  },
  {
   "access" : "private",
   "function_name" : "std::__1::__destruct_n::__incr",
   "linker_set_key" : "_ZNSt3__112__destruct_n6__incrENS_17integral_constantIbLb1EEE",
   "parameters" :
   [
    {
     "is_this_ptr" : true,
     "referenced_type" : "_ZTIPNSt3__112__destruct_nE"
    },
    {
     "referenced_type" : "_ZTINSt3__117integral_constantIbLb1EEE"
    }
   ],
   "return_type" : "_ZTIv",
   "source_file" : "external/libcxx/include/memory"
  },
  {
   "function_name" : "std::__1::__destruct_n::__destruct_n",
   "linker_set_key" : "_ZNSt3__112__destruct_nC1Em",
   "parameters" :
   [
    {
     "is_this_ptr" : true,
     "referenced_type" : "_ZTIPNSt3__112__destruct_nE"
    },
    {
     "referenced_type" : "_ZTIm"
    }
   ],
   "return_type" : "_ZTIv",
   "source_file" : "external/libcxx/include/memory"
  },
  {
   "function_name" : "std::__1::__destruct_n::__destruct_n",
   "linker_set_key" : "_ZNSt3__112__destruct_nC2Em",
   "parameters" :
   [
    {
     "is_this_ptr" : true,
     "referenced_type" : "_ZTIPNSt3__112__destruct_nE"
    },
    {
     "referenced_type" : "_ZTIm"
    }
   ],
   "return_type" : "_ZTIv",
   "source_file" : "external/libcxx/include/memory"
  },
  {
   "access" : "private",
   "function_name" : "std::__1::basic_string<char32_t, std::__1::char_traits<char32_t>, std::__1::allocator<char32_t>>::__align_it",
   "linker_set_key" : "_ZNSt3__112basic_stringIDiNS_11char_traitsIDiEENS_9allocatorIDiEEE10__align_itILm4EEEmm",
   "parameters" :
   [
    {
     "referenced_type" : "_ZTIm"
    }
   ],
   "return_type" : "_ZTIm",
   "source_file" : "external/libcxx/include/string"
  },
  {
   "access" : "private",
   "function_name" : "std::__1::basic_string<char32_t, std::__1::char_traits<char32_t>, std::__1::allocator<char32_t>>::__recommend",
   "linker_set_key" : "_ZNSt3__112basic_stringIDiNS_11char_traitsIDiEENS_9allocatorIDiEEE11__recommendEm",
   "parameters" :
   [
    {
     "referenced_type" : "_ZTIm"
    }
   ],
   "return_type" : "_ZTIm",
   "source_file" : "external/libcxx/include/string"
  },
  {
   "access" : "private",
   "function_name" : "std::__1::basic_string<char32_t, std::__1::char_traits<char32_t>, std::__1::allocator<char32_t>>::__set_long_cap",
   "linker_set_key" : "_ZNSt3__112basic_stringIDiNS_11char_traitsIDiEENS_9allocatorIDiEEE14__set_long_capEm",
   "parameters" :
   [
    {
     "is_this_ptr" : true,
     "referenced_type" : "_ZTIPNSt3__112basic_stringIDiNS_11char_traitsIDiEENS_9allocatorIDiEEEE"
    },
    {
     "referenced_type" : "_ZTIm"
    }
   ],
   "return_type" : "_ZTIv",
   "source_file" : "external/libcxx/include/string"
  },
  {
   "access" : "private",
   "function_name" : "std::__1::basic_string<char32_t, std::__1::char_traits<char32_t>, std::__1::allocator<char32_t>>::__set_long_size",
   "linker_set_key" : "_ZNSt3__112basic_stringIDiNS_11char_traitsIDiEENS_9allocatorIDiEEE15__set_long_sizeEm",
   "parameters" :
   [
    {
     "is_this_ptr" : true,
     "referenced_type" : "_ZTIPNSt3__112basic_stringIDiNS_11char_traitsIDiEENS_9allocatorIDiEEEE"
    },
    {
     "referenced_type" : "_ZTIm"
    }
   ],
   "return_type" : "_ZTIv",
   "source_file" : "external/libcxx/include/string"
  },
  {
   "access" : "private",
   "function_name" : "std::__1::basic_string<char32_t, std::__1::char_traits<char32_t>, std::__1::allocator<char32_t>>::__set_short_size",
   "linker_set_key" : "_ZNSt3__112basic_stringIDiNS_11char_traitsIDiEENS_9allocatorIDiEEE16__set_short_sizeEm",
   "parameters" :
   [
    {
     "is_this_ptr" : true,
     "referenced_type" : "_ZTIPNSt3__112basic_stringIDiNS_11char_traitsIDiEENS_9allocatorIDiEEEE"
    },
    {
     "referenced_type" : "_ZTIm"
    }
   ],
   "return_type" : "_ZTIv",
   "source_file" : "external/libcxx/include/string"
  },
  {
   "access" : "private",
   "function_name" : "std::__1::basic_string<char32_t, std::__1::char_traits<char32_t>, std::__1::allocator<char32_t>>::__get_long_pointer",
   "linker_set_key" : "_ZNSt3__112basic_stringIDiNS_11char_traitsIDiEENS_9allocatorIDiEEE18__get_long_pointerEv",
   "parameters" :
   [
    {
     "is_this_ptr" : true,
     "referenced_type" : "_ZTIPNSt3__112basic_stringIDiNS_11char_traitsIDiEENS_9allocatorIDiEEEE"
    }
   ],
   "return_type" : "_ZTIPDi",
   "source_file" : "external/libcxx/include/string"
  },
  {
   "access" : "private",
   "function_name" : "std::__1::basic_string<char32_t, std::__1::char_traits<char32_t>, std::__1::allocator<char32_t>>::__set_long_pointer",
   "linker_set_key" : "_ZNSt3__112basic_stringIDiNS_11char_traitsIDiEENS_9allocatorIDiEEE18__set_long_pointerEPDi",
   "parameters" :
   [
    {
     "is_this_ptr" : true,
     "referenced_type" : "_ZTIPNSt3__112basic_stringIDiNS_11char_traitsIDiEENS_9allocatorIDiEEEE"
    },
    {
     "referenced_type" : "_ZTIPDi"
    }
   ],
   "return_type" : "_ZTIv",
   "source_file" : "external/libcxx/include/string"
  },
  {
   "access" : "private",
   "function_name" : "std::__1::basic_string<char32_t, std::__1::char_traits<char32_t>, std::__1::allocator<char32_t>>::__get_short_pointer",
   "linker_set_key" : "_ZNSt3__112basic_stringIDiNS_11char_traitsIDiEENS_9allocatorIDiEEE19__get_short_pointerEv",
   "parameters" :
   [
    {
     "is_this_ptr" : true,
     "referenced_type" : "_ZTIPNSt3__112basic_stringIDiNS_11char_traitsIDiEENS_9allocatorIDiEEEE"
    }
   ],
   "return_type" : "_ZTIPDi",
   "source_file" : "external/libcxx/include/string"
  },
  {
   "access" : "private",
   "function_name" : "std::__1::basic_string<char32_t, std::__1::char_traits<char32_t>, std::__1::allocator<char32_t>>::__init",
   "linker_set_key" : "_ZNSt3__112basic_stringIDiNS_11char_traitsIDiEENS_9allocatorIDiEEE6__initEPKDim",
   "parameters" :
   [
    {
     "is_this_ptr" : true,
     "referenced_type" : "_ZTIPNSt3__112basic_stringIDiNS_11char_traitsIDiEENS_9allocatorIDiEEEE"
    },
    {
     "referenced_type" : "_ZTIPKDi"
    },
    {
     "referenced_type" : "_ZTIm"
    }
   ],
   "return_type" : "_ZTIv",
   "source_file" : "external/libcxx/include/string"
  },
  {
   "access" : "private",
   "function_name" : "std::__1::basic_string<char32_t, std::__1::char_traits<char32_t>, std::__1::allocator<char32_t>>::__alloc",
   "linker_set_key" : "_ZNSt3__112basic_stringIDiNS_11char_traitsIDiEENS_9allocatorIDiEEE7__allocEv",
   "parameters" :
   [
    {
     "is_this_ptr" : true,
     "referenced_type" : "_ZTIPNSt3__112basic_stringIDiNS_11char_traitsIDiEENS_9allocatorIDiEEEE"
    }
   ],
   "return_type" : "_ZTIRNSt3__19allocatorIDiEE",
   "source_file" : "external/libcxx/include/string"
  },
  {
   "function_name" : "std::__1::basic_string<char32_t, std::__1::char_traits<char32_t>, std::__1::allocator<char32_t>>::basic_string",
   "linker_set_key" : "_ZNSt3__112basic_stringIDiNS_11char_traitsIDiEENS_9allocatorIDiEEEC1EPKDim",
   "parameters" :
   [
    {
     "is_this_ptr" : true,
     "referenced_type" : "_ZTIPNSt3__112basic_stringIDiNS_11char_traitsIDiEENS_9allocatorIDiEEEE"
    },
    {
     "referenced_type" : "_ZTIPKDi"
    },
    {
     "referenced_type" : "_ZTIm"
    }
   ],
   "return_type" : "_ZTIv",
   "source_file" : "external/libcxx/include/string"
  },
  {
   "function_name" : "std::__1::basic_string<char32_t, std::__1::char_traits<char32_t>, std::__1::allocator<char32_t>>::basic_string",
   "linker_set_key" : "_ZNSt3__112basic_stringIDiNS_11char_traitsIDiEENS_9allocatorIDiEEEC2EPKDim",
   "parameters" :
   [
    {
     "is_this_ptr" : true,
     "referenced_type" : "_ZTIPNSt3__112basic_stringIDiNS_11char_traitsIDiEENS_9allocatorIDiEEEE"
    },
    {
     "referenced_type" : "_ZTIPKDi"
    },
    {
     "referenced_type" : "_ZTIm"
    }
   ],
   "return_type" : "_ZTIv",
   "source_file" : "external/libcxx/include/string"
  },
  {
   "function_name" : "std::__1::basic_string<char32_t, std::__1::char_traits<char32_t>, std::__1::allocator<char32_t>>::~basic_string",
   "linker_set_key" : "_ZNSt3__112basic_stringIDiNS_11char_traitsIDiEENS_9allocatorIDiEEED1Ev",
   "parameters" :
   [
    {
     "is_this_ptr" : true,
     "referenced_type" : "_ZTIPNSt3__112basic_stringIDiNS_11char_traitsIDiEENS_9allocatorIDiEEEE"
    }
   ],
   "return_type" : "_ZTIv",
   "source_file" : "external/libcxx/include/string"
  },
  {
   "function_name" : "std::__1::basic_string<char32_t, std::__1::char_traits<char32_t>, std::__1::allocator<char32_t>>::~basic_string",
   "linker_set_key" : "_ZNSt3__112basic_stringIDiNS_11char_traitsIDiEENS_9allocatorIDiEEED2Ev",
   "parameters" :
   [
    {
     "is_this_ptr" : true,
     "referenced_type" : "_ZTIPNSt3__112basic_stringIDiNS_11char_traitsIDiEENS_9allocatorIDiEEEE"
    }
   ],
   "return_type" : "_ZTIv",
   "source_file" : "external/libcxx/include/string"
  },
  {
   "access" : "private",
   "function_name" : "std::__1::basic_string<char16_t, std::__1::char_traits<char16_t>, std::__1::allocator<char16_t>>::__align_it",
   "linker_set_key" : "_ZNSt3__112basic_stringIDsNS_11char_traitsIDsEENS_9allocatorIDsEEE10__align_itILm8EEEmm",
   "parameters" :
   [
    {
     "referenced_type" : "_ZTIm"
    }
   ],
   "return_type" : "_ZTIm",
   "source_file" : "external/libcxx/include/string"
  },
  {
   "access" : "private",
   "function_name" : "std::__1::basic_string<char16_t, std::__1::char_traits<char16_t>, std::__1::allocator<char16_t>>::__recommend",
   "linker_set_key" : "_ZNSt3__112basic_stringIDsNS_11char_traitsIDsEENS_9allocatorIDsEEE11__recommendEm",
   "parameters" :
   [
    {
     "referenced_type" : "_ZTIm"
    }
   ],
   "return_type" : "_ZTIm",
   "source_file" : "external/libcxx/include/string"
  },
  {
   "access" : "private",
   "function_name" : "std::__1::basic_string<char16_t, std::__1::char_traits<char16_t>, std::__1::allocator<char16_t>>::__set_long_cap",
   "linker_set_key" : "_ZNSt3__112basic_stringIDsNS_11char_traitsIDsEENS_9allocatorIDsEEE14__set_long_capEm",
   "parameters" :
   [
    {
     "is_this_ptr" : true,
     "referenced_type" : "_ZTIPNSt3__112basic_stringIDsNS_11char_traitsIDsEENS_9allocatorIDsEEEE"
    },
    {
     "referenced_type" : "_ZTIm"
    }
   ],
   "return_type" : "_ZTIv",
   "source_file" : "external/libcxx/include/string"
  },
  {
   "access" : "private",
   "function_name" : "std::__1::basic_string<char16_t, std::__1::char_traits<char16_t>, std::__1::allocator<char16_t>>::__set_long_size",
   "linker_set_key" : "_ZNSt3__112basic_stringIDsNS_11char_traitsIDsEENS_9allocatorIDsEEE15__set_long_sizeEm",
   "parameters" :
   [
    {
     "is_this_ptr" : true,
     "referenced_type" : "_ZTIPNSt3__112basic_stringIDsNS_11char_traitsIDsEENS_9allocatorIDsEEEE"
    },
    {
     "referenced_type" : "_ZTIm"
    }
   ],
   "return_type" : "_ZTIv",
   "source_file" : "external/libcxx/include/string"
  },
  {
   "access" : "private",
   "function_name" : "std::__1::basic_string<char16_t, std::__1::char_traits<char16_t>, std::__1::allocator<char16_t>>::__set_short_size",
   "linker_set_key" : "_ZNSt3__112basic_stringIDsNS_11char_traitsIDsEENS_9allocatorIDsEEE16__set_short_sizeEm",
   "parameters" :
   [
    {
     "is_this_ptr" : true,
     "referenced_type" : "_ZTIPNSt3__112basic_stringIDsNS_11char_traitsIDsEENS_9allocatorIDsEEEE"
    },
    {
     "referenced_type" : "_ZTIm"
    }
   ],
   "return_type" : "_ZTIv",
   "source_file" : "external/libcxx/include/string"
  },
  {
   "access" : "private",
   "function_name" : "std::__1::basic_string<char16_t, std::__1::char_traits<char16_t>, std::__1::allocator<char16_t>>::__get_long_pointer",
   "linker_set_key" : "_ZNSt3__112basic_stringIDsNS_11char_traitsIDsEENS_9allocatorIDsEEE18__get_long_pointerEv",
   "parameters" :
   [
    {
     "is_this_ptr" : true,
     "referenced_type" : "_ZTIPNSt3__112basic_stringIDsNS_11char_traitsIDsEENS_9allocatorIDsEEEE"
    }
   ],
   "return_type" : "_ZTIPDs",
   "source_file" : "external/libcxx/include/string"
  },
  {
   "access" : "private",
   "function_name" : "std::__1::basic_string<char16_t, std::__1::char_traits<char16_t>, std::__1::allocator<char16_t>>::__set_long_pointer",
   "linker_set_key" : "_ZNSt3__112basic_stringIDsNS_11char_traitsIDsEENS_9allocatorIDsEEE18__set_long_pointerEPDs",
   "parameters" :
   [
    {
     "is_this_ptr" : true,
     "referenced_type" : "_ZTIPNSt3__112basic_stringIDsNS_11char_traitsIDsEENS_9allocatorIDsEEEE"
    },
    {
     "referenced_type" : "_ZTIPDs"
    }
   ],
   "return_type" : "_ZTIv",
   "source_file" : "external/libcxx/include/string"
  },
  {
   "access" : "private",
   "function_name" : "std::__1::basic_string<char16_t, std::__1::char_traits<char16_t>, std::__1::allocator<char16_t>>::__get_short_pointer",
   "linker_set_key" : "_ZNSt3__112basic_stringIDsNS_11char_traitsIDsEENS_9allocatorIDsEEE19__get_short_pointerEv",
   "parameters" :
   [
    {
     "is_this_ptr" : true,
     "referenced_type" : "_ZTIPNSt3__112basic_stringIDsNS_11char_traitsIDsEENS_9allocatorIDsEEEE"
    }
   ],
   "return_type" : "_ZTIPDs",
   "source_file" : "external/libcxx/include/string"
  },
  {
   "access" : "private",
   "function_name" : "std::__1::basic_string<char16_t, std::__1::char_traits<char16_t>, std::__1::allocator<char16_t>>::__init",
   "linker_set_key" : "_ZNSt3__112basic_stringIDsNS_11char_traitsIDsEENS_9allocatorIDsEEE6__initEPKDsm",
   "parameters" :
   [
    {
     "is_this_ptr" : true,
     "referenced_type" : "_ZTIPNSt3__112basic_stringIDsNS_11char_traitsIDsEENS_9allocatorIDsEEEE"
    },
    {
     "referenced_type" : "_ZTIPKDs"
    },
    {
     "referenced_type" : "_ZTIm"
    }
   ],
   "return_type" : "_ZTIv",
   "source_file" : "external/libcxx/include/string"
  },
  {
   "access" : "private",
   "function_name" : "std::__1::basic_string<char16_t, std::__1::char_traits<char16_t>, std::__1::allocator<char16_t>>::__alloc",
   "linker_set_key" : "_ZNSt3__112basic_stringIDsNS_11char_traitsIDsEENS_9allocatorIDsEEE7__allocEv",
   "parameters" :
   [
    {
     "is_this_ptr" : true,
     "referenced_type" : "_ZTIPNSt3__112basic_stringIDsNS_11char_traitsIDsEENS_9allocatorIDsEEEE"
    }
   ],
   "return_type" : "_ZTIRNSt3__19allocatorIDsEE",
   "source_file" : "external/libcxx/include/string"
  },
  {
   "function_name" : "std::__1::basic_string<char16_t, std::__1::char_traits<char16_t>, std::__1::allocator<char16_t>>::basic_string",
   "linker_set_key" : "_ZNSt3__112basic_stringIDsNS_11char_traitsIDsEENS_9allocatorIDsEEEC1EPKDsm",
   "parameters" :
   [
    {
     "is_this_ptr" : true,
     "referenced_type" : "_ZTIPNSt3__112basic_stringIDsNS_11char_traitsIDsEENS_9allocatorIDsEEEE"
    },
    {
     "referenced_type" : "_ZTIPKDs"
    },
    {
     "referenced_type" : "_ZTIm"
    }
   ],
   "return_type" : "_ZTIv",
   "source_file" : "external/libcxx/include/string"
  },
  {
   "function_name" : "std::__1::basic_string<char16_t, std::__1::char_traits<char16_t>, std::__1::allocator<char16_t>>::basic_string",
   "linker_set_key" : "_ZNSt3__112basic_stringIDsNS_11char_traitsIDsEENS_9allocatorIDsEEEC2EPKDsm",
   "parameters" :
   [
    {
     "is_this_ptr" : true,
     "referenced_type" : "_ZTIPNSt3__112basic_stringIDsNS_11char_traitsIDsEENS_9allocatorIDsEEEE"
    },
    {
     "referenced_type" : "_ZTIPKDs"
    },
    {
     "referenced_type" : "_ZTIm"
    }
   ],
   "return_type" : "_ZTIv",
   "source_file" : "external/libcxx/include/string"
  },
  {
   "function_name" : "std::__1::basic_string<char16_t, std::__1::char_traits<char16_t>, std::__1::allocator<char16_t>>::~basic_string",
   "linker_set_key" : "_ZNSt3__112basic_stringIDsNS_11char_traitsIDsEENS_9allocatorIDsEEED1Ev",
   "parameters" :
   [
    {
     "is_this_ptr" : true,
     "referenced_type" : "_ZTIPNSt3__112basic_stringIDsNS_11char_traitsIDsEENS_9allocatorIDsEEEE"
    }
   ],
   "return_type" : "_ZTIv",
   "source_file" : "external/libcxx/include/string"
  },
  {
   "function_name" : "std::__1::basic_string<char16_t, std::__1::char_traits<char16_t>, std::__1::allocator<char16_t>>::~basic_string",
   "linker_set_key" : "_ZNSt3__112basic_stringIDsNS_11char_traitsIDsEENS_9allocatorIDsEEED2Ev",
   "parameters" :
   [
    {
     "is_this_ptr" : true,
     "referenced_type" : "_ZTIPNSt3__112basic_stringIDsNS_11char_traitsIDsEENS_9allocatorIDsEEEE"
    }
   ],
   "return_type" : "_ZTIv",
   "source_file" : "external/libcxx/include/string"
  },
  {
   "access" : "private",
   "function_name" : "std::__1::basic_string<char, std::__1::char_traits<char>, std::__1::allocator<char>>::__align_it",
   "linker_set_key" : "_ZNSt3__112basic_stringIcNS_11char_traitsIcEENS_9allocatorIcEEE10__align_itILm16EEEmm",
   "parameters" :
   [
    {
     "referenced_type" : "_ZTIm"
    }
   ],
   "return_type" : "_ZTIm",
   "source_file" : "external/libcxx/include/string"
  },
  {
   "access" : "private",
   "function_name" : "std::__1::basic_string<char, std::__1::char_traits<char>, std::__1::allocator<char>>::__recommend",
   "linker_set_key" : "_ZNSt3__112basic_stringIcNS_11char_traitsIcEENS_9allocatorIcEEE11__recommendEm",
   "parameters" :
   [
    {
     "referenced_type" : "_ZTIm"
    }
   ],
   "return_type" : "_ZTIm",
   "source_file" : "external/libcxx/include/string"
  },
  {
   "access" : "private",
   "function_name" : "std::__1::basic_string<char, std::__1::char_traits<char>, std::__1::allocator<char>>::__set_long_cap",
   "linker_set_key" : "_ZNSt3__112basic_stringIcNS_11char_traitsIcEENS_9allocatorIcEEE14__set_long_capEm",
   "parameters" :
   [
    {
     "is_this_ptr" : true,
     "referenced_type" : "_ZTIPNSt3__112basic_stringIcNS_11char_traitsIcEENS_9allocatorIcEEEE"
    },
    {
     "referenced_type" : "_ZTIm"
    }
   ],
   "return_type" : "_ZTIv",
   "source_file" : "external/libcxx/include/string"
  },
  {
   "access" : "private",
   "function_name" : "std::__1::basic_string<char, std::__1::char_traits<char>, std::__1::allocator<char>>::__set_long_size",
   "linker_set_key" : "_ZNSt3__112basic_stringIcNS_11char_traitsIcEENS_9allocatorIcEEE15__set_long_sizeEm",
   "parameters" :
   [
    {
     "is_this_ptr" : true,
     "referenced_type" : "_ZTIPNSt3__112basic_stringIcNS_11char_traitsIcEENS_9allocatorIcEEEE"
    },
    {
     "referenced_type" : "_ZTIm"
    }
   ],
   "return_type" : "_ZTIv",
   "source_file" : "external/libcxx/include/string"
  },
  {
   "access" : "private",
   "function_name" : "std::__1::basic_string<char, std::__1::char_traits<char>, std::__1::allocator<char>>::__set_short_size",
   "linker_set_key" : "_ZNSt3__112basic_stringIcNS_11char_traitsIcEENS_9allocatorIcEEE16__set_short_sizeEm",
   "parameters" :
   [
    {
     "is_this_ptr" : true,
     "referenced_type" : "_ZTIPNSt3__112basic_stringIcNS_11char_traitsIcEENS_9allocatorIcEEEE"
    },
    {
     "referenced_type" : "_ZTIm"
    }
   ],
   "return_type" : "_ZTIv",
   "source_file" : "external/libcxx/include/string"
  },
  {
   "access" : "private",
   "function_name" : "std::__1::basic_string<char, std::__1::char_traits<char>, std::__1::allocator<char>>::__get_long_pointer",
   "linker_set_key" : "_ZNSt3__112basic_stringIcNS_11char_traitsIcEENS_9allocatorIcEEE18__get_long_pointerEv",
   "parameters" :
   [
    {
     "is_this_ptr" : true,
     "referenced_type" : "_ZTIPNSt3__112basic_stringIcNS_11char_traitsIcEENS_9allocatorIcEEEE"
    }
   ],
   "return_type" : "_ZTIPc",
   "source_file" : "external/libcxx/include/string"
  },
  {
   "access" : "private",
   "function_name" : "std::__1::basic_string<char, std::__1::char_traits<char>, std::__1::allocator<char>>::__set_long_pointer",
   "linker_set_key" : "_ZNSt3__112basic_stringIcNS_11char_traitsIcEENS_9allocatorIcEEE18__set_long_pointerEPc",
   "parameters" :
   [
    {
     "is_this_ptr" : true,
     "referenced_type" : "_ZTIPNSt3__112basic_stringIcNS_11char_traitsIcEENS_9allocatorIcEEEE"
    },
    {
     "referenced_type" : "_ZTIPc"
    }
   ],
   "return_type" : "_ZTIv",
   "source_file" : "external/libcxx/include/string"
  },
  {
   "access" : "private",
   "function_name" : "std::__1::basic_string<char, std::__1::char_traits<char>, std::__1::allocator<char>>::__get_short_pointer",
   "linker_set_key" : "_ZNSt3__112basic_stringIcNS_11char_traitsIcEENS_9allocatorIcEEE19__get_short_pointerEv",
   "parameters" :
   [
    {
     "is_this_ptr" : true,
     "referenced_type" : "_ZTIPNSt3__112basic_stringIcNS_11char_traitsIcEENS_9allocatorIcEEEE"
    }
   ],
   "return_type" : "_ZTIPc",
   "source_file" : "external/libcxx/include/string"
  },
  {
   "access" : "private",
   "function_name" : "std::__1::basic_string<char, std::__1::char_traits<char>, std::__1::allocator<char>>::__init",
   "linker_set_key" : "_ZNSt3__112basic_stringIcNS_11char_traitsIcEENS_9allocatorIcEEE6__initEPKcm",
   "parameters" :
   [
    {
     "is_this_ptr" : true,
     "referenced_type" : "_ZTIPNSt3__112basic_stringIcNS_11char_traitsIcEENS_9allocatorIcEEEE"
    },
    {
     "referenced_type" : "_ZTIPKc"
    },
    {
     "referenced_type" : "_ZTIm"
    }
   ],
   "return_type" : "_ZTIv",
   "source_file" : "external/libcxx/include/string"
  },
  {
   "access" : "private",
   "function_name" : "std::__1::basic_string<char, std::__1::char_traits<char>, std::__1::allocator<char>>::__alloc",
   "linker_set_key" : "_ZNSt3__112basic_stringIcNS_11char_traitsIcEENS_9allocatorIcEEE7__allocEv",
   "parameters" :
   [
    {
     "is_this_ptr" : true,
     "referenced_type" : "_ZTIPNSt3__112basic_stringIcNS_11char_traitsIcEENS_9allocatorIcEEEE"
    }
   ],
   "return_type" : "_ZTIRNSt3__19allocatorIcEE",
   "source_file" : "external/libcxx/include/string"
  },
  {
   "function_name" : "std::__1::basic_string<char, std::__1::char_traits<char>, std::__1::allocator<char>>::basic_string",
   "linker_set_key" : "_ZNSt3__112basic_stringIcNS_11char_traitsIcEENS_9allocatorIcEEEC1EPKcm",
   "parameters" :
   [
    {
     "is_this_ptr" : true,
     "referenced_type" : "_ZTIPNSt3__112basic_stringIcNS_11char_traitsIcEENS_9allocatorIcEEEE"
    },
    {
     "referenced_type" : "_ZTIPKc"
    },
    {
     "referenced_type" : "_ZTIm"
    }
   ],
   "return_type" : "_ZTIv",
   "source_file" : "external/libcxx/include/string"
  },
  {
   "function_name" : "std::__1::basic_string<char, std::__1::char_traits<char>, std::__1::allocator<char>>::basic_string",
   "linker_set_key" : "_ZNSt3__112basic_stringIcNS_11char_traitsIcEENS_9allocatorIcEEEC2EPKcm",
   "parameters" :
   [
    {
     "is_this_ptr" : true,
     "referenced_type" : "_ZTIPNSt3__112basic_stringIcNS_11char_traitsIcEENS_9allocatorIcEEEE"
    },
    {
     "referenced_type" : "_ZTIPKc"
    },
    {
     "referenced_type" : "_ZTIm"
    }
   ],
   "return_type" : "_ZTIv",
   "source_file" : "external/libcxx/include/string"
  },
  {
   "function_name" : "std::__1::basic_string<char, std::__1::char_traits<char>, std::__1::allocator<char>>::~basic_string",
   "linker_set_key" : "_ZNSt3__112basic_stringIcNS_11char_traitsIcEENS_9allocatorIcEEED1Ev",
   "parameters" :
   [
    {
     "is_this_ptr" : true,
     "referenced_type" : "_ZTIPNSt3__112basic_stringIcNS_11char_traitsIcEENS_9allocatorIcEEEE"
    }
   ],
   "return_type" : "_ZTIv",
   "source_file" : "external/libcxx/include/string"
  },
  {
   "function_name" : "std::__1::basic_string<char, std::__1::char_traits<char>, std::__1::allocator<char>>::~basic_string",
   "linker_set_key" : "_ZNSt3__112basic_stringIcNS_11char_traitsIcEENS_9allocatorIcEEED2Ev",
   "parameters" :
   [
    {
     "is_this_ptr" : true,
     "referenced_type" : "_ZTIPNSt3__112basic_stringIcNS_11char_traitsIcEENS_9allocatorIcEEEE"
    }
   ],
   "return_type" : "_ZTIv",
   "source_file" : "external/libcxx/include/string"
  },
  {
   "access" : "private",
   "function_name" : "std::__1::basic_string<wchar_t, std::__1::char_traits<wchar_t>, std::__1::allocator<wchar_t>>::__align_it",
   "linker_set_key" : "_ZNSt3__112basic_stringIwNS_11char_traitsIwEENS_9allocatorIwEEE10__align_itILm4EEEmm",
   "parameters" :
   [
    {
     "referenced_type" : "_ZTIm"
    }
   ],
   "return_type" : "_ZTIm",
   "source_file" : "external/libcxx/include/string"
  },
  {
   "access" : "private",
   "function_name" : "std::__1::basic_string<wchar_t, std::__1::char_traits<wchar_t>, std::__1::allocator<wchar_t>>::__recommend",
   "linker_set_key" : "_ZNSt3__112basic_stringIwNS_11char_traitsIwEENS_9allocatorIwEEE11__recommendEm",
   "parameters" :
   [
    {
     "referenced_type" : "_ZTIm"
    }
   ],
   "return_type" : "_ZTIm",
   "source_file" : "external/libcxx/include/string"
  },
  {
   "access" : "private",
   "function_name" : "std::__1::basic_string<wchar_t, std::__1::char_traits<wchar_t>, std::__1::allocator<wchar_t>>::__set_long_cap",
   "linker_set_key" : "_ZNSt3__112basic_stringIwNS_11char_traitsIwEENS_9allocatorIwEEE14__set_long_capEm",
   "parameters" :
   [
    {
     "is_this_ptr" : true,
     "referenced_type" : "_ZTIPNSt3__112basic_stringIwNS_11char_traitsIwEENS_9allocatorIwEEEE"
    },
    {
     "referenced_type" : "_ZTIm"
    }
   ],
   "return_type" : "_ZTIv",
   "source_file" : "external/libcxx/include/string"
  },
  {
   "access" : "private",
   "function_name" : "std::__1::basic_string<wchar_t, std::__1::char_traits<wchar_t>, std::__1::allocator<wchar_t>>::__set_long_size",
   "linker_set_key" : "_ZNSt3__112basic_stringIwNS_11char_traitsIwEENS_9allocatorIwEEE15__set_long_sizeEm",
   "parameters" :
   [
    {
     "is_this_ptr" : true,
     "referenced_type" : "_ZTIPNSt3__112basic_stringIwNS_11char_traitsIwEENS_9allocatorIwEEEE"
    },
    {
     "referenced_type" : "_ZTIm"
    }
   ],
   "return_type" : "_ZTIv",
   "source_file" : "external/libcxx/include/string"
  },
  {
   "access" : "private",
   "function_name" : "std::__1::basic_string<wchar_t, std::__1::char_traits<wchar_t>, std::__1::allocator<wchar_t>>::__set_short_size",
   "linker_set_key" : "_ZNSt3__112basic_stringIwNS_11char_traitsIwEENS_9allocatorIwEEE16__set_short_sizeEm",
   "parameters" :
   [
    {
     "is_this_ptr" : true,
     "referenced_type" : "_ZTIPNSt3__112basic_stringIwNS_11char_traitsIwEENS_9allocatorIwEEEE"
    },
    {
     "referenced_type" : "_ZTIm"
    }
   ],
   "return_type" : "_ZTIv",
   "source_file" : "external/libcxx/include/string"
  },
  {
   "access" : "private",
   "function_name" : "std::__1::basic_string<wchar_t, std::__1::char_traits<wchar_t>, std::__1::allocator<wchar_t>>::__get_long_pointer",
   "linker_set_key" : "_ZNSt3__112basic_stringIwNS_11char_traitsIwEENS_9allocatorIwEEE18__get_long_pointerEv",
   "parameters" :
   [
    {
     "is_this_ptr" : true,
     "referenced_type" : "_ZTIPNSt3__112basic_stringIwNS_11char_traitsIwEENS_9allocatorIwEEEE"
    }
   ],
   "return_type" : "_ZTIPw",
   "source_file" : "external/libcxx/include/string"
  },
  {
   "access" : "private",
   "function_name" : "std::__1::basic_string<wchar_t, std::__1::char_traits<wchar_t>, std::__1::allocator<wchar_t>>::__set_long_pointer",
   "linker_set_key" : "_ZNSt3__112basic_stringIwNS_11char_traitsIwEENS_9allocatorIwEEE18__set_long_pointerEPw",
   "parameters" :
   [
    {
     "is_this_ptr" : true,
     "referenced_type" : "_ZTIPNSt3__112basic_stringIwNS_11char_traitsIwEENS_9allocatorIwEEEE"
    },
    {
     "referenced_type" : "_ZTIPw"
    }
   ],
   "return_type" : "_ZTIv",
   "source_file" : "external/libcxx/include/string"
  },
  {
   "access" : "private",
   "function_name" : "std::__1::basic_string<wchar_t, std::__1::char_traits<wchar_t>, std::__1::allocator<wchar_t>>::__get_short_pointer",
   "linker_set_key" : "_ZNSt3__112basic_stringIwNS_11char_traitsIwEENS_9allocatorIwEEE19__get_short_pointerEv",
   "parameters" :
   [
    {
     "is_this_ptr" : true,
     "referenced_type" : "_ZTIPNSt3__112basic_stringIwNS_11char_traitsIwEENS_9allocatorIwEEEE"
    }
   ],
   "return_type" : "_ZTIPw",
   "source_file" : "external/libcxx/include/string"
  },
  {
   "access" : "private",
   "function_name" : "std::__1::basic_string<wchar_t, std::__1::char_traits<wchar_t>, std::__1::allocator<wchar_t>>::__init",
   "linker_set_key" : "_ZNSt3__112basic_stringIwNS_11char_traitsIwEENS_9allocatorIwEEE6__initEPKwm",
   "parameters" :
   [
    {
     "is_this_ptr" : true,
     "referenced_type" : "_ZTIPNSt3__112basic_stringIwNS_11char_traitsIwEENS_9allocatorIwEEEE"
    },
    {
     "referenced_type" : "_ZTIPKw"
    },
    {
     "referenced_type" : "_ZTIm"
    }
   ],
   "return_type" : "_ZTIv",
   "source_file" : "external/libcxx/include/string"
  },
  {
   "access" : "private",
   "function_name" : "std::__1::basic_string<wchar_t, std::__1::char_traits<wchar_t>, std::__1::allocator<wchar_t>>::__alloc",
   "linker_set_key" : "_ZNSt3__112basic_stringIwNS_11char_traitsIwEENS_9allocatorIwEEE7__allocEv",
   "parameters" :
   [
    {
     "is_this_ptr" : true,
     "referenced_type" : "_ZTIPNSt3__112basic_stringIwNS_11char_traitsIwEENS_9allocatorIwEEEE"
    }
   ],
   "return_type" : "_ZTIRNSt3__19allocatorIwEE",
   "source_file" : "external/libcxx/include/string"
  },
  {
   "function_name" : "std::__1::basic_string<wchar_t, std::__1::char_traits<wchar_t>, std::__1::allocator<wchar_t>>::basic_string",
   "linker_set_key" : "_ZNSt3__112basic_stringIwNS_11char_traitsIwEENS_9allocatorIwEEEC1EPKwm",
   "parameters" :
   [
    {
     "is_this_ptr" : true,
     "referenced_type" : "_ZTIPNSt3__112basic_stringIwNS_11char_traitsIwEENS_9allocatorIwEEEE"
    },
    {
     "referenced_type" : "_ZTIPKw"
    },
    {
     "referenced_type" : "_ZTIm"
    }
   ],
   "return_type" : "_ZTIv",
   "source_file" : "external/libcxx/include/string"
  },
  {
   "function_name" : "std::__1::basic_string<wchar_t, std::__1::char_traits<wchar_t>, std::__1::allocator<wchar_t>>::basic_string",
   "linker_set_key" : "_ZNSt3__112basic_stringIwNS_11char_traitsIwEENS_9allocatorIwEEEC2EPKwm",
   "parameters" :
   [
    {
     "is_this_ptr" : true,
     "referenced_type" : "_ZTIPNSt3__112basic_stringIwNS_11char_traitsIwEENS_9allocatorIwEEEE"
    },
    {
     "referenced_type" : "_ZTIPKw"
    },
    {
     "referenced_type" : "_ZTIm"
    }
   ],
   "return_type" : "_ZTIv",
   "source_file" : "external/libcxx/include/string"
  },
  {
   "function_name" : "std::__1::basic_string<wchar_t, std::__1::char_traits<wchar_t>, std::__1::allocator<wchar_t>>::~basic_string",
   "linker_set_key" : "_ZNSt3__112basic_stringIwNS_11char_traitsIwEENS_9allocatorIwEEED1Ev",
   "parameters" :
   [
    {
     "is_this_ptr" : true,
     "referenced_type" : "_ZTIPNSt3__112basic_stringIwNS_11char_traitsIwEENS_9allocatorIwEEEE"
    }
   ],
   "return_type" : "_ZTIv",
   "source_file" : "external/libcxx/include/string"
  },
  {
   "function_name" : "std::__1::basic_string<wchar_t, std::__1::char_traits<wchar_t>, std::__1::allocator<wchar_t>>::~basic_string",
   "linker_set_key" : "_ZNSt3__112basic_stringIwNS_11char_traitsIwEENS_9allocatorIwEEED2Ev",
   "parameters" :
   [
    {
     "is_this_ptr" : true,
     "referenced_type" : "_ZTIPNSt3__112basic_stringIwNS_11char_traitsIwEENS_9allocatorIwEEEE"
    }
   ],
   "return_type" : "_ZTIv",
   "source_file" : "external/libcxx/include/string"
  },
  {
   "function_name" : "std::__1::__find_detail::__find_idx_return",
   "linker_set_key" : "_ZNSt3__113__find_detail17__find_idx_returnEmmb",
   "parameters" :
   [
    {
     "referenced_type" : "_ZTIm"
    },
    {
     "referenced_type" : "_ZTIm"
    },
    {
     "referenced_type" : "_ZTIb"
    }
   ],
   "return_type" : "_ZTIm",
   "source_file" : "external/libcxx/include/tuple"
  },
  {
   "function_name" : "std::__1::__unwrap_iter",
   "linker_set_key" : "_ZNSt3__113__unwrap_iterIPN4piex12binary_parse20CachedPagedByteArray10CachedPageEEET_S6_",
   "parameters" :
   [
    {
     "referenced_type" : "_ZTIPN4piex12binary_parse20CachedPagedByteArray10CachedPageE"
    }
   ],
   "return_type" : "_ZTIPN4piex12binary_parse20CachedPagedByteArray10CachedPageE",
   "source_file" : "external/libcxx/include/algorithm",
   "template_args" : [ "_ZTIPN4piex12binary_parse20CachedPagedByteArray10CachedPageE" ]
  },
  {
   "access" : "protected",
   "function_name" : "std::__1::__vector_base<piex::binary_parse::CachedPagedByteArray::CachedPage, std::__1::allocator<piex::binary_parse::CachedPagedByteArray::CachedPage>>::__destruct_at_end",
   "linker_set_key" : "_ZNSt3__113__vector_baseIN4piex12binary_parse20CachedPagedByteArray10CachedPageENS_9allocatorIS4_EEE17__destruct_at_endEPS4_",
   "parameters" :
   [
    {
     "is_this_ptr" : true,
     "referenced_type" : "_ZTIPNSt3__113__vector_baseIN4piex12binary_parse20CachedPagedByteArray10CachedPageENS_9allocatorIS4_EEEE"
    },
    {
     "referenced_type" : "_ZTIPN4piex12binary_parse20CachedPagedByteArray10CachedPageE"
    }
   ],
   "return_type" : "_ZTIv",
   "source_file" : "external/libcxx/include/vector"
  },
  {
   "access" : "protected",
   "function_name" : "std::__1::__vector_base<piex::binary_parse::CachedPagedByteArray::CachedPage, std::__1::allocator<piex::binary_parse::CachedPagedByteArray::CachedPage>>::clear",
   "linker_set_key" : "_ZNSt3__113__vector_baseIN4piex12binary_parse20CachedPagedByteArray10CachedPageENS_9allocatorIS4_EEE5clearEv",
   "parameters" :
   [
    {
     "is_this_ptr" : true,
     "referenced_type" : "_ZTIPNSt3__113__vector_baseIN4piex12binary_parse20CachedPagedByteArray10CachedPageENS_9allocatorIS4_EEEE"
    }
   ],
   "return_type" : "_ZTIv",
   "source_file" : "external/libcxx/include/vector"
  },
  {
   "access" : "protected",
   "function_name" : "std::__1::__vector_base<piex::binary_parse::CachedPagedByteArray::CachedPage, std::__1::allocator<piex::binary_parse::CachedPagedByteArray::CachedPage>>::__alloc",
   "linker_set_key" : "_ZNSt3__113__vector_baseIN4piex12binary_parse20CachedPagedByteArray10CachedPageENS_9allocatorIS4_EEE7__allocEv",
   "parameters" :
   [
    {
     "is_this_ptr" : true,
     "referenced_type" : "_ZTIPNSt3__113__vector_baseIN4piex12binary_parse20CachedPagedByteArray10CachedPageENS_9allocatorIS4_EEEE"
    }
   ],
   "return_type" : "_ZTIRNSt3__19allocatorIN4piex12binary_parse20CachedPagedByteArray10CachedPageEEE",
   "source_file" : "external/libcxx/include/vector"
  },
  {
   "access" : "protected",
   "function_name" : "std::__1::__vector_base<piex::binary_parse::CachedPagedByteArray::CachedPage, std::__1::allocator<piex::binary_parse::CachedPagedByteArray::CachedPage>>::__end_cap",
   "linker_set_key" : "_ZNSt3__113__vector_baseIN4piex12binary_parse20CachedPagedByteArray10CachedPageENS_9allocatorIS4_EEE9__end_capEv",
   "parameters" :
   [
    {
     "is_this_ptr" : true,
     "referenced_type" : "_ZTIPNSt3__113__vector_baseIN4piex12binary_parse20CachedPagedByteArray10CachedPageENS_9allocatorIS4_EEEE"
    }
   ],
   "return_type" : "_ZTIRPN4piex12binary_parse20CachedPagedByteArray10CachedPageE",
   "source_file" : "external/libcxx/include/vector"
  },
  {
   "access" : "protected",
   "function_name" : "std::__1::__vector_base<piex::binary_parse::CachedPagedByteArray::CachedPage, std::__1::allocator<piex::binary_parse::CachedPagedByteArray::CachedPage>>::__vector_base",
   "linker_set_key" : "_ZNSt3__113__vector_baseIN4piex12binary_parse20CachedPagedByteArray10CachedPageENS_9allocatorIS4_EEEC1Ev",
   "parameters" :
   [
    {
     "is_this_ptr" : true,
     "referenced_type" : "_ZTIPNSt3__113__vector_baseIN4piex12binary_parse20CachedPagedByteArray10CachedPageENS_9allocatorIS4_EEEE"
    }
   ],
   "return_type" : "_ZTIv",
   "source_file" : "external/libcxx/include/vector"
  },
  {
   "access" : "protected",
   "function_name" : "std::__1::__vector_base<piex::binary_parse::CachedPagedByteArray::CachedPage, std::__1::allocator<piex::binary_parse::CachedPagedByteArray::CachedPage>>::__vector_base",
   "linker_set_key" : "_ZNSt3__113__vector_baseIN4piex12binary_parse20CachedPagedByteArray10CachedPageENS_9allocatorIS4_EEEC2Ev",
   "parameters" :
   [
    {
     "is_this_ptr" : true,
     "referenced_type" : "_ZTIPNSt3__113__vector_baseIN4piex12binary_parse20CachedPagedByteArray10CachedPageENS_9allocatorIS4_EEEE"
    }
   ],
   "return_type" : "_ZTIv",
   "source_file" : "external/libcxx/include/vector"
  },
  {
   "access" : "protected",
   "function_name" : "std::__1::__vector_base<piex::binary_parse::CachedPagedByteArray::CachedPage, std::__1::allocator<piex::binary_parse::CachedPagedByteArray::CachedPage>>::~__vector_base",
   "linker_set_key" : "_ZNSt3__113__vector_baseIN4piex12binary_parse20CachedPagedByteArray10CachedPageENS_9allocatorIS4_EEED1Ev",
   "parameters" :
   [
    {
     "is_this_ptr" : true,
     "referenced_type" : "_ZTIPNSt3__113__vector_baseIN4piex12binary_parse20CachedPagedByteArray10CachedPageENS_9allocatorIS4_EEEE"
    }
   ],
   "return_type" : "_ZTIv",
   "source_file" : "external/libcxx/include/vector"
  },
  {
   "access" : "protected",
   "function_name" : "std::__1::__vector_base<piex::binary_parse::CachedPagedByteArray::CachedPage, std::__1::allocator<piex::binary_parse::CachedPagedByteArray::CachedPage>>::~__vector_base",
   "linker_set_key" : "_ZNSt3__113__vector_baseIN4piex12binary_parse20CachedPagedByteArray10CachedPageENS_9allocatorIS4_EEED2Ev",
   "parameters" :
   [
    {
     "is_this_ptr" : true,
     "referenced_type" : "_ZTIPNSt3__113__vector_baseIN4piex12binary_parse20CachedPagedByteArray10CachedPageENS_9allocatorIS4_EEEE"
    }
   ],
   "return_type" : "_ZTIv",
   "source_file" : "external/libcxx/include/vector"
  },
  {
   "function_name" : "std::__1::__hash_combine",
   "linker_set_key" : "_ZNSt3__114__hash_combineEmm",
   "parameters" :
   [
    {
     "referenced_type" : "_ZTIm"
    },
    {
     "referenced_type" : "_ZTIm"
    }
   ],
   "return_type" : "_ZTIm",
   "source_file" : "external/libcxx/include/utility"
  },
  {
   "function_name" : "std::__1::__shared_count::__add_shared",
   "linker_set_key" : "_ZNSt3__114__shared_count12__add_sharedEv",
   "parameters" :
   [
    {
     "is_this_ptr" : true,
     "referenced_type" : "_ZTIPNSt3__114__shared_countE"
    }
   ],
   "return_type" : "_ZTIv",
   "source_file" : "external/libcxx/include/memory"
  },
  {
   "function_name" : "std::__1::__shared_count::__release_shared",
   "linker_set_key" : "_ZNSt3__114__shared_count16__release_sharedEv",
   "parameters" :
   [
    {
     "is_this_ptr" : true,
     "referenced_type" : "_ZTIPNSt3__114__shared_countE"
    }
   ],
   "return_type" : "_ZTIb",
   "source_file" : "external/libcxx/include/memory"
  },
  {
   "function_name" : "std::__1::__shared_count::__shared_count",
   "linker_set_key" : "_ZNSt3__114__shared_countC2El",
   "parameters" :
   [
    {
     "is_this_ptr" : true,
     "referenced_type" : "_ZTIPNSt3__114__shared_countE"
    },
    {
     "default_arg" : true,
     "referenced_type" : "_ZTIl"
    }
   ],
   "return_type" : "_ZTIv",
   "source_file" : "external/libcxx/include/memory"
  },
  {
   "function_name" : "std::__1::__split_buffer<piex::binary_parse::CachedPagedByteArray::CachedPage, std::__1::allocator<piex::binary_parse::CachedPagedByteArray::CachedPage> &>::__destruct_at_end",
   "linker_set_key" : "_ZNSt3__114__split_bufferIN4piex12binary_parse20CachedPagedByteArray10CachedPageERNS_9allocatorIS4_EEE17__destruct_at_endEPS4_",
   "parameters" :
   [
    {
     "is_this_ptr" : true,
     "referenced_type" : "_ZTIPNSt3__114__split_bufferIN4piex12binary_parse20CachedPagedByteArray10CachedPageERNS_9allocatorIS4_EEEE"
    },
    {
     "referenced_type" : "_ZTIPN4piex12binary_parse20CachedPagedByteArray10CachedPageE"
    }
   ],
   "return_type" : "_ZTIv",
   "source_file" : "external/libcxx/include/__split_buffer"
  },
  {
   "function_name" : "std::__1::__split_buffer<piex::binary_parse::CachedPagedByteArray::CachedPage, std::__1::allocator<piex::binary_parse::CachedPagedByteArray::CachedPage> &>::__destruct_at_end",
   "linker_set_key" : "_ZNSt3__114__split_bufferIN4piex12binary_parse20CachedPagedByteArray10CachedPageERNS_9allocatorIS4_EEE17__destruct_at_endEPS4_NS_17integral_constantIbLb0EEE",
   "parameters" :
   [
    {
     "is_this_ptr" : true,
     "referenced_type" : "_ZTIPNSt3__114__split_bufferIN4piex12binary_parse20CachedPagedByteArray10CachedPageERNS_9allocatorIS4_EEEE"
    },
    {
     "referenced_type" : "_ZTIPN4piex12binary_parse20CachedPagedByteArray10CachedPageE"
    },
    {
     "referenced_type" : "_ZTINSt3__117integral_constantIbLb0EEE"
    }
   ],
   "return_type" : "_ZTIv",
   "source_file" : "external/libcxx/include/__split_buffer"
  },
  {
   "function_name" : "std::__1::__split_buffer<piex::binary_parse::CachedPagedByteArray::CachedPage, std::__1::allocator<piex::binary_parse::CachedPagedByteArray::CachedPage> &>::clear",
   "linker_set_key" : "_ZNSt3__114__split_bufferIN4piex12binary_parse20CachedPagedByteArray10CachedPageERNS_9allocatorIS4_EEE5clearEv",
   "parameters" :
   [
    {
     "is_this_ptr" : true,
     "referenced_type" : "_ZTIPNSt3__114__split_bufferIN4piex12binary_parse20CachedPagedByteArray10CachedPageERNS_9allocatorIS4_EEEE"
    }
   ],
   "return_type" : "_ZTIv",
   "source_file" : "external/libcxx/include/__split_buffer"
  },
  {
   "function_name" : "std::__1::__split_buffer<piex::binary_parse::CachedPagedByteArray::CachedPage, std::__1::allocator<piex::binary_parse::CachedPagedByteArray::CachedPage> &>::__alloc",
   "linker_set_key" : "_ZNSt3__114__split_bufferIN4piex12binary_parse20CachedPagedByteArray10CachedPageERNS_9allocatorIS4_EEE7__allocEv",
   "parameters" :
   [
    {
     "is_this_ptr" : true,
     "referenced_type" : "_ZTIPNSt3__114__split_bufferIN4piex12binary_parse20CachedPagedByteArray10CachedPageERNS_9allocatorIS4_EEEE"
    }
   ],
   "return_type" : "_ZTIRNSt3__19allocatorIN4piex12binary_parse20CachedPagedByteArray10CachedPageEEE",
   "source_file" : "external/libcxx/include/__split_buffer"
  },
  {
   "function_name" : "std::__1::__split_buffer<piex::binary_parse::CachedPagedByteArray::CachedPage, std::__1::allocator<piex::binary_parse::CachedPagedByteArray::CachedPage> &>::__end_cap",
   "linker_set_key" : "_ZNSt3__114__split_bufferIN4piex12binary_parse20CachedPagedByteArray10CachedPageERNS_9allocatorIS4_EEE9__end_capEv",
   "parameters" :
   [
    {
     "is_this_ptr" : true,
     "referenced_type" : "_ZTIPNSt3__114__split_bufferIN4piex12binary_parse20CachedPagedByteArray10CachedPageERNS_9allocatorIS4_EEEE"
    }
   ],
   "return_type" : "_ZTIRPN4piex12binary_parse20CachedPagedByteArray10CachedPageE",
   "source_file" : "external/libcxx/include/__split_buffer"
  },
  {
   "function_name" : "std::__1::__split_buffer<piex::binary_parse::CachedPagedByteArray::CachedPage, std::__1::allocator<piex::binary_parse::CachedPagedByteArray::CachedPage> &>::__split_buffer",
   "linker_set_key" : "_ZNSt3__114__split_bufferIN4piex12binary_parse20CachedPagedByteArray10CachedPageERNS_9allocatorIS4_EEEC1EmmS7_",
   "parameters" :
   [
    {
     "is_this_ptr" : true,
     "referenced_type" : "_ZTIPNSt3__114__split_bufferIN4piex12binary_parse20CachedPagedByteArray10CachedPageERNS_9allocatorIS4_EEEE"
    },
    {
     "referenced_type" : "_ZTIm"
    },
    {
     "referenced_type" : "_ZTIm"
    },
    {
     "referenced_type" : "_ZTIRNSt3__19allocatorIN4piex12binary_parse20CachedPagedByteArray10CachedPageEEE"
    }
   ],
   "return_type" : "_ZTIv",
   "source_file" : "external/libcxx/include/__split_buffer"
  },
  {
   "function_name" : "std::__1::__split_buffer<piex::binary_parse::CachedPagedByteArray::CachedPage, std::__1::allocator<piex::binary_parse::CachedPagedByteArray::CachedPage> &>::__split_buffer",
   "linker_set_key" : "_ZNSt3__114__split_bufferIN4piex12binary_parse20CachedPagedByteArray10CachedPageERNS_9allocatorIS4_EEEC2EmmS7_",
   "parameters" :
   [
    {
     "is_this_ptr" : true,
     "referenced_type" : "_ZTIPNSt3__114__split_bufferIN4piex12binary_parse20CachedPagedByteArray10CachedPageERNS_9allocatorIS4_EEEE"
    },
    {
     "referenced_type" : "_ZTIm"
    },
    {
     "referenced_type" : "_ZTIm"
    },
    {
     "referenced_type" : "_ZTIRNSt3__19allocatorIN4piex12binary_parse20CachedPagedByteArray10CachedPageEEE"
    }
   ],
   "return_type" : "_ZTIv",
   "source_file" : "external/libcxx/include/__split_buffer"
  },
  {
   "function_name" : "std::__1::__split_buffer<piex::binary_parse::CachedPagedByteArray::CachedPage, std::__1::allocator<piex::binary_parse::CachedPagedByteArray::CachedPage> &>::~__split_buffer",
   "linker_set_key" : "_ZNSt3__114__split_bufferIN4piex12binary_parse20CachedPagedByteArray10CachedPageERNS_9allocatorIS4_EEED1Ev",
   "parameters" :
   [
    {
     "is_this_ptr" : true,
     "referenced_type" : "_ZTIPNSt3__114__split_bufferIN4piex12binary_parse20CachedPagedByteArray10CachedPageERNS_9allocatorIS4_EEEE"
    }
   ],
   "return_type" : "_ZTIv",
   "source_file" : "external/libcxx/include/__split_buffer"
  },
  {
   "function_name" : "std::__1::__split_buffer<piex::binary_parse::CachedPagedByteArray::CachedPage, std::__1::allocator<piex::binary_parse::CachedPagedByteArray::CachedPage> &>::~__split_buffer",
   "linker_set_key" : "_ZNSt3__114__split_bufferIN4piex12binary_parse20CachedPagedByteArray10CachedPageERNS_9allocatorIS4_EEED2Ev",
   "parameters" :
   [
    {
     "is_this_ptr" : true,
     "referenced_type" : "_ZTIPNSt3__114__split_bufferIN4piex12binary_parse20CachedPagedByteArray10CachedPageERNS_9allocatorIS4_EEEE"
    }
   ],
   "return_type" : "_ZTIv",
   "source_file" : "external/libcxx/include/__split_buffer"
  },
  {
   "function_name" : "std::__1::error_category::error_category",
   "linker_set_key" : "_ZNSt3__114error_categoryC2Ev",
   "parameters" :
   [
    {
     "is_this_ptr" : true,
     "referenced_type" : "_ZTIPNSt3__114error_categoryE"
    }
   ],
   "return_type" : "_ZTIv",
   "source_file" : "external/libcxx/include/system_error"
  },
  {
   "function_name" : "std::__1::numeric_limits<long>::max",
   "linker_set_key" : "_ZNSt3__114numeric_limitsIlE3maxEv",
   "return_type" : "_ZTIl",
   "source_file" : "external/libcxx/include/limits"
  },
  {
   "function_name" : "std::__1::numeric_limits<unsigned long>::max",
   "linker_set_key" : "_ZNSt3__114numeric_limitsImE3maxEv",
   "return_type" : "_ZTIm",
   "source_file" : "external/libcxx/include/limits"
  },
  {
   "function_name" : "std::__1::numeric_limits<long long>::max",
   "linker_set_key" : "_ZNSt3__114numeric_limitsIxE3maxEv",
   "return_type" : "_ZTIx",
   "source_file" : "external/libcxx/include/limits"
  },
  {
   "function_name" : "std::__1::pointer_safety::pointer_safety",
   "linker_set_key" : "_ZNSt3__114pointer_safetyC1ENS0_4__lxE",
   "parameters" :
   [
    {
     "is_this_ptr" : true,
     "referenced_type" : "_ZTIPNSt3__114pointer_safetyE"
    },
    {
     "referenced_type" : "_ZTINSt3__114pointer_safety4__lxE"
    }
   ],
   "return_type" : "_ZTIv",
   "source_file" : "external/libcxx/include/memory"
  },
  {
   "function_name" : "std::__1::pointer_safety::pointer_safety",
   "linker_set_key" : "_ZNSt3__114pointer_safetyC1Ev",
   "parameters" :
   [
    {
     "is_this_ptr" : true,
     "referenced_type" : "_ZTIPNSt3__114pointer_safetyE"
    }
   ],
   "return_type" : "_ZTIv",
   "source_file" : "external/libcxx/include/memory"
  },
  {
   "function_name" : "std::__1::pointer_safety::pointer_safety",
   "linker_set_key" : "_ZNSt3__114pointer_safetyC2ENS0_4__lxE",
   "parameters" :
   [
    {
     "is_this_ptr" : true,
     "referenced_type" : "_ZTIPNSt3__114pointer_safetyE"
    },
    {
     "referenced_type" : "_ZTINSt3__114pointer_safety4__lxE"
    }
   ],
   "return_type" : "_ZTIv",
   "source_file" : "external/libcxx/include/memory"
  },
  {
   "function_name" : "std::__1::pointer_safety::pointer_safety",
   "linker_set_key" : "_ZNSt3__114pointer_safetyC2Ev",
   "parameters" :
   [
    {
     "is_this_ptr" : true,
     "referenced_type" : "_ZTIPNSt3__114pointer_safetyE"
    }
   ],
   "return_type" : "_ZTIv",
   "source_file" : "external/libcxx/include/memory"
  },
  {
   "function_name" : "std::__1::pointer_traits<char32_t *>::pointer_to",
   "linker_set_key" : "_ZNSt3__114pointer_traitsIPDiE10pointer_toERDi",
   "parameters" :
   [
    {
     "referenced_type" : "_ZTIRDi"
    }
   ],
   "return_type" : "_ZTIPDi",
   "source_file" : "external/libcxx/include/memory"
  },
  {
   "function_name" : "std::__1::pointer_traits<char16_t *>::pointer_to",
   "linker_set_key" : "_ZNSt3__114pointer_traitsIPDsE10pointer_toERDs",
   "parameters" :
   [
    {
     "referenced_type" : "_ZTIRDs"
    }
   ],
   "return_type" : "_ZTIPDs",
   "source_file" : "external/libcxx/include/memory"
  },
  {
   "function_name" : "std::__1::pointer_traits<char *>::pointer_to",
   "linker_set_key" : "_ZNSt3__114pointer_traitsIPcE10pointer_toERc",
   "parameters" :
   [
    {
     "referenced_type" : "_ZTIRc"
    }
   ],
   "return_type" : "_ZTIPc",
   "source_file" : "external/libcxx/include/memory"
  },
  {
   "function_name" : "std::__1::pointer_traits<wchar_t *>::pointer_to",
   "linker_set_key" : "_ZNSt3__114pointer_traitsIPwE10pointer_toERw",
   "parameters" :
   [
    {
     "referenced_type" : "_ZTIRw"
    }
   ],
   "return_type" : "_ZTIPw",
   "source_file" : "external/libcxx/include/memory"
  },
  {
   "function_name" : "std::__1::error_condition::clear",
   "linker_set_key" : "_ZNSt3__115error_condition5clearEv",
   "parameters" :
   [
    {
     "is_this_ptr" : true,
     "referenced_type" : "_ZTIPNSt3__115error_conditionE"
    }
   ],
   "return_type" : "_ZTIv",
   "source_file" : "external/libcxx/include/system_error"
  },
  {
   "function_name" : "std::__1::error_condition::assign",
   "linker_set_key" : "_ZNSt3__115error_condition6assignEiRKNS_14error_categoryE",
   "parameters" :
   [
    {
     "is_this_ptr" : true,
     "referenced_type" : "_ZTIPNSt3__115error_conditionE"
    },
    {
     "referenced_type" : "_ZTIi"
    },
    {
     "referenced_type" : "_ZTIRKNSt3__114error_categoryE"
    }
   ],
   "return_type" : "_ZTIv",
   "source_file" : "external/libcxx/include/system_error"
  },
  {
   "function_name" : "std::__1::error_condition::error_condition",
   "linker_set_key" : "_ZNSt3__115error_conditionC1EiRKNS_14error_categoryE",
   "parameters" :
   [
    {
     "is_this_ptr" : true,
     "referenced_type" : "_ZTIPNSt3__115error_conditionE"
    },
    {
     "referenced_type" : "_ZTIi"
    },
    {
     "referenced_type" : "_ZTIRKNSt3__114error_categoryE"
    }
   ],
   "return_type" : "_ZTIv",
   "source_file" : "external/libcxx/include/system_error"
  },
  {
   "function_name" : "std::__1::error_condition::error_condition",
   "linker_set_key" : "_ZNSt3__115error_conditionC1Ev",
   "parameters" :
   [
    {
     "is_this_ptr" : true,
     "referenced_type" : "_ZTIPNSt3__115error_conditionE"
    }
   ],
   "return_type" : "_ZTIv",
   "source_file" : "external/libcxx/include/system_error"
  },
  {
   "function_name" : "std::__1::error_condition::error_condition",
   "linker_set_key" : "_ZNSt3__115error_conditionC2EiRKNS_14error_categoryE",
   "parameters" :
   [
    {
     "is_this_ptr" : true,
     "referenced_type" : "_ZTIPNSt3__115error_conditionE"
    },
    {
     "referenced_type" : "_ZTIi"
    },
    {
     "referenced_type" : "_ZTIRKNSt3__114error_categoryE"
    }
   ],
   "return_type" : "_ZTIv",
   "source_file" : "external/libcxx/include/system_error"
  },
  {
   "function_name" : "std::__1::error_condition::error_condition",
   "linker_set_key" : "_ZNSt3__115error_conditionC2Ev",
   "parameters" :
   [
    {
     "is_this_ptr" : true,
     "referenced_type" : "_ZTIPNSt3__115error_conditionE"
    }
   ],
   "return_type" : "_ZTIv",
   "source_file" : "external/libcxx/include/system_error"
  },
  {
   "function_name" : "std::__1::make_error_code",
   "linker_set_key" : "_ZNSt3__115make_error_codeENS_4errcE",
   "parameters" :
   [
    {
     "referenced_type" : "_ZTINSt3__14errcE"
    }
   ],
   "return_type" : "_ZTINSt3__110error_codeE",
   "source_file" : "external/libcxx/include/system_error"
  },
  {
   "function_name" : "std::__1::recursive_mutex::native_handle",
   "linker_set_key" : "_ZNSt3__115recursive_mutex13native_handleEv",
   "parameters" :
   [
    {
     "is_this_ptr" : true,
     "referenced_type" : "_ZTIPNSt3__115recursive_mutexE"
    }
   ],
   "return_type" : "_ZTIP15pthread_mutex_t",
   "source_file" : "external/libcxx/include/mutex"
  },
  {
   "function_name" : "std::__1::__libcpp_tls_get",
   "linker_set_key" : "_ZNSt3__116__libcpp_tls_getEi",
   "parameters" :
   [
    {
     "referenced_type" : "_ZTIi"
    }
   ],
   "return_type" : "_ZTIPv",
   "source_file" : "external/libcxx/include/__threading_support"
  },
  {
   "function_name" : "std::__1::__libcpp_tls_set",
   "linker_set_key" : "_ZNSt3__116__libcpp_tls_setEiPv",
   "parameters" :
   [
    {
     "referenced_type" : "_ZTIi"
    },
    {
     "referenced_type" : "_ZTIPv"
    }
   ],
   "return_type" : "_ZTIi",
   "source_file" : "external/libcxx/include/__threading_support"
  },
  {
   "function_name" : "std::__1::__throw_bad_cast",
   "linker_set_key" : "_ZNSt3__116__throw_bad_castEv",
   "return_type" : "_ZTIv",
   "source_file" : "external/libcxx/include/typeinfo"
  },
  {
   "function_name" : "std::__1::__to_raw_pointer",
   "linker_set_key" : "_ZNSt3__116__to_raw_pointerIDiEEPT_S2_",
   "parameters" :
   [
    {
     "referenced_type" : "_ZTIPDi"
    }
   ],
   "return_type" : "_ZTIPDi",
   "source_file" : "external/libcxx/include/memory",
   "template_args" : [ "_ZTIDi" ]
  },
  {
   "function_name" : "std::__1::__to_raw_pointer",
   "linker_set_key" : "_ZNSt3__116__to_raw_pointerIDsEEPT_S2_",
   "parameters" :
   [
    {
     "referenced_type" : "_ZTIPDs"
    }
   ],
   "return_type" : "_ZTIPDs",
   "source_file" : "external/libcxx/include/memory",
   "template_args" : [ "_ZTIDs" ]
  },
  {
   "function_name" : "std::__1::__to_raw_pointer",
   "linker_set_key" : "_ZNSt3__116__to_raw_pointerIN4piex12binary_parse20CachedPagedByteArray10CachedPageEEEPT_S6_",
   "parameters" :
   [
    {
     "referenced_type" : "_ZTIPN4piex12binary_parse20CachedPagedByteArray10CachedPageE"
    }
   ],
   "return_type" : "_ZTIPN4piex12binary_parse20CachedPagedByteArray10CachedPageE",
   "source_file" : "external/libcxx/include/memory",
   "template_args" : [ "_ZTIN4piex12binary_parse20CachedPagedByteArray10CachedPageE" ]
  },
  {
   "function_name" : "std::__1::__to_raw_pointer",
   "linker_set_key" : "_ZNSt3__116__to_raw_pointerIcEEPT_S2_",
   "parameters" :
   [
    {
     "referenced_type" : "_ZTIPc"
    }
   ],
   "return_type" : "_ZTIPc",
   "source_file" : "external/libcxx/include/memory",
   "template_args" : [ "_ZTIc" ]
  },
  {
   "function_name" : "std::__1::__to_raw_pointer",
   "linker_set_key" : "_ZNSt3__116__to_raw_pointerIwEEPT_S2_",
   "parameters" :
   [
    {
     "referenced_type" : "_ZTIPw"
    }
   ],
   "return_type" : "_ZTIPw",
   "source_file" : "external/libcxx/include/memory",
   "template_args" : [ "_ZTIw" ]
  },
  {
   "access" : "private",
   "function_name" : "std::__1::allocator_traits<std::__1::allocator<char32_t>>::__max_size",
   "linker_set_key" : "_ZNSt3__116allocator_traitsINS_9allocatorIDiEEE10__max_sizeENS_17integral_constantIbLb1EEERKS2_",
   "parameters" :
   [
    {
     "referenced_type" : "_ZTINSt3__117integral_constantIbLb1EEE"
    },
    {
     "referenced_type" : "_ZTIRKNSt3__19allocatorIDiEE"
    }
   ],
   "return_type" : "_ZTIm",
   "source_file" : "external/libcxx/include/memory"
  },
  {
   "function_name" : "std::__1::allocator_traits<std::__1::allocator<char32_t>>::deallocate",
   "linker_set_key" : "_ZNSt3__116allocator_traitsINS_9allocatorIDiEEE10deallocateERS2_PDim",
   "parameters" :
   [
    {
     "referenced_type" : "_ZTIRNSt3__19allocatorIDiEE"
    },
    {
     "referenced_type" : "_ZTIPDi"
    },
    {
     "referenced_type" : "_ZTIm"
    }
   ],
   "return_type" : "_ZTIv",
   "source_file" : "external/libcxx/include/memory"
  },
  {
   "function_name" : "std::__1::allocator_traits<std::__1::allocator<char32_t>>::allocate",
   "linker_set_key" : "_ZNSt3__116allocator_traitsINS_9allocatorIDiEEE8allocateERS2_m",
   "parameters" :
   [
    {
     "referenced_type" : "_ZTIRNSt3__19allocatorIDiEE"
    },
    {
     "referenced_type" : "_ZTIm"
    }
   ],
   "return_type" : "_ZTIPDi",
   "source_file" : "external/libcxx/include/memory"
  },
  {
   "function_name" : "std::__1::allocator_traits<std::__1::allocator<char32_t>>::max_size",
   "linker_set_key" : "_ZNSt3__116allocator_traitsINS_9allocatorIDiEEE8max_sizeERKS2_",
   "parameters" :
   [
    {
     "referenced_type" : "_ZTIRKNSt3__19allocatorIDiEE"
    }
   ],
   "return_type" : "_ZTIm",
   "source_file" : "external/libcxx/include/memory"
  },
  {
   "access" : "private",
   "function_name" : "std::__1::allocator_traits<std::__1::allocator<char16_t>>::__max_size",
   "linker_set_key" : "_ZNSt3__116allocator_traitsINS_9allocatorIDsEEE10__max_sizeENS_17integral_constantIbLb1EEERKS2_",
   "parameters" :
   [
    {
     "referenced_type" : "_ZTINSt3__117integral_constantIbLb1EEE"
    },
    {
     "referenced_type" : "_ZTIRKNSt3__19allocatorIDsEE"
    }
   ],
   "return_type" : "_ZTIm",
   "source_file" : "external/libcxx/include/memory"
  },
  {
   "function_name" : "std::__1::allocator_traits<std::__1::allocator<char16_t>>::deallocate",
   "linker_set_key" : "_ZNSt3__116allocator_traitsINS_9allocatorIDsEEE10deallocateERS2_PDsm",
   "parameters" :
   [
    {
     "referenced_type" : "_ZTIRNSt3__19allocatorIDsEE"
    },
    {
     "referenced_type" : "_ZTIPDs"
    },
    {
     "referenced_type" : "_ZTIm"
    }
   ],
   "return_type" : "_ZTIv",
   "source_file" : "external/libcxx/include/memory"
  },
  {
   "function_name" : "std::__1::allocator_traits<std::__1::allocator<char16_t>>::allocate",
   "linker_set_key" : "_ZNSt3__116allocator_traitsINS_9allocatorIDsEEE8allocateERS2_m",
   "parameters" :
   [
    {
     "referenced_type" : "_ZTIRNSt3__19allocatorIDsEE"
    },
    {
     "referenced_type" : "_ZTIm"
    }
   ],
   "return_type" : "_ZTIPDs",
   "source_file" : "external/libcxx/include/memory"
  },
  {
   "function_name" : "std::__1::allocator_traits<std::__1::allocator<char16_t>>::max_size",
   "linker_set_key" : "_ZNSt3__116allocator_traitsINS_9allocatorIDsEEE8max_sizeERKS2_",
   "parameters" :
   [
    {
     "referenced_type" : "_ZTIRKNSt3__19allocatorIDsEE"
    }
   ],
   "return_type" : "_ZTIm",
   "source_file" : "external/libcxx/include/memory"
  },
  {
   "access" : "private",
   "function_name" : "std::__1::allocator_traits<std::__1::allocator<piex::binary_parse::CachedPagedByteArray::CachedPage>>::__max_size",
   "linker_set_key" : "_ZNSt3__116allocator_traitsINS_9allocatorIN4piex12binary_parse20CachedPagedByteArray10CachedPageEEEE10__max_sizeENS_17integral_constantIbLb1EEERKS6_",
   "parameters" :
   [
    {
     "referenced_type" : "_ZTINSt3__117integral_constantIbLb1EEE"
    },
    {
     "referenced_type" : "_ZTIRKNSt3__19allocatorIN4piex12binary_parse20CachedPagedByteArray10CachedPageEEE"
    }
   ],
   "return_type" : "_ZTIm",
   "source_file" : "external/libcxx/include/memory"
  },
  {
   "function_name" : "std::__1::allocator_traits<std::__1::allocator<piex::binary_parse::CachedPagedByteArray::CachedPage>>::deallocate",
   "linker_set_key" : "_ZNSt3__116allocator_traitsINS_9allocatorIN4piex12binary_parse20CachedPagedByteArray10CachedPageEEEE10deallocateERS6_PS5_m",
   "parameters" :
   [
    {
     "referenced_type" : "_ZTIRNSt3__19allocatorIN4piex12binary_parse20CachedPagedByteArray10CachedPageEEE"
    },
    {
     "referenced_type" : "_ZTIPN4piex12binary_parse20CachedPagedByteArray10CachedPageE"
    },
    {
     "referenced_type" : "_ZTIm"
    }
   ],
   "return_type" : "_ZTIv",
   "source_file" : "external/libcxx/include/memory"
  },
  {
   "access" : "private",
   "function_name" : "std::__1::allocator_traits<std::__1::allocator<piex::binary_parse::CachedPagedByteArray::CachedPage>>::__construct",
   "linker_set_key" : "_ZNSt3__116allocator_traitsINS_9allocatorIN4piex12binary_parse20CachedPagedByteArray10CachedPageEEEE11__constructIS5_JRKS5_EEEvNS_17integral_constantIbLb1EEERS6_PT_DpOT0_",
   "parameters" :
   [
    {
     "referenced_type" : "_ZTINSt3__117integral_constantIbLb1EEE"
    },
    {
     "referenced_type" : "_ZTIRNSt3__19allocatorIN4piex12binary_parse20CachedPagedByteArray10CachedPageEEE"
    },
    {
     "referenced_type" : "_ZTIPN4piex12binary_parse20CachedPagedByteArray10CachedPageE"
    },
    {
     "referenced_type" : "_ZTIRKN4piex12binary_parse20CachedPagedByteArray10CachedPageE"
    }
   ],
   "return_type" : "_ZTIv",
   "source_file" : "external/libcxx/include/memory",
   "template_args" : [ "_ZTIN4piex12binary_parse20CachedPagedByteArray10CachedPageE" ]
  },
  {
   "access" : "private",
   "function_name" : "std::__1::allocator_traits<std::__1::allocator<piex::binary_parse::CachedPagedByteArray::CachedPage>>::__construct",
   "linker_set_key" : "_ZNSt3__116allocator_traitsINS_9allocatorIN4piex12binary_parse20CachedPagedByteArray10CachedPageEEEE11__constructIS5_JS5_EEEvNS_17integral_constantIbLb1EEERS6_PT_DpOT0_",
   "parameters" :
   [
    {
     "referenced_type" : "_ZTINSt3__117integral_constantIbLb1EEE"
    },
    {
     "referenced_type" : "_ZTIRNSt3__19allocatorIN4piex12binary_parse20CachedPagedByteArray10CachedPageEEE"
    },
    {
     "referenced_type" : "_ZTIPN4piex12binary_parse20CachedPagedByteArray10CachedPageE"
    },
    {
     "referenced_type" : "_ZTION4piex12binary_parse20CachedPagedByteArray10CachedPageE"
    }
   ],
   "return_type" : "_ZTIv",
   "source_file" : "external/libcxx/include/memory",
   "template_args" : [ "_ZTIN4piex12binary_parse20CachedPagedByteArray10CachedPageE" ]
  },
  {
   "function_name" : "std::__1::allocator_traits<std::__1::allocator<piex::binary_parse::CachedPagedByteArray::CachedPage>>::__construct_backward",
   "linker_set_key" : "_ZNSt3__116allocator_traitsINS_9allocatorIN4piex12binary_parse20CachedPagedByteArray10CachedPageEEEE20__construct_backwardIPS5_EEvRS6_T_SB_RSB_",
   "parameters" :
   [
    {
     "referenced_type" : "_ZTIRNSt3__19allocatorIN4piex12binary_parse20CachedPagedByteArray10CachedPageEEE"
    },
    {
     "referenced_type" : "_ZTIPN4piex12binary_parse20CachedPagedByteArray10CachedPageE"
    },
    {
     "referenced_type" : "_ZTIPN4piex12binary_parse20CachedPagedByteArray10CachedPageE"
    },
    {
     "referenced_type" : "_ZTIRPN4piex12binary_parse20CachedPagedByteArray10CachedPageE"
    }
   ],
   "return_type" : "_ZTIv",
   "source_file" : "external/libcxx/include/memory",
   "template_args" : [ "_ZTIPN4piex12binary_parse20CachedPagedByteArray10CachedPageE" ]
  },
  {
   "function_name" : "std::__1::allocator_traits<std::__1::allocator<piex::binary_parse::CachedPagedByteArray::CachedPage>>::destroy",
   "linker_set_key" : "_ZNSt3__116allocator_traitsINS_9allocatorIN4piex12binary_parse20CachedPagedByteArray10CachedPageEEEE7destroyIS5_EEvRS6_PT_",
   "parameters" :
   [
    {
     "referenced_type" : "_ZTIRNSt3__19allocatorIN4piex12binary_parse20CachedPagedByteArray10CachedPageEEE"
    },
    {
     "referenced_type" : "_ZTIPN4piex12binary_parse20CachedPagedByteArray10CachedPageE"
    }
   ],
   "return_type" : "_ZTIv",
   "source_file" : "external/libcxx/include/memory",
   "template_args" : [ "_ZTIN4piex12binary_parse20CachedPagedByteArray10CachedPageE" ]
  },
  {
   "function_name" : "std::__1::allocator_traits<std::__1::allocator<piex::binary_parse::CachedPagedByteArray::CachedPage>>::allocate",
   "linker_set_key" : "_ZNSt3__116allocator_traitsINS_9allocatorIN4piex12binary_parse20CachedPagedByteArray10CachedPageEEEE8allocateERS6_m",
   "parameters" :
   [
    {
     "referenced_type" : "_ZTIRNSt3__19allocatorIN4piex12binary_parse20CachedPagedByteArray10CachedPageEEE"
    },
    {
     "referenced_type" : "_ZTIm"
    }
   ],
   "return_type" : "_ZTIPN4piex12binary_parse20CachedPagedByteArray10CachedPageE",
   "source_file" : "external/libcxx/include/memory"
  },
  {
   "function_name" : "std::__1::allocator_traits<std::__1::allocator<piex::binary_parse::CachedPagedByteArray::CachedPage>>::max_size",
   "linker_set_key" : "_ZNSt3__116allocator_traitsINS_9allocatorIN4piex12binary_parse20CachedPagedByteArray10CachedPageEEEE8max_sizeERKS6_",
   "parameters" :
   [
    {
     "referenced_type" : "_ZTIRKNSt3__19allocatorIN4piex12binary_parse20CachedPagedByteArray10CachedPageEEE"
    }
   ],
   "return_type" : "_ZTIm",
   "source_file" : "external/libcxx/include/memory"
  },
  {
   "access" : "private",
   "function_name" : "std::__1::allocator_traits<std::__1::allocator<piex::binary_parse::CachedPagedByteArray::CachedPage>>::__destroy",
   "linker_set_key" : "_ZNSt3__116allocator_traitsINS_9allocatorIN4piex12binary_parse20CachedPagedByteArray10CachedPageEEEE9__destroyIS5_EEvNS_17integral_constantIbLb1EEERS6_PT_",
   "parameters" :
   [
    {
     "referenced_type" : "_ZTINSt3__117integral_constantIbLb1EEE"
    },
    {
     "referenced_type" : "_ZTIRNSt3__19allocatorIN4piex12binary_parse20CachedPagedByteArray10CachedPageEEE"
    },
    {
     "referenced_type" : "_ZTIPN4piex12binary_parse20CachedPagedByteArray10CachedPageE"
    }
   ],
   "return_type" : "_ZTIv",
   "source_file" : "external/libcxx/include/memory",
   "template_args" : [ "_ZTIN4piex12binary_parse20CachedPagedByteArray10CachedPageE" ]
  },
  {
   "function_name" : "std::__1::allocator_traits<std::__1::allocator<piex::binary_parse::CachedPagedByteArray::CachedPage>>::construct",
   "linker_set_key" : "_ZNSt3__116allocator_traitsINS_9allocatorIN4piex12binary_parse20CachedPagedByteArray10CachedPageEEEE9constructIS5_JRKS5_EEEvRS6_PT_DpOT0_",
   "parameters" :
   [
    {
     "referenced_type" : "_ZTIRNSt3__19allocatorIN4piex12binary_parse20CachedPagedByteArray10CachedPageEEE"
    },
    {
     "referenced_type" : "_ZTIPN4piex12binary_parse20CachedPagedByteArray10CachedPageE"
    },
    {
     "referenced_type" : "_ZTIRKN4piex12binary_parse20CachedPagedByteArray10CachedPageE"
    }
   ],
   "return_type" : "_ZTIv",
   "source_file" : "external/libcxx/include/memory",
   "template_args" : [ "_ZTIN4piex12binary_parse20CachedPagedByteArray10CachedPageE" ]
  },
  {
   "function_name" : "std::__1::allocator_traits<std::__1::allocator<piex::binary_parse::CachedPagedByteArray::CachedPage>>::construct",
   "linker_set_key" : "_ZNSt3__116allocator_traitsINS_9allocatorIN4piex12binary_parse20CachedPagedByteArray10CachedPageEEEE9constructIS5_JS5_EEEvRS6_PT_DpOT0_",
   "parameters" :
   [
    {
     "referenced_type" : "_ZTIRNSt3__19allocatorIN4piex12binary_parse20CachedPagedByteArray10CachedPageEEE"
    },
    {
     "referenced_type" : "_ZTIPN4piex12binary_parse20CachedPagedByteArray10CachedPageE"
    },
    {
     "referenced_type" : "_ZTION4piex12binary_parse20CachedPagedByteArray10CachedPageE"
    }
   ],
   "return_type" : "_ZTIv",
   "source_file" : "external/libcxx/include/memory",
   "template_args" : [ "_ZTIN4piex12binary_parse20CachedPagedByteArray10CachedPageE" ]
  },
  {
   "access" : "private",
   "function_name" : "std::__1::allocator_traits<std::__1::allocator<char>>::__max_size",
   "linker_set_key" : "_ZNSt3__116allocator_traitsINS_9allocatorIcEEE10__max_sizeENS_17integral_constantIbLb1EEERKS2_",
   "parameters" :
   [
    {
     "referenced_type" : "_ZTINSt3__117integral_constantIbLb1EEE"
    },
    {
     "referenced_type" : "_ZTIRKNSt3__19allocatorIcEE"
    }
   ],
   "return_type" : "_ZTIm",
   "source_file" : "external/libcxx/include/memory"
  },
  {
   "function_name" : "std::__1::allocator_traits<std::__1::allocator<char>>::deallocate",
   "linker_set_key" : "_ZNSt3__116allocator_traitsINS_9allocatorIcEEE10deallocateERS2_Pcm",
   "parameters" :
   [
    {
     "referenced_type" : "_ZTIRNSt3__19allocatorIcEE"
    },
    {
     "referenced_type" : "_ZTIPc"
    },
    {
     "referenced_type" : "_ZTIm"
    }
   ],
   "return_type" : "_ZTIv",
   "source_file" : "external/libcxx/include/memory"
  },
  {
   "function_name" : "std::__1::allocator_traits<std::__1::allocator<char>>::allocate",
   "linker_set_key" : "_ZNSt3__116allocator_traitsINS_9allocatorIcEEE8allocateERS2_m",
   "parameters" :
   [
    {
     "referenced_type" : "_ZTIRNSt3__19allocatorIcEE"
    },
    {
     "referenced_type" : "_ZTIm"
    }
   ],
   "return_type" : "_ZTIPc",
   "source_file" : "external/libcxx/include/memory"
  },
  {
   "function_name" : "std::__1::allocator_traits<std::__1::allocator<char>>::max_size",
   "linker_set_key" : "_ZNSt3__116allocator_traitsINS_9allocatorIcEEE8max_sizeERKS2_",
   "parameters" :
   [
    {
     "referenced_type" : "_ZTIRKNSt3__19allocatorIcEE"
    }
   ],
   "return_type" : "_ZTIm",
   "source_file" : "external/libcxx/include/memory"
  },
  {
   "access" : "private",
   "function_name" : "std::__1::allocator_traits<std::__1::allocator<wchar_t>>::__max_size",
   "linker_set_key" : "_ZNSt3__116allocator_traitsINS_9allocatorIwEEE10__max_sizeENS_17integral_constantIbLb1EEERKS2_",
   "parameters" :
   [
    {
     "referenced_type" : "_ZTINSt3__117integral_constantIbLb1EEE"
    },
    {
     "referenced_type" : "_ZTIRKNSt3__19allocatorIwEE"
    }
   ],
   "return_type" : "_ZTIm",
   "source_file" : "external/libcxx/include/memory"
  },
  {
   "function_name" : "std::__1::allocator_traits<std::__1::allocator<wchar_t>>::deallocate",
   "linker_set_key" : "_ZNSt3__116allocator_traitsINS_9allocatorIwEEE10deallocateERS2_Pwm",
   "parameters" :
   [
    {
     "referenced_type" : "_ZTIRNSt3__19allocatorIwEE"
    },
    {
     "referenced_type" : "_ZTIPw"
    },
    {
     "referenced_type" : "_ZTIm"
    }
   ],
   "return_type" : "_ZTIv",
   "source_file" : "external/libcxx/include/memory"
  },
  {
   "function_name" : "std::__1::allocator_traits<std::__1::allocator<wchar_t>>::allocate",
   "linker_set_key" : "_ZNSt3__116allocator_traitsINS_9allocatorIwEEE8allocateERS2_m",
   "parameters" :
   [
    {
     "referenced_type" : "_ZTIRNSt3__19allocatorIwEE"
    },
    {
     "referenced_type" : "_ZTIm"
    }
   ],
   "return_type" : "_ZTIPw",
   "source_file" : "external/libcxx/include/memory"
  },
  {
   "function_name" : "std::__1::allocator_traits<std::__1::allocator<wchar_t>>::max_size",
   "linker_set_key" : "_ZNSt3__116allocator_traitsINS_9allocatorIwEEE8max_sizeERKS2_",
   "parameters" :
   [
    {
     "referenced_type" : "_ZTIRKNSt3__19allocatorIwEE"
    }
   ],
   "return_type" : "_ZTIm",
   "source_file" : "external/libcxx/include/memory"
  },
  {
   "function_name" : "std::__1::forward_as_tuple",
   "linker_set_key" : "_ZNSt3__116forward_as_tupleIJEEENS_5tupleIJDpOT_EEES4_",
   "return_type" : "_ZTINSt3__15tupleIJEEE",
   "source_file" : "external/libcxx/include/tuple"
  },
  {
   "function_name" : "std::__1::move_if_noexcept",
   "linker_set_key" : "_ZNSt3__116move_if_noexceptIN4piex12binary_parse20CachedPagedByteArray10CachedPageEEENS_11conditionalIXaantsr29is_nothrow_move_constructibleIT_EE5valuesr21is_copy_constructibleIS6_EE5valueERKS6_OS6_E4typeERS6_",
   "parameters" :
   [
    {
     "referenced_type" : "_ZTIRN4piex12binary_parse20CachedPagedByteArray10CachedPageE"
    }
   ],
   "return_type" : "_ZTION4piex12binary_parse20CachedPagedByteArray10CachedPageE",
   "source_file" : "external/libcxx/include/utility",
   "template_args" : [ "_ZTIN4piex12binary_parse20CachedPagedByteArray10CachedPageE" ]
  },
  {
   "access" : "private",
   "function_name" : "std::__1::_DeallocateCaller::__do_deallocate_handle_size",
   "linker_set_key" : "_ZNSt3__117_DeallocateCaller27__do_deallocate_handle_sizeEPvm",
   "parameters" :
   [
    {
     "referenced_type" : "_ZTIPv"
    },
    {
     "referenced_type" : "_ZTIm"
    }
   ],
   "return_type" : "_ZTIv",
   "source_file" : "external/libcxx/include/new"
  },
  {
   "access" : "private",
   "function_name" : "std::__1::_DeallocateCaller::__do_deallocate_handle_size",
   "linker_set_key" : "_ZNSt3__117_DeallocateCaller27__do_deallocate_handle_sizeEPvmSt11align_val_t",
   "parameters" :
   [
    {
     "referenced_type" : "_ZTIPv"
    },
    {
     "referenced_type" : "_ZTIm"
    },
    {
     "referenced_type" : "_ZTISt11align_val_t"
    }
   ],
   "return_type" : "_ZTIv",
   "source_file" : "external/libcxx/include/new"
  },
  {
   "function_name" : "std::__1::_DeallocateCaller::__do_deallocate_handle_align",
   "linker_set_key" : "_ZNSt3__117_DeallocateCaller28__do_deallocate_handle_alignEPvm",
   "parameters" :
   [
    {
     "referenced_type" : "_ZTIPv"
    },
    {
     "referenced_type" : "_ZTIm"
    }
   ],
   "return_type" : "_ZTIv",
   "source_file" : "external/libcxx/include/new"
  },
  {
   "function_name" : "std::__1::_DeallocateCaller::__do_deallocate_handle_size_align",
   "linker_set_key" : "_ZNSt3__117_DeallocateCaller33__do_deallocate_handle_size_alignEPvmm",
   "parameters" :
   [
    {
     "referenced_type" : "_ZTIPv"
    },
    {
     "referenced_type" : "_ZTIm"
    },
    {
     "referenced_type" : "_ZTIm"
    }
   ],
   "return_type" : "_ZTIv",
   "source_file" : "external/libcxx/include/new"
  },
  {
   "access" : "private",
   "function_name" : "std::__1::_DeallocateCaller::__do_call",
   "linker_set_key" : "_ZNSt3__117_DeallocateCaller9__do_callEPv",
   "parameters" :
   [
    {
     "referenced_type" : "_ZTIPv"
    }
   ],
   "return_type" : "_ZTIv",
   "source_file" : "external/libcxx/include/new"
  },
  {
   "access" : "private",
   "function_name" : "std::__1::_DeallocateCaller::__do_call",
   "linker_set_key" : "_ZNSt3__117_DeallocateCaller9__do_callISt11align_val_tEEvPvT_",
   "parameters" :
   [
    {
     "referenced_type" : "_ZTIPv"
    },
    {
     "referenced_type" : "_ZTISt11align_val_t"
    }
   ],
   "return_type" : "_ZTIv",
   "source_file" : "external/libcxx/include/new",
   "template_args" : [ "_ZTISt11align_val_t" ]
  },
  {
   "function_name" : "std::__1::__compressed_pair<std::__1::basic_string<char32_t, std::__1::char_traits<char32_t>, std::__1::allocator<char32_t>>::__rep, std::__1::allocator<char32_t>>::first",
   "linker_set_key" : "_ZNSt3__117__compressed_pairINS_12basic_stringIDiNS_11char_traitsIDiEENS_9allocatorIDiEEE5__repES5_E5firstEv",
   "parameters" :
   [
    {
     "is_this_ptr" : true,
     "referenced_type" : "_ZTIPNSt3__117__compressed_pairINS_12basic_stringIDiNS_11char_traitsIDiEENS_9allocatorIDiEEE5__repES5_EE"
    }
   ],
   "return_type" : "_ZTIRNSt3__112basic_stringIDiNS_11char_traitsIDiEENS_9allocatorIDiEEE5__repE",
   "source_file" : "external/libcxx/include/memory"
  },
  {
   "function_name" : "std::__1::__compressed_pair<std::__1::basic_string<char32_t, std::__1::char_traits<char32_t>, std::__1::allocator<char32_t>>::__rep, std::__1::allocator<char32_t>>::second",
   "linker_set_key" : "_ZNSt3__117__compressed_pairINS_12basic_stringIDiNS_11char_traitsIDiEENS_9allocatorIDiEEE5__repES5_E6secondEv",
   "parameters" :
   [
    {
     "is_this_ptr" : true,
     "referenced_type" : "_ZTIPNSt3__117__compressed_pairINS_12basic_stringIDiNS_11char_traitsIDiEENS_9allocatorIDiEEE5__repES5_EE"
    }
   ],
   "return_type" : "_ZTIRNSt3__19allocatorIDiEE",
   "source_file" : "external/libcxx/include/memory"
  },
  {
   "function_name" : "std::__1::__compressed_pair<std::__1::basic_string<char32_t, std::__1::char_traits<char32_t>, std::__1::allocator<char32_t>>::__rep, std::__1::allocator<char32_t>>::__compressed_pair",
   "linker_set_key" : "_ZNSt3__117__compressed_pairINS_12basic_stringIDiNS_11char_traitsIDiEENS_9allocatorIDiEEE5__repES5_EC1ILb1EvEEv",
   "parameters" :
   [
    {
     "is_this_ptr" : true,
     "referenced_type" : "_ZTIPNSt3__117__compressed_pairINS_12basic_stringIDiNS_11char_traitsIDiEENS_9allocatorIDiEEE5__repES5_EE"
    }
   ],
   "return_type" : "_ZTIv",
   "source_file" : "external/libcxx/include/memory",
   "template_args" : [ "_ZTIv" ]
  },
  {
   "function_name" : "std::__1::__compressed_pair<std::__1::basic_string<char32_t, std::__1::char_traits<char32_t>, std::__1::allocator<char32_t>>::__rep, std::__1::allocator<char32_t>>::__compressed_pair",
   "linker_set_key" : "_ZNSt3__117__compressed_pairINS_12basic_stringIDiNS_11char_traitsIDiEENS_9allocatorIDiEEE5__repES5_EC2ILb1EvEEv",
   "parameters" :
   [
    {
     "is_this_ptr" : true,
     "referenced_type" : "_ZTIPNSt3__117__compressed_pairINS_12basic_stringIDiNS_11char_traitsIDiEENS_9allocatorIDiEEE5__repES5_EE"
    }
   ],
   "return_type" : "_ZTIv",
   "source_file" : "external/libcxx/include/memory",
   "template_args" : [ "_ZTIv" ]
  },
  {
   "function_name" : "std::__1::__compressed_pair<std::__1::basic_string<char16_t, std::__1::char_traits<char16_t>, std::__1::allocator<char16_t>>::__rep, std::__1::allocator<char16_t>>::first",
   "linker_set_key" : "_ZNSt3__117__compressed_pairINS_12basic_stringIDsNS_11char_traitsIDsEENS_9allocatorIDsEEE5__repES5_E5firstEv",
   "parameters" :
   [
    {
     "is_this_ptr" : true,
     "referenced_type" : "_ZTIPNSt3__117__compressed_pairINS_12basic_stringIDsNS_11char_traitsIDsEENS_9allocatorIDsEEE5__repES5_EE"
    }
   ],
   "return_type" : "_ZTIRNSt3__112basic_stringIDsNS_11char_traitsIDsEENS_9allocatorIDsEEE5__repE",
   "source_file" : "external/libcxx/include/memory"
  },
  {
   "function_name" : "std::__1::__compressed_pair<std::__1::basic_string<char16_t, std::__1::char_traits<char16_t>, std::__1::allocator<char16_t>>::__rep, std::__1::allocator<char16_t>>::second",
   "linker_set_key" : "_ZNSt3__117__compressed_pairINS_12basic_stringIDsNS_11char_traitsIDsEENS_9allocatorIDsEEE5__repES5_E6secondEv",
   "parameters" :
   [
    {
     "is_this_ptr" : true,
     "referenced_type" : "_ZTIPNSt3__117__compressed_pairINS_12basic_stringIDsNS_11char_traitsIDsEENS_9allocatorIDsEEE5__repES5_EE"
    }
   ],
   "return_type" : "_ZTIRNSt3__19allocatorIDsEE",
   "source_file" : "external/libcxx/include/memory"
  },
  {
   "function_name" : "std::__1::__compressed_pair<std::__1::basic_string<char16_t, std::__1::char_traits<char16_t>, std::__1::allocator<char16_t>>::__rep, std::__1::allocator<char16_t>>::__compressed_pair",
   "linker_set_key" : "_ZNSt3__117__compressed_pairINS_12basic_stringIDsNS_11char_traitsIDsEENS_9allocatorIDsEEE5__repES5_EC1ILb1EvEEv",
   "parameters" :
   [
    {
     "is_this_ptr" : true,
     "referenced_type" : "_ZTIPNSt3__117__compressed_pairINS_12basic_stringIDsNS_11char_traitsIDsEENS_9allocatorIDsEEE5__repES5_EE"
    }
   ],
   "return_type" : "_ZTIv",
   "source_file" : "external/libcxx/include/memory",
   "template_args" : [ "_ZTIv" ]
  },
  {
   "function_name" : "std::__1::__compressed_pair<std::__1::basic_string<char16_t, std::__1::char_traits<char16_t>, std::__1::allocator<char16_t>>::__rep, std::__1::allocator<char16_t>>::__compressed_pair",
   "linker_set_key" : "_ZNSt3__117__compressed_pairINS_12basic_stringIDsNS_11char_traitsIDsEENS_9allocatorIDsEEE5__repES5_EC2ILb1EvEEv",
   "parameters" :
   [
    {
     "is_this_ptr" : true,
     "referenced_type" : "_ZTIPNSt3__117__compressed_pairINS_12basic_stringIDsNS_11char_traitsIDsEENS_9allocatorIDsEEE5__repES5_EE"
    }
   ],
   "return_type" : "_ZTIv",
   "source_file" : "external/libcxx/include/memory",
   "template_args" : [ "_ZTIv" ]
  },
  {
   "function_name" : "std::__1::__compressed_pair<std::__1::basic_string<char, std::__1::char_traits<char>, std::__1::allocator<char>>::__rep, std::__1::allocator<char>>::first",
   "linker_set_key" : "_ZNSt3__117__compressed_pairINS_12basic_stringIcNS_11char_traitsIcEENS_9allocatorIcEEE5__repES5_E5firstEv",
   "parameters" :
   [
    {
     "is_this_ptr" : true,
     "referenced_type" : "_ZTIPNSt3__117__compressed_pairINS_12basic_stringIcNS_11char_traitsIcEENS_9allocatorIcEEE5__repES5_EE"
    }
   ],
   "return_type" : "_ZTIRNSt3__112basic_stringIcNS_11char_traitsIcEENS_9allocatorIcEEE5__repE",
   "source_file" : "external/libcxx/include/memory"
  },
  {
   "function_name" : "std::__1::__compressed_pair<std::__1::basic_string<char, std::__1::char_traits<char>, std::__1::allocator<char>>::__rep, std::__1::allocator<char>>::second",
   "linker_set_key" : "_ZNSt3__117__compressed_pairINS_12basic_stringIcNS_11char_traitsIcEENS_9allocatorIcEEE5__repES5_E6secondEv",
   "parameters" :
   [
    {
     "is_this_ptr" : true,
     "referenced_type" : "_ZTIPNSt3__117__compressed_pairINS_12basic_stringIcNS_11char_traitsIcEENS_9allocatorIcEEE5__repES5_EE"
    }
   ],
   "return_type" : "_ZTIRNSt3__19allocatorIcEE",
   "source_file" : "external/libcxx/include/memory"
  },
  {
   "function_name" : "std::__1::__compressed_pair<std::__1::basic_string<char, std::__1::char_traits<char>, std::__1::allocator<char>>::__rep, std::__1::allocator<char>>::__compressed_pair",
   "linker_set_key" : "_ZNSt3__117__compressed_pairINS_12basic_stringIcNS_11char_traitsIcEENS_9allocatorIcEEE5__repES5_EC1ILb1EvEEv",
   "parameters" :
   [
    {
     "is_this_ptr" : true,
     "referenced_type" : "_ZTIPNSt3__117__compressed_pairINS_12basic_stringIcNS_11char_traitsIcEENS_9allocatorIcEEE5__repES5_EE"
    }
   ],
   "return_type" : "_ZTIv",
   "source_file" : "external/libcxx/include/memory",
   "template_args" : [ "_ZTIv" ]
  },
  {
   "function_name" : "std::__1::__compressed_pair<std::__1::basic_string<char, std::__1::char_traits<char>, std::__1::allocator<char>>::__rep, std::__1::allocator<char>>::__compressed_pair",
   "linker_set_key" : "_ZNSt3__117__compressed_pairINS_12basic_stringIcNS_11char_traitsIcEENS_9allocatorIcEEE5__repES5_EC2ILb1EvEEv",
   "parameters" :
   [
    {
     "is_this_ptr" : true,
     "referenced_type" : "_ZTIPNSt3__117__compressed_pairINS_12basic_stringIcNS_11char_traitsIcEENS_9allocatorIcEEE5__repES5_EE"
    }
   ],
   "return_type" : "_ZTIv",
   "source_file" : "external/libcxx/include/memory",
   "template_args" : [ "_ZTIv" ]
  },
  {
   "function_name" : "std::__1::__compressed_pair<std::__1::basic_string<wchar_t, std::__1::char_traits<wchar_t>, std::__1::allocator<wchar_t>>::__rep, std::__1::allocator<wchar_t>>::first",
   "linker_set_key" : "_ZNSt3__117__compressed_pairINS_12basic_stringIwNS_11char_traitsIwEENS_9allocatorIwEEE5__repES5_E5firstEv",
   "parameters" :
   [
    {
     "is_this_ptr" : true,
     "referenced_type" : "_ZTIPNSt3__117__compressed_pairINS_12basic_stringIwNS_11char_traitsIwEENS_9allocatorIwEEE5__repES5_EE"
    }
   ],
   "return_type" : "_ZTIRNSt3__112basic_stringIwNS_11char_traitsIwEENS_9allocatorIwEEE5__repE",
   "source_file" : "external/libcxx/include/memory"
  },
  {
   "function_name" : "std::__1::__compressed_pair<std::__1::basic_string<wchar_t, std::__1::char_traits<wchar_t>, std::__1::allocator<wchar_t>>::__rep, std::__1::allocator<wchar_t>>::second",
   "linker_set_key" : "_ZNSt3__117__compressed_pairINS_12basic_stringIwNS_11char_traitsIwEENS_9allocatorIwEEE5__repES5_E6secondEv",
   "parameters" :
   [
    {
     "is_this_ptr" : true,
     "referenced_type" : "_ZTIPNSt3__117__compressed_pairINS_12basic_stringIwNS_11char_traitsIwEENS_9allocatorIwEEE5__repES5_EE"
    }
   ],
   "return_type" : "_ZTIRNSt3__19allocatorIwEE",
   "source_file" : "external/libcxx/include/memory"
  },
  {
   "function_name" : "std::__1::__compressed_pair<std::__1::basic_string<wchar_t, std::__1::char_traits<wchar_t>, std::__1::allocator<wchar_t>>::__rep, std::__1::allocator<wchar_t>>::__compressed_pair",
   "linker_set_key" : "_ZNSt3__117__compressed_pairINS_12basic_stringIwNS_11char_traitsIwEENS_9allocatorIwEEE5__repES5_EC1ILb1EvEEv",
   "parameters" :
   [
    {
     "is_this_ptr" : true,
     "referenced_type" : "_ZTIPNSt3__117__compressed_pairINS_12basic_stringIwNS_11char_traitsIwEENS_9allocatorIwEEE5__repES5_EE"
    }
   ],
   "return_type" : "_ZTIv",
   "source_file" : "external/libcxx/include/memory",
   "template_args" : [ "_ZTIv" ]
  },
  {
   "function_name" : "std::__1::__compressed_pair<std::__1::basic_string<wchar_t, std::__1::char_traits<wchar_t>, std::__1::allocator<wchar_t>>::__rep, std::__1::allocator<wchar_t>>::__compressed_pair",
   "linker_set_key" : "_ZNSt3__117__compressed_pairINS_12basic_stringIwNS_11char_traitsIwEENS_9allocatorIwEEE5__repES5_EC2ILb1EvEEv",
   "parameters" :
   [
    {
     "is_this_ptr" : true,
     "referenced_type" : "_ZTIPNSt3__117__compressed_pairINS_12basic_stringIwNS_11char_traitsIwEENS_9allocatorIwEEE5__repES5_EE"
    }
   ],
   "return_type" : "_ZTIv",
   "source_file" : "external/libcxx/include/memory",
   "template_args" : [ "_ZTIv" ]
  },
  {
   "function_name" : "std::__1::__compressed_pair<piex::binary_parse::CachedPagedByteArray::CachedPage *, std::__1::allocator<piex::binary_parse::CachedPagedByteArray::CachedPage>>::first",
   "linker_set_key" : "_ZNSt3__117__compressed_pairIPN4piex12binary_parse20CachedPagedByteArray10CachedPageENS_9allocatorIS4_EEE5firstEv",
   "parameters" :
   [
    {
     "is_this_ptr" : true,
     "referenced_type" : "_ZTIPNSt3__117__compressed_pairIPN4piex12binary_parse20CachedPagedByteArray10CachedPageENS_9allocatorIS4_EEEE"
    }
   ],
   "return_type" : "_ZTIRPN4piex12binary_parse20CachedPagedByteArray10CachedPageE",
   "source_file" : "external/libcxx/include/memory"
  },
  {
   "function_name" : "std::__1::__compressed_pair<piex::binary_parse::CachedPagedByteArray::CachedPage *, std::__1::allocator<piex::binary_parse::CachedPagedByteArray::CachedPage>>::second",
   "linker_set_key" : "_ZNSt3__117__compressed_pairIPN4piex12binary_parse20CachedPagedByteArray10CachedPageENS_9allocatorIS4_EEE6secondEv",
   "parameters" :
   [
    {
     "is_this_ptr" : true,
     "referenced_type" : "_ZTIPNSt3__117__compressed_pairIPN4piex12binary_parse20CachedPagedByteArray10CachedPageENS_9allocatorIS4_EEEE"
    }
   ],
   "return_type" : "_ZTIRNSt3__19allocatorIN4piex12binary_parse20CachedPagedByteArray10CachedPageEEE",
   "source_file" : "external/libcxx/include/memory"
  },
  {
   "function_name" : "std::__1::__compressed_pair<piex::binary_parse::CachedPagedByteArray::CachedPage *, std::__1::allocator<piex::binary_parse::CachedPagedByteArray::CachedPage>>::__compressed_pair",
   "linker_set_key" : "_ZNSt3__117__compressed_pairIPN4piex12binary_parse20CachedPagedByteArray10CachedPageENS_9allocatorIS4_EEEC1IDnLb1EEEOT_",
   "parameters" :
   [
    {
     "is_this_ptr" : true,
     "referenced_type" : "_ZTIPNSt3__117__compressed_pairIPN4piex12binary_parse20CachedPagedByteArray10CachedPageENS_9allocatorIS4_EEEE"
    },
    {
     "referenced_type" : "_ZTIODn"
    }
   ],
   "return_type" : "_ZTIv",
   "source_file" : "external/libcxx/include/memory",
   "template_args" : [ "_ZTIDn" ]
  },
  {
   "function_name" : "std::__1::__compressed_pair<piex::binary_parse::CachedPagedByteArray::CachedPage *, std::__1::allocator<piex::binary_parse::CachedPagedByteArray::CachedPage>>::__compressed_pair",
   "linker_set_key" : "_ZNSt3__117__compressed_pairIPN4piex12binary_parse20CachedPagedByteArray10CachedPageENS_9allocatorIS4_EEEC2IDnLb1EEEOT_",
   "parameters" :
   [
    {
     "is_this_ptr" : true,
     "referenced_type" : "_ZTIPNSt3__117__compressed_pairIPN4piex12binary_parse20CachedPagedByteArray10CachedPageENS_9allocatorIS4_EEEE"
    },
    {
     "referenced_type" : "_ZTIODn"
    }
   ],
   "return_type" : "_ZTIv",
   "source_file" : "external/libcxx/include/memory",
   "template_args" : [ "_ZTIDn" ]
  },
  {
   "function_name" : "std::__1::__compressed_pair<piex::binary_parse::CachedPagedByteArray::CachedPage *, std::__1::allocator<piex::binary_parse::CachedPagedByteArray::CachedPage> &>::first",
   "linker_set_key" : "_ZNSt3__117__compressed_pairIPN4piex12binary_parse20CachedPagedByteArray10CachedPageERNS_9allocatorIS4_EEE5firstEv",
   "parameters" :
   [
    {
     "is_this_ptr" : true,
     "referenced_type" : "_ZTIPNSt3__117__compressed_pairIPN4piex12binary_parse20CachedPagedByteArray10CachedPageERNS_9allocatorIS4_EEEE"
    }
   ],
   "return_type" : "_ZTIRPN4piex12binary_parse20CachedPagedByteArray10CachedPageE",
   "source_file" : "external/libcxx/include/memory"
  },
  {
   "function_name" : "std::__1::__compressed_pair<piex::binary_parse::CachedPagedByteArray::CachedPage *, std::__1::allocator<piex::binary_parse::CachedPagedByteArray::CachedPage> &>::second",
   "linker_set_key" : "_ZNSt3__117__compressed_pairIPN4piex12binary_parse20CachedPagedByteArray10CachedPageERNS_9allocatorIS4_EEE6secondEv",
   "parameters" :
   [
    {
     "is_this_ptr" : true,
     "referenced_type" : "_ZTIPNSt3__117__compressed_pairIPN4piex12binary_parse20CachedPagedByteArray10CachedPageERNS_9allocatorIS4_EEEE"
    }
   ],
   "return_type" : "_ZTIRNSt3__19allocatorIN4piex12binary_parse20CachedPagedByteArray10CachedPageEEE",
   "source_file" : "external/libcxx/include/memory"
  },
  {
   "function_name" : "std::__1::__compressed_pair<piex::binary_parse::CachedPagedByteArray::CachedPage *, std::__1::allocator<piex::binary_parse::CachedPagedByteArray::CachedPage> &>::__compressed_pair",
   "linker_set_key" : "_ZNSt3__117__compressed_pairIPN4piex12binary_parse20CachedPagedByteArray10CachedPageERNS_9allocatorIS4_EEEC1IDnS8_EEOT_OT0_",
   "parameters" :
   [
    {
     "is_this_ptr" : true,
     "referenced_type" : "_ZTIPNSt3__117__compressed_pairIPN4piex12binary_parse20CachedPagedByteArray10CachedPageERNS_9allocatorIS4_EEEE"
    },
    {
     "referenced_type" : "_ZTIODn"
    },
    {
     "referenced_type" : "_ZTIRNSt3__19allocatorIN4piex12binary_parse20CachedPagedByteArray10CachedPageEEE"
    }
   ],
   "return_type" : "_ZTIv",
   "source_file" : "external/libcxx/include/memory",
   "template_args" :
   [
    "_ZTIDn",
    "_ZTIRNSt3__19allocatorIN4piex12binary_parse20CachedPagedByteArray10CachedPageEEE"
   ]
  },
  {
   "function_name" : "std::__1::__compressed_pair<piex::binary_parse::CachedPagedByteArray::CachedPage *, std::__1::allocator<piex::binary_parse::CachedPagedByteArray::CachedPage> &>::__compressed_pair",
   "linker_set_key" : "_ZNSt3__117__compressed_pairIPN4piex12binary_parse20CachedPagedByteArray10CachedPageERNS_9allocatorIS4_EEEC2IDnS8_EEOT_OT0_",
   "parameters" :
   [
    {
     "is_this_ptr" : true,
     "referenced_type" : "_ZTIPNSt3__117__compressed_pairIPN4piex12binary_parse20CachedPagedByteArray10CachedPageERNS_9allocatorIS4_EEEE"
    },
    {
     "referenced_type" : "_ZTIODn"
    },
    {
     "referenced_type" : "_ZTIRNSt3__19allocatorIN4piex12binary_parse20CachedPagedByteArray10CachedPageEEE"
    }
   ],
   "return_type" : "_ZTIv",
   "source_file" : "external/libcxx/include/memory",
   "template_args" :
   [
    "_ZTIDn",
    "_ZTIRNSt3__19allocatorIN4piex12binary_parse20CachedPagedByteArray10CachedPageEEE"
   ]
  },
  {
   "function_name" : "std::__1::__libcpp_allocate",
   "linker_set_key" : "_ZNSt3__117__libcpp_allocateEmm",
   "parameters" :
   [
    {
     "referenced_type" : "_ZTIm"
    },
    {
     "referenced_type" : "_ZTIm"
    }
   ],
   "return_type" : "_ZTIPv",
   "source_file" : "external/libcxx/include/new"
  },
  {
   "function_name" : "std::__1::atomic_flag_clear",
   "linker_set_key" : "_ZNSt3__117atomic_flag_clearEPNS_11atomic_flagE",
   "parameters" :
   [
    {
     "referenced_type" : "_ZTIPNSt3__111atomic_flagE"
    }
   ],
   "return_type" : "_ZTIv",
   "source_file" : "external/libcxx/include/atomic"
  },
  {
   "function_name" : "std::__1::atomic_flag_clear",
   "linker_set_key" : "_ZNSt3__117atomic_flag_clearEPVNS_11atomic_flagE",
   "parameters" :
   [
    {
     "referenced_type" : "_ZTIPVNSt3__111atomic_flagE"
    }
   ],
   "return_type" : "_ZTIv",
   "source_file" : "external/libcxx/include/atomic"
  },
  {
   "function_name" : "std::__1::basic_string_view<char32_t, std::__1::char_traits<char32_t>>::basic_string_view",
   "linker_set_key" : "_ZNSt3__117basic_string_viewIDiNS_11char_traitsIDiEEEC1EPKDim",
   "parameters" :
   [
    {
     "is_this_ptr" : true,
     "referenced_type" : "_ZTIPNSt3__117basic_string_viewIDiNS_11char_traitsIDiEEEE"
    },
    {
     "referenced_type" : "_ZTIPKDi"
    },
    {
     "referenced_type" : "_ZTIm"
    }
   ],
   "return_type" : "_ZTIv",
   "source_file" : "external/libcxx/include/string_view"
  },
  {
   "function_name" : "std::__1::basic_string_view<char32_t, std::__1::char_traits<char32_t>>::basic_string_view",
   "linker_set_key" : "_ZNSt3__117basic_string_viewIDiNS_11char_traitsIDiEEEC1ERKS3_",
   "parameters" :
   [
    {
     "is_this_ptr" : true,
     "referenced_type" : "_ZTIPNSt3__117basic_string_viewIDiNS_11char_traitsIDiEEEE"
    },
    {
     "referenced_type" : "_ZTIRKNSt3__117basic_string_viewIDiNS_11char_traitsIDiEEEE"
    }
   ],
   "return_type" : "_ZTIv",
   "source_file" : "external/libcxx/include/string_view"
  },
  {
   "function_name" : "std::__1::basic_string_view<char32_t, std::__1::char_traits<char32_t>>::basic_string_view",
   "linker_set_key" : "_ZNSt3__117basic_string_viewIDiNS_11char_traitsIDiEEEC2EPKDim",
   "parameters" :
   [
    {
     "is_this_ptr" : true,
     "referenced_type" : "_ZTIPNSt3__117basic_string_viewIDiNS_11char_traitsIDiEEEE"
    },
    {
     "referenced_type" : "_ZTIPKDi"
    },
    {
     "referenced_type" : "_ZTIm"
    }
   ],
   "return_type" : "_ZTIv",
   "source_file" : "external/libcxx/include/string_view"
  },
  {
   "function_name" : "std::__1::basic_string_view<char32_t, std::__1::char_traits<char32_t>>::basic_string_view",
   "linker_set_key" : "_ZNSt3__117basic_string_viewIDiNS_11char_traitsIDiEEEC2ERKS3_",
   "parameters" :
   [
    {
     "is_this_ptr" : true,
     "referenced_type" : "_ZTIPNSt3__117basic_string_viewIDiNS_11char_traitsIDiEEEE"
    },
    {
     "referenced_type" : "_ZTIRKNSt3__117basic_string_viewIDiNS_11char_traitsIDiEEEE"
    }
   ],
   "return_type" : "_ZTIv",
   "source_file" : "external/libcxx/include/string_view"
  },
  {
   "function_name" : "std::__1::basic_string_view<char32_t, std::__1::char_traits<char32_t>>::operator=",
   "linker_set_key" : "_ZNSt3__117basic_string_viewIDiNS_11char_traitsIDiEEEaSERKS3_",
   "parameters" :
   [
    {
     "is_this_ptr" : true,
     "referenced_type" : "_ZTIPNSt3__117basic_string_viewIDiNS_11char_traitsIDiEEEE"
    },
    {
     "referenced_type" : "_ZTIRKNSt3__117basic_string_viewIDiNS_11char_traitsIDiEEEE"
    }
   ],
   "return_type" : "_ZTIRNSt3__117basic_string_viewIDiNS_11char_traitsIDiEEEE",
   "source_file" : "external/libcxx/include/string_view"
  },
  {
   "function_name" : "std::__1::basic_string_view<char16_t, std::__1::char_traits<char16_t>>::basic_string_view",
   "linker_set_key" : "_ZNSt3__117basic_string_viewIDsNS_11char_traitsIDsEEEC1EPKDsm",
   "parameters" :
   [
    {
     "is_this_ptr" : true,
     "referenced_type" : "_ZTIPNSt3__117basic_string_viewIDsNS_11char_traitsIDsEEEE"
    },
    {
     "referenced_type" : "_ZTIPKDs"
    },
    {
     "referenced_type" : "_ZTIm"
    }
   ],
   "return_type" : "_ZTIv",
   "source_file" : "external/libcxx/include/string_view"
  },
  {
   "function_name" : "std::__1::basic_string_view<char16_t, std::__1::char_traits<char16_t>>::basic_string_view",
   "linker_set_key" : "_ZNSt3__117basic_string_viewIDsNS_11char_traitsIDsEEEC1ERKS3_",
   "parameters" :
   [
    {
     "is_this_ptr" : true,
     "referenced_type" : "_ZTIPNSt3__117basic_string_viewIDsNS_11char_traitsIDsEEEE"
    },
    {
     "referenced_type" : "_ZTIRKNSt3__117basic_string_viewIDsNS_11char_traitsIDsEEEE"
    }
   ],
   "return_type" : "_ZTIv",
   "source_file" : "external/libcxx/include/string_view"
  },
  {
   "function_name" : "std::__1::basic_string_view<char16_t, std::__1::char_traits<char16_t>>::basic_string_view",
   "linker_set_key" : "_ZNSt3__117basic_string_viewIDsNS_11char_traitsIDsEEEC2EPKDsm",
   "parameters" :
   [
    {
     "is_this_ptr" : true,
     "referenced_type" : "_ZTIPNSt3__117basic_string_viewIDsNS_11char_traitsIDsEEEE"
    },
    {
     "referenced_type" : "_ZTIPKDs"
    },
    {
     "referenced_type" : "_ZTIm"
    }
   ],
   "return_type" : "_ZTIv",
   "source_file" : "external/libcxx/include/string_view"
  },
  {
   "function_name" : "std::__1::basic_string_view<char16_t, std::__1::char_traits<char16_t>>::basic_string_view",
   "linker_set_key" : "_ZNSt3__117basic_string_viewIDsNS_11char_traitsIDsEEEC2ERKS3_",
   "parameters" :
   [
    {
     "is_this_ptr" : true,
     "referenced_type" : "_ZTIPNSt3__117basic_string_viewIDsNS_11char_traitsIDsEEEE"
    },
    {
     "referenced_type" : "_ZTIRKNSt3__117basic_string_viewIDsNS_11char_traitsIDsEEEE"
    }
   ],
   "return_type" : "_ZTIv",
   "source_file" : "external/libcxx/include/string_view"
  },
  {
   "function_name" : "std::__1::basic_string_view<char16_t, std::__1::char_traits<char16_t>>::operator=",
   "linker_set_key" : "_ZNSt3__117basic_string_viewIDsNS_11char_traitsIDsEEEaSERKS3_",
   "parameters" :
   [
    {
     "is_this_ptr" : true,
     "referenced_type" : "_ZTIPNSt3__117basic_string_viewIDsNS_11char_traitsIDsEEEE"
    },
    {
     "referenced_type" : "_ZTIRKNSt3__117basic_string_viewIDsNS_11char_traitsIDsEEEE"
    }
   ],
   "return_type" : "_ZTIRNSt3__117basic_string_viewIDsNS_11char_traitsIDsEEEE",
   "source_file" : "external/libcxx/include/string_view"
  },
  {
   "function_name" : "std::__1::basic_string_view<char, std::__1::char_traits<char>>::basic_string_view",
   "linker_set_key" : "_ZNSt3__117basic_string_viewIcNS_11char_traitsIcEEEC1EPKcm",
   "parameters" :
   [
    {
     "is_this_ptr" : true,
     "referenced_type" : "_ZTIPNSt3__117basic_string_viewIcNS_11char_traitsIcEEEE"
    },
    {
     "referenced_type" : "_ZTIPKc"
    },
    {
     "referenced_type" : "_ZTIm"
    }
   ],
   "return_type" : "_ZTIv",
   "source_file" : "external/libcxx/include/string_view"
  },
  {
   "function_name" : "std::__1::basic_string_view<char, std::__1::char_traits<char>>::basic_string_view",
   "linker_set_key" : "_ZNSt3__117basic_string_viewIcNS_11char_traitsIcEEEC1ERKS3_",
   "parameters" :
   [
    {
     "is_this_ptr" : true,
     "referenced_type" : "_ZTIPNSt3__117basic_string_viewIcNS_11char_traitsIcEEEE"
    },
    {
     "referenced_type" : "_ZTIRKNSt3__117basic_string_viewIcNS_11char_traitsIcEEEE"
    }
   ],
   "return_type" : "_ZTIv",
   "source_file" : "external/libcxx/include/string_view"
  },
  {
   "function_name" : "std::__1::basic_string_view<char, std::__1::char_traits<char>>::basic_string_view",
   "linker_set_key" : "_ZNSt3__117basic_string_viewIcNS_11char_traitsIcEEEC2EPKcm",
   "parameters" :
   [
    {
     "is_this_ptr" : true,
     "referenced_type" : "_ZTIPNSt3__117basic_string_viewIcNS_11char_traitsIcEEEE"
    },
    {
     "referenced_type" : "_ZTIPKc"
    },
    {
     "referenced_type" : "_ZTIm"
    }
   ],
   "return_type" : "_ZTIv",
   "source_file" : "external/libcxx/include/string_view"
  },
  {
   "function_name" : "std::__1::basic_string_view<char, std::__1::char_traits<char>>::basic_string_view",
   "linker_set_key" : "_ZNSt3__117basic_string_viewIcNS_11char_traitsIcEEEC2ERKS3_",
   "parameters" :
   [
    {
     "is_this_ptr" : true,
     "referenced_type" : "_ZTIPNSt3__117basic_string_viewIcNS_11char_traitsIcEEEE"
    },
    {
     "referenced_type" : "_ZTIRKNSt3__117basic_string_viewIcNS_11char_traitsIcEEEE"
    }
   ],
   "return_type" : "_ZTIv",
   "source_file" : "external/libcxx/include/string_view"
  },
  {
   "function_name" : "std::__1::basic_string_view<char, std::__1::char_traits<char>>::operator=",
   "linker_set_key" : "_ZNSt3__117basic_string_viewIcNS_11char_traitsIcEEEaSERKS3_",
   "parameters" :
   [
    {
     "is_this_ptr" : true,
     "referenced_type" : "_ZTIPNSt3__117basic_string_viewIcNS_11char_traitsIcEEEE"
    },
    {
     "referenced_type" : "_ZTIRKNSt3__117basic_string_viewIcNS_11char_traitsIcEEEE"
    }
   ],
   "return_type" : "_ZTIRNSt3__117basic_string_viewIcNS_11char_traitsIcEEEE",
   "source_file" : "external/libcxx/include/string_view"
  },
  {
   "function_name" : "std::__1::basic_string_view<wchar_t, std::__1::char_traits<wchar_t>>::basic_string_view",
   "linker_set_key" : "_ZNSt3__117basic_string_viewIwNS_11char_traitsIwEEEC1EPKwm",
   "parameters" :
   [
    {
     "is_this_ptr" : true,
     "referenced_type" : "_ZTIPNSt3__117basic_string_viewIwNS_11char_traitsIwEEEE"
    },
    {
     "referenced_type" : "_ZTIPKw"
    },
    {
     "referenced_type" : "_ZTIm"
    }
   ],
   "return_type" : "_ZTIv",
   "source_file" : "external/libcxx/include/string_view"
  },
  {
   "function_name" : "std::__1::basic_string_view<wchar_t, std::__1::char_traits<wchar_t>>::basic_string_view",
   "linker_set_key" : "_ZNSt3__117basic_string_viewIwNS_11char_traitsIwEEEC1ERKS3_",
   "parameters" :
   [
    {
     "is_this_ptr" : true,
     "referenced_type" : "_ZTIPNSt3__117basic_string_viewIwNS_11char_traitsIwEEEE"
    },
    {
     "referenced_type" : "_ZTIRKNSt3__117basic_string_viewIwNS_11char_traitsIwEEEE"
    }
   ],
   "return_type" : "_ZTIv",
   "source_file" : "external/libcxx/include/string_view"
  },
  {
   "function_name" : "std::__1::basic_string_view<wchar_t, std::__1::char_traits<wchar_t>>::basic_string_view",
   "linker_set_key" : "_ZNSt3__117basic_string_viewIwNS_11char_traitsIwEEEC2EPKwm",
   "parameters" :
   [
    {
     "is_this_ptr" : true,
     "referenced_type" : "_ZTIPNSt3__117basic_string_viewIwNS_11char_traitsIwEEEE"
    },
    {
     "referenced_type" : "_ZTIPKw"
    },
    {
     "referenced_type" : "_ZTIm"
    }
   ],
   "return_type" : "_ZTIv",
   "source_file" : "external/libcxx/include/string_view"
  },
  {
   "function_name" : "std::__1::basic_string_view<wchar_t, std::__1::char_traits<wchar_t>>::basic_string_view",
   "linker_set_key" : "_ZNSt3__117basic_string_viewIwNS_11char_traitsIwEEEC2ERKS3_",
   "parameters" :
   [
    {
     "is_this_ptr" : true,
     "referenced_type" : "_ZTIPNSt3__117basic_string_viewIwNS_11char_traitsIwEEEE"
    },
    {
     "referenced_type" : "_ZTIRKNSt3__117basic_string_viewIwNS_11char_traitsIwEEEE"
    }
   ],
   "return_type" : "_ZTIv",
   "source_file" : "external/libcxx/include/string_view"
  },
  {
   "function_name" : "std::__1::basic_string_view<wchar_t, std::__1::char_traits<wchar_t>>::operator=",
   "linker_set_key" : "_ZNSt3__117basic_string_viewIwNS_11char_traitsIwEEEaSERKS3_",
   "parameters" :
   [
    {
     "is_this_ptr" : true,
     "referenced_type" : "_ZTIPNSt3__117basic_string_viewIwNS_11char_traitsIwEEEE"
    },
    {
     "referenced_type" : "_ZTIRKNSt3__117basic_string_viewIwNS_11char_traitsIwEEEE"
    }
   ],
   "return_type" : "_ZTIRNSt3__117basic_string_viewIwNS_11char_traitsIwEEEE",
   "source_file" : "external/libcxx/include/string_view"
  },
  {
   "function_name" : "std::__1::__sfinae_ctor_base<false, false>::__sfinae_ctor_base",
   "linker_set_key" : "_ZNSt3__118__sfinae_ctor_baseILb0ELb0EEC1Ev",
   "parameters" :
   [
    {
     "is_this_ptr" : true,
     "referenced_type" : "_ZTIPNSt3__118__sfinae_ctor_baseILb0ELb0EEE"
    }
   ],
   "return_type" : "_ZTIv",
   "source_file" : "external/libcxx/include/__tuple"
  },
  {
   "function_name" : "std::__1::__sfinae_ctor_base<false, false>::__sfinae_ctor_base",
   "linker_set_key" : "_ZNSt3__118__sfinae_ctor_baseILb0ELb0EEC2Ev",
   "parameters" :
   [
    {
     "is_this_ptr" : true,
     "referenced_type" : "_ZTIPNSt3__118__sfinae_ctor_baseILb0ELb0EEE"
    }
   ],
   "return_type" : "_ZTIv",
   "source_file" : "external/libcxx/include/__tuple"
  },
  {
   "function_name" : "std::__1::__sfinae_ctor_base<false, false>::operator=",
   "linker_set_key" : "_ZNSt3__118__sfinae_ctor_baseILb0ELb0EEaSEOS1_",
   "parameters" :
   [
    {
     "is_this_ptr" : true,
     "referenced_type" : "_ZTIPNSt3__118__sfinae_ctor_baseILb0ELb0EEE"
    },
    {
     "referenced_type" : "_ZTIONSt3__118__sfinae_ctor_baseILb0ELb0EEE"
    }
   ],
   "return_type" : "_ZTIRNSt3__118__sfinae_ctor_baseILb0ELb0EEE",
   "source_file" : "external/libcxx/include/__tuple"
  },
  {
   "function_name" : "std::__1::__sfinae_ctor_base<false, false>::operator=",
   "linker_set_key" : "_ZNSt3__118__sfinae_ctor_baseILb0ELb0EEaSERKS1_",
   "parameters" :
   [
    {
     "is_this_ptr" : true,
     "referenced_type" : "_ZTIPNSt3__118__sfinae_ctor_baseILb0ELb0EEE"
    },
    {
     "referenced_type" : "_ZTIRKNSt3__118__sfinae_ctor_baseILb0ELb0EEE"
    }
   ],
   "return_type" : "_ZTIRNSt3__118__sfinae_ctor_baseILb0ELb0EEE",
   "source_file" : "external/libcxx/include/__tuple"
  },
  {
   "function_name" : "std::__1::__sfinae_ctor_base<false, true>::__sfinae_ctor_base",
   "linker_set_key" : "_ZNSt3__118__sfinae_ctor_baseILb0ELb1EEC1EOS1_",
   "parameters" :
   [
    {
     "is_this_ptr" : true,
     "referenced_type" : "_ZTIPNSt3__118__sfinae_ctor_baseILb0ELb1EEE"
    },
    {
     "referenced_type" : "_ZTIONSt3__118__sfinae_ctor_baseILb0ELb1EEE"
    }
   ],
   "return_type" : "_ZTIv",
   "source_file" : "external/libcxx/include/__tuple"
  },
  {
   "function_name" : "std::__1::__sfinae_ctor_base<false, true>::__sfinae_ctor_base",
   "linker_set_key" : "_ZNSt3__118__sfinae_ctor_baseILb0ELb1EEC1Ev",
   "parameters" :
   [
    {
     "is_this_ptr" : true,
     "referenced_type" : "_ZTIPNSt3__118__sfinae_ctor_baseILb0ELb1EEE"
    }
   ],
   "return_type" : "_ZTIv",
   "source_file" : "external/libcxx/include/__tuple"
  },
  {
   "function_name" : "std::__1::__sfinae_ctor_base<false, true>::__sfinae_ctor_base",
   "linker_set_key" : "_ZNSt3__118__sfinae_ctor_baseILb0ELb1EEC2EOS1_",
   "parameters" :
   [
    {
     "is_this_ptr" : true,
     "referenced_type" : "_ZTIPNSt3__118__sfinae_ctor_baseILb0ELb1EEE"
    },
    {
     "referenced_type" : "_ZTIONSt3__118__sfinae_ctor_baseILb0ELb1EEE"
    }
   ],
   "return_type" : "_ZTIv",
   "source_file" : "external/libcxx/include/__tuple"
  },
  {
   "function_name" : "std::__1::__sfinae_ctor_base<false, true>::__sfinae_ctor_base",
   "linker_set_key" : "_ZNSt3__118__sfinae_ctor_baseILb0ELb1EEC2Ev",
   "parameters" :
   [
    {
     "is_this_ptr" : true,
     "referenced_type" : "_ZTIPNSt3__118__sfinae_ctor_baseILb0ELb1EEE"
    }
   ],
   "return_type" : "_ZTIv",
   "source_file" : "external/libcxx/include/__tuple"
  },
  {
   "function_name" : "std::__1::__sfinae_ctor_base<false, true>::operator=",
   "linker_set_key" : "_ZNSt3__118__sfinae_ctor_baseILb0ELb1EEaSEOS1_",
   "parameters" :
   [
    {
     "is_this_ptr" : true,
     "referenced_type" : "_ZTIPNSt3__118__sfinae_ctor_baseILb0ELb1EEE"
    },
    {
     "referenced_type" : "_ZTIONSt3__118__sfinae_ctor_baseILb0ELb1EEE"
    }
   ],
   "return_type" : "_ZTIRNSt3__118__sfinae_ctor_baseILb0ELb1EEE",
   "source_file" : "external/libcxx/include/__tuple"
  },
  {
   "function_name" : "std::__1::__sfinae_ctor_base<false, true>::operator=",
   "linker_set_key" : "_ZNSt3__118__sfinae_ctor_baseILb0ELb1EEaSERKS1_",
   "parameters" :
   [
    {
     "is_this_ptr" : true,
     "referenced_type" : "_ZTIPNSt3__118__sfinae_ctor_baseILb0ELb1EEE"
    },
    {
     "referenced_type" : "_ZTIRKNSt3__118__sfinae_ctor_baseILb0ELb1EEE"
    }
   ],
   "return_type" : "_ZTIRNSt3__118__sfinae_ctor_baseILb0ELb1EEE",
   "source_file" : "external/libcxx/include/__tuple"
  },
  {
   "function_name" : "std::__1::__sfinae_ctor_base<true, false>::__sfinae_ctor_base",
   "linker_set_key" : "_ZNSt3__118__sfinae_ctor_baseILb1ELb0EEC1ERKS1_",
   "parameters" :
   [
    {
     "is_this_ptr" : true,
     "referenced_type" : "_ZTIPNSt3__118__sfinae_ctor_baseILb1ELb0EEE"
    },
    {
     "referenced_type" : "_ZTIRKNSt3__118__sfinae_ctor_baseILb1ELb0EEE"
    }
   ],
   "return_type" : "_ZTIv",
   "source_file" : "external/libcxx/include/__tuple"
  },
  {
   "function_name" : "std::__1::__sfinae_ctor_base<true, false>::__sfinae_ctor_base",
   "linker_set_key" : "_ZNSt3__118__sfinae_ctor_baseILb1ELb0EEC1Ev",
   "parameters" :
   [
    {
     "is_this_ptr" : true,
     "referenced_type" : "_ZTIPNSt3__118__sfinae_ctor_baseILb1ELb0EEE"
    }
   ],
   "return_type" : "_ZTIv",
   "source_file" : "external/libcxx/include/__tuple"
  },
  {
   "function_name" : "std::__1::__sfinae_ctor_base<true, false>::__sfinae_ctor_base",
   "linker_set_key" : "_ZNSt3__118__sfinae_ctor_baseILb1ELb0EEC2ERKS1_",
   "parameters" :
   [
    {
     "is_this_ptr" : true,
     "referenced_type" : "_ZTIPNSt3__118__sfinae_ctor_baseILb1ELb0EEE"
    },
    {
     "referenced_type" : "_ZTIRKNSt3__118__sfinae_ctor_baseILb1ELb0EEE"
    }
   ],
   "return_type" : "_ZTIv",
   "source_file" : "external/libcxx/include/__tuple"
  },
  {
   "function_name" : "std::__1::__sfinae_ctor_base<true, false>::__sfinae_ctor_base",
   "linker_set_key" : "_ZNSt3__118__sfinae_ctor_baseILb1ELb0EEC2Ev",
   "parameters" :
   [
    {
     "is_this_ptr" : true,
     "referenced_type" : "_ZTIPNSt3__118__sfinae_ctor_baseILb1ELb0EEE"
    }
   ],
   "return_type" : "_ZTIv",
   "source_file" : "external/libcxx/include/__tuple"
  },
  {
   "function_name" : "std::__1::__sfinae_ctor_base<true, false>::operator=",
   "linker_set_key" : "_ZNSt3__118__sfinae_ctor_baseILb1ELb0EEaSEOS1_",
   "parameters" :
   [
    {
     "is_this_ptr" : true,
     "referenced_type" : "_ZTIPNSt3__118__sfinae_ctor_baseILb1ELb0EEE"
    },
    {
     "referenced_type" : "_ZTIONSt3__118__sfinae_ctor_baseILb1ELb0EEE"
    }
   ],
   "return_type" : "_ZTIRNSt3__118__sfinae_ctor_baseILb1ELb0EEE",
   "source_file" : "external/libcxx/include/__tuple"
  },
  {
   "function_name" : "std::__1::__sfinae_ctor_base<true, false>::operator=",
   "linker_set_key" : "_ZNSt3__118__sfinae_ctor_baseILb1ELb0EEaSERKS1_",
   "parameters" :
   [
    {
     "is_this_ptr" : true,
     "referenced_type" : "_ZTIPNSt3__118__sfinae_ctor_baseILb1ELb0EEE"
    },
    {
     "referenced_type" : "_ZTIRKNSt3__118__sfinae_ctor_baseILb1ELb0EEE"
    }
   ],
   "return_type" : "_ZTIRNSt3__118__sfinae_ctor_baseILb1ELb0EEE",
   "source_file" : "external/libcxx/include/__tuple"
  },
  {
   "function_name" : "std::__1::condition_variable::native_handle",
   "linker_set_key" : "_ZNSt3__118condition_variable13native_handleEv",
   "parameters" :
   [
    {
     "is_this_ptr" : true,
     "referenced_type" : "_ZTIPNSt3__118condition_variableE"
    }
   ],
   "return_type" : "_ZTIP14pthread_cond_t",
   "source_file" : "external/libcxx/include/__mutex_base"
  },
  {
   "function_name" : "std::__1::condition_variable::condition_variable",
   "linker_set_key" : "_ZNSt3__118condition_variableC1Ev",
   "parameters" :
   [
    {
     "is_this_ptr" : true,
     "referenced_type" : "_ZTIPNSt3__118condition_variableE"
    }
   ],
   "return_type" : "_ZTIv",
   "source_file" : "external/libcxx/include/__mutex_base"
  },
  {
   "function_name" : "std::__1::condition_variable::condition_variable",
   "linker_set_key" : "_ZNSt3__118condition_variableC2Ev",
   "parameters" :
   [
    {
     "is_this_ptr" : true,
     "referenced_type" : "_ZTIPNSt3__118condition_variableE"
    }
   ],
   "return_type" : "_ZTIv",
   "source_file" : "external/libcxx/include/__mutex_base"
  },
  {
   "function_name" : "std::__1::get_pointer_safety",
   "linker_set_key" : "_ZNSt3__118get_pointer_safetyEv",
   "return_type" : "_ZTINSt3__114pointer_safetyE",
   "source_file" : "external/libcxx/include/memory"
  },
  {
   "function_name" : "std::__1::__libcpp_deallocate",
   "linker_set_key" : "_ZNSt3__119__libcpp_deallocateEPvmm",
   "parameters" :
   [
    {
     "referenced_type" : "_ZTIPv"
    },
    {
     "referenced_type" : "_ZTIm"
    },
    {
     "referenced_type" : "_ZTIm"
    }
   ],
   "return_type" : "_ZTIv",
   "source_file" : "external/libcxx/include/new"
  },
  {
   "function_name" : "std::__1::__libcpp_debug_info::__libcpp_debug_info",
   "linker_set_key" : "_ZNSt3__119__libcpp_debug_infoC1EPKciS2_S2_",
   "parameters" :
   [
    {
     "is_this_ptr" : true,
     "referenced_type" : "_ZTIPNSt3__119__libcpp_debug_infoE"
    },
    {
     "referenced_type" : "_ZTIPKc"
    },
    {
     "referenced_type" : "_ZTIi"
    },
    {
     "referenced_type" : "_ZTIPKc"
    },
    {
     "referenced_type" : "_ZTIPKc"
    }
   ],
   "return_type" : "_ZTIv",
   "source_file" : "external/libcxx/include/__debug"
  },
  {
   "function_name" : "std::__1::__libcpp_debug_info::__libcpp_debug_info",
   "linker_set_key" : "_ZNSt3__119__libcpp_debug_infoC1Ev",
   "parameters" :
   [
    {
     "is_this_ptr" : true,
     "referenced_type" : "_ZTIPNSt3__119__libcpp_debug_infoE"
    }
   ],
   "return_type" : "_ZTIv",
   "source_file" : "external/libcxx/include/__debug"
  },
  {
   "function_name" : "std::__1::__libcpp_debug_info::__libcpp_debug_info",
   "linker_set_key" : "_ZNSt3__119__libcpp_debug_infoC2EPKciS2_S2_",
   "parameters" :
   [
    {
     "is_this_ptr" : true,
     "referenced_type" : "_ZTIPNSt3__119__libcpp_debug_infoE"
    },
    {
     "referenced_type" : "_ZTIPKc"
    },
    {
     "referenced_type" : "_ZTIi"
    },
    {
     "referenced_type" : "_ZTIPKc"
    },
    {
     "referenced_type" : "_ZTIPKc"
    }
   ],
   "return_type" : "_ZTIv",
   "source_file" : "external/libcxx/include/__debug"
  },
  {
   "function_name" : "std::__1::__libcpp_debug_info::__libcpp_debug_info",
   "linker_set_key" : "_ZNSt3__119__libcpp_debug_infoC2Ev",
   "parameters" :
   [
    {
     "is_this_ptr" : true,
     "referenced_type" : "_ZTIPNSt3__119__libcpp_debug_infoE"
    }
   ],
   "return_type" : "_ZTIv",
   "source_file" : "external/libcxx/include/__debug"
  },
  {
   "function_name" : "std::__1::__libcpp_mutex_lock",
   "linker_set_key" : "_ZNSt3__119__libcpp_mutex_lockEP15pthread_mutex_t",
   "parameters" :
   [
    {
     "referenced_type" : "_ZTIP15pthread_mutex_t"
    }
   ],
   "return_type" : "_ZTIi",
   "source_file" : "external/libcxx/include/__threading_support"
  },
  {
   "function_name" : "std::__1::__libcpp_tls_create",
   "linker_set_key" : "_ZNSt3__119__libcpp_tls_createEPiPFvPvE",
   "parameters" :
   [
    {
     "referenced_type" : "_ZTIPi"
    },
    {
     "referenced_type" : "_ZTIPFvPvE"
    }
   ],
   "return_type" : "_ZTIi",
   "source_file" : "external/libcxx/include/__threading_support"
  },
  {
   "function_name" : "std::__1::__shared_weak_count::__add_weak",
   "linker_set_key" : "_ZNSt3__119__shared_weak_count10__add_weakEv",
   "parameters" :
   [
    {
     "is_this_ptr" : true,
     "referenced_type" : "_ZTIPNSt3__119__shared_weak_countE"
    }
   ],
   "return_type" : "_ZTIv",
   "source_file" : "external/libcxx/include/memory"
  },
  {
   "function_name" : "std::__1::__shared_weak_count::__add_shared",
   "linker_set_key" : "_ZNSt3__119__shared_weak_count12__add_sharedEv",
   "parameters" :
   [
    {
     "is_this_ptr" : true,
     "referenced_type" : "_ZTIPNSt3__119__shared_weak_countE"
    }
   ],
   "return_type" : "_ZTIv",
   "source_file" : "external/libcxx/include/memory"
  },
  {
   "function_name" : "std::__1::__shared_weak_count::__release_shared",
   "linker_set_key" : "_ZNSt3__119__shared_weak_count16__release_sharedEv",
   "parameters" :
   [
    {
     "is_this_ptr" : true,
     "referenced_type" : "_ZTIPNSt3__119__shared_weak_countE"
    }
   ],
   "return_type" : "_ZTIv",
   "source_file" : "external/libcxx/include/memory"
  },
  {
   "function_name" : "std::__1::__shared_weak_count::__shared_weak_count",
   "linker_set_key" : "_ZNSt3__119__shared_weak_countC2El",
   "parameters" :
   [
    {
     "is_this_ptr" : true,
     "referenced_type" : "_ZTIPNSt3__119__shared_weak_countE"
    },
    {
     "default_arg" : true,
     "referenced_type" : "_ZTIl"
    }
   ],
   "return_type" : "_ZTIv",
   "source_file" : "external/libcxx/include/memory"
  },
  {
   "function_name" : "std::__1::__throw_logic_error",
   "linker_set_key" : "_ZNSt3__119__throw_logic_errorEPKc",
   "parameters" :
   [
    {
     "referenced_type" : "_ZTIPKc"
    }
   ],
   "return_type" : "_ZTIv",
   "source_file" : "external/libcxx/include/stdexcept"
  },
  {
   "function_name" : "std::__1::__throw_range_error",
   "linker_set_key" : "_ZNSt3__119__throw_range_errorEPKc",
   "parameters" :
   [
    {
     "referenced_type" : "_ZTIPKc"
    }
   ],
   "return_type" : "_ZTIv",
   "source_file" : "external/libcxx/include/stdexcept"
  },
  {
   "function_name" : "std::__1::atomic_signal_fence",
   "linker_set_key" : "_ZNSt3__119atomic_signal_fenceENS_12memory_orderE",
   "parameters" :
   [
    {
     "referenced_type" : "_ZTINSt3__112memory_orderE"
    }
   ],
   "return_type" : "_ZTIv",
   "source_file" : "external/libcxx/include/atomic"
  },
  {
   "function_name" : "std::__1::atomic_thread_fence",
   "linker_set_key" : "_ZNSt3__119atomic_thread_fenceENS_12memory_orderE",
   "parameters" :
   [
    {
     "referenced_type" : "_ZTINSt3__112memory_orderE"
    }
   ],
   "return_type" : "_ZTIv",
   "source_file" : "external/libcxx/include/atomic"
  },
  {
   "function_name" : "std::__1::__libcpp_thread_join",
   "linker_set_key" : "_ZNSt3__120__libcpp_thread_joinEPl",
   "parameters" :
   [
    {
     "referenced_type" : "_ZTIPl"
    }
   ],
   "return_type" : "_ZTIi",
   "source_file" : "external/libcxx/include/__threading_support"
  },
  {
   "function_name" : "std::__1::__sfinae_assign_base<false, false>::__sfinae_assign_base",
   "linker_set_key" : "_ZNSt3__120__sfinae_assign_baseILb0ELb0EEC1EOS1_",
   "parameters" :
   [
    {
     "is_this_ptr" : true,
     "referenced_type" : "_ZTIPNSt3__120__sfinae_assign_baseILb0ELb0EEE"
    },
    {
     "referenced_type" : "_ZTIONSt3__120__sfinae_assign_baseILb0ELb0EEE"
    }
   ],
   "return_type" : "_ZTIv",
   "source_file" : "external/libcxx/include/__tuple"
  },
  {
   "function_name" : "std::__1::__sfinae_assign_base<false, false>::__sfinae_assign_base",
   "linker_set_key" : "_ZNSt3__120__sfinae_assign_baseILb0ELb0EEC1ERKS1_",
   "parameters" :
   [
    {
     "is_this_ptr" : true,
     "referenced_type" : "_ZTIPNSt3__120__sfinae_assign_baseILb0ELb0EEE"
    },
    {
     "referenced_type" : "_ZTIRKNSt3__120__sfinae_assign_baseILb0ELb0EEE"
    }
   ],
   "return_type" : "_ZTIv",
   "source_file" : "external/libcxx/include/__tuple"
  },
  {
   "function_name" : "std::__1::__sfinae_assign_base<false, false>::__sfinae_assign_base",
   "linker_set_key" : "_ZNSt3__120__sfinae_assign_baseILb0ELb0EEC1Ev",
   "parameters" :
   [
    {
     "is_this_ptr" : true,
     "referenced_type" : "_ZTIPNSt3__120__sfinae_assign_baseILb0ELb0EEE"
    }
   ],
   "return_type" : "_ZTIv",
   "source_file" : "external/libcxx/include/__tuple"
  },
  {
   "function_name" : "std::__1::__sfinae_assign_base<false, false>::__sfinae_assign_base",
   "linker_set_key" : "_ZNSt3__120__sfinae_assign_baseILb0ELb0EEC2EOS1_",
   "parameters" :
   [
    {
     "is_this_ptr" : true,
     "referenced_type" : "_ZTIPNSt3__120__sfinae_assign_baseILb0ELb0EEE"
    },
    {
     "referenced_type" : "_ZTIONSt3__120__sfinae_assign_baseILb0ELb0EEE"
    }
   ],
   "return_type" : "_ZTIv",
   "source_file" : "external/libcxx/include/__tuple"
  },
  {
   "function_name" : "std::__1::__sfinae_assign_base<false, false>::__sfinae_assign_base",
   "linker_set_key" : "_ZNSt3__120__sfinae_assign_baseILb0ELb0EEC2ERKS1_",
   "parameters" :
   [
    {
     "is_this_ptr" : true,
     "referenced_type" : "_ZTIPNSt3__120__sfinae_assign_baseILb0ELb0EEE"
    },
    {
     "referenced_type" : "_ZTIRKNSt3__120__sfinae_assign_baseILb0ELb0EEE"
    }
   ],
   "return_type" : "_ZTIv",
   "source_file" : "external/libcxx/include/__tuple"
  },
  {
   "function_name" : "std::__1::__sfinae_assign_base<false, false>::__sfinae_assign_base",
   "linker_set_key" : "_ZNSt3__120__sfinae_assign_baseILb0ELb0EEC2Ev",
   "parameters" :
   [
    {
     "is_this_ptr" : true,
     "referenced_type" : "_ZTIPNSt3__120__sfinae_assign_baseILb0ELb0EEE"
    }
   ],
   "return_type" : "_ZTIv",
   "source_file" : "external/libcxx/include/__tuple"
  },
  {
   "function_name" : "std::__1::__sfinae_assign_base<false, true>::__sfinae_assign_base",
   "linker_set_key" : "_ZNSt3__120__sfinae_assign_baseILb0ELb1EEC1EOS1_",
   "parameters" :
   [
    {
     "is_this_ptr" : true,
     "referenced_type" : "_ZTIPNSt3__120__sfinae_assign_baseILb0ELb1EEE"
    },
    {
     "referenced_type" : "_ZTIONSt3__120__sfinae_assign_baseILb0ELb1EEE"
    }
   ],
   "return_type" : "_ZTIv",
   "source_file" : "external/libcxx/include/__tuple"
  },
  {
   "function_name" : "std::__1::__sfinae_assign_base<false, true>::__sfinae_assign_base",
   "linker_set_key" : "_ZNSt3__120__sfinae_assign_baseILb0ELb1EEC1ERKS1_",
   "parameters" :
   [
    {
     "is_this_ptr" : true,
     "referenced_type" : "_ZTIPNSt3__120__sfinae_assign_baseILb0ELb1EEE"
    },
    {
     "referenced_type" : "_ZTIRKNSt3__120__sfinae_assign_baseILb0ELb1EEE"
    }
   ],
   "return_type" : "_ZTIv",
   "source_file" : "external/libcxx/include/__tuple"
  },
  {
   "function_name" : "std::__1::__sfinae_assign_base<false, true>::__sfinae_assign_base",
   "linker_set_key" : "_ZNSt3__120__sfinae_assign_baseILb0ELb1EEC1Ev",
   "parameters" :
   [
    {
     "is_this_ptr" : true,
     "referenced_type" : "_ZTIPNSt3__120__sfinae_assign_baseILb0ELb1EEE"
    }
   ],
   "return_type" : "_ZTIv",
   "source_file" : "external/libcxx/include/__tuple"
  },
  {
   "function_name" : "std::__1::__sfinae_assign_base<false, true>::__sfinae_assign_base",
   "linker_set_key" : "_ZNSt3__120__sfinae_assign_baseILb0ELb1EEC2EOS1_",
   "parameters" :
   [
    {
     "is_this_ptr" : true,
     "referenced_type" : "_ZTIPNSt3__120__sfinae_assign_baseILb0ELb1EEE"
    },
    {
     "referenced_type" : "_ZTIONSt3__120__sfinae_assign_baseILb0ELb1EEE"
    }
   ],
   "return_type" : "_ZTIv",
   "source_file" : "external/libcxx/include/__tuple"
  },
  {
   "function_name" : "std::__1::__sfinae_assign_base<false, true>::__sfinae_assign_base",
   "linker_set_key" : "_ZNSt3__120__sfinae_assign_baseILb0ELb1EEC2ERKS1_",
   "parameters" :
   [
    {
     "is_this_ptr" : true,
     "referenced_type" : "_ZTIPNSt3__120__sfinae_assign_baseILb0ELb1EEE"
    },
    {
     "referenced_type" : "_ZTIRKNSt3__120__sfinae_assign_baseILb0ELb1EEE"
    }
   ],
   "return_type" : "_ZTIv",
   "source_file" : "external/libcxx/include/__tuple"
  },
  {
   "function_name" : "std::__1::__sfinae_assign_base<false, true>::__sfinae_assign_base",
   "linker_set_key" : "_ZNSt3__120__sfinae_assign_baseILb0ELb1EEC2Ev",
   "parameters" :
   [
    {
     "is_this_ptr" : true,
     "referenced_type" : "_ZTIPNSt3__120__sfinae_assign_baseILb0ELb1EEE"
    }
   ],
   "return_type" : "_ZTIv",
   "source_file" : "external/libcxx/include/__tuple"
  },
  {
   "function_name" : "std::__1::__sfinae_assign_base<false, true>::operator=",
   "linker_set_key" : "_ZNSt3__120__sfinae_assign_baseILb0ELb1EEaSEOS1_",
   "parameters" :
   [
    {
     "is_this_ptr" : true,
     "referenced_type" : "_ZTIPNSt3__120__sfinae_assign_baseILb0ELb1EEE"
    },
    {
     "referenced_type" : "_ZTIONSt3__120__sfinae_assign_baseILb0ELb1EEE"
    }
   ],
   "return_type" : "_ZTIRNSt3__120__sfinae_assign_baseILb0ELb1EEE",
   "source_file" : "external/libcxx/include/__tuple"
  },
  {
   "function_name" : "std::__1::__sfinae_assign_base<true, false>::__sfinae_assign_base",
   "linker_set_key" : "_ZNSt3__120__sfinae_assign_baseILb1ELb0EEC1EOS1_",
   "parameters" :
   [
    {
     "is_this_ptr" : true,
     "referenced_type" : "_ZTIPNSt3__120__sfinae_assign_baseILb1ELb0EEE"
    },
    {
     "referenced_type" : "_ZTIONSt3__120__sfinae_assign_baseILb1ELb0EEE"
    }
   ],
   "return_type" : "_ZTIv",
   "source_file" : "external/libcxx/include/__tuple"
  },
  {
   "function_name" : "std::__1::__sfinae_assign_base<true, false>::__sfinae_assign_base",
   "linker_set_key" : "_ZNSt3__120__sfinae_assign_baseILb1ELb0EEC1ERKS1_",
   "parameters" :
   [
    {
     "is_this_ptr" : true,
     "referenced_type" : "_ZTIPNSt3__120__sfinae_assign_baseILb1ELb0EEE"
    },
    {
     "referenced_type" : "_ZTIRKNSt3__120__sfinae_assign_baseILb1ELb0EEE"
    }
   ],
   "return_type" : "_ZTIv",
   "source_file" : "external/libcxx/include/__tuple"
  },
  {
   "function_name" : "std::__1::__sfinae_assign_base<true, false>::__sfinae_assign_base",
   "linker_set_key" : "_ZNSt3__120__sfinae_assign_baseILb1ELb0EEC1Ev",
   "parameters" :
   [
    {
     "is_this_ptr" : true,
     "referenced_type" : "_ZTIPNSt3__120__sfinae_assign_baseILb1ELb0EEE"
    }
   ],
   "return_type" : "_ZTIv",
   "source_file" : "external/libcxx/include/__tuple"
  },
  {
   "function_name" : "std::__1::__sfinae_assign_base<true, false>::__sfinae_assign_base",
   "linker_set_key" : "_ZNSt3__120__sfinae_assign_baseILb1ELb0EEC2EOS1_",
   "parameters" :
   [
    {
     "is_this_ptr" : true,
     "referenced_type" : "_ZTIPNSt3__120__sfinae_assign_baseILb1ELb0EEE"
    },
    {
     "referenced_type" : "_ZTIONSt3__120__sfinae_assign_baseILb1ELb0EEE"
    }
   ],
   "return_type" : "_ZTIv",
   "source_file" : "external/libcxx/include/__tuple"
  },
  {
   "function_name" : "std::__1::__sfinae_assign_base<true, false>::__sfinae_assign_base",
   "linker_set_key" : "_ZNSt3__120__sfinae_assign_baseILb1ELb0EEC2ERKS1_",
   "parameters" :
   [
    {
     "is_this_ptr" : true,
     "referenced_type" : "_ZTIPNSt3__120__sfinae_assign_baseILb1ELb0EEE"
    },
    {
     "referenced_type" : "_ZTIRKNSt3__120__sfinae_assign_baseILb1ELb0EEE"
    }
   ],
   "return_type" : "_ZTIv",
   "source_file" : "external/libcxx/include/__tuple"
  },
  {
   "function_name" : "std::__1::__sfinae_assign_base<true, false>::__sfinae_assign_base",
   "linker_set_key" : "_ZNSt3__120__sfinae_assign_baseILb1ELb0EEC2Ev",
   "parameters" :
   [
    {
     "is_this_ptr" : true,
     "referenced_type" : "_ZTIPNSt3__120__sfinae_assign_baseILb1ELb0EEE"
    }
   ],
   "return_type" : "_ZTIv",
   "source_file" : "external/libcxx/include/__tuple"
  },
  {
   "function_name" : "std::__1::__sfinae_assign_base<true, false>::operator=",
   "linker_set_key" : "_ZNSt3__120__sfinae_assign_baseILb1ELb0EEaSERKS1_",
   "parameters" :
   [
    {
     "is_this_ptr" : true,
     "referenced_type" : "_ZTIPNSt3__120__sfinae_assign_baseILb1ELb0EEE"
    },
    {
     "referenced_type" : "_ZTIRKNSt3__120__sfinae_assign_baseILb1ELb0EEE"
    }
   ],
   "return_type" : "_ZTIRNSt3__120__sfinae_assign_baseILb1ELb0EEE",
   "source_file" : "external/libcxx/include/__tuple"
  },
  {
   "function_name" : "std::__1::__throw_bad_weak_ptr",
   "linker_set_key" : "_ZNSt3__120__throw_bad_weak_ptrEv",
   "return_type" : "_ZTIv",
   "source_file" : "external/libcxx/include/memory"
  },
  {
   "function_name" : "std::__1::__throw_domain_error",
   "linker_set_key" : "_ZNSt3__120__throw_domain_errorEPKc",
   "parameters" :
   [
    {
     "referenced_type" : "_ZTIPKc"
    }
   ],
   "return_type" : "_ZTIv",
   "source_file" : "external/libcxx/include/stdexcept"
  },
  {
   "function_name" : "std::__1::__throw_length_error",
   "linker_set_key" : "_ZNSt3__120__throw_length_errorEPKc",
   "parameters" :
   [
    {
     "referenced_type" : "_ZTIPKc"
    }
   ],
   "return_type" : "_ZTIv",
   "source_file" : "external/libcxx/include/stdexcept"
  },
  {
   "function_name" : "std::__1::__throw_out_of_range",
   "linker_set_key" : "_ZNSt3__120__throw_out_of_rangeEPKc",
   "parameters" :
   [
    {
     "referenced_type" : "_ZTIPKc"
    }
   ],
   "return_type" : "_ZTIv",
   "source_file" : "external/libcxx/include/stdexcept"
  },
  {
   "access" : "protected",
   "function_name" : "std::__1::__vector_base_common<true>::__vector_base_common",
   "linker_set_key" : "_ZNSt3__120__vector_base_commonILb1EEC1Ev",
   "parameters" :
   [
    {
     "is_this_ptr" : true,
     "referenced_type" : "_ZTIPNSt3__120__vector_base_commonILb1EEE"
    }
   ],
   "return_type" : "_ZTIv",
   "source_file" : "external/libcxx/include/vector"
  },
  {
   "access" : "protected",
   "function_name" : "std::__1::__vector_base_common<true>::__vector_base_common",
   "linker_set_key" : "_ZNSt3__120__vector_base_commonILb1EEC2Ev",
   "parameters" :
   [
    {
     "is_this_ptr" : true,
     "referenced_type" : "_ZTIPNSt3__120__vector_base_commonILb1EEE"
    }
   ],
   "return_type" : "_ZTIv",
   "source_file" : "external/libcxx/include/vector"
  },
  {
   "function_name" : "std::__1::make_error_condition",
   "linker_set_key" : "_ZNSt3__120make_error_conditionENS_4errcE",
   "parameters" :
   [
    {
     "referenced_type" : "_ZTINSt3__14errcE"
    }
   ],
   "return_type" : "_ZTINSt3__115error_conditionE",
   "source_file" : "external/libcxx/include/system_error"
  },
  {
   "function_name" : "std::__1::__convert_to_integral",
   "linker_set_key" : "_ZNSt3__121__convert_to_integralEi",
   "parameters" :
   [
    {
     "referenced_type" : "_ZTIi"
    }
   ],
   "return_type" : "_ZTIi",
   "source_file" : "external/libcxx/include/type_traits"
  },
  {
   "function_name" : "std::__1::__convert_to_integral",
   "linker_set_key" : "_ZNSt3__121__convert_to_integralEj",
   "parameters" :
   [
    {
     "referenced_type" : "_ZTIj"
    }
   ],
   "return_type" : "_ZTIj",
   "source_file" : "external/libcxx/include/type_traits"
  },
  {
   "function_name" : "std::__1::__convert_to_integral",
   "linker_set_key" : "_ZNSt3__121__convert_to_integralEl",
   "parameters" :
   [
    {
     "referenced_type" : "_ZTIl"
    }
   ],
   "return_type" : "_ZTIl",
   "source_file" : "external/libcxx/include/type_traits"
  },
  {
   "function_name" : "std::__1::__convert_to_integral",
   "linker_set_key" : "_ZNSt3__121__convert_to_integralEm",
   "parameters" :
   [
    {
     "referenced_type" : "_ZTIm"
    }
   ],
   "return_type" : "_ZTIm",
   "source_file" : "external/libcxx/include/type_traits"
  },
  {
   "function_name" : "std::__1::__convert_to_integral",
   "linker_set_key" : "_ZNSt3__121__convert_to_integralEn",
   "parameters" :
   [
    {
     "referenced_type" : "_ZTIn"
    }
   ],
   "return_type" : "_ZTIn",
   "source_file" : "external/libcxx/include/type_traits"
  },
  {
   "function_name" : "std::__1::__convert_to_integral",
   "linker_set_key" : "_ZNSt3__121__convert_to_integralEo",
   "parameters" :
   [
    {
     "referenced_type" : "_ZTIo"
    }
   ],
   "return_type" : "_ZTIo",
   "source_file" : "external/libcxx/include/type_traits"
  },
  {
   "function_name" : "std::__1::__convert_to_integral",
   "linker_set_key" : "_ZNSt3__121__convert_to_integralEx",
   "parameters" :
   [
    {
     "referenced_type" : "_ZTIx"
    }
   ],
   "return_type" : "_ZTIx",
   "source_file" : "external/libcxx/include/type_traits"
  },
  {
   "function_name" : "std::__1::__convert_to_integral",
   "linker_set_key" : "_ZNSt3__121__convert_to_integralEy",
   "parameters" :
   [
    {
     "referenced_type" : "_ZTIy"
    }
   ],
   "return_type" : "_ZTIy",
   "source_file" : "external/libcxx/include/type_traits"
  },
  {
   "function_name" : "std::__1::__libcpp_condvar_wait",
   "linker_set_key" : "_ZNSt3__121__libcpp_condvar_waitEP14pthread_cond_tP15pthread_mutex_t",
   "parameters" :
   [
    {
     "referenced_type" : "_ZTIP14pthread_cond_t"
    },
    {
     "referenced_type" : "_ZTIP15pthread_mutex_t"
    }
   ],
   "return_type" : "_ZTIi",
   "source_file" : "external/libcxx/include/__threading_support"
  },
  {
   "function_name" : "std::__1::__libcpp_execute_once",
   "linker_set_key" : "_ZNSt3__121__libcpp_execute_onceEPiPFvvE",
   "parameters" :
   [
    {
     "referenced_type" : "_ZTIPi"
    },
    {
     "referenced_type" : "_ZTIPFvvE"
    }
   ],
   "return_type" : "_ZTIi",
   "source_file" : "external/libcxx/include/__threading_support"
  },
  {
   "function_name" : "std::__1::__libcpp_mutex_unlock",
   "linker_set_key" : "_ZNSt3__121__libcpp_mutex_unlockEP15pthread_mutex_t",
   "parameters" :
   [
    {
     "referenced_type" : "_ZTIP15pthread_mutex_t"
    }
   ],
   "return_type" : "_ZTIi",
   "source_file" : "external/libcxx/include/__threading_support"
  },
  {
   "function_name" : "std::__1::__libcpp_relaxed_load",
   "linker_set_key" : "_ZNSt3__121__libcpp_relaxed_loadIlEET_PKS1_",
   "parameters" :
   [
    {
     "referenced_type" : "_ZTIPKl"
    }
   ],
   "return_type" : "_ZTIl",
   "source_file" : "external/libcxx/include/memory",
   "template_args" : [ "_ZTIl" ]
  },
  {
   "function_name" : "std::__1::__libcpp_thread_yield",
   "linker_set_key" : "_ZNSt3__121__libcpp_thread_yieldEv",
   "return_type" : "_ZTIv",
   "source_file" : "external/libcxx/include/__threading_support"
  },
  {
   "access" : "private",
   "function_name" : "std::__1::__murmur2_or_cityhash<unsigned long, 64>::__shift_mix",
   "linker_set_key" : "_ZNSt3__121__murmur2_or_cityhashImLm64EE11__shift_mixEm",
   "parameters" :
   [
    {
     "referenced_type" : "_ZTIm"
    }
   ],
   "return_type" : "_ZTIm",
   "source_file" : "external/libcxx/include/utility"
  },
  {
   "access" : "private",
   "function_name" : "std::__1::__murmur2_or_cityhash<unsigned long, 64>::__hash_len_16",
   "linker_set_key" : "_ZNSt3__121__murmur2_or_cityhashImLm64EE13__hash_len_16Emm",
   "parameters" :
   [
    {
     "referenced_type" : "_ZTIm"
    },
    {
     "referenced_type" : "_ZTIm"
    }
   ],
   "return_type" : "_ZTIm",
   "source_file" : "external/libcxx/include/utility"
  },
  {
   "access" : "private",
   "function_name" : "std::__1::__murmur2_or_cityhash<unsigned long, 64>::__hash_len_0_to_16",
   "linker_set_key" : "_ZNSt3__121__murmur2_or_cityhashImLm64EE18__hash_len_0_to_16EPKcm",
   "parameters" :
   [
    {
     "referenced_type" : "_ZTIPKc"
    },
    {
     "referenced_type" : "_ZTIm"
    }
   ],
   "return_type" : "_ZTIm",
   "source_file" : "external/libcxx/include/utility"
  },
  {
   "access" : "private",
   "function_name" : "std::__1::__murmur2_or_cityhash<unsigned long, 64>::__hash_len_17_to_32",
   "linker_set_key" : "_ZNSt3__121__murmur2_or_cityhashImLm64EE19__hash_len_17_to_32EPKcm",
   "parameters" :
   [
    {
     "referenced_type" : "_ZTIPKc"
    },
    {
     "referenced_type" : "_ZTIm"
    }
   ],
   "return_type" : "_ZTIm",
   "source_file" : "external/libcxx/include/utility"
  },
  {
   "access" : "private",
   "function_name" : "std::__1::__murmur2_or_cityhash<unsigned long, 64>::__hash_len_33_to_64",
   "linker_set_key" : "_ZNSt3__121__murmur2_or_cityhashImLm64EE19__hash_len_33_to_64EPKcm",
   "parameters" :
   [
    {
     "referenced_type" : "_ZTIPKc"
    },
    {
     "referenced_type" : "_ZTIm"
    }
   ],
   "return_type" : "_ZTIm",
   "source_file" : "external/libcxx/include/utility"
  },
  {
   "access" : "private",
   "function_name" : "std::__1::__murmur2_or_cityhash<unsigned long, 64>::__rotate_by_at_least_1",
   "linker_set_key" : "_ZNSt3__121__murmur2_or_cityhashImLm64EE22__rotate_by_at_least_1Emi",
   "parameters" :
   [
    {
     "referenced_type" : "_ZTIm"
    },
    {
     "referenced_type" : "_ZTIi"
    }
   ],
   "return_type" : "_ZTIm",
   "source_file" : "external/libcxx/include/utility"
  },
  {
   "access" : "private",
   "function_name" : "std::__1::__murmur2_or_cityhash<unsigned long, 64>::__weak_hash_len_32_with_seeds",
   "linker_set_key" : "_ZNSt3__121__murmur2_or_cityhashImLm64EE29__weak_hash_len_32_with_seedsEPKcmm",
   "parameters" :
   [
    {
     "referenced_type" : "_ZTIPKc"
    },
    {
     "referenced_type" : "_ZTIm"
    },
    {
     "referenced_type" : "_ZTIm"
    }
   ],
   "return_type" : "_ZTINSt3__14pairImmEE",
   "source_file" : "external/libcxx/include/utility"
  },
  {
   "access" : "private",
   "function_name" : "std::__1::__murmur2_or_cityhash<unsigned long, 64>::__weak_hash_len_32_with_seeds",
   "linker_set_key" : "_ZNSt3__121__murmur2_or_cityhashImLm64EE29__weak_hash_len_32_with_seedsEmmmmmm",
   "parameters" :
   [
    {
     "referenced_type" : "_ZTIm"
    },
    {
     "referenced_type" : "_ZTIm"
    },
    {
     "referenced_type" : "_ZTIm"
    },
    {
     "referenced_type" : "_ZTIm"
    },
    {
     "referenced_type" : "_ZTIm"
    },
    {
     "referenced_type" : "_ZTIm"
    }
   ],
   "return_type" : "_ZTINSt3__14pairImmEE",
   "source_file" : "external/libcxx/include/utility"
  },
  {
   "access" : "private",
   "function_name" : "std::__1::__murmur2_or_cityhash<unsigned long, 64>::__rotate",
   "linker_set_key" : "_ZNSt3__121__murmur2_or_cityhashImLm64EE8__rotateEmi",
   "parameters" :
   [
    {
     "referenced_type" : "_ZTIm"
    },
    {
     "referenced_type" : "_ZTIi"
    }
   ],
   "return_type" : "_ZTIm",
   "source_file" : "external/libcxx/include/utility"
  },
  {
   "function_name" : "std::__1::__murmur2_or_cityhash<unsigned long, 64>::operator()",
   "linker_set_key" : "_ZNSt3__121__murmur2_or_cityhashImLm64EEclEPKvm",
   "parameters" :
   [
    {
     "is_this_ptr" : true,
     "referenced_type" : "_ZTIPNSt3__121__murmur2_or_cityhashImLm64EEE"
    },
    {
     "referenced_type" : "_ZTIPKv"
    },
    {
     "referenced_type" : "_ZTIm"
    }
   ],
   "return_type" : "_ZTIm",
   "source_file" : "external/libcxx/include/utility"
  },
  {
   "function_name" : "std::__1::__compressed_pair_elem<std::__1::basic_string<char32_t, std::__1::char_traits<char32_t>, std::__1::allocator<char32_t>>::__rep, 0, false>::__get",
   "linker_set_key" : "_ZNSt3__122__compressed_pair_elemINS_12basic_stringIDiNS_11char_traitsIDiEENS_9allocatorIDiEEE5__repELi0ELb0EE5__getEv",
   "parameters" :
   [
    {
     "is_this_ptr" : true,
     "referenced_type" : "_ZTIPNSt3__122__compressed_pair_elemINS_12basic_stringIDiNS_11char_traitsIDiEENS_9allocatorIDiEEE5__repELi0ELb0EEE"
    }
   ],
   "return_type" : "_ZTIRNSt3__112basic_stringIDiNS_11char_traitsIDiEENS_9allocatorIDiEEE5__repE",
   "source_file" : "external/libcxx/include/memory"
  },
  {
   "function_name" : "std::__1::__compressed_pair_elem<std::__1::basic_string<char32_t, std::__1::char_traits<char32_t>, std::__1::allocator<char32_t>>::__rep, 0, false>::__compressed_pair_elem",
   "linker_set_key" : "_ZNSt3__122__compressed_pair_elemINS_12basic_stringIDiNS_11char_traitsIDiEENS_9allocatorIDiEEE5__repELi0ELb0EEC1Ev",
   "parameters" :
   [
    {
     "is_this_ptr" : true,
     "referenced_type" : "_ZTIPNSt3__122__compressed_pair_elemINS_12basic_stringIDiNS_11char_traitsIDiEENS_9allocatorIDiEEE5__repELi0ELb0EEE"
    }
   ],
   "return_type" : "_ZTIv",
   "source_file" : "external/libcxx/include/memory"
  },
  {
   "function_name" : "std::__1::__compressed_pair_elem<std::__1::basic_string<char32_t, std::__1::char_traits<char32_t>, std::__1::allocator<char32_t>>::__rep, 0, false>::__compressed_pair_elem",
   "linker_set_key" : "_ZNSt3__122__compressed_pair_elemINS_12basic_stringIDiNS_11char_traitsIDiEENS_9allocatorIDiEEE5__repELi0ELb0EEC2Ev",
   "parameters" :
   [
    {
     "is_this_ptr" : true,
     "referenced_type" : "_ZTIPNSt3__122__compressed_pair_elemINS_12basic_stringIDiNS_11char_traitsIDiEENS_9allocatorIDiEEE5__repELi0ELb0EEE"
    }
   ],
   "return_type" : "_ZTIv",
   "source_file" : "external/libcxx/include/memory"
  },
  {
   "function_name" : "std::__1::__compressed_pair_elem<std::__1::basic_string<char16_t, std::__1::char_traits<char16_t>, std::__1::allocator<char16_t>>::__rep, 0, false>::__get",
   "linker_set_key" : "_ZNSt3__122__compressed_pair_elemINS_12basic_stringIDsNS_11char_traitsIDsEENS_9allocatorIDsEEE5__repELi0ELb0EE5__getEv",
   "parameters" :
   [
    {
     "is_this_ptr" : true,
     "referenced_type" : "_ZTIPNSt3__122__compressed_pair_elemINS_12basic_stringIDsNS_11char_traitsIDsEENS_9allocatorIDsEEE5__repELi0ELb0EEE"
    }
   ],
   "return_type" : "_ZTIRNSt3__112basic_stringIDsNS_11char_traitsIDsEENS_9allocatorIDsEEE5__repE",
   "source_file" : "external/libcxx/include/memory"
  },
  {
   "function_name" : "std::__1::__compressed_pair_elem<std::__1::basic_string<char16_t, std::__1::char_traits<char16_t>, std::__1::allocator<char16_t>>::__rep, 0, false>::__compressed_pair_elem",
   "linker_set_key" : "_ZNSt3__122__compressed_pair_elemINS_12basic_stringIDsNS_11char_traitsIDsEENS_9allocatorIDsEEE5__repELi0ELb0EEC1Ev",
   "parameters" :
   [
    {
     "is_this_ptr" : true,
     "referenced_type" : "_ZTIPNSt3__122__compressed_pair_elemINS_12basic_stringIDsNS_11char_traitsIDsEENS_9allocatorIDsEEE5__repELi0ELb0EEE"
    }
   ],
   "return_type" : "_ZTIv",
   "source_file" : "external/libcxx/include/memory"
  },
  {
   "function_name" : "std::__1::__compressed_pair_elem<std::__1::basic_string<char16_t, std::__1::char_traits<char16_t>, std::__1::allocator<char16_t>>::__rep, 0, false>::__compressed_pair_elem",
   "linker_set_key" : "_ZNSt3__122__compressed_pair_elemINS_12basic_stringIDsNS_11char_traitsIDsEENS_9allocatorIDsEEE5__repELi0ELb0EEC2Ev",
   "parameters" :
   [
    {
     "is_this_ptr" : true,
     "referenced_type" : "_ZTIPNSt3__122__compressed_pair_elemINS_12basic_stringIDsNS_11char_traitsIDsEENS_9allocatorIDsEEE5__repELi0ELb0EEE"
    }
   ],
   "return_type" : "_ZTIv",
   "source_file" : "external/libcxx/include/memory"
  },
  {
   "function_name" : "std::__1::__compressed_pair_elem<std::__1::basic_string<char, std::__1::char_traits<char>, std::__1::allocator<char>>::__rep, 0, false>::__get",
   "linker_set_key" : "_ZNSt3__122__compressed_pair_elemINS_12basic_stringIcNS_11char_traitsIcEENS_9allocatorIcEEE5__repELi0ELb0EE5__getEv",
   "parameters" :
   [
    {
     "is_this_ptr" : true,
     "referenced_type" : "_ZTIPNSt3__122__compressed_pair_elemINS_12basic_stringIcNS_11char_traitsIcEENS_9allocatorIcEEE5__repELi0ELb0EEE"
    }
   ],
   "return_type" : "_ZTIRNSt3__112basic_stringIcNS_11char_traitsIcEENS_9allocatorIcEEE5__repE",
   "source_file" : "external/libcxx/include/memory"
  },
  {
   "function_name" : "std::__1::__compressed_pair_elem<std::__1::basic_string<char, std::__1::char_traits<char>, std::__1::allocator<char>>::__rep, 0, false>::__compressed_pair_elem",
   "linker_set_key" : "_ZNSt3__122__compressed_pair_elemINS_12basic_stringIcNS_11char_traitsIcEENS_9allocatorIcEEE5__repELi0ELb0EEC1Ev",
   "parameters" :
   [
    {
     "is_this_ptr" : true,
     "referenced_type" : "_ZTIPNSt3__122__compressed_pair_elemINS_12basic_stringIcNS_11char_traitsIcEENS_9allocatorIcEEE5__repELi0ELb0EEE"
    }
   ],
   "return_type" : "_ZTIv",
   "source_file" : "external/libcxx/include/memory"
  },
  {
   "function_name" : "std::__1::__compressed_pair_elem<std::__1::basic_string<char, std::__1::char_traits<char>, std::__1::allocator<char>>::__rep, 0, false>::__compressed_pair_elem",
   "linker_set_key" : "_ZNSt3__122__compressed_pair_elemINS_12basic_stringIcNS_11char_traitsIcEENS_9allocatorIcEEE5__repELi0ELb0EEC2Ev",
   "parameters" :
   [
    {
     "is_this_ptr" : true,
     "referenced_type" : "_ZTIPNSt3__122__compressed_pair_elemINS_12basic_stringIcNS_11char_traitsIcEENS_9allocatorIcEEE5__repELi0ELb0EEE"
    }
   ],
   "return_type" : "_ZTIv",
   "source_file" : "external/libcxx/include/memory"
  },
  {
   "function_name" : "std::__1::__compressed_pair_elem<std::__1::basic_string<wchar_t, std::__1::char_traits<wchar_t>, std::__1::allocator<wchar_t>>::__rep, 0, false>::__get",
   "linker_set_key" : "_ZNSt3__122__compressed_pair_elemINS_12basic_stringIwNS_11char_traitsIwEENS_9allocatorIwEEE5__repELi0ELb0EE5__getEv",
   "parameters" :
   [
    {
     "is_this_ptr" : true,
     "referenced_type" : "_ZTIPNSt3__122__compressed_pair_elemINS_12basic_stringIwNS_11char_traitsIwEENS_9allocatorIwEEE5__repELi0ELb0EEE"
    }
   ],
   "return_type" : "_ZTIRNSt3__112basic_stringIwNS_11char_traitsIwEENS_9allocatorIwEEE5__repE",
   "source_file" : "external/libcxx/include/memory"
  },
  {
   "function_name" : "std::__1::__compressed_pair_elem<std::__1::basic_string<wchar_t, std::__1::char_traits<wchar_t>, std::__1::allocator<wchar_t>>::__rep, 0, false>::__compressed_pair_elem",
   "linker_set_key" : "_ZNSt3__122__compressed_pair_elemINS_12basic_stringIwNS_11char_traitsIwEENS_9allocatorIwEEE5__repELi0ELb0EEC1Ev",
   "parameters" :
   [
    {
     "is_this_ptr" : true,
     "referenced_type" : "_ZTIPNSt3__122__compressed_pair_elemINS_12basic_stringIwNS_11char_traitsIwEENS_9allocatorIwEEE5__repELi0ELb0EEE"
    }
   ],
   "return_type" : "_ZTIv",
   "source_file" : "external/libcxx/include/memory"
  },
  {
   "function_name" : "std::__1::__compressed_pair_elem<std::__1::basic_string<wchar_t, std::__1::char_traits<wchar_t>, std::__1::allocator<wchar_t>>::__rep, 0, false>::__compressed_pair_elem",
   "linker_set_key" : "_ZNSt3__122__compressed_pair_elemINS_12basic_stringIwNS_11char_traitsIwEENS_9allocatorIwEEE5__repELi0ELb0EEC2Ev",
   "parameters" :
   [
    {
     "is_this_ptr" : true,
     "referenced_type" : "_ZTIPNSt3__122__compressed_pair_elemINS_12basic_stringIwNS_11char_traitsIwEENS_9allocatorIwEEE5__repELi0ELb0EEE"
    }
   ],
   "return_type" : "_ZTIv",
   "source_file" : "external/libcxx/include/memory"
  },
  {
   "function_name" : "std::__1::__compressed_pair_elem<std::__1::allocator<char32_t>, 1, true>::__get",
   "linker_set_key" : "_ZNSt3__122__compressed_pair_elemINS_9allocatorIDiEELi1ELb1EE5__getEv",
   "parameters" :
   [
    {
     "is_this_ptr" : true,
     "referenced_type" : "_ZTIPNSt3__122__compressed_pair_elemINS_9allocatorIDiEELi1ELb1EEE"
    }
   ],
   "return_type" : "_ZTIRNSt3__19allocatorIDiEE",
   "source_file" : "external/libcxx/include/memory"
  },
  {
   "function_name" : "std::__1::__compressed_pair_elem<std::__1::allocator<char32_t>, 1, true>::__compressed_pair_elem",
   "linker_set_key" : "_ZNSt3__122__compressed_pair_elemINS_9allocatorIDiEELi1ELb1EEC1Ev",
   "parameters" :
   [
    {
     "is_this_ptr" : true,
     "referenced_type" : "_ZTIPNSt3__122__compressed_pair_elemINS_9allocatorIDiEELi1ELb1EEE"
    }
   ],
   "return_type" : "_ZTIv",
   "source_file" : "external/libcxx/include/memory"
  },
  {
   "function_name" : "std::__1::__compressed_pair_elem<std::__1::allocator<char32_t>, 1, true>::__compressed_pair_elem",
   "linker_set_key" : "_ZNSt3__122__compressed_pair_elemINS_9allocatorIDiEELi1ELb1EEC2Ev",
   "parameters" :
   [
    {
     "is_this_ptr" : true,
     "referenced_type" : "_ZTIPNSt3__122__compressed_pair_elemINS_9allocatorIDiEELi1ELb1EEE"
    }
   ],
   "return_type" : "_ZTIv",
   "source_file" : "external/libcxx/include/memory"
  },
  {
   "function_name" : "std::__1::__compressed_pair_elem<std::__1::allocator<char16_t>, 1, true>::__get",
   "linker_set_key" : "_ZNSt3__122__compressed_pair_elemINS_9allocatorIDsEELi1ELb1EE5__getEv",
   "parameters" :
   [
    {
     "is_this_ptr" : true,
     "referenced_type" : "_ZTIPNSt3__122__compressed_pair_elemINS_9allocatorIDsEELi1ELb1EEE"
    }
   ],
   "return_type" : "_ZTIRNSt3__19allocatorIDsEE",
   "source_file" : "external/libcxx/include/memory"
  },
  {
   "function_name" : "std::__1::__compressed_pair_elem<std::__1::allocator<char16_t>, 1, true>::__compressed_pair_elem",
   "linker_set_key" : "_ZNSt3__122__compressed_pair_elemINS_9allocatorIDsEELi1ELb1EEC1Ev",
   "parameters" :
   [
    {
     "is_this_ptr" : true,
     "referenced_type" : "_ZTIPNSt3__122__compressed_pair_elemINS_9allocatorIDsEELi1ELb1EEE"
    }
   ],
   "return_type" : "_ZTIv",
   "source_file" : "external/libcxx/include/memory"
  },
  {
   "function_name" : "std::__1::__compressed_pair_elem<std::__1::allocator<char16_t>, 1, true>::__compressed_pair_elem",
   "linker_set_key" : "_ZNSt3__122__compressed_pair_elemINS_9allocatorIDsEELi1ELb1EEC2Ev",
   "parameters" :
   [
    {
     "is_this_ptr" : true,
     "referenced_type" : "_ZTIPNSt3__122__compressed_pair_elemINS_9allocatorIDsEELi1ELb1EEE"
    }
   ],
   "return_type" : "_ZTIv",
   "source_file" : "external/libcxx/include/memory"
  },
  {
   "function_name" : "std::__1::__compressed_pair_elem<std::__1::allocator<piex::binary_parse::CachedPagedByteArray::CachedPage>, 1, true>::__get",
   "linker_set_key" : "_ZNSt3__122__compressed_pair_elemINS_9allocatorIN4piex12binary_parse20CachedPagedByteArray10CachedPageEEELi1ELb1EE5__getEv",
   "parameters" :
   [
    {
     "is_this_ptr" : true,
     "referenced_type" : "_ZTIPNSt3__122__compressed_pair_elemINS_9allocatorIN4piex12binary_parse20CachedPagedByteArray10CachedPageEEELi1ELb1EEE"
    }
   ],
   "return_type" : "_ZTIRNSt3__19allocatorIN4piex12binary_parse20CachedPagedByteArray10CachedPageEEE",
   "source_file" : "external/libcxx/include/memory"
  },
  {
   "function_name" : "std::__1::__compressed_pair_elem<std::__1::allocator<piex::binary_parse::CachedPagedByteArray::CachedPage>, 1, true>::__compressed_pair_elem",
   "linker_set_key" : "_ZNSt3__122__compressed_pair_elemINS_9allocatorIN4piex12binary_parse20CachedPagedByteArray10CachedPageEEELi1ELb1EEC1Ev",
   "parameters" :
   [
    {
     "is_this_ptr" : true,
     "referenced_type" : "_ZTIPNSt3__122__compressed_pair_elemINS_9allocatorIN4piex12binary_parse20CachedPagedByteArray10CachedPageEEELi1ELb1EEE"
    }
   ],
   "return_type" : "_ZTIv",
   "source_file" : "external/libcxx/include/memory"
  },
  {
   "function_name" : "std::__1::__compressed_pair_elem<std::__1::allocator<piex::binary_parse::CachedPagedByteArray::CachedPage>, 1, true>::__compressed_pair_elem",
   "linker_set_key" : "_ZNSt3__122__compressed_pair_elemINS_9allocatorIN4piex12binary_parse20CachedPagedByteArray10CachedPageEEELi1ELb1EEC2Ev",
   "parameters" :
   [
    {
     "is_this_ptr" : true,
     "referenced_type" : "_ZTIPNSt3__122__compressed_pair_elemINS_9allocatorIN4piex12binary_parse20CachedPagedByteArray10CachedPageEEELi1ELb1EEE"
    }
   ],
   "return_type" : "_ZTIv",
   "source_file" : "external/libcxx/include/memory"
  },
  {
   "function_name" : "std::__1::__compressed_pair_elem<std::__1::allocator<char>, 1, true>::__get",
   "linker_set_key" : "_ZNSt3__122__compressed_pair_elemINS_9allocatorIcEELi1ELb1EE5__getEv",
   "parameters" :
   [
    {
     "is_this_ptr" : true,
     "referenced_type" : "_ZTIPNSt3__122__compressed_pair_elemINS_9allocatorIcEELi1ELb1EEE"
    }
   ],
   "return_type" : "_ZTIRNSt3__19allocatorIcEE",
   "source_file" : "external/libcxx/include/memory"
  },
  {
   "function_name" : "std::__1::__compressed_pair_elem<std::__1::allocator<char>, 1, true>::__compressed_pair_elem",
   "linker_set_key" : "_ZNSt3__122__compressed_pair_elemINS_9allocatorIcEELi1ELb1EEC1Ev",
   "parameters" :
   [
    {
     "is_this_ptr" : true,
     "referenced_type" : "_ZTIPNSt3__122__compressed_pair_elemINS_9allocatorIcEELi1ELb1EEE"
    }
   ],
   "return_type" : "_ZTIv",
   "source_file" : "external/libcxx/include/memory"
  },
  {
   "function_name" : "std::__1::__compressed_pair_elem<std::__1::allocator<char>, 1, true>::__compressed_pair_elem",
   "linker_set_key" : "_ZNSt3__122__compressed_pair_elemINS_9allocatorIcEELi1ELb1EEC2Ev",
   "parameters" :
   [
    {
     "is_this_ptr" : true,
     "referenced_type" : "_ZTIPNSt3__122__compressed_pair_elemINS_9allocatorIcEELi1ELb1EEE"
    }
   ],
   "return_type" : "_ZTIv",
   "source_file" : "external/libcxx/include/memory"
  },
  {
   "function_name" : "std::__1::__compressed_pair_elem<std::__1::allocator<wchar_t>, 1, true>::__get",
   "linker_set_key" : "_ZNSt3__122__compressed_pair_elemINS_9allocatorIwEELi1ELb1EE5__getEv",
   "parameters" :
   [
    {
     "is_this_ptr" : true,
     "referenced_type" : "_ZTIPNSt3__122__compressed_pair_elemINS_9allocatorIwEELi1ELb1EEE"
    }
   ],
   "return_type" : "_ZTIRNSt3__19allocatorIwEE",
   "source_file" : "external/libcxx/include/memory"
  },
  {
   "function_name" : "std::__1::__compressed_pair_elem<std::__1::allocator<wchar_t>, 1, true>::__compressed_pair_elem",
   "linker_set_key" : "_ZNSt3__122__compressed_pair_elemINS_9allocatorIwEELi1ELb1EEC1Ev",
   "parameters" :
   [
    {
     "is_this_ptr" : true,
     "referenced_type" : "_ZTIPNSt3__122__compressed_pair_elemINS_9allocatorIwEELi1ELb1EEE"
    }
   ],
   "return_type" : "_ZTIv",
   "source_file" : "external/libcxx/include/memory"
  },
  {
   "function_name" : "std::__1::__compressed_pair_elem<std::__1::allocator<wchar_t>, 1, true>::__compressed_pair_elem",
   "linker_set_key" : "_ZNSt3__122__compressed_pair_elemINS_9allocatorIwEELi1ELb1EEC2Ev",
   "parameters" :
   [
    {
     "is_this_ptr" : true,
     "referenced_type" : "_ZTIPNSt3__122__compressed_pair_elemINS_9allocatorIwEELi1ELb1EEE"
    }
   ],
   "return_type" : "_ZTIv",
   "source_file" : "external/libcxx/include/memory"
  },
  {
   "function_name" : "std::__1::__compressed_pair_elem<piex::binary_parse::CachedPagedByteArray::CachedPage *, 0, false>::__get",
   "linker_set_key" : "_ZNSt3__122__compressed_pair_elemIPN4piex12binary_parse20CachedPagedByteArray10CachedPageELi0ELb0EE5__getEv",
   "parameters" :
   [
    {
     "is_this_ptr" : true,
     "referenced_type" : "_ZTIPNSt3__122__compressed_pair_elemIPN4piex12binary_parse20CachedPagedByteArray10CachedPageELi0ELb0EEE"
    }
   ],
   "return_type" : "_ZTIRPN4piex12binary_parse20CachedPagedByteArray10CachedPageE",
   "source_file" : "external/libcxx/include/memory"
  },
  {
   "function_name" : "std::__1::__compressed_pair_elem<piex::binary_parse::CachedPagedByteArray::CachedPage *, 0, false>::__compressed_pair_elem",
   "linker_set_key" : "_ZNSt3__122__compressed_pair_elemIPN4piex12binary_parse20CachedPagedByteArray10CachedPageELi0ELb0EEC1IDnvEEOT_",
   "parameters" :
   [
    {
     "is_this_ptr" : true,
     "referenced_type" : "_ZTIPNSt3__122__compressed_pair_elemIPN4piex12binary_parse20CachedPagedByteArray10CachedPageELi0ELb0EEE"
    },
    {
     "referenced_type" : "_ZTIODn"
    }
   ],
   "return_type" : "_ZTIv",
   "source_file" : "external/libcxx/include/memory",
   "template_args" : [ "_ZTIDn", "_ZTIv" ]
  },
  {
   "function_name" : "std::__1::__compressed_pair_elem<piex::binary_parse::CachedPagedByteArray::CachedPage *, 0, false>::__compressed_pair_elem",
   "linker_set_key" : "_ZNSt3__122__compressed_pair_elemIPN4piex12binary_parse20CachedPagedByteArray10CachedPageELi0ELb0EEC2IDnvEEOT_",
   "parameters" :
   [
    {
     "is_this_ptr" : true,
     "referenced_type" : "_ZTIPNSt3__122__compressed_pair_elemIPN4piex12binary_parse20CachedPagedByteArray10CachedPageELi0ELb0EEE"
    },
    {
     "referenced_type" : "_ZTIODn"
    }
   ],
   "return_type" : "_ZTIv",
   "source_file" : "external/libcxx/include/memory",
   "template_args" : [ "_ZTIDn", "_ZTIv" ]
  },
  {
   "function_name" : "std::__1::__compressed_pair_elem<std::__1::allocator<piex::binary_parse::CachedPagedByteArray::CachedPage> &, 1, false>::__get",
   "linker_set_key" : "_ZNSt3__122__compressed_pair_elemIRNS_9allocatorIN4piex12binary_parse20CachedPagedByteArray10CachedPageEEELi1ELb0EE5__getEv",
   "parameters" :
   [
    {
     "is_this_ptr" : true,
     "referenced_type" : "_ZTIPNSt3__122__compressed_pair_elemIRNS_9allocatorIN4piex12binary_parse20CachedPagedByteArray10CachedPageEEELi1ELb0EEE"
    }
   ],
   "return_type" : "_ZTIRNSt3__19allocatorIN4piex12binary_parse20CachedPagedByteArray10CachedPageEEE",
   "source_file" : "external/libcxx/include/memory"
  },
  {
   "function_name" : "std::__1::__compressed_pair_elem<std::__1::allocator<piex::binary_parse::CachedPagedByteArray::CachedPage> &, 1, false>::__compressed_pair_elem",
   "linker_set_key" : "_ZNSt3__122__compressed_pair_elemIRNS_9allocatorIN4piex12binary_parse20CachedPagedByteArray10CachedPageEEELi1ELb0EEC1IS7_vEEOT_",
   "parameters" :
   [
    {
     "is_this_ptr" : true,
     "referenced_type" : "_ZTIPNSt3__122__compressed_pair_elemIRNS_9allocatorIN4piex12binary_parse20CachedPagedByteArray10CachedPageEEELi1ELb0EEE"
    },
    {
     "referenced_type" : "_ZTIRNSt3__19allocatorIN4piex12binary_parse20CachedPagedByteArray10CachedPageEEE"
    }
   ],
   "return_type" : "_ZTIv",
   "source_file" : "external/libcxx/include/memory",
   "template_args" :
   [
    "_ZTIRNSt3__19allocatorIN4piex12binary_parse20CachedPagedByteArray10CachedPageEEE",
    "_ZTIv"
   ]
  },
  {
   "function_name" : "std::__1::__compressed_pair_elem<std::__1::allocator<piex::binary_parse::CachedPagedByteArray::CachedPage> &, 1, false>::__compressed_pair_elem",
   "linker_set_key" : "_ZNSt3__122__compressed_pair_elemIRNS_9allocatorIN4piex12binary_parse20CachedPagedByteArray10CachedPageEEELi1ELb0EEC2IS7_vEEOT_",
   "parameters" :
   [
    {
     "is_this_ptr" : true,
     "referenced_type" : "_ZTIPNSt3__122__compressed_pair_elemIRNS_9allocatorIN4piex12binary_parse20CachedPagedByteArray10CachedPageEEELi1ELb0EEE"
    },
    {
     "referenced_type" : "_ZTIRNSt3__19allocatorIN4piex12binary_parse20CachedPagedByteArray10CachedPageEEE"
    }
   ],
   "return_type" : "_ZTIv",
   "source_file" : "external/libcxx/include/memory",
   "template_args" :
   [
    "_ZTIRNSt3__19allocatorIN4piex12binary_parse20CachedPagedByteArray10CachedPageEEE",
    "_ZTIv"
   ]
  },
  {
   "function_name" : "std::__1::__libcpp_mutex_destroy",
   "linker_set_key" : "_ZNSt3__122__libcpp_mutex_destroyEP15pthread_mutex_t",
   "parameters" :
   [
    {
     "referenced_type" : "_ZTIP15pthread_mutex_t"
    }
   ],
   "return_type" : "_ZTIi",
   "source_file" : "external/libcxx/include/__threading_support"
  },
  {
   "function_name" : "std::__1::__libcpp_mutex_trylock",
   "linker_set_key" : "_ZNSt3__122__libcpp_mutex_trylockEP15pthread_mutex_t",
   "parameters" :
   [
    {
     "referenced_type" : "_ZTIP15pthread_mutex_t"
    }
   ],
   "return_type" : "_ZTIb",
   "source_file" : "external/libcxx/include/__threading_support"
  },
  {
   "function_name" : "std::__1::__libcpp_thread_create",
   "linker_set_key" : "_ZNSt3__122__libcpp_thread_createEPlPFPvS1_ES1_",
   "parameters" :
   [
    {
     "referenced_type" : "_ZTIPl"
    },
    {
     "referenced_type" : "_ZTIPFPvS_E"
    },
    {
     "referenced_type" : "_ZTIPv"
    }
   ],
   "return_type" : "_ZTIi",
   "source_file" : "external/libcxx/include/__threading_support"
  },
  {
   "function_name" : "std::__1::__libcpp_thread_detach",
   "linker_set_key" : "_ZNSt3__122__libcpp_thread_detachEPl",
   "parameters" :
   [
    {
     "referenced_type" : "_ZTIPl"
    }
   ],
   "return_type" : "_ZTIi",
   "source_file" : "external/libcxx/include/__threading_support"
  },
  {
   "function_name" : "std::__1::__libcpp_thread_get_id",
   "linker_set_key" : "_ZNSt3__122__libcpp_thread_get_idEPKl",
   "parameters" :
   [
    {
     "referenced_type" : "_ZTIPKl"
    }
   ],
   "return_type" : "_ZTIl",
   "source_file" : "external/libcxx/include/__threading_support"
  },
  {
   "function_name" : "std::__1::__libcpp_thread_isnull",
   "linker_set_key" : "_ZNSt3__122__libcpp_thread_isnullEPKl",
   "parameters" :
   [
    {
     "referenced_type" : "_ZTIPKl"
    }
   ],
   "return_type" : "_ZTIb",
   "source_file" : "external/libcxx/include/__threading_support"
  },
  {
   "function_name" : "std::__1::__throw_overflow_error",
   "linker_set_key" : "_ZNSt3__122__throw_overflow_errorEPKc",
   "parameters" :
   [
    {
     "referenced_type" : "_ZTIPKc"
    }
   ],
   "return_type" : "_ZTIv",
   "source_file" : "external/libcxx/include/stdexcept"
  },
  {
   "function_name" : "std::__1::__libcpp_condvar_signal",
   "linker_set_key" : "_ZNSt3__123__libcpp_condvar_signalEP14pthread_cond_t",
   "parameters" :
   [
    {
     "referenced_type" : "_ZTIP14pthread_cond_t"
    }
   ],
   "return_type" : "_ZTIi",
   "source_file" : "external/libcxx/include/__threading_support"
  },
  {
   "access" : "protected",
   "function_name" : "std::__1::__libcpp_numeric_limits<bool, true>::denorm_min",
   "linker_set_key" : "_ZNSt3__123__libcpp_numeric_limitsIbLb1EE10denorm_minEv",
   "return_type" : "_ZTIb",
   "source_file" : "external/libcxx/include/limits"
  },
  {
   "access" : "protected",
   "function_name" : "std::__1::__libcpp_numeric_limits<bool, true>::round_error",
   "linker_set_key" : "_ZNSt3__123__libcpp_numeric_limitsIbLb1EE11round_errorEv",
   "return_type" : "_ZTIb",
   "source_file" : "external/libcxx/include/limits"
  },
  {
   "access" : "protected",
   "function_name" : "std::__1::__libcpp_numeric_limits<bool, true>::signaling_NaN",
   "linker_set_key" : "_ZNSt3__123__libcpp_numeric_limitsIbLb1EE13signaling_NaNEv",
   "return_type" : "_ZTIb",
   "source_file" : "external/libcxx/include/limits"
  },
  {
   "access" : "protected",
   "function_name" : "std::__1::__libcpp_numeric_limits<bool, true>::max",
   "linker_set_key" : "_ZNSt3__123__libcpp_numeric_limitsIbLb1EE3maxEv",
   "return_type" : "_ZTIb",
   "source_file" : "external/libcxx/include/limits"
  },
  {
   "access" : "protected",
   "function_name" : "std::__1::__libcpp_numeric_limits<bool, true>::min",
   "linker_set_key" : "_ZNSt3__123__libcpp_numeric_limitsIbLb1EE3minEv",
   "return_type" : "_ZTIb",
   "source_file" : "external/libcxx/include/limits"
  },
  {
   "access" : "protected",
   "function_name" : "std::__1::__libcpp_numeric_limits<bool, true>::lowest",
   "linker_set_key" : "_ZNSt3__123__libcpp_numeric_limitsIbLb1EE6lowestEv",
   "return_type" : "_ZTIb",
   "source_file" : "external/libcxx/include/limits"
  },
  {
   "access" : "protected",
   "function_name" : "std::__1::__libcpp_numeric_limits<bool, true>::epsilon",
   "linker_set_key" : "_ZNSt3__123__libcpp_numeric_limitsIbLb1EE7epsilonEv",
   "return_type" : "_ZTIb",
   "source_file" : "external/libcxx/include/limits"
  },
  {
   "access" : "protected",
   "function_name" : "std::__1::__libcpp_numeric_limits<bool, true>::infinity",
   "linker_set_key" : "_ZNSt3__123__libcpp_numeric_limitsIbLb1EE8infinityEv",
   "return_type" : "_ZTIb",
   "source_file" : "external/libcxx/include/limits"
  },
  {
   "access" : "protected",
   "function_name" : "std::__1::__libcpp_numeric_limits<bool, true>::quiet_NaN",
   "linker_set_key" : "_ZNSt3__123__libcpp_numeric_limitsIbLb1EE9quiet_NaNEv",
   "return_type" : "_ZTIb",
   "source_file" : "external/libcxx/include/limits"
  },
  {
   "access" : "protected",
   "function_name" : "std::__1::__libcpp_numeric_limits<double, true>::denorm_min",
   "linker_set_key" : "_ZNSt3__123__libcpp_numeric_limitsIdLb1EE10denorm_minEv",
   "return_type" : "_ZTId",
   "source_file" : "external/libcxx/include/limits"
  },
  {
   "access" : "protected",
   "function_name" : "std::__1::__libcpp_numeric_limits<double, true>::round_error",
   "linker_set_key" : "_ZNSt3__123__libcpp_numeric_limitsIdLb1EE11round_errorEv",
   "return_type" : "_ZTId",
   "source_file" : "external/libcxx/include/limits"
  },
  {
   "access" : "protected",
   "function_name" : "std::__1::__libcpp_numeric_limits<double, true>::signaling_NaN",
   "linker_set_key" : "_ZNSt3__123__libcpp_numeric_limitsIdLb1EE13signaling_NaNEv",
   "return_type" : "_ZTId",
   "source_file" : "external/libcxx/include/limits"
  },
  {
   "access" : "protected",
   "function_name" : "std::__1::__libcpp_numeric_limits<double, true>::max",
   "linker_set_key" : "_ZNSt3__123__libcpp_numeric_limitsIdLb1EE3maxEv",
   "return_type" : "_ZTId",
   "source_file" : "external/libcxx/include/limits"
  },
  {
   "access" : "protected",
   "function_name" : "std::__1::__libcpp_numeric_limits<double, true>::min",
   "linker_set_key" : "_ZNSt3__123__libcpp_numeric_limitsIdLb1EE3minEv",
   "return_type" : "_ZTId",
   "source_file" : "external/libcxx/include/limits"
  },
  {
   "access" : "protected",
   "function_name" : "std::__1::__libcpp_numeric_limits<double, true>::lowest",
   "linker_set_key" : "_ZNSt3__123__libcpp_numeric_limitsIdLb1EE6lowestEv",
   "return_type" : "_ZTId",
   "source_file" : "external/libcxx/include/limits"
  },
  {
   "access" : "protected",
   "function_name" : "std::__1::__libcpp_numeric_limits<double, true>::epsilon",
   "linker_set_key" : "_ZNSt3__123__libcpp_numeric_limitsIdLb1EE7epsilonEv",
   "return_type" : "_ZTId",
   "source_file" : "external/libcxx/include/limits"
  },
  {
   "access" : "protected",
   "function_name" : "std::__1::__libcpp_numeric_limits<double, true>::infinity",
   "linker_set_key" : "_ZNSt3__123__libcpp_numeric_limitsIdLb1EE8infinityEv",
   "return_type" : "_ZTId",
   "source_file" : "external/libcxx/include/limits"
  },
  {
   "access" : "protected",
   "function_name" : "std::__1::__libcpp_numeric_limits<double, true>::quiet_NaN",
   "linker_set_key" : "_ZNSt3__123__libcpp_numeric_limitsIdLb1EE9quiet_NaNEv",
   "return_type" : "_ZTId",
   "source_file" : "external/libcxx/include/limits"
  },
  {
   "access" : "protected",
   "function_name" : "std::__1::__libcpp_numeric_limits<long double, true>::denorm_min",
   "linker_set_key" : "_ZNSt3__123__libcpp_numeric_limitsIeLb1EE10denorm_minEv",
   "return_type" : "_ZTIe",
   "source_file" : "external/libcxx/include/limits"
  },
  {
   "access" : "protected",
   "function_name" : "std::__1::__libcpp_numeric_limits<long double, true>::round_error",
   "linker_set_key" : "_ZNSt3__123__libcpp_numeric_limitsIeLb1EE11round_errorEv",
   "return_type" : "_ZTIe",
   "source_file" : "external/libcxx/include/limits"
  },
  {
   "access" : "protected",
   "function_name" : "std::__1::__libcpp_numeric_limits<long double, true>::signaling_NaN",
   "linker_set_key" : "_ZNSt3__123__libcpp_numeric_limitsIeLb1EE13signaling_NaNEv",
   "return_type" : "_ZTIe",
   "source_file" : "external/libcxx/include/limits"
  },
  {
   "access" : "protected",
   "function_name" : "std::__1::__libcpp_numeric_limits<long double, true>::max",
   "linker_set_key" : "_ZNSt3__123__libcpp_numeric_limitsIeLb1EE3maxEv",
   "return_type" : "_ZTIe",
   "source_file" : "external/libcxx/include/limits"
  },
  {
   "access" : "protected",
   "function_name" : "std::__1::__libcpp_numeric_limits<long double, true>::min",
   "linker_set_key" : "_ZNSt3__123__libcpp_numeric_limitsIeLb1EE3minEv",
   "return_type" : "_ZTIe",
   "source_file" : "external/libcxx/include/limits"
  },
  {
   "access" : "protected",
   "function_name" : "std::__1::__libcpp_numeric_limits<long double, true>::lowest",
   "linker_set_key" : "_ZNSt3__123__libcpp_numeric_limitsIeLb1EE6lowestEv",
   "return_type" : "_ZTIe",
   "source_file" : "external/libcxx/include/limits"
  },
  {
   "access" : "protected",
   "function_name" : "std::__1::__libcpp_numeric_limits<long double, true>::epsilon",
   "linker_set_key" : "_ZNSt3__123__libcpp_numeric_limitsIeLb1EE7epsilonEv",
   "return_type" : "_ZTIe",
   "source_file" : "external/libcxx/include/limits"
  },
  {
   "access" : "protected",
   "function_name" : "std::__1::__libcpp_numeric_limits<long double, true>::infinity",
   "linker_set_key" : "_ZNSt3__123__libcpp_numeric_limitsIeLb1EE8infinityEv",
   "return_type" : "_ZTIe",
   "source_file" : "external/libcxx/include/limits"
  },
  {
   "access" : "protected",
   "function_name" : "std::__1::__libcpp_numeric_limits<long double, true>::quiet_NaN",
   "linker_set_key" : "_ZNSt3__123__libcpp_numeric_limitsIeLb1EE9quiet_NaNEv",
   "return_type" : "_ZTIe",
   "source_file" : "external/libcxx/include/limits"
  },
  {
   "access" : "protected",
   "function_name" : "std::__1::__libcpp_numeric_limits<float, true>::denorm_min",
   "linker_set_key" : "_ZNSt3__123__libcpp_numeric_limitsIfLb1EE10denorm_minEv",
   "return_type" : "_ZTIf",
   "source_file" : "external/libcxx/include/limits"
  },
  {
   "access" : "protected",
   "function_name" : "std::__1::__libcpp_numeric_limits<float, true>::round_error",
   "linker_set_key" : "_ZNSt3__123__libcpp_numeric_limitsIfLb1EE11round_errorEv",
   "return_type" : "_ZTIf",
   "source_file" : "external/libcxx/include/limits"
  },
  {
   "access" : "protected",
   "function_name" : "std::__1::__libcpp_numeric_limits<float, true>::signaling_NaN",
   "linker_set_key" : "_ZNSt3__123__libcpp_numeric_limitsIfLb1EE13signaling_NaNEv",
   "return_type" : "_ZTIf",
   "source_file" : "external/libcxx/include/limits"
  },
  {
   "access" : "protected",
   "function_name" : "std::__1::__libcpp_numeric_limits<float, true>::max",
   "linker_set_key" : "_ZNSt3__123__libcpp_numeric_limitsIfLb1EE3maxEv",
   "return_type" : "_ZTIf",
   "source_file" : "external/libcxx/include/limits"
  },
  {
   "access" : "protected",
   "function_name" : "std::__1::__libcpp_numeric_limits<float, true>::min",
   "linker_set_key" : "_ZNSt3__123__libcpp_numeric_limitsIfLb1EE3minEv",
   "return_type" : "_ZTIf",
   "source_file" : "external/libcxx/include/limits"
  },
  {
   "access" : "protected",
   "function_name" : "std::__1::__libcpp_numeric_limits<float, true>::lowest",
   "linker_set_key" : "_ZNSt3__123__libcpp_numeric_limitsIfLb1EE6lowestEv",
   "return_type" : "_ZTIf",
   "source_file" : "external/libcxx/include/limits"
  },
  {
   "access" : "protected",
   "function_name" : "std::__1::__libcpp_numeric_limits<float, true>::epsilon",
   "linker_set_key" : "_ZNSt3__123__libcpp_numeric_limitsIfLb1EE7epsilonEv",
   "return_type" : "_ZTIf",
   "source_file" : "external/libcxx/include/limits"
  },
  {
   "access" : "protected",
   "function_name" : "std::__1::__libcpp_numeric_limits<float, true>::infinity",
   "linker_set_key" : "_ZNSt3__123__libcpp_numeric_limitsIfLb1EE8infinityEv",
   "return_type" : "_ZTIf",
   "source_file" : "external/libcxx/include/limits"
  },
  {
   "access" : "protected",
   "function_name" : "std::__1::__libcpp_numeric_limits<float, true>::quiet_NaN",
   "linker_set_key" : "_ZNSt3__123__libcpp_numeric_limitsIfLb1EE9quiet_NaNEv",
   "return_type" : "_ZTIf",
   "source_file" : "external/libcxx/include/limits"
  },
  {
   "access" : "protected",
   "function_name" : "std::__1::__libcpp_numeric_limits<long, true>::max",
   "linker_set_key" : "_ZNSt3__123__libcpp_numeric_limitsIlLb1EE3maxEv",
   "return_type" : "_ZTIl",
   "source_file" : "external/libcxx/include/limits"
  },
  {
   "access" : "protected",
   "function_name" : "std::__1::__libcpp_numeric_limits<unsigned long, true>::max",
   "linker_set_key" : "_ZNSt3__123__libcpp_numeric_limitsImLb1EE3maxEv",
   "return_type" : "_ZTIm",
   "source_file" : "external/libcxx/include/limits"
  },
  {
   "access" : "protected",
   "function_name" : "std::__1::__libcpp_numeric_limits<long long, true>::max",
   "linker_set_key" : "_ZNSt3__123__libcpp_numeric_limitsIxLb1EE3maxEv",
   "return_type" : "_ZTIx",
   "source_file" : "external/libcxx/include/limits"
  },
  {
   "function_name" : "std::__1::__libcpp_thread_id_less",
   "linker_set_key" : "_ZNSt3__123__libcpp_thread_id_lessEll",
   "parameters" :
   [
    {
     "referenced_type" : "_ZTIl"
    },
    {
     "referenced_type" : "_ZTIl"
    }
   ],
   "return_type" : "_ZTIb",
   "source_file" : "external/libcxx/include/__threading_support"
  },
  {
   "function_name" : "std::__1::__throw_underflow_error",
   "linker_set_key" : "_ZNSt3__123__throw_underflow_errorEPKc",
   "parameters" :
   [
    {
     "referenced_type" : "_ZTIPKc"
    }
   ],
   "return_type" : "_ZTIv",
   "source_file" : "external/libcxx/include/stdexcept"
  },
  {
   "function_name" : "std::__1::__is_overaligned_for_new",
   "linker_set_key" : "_ZNSt3__124__is_overaligned_for_newEm",
   "parameters" :
   [
    {
     "referenced_type" : "_ZTIm"
    }
   ],
   "return_type" : "_ZTIb",
   "source_file" : "external/libcxx/include/new"
  },
  {
   "function_name" : "std::__1::__libcpp_condvar_destroy",
   "linker_set_key" : "_ZNSt3__124__libcpp_condvar_destroyEP14pthread_cond_t",
   "parameters" :
   [
    {
     "referenced_type" : "_ZTIP14pthread_cond_t"
    }
   ],
   "return_type" : "_ZTIi",
   "source_file" : "external/libcxx/include/__threading_support"
  },
  {
   "function_name" : "std::__1::__libcpp_thread_id_equal",
   "linker_set_key" : "_ZNSt3__124__libcpp_thread_id_equalEll",
   "parameters" :
   [
    {
     "referenced_type" : "_ZTIl"
    },
    {
     "referenced_type" : "_ZTIl"
    }
   ],
   "return_type" : "_ZTIb",
   "source_file" : "external/libcxx/include/__threading_support"
  },
  {
   "function_name" : "std::__1::__throw_invalid_argument",
   "linker_set_key" : "_ZNSt3__124__throw_invalid_argumentEPKc",
   "parameters" :
   [
    {
     "referenced_type" : "_ZTIPKc"
    }
   ],
   "return_type" : "_ZTIv",
   "source_file" : "external/libcxx/include/stdexcept"
  },
  {
   "function_name" : "std::__1::atomic_flag_test_and_set",
   "linker_set_key" : "_ZNSt3__124atomic_flag_test_and_setEPNS_11atomic_flagE",
   "parameters" :
   [
    {
     "referenced_type" : "_ZTIPNSt3__111atomic_flagE"
    }
   ],
   "return_type" : "_ZTIb",
   "source_file" : "external/libcxx/include/atomic"
  },
  {
   "function_name" : "std::__1::atomic_flag_test_and_set",
   "linker_set_key" : "_ZNSt3__124atomic_flag_test_and_setEPVNS_11atomic_flagE",
   "parameters" :
   [
    {
     "referenced_type" : "_ZTIPVNSt3__111atomic_flagE"
    }
   ],
   "return_type" : "_ZTIb",
   "source_file" : "external/libcxx/include/atomic"
  },
  {
   "function_name" : "std::__1::__libcpp_thread_sleep_for",
   "linker_set_key" : "_ZNSt3__125__libcpp_thread_sleep_forERKNS_6chrono8durationIxNS_5ratioILl1ELl1000000000EEEEE",
   "parameters" :
   [
    {
     "referenced_type" : "_ZTIRKNSt3__16chrono8durationIxNS_5ratioILl1ELl1000000000EEEEE"
    }
   ],
   "return_type" : "_ZTIv",
   "source_file" : "external/libcxx/include/__threading_support"
  },
  {
   "function_name" : "std::__1::__throw_bad_function_call",
   "linker_set_key" : "_ZNSt3__125__throw_bad_function_callEv",
   "return_type" : "_ZTIv",
   "source_file" : "external/libcxx/include/functional"
  },
  {
   "function_name" : "std::__1::__libcpp_condvar_broadcast",
   "linker_set_key" : "_ZNSt3__126__libcpp_condvar_broadcastEP14pthread_cond_t",
   "parameters" :
   [
    {
     "referenced_type" : "_ZTIP14pthread_cond_t"
    }
   ],
   "return_type" : "_ZTIi",
   "source_file" : "external/libcxx/include/__threading_support"
  },
  {
   "function_name" : "std::__1::__libcpp_condvar_timedwait",
   "linker_set_key" : "_ZNSt3__126__libcpp_condvar_timedwaitEP14pthread_cond_tP15pthread_mutex_tP8timespec",
   "parameters" :
   [
    {
     "referenced_type" : "_ZTIP14pthread_cond_t"
    },
    {
     "referenced_type" : "_ZTIP15pthread_mutex_t"
    },
    {
     "referenced_type" : "_ZTIP8timespec"
    }
   ],
   "return_type" : "_ZTIi",
   "source_file" : "external/libcxx/include/__threading_support"
  },
  {
   "function_name" : "std::__1::atomic_flag_clear_explicit",
   "linker_set_key" : "_ZNSt3__126atomic_flag_clear_explicitEPNS_11atomic_flagENS_12memory_orderE",
   "parameters" :
   [
    {
     "referenced_type" : "_ZTIPNSt3__111atomic_flagE"
    },
    {
     "referenced_type" : "_ZTINSt3__112memory_orderE"
    }
   ],
   "return_type" : "_ZTIv",
   "source_file" : "external/libcxx/include/atomic"
  },
  {
   "function_name" : "std::__1::atomic_flag_clear_explicit",
   "linker_set_key" : "_ZNSt3__126atomic_flag_clear_explicitEPVNS_11atomic_flagENS_12memory_orderE",
   "parameters" :
   [
    {
     "referenced_type" : "_ZTIPVNSt3__111atomic_flagE"
    },
    {
     "referenced_type" : "_ZTINSt3__112memory_orderE"
    }
   ],
   "return_type" : "_ZTIv",
   "source_file" : "external/libcxx/include/atomic"
  },
  {
   "function_name" : "std::__1::__libcpp_deallocate_unsized",
   "linker_set_key" : "_ZNSt3__127__libcpp_deallocate_unsizedEPvm",
   "parameters" :
   [
    {
     "referenced_type" : "_ZTIPv"
    },
    {
     "referenced_type" : "_ZTIm"
    }
   ],
   "return_type" : "_ZTIv",
   "source_file" : "external/libcxx/include/new"
  },
  {
   "function_name" : "std::__1::__libcpp_recursive_mutex_init",
   "linker_set_key" : "_ZNSt3__129__libcpp_recursive_mutex_initEP15pthread_mutex_t",
   "parameters" :
   [
    {
     "referenced_type" : "_ZTIP15pthread_mutex_t"
    }
   ],
   "return_type" : "_ZTIi",
   "source_file" : "external/libcxx/include/__threading_support"
  },
  {
   "function_name" : "std::__1::__libcpp_recursive_mutex_lock",
   "linker_set_key" : "_ZNSt3__129__libcpp_recursive_mutex_lockEP15pthread_mutex_t",
   "parameters" :
   [
    {
     "referenced_type" : "_ZTIP15pthread_mutex_t"
    }
   ],
   "return_type" : "_ZTIi",
   "source_file" : "external/libcxx/include/__threading_support"
  },
  {
   "function_name" : "std::__1::__check_tuple_constructor_fail::__enable_assign",
   "linker_set_key" : "_ZNSt3__130__check_tuple_constructor_fail15__enable_assignIJNS_4pairImmEEEEEbv",
   "return_type" : "_ZTIb",
   "source_file" : "external/libcxx/include/__tuple"
  },
  {
   "function_name" : "std::__1::__libcpp_thread_get_current_id",
   "linker_set_key" : "_ZNSt3__130__libcpp_thread_get_current_idEv",
   "return_type" : "_ZTIl",
   "source_file" : "external/libcxx/include/__threading_support"
  },
  {
   "function_name" : "std::__1::__libcpp_recursive_mutex_unlock",
   "linker_set_key" : "_ZNSt3__131__libcpp_recursive_mutex_unlockEP15pthread_mutex_t",
   "parameters" :
   [
    {
     "referenced_type" : "_ZTIP15pthread_mutex_t"
    }
   ],
   "return_type" : "_ZTIi",
   "source_file" : "external/libcxx/include/__threading_support"
  },
  {
   "function_name" : "std::__1::__libcpp_recursive_mutex_destroy",
   "linker_set_key" : "_ZNSt3__132__libcpp_recursive_mutex_destroyEP15pthread_mutex_t",
   "parameters" :
   [
    {
     "referenced_type" : "_ZTIP15pthread_mutex_t"
    }
   ],
   "return_type" : "_ZTIi",
   "source_file" : "external/libcxx/include/__threading_support"
  },
  {
   "function_name" : "std::__1::__libcpp_recursive_mutex_trylock",
   "linker_set_key" : "_ZNSt3__132__libcpp_recursive_mutex_trylockEP15pthread_mutex_t",
   "parameters" :
   [
    {
     "referenced_type" : "_ZTIP15pthread_mutex_t"
    }
   ],
   "return_type" : "_ZTIb",
   "source_file" : "external/libcxx/include/__threading_support"
  },
  {
   "function_name" : "std::__1::atomic_flag_test_and_set_explicit",
   "linker_set_key" : "_ZNSt3__133atomic_flag_test_and_set_explicitEPNS_11atomic_flagENS_12memory_orderE",
   "parameters" :
   [
    {
     "referenced_type" : "_ZTIPNSt3__111atomic_flagE"
    },
    {
     "referenced_type" : "_ZTINSt3__112memory_orderE"
    }
   ],
   "return_type" : "_ZTIb",
   "source_file" : "external/libcxx/include/atomic"
  },
  {
   "function_name" : "std::__1::atomic_flag_test_and_set_explicit",
   "linker_set_key" : "_ZNSt3__133atomic_flag_test_and_set_explicitEPVNS_11atomic_flagENS_12memory_orderE",
   "parameters" :
   [
    {
     "referenced_type" : "_ZTIPVNSt3__111atomic_flagE"
    },
    {
     "referenced_type" : "_ZTINSt3__112memory_orderE"
    }
   ],
   "return_type" : "_ZTIb",
   "source_file" : "external/libcxx/include/atomic"
  },
  {
   "function_name" : "std::__1::__libcpp_atomic_refcount_decrement",
   "linker_set_key" : "_ZNSt3__134__libcpp_atomic_refcount_decrementIlEET_RS1_",
   "parameters" :
   [
    {
     "referenced_type" : "_ZTIRl"
    }
   ],
   "return_type" : "_ZTIl",
   "source_file" : "external/libcxx/include/memory",
   "template_args" : [ "_ZTIl" ]
  },
  {
   "function_name" : "std::__1::__libcpp_atomic_refcount_increment",
   "linker_set_key" : "_ZNSt3__134__libcpp_atomic_refcount_incrementIlEET_RS1_",
   "parameters" :
   [
    {
     "referenced_type" : "_ZTIRl"
    }
   ],
   "return_type" : "_ZTIl",
   "source_file" : "external/libcxx/include/memory",
   "template_args" : [ "_ZTIl" ]
  },
  {
   "function_name" : "std::__1::max",
   "linker_set_key" : "_ZNSt3__13maxImEERKT_S3_S3_",
   "parameters" :
   [
    {
     "referenced_type" : "_ZTIRKm"
    },
    {
     "referenced_type" : "_ZTIRKm"
    }
   ],
   "return_type" : "_ZTIRKm",
   "source_file" : "external/libcxx/include/algorithm",
   "template_args" : [ "_ZTIm" ]
  },
  {
   "function_name" : "std::__1::max",
   "linker_set_key" : "_ZNSt3__13maxImNS_6__lessImmEEEERKT_S5_S5_T0_",
   "parameters" :
   [
    {
     "referenced_type" : "_ZTIRKm"
    },
    {
     "referenced_type" : "_ZTIRKm"
    },
    {
     "referenced_type" : "_ZTINSt3__16__lessImmEE"
    }
   ],
   "return_type" : "_ZTIRKm",
   "source_file" : "external/libcxx/include/algorithm",
   "template_args" : [ "_ZTIm", "_ZTINSt3__16__lessImmEE" ]
  },
  {
   "function_name" : "std::__1::min",
   "linker_set_key" : "_ZNSt3__13minImEERKT_S3_S3_",
   "parameters" :
   [
    {
     "referenced_type" : "_ZTIRKm"
    },
    {
     "referenced_type" : "_ZTIRKm"
    }
   ],
   "return_type" : "_ZTIRKm",
   "source_file" : "external/libcxx/include/algorithm",
   "template_args" : [ "_ZTIm" ]
  },
  {
   "function_name" : "std::__1::min",
   "linker_set_key" : "_ZNSt3__13minImNS_6__lessImmEEEERKT_S5_S5_T0_",
   "parameters" :
   [
    {
     "referenced_type" : "_ZTIRKm"
    },
    {
     "referenced_type" : "_ZTIRKm"
    },
    {
     "referenced_type" : "_ZTINSt3__16__lessImmEE"
    }
   ],
   "return_type" : "_ZTIRKm",
   "source_file" : "external/libcxx/include/algorithm",
   "template_args" : [ "_ZTIm", "_ZTINSt3__16__lessImmEE" ]
  },
  {
   "function_name" : "std::__1::__fs::filesystem::_FilesystemClock::from_time_t",
   "linker_set_key" : "_ZNSt3__14__fs10filesystem16_FilesystemClock11from_time_tEl",
   "parameters" :
   [
    {
     "referenced_type" : "_ZTIl"
    }
   ],
   "return_type" : "_ZTINSt3__16chrono10time_pointINS_4__fs10filesystem16_FilesystemClockENS0_8durationInNS_5ratioILl1ELl1000000000EEEEEEE",
   "source_file" : "external/libcxx/include/chrono"
  },
  {
   "function_name" : "std::__1::__fs::filesystem::_FilesystemClock::to_time_t",
   "linker_set_key" : "_ZNSt3__14__fs10filesystem16_FilesystemClock9to_time_tERKNS_6chrono10time_pointIS2_NS3_8durationInNS_5ratioILl1ELl1000000000EEEEEEE",
   "parameters" :
   [
    {
     "referenced_type" : "_ZTIRKNSt3__16chrono10time_pointINS_4__fs10filesystem16_FilesystemClockENS0_8durationInNS_5ratioILl1ELl1000000000EEEEEEE"
    }
   ],
   "return_type" : "_ZTIl",
   "source_file" : "external/libcxx/include/chrono"
  },
  {
   "function_name" : "std::__1::move",
   "linker_set_key" : "_ZNSt3__14moveIPN4piex12binary_parse20CachedPagedByteArray10CachedPageES5_EET0_T_S7_S6_",
   "parameters" :
   [
    {
     "referenced_type" : "_ZTIPN4piex12binary_parse20CachedPagedByteArray10CachedPageE"
    },
    {
     "referenced_type" : "_ZTIPN4piex12binary_parse20CachedPagedByteArray10CachedPageE"
    },
    {
     "referenced_type" : "_ZTIPN4piex12binary_parse20CachedPagedByteArray10CachedPageE"
    }
   ],
   "return_type" : "_ZTIPN4piex12binary_parse20CachedPagedByteArray10CachedPageE",
   "source_file" : "external/libcxx/include/algorithm",
   "template_args" :
   [
    "_ZTIPN4piex12binary_parse20CachedPagedByteArray10CachedPageE",
    "_ZTIPN4piex12binary_parse20CachedPagedByteArray10CachedPageE"
   ]
  },
  {
   "function_name" : "std::__1::move",
   "linker_set_key" : "_ZNSt3__14moveIRN4piex12binary_parse20CachedPagedByteArray10CachedPageEEEONS_16remove_referenceIT_E4typeEOS7_",
   "parameters" :
   [
    {
     "referenced_type" : "_ZTIRN4piex12binary_parse20CachedPagedByteArray10CachedPageE"
    }
   ],
   "return_type" : "_ZTION4piex12binary_parse20CachedPagedByteArray10CachedPageE",
   "source_file" : "external/libcxx/include/type_traits",
   "template_args" : [ "_ZTIRN4piex12binary_parse20CachedPagedByteArray10CachedPageE" ]
  },
  {
   "function_name" : "std::__1::move",
   "linker_set_key" : "_ZNSt3__14moveIRNS_10shared_ptrIN4piex12binary_parse14PagedByteArray4PageEEEEEONS_16remove_referenceIT_E4typeEOS9_",
   "parameters" :
   [
    {
     "referenced_type" : "_ZTIRNSt3__110shared_ptrIN4piex12binary_parse14PagedByteArray4PageEEE"
    }
   ],
   "return_type" : "_ZTIONSt3__110shared_ptrIN4piex12binary_parse14PagedByteArray4PageEEE",
   "source_file" : "external/libcxx/include/type_traits",
   "template_args" :
   [
    "_ZTIRNSt3__110shared_ptrIN4piex12binary_parse14PagedByteArray4PageEEE"
   ]
  },
  {
   "function_name" : "std::__1::move",
   "linker_set_key" : "_ZNSt3__14moveIRPN4piex12binary_parse14PagedByteArray4PageEEEONS_16remove_referenceIT_E4typeEOS8_",
   "parameters" :
   [
    {
     "referenced_type" : "_ZTIRPN4piex12binary_parse14PagedByteArray4PageE"
    }
   ],
   "return_type" : "_ZTIOPN4piex12binary_parse14PagedByteArray4PageE",
   "source_file" : "external/libcxx/include/type_traits",
   "template_args" : [ "_ZTIRPN4piex12binary_parse14PagedByteArray4PageE" ]
  },
  {
   "function_name" : "std::__1::move",
   "linker_set_key" : "_ZNSt3__14moveIRPN4piex12binary_parse20CachedPagedByteArray10CachedPageEEEONS_16remove_referenceIT_E4typeEOS8_",
   "parameters" :
   [
    {
     "referenced_type" : "_ZTIRPN4piex12binary_parse20CachedPagedByteArray10CachedPageE"
    }
   ],
   "return_type" : "_ZTIOPN4piex12binary_parse20CachedPagedByteArray10CachedPageE",
   "source_file" : "external/libcxx/include/type_traits",
   "template_args" : [ "_ZTIRPN4piex12binary_parse20CachedPagedByteArray10CachedPageE" ]
  },
  {
   "function_name" : "std::__1::move",
   "linker_set_key" : "_ZNSt3__14moveIRPNS_19__shared_weak_countEEEONS_16remove_referenceIT_E4typeEOS5_",
   "parameters" :
   [
    {
     "referenced_type" : "_ZTIRPNSt3__119__shared_weak_countE"
    }
   ],
   "return_type" : "_ZTIOPNSt3__119__shared_weak_countE",
   "source_file" : "external/libcxx/include/type_traits",
   "template_args" : [ "_ZTIRPNSt3__119__shared_weak_countE" ]
  },
  {
   "function_name" : "std::__1::move",
   "linker_set_key" : "_ZNSt3__14moveIRmEEONS_16remove_referenceIT_E4typeEOS3_",
   "parameters" :
   [
    {
     "referenced_type" : "_ZTIRm"
    }
   ],
   "return_type" : "_ZTIOm",
   "source_file" : "external/libcxx/include/type_traits",
   "template_args" : [ "_ZTIRm" ]
  },
  {
   "function_name" : "std::__1::pair<unsigned long, unsigned long>::_CheckArgs::__enable_explicit",
   "linker_set_key" : "_ZNSt3__14pairImmE10_CheckArgs17__enable_explicitIRKmS5_EEbv",
   "return_type" : "_ZTIb",
   "source_file" : "external/libcxx/include/utility",
   "template_args" : [ "_ZTIRKm", "_ZTIRKm" ]
  },
  {
   "function_name" : "std::__1::pair<unsigned long, unsigned long>::_CheckArgs::__enable_explicit",
   "linker_set_key" : "_ZNSt3__14pairImmE10_CheckArgs17__enable_explicitImmEEbv",
   "return_type" : "_ZTIb",
   "source_file" : "external/libcxx/include/utility",
   "template_args" : [ "_ZTIm", "_ZTIm" ]
  },
  {
   "function_name" : "std::__1::pair<unsigned long, unsigned long>::_CheckArgs::__enable_implicit",
   "linker_set_key" : "_ZNSt3__14pairImmE10_CheckArgs17__enable_implicitIRKmS5_EEbv",
   "return_type" : "_ZTIb",
   "source_file" : "external/libcxx/include/utility",
   "template_args" : [ "_ZTIRKm", "_ZTIRKm" ]
  },
  {
   "function_name" : "std::__1::pair<unsigned long, unsigned long>::_CheckArgs::__enable_implicit",
   "linker_set_key" : "_ZNSt3__14pairImmE10_CheckArgs17__enable_implicitImmEEbv",
   "return_type" : "_ZTIb",
   "source_file" : "external/libcxx/include/utility",
   "template_args" : [ "_ZTIm", "_ZTIm" ]
  },
  {
   "function_name" : "std::__1::pair<unsigned long, unsigned long>::pair",
   "linker_set_key" : "_ZNSt3__14pairImmEC1EOS1_",
   "parameters" :
   [
    {
     "is_this_ptr" : true,
     "referenced_type" : "_ZTIPNSt3__14pairImmEE"
    },
    {
     "referenced_type" : "_ZTIONSt3__14pairImmEE"
    }
   ],
   "return_type" : "_ZTIv",
   "source_file" : "external/libcxx/include/utility"
  },
  {
   "function_name" : "std::__1::pair<unsigned long, unsigned long>::pair",
   "linker_set_key" : "_ZNSt3__14pairImmEC1ERKS1_",
   "parameters" :
   [
    {
     "is_this_ptr" : true,
     "referenced_type" : "_ZTIPNSt3__14pairImmEE"
    },
    {
     "referenced_type" : "_ZTIRKNSt3__14pairImmEE"
    }
   ],
   "return_type" : "_ZTIv",
   "source_file" : "external/libcxx/include/utility"
  },
  {
   "function_name" : "std::__1::pair<unsigned long, unsigned long>::pair",
   "linker_set_key" : "_ZNSt3__14pairImmEC1ImmLb0EEEOT_OT0_",
   "parameters" :
   [
    {
     "is_this_ptr" : true,
     "referenced_type" : "_ZTIPNSt3__14pairImmEE"
    },
    {
     "referenced_type" : "_ZTIOm"
    },
    {
     "referenced_type" : "_ZTIOm"
    }
   ],
   "return_type" : "_ZTIv",
   "source_file" : "external/libcxx/include/utility",
   "template_args" : [ "_ZTIm", "_ZTIm" ]
  },
  {
   "function_name" : "std::__1::pair<unsigned long, unsigned long>::pair",
   "linker_set_key" : "_ZNSt3__14pairImmEC2EOS1_",
   "parameters" :
   [
    {
     "is_this_ptr" : true,
     "referenced_type" : "_ZTIPNSt3__14pairImmEE"
    },
    {
     "referenced_type" : "_ZTIONSt3__14pairImmEE"
    }
   ],
   "return_type" : "_ZTIv",
   "source_file" : "external/libcxx/include/utility"
  },
  {
   "function_name" : "std::__1::pair<unsigned long, unsigned long>::pair",
   "linker_set_key" : "_ZNSt3__14pairImmEC2ERKS1_",
   "parameters" :
   [
    {
     "is_this_ptr" : true,
     "referenced_type" : "_ZTIPNSt3__14pairImmEE"
    },
    {
     "referenced_type" : "_ZTIRKNSt3__14pairImmEE"
    }
   ],
   "return_type" : "_ZTIv",
   "source_file" : "external/libcxx/include/utility"
  },
  {
   "function_name" : "std::__1::pair<unsigned long, unsigned long>::pair",
   "linker_set_key" : "_ZNSt3__14pairImmEC2ImmLb0EEEOT_OT0_",
   "parameters" :
   [
    {
     "is_this_ptr" : true,
     "referenced_type" : "_ZTIPNSt3__14pairImmEE"
    },
    {
     "referenced_type" : "_ZTIOm"
    },
    {
     "referenced_type" : "_ZTIOm"
    }
   ],
   "return_type" : "_ZTIv",
   "source_file" : "external/libcxx/include/utility",
   "template_args" : [ "_ZTIm", "_ZTIm" ]
  },
  {
   "function_name" : "std::__1::pair<unsigned long, unsigned long>::operator=",
   "linker_set_key" : "_ZNSt3__14pairImmEaSEOS1_",
   "parameters" :
   [
    {
     "is_this_ptr" : true,
     "referenced_type" : "_ZTIPNSt3__14pairImmEE"
    },
    {
     "referenced_type" : "_ZTIONSt3__14pairImmEE"
    }
   ],
   "return_type" : "_ZTIRNSt3__14pairImmEE",
   "source_file" : "external/libcxx/include/utility"
  },
  {
   "function_name" : "std::__1::swap",
   "linker_set_key" : "_ZNSt3__14swapIPN4piex12binary_parse14PagedByteArray4PageEEENS_9enable_ifIXaasr21is_move_constructibleIT_EE5valuesr18is_move_assignableIS7_EE5valueEvE4typeERS7_SA_",
   "parameters" :
   [
    {
     "referenced_type" : "_ZTIRPN4piex12binary_parse14PagedByteArray4PageE"
    },
    {
     "referenced_type" : "_ZTIRPN4piex12binary_parse14PagedByteArray4PageE"
    }
   ],
   "return_type" : "_ZTIv",
   "source_file" : "external/libcxx/include/type_traits",
   "template_args" : [ "_ZTIPN4piex12binary_parse14PagedByteArray4PageE" ]
  },
  {
   "function_name" : "std::__1::swap",
   "linker_set_key" : "_ZNSt3__14swapIPN4piex12binary_parse20CachedPagedByteArray10CachedPageEEENS_9enable_ifIXaasr21is_move_constructibleIT_EE5valuesr18is_move_assignableIS7_EE5valueEvE4typeERS7_SA_",
   "parameters" :
   [
    {
     "referenced_type" : "_ZTIRPN4piex12binary_parse20CachedPagedByteArray10CachedPageE"
    },
    {
     "referenced_type" : "_ZTIRPN4piex12binary_parse20CachedPagedByteArray10CachedPageE"
    }
   ],
   "return_type" : "_ZTIv",
   "source_file" : "external/libcxx/include/type_traits",
   "template_args" : [ "_ZTIPN4piex12binary_parse20CachedPagedByteArray10CachedPageE" ]
  },
  {
   "function_name" : "std::__1::swap",
   "linker_set_key" : "_ZNSt3__14swapIPNS_19__shared_weak_countEEENS_9enable_ifIXaasr21is_move_constructibleIT_EE5valuesr18is_move_assignableIS4_EE5valueEvE4typeERS4_S7_",
   "parameters" :
   [
    {
     "referenced_type" : "_ZTIRPNSt3__119__shared_weak_countE"
    },
    {
     "referenced_type" : "_ZTIRPNSt3__119__shared_weak_countE"
    }
   ],
   "return_type" : "_ZTIv",
   "source_file" : "external/libcxx/include/type_traits",
   "template_args" : [ "_ZTIPNSt3__119__shared_weak_countE" ]
  },
  {
   "function_name" : "std::__1::swap",
   "linker_set_key" : "_ZNSt3__14swapImEENS_9enable_ifIXaasr21is_move_constructibleIT_EE5valuesr18is_move_assignableIS2_EE5valueEvE4typeERS2_S5_",
   "parameters" :
   [
    {
     "referenced_type" : "_ZTIRm"
    },
    {
     "referenced_type" : "_ZTIRm"
    }
   ],
   "return_type" : "_ZTIv",
   "source_file" : "external/libcxx/include/type_traits",
   "template_args" : [ "_ZTIm" ]
  },
  {
   "function_name" : "std::__1::__clz",
   "linker_set_key" : "_ZNSt3__15__clzEj",
   "parameters" :
   [
    {
     "referenced_type" : "_ZTIj"
    }
   ],
   "return_type" : "_ZTIi",
   "source_file" : "external/libcxx/include/bit"
  },
  {
   "function_name" : "std::__1::__clz",
   "linker_set_key" : "_ZNSt3__15__clzEm",
   "parameters" :
   [
    {
     "referenced_type" : "_ZTIm"
    }
   ],
   "return_type" : "_ZTIi",
   "source_file" : "external/libcxx/include/bit"
  },
  {
   "function_name" : "std::__1::__clz",
   "linker_set_key" : "_ZNSt3__15__clzEy",
   "parameters" :
   [
    {
     "referenced_type" : "_ZTIy"
    }
   ],
   "return_type" : "_ZTIi",
   "source_file" : "external/libcxx/include/bit"
  },
  {
   "function_name" : "std::__1::__ctz",
   "linker_set_key" : "_ZNSt3__15__ctzEj",
   "parameters" :
   [
    {
     "referenced_type" : "_ZTIj"
    }
   ],
   "return_type" : "_ZTIi",
   "source_file" : "external/libcxx/include/bit"
  },
  {
   "function_name" : "std::__1::__ctz",
   "linker_set_key" : "_ZNSt3__15__ctzEm",
   "parameters" :
   [
    {
     "referenced_type" : "_ZTIm"
    }
   ],
   "return_type" : "_ZTIi",
   "source_file" : "external/libcxx/include/bit"
  },
  {
   "function_name" : "std::__1::__ctz",
   "linker_set_key" : "_ZNSt3__15__ctzEy",
   "parameters" :
   [
    {
     "referenced_type" : "_ZTIy"
    }
   ],
   "return_type" : "_ZTIi",
   "source_file" : "external/libcxx/include/bit"
  },
  {
   "function_name" : "std::__1::mutex::native_handle",
   "linker_set_key" : "_ZNSt3__15mutex13native_handleEv",
   "parameters" :
   [
    {
     "is_this_ptr" : true,
     "referenced_type" : "_ZTIPNSt3__15mutexE"
    }
   ],
   "return_type" : "_ZTIP15pthread_mutex_t",
   "source_file" : "external/libcxx/include/__mutex_base"
  },
  {
   "function_name" : "std::__1::mutex::mutex",
   "linker_set_key" : "_ZNSt3__15mutexC1Ev",
   "parameters" :
   [
    {
     "is_this_ptr" : true,
     "referenced_type" : "_ZTIPNSt3__15mutexE"
    }
   ],
   "return_type" : "_ZTIv",
   "source_file" : "external/libcxx/include/__mutex_base"
  },
  {
   "function_name" : "std::__1::mutex::mutex",
   "linker_set_key" : "_ZNSt3__15mutexC2Ev",
   "parameters" :
   [
    {
     "is_this_ptr" : true,
     "referenced_type" : "_ZTIPNSt3__15mutexE"
    }
   ],
   "return_type" : "_ZTIv",
   "source_file" : "external/libcxx/include/__mutex_base"
  },
  {
   "function_name" : "std::__1::tuple<>::swap",
   "linker_set_key" : "_ZNSt3__15tupleIJEE4swapERS1_",
   "parameters" :
   [
    {
     "is_this_ptr" : true,
     "referenced_type" : "_ZTIPNSt3__15tupleIJEEE"
    },
    {
     "referenced_type" : "_ZTIRNSt3__15tupleIJEEE"
    }
   ],
   "return_type" : "_ZTIv",
   "source_file" : "external/libcxx/include/tuple"
  },
  {
   "function_name" : "std::__1::tuple<>::tuple",
   "linker_set_key" : "_ZNSt3__15tupleIJEEC1Ev",
   "parameters" :
   [
    {
     "is_this_ptr" : true,
     "referenced_type" : "_ZTIPNSt3__15tupleIJEEE"
    }
   ],
   "return_type" : "_ZTIv",
   "source_file" : "external/libcxx/include/tuple"
  },
  {
   "function_name" : "std::__1::tuple<>::tuple",
   "linker_set_key" : "_ZNSt3__15tupleIJEEC2Ev",
   "parameters" :
   [
    {
     "is_this_ptr" : true,
     "referenced_type" : "_ZTIPNSt3__15tupleIJEEE"
    }
   ],
   "return_type" : "_ZTIv",
   "source_file" : "external/libcxx/include/tuple"
  },
  {
   "function_name" : "std::__1::__move",
   "linker_set_key" : "_ZNSt3__16__moveIPN4piex12binary_parse20CachedPagedByteArray10CachedPageES5_EET0_T_S7_S6_",
   "parameters" :
   [
    {
     "referenced_type" : "_ZTIPN4piex12binary_parse20CachedPagedByteArray10CachedPageE"
    },
    {
     "referenced_type" : "_ZTIPN4piex12binary_parse20CachedPagedByteArray10CachedPageE"
    },
    {
     "referenced_type" : "_ZTIPN4piex12binary_parse20CachedPagedByteArray10CachedPageE"
    }
   ],
   "return_type" : "_ZTIPN4piex12binary_parse20CachedPagedByteArray10CachedPageE",
   "source_file" : "external/libcxx/include/algorithm",
   "template_args" :
   [
    "_ZTIPN4piex12binary_parse20CachedPagedByteArray10CachedPageE",
    "_ZTIPN4piex12binary_parse20CachedPagedByteArray10CachedPageE"
   ]
  },
  {
   "function_name" : "std::__1::chrono::time_point<std::__1::chrono::system_clock, std::__1::chrono::duration<long double, std::__1::ratio<1, 1000000000>>>::time_point",
   "linker_set_key" : "_ZNSt3__16chrono10time_pointINS0_12system_clockENS0_8durationIeNS_5ratioILl1ELl1000000000EEEEEEC1INS3_IxS5_EEEERKNS1_IS2_T_EEPNS_9enable_ifIXsr14is_convertibleISA_S6_EE5valueEvE4typeE",
   "parameters" :
   [
    {
     "is_this_ptr" : true,
     "referenced_type" : "_ZTIPNSt3__16chrono10time_pointINS0_12system_clockENS0_8durationIeNS_5ratioILl1ELl1000000000EEEEEEE"
    },
    {
     "referenced_type" : "_ZTIRKNSt3__16chrono10time_pointINS0_12system_clockENS0_8durationIxNS_5ratioILl1ELl1000000000EEEEEEE"
    },
    {
     "default_arg" : true,
     "referenced_type" : "_ZTIPv"
    }
   ],
   "return_type" : "_ZTIv",
   "source_file" : "external/libcxx/include/chrono",
   "template_args" : [ "_ZTINSt3__16chrono8durationIxNS_5ratioILl1ELl1000000000EEEEE" ]
  },
  {
   "function_name" : "std::__1::chrono::time_point<std::__1::chrono::system_clock, std::__1::chrono::duration<long double, std::__1::ratio<1, 1000000000>>>::time_point",
   "linker_set_key" : "_ZNSt3__16chrono10time_pointINS0_12system_clockENS0_8durationIeNS_5ratioILl1ELl1000000000EEEEEEC2INS3_IxS5_EEEERKNS1_IS2_T_EEPNS_9enable_ifIXsr14is_convertibleISA_S6_EE5valueEvE4typeE",
   "parameters" :
   [
    {
     "is_this_ptr" : true,
     "referenced_type" : "_ZTIPNSt3__16chrono10time_pointINS0_12system_clockENS0_8durationIeNS_5ratioILl1ELl1000000000EEEEEEE"
    },
    {
     "referenced_type" : "_ZTIRKNSt3__16chrono10time_pointINS0_12system_clockENS0_8durationIxNS_5ratioILl1ELl1000000000EEEEEEE"
    },
    {
     "default_arg" : true,
     "referenced_type" : "_ZTIPv"
    }
   ],
   "return_type" : "_ZTIv",
   "source_file" : "external/libcxx/include/chrono",
   "template_args" : [ "_ZTINSt3__16chrono8durationIxNS_5ratioILl1ELl1000000000EEEEE" ]
  },
  {
   "function_name" : "std::__1::chrono::time_point<std::__1::chrono::system_clock, std::__1::chrono::duration<long long, std::__1::ratio<1, 1000000000>>>::max",
   "linker_set_key" : "_ZNSt3__16chrono10time_pointINS0_12system_clockENS0_8durationIxNS_5ratioILl1ELl1000000000EEEEEE3maxEv",
   "return_type" : "_ZTINSt3__16chrono10time_pointINS0_12system_clockENS0_8durationIxNS_5ratioILl1ELl1000000000EEEEEEE",
   "source_file" : "external/libcxx/include/chrono"
  },
  {
   "function_name" : "std::__1::chrono::time_point<std::__1::chrono::system_clock, std::__1::chrono::duration<long long, std::__1::ratio<1, 1000000000>>>::time_point",
   "linker_set_key" : "_ZNSt3__16chrono10time_pointINS0_12system_clockENS0_8durationIxNS_5ratioILl1ELl1000000000EEEEEEC1ERKS6_",
   "parameters" :
   [
    {
     "is_this_ptr" : true,
     "referenced_type" : "_ZTIPNSt3__16chrono10time_pointINS0_12system_clockENS0_8durationIxNS_5ratioILl1ELl1000000000EEEEEEE"
    },
    {
     "referenced_type" : "_ZTIRKNSt3__16chrono8durationIxNS_5ratioILl1ELl1000000000EEEEE"
    }
   ],
   "return_type" : "_ZTIv",
   "source_file" : "external/libcxx/include/chrono"
  },
  {
   "function_name" : "std::__1::chrono::time_point<std::__1::chrono::system_clock, std::__1::chrono::duration<long long, std::__1::ratio<1, 1000000000>>>::time_point",
   "linker_set_key" : "_ZNSt3__16chrono10time_pointINS0_12system_clockENS0_8durationIxNS_5ratioILl1ELl1000000000EEEEEEC2ERKS6_",
   "parameters" :
   [
    {
     "is_this_ptr" : true,
     "referenced_type" : "_ZTIPNSt3__16chrono10time_pointINS0_12system_clockENS0_8durationIxNS_5ratioILl1ELl1000000000EEEEEEE"
    },
    {
     "referenced_type" : "_ZTIRKNSt3__16chrono8durationIxNS_5ratioILl1ELl1000000000EEEEE"
    }
   ],
   "return_type" : "_ZTIv",
   "source_file" : "external/libcxx/include/chrono"
  },
  {
   "function_name" : "std::__1::chrono::time_point<std::__1::__fs::filesystem::_FilesystemClock, std::__1::chrono::duration<__int128, std::__1::ratio<1, 1000000000>>>::time_point",
   "linker_set_key" : "_ZNSt3__16chrono10time_pointINS_4__fs10filesystem16_FilesystemClockENS0_8durationInNS_5ratioILl1ELl1000000000EEEEEEC1ERKS8_",
   "parameters" :
   [
    {
     "is_this_ptr" : true,
     "referenced_type" : "_ZTIPNSt3__16chrono10time_pointINS_4__fs10filesystem16_FilesystemClockENS0_8durationInNS_5ratioILl1ELl1000000000EEEEEEE"
    },
    {
     "referenced_type" : "_ZTIRKNSt3__16chrono8durationInNS_5ratioILl1ELl1000000000EEEEE"
    }
   ],
   "return_type" : "_ZTIv",
   "source_file" : "external/libcxx/include/chrono"
  },
  {
   "function_name" : "std::__1::chrono::time_point<std::__1::__fs::filesystem::_FilesystemClock, std::__1::chrono::duration<__int128, std::__1::ratio<1, 1000000000>>>::time_point",
   "linker_set_key" : "_ZNSt3__16chrono10time_pointINS_4__fs10filesystem16_FilesystemClockENS0_8durationInNS_5ratioILl1ELl1000000000EEEEEEC2ERKS8_",
   "parameters" :
   [
    {
     "is_this_ptr" : true,
     "referenced_type" : "_ZTIPNSt3__16chrono10time_pointINS_4__fs10filesystem16_FilesystemClockENS0_8durationInNS_5ratioILl1ELl1000000000EEEEEEE"
    },
    {
     "referenced_type" : "_ZTIRKNSt3__16chrono8durationInNS_5ratioILl1ELl1000000000EEEEE"
    }
   ],
   "return_type" : "_ZTIv",
   "source_file" : "external/libcxx/include/chrono"
  },
  {
   "function_name" : "std::__1::chrono::duration_cast",
   "linker_set_key" : "_ZNSt3__16chrono13duration_castINS0_8durationIeNS_5ratioILl1ELl1000000000EEEEExS4_EENS_9enable_ifIXsr13__is_durationIT_EE5valueES7_E4typeERKNS2_IT0_T1_EE",
   "parameters" :
   [
    {
     "referenced_type" : "_ZTIRKNSt3__16chrono8durationIxNS_5ratioILl1ELl1000000000EEEEE"
    }
   ],
   "return_type" : "_ZTINSt3__16chrono8durationIeNS_5ratioILl1ELl1000000000EEEEE",
   "source_file" : "external/libcxx/include/chrono",
   "template_args" :
   [
    "_ZTINSt3__16chrono8durationIeNS_5ratioILl1ELl1000000000EEEEE",
    "_ZTIx",
    "_ZTINSt3__15ratioILl1ELl1000000000EEE"
   ]
  },
  {
   "function_name" : "std::__1::chrono::duration_cast",
   "linker_set_key" : "_ZNSt3__16chrono13duration_castINS0_8durationInNS_5ratioILl1ELl1000000000EEEEEnNS3_ILl1ELl1EEEEENS_9enable_ifIXsr13__is_durationIT_EE5valueES8_E4typeERKNS2_IT0_T1_EE",
   "parameters" :
   [
    {
     "referenced_type" : "_ZTIRKNSt3__16chrono8durationInNS_5ratioILl1ELl1EEEEE"
    }
   ],
   "return_type" : "_ZTINSt3__16chrono8durationInNS_5ratioILl1ELl1000000000EEEEE",
   "source_file" : "external/libcxx/include/chrono",
   "template_args" :
   [
    "_ZTINSt3__16chrono8durationInNS_5ratioILl1ELl1000000000EEEEE",
    "_ZTIn",
    "_ZTINSt3__15ratioILl1ELl1EEE"
   ]
  },
  {
   "function_name" : "std::__1::chrono::duration_cast",
   "linker_set_key" : "_ZNSt3__16chrono13duration_castINS0_8durationInNS_5ratioILl1ELl1EEEEEnNS3_ILl1ELl1000000000EEEEENS_9enable_ifIXsr13__is_durationIT_EE5valueES8_E4typeERKNS2_IT0_T1_EE",
   "parameters" :
   [
    {
     "referenced_type" : "_ZTIRKNSt3__16chrono8durationInNS_5ratioILl1ELl1000000000EEEEE"
    }
   ],
   "return_type" : "_ZTINSt3__16chrono8durationInNS_5ratioILl1ELl1EEEEE",
   "source_file" : "external/libcxx/include/chrono",
   "template_args" :
   [
    "_ZTINSt3__16chrono8durationInNS_5ratioILl1ELl1EEEEE",
    "_ZTIn",
    "_ZTINSt3__15ratioILl1ELl1000000000EEE"
   ]
  },
  {
   "function_name" : "std::__1::chrono::duration_cast",
   "linker_set_key" : "_ZNSt3__16chrono13duration_castINS0_8durationIxNS_5ratioILl1ELl1000000000EEEEExNS3_ILl1ELl1EEEEENS_9enable_ifIXsr13__is_durationIT_EE5valueES8_E4typeERKNS2_IT0_T1_EE",
   "parameters" :
   [
    {
     "referenced_type" : "_ZTIRKNSt3__16chrono8durationIxNS_5ratioILl1ELl1EEEEE"
    }
   ],
   "return_type" : "_ZTINSt3__16chrono8durationIxNS_5ratioILl1ELl1000000000EEEEE",
   "source_file" : "external/libcxx/include/chrono",
   "template_args" :
   [
    "_ZTINSt3__16chrono8durationIxNS_5ratioILl1ELl1000000000EEEEE",
    "_ZTIx",
    "_ZTINSt3__15ratioILl1ELl1EEE"
   ]
  },
  {
   "function_name" : "std::__1::chrono::duration_cast",
   "linker_set_key" : "_ZNSt3__16chrono13duration_castINS0_8durationIxNS_5ratioILl1ELl1EEEEExNS3_ILl1ELl1000000000EEEEENS_9enable_ifIXsr13__is_durationIT_EE5valueES8_E4typeERKNS2_IT0_T1_EE",
   "parameters" :
   [
    {
     "referenced_type" : "_ZTIRKNSt3__16chrono8durationIxNS_5ratioILl1ELl1000000000EEEEE"
    }
   ],
   "return_type" : "_ZTINSt3__16chrono8durationIxNS_5ratioILl1ELl1EEEEE",
   "source_file" : "external/libcxx/include/chrono",
   "template_args" :
   [
    "_ZTINSt3__16chrono8durationIxNS_5ratioILl1ELl1EEEEE",
    "_ZTIx",
    "_ZTINSt3__15ratioILl1ELl1000000000EEE"
   ]
  },
  {
   "function_name" : "std::__1::chrono::duration_values<long long>::max",
   "linker_set_key" : "_ZNSt3__16chrono15duration_valuesIxE3maxEv",
   "return_type" : "_ZTIx",
   "source_file" : "external/libcxx/include/chrono"
  },
  {
   "function_name" : "std::__1::chrono::duration<long double, std::__1::ratio<1, 1000000000>>::duration",
   "linker_set_key" : "_ZNSt3__16chrono8durationIeNS_5ratioILl1ELl1000000000EEEEC1Ev",
   "parameters" :
   [
    {
     "is_this_ptr" : true,
     "referenced_type" : "_ZTIPNSt3__16chrono8durationIeNS_5ratioILl1ELl1000000000EEEEE"
    }
   ],
   "return_type" : "_ZTIv",
   "source_file" : "external/libcxx/include/chrono"
  },
  {
   "function_name" : "std::__1::chrono::duration<long double, std::__1::ratio<1, 1000000000>>::duration",
   "linker_set_key" : "_ZNSt3__16chrono8durationIeNS_5ratioILl1ELl1000000000EEEEC1IeEERKT_PNS_9enable_ifIXaasr14is_convertibleIS6_eEE5valueooL_ZNS_17integral_constantIbLb1EE5valueEEntsr23treat_as_floating_pointIS6_EE5valueEvE4typeE",
   "parameters" :
   [
    {
     "is_this_ptr" : true,
     "referenced_type" : "_ZTIPNSt3__16chrono8durationIeNS_5ratioILl1ELl1000000000EEEEE"
    },
    {
     "referenced_type" : "_ZTIRKe"
    },
    {
     "default_arg" : true,
     "referenced_type" : "_ZTIPv"
    }
   ],
   "return_type" : "_ZTIv",
   "source_file" : "external/libcxx/include/chrono",
   "template_args" : [ "_ZTIe" ]
  },
  {
   "function_name" : "std::__1::chrono::duration<long double, std::__1::ratio<1, 1000000000>>::duration",
   "linker_set_key" : "_ZNSt3__16chrono8durationIeNS_5ratioILl1ELl1000000000EEEEC1IxS3_EERKNS1_IT_T0_EEPNS_9enable_ifIXaasr13__no_overflowIS7_S3_EE5valueooL_ZNS_17integral_constantIbLb1EE5valueEEaaeqsr13__no_overflowIS7_S3_E4typeE3denLi1Entsr23treat_as_floating_pointIS6_EE5valueEvE4typeE",
   "parameters" :
   [
    {
     "is_this_ptr" : true,
     "referenced_type" : "_ZTIPNSt3__16chrono8durationIeNS_5ratioILl1ELl1000000000EEEEE"
    },
    {
     "referenced_type" : "_ZTIRKNSt3__16chrono8durationIxNS_5ratioILl1ELl1000000000EEEEE"
    },
    {
     "default_arg" : true,
     "referenced_type" : "_ZTIPv"
    }
   ],
   "return_type" : "_ZTIv",
   "source_file" : "external/libcxx/include/chrono",
   "template_args" : [ "_ZTIx", "_ZTINSt3__15ratioILl1ELl1000000000EEE" ]
  },
  {
   "function_name" : "std::__1::chrono::duration<long double, std::__1::ratio<1, 1000000000>>::duration",
   "linker_set_key" : "_ZNSt3__16chrono8durationIeNS_5ratioILl1ELl1000000000EEEEC2Ev",
   "parameters" :
   [
    {
     "is_this_ptr" : true,
     "referenced_type" : "_ZTIPNSt3__16chrono8durationIeNS_5ratioILl1ELl1000000000EEEEE"
    }
   ],
   "return_type" : "_ZTIv",
   "source_file" : "external/libcxx/include/chrono"
  },
  {
   "function_name" : "std::__1::chrono::duration<long double, std::__1::ratio<1, 1000000000>>::duration",
   "linker_set_key" : "_ZNSt3__16chrono8durationIeNS_5ratioILl1ELl1000000000EEEEC2IeEERKT_PNS_9enable_ifIXaasr14is_convertibleIS6_eEE5valueooL_ZNS_17integral_constantIbLb1EE5valueEEntsr23treat_as_floating_pointIS6_EE5valueEvE4typeE",
   "parameters" :
   [
    {
     "is_this_ptr" : true,
     "referenced_type" : "_ZTIPNSt3__16chrono8durationIeNS_5ratioILl1ELl1000000000EEEEE"
    },
    {
     "referenced_type" : "_ZTIRKe"
    },
    {
     "default_arg" : true,
     "referenced_type" : "_ZTIPv"
    }
   ],
   "return_type" : "_ZTIv",
   "source_file" : "external/libcxx/include/chrono",
   "template_args" : [ "_ZTIe" ]
  },
  {
   "function_name" : "std::__1::chrono::duration<long double, std::__1::ratio<1, 1000000000>>::duration",
   "linker_set_key" : "_ZNSt3__16chrono8durationIeNS_5ratioILl1ELl1000000000EEEEC2IxS3_EERKNS1_IT_T0_EEPNS_9enable_ifIXaasr13__no_overflowIS7_S3_EE5valueooL_ZNS_17integral_constantIbLb1EE5valueEEaaeqsr13__no_overflowIS7_S3_E4typeE3denLi1Entsr23treat_as_floating_pointIS6_EE5valueEvE4typeE",
   "parameters" :
   [
    {
     "is_this_ptr" : true,
     "referenced_type" : "_ZTIPNSt3__16chrono8durationIeNS_5ratioILl1ELl1000000000EEEEE"
    },
    {
     "referenced_type" : "_ZTIRKNSt3__16chrono8durationIxNS_5ratioILl1ELl1000000000EEEEE"
    },
    {
     "default_arg" : true,
     "referenced_type" : "_ZTIPv"
    }
   ],
   "return_type" : "_ZTIv",
   "source_file" : "external/libcxx/include/chrono",
   "template_args" : [ "_ZTIx", "_ZTINSt3__15ratioILl1ELl1000000000EEE" ]
  },
  {
   "function_name" : "std::__1::chrono::duration<long double, std::__1::ratio<1, 1000000>>::duration",
   "linker_set_key" : "_ZNSt3__16chrono8durationIeNS_5ratioILl1ELl1000000EEEEC1Ev",
   "parameters" :
   [
    {
     "is_this_ptr" : true,
     "referenced_type" : "_ZTIPNSt3__16chrono8durationIeNS_5ratioILl1ELl1000000EEEEE"
    }
   ],
   "return_type" : "_ZTIv",
   "source_file" : "external/libcxx/include/chrono"
  },
  {
   "function_name" : "std::__1::chrono::duration<long double, std::__1::ratio<1, 1000000>>::duration",
   "linker_set_key" : "_ZNSt3__16chrono8durationIeNS_5ratioILl1ELl1000000EEEEC1IeEERKT_PNS_9enable_ifIXaasr14is_convertibleIS6_eEE5valueooL_ZNS_17integral_constantIbLb1EE5valueEEntsr23treat_as_floating_pointIS6_EE5valueEvE4typeE",
   "parameters" :
   [
    {
     "is_this_ptr" : true,
     "referenced_type" : "_ZTIPNSt3__16chrono8durationIeNS_5ratioILl1ELl1000000EEEEE"
    },
    {
     "referenced_type" : "_ZTIRKe"
    },
    {
     "default_arg" : true,
     "referenced_type" : "_ZTIPv"
    }
   ],
   "return_type" : "_ZTIv",
   "source_file" : "external/libcxx/include/chrono",
   "template_args" : [ "_ZTIe" ]
  },
  {
   "function_name" : "std::__1::chrono::duration<long double, std::__1::ratio<1, 1000000>>::duration",
   "linker_set_key" : "_ZNSt3__16chrono8durationIeNS_5ratioILl1ELl1000000EEEEC2Ev",
   "parameters" :
   [
    {
     "is_this_ptr" : true,
     "referenced_type" : "_ZTIPNSt3__16chrono8durationIeNS_5ratioILl1ELl1000000EEEEE"
    }
   ],
   "return_type" : "_ZTIv",
   "source_file" : "external/libcxx/include/chrono"
  },
  {
   "function_name" : "std::__1::chrono::duration<long double, std::__1::ratio<1, 1000000>>::duration",
   "linker_set_key" : "_ZNSt3__16chrono8durationIeNS_5ratioILl1ELl1000000EEEEC2IeEERKT_PNS_9enable_ifIXaasr14is_convertibleIS6_eEE5valueooL_ZNS_17integral_constantIbLb1EE5valueEEntsr23treat_as_floating_pointIS6_EE5valueEvE4typeE",
   "parameters" :
   [
    {
     "is_this_ptr" : true,
     "referenced_type" : "_ZTIPNSt3__16chrono8durationIeNS_5ratioILl1ELl1000000EEEEE"
    },
    {
     "referenced_type" : "_ZTIRKe"
    },
    {
     "default_arg" : true,
     "referenced_type" : "_ZTIPv"
    }
   ],
   "return_type" : "_ZTIv",
   "source_file" : "external/libcxx/include/chrono",
   "template_args" : [ "_ZTIe" ]
  },
  {
   "function_name" : "std::__1::chrono::duration<long double, std::__1::ratio<1, 1000>>::duration",
   "linker_set_key" : "_ZNSt3__16chrono8durationIeNS_5ratioILl1ELl1000EEEEC1Ev",
   "parameters" :
   [
    {
     "is_this_ptr" : true,
     "referenced_type" : "_ZTIPNSt3__16chrono8durationIeNS_5ratioILl1ELl1000EEEEE"
    }
   ],
   "return_type" : "_ZTIv",
   "source_file" : "external/libcxx/include/chrono"
  },
  {
   "function_name" : "std::__1::chrono::duration<long double, std::__1::ratio<1, 1000>>::duration",
   "linker_set_key" : "_ZNSt3__16chrono8durationIeNS_5ratioILl1ELl1000EEEEC1IeEERKT_PNS_9enable_ifIXaasr14is_convertibleIS6_eEE5valueooL_ZNS_17integral_constantIbLb1EE5valueEEntsr23treat_as_floating_pointIS6_EE5valueEvE4typeE",
   "parameters" :
   [
    {
     "is_this_ptr" : true,
     "referenced_type" : "_ZTIPNSt3__16chrono8durationIeNS_5ratioILl1ELl1000EEEEE"
    },
    {
     "referenced_type" : "_ZTIRKe"
    },
    {
     "default_arg" : true,
     "referenced_type" : "_ZTIPv"
    }
   ],
   "return_type" : "_ZTIv",
   "source_file" : "external/libcxx/include/chrono",
   "template_args" : [ "_ZTIe" ]
  },
  {
   "function_name" : "std::__1::chrono::duration<long double, std::__1::ratio<1, 1000>>::duration",
   "linker_set_key" : "_ZNSt3__16chrono8durationIeNS_5ratioILl1ELl1000EEEEC2Ev",
   "parameters" :
   [
    {
     "is_this_ptr" : true,
     "referenced_type" : "_ZTIPNSt3__16chrono8durationIeNS_5ratioILl1ELl1000EEEEE"
    }
   ],
   "return_type" : "_ZTIv",
   "source_file" : "external/libcxx/include/chrono"
  },
  {
   "function_name" : "std::__1::chrono::duration<long double, std::__1::ratio<1, 1000>>::duration",
   "linker_set_key" : "_ZNSt3__16chrono8durationIeNS_5ratioILl1ELl1000EEEEC2IeEERKT_PNS_9enable_ifIXaasr14is_convertibleIS6_eEE5valueooL_ZNS_17integral_constantIbLb1EE5valueEEntsr23treat_as_floating_pointIS6_EE5valueEvE4typeE",
   "parameters" :
   [
    {
     "is_this_ptr" : true,
     "referenced_type" : "_ZTIPNSt3__16chrono8durationIeNS_5ratioILl1ELl1000EEEEE"
    },
    {
     "referenced_type" : "_ZTIRKe"
    },
    {
     "default_arg" : true,
     "referenced_type" : "_ZTIPv"
    }
   ],
   "return_type" : "_ZTIv",
   "source_file" : "external/libcxx/include/chrono",
   "template_args" : [ "_ZTIe" ]
  },
  {
   "function_name" : "std::__1::chrono::duration<long double, std::__1::ratio<1, 1>>::duration",
   "linker_set_key" : "_ZNSt3__16chrono8durationIeNS_5ratioILl1ELl1EEEEC1Ev",
   "parameters" :
   [
    {
     "is_this_ptr" : true,
     "referenced_type" : "_ZTIPNSt3__16chrono8durationIeNS_5ratioILl1ELl1EEEEE"
    }
   ],
   "return_type" : "_ZTIv",
   "source_file" : "external/libcxx/include/chrono"
  },
  {
   "function_name" : "std::__1::chrono::duration<long double, std::__1::ratio<1, 1>>::duration",
   "linker_set_key" : "_ZNSt3__16chrono8durationIeNS_5ratioILl1ELl1EEEEC1IeEERKT_PNS_9enable_ifIXaasr14is_convertibleIS6_eEE5valueooL_ZNS_17integral_constantIbLb1EE5valueEEntsr23treat_as_floating_pointIS6_EE5valueEvE4typeE",
   "parameters" :
   [
    {
     "is_this_ptr" : true,
     "referenced_type" : "_ZTIPNSt3__16chrono8durationIeNS_5ratioILl1ELl1EEEEE"
    },
    {
     "referenced_type" : "_ZTIRKe"
    },
    {
     "default_arg" : true,
     "referenced_type" : "_ZTIPv"
    }
   ],
   "return_type" : "_ZTIv",
   "source_file" : "external/libcxx/include/chrono",
   "template_args" : [ "_ZTIe" ]
  },
  {
   "function_name" : "std::__1::chrono::duration<long double, std::__1::ratio<1, 1>>::duration",
   "linker_set_key" : "_ZNSt3__16chrono8durationIeNS_5ratioILl1ELl1EEEEC2Ev",
   "parameters" :
   [
    {
     "is_this_ptr" : true,
     "referenced_type" : "_ZTIPNSt3__16chrono8durationIeNS_5ratioILl1ELl1EEEEE"
    }
   ],
   "return_type" : "_ZTIv",
   "source_file" : "external/libcxx/include/chrono"
  },
  {
   "function_name" : "std::__1::chrono::duration<long double, std::__1::ratio<1, 1>>::duration",
   "linker_set_key" : "_ZNSt3__16chrono8durationIeNS_5ratioILl1ELl1EEEEC2IeEERKT_PNS_9enable_ifIXaasr14is_convertibleIS6_eEE5valueooL_ZNS_17integral_constantIbLb1EE5valueEEntsr23treat_as_floating_pointIS6_EE5valueEvE4typeE",
   "parameters" :
   [
    {
     "is_this_ptr" : true,
     "referenced_type" : "_ZTIPNSt3__16chrono8durationIeNS_5ratioILl1ELl1EEEEE"
    },
    {
     "referenced_type" : "_ZTIRKe"
    },
    {
     "default_arg" : true,
     "referenced_type" : "_ZTIPv"
    }
   ],
   "return_type" : "_ZTIv",
   "source_file" : "external/libcxx/include/chrono",
   "template_args" : [ "_ZTIe" ]
  },
  {
   "function_name" : "std::__1::chrono::duration<long double, std::__1::ratio<3600, 1>>::duration",
   "linker_set_key" : "_ZNSt3__16chrono8durationIeNS_5ratioILl3600ELl1EEEEC1Ev",
   "parameters" :
   [
    {
     "is_this_ptr" : true,
     "referenced_type" : "_ZTIPNSt3__16chrono8durationIeNS_5ratioILl3600ELl1EEEEE"
    }
   ],
   "return_type" : "_ZTIv",
   "source_file" : "external/libcxx/include/chrono"
  },
  {
   "function_name" : "std::__1::chrono::duration<long double, std::__1::ratio<3600, 1>>::duration",
   "linker_set_key" : "_ZNSt3__16chrono8durationIeNS_5ratioILl3600ELl1EEEEC1IeEERKT_PNS_9enable_ifIXaasr14is_convertibleIS6_eEE5valueooL_ZNS_17integral_constantIbLb1EE5valueEEntsr23treat_as_floating_pointIS6_EE5valueEvE4typeE",
   "parameters" :
   [
    {
     "is_this_ptr" : true,
     "referenced_type" : "_ZTIPNSt3__16chrono8durationIeNS_5ratioILl3600ELl1EEEEE"
    },
    {
     "referenced_type" : "_ZTIRKe"
    },
    {
     "default_arg" : true,
     "referenced_type" : "_ZTIPv"
    }
   ],
   "return_type" : "_ZTIv",
   "source_file" : "external/libcxx/include/chrono",
   "template_args" : [ "_ZTIe" ]
  },
  {
   "function_name" : "std::__1::chrono::duration<long double, std::__1::ratio<3600, 1>>::duration",
   "linker_set_key" : "_ZNSt3__16chrono8durationIeNS_5ratioILl3600ELl1EEEEC2Ev",
   "parameters" :
   [
    {
     "is_this_ptr" : true,
     "referenced_type" : "_ZTIPNSt3__16chrono8durationIeNS_5ratioILl3600ELl1EEEEE"
    }
   ],
   "return_type" : "_ZTIv",
   "source_file" : "external/libcxx/include/chrono"
  },
  {
   "function_name" : "std::__1::chrono::duration<long double, std::__1::ratio<3600, 1>>::duration",
   "linker_set_key" : "_ZNSt3__16chrono8durationIeNS_5ratioILl3600ELl1EEEEC2IeEERKT_PNS_9enable_ifIXaasr14is_convertibleIS6_eEE5valueooL_ZNS_17integral_constantIbLb1EE5valueEEntsr23treat_as_floating_pointIS6_EE5valueEvE4typeE",
   "parameters" :
   [
    {
     "is_this_ptr" : true,
     "referenced_type" : "_ZTIPNSt3__16chrono8durationIeNS_5ratioILl3600ELl1EEEEE"
    },
    {
     "referenced_type" : "_ZTIRKe"
    },
    {
     "default_arg" : true,
     "referenced_type" : "_ZTIPv"
    }
   ],
   "return_type" : "_ZTIv",
   "source_file" : "external/libcxx/include/chrono",
   "template_args" : [ "_ZTIe" ]
  },
  {
   "function_name" : "std::__1::chrono::duration<long double, std::__1::ratio<60, 1>>::duration",
   "linker_set_key" : "_ZNSt3__16chrono8durationIeNS_5ratioILl60ELl1EEEEC1Ev",
   "parameters" :
   [
    {
     "is_this_ptr" : true,
     "referenced_type" : "_ZTIPNSt3__16chrono8durationIeNS_5ratioILl60ELl1EEEEE"
    }
   ],
   "return_type" : "_ZTIv",
   "source_file" : "external/libcxx/include/chrono"
  },
  {
   "function_name" : "std::__1::chrono::duration<long double, std::__1::ratio<60, 1>>::duration",
   "linker_set_key" : "_ZNSt3__16chrono8durationIeNS_5ratioILl60ELl1EEEEC1IeEERKT_PNS_9enable_ifIXaasr14is_convertibleIS6_eEE5valueooL_ZNS_17integral_constantIbLb1EE5valueEEntsr23treat_as_floating_pointIS6_EE5valueEvE4typeE",
   "parameters" :
   [
    {
     "is_this_ptr" : true,
     "referenced_type" : "_ZTIPNSt3__16chrono8durationIeNS_5ratioILl60ELl1EEEEE"
    },
    {
     "referenced_type" : "_ZTIRKe"
    },
    {
     "default_arg" : true,
     "referenced_type" : "_ZTIPv"
    }
   ],
   "return_type" : "_ZTIv",
   "source_file" : "external/libcxx/include/chrono",
   "template_args" : [ "_ZTIe" ]
  },
  {
   "function_name" : "std::__1::chrono::duration<long double, std::__1::ratio<60, 1>>::duration",
   "linker_set_key" : "_ZNSt3__16chrono8durationIeNS_5ratioILl60ELl1EEEEC2Ev",
   "parameters" :
   [
    {
     "is_this_ptr" : true,
     "referenced_type" : "_ZTIPNSt3__16chrono8durationIeNS_5ratioILl60ELl1EEEEE"
    }
   ],
   "return_type" : "_ZTIv",
   "source_file" : "external/libcxx/include/chrono"
  },
  {
   "function_name" : "std::__1::chrono::duration<long double, std::__1::ratio<60, 1>>::duration",
   "linker_set_key" : "_ZNSt3__16chrono8durationIeNS_5ratioILl60ELl1EEEEC2IeEERKT_PNS_9enable_ifIXaasr14is_convertibleIS6_eEE5valueooL_ZNS_17integral_constantIbLb1EE5valueEEntsr23treat_as_floating_pointIS6_EE5valueEvE4typeE",
   "parameters" :
   [
    {
     "is_this_ptr" : true,
     "referenced_type" : "_ZTIPNSt3__16chrono8durationIeNS_5ratioILl60ELl1EEEEE"
    },
    {
     "referenced_type" : "_ZTIRKe"
    },
    {
     "default_arg" : true,
     "referenced_type" : "_ZTIPv"
    }
   ],
   "return_type" : "_ZTIv",
   "source_file" : "external/libcxx/include/chrono",
   "template_args" : [ "_ZTIe" ]
  },
  {
   "function_name" : "std::__1::chrono::duration<long, std::__1::ratio<3600, 1>>::duration",
   "linker_set_key" : "_ZNSt3__16chrono8durationIlNS_5ratioILl3600ELl1EEEEC1Ev",
   "parameters" :
   [
    {
     "is_this_ptr" : true,
     "referenced_type" : "_ZTIPNSt3__16chrono8durationIlNS_5ratioILl3600ELl1EEEEE"
    }
   ],
   "return_type" : "_ZTIv",
   "source_file" : "external/libcxx/include/chrono"
  },
  {
   "function_name" : "std::__1::chrono::duration<long, std::__1::ratio<3600, 1>>::duration",
   "linker_set_key" : "_ZNSt3__16chrono8durationIlNS_5ratioILl3600ELl1EEEEC1IlEERKT_PNS_9enable_ifIXaasr14is_convertibleIS6_lEE5valueooL_ZNS_17integral_constantIbLb0EE5valueEEntsr23treat_as_floating_pointIS6_EE5valueEvE4typeE",
   "parameters" :
   [
    {
     "is_this_ptr" : true,
     "referenced_type" : "_ZTIPNSt3__16chrono8durationIlNS_5ratioILl3600ELl1EEEEE"
    },
    {
     "referenced_type" : "_ZTIRKl"
    },
    {
     "default_arg" : true,
     "referenced_type" : "_ZTIPv"
    }
   ],
   "return_type" : "_ZTIv",
   "source_file" : "external/libcxx/include/chrono",
   "template_args" : [ "_ZTIl" ]
  },
  {
   "function_name" : "std::__1::chrono::duration<long, std::__1::ratio<3600, 1>>::duration",
   "linker_set_key" : "_ZNSt3__16chrono8durationIlNS_5ratioILl3600ELl1EEEEC2Ev",
   "parameters" :
   [
    {
     "is_this_ptr" : true,
     "referenced_type" : "_ZTIPNSt3__16chrono8durationIlNS_5ratioILl3600ELl1EEEEE"
    }
   ],
   "return_type" : "_ZTIv",
   "source_file" : "external/libcxx/include/chrono"
  },
  {
   "function_name" : "std::__1::chrono::duration<long, std::__1::ratio<3600, 1>>::duration",
   "linker_set_key" : "_ZNSt3__16chrono8durationIlNS_5ratioILl3600ELl1EEEEC2IlEERKT_PNS_9enable_ifIXaasr14is_convertibleIS6_lEE5valueooL_ZNS_17integral_constantIbLb0EE5valueEEntsr23treat_as_floating_pointIS6_EE5valueEvE4typeE",
   "parameters" :
   [
    {
     "is_this_ptr" : true,
     "referenced_type" : "_ZTIPNSt3__16chrono8durationIlNS_5ratioILl3600ELl1EEEEE"
    },
    {
     "referenced_type" : "_ZTIRKl"
    },
    {
     "default_arg" : true,
     "referenced_type" : "_ZTIPv"
    }
   ],
   "return_type" : "_ZTIv",
   "source_file" : "external/libcxx/include/chrono",
   "template_args" : [ "_ZTIl" ]
  },
  {
   "function_name" : "std::__1::chrono::duration<long, std::__1::ratio<60, 1>>::duration",
   "linker_set_key" : "_ZNSt3__16chrono8durationIlNS_5ratioILl60ELl1EEEEC1Ev",
   "parameters" :
   [
    {
     "is_this_ptr" : true,
     "referenced_type" : "_ZTIPNSt3__16chrono8durationIlNS_5ratioILl60ELl1EEEEE"
    }
   ],
   "return_type" : "_ZTIv",
   "source_file" : "external/libcxx/include/chrono"
  },
  {
   "function_name" : "std::__1::chrono::duration<long, std::__1::ratio<60, 1>>::duration",
   "linker_set_key" : "_ZNSt3__16chrono8durationIlNS_5ratioILl60ELl1EEEEC1IlEERKT_PNS_9enable_ifIXaasr14is_convertibleIS6_lEE5valueooL_ZNS_17integral_constantIbLb0EE5valueEEntsr23treat_as_floating_pointIS6_EE5valueEvE4typeE",
   "parameters" :
   [
    {
     "is_this_ptr" : true,
     "referenced_type" : "_ZTIPNSt3__16chrono8durationIlNS_5ratioILl60ELl1EEEEE"
    },
    {
     "referenced_type" : "_ZTIRKl"
    },
    {
     "default_arg" : true,
     "referenced_type" : "_ZTIPv"
    }
   ],
   "return_type" : "_ZTIv",
   "source_file" : "external/libcxx/include/chrono",
   "template_args" : [ "_ZTIl" ]
  },
  {
   "function_name" : "std::__1::chrono::duration<long, std::__1::ratio<60, 1>>::duration",
   "linker_set_key" : "_ZNSt3__16chrono8durationIlNS_5ratioILl60ELl1EEEEC2Ev",
   "parameters" :
   [
    {
     "is_this_ptr" : true,
     "referenced_type" : "_ZTIPNSt3__16chrono8durationIlNS_5ratioILl60ELl1EEEEE"
    }
   ],
   "return_type" : "_ZTIv",
   "source_file" : "external/libcxx/include/chrono"
  },
  {
   "function_name" : "std::__1::chrono::duration<long, std::__1::ratio<60, 1>>::duration",
   "linker_set_key" : "_ZNSt3__16chrono8durationIlNS_5ratioILl60ELl1EEEEC2IlEERKT_PNS_9enable_ifIXaasr14is_convertibleIS6_lEE5valueooL_ZNS_17integral_constantIbLb0EE5valueEEntsr23treat_as_floating_pointIS6_EE5valueEvE4typeE",
   "parameters" :
   [
    {
     "is_this_ptr" : true,
     "referenced_type" : "_ZTIPNSt3__16chrono8durationIlNS_5ratioILl60ELl1EEEEE"
    },
    {
     "referenced_type" : "_ZTIRKl"
    },
    {
     "default_arg" : true,
     "referenced_type" : "_ZTIPv"
    }
   ],
   "return_type" : "_ZTIv",
   "source_file" : "external/libcxx/include/chrono",
   "template_args" : [ "_ZTIl" ]
  },
  {
   "function_name" : "std::__1::chrono::duration<__int128, std::__1::ratio<1, 1000000000>>::duration",
   "linker_set_key" : "_ZNSt3__16chrono8durationInNS_5ratioILl1ELl1000000000EEEEC1Ev",
   "parameters" :
   [
    {
     "is_this_ptr" : true,
     "referenced_type" : "_ZTIPNSt3__16chrono8durationInNS_5ratioILl1ELl1000000000EEEEE"
    }
   ],
   "return_type" : "_ZTIv",
   "source_file" : "external/libcxx/include/chrono"
  },
  {
   "function_name" : "std::__1::chrono::duration<__int128, std::__1::ratio<1, 1000000000>>::duration",
   "linker_set_key" : "_ZNSt3__16chrono8durationInNS_5ratioILl1ELl1000000000EEEEC1InEERKT_PNS_9enable_ifIXaasr14is_convertibleIS6_nEE5valueooL_ZNS_17integral_constantIbLb0EE5valueEEntsr23treat_as_floating_pointIS6_EE5valueEvE4typeE",
   "parameters" :
   [
    {
     "is_this_ptr" : true,
     "referenced_type" : "_ZTIPNSt3__16chrono8durationInNS_5ratioILl1ELl1000000000EEEEE"
    },
    {
     "referenced_type" : "_ZTIRKn"
    },
    {
     "default_arg" : true,
     "referenced_type" : "_ZTIPv"
    }
   ],
   "return_type" : "_ZTIv",
   "source_file" : "external/libcxx/include/chrono",
   "template_args" : [ "_ZTIn" ]
  },
  {
   "function_name" : "std::__1::chrono::duration<__int128, std::__1::ratio<1, 1000000000>>::duration",
   "linker_set_key" : "_ZNSt3__16chrono8durationInNS_5ratioILl1ELl1000000000EEEEC1InNS2_ILl1ELl1EEEEERKNS1_IT_T0_EEPNS_9enable_ifIXaasr13__no_overflowIS8_S3_EE5valueooL_ZNS_17integral_constantIbLb0EE5valueEEaaeqsr13__no_overflowIS8_S3_E4typeE3denLi1Entsr23treat_as_floating_pointIS7_EE5valueEvE4typeE",
   "parameters" :
   [
    {
     "is_this_ptr" : true,
     "referenced_type" : "_ZTIPNSt3__16chrono8durationInNS_5ratioILl1ELl1000000000EEEEE"
    },
    {
     "referenced_type" : "_ZTIRKNSt3__16chrono8durationInNS_5ratioILl1ELl1EEEEE"
    },
    {
     "default_arg" : true,
     "referenced_type" : "_ZTIPv"
    }
   ],
   "return_type" : "_ZTIv",
   "source_file" : "external/libcxx/include/chrono",
   "template_args" : [ "_ZTIn", "_ZTINSt3__15ratioILl1ELl1EEE" ]
  },
  {
   "function_name" : "std::__1::chrono::duration<__int128, std::__1::ratio<1, 1000000000>>::duration",
   "linker_set_key" : "_ZNSt3__16chrono8durationInNS_5ratioILl1ELl1000000000EEEEC2Ev",
   "parameters" :
   [
    {
     "is_this_ptr" : true,
     "referenced_type" : "_ZTIPNSt3__16chrono8durationInNS_5ratioILl1ELl1000000000EEEEE"
    }
   ],
   "return_type" : "_ZTIv",
   "source_file" : "external/libcxx/include/chrono"
  },
  {
   "function_name" : "std::__1::chrono::duration<__int128, std::__1::ratio<1, 1000000000>>::duration",
   "linker_set_key" : "_ZNSt3__16chrono8durationInNS_5ratioILl1ELl1000000000EEEEC2InEERKT_PNS_9enable_ifIXaasr14is_convertibleIS6_nEE5valueooL_ZNS_17integral_constantIbLb0EE5valueEEntsr23treat_as_floating_pointIS6_EE5valueEvE4typeE",
   "parameters" :
   [
    {
     "is_this_ptr" : true,
     "referenced_type" : "_ZTIPNSt3__16chrono8durationInNS_5ratioILl1ELl1000000000EEEEE"
    },
    {
     "referenced_type" : "_ZTIRKn"
    },
    {
     "default_arg" : true,
     "referenced_type" : "_ZTIPv"
    }
   ],
   "return_type" : "_ZTIv",
   "source_file" : "external/libcxx/include/chrono",
   "template_args" : [ "_ZTIn" ]
  },
  {
   "function_name" : "std::__1::chrono::duration<__int128, std::__1::ratio<1, 1000000000>>::duration",
   "linker_set_key" : "_ZNSt3__16chrono8durationInNS_5ratioILl1ELl1000000000EEEEC2InNS2_ILl1ELl1EEEEERKNS1_IT_T0_EEPNS_9enable_ifIXaasr13__no_overflowIS8_S3_EE5valueooL_ZNS_17integral_constantIbLb0EE5valueEEaaeqsr13__no_overflowIS8_S3_E4typeE3denLi1Entsr23treat_as_floating_pointIS7_EE5valueEvE4typeE",
   "parameters" :
   [
    {
     "is_this_ptr" : true,
     "referenced_type" : "_ZTIPNSt3__16chrono8durationInNS_5ratioILl1ELl1000000000EEEEE"
    },
    {
     "referenced_type" : "_ZTIRKNSt3__16chrono8durationInNS_5ratioILl1ELl1EEEEE"
    },
    {
     "default_arg" : true,
     "referenced_type" : "_ZTIPv"
    }
   ],
   "return_type" : "_ZTIv",
   "source_file" : "external/libcxx/include/chrono",
   "template_args" : [ "_ZTIn", "_ZTINSt3__15ratioILl1ELl1EEE" ]
  },
  {
   "function_name" : "std::__1::chrono::duration<__int128, std::__1::ratio<1, 1>>::duration",
   "linker_set_key" : "_ZNSt3__16chrono8durationInNS_5ratioILl1ELl1EEEEC1Ev",
   "parameters" :
   [
    {
     "is_this_ptr" : true,
     "referenced_type" : "_ZTIPNSt3__16chrono8durationInNS_5ratioILl1ELl1EEEEE"
    }
   ],
   "return_type" : "_ZTIv",
   "source_file" : "external/libcxx/include/chrono"
  },
  {
   "function_name" : "std::__1::chrono::duration<__int128, std::__1::ratio<1, 1>>::duration",
   "linker_set_key" : "_ZNSt3__16chrono8durationInNS_5ratioILl1ELl1EEEEC1IlEERKT_PNS_9enable_ifIXaasr14is_convertibleIS6_nEE5valueooL_ZNS_17integral_constantIbLb0EE5valueEEntsr23treat_as_floating_pointIS6_EE5valueEvE4typeE",
   "parameters" :
   [
    {
     "is_this_ptr" : true,
     "referenced_type" : "_ZTIPNSt3__16chrono8durationInNS_5ratioILl1ELl1EEEEE"
    },
    {
     "referenced_type" : "_ZTIRKl"
    },
    {
     "default_arg" : true,
     "referenced_type" : "_ZTIPv"
    }
   ],
   "return_type" : "_ZTIv",
   "source_file" : "external/libcxx/include/chrono",
   "template_args" : [ "_ZTIl" ]
  },
  {
   "function_name" : "std::__1::chrono::duration<__int128, std::__1::ratio<1, 1>>::duration",
   "linker_set_key" : "_ZNSt3__16chrono8durationInNS_5ratioILl1ELl1EEEEC1InEERKT_PNS_9enable_ifIXaasr14is_convertibleIS6_nEE5valueooL_ZNS_17integral_constantIbLb0EE5valueEEntsr23treat_as_floating_pointIS6_EE5valueEvE4typeE",
   "parameters" :
   [
    {
     "is_this_ptr" : true,
     "referenced_type" : "_ZTIPNSt3__16chrono8durationInNS_5ratioILl1ELl1EEEEE"
    },
    {
     "referenced_type" : "_ZTIRKn"
    },
    {
     "default_arg" : true,
     "referenced_type" : "_ZTIPv"
    }
   ],
   "return_type" : "_ZTIv",
   "source_file" : "external/libcxx/include/chrono",
   "template_args" : [ "_ZTIn" ]
  },
  {
   "function_name" : "std::__1::chrono::duration<__int128, std::__1::ratio<1, 1>>::duration",
   "linker_set_key" : "_ZNSt3__16chrono8durationInNS_5ratioILl1ELl1EEEEC2Ev",
   "parameters" :
   [
    {
     "is_this_ptr" : true,
     "referenced_type" : "_ZTIPNSt3__16chrono8durationInNS_5ratioILl1ELl1EEEEE"
    }
   ],
   "return_type" : "_ZTIv",
   "source_file" : "external/libcxx/include/chrono"
  },
  {
   "function_name" : "std::__1::chrono::duration<__int128, std::__1::ratio<1, 1>>::duration",
   "linker_set_key" : "_ZNSt3__16chrono8durationInNS_5ratioILl1ELl1EEEEC2IlEERKT_PNS_9enable_ifIXaasr14is_convertibleIS6_nEE5valueooL_ZNS_17integral_constantIbLb0EE5valueEEntsr23treat_as_floating_pointIS6_EE5valueEvE4typeE",
   "parameters" :
   [
    {
     "is_this_ptr" : true,
     "referenced_type" : "_ZTIPNSt3__16chrono8durationInNS_5ratioILl1ELl1EEEEE"
    },
    {
     "referenced_type" : "_ZTIRKl"
    },
    {
     "default_arg" : true,
     "referenced_type" : "_ZTIPv"
    }
   ],
   "return_type" : "_ZTIv",
   "source_file" : "external/libcxx/include/chrono",
   "template_args" : [ "_ZTIl" ]
  },
  {
   "function_name" : "std::__1::chrono::duration<__int128, std::__1::ratio<1, 1>>::duration",
   "linker_set_key" : "_ZNSt3__16chrono8durationInNS_5ratioILl1ELl1EEEEC2InEERKT_PNS_9enable_ifIXaasr14is_convertibleIS6_nEE5valueooL_ZNS_17integral_constantIbLb0EE5valueEEntsr23treat_as_floating_pointIS6_EE5valueEvE4typeE",
   "parameters" :
   [
    {
     "is_this_ptr" : true,
     "referenced_type" : "_ZTIPNSt3__16chrono8durationInNS_5ratioILl1ELl1EEEEE"
    },
    {
     "referenced_type" : "_ZTIRKn"
    },
    {
     "default_arg" : true,
     "referenced_type" : "_ZTIPv"
    }
   ],
   "return_type" : "_ZTIv",
   "source_file" : "external/libcxx/include/chrono",
   "template_args" : [ "_ZTIn" ]
  },
  {
   "function_name" : "std::__1::chrono::duration<long long, std::__1::ratio<1, 1000000000>>::max",
   "linker_set_key" : "_ZNSt3__16chrono8durationIxNS_5ratioILl1ELl1000000000EEEE3maxEv",
   "return_type" : "_ZTINSt3__16chrono8durationIxNS_5ratioILl1ELl1000000000EEEEE",
   "source_file" : "external/libcxx/include/chrono"
  },
  {
   "function_name" : "std::__1::chrono::duration<long long, std::__1::ratio<1, 1000000000>>::duration",
   "linker_set_key" : "_ZNSt3__16chrono8durationIxNS_5ratioILl1ELl1000000000EEEEC1Ev",
   "parameters" :
   [
    {
     "is_this_ptr" : true,
     "referenced_type" : "_ZTIPNSt3__16chrono8durationIxNS_5ratioILl1ELl1000000000EEEEE"
    }
   ],
   "return_type" : "_ZTIv",
   "source_file" : "external/libcxx/include/chrono"
  },
  {
   "function_name" : "std::__1::chrono::duration<long long, std::__1::ratio<1, 1000000000>>::duration",
   "linker_set_key" : "_ZNSt3__16chrono8durationIxNS_5ratioILl1ELl1000000000EEEEC1IxEERKT_PNS_9enable_ifIXaasr14is_convertibleIS6_xEE5valueooL_ZNS_17integral_constantIbLb0EE5valueEEntsr23treat_as_floating_pointIS6_EE5valueEvE4typeE",
   "parameters" :
   [
    {
     "is_this_ptr" : true,
     "referenced_type" : "_ZTIPNSt3__16chrono8durationIxNS_5ratioILl1ELl1000000000EEEEE"
    },
    {
     "referenced_type" : "_ZTIRKx"
    },
    {
     "default_arg" : true,
     "referenced_type" : "_ZTIPv"
    }
   ],
   "return_type" : "_ZTIv",
   "source_file" : "external/libcxx/include/chrono",
   "template_args" : [ "_ZTIx" ]
  },
  {
   "function_name" : "std::__1::chrono::duration<long long, std::__1::ratio<1, 1000000000>>::duration",
   "linker_set_key" : "_ZNSt3__16chrono8durationIxNS_5ratioILl1ELl1000000000EEEEC1IxNS2_ILl1ELl1EEEEERKNS1_IT_T0_EEPNS_9enable_ifIXaasr13__no_overflowIS8_S3_EE5valueooL_ZNS_17integral_constantIbLb0EE5valueEEaaeqsr13__no_overflowIS8_S3_E4typeE3denLi1Entsr23treat_as_floating_pointIS7_EE5valueEvE4typeE",
   "parameters" :
   [
    {
     "is_this_ptr" : true,
     "referenced_type" : "_ZTIPNSt3__16chrono8durationIxNS_5ratioILl1ELl1000000000EEEEE"
    },
    {
     "referenced_type" : "_ZTIRKNSt3__16chrono8durationIxNS_5ratioILl1ELl1EEEEE"
    },
    {
     "default_arg" : true,
     "referenced_type" : "_ZTIPv"
    }
   ],
   "return_type" : "_ZTIv",
   "source_file" : "external/libcxx/include/chrono",
   "template_args" : [ "_ZTIx", "_ZTINSt3__15ratioILl1ELl1EEE" ]
  },
  {
   "function_name" : "std::__1::chrono::duration<long long, std::__1::ratio<1, 1000000000>>::duration",
   "linker_set_key" : "_ZNSt3__16chrono8durationIxNS_5ratioILl1ELl1000000000EEEEC2Ev",
   "parameters" :
   [
    {
     "is_this_ptr" : true,
     "referenced_type" : "_ZTIPNSt3__16chrono8durationIxNS_5ratioILl1ELl1000000000EEEEE"
    }
   ],
   "return_type" : "_ZTIv",
   "source_file" : "external/libcxx/include/chrono"
  },
  {
   "function_name" : "std::__1::chrono::duration<long long, std::__1::ratio<1, 1000000000>>::duration",
   "linker_set_key" : "_ZNSt3__16chrono8durationIxNS_5ratioILl1ELl1000000000EEEEC2IxEERKT_PNS_9enable_ifIXaasr14is_convertibleIS6_xEE5valueooL_ZNS_17integral_constantIbLb0EE5valueEEntsr23treat_as_floating_pointIS6_EE5valueEvE4typeE",
   "parameters" :
   [
    {
     "is_this_ptr" : true,
     "referenced_type" : "_ZTIPNSt3__16chrono8durationIxNS_5ratioILl1ELl1000000000EEEEE"
    },
    {
     "referenced_type" : "_ZTIRKx"
    },
    {
     "default_arg" : true,
     "referenced_type" : "_ZTIPv"
    }
   ],
   "return_type" : "_ZTIv",
   "source_file" : "external/libcxx/include/chrono",
   "template_args" : [ "_ZTIx" ]
  },
  {
   "function_name" : "std::__1::chrono::duration<long long, std::__1::ratio<1, 1000000000>>::duration",
   "linker_set_key" : "_ZNSt3__16chrono8durationIxNS_5ratioILl1ELl1000000000EEEEC2IxNS2_ILl1ELl1EEEEERKNS1_IT_T0_EEPNS_9enable_ifIXaasr13__no_overflowIS8_S3_EE5valueooL_ZNS_17integral_constantIbLb0EE5valueEEaaeqsr13__no_overflowIS8_S3_E4typeE3denLi1Entsr23treat_as_floating_pointIS7_EE5valueEvE4typeE",
   "parameters" :
   [
    {
     "is_this_ptr" : true,
     "referenced_type" : "_ZTIPNSt3__16chrono8durationIxNS_5ratioILl1ELl1000000000EEEEE"
    },
    {
     "referenced_type" : "_ZTIRKNSt3__16chrono8durationIxNS_5ratioILl1ELl1EEEEE"
    },
    {
     "default_arg" : true,
     "referenced_type" : "_ZTIPv"
    }
   ],
   "return_type" : "_ZTIv",
   "source_file" : "external/libcxx/include/chrono",
   "template_args" : [ "_ZTIx", "_ZTINSt3__15ratioILl1ELl1EEE" ]
  },
  {
   "function_name" : "std::__1::chrono::duration<long long, std::__1::ratio<1, 1000000>>::duration",
   "linker_set_key" : "_ZNSt3__16chrono8durationIxNS_5ratioILl1ELl1000000EEEEC1Ev",
   "parameters" :
   [
    {
     "is_this_ptr" : true,
     "referenced_type" : "_ZTIPNSt3__16chrono8durationIxNS_5ratioILl1ELl1000000EEEEE"
    }
   ],
   "return_type" : "_ZTIv",
   "source_file" : "external/libcxx/include/chrono"
  },
  {
   "function_name" : "std::__1::chrono::duration<long long, std::__1::ratio<1, 1000000>>::duration",
   "linker_set_key" : "_ZNSt3__16chrono8durationIxNS_5ratioILl1ELl1000000EEEEC1IxEERKT_PNS_9enable_ifIXaasr14is_convertibleIS6_xEE5valueooL_ZNS_17integral_constantIbLb0EE5valueEEntsr23treat_as_floating_pointIS6_EE5valueEvE4typeE",
   "parameters" :
   [
    {
     "is_this_ptr" : true,
     "referenced_type" : "_ZTIPNSt3__16chrono8durationIxNS_5ratioILl1ELl1000000EEEEE"
    },
    {
     "referenced_type" : "_ZTIRKx"
    },
    {
     "default_arg" : true,
     "referenced_type" : "_ZTIPv"
    }
   ],
   "return_type" : "_ZTIv",
   "source_file" : "external/libcxx/include/chrono",
   "template_args" : [ "_ZTIx" ]
  },
  {
   "function_name" : "std::__1::chrono::duration<long long, std::__1::ratio<1, 1000000>>::duration",
   "linker_set_key" : "_ZNSt3__16chrono8durationIxNS_5ratioILl1ELl1000000EEEEC2Ev",
   "parameters" :
   [
    {
     "is_this_ptr" : true,
     "referenced_type" : "_ZTIPNSt3__16chrono8durationIxNS_5ratioILl1ELl1000000EEEEE"
    }
   ],
   "return_type" : "_ZTIv",
   "source_file" : "external/libcxx/include/chrono"
  },
  {
   "function_name" : "std::__1::chrono::duration<long long, std::__1::ratio<1, 1000000>>::duration",
   "linker_set_key" : "_ZNSt3__16chrono8durationIxNS_5ratioILl1ELl1000000EEEEC2IxEERKT_PNS_9enable_ifIXaasr14is_convertibleIS6_xEE5valueooL_ZNS_17integral_constantIbLb0EE5valueEEntsr23treat_as_floating_pointIS6_EE5valueEvE4typeE",
   "parameters" :
   [
    {
     "is_this_ptr" : true,
     "referenced_type" : "_ZTIPNSt3__16chrono8durationIxNS_5ratioILl1ELl1000000EEEEE"
    },
    {
     "referenced_type" : "_ZTIRKx"
    },
    {
     "default_arg" : true,
     "referenced_type" : "_ZTIPv"
    }
   ],
   "return_type" : "_ZTIv",
   "source_file" : "external/libcxx/include/chrono",
   "template_args" : [ "_ZTIx" ]
  },
  {
   "function_name" : "std::__1::chrono::duration<long long, std::__1::ratio<1, 1000>>::duration",
   "linker_set_key" : "_ZNSt3__16chrono8durationIxNS_5ratioILl1ELl1000EEEEC1Ev",
   "parameters" :
   [
    {
     "is_this_ptr" : true,
     "referenced_type" : "_ZTIPNSt3__16chrono8durationIxNS_5ratioILl1ELl1000EEEEE"
    }
   ],
   "return_type" : "_ZTIv",
   "source_file" : "external/libcxx/include/chrono"
  },
  {
   "function_name" : "std::__1::chrono::duration<long long, std::__1::ratio<1, 1000>>::duration",
   "linker_set_key" : "_ZNSt3__16chrono8durationIxNS_5ratioILl1ELl1000EEEEC1IxEERKT_PNS_9enable_ifIXaasr14is_convertibleIS6_xEE5valueooL_ZNS_17integral_constantIbLb0EE5valueEEntsr23treat_as_floating_pointIS6_EE5valueEvE4typeE",
   "parameters" :
   [
    {
     "is_this_ptr" : true,
     "referenced_type" : "_ZTIPNSt3__16chrono8durationIxNS_5ratioILl1ELl1000EEEEE"
    },
    {
     "referenced_type" : "_ZTIRKx"
    },
    {
     "default_arg" : true,
     "referenced_type" : "_ZTIPv"
    }
   ],
   "return_type" : "_ZTIv",
   "source_file" : "external/libcxx/include/chrono",
   "template_args" : [ "_ZTIx" ]
  },
  {
   "function_name" : "std::__1::chrono::duration<long long, std::__1::ratio<1, 1000>>::duration",
   "linker_set_key" : "_ZNSt3__16chrono8durationIxNS_5ratioILl1ELl1000EEEEC2Ev",
   "parameters" :
   [
    {
     "is_this_ptr" : true,
     "referenced_type" : "_ZTIPNSt3__16chrono8durationIxNS_5ratioILl1ELl1000EEEEE"
    }
   ],
   "return_type" : "_ZTIv",
   "source_file" : "external/libcxx/include/chrono"
  },
  {
   "function_name" : "std::__1::chrono::duration<long long, std::__1::ratio<1, 1000>>::duration",
   "linker_set_key" : "_ZNSt3__16chrono8durationIxNS_5ratioILl1ELl1000EEEEC2IxEERKT_PNS_9enable_ifIXaasr14is_convertibleIS6_xEE5valueooL_ZNS_17integral_constantIbLb0EE5valueEEntsr23treat_as_floating_pointIS6_EE5valueEvE4typeE",
   "parameters" :
   [
    {
     "is_this_ptr" : true,
     "referenced_type" : "_ZTIPNSt3__16chrono8durationIxNS_5ratioILl1ELl1000EEEEE"
    },
    {
     "referenced_type" : "_ZTIRKx"
    },
    {
     "default_arg" : true,
     "referenced_type" : "_ZTIPv"
    }
   ],
   "return_type" : "_ZTIv",
   "source_file" : "external/libcxx/include/chrono",
   "template_args" : [ "_ZTIx" ]
  },
  {
   "function_name" : "std::__1::chrono::duration<long long, std::__1::ratio<1, 1>>::duration",
   "linker_set_key" : "_ZNSt3__16chrono8durationIxNS_5ratioILl1ELl1EEEEC1Ev",
   "parameters" :
   [
    {
     "is_this_ptr" : true,
     "referenced_type" : "_ZTIPNSt3__16chrono8durationIxNS_5ratioILl1ELl1EEEEE"
    }
   ],
   "return_type" : "_ZTIv",
   "source_file" : "external/libcxx/include/chrono"
  },
  {
   "function_name" : "std::__1::chrono::duration<long long, std::__1::ratio<1, 1>>::duration",
   "linker_set_key" : "_ZNSt3__16chrono8durationIxNS_5ratioILl1ELl1EEEEC1IxEERKT_PNS_9enable_ifIXaasr14is_convertibleIS6_xEE5valueooL_ZNS_17integral_constantIbLb0EE5valueEEntsr23treat_as_floating_pointIS6_EE5valueEvE4typeE",
   "parameters" :
   [
    {
     "is_this_ptr" : true,
     "referenced_type" : "_ZTIPNSt3__16chrono8durationIxNS_5ratioILl1ELl1EEEEE"
    },
    {
     "referenced_type" : "_ZTIRKx"
    },
    {
     "default_arg" : true,
     "referenced_type" : "_ZTIPv"
    }
   ],
   "return_type" : "_ZTIv",
   "source_file" : "external/libcxx/include/chrono",
   "template_args" : [ "_ZTIx" ]
  },
  {
   "function_name" : "std::__1::chrono::duration<long long, std::__1::ratio<1, 1>>::duration",
   "linker_set_key" : "_ZNSt3__16chrono8durationIxNS_5ratioILl1ELl1EEEEC2Ev",
   "parameters" :
   [
    {
     "is_this_ptr" : true,
     "referenced_type" : "_ZTIPNSt3__16chrono8durationIxNS_5ratioILl1ELl1EEEEE"
    }
   ],
   "return_type" : "_ZTIv",
   "source_file" : "external/libcxx/include/chrono"
  },
  {
   "function_name" : "std::__1::chrono::duration<long long, std::__1::ratio<1, 1>>::duration",
   "linker_set_key" : "_ZNSt3__16chrono8durationIxNS_5ratioILl1ELl1EEEEC2IxEERKT_PNS_9enable_ifIXaasr14is_convertibleIS6_xEE5valueooL_ZNS_17integral_constantIbLb0EE5valueEEntsr23treat_as_floating_pointIS6_EE5valueEvE4typeE",
   "parameters" :
   [
    {
     "is_this_ptr" : true,
     "referenced_type" : "_ZTIPNSt3__16chrono8durationIxNS_5ratioILl1ELl1EEEEE"
    },
    {
     "referenced_type" : "_ZTIRKx"
    },
    {
     "default_arg" : true,
     "referenced_type" : "_ZTIPv"
    }
   ],
   "return_type" : "_ZTIv",
   "source_file" : "external/libcxx/include/chrono",
   "template_args" : [ "_ZTIx" ]
  },
  {
   "function_name" : "std::__1::chrono::operator-",
   "linker_set_key" : "_ZNSt3__16chronomiINS0_12steady_clockENS0_8durationIxNS_5ratioILl1ELl1000000000EEEEES6_EENS_11common_typeIJT0_T1_EE4typeERKNS0_10time_pointIT_S8_EERKNSC_ISD_S9_EE",
   "parameters" :
   [
    {
     "referenced_type" : "_ZTIRKNSt3__16chrono10time_pointINS0_12steady_clockENS0_8durationIxNS_5ratioILl1ELl1000000000EEEEEEE"
    },
    {
     "referenced_type" : "_ZTIRKNSt3__16chrono10time_pointINS0_12steady_clockENS0_8durationIxNS_5ratioILl1ELl1000000000EEEEEEE"
    }
   ],
   "return_type" : "_ZTINSt3__16chrono8durationIxNS_5ratioILl1ELl1000000000EEEEE",
   "source_file" : "external/libcxx/include/chrono",
   "template_args" :
   [
    "_ZTINSt3__16chrono12steady_clockE",
    "_ZTINSt3__16chrono8durationIxNS_5ratioILl1ELl1000000000EEEEE",
    "_ZTINSt3__16chrono8durationIxNS_5ratioILl1ELl1000000000EEEEE"
   ]
  },
  {
   "function_name" : "std::__1::chrono::operator-",
   "linker_set_key" : "_ZNSt3__16chronomiIxNS_5ratioILl1ELl1000000000EEExNS2_ILl1ELl1EEEEENS_11common_typeIJNS0_8durationIT_T0_EENS6_IT1_T2_EEEE4typeERKS9_RKSC_",
   "parameters" :
   [
    {
     "referenced_type" : "_ZTIRKNSt3__16chrono8durationIxNS_5ratioILl1ELl1000000000EEEEE"
    },
    {
     "referenced_type" : "_ZTIRKNSt3__16chrono8durationIxNS_5ratioILl1ELl1EEEEE"
    }
   ],
   "return_type" : "_ZTINSt3__16chrono8durationIxNS_5ratioILl1ELl1000000000EEEEE",
   "source_file" : "external/libcxx/include/chrono",
   "template_args" :
   [
    "_ZTIx",
    "_ZTINSt3__15ratioILl1ELl1000000000EEE",
    "_ZTIx",
    "_ZTINSt3__15ratioILl1ELl1EEE"
   ]
  },
  {
   "function_name" : "std::__1::chrono::operator-",
   "linker_set_key" : "_ZNSt3__16chronomiIxNS_5ratioILl1ELl1000000000EEExS3_EENS_11common_typeIJNS0_8durationIT_T0_EENS5_IT1_T2_EEEE4typeERKS8_RKSB_",
   "parameters" :
   [
    {
     "referenced_type" : "_ZTIRKNSt3__16chrono8durationIxNS_5ratioILl1ELl1000000000EEEEE"
    },
    {
     "referenced_type" : "_ZTIRKNSt3__16chrono8durationIxNS_5ratioILl1ELl1000000000EEEEE"
    }
   ],
   "return_type" : "_ZTINSt3__16chrono8durationIxNS_5ratioILl1ELl1000000000EEEEE",
   "source_file" : "external/libcxx/include/chrono",
   "template_args" :
   [
    "_ZTIx",
    "_ZTINSt3__15ratioILl1ELl1000000000EEE",
    "_ZTIx",
    "_ZTINSt3__15ratioILl1ELl1000000000EEE"
   ]
  },
  {
   "access" : "private",
   "function_name" : "std::__1::vector<piex::binary_parse::CachedPagedByteArray::CachedPage, std::__1::allocator<piex::binary_parse::CachedPagedByteArray::CachedPage>>::__make_iter",
   "linker_set_key" : "_ZNSt3__16vectorIN4piex12binary_parse20CachedPagedByteArray10CachedPageENS_9allocatorIS4_EEE11__make_iterEPS4_",
   "parameters" :
   [
    {
     "is_this_ptr" : true,
     "referenced_type" : "_ZTIPNSt3__16vectorIN4piex12binary_parse20CachedPagedByteArray10CachedPageENS_9allocatorIS4_EEEE"
    },
    {
     "referenced_type" : "_ZTIPN4piex12binary_parse20CachedPagedByteArray10CachedPageE"
    }
   ],
   "return_type" : "_ZTINSt3__111__wrap_iterIPN4piex12binary_parse20CachedPagedByteArray10CachedPageEEE",
   "source_file" : "external/libcxx/include/vector"
  },
  {
   "access" : "private",
   "function_name" : "std::__1::vector<piex::binary_parse::CachedPagedByteArray::CachedPage, std::__1::allocator<piex::binary_parse::CachedPagedByteArray::CachedPage>>::__destruct_at_end",
   "linker_set_key" : "_ZNSt3__16vectorIN4piex12binary_parse20CachedPagedByteArray10CachedPageENS_9allocatorIS4_EEE17__destruct_at_endEPS4_",
   "parameters" :
   [
    {
     "is_this_ptr" : true,
     "referenced_type" : "_ZTIPNSt3__16vectorIN4piex12binary_parse20CachedPagedByteArray10CachedPageENS_9allocatorIS4_EEEE"
    },
    {
     "referenced_type" : "_ZTIPN4piex12binary_parse20CachedPagedByteArray10CachedPageE"
    }
   ],
   "return_type" : "_ZTIv",
   "source_file" : "external/libcxx/include/vector"
  },
  {
   "access" : "private",
   "function_name" : "std::__1::vector<piex::binary_parse::CachedPagedByteArray::CachedPage, std::__1::allocator<piex::binary_parse::CachedPagedByteArray::CachedPage>>::__push_back_slow_path",
   "linker_set_key" : "_ZNSt3__16vectorIN4piex12binary_parse20CachedPagedByteArray10CachedPageENS_9allocatorIS4_EEE21__push_back_slow_pathIRKS4_EEvOT_",
   "parameters" :
   [
    {
     "is_this_ptr" : true,
     "referenced_type" : "_ZTIPNSt3__16vectorIN4piex12binary_parse20CachedPagedByteArray10CachedPageENS_9allocatorIS4_EEEE"
    },
    {
     "referenced_type" : "_ZTIRKN4piex12binary_parse20CachedPagedByteArray10CachedPageE"
    }
   ],
   "return_type" : "_ZTIv",
   "source_file" : "external/libcxx/include/vector",
   "template_args" : [ "_ZTIRKN4piex12binary_parse20CachedPagedByteArray10CachedPageE" ]
  },
  {
   "function_name" : "std::__1::vector<piex::binary_parse::CachedPagedByteArray::CachedPage, std::__1::allocator<piex::binary_parse::CachedPagedByteArray::CachedPage>>::__RAII_IncreaseAnnotator::__done",
   "linker_set_key" : "_ZNSt3__16vectorIN4piex12binary_parse20CachedPagedByteArray10CachedPageENS_9allocatorIS4_EEE24__RAII_IncreaseAnnotator6__doneEv",
   "parameters" :
   [
    {
     "is_this_ptr" : true,
     "referenced_type" : "_ZTIPNSt3__16vectorIN4piex12binary_parse20CachedPagedByteArray10CachedPageENS_9allocatorIS4_EEE24__RAII_IncreaseAnnotatorE"
    }
   ],
   "return_type" : "_ZTIv",
   "source_file" : "external/libcxx/include/vector"
  },
  {
   "function_name" : "std::__1::vector<piex::binary_parse::CachedPagedByteArray::CachedPage, std::__1::allocator<piex::binary_parse::CachedPagedByteArray::CachedPage>>::__RAII_IncreaseAnnotator::__RAII_IncreaseAnnotator",
   "linker_set_key" : "_ZNSt3__16vectorIN4piex12binary_parse20CachedPagedByteArray10CachedPageENS_9allocatorIS4_EEE24__RAII_IncreaseAnnotatorC1ERKS7_m",
   "parameters" :
   [
    {
     "is_this_ptr" : true,
     "referenced_type" : "_ZTIPNSt3__16vectorIN4piex12binary_parse20CachedPagedByteArray10CachedPageENS_9allocatorIS4_EEE24__RAII_IncreaseAnnotatorE"
    },
    {
     "referenced_type" : "_ZTIRKNSt3__16vectorIN4piex12binary_parse20CachedPagedByteArray10CachedPageENS_9allocatorIS4_EEEE"
    },
    {
     "default_arg" : true,
     "referenced_type" : "_ZTIm"
    }
   ],
   "return_type" : "_ZTIv",
   "source_file" : "external/libcxx/include/vector"
  },
  {
   "function_name" : "std::__1::vector<piex::binary_parse::CachedPagedByteArray::CachedPage, std::__1::allocator<piex::binary_parse::CachedPagedByteArray::CachedPage>>::__RAII_IncreaseAnnotator::__RAII_IncreaseAnnotator",
   "linker_set_key" : "_ZNSt3__16vectorIN4piex12binary_parse20CachedPagedByteArray10CachedPageENS_9allocatorIS4_EEE24__RAII_IncreaseAnnotatorC2ERKS7_m",
   "parameters" :
   [
    {
     "is_this_ptr" : true,
     "referenced_type" : "_ZTIPNSt3__16vectorIN4piex12binary_parse20CachedPagedByteArray10CachedPageENS_9allocatorIS4_EEE24__RAII_IncreaseAnnotatorE"
    },
    {
     "referenced_type" : "_ZTIRKNSt3__16vectorIN4piex12binary_parse20CachedPagedByteArray10CachedPageENS_9allocatorIS4_EEEE"
    },
    {
     "default_arg" : true,
     "referenced_type" : "_ZTIm"
    }
   ],
   "return_type" : "_ZTIv",
   "source_file" : "external/libcxx/include/vector"
  },
  {
   "access" : "private",
   "function_name" : "std::__1::vector<piex::binary_parse::CachedPagedByteArray::CachedPage, std::__1::allocator<piex::binary_parse::CachedPagedByteArray::CachedPage>>::__invalidate_all_iterators",
   "linker_set_key" : "_ZNSt3__16vectorIN4piex12binary_parse20CachedPagedByteArray10CachedPageENS_9allocatorIS4_EEE26__invalidate_all_iteratorsEv",
   "parameters" :
   [
    {
     "is_this_ptr" : true,
     "referenced_type" : "_ZTIPNSt3__16vectorIN4piex12binary_parse20CachedPagedByteArray10CachedPageENS_9allocatorIS4_EEEE"
    }
   ],
   "return_type" : "_ZTIv",
   "source_file" : "external/libcxx/include/vector"
  },
  {
   "access" : "private",
   "function_name" : "std::__1::vector<piex::binary_parse::CachedPagedByteArray::CachedPage, std::__1::allocator<piex::binary_parse::CachedPagedByteArray::CachedPage>>::__swap_out_circular_buffer",
   "linker_set_key" : "_ZNSt3__16vectorIN4piex12binary_parse20CachedPagedByteArray10CachedPageENS_9allocatorIS4_EEE26__swap_out_circular_bufferERNS_14__split_bufferIS4_RS6_EE",
   "parameters" :
   [
    {
     "is_this_ptr" : true,
     "referenced_type" : "_ZTIPNSt3__16vectorIN4piex12binary_parse20CachedPagedByteArray10CachedPageENS_9allocatorIS4_EEEE"
    },
    {
     "referenced_type" : "_ZTIRNSt3__114__split_bufferIN4piex12binary_parse20CachedPagedByteArray10CachedPageERNS_9allocatorIS4_EEEE"
    }
   ],
   "return_type" : "_ZTIv",
   "source_file" : "external/libcxx/include/vector"
  },
  {
   "access" : "private",
   "function_name" : "std::__1::vector<piex::binary_parse::CachedPagedByteArray::CachedPage, std::__1::allocator<piex::binary_parse::CachedPagedByteArray::CachedPage>>::__invalidate_iterators_past",
   "linker_set_key" : "_ZNSt3__16vectorIN4piex12binary_parse20CachedPagedByteArray10CachedPageENS_9allocatorIS4_EEE27__invalidate_iterators_pastEPS4_",
   "parameters" :
   [
    {
     "is_this_ptr" : true,
     "referenced_type" : "_ZTIPNSt3__16vectorIN4piex12binary_parse20CachedPagedByteArray10CachedPageENS_9allocatorIS4_EEEE"
    },
    {
     "referenced_type" : "_ZTIPN4piex12binary_parse20CachedPagedByteArray10CachedPageE"
    }
   ],
   "return_type" : "_ZTIv",
   "source_file" : "external/libcxx/include/vector"
  },
  {
   "function_name" : "std::__1::vector<piex::binary_parse::CachedPagedByteArray::CachedPage, std::__1::allocator<piex::binary_parse::CachedPagedByteArray::CachedPage>>::begin",
   "linker_set_key" : "_ZNSt3__16vectorIN4piex12binary_parse20CachedPagedByteArray10CachedPageENS_9allocatorIS4_EEE5beginEv",
   "parameters" :
   [
    {
     "is_this_ptr" : true,
     "referenced_type" : "_ZTIPNSt3__16vectorIN4piex12binary_parse20CachedPagedByteArray10CachedPageENS_9allocatorIS4_EEEE"
    }
   ],
   "return_type" : "_ZTINSt3__111__wrap_iterIPN4piex12binary_parse20CachedPagedByteArray10CachedPageEEE",
   "source_file" : "external/libcxx/include/vector"
  },
  {
   "function_name" : "std::__1::vector<piex::binary_parse::CachedPagedByteArray::CachedPage, std::__1::allocator<piex::binary_parse::CachedPagedByteArray::CachedPage>>::erase",
   "linker_set_key" : "_ZNSt3__16vectorIN4piex12binary_parse20CachedPagedByteArray10CachedPageENS_9allocatorIS4_EEE5eraseENS_11__wrap_iterIPKS4_EE",
   "parameters" :
   [
    {
     "is_this_ptr" : true,
     "referenced_type" : "_ZTIPNSt3__16vectorIN4piex12binary_parse20CachedPagedByteArray10CachedPageENS_9allocatorIS4_EEEE"
    },
    {
     "referenced_type" : "_ZTINSt3__111__wrap_iterIPKN4piex12binary_parse20CachedPagedByteArray10CachedPageEEE"
    }
   ],
   "return_type" : "_ZTINSt3__111__wrap_iterIPN4piex12binary_parse20CachedPagedByteArray10CachedPageEEE",
   "source_file" : "external/libcxx/include/vector"
  },
  {
   "function_name" : "std::__1::vector<piex::binary_parse::CachedPagedByteArray::CachedPage, std::__1::allocator<piex::binary_parse::CachedPagedByteArray::CachedPage>>::push_back",
   "linker_set_key" : "_ZNSt3__16vectorIN4piex12binary_parse20CachedPagedByteArray10CachedPageENS_9allocatorIS4_EEE9push_backERKS4_",
   "parameters" :
   [
    {
     "is_this_ptr" : true,
     "referenced_type" : "_ZTIPNSt3__16vectorIN4piex12binary_parse20CachedPagedByteArray10CachedPageENS_9allocatorIS4_EEEE"
    },
    {
     "referenced_type" : "_ZTIRKN4piex12binary_parse20CachedPagedByteArray10CachedPageE"
    }
   ],
   "return_type" : "_ZTIv",
   "source_file" : "external/libcxx/include/vector"
  },
  {
   "function_name" : "std::__1::vector<piex::binary_parse::CachedPagedByteArray::CachedPage, std::__1::allocator<piex::binary_parse::CachedPagedByteArray::CachedPage>>::vector",
   "linker_set_key" : "_ZNSt3__16vectorIN4piex12binary_parse20CachedPagedByteArray10CachedPageENS_9allocatorIS4_EEEC1Ev",
   "parameters" :
   [
    {
     "is_this_ptr" : true,
     "referenced_type" : "_ZTIPNSt3__16vectorIN4piex12binary_parse20CachedPagedByteArray10CachedPageENS_9allocatorIS4_EEEE"
    }
   ],
   "return_type" : "_ZTIv",
   "source_file" : "external/libcxx/include/vector"
  },
  {
   "function_name" : "std::__1::vector<piex::binary_parse::CachedPagedByteArray::CachedPage, std::__1::allocator<piex::binary_parse::CachedPagedByteArray::CachedPage>>::vector",
   "linker_set_key" : "_ZNSt3__16vectorIN4piex12binary_parse20CachedPagedByteArray10CachedPageENS_9allocatorIS4_EEEC2Ev",
   "parameters" :
   [
    {
     "is_this_ptr" : true,
     "referenced_type" : "_ZTIPNSt3__16vectorIN4piex12binary_parse20CachedPagedByteArray10CachedPageENS_9allocatorIS4_EEEE"
    }
   ],
   "return_type" : "_ZTIv",
   "source_file" : "external/libcxx/include/vector"
  },
  {
   "function_name" : "std::__1::vector<piex::binary_parse::CachedPagedByteArray::CachedPage, std::__1::allocator<piex::binary_parse::CachedPagedByteArray::CachedPage>>::~vector",
   "linker_set_key" : "_ZNSt3__16vectorIN4piex12binary_parse20CachedPagedByteArray10CachedPageENS_9allocatorIS4_EEED1Ev",
   "parameters" :
   [
    {
     "is_this_ptr" : true,
     "referenced_type" : "_ZTIPNSt3__16vectorIN4piex12binary_parse20CachedPagedByteArray10CachedPageENS_9allocatorIS4_EEEE"
    }
   ],
   "return_type" : "_ZTIv",
   "source_file" : "external/libcxx/include/vector"
  },
  {
   "function_name" : "std::__1::vector<piex::binary_parse::CachedPagedByteArray::CachedPage, std::__1::allocator<piex::binary_parse::CachedPagedByteArray::CachedPage>>::~vector",
   "linker_set_key" : "_ZNSt3__16vectorIN4piex12binary_parse20CachedPagedByteArray10CachedPageENS_9allocatorIS4_EEED2Ev",
   "parameters" :
   [
    {
     "is_this_ptr" : true,
     "referenced_type" : "_ZTIPNSt3__16vectorIN4piex12binary_parse20CachedPagedByteArray10CachedPageENS_9allocatorIS4_EEEE"
    }
   ],
   "return_type" : "_ZTIv",
   "source_file" : "external/libcxx/include/vector"
  },
  {
   "function_name" : "std::__1::vector<piex::binary_parse::CachedPagedByteArray::CachedPage, std::__1::allocator<piex::binary_parse::CachedPagedByteArray::CachedPage>>::operator[]",
   "linker_set_key" : "_ZNSt3__16vectorIN4piex12binary_parse20CachedPagedByteArray10CachedPageENS_9allocatorIS4_EEEixEm",
   "parameters" :
   [
    {
     "is_this_ptr" : true,
     "referenced_type" : "_ZTIPNSt3__16vectorIN4piex12binary_parse20CachedPagedByteArray10CachedPageENS_9allocatorIS4_EEEE"
    },
    {
     "referenced_type" : "_ZTIm"
    }
   ],
   "return_type" : "_ZTIRN4piex12binary_parse20CachedPagedByteArray10CachedPageE",
   "source_file" : "external/libcxx/include/vector"
  },
  {
   "function_name" : "std::__1::forward",
   "linker_set_key" : "_ZNSt3__17forwardIDnEEOT_RNS_16remove_referenceIS1_E4typeE",
   "parameters" :
   [
    {
     "referenced_type" : "_ZTIRDn"
    }
   ],
   "return_type" : "_ZTIODn",
   "source_file" : "external/libcxx/include/type_traits",
   "template_args" : [ "_ZTIDn" ]
  },
  {
   "function_name" : "std::__1::forward",
   "linker_set_key" : "_ZNSt3__17forwardIN4piex12binary_parse20CachedPagedByteArray10CachedPageEEEOT_RNS_16remove_referenceIS5_E4typeE",
   "parameters" :
   [
    {
     "referenced_type" : "_ZTIRN4piex12binary_parse20CachedPagedByteArray10CachedPageE"
    }
   ],
   "return_type" : "_ZTION4piex12binary_parse20CachedPagedByteArray10CachedPageE",
   "source_file" : "external/libcxx/include/type_traits",
   "template_args" : [ "_ZTIN4piex12binary_parse20CachedPagedByteArray10CachedPageE" ]
  },
  {
   "function_name" : "std::__1::forward",
   "linker_set_key" : "_ZNSt3__17forwardIRKN4piex12binary_parse20CachedPagedByteArray10CachedPageEEEOT_RNS_16remove_referenceIS7_E4typeE",
   "parameters" :
   [
    {
     "referenced_type" : "_ZTIRKN4piex12binary_parse20CachedPagedByteArray10CachedPageE"
    }
   ],
   "return_type" : "_ZTIRKN4piex12binary_parse20CachedPagedByteArray10CachedPageE",
   "source_file" : "external/libcxx/include/type_traits",
   "template_args" : [ "_ZTIRKN4piex12binary_parse20CachedPagedByteArray10CachedPageE" ]
  },
  {
   "function_name" : "std::__1::forward",
   "linker_set_key" : "_ZNSt3__17forwardIRNS_9allocatorIN4piex12binary_parse20CachedPagedByteArray10CachedPageEEEEEOT_RNS_16remove_referenceIS8_E4typeE",
   "parameters" :
   [
    {
     "referenced_type" : "_ZTIRNSt3__19allocatorIN4piex12binary_parse20CachedPagedByteArray10CachedPageEEE"
    }
   ],
   "return_type" : "_ZTIRNSt3__19allocatorIN4piex12binary_parse20CachedPagedByteArray10CachedPageEEE",
   "source_file" : "external/libcxx/include/type_traits",
   "template_args" :
   [
    "_ZTIRNSt3__19allocatorIN4piex12binary_parse20CachedPagedByteArray10CachedPageEEE"
   ]
  },
  {
   "function_name" : "std::__1::forward",
   "linker_set_key" : "_ZNSt3__17forwardImEEOT_RNS_16remove_referenceIS1_E4typeE",
   "parameters" :
   [
    {
     "referenced_type" : "_ZTIRm"
    }
   ],
   "return_type" : "_ZTIOm",
   "source_file" : "external/libcxx/include/type_traits",
   "template_args" : [ "_ZTIm" ]
  },
  {
   "function_name" : "std::__1::literals::chrono_literals::operator\"\"h",
   "linker_set_key" : "_ZNSt3__18literals15chrono_literalsli1hEe",
   "parameters" :
   [
    {
     "referenced_type" : "_ZTIe"
    }
   ],
   "return_type" : "_ZTINSt3__16chrono8durationIeNS_5ratioILl3600ELl1EEEEE",
   "source_file" : "external/libcxx/include/chrono"
  },
  {
   "function_name" : "std::__1::literals::chrono_literals::operator\"\"h",
   "linker_set_key" : "_ZNSt3__18literals15chrono_literalsli1hEy",
   "parameters" :
   [
    {
     "referenced_type" : "_ZTIy"
    }
   ],
   "return_type" : "_ZTINSt3__16chrono8durationIlNS_5ratioILl3600ELl1EEEEE",
   "source_file" : "external/libcxx/include/chrono"
  },
  {
   "function_name" : "std::__1::literals::chrono_literals::operator\"\"s",
   "linker_set_key" : "_ZNSt3__18literals15chrono_literalsli1sEe",
   "parameters" :
   [
    {
     "referenced_type" : "_ZTIe"
    }
   ],
   "return_type" : "_ZTINSt3__16chrono8durationIeNS_5ratioILl1ELl1EEEEE",
   "source_file" : "external/libcxx/include/chrono"
  },
  {
   "function_name" : "std::__1::literals::chrono_literals::operator\"\"s",
   "linker_set_key" : "_ZNSt3__18literals15chrono_literalsli1sEy",
   "parameters" :
   [
    {
     "referenced_type" : "_ZTIy"
    }
   ],
   "return_type" : "_ZTINSt3__16chrono8durationIxNS_5ratioILl1ELl1EEEEE",
   "source_file" : "external/libcxx/include/chrono"
  },
  {
   "function_name" : "std::__1::literals::chrono_literals::operator\"\"ms",
   "linker_set_key" : "_ZNSt3__18literals15chrono_literalsli2msEe",
   "parameters" :
   [
    {
     "referenced_type" : "_ZTIe"
    }
   ],
   "return_type" : "_ZTINSt3__16chrono8durationIeNS_5ratioILl1ELl1000EEEEE",
   "source_file" : "external/libcxx/include/chrono"
  },
  {
   "function_name" : "std::__1::literals::chrono_literals::operator\"\"ms",
   "linker_set_key" : "_ZNSt3__18literals15chrono_literalsli2msEy",
   "parameters" :
   [
    {
     "referenced_type" : "_ZTIy"
    }
   ],
   "return_type" : "_ZTINSt3__16chrono8durationIxNS_5ratioILl1ELl1000EEEEE",
   "source_file" : "external/libcxx/include/chrono"
  },
  {
   "function_name" : "std::__1::literals::chrono_literals::operator\"\"ns",
   "linker_set_key" : "_ZNSt3__18literals15chrono_literalsli2nsEe",
   "parameters" :
   [
    {
     "referenced_type" : "_ZTIe"
    }
   ],
   "return_type" : "_ZTINSt3__16chrono8durationIeNS_5ratioILl1ELl1000000000EEEEE",
   "source_file" : "external/libcxx/include/chrono"
  },
  {
   "function_name" : "std::__1::literals::chrono_literals::operator\"\"ns",
   "linker_set_key" : "_ZNSt3__18literals15chrono_literalsli2nsEy",
   "parameters" :
   [
    {
     "referenced_type" : "_ZTIy"
    }
   ],
   "return_type" : "_ZTINSt3__16chrono8durationIxNS_5ratioILl1ELl1000000000EEEEE",
   "source_file" : "external/libcxx/include/chrono"
  },
  {
   "function_name" : "std::__1::literals::chrono_literals::operator\"\"us",
   "linker_set_key" : "_ZNSt3__18literals15chrono_literalsli2usEe",
   "parameters" :
   [
    {
     "referenced_type" : "_ZTIe"
    }
   ],
   "return_type" : "_ZTINSt3__16chrono8durationIeNS_5ratioILl1ELl1000000EEEEE",
   "source_file" : "external/libcxx/include/chrono"
  },
  {
   "function_name" : "std::__1::literals::chrono_literals::operator\"\"us",
   "linker_set_key" : "_ZNSt3__18literals15chrono_literalsli2usEy",
   "parameters" :
   [
    {
     "referenced_type" : "_ZTIy"
    }
   ],
   "return_type" : "_ZTINSt3__16chrono8durationIxNS_5ratioILl1ELl1000000EEEEE",
   "source_file" : "external/libcxx/include/chrono"
  },
  {
   "function_name" : "std::__1::literals::chrono_literals::operator\"\"min",
   "linker_set_key" : "_ZNSt3__18literals15chrono_literalsli3minEe",
   "parameters" :
   [
    {
     "referenced_type" : "_ZTIe"
    }
   ],
   "return_type" : "_ZTINSt3__16chrono8durationIeNS_5ratioILl60ELl1EEEEE",
   "source_file" : "external/libcxx/include/chrono"
  },
  {
   "function_name" : "std::__1::literals::chrono_literals::operator\"\"min",
   "linker_set_key" : "_ZNSt3__18literals15chrono_literalsli3minEy",
   "parameters" :
   [
    {
     "referenced_type" : "_ZTIy"
    }
   ],
   "return_type" : "_ZTINSt3__16chrono8durationIlNS_5ratioILl60ELl1EEEEE",
   "source_file" : "external/libcxx/include/chrono"
  },
  {
   "function_name" : "std::__1::literals::string_literals::operator\"\"s",
   "linker_set_key" : "_ZNSt3__18literals15string_literalsli1sEPKDim",
   "parameters" :
   [
    {
     "referenced_type" : "_ZTIPKDi"
    },
    {
     "referenced_type" : "_ZTIm"
    }
   ],
   "return_type" : "_ZTINSt3__112basic_stringIDiNS_11char_traitsIDiEENS_9allocatorIDiEEEE",
   "source_file" : "external/libcxx/include/string"
  },
  {
   "function_name" : "std::__1::literals::string_literals::operator\"\"s",
   "linker_set_key" : "_ZNSt3__18literals15string_literalsli1sEPKDsm",
   "parameters" :
   [
    {
     "referenced_type" : "_ZTIPKDs"
    },
    {
     "referenced_type" : "_ZTIm"
    }
   ],
   "return_type" : "_ZTINSt3__112basic_stringIDsNS_11char_traitsIDsEENS_9allocatorIDsEEEE",
   "source_file" : "external/libcxx/include/string"
  },
  {
   "function_name" : "std::__1::literals::string_literals::operator\"\"s",
   "linker_set_key" : "_ZNSt3__18literals15string_literalsli1sEPKcm",
   "parameters" :
   [
    {
     "referenced_type" : "_ZTIPKc"
    },
    {
     "referenced_type" : "_ZTIm"
    }
   ],
   "return_type" : "_ZTINSt3__112basic_stringIcNS_11char_traitsIcEENS_9allocatorIcEEEE",
   "source_file" : "external/libcxx/include/string"
  },
  {
   "function_name" : "std::__1::literals::string_literals::operator\"\"s",
   "linker_set_key" : "_ZNSt3__18literals15string_literalsli1sEPKwm",
   "parameters" :
   [
    {
     "referenced_type" : "_ZTIPKw"
    },
    {
     "referenced_type" : "_ZTIm"
    }
   ],
   "return_type" : "_ZTINSt3__112basic_stringIwNS_11char_traitsIwEENS_9allocatorIwEEEE",
   "source_file" : "external/libcxx/include/string"
  },
  {
   "function_name" : "std::__1::literals::string_view_literals::operator\"\"sv",
   "linker_set_key" : "_ZNSt3__18literals20string_view_literalsli2svEPKDim",
   "parameters" :
   [
    {
     "referenced_type" : "_ZTIPKDi"
    },
    {
     "referenced_type" : "_ZTIm"
    }
   ],
   "return_type" : "_ZTINSt3__117basic_string_viewIDiNS_11char_traitsIDiEEEE",
   "source_file" : "external/libcxx/include/string_view"
  },
  {
   "function_name" : "std::__1::literals::string_view_literals::operator\"\"sv",
   "linker_set_key" : "_ZNSt3__18literals20string_view_literalsli2svEPKDsm",
   "parameters" :
   [
    {
     "referenced_type" : "_ZTIPKDs"
    },
    {
     "referenced_type" : "_ZTIm"
    }
   ],
   "return_type" : "_ZTINSt3__117basic_string_viewIDsNS_11char_traitsIDsEEEE",
   "source_file" : "external/libcxx/include/string_view"
  },
  {
   "function_name" : "std::__1::literals::string_view_literals::operator\"\"sv",
   "linker_set_key" : "_ZNSt3__18literals20string_view_literalsli2svEPKcm",
   "parameters" :
   [
    {
     "referenced_type" : "_ZTIPKc"
    },
    {
     "referenced_type" : "_ZTIm"
    }
   ],
   "return_type" : "_ZTINSt3__117basic_string_viewIcNS_11char_traitsIcEEEE",
   "source_file" : "external/libcxx/include/string_view"
  },
  {
   "function_name" : "std::__1::literals::string_view_literals::operator\"\"sv",
   "linker_set_key" : "_ZNSt3__18literals20string_view_literalsli2svEPKwm",
   "parameters" :
   [
    {
     "referenced_type" : "_ZTIPKw"
    },
    {
     "referenced_type" : "_ZTIm"
    }
   ],
   "return_type" : "_ZTINSt3__117basic_string_viewIwNS_11char_traitsIwEEEE",
   "source_file" : "external/libcxx/include/string_view"
  },
  {
   "function_name" : "std::__1::addressof",
   "linker_set_key" : "_ZNSt3__19addressofIDiEEPT_RS1_",
   "parameters" :
   [
    {
     "referenced_type" : "_ZTIRDi"
    }
   ],
   "return_type" : "_ZTIPDi",
   "source_file" : "external/libcxx/include/type_traits",
   "template_args" : [ "_ZTIDi" ]
  },
  {
   "function_name" : "std::__1::addressof",
   "linker_set_key" : "_ZNSt3__19addressofIDsEEPT_RS1_",
   "parameters" :
   [
    {
     "referenced_type" : "_ZTIRDs"
    }
   ],
   "return_type" : "_ZTIPDs",
   "source_file" : "external/libcxx/include/type_traits",
   "template_args" : [ "_ZTIDs" ]
  },
  {
   "function_name" : "std::__1::addressof",
   "linker_set_key" : "_ZNSt3__19addressofIKNS_10__function16__policy_storageEEEPT_RS4_",
   "parameters" :
   [
    {
     "referenced_type" : "_ZTIRKNSt3__110__function16__policy_storageE"
    }
   ],
   "return_type" : "_ZTIPKNSt3__110__function16__policy_storageE",
   "source_file" : "external/libcxx/include/type_traits",
   "template_args" : [ "_ZTIKNSt3__110__function16__policy_storageE" ]
  },
  {
   "function_name" : "std::__1::addressof",
   "linker_set_key" : "_ZNSt3__19addressofIcEEPT_RS1_",
   "parameters" :
   [
    {
     "referenced_type" : "_ZTIRc"
    }
   ],
   "return_type" : "_ZTIPc",
   "source_file" : "external/libcxx/include/type_traits",
   "template_args" : [ "_ZTIc" ]
  },
  {
   "function_name" : "std::__1::addressof",
   "linker_set_key" : "_ZNSt3__19addressofIwEEPT_RS1_",
   "parameters" :
   [
    {
     "referenced_type" : "_ZTIRw"
    }
   ],
   "return_type" : "_ZTIPw",
   "source_file" : "external/libcxx/include/type_traits",
   "template_args" : [ "_ZTIw" ]
  },
  {
   "function_name" : "std::__1::allocator<char32_t>::deallocate",
   "linker_set_key" : "_ZNSt3__19allocatorIDiE10deallocateEPDim",
   "parameters" :
   [
    {
     "is_this_ptr" : true,
     "referenced_type" : "_ZTIPNSt3__19allocatorIDiEE"
    },
    {
     "referenced_type" : "_ZTIPDi"
    },
    {
     "referenced_type" : "_ZTIm"
    }
   ],
   "return_type" : "_ZTIv",
   "source_file" : "external/libcxx/include/memory"
  },
  {
   "function_name" : "std::__1::allocator<char32_t>::allocate",
   "linker_set_key" : "_ZNSt3__19allocatorIDiE8allocateEmPKv",
   "parameters" :
   [
    {
     "is_this_ptr" : true,
     "referenced_type" : "_ZTIPNSt3__19allocatorIDiEE"
    },
    {
     "referenced_type" : "_ZTIm"
    },
    {
     "default_arg" : true,
     "referenced_type" : "_ZTIPKv"
    }
   ],
   "return_type" : "_ZTIPDi",
   "source_file" : "external/libcxx/include/memory"
  },
  {
   "function_name" : "std::__1::allocator<char32_t>::allocator",
   "linker_set_key" : "_ZNSt3__19allocatorIDiEC1Ev",
   "parameters" :
   [
    {
     "is_this_ptr" : true,
     "referenced_type" : "_ZTIPNSt3__19allocatorIDiEE"
    }
   ],
   "return_type" : "_ZTIv",
   "source_file" : "external/libcxx/include/memory"
  },
  {
   "function_name" : "std::__1::allocator<char32_t>::allocator",
   "linker_set_key" : "_ZNSt3__19allocatorIDiEC2Ev",
   "parameters" :
   [
    {
     "is_this_ptr" : true,
     "referenced_type" : "_ZTIPNSt3__19allocatorIDiEE"
    }
   ],
   "return_type" : "_ZTIv",
   "source_file" : "external/libcxx/include/memory"
  },
  {
   "function_name" : "std::__1::allocator<char16_t>::deallocate",
   "linker_set_key" : "_ZNSt3__19allocatorIDsE10deallocateEPDsm",
   "parameters" :
   [
    {
     "is_this_ptr" : true,
     "referenced_type" : "_ZTIPNSt3__19allocatorIDsEE"
    },
    {
     "referenced_type" : "_ZTIPDs"
    },
    {
     "referenced_type" : "_ZTIm"
    }
   ],
   "return_type" : "_ZTIv",
   "source_file" : "external/libcxx/include/memory"
  },
  {
   "function_name" : "std::__1::allocator<char16_t>::allocate",
   "linker_set_key" : "_ZNSt3__19allocatorIDsE8allocateEmPKv",
   "parameters" :
   [
    {
     "is_this_ptr" : true,
     "referenced_type" : "_ZTIPNSt3__19allocatorIDsEE"
    },
    {
     "referenced_type" : "_ZTIm"
    },
    {
     "default_arg" : true,
     "referenced_type" : "_ZTIPKv"
    }
   ],
   "return_type" : "_ZTIPDs",
   "source_file" : "external/libcxx/include/memory"
  },
  {
   "function_name" : "std::__1::allocator<char16_t>::allocator",
   "linker_set_key" : "_ZNSt3__19allocatorIDsEC1Ev",
   "parameters" :
   [
    {
     "is_this_ptr" : true,
     "referenced_type" : "_ZTIPNSt3__19allocatorIDsEE"
    }
   ],
   "return_type" : "_ZTIv",
   "source_file" : "external/libcxx/include/memory"
  },
  {
   "function_name" : "std::__1::allocator<char16_t>::allocator",
   "linker_set_key" : "_ZNSt3__19allocatorIDsEC2Ev",
   "parameters" :
   [
    {
     "is_this_ptr" : true,
     "referenced_type" : "_ZTIPNSt3__19allocatorIDsEE"
    }
   ],
   "return_type" : "_ZTIv",
   "source_file" : "external/libcxx/include/memory"
  },
  {
   "function_name" : "std::__1::allocator<piex::binary_parse::CachedPagedByteArray::CachedPage>::deallocate",
   "linker_set_key" : "_ZNSt3__19allocatorIN4piex12binary_parse20CachedPagedByteArray10CachedPageEE10deallocateEPS4_m",
   "parameters" :
   [
    {
     "is_this_ptr" : true,
     "referenced_type" : "_ZTIPNSt3__19allocatorIN4piex12binary_parse20CachedPagedByteArray10CachedPageEEE"
    },
    {
     "referenced_type" : "_ZTIPN4piex12binary_parse20CachedPagedByteArray10CachedPageE"
    },
    {
     "referenced_type" : "_ZTIm"
    }
   ],
   "return_type" : "_ZTIv",
   "source_file" : "external/libcxx/include/memory"
  },
  {
   "function_name" : "std::__1::allocator<piex::binary_parse::CachedPagedByteArray::CachedPage>::destroy",
   "linker_set_key" : "_ZNSt3__19allocatorIN4piex12binary_parse20CachedPagedByteArray10CachedPageEE7destroyEPS4_",
   "parameters" :
   [
    {
     "is_this_ptr" : true,
     "referenced_type" : "_ZTIPNSt3__19allocatorIN4piex12binary_parse20CachedPagedByteArray10CachedPageEEE"
    },
    {
     "referenced_type" : "_ZTIPN4piex12binary_parse20CachedPagedByteArray10CachedPageE"
    }
   ],
   "return_type" : "_ZTIv",
   "source_file" : "external/libcxx/include/memory"
  },
  {
   "function_name" : "std::__1::allocator<piex::binary_parse::CachedPagedByteArray::CachedPage>::allocate",
   "linker_set_key" : "_ZNSt3__19allocatorIN4piex12binary_parse20CachedPagedByteArray10CachedPageEE8allocateEmPKv",
   "parameters" :
   [
    {
     "is_this_ptr" : true,
     "referenced_type" : "_ZTIPNSt3__19allocatorIN4piex12binary_parse20CachedPagedByteArray10CachedPageEEE"
    },
    {
     "referenced_type" : "_ZTIm"
    },
    {
     "default_arg" : true,
     "referenced_type" : "_ZTIPKv"
    }
   ],
   "return_type" : "_ZTIPN4piex12binary_parse20CachedPagedByteArray10CachedPageE",
   "source_file" : "external/libcxx/include/memory"
  },
  {
   "function_name" : "std::__1::allocator<piex::binary_parse::CachedPagedByteArray::CachedPage>::construct",
   "linker_set_key" : "_ZNSt3__19allocatorIN4piex12binary_parse20CachedPagedByteArray10CachedPageEE9constructIS4_JRKS4_EEEvPT_DpOT0_",
   "parameters" :
   [
    {
     "is_this_ptr" : true,
     "referenced_type" : "_ZTIPNSt3__19allocatorIN4piex12binary_parse20CachedPagedByteArray10CachedPageEEE"
    },
    {
     "referenced_type" : "_ZTIPN4piex12binary_parse20CachedPagedByteArray10CachedPageE"
    },
    {
     "referenced_type" : "_ZTIRKN4piex12binary_parse20CachedPagedByteArray10CachedPageE"
    }
   ],
   "return_type" : "_ZTIv",
   "source_file" : "external/libcxx/include/memory",
   "template_args" : [ "_ZTIN4piex12binary_parse20CachedPagedByteArray10CachedPageE" ]
  },
  {
   "function_name" : "std::__1::allocator<piex::binary_parse::CachedPagedByteArray::CachedPage>::construct",
   "linker_set_key" : "_ZNSt3__19allocatorIN4piex12binary_parse20CachedPagedByteArray10CachedPageEE9constructIS4_JS4_EEEvPT_DpOT0_",
   "parameters" :
   [
    {
     "is_this_ptr" : true,
     "referenced_type" : "_ZTIPNSt3__19allocatorIN4piex12binary_parse20CachedPagedByteArray10CachedPageEEE"
    },
    {
     "referenced_type" : "_ZTIPN4piex12binary_parse20CachedPagedByteArray10CachedPageE"
    },
    {
     "referenced_type" : "_ZTION4piex12binary_parse20CachedPagedByteArray10CachedPageE"
    }
   ],
   "return_type" : "_ZTIv",
   "source_file" : "external/libcxx/include/memory",
   "template_args" : [ "_ZTIN4piex12binary_parse20CachedPagedByteArray10CachedPageE" ]
  },
  {
   "function_name" : "std::__1::allocator<piex::binary_parse::CachedPagedByteArray::CachedPage>::allocator",
   "linker_set_key" : "_ZNSt3__19allocatorIN4piex12binary_parse20CachedPagedByteArray10CachedPageEEC1Ev",
   "parameters" :
   [
    {
     "is_this_ptr" : true,
     "referenced_type" : "_ZTIPNSt3__19allocatorIN4piex12binary_parse20CachedPagedByteArray10CachedPageEEE"
    }
   ],
   "return_type" : "_ZTIv",
   "source_file" : "external/libcxx/include/memory"
  },
  {
   "function_name" : "std::__1::allocator<piex::binary_parse::CachedPagedByteArray::CachedPage>::allocator",
   "linker_set_key" : "_ZNSt3__19allocatorIN4piex12binary_parse20CachedPagedByteArray10CachedPageEEC2Ev",
   "parameters" :
   [
    {
     "is_this_ptr" : true,
     "referenced_type" : "_ZTIPNSt3__19allocatorIN4piex12binary_parse20CachedPagedByteArray10CachedPageEEE"
    }
   ],
   "return_type" : "_ZTIv",
   "source_file" : "external/libcxx/include/memory"
  },
  {
   "function_name" : "std::__1::allocator<char>::deallocate",
   "linker_set_key" : "_ZNSt3__19allocatorIcE10deallocateEPcm",
   "parameters" :
   [
    {
     "is_this_ptr" : true,
     "referenced_type" : "_ZTIPNSt3__19allocatorIcEE"
    },
    {
     "referenced_type" : "_ZTIPc"
    },
    {
     "referenced_type" : "_ZTIm"
    }
   ],
   "return_type" : "_ZTIv",
   "source_file" : "external/libcxx/include/memory"
  },
  {
   "function_name" : "std::__1::allocator<char>::allocate",
   "linker_set_key" : "_ZNSt3__19allocatorIcE8allocateEmPKv",
   "parameters" :
   [
    {
     "is_this_ptr" : true,
     "referenced_type" : "_ZTIPNSt3__19allocatorIcEE"
    },
    {
     "referenced_type" : "_ZTIm"
    },
    {
     "default_arg" : true,
     "referenced_type" : "_ZTIPKv"
    }
   ],
   "return_type" : "_ZTIPc",
   "source_file" : "external/libcxx/include/memory"
  },
  {
   "function_name" : "std::__1::allocator<char>::allocator",
   "linker_set_key" : "_ZNSt3__19allocatorIcEC1Ev",
   "parameters" :
   [
    {
     "is_this_ptr" : true,
     "referenced_type" : "_ZTIPNSt3__19allocatorIcEE"
    }
   ],
   "return_type" : "_ZTIv",
   "source_file" : "external/libcxx/include/memory"
  },
  {
   "function_name" : "std::__1::allocator<char>::allocator",
   "linker_set_key" : "_ZNSt3__19allocatorIcEC2Ev",
   "parameters" :
   [
    {
     "is_this_ptr" : true,
     "referenced_type" : "_ZTIPNSt3__19allocatorIcEE"
    }
   ],
   "return_type" : "_ZTIv",
   "source_file" : "external/libcxx/include/memory"
  },
  {
   "function_name" : "std::__1::allocator<wchar_t>::deallocate",
   "linker_set_key" : "_ZNSt3__19allocatorIwE10deallocateEPwm",
   "parameters" :
   [
    {
     "is_this_ptr" : true,
     "referenced_type" : "_ZTIPNSt3__19allocatorIwEE"
    },
    {
     "referenced_type" : "_ZTIPw"
    },
    {
     "referenced_type" : "_ZTIm"
    }
   ],
   "return_type" : "_ZTIv",
   "source_file" : "external/libcxx/include/memory"
  },
  {
   "function_name" : "std::__1::allocator<wchar_t>::allocate",
   "linker_set_key" : "_ZNSt3__19allocatorIwE8allocateEmPKv",
   "parameters" :
   [
    {
     "is_this_ptr" : true,
     "referenced_type" : "_ZTIPNSt3__19allocatorIwEE"
    },
    {
     "referenced_type" : "_ZTIm"
    },
    {
     "default_arg" : true,
     "referenced_type" : "_ZTIPKv"
    }
   ],
   "return_type" : "_ZTIPw",
   "source_file" : "external/libcxx/include/memory"
  },
  {
   "function_name" : "std::__1::allocator<wchar_t>::allocator",
   "linker_set_key" : "_ZNSt3__19allocatorIwEC1Ev",
   "parameters" :
   [
    {
     "is_this_ptr" : true,
     "referenced_type" : "_ZTIPNSt3__19allocatorIwEE"
    }
   ],
   "return_type" : "_ZTIv",
   "source_file" : "external/libcxx/include/memory"
  },
  {
   "function_name" : "std::__1::allocator<wchar_t>::allocator",
   "linker_set_key" : "_ZNSt3__19allocatorIwEC2Ev",
   "parameters" :
   [
    {
     "is_this_ptr" : true,
     "referenced_type" : "_ZTIPNSt3__19allocatorIwEE"
    }
   ],
   "return_type" : "_ZTIv",
   "source_file" : "external/libcxx/include/memory"
  },
  {
   "function_name" : "std::__1::once_flag::once_flag",
   "linker_set_key" : "_ZNSt3__19once_flagC1Ev",
   "parameters" :
   [
    {
     "is_this_ptr" : true,
     "referenced_type" : "_ZTIPNSt3__19once_flagE"
    }
   ],
   "return_type" : "_ZTIv",
   "source_file" : "external/libcxx/include/mutex"
  },
  {
   "function_name" : "std::__1::once_flag::once_flag",
   "linker_set_key" : "_ZNSt3__19once_flagC2Ev",
   "parameters" :
   [
    {
     "is_this_ptr" : true,
     "referenced_type" : "_ZTIPNSt3__19once_flagE"
    }
   ],
   "return_type" : "_ZTIv",
   "source_file" : "external/libcxx/include/mutex"
  },
  {
   "function_name" : "std::__1::tuple_cat",
   "linker_set_key" : "_ZNSt3__19tuple_catEv",
   "return_type" : "_ZTINSt3__15tupleIJEEE",
   "source_file" : "external/libcxx/include/tuple"
  },
  {
   "function_name" : "std::__1::operator==",
   "linker_set_key" : "_ZNSt3__1eqERKNS_10error_codeERKNS_15error_conditionE",
   "parameters" :
   [
    {
     "referenced_type" : "_ZTIRKNSt3__110error_codeE"
    },
    {
     "referenced_type" : "_ZTIRKNSt3__115error_conditionE"
    }
   ],
   "return_type" : "_ZTIb",
   "source_file" : "external/libcxx/include/system_error"
  },
  {
   "function_name" : "std::__1::operator==",
   "linker_set_key" : "_ZNSt3__1eqERKNS_10error_codeES2_",
   "parameters" :
   [
    {
     "referenced_type" : "_ZTIRKNSt3__110error_codeE"
    },
    {
     "referenced_type" : "_ZTIRKNSt3__110error_codeE"
    }
   ],
   "return_type" : "_ZTIb",
   "source_file" : "external/libcxx/include/system_error"
  },
  {
   "function_name" : "std::__1::operator==",
   "linker_set_key" : "_ZNSt3__1eqERKNS_14__bit_iteratorIT_XT0_EXT1_EEES5_",
   "parameters" :
   [
    {
     "referenced_type" : "_ZTIRKNSt3__114__bit_iteratorIT_XT0_EXT1_EEE"
    },
    {
     "referenced_type" : "_ZTIRKNSt3__114__bit_iteratorIT_XT0_EXT1_EEE"
    }
   ],
   "return_type" : "_ZTIb",
   "source_file" : "external/libcxx/include/__bit_reference"
  },
  {
   "function_name" : "std::__1::operator==",
   "linker_set_key" : "_ZNSt3__1eqERKNS_15error_conditionERKNS_10error_codeE",
   "parameters" :
   [
    {
     "referenced_type" : "_ZTIRKNSt3__115error_conditionE"
    },
    {
     "referenced_type" : "_ZTIRKNSt3__110error_codeE"
    }
   ],
   "return_type" : "_ZTIb",
   "source_file" : "external/libcxx/include/system_error"
  },
  {
   "function_name" : "std::__1::operator==",
   "linker_set_key" : "_ZNSt3__1eqERKNS_15error_conditionES2_",
   "parameters" :
   [
    {
     "referenced_type" : "_ZTIRKNSt3__115error_conditionE"
    },
    {
     "referenced_type" : "_ZTIRKNSt3__115error_conditionE"
    }
   ],
   "return_type" : "_ZTIb",
   "source_file" : "external/libcxx/include/system_error"
  },
  {
   "function_name" : "std::__1::operator==",
   "linker_set_key" : "_ZNSt3__1eqERKNS_24uniform_int_distribution10param_typeES3_",
   "parameters" :
   [
    {
     "referenced_type" : "_ZTIRKNSt3__124uniform_int_distribution10param_typeE"
    },
    {
     "referenced_type" : "_ZTIRKNSt3__124uniform_int_distribution10param_typeE"
    }
   ],
   "return_type" : "_ZTIb",
   "source_file" : "external/libcxx/include/algorithm"
  },
  {
   "function_name" : "std::__1::operator==",
   "linker_set_key" : "_ZNSt3__1eqERKNS_24uniform_int_distributionIT_EES5_",
   "parameters" :
   [
    {
     "referenced_type" : "_ZTIRKNSt3__124uniform_int_distributionIT_EE"
    },
    {
     "referenced_type" : "_ZTIRKNSt3__124uniform_int_distributionIT_EE"
    }
   ],
   "return_type" : "_ZTIb",
   "source_file" : "external/libcxx/include/algorithm"
  },
  {
   "function_name" : "std::__1::operator>=",
   "linker_set_key" : "_ZNSt3__1geERKNS_14__bit_iteratorIT_XT0_EXT1_EEES5_",
   "parameters" :
   [
    {
     "referenced_type" : "_ZTIRKNSt3__114__bit_iteratorIT_XT0_EXT1_EEE"
    },
    {
     "referenced_type" : "_ZTIRKNSt3__114__bit_iteratorIT_XT0_EXT1_EEE"
    }
   ],
   "return_type" : "_ZTIb",
   "source_file" : "external/libcxx/include/__bit_reference"
  },
  {
   "function_name" : "std::__1::operator>",
   "linker_set_key" : "_ZNSt3__1gtERKNS_14__bit_iteratorIT_XT0_EXT1_EEES5_",
   "parameters" :
   [
    {
     "referenced_type" : "_ZTIRKNSt3__114__bit_iteratorIT_XT0_EXT1_EEE"
    },
    {
     "referenced_type" : "_ZTIRKNSt3__114__bit_iteratorIT_XT0_EXT1_EEE"
    }
   ],
   "return_type" : "_ZTIb",
   "source_file" : "external/libcxx/include/__bit_reference"
  },
  {
   "function_name" : "std::__1::operator<=",
   "linker_set_key" : "_ZNSt3__1leERKNS_14__bit_iteratorIT_XT0_EXT1_EEES5_",
   "parameters" :
   [
    {
     "referenced_type" : "_ZTIRKNSt3__114__bit_iteratorIT_XT0_EXT1_EEE"
    },
    {
     "referenced_type" : "_ZTIRKNSt3__114__bit_iteratorIT_XT0_EXT1_EEE"
    }
   ],
   "return_type" : "_ZTIb",
   "source_file" : "external/libcxx/include/__bit_reference"
  },
  {
   "function_name" : "std::__1::operator<",
   "linker_set_key" : "_ZNSt3__1ltERKNS_10error_codeES2_",
   "parameters" :
   [
    {
     "referenced_type" : "_ZTIRKNSt3__110error_codeE"
    },
    {
     "referenced_type" : "_ZTIRKNSt3__110error_codeE"
    }
   ],
   "return_type" : "_ZTIb",
   "source_file" : "external/libcxx/include/system_error"
  },
  {
   "function_name" : "std::__1::operator<",
   "linker_set_key" : "_ZNSt3__1ltERKNS_14__bit_iteratorIT_XT0_EXT1_EEES5_",
   "parameters" :
   [
    {
     "referenced_type" : "_ZTIRKNSt3__114__bit_iteratorIT_XT0_EXT1_EEE"
    },
    {
     "referenced_type" : "_ZTIRKNSt3__114__bit_iteratorIT_XT0_EXT1_EEE"
    }
   ],
   "return_type" : "_ZTIb",
   "source_file" : "external/libcxx/include/__bit_reference"
  },
  {
   "function_name" : "std::__1::operator<",
   "linker_set_key" : "_ZNSt3__1ltERKNS_15error_conditionES2_",
   "parameters" :
   [
    {
     "referenced_type" : "_ZTIRKNSt3__115error_conditionE"
    },
    {
     "referenced_type" : "_ZTIRKNSt3__115error_conditionE"
    }
   ],
   "return_type" : "_ZTIb",
   "source_file" : "external/libcxx/include/system_error"
  },
  {
   "function_name" : "std::__1::operator-",
   "linker_set_key" : "_ZNSt3__1miERKNS_14__bit_iteratorIT_XT0_EXT1_EEES5_",
   "parameters" :
   [
    {
     "referenced_type" : "_ZTIRKNSt3__114__bit_iteratorIT_XT0_EXT1_EEE"
    },
    {
     "referenced_type" : "_ZTIRKNSt3__114__bit_iteratorIT_XT0_EXT1_EEE"
    }
   ],
   "return_type" : "_ZTINT_15difference_typeE",
   "source_file" : "external/libcxx/include/__bit_reference"
  },
  {
   "function_name" : "std::__1::operator-",
   "linker_set_key" : "_ZNSt3__1miIPKN4piex12binary_parse20CachedPagedByteArray10CachedPageES6_EEDTmicldtfp_4baseEcldtfp0_4baseEERKNS_11__wrap_iterIT_EERKNS8_IT0_EE",
   "parameters" :
   [
    {
     "referenced_type" : "_ZTIRKNSt3__111__wrap_iterIPKN4piex12binary_parse20CachedPagedByteArray10CachedPageEEE"
    },
    {
     "referenced_type" : "_ZTIRKNSt3__111__wrap_iterIPKN4piex12binary_parse20CachedPagedByteArray10CachedPageEEE"
    }
   ],
   "return_type" : "_ZTIl",
   "source_file" : "external/libcxx/include/iterator",
   "template_args" :
   [
    "_ZTIPKN4piex12binary_parse20CachedPagedByteArray10CachedPageE",
    "_ZTIPKN4piex12binary_parse20CachedPagedByteArray10CachedPageE"
   ]
  },
  {
   "function_name" : "std::__1::operator!=",
   "linker_set_key" : "_ZNSt3__1neERKNS_10error_codeERKNS_15error_conditionE",
   "parameters" :
   [
    {
     "referenced_type" : "_ZTIRKNSt3__110error_codeE"
    },
    {
     "referenced_type" : "_ZTIRKNSt3__115error_conditionE"
    }
   ],
   "return_type" : "_ZTIb",
   "source_file" : "external/libcxx/include/system_error"
  },
  {
   "function_name" : "std::__1::operator!=",
   "linker_set_key" : "_ZNSt3__1neERKNS_10error_codeES2_",
   "parameters" :
   [
    {
     "referenced_type" : "_ZTIRKNSt3__110error_codeE"
    },
    {
     "referenced_type" : "_ZTIRKNSt3__110error_codeE"
    }
   ],
   "return_type" : "_ZTIb",
   "source_file" : "external/libcxx/include/system_error"
  },
  {
   "function_name" : "std::__1::operator!=",
   "linker_set_key" : "_ZNSt3__1neERKNS_14__bit_iteratorIT_XT0_EXT1_EEES5_",
   "parameters" :
   [
    {
     "referenced_type" : "_ZTIRKNSt3__114__bit_iteratorIT_XT0_EXT1_EEE"
    },
    {
     "referenced_type" : "_ZTIRKNSt3__114__bit_iteratorIT_XT0_EXT1_EEE"
    }
   ],
   "return_type" : "_ZTIb",
   "source_file" : "external/libcxx/include/__bit_reference"
  },
  {
   "function_name" : "std::__1::operator!=",
   "linker_set_key" : "_ZNSt3__1neERKNS_15error_conditionERKNS_10error_codeE",
   "parameters" :
   [
    {
     "referenced_type" : "_ZTIRKNSt3__115error_conditionE"
    },
    {
     "referenced_type" : "_ZTIRKNSt3__110error_codeE"
    }
   ],
   "return_type" : "_ZTIb",
   "source_file" : "external/libcxx/include/system_error"
  },
  {
   "function_name" : "std::__1::operator!=",
   "linker_set_key" : "_ZNSt3__1neERKNS_15error_conditionES2_",
   "parameters" :
   [
    {
     "referenced_type" : "_ZTIRKNSt3__115error_conditionE"
    },
    {
     "referenced_type" : "_ZTIRKNSt3__115error_conditionE"
    }
   ],
   "return_type" : "_ZTIb",
   "source_file" : "external/libcxx/include/system_error"
  },
  {
   "function_name" : "std::__1::operator!=",
   "linker_set_key" : "_ZNSt3__1neERKNS_24uniform_int_distribution10param_typeES3_",
   "parameters" :
   [
    {
     "referenced_type" : "_ZTIRKNSt3__124uniform_int_distribution10param_typeE"
    },
    {
     "referenced_type" : "_ZTIRKNSt3__124uniform_int_distribution10param_typeE"
    }
   ],
   "return_type" : "_ZTIb",
   "source_file" : "external/libcxx/include/algorithm"
  },
  {
   "function_name" : "std::__1::operator!=",
   "linker_set_key" : "_ZNSt3__1neERKNS_24uniform_int_distributionIT_EES5_",
   "parameters" :
   [
    {
     "referenced_type" : "_ZTIRKNSt3__124uniform_int_distributionIT_EE"
    },
    {
     "referenced_type" : "_ZTIRKNSt3__124uniform_int_distributionIT_EE"
    }
   ],
   "return_type" : "_ZTIb",
   "source_file" : "external/libcxx/include/algorithm"
  },
  {
   "function_name" : "std::__1::operator+",
   "linker_set_key" : "_ZNSt3__1plENT_15difference_typeERKNS_14__bit_iteratorIS0_XT0_EXT1_EEE",
   "parameters" :
   [
    {
     "referenced_type" : "_ZTINT_15difference_typeE"
    },
    {
     "referenced_type" : "_ZTIRKNSt3__114__bit_iteratorIT_XT0_EXT1_EEE"
    }
   ],
   "return_type" : "_ZTINSt3__114__bit_iteratorIT_XT0_EXT1_EEE",
   "source_file" : "external/libcxx/include/__bit_reference"
  },
  {
   "function_name" : "std::exception::exception",
   "linker_set_key" : "_ZNSt9exceptionC1Ev",
   "parameters" :
   [
    {
     "is_this_ptr" : true,
     "referenced_type" : "_ZTIPSt9exception"
    }
   ],
   "return_type" : "_ZTIv",
   "source_file" : "external/libcxx/include/exception"
  },
  {
   "function_name" : "std::exception::exception",
   "linker_set_key" : "_ZNSt9exceptionC2Ev",
   "parameters" :
   [
    {
     "is_this_ptr" : true,
     "referenced_type" : "_ZTIPSt9exception"
    }
   ],
   "return_type" : "_ZTIv",
   "source_file" : "external/libcxx/include/exception"
  },
  {
   "access" : "protected",
   "function_name" : "std::type_info::type_info",
   "linker_set_key" : "_ZNSt9type_infoC1EPKc",
   "parameters" :
   [
    {
     "is_this_ptr" : true,
     "referenced_type" : "_ZTIPSt9type_info"
    },
    {
     "referenced_type" : "_ZTIPKc"
    }
   ],
   "return_type" : "_ZTIv",
   "source_file" : "external/libcxx/include/typeinfo"
  },
  {
   "access" : "protected",
   "function_name" : "std::type_info::type_info",
   "linker_set_key" : "_ZNSt9type_infoC2EPKc",
   "parameters" :
   [
    {
     "is_this_ptr" : true,
     "referenced_type" : "_ZTIPSt9type_info"
    },
    {
     "referenced_type" : "_ZTIPKc"
    }
   ],
   "return_type" : "_ZTIv",
   "source_file" : "external/libcxx/include/typeinfo"
  },
  {
   "function_name" : "std::__1::atomic_flag::test_and_set",
   "linker_set_key" : "_ZNVSt3__111atomic_flag12test_and_setENS_12memory_orderE",
   "parameters" :
   [
    {
     "is_this_ptr" : true,
     "referenced_type" : "_ZTIPVNSt3__111atomic_flagE"
    },
    {
     "default_arg" : true,
     "referenced_type" : "_ZTINSt3__112memory_orderE"
    }
   ],
   "return_type" : "_ZTIb",
   "source_file" : "external/libcxx/include/atomic"
  },
  {
   "function_name" : "std::__1::atomic_flag::clear",
   "linker_set_key" : "_ZNVSt3__111atomic_flag5clearENS_12memory_orderE",
   "parameters" :
   [
    {
     "is_this_ptr" : true,
     "referenced_type" : "_ZTIPVNSt3__111atomic_flagE"
    },
    {
     "default_arg" : true,
     "referenced_type" : "_ZTINSt3__112memory_orderE"
    }
   ],
   "return_type" : "_ZTIv",
   "source_file" : "external/libcxx/include/atomic"
  },
  {
   "function_name" : "std::operator&=",
   "linker_set_key" : "_ZStaNRSt4byteS_",
   "parameters" :
   [
    {
     "referenced_type" : "_ZTIRSt4byte"
    },
    {
     "referenced_type" : "_ZTISt4byte"
    }
   ],
   "return_type" : "_ZTIRSt4byte",
   "source_file" : "external/libcxx/include/cstddef"
  },
  {
   "function_name" : "std::operator&",
   "linker_set_key" : "_ZStanSt4byteS_",
   "parameters" :
   [
    {
     "referenced_type" : "_ZTISt4byte"
    },
    {
     "referenced_type" : "_ZTISt4byte"
    }
   ],
   "return_type" : "_ZTISt4byte",
   "source_file" : "external/libcxx/include/cstddef"
  },
  {
   "function_name" : "std::operator~",
   "linker_set_key" : "_ZStcoSt4byte",
   "parameters" :
   [
    {
     "referenced_type" : "_ZTISt4byte"
    }
   ],
   "return_type" : "_ZTISt4byte",
   "source_file" : "external/libcxx/include/cstddef"
  },
  {
   "function_name" : "std::operator^=",
   "linker_set_key" : "_ZSteORSt4byteS_",
   "parameters" :
   [
    {
     "referenced_type" : "_ZTIRSt4byte"
    },
    {
     "referenced_type" : "_ZTISt4byte"
    }
   ],
   "return_type" : "_ZTIRSt4byte",
   "source_file" : "external/libcxx/include/cstddef"
  },
  {
   "function_name" : "std::operator^",
   "linker_set_key" : "_ZSteoSt4byteS_",
   "parameters" :
   [
    {
     "referenced_type" : "_ZTISt4byte"
    },
    {
     "referenced_type" : "_ZTISt4byte"
    }
   ],
   "return_type" : "_ZTISt4byte",
   "source_file" : "external/libcxx/include/cstddef"
  },
  {
   "function_name" : "std::operator==",
   "linker_set_key" : "_ZSteqRKSt13exception_ptrS1_",
   "parameters" :
   [
    {
     "referenced_type" : "_ZTIRKSt13exception_ptr"
    },
    {
     "referenced_type" : "_ZTIRKSt13exception_ptr"
    }
   ],
   "return_type" : "_ZTIb",
   "source_file" : "external/libcxx/include/exception"
  },
  {
   "function_name" : "std::operator!=",
   "linker_set_key" : "_ZStneRKSt13exception_ptrS1_",
   "parameters" :
   [
    {
     "referenced_type" : "_ZTIRKSt13exception_ptr"
    },
    {
     "referenced_type" : "_ZTIRKSt13exception_ptr"
    }
   ],
   "return_type" : "_ZTIb",
   "source_file" : "external/libcxx/include/exception"
  },
  {
   "function_name" : "std::operator|=",
   "linker_set_key" : "_ZStoRRSt4byteS_",
   "parameters" :
   [
    {
     "referenced_type" : "_ZTIRSt4byte"
    },
    {
     "referenced_type" : "_ZTISt4byte"
    }
   ],
   "return_type" : "_ZTIRSt4byte",
   "source_file" : "external/libcxx/include/cstddef"
  },
  {
   "function_name" : "std::operator|",
   "linker_set_key" : "_ZStorSt4byteS_",
   "parameters" :
   [
    {
     "referenced_type" : "_ZTISt4byte"
    },
    {
     "referenced_type" : "_ZTISt4byte"
    }
   ],
   "return_type" : "_ZTISt4byte",
   "source_file" : "external/libcxx/include/cstddef"
  },
  {
   "function_name" : "operator delete[]",
   "linker_set_key" : "_ZdaPvS_",
   "parameters" :
   [
    {
     "referenced_type" : "_ZTIPv"
    },
    {
     "referenced_type" : "_ZTIPv"
    }
   ],
   "return_type" : "_ZTIv",
   "source_file" : "external/libcxx/include/new"
  },
  {
   "function_name" : "operator delete",
   "linker_set_key" : "_ZdlPvS_",
   "parameters" :
   [
    {
     "referenced_type" : "_ZTIPv"
    },
    {
     "referenced_type" : "_ZTIPv"
    }
   ],
   "return_type" : "_ZTIv",
   "source_file" : "external/libcxx/include/new"
  },
  {
   "function_name" : "operator new[]",
   "linker_set_key" : "_ZnamPv",
   "parameters" :
   [
    {
     "referenced_type" : "_ZTIm"
    },
    {
     "referenced_type" : "_ZTIPv"
    }
   ],
   "return_type" : "_ZTIPv",
   "source_file" : "external/libcxx/include/new"
  },
  {
   "function_name" : "operator new",
   "linker_set_key" : "_ZnwmPv",
   "parameters" :
   [
    {
     "referenced_type" : "_ZTIm"
    },
    {
     "referenced_type" : "_ZTIPv"
    }
   ],
   "return_type" : "_ZTIPv",
   "source_file" : "external/libcxx/include/new"
  }
 ],
 "global_vars" :
 [
  {
   "linker_set_key" : "_ZNSt3__110__log2_imp5valueE",
   "name" : "std::__1::__log2_imp::value",
   "referenced_type" : "_ZTIKm",
   "source_file" : "external/libcxx/include/algorithm"
  },
  {
   "linker_set_key" : "_ZNSt3__110__log2_impILy0EXT_EE5valueE",
   "name" : "std::__1::__log2_imp<0, _Rp>::value",
   "referenced_type" : "_ZTIKm",
   "source_file" : "external/libcxx/include/algorithm"
  },
  {
   "linker_set_key" : "_ZNSt3__110__log2_impIXT_ELm0EE5valueE",
   "name" : "std::__1::__log2_imp<_Xp, 0>::value",
   "referenced_type" : "_ZTIKm",
   "source_file" : "external/libcxx/include/algorithm"
  },
  {
   "linker_set_key" : "_ZNSt3__110is_array_vE",
   "name" : "std::__1::is_array_v",
   "referenced_type" : "_ZTIKb",
   "source_file" : "external/libcxx/include/type_traits"
  },
  {
   "linker_set_key" : "_ZNSt3__110is_class_vE",
   "name" : "std::__1::is_class_v",
   "referenced_type" : "_ZTIKb",
   "source_file" : "external/libcxx/include/type_traits"
  },
  {
   "linker_set_key" : "_ZNSt3__110is_const_vE",
   "name" : "std::__1::is_const_v",
   "referenced_type" : "_ZTIKb",
   "source_file" : "external/libcxx/include/type_traits"
  },
  {
   "linker_set_key" : "_ZNSt3__110is_empty_vE",
   "name" : "std::__1::is_empty_v",
   "referenced_type" : "_ZTIKb",
   "source_file" : "external/libcxx/include/type_traits"
  },
  {
   "linker_set_key" : "_ZNSt3__110is_final_vE",
   "name" : "std::__1::is_final_v",
   "referenced_type" : "_ZTIKb",
   "source_file" : "external/libcxx/include/type_traits"
  },
  {
   "linker_set_key" : "_ZNSt3__110is_union_vE",
   "name" : "std::__1::is_union_v",
   "referenced_type" : "_ZTIKb",
   "source_file" : "external/libcxx/include/type_traits"
  },
  {
   "linker_set_key" : "_ZNSt3__110negation_vE",
   "name" : "std::__1::negation_v",
   "referenced_type" : "_ZTIKb",
   "source_file" : "external/libcxx/include/type_traits"
  },
  {
   "linker_set_key" : "_ZNSt3__111__bit_array15__bits_per_wordE",
   "name" : "std::__1::__bit_array::__bits_per_word",
   "referenced_type" : "_ZTIKj",
   "source_file" : "external/libcxx/include/__bit_reference"
  },
  {
   "linker_set_key" : "_ZNSt3__111__bit_array3_NpE",
   "name" : "std::__1::__bit_array::_Np",
   "referenced_type" : "_ZTIKj",
   "source_file" : "external/libcxx/include/__bit_reference"
  },
  {
   "access" : "private",
   "linker_set_key" : "_ZNSt3__111__ratio_add11__gcd_d1_d2E",
   "name" : "std::__1::__ratio_add::__gcd_d1_d2",
   "referenced_type" : "_ZTIKl",
   "source_file" : "external/libcxx/include/ratio"
  },
  {
   "access" : "private",
   "linker_set_key" : "_ZNSt3__111__ratio_add11__gcd_n1_n2E",
   "name" : "std::__1::__ratio_add::__gcd_n1_n2",
   "referenced_type" : "_ZTIKl",
   "source_file" : "external/libcxx/include/ratio"
  },
  {
   "linker_set_key" : "_ZNSt3__111is_object_vE",
   "name" : "std::__1::is_object_v",
   "referenced_type" : "_ZTIKb",
   "source_file" : "external/libcxx/include/type_traits"
  },
  {
   "linker_set_key" : "_ZNSt3__111is_scalar_vE",
   "name" : "std::__1::is_scalar_v",
   "referenced_type" : "_ZTIKb",
   "source_file" : "external/libcxx/include/type_traits"
  },
  {
   "linker_set_key" : "_ZNSt3__111is_signed_vE",
   "name" : "std::__1::is_signed_v",
   "referenced_type" : "_ZTIKb",
   "source_file" : "external/libcxx/include/type_traits"
  },
  {
   "linker_set_key" : "_ZNSt3__112_GLOBAL__N_16ignoreE",
   "name" : "std::__1::(anonymous namespace)::ignore",
   "referenced_type" : "_ZTIKNSt3__110__ignore_tIhEE",
   "source_file" : "external/libcxx/include/tuple"
  },
  {
   "linker_set_key" : "_ZNSt3__112__align_type5valueE",
   "name" : "std::__1::__align_type::value",
   "referenced_type" : "_ZTIKm",
   "source_file" : "external/libcxx/include/type_traits"
  },
  {
   "linker_set_key" : "_ZNSt3__112__align_typeINS_15__struct_doubleEE5valueE",
   "name" : "std::__1::__align_type<std::__1::__struct_double>::value",
   "referenced_type" : "_ZTIKm",
   "source_file" : "external/libcxx/include/type_traits"
  },
  {
   "linker_set_key" : "_ZNSt3__112__align_typeINS_16__struct_double4EE5valueE",
   "name" : "std::__1::__align_type<std::__1::__struct_double4>::value",
   "referenced_type" : "_ZTIKm",
   "source_file" : "external/libcxx/include/type_traits"
  },
  {
   "linker_set_key" : "_ZNSt3__112__align_typeIPiE5valueE",
   "name" : "std::__1::__align_type<int *>::value",
   "referenced_type" : "_ZTIKm",
   "source_file" : "external/libcxx/include/type_traits"
  },
  {
   "linker_set_key" : "_ZNSt3__112__align_typeIdE5valueE",
   "name" : "std::__1::__align_type<double>::value",
   "referenced_type" : "_ZTIKm",
   "source_file" : "external/libcxx/include/type_traits"
  },
  {
   "linker_set_key" : "_ZNSt3__112__align_typeIeE5valueE",
   "name" : "std::__1::__align_type<long double>::value",
   "referenced_type" : "_ZTIKm",
   "source_file" : "external/libcxx/include/type_traits"
  },
  {
   "linker_set_key" : "_ZNSt3__112__align_typeIhE5valueE",
   "name" : "std::__1::__align_type<unsigned char>::value",
   "referenced_type" : "_ZTIKm",
   "source_file" : "external/libcxx/include/type_traits"
  },
  {
   "linker_set_key" : "_ZNSt3__112__align_typeIjE5valueE",
   "name" : "std::__1::__align_type<unsigned int>::value",
   "referenced_type" : "_ZTIKm",
   "source_file" : "external/libcxx/include/type_traits"
  },
  {
   "linker_set_key" : "_ZNSt3__112__align_typeImE5valueE",
   "name" : "std::__1::__align_type<unsigned long>::value",
   "referenced_type" : "_ZTIKm",
   "source_file" : "external/libcxx/include/type_traits"
  },
  {
   "linker_set_key" : "_ZNSt3__112__align_typeItE5valueE",
   "name" : "std::__1::__align_type<unsigned short>::value",
   "referenced_type" : "_ZTIKm",
   "source_file" : "external/libcxx/include/type_traits"
  },
  {
   "linker_set_key" : "_ZNSt3__112__align_typeIyE5valueE",
   "name" : "std::__1::__align_type<unsigned long long>::value",
   "referenced_type" : "_ZTIKm",
   "source_file" : "external/libcxx/include/type_traits"
  },
  {
   "linker_set_key" : "_ZNSt3__112__has_rebind5valueE",
   "name" : "std::__1::__has_rebind::value",
   "referenced_type" : "_ZTIKb",
   "source_file" : "external/libcxx/include/memory"
  },
  {
   "linker_set_key" : "_ZNSt3__112__ratio_less5valueE",
   "name" : "std::__1::__ratio_less::value",
   "referenced_type" : "_ZTIKb",
   "source_file" : "external/libcxx/include/ratio"
  },
  {
   "linker_set_key" : "_ZNSt3__112__ratio_lessIT_T0_Ll1ELl1EE5valueE",
   "name" : "std::__1::__ratio_less<type-parameter-0-0, type-parameter-0-1, 1, 1>::value",
   "referenced_type" : "_ZTIKb",
   "source_file" : "external/libcxx/include/ratio"
  },
  {
   "linker_set_key" : "_ZNSt3__112__ratio_lessIT_T0_Lln1ELln1EE5valueE",
   "name" : "std::__1::__ratio_less<type-parameter-0-0, type-parameter-0-1, -1, -1>::value",
   "referenced_type" : "_ZTIKb",
   "source_file" : "external/libcxx/include/ratio"
  },
  {
   "linker_set_key" : "_ZNSt3__112__static_abs5valueE",
   "name" : "std::__1::__static_abs::value",
   "referenced_type" : "_ZTIKl",
   "source_file" : "external/libcxx/include/ratio"
  },
  {
   "linker_set_key" : "_ZNSt3__112__static_absILl1000000000EE5valueE",
   "name" : "std::__1::__static_abs<1000000000>::value",
   "referenced_type" : "_ZTIKl",
   "source_file" : "external/libcxx/include/ratio"
  },
  {
   "linker_set_key" : "_ZNSt3__112__static_absILl1000000EE5valueE",
   "name" : "std::__1::__static_abs<1000000>::value",
   "referenced_type" : "_ZTIKl",
   "source_file" : "external/libcxx/include/ratio"
  },
  {
   "linker_set_key" : "_ZNSt3__112__static_absILl1000EE5valueE",
   "name" : "std::__1::__static_abs<1000>::value",
   "referenced_type" : "_ZTIKl",
   "source_file" : "external/libcxx/include/ratio"
  },
  {
   "linker_set_key" : "_ZNSt3__112__static_absILl1EE5valueE",
   "name" : "std::__1::__static_abs<1>::value",
   "referenced_type" : "_ZTIKl",
   "source_file" : "external/libcxx/include/ratio"
  },
  {
   "linker_set_key" : "_ZNSt3__112__static_absILl3600EE5valueE",
   "name" : "std::__1::__static_abs<3600>::value",
   "referenced_type" : "_ZTIKl",
   "source_file" : "external/libcxx/include/ratio"
  },
  {
   "linker_set_key" : "_ZNSt3__112__static_absILl60EE5valueE",
   "name" : "std::__1::__static_abs<60>::value",
   "referenced_type" : "_ZTIKl",
   "source_file" : "external/libcxx/include/ratio"
  },
  {
   "linker_set_key" : "_ZNSt3__112__static_gcd5valueE",
   "name" : "std::__1::__static_gcd::value",
   "referenced_type" : "_ZTIKl",
   "source_file" : "external/libcxx/include/ratio"
  },
  {
   "linker_set_key" : "_ZNSt3__112__static_gcdILl0ELl0EE5valueE",
   "name" : "std::__1::__static_gcd<0, 0>::value",
   "referenced_type" : "_ZTIKl",
   "source_file" : "external/libcxx/include/ratio"
  },
  {
   "linker_set_key" : "_ZNSt3__112__static_gcdILl1000000000ELl0EE5valueE",
   "name" : "std::__1::__static_gcd<1000000000, 0>::value",
   "referenced_type" : "_ZTIKl",
   "source_file" : "external/libcxx/include/ratio"
  },
  {
   "linker_set_key" : "_ZNSt3__112__static_gcdILl1000000000ELl1000000000EE5valueE",
   "name" : "std::__1::__static_gcd<1000000000, 1000000000>::value",
   "referenced_type" : "_ZTIKl",
   "source_file" : "external/libcxx/include/ratio"
  },
  {
   "linker_set_key" : "_ZNSt3__112__static_gcdILl1000000000ELl1EE5valueE",
   "name" : "std::__1::__static_gcd<1000000000, 1>::value",
   "referenced_type" : "_ZTIKl",
   "source_file" : "external/libcxx/include/ratio"
  },
  {
   "linker_set_key" : "_ZNSt3__112__static_gcdILl1000000ELl0EE5valueE",
   "name" : "std::__1::__static_gcd<1000000, 0>::value",
   "referenced_type" : "_ZTIKl",
   "source_file" : "external/libcxx/include/ratio"
  },
  {
   "linker_set_key" : "_ZNSt3__112__static_gcdILl1000000ELl1000000EE5valueE",
   "name" : "std::__1::__static_gcd<1000000, 1000000>::value",
   "referenced_type" : "_ZTIKl",
   "source_file" : "external/libcxx/include/ratio"
  },
  {
   "linker_set_key" : "_ZNSt3__112__static_gcdILl1000000ELl1EE5valueE",
   "name" : "std::__1::__static_gcd<1000000, 1>::value",
   "referenced_type" : "_ZTIKl",
   "source_file" : "external/libcxx/include/ratio"
  },
  {
   "linker_set_key" : "_ZNSt3__112__static_gcdILl1000ELl0EE5valueE",
   "name" : "std::__1::__static_gcd<1000, 0>::value",
   "referenced_type" : "_ZTIKl",
   "source_file" : "external/libcxx/include/ratio"
  },
  {
   "linker_set_key" : "_ZNSt3__112__static_gcdILl1000ELl1000EE5valueE",
   "name" : "std::__1::__static_gcd<1000, 1000>::value",
   "referenced_type" : "_ZTIKl",
   "source_file" : "external/libcxx/include/ratio"
  },
  {
   "linker_set_key" : "_ZNSt3__112__static_gcdILl1000ELl1EE5valueE",
   "name" : "std::__1::__static_gcd<1000, 1>::value",
   "referenced_type" : "_ZTIKl",
   "source_file" : "external/libcxx/include/ratio"
  },
  {
   "linker_set_key" : "_ZNSt3__112__static_gcdILl1ELl0EE5valueE",
   "name" : "std::__1::__static_gcd<1, 0>::value",
   "referenced_type" : "_ZTIKl",
   "source_file" : "external/libcxx/include/ratio"
  },
  {
   "linker_set_key" : "_ZNSt3__112__static_gcdILl1ELl1000000000EE5valueE",
   "name" : "std::__1::__static_gcd<1, 1000000000>::value",
   "referenced_type" : "_ZTIKl",
   "source_file" : "external/libcxx/include/ratio"
  },
  {
   "linker_set_key" : "_ZNSt3__112__static_gcdILl1ELl1000000EE5valueE",
   "name" : "std::__1::__static_gcd<1, 1000000>::value",
   "referenced_type" : "_ZTIKl",
   "source_file" : "external/libcxx/include/ratio"
  },
  {
   "linker_set_key" : "_ZNSt3__112__static_gcdILl1ELl1000EE5valueE",
   "name" : "std::__1::__static_gcd<1, 1000>::value",
   "referenced_type" : "_ZTIKl",
   "source_file" : "external/libcxx/include/ratio"
  },
  {
   "linker_set_key" : "_ZNSt3__112__static_gcdILl1ELl1EE5valueE",
   "name" : "std::__1::__static_gcd<1, 1>::value",
   "referenced_type" : "_ZTIKl",
   "source_file" : "external/libcxx/include/ratio"
  },
  {
   "linker_set_key" : "_ZNSt3__112__static_gcdILl3600ELl0EE5valueE",
   "name" : "std::__1::__static_gcd<3600, 0>::value",
   "referenced_type" : "_ZTIKl",
   "source_file" : "external/libcxx/include/ratio"
  },
  {
   "linker_set_key" : "_ZNSt3__112__static_gcdILl3600ELl1EE5valueE",
   "name" : "std::__1::__static_gcd<3600, 1>::value",
   "referenced_type" : "_ZTIKl",
   "source_file" : "external/libcxx/include/ratio"
  },
  {
   "linker_set_key" : "_ZNSt3__112__static_gcdILl3600ELl3600EE5valueE",
   "name" : "std::__1::__static_gcd<3600, 3600>::value",
   "referenced_type" : "_ZTIKl",
   "source_file" : "external/libcxx/include/ratio"
  },
  {
   "linker_set_key" : "_ZNSt3__112__static_gcdILl60ELl0EE5valueE",
   "name" : "std::__1::__static_gcd<60, 0>::value",
   "referenced_type" : "_ZTIKl",
   "source_file" : "external/libcxx/include/ratio"
  },
  {
   "linker_set_key" : "_ZNSt3__112__static_gcdILl60ELl1EE5valueE",
   "name" : "std::__1::__static_gcd<60, 1>::value",
   "referenced_type" : "_ZTIKl",
   "source_file" : "external/libcxx/include/ratio"
  },
  {
   "linker_set_key" : "_ZNSt3__112__static_gcdILl60ELl60EE5valueE",
   "name" : "std::__1::__static_gcd<60, 60>::value",
   "referenced_type" : "_ZTIKl",
   "source_file" : "external/libcxx/include/ratio"
  },
  {
   "linker_set_key" : "_ZNSt3__112__static_gcdIXT_ELl0EE5valueE",
   "name" : "std::__1::__static_gcd<_Xp, 0>::value",
   "referenced_type" : "_ZTIKl",
   "source_file" : "external/libcxx/include/ratio"
  },
  {
   "linker_set_key" : "_ZNSt3__112__static_lcm5valueE",
   "name" : "std::__1::__static_lcm::value",
   "referenced_type" : "_ZTIKl",
   "source_file" : "external/libcxx/include/ratio"
  },
  {
   "linker_set_key" : "_ZNSt3__112__static_lcmILl1000000000ELl1000000000EE5valueE",
   "name" : "std::__1::__static_lcm<1000000000, 1000000000>::value",
   "referenced_type" : "_ZTIKl",
   "source_file" : "external/libcxx/include/ratio"
  },
  {
   "linker_set_key" : "_ZNSt3__112__static_lcmILl1000000000ELl1EE5valueE",
   "name" : "std::__1::__static_lcm<1000000000, 1>::value",
   "referenced_type" : "_ZTIKl",
   "source_file" : "external/libcxx/include/ratio"
  },
  {
   "linker_set_key" : "_ZNSt3__112__static_lcmILl1000000ELl1000000EE5valueE",
   "name" : "std::__1::__static_lcm<1000000, 1000000>::value",
   "referenced_type" : "_ZTIKl",
   "source_file" : "external/libcxx/include/ratio"
  },
  {
   "linker_set_key" : "_ZNSt3__112__static_lcmILl1000ELl1000EE5valueE",
   "name" : "std::__1::__static_lcm<1000, 1000>::value",
   "referenced_type" : "_ZTIKl",
   "source_file" : "external/libcxx/include/ratio"
  },
  {
   "linker_set_key" : "_ZNSt3__112__static_lcmILl1ELl1EE5valueE",
   "name" : "std::__1::__static_lcm<1, 1>::value",
   "referenced_type" : "_ZTIKl",
   "source_file" : "external/libcxx/include/ratio"
  },
  {
   "linker_set_key" : "_ZNSt3__112__static_maxIXT_EJEE5valueE",
   "name" : "std::__1::__static_max<_I0>::value",
   "referenced_type" : "_ZTIKm",
   "source_file" : "external/libcxx/include/type_traits"
  },
  {
   "linker_set_key" : "_ZNSt3__112__static_maxIXT_EJXT0_EXspT1_EEE5valueE",
   "name" : "std::__1::__static_max<_I0, _I1, _In...>::value",
   "referenced_type" : "_ZTIKm",
   "source_file" : "external/libcxx/include/type_traits"
  },
  {
   "access" : "private",
   "linker_set_key" : "_ZNSt3__112basic_stringIDiNS_11char_traitsIDiEENS_9allocatorIDiEEE11__long_maskE",
   "name" : "std::__1::basic_string<char32_t, std::__1::char_traits<char32_t>, std::__1::allocator<char32_t>>::__long_mask",
   "referenced_type" : "_ZTIKm",
   "source_file" : "external/libcxx/include/string"
  },
  {
   "access" : "private",
   "linker_set_key" : "_ZNSt3__112basic_stringIDiNS_11char_traitsIDiEENS_9allocatorIDiEEE12__short_maskE",
   "name" : "std::__1::basic_string<char32_t, std::__1::char_traits<char32_t>, std::__1::allocator<char32_t>>::__short_mask",
   "referenced_type" : "_ZTIKm",
   "source_file" : "external/libcxx/include/string"
  },
  {
   "linker_set_key" : "_ZNSt3__112basic_stringIDiNS_11char_traitsIDiEENS_9allocatorIDiEEE4nposE",
