{
 "array_types" : [],
 "builtin_types" :
 [
  {
   "alignment" : 8,
   "linker_set_key" : "_ZTIDn",
   "name" : "nullptr_t",
   "referenced_type" : "_ZTIDn",
   "self_type" : "_ZTIDn",
   "size" : 8
  },
  {
   "alignment" : 1,
   "is_integral" : true,
   "is_unsigned" : true,
   "linker_set_key" : "_ZTIb",
   "name" : "bool",
   "referenced_type" : "_ZTIb",
   "self_type" : "_ZTIb",
   "size" : 1
  },
  {
   "alignment" : 1,
   "is_integral" : true,
   "linker_set_key" : "_ZTIc",
   "name" : "char",
   "referenced_type" : "_ZTIc",
   "self_type" : "_ZTIc",
   "size" : 1
  },
  {
   "alignment" : 1,
   "is_integral" : true,
   "is_unsigned" : true,
   "linker_set_key" : "_ZTIh",
   "name" : "unsigned char",
   "referenced_type" : "_ZTIh",
   "self_type" : "_ZTIh",
   "size" : 1
  },
  {
   "alignment" : 4,
   "is_integral" : true,
   "linker_set_key" : "_ZTIi",
   "name" : "int",
   "referenced_type" : "_ZTIi",
   "self_type" : "_ZTIi",
   "size" : 4
  },
  {
   "alignment" : 4,
   "is_integral" : true,
   "is_unsigned" : true,
   "linker_set_key" : "_ZTIj",
   "name" : "unsigned int",
   "referenced_type" : "_ZTIj",
   "self_type" : "_ZTIj",
   "size" : 4
  },
  {
   "alignment" : 8,
   "is_integral" : true,
   "linker_set_key" : "_ZTIl",
   "name" : "long",
   "referenced_type" : "_ZTIl",
   "self_type" : "_ZTIl",
   "size" : 8
  },
  {
   "alignment" : 8,
   "is_integral" : true,
   "is_unsigned" : true,
   "linker_set_key" : "_ZTIm",
   "name" : "unsigned long",
   "referenced_type" : "_ZTIm",
   "self_type" : "_ZTIm",
   "size" : 8
  },
  {
   "linker_set_key" : "_ZTIv",
   "name" : "void",
   "referenced_type" : "_ZTIv",
   "self_type" : "_ZTIv"
  }
 ],
 "elf_functions" :
 [
  {
   "binding" : "weak",
   "name" : "_ZN3ndk12BnCInterfaceIN4aidl7android8hardware8security7keymint14IKeyMintDeviceEE8asBinderEv"
  },
  {
   "binding" : "weak",
   "name" : "_ZN3ndk12BnCInterfaceIN4aidl7android8hardware8security7keymint17IKeyMintOperationEE8asBinderEv"
  },
  {
   "binding" : "weak",
   "name" : "_ZN3ndk12BnCInterfaceIN4aidl7android8hardware8security7keymint29IRemotelyProvisionedComponentEE8asBinderEv"
  },
  {
   "binding" : "weak",
   "name" : "_ZN3ndk12BpCInterfaceIN4aidl7android8hardware8security7keymint14IKeyMintDeviceEE8asBinderEv"
  },
  {
   "binding" : "weak",
   "name" : "_ZN3ndk12BpCInterfaceIN4aidl7android8hardware8security7keymint17IKeyMintOperationEE8asBinderEv"
  },
  {
   "binding" : "weak",
   "name" : "_ZN3ndk12BpCInterfaceIN4aidl7android8hardware8security7keymint29IRemotelyProvisionedComponentEE8asBinderEv"
  },
  {
   "binding" : "weak",
   "name" : "_ZN3ndk38AParcel_readStdVectorParcelableElementIN4aidl7android8hardware8security7keymint11CertificateEEEiPK7AParcelPvm"
  },
  {
   "binding" : "weak",
   "name" : "_ZN3ndk38AParcel_readStdVectorParcelableElementIN4aidl7android8hardware8security7keymint12KeyParameterEEEiPK7AParcelPvm"
  },
  {
   "binding" : "weak",
   "name" : "_ZN3ndk38AParcel_readStdVectorParcelableElementIN4aidl7android8hardware8security7keymint14MacedPublicKeyEEEiPK7AParcelPvm"
  },
  {
   "binding" : "weak",
   "name" : "_ZN3ndk38AParcel_readStdVectorParcelableElementIN4aidl7android8hardware8security7keymint18KeyCharacteristicsEEEiPK7AParcelPvm"
  },
  {
   "binding" : "weak",
   "name" : "_ZN3ndk39AParcel_writeStdVectorParcelableElementIN4aidl7android8hardware8security7keymint11CertificateEEEiP7AParcelPKvm"
  },
  {
   "binding" : "weak",
   "name" : "_ZN3ndk39AParcel_writeStdVectorParcelableElementIN4aidl7android8hardware8security7keymint12KeyParameterEEEiP7AParcelPKvm"
  },
  {
   "binding" : "weak",
   "name" : "_ZN3ndk39AParcel_writeStdVectorParcelableElementIN4aidl7android8hardware8security7keymint14MacedPublicKeyEEEiP7AParcelPKvm"
  },
  {
   "binding" : "weak",
   "name" : "_ZN3ndk39AParcel_writeStdVectorParcelableElementIN4aidl7android8hardware8security7keymint18KeyCharacteristicsEEEiP7AParcelPKvm"
  },
  {
   "name" : "_ZN4aidl7android8hardware8security7keymint10DeviceInfo14readFromParcelEPK7AParcel"
  },
  {
   "name" : "_ZN4aidl7android8hardware8security7keymint11BeginResult14readFromParcelEPK7AParcel"
  },
  {
   "name" : "_ZN4aidl7android8hardware8security7keymint11Certificate14readFromParcelEPK7AParcel"
  },
  {
   "name" : "_ZN4aidl7android8hardware8security7keymint12KeyParameter14readFromParcelEPK7AParcel"
  },
  {
   "name" : "_ZN4aidl7android8hardware8security7keymint13ProtectedData14readFromParcelEPK7AParcel"
  },
  {
   "name" : "_ZN4aidl7android8hardware8security7keymint14AttestationKey14readFromParcelEPK7AParcel"
  },
  {
   "name" : "_ZN4aidl7android8hardware8security7keymint14IKeyMintDevice10fromBinderERKN3ndk10SpAIBinderE"
  },
  {
   "name" : "_ZN4aidl7android8hardware8security7keymint14IKeyMintDevice13writeToParcelEP7AParcelRKNSt3__110shared_ptrIS4_EE"
  },
  {
   "name" : "_ZN4aidl7android8hardware8security7keymint14IKeyMintDevice14getDefaultImplEv"
  },
  {
   "name" : "_ZN4aidl7android8hardware8security7keymint14IKeyMintDevice14readFromParcelEPK7AParcelPNSt3__110shared_ptrIS4_EE"
  },
  {
   "name" : "_ZN4aidl7android8hardware8security7keymint14IKeyMintDevice14setDefaultImplERKNSt3__110shared_ptrIS4_EE"
  },
  {
   "name" : "_ZN4aidl7android8hardware8security7keymint14IKeyMintDeviceC2Ev"
  },
  {
   "name" : "_ZN4aidl7android8hardware8security7keymint14IKeyMintDeviceD0Ev"
  },
  {
   "name" : "_ZN4aidl7android8hardware8security7keymint14IKeyMintDeviceD1Ev"
  },
  {
   "name" : "_ZN4aidl7android8hardware8security7keymint14IKeyMintDeviceD2Ev"
  },
  {
   "name" : "_ZN4aidl7android8hardware8security7keymint14MacedPublicKey14readFromParcelEPK7AParcel"
  },
  {
   "name" : "_ZN4aidl7android8hardware8security7keymint15BnKeyMintDevice12createBinderEv"
  },
  {
   "name" : "_ZN4aidl7android8hardware8security7keymint15BnKeyMintDevice16getInterfaceHashEPNSt3__112basic_stringIcNS5_11char_traitsIcEENS5_9allocatorIcEEEE"
  },
  {
   "name" : "_ZN4aidl7android8hardware8security7keymint15BnKeyMintDevice19getInterfaceVersionEPi"
  },
  {
   "name" : "_ZN4aidl7android8hardware8security7keymint15BnKeyMintDeviceC2Ev"
  },
  {
   "name" : "_ZN4aidl7android8hardware8security7keymint15BnKeyMintDeviceD0Ev"
  },
  {
   "name" : "_ZN4aidl7android8hardware8security7keymint15BnKeyMintDeviceD1Ev"
  },
  {
   "name" : "_ZN4aidl7android8hardware8security7keymint15BnKeyMintDeviceD2Ev"
  },
  {
   "name" : "_ZN4aidl7android8hardware8security7keymint15BpKeyMintDevice10upgradeKeyERKNSt3__16vectorIhNS5_9allocatorIhEEEERKNS6_INS3_12KeyParameterENS7_ISC_EEEEPS9_"
  },
  {
   "name" : "_ZN4aidl7android8hardware8security7keymint15BpKeyMintDevice11generateKeyERKNSt3__16vectorINS3_12KeyParameterENS5_9allocatorIS7_EEEERKNS5_8optionalINS3_14AttestationKeyEEEPNS3_17KeyCreationResultE"
  },
  {
   "name" : "_ZN4aidl7android8hardware8security7keymint15BpKeyMintDevice12deviceLockedEbRKNSt3__18optionalINS2_11secureclock14TimeStampTokenEEE"
  },
  {
   "name" : "_ZN4aidl7android8hardware8security7keymint15BpKeyMintDevice13addRngEntropyERKNSt3__16vectorIhNS5_9allocatorIhEEEE"
  },
  {
   "name" : "_ZN4aidl7android8hardware8security7keymint15BpKeyMintDevice13deleteAllKeysEv"
  },
  {
   "name" : "_ZN4aidl7android8hardware8security7keymint15BpKeyMintDevice14earlyBootEndedEv"
  },
  {
   "name" : "_ZN4aidl7android8hardware8security7keymint15BpKeyMintDevice15getHardwareInfoEPNS3_19KeyMintHardwareInfoE"
  },
  {
   "name" : "_ZN4aidl7android8hardware8security7keymint15BpKeyMintDevice16getInterfaceHashEPNSt3__112basic_stringIcNS5_11char_traitsIcEENS5_9allocatorIcEEEE"
  },
  {
   "name" : "_ZN4aidl7android8hardware8security7keymint15BpKeyMintDevice16importWrappedKeyERKNSt3__16vectorIhNS5_9allocatorIhEEEESB_SB_RKNS6_INS3_12KeyParameterENS7_ISC_EEEEllPNS3_17KeyCreationResultE"
  },
  {
   "name" : "_ZN4aidl7android8hardware8security7keymint15BpKeyMintDevice19getInterfaceVersionEPi"
  },
  {
   "name" : "_ZN4aidl7android8hardware8security7keymint15BpKeyMintDevice21destroyAttestationIdsEv"
  },
  {
   "name" : "_ZN4aidl7android8hardware8security7keymint15BpKeyMintDevice21getKeyCharacteristicsERKNSt3__16vectorIhNS5_9allocatorIhEEEESB_SB_PNS6_INS3_18KeyCharacteristicsENS7_ISC_EEEE"
  },
  {
   "name" : "_ZN4aidl7android8hardware8security7keymint15BpKeyMintDevice28convertStorageKeyToEphemeralERKNSt3__16vectorIhNS5_9allocatorIhEEEEPS9_"
  },
  {
   "name" : "_ZN4aidl7android8hardware8security7keymint15BpKeyMintDevice5beginENS3_10KeyPurposeERKNSt3__16vectorIhNS6_9allocatorIhEEEERKNS7_INS3_12KeyParameterENS8_ISD_EEEERKNS6_8optionalINS3_17HardwareAuthTokenEEEPNS3_11BeginResultE"
  },
  {
   "name" : "_ZN4aidl7android8hardware8security7keymint15BpKeyMintDevice9deleteKeyERKNSt3__16vectorIhNS5_9allocatorIhEEEE"
  },
  {
   "name" : "_ZN4aidl7android8hardware8security7keymint15BpKeyMintDevice9importKeyERKNSt3__16vectorINS3_12KeyParameterENS5_9allocatorIS7_EEEENS3_9KeyFormatERKNS6_IhNS8_IhEEEERKNS5_8optionalINS3_14AttestationKeyEEEPNS3_17KeyCreationResultE"
  },
  {
   "name" : "_ZN4aidl7android8hardware8security7keymint15BpKeyMintDeviceC1ERKN3ndk10SpAIBinderE"
  },
  {
   "name" : "_ZN4aidl7android8hardware8security7keymint15BpKeyMintDeviceC2ERKN3ndk10SpAIBinderE"
  },
  {
   "name" : "_ZN4aidl7android8hardware8security7keymint15BpKeyMintDeviceD0Ev"
  },
  {
   "name" : "_ZN4aidl7android8hardware8security7keymint15BpKeyMintDeviceD1Ev"
  },
  {
   "name" : "_ZN4aidl7android8hardware8security7keymint15BpKeyMintDeviceD2Ev"
  },
  {
   "name" : "_ZN4aidl7android8hardware8security7keymint15RpcHardwareInfo14readFromParcelEPK7AParcel"
  },
  {
   "name" : "_ZN4aidl7android8hardware8security7keymint17HardwareAuthToken14readFromParcelEPK7AParcel"
  },
  {
   "name" : "_ZN4aidl7android8hardware8security7keymint17IKeyMintOperation10fromBinderERKN3ndk10SpAIBinderE"
  },
  {
   "name" : "_ZN4aidl7android8hardware8security7keymint17IKeyMintOperation13writeToParcelEP7AParcelRKNSt3__110shared_ptrIS4_EE"
  },
  {
   "name" : "_ZN4aidl7android8hardware8security7keymint17IKeyMintOperation14getDefaultImplEv"
  },
  {
   "name" : "_ZN4aidl7android8hardware8security7keymint17IKeyMintOperation14readFromParcelEPK7AParcelPNSt3__110shared_ptrIS4_EE"
  },
  {
   "name" : "_ZN4aidl7android8hardware8security7keymint17IKeyMintOperation14setDefaultImplERKNSt3__110shared_ptrIS4_EE"
  },
  {
   "name" : "_ZN4aidl7android8hardware8security7keymint17IKeyMintOperationC2Ev"
  },
  {
   "name" : "_ZN4aidl7android8hardware8security7keymint17IKeyMintOperationD0Ev"
  },
  {
   "name" : "_ZN4aidl7android8hardware8security7keymint17IKeyMintOperationD1Ev"
  },
  {
   "name" : "_ZN4aidl7android8hardware8security7keymint17IKeyMintOperationD2Ev"
  },
  {
   "name" : "_ZN4aidl7android8hardware8security7keymint17KeyCreationResult14readFromParcelEPK7AParcel"
  },
  {
   "name" : "_ZN4aidl7android8hardware8security7keymint17KeyParameterValue14readFromParcelEPK7AParcel"
  },
  {
   "name" : "_ZN4aidl7android8hardware8security7keymint18BnKeyMintOperation12createBinderEv"
  },
  {
   "name" : "_ZN4aidl7android8hardware8security7keymint18BnKeyMintOperation16getInterfaceHashEPNSt3__112basic_stringIcNS5_11char_traitsIcEENS5_9allocatorIcEEEE"
  },
  {
   "name" : "_ZN4aidl7android8hardware8security7keymint18BnKeyMintOperation19getInterfaceVersionEPi"
  },
  {
   "name" : "_ZN4aidl7android8hardware8security7keymint18BnKeyMintOperationC2Ev"
  },
  {
   "name" : "_ZN4aidl7android8hardware8security7keymint18BnKeyMintOperationD0Ev"
  },
  {
   "name" : "_ZN4aidl7android8hardware8security7keymint18BnKeyMintOperationD1Ev"
  },
  {
   "name" : "_ZN4aidl7android8hardware8security7keymint18BnKeyMintOperationD2Ev"
  },
  {
   "name" : "_ZN4aidl7android8hardware8security7keymint18BpKeyMintOperation16getInterfaceHashEPNSt3__112basic_stringIcNS5_11char_traitsIcEENS5_9allocatorIcEEEE"
  },
  {
   "name" : "_ZN4aidl7android8hardware8security7keymint18BpKeyMintOperation19getInterfaceVersionEPi"
  },
  {
   "name" : "_ZN4aidl7android8hardware8security7keymint18BpKeyMintOperation5abortEv"
  },
  {
   "name" : "_ZN4aidl7android8hardware8security7keymint18BpKeyMintOperation6finishERKNSt3__18optionalINS5_6vectorIhNS5_9allocatorIhEEEEEESD_RKNS6_INS3_17HardwareAuthTokenEEERKNS6_INS2_11secureclock14TimeStampTokenEEESD_PSA_"
  },
  {
   "name" : "_ZN4aidl7android8hardware8security7keymint18BpKeyMintOperation6updateERKNSt3__16vectorIhNS5_9allocatorIhEEEERKNS5_8optionalINS3_17HardwareAuthTokenEEERKNSC_INS2_11secureclock14TimeStampTokenEEEPS9_"
  },
  {
   "name" : "_ZN4aidl7android8hardware8security7keymint18BpKeyMintOperation9updateAadERKNSt3__16vectorIhNS5_9allocatorIhEEEERKNS5_8optionalINS3_17HardwareAuthTokenEEERKNSC_INS2_11secureclock14TimeStampTokenEEE"
  },
  {
   "name" : "_ZN4aidl7android8hardware8security7keymint18BpKeyMintOperationC1ERKN3ndk10SpAIBinderE"
  },
  {
   "name" : "_ZN4aidl7android8hardware8security7keymint18BpKeyMintOperationC2ERKN3ndk10SpAIBinderE"
  },
  {
   "name" : "_ZN4aidl7android8hardware8security7keymint18BpKeyMintOperationD0Ev"
  },
  {
   "name" : "_ZN4aidl7android8hardware8security7keymint18BpKeyMintOperationD1Ev"
  },
  {
   "name" : "_ZN4aidl7android8hardware8security7keymint18BpKeyMintOperationD2Ev"
  },
  {
   "name" : "_ZN4aidl7android8hardware8security7keymint18KeyCharacteristics14readFromParcelEPK7AParcel"
  },
  {
   "name" : "_ZN4aidl7android8hardware8security7keymint19KeyMintHardwareInfo14readFromParcelEPK7AParcel"
  },
  {
   "name" : "_ZN4aidl7android8hardware8security7keymint21IKeyMintDeviceDefault10upgradeKeyERKNSt3__16vectorIhNS5_9allocatorIhEEEERKNS6_INS3_12KeyParameterENS7_ISC_EEEEPS9_"
  },
  {
   "name" : "_ZN4aidl7android8hardware8security7keymint21IKeyMintDeviceDefault11generateKeyERKNSt3__16vectorINS3_12KeyParameterENS5_9allocatorIS7_EEEERKNS5_8optionalINS3_14AttestationKeyEEEPNS3_17KeyCreationResultE"
  },
  {
   "name" : "_ZN4aidl7android8hardware8security7keymint21IKeyMintDeviceDefault12deviceLockedEbRKNSt3__18optionalINS2_11secureclock14TimeStampTokenEEE"
  },
  {
   "name" : "_ZN4aidl7android8hardware8security7keymint21IKeyMintDeviceDefault13addRngEntropyERKNSt3__16vectorIhNS5_9allocatorIhEEEE"
  },
  {
   "name" : "_ZN4aidl7android8hardware8security7keymint21IKeyMintDeviceDefault13deleteAllKeysEv"
  },
  {
   "name" : "_ZN4aidl7android8hardware8security7keymint21IKeyMintDeviceDefault14earlyBootEndedEv"
  },
  {
   "name" : "_ZN4aidl7android8hardware8security7keymint21IKeyMintDeviceDefault15getHardwareInfoEPNS3_19KeyMintHardwareInfoE"
  },
  {
   "name" : "_ZN4aidl7android8hardware8security7keymint21IKeyMintDeviceDefault16getInterfaceHashEPNSt3__112basic_stringIcNS5_11char_traitsIcEENS5_9allocatorIcEEEE"
  },
  {
   "name" : "_ZN4aidl7android8hardware8security7keymint21IKeyMintDeviceDefault16importWrappedKeyERKNSt3__16vectorIhNS5_9allocatorIhEEEESB_SB_RKNS6_INS3_12KeyParameterENS7_ISC_EEEEllPNS3_17KeyCreationResultE"
  },
  {
   "name" : "_ZN4aidl7android8hardware8security7keymint21IKeyMintDeviceDefault19getInterfaceVersionEPi"
  },
  {
   "name" : "_ZN4aidl7android8hardware8security7keymint21IKeyMintDeviceDefault21destroyAttestationIdsEv"
  },
  {
   "name" : "_ZN4aidl7android8hardware8security7keymint21IKeyMintDeviceDefault21getKeyCharacteristicsERKNSt3__16vectorIhNS5_9allocatorIhEEEESB_SB_PNS6_INS3_18KeyCharacteristicsENS7_ISC_EEEE"
  },
  {
   "name" : "_ZN4aidl7android8hardware8security7keymint21IKeyMintDeviceDefault28convertStorageKeyToEphemeralERKNSt3__16vectorIhNS5_9allocatorIhEEEEPS9_"
  },
  {
   "name" : "_ZN4aidl7android8hardware8security7keymint21IKeyMintDeviceDefault5beginENS3_10KeyPurposeERKNSt3__16vectorIhNS6_9allocatorIhEEEERKNS7_INS3_12KeyParameterENS8_ISD_EEEERKNS6_8optionalINS3_17HardwareAuthTokenEEEPNS3_11BeginResultE"
  },
  {
   "name" : "_ZN4aidl7android8hardware8security7keymint21IKeyMintDeviceDefault8asBinderEv"
  },
  {
   "name" : "_ZN4aidl7android8hardware8security7keymint21IKeyMintDeviceDefault8isRemoteEv"
  },
  {
   "name" : "_ZN4aidl7android8hardware8security7keymint21IKeyMintDeviceDefault9deleteKeyERKNSt3__16vectorIhNS5_9allocatorIhEEEE"
  },
  {
   "name" : "_ZN4aidl7android8hardware8security7keymint21IKeyMintDeviceDefault9importKeyERKNSt3__16vectorINS3_12KeyParameterENS5_9allocatorIS7_EEEENS3_9KeyFormatERKNS6_IhNS8_IhEEEERKNS5_8optionalINS3_14AttestationKeyEEEPNS3_17KeyCreationResultE"
  },
  {
   "name" : "_ZN4aidl7android8hardware8security7keymint24IKeyMintOperationDefault16getInterfaceHashEPNSt3__112basic_stringIcNS5_11char_traitsIcEENS5_9allocatorIcEEEE"
  },
  {
   "name" : "_ZN4aidl7android8hardware8security7keymint24IKeyMintOperationDefault19getInterfaceVersionEPi"
  },
  {
   "name" : "_ZN4aidl7android8hardware8security7keymint24IKeyMintOperationDefault5abortEv"
  },
  {
   "name" : "_ZN4aidl7android8hardware8security7keymint24IKeyMintOperationDefault6finishERKNSt3__18optionalINS5_6vectorIhNS5_9allocatorIhEEEEEESD_RKNS6_INS3_17HardwareAuthTokenEEERKNS6_INS2_11secureclock14TimeStampTokenEEESD_PSA_"
  },
  {
   "name" : "_ZN4aidl7android8hardware8security7keymint24IKeyMintOperationDefault6updateERKNSt3__16vectorIhNS5_9allocatorIhEEEERKNS5_8optionalINS3_17HardwareAuthTokenEEERKNSC_INS2_11secureclock14TimeStampTokenEEEPS9_"
  },
  {
   "name" : "_ZN4aidl7android8hardware8security7keymint24IKeyMintOperationDefault8asBinderEv"
  },
  {
   "name" : "_ZN4aidl7android8hardware8security7keymint24IKeyMintOperationDefault8isRemoteEv"
  },
  {
   "name" : "_ZN4aidl7android8hardware8security7keymint24IKeyMintOperationDefault9updateAadERKNSt3__16vectorIhNS5_9allocatorIhEEEERKNS5_8optionalINS3_17HardwareAuthTokenEEERKNSC_INS2_11secureclock14TimeStampTokenEEE"
  },
  {
   "name" : "_ZN4aidl7android8hardware8security7keymint29IRemotelyProvisionedComponent10fromBinderERKN3ndk10SpAIBinderE"
  },
  {
   "name" : "_ZN4aidl7android8hardware8security7keymint29IRemotelyProvisionedComponent13writeToParcelEP7AParcelRKNSt3__110shared_ptrIS4_EE"
  },
  {
   "name" : "_ZN4aidl7android8hardware8security7keymint29IRemotelyProvisionedComponent14getDefaultImplEv"
  },
  {
   "name" : "_ZN4aidl7android8hardware8security7keymint29IRemotelyProvisionedComponent14readFromParcelEPK7AParcelPNSt3__110shared_ptrIS4_EE"
  },
  {
   "name" : "_ZN4aidl7android8hardware8security7keymint29IRemotelyProvisionedComponent14setDefaultImplERKNSt3__110shared_ptrIS4_EE"
  },
  {
   "name" : "_ZN4aidl7android8hardware8security7keymint29IRemotelyProvisionedComponentC2Ev"
  },
  {
   "name" : "_ZN4aidl7android8hardware8security7keymint29IRemotelyProvisionedComponentD0Ev"
  },
  {
   "name" : "_ZN4aidl7android8hardware8security7keymint29IRemotelyProvisionedComponentD1Ev"
  },
  {
   "name" : "_ZN4aidl7android8hardware8security7keymint29IRemotelyProvisionedComponentD2Ev"
  },
  {
   "name" : "_ZN4aidl7android8hardware8security7keymint30BnRemotelyProvisionedComponent12createBinderEv"
  },
  {
   "name" : "_ZN4aidl7android8hardware8security7keymint30BnRemotelyProvisionedComponent16getInterfaceHashEPNSt3__112basic_stringIcNS5_11char_traitsIcEENS5_9allocatorIcEEEE"
  },
  {
   "name" : "_ZN4aidl7android8hardware8security7keymint30BnRemotelyProvisionedComponent19getInterfaceVersionEPi"
  },
  {
   "name" : "_ZN4aidl7android8hardware8security7keymint30BnRemotelyProvisionedComponentC2Ev"
  },
  {
   "name" : "_ZN4aidl7android8hardware8security7keymint30BnRemotelyProvisionedComponentD0Ev"
  },
  {
   "name" : "_ZN4aidl7android8hardware8security7keymint30BnRemotelyProvisionedComponentD1Ev"
  },
  {
   "name" : "_ZN4aidl7android8hardware8security7keymint30BnRemotelyProvisionedComponentD2Ev"
  },
  {
   "name" : "_ZN4aidl7android8hardware8security7keymint30BpRemotelyProvisionedComponent15getHardwareInfoEPNS3_15RpcHardwareInfoE"
  },
  {
   "name" : "_ZN4aidl7android8hardware8security7keymint30BpRemotelyProvisionedComponent16getInterfaceHashEPNSt3__112basic_stringIcNS5_11char_traitsIcEENS5_9allocatorIcEEEE"
  },
  {
   "name" : "_ZN4aidl7android8hardware8security7keymint30BpRemotelyProvisionedComponent19getInterfaceVersionEPi"
  },
  {
   "name" : "_ZN4aidl7android8hardware8security7keymint30BpRemotelyProvisionedComponent24generateEcdsaP256KeyPairEbPNS3_14MacedPublicKeyEPNSt3__16vectorIhNS7_9allocatorIhEEEE"
  },
  {
   "name" : "_ZN4aidl7android8hardware8security7keymint30BpRemotelyProvisionedComponent26generateCertificateRequestEbRKNSt3__16vectorINS3_14MacedPublicKeyENS5_9allocatorIS7_EEEERKNS6_IhNS8_IhEEEESG_PNS3_10DeviceInfoEPNS3_13ProtectedDataEPSE_"
  },
  {
   "name" : "_ZN4aidl7android8hardware8security7keymint30BpRemotelyProvisionedComponentC1ERKN3ndk10SpAIBinderE"
  },
  {
   "name" : "_ZN4aidl7android8hardware8security7keymint30BpRemotelyProvisionedComponentC2ERKN3ndk10SpAIBinderE"
  },
  {
   "name" : "_ZN4aidl7android8hardware8security7keymint30BpRemotelyProvisionedComponentD0Ev"
  },
  {
   "name" : "_ZN4aidl7android8hardware8security7keymint30BpRemotelyProvisionedComponentD1Ev"
  },
  {
   "name" : "_ZN4aidl7android8hardware8security7keymint30BpRemotelyProvisionedComponentD2Ev"
  },
  {
   "name" : "_ZN4aidl7android8hardware8security7keymint36IRemotelyProvisionedComponentDefault15getHardwareInfoEPNS3_15RpcHardwareInfoE"
  },
  {
   "name" : "_ZN4aidl7android8hardware8security7keymint36IRemotelyProvisionedComponentDefault16getInterfaceHashEPNSt3__112basic_stringIcNS5_11char_traitsIcEENS5_9allocatorIcEEEE"
  },
  {
   "name" : "_ZN4aidl7android8hardware8security7keymint36IRemotelyProvisionedComponentDefault19getInterfaceVersionEPi"
  },
  {
   "name" : "_ZN4aidl7android8hardware8security7keymint36IRemotelyProvisionedComponentDefault24generateEcdsaP256KeyPairEbPNS3_14MacedPublicKeyEPNSt3__16vectorIhNS7_9allocatorIhEEEE"
  },
  {
   "name" : "_ZN4aidl7android8hardware8security7keymint36IRemotelyProvisionedComponentDefault26generateCertificateRequestEbRKNSt3__16vectorINS3_14MacedPublicKeyENS5_9allocatorIS7_EEEERKNS6_IhNS8_IhEEEESG_PNS3_10DeviceInfoEPNS3_13ProtectedDataEPSE_"
  },
  {
   "name" : "_ZN4aidl7android8hardware8security7keymint36IRemotelyProvisionedComponentDefault8asBinderEv"
  },
  {
   "name" : "_ZN4aidl7android8hardware8security7keymint36IRemotelyProvisionedComponentDefault8isRemoteEv"
  },
  {
   "name" : "_ZNK4aidl7android8hardware8security7keymint10DeviceInfo13writeToParcelEP7AParcel"
  },
  {
   "name" : "_ZNK4aidl7android8hardware8security7keymint11BeginResult13writeToParcelEP7AParcel"
  },
  {
   "name" : "_ZNK4aidl7android8hardware8security7keymint11Certificate13writeToParcelEP7AParcel"
  },
  {
   "name" : "_ZNK4aidl7android8hardware8security7keymint12KeyParameter13writeToParcelEP7AParcel"
  },
  {
   "name" : "_ZNK4aidl7android8hardware8security7keymint13ProtectedData13writeToParcelEP7AParcel"
  },
  {
   "name" : "_ZNK4aidl7android8hardware8security7keymint14AttestationKey13writeToParcelEP7AParcel"
  },
  {
   "name" : "_ZNK4aidl7android8hardware8security7keymint14MacedPublicKey13writeToParcelEP7AParcel"
  },
  {
   "name" : "_ZNK4aidl7android8hardware8security7keymint15RpcHardwareInfo13writeToParcelEP7AParcel"
  },
  {
   "name" : "_ZNK4aidl7android8hardware8security7keymint17HardwareAuthToken13writeToParcelEP7AParcel"
  },
  {
   "name" : "_ZNK4aidl7android8hardware8security7keymint17KeyCreationResult13writeToParcelEP7AParcel"
  },
  {
   "name" : "_ZNK4aidl7android8hardware8security7keymint17KeyParameterValue13writeToParcelEP7AParcel"
  },
  {
   "name" : "_ZNK4aidl7android8hardware8security7keymint18KeyCharacteristics13writeToParcelEP7AParcel"
  },
  {
   "name" : "_ZNK4aidl7android8hardware8security7keymint19KeyMintHardwareInfo13writeToParcelEP7AParcel"
  },
  {
   "binding" : "weak",
   "name" : "_ZNSt3__110shared_ptrIN4aidl7android8hardware8security7keymint14IKeyMintDeviceEED2Ev"
  },
  {
   "binding" : "weak",
   "name" : "_ZNSt3__110shared_ptrIN4aidl7android8hardware8security7keymint17IKeyMintOperationEED2Ev"
  },
  {
   "binding" : "weak",
   "name" : "_ZNSt3__110shared_ptrIN4aidl7android8hardware8security7keymint29IRemotelyProvisionedComponentEED2Ev"
  },
  {
   "binding" : "weak",
   "name" : "_ZNSt3__120__shared_ptr_pointerIPN3ndk13SharedRefBaseENS_14default_deleteIS2_EENS_9allocatorIS2_EEE16__on_zero_sharedEv"
  },
  {
   "binding" : "weak",
   "name" : "_ZNSt3__120__shared_ptr_pointerIPN3ndk13SharedRefBaseENS_14default_deleteIS2_EENS_9allocatorIS2_EEE21__on_zero_shared_weakEv"
  },
  {
   "binding" : "weak",
   "name" : "_ZNSt3__16vectorIN4aidl7android8hardware8security7keymint11CertificateENS_9allocatorIS6_EEE8__appendEm"
  },
  {
   "binding" : "weak",
   "name" : "_ZNSt3__16vectorIN4aidl7android8hardware8security7keymint12KeyParameterENS_9allocatorIS6_EEE8__appendEm"
  },
  {
   "binding" : "weak",
   "name" : "_ZNSt3__16vectorIN4aidl7android8hardware8security7keymint14MacedPublicKeyENS_9allocatorIS6_EEE8__appendEm"
  },
  {
   "binding" : "weak",
   "name" : "_ZNSt3__16vectorIN4aidl7android8hardware8security7keymint18KeyCharacteristicsENS_9allocatorIS6_EEE8__appendEm"
  },
  {
   "binding" : "weak",
   "name" : "_ZNSt3__16vectorIaNS_9allocatorIaEEE8__appendEm"
  }
 ],
 "elf_objects" :
 [
  {
   "binding" : "weak",
   "name" : "_ZGVN4aidl7android8hardware8security7keymint14IKeyMintDevice4hashE"
  },
  {
   "binding" : "weak",
   "name" : "_ZGVN4aidl7android8hardware8security7keymint17IKeyMintOperation4hashE"
  },
  {
   "binding" : "weak",
   "name" : "_ZGVN4aidl7android8hardware8security7keymint29IRemotelyProvisionedComponent4hashE"
  },
  {
   "name" : "_ZN4aidl7android8hardware8security7keymint10DeviceInfo10descriptorE"
  },
  {
   "name" : "_ZN4aidl7android8hardware8security7keymint11BeginResult10descriptorE"
  },
  {
   "name" : "_ZN4aidl7android8hardware8security7keymint11Certificate10descriptorE"
  },
  {
   "name" : "_ZN4aidl7android8hardware8security7keymint12KeyParameter10descriptorE"
  },
  {
   "name" : "_ZN4aidl7android8hardware8security7keymint13ProtectedData10descriptorE"
  },
  {
   "name" : "_ZN4aidl7android8hardware8security7keymint14AttestationKey10descriptorE"
  },
  {
   "name" : "_ZN4aidl7android8hardware8security7keymint14IKeyMintDevice10descriptorE"
  },
  {
   "name" : "_ZN4aidl7android8hardware8security7keymint14IKeyMintDevice12default_implE"
  },
  {
   "binding" : "weak",
   "name" : "_ZN4aidl7android8hardware8security7keymint14IKeyMintDevice4hashE"
  },
  {
   "name" : "_ZN4aidl7android8hardware8security7keymint14MacedPublicKey10descriptorE"
  },
  {
   "name" : "_ZN4aidl7android8hardware8security7keymint15RpcHardwareInfo10descriptorE"
  },
  {
   "name" : "_ZN4aidl7android8hardware8security7keymint17HardwareAuthToken10descriptorE"
  },
  {
   "name" : "_ZN4aidl7android8hardware8security7keymint17IKeyMintOperation10descriptorE"
  },
  {
   "name" : "_ZN4aidl7android8hardware8security7keymint17IKeyMintOperation12default_implE"
  },
  {
   "binding" : "weak",
   "name" : "_ZN4aidl7android8hardware8security7keymint17IKeyMintOperation4hashE"
  },
  {
   "name" : "_ZN4aidl7android8hardware8security7keymint17KeyCreationResult10descriptorE"
  },
  {
   "name" : "_ZN4aidl7android8hardware8security7keymint17KeyParameterValue10descriptorE"
  },
  {
   "name" : "_ZN4aidl7android8hardware8security7keymint18KeyCharacteristics10descriptorE"
  },
  {
   "name" : "_ZN4aidl7android8hardware8security7keymint19KeyMintHardwareInfo10descriptorE"
  },
  {
   "name" : "_ZN4aidl7android8hardware8security7keymint29IRemotelyProvisionedComponent10descriptorE"
  },
  {
   "name" : "_ZN4aidl7android8hardware8security7keymint29IRemotelyProvisionedComponent12default_implE"
  },
  {
   "binding" : "weak",
   "name" : "_ZN4aidl7android8hardware8security7keymint29IRemotelyProvisionedComponent4hashE"
  },
  {
   "binding" : "weak",
   "name" : "_ZTVN3ndk12BnCInterfaceIN4aidl7android8hardware8security7keymint14IKeyMintDeviceEEE"
  },
  {
   "binding" : "weak",
   "name" : "_ZTVN3ndk12BnCInterfaceIN4aidl7android8hardware8security7keymint17IKeyMintOperationEEE"
  },
  {
   "binding" : "weak",
   "name" : "_ZTVN3ndk12BnCInterfaceIN4aidl7android8hardware8security7keymint29IRemotelyProvisionedComponentEEE"
  },
  {
   "binding" : "weak",
   "name" : "_ZTVN3ndk12BpCInterfaceIN4aidl7android8hardware8security7keymint14IKeyMintDeviceEEE"
  },
  {
   "binding" : "weak",
   "name" : "_ZTVN3ndk12BpCInterfaceIN4aidl7android8hardware8security7keymint17IKeyMintOperationEEE"
  },
  {
   "binding" : "weak",
   "name" : "_ZTVN3ndk12BpCInterfaceIN4aidl7android8hardware8security7keymint29IRemotelyProvisionedComponentEEE"
  },
  {
   "binding" : "weak",
   "name" : "_ZTVN3ndk13SharedRefBaseE"
  },
  {
   "name" : "_ZTVN4aidl7android8hardware8security7keymint14IKeyMintDeviceE"
  },
  {
   "name" : "_ZTVN4aidl7android8hardware8security7keymint15BnKeyMintDeviceE"
  },
  {
   "name" : "_ZTVN4aidl7android8hardware8security7keymint15BpKeyMintDeviceE"
  },
  {
   "name" : "_ZTVN4aidl7android8hardware8security7keymint17IKeyMintOperationE"
  },
  {
   "name" : "_ZTVN4aidl7android8hardware8security7keymint18BnKeyMintOperationE"
  },
  {
   "name" : "_ZTVN4aidl7android8hardware8security7keymint18BpKeyMintOperationE"
  },
  {
   "name" : "_ZTVN4aidl7android8hardware8security7keymint21IKeyMintDeviceDefaultE"
  },
  {
   "name" : "_ZTVN4aidl7android8hardware8security7keymint24IKeyMintOperationDefaultE"
  },
  {
   "name" : "_ZTVN4aidl7android8hardware8security7keymint29IRemotelyProvisionedComponentE"
  },
  {
   "name" : "_ZTVN4aidl7android8hardware8security7keymint30BnRemotelyProvisionedComponentE"
  },
  {
   "name" : "_ZTVN4aidl7android8hardware8security7keymint30BpRemotelyProvisionedComponentE"
  },
  {
   "name" : "_ZTVN4aidl7android8hardware8security7keymint36IRemotelyProvisionedComponentDefaultE"
  },
  {
   "binding" : "weak",
   "name" : "_ZTVNSt3__120__shared_ptr_pointerIPN3ndk13SharedRefBaseENS_14default_deleteIS2_EENS_9allocatorIS2_EEEE"
  }
 ],
 "enum_types" :
 [
  {
   "alignment" : 4,
   "enum_fields" :
   [
    {
     "enum_field_value" : 1,
     "name" : "FLAG_ONEWAY"
    }
   ],
   "linker_set_key" : "_ZTI12$FLAG_ONEWAY",
   "name" : "(anonymous enum at frameworks/native/libs/binder/ndk/include_ndk/android/binder_ibinder.h:43:1)",
   "referenced_type" : "_ZTI12$FLAG_ONEWAY",
   "self_type" : "_ZTI12$FLAG_ONEWAY",
   "size" : 4,
   "source_file" : "frameworks/native/libs/binder/ndk/include_ndk/android/binder_ibinder.h",
   "underlying_type" : "_ZTIj"
  },
  {
   "alignment" : 4,
   "enum_fields" :
   [
    {
     "enum_field_value" : 32,
     "name" : "FLAG_CLEAR_BUF"
    }
   ],
   "linker_set_key" : "_ZTI15$FLAG_CLEAR_BUF",
   "name" : "(anonymous enum at frameworks/native/libs/binder/ndk/include_platform/android/binder_ibinder_platform.h:24:1)",
   "referenced_type" : "_ZTI15$FLAG_CLEAR_BUF",
   "self_type" : "_ZTI15$FLAG_CLEAR_BUF",
   "size" : 4,
   "source_file" : "frameworks/native/libs/binder/ndk/include_platform/android/binder_ibinder_platform.h",
   "underlying_type" : "_ZTIj"
  },
  {
   "alignment" : 4,
   "enum_fields" :
   [
    {
     "enum_field_value" : 0,
     "name" : "EX_NONE"
    },
    {
     "enum_field_value" : -1,
     "name" : "EX_SECURITY"
    },
    {
     "enum_field_value" : -2,
     "name" : "EX_BAD_PARCELABLE"
    },
    {
     "enum_field_value" : -3,
     "name" : "EX_ILLEGAL_ARGUMENT"
    },
    {
     "enum_field_value" : -4,
     "name" : "EX_NULL_POINTER"
    },
    {
     "enum_field_value" : -5,
     "name" : "EX_ILLEGAL_STATE"
    },
    {
     "enum_field_value" : -6,
     "name" : "EX_NETWORK_MAIN_THREAD"
    },
    {
     "enum_field_value" : -7,
     "name" : "EX_UNSUPPORTED_OPERATION"
    },
    {
     "enum_field_value" : -8,
     "name" : "EX_SERVICE_SPECIFIC"
    },
    {
     "enum_field_value" : -9,
     "name" : "EX_PARCELABLE"
    },
    {
     "enum_field_value" : -129,
     "name" : "EX_TRANSACTION_FAILED"
    }
   ],
   "linker_set_key" : "_ZTI18$EX_BAD_PARCELABLE",
   "name" : "(anonymous enum at frameworks/native/libs/binder/ndk/include_ndk/android/binder_status.h:79:1)",
   "referenced_type" : "_ZTI18$EX_BAD_PARCELABLE",
   "self_type" : "_ZTI18$EX_BAD_PARCELABLE",
   "size" : 4,
   "source_file" : "frameworks/native/libs/binder/ndk/include_ndk/android/binder_status.h",
   "underlying_type" : "_ZTIi"
  },
  {
   "alignment" : 4,
   "enum_fields" :
   [
    {
     "enum_field_value" : 268435456,
     "name" : "FLAG_PRIVATE_LOCAL"
    }
   ],
   "linker_set_key" : "_ZTI19$FLAG_PRIVATE_LOCAL",
   "name" : "(anonymous enum at frameworks/native/libs/binder/ndk/include_platform/android/binder_stability.h:35:1)",
   "referenced_type" : "_ZTI19$FLAG_PRIVATE_LOCAL",
   "self_type" : "_ZTI19$FLAG_PRIVATE_LOCAL",
   "size" : 4,
   "source_file" : "frameworks/native/libs/binder/ndk/include_platform/android/binder_stability.h",
   "underlying_type" : "_ZTIj"
  },
  {
   "alignment" : 4,
   "enum_fields" :
   [
    {
     "enum_field_value" : 268435456,
     "name" : "FLAG_PRIVATE_VENDOR"
    }
   ],
   "linker_set_key" : "_ZTI20$FLAG_PRIVATE_VENDOR",
   "name" : "(anonymous enum at frameworks/native/libs/binder/ndk/include_platform/android/binder_stability.h:26:1)",
   "referenced_type" : "_ZTI20$FLAG_PRIVATE_VENDOR",
   "self_type" : "_ZTI20$FLAG_PRIVATE_VENDOR",
   "size" : 4,
   "source_file" : "frameworks/native/libs/binder/ndk/include_platform/android/binder_stability.h",
   "underlying_type" : "_ZTIj"
  },
  {
   "alignment" : 4,
   "enum_fields" :
   [
    {
     "enum_field_value" : 0,
     "name" : "STATUS_OK"
    },
    {
     "enum_field_value" : -2147483648,
     "name" : "STATUS_UNKNOWN_ERROR"
    },
    {
     "enum_field_value" : -12,
     "name" : "STATUS_NO_MEMORY"
    },
    {
     "enum_field_value" : -38,
     "name" : "STATUS_INVALID_OPERATION"
    },
    {
     "enum_field_value" : -22,
     "name" : "STATUS_BAD_VALUE"
    },
    {
     "enum_field_value" : -2147483647,
     "name" : "STATUS_BAD_TYPE"
    },
    {
     "enum_field_value" : -2,
     "name" : "STATUS_NAME_NOT_FOUND"
    },
    {
     "enum_field_value" : -1,
     "name" : "STATUS_PERMISSION_DENIED"
    },
    {
     "enum_field_value" : -19,
     "name" : "STATUS_NO_INIT"
    },
    {
     "enum_field_value" : -17,
     "name" : "STATUS_ALREADY_EXISTS"
    },
    {
     "enum_field_value" : -32,
     "name" : "STATUS_DEAD_OBJECT"
    },
    {
     "enum_field_value" : -2147483646,
     "name" : "STATUS_FAILED_TRANSACTION"
    },
    {
     "enum_field_value" : -75,
     "name" : "STATUS_BAD_INDEX"
    },
    {
     "enum_field_value" : -61,
     "name" : "STATUS_NOT_ENOUGH_DATA"
    },
    {
     "enum_field_value" : -11,
     "name" : "STATUS_WOULD_BLOCK"
    },
    {
     "enum_field_value" : -110,
     "name" : "STATUS_TIMED_OUT"
    },
    {
     "enum_field_value" : -74,
     "name" : "STATUS_UNKNOWN_TRANSACTION"
    },
    {
     "enum_field_value" : -2147483641,
     "name" : "STATUS_FDS_NOT_ALLOWED"
    },
    {
     "enum_field_value" : -2147483640,
     "name" : "STATUS_UNEXPECTED_NULL"
    }
   ],
   "linker_set_key" : "_ZTI22$STATUS_ALREADY_EXISTS",
   "name" : "(anonymous enum at frameworks/native/libs/binder/ndk/include_ndk/android/binder_status.h:45:1)",
   "referenced_type" : "_ZTI22$STATUS_ALREADY_EXISTS",
   "self_type" : "_ZTI22$STATUS_ALREADY_EXISTS",
   "size" : 4,
   "source_file" : "frameworks/native/libs/binder/ndk/include_ndk/android/binder_status.h",
   "underlying_type" : "_ZTIi"
  },
  {
   "alignment" : 4,
   "enum_fields" :
   [
    {
     "enum_field_value" : 1,
     "name" : "FIRST_CALL_TRANSACTION"
    },
    {
     "enum_field_value" : 16777215,
     "name" : "LAST_CALL_TRANSACTION"
    }
   ],
   "linker_set_key" : "_ZTI23$FIRST_CALL_TRANSACTION",
   "name" : "(anonymous enum at frameworks/native/libs/binder/ndk/include_ndk/android/binder_ibinder.h:58:1)",
   "referenced_type" : "_ZTI23$FIRST_CALL_TRANSACTION",
   "self_type" : "_ZTI23$FIRST_CALL_TRANSACTION",
   "size" : 4,
   "source_file" : "frameworks/native/libs/binder/ndk/include_ndk/android/binder_ibinder.h",
   "underlying_type" : "_ZTIj"
  },
  {
   "alignment" : 4,
   "enum_fields" :
   [
    {
     "enum_field_value" : 0,
     "name" : "ndk::STABILITY_LOCAL"
    },
    {
     "enum_field_value" : 1,
     "name" : "ndk::STABILITY_VINTF"
    }
   ],
   "linker_set_key" : "_ZTIN3ndk16$STABILITY_LOCALE",
   "name" : "ndk::(anonymous enum at frameworks/native/libs/binder/ndk/include_cpp/android/binder_parcelable_utils.h:34:1)",
   "referenced_type" : "_ZTIN3ndk16$STABILITY_LOCALE",
   "self_type" : "_ZTIN3ndk16$STABILITY_LOCALE",
   "size" : 4,
   "source_file" : "frameworks/native/libs/binder/ndk/include_cpp/android/binder_parcelable_utils.h",
   "underlying_type" : "_ZTIj"
  },
  {
   "alignment" : 4,
   "enum_fields" :
   [
    {
     "enum_field_value" : 0,
     "name" : "aidl::android::hardware::security::keymint::KeyPurpose::ENCRYPT"
    },
    {
     "enum_field_value" : 1,
     "name" : "aidl::android::hardware::security::keymint::KeyPurpose::DECRYPT"
    },
    {
     "enum_field_value" : 2,
     "name" : "aidl::android::hardware::security::keymint::KeyPurpose::SIGN"
    },
    {
     "enum_field_value" : 3,
     "name" : "aidl::android::hardware::security::keymint::KeyPurpose::VERIFY"
    },
    {
     "enum_field_value" : 5,
     "name" : "aidl::android::hardware::security::keymint::KeyPurpose::WRAP_KEY"
    },
    {
     "enum_field_value" : 6,
     "name" : "aidl::android::hardware::security::keymint::KeyPurpose::AGREE_KEY"
    },
    {
     "enum_field_value" : 7,
     "name" : "aidl::android::hardware::security::keymint::KeyPurpose::ATTEST_KEY"
    }
   ],
   "linker_set_key" : "_ZTIN4aidl7android8hardware8security7keymint10KeyPurposeE",
   "name" : "aidl::android::hardware::security::keymint::KeyPurpose",
   "referenced_type" : "_ZTIN4aidl7android8hardware8security7keymint10KeyPurposeE",
   "self_type" : "_ZTIN4aidl7android8hardware8security7keymint10KeyPurposeE",
   "size" : 4,
   "source_file" : "out/soong/.intermediates/hardware/interfaces/security/keymint/aidl/android.hardware.security.keymint-V1-ndk_platform-source/gen/include/aidl/android/hardware/security/keymint/KeyPurpose.h",
   "underlying_type" : "_ZTIi"
  },
  {
   "alignment" : 4,
   "enum_fields" :
   [
    {
     "enum_field_value" : 1,
     "name" : "aidl::android::hardware::security::keymint::PaddingMode::NONE"
    },
    {
     "enum_field_value" : 2,
     "name" : "aidl::android::hardware::security::keymint::PaddingMode::RSA_OAEP"
    },
    {
     "enum_field_value" : 3,
     "name" : "aidl::android::hardware::security::keymint::PaddingMode::RSA_PSS"
    },
    {
     "enum_field_value" : 4,
     "name" : "aidl::android::hardware::security::keymint::PaddingMode::RSA_PKCS1_1_5_ENCRYPT"
    },
    {
     "enum_field_value" : 5,
     "name" : "aidl::android::hardware::security::keymint::PaddingMode::RSA_PKCS1_1_5_SIGN"
    },
    {
     "enum_field_value" : 64,
     "name" : "aidl::android::hardware::security::keymint::PaddingMode::PKCS7"
    }
   ],
   "linker_set_key" : "_ZTIN4aidl7android8hardware8security7keymint11PaddingModeE",
   "name" : "aidl::android::hardware::security::keymint::PaddingMode",
   "referenced_type" : "_ZTIN4aidl7android8hardware8security7keymint11PaddingModeE",
   "self_type" : "_ZTIN4aidl7android8hardware8security7keymint11PaddingModeE",
   "size" : 4,
   "source_file" : "out/soong/.intermediates/hardware/interfaces/security/keymint/aidl/android.hardware.security.keymint-V1-ndk_platform-source/gen/include/aidl/android/hardware/security/keymint/PaddingMode.h",
   "underlying_type" : "_ZTIi"
  },
  {
   "alignment" : 4,
   "enum_fields" :
   [
    {
     "enum_field_value" : 0,
     "name" : "aidl::android::hardware::security::keymint::SecurityLevel::SOFTWARE"
    },
    {
     "enum_field_value" : 1,
     "name" : "aidl::android::hardware::security::keymint::SecurityLevel::TRUSTED_ENVIRONMENT"
    },
    {
     "enum_field_value" : 2,
     "name" : "aidl::android::hardware::security::keymint::SecurityLevel::STRONGBOX"
    },
    {
     "enum_field_value" : 100,
     "name" : "aidl::android::hardware::security::keymint::SecurityLevel::KEYSTORE"
    }
   ],
   "linker_set_key" : "_ZTIN4aidl7android8hardware8security7keymint13SecurityLevelE",
   "name" : "aidl::android::hardware::security::keymint::SecurityLevel",
   "referenced_type" : "_ZTIN4aidl7android8hardware8security7keymint13SecurityLevelE",
   "self_type" : "_ZTIN4aidl7android8hardware8security7keymint13SecurityLevelE",
   "size" : 4,
   "source_file" : "out/soong/.intermediates/hardware/interfaces/security/keymint/aidl/android.hardware.security.keymint-V1-ndk_platform-source/gen/include/aidl/android/hardware/security/keymint/SecurityLevel.h",
   "underlying_type" : "_ZTIi"
  },
  {
   "alignment" : 4,
   "enum_fields" :
   [
    {
     "enum_field_value" : 32,
     "name" : "aidl::android::hardware::security::keymint::IKeyMintDevice::AUTH_TOKEN_MAC_LENGTH"
    }
   ],
   "linker_set_key" : "_ZTIN4aidl7android8hardware8security7keymint14IKeyMintDevice22$AUTH_TOKEN_MAC_LENGTHE",
   "name" : "aidl::android::hardware::security::keymint::IKeyMintDevice::(anonymous enum at out/soong/.intermediates/hardware/interfaces/security/keymint/aidl/android.hardware.security.keymint-V1-ndk_platform-source/gen/include/aidl/android/hardware/security/keymint/IKeyMintDevice.h:37:3)",
   "referenced_type" : "_ZTIN4aidl7android8hardware8security7keymint14IKeyMintDevice22$AUTH_TOKEN_MAC_LENGTHE",
   "self_type" : "_ZTIN4aidl7android8hardware8security7keymint14IKeyMintDevice22$AUTH_TOKEN_MAC_LENGTHE",
   "size" : 4,
   "source_file" : "out/soong/.intermediates/hardware/interfaces/security/keymint/aidl/android.hardware.security.keymint-V1-ndk_platform-source/gen/include/aidl/android/hardware/security/keymint/IKeyMintDevice.h",
   "underlying_type" : "_ZTIi"
  },
  {
   "alignment" : 4,
   "enum_fields" :
   [
    {
     "enum_field_value" : 0,
     "name" : "aidl::android::hardware::security::keymint::RpcHardwareInfo::CURVE_NONE"
    }
   ],
   "linker_set_key" : "_ZTIN4aidl7android8hardware8security7keymint15RpcHardwareInfo11$CURVE_NONEE",
   "name" : "aidl::android::hardware::security::keymint::RpcHardwareInfo::(anonymous enum at out/soong/.intermediates/hardware/interfaces/security/keymint/aidl/android.hardware.security.keymint-V1-ndk_platform-source/gen/include/aidl/android/hardware/security/keymint/RpcHardwareInfo.h:50:3)",
   "referenced_type" : "_ZTIN4aidl7android8hardware8security7keymint15RpcHardwareInfo11$CURVE_NONEE",
   "self_type" : "_ZTIN4aidl7android8hardware8security7keymint15RpcHardwareInfo11$CURVE_NONEE",
   "size" : 4,
   "source_file" : "out/soong/.intermediates/hardware/interfaces/security/keymint/aidl/android.hardware.security.keymint-V1-ndk_platform-source/gen/include/aidl/android/hardware/security/keymint/RpcHardwareInfo.h",
   "underlying_type" : "_ZTIi"
  },
  {
   "alignment" : 4,
   "enum_fields" :
   [
    {
     "enum_field_value" : 1,
     "name" : "aidl::android::hardware::security::keymint::RpcHardwareInfo::CURVE_P256"
    }
   ],
   "linker_set_key" : "_ZTIN4aidl7android8hardware8security7keymint15RpcHardwareInfo11$CURVE_P256E",
   "name" : "aidl::android::hardware::security::keymint::RpcHardwareInfo::(anonymous enum at out/soong/.intermediates/hardware/interfaces/security/keymint/aidl/android.hardware.security.keymint-V1-ndk_platform-source/gen/include/aidl/android/hardware/security/keymint/RpcHardwareInfo.h:51:3)",
   "referenced_type" : "_ZTIN4aidl7android8hardware8security7keymint15RpcHardwareInfo11$CURVE_P256E",
   "self_type" : "_ZTIN4aidl7android8hardware8security7keymint15RpcHardwareInfo11$CURVE_P256E",
   "size" : 4,
   "source_file" : "out/soong/.intermediates/hardware/interfaces/security/keymint/aidl/android.hardware.security.keymint-V1-ndk_platform-source/gen/include/aidl/android/hardware/security/keymint/RpcHardwareInfo.h",
   "underlying_type" : "_ZTIi"
  },
  {
   "alignment" : 4,
   "enum_fields" :
   [
    {
     "enum_field_value" : 2,
     "name" : "aidl::android::hardware::security::keymint::RpcHardwareInfo::CURVE_25519"
    }
   ],
   "linker_set_key" : "_ZTIN4aidl7android8hardware8security7keymint15RpcHardwareInfo12$CURVE_25519E",
   "name" : "aidl::android::hardware::security::keymint::RpcHardwareInfo::(anonymous enum at out/soong/.intermediates/hardware/interfaces/security/keymint/aidl/android.hardware.security.keymint-V1-ndk_platform-source/gen/include/aidl/android/hardware/security/keymint/RpcHardwareInfo.h:52:3)",
   "referenced_type" : "_ZTIN4aidl7android8hardware8security7keymint15RpcHardwareInfo12$CURVE_25519E",
   "self_type" : "_ZTIN4aidl7android8hardware8security7keymint15RpcHardwareInfo12$CURVE_25519E",
   "size" : 4,
   "source_file" : "out/soong/.intermediates/hardware/interfaces/security/keymint/aidl/android.hardware.security.keymint-V1-ndk_platform-source/gen/include/aidl/android/hardware/security/keymint/RpcHardwareInfo.h",
   "underlying_type" : "_ZTIi"
  },
  {
   "alignment" : 4,
   "enum_fields" :
   [
    {
     "enum_field_value" : 0,
     "name" : "aidl::android::hardware::security::keymint::KeyParameterValue::invalid"
    },
    {
     "enum_field_value" : 1,
     "name" : "aidl::android::hardware::security::keymint::KeyParameterValue::algorithm"
    },
    {
     "enum_field_value" : 2,
     "name" : "aidl::android::hardware::security::keymint::KeyParameterValue::blockMode"
    },
    {
     "enum_field_value" : 3,
     "name" : "aidl::android::hardware::security::keymint::KeyParameterValue::paddingMode"
    },
    {
     "enum_field_value" : 4,
     "name" : "aidl::android::hardware::security::keymint::KeyParameterValue::digest"
    },
    {
     "enum_field_value" : 5,
     "name" : "aidl::android::hardware::security::keymint::KeyParameterValue::ecCurve"
    },
    {
     "enum_field_value" : 6,
     "name" : "aidl::android::hardware::security::keymint::KeyParameterValue::origin"
    },
    {
     "enum_field_value" : 7,
     "name" : "aidl::android::hardware::security::keymint::KeyParameterValue::keyPurpose"
    },
    {
     "enum_field_value" : 8,
     "name" : "aidl::android::hardware::security::keymint::KeyParameterValue::hardwareAuthenticatorType"
    },
    {
     "enum_field_value" : 9,
     "name" : "aidl::android::hardware::security::keymint::KeyParameterValue::securityLevel"
    },
    {
     "enum_field_value" : 10,
     "name" : "aidl::android::hardware::security::keymint::KeyParameterValue::boolValue"
    },
    {
     "enum_field_value" : 11,
     "name" : "aidl::android::hardware::security::keymint::KeyParameterValue::integer"
    },
    {
     "enum_field_value" : 12,
     "name" : "aidl::android::hardware::security::keymint::KeyParameterValue::longInteger"
    },
    {
     "enum_field_value" : 13,
     "name" : "aidl::android::hardware::security::keymint::KeyParameterValue::dateTime"
    },
    {
     "enum_field_value" : 14,
     "name" : "aidl::android::hardware::security::keymint::KeyParameterValue::blob"
    }
   ],
   "linker_set_key" : "_ZTIN4aidl7android8hardware8security7keymint17KeyParameterValue3TagE",
   "name" : "aidl::android::hardware::security::keymint::KeyParameterValue::Tag",
   "referenced_type" : "_ZTIN4aidl7android8hardware8security7keymint17KeyParameterValue3TagE",
   "self_type" : "_ZTIN4aidl7android8hardware8security7keymint17KeyParameterValue3TagE",
   "size" : 4,
   "source_file" : "out/soong/.intermediates/hardware/interfaces/security/keymint/aidl/android.hardware.security.keymint-V1-ndk_platform-source/gen/include/aidl/android/hardware/security/keymint/KeyParameterValue.h",
   "underlying_type" : "_ZTIi"
  },
  {
   "alignment" : 4,
   "enum_fields" :
   [
    {
     "enum_field_value" : 0,
     "name" : "aidl::android::hardware::security::keymint::HardwareAuthenticatorType::NONE"
    },
    {
     "enum_field_value" : 1,
     "name" : "aidl::android::hardware::security::keymint::HardwareAuthenticatorType::PASSWORD"
    },
    {
     "enum_field_value" : 2,
     "name" : "aidl::android::hardware::security::keymint::HardwareAuthenticatorType::FINGERPRINT"
    },
    {
     "enum_field_value" : -1,
     "name" : "aidl::android::hardware::security::keymint::HardwareAuthenticatorType::ANY"
    }
   ],
   "linker_set_key" : "_ZTIN4aidl7android8hardware8security7keymint25HardwareAuthenticatorTypeE",
   "name" : "aidl::android::hardware::security::keymint::HardwareAuthenticatorType",
   "referenced_type" : "_ZTIN4aidl7android8hardware8security7keymint25HardwareAuthenticatorTypeE",
   "self_type" : "_ZTIN4aidl7android8hardware8security7keymint25HardwareAuthenticatorTypeE",
   "size" : 4,
   "source_file" : "out/soong/.intermediates/hardware/interfaces/security/keymint/aidl/android.hardware.security.keymint-V1-ndk_platform-source/gen/include/aidl/android/hardware/security/keymint/HardwareAuthenticatorType.h",
   "underlying_type" : "_ZTIi"
  },
  {
   "alignment" : 4,
   "enum_fields" :
   [
    {
     "enum_field_value" : 1,
     "name" : "aidl::android::hardware::security::keymint::IRemotelyProvisionedComponent::STATUS_FAILED"
    }
   ],
   "linker_set_key" : "_ZTIN4aidl7android8hardware8security7keymint29IRemotelyProvisionedComponent14$STATUS_FAILEDE",
   "name" : "aidl::android::hardware::security::keymint::IRemotelyProvisionedComponent::(anonymous enum at out/soong/.intermediates/hardware/interfaces/security/keymint/aidl/android.hardware.security.keymint-V1-ndk_platform-source/gen/include/aidl/android/hardware/security/keymint/IRemotelyProvisionedComponent.h:29:3)",
   "referenced_type" : "_ZTIN4aidl7android8hardware8security7keymint29IRemotelyProvisionedComponent14$STATUS_FAILEDE",
   "self_type" : "_ZTIN4aidl7android8hardware8security7keymint29IRemotelyProvisionedComponent14$STATUS_FAILEDE",
   "size" : 4,
   "source_file" : "out/soong/.intermediates/hardware/interfaces/security/keymint/aidl/android.hardware.security.keymint-V1-ndk_platform-source/gen/include/aidl/android/hardware/security/keymint/IRemotelyProvisionedComponent.h",
   "underlying_type" : "_ZTIi"
  },
  {
   "alignment" : 4,
   "enum_fields" :
   [
    {
     "enum_field_value" : 5,
     "name" : "aidl::android::hardware::security::keymint::IRemotelyProvisionedComponent::STATUS_INVALID_EEK"
    }
   ],
   "linker_set_key" : "_ZTIN4aidl7android8hardware8security7keymint29IRemotelyProvisionedComponent19$STATUS_INVALID_EEKE",
   "name" : "aidl::android::hardware::security::keymint::IRemotelyProvisionedComponent::(anonymous enum at out/soong/.intermediates/hardware/interfaces/security/keymint/aidl/android.hardware.security.keymint-V1-ndk_platform-source/gen/include/aidl/android/hardware/security/keymint/IRemotelyProvisionedComponent.h:33:3)",
   "referenced_type" : "_ZTIN4aidl7android8hardware8security7keymint29IRemotelyProvisionedComponent19$STATUS_INVALID_EEKE",
   "self_type" : "_ZTIN4aidl7android8hardware8security7keymint29IRemotelyProvisionedComponent19$STATUS_INVALID_EEKE",
   "size" : 4,
   "source_file" : "out/soong/.intermediates/hardware/interfaces/security/keymint/aidl/android.hardware.security.keymint-V1-ndk_platform-source/gen/include/aidl/android/hardware/security/keymint/IRemotelyProvisionedComponent.h",
   "underlying_type" : "_ZTIi"
  },
  {
   "alignment" : 4,
   "enum_fields" :
   [
    {
     "enum_field_value" : 2,
     "name" : "aidl::android::hardware::security::keymint::IRemotelyProvisionedComponent::STATUS_INVALID_MAC"
    }
   ],
   "linker_set_key" : "_ZTIN4aidl7android8hardware8security7keymint29IRemotelyProvisionedComponent19$STATUS_INVALID_MACE",
   "name" : "aidl::android::hardware::security::keymint::IRemotelyProvisionedComponent::(anonymous enum at out/soong/.intermediates/hardware/interfaces/security/keymint/aidl/android.hardware.security.keymint-V1-ndk_platform-source/gen/include/aidl/android/hardware/security/keymint/IRemotelyProvisionedComponent.h:30:3)",
   "referenced_type" : "_ZTIN4aidl7android8hardware8security7keymint29IRemotelyProvisionedComponent19$STATUS_INVALID_MACE",
   "self_type" : "_ZTIN4aidl7android8hardware8security7keymint29IRemotelyProvisionedComponent19$STATUS_INVALID_MACE",
   "size" : 4,
   "source_file" : "out/soong/.intermediates/hardware/interfaces/security/keymint/aidl/android.hardware.security.keymint-V1-ndk_platform-source/gen/include/aidl/android/hardware/security/keymint/IRemotelyProvisionedComponent.h",
   "underlying_type" : "_ZTIi"
  },
  {
   "alignment" : 4,
   "enum_fields" :
   [
    {
     "enum_field_value" : 3,
     "name" : "aidl::android::hardware::security::keymint::IRemotelyProvisionedComponent::STATUS_PRODUCTION_KEY_IN_TEST_REQUEST"
    }
   ],
   "linker_set_key" : "_ZTIN4aidl7android8hardware8security7keymint29IRemotelyProvisionedComponent38$STATUS_PRODUCTION_KEY_IN_TEST_REQUESTE",
   "name" : "aidl::android::hardware::security::keymint::IRemotelyProvisionedComponent::(anonymous enum at out/soong/.intermediates/hardware/interfaces/security/keymint/aidl/android.hardware.security.keymint-V1-ndk_platform-source/gen/include/aidl/android/hardware/security/keymint/IRemotelyProvisionedComponent.h:31:3)",
   "referenced_type" : "_ZTIN4aidl7android8hardware8security7keymint29IRemotelyProvisionedComponent38$STATUS_PRODUCTION_KEY_IN_TEST_REQUESTE",
   "self_type" : "_ZTIN4aidl7android8hardware8security7keymint29IRemotelyProvisionedComponent38$STATUS_PRODUCTION_KEY_IN_TEST_REQUESTE",
   "size" : 4,
   "source_file" : "out/soong/.intermediates/hardware/interfaces/security/keymint/aidl/android.hardware.security.keymint-V1-ndk_platform-source/gen/include/aidl/android/hardware/security/keymint/IRemotelyProvisionedComponent.h",
   "underlying_type" : "_ZTIi"
  },
  {
   "alignment" : 4,
   "enum_fields" :
   [
    {
     "enum_field_value" : 4,
     "name" : "aidl::android::hardware::security::keymint::IRemotelyProvisionedComponent::STATUS_TEST_KEY_IN_PRODUCTION_REQUEST"
    }
   ],
   "linker_set_key" : "_ZTIN4aidl7android8hardware8security7keymint29IRemotelyProvisionedComponent38$STATUS_TEST_KEY_IN_PRODUCTION_REQUESTE",
   "name" : "aidl::android::hardware::security::keymint::IRemotelyProvisionedComponent::(anonymous enum at out/soong/.intermediates/hardware/interfaces/security/keymint/aidl/android.hardware.security.keymint-V1-ndk_platform-source/gen/include/aidl/android/hardware/security/keymint/IRemotelyProvisionedComponent.h:32:3)",
   "referenced_type" : "_ZTIN4aidl7android8hardware8security7keymint29IRemotelyProvisionedComponent38$STATUS_TEST_KEY_IN_PRODUCTION_REQUESTE",
   "self_type" : "_ZTIN4aidl7android8hardware8security7keymint29IRemotelyProvisionedComponent38$STATUS_TEST_KEY_IN_PRODUCTION_REQUESTE",
   "size" : 4,
   "source_file" : "out/soong/.intermediates/hardware/interfaces/security/keymint/aidl/android.hardware.security.keymint-V1-ndk_platform-source/gen/include/aidl/android/hardware/security/keymint/IRemotelyProvisionedComponent.h",
   "underlying_type" : "_ZTIi"
  },
  {
   "alignment" : 4,
   "enum_fields" :
   [
    {
     "enum_field_value" : 0,
     "name" : "aidl::android::hardware::security::keymint::Tag::INVALID"
    },
    {
     "enum_field_value" : 536870913,
     "name" : "aidl::android::hardware::security::keymint::Tag::PURPOSE"
    },
    {
     "enum_field_value" : 268435458,
     "name" : "aidl::android::hardware::security::keymint::Tag::ALGORITHM"
    },
    {
     "enum_field_value" : 805306371,
     "name" : "aidl::android::hardware::security::keymint::Tag::KEY_SIZE"
    },
    {
     "enum_field_value" : 536870916,
     "name" : "aidl::android::hardware::security::keymint::Tag::BLOCK_MODE"
    },
    {
     "enum_field_value" : 536870917,
     "name" : "aidl::android::hardware::security::keymint::Tag::DIGEST"
    },
    {
     "enum_field_value" : 536870918,
     "name" : "aidl::android::hardware::security::keymint::Tag::PADDING"
    },
    {
     "enum_field_value" : 1879048199,
     "name" : "aidl::android::hardware::security::keymint::Tag::CALLER_NONCE"
    },
    {
     "enum_field_value" : 805306376,
     "name" : "aidl::android::hardware::security::keymint::Tag::MIN_MAC_LENGTH"
    },
    {
     "enum_field_value" : 268435466,
     "name" : "aidl::android::hardware::security::keymint::Tag::EC_CURVE"
    },
    {
     "enum_field_value" : 1342177480,
     "name" : "aidl::android::hardware::security::keymint::Tag::RSA_PUBLIC_EXPONENT"
    },
    {
     "enum_field_value" : 1879048394,
     "name" : "aidl::android::hardware::security::keymint::Tag::INCLUDE_UNIQUE_ID"
    },
    {
     "enum_field_value" : 536871115,
     "name" : "aidl::android::hardware::security::keymint::Tag::RSA_OAEP_MGF_DIGEST"
    },
    {
     "enum_field_value" : 1879048494,
     "name" : "aidl::android::hardware::security::keymint::Tag::BOOTLOADER_ONLY"
    },
    {
     "enum_field_value" : 1879048495,
     "name" : "aidl::android::hardware::security::keymint::Tag::ROLLBACK_RESISTANCE"
    },
    {
     "enum_field_value" : 268435760,
     "name" : "aidl::android::hardware::security::keymint::Tag::HARDWARE_TYPE"
    },
    {
     "enum_field_value" : 1879048497,
     "name" : "aidl::android::hardware::security::keymint::Tag::EARLY_BOOT_ONLY"
    },
    {
     "enum_field_value" : 1610613136,
     "name" : "aidl::android::hardware::security::keymint::Tag::ACTIVE_DATETIME"
    },
    {
     "enum_field_value" : 1610613137,
     "name" : "aidl::android::hardware::security::keymint::Tag::ORIGINATION_EXPIRE_DATETIME"
    },
    {
     "enum_field_value" : 1610613138,
     "name" : "aidl::android::hardware::security::keymint::Tag::USAGE_EXPIRE_DATETIME"
    },
    {
     "enum_field_value" : 805306771,
     "name" : "aidl::android::hardware::security::keymint::Tag::MIN_SECONDS_BETWEEN_OPS"
    },
    {
     "enum_field_value" : 805306772,
     "name" : "aidl::android::hardware::security::keymint::Tag::MAX_USES_PER_BOOT"
    },
    {
     "enum_field_value" : 805306773,
     "name" : "aidl::android::hardware::security::keymint::Tag::USAGE_COUNT_LIMIT"
    },
    {
     "enum_field_value" : 805306869,
     "name" : "aidl::android::hardware::security::keymint::Tag::USER_ID"
    },
    {
     "enum_field_value" : -1610612234,
     "name" : "aidl::android::hardware::security::keymint::Tag::USER_SECURE_ID"
    },
    {
     "enum_field_value" : 1879048695,
     "name" : "aidl::android::hardware::security::keymint::Tag::NO_AUTH_REQUIRED"
    },
    {
     "enum_field_value" : 268435960,
     "name" : "aidl::android::hardware::security::keymint::Tag::USER_AUTH_TYPE"
    },
    {
     "enum_field_value" : 805306873,
     "name" : "aidl::android::hardware::security::keymint::Tag::AUTH_TIMEOUT"
    },
    {
     "enum_field_value" : 1879048698,
     "name" : "aidl::android::hardware::security::keymint::Tag::ALLOW_WHILE_ON_BODY"
    },
    {
     "enum_field_value" : 1879048699,
     "name" : "aidl::android::hardware::security::keymint::Tag::TRUSTED_USER_PRESENCE_REQUIRED"
    },
    {
     "enum_field_value" : 1879048700,
     "name" : "aidl::android::hardware::security::keymint::Tag::TRUSTED_CONFIRMATION_REQUIRED"
    },
    {
     "enum_field_value" : 1879048701,
     "name" : "aidl::android::hardware::security::keymint::Tag::UNLOCKED_DEVICE_REQUIRED"
    },
    {
     "enum_field_value" : -1879047591,
     "name" : "aidl::android::hardware::security::keymint::Tag::APPLICATION_ID"
    },
    {
     "enum_field_value" : -1879047492,
     "name" : "aidl::android::hardware::security::keymint::Tag::APPLICATION_DATA"
    },
    {
     "enum_field_value" : 1610613437,
     "name" : "aidl::android::hardware::security::keymint::Tag::CREATION_DATETIME"
    },
    {
     "enum_field_value" : 268436158,
     "name" : "aidl::android::hardware::security::keymint::Tag::ORIGIN"
    },
    {
     "enum_field_value" : -1879047488,
     "name" : "aidl::android::hardware::security::keymint::Tag::ROOT_OF_TRUST"
    },
    {
     "enum_field_value" : 805307073,
     "name" : "aidl::android::hardware::security::keymint::Tag::OS_VERSION"
    },
    {
     "enum_field_value" : 805307074,
     "name" : "aidl::android::hardware::security::keymint::Tag::OS_PATCHLEVEL"
    },
    {
     "enum_field_value" : -1879047485,
     "name" : "aidl::android::hardware::security::keymint::Tag::UNIQUE_ID"
    },
    {
     "enum_field_value" : -1879047484,
     "name" : "aidl::android::hardware::security::keymint::Tag::ATTESTATION_CHALLENGE"
    },
    {
     "enum_field_value" : -1879047483,
     "name" : "aidl::android::hardware::security::keymint::Tag::ATTESTATION_APPLICATION_ID"
    },
    {
     "enum_field_value" : -1879047482,
     "name" : "aidl::android::hardware::security::keymint::Tag::ATTESTATION_ID_BRAND"
    },
    {
     "enum_field_value" : -1879047481,
     "name" : "aidl::android::hardware::security::keymint::Tag::ATTESTATION_ID_DEVICE"
    },
    {
     "enum_field_value" : -1879047480,
     "name" : "aidl::android::hardware::security::keymint::Tag::ATTESTATION_ID_PRODUCT"
    },
    {
     "enum_field_value" : -1879047479,
     "name" : "aidl::android::hardware::security::keymint::Tag::ATTESTATION_ID_SERIAL"
    },
    {
     "enum_field_value" : -1879047478,
     "name" : "aidl::android::hardware::security::keymint::Tag::ATTESTATION_ID_IMEI"
    },
    {
     "enum_field_value" : -1879047477,
     "name" : "aidl::android::hardware::security::keymint::Tag::ATTESTATION_ID_MEID"
    },
    {
     "enum_field_value" : -1879047476,
     "name" : "aidl::android::hardware::security::keymint::Tag::ATTESTATION_ID_MANUFACTURER"
    },
    {
     "enum_field_value" : -1879047475,
     "name" : "aidl::android::hardware::security::keymint::Tag::ATTESTATION_ID_MODEL"
    },
    {
     "enum_field_value" : 805307086,
     "name" : "aidl::android::hardware::security::keymint::Tag::VENDOR_PATCHLEVEL"
    },
    {
     "enum_field_value" : 805307087,
     "name" : "aidl::android::hardware::security::keymint::Tag::BOOT_PATCHLEVEL"
    },
    {
     "enum_field_value" : 1879048912,
     "name" : "aidl::android::hardware::security::keymint::Tag::DEVICE_UNIQUE_ATTESTATION"
    },
    {
     "enum_field_value" : 1879048913,
     "name" : "aidl::android::hardware::security::keymint::Tag::IDENTITY_CREDENTIAL_KEY"
    },
    {
     "enum_field_value" : 1879048914,
     "name" : "aidl::android::hardware::security::keymint::Tag::STORAGE_KEY"
    },
    {
     "enum_field_value" : -1879047192,
     "name" : "aidl::android::hardware::security::keymint::Tag::ASSOCIATED_DATA"
    },
    {
     "enum_field_value" : -1879047191,
     "name" : "aidl::android::hardware::security::keymint::Tag::NONCE"
    },
    {
     "enum_field_value" : 805307371,
     "name" : "aidl::android::hardware::security::keymint::Tag::MAC_LENGTH"
    },
    {
     "enum_field_value" : 1879049196,
     "name" : "aidl::android::hardware::security::keymint::Tag::RESET_SINCE_ID_ROTATION"
    },
    {
     "enum_field_value" : -1879047187,
     "name" : "aidl::android::hardware::security::keymint::Tag::CONFIRMATION_TOKEN"
    },
    {
     "enum_field_value" : -2147482642,
     "name" : "aidl::android::hardware::security::keymint::Tag::CERTIFICATE_SERIAL"
    },
    {
     "enum_field_value" : -1879047185,
     "name" : "aidl::android::hardware::security::keymint::Tag::CERTIFICATE_SUBJECT"
    },
    {
     "enum_field_value" : 1610613744,
     "name" : "aidl::android::hardware::security::keymint::Tag::CERTIFICATE_NOT_BEFORE"
    },
    {
     "enum_field_value" : 1610613745,
     "name" : "aidl::android::hardware::security::keymint::Tag::CERTIFICATE_NOT_AFTER"
    },
    {
     "enum_field_value" : 805307378,
     "name" : "aidl::android::hardware::security::keymint::Tag::MAX_BOOT_LEVEL"
    }
   ],
   "linker_set_key" : "_ZTIN4aidl7android8hardware8security7keymint3TagE",
   "name" : "aidl::android::hardware::security::keymint::Tag",
   "referenced_type" : "_ZTIN4aidl7android8hardware8security7keymint3TagE",
   "self_type" : "_ZTIN4aidl7android8hardware8security7keymint3TagE",
   "size" : 4,
   "source_file" : "out/soong/.intermediates/hardware/interfaces/security/keymint/aidl/android.hardware.security.keymint-V1-ndk_platform-source/gen/include/aidl/android/hardware/security/keymint/Tag.h",
   "underlying_type" : "_ZTIi"
  },
  {
   "alignment" : 4,
   "enum_fields" :
   [
    {
     "enum_field_value" : 0,
     "name" : "aidl::android::hardware::security::keymint::Digest::NONE"
    },
    {
     "enum_field_value" : 1,
     "name" : "aidl::android::hardware::security::keymint::Digest::MD5"
    },
    {
     "enum_field_value" : 2,
     "name" : "aidl::android::hardware::security::keymint::Digest::SHA1"
    },
    {
     "enum_field_value" : 3,
     "name" : "aidl::android::hardware::security::keymint::Digest::SHA_2_224"
    },
    {
     "enum_field_value" : 4,
     "name" : "aidl::android::hardware::security::keymint::Digest::SHA_2_256"
    },
    {
     "enum_field_value" : 5,
     "name" : "aidl::android::hardware::security::keymint::Digest::SHA_2_384"
    },
    {
     "enum_field_value" : 6,
     "name" : "aidl::android::hardware::security::keymint::Digest::SHA_2_512"
    }
   ],
   "linker_set_key" : "_ZTIN4aidl7android8hardware8security7keymint6DigestE",
   "name" : "aidl::android::hardware::security::keymint::Digest",
   "referenced_type" : "_ZTIN4aidl7android8hardware8security7keymint6DigestE",
   "self_type" : "_ZTIN4aidl7android8hardware8security7keymint6DigestE",
   "size" : 4,
   "source_file" : "out/soong/.intermediates/hardware/interfaces/security/keymint/aidl/android.hardware.security.keymint-V1-ndk_platform-source/gen/include/aidl/android/hardware/security/keymint/Digest.h",
   "underlying_type" : "_ZTIi"
  },
  {
   "alignment" : 4,
   "enum_fields" :
   [
    {
     "enum_field_value" : 0,
     "name" : "aidl::android::hardware::security::keymint::EcCurve::P_224"
    },
    {
     "enum_field_value" : 1,
     "name" : "aidl::android::hardware::security::keymint::EcCurve::P_256"
    },
    {
     "enum_field_value" : 2,
     "name" : "aidl::android::hardware::security::keymint::EcCurve::P_384"
    },
    {
     "enum_field_value" : 3,
     "name" : "aidl::android::hardware::security::keymint::EcCurve::P_521"
    }
   ],
   "linker_set_key" : "_ZTIN4aidl7android8hardware8security7keymint7EcCurveE",
   "name" : "aidl::android::hardware::security::keymint::EcCurve",
   "referenced_type" : "_ZTIN4aidl7android8hardware8security7keymint7EcCurveE",
   "self_type" : "_ZTIN4aidl7android8hardware8security7keymint7EcCurveE",
   "size" : 4,
   "source_file" : "out/soong/.intermediates/hardware/interfaces/security/keymint/aidl/android.hardware.security.keymint-V1-ndk_platform-source/gen/include/aidl/android/hardware/security/keymint/EcCurve.h",
   "underlying_type" : "_ZTIi"
  },
  {
   "alignment" : 4,
   "enum_fields" :
   [
    {
     "enum_field_value" : 1,
     "name" : "aidl::android::hardware::security::keymint::Algorithm::RSA"
    },
    {
     "enum_field_value" : 3,
     "name" : "aidl::android::hardware::security::keymint::Algorithm::EC"
    },
    {
     "enum_field_value" : 32,
     "name" : "aidl::android::hardware::security::keymint::Algorithm::AES"
    },
    {
     "enum_field_value" : 33,
     "name" : "aidl::android::hardware::security::keymint::Algorithm::TRIPLE_DES"
    },
    {
     "enum_field_value" : 128,
     "name" : "aidl::android::hardware::security::keymint::Algorithm::HMAC"
    }
   ],
   "linker_set_key" : "_ZTIN4aidl7android8hardware8security7keymint9AlgorithmE",
   "name" : "aidl::android::hardware::security::keymint::Algorithm",
   "referenced_type" : "_ZTIN4aidl7android8hardware8security7keymint9AlgorithmE",
   "self_type" : "_ZTIN4aidl7android8hardware8security7keymint9AlgorithmE",
   "size" : 4,
   "source_file" : "out/soong/.intermediates/hardware/interfaces/security/keymint/aidl/android.hardware.security.keymint-V1-ndk_platform-source/gen/include/aidl/android/hardware/security/keymint/Algorithm.h",
   "underlying_type" : "_ZTIi"
  },
  {
   "alignment" : 4,
   "enum_fields" :
   [
    {
     "enum_field_value" : 1,
     "name" : "aidl::android::hardware::security::keymint::BlockMode::ECB"
    },
    {
     "enum_field_value" : 2,
     "name" : "aidl::android::hardware::security::keymint::BlockMode::CBC"
    },
    {
     "enum_field_value" : 3,
     "name" : "aidl::android::hardware::security::keymint::BlockMode::CTR"
    },
    {
     "enum_field_value" : 32,
     "name" : "aidl::android::hardware::security::keymint::BlockMode::GCM"
    }
   ],
   "linker_set_key" : "_ZTIN4aidl7android8hardware8security7keymint9BlockModeE",
   "name" : "aidl::android::hardware::security::keymint::BlockMode",
   "referenced_type" : "_ZTIN4aidl7android8hardware8security7keymint9BlockModeE",
   "self_type" : "_ZTIN4aidl7android8hardware8security7keymint9BlockModeE",
   "size" : 4,
   "source_file" : "out/soong/.intermediates/hardware/interfaces/security/keymint/aidl/android.hardware.security.keymint-V1-ndk_platform-source/gen/include/aidl/android/hardware/security/keymint/BlockMode.h",
   "underlying_type" : "_ZTIi"
  },
  {
   "alignment" : 4,
   "enum_fields" :
   [
    {
     "enum_field_value" : 0,
     "name" : "aidl::android::hardware::security::keymint::KeyFormat::X509"
    },
    {
     "enum_field_value" : 1,
     "name" : "aidl::android::hardware::security::keymint::KeyFormat::PKCS8"
    },
    {
     "enum_field_value" : 3,
     "name" : "aidl::android::hardware::security::keymint::KeyFormat::RAW"
    }
   ],
   "linker_set_key" : "_ZTIN4aidl7android8hardware8security7keymint9KeyFormatE",
   "name" : "aidl::android::hardware::security::keymint::KeyFormat",
   "referenced_type" : "_ZTIN4aidl7android8hardware8security7keymint9KeyFormatE",
   "self_type" : "_ZTIN4aidl7android8hardware8security7keymint9KeyFormatE",
   "size" : 4,
   "source_file" : "out/soong/.intermediates/hardware/interfaces/security/keymint/aidl/android.hardware.security.keymint-V1-ndk_platform-source/gen/include/aidl/android/hardware/security/keymint/KeyFormat.h",
   "underlying_type" : "_ZTIi"
  },
  {
   "alignment" : 4,
   "enum_fields" :
   [
    {
     "enum_field_value" : 0,
     "name" : "aidl::android::hardware::security::keymint::KeyOrigin::GENERATED"
    },
    {
     "enum_field_value" : 1,
     "name" : "aidl::android::hardware::security::keymint::KeyOrigin::DERIVED"
    },
    {
     "enum_field_value" : 2,
     "name" : "aidl::android::hardware::security::keymint::KeyOrigin::IMPORTED"
    },
    {
     "enum_field_value" : 3,
     "name" : "aidl::android::hardware::security::keymint::KeyOrigin::RESERVED"
    },
    {
     "enum_field_value" : 4,
     "name" : "aidl::android::hardware::security::keymint::KeyOrigin::SECURELY_IMPORTED"
    }
   ],
   "linker_set_key" : "_ZTIN4aidl7android8hardware8security7keymint9KeyOriginE",
   "name" : "aidl::android::hardware::security::keymint::KeyOrigin",
   "referenced_type" : "_ZTIN4aidl7android8hardware8security7keymint9KeyOriginE",
   "self_type" : "_ZTIN4aidl7android8hardware8security7keymint9KeyOriginE",
   "size" : 4,
   "source_file" : "out/soong/.intermediates/hardware/interfaces/security/keymint/aidl/android.hardware.security.keymint-V1-ndk_platform-source/gen/include/aidl/android/hardware/security/keymint/KeyOrigin.h",
   "underlying_type" : "_ZTIi"
  },
  {
   "alignment" : 4,
   "enum_fields" :
   [
    {
     "enum_field_value" : 1,
     "name" : "android::internal::details::IsIterable<std::__1::vector<aidl::android::hardware::security::keymint::Certificate, std::__1::allocator<aidl::android::hardware::security::keymint::Certificate>>>::value"
    }
   ],
   "linker_set_key" : "_ZTIN7android8internal7details10IsIterableINSt3__16vectorIN4aidl7android8hardware8security7keymint11CertificateENS3_9allocatorISA_EEEEE6$valueE",
   "name" : "android::internal::details::IsIterable<vector<Certificate, allocator<Certificate>>>::(anonymous enum at frameworks/native/libs/binder/ndk/include_cpp/android/binder_to_string.h:131:5)",
   "referenced_type" : "_ZTIN7android8internal7details10IsIterableINSt3__16vectorIN4aidl7android8hardware8security7keymint11CertificateENS3_9allocatorISA_EEEEE6$valueE",
   "self_type" : "_ZTIN7android8internal7details10IsIterableINSt3__16vectorIN4aidl7android8hardware8security7keymint11CertificateENS3_9allocatorISA_EEEEE6$valueE",
   "size" : 4,
   "source_file" : "frameworks/native/libs/binder/ndk/include_cpp/android/binder_to_string.h",
   "underlying_type" : "_ZTIj"
  },
  {
   "alignment" : 4,
   "enum_fields" :
   [
    {
     "enum_field_value" : 1,
     "name" : "android::internal::details::IsIterable<std::__1::vector<aidl::android::hardware::security::keymint::KeyParameter, std::__1::allocator<aidl::android::hardware::security::keymint::KeyParameter>>>::value"
    }
   ],
   "linker_set_key" : "_ZTIN7android8internal7details10IsIterableINSt3__16vectorIN4aidl7android8hardware8security7keymint12KeyParameterENS3_9allocatorISA_EEEEE6$valueE",
   "name" : "android::internal::details::IsIterable<vector<KeyParameter, allocator<KeyParameter>>>::(anonymous enum at frameworks/native/libs/binder/ndk/include_cpp/android/binder_to_string.h:131:5)",
   "referenced_type" : "_ZTIN7android8internal7details10IsIterableINSt3__16vectorIN4aidl7android8hardware8security7keymint12KeyParameterENS3_9allocatorISA_EEEEE6$valueE",
   "self_type" : "_ZTIN7android8internal7details10IsIterableINSt3__16vectorIN4aidl7android8hardware8security7keymint12KeyParameterENS3_9allocatorISA_EEEEE6$valueE",
   "size" : 4,
   "source_file" : "frameworks/native/libs/binder/ndk/include_cpp/android/binder_to_string.h",
   "underlying_type" : "_ZTIj"
  },
  {
   "alignment" : 4,
   "enum_fields" :
   [
    {
     "enum_field_value" : 1,
     "name" : "android::internal::details::IsIterable<std::__1::vector<aidl::android::hardware::security::keymint::KeyCharacteristics, std::__1::allocator<aidl::android::hardware::security::keymint::KeyCharacteristics>>>::value"
    }
   ],
   "linker_set_key" : "_ZTIN7android8internal7details10IsIterableINSt3__16vectorIN4aidl7android8hardware8security7keymint18KeyCharacteristicsENS3_9allocatorISA_EEEEE6$valueE",
   "name" : "android::internal::details::IsIterable<vector<KeyCharacteristics, allocator<KeyCharacteristics>>>::(anonymous enum at frameworks/native/libs/binder/ndk/include_cpp/android/binder_to_string.h:131:5)",
   "referenced_type" : "_ZTIN7android8internal7details10IsIterableINSt3__16vectorIN4aidl7android8hardware8security7keymint18KeyCharacteristicsENS3_9allocatorISA_EEEEE6$valueE",
   "self_type" : "_ZTIN7android8internal7details10IsIterableINSt3__16vectorIN4aidl7android8hardware8security7keymint18KeyCharacteristicsENS3_9allocatorISA_EEEEE6$valueE",
   "size" : 4,
   "source_file" : "frameworks/native/libs/binder/ndk/include_cpp/android/binder_to_string.h",
   "underlying_type" : "_ZTIj"
  },
  {
   "alignment" : 4,
   "enum_fields" :
   [
    {
     "enum_field_value" : 1,
     "name" : "android::internal::details::IsIterable<std::__1::vector<unsigned char, std::__1::allocator<unsigned char>>>::value"
    }
   ],
   "linker_set_key" : "_ZTIN7android8internal7details10IsIterableINSt3__16vectorIhNS3_9allocatorIhEEEEE6$valueE",
   "name" : "android::internal::details::IsIterable<vector<unsigned char, allocator<unsigned char>>>::(anonymous enum at frameworks/native/libs/binder/ndk/include_cpp/android/binder_to_string.h:131:5)",
   "referenced_type" : "_ZTIN7android8internal7details10IsIterableINSt3__16vectorIhNS3_9allocatorIhEEEEE6$valueE",
   "self_type" : "_ZTIN7android8internal7details10IsIterableINSt3__16vectorIhNS3_9allocatorIhEEEEE6$valueE",
   "size" : 4,
   "source_file" : "frameworks/native/libs/binder/ndk/include_cpp/android/binder_to_string.h",
   "underlying_type" : "_ZTIj"
  },
  {
   "alignment" : 4,
   "enum_fields" :
   [
    {
     "enum_field_value" : 0,
     "name" : "android::internal::details::IsPointerLike<aidl::android::hardware::security::secureclock::Timestamp>::value"
    }
   ],
   "linker_set_key" : "_ZTIN7android8internal7details13IsPointerLikeIN4aidl7android8hardware8security11secureclock9TimestampEE6$valueE",
   "name" : "android::internal::details::IsPointerLike<Timestamp>::(anonymous enum at frameworks/native/libs/binder/ndk/include_cpp/android/binder_to_string.h:118:5)",
   "referenced_type" : "_ZTIN7android8internal7details13IsPointerLikeIN4aidl7android8hardware8security11secureclock9TimestampEE6$valueE",
   "self_type" : "_ZTIN7android8internal7details13IsPointerLikeIN4aidl7android8hardware8security11secureclock9TimestampEE6$valueE",
   "size" : 4,
   "source_file" : "frameworks/native/libs/binder/ndk/include_cpp/android/binder_to_string.h",
   "underlying_type" : "_ZTIj"
  },
  {
   "alignment" : 4,
   "enum_fields" :
   [
    {
     "enum_field_value" : 0,
     "name" : "android::internal::details::IsPointerLike<aidl::android::hardware::security::keymint::KeyPurpose>::value"
    }
   ],
   "linker_set_key" : "_ZTIN7android8internal7details13IsPointerLikeIN4aidl7android8hardware8security7keymint10KeyPurposeEE6$valueE",
   "name" : "android::internal::details::IsPointerLike<KeyPurpose>::(anonymous enum at frameworks/native/libs/binder/ndk/include_cpp/android/binder_to_string.h:118:5)",
   "referenced_type" : "_ZTIN7android8internal7details13IsPointerLikeIN4aidl7android8hardware8security7keymint10KeyPurposeEE6$valueE",
   "self_type" : "_ZTIN7android8internal7details13IsPointerLikeIN4aidl7android8hardware8security7keymint10KeyPurposeEE6$valueE",
   "size" : 4,
   "source_file" : "frameworks/native/libs/binder/ndk/include_cpp/android/binder_to_string.h",
   "underlying_type" : "_ZTIj"
  },
  {
   "alignment" : 4,
   "enum_fields" :
   [
    {
     "enum_field_value" : 0,
     "name" : "android::internal::details::IsPointerLike<aidl::android::hardware::security::keymint::Certificate>::value"
    }
   ],
   "linker_set_key" : "_ZTIN7android8internal7details13IsPointerLikeIN4aidl7android8hardware8security7keymint11CertificateEE6$valueE",
   "name" : "android::internal::details::IsPointerLike<Certificate>::(anonymous enum at frameworks/native/libs/binder/ndk/include_cpp/android/binder_to_string.h:118:5)",
   "referenced_type" : "_ZTIN7android8internal7details13IsPointerLikeIN4aidl7android8hardware8security7keymint11CertificateEE6$valueE",
   "self_type" : "_ZTIN7android8internal7details13IsPointerLikeIN4aidl7android8hardware8security7keymint11CertificateEE6$valueE",
   "size" : 4,
   "source_file" : "frameworks/native/libs/binder/ndk/include_cpp/android/binder_to_string.h",
   "underlying_type" : "_ZTIj"
  },
  {
   "alignment" : 4,
   "enum_fields" :
   [
    {
     "enum_field_value" : 0,
     "name" : "android::internal::details::IsPointerLike<aidl::android::hardware::security::keymint::PaddingMode>::value"
    }
   ],
   "linker_set_key" : "_ZTIN7android8internal7details13IsPointerLikeIN4aidl7android8hardware8security7keymint11PaddingModeEE6$valueE",
   "name" : "android::internal::details::IsPointerLike<PaddingMode>::(anonymous enum at frameworks/native/libs/binder/ndk/include_cpp/android/binder_to_string.h:118:5)",
   "referenced_type" : "_ZTIN7android8internal7details13IsPointerLikeIN4aidl7android8hardware8security7keymint11PaddingModeEE6$valueE",
   "self_type" : "_ZTIN7android8internal7details13IsPointerLikeIN4aidl7android8hardware8security7keymint11PaddingModeEE6$valueE",
   "size" : 4,
   "source_file" : "frameworks/native/libs/binder/ndk/include_cpp/android/binder_to_string.h",
   "underlying_type" : "_ZTIj"
  },
  {
   "alignment" : 4,
   "enum_fields" :
   [
    {
     "enum_field_value" : 0,
     "name" : "android::internal::details::IsPointerLike<aidl::android::hardware::security::keymint::KeyParameter>::value"
    }
   ],
   "linker_set_key" : "_ZTIN7android8internal7details13IsPointerLikeIN4aidl7android8hardware8security7keymint12KeyParameterEE6$valueE",
   "name" : "android::internal::details::IsPointerLike<KeyParameter>::(anonymous enum at frameworks/native/libs/binder/ndk/include_cpp/android/binder_to_string.h:118:5)",
   "referenced_type" : "_ZTIN7android8internal7details13IsPointerLikeIN4aidl7android8hardware8security7keymint12KeyParameterEE6$valueE",
   "self_type" : "_ZTIN7android8internal7details13IsPointerLikeIN4aidl7android8hardware8security7keymint12KeyParameterEE6$valueE",
   "size" : 4,
   "source_file" : "frameworks/native/libs/binder/ndk/include_cpp/android/binder_to_string.h",
   "underlying_type" : "_ZTIj"
  },
  {
   "alignment" : 4,
   "enum_fields" :
   [
    {
     "enum_field_value" : 0,
     "name" : "android::internal::details::IsPointerLike<aidl::android::hardware::security::keymint::SecurityLevel>::value"
    }
   ],
   "linker_set_key" : "_ZTIN7android8internal7details13IsPointerLikeIN4aidl7android8hardware8security7keymint13SecurityLevelEE6$valueE",
   "name" : "android::internal::details::IsPointerLike<SecurityLevel>::(anonymous enum at frameworks/native/libs/binder/ndk/include_cpp/android/binder_to_string.h:118:5)",
   "referenced_type" : "_ZTIN7android8internal7details13IsPointerLikeIN4aidl7android8hardware8security7keymint13SecurityLevelEE6$valueE",
   "self_type" : "_ZTIN7android8internal7details13IsPointerLikeIN4aidl7android8hardware8security7keymint13SecurityLevelEE6$valueE",
   "size" : 4,
   "source_file" : "frameworks/native/libs/binder/ndk/include_cpp/android/binder_to_string.h",
   "underlying_type" : "_ZTIj"
  },
  {
   "alignment" : 4,
   "enum_fields" :
   [
    {
     "enum_field_value" : 0,
     "name" : "android::internal::details::IsPointerLike<aidl::android::hardware::security::keymint::KeyParameterValue>::value"
    }
   ],
   "linker_set_key" : "_ZTIN7android8internal7details13IsPointerLikeIN4aidl7android8hardware8security7keymint17KeyParameterValueEE6$valueE",
   "name" : "android::internal::details::IsPointerLike<KeyParameterValue>::(anonymous enum at frameworks/native/libs/binder/ndk/include_cpp/android/binder_to_string.h:118:5)",
   "referenced_type" : "_ZTIN7android8internal7details13IsPointerLikeIN4aidl7android8hardware8security7keymint17KeyParameterValueEE6$valueE",
   "self_type" : "_ZTIN7android8internal7details13IsPointerLikeIN4aidl7android8hardware8security7keymint17KeyParameterValueEE6$valueE",
   "size" : 4,
   "source_file" : "frameworks/native/libs/binder/ndk/include_cpp/android/binder_to_string.h",
   "underlying_type" : "_ZTIj"
  },
  {
   "alignment" : 4,
   "enum_fields" :
   [
    {
     "enum_field_value" : 0,
     "name" : "android::internal::details::IsPointerLike<aidl::android::hardware::security::keymint::KeyCharacteristics>::value"
    }
   ],
   "linker_set_key" : "_ZTIN7android8internal7details13IsPointerLikeIN4aidl7android8hardware8security7keymint18KeyCharacteristicsEE6$valueE",
   "name" : "android::internal::details::IsPointerLike<KeyCharacteristics>::(anonymous enum at frameworks/native/libs/binder/ndk/include_cpp/android/binder_to_string.h:118:5)",
   "referenced_type" : "_ZTIN7android8internal7details13IsPointerLikeIN4aidl7android8hardware8security7keymint18KeyCharacteristicsEE6$valueE",
   "self_type" : "_ZTIN7android8internal7details13IsPointerLikeIN4aidl7android8hardware8security7keymint18KeyCharacteristicsEE6$valueE",
   "size" : 4,
   "source_file" : "frameworks/native/libs/binder/ndk/include_cpp/android/binder_to_string.h",
   "underlying_type" : "_ZTIj"
  },
  {
   "alignment" : 4,
   "enum_fields" :
   [
    {
     "enum_field_value" : 0,
     "name" : "android::internal::details::IsPointerLike<aidl::android::hardware::security::keymint::HardwareAuthenticatorType>::value"
    }
   ],
   "linker_set_key" : "_ZTIN7android8internal7details13IsPointerLikeIN4aidl7android8hardware8security7keymint25HardwareAuthenticatorTypeEE6$valueE",
   "name" : "android::internal::details::IsPointerLike<HardwareAuthenticatorType>::(anonymous enum at frameworks/native/libs/binder/ndk/include_cpp/android/binder_to_string.h:118:5)",
   "referenced_type" : "_ZTIN7android8internal7details13IsPointerLikeIN4aidl7android8hardware8security7keymint25HardwareAuthenticatorTypeEE6$valueE",
   "self_type" : "_ZTIN7android8internal7details13IsPointerLikeIN4aidl7android8hardware8security7keymint25HardwareAuthenticatorTypeEE6$valueE",
   "size" : 4,
   "source_file" : "frameworks/native/libs/binder/ndk/include_cpp/android/binder_to_string.h",
   "underlying_type" : "_ZTIj"
  },
  {
   "alignment" : 4,
   "enum_fields" :
   [
    {
     "enum_field_value" : 0,
     "name" : "android::internal::details::IsPointerLike<aidl::android::hardware::security::keymint::Tag>::value"
    }
   ],
   "linker_set_key" : "_ZTIN7android8internal7details13IsPointerLikeIN4aidl7android8hardware8security7keymint3TagEE6$valueE",
   "name" : "android::internal::details::IsPointerLike<Tag>::(anonymous enum at frameworks/native/libs/binder/ndk/include_cpp/android/binder_to_string.h:118:5)",
   "referenced_type" : "_ZTIN7android8internal7details13IsPointerLikeIN4aidl7android8hardware8security7keymint3TagEE6$valueE",
   "self_type" : "_ZTIN7android8internal7details13IsPointerLikeIN4aidl7android8hardware8security7keymint3TagEE6$valueE",
   "size" : 4,
   "source_file" : "frameworks/native/libs/binder/ndk/include_cpp/android/binder_to_string.h",
   "underlying_type" : "_ZTIj"
  },
  {
   "alignment" : 4,
   "enum_fields" :
   [
    {
     "enum_field_value" : 0,
     "name" : "android::internal::details::IsPointerLike<aidl::android::hardware::security::keymint::Digest>::value"
    }
   ],
   "linker_set_key" : "_ZTIN7android8internal7details13IsPointerLikeIN4aidl7android8hardware8security7keymint6DigestEE6$valueE",
   "name" : "android::internal::details::IsPointerLike<Digest>::(anonymous enum at frameworks/native/libs/binder/ndk/include_cpp/android/binder_to_string.h:118:5)",
   "referenced_type" : "_ZTIN7android8internal7details13IsPointerLikeIN4aidl7android8hardware8security7keymint6DigestEE6$valueE",
   "self_type" : "_ZTIN7android8internal7details13IsPointerLikeIN4aidl7android8hardware8security7keymint6DigestEE6$valueE",
   "size" : 4,
   "source_file" : "frameworks/native/libs/binder/ndk/include_cpp/android/binder_to_string.h",
   "underlying_type" : "_ZTIj"
  },
  {
   "alignment" : 4,
   "enum_fields" :
   [
    {
     "enum_field_value" : 0,
     "name" : "android::internal::details::IsPointerLike<aidl::android::hardware::security::keymint::EcCurve>::value"
    }
   ],
   "linker_set_key" : "_ZTIN7android8internal7details13IsPointerLikeIN4aidl7android8hardware8security7keymint7EcCurveEE6$valueE",
   "name" : "android::internal::details::IsPointerLike<EcCurve>::(anonymous enum at frameworks/native/libs/binder/ndk/include_cpp/android/binder_to_string.h:118:5)",
   "referenced_type" : "_ZTIN7android8internal7details13IsPointerLikeIN4aidl7android8hardware8security7keymint7EcCurveEE6$valueE",
   "self_type" : "_ZTIN7android8internal7details13IsPointerLikeIN4aidl7android8hardware8security7keymint7EcCurveEE6$valueE",
   "size" : 4,
   "source_file" : "frameworks/native/libs/binder/ndk/include_cpp/android/binder_to_string.h",
   "underlying_type" : "_ZTIj"
  },
  {
   "alignment" : 4,
   "enum_fields" :
   [
    {
     "enum_field_value" : 0,
     "name" : "android::internal::details::IsPointerLike<aidl::android::hardware::security::keymint::Algorithm>::value"
    }
   ],
   "linker_set_key" : "_ZTIN7android8internal7details13IsPointerLikeIN4aidl7android8hardware8security7keymint9AlgorithmEE6$valueE",
   "name" : "android::internal::details::IsPointerLike<Algorithm>::(anonymous enum at frameworks/native/libs/binder/ndk/include_cpp/android/binder_to_string.h:118:5)",
   "referenced_type" : "_ZTIN7android8internal7details13IsPointerLikeIN4aidl7android8hardware8security7keymint9AlgorithmEE6$valueE",
   "self_type" : "_ZTIN7android8internal7details13IsPointerLikeIN4aidl7android8hardware8security7keymint9AlgorithmEE6$valueE",
   "size" : 4,
   "source_file" : "frameworks/native/libs/binder/ndk/include_cpp/android/binder_to_string.h",
   "underlying_type" : "_ZTIj"
  },
  {
   "alignment" : 4,
   "enum_fields" :
   [
    {
     "enum_field_value" : 0,
     "name" : "android::internal::details::IsPointerLike<aidl::android::hardware::security::keymint::BlockMode>::value"
    }
   ],
   "linker_set_key" : "_ZTIN7android8internal7details13IsPointerLikeIN4aidl7android8hardware8security7keymint9BlockModeEE6$valueE",
   "name" : "android::internal::details::IsPointerLike<BlockMode>::(anonymous enum at frameworks/native/libs/binder/ndk/include_cpp/android/binder_to_string.h:118:5)",
   "referenced_type" : "_ZTIN7android8internal7details13IsPointerLikeIN4aidl7android8hardware8security7keymint9BlockModeEE6$valueE",
   "self_type" : "_ZTIN7android8internal7details13IsPointerLikeIN4aidl7android8hardware8security7keymint9BlockModeEE6$valueE",
   "size" : 4,
   "source_file" : "frameworks/native/libs/binder/ndk/include_cpp/android/binder_to_string.h",
   "underlying_type" : "_ZTIj"
  },
  {
   "alignment" : 4,
   "enum_fields" :
   [
    {
     "enum_field_value" : 0,
     "name" : "android::internal::details::IsPointerLike<aidl::android::hardware::security::keymint::KeyOrigin>::value"
    }
   ],
   "linker_set_key" : "_ZTIN7android8internal7details13IsPointerLikeIN4aidl7android8hardware8security7keymint9KeyOriginEE6$valueE",
   "name" : "android::internal::details::IsPointerLike<KeyOrigin>::(anonymous enum at frameworks/native/libs/binder/ndk/include_cpp/android/binder_to_string.h:118:5)",
   "referenced_type" : "_ZTIN7android8internal7details13IsPointerLikeIN4aidl7android8hardware8security7keymint9KeyOriginEE6$valueE",
   "self_type" : "_ZTIN7android8internal7details13IsPointerLikeIN4aidl7android8hardware8security7keymint9KeyOriginEE6$valueE",
   "size" : 4,
   "source_file" : "frameworks/native/libs/binder/ndk/include_cpp/android/binder_to_string.h",
   "underlying_type" : "_ZTIj"
  },
  {
   "alignment" : 4,
   "enum_fields" :
   [
    {
     "enum_field_value" : 1,
     "name" : "android::internal::details::IsPointerLike<std::__1::shared_ptr<aidl::android::hardware::security::keymint::IKeyMintOperation>>::value"
    }
   ],
   "linker_set_key" : "_ZTIN7android8internal7details13IsPointerLikeINSt3__110shared_ptrIN4aidl7android8hardware8security7keymint17IKeyMintOperationEEEE6$valueE",
   "name" : "android::internal::details::IsPointerLike<shared_ptr<IKeyMintOperation>>::(anonymous enum at frameworks/native/libs/binder/ndk/include_cpp/android/binder_to_string.h:118:5)",
   "referenced_type" : "_ZTIN7android8internal7details13IsPointerLikeINSt3__110shared_ptrIN4aidl7android8hardware8security7keymint17IKeyMintOperationEEEE6$valueE",
   "self_type" : "_ZTIN7android8internal7details13IsPointerLikeINSt3__110shared_ptrIN4aidl7android8hardware8security7keymint17IKeyMintOperationEEEE6$valueE",
   "size" : 4,
   "source_file" : "frameworks/native/libs/binder/ndk/include_cpp/android/binder_to_string.h",
   "underlying_type" : "_ZTIj"
  },
  {
   "alignment" : 4,
   "enum_fields" :
   [
    {
     "enum_field_value" : 0,
     "name" : "android::internal::details::IsPointerLike<std::__1::vector<aidl::android::hardware::security::keymint::Certificate, std::__1::allocator<aidl::android::hardware::security::keymint::Certificate>>>::value"
    }
   ],
   "linker_set_key" : "_ZTIN7android8internal7details13IsPointerLikeINSt3__16vectorIN4aidl7android8hardware8security7keymint11CertificateENS3_9allocatorISA_EEEEE6$valueE",
   "name" : "android::internal::details::IsPointerLike<vector<Certificate, allocator<Certificate>>>::(anonymous enum at frameworks/native/libs/binder/ndk/include_cpp/android/binder_to_string.h:118:5)",
   "referenced_type" : "_ZTIN7android8internal7details13IsPointerLikeINSt3__16vectorIN4aidl7android8hardware8security7keymint11CertificateENS3_9allocatorISA_EEEEE6$valueE",
   "self_type" : "_ZTIN7android8internal7details13IsPointerLikeINSt3__16vectorIN4aidl7android8hardware8security7keymint11CertificateENS3_9allocatorISA_EEEEE6$valueE",
   "size" : 4,
   "source_file" : "frameworks/native/libs/binder/ndk/include_cpp/android/binder_to_string.h",
   "underlying_type" : "_ZTIj"
  },
  {
   "alignment" : 4,
   "enum_fields" :
   [
    {
     "enum_field_value" : 0,
     "name" : "android::internal::details::IsPointerLike<std::__1::vector<aidl::android::hardware::security::keymint::KeyParameter, std::__1::allocator<aidl::android::hardware::security::keymint::KeyParameter>>>::value"
    }
   ],
   "linker_set_key" : "_ZTIN7android8internal7details13IsPointerLikeINSt3__16vectorIN4aidl7android8hardware8security7keymint12KeyParameterENS3_9allocatorISA_EEEEE6$valueE",
   "name" : "android::internal::details::IsPointerLike<vector<KeyParameter, allocator<KeyParameter>>>::(anonymous enum at frameworks/native/libs/binder/ndk/include_cpp/android/binder_to_string.h:118:5)",
   "referenced_type" : "_ZTIN7android8internal7details13IsPointerLikeINSt3__16vectorIN4aidl7android8hardware8security7keymint12KeyParameterENS3_9allocatorISA_EEEEE6$valueE",
   "self_type" : "_ZTIN7android8internal7details13IsPointerLikeINSt3__16vectorIN4aidl7android8hardware8security7keymint12KeyParameterENS3_9allocatorISA_EEEEE6$valueE",
   "size" : 4,
   "source_file" : "frameworks/native/libs/binder/ndk/include_cpp/android/binder_to_string.h",
   "underlying_type" : "_ZTIj"
  },
  {
   "alignment" : 4,
   "enum_fields" :
   [
    {
     "enum_field_value" : 0,
     "name" : "android::internal::details::IsPointerLike<std::__1::vector<aidl::android::hardware::security::keymint::KeyCharacteristics, std::__1::allocator<aidl::android::hardware::security::keymint::KeyCharacteristics>>>::value"
    }
   ],
   "linker_set_key" : "_ZTIN7android8internal7details13IsPointerLikeINSt3__16vectorIN4aidl7android8hardware8security7keymint18KeyCharacteristicsENS3_9allocatorISA_EEEEE6$valueE",
   "name" : "android::internal::details::IsPointerLike<vector<KeyCharacteristics, allocator<KeyCharacteristics>>>::(anonymous enum at frameworks/native/libs/binder/ndk/include_cpp/android/binder_to_string.h:118:5)",
   "referenced_type" : "_ZTIN7android8internal7details13IsPointerLikeINSt3__16vectorIN4aidl7android8hardware8security7keymint18KeyCharacteristicsENS3_9allocatorISA_EEEEE6$valueE",
   "self_type" : "_ZTIN7android8internal7details13IsPointerLikeINSt3__16vectorIN4aidl7android8hardware8security7keymint18KeyCharacteristicsENS3_9allocatorISA_EEEEE6$valueE",
   "size" : 4,
   "source_file" : "frameworks/native/libs/binder/ndk/include_cpp/android/binder_to_string.h",
   "underlying_type" : "_ZTIj"
  },
  {
   "alignment" : 4,
   "enum_fields" :
   [
    {
     "enum_field_value" : 0,
     "name" : "android::internal::details::IsPointerLike<std::__1::vector<unsigned char, std::__1::allocator<unsigned char>>>::value"
    }
   ],
   "linker_set_key" : "_ZTIN7android8internal7details13IsPointerLikeINSt3__16vectorIhNS3_9allocatorIhEEEEE6$valueE",
   "name" : "android::internal::details::IsPointerLike<vector<unsigned char, allocator<unsigned char>>>::(anonymous enum at frameworks/native/libs/binder/ndk/include_cpp/android/binder_to_string.h:118:5)",
   "referenced_type" : "_ZTIN7android8internal7details13IsPointerLikeINSt3__16vectorIhNS3_9allocatorIhEEEEE6$valueE",
   "self_type" : "_ZTIN7android8internal7details13IsPointerLikeINSt3__16vectorIhNS3_9allocatorIhEEEEE6$valueE",
   "size" : 4,
   "source_file" : "frameworks/native/libs/binder/ndk/include_cpp/android/binder_to_string.h",
   "underlying_type" : "_ZTIj"
  },
  {
   "alignment" : 4,
   "enum_fields" :
   [
    {
     "enum_field_value" : 0,
     "name" : "android::internal::details::ToEmptyString<aidl::android::hardware::security::secureclock::Timestamp>::value"
    }
   ],
   "linker_set_key" : "_ZTIN7android8internal7details13ToEmptyStringIN4aidl7android8hardware8security11secureclock9TimestampEE6$valueE",
   "name" : "android::internal::details::ToEmptyString<Timestamp>::(anonymous enum at frameworks/native/libs/binder/ndk/include_cpp/android/binder_to_string.h:153:5)",
   "referenced_type" : "_ZTIN7android8internal7details13ToEmptyStringIN4aidl7android8hardware8security11secureclock9TimestampEE6$valueE",
   "self_type" : "_ZTIN7android8internal7details13ToEmptyStringIN4aidl7android8hardware8security11secureclock9TimestampEE6$valueE",
   "size" : 4,
   "source_file" : "frameworks/native/libs/binder/ndk/include_cpp/android/binder_to_string.h",
   "underlying_type" : "_ZTIj"
  },
  {
   "alignment" : 4,
   "enum_fields" :
   [
    {
     "enum_field_value" : 0,
     "name" : "android::internal::details::ToEmptyString<aidl::android::hardware::security::keymint::KeyPurpose>::value"
    }
   ],
   "linker_set_key" : "_ZTIN7android8internal7details13ToEmptyStringIN4aidl7android8hardware8security7keymint10KeyPurposeEE6$valueE",
   "name" : "android::internal::details::ToEmptyString<KeyPurpose>::(anonymous enum at frameworks/native/libs/binder/ndk/include_cpp/android/binder_to_string.h:153:5)",
   "referenced_type" : "_ZTIN7android8internal7details13ToEmptyStringIN4aidl7android8hardware8security7keymint10KeyPurposeEE6$valueE",
   "self_type" : "_ZTIN7android8internal7details13ToEmptyStringIN4aidl7android8hardware8security7keymint10KeyPurposeEE6$valueE",
   "size" : 4,
   "source_file" : "frameworks/native/libs/binder/ndk/include_cpp/android/binder_to_string.h",
   "underlying_type" : "_ZTIj"
  },
  {
   "alignment" : 4,
   "enum_fields" :
   [
    {
     "enum_field_value" : 0,
     "name" : "android::internal::details::ToEmptyString<aidl::android::hardware::security::keymint::Certificate>::value"
    }
   ],
   "linker_set_key" : "_ZTIN7android8internal7details13ToEmptyStringIN4aidl7android8hardware8security7keymint11CertificateEE6$valueE",
   "name" : "android::internal::details::ToEmptyString<Certificate>::(anonymous enum at frameworks/native/libs/binder/ndk/include_cpp/android/binder_to_string.h:153:5)",
   "referenced_type" : "_ZTIN7android8internal7details13ToEmptyStringIN4aidl7android8hardware8security7keymint11CertificateEE6$valueE",
   "self_type" : "_ZTIN7android8internal7details13ToEmptyStringIN4aidl7android8hardware8security7keymint11CertificateEE6$valueE",
   "size" : 4,
   "source_file" : "frameworks/native/libs/binder/ndk/include_cpp/android/binder_to_string.h",
   "underlying_type" : "_ZTIj"
  },
  {
   "alignment" : 4,
   "enum_fields" :
   [
    {
     "enum_field_value" : 0,
     "name" : "android::internal::details::ToEmptyString<aidl::android::hardware::security::keymint::PaddingMode>::value"
    }
   ],
   "linker_set_key" : "_ZTIN7android8internal7details13ToEmptyStringIN4aidl7android8hardware8security7keymint11PaddingModeEE6$valueE",
   "name" : "android::internal::details::ToEmptyString<PaddingMode>::(anonymous enum at frameworks/native/libs/binder/ndk/include_cpp/android/binder_to_string.h:153:5)",
   "referenced_type" : "_ZTIN7android8internal7details13ToEmptyStringIN4aidl7android8hardware8security7keymint11PaddingModeEE6$valueE",
   "self_type" : "_ZTIN7android8internal7details13ToEmptyStringIN4aidl7android8hardware8security7keymint11PaddingModeEE6$valueE",
   "size" : 4,
   "source_file" : "frameworks/native/libs/binder/ndk/include_cpp/android/binder_to_string.h",
   "underlying_type" : "_ZTIj"
  },
  {
   "alignment" : 4,
   "enum_fields" :
   [
    {
     "enum_field_value" : 0,
     "name" : "android::internal::details::ToEmptyString<aidl::android::hardware::security::keymint::KeyParameter>::value"
    }
   ],
   "linker_set_key" : "_ZTIN7android8internal7details13ToEmptyStringIN4aidl7android8hardware8security7keymint12KeyParameterEE6$valueE",
   "name" : "android::internal::details::ToEmptyString<KeyParameter>::(anonymous enum at frameworks/native/libs/binder/ndk/include_cpp/android/binder_to_string.h:153:5)",
   "referenced_type" : "_ZTIN7android8internal7details13ToEmptyStringIN4aidl7android8hardware8security7keymint12KeyParameterEE6$valueE",
   "self_type" : "_ZTIN7android8internal7details13ToEmptyStringIN4aidl7android8hardware8security7keymint12KeyParameterEE6$valueE",
   "size" : 4,
   "source_file" : "frameworks/native/libs/binder/ndk/include_cpp/android/binder_to_string.h",
   "underlying_type" : "_ZTIj"
  },
  {
   "alignment" : 4,
   "enum_fields" :
   [
    {
     "enum_field_value" : 0,
     "name" : "android::internal::details::ToEmptyString<aidl::android::hardware::security::keymint::SecurityLevel>::value"
    }
   ],
   "linker_set_key" : "_ZTIN7android8internal7details13ToEmptyStringIN4aidl7android8hardware8security7keymint13SecurityLevelEE6$valueE",
   "name" : "android::internal::details::ToEmptyString<SecurityLevel>::(anonymous enum at frameworks/native/libs/binder/ndk/include_cpp/android/binder_to_string.h:153:5)",
   "referenced_type" : "_ZTIN7android8internal7details13ToEmptyStringIN4aidl7android8hardware8security7keymint13SecurityLevelEE6$valueE",
   "self_type" : "_ZTIN7android8internal7details13ToEmptyStringIN4aidl7android8hardware8security7keymint13SecurityLevelEE6$valueE",
   "size" : 4,
   "source_file" : "frameworks/native/libs/binder/ndk/include_cpp/android/binder_to_string.h",
   "underlying_type" : "_ZTIj"
  },
  {
   "alignment" : 4,
   "enum_fields" :
   [
    {
     "enum_field_value" : 1,
     "name" : "android::internal::details::ToEmptyString<aidl::android::hardware::security::keymint::IKeyMintOperation>::value"
    }
   ],
   "linker_set_key" : "_ZTIN7android8internal7details13ToEmptyStringIN4aidl7android8hardware8security7keymint17IKeyMintOperationEE6$valueE",
   "name" : "android::internal::details::ToEmptyString<IKeyMintOperation>::(anonymous enum at frameworks/native/libs/binder/ndk/include_cpp/android/binder_to_string.h:153:5)",
   "referenced_type" : "_ZTIN7android8internal7details13ToEmptyStringIN4aidl7android8hardware8security7keymint17IKeyMintOperationEE6$valueE",
   "self_type" : "_ZTIN7android8internal7details13ToEmptyStringIN4aidl7android8hardware8security7keymint17IKeyMintOperationEE6$valueE",
   "size" : 4,
   "source_file" : "frameworks/native/libs/binder/ndk/include_cpp/android/binder_to_string.h",
   "underlying_type" : "_ZTIj"
  },
  {
   "alignment" : 4,
   "enum_fields" :
   [
    {
     "enum_field_value" : 0,
     "name" : "android::internal::details::ToEmptyString<aidl::android::hardware::security::keymint::KeyParameterValue>::value"
    }
   ],
   "linker_set_key" : "_ZTIN7android8internal7details13ToEmptyStringIN4aidl7android8hardware8security7keymint17KeyParameterValueEE6$valueE",
   "name" : "android::internal::details::ToEmptyString<KeyParameterValue>::(anonymous enum at frameworks/native/libs/binder/ndk/include_cpp/android/binder_to_string.h:153:5)",
   "referenced_type" : "_ZTIN7android8internal7details13ToEmptyStringIN4aidl7android8hardware8security7keymint17KeyParameterValueEE6$valueE",
   "self_type" : "_ZTIN7android8internal7details13ToEmptyStringIN4aidl7android8hardware8security7keymint17KeyParameterValueEE6$valueE",
   "size" : 4,
   "source_file" : "frameworks/native/libs/binder/ndk/include_cpp/android/binder_to_string.h",
   "underlying_type" : "_ZTIj"
  },
  {
   "alignment" : 4,
   "enum_fields" :
   [
    {
     "enum_field_value" : 0,
     "name" : "android::internal::details::ToEmptyString<aidl::android::hardware::security::keymint::KeyCharacteristics>::value"
    }
   ],
   "linker_set_key" : "_ZTIN7android8internal7details13ToEmptyStringIN4aidl7android8hardware8security7keymint18KeyCharacteristicsEE6$valueE",
   "name" : "android::internal::details::ToEmptyString<KeyCharacteristics>::(anonymous enum at frameworks/native/libs/binder/ndk/include_cpp/android/binder_to_string.h:153:5)",
   "referenced_type" : "_ZTIN7android8internal7details13ToEmptyStringIN4aidl7android8hardware8security7keymint18KeyCharacteristicsEE6$valueE",
   "self_type" : "_ZTIN7android8internal7details13ToEmptyStringIN4aidl7android8hardware8security7keymint18KeyCharacteristicsEE6$valueE",
   "size" : 4,
   "source_file" : "frameworks/native/libs/binder/ndk/include_cpp/android/binder_to_string.h",
   "underlying_type" : "_ZTIj"
  },
  {
   "alignment" : 4,
   "enum_fields" :
   [
    {
     "enum_field_value" : 0,
     "name" : "android::internal::details::ToEmptyString<aidl::android::hardware::security::keymint::HardwareAuthenticatorType>::value"
    }
   ],
   "linker_set_key" : "_ZTIN7android8internal7details13ToEmptyStringIN4aidl7android8hardware8security7keymint25HardwareAuthenticatorTypeEE6$valueE",
   "name" : "android::internal::details::ToEmptyString<HardwareAuthenticatorType>::(anonymous enum at frameworks/native/libs/binder/ndk/include_cpp/android/binder_to_string.h:153:5)",
   "referenced_type" : "_ZTIN7android8internal7details13ToEmptyStringIN4aidl7android8hardware8security7keymint25HardwareAuthenticatorTypeEE6$valueE",
   "self_type" : "_ZTIN7android8internal7details13ToEmptyStringIN4aidl7android8hardware8security7keymint25HardwareAuthenticatorTypeEE6$valueE",
   "size" : 4,
   "source_file" : "frameworks/native/libs/binder/ndk/include_cpp/android/binder_to_string.h",
   "underlying_type" : "_ZTIj"
  },
  {
   "alignment" : 4,
   "enum_fields" :
   [
    {
     "enum_field_value" : 0,
     "name" : "android::internal::details::ToEmptyString<aidl::android::hardware::security::keymint::Tag>::value"
    }
   ],
   "linker_set_key" : "_ZTIN7android8internal7details13ToEmptyStringIN4aidl7android8hardware8security7keymint3TagEE6$valueE",
   "name" : "android::internal::details::ToEmptyString<Tag>::(anonymous enum at frameworks/native/libs/binder/ndk/include_cpp/android/binder_to_string.h:153:5)",
   "referenced_type" : "_ZTIN7android8internal7details13ToEmptyStringIN4aidl7android8hardware8security7keymint3TagEE6$valueE",
   "self_type" : "_ZTIN7android8internal7details13ToEmptyStringIN4aidl7android8hardware8security7keymint3TagEE6$valueE",
   "size" : 4,
   "source_file" : "frameworks/native/libs/binder/ndk/include_cpp/android/binder_to_string.h",
   "underlying_type" : "_ZTIj"
  },
  {
   "alignment" : 4,
   "enum_fields" :
   [
    {
     "enum_field_value" : 0,
     "name" : "android::internal::details::ToEmptyString<aidl::android::hardware::security::keymint::Digest>::value"
    }
   ],
   "linker_set_key" : "_ZTIN7android8internal7details13ToEmptyStringIN4aidl7android8hardware8security7keymint6DigestEE6$valueE",
   "name" : "android::internal::details::ToEmptyString<Digest>::(anonymous enum at frameworks/native/libs/binder/ndk/include_cpp/android/binder_to_string.h:153:5)",
   "referenced_type" : "_ZTIN7android8internal7details13ToEmptyStringIN4aidl7android8hardware8security7keymint6DigestEE6$valueE",
   "self_type" : "_ZTIN7android8internal7details13ToEmptyStringIN4aidl7android8hardware8security7keymint6DigestEE6$valueE",
   "size" : 4,
   "source_file" : "frameworks/native/libs/binder/ndk/include_cpp/android/binder_to_string.h",
   "underlying_type" : "_ZTIj"
  },
  {
   "alignment" : 4,
   "enum_fields" :
   [
    {
     "enum_field_value" : 0,
     "name" : "android::internal::details::ToEmptyString<aidl::android::hardware::security::keymint::EcCurve>::value"
    }
   ],
   "linker_set_key" : "_ZTIN7android8internal7details13ToEmptyStringIN4aidl7android8hardware8security7keymint7EcCurveEE6$valueE",
   "name" : "android::internal::details::ToEmptyString<EcCurve>::(anonymous enum at frameworks/native/libs/binder/ndk/include_cpp/android/binder_to_string.h:153:5)",
   "referenced_type" : "_ZTIN7android8internal7details13ToEmptyStringIN4aidl7android8hardware8security7keymint7EcCurveEE6$valueE",
   "self_type" : "_ZTIN7android8internal7details13ToEmptyStringIN4aidl7android8hardware8security7keymint7EcCurveEE6$valueE",
   "size" : 4,
   "source_file" : "frameworks/native/libs/binder/ndk/include_cpp/android/binder_to_string.h",
   "underlying_type" : "_ZTIj"
  },
  {
   "alignment" : 4,
   "enum_fields" :
   [
    {
     "enum_field_value" : 0,
     "name" : "android::internal::details::ToEmptyString<aidl::android::hardware::security::keymint::Algorithm>::value"
    }
   ],
   "linker_set_key" : "_ZTIN7android8internal7details13ToEmptyStringIN4aidl7android8hardware8security7keymint9AlgorithmEE6$valueE",
   "name" : "android::internal::details::ToEmptyString<Algorithm>::(anonymous enum at frameworks/native/libs/binder/ndk/include_cpp/android/binder_to_string.h:153:5)",
   "referenced_type" : "_ZTIN7android8internal7details13ToEmptyStringIN4aidl7android8hardware8security7keymint9AlgorithmEE6$valueE",
   "self_type" : "_ZTIN7android8internal7details13ToEmptyStringIN4aidl7android8hardware8security7keymint9AlgorithmEE6$valueE",
   "size" : 4,
   "source_file" : "frameworks/native/libs/binder/ndk/include_cpp/android/binder_to_string.h",
   "underlying_type" : "_ZTIj"
  },
  {
   "alignment" : 4,
   "enum_fields" :
   [
    {
     "enum_field_value" : 0,
     "name" : "android::internal::details::ToEmptyString<aidl::android::hardware::security::keymint::BlockMode>::value"
    }
   ],
   "linker_set_key" : "_ZTIN7android8internal7details13ToEmptyStringIN4aidl7android8hardware8security7keymint9BlockModeEE6$valueE",
   "name" : "android::internal::details::ToEmptyString<BlockMode>::(anonymous enum at frameworks/native/libs/binder/ndk/include_cpp/android/binder_to_string.h:153:5)",
   "referenced_type" : "_ZTIN7android8internal7details13ToEmptyStringIN4aidl7android8hardware8security7keymint9BlockModeEE6$valueE",
   "self_type" : "_ZTIN7android8internal7details13ToEmptyStringIN4aidl7android8hardware8security7keymint9BlockModeEE6$valueE",
   "size" : 4,
   "source_file" : "frameworks/native/libs/binder/ndk/include_cpp/android/binder_to_string.h",
   "underlying_type" : "_ZTIj"
  },
  {
   "alignment" : 4,
   "enum_fields" :
   [
    {
     "enum_field_value" : 0,
     "name" : "android::internal::details::ToEmptyString<aidl::android::hardware::security::keymint::KeyOrigin>::value"
    }
   ],
   "linker_set_key" : "_ZTIN7android8internal7details13ToEmptyStringIN4aidl7android8hardware8security7keymint9KeyOriginEE6$valueE",
   "name" : "android::internal::details::ToEmptyString<KeyOrigin>::(anonymous enum at frameworks/native/libs/binder/ndk/include_cpp/android/binder_to_string.h:153:5)",
   "referenced_type" : "_ZTIN7android8internal7details13ToEmptyStringIN4aidl7android8hardware8security7keymint9KeyOriginEE6$valueE",
   "self_type" : "_ZTIN7android8internal7details13ToEmptyStringIN4aidl7android8hardware8security7keymint9KeyOriginEE6$valueE",
   "size" : 4,
   "source_file" : "frameworks/native/libs/binder/ndk/include_cpp/android/binder_to_string.h",
   "underlying_type" : "_ZTIj"
  },
  {
   "alignment" : 4,
   "enum_fields" :
   [
    {
     "enum_field_value" : 0,
     "name" : "android::internal::details::ToEmptyString<std::__1::shared_ptr<aidl::android::hardware::security::keymint::IKeyMintOperation>>::value"
    }
   ],
   "linker_set_key" : "_ZTIN7android8internal7details13ToEmptyStringINSt3__110shared_ptrIN4aidl7android8hardware8security7keymint17IKeyMintOperationEEEE6$valueE",
   "name" : "android::internal::details::ToEmptyString<shared_ptr<IKeyMintOperation>>::(anonymous enum at frameworks/native/libs/binder/ndk/include_cpp/android/binder_to_string.h:153:5)",
   "referenced_type" : "_ZTIN7android8internal7details13ToEmptyStringINSt3__110shared_ptrIN4aidl7android8hardware8security7keymint17IKeyMintOperationEEEE6$valueE",
   "self_type" : "_ZTIN7android8internal7details13ToEmptyStringINSt3__110shared_ptrIN4aidl7android8hardware8security7keymint17IKeyMintOperationEEEE6$valueE",
   "size" : 4,
   "source_file" : "frameworks/native/libs/binder/ndk/include_cpp/android/binder_to_string.h",
   "underlying_type" : "_ZTIj"
  },
  {
   "alignment" : 4,
   "enum_fields" :
   [
    {
     "enum_field_value" : 0,
     "name" : "android::internal::details::ToEmptyString<std::__1::basic_string<char>>::value"
    }
   ],
   "linker_set_key" : "_ZTIN7android8internal7details13ToEmptyStringINSt3__112basic_stringIcNS3_11char_traitsIcEENS3_9allocatorIcEEEEE6$valueE",
   "name" : "android::internal::details::ToEmptyString<basic_string<char>>::(anonymous enum at frameworks/native/libs/binder/ndk/include_cpp/android/binder_to_string.h:153:5)",
   "referenced_type" : "_ZTIN7android8internal7details13ToEmptyStringINSt3__112basic_stringIcNS3_11char_traitsIcEENS3_9allocatorIcEEEEE6$valueE",
   "self_type" : "_ZTIN7android8internal7details13ToEmptyStringINSt3__112basic_stringIcNS3_11char_traitsIcEENS3_9allocatorIcEEEEE6$valueE",
   "size" : 4,
   "source_file" : "frameworks/native/libs/binder/ndk/include_cpp/android/binder_to_string.h",
   "underlying_type" : "_ZTIj"
  },
  {
   "alignment" : 4,
   "enum_fields" :
   [
    {
     "enum_field_value" : 0,
     "name" : "android::internal::details::ToEmptyString<std::__1::vector<aidl::android::hardware::security::keymint::Certificate, std::__1::allocator<aidl::android::hardware::security::keymint::Certificate>>>::value"
    }
   ],
   "linker_set_key" : "_ZTIN7android8internal7details13ToEmptyStringINSt3__16vectorIN4aidl7android8hardware8security7keymint11CertificateENS3_9allocatorISA_EEEEE6$valueE",
   "name" : "android::internal::details::ToEmptyString<vector<Certificate, allocator<Certificate>>>::(anonymous enum at frameworks/native/libs/binder/ndk/include_cpp/android/binder_to_string.h:153:5)",
   "referenced_type" : "_ZTIN7android8internal7details13ToEmptyStringINSt3__16vectorIN4aidl7android8hardware8security7keymint11CertificateENS3_9allocatorISA_EEEEE6$valueE",
   "self_type" : "_ZTIN7android8internal7details13ToEmptyStringINSt3__16vectorIN4aidl7android8hardware8security7keymint11CertificateENS3_9allocatorISA_EEEEE6$valueE",
   "size" : 4,
   "source_file" : "frameworks/native/libs/binder/ndk/include_cpp/android/binder_to_string.h",
   "underlying_type" : "_ZTIj"
  },
  {
   "alignment" : 4,
   "enum_fields" :
   [
    {
     "enum_field_value" : 0,
     "name" : "android::internal::details::ToEmptyString<std::__1::vector<aidl::android::hardware::security::keymint::KeyParameter, std::__1::allocator<aidl::android::hardware::security::keymint::KeyParameter>>>::value"
    }
   ],
   "linker_set_key" : "_ZTIN7android8internal7details13ToEmptyStringINSt3__16vectorIN4aidl7android8hardware8security7keymint12KeyParameterENS3_9allocatorISA_EEEEE6$valueE",
   "name" : "android::internal::details::ToEmptyString<vector<KeyParameter, allocator<KeyParameter>>>::(anonymous enum at frameworks/native/libs/binder/ndk/include_cpp/android/binder_to_string.h:153:5)",
   "referenced_type" : "_ZTIN7android8internal7details13ToEmptyStringINSt3__16vectorIN4aidl7android8hardware8security7keymint12KeyParameterENS3_9allocatorISA_EEEEE6$valueE",
   "self_type" : "_ZTIN7android8internal7details13ToEmptyStringINSt3__16vectorIN4aidl7android8hardware8security7keymint12KeyParameterENS3_9allocatorISA_EEEEE6$valueE",
   "size" : 4,
   "source_file" : "frameworks/native/libs/binder/ndk/include_cpp/android/binder_to_string.h",
   "underlying_type" : "_ZTIj"
  },
  {
   "alignment" : 4,
   "enum_fields" :
   [
    {
     "enum_field_value" : 0,
     "name" : "android::internal::details::ToEmptyString<std::__1::vector<aidl::android::hardware::security::keymint::KeyCharacteristics, std::__1::allocator<aidl::android::hardware::security::keymint::KeyCharacteristics>>>::value"
    }
   ],
   "linker_set_key" : "_ZTIN7android8internal7details13ToEmptyStringINSt3__16vectorIN4aidl7android8hardware8security7keymint18KeyCharacteristicsENS3_9allocatorISA_EEEEE6$valueE",
   "name" : "android::internal::details::ToEmptyString<vector<KeyCharacteristics, allocator<KeyCharacteristics>>>::(anonymous enum at frameworks/native/libs/binder/ndk/include_cpp/android/binder_to_string.h:153:5)",
   "referenced_type" : "_ZTIN7android8internal7details13ToEmptyStringINSt3__16vectorIN4aidl7android8hardware8security7keymint18KeyCharacteristicsENS3_9allocatorISA_EEEEE6$valueE",
   "self_type" : "_ZTIN7android8internal7details13ToEmptyStringINSt3__16vectorIN4aidl7android8hardware8security7keymint18KeyCharacteristicsENS3_9allocatorISA_EEEEE6$valueE",
   "size" : 4,
   "source_file" : "frameworks/native/libs/binder/ndk/include_cpp/android/binder_to_string.h",
   "underlying_type" : "_ZTIj"
  },
  {
   "alignment" : 4,
   "enum_fields" :
   [
    {
     "enum_field_value" : 0,
     "name" : "android::internal::details::ToEmptyString<std::__1::vector<unsigned char, std::__1::allocator<unsigned char>>>::value"
    }
   ],
   "linker_set_key" : "_ZTIN7android8internal7details13ToEmptyStringINSt3__16vectorIhNS3_9allocatorIhEEEEE6$valueE",
   "name" : "android::internal::details::ToEmptyString<vector<unsigned char, allocator<unsigned char>>>::(anonymous enum at frameworks/native/libs/binder/ndk/include_cpp/android/binder_to_string.h:153:5)",
   "referenced_type" : "_ZTIN7android8internal7details13ToEmptyStringINSt3__16vectorIhNS3_9allocatorIhEEEEE6$valueE",
   "self_type" : "_ZTIN7android8internal7details13ToEmptyStringINSt3__16vectorIhNS3_9allocatorIhEEEEE6$valueE",
   "size" : 4,
   "source_file" : "frameworks/native/libs/binder/ndk/include_cpp/android/binder_to_string.h",
   "underlying_type" : "_ZTIj"
  },
  {
   "alignment" : 4,
   "enum_fields" :
   [
    {
     "enum_field_value" : 0,
     "name" : "android::internal::details::ToEmptyString<bool>::value"
    }
   ],
   "linker_set_key" : "_ZTIN7android8internal7details13ToEmptyStringIbE6$valueE",
   "name" : "android::internal::details::ToEmptyString<bool>::(anonymous enum at frameworks/native/libs/binder/ndk/include_cpp/android/binder_to_string.h:153:5)",
   "referenced_type" : "_ZTIN7android8internal7details13ToEmptyStringIbE6$valueE",
   "self_type" : "_ZTIN7android8internal7details13ToEmptyStringIbE6$valueE",
   "size" : 4,
   "source_file" : "frameworks/native/libs/binder/ndk/include_cpp/android/binder_to_string.h",
   "underlying_type" : "_ZTIj"
  },
  {
   "alignment" : 4,
   "enum_fields" :
   [
    {
     "enum_field_value" : 0,
     "name" : "android::internal::details::ToEmptyString<unsigned char>::value"
    }
   ],
   "linker_set_key" : "_ZTIN7android8internal7details13ToEmptyStringIhE6$valueE",
   "name" : "android::internal::details::ToEmptyString<unsigned char>::(anonymous enum at frameworks/native/libs/binder/ndk/include_cpp/android/binder_to_string.h:153:5)",
   "referenced_type" : "_ZTIN7android8internal7details13ToEmptyStringIhE6$valueE",
   "self_type" : "_ZTIN7android8internal7details13ToEmptyStringIhE6$valueE",
   "size" : 4,
   "source_file" : "frameworks/native/libs/binder/ndk/include_cpp/android/binder_to_string.h",
   "underlying_type" : "_ZTIj"
  },
  {
   "alignment" : 4,
   "enum_fields" :
   [
    {
     "enum_field_value" : 0,
     "name" : "android::internal::details::ToEmptyString<int>::value"
    }
   ],
   "linker_set_key" : "_ZTIN7android8internal7details13ToEmptyStringIiE6$valueE",
   "name" : "android::internal::details::ToEmptyString<int>::(anonymous enum at frameworks/native/libs/binder/ndk/include_cpp/android/binder_to_string.h:153:5)",
   "referenced_type" : "_ZTIN7android8internal7details13ToEmptyStringIiE6$valueE",
   "self_type" : "_ZTIN7android8internal7details13ToEmptyStringIiE6$valueE",
   "size" : 4,
   "source_file" : "frameworks/native/libs/binder/ndk/include_cpp/android/binder_to_string.h",
   "underlying_type" : "_ZTIj"
  },
  {
   "alignment" : 4,
   "enum_fields" :
   [
    {
     "enum_field_value" : 0,
     "name" : "android::internal::details::ToEmptyString<long>::value"
    }
   ],
   "linker_set_key" : "_ZTIN7android8internal7details13ToEmptyStringIlE6$valueE",
   "name" : "android::internal::details::ToEmptyString<long>::(anonymous enum at frameworks/native/libs/binder/ndk/include_cpp/android/binder_to_string.h:153:5)",
   "referenced_type" : "_ZTIN7android8internal7details13ToEmptyStringIlE6$valueE",
   "self_type" : "_ZTIN7android8internal7details13ToEmptyStringIlE6$valueE",
   "size" : 4,
   "source_file" : "frameworks/native/libs/binder/ndk/include_cpp/android/binder_to_string.h",
   "underlying_type" : "_ZTIj"
  },
  {
   "alignment" : 4,
   "enum_fields" :
   [
    {
     "enum_field_value" : 1,
     "name" : "android::internal::details::HasToStringMethod<aidl::android::hardware::security::secureclock::Timestamp>::value"
    }
   ],
   "linker_set_key" : "_ZTIN7android8internal7details17HasToStringMethodIN4aidl7android8hardware8security11secureclock9TimestampEE6$valueE",
   "name" : "android::internal::details::HasToStringMethod<Timestamp>::(anonymous enum at frameworks/native/libs/binder/ndk/include_cpp/android/binder_to_string.h:77:5)",
   "referenced_type" : "_ZTIN7android8internal7details17HasToStringMethodIN4aidl7android8hardware8security11secureclock9TimestampEE6$valueE",
   "self_type" : "_ZTIN7android8internal7details17HasToStringMethodIN4aidl7android8hardware8security11secureclock9TimestampEE6$valueE",
   "size" : 4,
   "source_file" : "frameworks/native/libs/binder/ndk/include_cpp/android/binder_to_string.h",
   "underlying_type" : "_ZTIj"
  },
  {
   "alignment" : 4,
   "enum_fields" :
   [
    {
     "enum_field_value" : 0,
     "name" : "android::internal::details::HasToStringMethod<aidl::android::hardware::security::keymint::KeyPurpose>::value"
    }
   ],
   "linker_set_key" : "_ZTIN7android8internal7details17HasToStringMethodIN4aidl7android8hardware8security7keymint10KeyPurposeEE6$valueE",
   "name" : "android::internal::details::HasToStringMethod<KeyPurpose>::(anonymous enum at frameworks/native/libs/binder/ndk/include_cpp/android/binder_to_string.h:77:5)",
   "referenced_type" : "_ZTIN7android8internal7details17HasToStringMethodIN4aidl7android8hardware8security7keymint10KeyPurposeEE6$valueE",
   "self_type" : "_ZTIN7android8internal7details17HasToStringMethodIN4aidl7android8hardware8security7keymint10KeyPurposeEE6$valueE",
   "size" : 4,
   "source_file" : "frameworks/native/libs/binder/ndk/include_cpp/android/binder_to_string.h",
   "underlying_type" : "_ZTIj"
  },
  {
   "alignment" : 4,
   "enum_fields" :
   [
    {
     "enum_field_value" : 1,
     "name" : "android::internal::details::HasToStringMethod<aidl::android::hardware::security::keymint::Certificate>::value"
    }
   ],
   "linker_set_key" : "_ZTIN7android8internal7details17HasToStringMethodIN4aidl7android8hardware8security7keymint11CertificateEE6$valueE",
   "name" : "android::internal::details::HasToStringMethod<Certificate>::(anonymous enum at frameworks/native/libs/binder/ndk/include_cpp/android/binder_to_string.h:77:5)",
   "referenced_type" : "_ZTIN7android8internal7details17HasToStringMethodIN4aidl7android8hardware8security7keymint11CertificateEE6$valueE",
   "self_type" : "_ZTIN7android8internal7details17HasToStringMethodIN4aidl7android8hardware8security7keymint11CertificateEE6$valueE",
   "size" : 4,
   "source_file" : "frameworks/native/libs/binder/ndk/include_cpp/android/binder_to_string.h",
   "underlying_type" : "_ZTIj"
  },
  {
   "alignment" : 4,
   "enum_fields" :
   [
    {
     "enum_field_value" : 0,
     "name" : "android::internal::details::HasToStringMethod<aidl::android::hardware::security::keymint::PaddingMode>::value"
    }
   ],
   "linker_set_key" : "_ZTIN7android8internal7details17HasToStringMethodIN4aidl7android8hardware8security7keymint11PaddingModeEE6$valueE",
   "name" : "android::internal::details::HasToStringMethod<PaddingMode>::(anonymous enum at frameworks/native/libs/binder/ndk/include_cpp/android/binder_to_string.h:77:5)",
   "referenced_type" : "_ZTIN7android8internal7details17HasToStringMethodIN4aidl7android8hardware8security7keymint11PaddingModeEE6$valueE",
   "self_type" : "_ZTIN7android8internal7details17HasToStringMethodIN4aidl7android8hardware8security7keymint11PaddingModeEE6$valueE",
   "size" : 4,
   "source_file" : "frameworks/native/libs/binder/ndk/include_cpp/android/binder_to_string.h",
   "underlying_type" : "_ZTIj"
  },
  {
   "alignment" : 4,
   "enum_fields" :
   [
    {
     "enum_field_value" : 1,
     "name" : "android::internal::details::HasToStringMethod<aidl::android::hardware::security::keymint::KeyParameter>::value"
    }
   ],
   "linker_set_key" : "_ZTIN7android8internal7details17HasToStringMethodIN4aidl7android8hardware8security7keymint12KeyParameterEE6$valueE",
   "name" : "android::internal::details::HasToStringMethod<KeyParameter>::(anonymous enum at frameworks/native/libs/binder/ndk/include_cpp/android/binder_to_string.h:77:5)",
   "referenced_type" : "_ZTIN7android8internal7details17HasToStringMethodIN4aidl7android8hardware8security7keymint12KeyParameterEE6$valueE",
   "self_type" : "_ZTIN7android8internal7details17HasToStringMethodIN4aidl7android8hardware8security7keymint12KeyParameterEE6$valueE",
   "size" : 4,
   "source_file" : "frameworks/native/libs/binder/ndk/include_cpp/android/binder_to_string.h",
   "underlying_type" : "_ZTIj"
  },
  {
   "alignment" : 4,
   "enum_fields" :
   [
    {
     "enum_field_value" : 0,
     "name" : "android::internal::details::HasToStringMethod<aidl::android::hardware::security::keymint::SecurityLevel>::value"
    }
   ],
   "linker_set_key" : "_ZTIN7android8internal7details17HasToStringMethodIN4aidl7android8hardware8security7keymint13SecurityLevelEE6$valueE",
   "name" : "android::internal::details::HasToStringMethod<SecurityLevel>::(anonymous enum at frameworks/native/libs/binder/ndk/include_cpp/android/binder_to_string.h:77:5)",
   "referenced_type" : "_ZTIN7android8internal7details17HasToStringMethodIN4aidl7android8hardware8security7keymint13SecurityLevelEE6$valueE",
   "self_type" : "_ZTIN7android8internal7details17HasToStringMethodIN4aidl7android8hardware8security7keymint13SecurityLevelEE6$valueE",
   "size" : 4,
   "source_file" : "frameworks/native/libs/binder/ndk/include_cpp/android/binder_to_string.h",
   "underlying_type" : "_ZTIj"
  },
  {
   "alignment" : 4,
   "enum_fields" :
   [
    {
     "enum_field_value" : 1,
     "name" : "android::internal::details::HasToStringMethod<aidl::android::hardware::security::keymint::KeyParameterValue>::value"
    }
   ],
   "linker_set_key" : "_ZTIN7android8internal7details17HasToStringMethodIN4aidl7android8hardware8security7keymint17KeyParameterValueEE6$valueE",
   "name" : "android::internal::details::HasToStringMethod<KeyParameterValue>::(anonymous enum at frameworks/native/libs/binder/ndk/include_cpp/android/binder_to_string.h:77:5)",
   "referenced_type" : "_ZTIN7android8internal7details17HasToStringMethodIN4aidl7android8hardware8security7keymint17KeyParameterValueEE6$valueE",
   "self_type" : "_ZTIN7android8internal7details17HasToStringMethodIN4aidl7android8hardware8security7keymint17KeyParameterValueEE6$valueE",
   "size" : 4,
   "source_file" : "frameworks/native/libs/binder/ndk/include_cpp/android/binder_to_string.h",
   "underlying_type" : "_ZTIj"
  },
  {
   "alignment" : 4,
   "enum_fields" :
   [
    {
     "enum_field_value" : 1,
     "name" : "android::internal::details::HasToStringMethod<aidl::android::hardware::security::keymint::KeyCharacteristics>::value"
    }
   ],
   "linker_set_key" : "_ZTIN7android8internal7details17HasToStringMethodIN4aidl7android8hardware8security7keymint18KeyCharacteristicsEE6$valueE",
   "name" : "android::internal::details::HasToStringMethod<KeyCharacteristics>::(anonymous enum at frameworks/native/libs/binder/ndk/include_cpp/android/binder_to_string.h:77:5)",
   "referenced_type" : "_ZTIN7android8internal7details17HasToStringMethodIN4aidl7android8hardware8security7keymint18KeyCharacteristicsEE6$valueE",
   "self_type" : "_ZTIN7android8internal7details17HasToStringMethodIN4aidl7android8hardware8security7keymint18KeyCharacteristicsEE6$valueE",
   "size" : 4,
   "source_file" : "frameworks/native/libs/binder/ndk/include_cpp/android/binder_to_string.h",
   "underlying_type" : "_ZTIj"
  },
  {
   "alignment" : 4,
   "enum_fields" :
   [
    {
     "enum_field_value" : 0,
     "name" : "android::internal::details::HasToStringMethod<aidl::android::hardware::security::keymint::HardwareAuthenticatorType>::value"
    }
   ],
   "linker_set_key" : "_ZTIN7android8internal7details17HasToStringMethodIN4aidl7android8hardware8security7keymint25HardwareAuthenticatorTypeEE6$valueE",
   "name" : "android::internal::details::HasToStringMethod<HardwareAuthenticatorType>::(anonymous enum at frameworks/native/libs/binder/ndk/include_cpp/android/binder_to_string.h:77:5)",
   "referenced_type" : "_ZTIN7android8internal7details17HasToStringMethodIN4aidl7android8hardware8security7keymint25HardwareAuthenticatorTypeEE6$valueE",
   "self_type" : "_ZTIN7android8internal7details17HasToStringMethodIN4aidl7android8hardware8security7keymint25HardwareAuthenticatorTypeEE6$valueE",
   "size" : 4,
   "source_file" : "frameworks/native/libs/binder/ndk/include_cpp/android/binder_to_string.h",
   "underlying_type" : "_ZTIj"
  },
  {
   "alignment" : 4,
   "enum_fields" :
   [
    {
     "enum_field_value" : 0,
     "name" : "android::internal::details::HasToStringMethod<aidl::android::hardware::security::keymint::Tag>::value"
    }
   ],
   "linker_set_key" : "_ZTIN7android8internal7details17HasToStringMethodIN4aidl7android8hardware8security7keymint3TagEE6$valueE",
   "name" : "android::internal::details::HasToStringMethod<Tag>::(anonymous enum at frameworks/native/libs/binder/ndk/include_cpp/android/binder_to_string.h:77:5)",
   "referenced_type" : "_ZTIN7android8internal7details17HasToStringMethodIN4aidl7android8hardware8security7keymint3TagEE6$valueE",
   "self_type" : "_ZTIN7android8internal7details17HasToStringMethodIN4aidl7android8hardware8security7keymint3TagEE6$valueE",
   "size" : 4,
   "source_file" : "frameworks/native/libs/binder/ndk/include_cpp/android/binder_to_string.h",
   "underlying_type" : "_ZTIj"
  },
  {
   "alignment" : 4,
   "enum_fields" :
   [
    {
     "enum_field_value" : 0,
     "name" : "android::internal::details::HasToStringMethod<aidl::android::hardware::security::keymint::Digest>::value"
    }
   ],
   "linker_set_key" : "_ZTIN7android8internal7details17HasToStringMethodIN4aidl7android8hardware8security7keymint6DigestEE6$valueE",
   "name" : "android::internal::details::HasToStringMethod<Digest>::(anonymous enum at frameworks/native/libs/binder/ndk/include_cpp/android/binder_to_string.h:77:5)",
   "referenced_type" : "_ZTIN7android8internal7details17HasToStringMethodIN4aidl7android8hardware8security7keymint6DigestEE6$valueE",
   "self_type" : "_ZTIN7android8internal7details17HasToStringMethodIN4aidl7android8hardware8security7keymint6DigestEE6$valueE",
   "size" : 4,
   "source_file" : "frameworks/native/libs/binder/ndk/include_cpp/android/binder_to_string.h",
   "underlying_type" : "_ZTIj"
  },
  {
   "alignment" : 4,
   "enum_fields" :
   [
    {
     "enum_field_value" : 0,
     "name" : "android::internal::details::HasToStringMethod<aidl::android::hardware::security::keymint::EcCurve>::value"
    }
   ],
   "linker_set_key" : "_ZTIN7android8internal7details17HasToStringMethodIN4aidl7android8hardware8security7keymint7EcCurveEE6$valueE",
   "name" : "android::internal::details::HasToStringMethod<EcCurve>::(anonymous enum at frameworks/native/libs/binder/ndk/include_cpp/android/binder_to_string.h:77:5)",
   "referenced_type" : "_ZTIN7android8internal7details17HasToStringMethodIN4aidl7android8hardware8security7keymint7EcCurveEE6$valueE",
   "self_type" : "_ZTIN7android8internal7details17HasToStringMethodIN4aidl7android8hardware8security7keymint7EcCurveEE6$valueE",
   "size" : 4,
   "source_file" : "frameworks/native/libs/binder/ndk/include_cpp/android/binder_to_string.h",
   "underlying_type" : "_ZTIj"
  },
  {
   "alignment" : 4,
   "enum_fields" :
   [
    {
     "enum_field_value" : 0,
     "name" : "android::internal::details::HasToStringMethod<aidl::android::hardware::security::keymint::Algorithm>::value"
    }
   ],
   "linker_set_key" : "_ZTIN7android8internal7details17HasToStringMethodIN4aidl7android8hardware8security7keymint9AlgorithmEE6$valueE",
   "name" : "android::internal::details::HasToStringMethod<Algorithm>::(anonymous enum at frameworks/native/libs/binder/ndk/include_cpp/android/binder_to_string.h:77:5)",
   "referenced_type" : "_ZTIN7android8internal7details17HasToStringMethodIN4aidl7android8hardware8security7keymint9AlgorithmEE6$valueE",
   "self_type" : "_ZTIN7android8internal7details17HasToStringMethodIN4aidl7android8hardware8security7keymint9AlgorithmEE6$valueE",
   "size" : 4,
   "source_file" : "frameworks/native/libs/binder/ndk/include_cpp/android/binder_to_string.h",
   "underlying_type" : "_ZTIj"
  },
  {
   "alignment" : 4,
   "enum_fields" :
   [
    {
     "enum_field_value" : 0,
     "name" : "android::internal::details::HasToStringMethod<aidl::android::hardware::security::keymint::BlockMode>::value"
    }
   ],
   "linker_set_key" : "_ZTIN7android8internal7details17HasToStringMethodIN4aidl7android8hardware8security7keymint9BlockModeEE6$valueE",
   "name" : "android::internal::details::HasToStringMethod<BlockMode>::(anonymous enum at frameworks/native/libs/binder/ndk/include_cpp/android/binder_to_string.h:77:5)",
   "referenced_type" : "_ZTIN7android8internal7details17HasToStringMethodIN4aidl7android8hardware8security7keymint9BlockModeEE6$valueE",
   "self_type" : "_ZTIN7android8internal7details17HasToStringMethodIN4aidl7android8hardware8security7keymint9BlockModeEE6$valueE",
   "size" : 4,
   "source_file" : "frameworks/native/libs/binder/ndk/include_cpp/android/binder_to_string.h",
   "underlying_type" : "_ZTIj"
  },
  {
   "alignment" : 4,
   "enum_fields" :
   [
    {
     "enum_field_value" : 0,
     "name" : "android::internal::details::HasToStringMethod<aidl::android::hardware::security::keymint::KeyOrigin>::value"
    }
   ],
   "linker_set_key" : "_ZTIN7android8internal7details17HasToStringMethodIN4aidl7android8hardware8security7keymint9KeyOriginEE6$valueE",
   "name" : "android::internal::details::HasToStringMethod<KeyOrigin>::(anonymous enum at frameworks/native/libs/binder/ndk/include_cpp/android/binder_to_string.h:77:5)",
   "referenced_type" : "_ZTIN7android8internal7details17HasToStringMethodIN4aidl7android8hardware8security7keymint9KeyOriginEE6$valueE",
   "self_type" : "_ZTIN7android8internal7details17HasToStringMethodIN4aidl7android8hardware8security7keymint9KeyOriginEE6$valueE",
   "size" : 4,
   "source_file" : "frameworks/native/libs/binder/ndk/include_cpp/android/binder_to_string.h",
   "underlying_type" : "_ZTIj"
  },
  {
   "alignment" : 4,
   "enum_fields" :
   [
    {
     "enum_field_value" : 0,
     "name" : "android::internal::details::HasToStringMethod<std::__1::vector<aidl::android::hardware::security::keymint::Certificate, std::__1::allocator<aidl::android::hardware::security::keymint::Certificate>>>::value"
    }
   ],
   "linker_set_key" : "_ZTIN7android8internal7details17HasToStringMethodINSt3__16vectorIN4aidl7android8hardware8security7keymint11CertificateENS3_9allocatorISA_EEEEE6$valueE",
   "name" : "android::internal::details::HasToStringMethod<vector<Certificate, allocator<Certificate>>>::(anonymous enum at frameworks/native/libs/binder/ndk/include_cpp/android/binder_to_string.h:77:5)",
   "referenced_type" : "_ZTIN7android8internal7details17HasToStringMethodINSt3__16vectorIN4aidl7android8hardware8security7keymint11CertificateENS3_9allocatorISA_EEEEE6$valueE",
   "self_type" : "_ZTIN7android8internal7details17HasToStringMethodINSt3__16vectorIN4aidl7android8hardware8security7keymint11CertificateENS3_9allocatorISA_EEEEE6$valueE",
   "size" : 4,
   "source_file" : "frameworks/native/libs/binder/ndk/include_cpp/android/binder_to_string.h",
   "underlying_type" : "_ZTIj"
  },
  {
   "alignment" : 4,
   "enum_fields" :
   [
    {
     "enum_field_value" : 0,
     "name" : "android::internal::details::HasToStringMethod<std::__1::vector<aidl::android::hardware::security::keymint::KeyParameter, std::__1::allocator<aidl::android::hardware::security::keymint::KeyParameter>>>::value"
    }
   ],
   "linker_set_key" : "_ZTIN7android8internal7details17HasToStringMethodINSt3__16vectorIN4aidl7android8hardware8security7keymint12KeyParameterENS3_9allocatorISA_EEEEE6$valueE",
   "name" : "android::internal::details::HasToStringMethod<vector<KeyParameter, allocator<KeyParameter>>>::(anonymous enum at frameworks/native/libs/binder/ndk/include_cpp/android/binder_to_string.h:77:5)",
   "referenced_type" : "_ZTIN7android8internal7details17HasToStringMethodINSt3__16vectorIN4aidl7android8hardware8security7keymint12KeyParameterENS3_9allocatorISA_EEEEE6$valueE",
   "self_type" : "_ZTIN7android8internal7details17HasToStringMethodINSt3__16vectorIN4aidl7android8hardware8security7keymint12KeyParameterENS3_9allocatorISA_EEEEE6$valueE",
   "size" : 4,
   "source_file" : "frameworks/native/libs/binder/ndk/include_cpp/android/binder_to_string.h",
   "underlying_type" : "_ZTIj"
  },
  {
   "alignment" : 4,
   "enum_fields" :
   [
    {
     "enum_field_value" : 0,
     "name" : "android::internal::details::HasToStringMethod<std::__1::vector<aidl::android::hardware::security::keymint::KeyCharacteristics, std::__1::allocator<aidl::android::hardware::security::keymint::KeyCharacteristics>>>::value"
    }
   ],
   "linker_set_key" : "_ZTIN7android8internal7details17HasToStringMethodINSt3__16vectorIN4aidl7android8hardware8security7keymint18KeyCharacteristicsENS3_9allocatorISA_EEEEE6$valueE",
   "name" : "android::internal::details::HasToStringMethod<vector<KeyCharacteristics, allocator<KeyCharacteristics>>>::(anonymous enum at frameworks/native/libs/binder/ndk/include_cpp/android/binder_to_string.h:77:5)",
   "referenced_type" : "_ZTIN7android8internal7details17HasToStringMethodINSt3__16vectorIN4aidl7android8hardware8security7keymint18KeyCharacteristicsENS3_9allocatorISA_EEEEE6$valueE",
   "self_type" : "_ZTIN7android8internal7details17HasToStringMethodINSt3__16vectorIN4aidl7android8hardware8security7keymint18KeyCharacteristicsENS3_9allocatorISA_EEEEE6$valueE",
   "size" : 4,
   "source_file" : "frameworks/native/libs/binder/ndk/include_cpp/android/binder_to_string.h",
   "underlying_type" : "_ZTIj"
  },
  {
   "alignment" : 4,
   "enum_fields" :
   [
    {
     "enum_field_value" : 0,
     "name" : "android::internal::details::HasToStringMethod<std::__1::vector<unsigned char, std::__1::allocator<unsigned char>>>::value"
    }
   ],
   "linker_set_key" : "_ZTIN7android8internal7details17HasToStringMethodINSt3__16vectorIhNS3_9allocatorIhEEEEE6$valueE",
   "name" : "android::internal::details::HasToStringMethod<vector<unsigned char, allocator<unsigned char>>>::(anonymous enum at frameworks/native/libs/binder/ndk/include_cpp/android/binder_to_string.h:77:5)",
   "referenced_type" : "_ZTIN7android8internal7details17HasToStringMethodINSt3__16vectorIhNS3_9allocatorIhEEEEE6$valueE",
   "self_type" : "_ZTIN7android8internal7details17HasToStringMethodINSt3__16vectorIhNS3_9allocatorIhEEEEE6$valueE",
   "size" : 4,
   "source_file" : "frameworks/native/libs/binder/ndk/include_cpp/android/binder_to_string.h",
   "underlying_type" : "_ZTIj"
  },
  {
   "alignment" : 4,
   "enum_fields" :
   [
    {
     "enum_field_value" : 1,
     "name" : "android::internal::details::HasToStringFunction<aidl::android::hardware::security::keymint::KeyPurpose>::value"
    }
   ],
   "linker_set_key" : "_ZTIN7android8internal7details19HasToStringFunctionIN4aidl7android8hardware8security7keymint10KeyPurposeEE6$valueE",
   "name" : "android::internal::details::HasToStringFunction<KeyPurpose>::(anonymous enum at frameworks/native/libs/binder/ndk/include_cpp/android/binder_to_string.h:89:5)",
   "referenced_type" : "_ZTIN7android8internal7details19HasToStringFunctionIN4aidl7android8hardware8security7keymint10KeyPurposeEE6$valueE",
   "self_type" : "_ZTIN7android8internal7details19HasToStringFunctionIN4aidl7android8hardware8security7keymint10KeyPurposeEE6$valueE",
   "size" : 4,
   "source_file" : "frameworks/native/libs/binder/ndk/include_cpp/android/binder_to_string.h",
   "underlying_type" : "_ZTIj"
  },
  {
   "alignment" : 4,
   "enum_fields" :
   [
    {
     "enum_field_value" : 1,
     "name" : "android::internal::details::HasToStringFunction<aidl::android::hardware::security::keymint::PaddingMode>::value"
    }
   ],
   "linker_set_key" : "_ZTIN7android8internal7details19HasToStringFunctionIN4aidl7android8hardware8security7keymint11PaddingModeEE6$valueE",
   "name" : "android::internal::details::HasToStringFunction<PaddingMode>::(anonymous enum at frameworks/native/libs/binder/ndk/include_cpp/android/binder_to_string.h:89:5)",
   "referenced_type" : "_ZTIN7android8internal7details19HasToStringFunctionIN4aidl7android8hardware8security7keymint11PaddingModeEE6$valueE",
   "self_type" : "_ZTIN7android8internal7details19HasToStringFunctionIN4aidl7android8hardware8security7keymint11PaddingModeEE6$valueE",
   "size" : 4,
   "source_file" : "frameworks/native/libs/binder/ndk/include_cpp/android/binder_to_string.h",
   "underlying_type" : "_ZTIj"
  },
  {
   "alignment" : 4,
   "enum_fields" :
   [
    {
     "enum_field_value" : 1,
     "name" : "android::internal::details::HasToStringFunction<aidl::android::hardware::security::keymint::SecurityLevel>::value"
    }
   ],
   "linker_set_key" : "_ZTIN7android8internal7details19HasToStringFunctionIN4aidl7android8hardware8security7keymint13SecurityLevelEE6$valueE",
   "name" : "android::internal::details::HasToStringFunction<SecurityLevel>::(anonymous enum at frameworks/native/libs/binder/ndk/include_cpp/android/binder_to_string.h:89:5)",
   "referenced_type" : "_ZTIN7android8internal7details19HasToStringFunctionIN4aidl7android8hardware8security7keymint13SecurityLevelEE6$valueE",
   "self_type" : "_ZTIN7android8internal7details19HasToStringFunctionIN4aidl7android8hardware8security7keymint13SecurityLevelEE6$valueE",
   "size" : 4,
   "source_file" : "frameworks/native/libs/binder/ndk/include_cpp/android/binder_to_string.h",
   "underlying_type" : "_ZTIj"
  },
  {
   "alignment" : 4,
   "enum_fields" :
   [
    {
     "enum_field_value" : 1,
     "name" : "android::internal::details::HasToStringFunction<aidl::android::hardware::security::keymint::HardwareAuthenticatorType>::value"
    }
   ],
   "linker_set_key" : "_ZTIN7android8internal7details19HasToStringFunctionIN4aidl7android8hardware8security7keymint25HardwareAuthenticatorTypeEE6$valueE",
   "name" : "android::internal::details::HasToStringFunction<HardwareAuthenticatorType>::(anonymous enum at frameworks/native/libs/binder/ndk/include_cpp/android/binder_to_string.h:89:5)",
   "referenced_type" : "_ZTIN7android8internal7details19HasToStringFunctionIN4aidl7android8hardware8security7keymint25HardwareAuthenticatorTypeEE6$valueE",
   "self_type" : "_ZTIN7android8internal7details19HasToStringFunctionIN4aidl7android8hardware8security7keymint25HardwareAuthenticatorTypeEE6$valueE",
   "size" : 4,
   "source_file" : "frameworks/native/libs/binder/ndk/include_cpp/android/binder_to_string.h",
   "underlying_type" : "_ZTIj"
  },
  {
   "alignment" : 4,
   "enum_fields" :
   [
    {
     "enum_field_value" : 1,
     "name" : "android::internal::details::HasToStringFunction<aidl::android::hardware::security::keymint::Tag>::value"
    }
   ],
   "linker_set_key" : "_ZTIN7android8internal7details19HasToStringFunctionIN4aidl7android8hardware8security7keymint3TagEE6$valueE",
   "name" : "android::internal::details::HasToStringFunction<Tag>::(anonymous enum at frameworks/native/libs/binder/ndk/include_cpp/android/binder_to_string.h:89:5)",
   "referenced_type" : "_ZTIN7android8internal7details19HasToStringFunctionIN4aidl7android8hardware8security7keymint3TagEE6$valueE",
   "self_type" : "_ZTIN7android8internal7details19HasToStringFunctionIN4aidl7android8hardware8security7keymint3TagEE6$valueE",
   "size" : 4,
   "source_file" : "frameworks/native/libs/binder/ndk/include_cpp/android/binder_to_string.h",
   "underlying_type" : "_ZTIj"
  },
  {
   "alignment" : 4,
   "enum_fields" :
   [
    {
     "enum_field_value" : 1,
     "name" : "android::internal::details::HasToStringFunction<aidl::android::hardware::security::keymint::Digest>::value"
    }
   ],
   "linker_set_key" : "_ZTIN7android8internal7details19HasToStringFunctionIN4aidl7android8hardware8security7keymint6DigestEE6$valueE",
   "name" : "android::internal::details::HasToStringFunction<Digest>::(anonymous enum at frameworks/native/libs/binder/ndk/include_cpp/android/binder_to_string.h:89:5)",
   "referenced_type" : "_ZTIN7android8internal7details19HasToStringFunctionIN4aidl7android8hardware8security7keymint6DigestEE6$valueE",
   "self_type" : "_ZTIN7android8internal7details19HasToStringFunctionIN4aidl7android8hardware8security7keymint6DigestEE6$valueE",
   "size" : 4,
   "source_file" : "frameworks/native/libs/binder/ndk/include_cpp/android/binder_to_string.h",
   "underlying_type" : "_ZTIj"
  },
  {
   "alignment" : 4,
   "enum_fields" :
   [
    {
     "enum_field_value" : 1,
     "name" : "android::internal::details::HasToStringFunction<aidl::android::hardware::security::keymint::EcCurve>::value"
    }
   ],
   "linker_set_key" : "_ZTIN7android8internal7details19HasToStringFunctionIN4aidl7android8hardware8security7keymint7EcCurveEE6$valueE",
   "name" : "android::internal::details::HasToStringFunction<EcCurve>::(anonymous enum at frameworks/native/libs/binder/ndk/include_cpp/android/binder_to_string.h:89:5)",
   "referenced_type" : "_ZTIN7android8internal7details19HasToStringFunctionIN4aidl7android8hardware8security7keymint7EcCurveEE6$valueE",
   "self_type" : "_ZTIN7android8internal7details19HasToStringFunctionIN4aidl7android8hardware8security7keymint7EcCurveEE6$valueE",
   "size" : 4,
   "source_file" : "frameworks/native/libs/binder/ndk/include_cpp/android/binder_to_string.h",
   "underlying_type" : "_ZTIj"
  },
  {
   "alignment" : 4,
   "enum_fields" :
   [
    {
     "enum_field_value" : 1,
     "name" : "android::internal::details::HasToStringFunction<aidl::android::hardware::security::keymint::Algorithm>::value"
    }
   ],
   "linker_set_key" : "_ZTIN7android8internal7details19HasToStringFunctionIN4aidl7android8hardware8security7keymint9AlgorithmEE6$valueE",
   "name" : "android::internal::details::HasToStringFunction<Algorithm>::(anonymous enum at frameworks/native/libs/binder/ndk/include_cpp/android/binder_to_string.h:89:5)",
   "referenced_type" : "_ZTIN7android8internal7details19HasToStringFunctionIN4aidl7android8hardware8security7keymint9AlgorithmEE6$valueE",
   "self_type" : "_ZTIN7android8internal7details19HasToStringFunctionIN4aidl7android8hardware8security7keymint9AlgorithmEE6$valueE",
   "size" : 4,
   "source_file" : "frameworks/native/libs/binder/ndk/include_cpp/android/binder_to_string.h",
   "underlying_type" : "_ZTIj"
  },
  {
   "alignment" : 4,
   "enum_fields" :
   [
    {
     "enum_field_value" : 1,
     "name" : "android::internal::details::HasToStringFunction<aidl::android::hardware::security::keymint::BlockMode>::value"
    }
   ],
   "linker_set_key" : "_ZTIN7android8internal7details19HasToStringFunctionIN4aidl7android8hardware8security7keymint9BlockModeEE6$valueE",
   "name" : "android::internal::details::HasToStringFunction<BlockMode>::(anonymous enum at frameworks/native/libs/binder/ndk/include_cpp/android/binder_to_string.h:89:5)",
   "referenced_type" : "_ZTIN7android8internal7details19HasToStringFunctionIN4aidl7android8hardware8security7keymint9BlockModeEE6$valueE",
   "self_type" : "_ZTIN7android8internal7details19HasToStringFunctionIN4aidl7android8hardware8security7keymint9BlockModeEE6$valueE",
   "size" : 4,
   "source_file" : "frameworks/native/libs/binder/ndk/include_cpp/android/binder_to_string.h",
   "underlying_type" : "_ZTIj"
  },
  {
   "alignment" : 4,
   "enum_fields" :
   [
    {
     "enum_field_value" : 1,
     "name" : "android::internal::details::HasToStringFunction<aidl::android::hardware::security::keymint::KeyOrigin>::value"
    }
   ],
   "linker_set_key" : "_ZTIN7android8internal7details19HasToStringFunctionIN4aidl7android8hardware8security7keymint9KeyOriginEE6$valueE",
   "name" : "android::internal::details::HasToStringFunction<KeyOrigin>::(anonymous enum at frameworks/native/libs/binder/ndk/include_cpp/android/binder_to_string.h:89:5)",
   "referenced_type" : "_ZTIN7android8internal7details19HasToStringFunctionIN4aidl7android8hardware8security7keymint9KeyOriginEE6$valueE",
   "self_type" : "_ZTIN7android8internal7details19HasToStringFunctionIN4aidl7android8hardware8security7keymint9KeyOriginEE6$valueE",
   "size" : 4,
   "source_file" : "frameworks/native/libs/binder/ndk/include_cpp/android/binder_to_string.h",
   "underlying_type" : "_ZTIj"
  },
  {
   "alignment" : 4,
   "enum_fields" :
   [
    {
     "enum_field_value" : 0,
     "name" : "android::internal::details::HasToStringFunction<std::__1::vector<aidl::android::hardware::security::keymint::Certificate, std::__1::allocator<aidl::android::hardware::security::keymint::Certificate>>>::value"
    }
   ],
   "linker_set_key" : "_ZTIN7android8internal7details19HasToStringFunctionINSt3__16vectorIN4aidl7android8hardware8security7keymint11CertificateENS3_9allocatorISA_EEEEE6$valueE",
   "name" : "android::internal::details::HasToStringFunction<vector<Certificate, allocator<Certificate>>>::(anonymous enum at frameworks/native/libs/binder/ndk/include_cpp/android/binder_to_string.h:89:5)",
   "referenced_type" : "_ZTIN7android8internal7details19HasToStringFunctionINSt3__16vectorIN4aidl7android8hardware8security7keymint11CertificateENS3_9allocatorISA_EEEEE6$valueE",
   "self_type" : "_ZTIN7android8internal7details19HasToStringFunctionINSt3__16vectorIN4aidl7android8hardware8security7keymint11CertificateENS3_9allocatorISA_EEEEE6$valueE",
   "size" : 4,
   "source_file" : "frameworks/native/libs/binder/ndk/include_cpp/android/binder_to_string.h",
   "underlying_type" : "_ZTIj"
  },
  {
   "alignment" : 4,
   "enum_fields" :
   [
    {
     "enum_field_value" : 0,
     "name" : "android::internal::details::HasToStringFunction<std::__1::vector<aidl::android::hardware::security::keymint::KeyParameter, std::__1::allocator<aidl::android::hardware::security::keymint::KeyParameter>>>::value"
    }
   ],
   "linker_set_key" : "_ZTIN7android8internal7details19HasToStringFunctionINSt3__16vectorIN4aidl7android8hardware8security7keymint12KeyParameterENS3_9allocatorISA_EEEEE6$valueE",
   "name" : "android::internal::details::HasToStringFunction<vector<KeyParameter, allocator<KeyParameter>>>::(anonymous enum at frameworks/native/libs/binder/ndk/include_cpp/android/binder_to_string.h:89:5)",
   "referenced_type" : "_ZTIN7android8internal7details19HasToStringFunctionINSt3__16vectorIN4aidl7android8hardware8security7keymint12KeyParameterENS3_9allocatorISA_EEEEE6$valueE",
   "self_type" : "_ZTIN7android8internal7details19HasToStringFunctionINSt3__16vectorIN4aidl7android8hardware8security7keymint12KeyParameterENS3_9allocatorISA_EEEEE6$valueE",
   "size" : 4,
   "source_file" : "frameworks/native/libs/binder/ndk/include_cpp/android/binder_to_string.h",
   "underlying_type" : "_ZTIj"
  },
  {
   "alignment" : 4,
   "enum_fields" :
   [
    {
     "enum_field_value" : 0,
     "name" : "android::internal::details::HasToStringFunction<std::__1::vector<aidl::android::hardware::security::keymint::KeyCharacteristics, std::__1::allocator<aidl::android::hardware::security::keymint::KeyCharacteristics>>>::value"
    }
   ],
   "linker_set_key" : "_ZTIN7android8internal7details19HasToStringFunctionINSt3__16vectorIN4aidl7android8hardware8security7keymint18KeyCharacteristicsENS3_9allocatorISA_EEEEE6$valueE",
   "name" : "android::internal::details::HasToStringFunction<vector<KeyCharacteristics, allocator<KeyCharacteristics>>>::(anonymous enum at frameworks/native/libs/binder/ndk/include_cpp/android/binder_to_string.h:89:5)",
   "referenced_type" : "_ZTIN7android8internal7details19HasToStringFunctionINSt3__16vectorIN4aidl7android8hardware8security7keymint18KeyCharacteristicsENS3_9allocatorISA_EEEEE6$valueE",
   "self_type" : "_ZTIN7android8internal7details19HasToStringFunctionINSt3__16vectorIN4aidl7android8hardware8security7keymint18KeyCharacteristicsENS3_9allocatorISA_EEEEE6$valueE",
   "size" : 4,
   "source_file" : "frameworks/native/libs/binder/ndk/include_cpp/android/binder_to_string.h",
   "underlying_type" : "_ZTIj"
  },
  {
   "alignment" : 4,
   "enum_fields" :
   [
    {
     "enum_field_value" : 0,
     "name" : "android::internal::details::HasToStringFunction<std::__1::vector<unsigned char, std::__1::allocator<unsigned char>>>::value"
    }
   ],
   "linker_set_key" : "_ZTIN7android8internal7details19HasToStringFunctionINSt3__16vectorIhNS3_9allocatorIhEEEEE6$valueE",
   "name" : "android::internal::details::HasToStringFunction<vector<unsigned char, allocator<unsigned char>>>::(anonymous enum at frameworks/native/libs/binder/ndk/include_cpp/android/binder_to_string.h:89:5)",
   "referenced_type" : "_ZTIN7android8internal7details19HasToStringFunctionINSt3__16vectorIhNS3_9allocatorIhEEEEE6$valueE",
   "self_type" : "_ZTIN7android8internal7details19HasToStringFunctionINSt3__16vectorIhNS3_9allocatorIhEEEEE6$valueE",
   "size" : 4,
   "source_file" : "frameworks/native/libs/binder/ndk/include_cpp/android/binder_to_string.h",
   "underlying_type" : "_ZTIj"
  }
 ],
 "function_types" :
 [
  {
   "alignment" : 4,
   "linker_set_key" : "_ZTIFiP8AIBinderjPK7AParcelPS1_E",
   "name" : "int (AIBinder *, unsigned int, const AParcel *, AParcel *)",
   "parameters" :
   [
    {
     "referenced_type" : "_ZTIP8AIBinder"
    },
    {
     "referenced_type" : "_ZTIj"
    },
    {
     "referenced_type" : "_ZTIPK7AParcel"
    },
    {
     "referenced_type" : "_ZTIP7AParcel"
    }
   ],
   "referenced_type" : "_ZTIFiP8AIBinderjPK7AParcelPS1_E",
   "return_type" : "_ZTIi",
   "self_type" : "_ZTIFiP8AIBinderjPK7AParcelPS1_E",
   "source_file" : "frameworks/native/libs/binder/ndk/include_cpp/android/binder_interface_utils.h"
  }
 ],
 "functions" :
 [
  {
   "function_name" : "ndk::BnCInterface<aidl::android::hardware::security::keymint::IKeyMintDevice>::asBinder",
   "linker_set_key" : "_ZN3ndk12BnCInterfaceIN4aidl7android8hardware8security7keymint14IKeyMintDeviceEE8asBinderEv",
   "parameters" :
   [
    {
     "is_this_ptr" : true,
     "referenced_type" : "_ZTIPN3ndk12BnCInterfaceIN4aidl7android8hardware8security7keymint14IKeyMintDeviceEEE"
    }
   ],
   "return_type" : "_ZTIN3ndk10SpAIBinderE",
   "source_file" : "frameworks/native/libs/binder/ndk/include_cpp/android/binder_interface_utils.h"
  },
  {
   "function_name" : "ndk::BnCInterface<aidl::android::hardware::security::keymint::IKeyMintOperation>::asBinder",
   "linker_set_key" : "_ZN3ndk12BnCInterfaceIN4aidl7android8hardware8security7keymint17IKeyMintOperationEE8asBinderEv",
   "parameters" :
   [
    {
     "is_this_ptr" : true,
     "referenced_type" : "_ZTIPN3ndk12BnCInterfaceIN4aidl7android8hardware8security7keymint17IKeyMintOperationEEE"
    }
   ],
   "return_type" : "_ZTIN3ndk10SpAIBinderE",
   "source_file" : "frameworks/native/libs/binder/ndk/include_cpp/android/binder_interface_utils.h"
  },
  {
   "function_name" : "ndk::BnCInterface<aidl::android::hardware::security::keymint::IRemotelyProvisionedComponent>::asBinder",
   "linker_set_key" : "_ZN3ndk12BnCInterfaceIN4aidl7android8hardware8security7keymint29IRemotelyProvisionedComponentEE8asBinderEv",
   "parameters" :
   [
    {
     "is_this_ptr" : true,
     "referenced_type" : "_ZTIPN3ndk12BnCInterfaceIN4aidl7android8hardware8security7keymint29IRemotelyProvisionedComponentEEE"
    }
   ],
   "return_type" : "_ZTIN3ndk10SpAIBinderE",
   "source_file" : "frameworks/native/libs/binder/ndk/include_cpp/android/binder_interface_utils.h"
  },
  {
   "function_name" : "ndk::BpCInterface<aidl::android::hardware::security::keymint::IKeyMintDevice>::asBinder",
   "linker_set_key" : "_ZN3ndk12BpCInterfaceIN4aidl7android8hardware8security7keymint14IKeyMintDeviceEE8asBinderEv",
   "parameters" :
   [
    {
     "is_this_ptr" : true,
     "referenced_type" : "_ZTIPN3ndk12BpCInterfaceIN4aidl7android8hardware8security7keymint14IKeyMintDeviceEEE"
    }
   ],
   "return_type" : "_ZTIN3ndk10SpAIBinderE",
   "source_file" : "frameworks/native/libs/binder/ndk/include_cpp/android/binder_interface_utils.h"
  },
  {
   "function_name" : "ndk::BpCInterface<aidl::android::hardware::security::keymint::IKeyMintOperation>::asBinder",
   "linker_set_key" : "_ZN3ndk12BpCInterfaceIN4aidl7android8hardware8security7keymint17IKeyMintOperationEE8asBinderEv",
   "parameters" :
   [
    {
     "is_this_ptr" : true,
     "referenced_type" : "_ZTIPN3ndk12BpCInterfaceIN4aidl7android8hardware8security7keymint17IKeyMintOperationEEE"
    }
   ],
   "return_type" : "_ZTIN3ndk10SpAIBinderE",
   "source_file" : "frameworks/native/libs/binder/ndk/include_cpp/android/binder_interface_utils.h"
  },
  {
   "function_name" : "ndk::BpCInterface<aidl::android::hardware::security::keymint::IRemotelyProvisionedComponent>::asBinder",
   "linker_set_key" : "_ZN3ndk12BpCInterfaceIN4aidl7android8hardware8security7keymint29IRemotelyProvisionedComponentEE8asBinderEv",
   "parameters" :
   [
    {
     "is_this_ptr" : true,
     "referenced_type" : "_ZTIPN3ndk12BpCInterfaceIN4aidl7android8hardware8security7keymint29IRemotelyProvisionedComponentEEE"
    }
   ],
   "return_type" : "_ZTIN3ndk10SpAIBinderE",
   "source_file" : "frameworks/native/libs/binder/ndk/include_cpp/android/binder_interface_utils.h"
  },
  {
   "function_name" : "ndk::AParcel_readStdVectorParcelableElement",
   "linker_set_key" : "_ZN3ndk38AParcel_readStdVectorParcelableElementIN4aidl7android8hardware8security7keymint11CertificateEEEiPK7AParcelPvm",
   "parameters" :
   [
    {
     "referenced_type" : "_ZTIPK7AParcel"
    },
    {
     "referenced_type" : "_ZTIPv"
    },
    {
     "referenced_type" : "_ZTIm"
    }
   ],
   "return_type" : "_ZTIi",
   "source_file" : "frameworks/native/libs/binder/ndk/include_cpp/android/binder_parcel_utils.h",
   "template_args" : [ "_ZTIN4aidl7android8hardware8security7keymint11CertificateE" ]
  },
  {
   "function_name" : "ndk::AParcel_readStdVectorParcelableElement",
   "linker_set_key" : "_ZN3ndk38AParcel_readStdVectorParcelableElementIN4aidl7android8hardware8security7keymint12KeyParameterEEEiPK7AParcelPvm",
   "parameters" :
   [
    {
     "referenced_type" : "_ZTIPK7AParcel"
    },
    {
     "referenced_type" : "_ZTIPv"
    },
    {
     "referenced_type" : "_ZTIm"
    }
   ],
   "return_type" : "_ZTIi",
   "source_file" : "frameworks/native/libs/binder/ndk/include_cpp/android/binder_parcel_utils.h",
   "template_args" : [ "_ZTIN4aidl7android8hardware8security7keymint12KeyParameterE" ]
  },
  {
   "function_name" : "ndk::AParcel_readStdVectorParcelableElement",
   "linker_set_key" : "_ZN3ndk38AParcel_readStdVectorParcelableElementIN4aidl7android8hardware8security7keymint14MacedPublicKeyEEEiPK7AParcelPvm",
   "parameters" :
   [
    {
     "referenced_type" : "_ZTIPK7AParcel"
    },
    {
     "referenced_type" : "_ZTIPv"
    },
    {
     "referenced_type" : "_ZTIm"
    }
   ],
   "return_type" : "_ZTIi",
   "source_file" : "frameworks/native/libs/binder/ndk/include_cpp/android/binder_parcel_utils.h",
   "template_args" : [ "_ZTIN4aidl7android8hardware8security7keymint14MacedPublicKeyE" ]
  },
  {
   "function_name" : "ndk::AParcel_readStdVectorParcelableElement",
   "linker_set_key" : "_ZN3ndk38AParcel_readStdVectorParcelableElementIN4aidl7android8hardware8security7keymint18KeyCharacteristicsEEEiPK7AParcelPvm",
   "parameters" :
   [
    {
     "referenced_type" : "_ZTIPK7AParcel"
    },
    {
     "referenced_type" : "_ZTIPv"
    },
    {
     "referenced_type" : "_ZTIm"
    }
   ],
   "return_type" : "_ZTIi",
   "source_file" : "frameworks/native/libs/binder/ndk/include_cpp/android/binder_parcel_utils.h",
   "template_args" : [ "_ZTIN4aidl7android8hardware8security7keymint18KeyCharacteristicsE" ]
  },
  {
   "function_name" : "ndk::AParcel_writeStdVectorParcelableElement",
   "linker_set_key" : "_ZN3ndk39AParcel_writeStdVectorParcelableElementIN4aidl7android8hardware8security7keymint11CertificateEEEiP7AParcelPKvm",
   "parameters" :
   [
    {
     "referenced_type" : "_ZTIP7AParcel"
    },
    {
     "referenced_type" : "_ZTIPKv"
    },
    {
     "referenced_type" : "_ZTIm"
    }
   ],
   "return_type" : "_ZTIi",
   "source_file" : "frameworks/native/libs/binder/ndk/include_cpp/android/binder_parcel_utils.h",
   "template_args" : [ "_ZTIN4aidl7android8hardware8security7keymint11CertificateE" ]
  },
  {
   "function_name" : "ndk::AParcel_writeStdVectorParcelableElement",
   "linker_set_key" : "_ZN3ndk39AParcel_writeStdVectorParcelableElementIN4aidl7android8hardware8security7keymint12KeyParameterEEEiP7AParcelPKvm",
   "parameters" :
   [
    {
     "referenced_type" : "_ZTIP7AParcel"
    },
    {
     "referenced_type" : "_ZTIPKv"
    },
    {
     "referenced_type" : "_ZTIm"
    }
   ],
   "return_type" : "_ZTIi",
   "source_file" : "frameworks/native/libs/binder/ndk/include_cpp/android/binder_parcel_utils.h",
   "template_args" : [ "_ZTIN4aidl7android8hardware8security7keymint12KeyParameterE" ]
  },
  {
   "function_name" : "ndk::AParcel_writeStdVectorParcelableElement",
   "linker_set_key" : "_ZN3ndk39AParcel_writeStdVectorParcelableElementIN4aidl7android8hardware8security7keymint14MacedPublicKeyEEEiP7AParcelPKvm",
   "parameters" :
   [
    {
     "referenced_type" : "_ZTIP7AParcel"
    },
    {
     "referenced_type" : "_ZTIPKv"
    },
    {
     "referenced_type" : "_ZTIm"
    }
   ],
   "return_type" : "_ZTIi",
   "source_file" : "frameworks/native/libs/binder/ndk/include_cpp/android/binder_parcel_utils.h",
   "template_args" : [ "_ZTIN4aidl7android8hardware8security7keymint14MacedPublicKeyE" ]
  },
  {
   "function_name" : "ndk::AParcel_writeStdVectorParcelableElement",
   "linker_set_key" : "_ZN3ndk39AParcel_writeStdVectorParcelableElementIN4aidl7android8hardware8security7keymint18KeyCharacteristicsEEEiP7AParcelPKvm",
   "parameters" :
   [
    {
     "referenced_type" : "_ZTIP7AParcel"
    },
    {
     "referenced_type" : "_ZTIPKv"
    },
    {
     "referenced_type" : "_ZTIm"
    }
   ],
   "return_type" : "_ZTIi",
   "source_file" : "frameworks/native/libs/binder/ndk/include_cpp/android/binder_parcel_utils.h",
   "template_args" : [ "_ZTIN4aidl7android8hardware8security7keymint18KeyCharacteristicsE" ]
  },
  {
   "function_name" : "aidl::android::hardware::security::keymint::DeviceInfo::readFromParcel",
   "linker_set_key" : "_ZN4aidl7android8hardware8security7keymint10DeviceInfo14readFromParcelEPK7AParcel",
   "parameters" :
   [
    {
     "is_this_ptr" : true,
     "referenced_type" : "_ZTIPN4aidl7android8hardware8security7keymint10DeviceInfoE"
    },
    {
     "referenced_type" : "_ZTIPK7AParcel"
    }
   ],
   "return_type" : "_ZTIi",
   "source_file" : "out/soong/.intermediates/hardware/interfaces/security/keymint/aidl/android.hardware.security.keymint-V1-ndk_platform-source/gen/include/aidl/android/hardware/security/keymint/DeviceInfo.h"
  },
  {
   "function_name" : "aidl::android::hardware::security::keymint::BeginResult::readFromParcel",
   "linker_set_key" : "_ZN4aidl7android8hardware8security7keymint11BeginResult14readFromParcelEPK7AParcel",
   "parameters" :
   [
    {
     "is_this_ptr" : true,
     "referenced_type" : "_ZTIPN4aidl7android8hardware8security7keymint11BeginResultE"
    },
    {
     "referenced_type" : "_ZTIPK7AParcel"
    }
   ],
   "return_type" : "_ZTIi",
   "source_file" : "out/soong/.intermediates/hardware/interfaces/security/keymint/aidl/android.hardware.security.keymint-V1-ndk_platform-source/gen/include/aidl/android/hardware/security/keymint/BeginResult.h"
  },
  {
   "function_name" : "aidl::android::hardware::security::keymint::Certificate::readFromParcel",
   "linker_set_key" : "_ZN4aidl7android8hardware8security7keymint11Certificate14readFromParcelEPK7AParcel",
   "parameters" :
   [
    {
     "is_this_ptr" : true,
     "referenced_type" : "_ZTIPN4aidl7android8hardware8security7keymint11CertificateE"
    },
    {
     "referenced_type" : "_ZTIPK7AParcel"
    }
   ],
   "return_type" : "_ZTIi",
   "source_file" : "out/soong/.intermediates/hardware/interfaces/security/keymint/aidl/android.hardware.security.keymint-V1-ndk_platform-source/gen/include/aidl/android/hardware/security/keymint/Certificate.h"
  },
  {
   "function_name" : "aidl::android::hardware::security::keymint::KeyParameter::readFromParcel",
   "linker_set_key" : "_ZN4aidl7android8hardware8security7keymint12KeyParameter14readFromParcelEPK7AParcel",
   "parameters" :
   [
    {
     "is_this_ptr" : true,
     "referenced_type" : "_ZTIPN4aidl7android8hardware8security7keymint12KeyParameterE"
    },
    {
     "referenced_type" : "_ZTIPK7AParcel"
    }
   ],
   "return_type" : "_ZTIi",
   "source_file" : "out/soong/.intermediates/hardware/interfaces/security/keymint/aidl/android.hardware.security.keymint-V1-ndk_platform-source/gen/include/aidl/android/hardware/security/keymint/KeyParameter.h"
  },
  {
   "function_name" : "aidl::android::hardware::security::keymint::ProtectedData::readFromParcel",
   "linker_set_key" : "_ZN4aidl7android8hardware8security7keymint13ProtectedData14readFromParcelEPK7AParcel",
   "parameters" :
   [
    {
     "is_this_ptr" : true,
     "referenced_type" : "_ZTIPN4aidl7android8hardware8security7keymint13ProtectedDataE"
    },
    {
     "referenced_type" : "_ZTIPK7AParcel"
    }
   ],
   "return_type" : "_ZTIi",
   "source_file" : "out/soong/.intermediates/hardware/interfaces/security/keymint/aidl/android.hardware.security.keymint-V1-ndk_platform-source/gen/include/aidl/android/hardware/security/keymint/ProtectedData.h"
  },
  {
   "function_name" : "aidl::android::hardware::security::keymint::AttestationKey::readFromParcel",
   "linker_set_key" : "_ZN4aidl7android8hardware8security7keymint14AttestationKey14readFromParcelEPK7AParcel",
   "parameters" :
   [
    {
     "is_this_ptr" : true,
     "referenced_type" : "_ZTIPN4aidl7android8hardware8security7keymint14AttestationKeyE"
    },
    {
     "referenced_type" : "_ZTIPK7AParcel"
    }
   ],
   "return_type" : "_ZTIi",
   "source_file" : "out/soong/.intermediates/hardware/interfaces/security/keymint/aidl/android.hardware.security.keymint-V1-ndk_platform-source/gen/include/aidl/android/hardware/security/keymint/AttestationKey.h"
  },
  {
   "function_name" : "aidl::android::hardware::security::keymint::IKeyMintDevice::fromBinder",
   "linker_set_key" : "_ZN4aidl7android8hardware8security7keymint14IKeyMintDevice10fromBinderERKN3ndk10SpAIBinderE",
   "parameters" :
   [
    {
     "referenced_type" : "_ZTIRKN3ndk10SpAIBinderE"
    }
   ],
   "return_type" : "_ZTINSt3__110shared_ptrIN4aidl7android8hardware8security7keymint14IKeyMintDeviceEEE",
   "source_file" : "out/soong/.intermediates/hardware/interfaces/security/keymint/aidl/android.hardware.security.keymint-V1-ndk_platform-source/gen/include/aidl/android/hardware/security/keymint/IKeyMintDevice.h"
  },
  {
   "function_name" : "aidl::android::hardware::security::keymint::IKeyMintDevice::writeToParcel",
   "linker_set_key" : "_ZN4aidl7android8hardware8security7keymint14IKeyMintDevice13writeToParcelEP7AParcelRKNSt3__110shared_ptrIS4_EE",
   "parameters" :
   [
    {
     "referenced_type" : "_ZTIP7AParcel"
    },
    {
     "referenced_type" : "_ZTIRKNSt3__110shared_ptrIN4aidl7android8hardware8security7keymint14IKeyMintDeviceEEE"
    }
   ],
   "return_type" : "_ZTIi",
   "source_file" : "out/soong/.intermediates/hardware/interfaces/security/keymint/aidl/android.hardware.security.keymint-V1-ndk_platform-source/gen/include/aidl/android/hardware/security/keymint/IKeyMintDevice.h"
  },
  {
   "function_name" : "aidl::android::hardware::security::keymint::IKeyMintDevice::getDefaultImpl",
   "linker_set_key" : "_ZN4aidl7android8hardware8security7keymint14IKeyMintDevice14getDefaultImplEv",
   "return_type" : "_ZTIRKNSt3__110shared_ptrIN4aidl7android8hardware8security7keymint14IKeyMintDeviceEEE",
   "source_file" : "out/soong/.intermediates/hardware/interfaces/security/keymint/aidl/android.hardware.security.keymint-V1-ndk_platform-source/gen/include/aidl/android/hardware/security/keymint/IKeyMintDevice.h"
  },
  {
   "function_name" : "aidl::android::hardware::security::keymint::IKeyMintDevice::readFromParcel",
   "linker_set_key" : "_ZN4aidl7android8hardware8security7keymint14IKeyMintDevice14readFromParcelEPK7AParcelPNSt3__110shared_ptrIS4_EE",
   "parameters" :
   [
    {
     "referenced_type" : "_ZTIPK7AParcel"
    },
    {
     "referenced_type" : "_ZTIPNSt3__110shared_ptrIN4aidl7android8hardware8security7keymint14IKeyMintDeviceEEE"
    }
   ],
   "return_type" : "_ZTIi",
   "source_file" : "out/soong/.intermediates/hardware/interfaces/security/keymint/aidl/android.hardware.security.keymint-V1-ndk_platform-source/gen/include/aidl/android/hardware/security/keymint/IKeyMintDevice.h"
  },
  {
   "function_name" : "aidl::android::hardware::security::keymint::IKeyMintDevice::setDefaultImpl",
   "linker_set_key" : "_ZN4aidl7android8hardware8security7keymint14IKeyMintDevice14setDefaultImplERKNSt3__110shared_ptrIS4_EE",
   "parameters" :
   [
    {
     "referenced_type" : "_ZTIRKNSt3__110shared_ptrIN4aidl7android8hardware8security7keymint14IKeyMintDeviceEEE"
    }
   ],
   "return_type" : "_ZTIb",
   "source_file" : "out/soong/.intermediates/hardware/interfaces/security/keymint/aidl/android.hardware.security.keymint-V1-ndk_platform-source/gen/include/aidl/android/hardware/security/keymint/IKeyMintDevice.h"
  },
  {
   "function_name" : "aidl::android::hardware::security::keymint::IKeyMintDevice::IKeyMintDevice",
   "linker_set_key" : "_ZN4aidl7android8hardware8security7keymint14IKeyMintDeviceC2Ev",
   "parameters" :
   [
    {
     "is_this_ptr" : true,
     "referenced_type" : "_ZTIPN4aidl7android8hardware8security7keymint14IKeyMintDeviceE"
    }
   ],
   "return_type" : "_ZTIv",
   "source_file" : "out/soong/.intermediates/hardware/interfaces/security/keymint/aidl/android.hardware.security.keymint-V1-ndk_platform-source/gen/include/aidl/android/hardware/security/keymint/IKeyMintDevice.h"
  },
  {
   "function_name" : "aidl::android::hardware::security::keymint::IKeyMintDevice::~IKeyMintDevice",
   "linker_set_key" : "_ZN4aidl7android8hardware8security7keymint14IKeyMintDeviceD0Ev",
   "parameters" :
   [
    {
     "is_this_ptr" : true,
     "referenced_type" : "_ZTIPN4aidl7android8hardware8security7keymint14IKeyMintDeviceE"
    }
   ],
   "return_type" : "_ZTIv",
   "source_file" : "out/soong/.intermediates/hardware/interfaces/security/keymint/aidl/android.hardware.security.keymint-V1-ndk_platform-source/gen/include/aidl/android/hardware/security/keymint/IKeyMintDevice.h"
  },
  {
   "function_name" : "aidl::android::hardware::security::keymint::IKeyMintDevice::~IKeyMintDevice",
   "linker_set_key" : "_ZN4aidl7android8hardware8security7keymint14IKeyMintDeviceD1Ev",
   "parameters" :
   [
    {
     "is_this_ptr" : true,
     "referenced_type" : "_ZTIPN4aidl7android8hardware8security7keymint14IKeyMintDeviceE"
    }
   ],
   "return_type" : "_ZTIv",
   "source_file" : "out/soong/.intermediates/hardware/interfaces/security/keymint/aidl/android.hardware.security.keymint-V1-ndk_platform-source/gen/include/aidl/android/hardware/security/keymint/IKeyMintDevice.h"
  },
  {
   "function_name" : "aidl::android::hardware::security::keymint::IKeyMintDevice::~IKeyMintDevice",
   "linker_set_key" : "_ZN4aidl7android8hardware8security7keymint14IKeyMintDeviceD2Ev",
   "parameters" :
   [
    {
     "is_this_ptr" : true,
     "referenced_type" : "_ZTIPN4aidl7android8hardware8security7keymint14IKeyMintDeviceE"
    }
   ],
   "return_type" : "_ZTIv",
   "source_file" : "out/soong/.intermediates/hardware/interfaces/security/keymint/aidl/android.hardware.security.keymint-V1-ndk_platform-source/gen/include/aidl/android/hardware/security/keymint/IKeyMintDevice.h"
  },
  {
   "function_name" : "aidl::android::hardware::security::keymint::MacedPublicKey::readFromParcel",
   "linker_set_key" : "_ZN4aidl7android8hardware8security7keymint14MacedPublicKey14readFromParcelEPK7AParcel",
   "parameters" :
   [
    {
     "is_this_ptr" : true,
     "referenced_type" : "_ZTIPN4aidl7android8hardware8security7keymint14MacedPublicKeyE"
    },
    {
     "referenced_type" : "_ZTIPK7AParcel"
    }
   ],
   "return_type" : "_ZTIi",
   "source_file" : "out/soong/.intermediates/hardware/interfaces/security/keymint/aidl/android.hardware.security.keymint-V1-ndk_platform-source/gen/include/aidl/android/hardware/security/keymint/MacedPublicKey.h"
  },
  {
   "access" : "protected",
   "function_name" : "aidl::android::hardware::security::keymint::BnKeyMintDevice::createBinder",
   "linker_set_key" : "_ZN4aidl7android8hardware8security7keymint15BnKeyMintDevice12createBinderEv",
   "parameters" :
   [
    {
     "is_this_ptr" : true,
     "referenced_type" : "_ZTIPN4aidl7android8hardware8security7keymint15BnKeyMintDeviceE"
    }
   ],
   "return_type" : "_ZTIN3ndk10SpAIBinderE",
   "source_file" : "out/soong/.intermediates/hardware/interfaces/security/keymint/aidl/android.hardware.security.keymint-V1-ndk_platform-source/gen/include/aidl/android/hardware/security/keymint/BnKeyMintDevice.h"
  },
  {
   "function_name" : "aidl::android::hardware::security::keymint::BnKeyMintDevice::getInterfaceHash",
   "linker_set_key" : "_ZN4aidl7android8hardware8security7keymint15BnKeyMintDevice16getInterfaceHashEPNSt3__112basic_stringIcNS5_11char_traitsIcEENS5_9allocatorIcEEEE",
   "parameters" :
   [
    {
     "is_this_ptr" : true,
     "referenced_type" : "_ZTIPN4aidl7android8hardware8security7keymint15BnKeyMintDeviceE"
    },
    {
     "referenced_type" : "_ZTIPNSt3__112basic_stringIcNS_11char_traitsIcEENS_9allocatorIcEEEE"
    }
   ],
   "return_type" : "_ZTIN3ndk13ScopedAStatusE",
   "source_file" : "out/soong/.intermediates/hardware/interfaces/security/keymint/aidl/android.hardware.security.keymint-V1-ndk_platform-source/gen/include/aidl/android/hardware/security/keymint/BnKeyMintDevice.h"
  },
  {
   "function_name" : "aidl::android::hardware::security::keymint::BnKeyMintDevice::getInterfaceVersion",
   "linker_set_key" : "_ZN4aidl7android8hardware8security7keymint15BnKeyMintDevice19getInterfaceVersionEPi",
   "parameters" :
   [
    {
     "is_this_ptr" : true,
     "referenced_type" : "_ZTIPN4aidl7android8hardware8security7keymint15BnKeyMintDeviceE"
    },
    {
     "referenced_type" : "_ZTIPi"
    }
   ],
   "return_type" : "_ZTIN3ndk13ScopedAStatusE",
   "source_file" : "out/soong/.intermediates/hardware/interfaces/security/keymint/aidl/android.hardware.security.keymint-V1-ndk_platform-source/gen/include/aidl/android/hardware/security/keymint/BnKeyMintDevice.h"
  },
  {
   "function_name" : "aidl::android::hardware::security::keymint::BnKeyMintDevice::BnKeyMintDevice",
   "linker_set_key" : "_ZN4aidl7android8hardware8security7keymint15BnKeyMintDeviceC2Ev",
   "parameters" :
   [
    {
     "is_this_ptr" : true,
     "referenced_type" : "_ZTIPN4aidl7android8hardware8security7keymint15BnKeyMintDeviceE"
    }
   ],
   "return_type" : "_ZTIv",
   "source_file" : "out/soong/.intermediates/hardware/interfaces/security/keymint/aidl/android.hardware.security.keymint-V1-ndk_platform-source/gen/include/aidl/android/hardware/security/keymint/BnKeyMintDevice.h"
  },
  {
   "function_name" : "aidl::android::hardware::security::keymint::BnKeyMintDevice::~BnKeyMintDevice",
   "linker_set_key" : "_ZN4aidl7android8hardware8security7keymint15BnKeyMintDeviceD0Ev",
   "parameters" :
   [
    {
     "is_this_ptr" : true,
     "referenced_type" : "_ZTIPN4aidl7android8hardware8security7keymint15BnKeyMintDeviceE"
    }
   ],
   "return_type" : "_ZTIv",
   "source_file" : "out/soong/.intermediates/hardware/interfaces/security/keymint/aidl/android.hardware.security.keymint-V1-ndk_platform-source/gen/include/aidl/android/hardware/security/keymint/BnKeyMintDevice.h"
  },
  {
   "function_name" : "aidl::android::hardware::security::keymint::BnKeyMintDevice::~BnKeyMintDevice",
   "linker_set_key" : "_ZN4aidl7android8hardware8security7keymint15BnKeyMintDeviceD1Ev",
   "parameters" :
   [
    {
     "is_this_ptr" : true,
     "referenced_type" : "_ZTIPN4aidl7android8hardware8security7keymint15BnKeyMintDeviceE"
    }
   ],
   "return_type" : "_ZTIv",
   "source_file" : "out/soong/.intermediates/hardware/interfaces/security/keymint/aidl/android.hardware.security.keymint-V1-ndk_platform-source/gen/include/aidl/android/hardware/security/keymint/BnKeyMintDevice.h"
  },
  {
   "function_name" : "aidl::android::hardware::security::keymint::BnKeyMintDevice::~BnKeyMintDevice",
   "linker_set_key" : "_ZN4aidl7android8hardware8security7keymint15BnKeyMintDeviceD2Ev",
   "parameters" :
   [
    {
     "is_this_ptr" : true,
     "referenced_type" : "_ZTIPN4aidl7android8hardware8security7keymint15BnKeyMintDeviceE"
    }
   ],
   "return_type" : "_ZTIv",
   "source_file" : "out/soong/.intermediates/hardware/interfaces/security/keymint/aidl/android.hardware.security.keymint-V1-ndk_platform-source/gen/include/aidl/android/hardware/security/keymint/BnKeyMintDevice.h"
  },
  {
   "function_name" : "aidl::android::hardware::security::keymint::BpKeyMintDevice::upgradeKey",
   "linker_set_key" : "_ZN4aidl7android8hardware8security7keymint15BpKeyMintDevice10upgradeKeyERKNSt3__16vectorIhNS5_9allocatorIhEEEERKNS6_INS3_12KeyParameterENS7_ISC_EEEEPS9_",
   "parameters" :
   [
    {
     "is_this_ptr" : true,
     "referenced_type" : "_ZTIPN4aidl7android8hardware8security7keymint15BpKeyMintDeviceE"
    },
    {
     "referenced_type" : "_ZTIRKNSt3__16vectorIhNS_9allocatorIhEEEE"
    },
    {
     "referenced_type" : "_ZTIRKNSt3__16vectorIN4aidl7android8hardware8security7keymint12KeyParameterENS_9allocatorIS6_EEEE"
    },
    {
     "referenced_type" : "_ZTIPNSt3__16vectorIhNS_9allocatorIhEEEE"
    }
   ],
   "return_type" : "_ZTIN3ndk13ScopedAStatusE",
   "source_file" : "out/soong/.intermediates/hardware/interfaces/security/keymint/aidl/android.hardware.security.keymint-V1-ndk_platform-source/gen/include/aidl/android/hardware/security/keymint/BpKeyMintDevice.h"
  },
  {
   "function_name" : "aidl::android::hardware::security::keymint::BpKeyMintDevice::generateKey",
   "linker_set_key" : "_ZN4aidl7android8hardware8security7keymint15BpKeyMintDevice11generateKeyERKNSt3__16vectorINS3_12KeyParameterENS5_9allocatorIS7_EEEERKNS5_8optionalINS3_14AttestationKeyEEEPNS3_17KeyCreationResultE",
   "parameters" :
   [
    {
     "is_this_ptr" : true,
     "referenced_type" : "_ZTIPN4aidl7android8hardware8security7keymint15BpKeyMintDeviceE"
    },
    {
     "referenced_type" : "_ZTIRKNSt3__16vectorIN4aidl7android8hardware8security7keymint12KeyParameterENS_9allocatorIS6_EEEE"
    },
    {
     "referenced_type" : "_ZTIRKNSt3__18optionalIN4aidl7android8hardware8security7keymint14AttestationKeyEEE"
    },
    {
     "referenced_type" : "_ZTIPN4aidl7android8hardware8security7keymint17KeyCreationResultE"
    }
   ],
   "return_type" : "_ZTIN3ndk13ScopedAStatusE",
   "source_file" : "out/soong/.intermediates/hardware/interfaces/security/keymint/aidl/android.hardware.security.keymint-V1-ndk_platform-source/gen/include/aidl/android/hardware/security/keymint/BpKeyMintDevice.h"
  },
  {
   "function_name" : "aidl::android::hardware::security::keymint::BpKeyMintDevice::deviceLocked",
   "linker_set_key" : "_ZN4aidl7android8hardware8security7keymint15BpKeyMintDevice12deviceLockedEbRKNSt3__18optionalINS2_11secureclock14TimeStampTokenEEE",
   "parameters" :
   [
    {
     "is_this_ptr" : true,
     "referenced_type" : "_ZTIPN4aidl7android8hardware8security7keymint15BpKeyMintDeviceE"
    },
    {
     "referenced_type" : "_ZTIb"
    },
    {
     "referenced_type" : "_ZTIRKNSt3__18optionalIN4aidl7android8hardware8security11secureclock14TimeStampTokenEEE"
    }
   ],
   "return_type" : "_ZTIN3ndk13ScopedAStatusE",
   "source_file" : "out/soong/.intermediates/hardware/interfaces/security/keymint/aidl/android.hardware.security.keymint-V1-ndk_platform-source/gen/include/aidl/android/hardware/security/keymint/BpKeyMintDevice.h"
  },
  {
   "function_name" : "aidl::android::hardware::security::keymint::BpKeyMintDevice::addRngEntropy",
   "linker_set_key" : "_ZN4aidl7android8hardware8security7keymint15BpKeyMintDevice13addRngEntropyERKNSt3__16vectorIhNS5_9allocatorIhEEEE",
   "parameters" :
   [
    {
     "is_this_ptr" : true,
     "referenced_type" : "_ZTIPN4aidl7android8hardware8security7keymint15BpKeyMintDeviceE"
    },
    {
     "referenced_type" : "_ZTIRKNSt3__16vectorIhNS_9allocatorIhEEEE"
    }
   ],
   "return_type" : "_ZTIN3ndk13ScopedAStatusE",
   "source_file" : "out/soong/.intermediates/hardware/interfaces/security/keymint/aidl/android.hardware.security.keymint-V1-ndk_platform-source/gen/include/aidl/android/hardware/security/keymint/BpKeyMintDevice.h"
  },
  {
   "function_name" : "aidl::android::hardware::security::keymint::BpKeyMintDevice::deleteAllKeys",
   "linker_set_key" : "_ZN4aidl7android8hardware8security7keymint15BpKeyMintDevice13deleteAllKeysEv",
   "parameters" :
   [
    {
     "is_this_ptr" : true,
     "referenced_type" : "_ZTIPN4aidl7android8hardware8security7keymint15BpKeyMintDeviceE"
    }
   ],
   "return_type" : "_ZTIN3ndk13ScopedAStatusE",
   "source_file" : "out/soong/.intermediates/hardware/interfaces/security/keymint/aidl/android.hardware.security.keymint-V1-ndk_platform-source/gen/include/aidl/android/hardware/security/keymint/BpKeyMintDevice.h"
  },
  {
   "function_name" : "aidl::android::hardware::security::keymint::BpKeyMintDevice::earlyBootEnded",
   "linker_set_key" : "_ZN4aidl7android8hardware8security7keymint15BpKeyMintDevice14earlyBootEndedEv",
   "parameters" :
   [
    {
     "is_this_ptr" : true,
     "referenced_type" : "_ZTIPN4aidl7android8hardware8security7keymint15BpKeyMintDeviceE"
    }
   ],
   "return_type" : "_ZTIN3ndk13ScopedAStatusE",
   "source_file" : "out/soong/.intermediates/hardware/interfaces/security/keymint/aidl/android.hardware.security.keymint-V1-ndk_platform-source/gen/include/aidl/android/hardware/security/keymint/BpKeyMintDevice.h"
  },
  {
   "function_name" : "aidl::android::hardware::security::keymint::BpKeyMintDevice::getHardwareInfo",
   "linker_set_key" : "_ZN4aidl7android8hardware8security7keymint15BpKeyMintDevice15getHardwareInfoEPNS3_19KeyMintHardwareInfoE",
   "parameters" :
   [
    {
     "is_this_ptr" : true,
     "referenced_type" : "_ZTIPN4aidl7android8hardware8security7keymint15BpKeyMintDeviceE"
    },
    {
     "referenced_type" : "_ZTIPN4aidl7android8hardware8security7keymint19KeyMintHardwareInfoE"
    }
   ],
   "return_type" : "_ZTIN3ndk13ScopedAStatusE",
   "source_file" : "out/soong/.intermediates/hardware/interfaces/security/keymint/aidl/android.hardware.security.keymint-V1-ndk_platform-source/gen/include/aidl/android/hardware/security/keymint/BpKeyMintDevice.h"
  },
  {
   "function_name" : "aidl::android::hardware::security::keymint::BpKeyMintDevice::getInterfaceHash",
   "linker_set_key" : "_ZN4aidl7android8hardware8security7keymint15BpKeyMintDevice16getInterfaceHashEPNSt3__112basic_stringIcNS5_11char_traitsIcEENS5_9allocatorIcEEEE",
   "parameters" :
   [
    {
     "is_this_ptr" : true,
     "referenced_type" : "_ZTIPN4aidl7android8hardware8security7keymint15BpKeyMintDeviceE"
    },
    {
     "referenced_type" : "_ZTIPNSt3__112basic_stringIcNS_11char_traitsIcEENS_9allocatorIcEEEE"
    }
   ],
   "return_type" : "_ZTIN3ndk13ScopedAStatusE",
   "source_file" : "out/soong/.intermediates/hardware/interfaces/security/keymint/aidl/android.hardware.security.keymint-V1-ndk_platform-source/gen/include/aidl/android/hardware/security/keymint/BpKeyMintDevice.h"
  },
  {
   "function_name" : "aidl::android::hardware::security::keymint::BpKeyMintDevice::importWrappedKey",
   "linker_set_key" : "_ZN4aidl7android8hardware8security7keymint15BpKeyMintDevice16importWrappedKeyERKNSt3__16vectorIhNS5_9allocatorIhEEEESB_SB_RKNS6_INS3_12KeyParameterENS7_ISC_EEEEllPNS3_17KeyCreationResultE",
   "parameters" :
   [
    {
     "is_this_ptr" : true,
     "referenced_type" : "_ZTIPN4aidl7android8hardware8security7keymint15BpKeyMintDeviceE"
    },
    {
     "referenced_type" : "_ZTIRKNSt3__16vectorIhNS_9allocatorIhEEEE"
    },
    {
     "referenced_type" : "_ZTIRKNSt3__16vectorIhNS_9allocatorIhEEEE"
    },
    {
     "referenced_type" : "_ZTIRKNSt3__16vectorIhNS_9allocatorIhEEEE"
    },
    {
     "referenced_type" : "_ZTIRKNSt3__16vectorIN4aidl7android8hardware8security7keymint12KeyParameterENS_9allocatorIS6_EEEE"
    },
    {
     "referenced_type" : "_ZTIl"
    },
    {
     "referenced_type" : "_ZTIl"
    },
    {
     "referenced_type" : "_ZTIPN4aidl7android8hardware8security7keymint17KeyCreationResultE"
    }
   ],
   "return_type" : "_ZTIN3ndk13ScopedAStatusE",
   "source_file" : "out/soong/.intermediates/hardware/interfaces/security/keymint/aidl/android.hardware.security.keymint-V1-ndk_platform-source/gen/include/aidl/android/hardware/security/keymint/BpKeyMintDevice.h"
  },
  {
   "function_name" : "aidl::android::hardware::security::keymint::BpKeyMintDevice::getInterfaceVersion",
   "linker_set_key" : "_ZN4aidl7android8hardware8security7keymint15BpKeyMintDevice19getInterfaceVersionEPi",
   "parameters" :
   [
    {
     "is_this_ptr" : true,
     "referenced_type" : "_ZTIPN4aidl7android8hardware8security7keymint15BpKeyMintDeviceE"
    },
    {
     "referenced_type" : "_ZTIPi"
    }
   ],
   "return_type" : "_ZTIN3ndk13ScopedAStatusE",
   "source_file" : "out/soong/.intermediates/hardware/interfaces/security/keymint/aidl/android.hardware.security.keymint-V1-ndk_platform-source/gen/include/aidl/android/hardware/security/keymint/BpKeyMintDevice.h"
  },
  {
   "function_name" : "aidl::android::hardware::security::keymint::BpKeyMintDevice::destroyAttestationIds",
   "linker_set_key" : "_ZN4aidl7android8hardware8security7keymint15BpKeyMintDevice21destroyAttestationIdsEv",
   "parameters" :
   [
    {
     "is_this_ptr" : true,
     "referenced_type" : "_ZTIPN4aidl7android8hardware8security7keymint15BpKeyMintDeviceE"
    }
   ],
   "return_type" : "_ZTIN3ndk13ScopedAStatusE",
   "source_file" : "out/soong/.intermediates/hardware/interfaces/security/keymint/aidl/android.hardware.security.keymint-V1-ndk_platform-source/gen/include/aidl/android/hardware/security/keymint/BpKeyMintDevice.h"
  },
  {
   "function_name" : "aidl::android::hardware::security::keymint::BpKeyMintDevice::getKeyCharacteristics",
   "linker_set_key" : "_ZN4aidl7android8hardware8security7keymint15BpKeyMintDevice21getKeyCharacteristicsERKNSt3__16vectorIhNS5_9allocatorIhEEEESB_SB_PNS6_INS3_18KeyCharacteristicsENS7_ISC_EEEE",
   "parameters" :
   [
    {
     "is_this_ptr" : true,
     "referenced_type" : "_ZTIPN4aidl7android8hardware8security7keymint15BpKeyMintDeviceE"
    },
    {
     "referenced_type" : "_ZTIRKNSt3__16vectorIhNS_9allocatorIhEEEE"
    },
    {
     "referenced_type" : "_ZTIRKNSt3__16vectorIhNS_9allocatorIhEEEE"
    },
    {
     "referenced_type" : "_ZTIRKNSt3__16vectorIhNS_9allocatorIhEEEE"
    },
    {
     "referenced_type" : "_ZTIPNSt3__16vectorIN4aidl7android8hardware8security7keymint18KeyCharacteristicsENS_9allocatorIS6_EEEE"
    }
   ],
   "return_type" : "_ZTIN3ndk13ScopedAStatusE",
   "source_file" : "out/soong/.intermediates/hardware/interfaces/security/keymint/aidl/android.hardware.security.keymint-V1-ndk_platform-source/gen/include/aidl/android/hardware/security/keymint/BpKeyMintDevice.h"
  },
  {
   "function_name" : "aidl::android::hardware::security::keymint::BpKeyMintDevice::convertStorageKeyToEphemeral",
   "linker_set_key" : "_ZN4aidl7android8hardware8security7keymint15BpKeyMintDevice28convertStorageKeyToEphemeralERKNSt3__16vectorIhNS5_9allocatorIhEEEEPS9_",
   "parameters" :
   [
    {
     "is_this_ptr" : true,
     "referenced_type" : "_ZTIPN4aidl7android8hardware8security7keymint15BpKeyMintDeviceE"
    },
    {
     "referenced_type" : "_ZTIRKNSt3__16vectorIhNS_9allocatorIhEEEE"
    },
    {
     "referenced_type" : "_ZTIPNSt3__16vectorIhNS_9allocatorIhEEEE"
    }
   ],
   "return_type" : "_ZTIN3ndk13ScopedAStatusE",
   "source_file" : "out/soong/.intermediates/hardware/interfaces/security/keymint/aidl/android.hardware.security.keymint-V1-ndk_platform-source/gen/include/aidl/android/hardware/security/keymint/BpKeyMintDevice.h"
  },
  {
   "function_name" : "aidl::android::hardware::security::keymint::BpKeyMintDevice::begin",
   "linker_set_key" : "_ZN4aidl7android8hardware8security7keymint15BpKeyMintDevice5beginENS3_10KeyPurposeERKNSt3__16vectorIhNS6_9allocatorIhEEEERKNS7_INS3_12KeyParameterENS8_ISD_EEEERKNS6_8optionalINS3_17HardwareAuthTokenEEEPNS3_11BeginResultE",
   "parameters" :
   [
    {
     "is_this_ptr" : true,
     "referenced_type" : "_ZTIPN4aidl7android8hardware8security7keymint15BpKeyMintDeviceE"
    },
    {
     "referenced_type" : "_ZTIN4aidl7android8hardware8security7keymint10KeyPurposeE"
    },
    {
     "referenced_type" : "_ZTIRKNSt3__16vectorIhNS_9allocatorIhEEEE"
    },
    {
     "referenced_type" : "_ZTIRKNSt3__16vectorIN4aidl7android8hardware8security7keymint12KeyParameterENS_9allocatorIS6_EEEE"
    },
    {
     "referenced_type" : "_ZTIRKNSt3__18optionalIN4aidl7android8hardware8security7keymint17HardwareAuthTokenEEE"
    },
    {
     "referenced_type" : "_ZTIPN4aidl7android8hardware8security7keymint11BeginResultE"
    }
   ],
   "return_type" : "_ZTIN3ndk13ScopedAStatusE",
   "source_file" : "out/soong/.intermediates/hardware/interfaces/security/keymint/aidl/android.hardware.security.keymint-V1-ndk_platform-source/gen/include/aidl/android/hardware/security/keymint/BpKeyMintDevice.h"
  },
  {
   "function_name" : "aidl::android::hardware::security::keymint::BpKeyMintDevice::deleteKey",
   "linker_set_key" : "_ZN4aidl7android8hardware8security7keymint15BpKeyMintDevice9deleteKeyERKNSt3__16vectorIhNS5_9allocatorIhEEEE",
   "parameters" :
   [
    {
     "is_this_ptr" : true,
     "referenced_type" : "_ZTIPN4aidl7android8hardware8security7keymint15BpKeyMintDeviceE"
    },
    {
     "referenced_type" : "_ZTIRKNSt3__16vectorIhNS_9allocatorIhEEEE"
    }
   ],
   "return_type" : "_ZTIN3ndk13ScopedAStatusE",
   "source_file" : "out/soong/.intermediates/hardware/interfaces/security/keymint/aidl/android.hardware.security.keymint-V1-ndk_platform-source/gen/include/aidl/android/hardware/security/keymint/BpKeyMintDevice.h"
  },
  {
   "function_name" : "aidl::android::hardware::security::keymint::BpKeyMintDevice::importKey",
   "linker_set_key" : "_ZN4aidl7android8hardware8security7keymint15BpKeyMintDevice9importKeyERKNSt3__16vectorINS3_12KeyParameterENS5_9allocatorIS7_EEEENS3_9KeyFormatERKNS6_IhNS8_IhEEEERKNS5_8optionalINS3_14AttestationKeyEEEPNS3_17KeyCreationResultE",
   "parameters" :
   [
    {
     "is_this_ptr" : true,
     "referenced_type" : "_ZTIPN4aidl7android8hardware8security7keymint15BpKeyMintDeviceE"
    },
    {
     "referenced_type" : "_ZTIRKNSt3__16vectorIN4aidl7android8hardware8security7keymint12KeyParameterENS_9allocatorIS6_EEEE"
    },
    {
     "referenced_type" : "_ZTIN4aidl7android8hardware8security7keymint9KeyFormatE"
    },
    {
     "referenced_type" : "_ZTIRKNSt3__16vectorIhNS_9allocatorIhEEEE"
    },
    {
     "referenced_type" : "_ZTIRKNSt3__18optionalIN4aidl7android8hardware8security7keymint14AttestationKeyEEE"
    },
    {
     "referenced_type" : "_ZTIPN4aidl7android8hardware8security7keymint17KeyCreationResultE"
    }
   ],
   "return_type" : "_ZTIN3ndk13ScopedAStatusE",
   "source_file" : "out/soong/.intermediates/hardware/interfaces/security/keymint/aidl/android.hardware.security.keymint-V1-ndk_platform-source/gen/include/aidl/android/hardware/security/keymint/BpKeyMintDevice.h"
  },
  {
   "function_name" : "aidl::android::hardware::security::keymint::BpKeyMintDevice::BpKeyMintDevice",
   "linker_set_key" : "_ZN4aidl7android8hardware8security7keymint15BpKeyMintDeviceC1ERKN3ndk10SpAIBinderE",
   "parameters" :
   [
    {
     "is_this_ptr" : true,
     "referenced_type" : "_ZTIPN4aidl7android8hardware8security7keymint15BpKeyMintDeviceE"
    },
    {
     "referenced_type" : "_ZTIRKN3ndk10SpAIBinderE"
    }
   ],
   "return_type" : "_ZTIv",
   "source_file" : "out/soong/.intermediates/hardware/interfaces/security/keymint/aidl/android.hardware.security.keymint-V1-ndk_platform-source/gen/include/aidl/android/hardware/security/keymint/BpKeyMintDevice.h"
  },
  {
   "function_name" : "aidl::android::hardware::security::keymint::BpKeyMintDevice::BpKeyMintDevice",
   "linker_set_key" : "_ZN4aidl7android8hardware8security7keymint15BpKeyMintDeviceC2ERKN3ndk10SpAIBinderE",
   "parameters" :
   [
    {
     "is_this_ptr" : true,
     "referenced_type" : "_ZTIPN4aidl7android8hardware8security7keymint15BpKeyMintDeviceE"
    },
    {
     "referenced_type" : "_ZTIRKN3ndk10SpAIBinderE"
    }
   ],
   "return_type" : "_ZTIv",
   "source_file" : "out/soong/.intermediates/hardware/interfaces/security/keymint/aidl/android.hardware.security.keymint-V1-ndk_platform-source/gen/include/aidl/android/hardware/security/keymint/BpKeyMintDevice.h"
  },
  {
   "function_name" : "aidl::android::hardware::security::keymint::BpKeyMintDevice::~BpKeyMintDevice",
   "linker_set_key" : "_ZN4aidl7android8hardware8security7keymint15BpKeyMintDeviceD0Ev",
   "parameters" :
   [
    {
     "is_this_ptr" : true,
     "referenced_type" : "_ZTIPN4aidl7android8hardware8security7keymint15BpKeyMintDeviceE"
    }
   ],
   "return_type" : "_ZTIv",
   "source_file" : "out/soong/.intermediates/hardware/interfaces/security/keymint/aidl/android.hardware.security.keymint-V1-ndk_platform-source/gen/include/aidl/android/hardware/security/keymint/BpKeyMintDevice.h"
  },
  {
   "function_name" : "aidl::android::hardware::security::keymint::BpKeyMintDevice::~BpKeyMintDevice",
   "linker_set_key" : "_ZN4aidl7android8hardware8security7keymint15BpKeyMintDeviceD1Ev",
   "parameters" :
   [
    {
     "is_this_ptr" : true,
     "referenced_type" : "_ZTIPN4aidl7android8hardware8security7keymint15BpKeyMintDeviceE"
    }
   ],
   "return_type" : "_ZTIv",
   "source_file" : "out/soong/.intermediates/hardware/interfaces/security/keymint/aidl/android.hardware.security.keymint-V1-ndk_platform-source/gen/include/aidl/android/hardware/security/keymint/BpKeyMintDevice.h"
  },
  {
   "function_name" : "aidl::android::hardware::security::keymint::BpKeyMintDevice::~BpKeyMintDevice",
   "linker_set_key" : "_ZN4aidl7android8hardware8security7keymint15BpKeyMintDeviceD2Ev",
   "parameters" :
   [
    {
     "is_this_ptr" : true,
     "referenced_type" : "_ZTIPN4aidl7android8hardware8security7keymint15BpKeyMintDeviceE"
    }
   ],
   "return_type" : "_ZTIv",
   "source_file" : "out/soong/.intermediates/hardware/interfaces/security/keymint/aidl/android.hardware.security.keymint-V1-ndk_platform-source/gen/include/aidl/android/hardware/security/keymint/BpKeyMintDevice.h"
  },
  {
   "function_name" : "aidl::android::hardware::security::keymint::RpcHardwareInfo::readFromParcel",
   "linker_set_key" : "_ZN4aidl7android8hardware8security7keymint15RpcHardwareInfo14readFromParcelEPK7AParcel",
   "parameters" :
   [
    {
     "is_this_ptr" : true,
     "referenced_type" : "_ZTIPN4aidl7android8hardware8security7keymint15RpcHardwareInfoE"
    },
    {
     "referenced_type" : "_ZTIPK7AParcel"
    }
   ],
   "return_type" : "_ZTIi",
   "source_file" : "out/soong/.intermediates/hardware/interfaces/security/keymint/aidl/android.hardware.security.keymint-V1-ndk_platform-source/gen/include/aidl/android/hardware/security/keymint/RpcHardwareInfo.h"
  },
  {
   "function_name" : "aidl::android::hardware::security::keymint::HardwareAuthToken::readFromParcel",
   "linker_set_key" : "_ZN4aidl7android8hardware8security7keymint17HardwareAuthToken14readFromParcelEPK7AParcel",
   "parameters" :
   [
    {
     "is_this_ptr" : true,
     "referenced_type" : "_ZTIPN4aidl7android8hardware8security7keymint17HardwareAuthTokenE"
    },
    {
     "referenced_type" : "_ZTIPK7AParcel"
    }
   ],
   "return_type" : "_ZTIi",
   "source_file" : "out/soong/.intermediates/hardware/interfaces/security/keymint/aidl/android.hardware.security.keymint-V1-ndk_platform-source/gen/include/aidl/android/hardware/security/keymint/HardwareAuthToken.h"
  },
  {
   "function_name" : "aidl::android::hardware::security::keymint::IKeyMintOperation::fromBinder",
   "linker_set_key" : "_ZN4aidl7android8hardware8security7keymint17IKeyMintOperation10fromBinderERKN3ndk10SpAIBinderE",
   "parameters" :
   [
    {
     "referenced_type" : "_ZTIRKN3ndk10SpAIBinderE"
    }
   ],
   "return_type" : "_ZTINSt3__110shared_ptrIN4aidl7android8hardware8security7keymint17IKeyMintOperationEEE",
   "source_file" : "out/soong/.intermediates/hardware/interfaces/security/keymint/aidl/android.hardware.security.keymint-V1-ndk_platform-source/gen/include/aidl/android/hardware/security/keymint/IKeyMintOperation.h"
  },
  {
   "function_name" : "aidl::android::hardware::security::keymint::IKeyMintOperation::writeToParcel",
   "linker_set_key" : "_ZN4aidl7android8hardware8security7keymint17IKeyMintOperation13writeToParcelEP7AParcelRKNSt3__110shared_ptrIS4_EE",
   "parameters" :
   [
    {
     "referenced_type" : "_ZTIP7AParcel"
    },
    {
     "referenced_type" : "_ZTIRKNSt3__110shared_ptrIN4aidl7android8hardware8security7keymint17IKeyMintOperationEEE"
    }
   ],
   "return_type" : "_ZTIi",
   "source_file" : "out/soong/.intermediates/hardware/interfaces/security/keymint/aidl/android.hardware.security.keymint-V1-ndk_platform-source/gen/include/aidl/android/hardware/security/keymint/IKeyMintOperation.h"
  },
  {
   "function_name" : "aidl::android::hardware::security::keymint::IKeyMintOperation::getDefaultImpl",
   "linker_set_key" : "_ZN4aidl7android8hardware8security7keymint17IKeyMintOperation14getDefaultImplEv",
   "return_type" : "_ZTIRKNSt3__110shared_ptrIN4aidl7android8hardware8security7keymint17IKeyMintOperationEEE",
   "source_file" : "out/soong/.intermediates/hardware/interfaces/security/keymint/aidl/android.hardware.security.keymint-V1-ndk_platform-source/gen/include/aidl/android/hardware/security/keymint/IKeyMintOperation.h"
  },
  {
   "function_name" : "aidl::android::hardware::security::keymint::IKeyMintOperation::readFromParcel",
   "linker_set_key" : "_ZN4aidl7android8hardware8security7keymint17IKeyMintOperation14readFromParcelEPK7AParcelPNSt3__110shared_ptrIS4_EE",
   "parameters" :
   [
    {
     "referenced_type" : "_ZTIPK7AParcel"
    },
    {
     "referenced_type" : "_ZTIPNSt3__110shared_ptrIN4aidl7android8hardware8security7keymint17IKeyMintOperationEEE"
    }
   ],
   "return_type" : "_ZTIi",
   "source_file" : "out/soong/.intermediates/hardware/interfaces/security/keymint/aidl/android.hardware.security.keymint-V1-ndk_platform-source/gen/include/aidl/android/hardware/security/keymint/IKeyMintOperation.h"
  },
  {
   "function_name" : "aidl::android::hardware::security::keymint::IKeyMintOperation::setDefaultImpl",
   "linker_set_key" : "_ZN4aidl7android8hardware8security7keymint17IKeyMintOperation14setDefaultImplERKNSt3__110shared_ptrIS4_EE",
   "parameters" :
   [
    {
     "referenced_type" : "_ZTIRKNSt3__110shared_ptrIN4aidl7android8hardware8security7keymint17IKeyMintOperationEEE"
    }
   ],
   "return_type" : "_ZTIb",
   "source_file" : "out/soong/.intermediates/hardware/interfaces/security/keymint/aidl/android.hardware.security.keymint-V1-ndk_platform-source/gen/include/aidl/android/hardware/security/keymint/IKeyMintOperation.h"
  },
  {
   "function_name" : "aidl::android::hardware::security::keymint::IKeyMintOperation::IKeyMintOperation",
   "linker_set_key" : "_ZN4aidl7android8hardware8security7keymint17IKeyMintOperationC2Ev",
   "parameters" :
   [
    {
     "is_this_ptr" : true,
     "referenced_type" : "_ZTIPN4aidl7android8hardware8security7keymint17IKeyMintOperationE"
    }
   ],
   "return_type" : "_ZTIv",
   "source_file" : "out/soong/.intermediates/hardware/interfaces/security/keymint/aidl/android.hardware.security.keymint-V1-ndk_platform-source/gen/include/aidl/android/hardware/security/keymint/IKeyMintOperation.h"
  },
  {
   "function_name" : "aidl::android::hardware::security::keymint::IKeyMintOperation::~IKeyMintOperation",
   "linker_set_key" : "_ZN4aidl7android8hardware8security7keymint17IKeyMintOperationD0Ev",
   "parameters" :
   [
    {
     "is_this_ptr" : true,
     "referenced_type" : "_ZTIPN4aidl7android8hardware8security7keymint17IKeyMintOperationE"
    }
   ],
   "return_type" : "_ZTIv",
   "source_file" : "out/soong/.intermediates/hardware/interfaces/security/keymint/aidl/android.hardware.security.keymint-V1-ndk_platform-source/gen/include/aidl/android/hardware/security/keymint/IKeyMintOperation.h"
  },
  {
   "function_name" : "aidl::android::hardware::security::keymint::IKeyMintOperation::~IKeyMintOperation",
   "linker_set_key" : "_ZN4aidl7android8hardware8security7keymint17IKeyMintOperationD1Ev",
   "parameters" :
   [
    {
     "is_this_ptr" : true,
     "referenced_type" : "_ZTIPN4aidl7android8hardware8security7keymint17IKeyMintOperationE"
    }
   ],
   "return_type" : "_ZTIv",
   "source_file" : "out/soong/.intermediates/hardware/interfaces/security/keymint/aidl/android.hardware.security.keymint-V1-ndk_platform-source/gen/include/aidl/android/hardware/security/keymint/IKeyMintOperation.h"
  },
  {
   "function_name" : "aidl::android::hardware::security::keymint::IKeyMintOperation::~IKeyMintOperation",
   "linker_set_key" : "_ZN4aidl7android8hardware8security7keymint17IKeyMintOperationD2Ev",
   "parameters" :
   [
    {
     "is_this_ptr" : true,
     "referenced_type" : "_ZTIPN4aidl7android8hardware8security7keymint17IKeyMintOperationE"
    }
   ],
   "return_type" : "_ZTIv",
   "source_file" : "out/soong/.intermediates/hardware/interfaces/security/keymint/aidl/android.hardware.security.keymint-V1-ndk_platform-source/gen/include/aidl/android/hardware/security/keymint/IKeyMintOperation.h"
  },
  {
   "function_name" : "aidl::android::hardware::security::keymint::KeyCreationResult::readFromParcel",
   "linker_set_key" : "_ZN4aidl7android8hardware8security7keymint17KeyCreationResult14readFromParcelEPK7AParcel",
   "parameters" :
   [
    {
     "is_this_ptr" : true,
     "referenced_type" : "_ZTIPN4aidl7android8hardware8security7keymint17KeyCreationResultE"
    },
    {
     "referenced_type" : "_ZTIPK7AParcel"
    }
   ],
   "return_type" : "_ZTIi",
   "source_file" : "out/soong/.intermediates/hardware/interfaces/security/keymint/aidl/android.hardware.security.keymint-V1-ndk_platform-source/gen/include/aidl/android/hardware/security/keymint/KeyCreationResult.h"
  },
  {
   "function_name" : "aidl::android::hardware::security::keymint::KeyParameterValue::readFromParcel",
   "linker_set_key" : "_ZN4aidl7android8hardware8security7keymint17KeyParameterValue14readFromParcelEPK7AParcel",
   "parameters" :
   [
    {
     "is_this_ptr" : true,
     "referenced_type" : "_ZTIPN4aidl7android8hardware8security7keymint17KeyParameterValueE"
    },
    {
     "referenced_type" : "_ZTIPK7AParcel"
    }
   ],
   "return_type" : "_ZTIi",
   "source_file" : "out/soong/.intermediates/hardware/interfaces/security/keymint/aidl/android.hardware.security.keymint-V1-ndk_platform-source/gen/include/aidl/android/hardware/security/keymint/KeyParameterValue.h"
  },
  {
   "access" : "protected",
   "function_name" : "aidl::android::hardware::security::keymint::BnKeyMintOperation::createBinder",
   "linker_set_key" : "_ZN4aidl7android8hardware8security7keymint18BnKeyMintOperation12createBinderEv",
   "parameters" :
   [
    {
     "is_this_ptr" : true,
     "referenced_type" : "_ZTIPN4aidl7android8hardware8security7keymint18BnKeyMintOperationE"
    }
   ],
   "return_type" : "_ZTIN3ndk10SpAIBinderE",
   "source_file" : "out/soong/.intermediates/hardware/interfaces/security/keymint/aidl/android.hardware.security.keymint-V1-ndk_platform-source/gen/include/aidl/android/hardware/security/keymint/BnKeyMintOperation.h"
  },
  {
   "function_name" : "aidl::android::hardware::security::keymint::BnKeyMintOperation::getInterfaceHash",
   "linker_set_key" : "_ZN4aidl7android8hardware8security7keymint18BnKeyMintOperation16getInterfaceHashEPNSt3__112basic_stringIcNS5_11char_traitsIcEENS5_9allocatorIcEEEE",
   "parameters" :
   [
    {
     "is_this_ptr" : true,
     "referenced_type" : "_ZTIPN4aidl7android8hardware8security7keymint18BnKeyMintOperationE"
    },
    {
     "referenced_type" : "_ZTIPNSt3__112basic_stringIcNS_11char_traitsIcEENS_9allocatorIcEEEE"
    }
   ],
   "return_type" : "_ZTIN3ndk13ScopedAStatusE",
   "source_file" : "out/soong/.intermediates/hardware/interfaces/security/keymint/aidl/android.hardware.security.keymint-V1-ndk_platform-source/gen/include/aidl/android/hardware/security/keymint/BnKeyMintOperation.h"
  },
  {
   "function_name" : "aidl::android::hardware::security::keymint::BnKeyMintOperation::getInterfaceVersion",
   "linker_set_key" : "_ZN4aidl7android8hardware8security7keymint18BnKeyMintOperation19getInterfaceVersionEPi",
   "parameters" :
   [
    {
     "is_this_ptr" : true,
     "referenced_type" : "_ZTIPN4aidl7android8hardware8security7keymint18BnKeyMintOperationE"
    },
    {
     "referenced_type" : "_ZTIPi"
    }
   ],
   "return_type" : "_ZTIN3ndk13ScopedAStatusE",
   "source_file" : "out/soong/.intermediates/hardware/interfaces/security/keymint/aidl/android.hardware.security.keymint-V1-ndk_platform-source/gen/include/aidl/android/hardware/security/keymint/BnKeyMintOperation.h"
  },
  {
   "function_name" : "aidl::android::hardware::security::keymint::BnKeyMintOperation::BnKeyMintOperation",
   "linker_set_key" : "_ZN4aidl7android8hardware8security7keymint18BnKeyMintOperationC2Ev",
   "parameters" :
   [
    {
     "is_this_ptr" : true,
     "referenced_type" : "_ZTIPN4aidl7android8hardware8security7keymint18BnKeyMintOperationE"
    }
   ],
   "return_type" : "_ZTIv",
   "source_file" : "out/soong/.intermediates/hardware/interfaces/security/keymint/aidl/android.hardware.security.keymint-V1-ndk_platform-source/gen/include/aidl/android/hardware/security/keymint/BnKeyMintOperation.h"
  },
  {
   "function_name" : "aidl::android::hardware::security::keymint::BnKeyMintOperation::~BnKeyMintOperation",
   "linker_set_key" : "_ZN4aidl7android8hardware8security7keymint18BnKeyMintOperationD0Ev",
   "parameters" :
   [
    {
     "is_this_ptr" : true,
     "referenced_type" : "_ZTIPN4aidl7android8hardware8security7keymint18BnKeyMintOperationE"
    }
   ],
   "return_type" : "_ZTIv",
   "source_file" : "out/soong/.intermediates/hardware/interfaces/security/keymint/aidl/android.hardware.security.keymint-V1-ndk_platform-source/gen/include/aidl/android/hardware/security/keymint/BnKeyMintOperation.h"
  },
  {
   "function_name" : "aidl::android::hardware::security::keymint::BnKeyMintOperation::~BnKeyMintOperation",
   "linker_set_key" : "_ZN4aidl7android8hardware8security7keymint18BnKeyMintOperationD1Ev",
   "parameters" :
   [
    {
     "is_this_ptr" : true,
     "referenced_type" : "_ZTIPN4aidl7android8hardware8security7keymint18BnKeyMintOperationE"
    }
   ],
   "return_type" : "_ZTIv",
   "source_file" : "out/soong/.intermediates/hardware/interfaces/security/keymint/aidl/android.hardware.security.keymint-V1-ndk_platform-source/gen/include/aidl/android/hardware/security/keymint/BnKeyMintOperation.h"
  },
  {
   "function_name" : "aidl::android::hardware::security::keymint::BnKeyMintOperation::~BnKeyMintOperation",
   "linker_set_key" : "_ZN4aidl7android8hardware8security7keymint18BnKeyMintOperationD2Ev",
   "parameters" :
   [
    {
     "is_this_ptr" : true,
     "referenced_type" : "_ZTIPN4aidl7android8hardware8security7keymint18BnKeyMintOperationE"
    }
   ],
   "return_type" : "_ZTIv",
   "source_file" : "out/soong/.intermediates/hardware/interfaces/security/keymint/aidl/android.hardware.security.keymint-V1-ndk_platform-source/gen/include/aidl/android/hardware/security/keymint/BnKeyMintOperation.h"
  },
  {
   "function_name" : "aidl::android::hardware::security::keymint::BpKeyMintOperation::getInterfaceHash",
   "linker_set_key" : "_ZN4aidl7android8hardware8security7keymint18BpKeyMintOperation16getInterfaceHashEPNSt3__112basic_stringIcNS5_11char_traitsIcEENS5_9allocatorIcEEEE",
   "parameters" :
   [
    {
     "is_this_ptr" : true,
     "referenced_type" : "_ZTIPN4aidl7android8hardware8security7keymint18BpKeyMintOperationE"
    },
    {
     "referenced_type" : "_ZTIPNSt3__112basic_stringIcNS_11char_traitsIcEENS_9allocatorIcEEEE"
    }
   ],
   "return_type" : "_ZTIN3ndk13ScopedAStatusE",
   "source_file" : "out/soong/.intermediates/hardware/interfaces/security/keymint/aidl/android.hardware.security.keymint-V1-ndk_platform-source/gen/include/aidl/android/hardware/security/keymint/BpKeyMintOperation.h"
  },
  {
   "function_name" : "aidl::android::hardware::security::keymint::BpKeyMintOperation::getInterfaceVersion",
   "linker_set_key" : "_ZN4aidl7android8hardware8security7keymint18BpKeyMintOperation19getInterfaceVersionEPi",
   "parameters" :
   [
    {
     "is_this_ptr" : true,
     "referenced_type" : "_ZTIPN4aidl7android8hardware8security7keymint18BpKeyMintOperationE"
    },
    {
     "referenced_type" : "_ZTIPi"
    }
   ],
   "return_type" : "_ZTIN3ndk13ScopedAStatusE",
   "source_file" : "out/soong/.intermediates/hardware/interfaces/security/keymint/aidl/android.hardware.security.keymint-V1-ndk_platform-source/gen/include/aidl/android/hardware/security/keymint/BpKeyMintOperation.h"
  },
  {
   "function_name" : "aidl::android::hardware::security::keymint::BpKeyMintOperation::abort",
   "linker_set_key" : "_ZN4aidl7android8hardware8security7keymint18BpKeyMintOperation5abortEv",
   "parameters" :
   [
    {
     "is_this_ptr" : true,
     "referenced_type" : "_ZTIPN4aidl7android8hardware8security7keymint18BpKeyMintOperationE"
    }
   ],
   "return_type" : "_ZTIN3ndk13ScopedAStatusE",
   "source_file" : "out/soong/.intermediates/hardware/interfaces/security/keymint/aidl/android.hardware.security.keymint-V1-ndk_platform-source/gen/include/aidl/android/hardware/security/keymint/BpKeyMintOperation.h"
  },
  {
   "function_name" : "aidl::android::hardware::security::keymint::BpKeyMintOperation::finish",
   "linker_set_key" : "_ZN4aidl7android8hardware8security7keymint18BpKeyMintOperation6finishERKNSt3__18optionalINS5_6vectorIhNS5_9allocatorIhEEEEEESD_RKNS6_INS3_17HardwareAuthTokenEEERKNS6_INS2_11secureclock14TimeStampTokenEEESD_PSA_",
   "parameters" :
   [
    {
     "is_this_ptr" : true,
     "referenced_type" : "_ZTIPN4aidl7android8hardware8security7keymint18BpKeyMintOperationE"
    },
    {
     "referenced_type" : "_ZTIRKNSt3__18optionalINS_6vectorIhNS_9allocatorIhEEEEEE"
    },
    {
     "referenced_type" : "_ZTIRKNSt3__18optionalINS_6vectorIhNS_9allocatorIhEEEEEE"
    },
    {
     "referenced_type" : "_ZTIRKNSt3__18optionalIN4aidl7android8hardware8security7keymint17HardwareAuthTokenEEE"
    },
    {
     "referenced_type" : "_ZTIRKNSt3__18optionalIN4aidl7android8hardware8security11secureclock14TimeStampTokenEEE"
    },
    {
     "referenced_type" : "_ZTIRKNSt3__18optionalINS_6vectorIhNS_9allocatorIhEEEEEE"
    },
    {
     "referenced_type" : "_ZTIPNSt3__16vectorIhNS_9allocatorIhEEEE"
    }
   ],
   "return_type" : "_ZTIN3ndk13ScopedAStatusE",
   "source_file" : "out/soong/.intermediates/hardware/interfaces/security/keymint/aidl/android.hardware.security.keymint-V1-ndk_platform-source/gen/include/aidl/android/hardware/security/keymint/BpKeyMintOperation.h"
  },
  {
   "function_name" : "aidl::android::hardware::security::keymint::BpKeyMintOperation::update",
   "linker_set_key" : "_ZN4aidl7android8hardware8security7keymint18BpKeyMintOperation6updateERKNSt3__16vectorIhNS5_9allocatorIhEEEERKNS5_8optionalINS3_17HardwareAuthTokenEEERKNSC_INS2_11secureclock14TimeStampTokenEEEPS9_",
   "parameters" :
   [
    {
     "is_this_ptr" : true,
     "referenced_type" : "_ZTIPN4aidl7android8hardware8security7keymint18BpKeyMintOperationE"
    },
    {
     "referenced_type" : "_ZTIRKNSt3__16vectorIhNS_9allocatorIhEEEE"
    },
    {
     "referenced_type" : "_ZTIRKNSt3__18optionalIN4aidl7android8hardware8security7keymint17HardwareAuthTokenEEE"
    },
    {
     "referenced_type" : "_ZTIRKNSt3__18optionalIN4aidl7android8hardware8security11secureclock14TimeStampTokenEEE"
    },
    {
     "referenced_type" : "_ZTIPNSt3__16vectorIhNS_9allocatorIhEEEE"
    }
   ],
   "return_type" : "_ZTIN3ndk13ScopedAStatusE",
   "source_file" : "out/soong/.intermediates/hardware/interfaces/security/keymint/aidl/android.hardware.security.keymint-V1-ndk_platform-source/gen/include/aidl/android/hardware/security/keymint/BpKeyMintOperation.h"
  },
  {
   "function_name" : "aidl::android::hardware::security::keymint::BpKeyMintOperation::updateAad",
   "linker_set_key" : "_ZN4aidl7android8hardware8security7keymint18BpKeyMintOperation9updateAadERKNSt3__16vectorIhNS5_9allocatorIhEEEERKNS5_8optionalINS3_17HardwareAuthTokenEEERKNSC_INS2_11secureclock14TimeStampTokenEEE",
   "parameters" :
   [
    {
     "is_this_ptr" : true,
     "referenced_type" : "_ZTIPN4aidl7android8hardware8security7keymint18BpKeyMintOperationE"
    },
    {
     "referenced_type" : "_ZTIRKNSt3__16vectorIhNS_9allocatorIhEEEE"
    },
    {
     "referenced_type" : "_ZTIRKNSt3__18optionalIN4aidl7android8hardware8security7keymint17HardwareAuthTokenEEE"
    },
    {
     "referenced_type" : "_ZTIRKNSt3__18optionalIN4aidl7android8hardware8security11secureclock14TimeStampTokenEEE"
    }
   ],
   "return_type" : "_ZTIN3ndk13ScopedAStatusE",
   "source_file" : "out/soong/.intermediates/hardware/interfaces/security/keymint/aidl/android.hardware.security.keymint-V1-ndk_platform-source/gen/include/aidl/android/hardware/security/keymint/BpKeyMintOperation.h"
  },
  {
   "function_name" : "aidl::android::hardware::security::keymint::BpKeyMintOperation::BpKeyMintOperation",
   "linker_set_key" : "_ZN4aidl7android8hardware8security7keymint18BpKeyMintOperationC1ERKN3ndk10SpAIBinderE",
   "parameters" :
   [
    {
     "is_this_ptr" : true,
     "referenced_type" : "_ZTIPN4aidl7android8hardware8security7keymint18BpKeyMintOperationE"
    },
    {
     "referenced_type" : "_ZTIRKN3ndk10SpAIBinderE"
    }
   ],
   "return_type" : "_ZTIv",
   "source_file" : "out/soong/.intermediates/hardware/interfaces/security/keymint/aidl/android.hardware.security.keymint-V1-ndk_platform-source/gen/include/aidl/android/hardware/security/keymint/BpKeyMintOperation.h"
  },
  {
   "function_name" : "aidl::android::hardware::security::keymint::BpKeyMintOperation::BpKeyMintOperation",
   "linker_set_key" : "_ZN4aidl7android8hardware8security7keymint18BpKeyMintOperationC2ERKN3ndk10SpAIBinderE",
   "parameters" :
   [
    {
     "is_this_ptr" : true,
     "referenced_type" : "_ZTIPN4aidl7android8hardware8security7keymint18BpKeyMintOperationE"
    },
    {
     "referenced_type" : "_ZTIRKN3ndk10SpAIBinderE"
    }
   ],
   "return_type" : "_ZTIv",
   "source_file" : "out/soong/.intermediates/hardware/interfaces/security/keymint/aidl/android.hardware.security.keymint-V1-ndk_platform-source/gen/include/aidl/android/hardware/security/keymint/BpKeyMintOperation.h"
  },
  {
   "function_name" : "aidl::android::hardware::security::keymint::BpKeyMintOperation::~BpKeyMintOperation",
   "linker_set_key" : "_ZN4aidl7android8hardware8security7keymint18BpKeyMintOperationD0Ev",
   "parameters" :
   [
    {
     "is_this_ptr" : true,
     "referenced_type" : "_ZTIPN4aidl7android8hardware8security7keymint18BpKeyMintOperationE"
    }
   ],
   "return_type" : "_ZTIv",
   "source_file" : "out/soong/.intermediates/hardware/interfaces/security/keymint/aidl/android.hardware.security.keymint-V1-ndk_platform-source/gen/include/aidl/android/hardware/security/keymint/BpKeyMintOperation.h"
  },
  {
   "function_name" : "aidl::android::hardware::security::keymint::BpKeyMintOperation::~BpKeyMintOperation",
   "linker_set_key" : "_ZN4aidl7android8hardware8security7keymint18BpKeyMintOperationD1Ev",
   "parameters" :
   [
    {
     "is_this_ptr" : true,
     "referenced_type" : "_ZTIPN4aidl7android8hardware8security7keymint18BpKeyMintOperationE"
    }
   ],
   "return_type" : "_ZTIv",
   "source_file" : "out/soong/.intermediates/hardware/interfaces/security/keymint/aidl/android.hardware.security.keymint-V1-ndk_platform-source/gen/include/aidl/android/hardware/security/keymint/BpKeyMintOperation.h"
  },
  {
   "function_name" : "aidl::android::hardware::security::keymint::BpKeyMintOperation::~BpKeyMintOperation",
   "linker_set_key" : "_ZN4aidl7android8hardware8security7keymint18BpKeyMintOperationD2Ev",
   "parameters" :
   [
    {
     "is_this_ptr" : true,
     "referenced_type" : "_ZTIPN4aidl7android8hardware8security7keymint18BpKeyMintOperationE"
    }
   ],
   "return_type" : "_ZTIv",
   "source_file" : "out/soong/.intermediates/hardware/interfaces/security/keymint/aidl/android.hardware.security.keymint-V1-ndk_platform-source/gen/include/aidl/android/hardware/security/keymint/BpKeyMintOperation.h"
  },
  {
   "function_name" : "aidl::android::hardware::security::keymint::KeyCharacteristics::readFromParcel",
   "linker_set_key" : "_ZN4aidl7android8hardware8security7keymint18KeyCharacteristics14readFromParcelEPK7AParcel",
   "parameters" :
   [
    {
     "is_this_ptr" : true,
     "referenced_type" : "_ZTIPN4aidl7android8hardware8security7keymint18KeyCharacteristicsE"
    },
    {
     "referenced_type" : "_ZTIPK7AParcel"
    }
   ],
   "return_type" : "_ZTIi",
   "source_file" : "out/soong/.intermediates/hardware/interfaces/security/keymint/aidl/android.hardware.security.keymint-V1-ndk_platform-source/gen/include/aidl/android/hardware/security/keymint/KeyCharacteristics.h"
  },
  {
   "function_name" : "aidl::android::hardware::security::keymint::KeyMintHardwareInfo::readFromParcel",
   "linker_set_key" : "_ZN4aidl7android8hardware8security7keymint19KeyMintHardwareInfo14readFromParcelEPK7AParcel",
   "parameters" :
   [
    {
     "is_this_ptr" : true,
     "referenced_type" : "_ZTIPN4aidl7android8hardware8security7keymint19KeyMintHardwareInfoE"
    },
    {
     "referenced_type" : "_ZTIPK7AParcel"
    }
   ],
   "return_type" : "_ZTIi",
   "source_file" : "out/soong/.intermediates/hardware/interfaces/security/keymint/aidl/android.hardware.security.keymint-V1-ndk_platform-source/gen/include/aidl/android/hardware/security/keymint/KeyMintHardwareInfo.h"
  },
  {
   "function_name" : "aidl::android::hardware::security::keymint::IKeyMintDeviceDefault::upgradeKey",
   "linker_set_key" : "_ZN4aidl7android8hardware8security7keymint21IKeyMintDeviceDefault10upgradeKeyERKNSt3__16vectorIhNS5_9allocatorIhEEEERKNS6_INS3_12KeyParameterENS7_ISC_EEEEPS9_",
   "parameters" :
   [
    {
     "is_this_ptr" : true,
     "referenced_type" : "_ZTIPN4aidl7android8hardware8security7keymint21IKeyMintDeviceDefaultE"
    },
    {
     "referenced_type" : "_ZTIRKNSt3__16vectorIhNS_9allocatorIhEEEE"
    },
    {
     "referenced_type" : "_ZTIRKNSt3__16vectorIN4aidl7android8hardware8security7keymint12KeyParameterENS_9allocatorIS6_EEEE"
    },
    {
     "referenced_type" : "_ZTIPNSt3__16vectorIhNS_9allocatorIhEEEE"
    }
   ],
   "return_type" : "_ZTIN3ndk13ScopedAStatusE",
   "source_file" : "out/soong/.intermediates/hardware/interfaces/security/keymint/aidl/android.hardware.security.keymint-V1-ndk_platform-source/gen/include/aidl/android/hardware/security/keymint/IKeyMintDevice.h"
  },
  {
   "function_name" : "aidl::android::hardware::security::keymint::IKeyMintDeviceDefault::generateKey",
   "linker_set_key" : "_ZN4aidl7android8hardware8security7keymint21IKeyMintDeviceDefault11generateKeyERKNSt3__16vectorINS3_12KeyParameterENS5_9allocatorIS7_EEEERKNS5_8optionalINS3_14AttestationKeyEEEPNS3_17KeyCreationResultE",
   "parameters" :
   [
    {
     "is_this_ptr" : true,
     "referenced_type" : "_ZTIPN4aidl7android8hardware8security7keymint21IKeyMintDeviceDefaultE"
    },
    {
     "referenced_type" : "_ZTIRKNSt3__16vectorIN4aidl7android8hardware8security7keymint12KeyParameterENS_9allocatorIS6_EEEE"
    },
    {
     "referenced_type" : "_ZTIRKNSt3__18optionalIN4aidl7android8hardware8security7keymint14AttestationKeyEEE"
    },
    {
     "referenced_type" : "_ZTIPN4aidl7android8hardware8security7keymint17KeyCreationResultE"
    }
   ],
   "return_type" : "_ZTIN3ndk13ScopedAStatusE",
   "source_file" : "out/soong/.intermediates/hardware/interfaces/security/keymint/aidl/android.hardware.security.keymint-V1-ndk_platform-source/gen/include/aidl/android/hardware/security/keymint/IKeyMintDevice.h"
  },
  {
   "function_name" : "aidl::android::hardware::security::keymint::IKeyMintDeviceDefault::deviceLocked",
   "linker_set_key" : "_ZN4aidl7android8hardware8security7keymint21IKeyMintDeviceDefault12deviceLockedEbRKNSt3__18optionalINS2_11secureclock14TimeStampTokenEEE",
   "parameters" :
   [
    {
     "is_this_ptr" : true,
     "referenced_type" : "_ZTIPN4aidl7android8hardware8security7keymint21IKeyMintDeviceDefaultE"
    },
    {
     "referenced_type" : "_ZTIb"
    },
    {
     "referenced_type" : "_ZTIRKNSt3__18optionalIN4aidl7android8hardware8security11secureclock14TimeStampTokenEEE"
    }
   ],
   "return_type" : "_ZTIN3ndk13ScopedAStatusE",
   "source_file" : "out/soong/.intermediates/hardware/interfaces/security/keymint/aidl/android.hardware.security.keymint-V1-ndk_platform-source/gen/include/aidl/android/hardware/security/keymint/IKeyMintDevice.h"
  },
  {
   "function_name" : "aidl::android::hardware::security::keymint::IKeyMintDeviceDefault::addRngEntropy",
   "linker_set_key" : "_ZN4aidl7android8hardware8security7keymint21IKeyMintDeviceDefault13addRngEntropyERKNSt3__16vectorIhNS5_9allocatorIhEEEE",
   "parameters" :
   [
    {
     "is_this_ptr" : true,
     "referenced_type" : "_ZTIPN4aidl7android8hardware8security7keymint21IKeyMintDeviceDefaultE"
    },
    {
     "referenced_type" : "_ZTIRKNSt3__16vectorIhNS_9allocatorIhEEEE"
    }
   ],
   "return_type" : "_ZTIN3ndk13ScopedAStatusE",
   "source_file" : "out/soong/.intermediates/hardware/interfaces/security/keymint/aidl/android.hardware.security.keymint-V1-ndk_platform-source/gen/include/aidl/android/hardware/security/keymint/IKeyMintDevice.h"
  },
  {
   "function_name" : "aidl::android::hardware::security::keymint::IKeyMintDeviceDefault::deleteAllKeys",
   "linker_set_key" : "_ZN4aidl7android8hardware8security7keymint21IKeyMintDeviceDefault13deleteAllKeysEv",
   "parameters" :
   [
    {
     "is_this_ptr" : true,
     "referenced_type" : "_ZTIPN4aidl7android8hardware8security7keymint21IKeyMintDeviceDefaultE"
    }
   ],
   "return_type" : "_ZTIN3ndk13ScopedAStatusE",
   "source_file" : "out/soong/.intermediates/hardware/interfaces/security/keymint/aidl/android.hardware.security.keymint-V1-ndk_platform-source/gen/include/aidl/android/hardware/security/keymint/IKeyMintDevice.h"
  },
  {
   "function_name" : "aidl::android::hardware::security::keymint::IKeyMintDeviceDefault::earlyBootEnded",
   "linker_set_key" : "_ZN4aidl7android8hardware8security7keymint21IKeyMintDeviceDefault14earlyBootEndedEv",
   "parameters" :
   [
    {
     "is_this_ptr" : true,
     "referenced_type" : "_ZTIPN4aidl7android8hardware8security7keymint21IKeyMintDeviceDefaultE"
    }
   ],
   "return_type" : "_ZTIN3ndk13ScopedAStatusE",
   "source_file" : "out/soong/.intermediates/hardware/interfaces/security/keymint/aidl/android.hardware.security.keymint-V1-ndk_platform-source/gen/include/aidl/android/hardware/security/keymint/IKeyMintDevice.h"
  },
  {
   "function_name" : "aidl::android::hardware::security::keymint::IKeyMintDeviceDefault::getHardwareInfo",
   "linker_set_key" : "_ZN4aidl7android8hardware8security7keymint21IKeyMintDeviceDefault15getHardwareInfoEPNS3_19KeyMintHardwareInfoE",
   "parameters" :
   [
    {
     "is_this_ptr" : true,
     "referenced_type" : "_ZTIPN4aidl7android8hardware8security7keymint21IKeyMintDeviceDefaultE"
    },
    {
     "referenced_type" : "_ZTIPN4aidl7android8hardware8security7keymint19KeyMintHardwareInfoE"
    }
   ],
   "return_type" : "_ZTIN3ndk13ScopedAStatusE",
   "source_file" : "out/soong/.intermediates/hardware/interfaces/security/keymint/aidl/android.hardware.security.keymint-V1-ndk_platform-source/gen/include/aidl/android/hardware/security/keymint/IKeyMintDevice.h"
  },
  {
   "function_name" : "aidl::android::hardware::security::keymint::IKeyMintDeviceDefault::getInterfaceHash",
   "linker_set_key" : "_ZN4aidl7android8hardware8security7keymint21IKeyMintDeviceDefault16getInterfaceHashEPNSt3__112basic_stringIcNS5_11char_traitsIcEENS5_9allocatorIcEEEE",
   "parameters" :
   [
    {
     "is_this_ptr" : true,
     "referenced_type" : "_ZTIPN4aidl7android8hardware8security7keymint21IKeyMintDeviceDefaultE"
    },
    {
     "referenced_type" : "_ZTIPNSt3__112basic_stringIcNS_11char_traitsIcEENS_9allocatorIcEEEE"
    }
   ],
   "return_type" : "_ZTIN3ndk13ScopedAStatusE",
   "source_file" : "out/soong/.intermediates/hardware/interfaces/security/keymint/aidl/android.hardware.security.keymint-V1-ndk_platform-source/gen/include/aidl/android/hardware/security/keymint/IKeyMintDevice.h"
  },
  {
   "function_name" : "aidl::android::hardware::security::keymint::IKeyMintDeviceDefault::importWrappedKey",
   "linker_set_key" : "_ZN4aidl7android8hardware8security7keymint21IKeyMintDeviceDefault16importWrappedKeyERKNSt3__16vectorIhNS5_9allocatorIhEEEESB_SB_RKNS6_INS3_12KeyParameterENS7_ISC_EEEEllPNS3_17KeyCreationResultE",
   "parameters" :
   [
    {
     "is_this_ptr" : true,
     "referenced_type" : "_ZTIPN4aidl7android8hardware8security7keymint21IKeyMintDeviceDefaultE"
    },
    {
     "referenced_type" : "_ZTIRKNSt3__16vectorIhNS_9allocatorIhEEEE"
    },
    {
     "referenced_type" : "_ZTIRKNSt3__16vectorIhNS_9allocatorIhEEEE"
    },
    {
     "referenced_type" : "_ZTIRKNSt3__16vectorIhNS_9allocatorIhEEEE"
    },
    {
     "referenced_type" : "_ZTIRKNSt3__16vectorIN4aidl7android8hardware8security7keymint12KeyParameterENS_9allocatorIS6_EEEE"
    },
    {
     "referenced_type" : "_ZTIl"
    },
    {
     "referenced_type" : "_ZTIl"
    },
    {
     "referenced_type" : "_ZTIPN4aidl7android8hardware8security7keymint17KeyCreationResultE"
    }
   ],
   "return_type" : "_ZTIN3ndk13ScopedAStatusE",
   "source_file" : "out/soong/.intermediates/hardware/interfaces/security/keymint/aidl/android.hardware.security.keymint-V1-ndk_platform-source/gen/include/aidl/android/hardware/security/keymint/IKeyMintDevice.h"
  },
  {
   "function_name" : "aidl::android::hardware::security::keymint::IKeyMintDeviceDefault::getInterfaceVersion",
   "linker_set_key" : "_ZN4aidl7android8hardware8security7keymint21IKeyMintDeviceDefault19getInterfaceVersionEPi",
   "parameters" :
   [
    {
     "is_this_ptr" : true,
     "referenced_type" : "_ZTIPN4aidl7android8hardware8security7keymint21IKeyMintDeviceDefaultE"
    },
    {
     "referenced_type" : "_ZTIPi"
    }
   ],
   "return_type" : "_ZTIN3ndk13ScopedAStatusE",
   "source_file" : "out/soong/.intermediates/hardware/interfaces/security/keymint/aidl/android.hardware.security.keymint-V1-ndk_platform-source/gen/include/aidl/android/hardware/security/keymint/IKeyMintDevice.h"
  },
  {
   "function_name" : "aidl::android::hardware::security::keymint::IKeyMintDeviceDefault::destroyAttestationIds",
   "linker_set_key" : "_ZN4aidl7android8hardware8security7keymint21IKeyMintDeviceDefault21destroyAttestationIdsEv",
   "parameters" :
   [
    {
     "is_this_ptr" : true,
     "referenced_type" : "_ZTIPN4aidl7android8hardware8security7keymint21IKeyMintDeviceDefaultE"
    }
   ],
   "return_type" : "_ZTIN3ndk13ScopedAStatusE",
   "source_file" : "out/soong/.intermediates/hardware/interfaces/security/keymint/aidl/android.hardware.security.keymint-V1-ndk_platform-source/gen/include/aidl/android/hardware/security/keymint/IKeyMintDevice.h"
  },
  {
   "function_name" : "aidl::android::hardware::security::keymint::IKeyMintDeviceDefault::getKeyCharacteristics",
   "linker_set_key" : "_ZN4aidl7android8hardware8security7keymint21IKeyMintDeviceDefault21getKeyCharacteristicsERKNSt3__16vectorIhNS5_9allocatorIhEEEESB_SB_PNS6_INS3_18KeyCharacteristicsENS7_ISC_EEEE",
   "parameters" :
   [
    {
     "is_this_ptr" : true,
     "referenced_type" : "_ZTIPN4aidl7android8hardware8security7keymint21IKeyMintDeviceDefaultE"
    },
    {
     "referenced_type" : "_ZTIRKNSt3__16vectorIhNS_9allocatorIhEEEE"
    },
    {
     "referenced_type" : "_ZTIRKNSt3__16vectorIhNS_9allocatorIhEEEE"
    },
    {
     "referenced_type" : "_ZTIRKNSt3__16vectorIhNS_9allocatorIhEEEE"
    },
    {
     "referenced_type" : "_ZTIPNSt3__16vectorIN4aidl7android8hardware8security7keymint18KeyCharacteristicsENS_9allocatorIS6_EEEE"
    }
   ],
   "return_type" : "_ZTIN3ndk13ScopedAStatusE",
   "source_file" : "out/soong/.intermediates/hardware/interfaces/security/keymint/aidl/android.hardware.security.keymint-V1-ndk_platform-source/gen/include/aidl/android/hardware/security/keymint/IKeyMintDevice.h"
  },
  {
   "function_name" : "aidl::android::hardware::security::keymint::IKeyMintDeviceDefault::convertStorageKeyToEphemeral",
   "linker_set_key" : "_ZN4aidl7android8hardware8security7keymint21IKeyMintDeviceDefault28convertStorageKeyToEphemeralERKNSt3__16vectorIhNS5_9allocatorIhEEEEPS9_",
   "parameters" :
   [
    {
     "is_this_ptr" : true,
     "referenced_type" : "_ZTIPN4aidl7android8hardware8security7keymint21IKeyMintDeviceDefaultE"
    },
    {
     "referenced_type" : "_ZTIRKNSt3__16vectorIhNS_9allocatorIhEEEE"
    },
    {
     "referenced_type" : "_ZTIPNSt3__16vectorIhNS_9allocatorIhEEEE"
    }
   ],
   "return_type" : "_ZTIN3ndk13ScopedAStatusE",
   "source_file" : "out/soong/.intermediates/hardware/interfaces/security/keymint/aidl/android.hardware.security.keymint-V1-ndk_platform-source/gen/include/aidl/android/hardware/security/keymint/IKeyMintDevice.h"
  },
  {
   "function_name" : "aidl::android::hardware::security::keymint::IKeyMintDeviceDefault::begin",
   "linker_set_key" : "_ZN4aidl7android8hardware8security7keymint21IKeyMintDeviceDefault5beginENS3_10KeyPurposeERKNSt3__16vectorIhNS6_9allocatorIhEEEERKNS7_INS3_12KeyParameterENS8_ISD_EEEERKNS6_8optionalINS3_17HardwareAuthTokenEEEPNS3_11BeginResultE",
   "parameters" :
   [
    {
     "is_this_ptr" : true,
     "referenced_type" : "_ZTIPN4aidl7android8hardware8security7keymint21IKeyMintDeviceDefaultE"
    },
    {
     "referenced_type" : "_ZTIN4aidl7android8hardware8security7keymint10KeyPurposeE"
    },
    {
     "referenced_type" : "_ZTIRKNSt3__16vectorIhNS_9allocatorIhEEEE"
    },
    {
     "referenced_type" : "_ZTIRKNSt3__16vectorIN4aidl7android8hardware8security7keymint12KeyParameterENS_9allocatorIS6_EEEE"
    },
    {
     "referenced_type" : "_ZTIRKNSt3__18optionalIN4aidl7android8hardware8security7keymint17HardwareAuthTokenEEE"
    },
    {
     "referenced_type" : "_ZTIPN4aidl7android8hardware8security7keymint11BeginResultE"
    }
   ],
   "return_type" : "_ZTIN3ndk13ScopedAStatusE",
   "source_file" : "out/soong/.intermediates/hardware/interfaces/security/keymint/aidl/android.hardware.security.keymint-V1-ndk_platform-source/gen/include/aidl/android/hardware/security/keymint/IKeyMintDevice.h"
  },
  {
   "function_name" : "aidl::android::hardware::security::keymint::IKeyMintDeviceDefault::asBinder",
   "linker_set_key" : "_ZN4aidl7android8hardware8security7keymint21IKeyMintDeviceDefault8asBinderEv",
   "parameters" :
   [
    {
     "is_this_ptr" : true,
     "referenced_type" : "_ZTIPN4aidl7android8hardware8security7keymint21IKeyMintDeviceDefaultE"
    }
   ],
   "return_type" : "_ZTIN3ndk10SpAIBinderE",
   "source_file" : "out/soong/.intermediates/hardware/interfaces/security/keymint/aidl/android.hardware.security.keymint-V1-ndk_platform-source/gen/include/aidl/android/hardware/security/keymint/IKeyMintDevice.h"
  },
  {
   "function_name" : "aidl::android::hardware::security::keymint::IKeyMintDeviceDefault::isRemote",
   "linker_set_key" : "_ZN4aidl7android8hardware8security7keymint21IKeyMintDeviceDefault8isRemoteEv",
   "parameters" :
   [
    {
     "is_this_ptr" : true,
     "referenced_type" : "_ZTIPN4aidl7android8hardware8security7keymint21IKeyMintDeviceDefaultE"
    }
   ],
   "return_type" : "_ZTIb",
   "source_file" : "out/soong/.intermediates/hardware/interfaces/security/keymint/aidl/android.hardware.security.keymint-V1-ndk_platform-source/gen/include/aidl/android/hardware/security/keymint/IKeyMintDevice.h"
  },
  {
   "function_name" : "aidl::android::hardware::security::keymint::IKeyMintDeviceDefault::deleteKey",
   "linker_set_key" : "_ZN4aidl7android8hardware8security7keymint21IKeyMintDeviceDefault9deleteKeyERKNSt3__16vectorIhNS5_9allocatorIhEEEE",
   "parameters" :
   [
    {
     "is_this_ptr" : true,
     "referenced_type" : "_ZTIPN4aidl7android8hardware8security7keymint21IKeyMintDeviceDefaultE"
    },
    {
     "referenced_type" : "_ZTIRKNSt3__16vectorIhNS_9allocatorIhEEEE"
    }
   ],
   "return_type" : "_ZTIN3ndk13ScopedAStatusE",
   "source_file" : "out/soong/.intermediates/hardware/interfaces/security/keymint/aidl/android.hardware.security.keymint-V1-ndk_platform-source/gen/include/aidl/android/hardware/security/keymint/IKeyMintDevice.h"
  },
  {
   "function_name" : "aidl::android::hardware::security::keymint::IKeyMintDeviceDefault::importKey",
   "linker_set_key" : "_ZN4aidl7android8hardware8security7keymint21IKeyMintDeviceDefault9importKeyERKNSt3__16vectorINS3_12KeyParameterENS5_9allocatorIS7_EEEENS3_9KeyFormatERKNS6_IhNS8_IhEEEERKNS5_8optionalINS3_14AttestationKeyEEEPNS3_17KeyCreationResultE",
   "parameters" :
   [
    {
     "is_this_ptr" : true,
     "referenced_type" : "_ZTIPN4aidl7android8hardware8security7keymint21IKeyMintDeviceDefaultE"
    },
    {
     "referenced_type" : "_ZTIRKNSt3__16vectorIN4aidl7android8hardware8security7keymint12KeyParameterENS_9allocatorIS6_EEEE"
    },
    {
     "referenced_type" : "_ZTIN4aidl7android8hardware8security7keymint9KeyFormatE"
    },
    {
     "referenced_type" : "_ZTIRKNSt3__16vectorIhNS_9allocatorIhEEEE"
    },
    {
     "referenced_type" : "_ZTIRKNSt3__18optionalIN4aidl7android8hardware8security7keymint14AttestationKeyEEE"
    },
    {
     "referenced_type" : "_ZTIPN4aidl7android8hardware8security7keymint17KeyCreationResultE"
    }
   ],
   "return_type" : "_ZTIN3ndk13ScopedAStatusE",
   "source_file" : "out/soong/.intermediates/hardware/interfaces/security/keymint/aidl/android.hardware.security.keymint-V1-ndk_platform-source/gen/include/aidl/android/hardware/security/keymint/IKeyMintDevice.h"
  },
  {
   "function_name" : "aidl::android::hardware::security::keymint::IKeyMintOperationDefault::getInterfaceHash",
   "linker_set_key" : "_ZN4aidl7android8hardware8security7keymint24IKeyMintOperationDefault16getInterfaceHashEPNSt3__112basic_stringIcNS5_11char_traitsIcEENS5_9allocatorIcEEEE",
   "parameters" :
   [
    {
     "is_this_ptr" : true,
     "referenced_type" : "_ZTIPN4aidl7android8hardware8security7keymint24IKeyMintOperationDefaultE"
    },
    {
     "referenced_type" : "_ZTIPNSt3__112basic_stringIcNS_11char_traitsIcEENS_9allocatorIcEEEE"
    }
   ],
   "return_type" : "_ZTIN3ndk13ScopedAStatusE",
   "source_file" : "out/soong/.intermediates/hardware/interfaces/security/keymint/aidl/android.hardware.security.keymint-V1-ndk_platform-source/gen/include/aidl/android/hardware/security/keymint/IKeyMintOperation.h"
  },
  {
   "function_name" : "aidl::android::hardware::security::keymint::IKeyMintOperationDefault::getInterfaceVersion",
   "linker_set_key" : "_ZN4aidl7android8hardware8security7keymint24IKeyMintOperationDefault19getInterfaceVersionEPi",
   "parameters" :
   [
    {
     "is_this_ptr" : true,
     "referenced_type" : "_ZTIPN4aidl7android8hardware8security7keymint24IKeyMintOperationDefaultE"
    },
    {
     "referenced_type" : "_ZTIPi"
    }
   ],
   "return_type" : "_ZTIN3ndk13ScopedAStatusE",
   "source_file" : "out/soong/.intermediates/hardware/interfaces/security/keymint/aidl/android.hardware.security.keymint-V1-ndk_platform-source/gen/include/aidl/android/hardware/security/keymint/IKeyMintOperation.h"
  },
  {
   "function_name" : "aidl::android::hardware::security::keymint::IKeyMintOperationDefault::abort",
   "linker_set_key" : "_ZN4aidl7android8hardware8security7keymint24IKeyMintOperationDefault5abortEv",
   "parameters" :
   [
    {
     "is_this_ptr" : true,
     "referenced_type" : "_ZTIPN4aidl7android8hardware8security7keymint24IKeyMintOperationDefaultE"
    }
   ],
   "return_type" : "_ZTIN3ndk13ScopedAStatusE",
   "source_file" : "out/soong/.intermediates/hardware/interfaces/security/keymint/aidl/android.hardware.security.keymint-V1-ndk_platform-source/gen/include/aidl/android/hardware/security/keymint/IKeyMintOperation.h"
  },
  {
   "function_name" : "aidl::android::hardware::security::keymint::IKeyMintOperationDefault::finish",
   "linker_set_key" : "_ZN4aidl7android8hardware8security7keymint24IKeyMintOperationDefault6finishERKNSt3__18optionalINS5_6vectorIhNS5_9allocatorIhEEEEEESD_RKNS6_INS3_17HardwareAuthTokenEEERKNS6_INS2_11secureclock14TimeStampTokenEEESD_PSA_",
   "parameters" :
   [
    {
     "is_this_ptr" : true,
     "referenced_type" : "_ZTIPN4aidl7android8hardware8security7keymint24IKeyMintOperationDefaultE"
    },
    {
     "referenced_type" : "_ZTIRKNSt3__18optionalINS_6vectorIhNS_9allocatorIhEEEEEE"
    },
    {
     "referenced_type" : "_ZTIRKNSt3__18optionalINS_6vectorIhNS_9allocatorIhEEEEEE"
    },
    {
     "referenced_type" : "_ZTIRKNSt3__18optionalIN4aidl7android8hardware8security7keymint17HardwareAuthTokenEEE"
    },
    {
     "referenced_type" : "_ZTIRKNSt3__18optionalIN4aidl7android8hardware8security11secureclock14TimeStampTokenEEE"
    },
    {
     "referenced_type" : "_ZTIRKNSt3__18optionalINS_6vectorIhNS_9allocatorIhEEEEEE"
    },
    {
     "referenced_type" : "_ZTIPNSt3__16vectorIhNS_9allocatorIhEEEE"
    }
   ],
   "return_type" : "_ZTIN3ndk13ScopedAStatusE",
   "source_file" : "out/soong/.intermediates/hardware/interfaces/security/keymint/aidl/android.hardware.security.keymint-V1-ndk_platform-source/gen/include/aidl/android/hardware/security/keymint/IKeyMintOperation.h"
  },
  {
   "function_name" : "aidl::android::hardware::security::keymint::IKeyMintOperationDefault::update",
   "linker_set_key" : "_ZN4aidl7android8hardware8security7keymint24IKeyMintOperationDefault6updateERKNSt3__16vectorIhNS5_9allocatorIhEEEERKNS5_8optionalINS3_17HardwareAuthTokenEEERKNSC_INS2_11secureclock14TimeStampTokenEEEPS9_",
   "parameters" :
   [
    {
     "is_this_ptr" : true,
     "referenced_type" : "_ZTIPN4aidl7android8hardware8security7keymint24IKeyMintOperationDefaultE"
    },
    {
     "referenced_type" : "_ZTIRKNSt3__16vectorIhNS_9allocatorIhEEEE"
    },
    {
     "referenced_type" : "_ZTIRKNSt3__18optionalIN4aidl7android8hardware8security7keymint17HardwareAuthTokenEEE"
    },
    {
     "referenced_type" : "_ZTIRKNSt3__18optionalIN4aidl7android8hardware8security11secureclock14TimeStampTokenEEE"
    },
    {
     "referenced_type" : "_ZTIPNSt3__16vectorIhNS_9allocatorIhEEEE"
    }
   ],
   "return_type" : "_ZTIN3ndk13ScopedAStatusE",
   "source_file" : "out/soong/.intermediates/hardware/interfaces/security/keymint/aidl/android.hardware.security.keymint-V1-ndk_platform-source/gen/include/aidl/android/hardware/security/keymint/IKeyMintOperation.h"
  },
  {
   "function_name" : "aidl::android::hardware::security::keymint::IKeyMintOperationDefault::asBinder",
   "linker_set_key" : "_ZN4aidl7android8hardware8security7keymint24IKeyMintOperationDefault8asBinderEv",
   "parameters" :
   [
    {
     "is_this_ptr" : true,
     "referenced_type" : "_ZTIPN4aidl7android8hardware8security7keymint24IKeyMintOperationDefaultE"
    }
   ],
   "return_type" : "_ZTIN3ndk10SpAIBinderE",
   "source_file" : "out/soong/.intermediates/hardware/interfaces/security/keymint/aidl/android.hardware.security.keymint-V1-ndk_platform-source/gen/include/aidl/android/hardware/security/keymint/IKeyMintOperation.h"
  },
  {
   "function_name" : "aidl::android::hardware::security::keymint::IKeyMintOperationDefault::isRemote",
   "linker_set_key" : "_ZN4aidl7android8hardware8security7keymint24IKeyMintOperationDefault8isRemoteEv",
   "parameters" :
   [
    {
     "is_this_ptr" : true,
     "referenced_type" : "_ZTIPN4aidl7android8hardware8security7keymint24IKeyMintOperationDefaultE"
    }
   ],
   "return_type" : "_ZTIb",
   "source_file" : "out/soong/.intermediates/hardware/interfaces/security/keymint/aidl/android.hardware.security.keymint-V1-ndk_platform-source/gen/include/aidl/android/hardware/security/keymint/IKeyMintOperation.h"
  },
  {
   "function_name" : "aidl::android::hardware::security::keymint::IKeyMintOperationDefault::updateAad",
   "linker_set_key" : "_ZN4aidl7android8hardware8security7keymint24IKeyMintOperationDefault9updateAadERKNSt3__16vectorIhNS5_9allocatorIhEEEERKNS5_8optionalINS3_17HardwareAuthTokenEEERKNSC_INS2_11secureclock14TimeStampTokenEEE",
   "parameters" :
   [
    {
     "is_this_ptr" : true,
     "referenced_type" : "_ZTIPN4aidl7android8hardware8security7keymint24IKeyMintOperationDefaultE"
    },
    {
     "referenced_type" : "_ZTIRKNSt3__16vectorIhNS_9allocatorIhEEEE"
    },
    {
     "referenced_type" : "_ZTIRKNSt3__18optionalIN4aidl7android8hardware8security7keymint17HardwareAuthTokenEEE"
    },
    {
     "referenced_type" : "_ZTIRKNSt3__18optionalIN4aidl7android8hardware8security11secureclock14TimeStampTokenEEE"
    }
   ],
   "return_type" : "_ZTIN3ndk13ScopedAStatusE",
   "source_file" : "out/soong/.intermediates/hardware/interfaces/security/keymint/aidl/android.hardware.security.keymint-V1-ndk_platform-source/gen/include/aidl/android/hardware/security/keymint/IKeyMintOperation.h"
  },
  {
   "function_name" : "aidl::android::hardware::security::keymint::IRemotelyProvisionedComponent::fromBinder",
   "linker_set_key" : "_ZN4aidl7android8hardware8security7keymint29IRemotelyProvisionedComponent10fromBinderERKN3ndk10SpAIBinderE",
   "parameters" :
   [
    {
     "referenced_type" : "_ZTIRKN3ndk10SpAIBinderE"
    }
   ],
   "return_type" : "_ZTINSt3__110shared_ptrIN4aidl7android8hardware8security7keymint29IRemotelyProvisionedComponentEEE",
   "source_file" : "out/soong/.intermediates/hardware/interfaces/security/keymint/aidl/android.hardware.security.keymint-V1-ndk_platform-source/gen/include/aidl/android/hardware/security/keymint/IRemotelyProvisionedComponent.h"
  },
  {
   "function_name" : "aidl::android::hardware::security::keymint::IRemotelyProvisionedComponent::writeToParcel",
   "linker_set_key" : "_ZN4aidl7android8hardware8security7keymint29IRemotelyProvisionedComponent13writeToParcelEP7AParcelRKNSt3__110shared_ptrIS4_EE",
   "parameters" :
   [
    {
     "referenced_type" : "_ZTIP7AParcel"
    },
    {
     "referenced_type" : "_ZTIRKNSt3__110shared_ptrIN4aidl7android8hardware8security7keymint29IRemotelyProvisionedComponentEEE"
    }
   ],
   "return_type" : "_ZTIi",
   "source_file" : "out/soong/.intermediates/hardware/interfaces/security/keymint/aidl/android.hardware.security.keymint-V1-ndk_platform-source/gen/include/aidl/android/hardware/security/keymint/IRemotelyProvisionedComponent.h"
  },
  {
   "function_name" : "aidl::android::hardware::security::keymint::IRemotelyProvisionedComponent::getDefaultImpl",
   "linker_set_key" : "_ZN4aidl7android8hardware8security7keymint29IRemotelyProvisionedComponent14getDefaultImplEv",
   "return_type" : "_ZTIRKNSt3__110shared_ptrIN4aidl7android8hardware8security7keymint29IRemotelyProvisionedComponentEEE",
   "source_file" : "out/soong/.intermediates/hardware/interfaces/security/keymint/aidl/android.hardware.security.keymint-V1-ndk_platform-source/gen/include/aidl/android/hardware/security/keymint/IRemotelyProvisionedComponent.h"
  },
  {
   "function_name" : "aidl::android::hardware::security::keymint::IRemotelyProvisionedComponent::readFromParcel",
   "linker_set_key" : "_ZN4aidl7android8hardware8security7keymint29IRemotelyProvisionedComponent14readFromParcelEPK7AParcelPNSt3__110shared_ptrIS4_EE",
   "parameters" :
   [
    {
     "referenced_type" : "_ZTIPK7AParcel"
    },
    {
     "referenced_type" : "_ZTIPNSt3__110shared_ptrIN4aidl7android8hardware8security7keymint29IRemotelyProvisionedComponentEEE"
    }
   ],
   "return_type" : "_ZTIi",
   "source_file" : "out/soong/.intermediates/hardware/interfaces/security/keymint/aidl/android.hardware.security.keymint-V1-ndk_platform-source/gen/include/aidl/android/hardware/security/keymint/IRemotelyProvisionedComponent.h"
  },
  {
   "function_name" : "aidl::android::hardware::security::keymint::IRemotelyProvisionedComponent::setDefaultImpl",
   "linker_set_key" : "_ZN4aidl7android8hardware8security7keymint29IRemotelyProvisionedComponent14setDefaultImplERKNSt3__110shared_ptrIS4_EE",
   "parameters" :
   [
    {
     "referenced_type" : "_ZTIRKNSt3__110shared_ptrIN4aidl7android8hardware8security7keymint29IRemotelyProvisionedComponentEEE"
    }
   ],
   "return_type" : "_ZTIb",
   "source_file" : "out/soong/.intermediates/hardware/interfaces/security/keymint/aidl/android.hardware.security.keymint-V1-ndk_platform-source/gen/include/aidl/android/hardware/security/keymint/IRemotelyProvisionedComponent.h"
  },
  {
   "function_name" : "aidl::android::hardware::security::keymint::IRemotelyProvisionedComponent::IRemotelyProvisionedComponent",
   "linker_set_key" : "_ZN4aidl7android8hardware8security7keymint29IRemotelyProvisionedComponentC2Ev",
   "parameters" :
   [
    {
     "is_this_ptr" : true,
     "referenced_type" : "_ZTIPN4aidl7android8hardware8security7keymint29IRemotelyProvisionedComponentE"
    }
   ],
   "return_type" : "_ZTIv",
   "source_file" : "out/soong/.intermediates/hardware/interfaces/security/keymint/aidl/android.hardware.security.keymint-V1-ndk_platform-source/gen/include/aidl/android/hardware/security/keymint/IRemotelyProvisionedComponent.h"
  },
  {
   "function_name" : "aidl::android::hardware::security::keymint::IRemotelyProvisionedComponent::~IRemotelyProvisionedComponent",
   "linker_set_key" : "_ZN4aidl7android8hardware8security7keymint29IRemotelyProvisionedComponentD0Ev",
   "parameters" :
   [
    {
     "is_this_ptr" : true,
     "referenced_type" : "_ZTIPN4aidl7android8hardware8security7keymint29IRemotelyProvisionedComponentE"
    }
   ],
   "return_type" : "_ZTIv",
   "source_file" : "out/soong/.intermediates/hardware/interfaces/security/keymint/aidl/android.hardware.security.keymint-V1-ndk_platform-source/gen/include/aidl/android/hardware/security/keymint/IRemotelyProvisionedComponent.h"
  },
  {
   "function_name" : "aidl::android::hardware::security::keymint::IRemotelyProvisionedComponent::~IRemotelyProvisionedComponent",
   "linker_set_key" : "_ZN4aidl7android8hardware8security7keymint29IRemotelyProvisionedComponentD1Ev",
   "parameters" :
   [
    {
     "is_this_ptr" : true,
     "referenced_type" : "_ZTIPN4aidl7android8hardware8security7keymint29IRemotelyProvisionedComponentE"
    }
   ],
   "return_type" : "_ZTIv",
   "source_file" : "out/soong/.intermediates/hardware/interfaces/security/keymint/aidl/android.hardware.security.keymint-V1-ndk_platform-source/gen/include/aidl/android/hardware/security/keymint/IRemotelyProvisionedComponent.h"
  },
  {
   "function_name" : "aidl::android::hardware::security::keymint::IRemotelyProvisionedComponent::~IRemotelyProvisionedComponent",
   "linker_set_key" : "_ZN4aidl7android8hardware8security7keymint29IRemotelyProvisionedComponentD2Ev",
   "parameters" :
   [
    {
     "is_this_ptr" : true,
     "referenced_type" : "_ZTIPN4aidl7android8hardware8security7keymint29IRemotelyProvisionedComponentE"
    }
   ],
   "return_type" : "_ZTIv",
   "source_file" : "out/soong/.intermediates/hardware/interfaces/security/keymint/aidl/android.hardware.security.keymint-V1-ndk_platform-source/gen/include/aidl/android/hardware/security/keymint/IRemotelyProvisionedComponent.h"
  },
  {
   "access" : "protected",
   "function_name" : "aidl::android::hardware::security::keymint::BnRemotelyProvisionedComponent::createBinder",
   "linker_set_key" : "_ZN4aidl7android8hardware8security7keymint30BnRemotelyProvisionedComponent12createBinderEv",
   "parameters" :
   [
    {
     "is_this_ptr" : true,
     "referenced_type" : "_ZTIPN4aidl7android8hardware8security7keymint30BnRemotelyProvisionedComponentE"
    }
   ],
   "return_type" : "_ZTIN3ndk10SpAIBinderE",
   "source_file" : "out/soong/.intermediates/hardware/interfaces/security/keymint/aidl/android.hardware.security.keymint-V1-ndk_platform-source/gen/include/aidl/android/hardware/security/keymint/BnRemotelyProvisionedComponent.h"
  },
  {
   "function_name" : "aidl::android::hardware::security::keymint::BnRemotelyProvisionedComponent::getInterfaceHash",
   "linker_set_key" : "_ZN4aidl7android8hardware8security7keymint30BnRemotelyProvisionedComponent16getInterfaceHashEPNSt3__112basic_stringIcNS5_11char_traitsIcEENS5_9allocatorIcEEEE",
   "parameters" :
   [
    {
     "is_this_ptr" : true,
     "referenced_type" : "_ZTIPN4aidl7android8hardware8security7keymint30BnRemotelyProvisionedComponentE"
    },
    {
     "referenced_type" : "_ZTIPNSt3__112basic_stringIcNS_11char_traitsIcEENS_9allocatorIcEEEE"
    }
   ],
   "return_type" : "_ZTIN3ndk13ScopedAStatusE",
   "source_file" : "out/soong/.intermediates/hardware/interfaces/security/keymint/aidl/android.hardware.security.keymint-V1-ndk_platform-source/gen/include/aidl/android/hardware/security/keymint/BnRemotelyProvisionedComponent.h"
  },
  {
   "function_name" : "aidl::android::hardware::security::keymint::BnRemotelyProvisionedComponent::getInterfaceVersion",
   "linker_set_key" : "_ZN4aidl7android8hardware8security7keymint30BnRemotelyProvisionedComponent19getInterfaceVersionEPi",
   "parameters" :
   [
    {
     "is_this_ptr" : true,
     "referenced_type" : "_ZTIPN4aidl7android8hardware8security7keymint30BnRemotelyProvisionedComponentE"
    },
    {
     "referenced_type" : "_ZTIPi"
    }
   ],
   "return_type" : "_ZTIN3ndk13ScopedAStatusE",
   "source_file" : "out/soong/.intermediates/hardware/interfaces/security/keymint/aidl/android.hardware.security.keymint-V1-ndk_platform-source/gen/include/aidl/android/hardware/security/keymint/BnRemotelyProvisionedComponent.h"
  },
  {
   "function_name" : "aidl::android::hardware::security::keymint::BnRemotelyProvisionedComponent::BnRemotelyProvisionedComponent",
   "linker_set_key" : "_ZN4aidl7android8hardware8security7keymint30BnRemotelyProvisionedComponentC2Ev",
   "parameters" :
   [
    {
     "is_this_ptr" : true,
     "referenced_type" : "_ZTIPN4aidl7android8hardware8security7keymint30BnRemotelyProvisionedComponentE"
    }
   ],
   "return_type" : "_ZTIv",
   "source_file" : "out/soong/.intermediates/hardware/interfaces/security/keymint/aidl/android.hardware.security.keymint-V1-ndk_platform-source/gen/include/aidl/android/hardware/security/keymint/BnRemotelyProvisionedComponent.h"
  },
  {
   "function_name" : "aidl::android::hardware::security::keymint::BnRemotelyProvisionedComponent::~BnRemotelyProvisionedComponent",
   "linker_set_key" : "_ZN4aidl7android8hardware8security7keymint30BnRemotelyProvisionedComponentD0Ev",
   "parameters" :
   [
    {
     "is_this_ptr" : true,
     "referenced_type" : "_ZTIPN4aidl7android8hardware8security7keymint30BnRemotelyProvisionedComponentE"
    }
   ],
   "return_type" : "_ZTIv",
   "source_file" : "out/soong/.intermediates/hardware/interfaces/security/keymint/aidl/android.hardware.security.keymint-V1-ndk_platform-source/gen/include/aidl/android/hardware/security/keymint/BnRemotelyProvisionedComponent.h"
  },
  {
   "function_name" : "aidl::android::hardware::security::keymint::BnRemotelyProvisionedComponent::~BnRemotelyProvisionedComponent",
   "linker_set_key" : "_ZN4aidl7android8hardware8security7keymint30BnRemotelyProvisionedComponentD1Ev",
   "parameters" :
   [
    {
     "is_this_ptr" : true,
     "referenced_type" : "_ZTIPN4aidl7android8hardware8security7keymint30BnRemotelyProvisionedComponentE"
    }
   ],
   "return_type" : "_ZTIv",
   "source_file" : "out/soong/.intermediates/hardware/interfaces/security/keymint/aidl/android.hardware.security.keymint-V1-ndk_platform-source/gen/include/aidl/android/hardware/security/keymint/BnRemotelyProvisionedComponent.h"
  },
  {
   "function_name" : "aidl::android::hardware::security::keymint::BnRemotelyProvisionedComponent::~BnRemotelyProvisionedComponent",
   "linker_set_key" : "_ZN4aidl7android8hardware8security7keymint30BnRemotelyProvisionedComponentD2Ev",
   "parameters" :
   [
    {
     "is_this_ptr" : true,
     "referenced_type" : "_ZTIPN4aidl7android8hardware8security7keymint30BnRemotelyProvisionedComponentE"
    }
   ],
   "return_type" : "_ZTIv",
   "source_file" : "out/soong/.intermediates/hardware/interfaces/security/keymint/aidl/android.hardware.security.keymint-V1-ndk_platform-source/gen/include/aidl/android/hardware/security/keymint/BnRemotelyProvisionedComponent.h"
  },
  {
   "function_name" : "aidl::android::hardware::security::keymint::BpRemotelyProvisionedComponent::getHardwareInfo",
   "linker_set_key" : "_ZN4aidl7android8hardware8security7keymint30BpRemotelyProvisionedComponent15getHardwareInfoEPNS3_15RpcHardwareInfoE",
   "parameters" :
   [
    {
     "is_this_ptr" : true,
     "referenced_type" : "_ZTIPN4aidl7android8hardware8security7keymint30BpRemotelyProvisionedComponentE"
    },
    {
     "referenced_type" : "_ZTIPN4aidl7android8hardware8security7keymint15RpcHardwareInfoE"
    }
   ],
   "return_type" : "_ZTIN3ndk13ScopedAStatusE",
   "source_file" : "out/soong/.intermediates/hardware/interfaces/security/keymint/aidl/android.hardware.security.keymint-V1-ndk_platform-source/gen/include/aidl/android/hardware/security/keymint/BpRemotelyProvisionedComponent.h"
  },
  {
   "function_name" : "aidl::android::hardware::security::keymint::BpRemotelyProvisionedComponent::getInterfaceHash",
   "linker_set_key" : "_ZN4aidl7android8hardware8security7keymint30BpRemotelyProvisionedComponent16getInterfaceHashEPNSt3__112basic_stringIcNS5_11char_traitsIcEENS5_9allocatorIcEEEE",
   "parameters" :
   [
    {
     "is_this_ptr" : true,
     "referenced_type" : "_ZTIPN4aidl7android8hardware8security7keymint30BpRemotelyProvisionedComponentE"
    },
    {
     "referenced_type" : "_ZTIPNSt3__112basic_stringIcNS_11char_traitsIcEENS_9allocatorIcEEEE"
    }
   ],
   "return_type" : "_ZTIN3ndk13ScopedAStatusE",
   "source_file" : "out/soong/.intermediates/hardware/interfaces/security/keymint/aidl/android.hardware.security.keymint-V1-ndk_platform-source/gen/include/aidl/android/hardware/security/keymint/BpRemotelyProvisionedComponent.h"
  },
  {
   "function_name" : "aidl::android::hardware::security::keymint::BpRemotelyProvisionedComponent::getInterfaceVersion",
   "linker_set_key" : "_ZN4aidl7android8hardware8security7keymint30BpRemotelyProvisionedComponent19getInterfaceVersionEPi",
   "parameters" :
   [
    {
     "is_this_ptr" : true,
     "referenced_type" : "_ZTIPN4aidl7android8hardware8security7keymint30BpRemotelyProvisionedComponentE"
    },
    {
     "referenced_type" : "_ZTIPi"
    }
   ],
   "return_type" : "_ZTIN3ndk13ScopedAStatusE",
   "source_file" : "out/soong/.intermediates/hardware/interfaces/security/keymint/aidl/android.hardware.security.keymint-V1-ndk_platform-source/gen/include/aidl/android/hardware/security/keymint/BpRemotelyProvisionedComponent.h"
  },
  {
   "function_name" : "aidl::android::hardware::security::keymint::BpRemotelyProvisionedComponent::generateEcdsaP256KeyPair",
   "linker_set_key" : "_ZN4aidl7android8hardware8security7keymint30BpRemotelyProvisionedComponent24generateEcdsaP256KeyPairEbPNS3_14MacedPublicKeyEPNSt3__16vectorIhNS7_9allocatorIhEEEE",
   "parameters" :
   [
    {
     "is_this_ptr" : true,
     "referenced_type" : "_ZTIPN4aidl7android8hardware8security7keymint30BpRemotelyProvisionedComponentE"
    },
    {
     "referenced_type" : "_ZTIb"
    },
    {
     "referenced_type" : "_ZTIPN4aidl7android8hardware8security7keymint14MacedPublicKeyE"
    },
    {
     "referenced_type" : "_ZTIPNSt3__16vectorIhNS_9allocatorIhEEEE"
    }
   ],
   "return_type" : "_ZTIN3ndk13ScopedAStatusE",
   "source_file" : "out/soong/.intermediates/hardware/interfaces/security/keymint/aidl/android.hardware.security.keymint-V1-ndk_platform-source/gen/include/aidl/android/hardware/security/keymint/BpRemotelyProvisionedComponent.h"
  },
  {
   "function_name" : "aidl::android::hardware::security::keymint::BpRemotelyProvisionedComponent::generateCertificateRequest",
   "linker_set_key" : "_ZN4aidl7android8hardware8security7keymint30BpRemotelyProvisionedComponent26generateCertificateRequestEbRKNSt3__16vectorINS3_14MacedPublicKeyENS5_9allocatorIS7_EEEERKNS6_IhNS8_IhEEEESG_PNS3_10DeviceInfoEPNS3_13ProtectedDataEPSE_",
   "parameters" :
   [
    {
     "is_this_ptr" : true,
     "referenced_type" : "_ZTIPN4aidl7android8hardware8security7keymint30BpRemotelyProvisionedComponentE"
    },
    {
     "referenced_type" : "_ZTIb"
    },
    {
     "referenced_type" : "_ZTIRKNSt3__16vectorIN4aidl7android8hardware8security7keymint14MacedPublicKeyENS_9allocatorIS6_EEEE"
    },
    {
     "referenced_type" : "_ZTIRKNSt3__16vectorIhNS_9allocatorIhEEEE"
    },
    {
     "referenced_type" : "_ZTIRKNSt3__16vectorIhNS_9allocatorIhEEEE"
    },
    {
     "referenced_type" : "_ZTIPN4aidl7android8hardware8security7keymint10DeviceInfoE"
    },
    {
     "referenced_type" : "_ZTIPN4aidl7android8hardware8security7keymint13ProtectedDataE"
    },
    {
     "referenced_type" : "_ZTIPNSt3__16vectorIhNS_9allocatorIhEEEE"
    }
   ],
   "return_type" : "_ZTIN3ndk13ScopedAStatusE",
   "source_file" : "out/soong/.intermediates/hardware/interfaces/security/keymint/aidl/android.hardware.security.keymint-V1-ndk_platform-source/gen/include/aidl/android/hardware/security/keymint/BpRemotelyProvisionedComponent.h"
  },
  {
   "function_name" : "aidl::android::hardware::security::keymint::BpRemotelyProvisionedComponent::BpRemotelyProvisionedComponent",
   "linker_set_key" : "_ZN4aidl7android8hardware8security7keymint30BpRemotelyProvisionedComponentC1ERKN3ndk10SpAIBinderE",
   "parameters" :
   [
    {
     "is_this_ptr" : true,
     "referenced_type" : "_ZTIPN4aidl7android8hardware8security7keymint30BpRemotelyProvisionedComponentE"
    },
    {
     "referenced_type" : "_ZTIRKN3ndk10SpAIBinderE"
    }
   ],
   "return_type" : "_ZTIv",
   "source_file" : "out/soong/.intermediates/hardware/interfaces/security/keymint/aidl/android.hardware.security.keymint-V1-ndk_platform-source/gen/include/aidl/android/hardware/security/keymint/BpRemotelyProvisionedComponent.h"
  },
  {
   "function_name" : "aidl::android::hardware::security::keymint::BpRemotelyProvisionedComponent::BpRemotelyProvisionedComponent",
   "linker_set_key" : "_ZN4aidl7android8hardware8security7keymint30BpRemotelyProvisionedComponentC2ERKN3ndk10SpAIBinderE",
   "parameters" :
   [
    {
     "is_this_ptr" : true,
     "referenced_type" : "_ZTIPN4aidl7android8hardware8security7keymint30BpRemotelyProvisionedComponentE"
    },
    {
     "referenced_type" : "_ZTIRKN3ndk10SpAIBinderE"
    }
   ],
   "return_type" : "_ZTIv",
   "source_file" : "out/soong/.intermediates/hardware/interfaces/security/keymint/aidl/android.hardware.security.keymint-V1-ndk_platform-source/gen/include/aidl/android/hardware/security/keymint/BpRemotelyProvisionedComponent.h"
  },
  {
   "function_name" : "aidl::android::hardware::security::keymint::BpRemotelyProvisionedComponent::~BpRemotelyProvisionedComponent",
   "linker_set_key" : "_ZN4aidl7android8hardware8security7keymint30BpRemotelyProvisionedComponentD0Ev",
   "parameters" :
   [
    {
     "is_this_ptr" : true,
     "referenced_type" : "_ZTIPN4aidl7android8hardware8security7keymint30BpRemotelyProvisionedComponentE"
    }
   ],
   "return_type" : "_ZTIv",
   "source_file" : "out/soong/.intermediates/hardware/interfaces/security/keymint/aidl/android.hardware.security.keymint-V1-ndk_platform-source/gen/include/aidl/android/hardware/security/keymint/BpRemotelyProvisionedComponent.h"
  },
  {
   "function_name" : "aidl::android::hardware::security::keymint::BpRemotelyProvisionedComponent::~BpRemotelyProvisionedComponent",
   "linker_set_key" : "_ZN4aidl7android8hardware8security7keymint30BpRemotelyProvisionedComponentD1Ev",
   "parameters" :
   [
    {
     "is_this_ptr" : true,
     "referenced_type" : "_ZTIPN4aidl7android8hardware8security7keymint30BpRemotelyProvisionedComponentE"
    }
   ],
   "return_type" : "_ZTIv",
   "source_file" : "out/soong/.intermediates/hardware/interfaces/security/keymint/aidl/android.hardware.security.keymint-V1-ndk_platform-source/gen/include/aidl/android/hardware/security/keymint/BpRemotelyProvisionedComponent.h"
  },
  {
   "function_name" : "aidl::android::hardware::security::keymint::BpRemotelyProvisionedComponent::~BpRemotelyProvisionedComponent",
   "linker_set_key" : "_ZN4aidl7android8hardware8security7keymint30BpRemotelyProvisionedComponentD2Ev",
   "parameters" :
   [
    {
     "is_this_ptr" : true,
     "referenced_type" : "_ZTIPN4aidl7android8hardware8security7keymint30BpRemotelyProvisionedComponentE"
    }
   ],
   "return_type" : "_ZTIv",
   "source_file" : "out/soong/.intermediates/hardware/interfaces/security/keymint/aidl/android.hardware.security.keymint-V1-ndk_platform-source/gen/include/aidl/android/hardware/security/keymint/BpRemotelyProvisionedComponent.h"
  },
  {
   "function_name" : "aidl::android::hardware::security::keymint::IRemotelyProvisionedComponentDefault::getHardwareInfo",
   "linker_set_key" : "_ZN4aidl7android8hardware8security7keymint36IRemotelyProvisionedComponentDefault15getHardwareInfoEPNS3_15RpcHardwareInfoE",
   "parameters" :
   [
    {
     "is_this_ptr" : true,
     "referenced_type" : "_ZTIPN4aidl7android8hardware8security7keymint36IRemotelyProvisionedComponentDefaultE"
    },
    {
     "referenced_type" : "_ZTIPN4aidl7android8hardware8security7keymint15RpcHardwareInfoE"
    }
   ],
   "return_type" : "_ZTIN3ndk13ScopedAStatusE",
   "source_file" : "out/soong/.intermediates/hardware/interfaces/security/keymint/aidl/android.hardware.security.keymint-V1-ndk_platform-source/gen/include/aidl/android/hardware/security/keymint/IRemotelyProvisionedComponent.h"
  },
  {
   "function_name" : "aidl::android::hardware::security::keymint::IRemotelyProvisionedComponentDefault::getInterfaceHash",
   "linker_set_key" : "_ZN4aidl7android8hardware8security7keymint36IRemotelyProvisionedComponentDefault16getInterfaceHashEPNSt3__112basic_stringIcNS5_11char_traitsIcEENS5_9allocatorIcEEEE",
   "parameters" :
   [
    {
     "is_this_ptr" : true,
     "referenced_type" : "_ZTIPN4aidl7android8hardware8security7keymint36IRemotelyProvisionedComponentDefaultE"
    },
    {
     "referenced_type" : "_ZTIPNSt3__112basic_stringIcNS_11char_traitsIcEENS_9allocatorIcEEEE"
    }
   ],
   "return_type" : "_ZTIN3ndk13ScopedAStatusE",
   "source_file" : "out/soong/.intermediates/hardware/interfaces/security/keymint/aidl/android.hardware.security.keymint-V1-ndk_platform-source/gen/include/aidl/android/hardware/security/keymint/IRemotelyProvisionedComponent.h"
  },
  {
   "function_name" : "aidl::android::hardware::security::keymint::IRemotelyProvisionedComponentDefault::getInterfaceVersion",
   "linker_set_key" : "_ZN4aidl7android8hardware8security7keymint36IRemotelyProvisionedComponentDefault19getInterfaceVersionEPi",
   "parameters" :
   [
    {
     "is_this_ptr" : true,
     "referenced_type" : "_ZTIPN4aidl7android8hardware8security7keymint36IRemotelyProvisionedComponentDefaultE"
    },
    {
     "referenced_type" : "_ZTIPi"
    }
   ],
   "return_type" : "_ZTIN3ndk13ScopedAStatusE",
   "source_file" : "out/soong/.intermediates/hardware/interfaces/security/keymint/aidl/android.hardware.security.keymint-V1-ndk_platform-source/gen/include/aidl/android/hardware/security/keymint/IRemotelyProvisionedComponent.h"
  },
  {
   "function_name" : "aidl::android::hardware::security::keymint::IRemotelyProvisionedComponentDefault::generateEcdsaP256KeyPair",
   "linker_set_key" : "_ZN4aidl7android8hardware8security7keymint36IRemotelyProvisionedComponentDefault24generateEcdsaP256KeyPairEbPNS3_14MacedPublicKeyEPNSt3__16vectorIhNS7_9allocatorIhEEEE",
   "parameters" :
   [
    {
     "is_this_ptr" : true,
     "referenced_type" : "_ZTIPN4aidl7android8hardware8security7keymint36IRemotelyProvisionedComponentDefaultE"
    },
    {
     "referenced_type" : "_ZTIb"
    },
    {
     "referenced_type" : "_ZTIPN4aidl7android8hardware8security7keymint14MacedPublicKeyE"
    },
    {
     "referenced_type" : "_ZTIPNSt3__16vectorIhNS_9allocatorIhEEEE"
    }
   ],
   "return_type" : "_ZTIN3ndk13ScopedAStatusE",
   "source_file" : "out/soong/.intermediates/hardware/interfaces/security/keymint/aidl/android.hardware.security.keymint-V1-ndk_platform-source/gen/include/aidl/android/hardware/security/keymint/IRemotelyProvisionedComponent.h"
  },
  {
   "function_name" : "aidl::android::hardware::security::keymint::IRemotelyProvisionedComponentDefault::generateCertificateRequest",
   "linker_set_key" : "_ZN4aidl7android8hardware8security7keymint36IRemotelyProvisionedComponentDefault26generateCertificateRequestEbRKNSt3__16vectorINS3_14MacedPublicKeyENS5_9allocatorIS7_EEEERKNS6_IhNS8_IhEEEESG_PNS3_10DeviceInfoEPNS3_13ProtectedDataEPSE_",
   "parameters" :
   [
    {
     "is_this_ptr" : true,
     "referenced_type" : "_ZTIPN4aidl7android8hardware8security7keymint36IRemotelyProvisionedComponentDefaultE"
    },
    {
     "referenced_type" : "_ZTIb"
    },
    {
     "referenced_type" : "_ZTIRKNSt3__16vectorIN4aidl7android8hardware8security7keymint14MacedPublicKeyENS_9allocatorIS6_EEEE"
    },
    {
     "referenced_type" : "_ZTIRKNSt3__16vectorIhNS_9allocatorIhEEEE"
    },
    {
     "referenced_type" : "_ZTIRKNSt3__16vectorIhNS_9allocatorIhEEEE"
    },
    {
     "referenced_type" : "_ZTIPN4aidl7android8hardware8security7keymint10DeviceInfoE"
    },
    {
     "referenced_type" : "_ZTIPN4aidl7android8hardware8security7keymint13ProtectedDataE"
    },
    {
     "referenced_type" : "_ZTIPNSt3__16vectorIhNS_9allocatorIhEEEE"
    }
   ],
   "return_type" : "_ZTIN3ndk13ScopedAStatusE",
   "source_file" : "out/soong/.intermediates/hardware/interfaces/security/keymint/aidl/android.hardware.security.keymint-V1-ndk_platform-source/gen/include/aidl/android/hardware/security/keymint/IRemotelyProvisionedComponent.h"
  },
  {
   "function_name" : "aidl::android::hardware::security::keymint::IRemotelyProvisionedComponentDefault::asBinder",
   "linker_set_key" : "_ZN4aidl7android8hardware8security7keymint36IRemotelyProvisionedComponentDefault8asBinderEv",
   "parameters" :
   [
    {
     "is_this_ptr" : true,
     "referenced_type" : "_ZTIPN4aidl7android8hardware8security7keymint36IRemotelyProvisionedComponentDefaultE"
    }
   ],
   "return_type" : "_ZTIN3ndk10SpAIBinderE",
   "source_file" : "out/soong/.intermediates/hardware/interfaces/security/keymint/aidl/android.hardware.security.keymint-V1-ndk_platform-source/gen/include/aidl/android/hardware/security/keymint/IRemotelyProvisionedComponent.h"
  },
  {
   "function_name" : "aidl::android::hardware::security::keymint::IRemotelyProvisionedComponentDefault::isRemote",
   "linker_set_key" : "_ZN4aidl7android8hardware8security7keymint36IRemotelyProvisionedComponentDefault8isRemoteEv",
   "parameters" :
   [
    {
     "is_this_ptr" : true,
     "referenced_type" : "_ZTIPN4aidl7android8hardware8security7keymint36IRemotelyProvisionedComponentDefaultE"
    }
   ],
   "return_type" : "_ZTIb",
   "source_file" : "out/soong/.intermediates/hardware/interfaces/security/keymint/aidl/android.hardware.security.keymint-V1-ndk_platform-source/gen/include/aidl/android/hardware/security/keymint/IRemotelyProvisionedComponent.h"
  },
  {
   "function_name" : "aidl::android::hardware::security::keymint::DeviceInfo::writeToParcel",
   "linker_set_key" : "_ZNK4aidl7android8hardware8security7keymint10DeviceInfo13writeToParcelEP7AParcel",
   "parameters" :
   [
    {
     "is_this_ptr" : true,
     "referenced_type" : "_ZTIPKN4aidl7android8hardware8security7keymint10DeviceInfoE"
    },
    {
     "referenced_type" : "_ZTIP7AParcel"
    }
   ],
   "return_type" : "_ZTIi",
   "source_file" : "out/soong/.intermediates/hardware/interfaces/security/keymint/aidl/android.hardware.security.keymint-V1-ndk_platform-source/gen/include/aidl/android/hardware/security/keymint/DeviceInfo.h"
  },
  {
   "function_name" : "aidl::android::hardware::security::keymint::BeginResult::writeToParcel",
   "linker_set_key" : "_ZNK4aidl7android8hardware8security7keymint11BeginResult13writeToParcelEP7AParcel",
   "parameters" :
   [
    {
     "is_this_ptr" : true,
     "referenced_type" : "_ZTIPKN4aidl7android8hardware8security7keymint11BeginResultE"
    },
    {
     "referenced_type" : "_ZTIP7AParcel"
    }
   ],
   "return_type" : "_ZTIi",
   "source_file" : "out/soong/.intermediates/hardware/interfaces/security/keymint/aidl/android.hardware.security.keymint-V1-ndk_platform-source/gen/include/aidl/android/hardware/security/keymint/BeginResult.h"
  },
  {
   "function_name" : "aidl::android::hardware::security::keymint::Certificate::writeToParcel",
   "linker_set_key" : "_ZNK4aidl7android8hardware8security7keymint11Certificate13writeToParcelEP7AParcel",
   "parameters" :
   [
    {
     "is_this_ptr" : true,
     "referenced_type" : "_ZTIPKN4aidl7android8hardware8security7keymint11CertificateE"
    },
    {
     "referenced_type" : "_ZTIP7AParcel"
    }
   ],
   "return_type" : "_ZTIi",
   "source_file" : "out/soong/.intermediates/hardware/interfaces/security/keymint/aidl/android.hardware.security.keymint-V1-ndk_platform-source/gen/include/aidl/android/hardware/security/keymint/Certificate.h"
  },
  {
   "function_name" : "aidl::android::hardware::security::keymint::KeyParameter::writeToParcel",
   "linker_set_key" : "_ZNK4aidl7android8hardware8security7keymint12KeyParameter13writeToParcelEP7AParcel",
   "parameters" :
   [
    {
     "is_this_ptr" : true,
     "referenced_type" : "_ZTIPKN4aidl7android8hardware8security7keymint12KeyParameterE"
    },
    {
     "referenced_type" : "_ZTIP7AParcel"
    }
   ],
   "return_type" : "_ZTIi",
   "source_file" : "out/soong/.intermediates/hardware/interfaces/security/keymint/aidl/android.hardware.security.keymint-V1-ndk_platform-source/gen/include/aidl/android/hardware/security/keymint/KeyParameter.h"
  },
  {
   "function_name" : "aidl::android::hardware::security::keymint::ProtectedData::writeToParcel",
   "linker_set_key" : "_ZNK4aidl7android8hardware8security7keymint13ProtectedData13writeToParcelEP7AParcel",
   "parameters" :
   [
    {
     "is_this_ptr" : true,
     "referenced_type" : "_ZTIPKN4aidl7android8hardware8security7keymint13ProtectedDataE"
    },
    {
     "referenced_type" : "_ZTIP7AParcel"
    }
   ],
   "return_type" : "_ZTIi",
   "source_file" : "out/soong/.intermediates/hardware/interfaces/security/keymint/aidl/android.hardware.security.keymint-V1-ndk_platform-source/gen/include/aidl/android/hardware/security/keymint/ProtectedData.h"
  },
  {
   "function_name" : "aidl::android::hardware::security::keymint::AttestationKey::writeToParcel",
   "linker_set_key" : "_ZNK4aidl7android8hardware8security7keymint14AttestationKey13writeToParcelEP7AParcel",
   "parameters" :
   [
    {
     "is_this_ptr" : true,
     "referenced_type" : "_ZTIPKN4aidl7android8hardware8security7keymint14AttestationKeyE"
    },
    {
     "referenced_type" : "_ZTIP7AParcel"
    }
   ],
   "return_type" : "_ZTIi",
   "source_file" : "out/soong/.intermediates/hardware/interfaces/security/keymint/aidl/android.hardware.security.keymint-V1-ndk_platform-source/gen/include/aidl/android/hardware/security/keymint/AttestationKey.h"
  },
  {
   "function_name" : "aidl::android::hardware::security::keymint::MacedPublicKey::writeToParcel",
   "linker_set_key" : "_ZNK4aidl7android8hardware8security7keymint14MacedPublicKey13writeToParcelEP7AParcel",
   "parameters" :
   [
    {
     "is_this_ptr" : true,
     "referenced_type" : "_ZTIPKN4aidl7android8hardware8security7keymint14MacedPublicKeyE"
    },
    {
     "referenced_type" : "_ZTIP7AParcel"
    }
   ],
   "return_type" : "_ZTIi",
   "source_file" : "out/soong/.intermediates/hardware/interfaces/security/keymint/aidl/android.hardware.security.keymint-V1-ndk_platform-source/gen/include/aidl/android/hardware/security/keymint/MacedPublicKey.h"
  },
  {
   "function_name" : "aidl::android::hardware::security::keymint::RpcHardwareInfo::writeToParcel",
   "linker_set_key" : "_ZNK4aidl7android8hardware8security7keymint15RpcHardwareInfo13writeToParcelEP7AParcel",
   "parameters" :
   [
    {
     "is_this_ptr" : true,
     "referenced_type" : "_ZTIPKN4aidl7android8hardware8security7keymint15RpcHardwareInfoE"
    },
    {
     "referenced_type" : "_ZTIP7AParcel"
    }
   ],
   "return_type" : "_ZTIi",
   "source_file" : "out/soong/.intermediates/hardware/interfaces/security/keymint/aidl/android.hardware.security.keymint-V1-ndk_platform-source/gen/include/aidl/android/hardware/security/keymint/RpcHardwareInfo.h"
  },
  {
   "function_name" : "aidl::android::hardware::security::keymint::HardwareAuthToken::writeToParcel",
   "linker_set_key" : "_ZNK4aidl7android8hardware8security7keymint17HardwareAuthToken13writeToParcelEP7AParcel",
   "parameters" :
   [
    {
     "is_this_ptr" : true,
     "referenced_type" : "_ZTIPKN4aidl7android8hardware8security7keymint17HardwareAuthTokenE"
    },
    {
     "referenced_type" : "_ZTIP7AParcel"
    }
   ],
   "return_type" : "_ZTIi",
   "source_file" : "out/soong/.intermediates/hardware/interfaces/security/keymint/aidl/android.hardware.security.keymint-V1-ndk_platform-source/gen/include/aidl/android/hardware/security/keymint/HardwareAuthToken.h"
  },
  {
   "function_name" : "aidl::android::hardware::security::keymint::KeyCreationResult::writeToParcel",
   "linker_set_key" : "_ZNK4aidl7android8hardware8security7keymint17KeyCreationResult13writeToParcelEP7AParcel",
   "parameters" :
   [
    {
     "is_this_ptr" : true,
     "referenced_type" : "_ZTIPKN4aidl7android8hardware8security7keymint17KeyCreationResultE"
    },
    {
     "referenced_type" : "_ZTIP7AParcel"
    }
   ],
   "return_type" : "_ZTIi",
   "source_file" : "out/soong/.intermediates/hardware/interfaces/security/keymint/aidl/android.hardware.security.keymint-V1-ndk_platform-source/gen/include/aidl/android/hardware/security/keymint/KeyCreationResult.h"
  },
  {
   "function_name" : "aidl::android::hardware::security::keymint::KeyParameterValue::writeToParcel",
   "linker_set_key" : "_ZNK4aidl7android8hardware8security7keymint17KeyParameterValue13writeToParcelEP7AParcel",
   "parameters" :
   [
    {
     "is_this_ptr" : true,
     "referenced_type" : "_ZTIPKN4aidl7android8hardware8security7keymint17KeyParameterValueE"
    },
    {
     "referenced_type" : "_ZTIP7AParcel"
    }
   ],
   "return_type" : "_ZTIi",
   "source_file" : "out/soong/.intermediates/hardware/interfaces/security/keymint/aidl/android.hardware.security.keymint-V1-ndk_platform-source/gen/include/aidl/android/hardware/security/keymint/KeyParameterValue.h"
  },
  {
   "function_name" : "aidl::android::hardware::security::keymint::KeyCharacteristics::writeToParcel",
   "linker_set_key" : "_ZNK4aidl7android8hardware8security7keymint18KeyCharacteristics13writeToParcelEP7AParcel",
   "parameters" :
   [
    {
     "is_this_ptr" : true,
     "referenced_type" : "_ZTIPKN4aidl7android8hardware8security7keymint18KeyCharacteristicsE"
    },
    {
     "referenced_type" : "_ZTIP7AParcel"
    }
   ],
   "return_type" : "_ZTIi",
   "source_file" : "out/soong/.intermediates/hardware/interfaces/security/keymint/aidl/android.hardware.security.keymint-V1-ndk_platform-source/gen/include/aidl/android/hardware/security/keymint/KeyCharacteristics.h"
  },
  {
   "function_name" : "aidl::android::hardware::security::keymint::KeyMintHardwareInfo::writeToParcel",
   "linker_set_key" : "_ZNK4aidl7android8hardware8security7keymint19KeyMintHardwareInfo13writeToParcelEP7AParcel",
   "parameters" :
   [
    {
     "is_this_ptr" : true,
     "referenced_type" : "_ZTIPKN4aidl7android8hardware8security7keymint19KeyMintHardwareInfoE"
    },
    {
     "referenced_type" : "_ZTIP7AParcel"
    }
   ],
   "return_type" : "_ZTIi",
   "source_file" : "out/soong/.intermediates/hardware/interfaces/security/keymint/aidl/android.hardware.security.keymint-V1-ndk_platform-source/gen/include/aidl/android/hardware/security/keymint/KeyMintHardwareInfo.h"
  }
 ],
 "global_vars" :
 [
  {
   "linker_set_key" : "_ZN4aidl7android8hardware8security7keymint10DeviceInfo10descriptorE",
   "name" : "aidl::android::hardware::security::keymint::DeviceInfo::descriptor",
   "referenced_type" : "_ZTIPKc",
   "source_file" : "out/soong/.intermediates/hardware/interfaces/security/keymint/aidl/android.hardware.security.keymint-V1-ndk_platform-source/gen/include/aidl/android/hardware/security/keymint/DeviceInfo.h"
  },
  {
   "linker_set_key" : "_ZN4aidl7android8hardware8security7keymint11BeginResult10descriptorE",
   "name" : "aidl::android::hardware::security::keymint::BeginResult::descriptor",
   "referenced_type" : "_ZTIPKc",
   "source_file" : "out/soong/.intermediates/hardware/interfaces/security/keymint/aidl/android.hardware.security.keymint-V1-ndk_platform-source/gen/include/aidl/android/hardware/security/keymint/BeginResult.h"
  },
  {
   "linker_set_key" : "_ZN4aidl7android8hardware8security7keymint11Certificate10descriptorE",
   "name" : "aidl::android::hardware::security::keymint::Certificate::descriptor",
   "referenced_type" : "_ZTIPKc",
   "source_file" : "out/soong/.intermediates/hardware/interfaces/security/keymint/aidl/android.hardware.security.keymint-V1-ndk_platform-source/gen/include/aidl/android/hardware/security/keymint/Certificate.h"
  },
  {
   "linker_set_key" : "_ZN4aidl7android8hardware8security7keymint12KeyParameter10descriptorE",
   "name" : "aidl::android::hardware::security::keymint::KeyParameter::descriptor",
   "referenced_type" : "_ZTIPKc",
   "source_file" : "out/soong/.intermediates/hardware/interfaces/security/keymint/aidl/android.hardware.security.keymint-V1-ndk_platform-source/gen/include/aidl/android/hardware/security/keymint/KeyParameter.h"
  },
  {
   "linker_set_key" : "_ZN4aidl7android8hardware8security7keymint13ProtectedData10descriptorE",
   "name" : "aidl::android::hardware::security::keymint::ProtectedData::descriptor",
   "referenced_type" : "_ZTIPKc",
   "source_file" : "out/soong/.intermediates/hardware/interfaces/security/keymint/aidl/android.hardware.security.keymint-V1-ndk_platform-source/gen/include/aidl/android/hardware/security/keymint/ProtectedData.h"
  },
  {
   "linker_set_key" : "_ZN4aidl7android8hardware8security7keymint14AttestationKey10descriptorE",
   "name" : "aidl::android::hardware::security::keymint::AttestationKey::descriptor",
   "referenced_type" : "_ZTIPKc",
   "source_file" : "out/soong/.intermediates/hardware/interfaces/security/keymint/aidl/android.hardware.security.keymint-V1-ndk_platform-source/gen/include/aidl/android/hardware/security/keymint/AttestationKey.h"
  },
  {
   "linker_set_key" : "_ZN4aidl7android8hardware8security7keymint14IKeyMintDevice10descriptorE",
   "name" : "aidl::android::hardware::security::keymint::IKeyMintDevice::descriptor",
   "referenced_type" : "_ZTIPKc",
   "source_file" : "out/soong/.intermediates/hardware/interfaces/security/keymint/aidl/android.hardware.security.keymint-V1-ndk_platform-source/gen/include/aidl/android/hardware/security/keymint/IKeyMintDevice.h"
  },
  {
   "access" : "private",
   "linker_set_key" : "_ZN4aidl7android8hardware8security7keymint14IKeyMintDevice12default_implE",
   "name" : "aidl::android::hardware::security::keymint::IKeyMintDevice::default_impl",
   "referenced_type" : "_ZTINSt3__110shared_ptrIN4aidl7android8hardware8security7keymint14IKeyMintDeviceEEE",
   "source_file" : "out/soong/.intermediates/hardware/interfaces/security/keymint/aidl/android.hardware.security.keymint-V1-ndk_platform-source/gen/include/aidl/android/hardware/security/keymint/IKeyMintDevice.h"
  },
  {
   "linker_set_key" : "_ZN4aidl7android8hardware8security7keymint14IKeyMintDevice4hashE",
   "name" : "aidl::android::hardware::security::keymint::IKeyMintDevice::hash",
   "referenced_type" : "_ZTIKNSt3__112basic_stringIcNS_11char_traitsIcEENS_9allocatorIcEEEE",
   "source_file" : "out/soong/.intermediates/hardware/interfaces/security/keymint/aidl/android.hardware.security.keymint-V1-ndk_platform-source/gen/include/aidl/android/hardware/security/keymint/IKeyMintDevice.h"
  },
  {
   "linker_set_key" : "_ZN4aidl7android8hardware8security7keymint14MacedPublicKey10descriptorE",
   "name" : "aidl::android::hardware::security::keymint::MacedPublicKey::descriptor",
   "referenced_type" : "_ZTIPKc",
   "source_file" : "out/soong/.intermediates/hardware/interfaces/security/keymint/aidl/android.hardware.security.keymint-V1-ndk_platform-source/gen/include/aidl/android/hardware/security/keymint/MacedPublicKey.h"
  },
  {
   "linker_set_key" : "_ZN4aidl7android8hardware8security7keymint15RpcHardwareInfo10descriptorE",
   "name" : "aidl::android::hardware::security::keymint::RpcHardwareInfo::descriptor",
   "referenced_type" : "_ZTIPKc",
   "source_file" : "out/soong/.intermediates/hardware/interfaces/security/keymint/aidl/android.hardware.security.keymint-V1-ndk_platform-source/gen/include/aidl/android/hardware/security/keymint/RpcHardwareInfo.h"
  },
  {
   "linker_set_key" : "_ZN4aidl7android8hardware8security7keymint17HardwareAuthToken10descriptorE",
   "name" : "aidl::android::hardware::security::keymint::HardwareAuthToken::descriptor",
   "referenced_type" : "_ZTIPKc",
   "source_file" : "out/soong/.intermediates/hardware/interfaces/security/keymint/aidl/android.hardware.security.keymint-V1-ndk_platform-source/gen/include/aidl/android/hardware/security/keymint/HardwareAuthToken.h"
  },
  {
   "linker_set_key" : "_ZN4aidl7android8hardware8security7keymint17IKeyMintOperation10descriptorE",
   "name" : "aidl::android::hardware::security::keymint::IKeyMintOperation::descriptor",
   "referenced_type" : "_ZTIPKc",
   "source_file" : "out/soong/.intermediates/hardware/interfaces/security/keymint/aidl/android.hardware.security.keymint-V1-ndk_platform-source/gen/include/aidl/android/hardware/security/keymint/IKeyMintOperation.h"
  },
  {
   "access" : "private",
   "linker_set_key" : "_ZN4aidl7android8hardware8security7keymint17IKeyMintOperation12default_implE",
   "name" : "aidl::android::hardware::security::keymint::IKeyMintOperation::default_impl",
   "referenced_type" : "_ZTINSt3__110shared_ptrIN4aidl7android8hardware8security7keymint17IKeyMintOperationEEE",
   "source_file" : "out/soong/.intermediates/hardware/interfaces/security/keymint/aidl/android.hardware.security.keymint-V1-ndk_platform-source/gen/include/aidl/android/hardware/security/keymint/IKeyMintOperation.h"
  },
  {
   "linker_set_key" : "_ZN4aidl7android8hardware8security7keymint17IKeyMintOperation4hashE",
   "name" : "aidl::android::hardware::security::keymint::IKeyMintOperation::hash",
   "referenced_type" : "_ZTIKNSt3__112basic_stringIcNS_11char_traitsIcEENS_9allocatorIcEEEE",
   "source_file" : "out/soong/.intermediates/hardware/interfaces/security/keymint/aidl/android.hardware.security.keymint-V1-ndk_platform-source/gen/include/aidl/android/hardware/security/keymint/IKeyMintOperation.h"
  },
  {
   "linker_set_key" : "_ZN4aidl7android8hardware8security7keymint17KeyCreationResult10descriptorE",
   "name" : "aidl::android::hardware::security::keymint::KeyCreationResult::descriptor",
   "referenced_type" : "_ZTIPKc",
   "source_file" : "out/soong/.intermediates/hardware/interfaces/security/keymint/aidl/android.hardware.security.keymint-V1-ndk_platform-source/gen/include/aidl/android/hardware/security/keymint/KeyCreationResult.h"
  },
  {
   "linker_set_key" : "_ZN4aidl7android8hardware8security7keymint17KeyParameterValue10descriptorE",
   "name" : "aidl::android::hardware::security::keymint::KeyParameterValue::descriptor",
   "referenced_type" : "_ZTIPKc",
   "source_file" : "out/soong/.intermediates/hardware/interfaces/security/keymint/aidl/android.hardware.security.keymint-V1-ndk_platform-source/gen/include/aidl/android/hardware/security/keymint/KeyParameterValue.h"
  },
  {
   "linker_set_key" : "_ZN4aidl7android8hardware8security7keymint18KeyCharacteristics10descriptorE",
   "name" : "aidl::android::hardware::security::keymint::KeyCharacteristics::descriptor",
   "referenced_type" : "_ZTIPKc",
   "source_file" : "out/soong/.intermediates/hardware/interfaces/security/keymint/aidl/android.hardware.security.keymint-V1-ndk_platform-source/gen/include/aidl/android/hardware/security/keymint/KeyCharacteristics.h"
  },
  {
   "linker_set_key" : "_ZN4aidl7android8hardware8security7keymint19KeyMintHardwareInfo10descriptorE",
   "name" : "aidl::android::hardware::security::keymint::KeyMintHardwareInfo::descriptor",
   "referenced_type" : "_ZTIPKc",
   "source_file" : "out/soong/.intermediates/hardware/interfaces/security/keymint/aidl/android.hardware.security.keymint-V1-ndk_platform-source/gen/include/aidl/android/hardware/security/keymint/KeyMintHardwareInfo.h"
  },
  {
   "linker_set_key" : "_ZN4aidl7android8hardware8security7keymint29IRemotelyProvisionedComponent10descriptorE",
   "name" : "aidl::android::hardware::security::keymint::IRemotelyProvisionedComponent::descriptor",
   "referenced_type" : "_ZTIPKc",
   "source_file" : "out/soong/.intermediates/hardware/interfaces/security/keymint/aidl/android.hardware.security.keymint-V1-ndk_platform-source/gen/include/aidl/android/hardware/security/keymint/IRemotelyProvisionedComponent.h"
  },
  {
   "access" : "private",
   "linker_set_key" : "_ZN4aidl7android8hardware8security7keymint29IRemotelyProvisionedComponent12default_implE",
   "name" : "aidl::android::hardware::security::keymint::IRemotelyProvisionedComponent::default_impl",
   "referenced_type" : "_ZTINSt3__110shared_ptrIN4aidl7android8hardware8security7keymint29IRemotelyProvisionedComponentEEE",
   "source_file" : "out/soong/.intermediates/hardware/interfaces/security/keymint/aidl/android.hardware.security.keymint-V1-ndk_platform-source/gen/include/aidl/android/hardware/security/keymint/IRemotelyProvisionedComponent.h"
  },
  {
   "linker_set_key" : "_ZN4aidl7android8hardware8security7keymint29IRemotelyProvisionedComponent4hashE",
   "name" : "aidl::android::hardware::security::keymint::IRemotelyProvisionedComponent::hash",
   "referenced_type" : "_ZTIKNSt3__112basic_stringIcNS_11char_traitsIcEENS_9allocatorIcEEEE",
   "source_file" : "out/soong/.intermediates/hardware/interfaces/security/keymint/aidl/android.hardware.security.keymint-V1-ndk_platform-source/gen/include/aidl/android/hardware/security/keymint/IRemotelyProvisionedComponent.h"
  }
 ],
 "lvalue_reference_types" :
 [
  {
   "alignment" : 8,
   "linker_set_key" : "_ZTIRKN3ndk10SpAIBinderE",
   "name" : "const ndk::SpAIBinder &",
   "referenced_type" : "_ZTIKN3ndk10SpAIBinderE",
   "self_type" : "_ZTIRKN3ndk10SpAIBinderE",
   "size" : 8,
   "source_file" : "frameworks/native/libs/binder/ndk/include_cpp/android/binder_auto_utils.h"
  },
  {
   "alignment" : 8,
   "linker_set_key" : "_ZTIRKN3ndk13ScopedAParcelE",
   "name" : "const ndk::ScopedAParcel &",
   "referenced_type" : "_ZTIKN3ndk13ScopedAParcelE",
   "self_type" : "_ZTIRKN3ndk13ScopedAParcelE",
   "size" : 8,
   "source_file" : "frameworks/native/libs/binder/ndk/include_cpp/android/binder_auto_utils.h"
  },
  {
   "alignment" : 8,
   "linker_set_key" : "_ZTIRKN3ndk17AParcelableHolderE",
   "name" : "const ndk::AParcelableHolder &",
   "referenced_type" : "_ZTIKN3ndk17AParcelableHolderE",
   "self_type" : "_ZTIRKN3ndk17AParcelableHolderE",
   "size" : 8,
   "source_file" : "frameworks/native/libs/binder/ndk/include_cpp/android/binder_parcelable_utils.h"
  },
  {
   "alignment" : 8,
   "linker_set_key" : "_ZTIRKN3ndk20ScopedFileDescriptorE",
   "name" : "const ndk::ScopedFileDescriptor &",
   "referenced_type" : "_ZTIKN3ndk20ScopedFileDescriptorE",
   "self_type" : "_ZTIRKN3ndk20ScopedFileDescriptorE",
   "size" : 8,
   "source_file" : "frameworks/native/libs/binder/ndk/include_cpp/android/binder_auto_utils.h"
  },
  {
   "alignment" : 8,
   "linker_set_key" : "_ZTIRKN4aidl7android8hardware8security11secureclock14TimeStampTokenE",
   "name" : "const aidl::android::hardware::security::secureclock::TimeStampToken &",
   "referenced_type" : "_ZTIKN4aidl7android8hardware8security11secureclock14TimeStampTokenE",
   "self_type" : "_ZTIRKN4aidl7android8hardware8security11secureclock14TimeStampTokenE",
   "size" : 8,
   "source_file" : "out/soong/.intermediates/hardware/interfaces/security/secureclock/aidl/android.hardware.security.secureclock-V1-ndk_platform-source/gen/include/aidl/android/hardware/security/secureclock/TimeStampToken.h"
  },
  {
   "alignment" : 8,
   "linker_set_key" : "_ZTIRKN4aidl7android8hardware8security11secureclock9TimestampE",
   "name" : "const aidl::android::hardware::security::secureclock::Timestamp &",
   "referenced_type" : "_ZTIKN4aidl7android8hardware8security11secureclock9TimestampE",
   "self_type" : "_ZTIRKN4aidl7android8hardware8security11secureclock9TimestampE",
   "size" : 8,
   "source_file" : "frameworks/native/libs/binder/ndk/include_cpp/android/binder_to_string.h"
  },
  {
   "alignment" : 8,
   "linker_set_key" : "_ZTIRKN4aidl7android8hardware8security7keymint10DeviceInfoE",
   "name" : "const aidl::android::hardware::security::keymint::DeviceInfo &",
   "referenced_type" : "_ZTIKN4aidl7android8hardware8security7keymint10DeviceInfoE",
   "self_type" : "_ZTIRKN4aidl7android8hardware8security7keymint10DeviceInfoE",
   "size" : 8,
   "source_file" : "out/soong/.intermediates/hardware/interfaces/security/keymint/aidl/android.hardware.security.keymint-V1-ndk_platform-source/gen/include/aidl/android/hardware/security/keymint/DeviceInfo.h"
  },
  {
   "alignment" : 8,
   "linker_set_key" : "_ZTIRKN4aidl7android8hardware8security7keymint10KeyPurposeE",
   "name" : "const aidl::android::hardware::security::keymint::KeyPurpose &",
   "referenced_type" : "_ZTIKN4aidl7android8hardware8security7keymint10KeyPurposeE",
   "self_type" : "_ZTIRKN4aidl7android8hardware8security7keymint10KeyPurposeE",
   "size" : 8,
   "source_file" : "frameworks/native/libs/binder/ndk/include_cpp/android/binder_to_string.h"
  },
  {
   "alignment" : 8,
   "linker_set_key" : "_ZTIRKN4aidl7android8hardware8security7keymint11BeginResultE",
   "name" : "const aidl::android::hardware::security::keymint::BeginResult &",
   "referenced_type" : "_ZTIKN4aidl7android8hardware8security7keymint11BeginResultE",
   "self_type" : "_ZTIRKN4aidl7android8hardware8security7keymint11BeginResultE",
   "size" : 8,
   "source_file" : "out/soong/.intermediates/hardware/interfaces/security/keymint/aidl/android.hardware.security.keymint-V1-ndk_platform-source/gen/include/aidl/android/hardware/security/keymint/BeginResult.h"
  },
  {
   "alignment" : 8,
   "linker_set_key" : "_ZTIRKN4aidl7android8hardware8security7keymint11CertificateE",
   "name" : "const aidl::android::hardware::security::keymint::Certificate &",
   "referenced_type" : "_ZTIKN4aidl7android8hardware8security7keymint11CertificateE",
   "self_type" : "_ZTIRKN4aidl7android8hardware8security7keymint11CertificateE",
   "size" : 8,
   "source_file" : "out/soong/.intermediates/hardware/interfaces/security/keymint/aidl/android.hardware.security.keymint-V1-ndk_platform-source/gen/include/aidl/android/hardware/security/keymint/Certificate.h"
  },
  {
   "alignment" : 8,
   "linker_set_key" : "_ZTIRKN4aidl7android8hardware8security7keymint11PaddingModeE",
   "name" : "const aidl::android::hardware::security::keymint::PaddingMode &",
   "referenced_type" : "_ZTIKN4aidl7android8hardware8security7keymint11PaddingModeE",
   "self_type" : "_ZTIRKN4aidl7android8hardware8security7keymint11PaddingModeE",
   "size" : 8,
   "source_file" : "frameworks/native/libs/binder/ndk/include_cpp/android/binder_to_string.h"
  },
  {
   "alignment" : 8,
   "linker_set_key" : "_ZTIRKN4aidl7android8hardware8security7keymint12KeyParameterE",
   "name" : "const aidl::android::hardware::security::keymint::KeyParameter &",
   "referenced_type" : "_ZTIKN4aidl7android8hardware8security7keymint12KeyParameterE",
   "self_type" : "_ZTIRKN4aidl7android8hardware8security7keymint12KeyParameterE",
   "size" : 8,
   "source_file" : "frameworks/native/libs/binder/ndk/include_cpp/android/binder_to_string.h"
  },
  {
   "alignment" : 8,
   "linker_set_key" : "_ZTIRKN4aidl7android8hardware8security7keymint13ProtectedDataE",
   "name" : "const aidl::android::hardware::security::keymint::ProtectedData &",
   "referenced_type" : "_ZTIKN4aidl7android8hardware8security7keymint13ProtectedDataE",
   "self_type" : "_ZTIRKN4aidl7android8hardware8security7keymint13ProtectedDataE",
   "size" : 8,
   "source_file" : "out/soong/.intermediates/hardware/interfaces/security/keymint/aidl/android.hardware.security.keymint-V1-ndk_platform-source/gen/include/aidl/android/hardware/security/keymint/ProtectedData.h"
  },
  {
   "alignment" : 8,
   "linker_set_key" : "_ZTIRKN4aidl7android8hardware8security7keymint13SecurityLevelE",
   "name" : "const aidl::android::hardware::security::keymint::SecurityLevel &",
   "referenced_type" : "_ZTIKN4aidl7android8hardware8security7keymint13SecurityLevelE",
   "self_type" : "_ZTIRKN4aidl7android8hardware8security7keymint13SecurityLevelE",
   "size" : 8,
   "source_file" : "frameworks/native/libs/binder/ndk/include_cpp/android/binder_to_string.h"
  },
  {
   "alignment" : 8,
   "linker_set_key" : "_ZTIRKN4aidl7android8hardware8security7keymint14AttestationKeyE",
   "name" : "const aidl::android::hardware::security::keymint::AttestationKey &",
   "referenced_type" : "_ZTIKN4aidl7android8hardware8security7keymint14AttestationKeyE",
   "self_type" : "_ZTIRKN4aidl7android8hardware8security7keymint14AttestationKeyE",
   "size" : 8,
   "source_file" : "out/soong/.intermediates/hardware/interfaces/security/keymint/aidl/android.hardware.security.keymint-V1-ndk_platform-source/gen/include/aidl/android/hardware/security/keymint/AttestationKey.h"
  },
  {
   "alignment" : 8,
   "linker_set_key" : "_ZTIRKN4aidl7android8hardware8security7keymint14MacedPublicKeyE",
   "name" : "const aidl::android::hardware::security::keymint::MacedPublicKey &",
   "referenced_type" : "_ZTIKN4aidl7android8hardware8security7keymint14MacedPublicKeyE",
   "self_type" : "_ZTIRKN4aidl7android8hardware8security7keymint14MacedPublicKeyE",
   "size" : 8,
   "source_file" : "out/soong/.intermediates/hardware/interfaces/security/keymint/aidl/android.hardware.security.keymint-V1-ndk_platform-source/gen/include/aidl/android/hardware/security/keymint/MacedPublicKey.h"
  },
  {
   "alignment" : 8,
   "linker_set_key" : "_ZTIRKN4aidl7android8hardware8security7keymint15RpcHardwareInfoE",
   "name" : "const aidl::android::hardware::security::keymint::RpcHardwareInfo &",
   "referenced_type" : "_ZTIKN4aidl7android8hardware8security7keymint15RpcHardwareInfoE",
   "self_type" : "_ZTIRKN4aidl7android8hardware8security7keymint15RpcHardwareInfoE",
   "size" : 8,
   "source_file" : "out/soong/.intermediates/hardware/interfaces/security/keymint/aidl/android.hardware.security.keymint-V1-ndk_platform-source/gen/include/aidl/android/hardware/security/keymint/RpcHardwareInfo.h"
  },
  {
   "alignment" : 8,
   "linker_set_key" : "_ZTIRKN4aidl7android8hardware8security7keymint17HardwareAuthTokenE",
   "name" : "const aidl::android::hardware::security::keymint::HardwareAuthToken &",
   "referenced_type" : "_ZTIKN4aidl7android8hardware8security7keymint17HardwareAuthTokenE",
   "self_type" : "_ZTIRKN4aidl7android8hardware8security7keymint17HardwareAuthTokenE",
   "size" : 8,
   "source_file" : "out/soong/.intermediates/hardware/interfaces/security/keymint/aidl/android.hardware.security.keymint-V1-ndk_platform-source/gen/include/aidl/android/hardware/security/keymint/HardwareAuthToken.h"
  },
  {
   "alignment" : 8,
   "linker_set_key" : "_ZTIRKN4aidl7android8hardware8security7keymint17IKeyMintOperationE",
   "name" : "const aidl::android::hardware::security::keymint::IKeyMintOperation &",
   "referenced_type" : "_ZTIKN4aidl7android8hardware8security7keymint17IKeyMintOperationE",
   "self_type" : "_ZTIRKN4aidl7android8hardware8security7keymint17IKeyMintOperationE",
   "size" : 8,
   "source_file" : "frameworks/native/libs/binder/ndk/include_cpp/android/binder_to_string.h"
  },
  {
   "alignment" : 8,
   "linker_set_key" : "_ZTIRKN4aidl7android8hardware8security7keymint17KeyCreationResultE",
   "name" : "const aidl::android::hardware::security::keymint::KeyCreationResult &",
   "referenced_type" : "_ZTIKN4aidl7android8hardware8security7keymint17KeyCreationResultE",
   "self_type" : "_ZTIRKN4aidl7android8hardware8security7keymint17KeyCreationResultE",
   "size" : 8,
   "source_file" : "out/soong/.intermediates/hardware/interfaces/security/keymint/aidl/android.hardware.security.keymint-V1-ndk_platform-source/gen/include/aidl/android/hardware/security/keymint/KeyCreationResult.h"
  },
  {
   "alignment" : 8,
   "linker_set_key" : "_ZTIRKN4aidl7android8hardware8security7keymint17KeyParameterValueE",
   "name" : "const aidl::android::hardware::security::keymint::KeyParameterValue &",
   "referenced_type" : "_ZTIKN4aidl7android8hardware8security7keymint17KeyParameterValueE",
   "self_type" : "_ZTIRKN4aidl7android8hardware8security7keymint17KeyParameterValueE",
   "size" : 8,
   "source_file" : "frameworks/native/libs/binder/ndk/include_cpp/android/binder_to_string.h"
  },
  {
   "alignment" : 8,
   "linker_set_key" : "_ZTIRKN4aidl7android8hardware8security7keymint18KeyCharacteristicsE",
   "name" : "const aidl::android::hardware::security::keymint::KeyCharacteristics &",
   "referenced_type" : "_ZTIKN4aidl7android8hardware8security7keymint18KeyCharacteristicsE",
   "self_type" : "_ZTIRKN4aidl7android8hardware8security7keymint18KeyCharacteristicsE",
   "size" : 8,
   "source_file" : "frameworks/native/libs/binder/ndk/include_cpp/android/binder_to_string.h"
  },
  {
   "alignment" : 8,
   "linker_set_key" : "_ZTIRKN4aidl7android8hardware8security7keymint19KeyMintHardwareInfoE",
   "name" : "const aidl::android::hardware::security::keymint::KeyMintHardwareInfo &",
   "referenced_type" : "_ZTIKN4aidl7android8hardware8security7keymint19KeyMintHardwareInfoE",
   "self_type" : "_ZTIRKN4aidl7android8hardware8security7keymint19KeyMintHardwareInfoE",
   "size" : 8,
   "source_file" : "out/soong/.intermediates/hardware/interfaces/security/keymint/aidl/android.hardware.security.keymint-V1-ndk_platform-source/gen/include/aidl/android/hardware/security/keymint/KeyMintHardwareInfo.h"
  },
  {
   "alignment" : 8,
   "linker_set_key" : "_ZTIRKN4aidl7android8hardware8security7keymint25HardwareAuthenticatorTypeE",
   "name" : "const aidl::android::hardware::security::keymint::HardwareAuthenticatorType &",
   "referenced_type" : "_ZTIKN4aidl7android8hardware8security7keymint25HardwareAuthenticatorTypeE",
   "self_type" : "_ZTIRKN4aidl7android8hardware8security7keymint25HardwareAuthenticatorTypeE",
   "size" : 8,
   "source_file" : "frameworks/native/libs/binder/ndk/include_cpp/android/binder_to_string.h"
  },
  {
   "alignment" : 8,
   "linker_set_key" : "_ZTIRKN4aidl7android8hardware8security7keymint3TagE",
   "name" : "const aidl::android::hardware::security::keymint::Tag &",
   "referenced_type" : "_ZTIKN4aidl7android8hardware8security7keymint3TagE",
   "self_type" : "_ZTIRKN4aidl7android8hardware8security7keymint3TagE",
   "size" : 8,
   "source_file" : "frameworks/native/libs/binder/ndk/include_cpp/android/binder_to_string.h"
  },
  {
   "alignment" : 8,
   "linker_set_key" : "_ZTIRKN4aidl7android8hardware8security7keymint6DigestE",
   "name" : "const aidl::android::hardware::security::keymint::Digest &",
   "referenced_type" : "_ZTIKN4aidl7android8hardware8security7keymint6DigestE",
   "self_type" : "_ZTIRKN4aidl7android8hardware8security7keymint6DigestE",
   "size" : 8,
   "source_file" : "frameworks/native/libs/binder/ndk/include_cpp/android/binder_to_string.h"
  },
  {
   "alignment" : 8,
   "linker_set_key" : "_ZTIRKN4aidl7android8hardware8security7keymint7EcCurveE",
   "name" : "const aidl::android::hardware::security::keymint::EcCurve &",
   "referenced_type" : "_ZTIKN4aidl7android8hardware8security7keymint7EcCurveE",
   "self_type" : "_ZTIRKN4aidl7android8hardware8security7keymint7EcCurveE",
   "size" : 8,
   "source_file" : "frameworks/native/libs/binder/ndk/include_cpp/android/binder_to_string.h"
  },
  {
   "alignment" : 8,
   "linker_set_key" : "_ZTIRKN4aidl7android8hardware8security7keymint9AlgorithmE",
   "name" : "const aidl::android::hardware::security::keymint::Algorithm &",
   "referenced_type" : "_ZTIKN4aidl7android8hardware8security7keymint9AlgorithmE",
   "self_type" : "_ZTIRKN4aidl7android8hardware8security7keymint9AlgorithmE",
   "size" : 8,
   "source_file" : "frameworks/native/libs/binder/ndk/include_cpp/android/binder_to_string.h"
  },
  {
   "alignment" : 8,
   "linker_set_key" : "_ZTIRKN4aidl7android8hardware8security7keymint9BlockModeE",
   "name" : "const aidl::android::hardware::security::keymint::BlockMode &",
   "referenced_type" : "_ZTIKN4aidl7android8hardware8security7keymint9BlockModeE",
   "self_type" : "_ZTIRKN4aidl7android8hardware8security7keymint9BlockModeE",
   "size" : 8,
   "source_file" : "frameworks/native/libs/binder/ndk/include_cpp/android/binder_to_string.h"
  },
  {
   "alignment" : 8,
   "linker_set_key" : "_ZTIRKN4aidl7android8hardware8security7keymint9KeyOriginE",
   "name" : "const aidl::android::hardware::security::keymint::KeyOrigin &",
   "referenced_type" : "_ZTIKN4aidl7android8hardware8security7keymint9KeyOriginE",
   "self_type" : "_ZTIRKN4aidl7android8hardware8security7keymint9KeyOriginE",
   "size" : 8,
   "source_file" : "frameworks/native/libs/binder/ndk/include_cpp/android/binder_to_string.h"
  },
  {
   "alignment" : 8,
   "linker_set_key" : "_ZTIRKNSt3__110shared_ptrIN4aidl7android8hardware8security7keymint14IKeyMintDeviceEEE",
   "name" : "const std::shared_ptr<aidl::android::hardware::security::keymint::IKeyMintDevice> &",
   "referenced_type" : "_ZTIKNSt3__110shared_ptrIN4aidl7android8hardware8security7keymint14IKeyMintDeviceEEE",
   "self_type" : "_ZTIRKNSt3__110shared_ptrIN4aidl7android8hardware8security7keymint14IKeyMintDeviceEEE",
   "size" : 8,
   "source_file" : "out/soong/.intermediates/hardware/interfaces/security/keymint/aidl/android.hardware.security.keymint-V1-ndk_platform-source/gen/include/aidl/android/hardware/security/keymint/IKeyMintDevice.h"
  },
  {
   "alignment" : 8,
   "linker_set_key" : "_ZTIRKNSt3__110shared_ptrIN4aidl7android8hardware8security7keymint17IKeyMintOperationEEE",
   "name" : "const std::shared_ptr<aidl::android::hardware::security::keymint::IKeyMintOperation> &",
   "referenced_type" : "_ZTIKNSt3__110shared_ptrIN4aidl7android8hardware8security7keymint17IKeyMintOperationEEE",
   "self_type" : "_ZTIRKNSt3__110shared_ptrIN4aidl7android8hardware8security7keymint17IKeyMintOperationEEE",
   "size" : 8,
   "source_file" : "frameworks/native/libs/binder/ndk/include_cpp/android/binder_to_string.h"
  },
  {
   "alignment" : 8,
   "linker_set_key" : "_ZTIRKNSt3__110shared_ptrIN4aidl7android8hardware8security7keymint29IRemotelyProvisionedComponentEEE",
   "name" : "const std::shared_ptr<aidl::android::hardware::security::keymint::IRemotelyProvisionedComponent> &",
   "referenced_type" : "_ZTIKNSt3__110shared_ptrIN4aidl7android8hardware8security7keymint29IRemotelyProvisionedComponentEEE",
   "self_type" : "_ZTIRKNSt3__110shared_ptrIN4aidl7android8hardware8security7keymint29IRemotelyProvisionedComponentEEE",
   "size" : 8,
   "source_file" : "out/soong/.intermediates/hardware/interfaces/security/keymint/aidl/android.hardware.security.keymint-V1-ndk_platform-source/gen/include/aidl/android/hardware/security/keymint/IRemotelyProvisionedComponent.h"
  },
  {
   "alignment" : 8,
   "linker_set_key" : "_ZTIRKNSt3__112basic_stringIcNS_11char_traitsIcEENS_9allocatorIcEEEE",
   "name" : "const std::basic_string<char, std::char_traits<char>, std::allocator<char>> &",
   "referenced_type" : "_ZTIKNSt3__112basic_stringIcNS_11char_traitsIcEENS_9allocatorIcEEEE",
   "self_type" : "_ZTIRKNSt3__112basic_stringIcNS_11char_traitsIcEENS_9allocatorIcEEEE",
   "size" : 8,
   "source_file" : "frameworks/native/libs/binder/ndk/include_cpp/android/binder_to_string.h"
  },
  {
   "alignment" : 8,
   "linker_set_key" : "_ZTIRKNSt3__16vectorIDsNS_9allocatorIDsEEEE",
   "name" : "const std::vector<char16_t, std::allocator<char16_t>> &",
   "referenced_type" : "_ZTIKNSt3__16vectorIDsNS_9allocatorIDsEEEE",
   "self_type" : "_ZTIRKNSt3__16vectorIDsNS_9allocatorIDsEEEE",
   "size" : 8,
   "source_file" : "frameworks/native/libs/binder/ndk/include_cpp/android/binder_parcel_utils.h"
  },
  {
   "alignment" : 8,
   "linker_set_key" : "_ZTIRKNSt3__16vectorIN4aidl7android8hardware8security7keymint11CertificateENS_9allocatorIS6_EEEE",
   "name" : "const std::vector<aidl::android::hardware::security::keymint::Certificate, std::allocator<aidl::android::hardware::security::keymint::Certificate>> &",
   "referenced_type" : "_ZTIKNSt3__16vectorIN4aidl7android8hardware8security7keymint11CertificateENS_9allocatorIS6_EEEE",
   "self_type" : "_ZTIRKNSt3__16vectorIN4aidl7android8hardware8security7keymint11CertificateENS_9allocatorIS6_EEEE",
   "size" : 8,
   "source_file" : "frameworks/native/libs/binder/ndk/include_cpp/android/binder_to_string.h"
  },
  {
   "alignment" : 8,
   "linker_set_key" : "_ZTIRKNSt3__16vectorIN4aidl7android8hardware8security7keymint12KeyParameterENS_9allocatorIS6_EEEE",
   "name" : "const std::vector<aidl::android::hardware::security::keymint::KeyParameter, std::allocator<aidl::android::hardware::security::keymint::KeyParameter>> &",
   "referenced_type" : "_ZTIKNSt3__16vectorIN4aidl7android8hardware8security7keymint12KeyParameterENS_9allocatorIS6_EEEE",
   "self_type" : "_ZTIRKNSt3__16vectorIN4aidl7android8hardware8security7keymint12KeyParameterENS_9allocatorIS6_EEEE",
   "size" : 8,
   "source_file" : "frameworks/native/libs/binder/ndk/include_cpp/android/binder_to_string.h"
  },
  {
   "alignment" : 8,
   "linker_set_key" : "_ZTIRKNSt3__16vectorIN4aidl7android8hardware8security7keymint14MacedPublicKeyENS_9allocatorIS6_EEEE",
   "name" : "const std::vector<aidl::android::hardware::security::keymint::MacedPublicKey, std::allocator<aidl::android::hardware::security::keymint::MacedPublicKey>> &",
   "referenced_type" : "_ZTIKNSt3__16vectorIN4aidl7android8hardware8security7keymint14MacedPublicKeyENS_9allocatorIS6_EEEE",
   "self_type" : "_ZTIRKNSt3__16vectorIN4aidl7android8hardware8security7keymint14MacedPublicKeyENS_9allocatorIS6_EEEE",
   "size" : 8,
   "source_file" : "out/soong/.intermediates/hardware/interfaces/security/keymint/aidl/android.hardware.security.keymint-V1-ndk_platform-source/gen/include/aidl/android/hardware/security/keymint/IRemotelyProvisionedComponent.h"
  },
  {
   "alignment" : 8,
   "linker_set_key" : "_ZTIRKNSt3__16vectorIN4aidl7android8hardware8security7keymint18KeyCharacteristicsENS_9allocatorIS6_EEEE",
   "name" : "const std::vector<aidl::android::hardware::security::keymint::KeyCharacteristics, std::allocator<aidl::android::hardware::security::keymint::KeyCharacteristics>> &",
   "referenced_type" : "_ZTIKNSt3__16vectorIN4aidl7android8hardware8security7keymint18KeyCharacteristicsENS_9allocatorIS6_EEEE",
   "self_type" : "_ZTIRKNSt3__16vectorIN4aidl7android8hardware8security7keymint18KeyCharacteristicsENS_9allocatorIS6_EEEE",
   "size" : 8,
   "source_file" : "frameworks/native/libs/binder/ndk/include_cpp/android/binder_to_string.h"
  },
  {
   "alignment" : 8,
   "linker_set_key" : "_ZTIRKNSt3__16vectorIbNS_9allocatorIbEEEE",
   "name" : "const std::vector<bool, std::allocator<bool>> &",
   "referenced_type" : "_ZTIKNSt3__16vectorIbNS_9allocatorIbEEEE",
   "self_type" : "_ZTIRKNSt3__16vectorIbNS_9allocatorIbEEEE",
   "size" : 8,
   "source_file" : "frameworks/native/libs/binder/ndk/include_cpp/android/binder_parcel_utils.h"
  },
  {
   "alignment" : 8,
   "linker_set_key" : "_ZTIRKNSt3__16vectorIdNS_9allocatorIdEEEE",
   "name" : "const std::vector<double, std::allocator<double>> &",
   "referenced_type" : "_ZTIKNSt3__16vectorIdNS_9allocatorIdEEEE",
   "self_type" : "_ZTIRKNSt3__16vectorIdNS_9allocatorIdEEEE",
   "size" : 8,
   "source_file" : "frameworks/native/libs/binder/ndk/include_cpp/android/binder_parcel_utils.h"
  },
  {
   "alignment" : 8,
   "linker_set_key" : "_ZTIRKNSt3__16vectorIfNS_9allocatorIfEEEE",
   "name" : "const std::vector<float, std::allocator<float>> &",
   "referenced_type" : "_ZTIKNSt3__16vectorIfNS_9allocatorIfEEEE",
   "self_type" : "_ZTIRKNSt3__16vectorIfNS_9allocatorIfEEEE",
   "size" : 8,
   "source_file" : "frameworks/native/libs/binder/ndk/include_cpp/android/binder_parcel_utils.h"
  },
  {
   "alignment" : 8,
   "linker_set_key" : "_ZTIRKNSt3__16vectorIhNS_9allocatorIhEEEE",
   "name" : "const std::vector<unsigned char, std::allocator<unsigned char>> &",
   "referenced_type" : "_ZTIKNSt3__16vectorIhNS_9allocatorIhEEEE",
   "self_type" : "_ZTIRKNSt3__16vectorIhNS_9allocatorIhEEEE",
   "size" : 8,
   "source_file" : "frameworks/native/libs/binder/ndk/include_cpp/android/binder_parcel_utils.h"
  },
  {
   "alignment" : 8,
   "linker_set_key" : "_ZTIRKNSt3__16vectorIiNS_9allocatorIiEEEE",
   "name" : "const std::vector<int, std::allocator<int>> &",
   "referenced_type" : "_ZTIKNSt3__16vectorIiNS_9allocatorIiEEEE",
   "self_type" : "_ZTIRKNSt3__16vectorIiNS_9allocatorIiEEEE",
   "size" : 8,
   "source_file" : "frameworks/native/libs/binder/ndk/include_cpp/android/binder_parcel_utils.h"
  },
  {
   "alignment" : 8,
   "linker_set_key" : "_ZTIRKNSt3__16vectorIjNS_9allocatorIjEEEE",
   "name" : "const std::vector<unsigned int, std::allocator<unsigned int>> &",
   "referenced_type" : "_ZTIKNSt3__16vectorIjNS_9allocatorIjEEEE",
   "self_type" : "_ZTIRKNSt3__16vectorIjNS_9allocatorIjEEEE",
   "size" : 8,
   "source_file" : "frameworks/native/libs/binder/ndk/include_cpp/android/binder_parcel_utils.h"
  },
  {
   "alignment" : 8,
   "linker_set_key" : "_ZTIRKNSt3__16vectorIlNS_9allocatorIlEEEE",
   "name" : "const std::vector<long, std::allocator<long>> &",
   "referenced_type" : "_ZTIKNSt3__16vectorIlNS_9allocatorIlEEEE",
   "self_type" : "_ZTIRKNSt3__16vectorIlNS_9allocatorIlEEEE",
   "size" : 8,
   "source_file" : "frameworks/native/libs/binder/ndk/include_cpp/android/binder_parcel_utils.h"
  },
  {
   "alignment" : 8,
   "linker_set_key" : "_ZTIRKNSt3__16vectorImNS_9allocatorImEEEE",
   "name" : "const std::vector<unsigned long, std::allocator<unsigned long>> &",
   "referenced_type" : "_ZTIKNSt3__16vectorImNS_9allocatorImEEEE",
   "self_type" : "_ZTIRKNSt3__16vectorImNS_9allocatorImEEEE",
   "size" : 8,
   "source_file" : "frameworks/native/libs/binder/ndk/include_cpp/android/binder_parcel_utils.h"
  },
  {
   "alignment" : 8,
   "linker_set_key" : "_ZTIRKNSt3__18optionalIN4aidl7android8hardware8security11secureclock14TimeStampTokenEEE",
   "name" : "const std::optional<aidl::android::hardware::security::secureclock::TimeStampToken> &",
   "referenced_type" : "_ZTIKNSt3__18optionalIN4aidl7android8hardware8security11secureclock14TimeStampTokenEEE",
   "self_type" : "_ZTIRKNSt3__18optionalIN4aidl7android8hardware8security11secureclock14TimeStampTokenEEE",
   "size" : 8,
   "source_file" : "out/soong/.intermediates/hardware/interfaces/security/keymint/aidl/android.hardware.security.keymint-V1-ndk_platform-source/gen/include/aidl/android/hardware/security/keymint/IKeyMintDevice.h"
  },
  {
   "alignment" : 8,
   "linker_set_key" : "_ZTIRKNSt3__18optionalIN4aidl7android8hardware8security7keymint14AttestationKeyEEE",
   "name" : "const std::optional<aidl::android::hardware::security::keymint::AttestationKey> &",
   "referenced_type" : "_ZTIKNSt3__18optionalIN4aidl7android8hardware8security7keymint14AttestationKeyEEE",
   "self_type" : "_ZTIRKNSt3__18optionalIN4aidl7android8hardware8security7keymint14AttestationKeyEEE",
   "size" : 8,
   "source_file" : "out/soong/.intermediates/hardware/interfaces/security/keymint/aidl/android.hardware.security.keymint-V1-ndk_platform-source/gen/include/aidl/android/hardware/security/keymint/IKeyMintDevice.h"
  },
  {
   "alignment" : 8,
   "linker_set_key" : "_ZTIRKNSt3__18optionalIN4aidl7android8hardware8security7keymint17HardwareAuthTokenEEE",
   "name" : "const std::optional<aidl::android::hardware::security::keymint::HardwareAuthToken> &",
   "referenced_type" : "_ZTIKNSt3__18optionalIN4aidl7android8hardware8security7keymint17HardwareAuthTokenEEE",
   "self_type" : "_ZTIRKNSt3__18optionalIN4aidl7android8hardware8security7keymint17HardwareAuthTokenEEE",
   "size" : 8,
   "source_file" : "out/soong/.intermediates/hardware/interfaces/security/keymint/aidl/android.hardware.security.keymint-V1-ndk_platform-source/gen/include/aidl/android/hardware/security/keymint/IKeyMintDevice.h"
  },
  {
   "alignment" : 8,
   "linker_set_key" : "_ZTIRKNSt3__18optionalINS_6vectorIDsNS_9allocatorIDsEEEEEE",
   "name" : "const std::optional<std::vector<char16_t, std::allocator<char16_t>>> &",
   "referenced_type" : "_ZTIKNSt3__18optionalINS_6vectorIDsNS_9allocatorIDsEEEEEE",
   "self_type" : "_ZTIRKNSt3__18optionalINS_6vectorIDsNS_9allocatorIDsEEEEEE",
   "size" : 8,
   "source_file" : "frameworks/native/libs/binder/ndk/include_cpp/android/binder_parcel_utils.h"
  },
  {
   "alignment" : 8,
   "linker_set_key" : "_ZTIRKNSt3__18optionalINS_6vectorIbNS_9allocatorIbEEEEEE",
   "name" : "const std::optional<std::vector<bool, std::allocator<bool>>> &",
   "referenced_type" : "_ZTIKNSt3__18optionalINS_6vectorIbNS_9allocatorIbEEEEEE",
   "self_type" : "_ZTIRKNSt3__18optionalINS_6vectorIbNS_9allocatorIbEEEEEE",
   "size" : 8,
   "source_file" : "frameworks/native/libs/binder/ndk/include_cpp/android/binder_parcel_utils.h"
  },
  {
   "alignment" : 8,
   "linker_set_key" : "_ZTIRKNSt3__18optionalINS_6vectorIdNS_9allocatorIdEEEEEE",
   "name" : "const std::optional<std::vector<double, std::allocator<double>>> &",
   "referenced_type" : "_ZTIKNSt3__18optionalINS_6vectorIdNS_9allocatorIdEEEEEE",
   "self_type" : "_ZTIRKNSt3__18optionalINS_6vectorIdNS_9allocatorIdEEEEEE",
   "size" : 8,
   "source_file" : "frameworks/native/libs/binder/ndk/include_cpp/android/binder_parcel_utils.h"
  },
  {
   "alignment" : 8,
   "linker_set_key" : "_ZTIRKNSt3__18optionalINS_6vectorIfNS_9allocatorIfEEEEEE",
   "name" : "const std::optional<std::vector<float, std::allocator<float>>> &",
   "referenced_type" : "_ZTIKNSt3__18optionalINS_6vectorIfNS_9allocatorIfEEEEEE",
   "self_type" : "_ZTIRKNSt3__18optionalINS_6vectorIfNS_9allocatorIfEEEEEE",
   "size" : 8,
   "source_file" : "frameworks/native/libs/binder/ndk/include_cpp/android/binder_parcel_utils.h"
  },
  {
   "alignment" : 8,
   "linker_set_key" : "_ZTIRKNSt3__18optionalINS_6vectorIhNS_9allocatorIhEEEEEE",
   "name" : "const std::optional<std::vector<unsigned char, std::allocator<unsigned char>>> &",
   "referenced_type" : "_ZTIKNSt3__18optionalINS_6vectorIhNS_9allocatorIhEEEEEE",
   "self_type" : "_ZTIRKNSt3__18optionalINS_6vectorIhNS_9allocatorIhEEEEEE",
   "size" : 8,
   "source_file" : "frameworks/native/libs/binder/ndk/include_cpp/android/binder_parcel_utils.h"
  },
  {
   "alignment" : 8,
   "linker_set_key" : "_ZTIRKNSt3__18optionalINS_6vectorIiNS_9allocatorIiEEEEEE",
   "name" : "const std::optional<std::vector<int, std::allocator<int>>> &",
   "referenced_type" : "_ZTIKNSt3__18optionalINS_6vectorIiNS_9allocatorIiEEEEEE",
   "self_type" : "_ZTIRKNSt3__18optionalINS_6vectorIiNS_9allocatorIiEEEEEE",
   "size" : 8,
   "source_file" : "frameworks/native/libs/binder/ndk/include_cpp/android/binder_parcel_utils.h"
  },
  {
   "alignment" : 8,
   "linker_set_key" : "_ZTIRKNSt3__18optionalINS_6vectorIjNS_9allocatorIjEEEEEE",
   "name" : "const std::optional<std::vector<unsigned int, std::allocator<unsigned int>>> &",
   "referenced_type" : "_ZTIKNSt3__18optionalINS_6vectorIjNS_9allocatorIjEEEEEE",
   "self_type" : "_ZTIRKNSt3__18optionalINS_6vectorIjNS_9allocatorIjEEEEEE",
   "size" : 8,
   "source_file" : "frameworks/native/libs/binder/ndk/include_cpp/android/binder_parcel_utils.h"
  },
  {
   "alignment" : 8,
   "linker_set_key" : "_ZTIRKNSt3__18optionalINS_6vectorIlNS_9allocatorIlEEEEEE",
   "name" : "const std::optional<std::vector<long, std::allocator<long>>> &",
   "referenced_type" : "_ZTIKNSt3__18optionalINS_6vectorIlNS_9allocatorIlEEEEEE",
   "self_type" : "_ZTIRKNSt3__18optionalINS_6vectorIlNS_9allocatorIlEEEEEE",
   "size" : 8,
   "source_file" : "frameworks/native/libs/binder/ndk/include_cpp/android/binder_parcel_utils.h"
  },
  {
   "alignment" : 8,
   "linker_set_key" : "_ZTIRKNSt3__18optionalINS_6vectorImNS_9allocatorImEEEEEE",
   "name" : "const std::optional<std::vector<unsigned long, std::allocator<unsigned long>>> &",
   "referenced_type" : "_ZTIKNSt3__18optionalINS_6vectorImNS_9allocatorImEEEEEE",
   "self_type" : "_ZTIRKNSt3__18optionalINS_6vectorImNS_9allocatorImEEEEEE",
   "size" : 8,
   "source_file" : "frameworks/native/libs/binder/ndk/include_cpp/android/binder_parcel_utils.h"
  },
  {
   "alignment" : 8,
   "linker_set_key" : "_ZTIRKb",
   "name" : "const bool &",
   "referenced_type" : "_ZTIKb",
   "self_type" : "_ZTIRKb",
   "size" : 8,
   "source_file" : "frameworks/native/libs/binder/ndk/include_cpp/android/binder_to_string.h"
  },
  {
   "alignment" : 8,
   "linker_set_key" : "_ZTIRKh",
   "name" : "const unsigned char &",
   "referenced_type" : "_ZTIKh",
   "self_type" : "_ZTIRKh",
   "size" : 8,
   "source_file" : "frameworks/native/libs/binder/ndk/include_cpp/android/binder_to_string.h"
  },
  {
   "alignment" : 8,
   "linker_set_key" : "_ZTIRKi",
   "name" : "const int &",
   "referenced_type" : "_ZTIKi",
   "self_type" : "_ZTIRKi",
   "size" : 8,
   "source_file" : "frameworks/native/libs/binder/ndk/include_cpp/android/binder_to_string.h"
  },
  {
   "alignment" : 8,
   "linker_set_key" : "_ZTIRKl",
   "name" : "const long &",
   "referenced_type" : "_ZTIKl",
   "self_type" : "_ZTIRKl",
   "size" : 8,
   "source_file" : "frameworks/native/libs/binder/ndk/include_cpp/android/binder_to_string.h"
  },
  {
   "alignment" : 8,
   "linker_set_key" : "_ZTIRN3ndk10SpAIBinderE",
   "name" : "ndk::SpAIBinder &",
   "referenced_type" : "_ZTIN3ndk10SpAIBinderE",
   "self_type" : "_ZTIRN3ndk10SpAIBinderE",
   "size" : 8,
   "source_file" : "frameworks/native/libs/binder/ndk/include_cpp/android/binder_auto_utils.h"
  },
  {
   "alignment" : 8,
   "linker_set_key" : "_ZTIRN3ndk13ScopedAParcelE",
   "name" : "ndk::ScopedAParcel &",
   "referenced_type" : "_ZTIN3ndk13ScopedAParcelE",
   "self_type" : "_ZTIRN3ndk13ScopedAParcelE",
   "size" : 8,
   "source_file" : "frameworks/native/libs/binder/ndk/include_cpp/android/binder_auto_utils.h"
  },
  {
   "alignment" : 8,
   "linker_set_key" : "_ZTIRN3ndk13ScopedAStatusE",
   "name" : "ndk::ScopedAStatus &",
   "referenced_type" : "_ZTIN3ndk13ScopedAStatusE",
   "self_type" : "_ZTIRN3ndk13ScopedAStatusE",
   "size" : 8,
   "source_file" : "frameworks/native/libs/binder/ndk/include_cpp/android/binder_auto_utils.h"
  },
  {
   "alignment" : 8,
   "linker_set_key" : "_ZTIRN3ndk19ScopedAIBinder_WeakE",
   "name" : "ndk::ScopedAIBinder_Weak &",
   "referenced_type" : "_ZTIN3ndk19ScopedAIBinder_WeakE",
   "self_type" : "_ZTIRN3ndk19ScopedAIBinder_WeakE",
   "size" : 8,
   "source_file" : "frameworks/native/libs/binder/ndk/include_cpp/android/binder_auto_utils.h"
  },
  {
   "alignment" : 8,
   "linker_set_key" : "_ZTIRN3ndk20ScopedFileDescriptorE",
   "name" : "ndk::ScopedFileDescriptor &",
   "referenced_type" : "_ZTIN3ndk20ScopedFileDescriptorE",
   "self_type" : "_ZTIRN3ndk20ScopedFileDescriptorE",
   "size" : 8,
   "source_file" : "frameworks/native/libs/binder/ndk/include_cpp/android/binder_auto_utils.h"
  },
  {
   "alignment" : 8,
   "linker_set_key" : "_ZTIRN3ndk29ScopedAIBinder_DeathRecipientE",
   "name" : "ndk::ScopedAIBinder_DeathRecipient &",
   "referenced_type" : "_ZTIN3ndk29ScopedAIBinder_DeathRecipientE",
   "self_type" : "_ZTIRN3ndk29ScopedAIBinder_DeathRecipientE",
   "size" : 8,
   "source_file" : "frameworks/native/libs/binder/ndk/include_cpp/android/binder_auto_utils.h"
  },
  {
   "alignment" : 8,
   "linker_set_key" : "_ZTIRN3ndk4impl15ScopedAResourceIP7AStatusXadL_Z14AStatus_deleteEELS3_0EEE",
   "name" : "ndk::impl::ScopedAResource<AStatus *, &AStatus_delete, nullptr> &",
   "referenced_type" : "_ZTIN3ndk4impl15ScopedAResourceIP7AStatusXadL_Z14AStatus_deleteEELS3_0EEE",
   "self_type" : "_ZTIRN3ndk4impl15ScopedAResourceIP7AStatusXadL_Z14AStatus_deleteEELS3_0EEE",
   "size" : 8,
   "source_file" : "frameworks/native/libs/binder/ndk/include_cpp/android/binder_auto_utils.h"
  },
  {
   "alignment" : 8,
   "linker_set_key" : "_ZTIRN4aidl7android8hardware8security7keymint10KeyPurposeE",
   "name" : "aidl::android::hardware::security::keymint::KeyPurpose &",
   "referenced_type" : "_ZTIN4aidl7android8hardware8security7keymint10KeyPurposeE",
   "self_type" : "_ZTIRN4aidl7android8hardware8security7keymint10KeyPurposeE",
   "size" : 8,
   "source_file" : "out/soong/.intermediates/hardware/interfaces/security/keymint/aidl/android.hardware.security.keymint-V1-ndk_platform-source/gen/include/aidl/android/hardware/security/keymint/KeyParameterValue.h"
  },
  {
   "alignment" : 8,
   "linker_set_key" : "_ZTIRN4aidl7android8hardware8security7keymint11PaddingModeE",
   "name" : "aidl::android::hardware::security::keymint::PaddingMode &",
   "referenced_type" : "_ZTIN4aidl7android8hardware8security7keymint11PaddingModeE",
   "self_type" : "_ZTIRN4aidl7android8hardware8security7keymint11PaddingModeE",
   "size" : 8,
   "source_file" : "out/soong/.intermediates/hardware/interfaces/security/keymint/aidl/android.hardware.security.keymint-V1-ndk_platform-source/gen/include/aidl/android/hardware/security/keymint/KeyParameterValue.h"
  },
  {
   "alignment" : 8,
   "linker_set_key" : "_ZTIRN4aidl7android8hardware8security7keymint13SecurityLevelE",
   "name" : "aidl::android::hardware::security::keymint::SecurityLevel &",
   "referenced_type" : "_ZTIN4aidl7android8hardware8security7keymint13SecurityLevelE",
   "self_type" : "_ZTIRN4aidl7android8hardware8security7keymint13SecurityLevelE",
   "size" : 8,
   "source_file" : "out/soong/.intermediates/hardware/interfaces/security/keymint/aidl/android.hardware.security.keymint-V1-ndk_platform-source/gen/include/aidl/android/hardware/security/keymint/KeyParameterValue.h"
  },
  {
   "alignment" : 8,
   "linker_set_key" : "_ZTIRN4aidl7android8hardware8security7keymint17KeyParameterValueE",
   "name" : "aidl::android::hardware::security::keymint::KeyParameterValue &",
   "referenced_type" : "_ZTIN4aidl7android8hardware8security7keymint17KeyParameterValueE",
   "self_type" : "_ZTIRN4aidl7android8hardware8security7keymint17KeyParameterValueE",
   "size" : 8,
   "source_file" : "out/soong/.intermediates/hardware/interfaces/security/keymint/aidl/android.hardware.security.keymint-V1-ndk_platform-source/gen/include/aidl/android/hardware/security/keymint/KeyParameterValue.h"
  },
  {
   "alignment" : 8,
   "linker_set_key" : "_ZTIRN4aidl7android8hardware8security7keymint25HardwareAuthenticatorTypeE",
   "name" : "aidl::android::hardware::security::keymint::HardwareAuthenticatorType &",
   "referenced_type" : "_ZTIN4aidl7android8hardware8security7keymint25HardwareAuthenticatorTypeE",
   "self_type" : "_ZTIRN4aidl7android8hardware8security7keymint25HardwareAuthenticatorTypeE",
   "size" : 8,
   "source_file" : "out/soong/.intermediates/hardware/interfaces/security/keymint/aidl/android.hardware.security.keymint-V1-ndk_platform-source/gen/include/aidl/android/hardware/security/keymint/KeyParameterValue.h"
  },
  {
   "alignment" : 8,
   "linker_set_key" : "_ZTIRN4aidl7android8hardware8security7keymint6DigestE",
   "name" : "aidl::android::hardware::security::keymint::Digest &",
   "referenced_type" : "_ZTIN4aidl7android8hardware8security7keymint6DigestE",
   "self_type" : "_ZTIRN4aidl7android8hardware8security7keymint6DigestE",
   "size" : 8,
   "source_file" : "out/soong/.intermediates/hardware/interfaces/security/keymint/aidl/android.hardware.security.keymint-V1-ndk_platform-source/gen/include/aidl/android/hardware/security/keymint/KeyParameterValue.h"
  },
  {
   "alignment" : 8,
   "linker_set_key" : "_ZTIRN4aidl7android8hardware8security7keymint7EcCurveE",
   "name" : "aidl::android::hardware::security::keymint::EcCurve &",
   "referenced_type" : "_ZTIN4aidl7android8hardware8security7keymint7EcCurveE",
   "self_type" : "_ZTIRN4aidl7android8hardware8security7keymint7EcCurveE",
   "size" : 8,
   "source_file" : "out/soong/.intermediates/hardware/interfaces/security/keymint/aidl/android.hardware.security.keymint-V1-ndk_platform-source/gen/include/aidl/android/hardware/security/keymint/KeyParameterValue.h"
  },
  {
   "alignment" : 8,
   "linker_set_key" : "_ZTIRN4aidl7android8hardware8security7keymint9AlgorithmE",
   "name" : "aidl::android::hardware::security::keymint::Algorithm &",
   "referenced_type" : "_ZTIN4aidl7android8hardware8security7keymint9AlgorithmE",
   "self_type" : "_ZTIRN4aidl7android8hardware8security7keymint9AlgorithmE",
   "size" : 8,
   "source_file" : "out/soong/.intermediates/hardware/interfaces/security/keymint/aidl/android.hardware.security.keymint-V1-ndk_platform-source/gen/include/aidl/android/hardware/security/keymint/KeyParameterValue.h"
  },
  {
   "alignment" : 8,
   "linker_set_key" : "_ZTIRN4aidl7android8hardware8security7keymint9BlockModeE",
   "name" : "aidl::android::hardware::security::keymint::BlockMode &",
   "referenced_type" : "_ZTIN4aidl7android8hardware8security7keymint9BlockModeE",
   "self_type" : "_ZTIRN4aidl7android8hardware8security7keymint9BlockModeE",
   "size" : 8,
   "source_file" : "out/soong/.intermediates/hardware/interfaces/security/keymint/aidl/android.hardware.security.keymint-V1-ndk_platform-source/gen/include/aidl/android/hardware/security/keymint/KeyParameterValue.h"
  },
  {
   "alignment" : 8,
   "linker_set_key" : "_ZTIRN4aidl7android8hardware8security7keymint9KeyOriginE",
   "name" : "aidl::android::hardware::security::keymint::KeyOrigin &",
   "referenced_type" : "_ZTIN4aidl7android8hardware8security7keymint9KeyOriginE",
   "self_type" : "_ZTIRN4aidl7android8hardware8security7keymint9KeyOriginE",
   "size" : 8,
   "source_file" : "out/soong/.intermediates/hardware/interfaces/security/keymint/aidl/android.hardware.security.keymint-V1-ndk_platform-source/gen/include/aidl/android/hardware/security/keymint/KeyParameterValue.h"
  },
  {
   "alignment" : 8,
   "linker_set_key" : "_ZTIRb",
   "name" : "bool &",
   "referenced_type" : "_ZTIb",
   "self_type" : "_ZTIRb",
   "size" : 8,
   "source_file" : "out/soong/.intermediates/hardware/interfaces/security/keymint/aidl/android.hardware.security.keymint-V1-ndk_platform-source/gen/include/aidl/android/hardware/security/keymint/KeyParameterValue.h"
  },
  {
   "alignment" : 8,
   "linker_set_key" : "_ZTIRi",
   "name" : "int &",
   "referenced_type" : "_ZTIi",
   "self_type" : "_ZTIRi",
   "size" : 8,
   "source_file" : "out/soong/.intermediates/hardware/interfaces/security/keymint/aidl/android.hardware.security.keymint-V1-ndk_platform-source/gen/include/aidl/android/hardware/security/keymint/KeyParameterValue.h"
  },
  {
   "alignment" : 8,
   "linker_set_key" : "_ZTIRl",
   "name" : "long &",
   "referenced_type" : "_ZTIl",
   "self_type" : "_ZTIRl",
   "size" : 8,
   "source_file" : "out/soong/.intermediates/hardware/interfaces/security/keymint/aidl/android.hardware.security.keymint-V1-ndk_platform-source/gen/include/aidl/android/hardware/security/keymint/KeyParameterValue.h"
  }
 ],
 "pointer_types" :
 [
  {
   "alignment" : 8,
   "linker_set_key" : "_ZTIP13AIBinder_Weak",
   "name" : "AIBinder_Weak *",
   "referenced_type" : "_ZTI13AIBinder_Weak",
   "self_type" : "_ZTIP13AIBinder_Weak",
   "size" : 8,
   "source_file" : "frameworks/native/libs/binder/ndk/include_cpp/android/binder_auto_utils.h"
  },
  {
   "alignment" : 8,
   "linker_set_key" : "_ZTIP14AIBinder_Class",
   "name" : "AIBinder_Class *",
   "referenced_type" : "_ZTI14AIBinder_Class",
   "self_type" : "_ZTIP14AIBinder_Class",
   "size" : 8,
   "source_file" : "frameworks/native/libs/binder/ndk/include_cpp/android/binder_interface_utils.h"
  },
  {
   "alignment" : 8,
   "linker_set_key" : "_ZTIP23AIBinder_DeathRecipient",
   "name" : "AIBinder_DeathRecipient *",
   "referenced_type" : "_ZTI23AIBinder_DeathRecipient",
   "self_type" : "_ZTIP23AIBinder_DeathRecipient",
   "size" : 8,
   "source_file" : "frameworks/native/libs/binder/ndk/include_cpp/android/binder_auto_utils.h"
  },
  {
   "alignment" : 8,
   "linker_set_key" : "_ZTIP7AParcel",
   "name" : "AParcel *",
   "referenced_type" : "_ZTI7AParcel",
   "self_type" : "_ZTIP7AParcel",
   "size" : 8,
   "source_file" : "frameworks/native/libs/binder/ndk/include_cpp/android/binder_auto_utils.h"
  },
  {
   "alignment" : 8,
   "linker_set_key" : "_ZTIP7AStatus",
   "name" : "AStatus *",
   "referenced_type" : "_ZTI7AStatus",
   "self_type" : "_ZTIP7AStatus",
   "size" : 8,
   "source_file" : "frameworks/native/libs/binder/ndk/include_cpp/android/binder_auto_utils.h"
  },
  {
   "alignment" : 8,
   "linker_set_key" : "_ZTIP8AIBinder",
   "name" : "AIBinder *",
   "referenced_type" : "_ZTI8AIBinder",
   "self_type" : "_ZTIP8AIBinder",
   "size" : 8,
   "source_file" : "frameworks/native/libs/binder/ndk/include_cpp/android/binder_auto_utils.h"
  },
  {
   "alignment" : 8,
   "linker_set_key" : "_ZTIPFiP8AIBinderjPK7AParcelPS1_E",
   "name" : "int (*)(AIBinder *, unsigned int, const AParcel *, AParcel *)",
   "referenced_type" : "_ZTIFiP8AIBinderjPK7AParcelPS1_E",
   "self_type" : "_ZTIPFiP8AIBinderjPK7AParcelPS1_E",
   "size" : 8,
   "source_file" : "frameworks/native/libs/binder/ndk/include_cpp/android/binder_interface_utils.h"
  },
  {
   "alignment" : 8,
   "linker_set_key" : "_ZTIPK7AParcel",
   "name" : "const AParcel *",
   "referenced_type" : "_ZTIK7AParcel",
   "self_type" : "_ZTIPK7AParcel",
   "size" : 8,
   "source_file" : "frameworks/native/libs/binder/ndk/include_cpp/android/binder_interface_utils.h"
  },
  {
   "alignment" : 8,
   "linker_set_key" : "_ZTIPKN3ndk10SpAIBinderE",
   "name" : "const ndk::SpAIBinder *",
   "referenced_type" : "_ZTIKN3ndk10SpAIBinderE",
   "self_type" : "_ZTIPKN3ndk10SpAIBinderE",
   "size" : 8,
   "source_file" : "frameworks/native/libs/binder/ndk/include_cpp/android/binder_auto_utils.h"
  },
  {
   "alignment" : 8,
   "linker_set_key" : "_ZTIPKN3ndk13ScopedAParcelE",
   "name" : "const ndk::ScopedAParcel *",
   "referenced_type" : "_ZTIKN3ndk13ScopedAParcelE",
   "self_type" : "_ZTIPKN3ndk13ScopedAParcelE",
   "size" : 8,
   "source_file" : "frameworks/native/libs/binder/ndk/include_cpp/android/binder_auto_utils.h"
  },
  {
   "alignment" : 8,
   "linker_set_key" : "_ZTIPKN3ndk13ScopedAStatusE",
   "name" : "const ndk::ScopedAStatus *",
   "referenced_type" : "_ZTIKN3ndk13ScopedAStatusE",
   "self_type" : "_ZTIPKN3ndk13ScopedAStatusE",
   "size" : 8,
   "source_file" : "frameworks/native/libs/binder/ndk/include_cpp/android/binder_auto_utils.h"
  },
  {
   "alignment" : 8,
   "linker_set_key" : "_ZTIPKN3ndk17AParcelableHolderE",
   "name" : "const ndk::AParcelableHolder *",
   "referenced_type" : "_ZTIKN3ndk17AParcelableHolderE",
   "self_type" : "_ZTIPKN3ndk17AParcelableHolderE",
   "size" : 8,
   "source_file" : "frameworks/native/libs/binder/ndk/include_cpp/android/binder_parcelable_utils.h"
  },
  {
   "alignment" : 8,
   "linker_set_key" : "_ZTIPKN3ndk20ScopedFileDescriptorE",
   "name" : "const ndk::ScopedFileDescriptor *",
   "referenced_type" : "_ZTIKN3ndk20ScopedFileDescriptorE",
   "self_type" : "_ZTIPKN3ndk20ScopedFileDescriptorE",
   "size" : 8,
   "source_file" : "frameworks/native/libs/binder/ndk/include_cpp/android/binder_auto_utils.h"
  },
  {
   "alignment" : 8,
   "linker_set_key" : "_ZTIPKN3ndk4impl15ScopedAResourceIP7AParcelXadL_Z14AParcel_deleteEELS3_0EEE",
   "name" : "const ndk::impl::ScopedAResource<AParcel *, &AParcel_delete, nullptr> *",
   "referenced_type" : "_ZTIKN3ndk4impl15ScopedAResourceIP7AParcelXadL_Z14AParcel_deleteEELS3_0EEE",
   "self_type" : "_ZTIPKN3ndk4impl15ScopedAResourceIP7AParcelXadL_Z14AParcel_deleteEELS3_0EEE",
   "size" : 8,
   "source_file" : "frameworks/native/libs/binder/ndk/include_cpp/android/binder_auto_utils.h"
  },
  {
   "alignment" : 8,
   "linker_set_key" : "_ZTIPKN3ndk4impl15ScopedAResourceIP7AStatusXadL_Z14AStatus_deleteEELS3_0EEE",
   "name" : "const ndk::impl::ScopedAResource<AStatus *, &AStatus_delete, nullptr> *",
   "referenced_type" : "_ZTIKN3ndk4impl15ScopedAResourceIP7AStatusXadL_Z14AStatus_deleteEELS3_0EEE",
   "self_type" : "_ZTIPKN3ndk4impl15ScopedAResourceIP7AStatusXadL_Z14AStatus_deleteEELS3_0EEE",
   "size" : 8,
   "source_file" : "frameworks/native/libs/binder/ndk/include_cpp/android/binder_auto_utils.h"
  },
  {
   "alignment" : 8,
   "linker_set_key" : "_ZTIPKN4aidl7android8hardware8security11secureclock14TimeStampTokenE",
   "name" : "const aidl::android::hardware::security::secureclock::TimeStampToken *",
   "referenced_type" : "_ZTIKN4aidl7android8hardware8security11secureclock14TimeStampTokenE",
   "self_type" : "_ZTIPKN4aidl7android8hardware8security11secureclock14TimeStampTokenE",
   "size" : 8,
   "source_file" : "out/soong/.intermediates/hardware/interfaces/security/secureclock/aidl/android.hardware.security.secureclock-V1-ndk_platform-source/gen/include/aidl/android/hardware/security/secureclock/TimeStampToken.h"
  },
  {
   "alignment" : 8,
   "linker_set_key" : "_ZTIPKN4aidl7android8hardware8security11secureclock9TimestampE",
   "name" : "const aidl::android::hardware::security::secureclock::Timestamp *",
   "referenced_type" : "_ZTIKN4aidl7android8hardware8security11secureclock9TimestampE",
   "self_type" : "_ZTIPKN4aidl7android8hardware8security11secureclock9TimestampE",
   "size" : 8,
   "source_file" : "out/soong/.intermediates/hardware/interfaces/security/secureclock/aidl/android.hardware.security.secureclock-V1-ndk_platform-source/gen/include/aidl/android/hardware/security/secureclock/Timestamp.h"
  },
  {
   "alignment" : 8,
   "linker_set_key" : "_ZTIPKN4aidl7android8hardware8security7keymint10DeviceInfoE",
   "name" : "const aidl::android::hardware::security::keymint::DeviceInfo *",
   "referenced_type" : "_ZTIKN4aidl7android8hardware8security7keymint10DeviceInfoE",
   "self_type" : "_ZTIPKN4aidl7android8hardware8security7keymint10DeviceInfoE",
   "size" : 8,
   "source_file" : "out/soong/.intermediates/hardware/interfaces/security/keymint/aidl/android.hardware.security.keymint-V1-ndk_platform-source/gen/include/aidl/android/hardware/security/keymint/DeviceInfo.h"
  },
  {
   "alignment" : 8,
   "linker_set_key" : "_ZTIPKN4aidl7android8hardware8security7keymint11BeginResultE",
   "name" : "const aidl::android::hardware::security::keymint::BeginResult *",
   "referenced_type" : "_ZTIKN4aidl7android8hardware8security7keymint11BeginResultE",
   "self_type" : "_ZTIPKN4aidl7android8hardware8security7keymint11BeginResultE",
   "size" : 8,
   "source_file" : "out/soong/.intermediates/hardware/interfaces/security/keymint/aidl/android.hardware.security.keymint-V1-ndk_platform-source/gen/include/aidl/android/hardware/security/keymint/BeginResult.h"
  },
  {
   "alignment" : 8,
   "linker_set_key" : "_ZTIPKN4aidl7android8hardware8security7keymint11CertificateE",
   "name" : "const aidl::android::hardware::security::keymint::Certificate *",
   "referenced_type" : "_ZTIKN4aidl7android8hardware8security7keymint11CertificateE",
   "self_type" : "_ZTIPKN4aidl7android8hardware8security7keymint11CertificateE",
   "size" : 8,
   "source_file" : "out/soong/.intermediates/hardware/interfaces/security/keymint/aidl/android.hardware.security.keymint-V1-ndk_platform-source/gen/include/aidl/android/hardware/security/keymint/Certificate.h"
  },
  {
   "alignment" : 8,
   "linker_set_key" : "_ZTIPKN4aidl7android8hardware8security7keymint12KeyParameterE",
   "name" : "const aidl::android::hardware::security::keymint::KeyParameter *",
   "referenced_type" : "_ZTIKN4aidl7android8hardware8security7keymint12KeyParameterE",
   "self_type" : "_ZTIPKN4aidl7android8hardware8security7keymint12KeyParameterE",
   "size" : 8,
   "source_file" : "out/soong/.intermediates/hardware/interfaces/security/keymint/aidl/android.hardware.security.keymint-V1-ndk_platform-source/gen/include/aidl/android/hardware/security/keymint/KeyParameter.h"
  },
  {
   "alignment" : 8,
   "linker_set_key" : "_ZTIPKN4aidl7android8hardware8security7keymint13ProtectedDataE",
   "name" : "const aidl::android::hardware::security::keymint::ProtectedData *",
   "referenced_type" : "_ZTIKN4aidl7android8hardware8security7keymint13ProtectedDataE",
   "self_type" : "_ZTIPKN4aidl7android8hardware8security7keymint13ProtectedDataE",
   "size" : 8,
   "source_file" : "out/soong/.intermediates/hardware/interfaces/security/keymint/aidl/android.hardware.security.keymint-V1-ndk_platform-source/gen/include/aidl/android/hardware/security/keymint/ProtectedData.h"
  },
  {
   "alignment" : 8,
   "linker_set_key" : "_ZTIPKN4aidl7android8hardware8security7keymint14AttestationKeyE",
   "name" : "const aidl::android::hardware::security::keymint::AttestationKey *",
   "referenced_type" : "_ZTIKN4aidl7android8hardware8security7keymint14AttestationKeyE",
   "self_type" : "_ZTIPKN4aidl7android8hardware8security7keymint14AttestationKeyE",
   "size" : 8,
   "source_file" : "out/soong/.intermediates/hardware/interfaces/security/keymint/aidl/android.hardware.security.keymint-V1-ndk_platform-source/gen/include/aidl/android/hardware/security/keymint/AttestationKey.h"
  },
  {
   "alignment" : 8,
   "linker_set_key" : "_ZTIPKN4aidl7android8hardware8security7keymint14MacedPublicKeyE",
   "name" : "const aidl::android::hardware::security::keymint::MacedPublicKey *",
   "referenced_type" : "_ZTIKN4aidl7android8hardware8security7keymint14MacedPublicKeyE",
   "self_type" : "_ZTIPKN4aidl7android8hardware8security7keymint14MacedPublicKeyE",
   "size" : 8,
   "source_file" : "out/soong/.intermediates/hardware/interfaces/security/keymint/aidl/android.hardware.security.keymint-V1-ndk_platform-source/gen/include/aidl/android/hardware/security/keymint/MacedPublicKey.h"
  },
  {
   "alignment" : 8,
   "linker_set_key" : "_ZTIPKN4aidl7android8hardware8security7keymint15RpcHardwareInfoE",
   "name" : "const aidl::android::hardware::security::keymint::RpcHardwareInfo *",
   "referenced_type" : "_ZTIKN4aidl7android8hardware8security7keymint15RpcHardwareInfoE",
   "self_type" : "_ZTIPKN4aidl7android8hardware8security7keymint15RpcHardwareInfoE",
   "size" : 8,
   "source_file" : "out/soong/.intermediates/hardware/interfaces/security/keymint/aidl/android.hardware.security.keymint-V1-ndk_platform-source/gen/include/aidl/android/hardware/security/keymint/RpcHardwareInfo.h"
  },
  {
   "alignment" : 8,
   "linker_set_key" : "_ZTIPKN4aidl7android8hardware8security7keymint17HardwareAuthTokenE",
   "name" : "const aidl::android::hardware::security::keymint::HardwareAuthToken *",
   "referenced_type" : "_ZTIKN4aidl7android8hardware8security7keymint17HardwareAuthTokenE",
   "self_type" : "_ZTIPKN4aidl7android8hardware8security7keymint17HardwareAuthTokenE",
   "size" : 8,
   "source_file" : "out/soong/.intermediates/hardware/interfaces/security/keymint/aidl/android.hardware.security.keymint-V1-ndk_platform-source/gen/include/aidl/android/hardware/security/keymint/HardwareAuthToken.h"
  },
  {
   "alignment" : 8,
   "linker_set_key" : "_ZTIPKN4aidl7android8hardware8security7keymint17KeyCreationResultE",
   "name" : "const aidl::android::hardware::security::keymint::KeyCreationResult *",
   "referenced_type" : "_ZTIKN4aidl7android8hardware8security7keymint17KeyCreationResultE",
   "self_type" : "_ZTIPKN4aidl7android8hardware8security7keymint17KeyCreationResultE",
   "size" : 8,
   "source_file" : "out/soong/.intermediates/hardware/interfaces/security/keymint/aidl/android.hardware.security.keymint-V1-ndk_platform-source/gen/include/aidl/android/hardware/security/keymint/KeyCreationResult.h"
  },
  {
   "alignment" : 8,
   "linker_set_key" : "_ZTIPKN4aidl7android8hardware8security7keymint17KeyParameterValueE",
   "name" : "const aidl::android::hardware::security::keymint::KeyParameterValue *",
   "referenced_type" : "_ZTIKN4aidl7android8hardware8security7keymint17KeyParameterValueE",
   "self_type" : "_ZTIPKN4aidl7android8hardware8security7keymint17KeyParameterValueE",
   "size" : 8,
   "source_file" : "out/soong/.intermediates/hardware/interfaces/security/keymint/aidl/android.hardware.security.keymint-V1-ndk_platform-source/gen/include/aidl/android/hardware/security/keymint/KeyParameterValue.h"
  },
  {
   "alignment" : 8,
   "linker_set_key" : "_ZTIPKN4aidl7android8hardware8security7keymint18KeyCharacteristicsE",
   "name" : "const aidl::android::hardware::security::keymint::KeyCharacteristics *",
   "referenced_type" : "_ZTIKN4aidl7android8hardware8security7keymint18KeyCharacteristicsE",
   "self_type" : "_ZTIPKN4aidl7android8hardware8security7keymint18KeyCharacteristicsE",
   "size" : 8,
   "source_file" : "out/soong/.intermediates/hardware/interfaces/security/keymint/aidl/android.hardware.security.keymint-V1-ndk_platform-source/gen/include/aidl/android/hardware/security/keymint/KeyCharacteristics.h"
  },
  {
   "alignment" : 8,
   "linker_set_key" : "_ZTIPKN4aidl7android8hardware8security7keymint19KeyMintHardwareInfoE",
   "name" : "const aidl::android::hardware::security::keymint::KeyMintHardwareInfo *",
   "referenced_type" : "_ZTIKN4aidl7android8hardware8security7keymint19KeyMintHardwareInfoE",
   "self_type" : "_ZTIPKN4aidl7android8hardware8security7keymint19KeyMintHardwareInfoE",
   "size" : 8,
   "source_file" : "out/soong/.intermediates/hardware/interfaces/security/keymint/aidl/android.hardware.security.keymint-V1-ndk_platform-source/gen/include/aidl/android/hardware/security/keymint/KeyMintHardwareInfo.h"
  },
  {
   "alignment" : 8,
   "linker_set_key" : "_ZTIPKc",
   "name" : "const char *",
   "referenced_type" : "_ZTIKc",
   "self_type" : "_ZTIPKc",
   "size" : 8,
   "source_file" : "frameworks/native/libs/binder/ndk/include_cpp/android/binder_auto_utils.h"
  },
  {
   "alignment" : 8,
   "linker_set_key" : "_ZTIPKv",
   "name" : "const void *",
   "referenced_type" : "_ZTIKv",
   "self_type" : "_ZTIPKv",
   "size" : 8,
   "source_file" : "frameworks/native/libs/binder/ndk/include_cpp/android/binder_parcel_utils.h"
  },
  {
   "alignment" : 8,
   "linker_set_key" : "_ZTIPN3ndk10SpAIBinderE",
   "name" : "ndk::SpAIBinder *",
   "referenced_type" : "_ZTIN3ndk10SpAIBinderE",
   "self_type" : "_ZTIPN3ndk10SpAIBinderE",
   "size" : 8,
   "source_file" : "frameworks/native/libs/binder/ndk/include_cpp/android/binder_auto_utils.h"
  },
  {
   "alignment" : 8,
   "linker_set_key" : "_ZTIPN3ndk11ICInterfaceE",
   "name" : "ndk::ICInterface *",
   "referenced_type" : "_ZTIN3ndk11ICInterfaceE",
   "self_type" : "_ZTIPN3ndk11ICInterfaceE",
   "size" : 8,
   "source_file" : "frameworks/native/libs/binder/ndk/include_cpp/android/binder_interface_utils.h"
  },
  {
   "alignment" : 8,
   "linker_set_key" : "_ZTIPN3ndk12BnCInterfaceIN4aidl7android8hardware8security7keymint14IKeyMintDeviceEEE",
   "name" : "ndk::BnCInterface<aidl::android::hardware::security::keymint::IKeyMintDevice> *",
   "referenced_type" : "_ZTIN3ndk12BnCInterfaceIN4aidl7android8hardware8security7keymint14IKeyMintDeviceEEE",
   "self_type" : "_ZTIPN3ndk12BnCInterfaceIN4aidl7android8hardware8security7keymint14IKeyMintDeviceEEE",
   "size" : 8,
   "source_file" : "frameworks/native/libs/binder/ndk/include_cpp/android/binder_interface_utils.h"
  },
  {
   "alignment" : 8,
   "linker_set_key" : "_ZTIPN3ndk12BnCInterfaceIN4aidl7android8hardware8security7keymint17IKeyMintOperationEEE",
   "name" : "ndk::BnCInterface<aidl::android::hardware::security::keymint::IKeyMintOperation> *",
   "referenced_type" : "_ZTIN3ndk12BnCInterfaceIN4aidl7android8hardware8security7keymint17IKeyMintOperationEEE",
   "self_type" : "_ZTIPN3ndk12BnCInterfaceIN4aidl7android8hardware8security7keymint17IKeyMintOperationEEE",
   "size" : 8,
   "source_file" : "frameworks/native/libs/binder/ndk/include_cpp/android/binder_interface_utils.h"
  },
  {
   "alignment" : 8,
   "linker_set_key" : "_ZTIPN3ndk12BnCInterfaceIN4aidl7android8hardware8security7keymint29IRemotelyProvisionedComponentEEE",
   "name" : "ndk::BnCInterface<aidl::android::hardware::security::keymint::IRemotelyProvisionedComponent> *",
   "referenced_type" : "_ZTIN3ndk12BnCInterfaceIN4aidl7android8hardware8security7keymint29IRemotelyProvisionedComponentEEE",
   "self_type" : "_ZTIPN3ndk12BnCInterfaceIN4aidl7android8hardware8security7keymint29IRemotelyProvisionedComponentEEE",
   "size" : 8,
   "source_file" : "frameworks/native/libs/binder/ndk/include_cpp/android/binder_interface_utils.h"
  },
  {
   "alignment" : 8,
   "linker_set_key" : "_ZTIPN3ndk12BpCInterfaceIN4aidl7android8hardware8security7keymint14IKeyMintDeviceEEE",
   "name" : "ndk::BpCInterface<aidl::android::hardware::security::keymint::IKeyMintDevice> *",
   "referenced_type" : "_ZTIN3ndk12BpCInterfaceIN4aidl7android8hardware8security7keymint14IKeyMintDeviceEEE",
   "self_type" : "_ZTIPN3ndk12BpCInterfaceIN4aidl7android8hardware8security7keymint14IKeyMintDeviceEEE",
   "size" : 8,
   "source_file" : "frameworks/native/libs/binder/ndk/include_cpp/android/binder_interface_utils.h"
  },
  {
   "alignment" : 8,
   "linker_set_key" : "_ZTIPN3ndk12BpCInterfaceIN4aidl7android8hardware8security7keymint17IKeyMintOperationEEE",
   "name" : "ndk::BpCInterface<aidl::android::hardware::security::keymint::IKeyMintOperation> *",
   "referenced_type" : "_ZTIN3ndk12BpCInterfaceIN4aidl7android8hardware8security7keymint17IKeyMintOperationEEE",
   "self_type" : "_ZTIPN3ndk12BpCInterfaceIN4aidl7android8hardware8security7keymint17IKeyMintOperationEEE",
   "size" : 8,
   "source_file" : "frameworks/native/libs/binder/ndk/include_cpp/android/binder_interface_utils.h"
  },
  {
   "alignment" : 8,
   "linker_set_key" : "_ZTIPN3ndk12BpCInterfaceIN4aidl7android8hardware8security7keymint29IRemotelyProvisionedComponentEEE",
   "name" : "ndk::BpCInterface<aidl::android::hardware::security::keymint::IRemotelyProvisionedComponent> *",
   "referenced_type" : "_ZTIN3ndk12BpCInterfaceIN4aidl7android8hardware8security7keymint29IRemotelyProvisionedComponentEEE",
   "self_type" : "_ZTIPN3ndk12BpCInterfaceIN4aidl7android8hardware8security7keymint29IRemotelyProvisionedComponentEEE",
   "size" : 8,
   "source_file" : "frameworks/native/libs/binder/ndk/include_cpp/android/binder_interface_utils.h"
  },
  {
   "alignment" : 8,
   "linker_set_key" : "_ZTIPN3ndk13ScopedAParcelE",
   "name" : "ndk::ScopedAParcel *",
   "referenced_type" : "_ZTIN3ndk13ScopedAParcelE",
   "self_type" : "_ZTIPN3ndk13ScopedAParcelE",
   "size" : 8,
   "source_file" : "frameworks/native/libs/binder/ndk/include_cpp/android/binder_auto_utils.h"
  },
  {
   "alignment" : 8,
   "linker_set_key" : "_ZTIPN3ndk13ScopedAStatusE",
   "name" : "ndk::ScopedAStatus *",
   "referenced_type" : "_ZTIN3ndk13ScopedAStatusE",
   "self_type" : "_ZTIPN3ndk13ScopedAStatusE",
   "size" : 8,
   "source_file" : "frameworks/native/libs/binder/ndk/include_cpp/android/binder_auto_utils.h"
  },
  {
   "alignment" : 8,
   "linker_set_key" : "_ZTIPN3ndk13SharedRefBaseE",
   "name" : "ndk::SharedRefBase *",
   "referenced_type" : "_ZTIN3ndk13SharedRefBaseE",
   "self_type" : "_ZTIPN3ndk13SharedRefBaseE",
   "size" : 8,
   "source_file" : "frameworks/native/libs/binder/ndk/include_cpp/android/binder_interface_utils.h"
  },
  {
   "alignment" : 8,
   "linker_set_key" : "_ZTIPN3ndk17AParcelableHolderE",
   "name" : "ndk::AParcelableHolder *",
   "referenced_type" : "_ZTIN3ndk17AParcelableHolderE",
   "self_type" : "_ZTIPN3ndk17AParcelableHolderE",
   "size" : 8,
   "source_file" : "frameworks/native/libs/binder/ndk/include_cpp/android/binder_parcelable_utils.h"
  },
  {
   "alignment" : 8,
   "linker_set_key" : "_ZTIPN3ndk19ScopedAIBinder_WeakE",
   "name" : "ndk::ScopedAIBinder_Weak *",
   "referenced_type" : "_ZTIN3ndk19ScopedAIBinder_WeakE",
   "self_type" : "_ZTIPN3ndk19ScopedAIBinder_WeakE",
   "size" : 8,
   "source_file" : "frameworks/native/libs/binder/ndk/include_cpp/android/binder_auto_utils.h"
  },
  {
   "alignment" : 8,
   "linker_set_key" : "_ZTIPN3ndk20ScopedFileDescriptorE",
   "name" : "ndk::ScopedFileDescriptor *",
   "referenced_type" : "_ZTIN3ndk20ScopedFileDescriptorE",
   "self_type" : "_ZTIPN3ndk20ScopedFileDescriptorE",
   "size" : 8,
   "source_file" : "frameworks/native/libs/binder/ndk/include_cpp/android/binder_auto_utils.h"
  },
  {
   "alignment" : 8,
   "linker_set_key" : "_ZTIPN3ndk29ScopedAIBinder_DeathRecipientE",
   "name" : "ndk::ScopedAIBinder_DeathRecipient *",
   "referenced_type" : "_ZTIN3ndk29ScopedAIBinder_DeathRecipientE",
   "self_type" : "_ZTIPN3ndk29ScopedAIBinder_DeathRecipientE",
   "size" : 8,
   "source_file" : "frameworks/native/libs/binder/ndk/include_cpp/android/binder_auto_utils.h"
  },
  {
   "alignment" : 8,
   "linker_set_key" : "_ZTIPN3ndk4impl15ScopedAResourceIP13AIBinder_WeakXadL_Z20AIBinder_Weak_deleteEELS3_0EEE",
   "name" : "ndk::impl::ScopedAResource<AIBinder_Weak *, &AIBinder_Weak_delete, nullptr> *",
   "referenced_type" : "_ZTIN3ndk4impl15ScopedAResourceIP13AIBinder_WeakXadL_Z20AIBinder_Weak_deleteEELS3_0EEE",
   "self_type" : "_ZTIPN3ndk4impl15ScopedAResourceIP13AIBinder_WeakXadL_Z20AIBinder_Weak_deleteEELS3_0EEE",
   "size" : 8,
   "source_file" : "frameworks/native/libs/binder/ndk/include_cpp/android/binder_auto_utils.h"
  },
  {
   "alignment" : 8,
   "linker_set_key" : "_ZTIPN3ndk4impl15ScopedAResourceIP23AIBinder_DeathRecipientXadL_Z30AIBinder_DeathRecipient_deleteEELS3_0EEE",
   "name" : "ndk::impl::ScopedAResource<AIBinder_DeathRecipient *, &AIBinder_DeathRecipient_delete, nullptr> *",
   "referenced_type" : "_ZTIN3ndk4impl15ScopedAResourceIP23AIBinder_DeathRecipientXadL_Z30AIBinder_DeathRecipient_deleteEELS3_0EEE",
   "self_type" : "_ZTIPN3ndk4impl15ScopedAResourceIP23AIBinder_DeathRecipientXadL_Z30AIBinder_DeathRecipient_deleteEELS3_0EEE",
   "size" : 8,
   "source_file" : "frameworks/native/libs/binder/ndk/include_cpp/android/binder_auto_utils.h"
  },
  {
   "alignment" : 8,
   "linker_set_key" : "_ZTIPN3ndk4impl15ScopedAResourceIP7AParcelXadL_Z14AParcel_deleteEELS3_0EEE",
   "name" : "ndk::impl::ScopedAResource<AParcel *, &AParcel_delete, nullptr> *",
   "referenced_type" : "_ZTIN3ndk4impl15ScopedAResourceIP7AParcelXadL_Z14AParcel_deleteEELS3_0EEE",
   "self_type" : "_ZTIPN3ndk4impl15ScopedAResourceIP7AParcelXadL_Z14AParcel_deleteEELS3_0EEE",
   "size" : 8,
   "source_file" : "frameworks/native/libs/binder/ndk/include_cpp/android/binder_auto_utils.h"
  },
  {
   "alignment" : 8,
   "linker_set_key" : "_ZTIPN3ndk4impl15ScopedAResourceIP7AStatusXadL_Z14AStatus_deleteEELS3_0EEE",
   "name" : "ndk::impl::ScopedAResource<AStatus *, &AStatus_delete, nullptr> *",
   "referenced_type" : "_ZTIN3ndk4impl15ScopedAResourceIP7AStatusXadL_Z14AStatus_deleteEELS3_0EEE",
   "self_type" : "_ZTIPN3ndk4impl15ScopedAResourceIP7AStatusXadL_Z14AStatus_deleteEELS3_0EEE",
   "size" : 8,
   "source_file" : "frameworks/native/libs/binder/ndk/include_cpp/android/binder_auto_utils.h"
  },
  {
   "alignment" : 8,
   "linker_set_key" : "_ZTIPN4aidl7android8hardware8security7keymint10DeviceInfoE",
   "name" : "aidl::android::hardware::security::keymint::DeviceInfo *",
   "referenced_type" : "_ZTIN4aidl7android8hardware8security7keymint10DeviceInfoE",
   "self_type" : "_ZTIPN4aidl7android8hardware8security7keymint10DeviceInfoE",
   "size" : 8,
   "source_file" : "out/soong/.intermediates/hardware/interfaces/security/keymint/aidl/android.hardware.security.keymint-V1-ndk_platform-source/gen/include/aidl/android/hardware/security/keymint/DeviceInfo.h"
  },
  {
   "alignment" : 8,
   "linker_set_key" : "_ZTIPN4aidl7android8hardware8security7keymint11BeginResultE",
   "name" : "aidl::android::hardware::security::keymint::BeginResult *",
   "referenced_type" : "_ZTIN4aidl7android8hardware8security7keymint11BeginResultE",
   "self_type" : "_ZTIPN4aidl7android8hardware8security7keymint11BeginResultE",
   "size" : 8,
   "source_file" : "out/soong/.intermediates/hardware/interfaces/security/keymint/aidl/android.hardware.security.keymint-V1-ndk_platform-source/gen/include/aidl/android/hardware/security/keymint/BeginResult.h"
  },
  {
   "alignment" : 8,
   "linker_set_key" : "_ZTIPN4aidl7android8hardware8security7keymint11CertificateE",
   "name" : "aidl::android::hardware::security::keymint::Certificate *",
   "referenced_type" : "_ZTIN4aidl7android8hardware8security7keymint11CertificateE",
   "self_type" : "_ZTIPN4aidl7android8hardware8security7keymint11CertificateE",
   "size" : 8,
   "source_file" : "out/soong/.intermediates/hardware/interfaces/security/keymint/aidl/android.hardware.security.keymint-V1-ndk_platform-source/gen/include/aidl/android/hardware/security/keymint/Certificate.h"
  },
  {
   "alignment" : 8,
   "linker_set_key" : "_ZTIPN4aidl7android8hardware8security7keymint12KeyParameterE",
   "name" : "aidl::android::hardware::security::keymint::KeyParameter *",
   "referenced_type" : "_ZTIN4aidl7android8hardware8security7keymint12KeyParameterE",
   "self_type" : "_ZTIPN4aidl7android8hardware8security7keymint12KeyParameterE",
   "size" : 8,
   "source_file" : "out/soong/.intermediates/hardware/interfaces/security/keymint/aidl/android.hardware.security.keymint-V1-ndk_platform-source/gen/include/aidl/android/hardware/security/keymint/KeyParameter.h"
  },
  {
   "alignment" : 8,
   "linker_set_key" : "_ZTIPN4aidl7android8hardware8security7keymint13ProtectedDataE",
   "name" : "aidl::android::hardware::security::keymint::ProtectedData *",
   "referenced_type" : "_ZTIN4aidl7android8hardware8security7keymint13ProtectedDataE",
   "self_type" : "_ZTIPN4aidl7android8hardware8security7keymint13ProtectedDataE",
   "size" : 8,
   "source_file" : "out/soong/.intermediates/hardware/interfaces/security/keymint/aidl/android.hardware.security.keymint-V1-ndk_platform-source/gen/include/aidl/android/hardware/security/keymint/IRemotelyProvisionedComponent.h"
  },
  {
   "alignment" : 8,
   "linker_set_key" : "_ZTIPN4aidl7android8hardware8security7keymint14AttestationKeyE",
   "name" : "aidl::android::hardware::security::keymint::AttestationKey *",
   "referenced_type" : "_ZTIN4aidl7android8hardware8security7keymint14AttestationKeyE",
   "self_type" : "_ZTIPN4aidl7android8hardware8security7keymint14AttestationKeyE",
   "size" : 8,
   "source_file" : "out/soong/.intermediates/hardware/interfaces/security/keymint/aidl/android.hardware.security.keymint-V1-ndk_platform-source/gen/include/aidl/android/hardware/security/keymint/AttestationKey.h"
  },
  {
   "alignment" : 8,
   "linker_set_key" : "_ZTIPN4aidl7android8hardware8security7keymint14IKeyMintDeviceE",
   "name" : "aidl::android::hardware::security::keymint::IKeyMintDevice *",
   "referenced_type" : "_ZTIN4aidl7android8hardware8security7keymint14IKeyMintDeviceE",
   "self_type" : "_ZTIPN4aidl7android8hardware8security7keymint14IKeyMintDeviceE",
   "size" : 8,
   "source_file" : "out/soong/.intermediates/hardware/interfaces/security/keymint/aidl/android.hardware.security.keymint-V1-ndk_platform-source/gen/include/aidl/android/hardware/security/keymint/IKeyMintDevice.h"
  },
  {
   "alignment" : 8,
   "linker_set_key" : "_ZTIPN4aidl7android8hardware8security7keymint14MacedPublicKeyE",
   "name" : "aidl::android::hardware::security::keymint::MacedPublicKey *",
   "referenced_type" : "_ZTIN4aidl7android8hardware8security7keymint14MacedPublicKeyE",
   "self_type" : "_ZTIPN4aidl7android8hardware8security7keymint14MacedPublicKeyE",
   "size" : 8,
   "source_file" : "out/soong/.intermediates/hardware/interfaces/security/keymint/aidl/android.hardware.security.keymint-V1-ndk_platform-source/gen/include/aidl/android/hardware/security/keymint/IRemotelyProvisionedComponent.h"
  },
  {
   "alignment" : 8,
   "linker_set_key" : "_ZTIPN4aidl7android8hardware8security7keymint15BnKeyMintDeviceE",
   "name" : "aidl::android::hardware::security::keymint::BnKeyMintDevice *",
   "referenced_type" : "_ZTIN4aidl7android8hardware8security7keymint15BnKeyMintDeviceE",
   "self_type" : "_ZTIPN4aidl7android8hardware8security7keymint15BnKeyMintDeviceE",
   "size" : 8,
   "source_file" : "out/soong/.intermediates/hardware/interfaces/security/keymint/aidl/android.hardware.security.keymint-V1-ndk_platform-source/gen/include/aidl/android/hardware/security/keymint/BnKeyMintDevice.h"
  },
  {
   "alignment" : 8,
   "linker_set_key" : "_ZTIPN4aidl7android8hardware8security7keymint15BpKeyMintDeviceE",
   "name" : "aidl::android::hardware::security::keymint::BpKeyMintDevice *",
   "referenced_type" : "_ZTIN4aidl7android8hardware8security7keymint15BpKeyMintDeviceE",
   "self_type" : "_ZTIPN4aidl7android8hardware8security7keymint15BpKeyMintDeviceE",
   "size" : 8,
   "source_file" : "out/soong/.intermediates/hardware/interfaces/security/keymint/aidl/android.hardware.security.keymint-V1-ndk_platform-source/gen/include/aidl/android/hardware/security/keymint/BpKeyMintDevice.h"
  },
  {
   "alignment" : 8,
   "linker_set_key" : "_ZTIPN4aidl7android8hardware8security7keymint15RpcHardwareInfoE",
   "name" : "aidl::android::hardware::security::keymint::RpcHardwareInfo *",
   "referenced_type" : "_ZTIN4aidl7android8hardware8security7keymint15RpcHardwareInfoE",
   "self_type" : "_ZTIPN4aidl7android8hardware8security7keymint15RpcHardwareInfoE",
   "size" : 8,
   "source_file" : "out/soong/.intermediates/hardware/interfaces/security/keymint/aidl/android.hardware.security.keymint-V1-ndk_platform-source/gen/include/aidl/android/hardware/security/keymint/IRemotelyProvisionedComponent.h"
  },
  {
   "alignment" : 8,
   "linker_set_key" : "_ZTIPN4aidl7android8hardware8security7keymint17HardwareAuthTokenE",
   "name" : "aidl::android::hardware::security::keymint::HardwareAuthToken *",
   "referenced_type" : "_ZTIN4aidl7android8hardware8security7keymint17HardwareAuthTokenE",
   "self_type" : "_ZTIPN4aidl7android8hardware8security7keymint17HardwareAuthTokenE",
   "size" : 8,
   "source_file" : "out/soong/.intermediates/hardware/interfaces/security/keymint/aidl/android.hardware.security.keymint-V1-ndk_platform-source/gen/include/aidl/android/hardware/security/keymint/HardwareAuthToken.h"
  },
  {
   "alignment" : 8,
   "linker_set_key" : "_ZTIPN4aidl7android8hardware8security7keymint17IKeyMintOperationE",
   "name" : "aidl::android::hardware::security::keymint::IKeyMintOperation *",
   "referenced_type" : "_ZTIN4aidl7android8hardware8security7keymint17IKeyMintOperationE",
   "self_type" : "_ZTIPN4aidl7android8hardware8security7keymint17IKeyMintOperationE",
   "size" : 8,
   "source_file" : "out/soong/.intermediates/hardware/interfaces/security/keymint/aidl/android.hardware.security.keymint-V1-ndk_platform-source/gen/include/aidl/android/hardware/security/keymint/IKeyMintOperation.h"
  },
  {
   "alignment" : 8,
   "linker_set_key" : "_ZTIPN4aidl7android8hardware8security7keymint17KeyCreationResultE",
   "name" : "aidl::android::hardware::security::keymint::KeyCreationResult *",
   "referenced_type" : "_ZTIN4aidl7android8hardware8security7keymint17KeyCreationResultE",
   "self_type" : "_ZTIPN4aidl7android8hardware8security7keymint17KeyCreationResultE",
   "size" : 8,
   "source_file" : "out/soong/.intermediates/hardware/interfaces/security/keymint/aidl/android.hardware.security.keymint-V1-ndk_platform-source/gen/include/aidl/android/hardware/security/keymint/IKeyMintDevice.h"
  },
  {
   "alignment" : 8,
   "linker_set_key" : "_ZTIPN4aidl7android8hardware8security7keymint17KeyParameterValueE",
   "name" : "aidl::android::hardware::security::keymint::KeyParameterValue *",
   "referenced_type" : "_ZTIN4aidl7android8hardware8security7keymint17KeyParameterValueE",
   "self_type" : "_ZTIPN4aidl7android8hardware8security7keymint17KeyParameterValueE",
   "size" : 8,
   "source_file" : "out/soong/.intermediates/hardware/interfaces/security/keymint/aidl/android.hardware.security.keymint-V1-ndk_platform-source/gen/include/aidl/android/hardware/security/keymint/KeyParameterValue.h"
  },
  {
   "alignment" : 8,
   "linker_set_key" : "_ZTIPN4aidl7android8hardware8security7keymint18BnKeyMintOperationE",
   "name" : "aidl::android::hardware::security::keymint::BnKeyMintOperation *",
   "referenced_type" : "_ZTIN4aidl7android8hardware8security7keymint18BnKeyMintOperationE",
   "self_type" : "_ZTIPN4aidl7android8hardware8security7keymint18BnKeyMintOperationE",
   "size" : 8,
   "source_file" : "out/soong/.intermediates/hardware/interfaces/security/keymint/aidl/android.hardware.security.keymint-V1-ndk_platform-source/gen/include/aidl/android/hardware/security/keymint/BnKeyMintOperation.h"
  },
  {
   "alignment" : 8,
   "linker_set_key" : "_ZTIPN4aidl7android8hardware8security7keymint18BpKeyMintOperationE",
   "name" : "aidl::android::hardware::security::keymint::BpKeyMintOperation *",
   "referenced_type" : "_ZTIN4aidl7android8hardware8security7keymint18BpKeyMintOperationE",
   "self_type" : "_ZTIPN4aidl7android8hardware8security7keymint18BpKeyMintOperationE",
   "size" : 8,
   "source_file" : "out/soong/.intermediates/hardware/interfaces/security/keymint/aidl/android.hardware.security.keymint-V1-ndk_platform-source/gen/include/aidl/android/hardware/security/keymint/BpKeyMintOperation.h"
  },
  {
   "alignment" : 8,
   "linker_set_key" : "_ZTIPN4aidl7android8hardware8security7keymint18KeyCharacteristicsE",
   "name" : "aidl::android::hardware::security::keymint::KeyCharacteristics *",
   "referenced_type" : "_ZTIN4aidl7android8hardware8security7keymint18KeyCharacteristicsE",
   "self_type" : "_ZTIPN4aidl7android8hardware8security7keymint18KeyCharacteristicsE",
   "size" : 8,
   "source_file" : "out/soong/.intermediates/hardware/interfaces/security/keymint/aidl/android.hardware.security.keymint-V1-ndk_platform-source/gen/include/aidl/android/hardware/security/keymint/KeyCharacteristics.h"
  },
  {
   "alignment" : 8,
   "linker_set_key" : "_ZTIPN4aidl7android8hardware8security7keymint19KeyMintHardwareInfoE",
   "name" : "aidl::android::hardware::security::keymint::KeyMintHardwareInfo *",
   "referenced_type" : "_ZTIN4aidl7android8hardware8security7keymint19KeyMintHardwareInfoE",
   "self_type" : "_ZTIPN4aidl7android8hardware8security7keymint19KeyMintHardwareInfoE",
   "size" : 8,
   "source_file" : "out/soong/.intermediates/hardware/interfaces/security/keymint/aidl/android.hardware.security.keymint-V1-ndk_platform-source/gen/include/aidl/android/hardware/security/keymint/IKeyMintDevice.h"
  },
  {
   "alignment" : 8,
   "linker_set_key" : "_ZTIPN4aidl7android8hardware8security7keymint21IKeyMintDeviceDefaultE",
   "name" : "aidl::android::hardware::security::keymint::IKeyMintDeviceDefault *",
   "referenced_type" : "_ZTIN4aidl7android8hardware8security7keymint21IKeyMintDeviceDefaultE",
   "self_type" : "_ZTIPN4aidl7android8hardware8security7keymint21IKeyMintDeviceDefaultE",
   "size" : 8,
   "source_file" : "out/soong/.intermediates/hardware/interfaces/security/keymint/aidl/android.hardware.security.keymint-V1-ndk_platform-source/gen/include/aidl/android/hardware/security/keymint/IKeyMintDevice.h"
  },
  {
   "alignment" : 8,
   "linker_set_key" : "_ZTIPN4aidl7android8hardware8security7keymint24IKeyMintOperationDefaultE",
   "name" : "aidl::android::hardware::security::keymint::IKeyMintOperationDefault *",
   "referenced_type" : "_ZTIN4aidl7android8hardware8security7keymint24IKeyMintOperationDefaultE",
   "self_type" : "_ZTIPN4aidl7android8hardware8security7keymint24IKeyMintOperationDefaultE",
   "size" : 8,
   "source_file" : "out/soong/.intermediates/hardware/interfaces/security/keymint/aidl/android.hardware.security.keymint-V1-ndk_platform-source/gen/include/aidl/android/hardware/security/keymint/IKeyMintOperation.h"
  },
  {
   "alignment" : 8,
   "linker_set_key" : "_ZTIPN4aidl7android8hardware8security7keymint29IRemotelyProvisionedComponentE",
   "name" : "aidl::android::hardware::security::keymint::IRemotelyProvisionedComponent *",
   "referenced_type" : "_ZTIN4aidl7android8hardware8security7keymint29IRemotelyProvisionedComponentE",
   "self_type" : "_ZTIPN4aidl7android8hardware8security7keymint29IRemotelyProvisionedComponentE",
   "size" : 8,
   "source_file" : "out/soong/.intermediates/hardware/interfaces/security/keymint/aidl/android.hardware.security.keymint-V1-ndk_platform-source/gen/include/aidl/android/hardware/security/keymint/IRemotelyProvisionedComponent.h"
  },
  {
   "alignment" : 8,
   "linker_set_key" : "_ZTIPN4aidl7android8hardware8security7keymint30BnRemotelyProvisionedComponentE",
   "name" : "aidl::android::hardware::security::keymint::BnRemotelyProvisionedComponent *",
   "referenced_type" : "_ZTIN4aidl7android8hardware8security7keymint30BnRemotelyProvisionedComponentE",
   "self_type" : "_ZTIPN4aidl7android8hardware8security7keymint30BnRemotelyProvisionedComponentE",
   "size" : 8,
   "source_file" : "out/soong/.intermediates/hardware/interfaces/security/keymint/aidl/android.hardware.security.keymint-V1-ndk_platform-source/gen/include/aidl/android/hardware/security/keymint/BnRemotelyProvisionedComponent.h"
  },
  {
   "alignment" : 8,
   "linker_set_key" : "_ZTIPN4aidl7android8hardware8security7keymint30BpRemotelyProvisionedComponentE",
   "name" : "aidl::android::hardware::security::keymint::BpRemotelyProvisionedComponent *",
   "referenced_type" : "_ZTIN4aidl7android8hardware8security7keymint30BpRemotelyProvisionedComponentE",
   "self_type" : "_ZTIPN4aidl7android8hardware8security7keymint30BpRemotelyProvisionedComponentE",
   "size" : 8,
   "source_file" : "out/soong/.intermediates/hardware/interfaces/security/keymint/aidl/android.hardware.security.keymint-V1-ndk_platform-source/gen/include/aidl/android/hardware/security/keymint/BpRemotelyProvisionedComponent.h"
  },
  {
   "alignment" : 8,
   "linker_set_key" : "_ZTIPN4aidl7android8hardware8security7keymint36IRemotelyProvisionedComponentDefaultE",
   "name" : "aidl::android::hardware::security::keymint::IRemotelyProvisionedComponentDefault *",
   "referenced_type" : "_ZTIN4aidl7android8hardware8security7keymint36IRemotelyProvisionedComponentDefaultE",
   "self_type" : "_ZTIPN4aidl7android8hardware8security7keymint36IRemotelyProvisionedComponentDefaultE",
   "size" : 8,
   "source_file" : "out/soong/.intermediates/hardware/interfaces/security/keymint/aidl/android.hardware.security.keymint-V1-ndk_platform-source/gen/include/aidl/android/hardware/security/keymint/IRemotelyProvisionedComponent.h"
  },
  {
   "alignment" : 8,
   "linker_set_key" : "_ZTIPNSt3__110shared_ptrIN4aidl7android8hardware8security7keymint14IKeyMintDeviceEEE",
   "name" : "std::shared_ptr<aidl::android::hardware::security::keymint::IKeyMintDevice> *",
   "referenced_type" : "_ZTINSt3__110shared_ptrIN4aidl7android8hardware8security7keymint14IKeyMintDeviceEEE",
   "self_type" : "_ZTIPNSt3__110shared_ptrIN4aidl7android8hardware8security7keymint14IKeyMintDeviceEEE",
   "size" : 8,
   "source_file" : "out/soong/.intermediates/hardware/interfaces/security/keymint/aidl/android.hardware.security.keymint-V1-ndk_platform-source/gen/include/aidl/android/hardware/security/keymint/IKeyMintDevice.h"
  },
  {
   "alignment" : 8,
   "linker_set_key" : "_ZTIPNSt3__110shared_ptrIN4aidl7android8hardware8security7keymint17IKeyMintOperationEEE",
   "name" : "std::shared_ptr<aidl::android::hardware::security::keymint::IKeyMintOperation> *",
   "referenced_type" : "_ZTINSt3__110shared_ptrIN4aidl7android8hardware8security7keymint17IKeyMintOperationEEE",
   "self_type" : "_ZTIPNSt3__110shared_ptrIN4aidl7android8hardware8security7keymint17IKeyMintOperationEEE",
   "size" : 8,
   "source_file" : "out/soong/.intermediates/hardware/interfaces/security/keymint/aidl/android.hardware.security.keymint-V1-ndk_platform-source/gen/include/aidl/android/hardware/security/keymint/IKeyMintOperation.h"
  },
  {
   "alignment" : 8,
   "linker_set_key" : "_ZTIPNSt3__110shared_ptrIN4aidl7android8hardware8security7keymint29IRemotelyProvisionedComponentEEE",
   "name" : "std::shared_ptr<aidl::android::hardware::security::keymint::IRemotelyProvisionedComponent> *",
   "referenced_type" : "_ZTINSt3__110shared_ptrIN4aidl7android8hardware8security7keymint29IRemotelyProvisionedComponentEEE",
   "self_type" : "_ZTIPNSt3__110shared_ptrIN4aidl7android8hardware8security7keymint29IRemotelyProvisionedComponentEEE",
   "size" : 8,
   "source_file" : "out/soong/.intermediates/hardware/interfaces/security/keymint/aidl/android.hardware.security.keymint-V1-ndk_platform-source/gen/include/aidl/android/hardware/security/keymint/IRemotelyProvisionedComponent.h"
  },
  {
   "alignment" : 8,
   "linker_set_key" : "_ZTIPNSt3__112basic_stringIcNS_11char_traitsIcEENS_9allocatorIcEEEE",
   "name" : "std::basic_string<char, std::char_traits<char>, std::allocator<char>> *",
   "referenced_type" : "_ZTINSt3__112basic_stringIcNS_11char_traitsIcEENS_9allocatorIcEEEE",
   "self_type" : "_ZTIPNSt3__112basic_stringIcNS_11char_traitsIcEENS_9allocatorIcEEEE",
   "size" : 8,
   "source_file" : "out/soong/.intermediates/hardware/interfaces/security/keymint/aidl/android.hardware.security.keymint-V1-ndk_platform-source/gen/include/aidl/android/hardware/security/keymint/IKeyMintDevice.h"
  },
  {
   "alignment" : 8,
   "linker_set_key" : "_ZTIPNSt3__16vectorIDsNS_9allocatorIDsEEEE",
   "name" : "std::vector<char16_t, std::allocator<char16_t>> *",
   "referenced_type" : "_ZTINSt3__16vectorIDsNS_9allocatorIDsEEEE",
   "self_type" : "_ZTIPNSt3__16vectorIDsNS_9allocatorIDsEEEE",
   "size" : 8,
   "source_file" : "frameworks/native/libs/binder/ndk/include_cpp/android/binder_parcel_utils.h"
  },
  {
   "alignment" : 8,
   "linker_set_key" : "_ZTIPNSt3__16vectorIN4aidl7android8hardware8security7keymint18KeyCharacteristicsENS_9allocatorIS6_EEEE",
   "name" : "std::vector<aidl::android::hardware::security::keymint::KeyCharacteristics, std::allocator<aidl::android::hardware::security::keymint::KeyCharacteristics>> *",
   "referenced_type" : "_ZTINSt3__16vectorIN4aidl7android8hardware8security7keymint18KeyCharacteristicsENS_9allocatorIS6_EEEE",
   "self_type" : "_ZTIPNSt3__16vectorIN4aidl7android8hardware8security7keymint18KeyCharacteristicsENS_9allocatorIS6_EEEE",
   "size" : 8,
   "source_file" : "out/soong/.intermediates/hardware/interfaces/security/keymint/aidl/android.hardware.security.keymint-V1-ndk_platform-source/gen/include/aidl/android/hardware/security/keymint/IKeyMintDevice.h"
  },
  {
   "alignment" : 8,
   "linker_set_key" : "_ZTIPNSt3__16vectorIbNS_9allocatorIbEEEE",
   "name" : "std::vector<bool, std::allocator<bool>> *",
   "referenced_type" : "_ZTINSt3__16vectorIbNS_9allocatorIbEEEE",
   "self_type" : "_ZTIPNSt3__16vectorIbNS_9allocatorIbEEEE",
   "size" : 8,
   "source_file" : "frameworks/native/libs/binder/ndk/include_cpp/android/binder_parcel_utils.h"
  },
  {
   "alignment" : 8,
   "linker_set_key" : "_ZTIPNSt3__16vectorIdNS_9allocatorIdEEEE",
   "name" : "std::vector<double, std::allocator<double>> *",
   "referenced_type" : "_ZTINSt3__16vectorIdNS_9allocatorIdEEEE",
   "self_type" : "_ZTIPNSt3__16vectorIdNS_9allocatorIdEEEE",
   "size" : 8,
   "source_file" : "frameworks/native/libs/binder/ndk/include_cpp/android/binder_parcel_utils.h"
  },
  {
   "alignment" : 8,
   "linker_set_key" : "_ZTIPNSt3__16vectorIfNS_9allocatorIfEEEE",
   "name" : "std::vector<float, std::allocator<float>> *",
   "referenced_type" : "_ZTINSt3__16vectorIfNS_9allocatorIfEEEE",
   "self_type" : "_ZTIPNSt3__16vectorIfNS_9allocatorIfEEEE",
   "size" : 8,
   "source_file" : "frameworks/native/libs/binder/ndk/include_cpp/android/binder_parcel_utils.h"
  },
  {
   "alignment" : 8,
   "linker_set_key" : "_ZTIPNSt3__16vectorIhNS_9allocatorIhEEEE",
   "name" : "std::vector<unsigned char, std::allocator<unsigned char>> *",
   "referenced_type" : "_ZTINSt3__16vectorIhNS_9allocatorIhEEEE",
   "self_type" : "_ZTIPNSt3__16vectorIhNS_9allocatorIhEEEE",
   "size" : 8,
   "source_file" : "frameworks/native/libs/binder/ndk/include_cpp/android/binder_parcel_utils.h"
  },
  {
   "alignment" : 8,
   "linker_set_key" : "_ZTIPNSt3__16vectorIiNS_9allocatorIiEEEE",
   "name" : "std::vector<int, std::allocator<int>> *",
   "referenced_type" : "_ZTINSt3__16vectorIiNS_9allocatorIiEEEE",
   "self_type" : "_ZTIPNSt3__16vectorIiNS_9allocatorIiEEEE",
   "size" : 8,
   "source_file" : "frameworks/native/libs/binder/ndk/include_cpp/android/binder_parcel_utils.h"
  },
  {
   "alignment" : 8,
   "linker_set_key" : "_ZTIPNSt3__16vectorIjNS_9allocatorIjEEEE",
   "name" : "std::vector<unsigned int, std::allocator<unsigned int>> *",
   "referenced_type" : "_ZTINSt3__16vectorIjNS_9allocatorIjEEEE",
   "self_type" : "_ZTIPNSt3__16vectorIjNS_9allocatorIjEEEE",
   "size" : 8,
   "source_file" : "frameworks/native/libs/binder/ndk/include_cpp/android/binder_parcel_utils.h"
  },
  {
   "alignment" : 8,
   "linker_set_key" : "_ZTIPNSt3__16vectorIlNS_9allocatorIlEEEE",
   "name" : "std::vector<long, std::allocator<long>> *",
   "referenced_type" : "_ZTINSt3__16vectorIlNS_9allocatorIlEEEE",
   "self_type" : "_ZTIPNSt3__16vectorIlNS_9allocatorIlEEEE",
   "size" : 8,
   "source_file" : "frameworks/native/libs/binder/ndk/include_cpp/android/binder_parcel_utils.h"
  },
  {
   "alignment" : 8,
   "linker_set_key" : "_ZTIPNSt3__16vectorImNS_9allocatorImEEEE",
   "name" : "std::vector<unsigned long, std::allocator<unsigned long>> *",
   "referenced_type" : "_ZTINSt3__16vectorImNS_9allocatorImEEEE",
   "self_type" : "_ZTIPNSt3__16vectorImNS_9allocatorImEEEE",
   "size" : 8,
   "source_file" : "frameworks/native/libs/binder/ndk/include_cpp/android/binder_parcel_utils.h"
  },
  {
   "alignment" : 8,
   "linker_set_key" : "_ZTIPNSt3__18optionalINS_6vectorIDsNS_9allocatorIDsEEEEEE",
   "name" : "std::optional<std::vector<char16_t, std::allocator<char16_t>>> *",
   "referenced_type" : "_ZTINSt3__18optionalINS_6vectorIDsNS_9allocatorIDsEEEEEE",
   "self_type" : "_ZTIPNSt3__18optionalINS_6vectorIDsNS_9allocatorIDsEEEEEE",
   "size" : 8,
   "source_file" : "frameworks/native/libs/binder/ndk/include_cpp/android/binder_parcel_utils.h"
  },
  {
   "alignment" : 8,
   "linker_set_key" : "_ZTIPNSt3__18optionalINS_6vectorIbNS_9allocatorIbEEEEEE",
   "name" : "std::optional<std::vector<bool, std::allocator<bool>>> *",
   "referenced_type" : "_ZTINSt3__18optionalINS_6vectorIbNS_9allocatorIbEEEEEE",
   "self_type" : "_ZTIPNSt3__18optionalINS_6vectorIbNS_9allocatorIbEEEEEE",
   "size" : 8,
   "source_file" : "frameworks/native/libs/binder/ndk/include_cpp/android/binder_parcel_utils.h"
  },
  {
   "alignment" : 8,
   "linker_set_key" : "_ZTIPNSt3__18optionalINS_6vectorIdNS_9allocatorIdEEEEEE",
   "name" : "std::optional<std::vector<double, std::allocator<double>>> *",
   "referenced_type" : "_ZTINSt3__18optionalINS_6vectorIdNS_9allocatorIdEEEEEE",
   "self_type" : "_ZTIPNSt3__18optionalINS_6vectorIdNS_9allocatorIdEEEEEE",
   "size" : 8,
   "source_file" : "frameworks/native/libs/binder/ndk/include_cpp/android/binder_parcel_utils.h"
  },
  {
   "alignment" : 8,
   "linker_set_key" : "_ZTIPNSt3__18optionalINS_6vectorIfNS_9allocatorIfEEEEEE",
   "name" : "std::optional<std::vector<float, std::allocator<float>>> *",
   "referenced_type" : "_ZTINSt3__18optionalINS_6vectorIfNS_9allocatorIfEEEEEE",
   "self_type" : "_ZTIPNSt3__18optionalINS_6vectorIfNS_9allocatorIfEEEEEE",
   "size" : 8,
   "source_file" : "frameworks/native/libs/binder/ndk/include_cpp/android/binder_parcel_utils.h"
  },
  {
   "alignment" : 8,
   "linker_set_key" : "_ZTIPNSt3__18optionalINS_6vectorIhNS_9allocatorIhEEEEEE",
   "name" : "std::optional<std::vector<unsigned char, std::allocator<unsigned char>>> *",
   "referenced_type" : "_ZTINSt3__18optionalINS_6vectorIhNS_9allocatorIhEEEEEE",
   "self_type" : "_ZTIPNSt3__18optionalINS_6vectorIhNS_9allocatorIhEEEEEE",
   "size" : 8,
   "source_file" : "frameworks/native/libs/binder/ndk/include_cpp/android/binder_parcel_utils.h"
  },
  {
   "alignment" : 8,
   "linker_set_key" : "_ZTIPNSt3__18optionalINS_6vectorIiNS_9allocatorIiEEEEEE",
   "name" : "std::optional<std::vector<int, std::allocator<int>>> *",
   "referenced_type" : "_ZTINSt3__18optionalINS_6vectorIiNS_9allocatorIiEEEEEE",
   "self_type" : "_ZTIPNSt3__18optionalINS_6vectorIiNS_9allocatorIiEEEEEE",
   "size" : 8,
   "source_file" : "frameworks/native/libs/binder/ndk/include_cpp/android/binder_parcel_utils.h"
  },
  {
   "alignment" : 8,
   "linker_set_key" : "_ZTIPNSt3__18optionalINS_6vectorIjNS_9allocatorIjEEEEEE",
   "name" : "std::optional<std::vector<unsigned int, std::allocator<unsigned int>>> *",
   "referenced_type" : "_ZTINSt3__18optionalINS_6vectorIjNS_9allocatorIjEEEEEE",
   "self_type" : "_ZTIPNSt3__18optionalINS_6vectorIjNS_9allocatorIjEEEEEE",
   "size" : 8,
   "source_file" : "frameworks/native/libs/binder/ndk/include_cpp/android/binder_parcel_utils.h"
  },
  {
   "alignment" : 8,
   "linker_set_key" : "_ZTIPNSt3__18optionalINS_6vectorIlNS_9allocatorIlEEEEEE",
   "name" : "std::optional<std::vector<long, std::allocator<long>>> *",
   "referenced_type" : "_ZTINSt3__18optionalINS_6vectorIlNS_9allocatorIlEEEEEE",
   "self_type" : "_ZTIPNSt3__18optionalINS_6vectorIlNS_9allocatorIlEEEEEE",
   "size" : 8,
   "source_file" : "frameworks/native/libs/binder/ndk/include_cpp/android/binder_parcel_utils.h"
  },
  {
   "alignment" : 8,
   "linker_set_key" : "_ZTIPNSt3__18optionalINS_6vectorImNS_9allocatorImEEEEEE",
   "name" : "std::optional<std::vector<unsigned long, std::allocator<unsigned long>>> *",
   "referenced_type" : "_ZTINSt3__18optionalINS_6vectorImNS_9allocatorImEEEEEE",
   "self_type" : "_ZTIPNSt3__18optionalINS_6vectorImNS_9allocatorImEEEEEE",
   "size" : 8,
   "source_file" : "frameworks/native/libs/binder/ndk/include_cpp/android/binder_parcel_utils.h"
  },
  {
   "alignment" : 8,
   "linker_set_key" : "_ZTIPP7AParcel",
   "name" : "AParcel **",
   "referenced_type" : "_ZTIP7AParcel",
   "self_type" : "_ZTIPP7AParcel",
   "size" : 8,
   "source_file" : "frameworks/native/libs/binder/ndk/include_cpp/android/binder_auto_utils.h"
  },
  {
   "alignment" : 8,
   "linker_set_key" : "_ZTIPP7AStatus",
   "name" : "AStatus **",
   "referenced_type" : "_ZTIP7AStatus",
   "self_type" : "_ZTIPP7AStatus",
   "size" : 8,
   "source_file" : "frameworks/native/libs/binder/ndk/include_cpp/android/binder_auto_utils.h"
  },
  {
   "alignment" : 8,
   "linker_set_key" : "_ZTIPP8AIBinder",
   "name" : "AIBinder **",
   "referenced_type" : "_ZTIP8AIBinder",
   "self_type" : "_ZTIPP8AIBinder",
   "size" : 8,
   "source_file" : "frameworks/native/libs/binder/ndk/include_cpp/android/binder_auto_utils.h"
  },
  {
   "alignment" : 8,
   "linker_set_key" : "_ZTIPPKc",
   "name" : "const char **",
   "referenced_type" : "_ZTIPKc",
   "self_type" : "_ZTIPPKc",
   "size" : 8,
   "source_file" : "frameworks/native/libs/binder/ndk/include_cpp/android/binder_interface_utils.h"
  },
  {
   "alignment" : 8,
   "linker_set_key" : "_ZTIPi",
   "name" : "int *",
   "referenced_type" : "_ZTIi",
   "self_type" : "_ZTIPi",
   "size" : 8,
   "source_file" : "out/soong/.intermediates/hardware/interfaces/security/keymint/aidl/android.hardware.security.keymint-V1-ndk_platform-source/gen/include/aidl/android/hardware/security/keymint/IKeyMintDevice.h"
  },
  {
   "alignment" : 8,
   "linker_set_key" : "_ZTIPv",
   "name" : "void *",
   "referenced_type" : "_ZTIv",
   "self_type" : "_ZTIPv",
   "size" : 8,
   "source_file" : "frameworks/native/libs/binder/ndk/include_cpp/android/binder_interface_utils.h"
  }
 ],
 "qualified_types" :
 [
  {
   "is_const" : true,
   "linker_set_key" : "_ZTIK7AParcel",
   "name" : "const AParcel",
   "referenced_type" : "_ZTI7AParcel",
   "self_type" : "_ZTIK7AParcel",
   "source_file" : "frameworks/native/libs/binder/ndk/include_cpp/android/binder_interface_utils.h"
  },
  {
   "alignment" : 8,
   "is_const" : true,
   "linker_set_key" : "_ZTIKN3ndk10SpAIBinderE",
   "name" : "const ndk::SpAIBinder",
   "referenced_type" : "_ZTIN3ndk10SpAIBinderE",
   "self_type" : "_ZTIKN3ndk10SpAIBinderE",
   "size" : 8,
   "source_file" : "frameworks/native/libs/binder/ndk/include_cpp/android/binder_auto_utils.h"
  },
  {
   "alignment" : 8,
   "is_const" : true,
   "linker_set_key" : "_ZTIKN3ndk13ScopedAParcelE",
   "name" : "const ndk::ScopedAParcel",
   "referenced_type" : "_ZTIN3ndk13ScopedAParcelE",
   "self_type" : "_ZTIKN3ndk13ScopedAParcelE",
   "size" : 8,
   "source_file" : "frameworks/native/libs/binder/ndk/include_cpp/android/binder_auto_utils.h"
  },
  {
   "alignment" : 8,
   "is_const" : true,
   "linker_set_key" : "_ZTIKN3ndk13ScopedAStatusE",
   "name" : "const ndk::ScopedAStatus",
   "referenced_type" : "_ZTIN3ndk13ScopedAStatusE",
   "self_type" : "_ZTIKN3ndk13ScopedAStatusE",
   "size" : 8,
   "source_file" : "frameworks/native/libs/binder/ndk/include_cpp/android/binder_auto_utils.h"
  },
  {
   "alignment" : 8,
   "is_const" : true,
   "linker_set_key" : "_ZTIKN3ndk17AParcelableHolderE",
   "name" : "const ndk::AParcelableHolder",
   "referenced_type" : "_ZTIN3ndk17AParcelableHolderE",
   "self_type" : "_ZTIKN3ndk17AParcelableHolderE",
   "size" : 24,
   "source_file" : "frameworks/native/libs/binder/ndk/include_cpp/android/binder_parcelable_utils.h"
  },
  {
   "alignment" : 4,
   "is_const" : true,
   "linker_set_key" : "_ZTIKN3ndk20ScopedFileDescriptorE",
   "name" : "const ndk::ScopedFileDescriptor",
   "referenced_type" : "_ZTIN3ndk20ScopedFileDescriptorE",
   "self_type" : "_ZTIKN3ndk20ScopedFileDescriptorE",
   "size" : 4,
   "source_file" : "frameworks/native/libs/binder/ndk/include_cpp/android/binder_auto_utils.h"
  },
  {
   "alignment" : 8,
   "is_const" : true,
   "linker_set_key" : "_ZTIKN3ndk4impl15ScopedAResourceIP7AParcelXadL_Z14AParcel_deleteEELS3_0EEE",
   "name" : "const ndk::impl::ScopedAResource<AParcel *, &AParcel_delete, nullptr>",
   "referenced_type" : "_ZTIN3ndk4impl15ScopedAResourceIP7AParcelXadL_Z14AParcel_deleteEELS3_0EEE",
   "self_type" : "_ZTIKN3ndk4impl15ScopedAResourceIP7AParcelXadL_Z14AParcel_deleteEELS3_0EEE",
   "size" : 8,
   "source_file" : "frameworks/native/libs/binder/ndk/include_cpp/android/binder_auto_utils.h"
  },
  {
   "alignment" : 8,
   "is_const" : true,
   "linker_set_key" : "_ZTIKN3ndk4impl15ScopedAResourceIP7AStatusXadL_Z14AStatus_deleteEELS3_0EEE",
   "name" : "const ndk::impl::ScopedAResource<AStatus *, &AStatus_delete, nullptr>",
   "referenced_type" : "_ZTIN3ndk4impl15ScopedAResourceIP7AStatusXadL_Z14AStatus_deleteEELS3_0EEE",
   "self_type" : "_ZTIKN3ndk4impl15ScopedAResourceIP7AStatusXadL_Z14AStatus_deleteEELS3_0EEE",
   "size" : 8,
   "source_file" : "frameworks/native/libs/binder/ndk/include_cpp/android/binder_auto_utils.h"
  },
  {
   "alignment" : 8,
   "is_const" : true,
   "linker_set_key" : "_ZTIKN4aidl7android8hardware8security11secureclock14TimeStampTokenE",
   "name" : "const aidl::android::hardware::security::secureclock::TimeStampToken",
   "referenced_type" : "_ZTIN4aidl7android8hardware8security11secureclock14TimeStampTokenE",
   "self_type" : "_ZTIKN4aidl7android8hardware8security11secureclock14TimeStampTokenE",
   "size" : 40,
   "source_file" : "out/soong/.intermediates/hardware/interfaces/security/secureclock/aidl/android.hardware.security.secureclock-V1-ndk_platform-source/gen/include/aidl/android/hardware/security/secureclock/TimeStampToken.h"
  },
  {
   "alignment" : 8,
   "is_const" : true,
   "linker_set_key" : "_ZTIKN4aidl7android8hardware8security11secureclock9TimestampE",
   "name" : "const aidl::android::hardware::security::secureclock::Timestamp",
   "referenced_type" : "_ZTIN4aidl7android8hardware8security11secureclock9TimestampE",
   "self_type" : "_ZTIKN4aidl7android8hardware8security11secureclock9TimestampE",
   "size" : 8,
   "source_file" : "frameworks/native/libs/binder/ndk/include_cpp/android/binder_to_string.h"
  },
  {
   "alignment" : 8,
   "is_const" : true,
   "linker_set_key" : "_ZTIKN4aidl7android8hardware8security7keymint10DeviceInfoE",
   "name" : "const aidl::android::hardware::security::keymint::DeviceInfo",
   "referenced_type" : "_ZTIN4aidl7android8hardware8security7keymint10DeviceInfoE",
   "self_type" : "_ZTIKN4aidl7android8hardware8security7keymint10DeviceInfoE",
   "size" : 24,
   "source_file" : "out/soong/.intermediates/hardware/interfaces/security/keymint/aidl/android.hardware.security.keymint-V1-ndk_platform-source/gen/include/aidl/android/hardware/security/keymint/DeviceInfo.h"
  },
  {
   "alignment" : 4,
   "is_const" : true,
   "linker_set_key" : "_ZTIKN4aidl7android8hardware8security7keymint10KeyPurposeE",
   "name" : "const aidl::android::hardware::security::keymint::KeyPurpose",
   "referenced_type" : "_ZTIN4aidl7android8hardware8security7keymint10KeyPurposeE",
   "self_type" : "_ZTIKN4aidl7android8hardware8security7keymint10KeyPurposeE",
   "size" : 4,
   "source_file" : "frameworks/native/libs/binder/ndk/include_cpp/android/binder_to_string.h"
  },
  {
   "alignment" : 8,
   "is_const" : true,
   "linker_set_key" : "_ZTIKN4aidl7android8hardware8security7keymint11BeginResultE",
   "name" : "const aidl::android::hardware::security::keymint::BeginResult",
   "referenced_type" : "_ZTIN4aidl7android8hardware8security7keymint11BeginResultE",
   "self_type" : "_ZTIKN4aidl7android8hardware8security7keymint11BeginResultE",
   "size" : 48,
   "source_file" : "out/soong/.intermediates/hardware/interfaces/security/keymint/aidl/android.hardware.security.keymint-V1-ndk_platform-source/gen/include/aidl/android/hardware/security/keymint/BeginResult.h"
  },
  {
   "alignment" : 8,
   "is_const" : true,
   "linker_set_key" : "_ZTIKN4aidl7android8hardware8security7keymint11CertificateE",
   "name" : "const aidl::android::hardware::security::keymint::Certificate",
   "referenced_type" : "_ZTIN4aidl7android8hardware8security7keymint11CertificateE",
   "self_type" : "_ZTIKN4aidl7android8hardware8security7keymint11CertificateE",
   "size" : 24,
   "source_file" : "out/soong/.intermediates/hardware/interfaces/security/keymint/aidl/android.hardware.security.keymint-V1-ndk_platform-source/gen/include/aidl/android/hardware/security/keymint/Certificate.h"
  },
  {
   "alignment" : 4,
   "is_const" : true,
   "linker_set_key" : "_ZTIKN4aidl7android8hardware8security7keymint11PaddingModeE",
   "name" : "const aidl::android::hardware::security::keymint::PaddingMode",
   "referenced_type" : "_ZTIN4aidl7android8hardware8security7keymint11PaddingModeE",
   "self_type" : "_ZTIKN4aidl7android8hardware8security7keymint11PaddingModeE",
   "size" : 4,
   "source_file" : "frameworks/native/libs/binder/ndk/include_cpp/android/binder_to_string.h"
  },
  {
   "alignment" : 8,
   "is_const" : true,
   "linker_set_key" : "_ZTIKN4aidl7android8hardware8security7keymint12KeyParameterE",
   "name" : "const aidl::android::hardware::security::keymint::KeyParameter",
   "referenced_type" : "_ZTIN4aidl7android8hardware8security7keymint12KeyParameterE",
   "self_type" : "_ZTIKN4aidl7android8hardware8security7keymint12KeyParameterE",
   "size" : 40,
   "source_file" : "frameworks/native/libs/binder/ndk/include_cpp/android/binder_to_string.h"
  },
  {
   "alignment" : 8,
   "is_const" : true,
   "linker_set_key" : "_ZTIKN4aidl7android8hardware8security7keymint13ProtectedDataE",
   "name" : "const aidl::android::hardware::security::keymint::ProtectedData",
   "referenced_type" : "_ZTIN4aidl7android8hardware8security7keymint13ProtectedDataE",
   "self_type" : "_ZTIKN4aidl7android8hardware8security7keymint13ProtectedDataE",
   "size" : 24,
   "source_file" : "out/soong/.intermediates/hardware/interfaces/security/keymint/aidl/android.hardware.security.keymint-V1-ndk_platform-source/gen/include/aidl/android/hardware/security/keymint/ProtectedData.h"
  },
  {
   "alignment" : 4,
   "is_const" : true,
   "linker_set_key" : "_ZTIKN4aidl7android8hardware8security7keymint13SecurityLevelE",
   "name" : "const aidl::android::hardware::security::keymint::SecurityLevel",
   "referenced_type" : "_ZTIN4aidl7android8hardware8security7keymint13SecurityLevelE",
   "self_type" : "_ZTIKN4aidl7android8hardware8security7keymint13SecurityLevelE",
   "size" : 4,
   "source_file" : "frameworks/native/libs/binder/ndk/include_cpp/android/binder_to_string.h"
  },
  {
   "alignment" : 8,
   "is_const" : true,
   "linker_set_key" : "_ZTIKN4aidl7android8hardware8security7keymint14AttestationKeyE",
   "name" : "const aidl::android::hardware::security::keymint::AttestationKey",
   "referenced_type" : "_ZTIN4aidl7android8hardware8security7keymint14AttestationKeyE",
   "self_type" : "_ZTIKN4aidl7android8hardware8security7keymint14AttestationKeyE",
   "size" : 72,
   "source_file" : "out/soong/.intermediates/hardware/interfaces/security/keymint/aidl/android.hardware.security.keymint-V1-ndk_platform-source/gen/include/aidl/android/hardware/security/keymint/AttestationKey.h"
  },
  {
   "alignment" : 8,
   "is_const" : true,
   "linker_set_key" : "_ZTIKN4aidl7android8hardware8security7keymint14MacedPublicKeyE",
   "name" : "const aidl::android::hardware::security::keymint::MacedPublicKey",
   "referenced_type" : "_ZTIN4aidl7android8hardware8security7keymint14MacedPublicKeyE",
   "self_type" : "_ZTIKN4aidl7android8hardware8security7keymint14MacedPublicKeyE",
   "size" : 24,
   "source_file" : "out/soong/.intermediates/hardware/interfaces/security/keymint/aidl/android.hardware.security.keymint-V1-ndk_platform-source/gen/include/aidl/android/hardware/security/keymint/MacedPublicKey.h"
  },
  {
   "alignment" : 8,
   "is_const" : true,
   "linker_set_key" : "_ZTIKN4aidl7android8hardware8security7keymint15RpcHardwareInfoE",
   "name" : "const aidl::android::hardware::security::keymint::RpcHardwareInfo",
   "referenced_type" : "_ZTIN4aidl7android8hardware8security7keymint15RpcHardwareInfoE",
   "self_type" : "_ZTIKN4aidl7android8hardware8security7keymint15RpcHardwareInfoE",
   "size" : 40,
   "source_file" : "out/soong/.intermediates/hardware/interfaces/security/keymint/aidl/android.hardware.security.keymint-V1-ndk_platform-source/gen/include/aidl/android/hardware/security/keymint/RpcHardwareInfo.h"
  },
  {
   "alignment" : 8,
   "is_const" : true,
   "linker_set_key" : "_ZTIKN4aidl7android8hardware8security7keymint17HardwareAuthTokenE",
   "name" : "const aidl::android::hardware::security::keymint::HardwareAuthToken",
   "referenced_type" : "_ZTIN4aidl7android8hardware8security7keymint17HardwareAuthTokenE",
   "self_type" : "_ZTIKN4aidl7android8hardware8security7keymint17HardwareAuthTokenE",
   "size" : 64,
   "source_file" : "out/soong/.intermediates/hardware/interfaces/security/keymint/aidl/android.hardware.security.keymint-V1-ndk_platform-source/gen/include/aidl/android/hardware/security/keymint/HardwareAuthToken.h"
  },
  {
   "alignment" : 8,
   "is_const" : true,
   "linker_set_key" : "_ZTIKN4aidl7android8hardware8security7keymint17IKeyMintOperationE",
   "name" : "const aidl::android::hardware::security::keymint::IKeyMintOperation",
   "referenced_type" : "_ZTIN4aidl7android8hardware8security7keymint17IKeyMintOperationE",
   "self_type" : "_ZTIKN4aidl7android8hardware8security7keymint17IKeyMintOperationE",
   "size" : 32,
   "source_file" : "frameworks/native/libs/binder/ndk/include_cpp/android/binder_to_string.h"
  },
  {
   "alignment" : 8,
   "is_const" : true,
   "linker_set_key" : "_ZTIKN4aidl7android8hardware8security7keymint17KeyCreationResultE",
   "name" : "const aidl::android::hardware::security::keymint::KeyCreationResult",
   "referenced_type" : "_ZTIN4aidl7android8hardware8security7keymint17KeyCreationResultE",
   "self_type" : "_ZTIKN4aidl7android8hardware8security7keymint17KeyCreationResultE",
   "size" : 72,
   "source_file" : "out/soong/.intermediates/hardware/interfaces/security/keymint/aidl/android.hardware.security.keymint-V1-ndk_platform-source/gen/include/aidl/android/hardware/security/keymint/KeyCreationResult.h"
  },
  {
   "alignment" : 8,
   "is_const" : true,
   "linker_set_key" : "_ZTIKN4aidl7android8hardware8security7keymint17KeyParameterValueE",
   "name" : "const aidl::android::hardware::security::keymint::KeyParameterValue",
   "referenced_type" : "_ZTIN4aidl7android8hardware8security7keymint17KeyParameterValueE",
   "self_type" : "_ZTIKN4aidl7android8hardware8security7keymint17KeyParameterValueE",
   "size" : 32,
   "source_file" : "frameworks/native/libs/binder/ndk/include_cpp/android/binder_to_string.h"
  },
  {
   "alignment" : 8,
   "is_const" : true,
   "linker_set_key" : "_ZTIKN4aidl7android8hardware8security7keymint18KeyCharacteristicsE",
   "name" : "const aidl::android::hardware::security::keymint::KeyCharacteristics",
   "referenced_type" : "_ZTIN4aidl7android8hardware8security7keymint18KeyCharacteristicsE",
   "self_type" : "_ZTIKN4aidl7android8hardware8security7keymint18KeyCharacteristicsE",
   "size" : 32,
   "source_file" : "frameworks/native/libs/binder/ndk/include_cpp/android/binder_to_string.h"
  },
  {
   "alignment" : 8,
   "is_const" : true,
   "linker_set_key" : "_ZTIKN4aidl7android8hardware8security7keymint19KeyMintHardwareInfoE",
   "name" : "const aidl::android::hardware::security::keymint::KeyMintHardwareInfo",
   "referenced_type" : "_ZTIN4aidl7android8hardware8security7keymint19KeyMintHardwareInfoE",
   "self_type" : "_ZTIKN4aidl7android8hardware8security7keymint19KeyMintHardwareInfoE",
   "size" : 64,
   "source_file" : "out/soong/.intermediates/hardware/interfaces/security/keymint/aidl/android.hardware.security.keymint-V1-ndk_platform-source/gen/include/aidl/android/hardware/security/keymint/KeyMintHardwareInfo.h"
  },
  {
   "alignment" : 4,
   "is_const" : true,
   "linker_set_key" : "_ZTIKN4aidl7android8hardware8security7keymint25HardwareAuthenticatorTypeE",
   "name" : "const aidl::android::hardware::security::keymint::HardwareAuthenticatorType",
   "referenced_type" : "_ZTIN4aidl7android8hardware8security7keymint25HardwareAuthenticatorTypeE",
   "self_type" : "_ZTIKN4aidl7android8hardware8security7keymint25HardwareAuthenticatorTypeE",
   "size" : 4,
   "source_file" : "frameworks/native/libs/binder/ndk/include_cpp/android/binder_to_string.h"
  },
  {
   "alignment" : 4,
   "is_const" : true,
   "linker_set_key" : "_ZTIKN4aidl7android8hardware8security7keymint3TagE",
   "name" : "const aidl::android::hardware::security::keymint::Tag",
   "referenced_type" : "_ZTIN4aidl7android8hardware8security7keymint3TagE",
   "self_type" : "_ZTIKN4aidl7android8hardware8security7keymint3TagE",
   "size" : 4,
   "source_file" : "frameworks/native/libs/binder/ndk/include_cpp/android/binder_to_string.h"
  },
  {
   "alignment" : 4,
   "is_const" : true,
   "linker_set_key" : "_ZTIKN4aidl7android8hardware8security7keymint6DigestE",
   "name" : "const aidl::android::hardware::security::keymint::Digest",
   "referenced_type" : "_ZTIN4aidl7android8hardware8security7keymint6DigestE",
   "self_type" : "_ZTIKN4aidl7android8hardware8security7keymint6DigestE",
   "size" : 4,
   "source_file" : "frameworks/native/libs/binder/ndk/include_cpp/android/binder_to_string.h"
  },
  {
   "alignment" : 4,
   "is_const" : true,
   "linker_set_key" : "_ZTIKN4aidl7android8hardware8security7keymint7EcCurveE",
   "name" : "const aidl::android::hardware::security::keymint::EcCurve",
   "referenced_type" : "_ZTIN4aidl7android8hardware8security7keymint7EcCurveE",
   "self_type" : "_ZTIKN4aidl7android8hardware8security7keymint7EcCurveE",
   "size" : 4,
   "source_file" : "frameworks/native/libs/binder/ndk/include_cpp/android/binder_to_string.h"
  },
  {
   "alignment" : 4,
   "is_const" : true,
   "linker_set_key" : "_ZTIKN4aidl7android8hardware8security7keymint9AlgorithmE",
   "name" : "const aidl::android::hardware::security::keymint::Algorithm",
   "referenced_type" : "_ZTIN4aidl7android8hardware8security7keymint9AlgorithmE",
   "self_type" : "_ZTIKN4aidl7android8hardware8security7keymint9AlgorithmE",
   "size" : 4,
   "source_file" : "frameworks/native/libs/binder/ndk/include_cpp/android/binder_to_string.h"
  },
  {
   "alignment" : 4,
   "is_const" : true,
   "linker_set_key" : "_ZTIKN4aidl7android8hardware8security7keymint9BlockModeE",
   "name" : "const aidl::android::hardware::security::keymint::BlockMode",
   "referenced_type" : "_ZTIN4aidl7android8hardware8security7keymint9BlockModeE",
   "self_type" : "_ZTIKN4aidl7android8hardware8security7keymint9BlockModeE",
   "size" : 4,
   "source_file" : "frameworks/native/libs/binder/ndk/include_cpp/android/binder_to_string.h"
  },
  {
   "alignment" : 4,
   "is_const" : true,
   "linker_set_key" : "_ZTIKN4aidl7android8hardware8security7keymint9KeyOriginE",
   "name" : "const aidl::android::hardware::security::keymint::KeyOrigin",
   "referenced_type" : "_ZTIN4aidl7android8hardware8security7keymint9KeyOriginE",
   "self_type" : "_ZTIKN4aidl7android8hardware8security7keymint9KeyOriginE",
   "size" : 4,
   "source_file" : "frameworks/native/libs/binder/ndk/include_cpp/android/binder_to_string.h"
  },
  {
   "alignment" : 8,
   "is_const" : true,
   "linker_set_key" : "_ZTIKNSt3__110shared_ptrIN4aidl7android8hardware8security7keymint14IKeyMintDeviceEEE",
   "name" : "const std::shared_ptr<aidl::android::hardware::security::keymint::IKeyMintDevice>",
   "referenced_type" : "_ZTINSt3__110shared_ptrIN4aidl7android8hardware8security7keymint14IKeyMintDeviceEEE",
   "self_type" : "_ZTIKNSt3__110shared_ptrIN4aidl7android8hardware8security7keymint14IKeyMintDeviceEEE",
   "size" : 16,
   "source_file" : "out/soong/.intermediates/hardware/interfaces/security/keymint/aidl/android.hardware.security.keymint-V1-ndk_platform-source/gen/include/aidl/android/hardware/security/keymint/IKeyMintDevice.h"
  },
  {
   "alignment" : 8,
   "is_const" : true,
   "linker_set_key" : "_ZTIKNSt3__110shared_ptrIN4aidl7android8hardware8security7keymint17IKeyMintOperationEEE",
   "name" : "const std::shared_ptr<aidl::android::hardware::security::keymint::IKeyMintOperation>",
   "referenced_type" : "_ZTINSt3__110shared_ptrIN4aidl7android8hardware8security7keymint17IKeyMintOperationEEE",
   "self_type" : "_ZTIKNSt3__110shared_ptrIN4aidl7android8hardware8security7keymint17IKeyMintOperationEEE",
   "size" : 16,
   "source_file" : "frameworks/native/libs/binder/ndk/include_cpp/android/binder_to_string.h"
  },
  {
   "alignment" : 8,
   "is_const" : true,
   "linker_set_key" : "_ZTIKNSt3__110shared_ptrIN4aidl7android8hardware8security7keymint29IRemotelyProvisionedComponentEEE",
   "name" : "const std::shared_ptr<aidl::android::hardware::security::keymint::IRemotelyProvisionedComponent>",
   "referenced_type" : "_ZTINSt3__110shared_ptrIN4aidl7android8hardware8security7keymint29IRemotelyProvisionedComponentEEE",
   "self_type" : "_ZTIKNSt3__110shared_ptrIN4aidl7android8hardware8security7keymint29IRemotelyProvisionedComponentEEE",
   "size" : 16,
   "source_file" : "out/soong/.intermediates/hardware/interfaces/security/keymint/aidl/android.hardware.security.keymint-V1-ndk_platform-source/gen/include/aidl/android/hardware/security/keymint/IRemotelyProvisionedComponent.h"
  },
  {
   "alignment" : 8,
   "is_const" : true,
   "linker_set_key" : "_ZTIKNSt3__112basic_stringIcNS_11char_traitsIcEENS_9allocatorIcEEEE",
   "name" : "const std::basic_string<char, std::char_traits<char>, std::allocator<char>>",
   "referenced_type" : "_ZTINSt3__112basic_stringIcNS_11char_traitsIcEENS_9allocatorIcEEEE",
   "self_type" : "_ZTIKNSt3__112basic_stringIcNS_11char_traitsIcEENS_9allocatorIcEEEE",
   "size" : 24,
   "source_file" : "out/soong/.intermediates/hardware/interfaces/security/keymint/aidl/android.hardware.security.keymint-V1-ndk_platform-source/gen/include/aidl/android/hardware/security/keymint/IKeyMintOperation.h"
  },
  {
   "alignment" : 4,
   "is_const" : true,
   "linker_set_key" : "_ZTIKNSt3__15arrayIN4aidl7android8hardware8security7keymint10KeyPurposeELm7EEE",
   "name" : "const std::array<aidl::android::hardware::security::keymint::KeyPurpose, 7>",
   "referenced_type" : "_ZTINSt3__15arrayIN4aidl7android8hardware8security7keymint10KeyPurposeELm7EEE",
   "self_type" : "_ZTIKNSt3__15arrayIN4aidl7android8hardware8security7keymint10KeyPurposeELm7EEE",
   "size" : 28,
   "source_file" : "out/soong/.intermediates/hardware/interfaces/security/keymint/aidl/android.hardware.security.keymint-V1-ndk_platform-source/gen/include/aidl/android/hardware/security/keymint/KeyPurpose.h"
  },
  {
   "alignment" : 4,
   "is_const" : true,
   "linker_set_key" : "_ZTIKNSt3__15arrayIN4aidl7android8hardware8security7keymint11PaddingModeELm6EEE",
   "name" : "const std::array<aidl::android::hardware::security::keymint::PaddingMode, 6>",
   "referenced_type" : "_ZTINSt3__15arrayIN4aidl7android8hardware8security7keymint11PaddingModeELm6EEE",
   "self_type" : "_ZTIKNSt3__15arrayIN4aidl7android8hardware8security7keymint11PaddingModeELm6EEE",
   "size" : 24,
   "source_file" : "out/soong/.intermediates/hardware/interfaces/security/keymint/aidl/android.hardware.security.keymint-V1-ndk_platform-source/gen/include/aidl/android/hardware/security/keymint/PaddingMode.h"
  },
  {
   "alignment" : 4,
   "is_const" : true,
   "linker_set_key" : "_ZTIKNSt3__15arrayIN4aidl7android8hardware8security7keymint13SecurityLevelELm4EEE",
   "name" : "const std::array<aidl::android::hardware::security::keymint::SecurityLevel, 4>",
   "referenced_type" : "_ZTINSt3__15arrayIN4aidl7android8hardware8security7keymint13SecurityLevelELm4EEE",
   "self_type" : "_ZTIKNSt3__15arrayIN4aidl7android8hardware8security7keymint13SecurityLevelELm4EEE",
   "size" : 16,
   "source_file" : "out/soong/.intermediates/hardware/interfaces/security/keymint/aidl/android.hardware.security.keymint-V1-ndk_platform-source/gen/include/aidl/android/hardware/security/keymint/SecurityLevel.h"
  },
  {
   "alignment" : 4,
   "is_const" : true,
   "linker_set_key" : "_ZTIKNSt3__15arrayIN4aidl7android8hardware8security7keymint25HardwareAuthenticatorTypeELm4EEE",
   "name" : "const std::array<aidl::android::hardware::security::keymint::HardwareAuthenticatorType, 4>",
   "referenced_type" : "_ZTINSt3__15arrayIN4aidl7android8hardware8security7keymint25HardwareAuthenticatorTypeELm4EEE",
   "self_type" : "_ZTIKNSt3__15arrayIN4aidl7android8hardware8security7keymint25HardwareAuthenticatorTypeELm4EEE",
   "size" : 16,
   "source_file" : "out/soong/.intermediates/hardware/interfaces/security/keymint/aidl/android.hardware.security.keymint-V1-ndk_platform-source/gen/include/aidl/android/hardware/security/keymint/HardwareAuthenticatorType.h"
  },
  {
   "alignment" : 4,
   "is_const" : true,
   "linker_set_key" : "_ZTIKNSt3__15arrayIN4aidl7android8hardware8security7keymint3TagELm65EEE",
   "name" : "const std::array<aidl::android::hardware::security::keymint::Tag, 65>",
   "referenced_type" : "_ZTINSt3__15arrayIN4aidl7android8hardware8security7keymint3TagELm65EEE",
   "self_type" : "_ZTIKNSt3__15arrayIN4aidl7android8hardware8security7keymint3TagELm65EEE",
   "size" : 260,
   "source_file" : "out/soong/.intermediates/hardware/interfaces/security/keymint/aidl/android.hardware.security.keymint-V1-ndk_platform-source/gen/include/aidl/android/hardware/security/keymint/Tag.h"
  },
  {
   "alignment" : 4,
   "is_const" : true,
   "linker_set_key" : "_ZTIKNSt3__15arrayIN4aidl7android8hardware8security7keymint6DigestELm7EEE",
   "name" : "const std::array<aidl::android::hardware::security::keymint::Digest, 7>",
   "referenced_type" : "_ZTINSt3__15arrayIN4aidl7android8hardware8security7keymint6DigestELm7EEE",
   "self_type" : "_ZTIKNSt3__15arrayIN4aidl7android8hardware8security7keymint6DigestELm7EEE",
   "size" : 28,
   "source_file" : "out/soong/.intermediates/hardware/interfaces/security/keymint/aidl/android.hardware.security.keymint-V1-ndk_platform-source/gen/include/aidl/android/hardware/security/keymint/Digest.h"
  },
  {
   "alignment" : 4,
   "is_const" : true,
   "linker_set_key" : "_ZTIKNSt3__15arrayIN4aidl7android8hardware8security7keymint7EcCurveELm4EEE",
   "name" : "const std::array<aidl::android::hardware::security::keymint::EcCurve, 4>",
   "referenced_type" : "_ZTINSt3__15arrayIN4aidl7android8hardware8security7keymint7EcCurveELm4EEE",
   "self_type" : "_ZTIKNSt3__15arrayIN4aidl7android8hardware8security7keymint7EcCurveELm4EEE",
   "size" : 16,
   "source_file" : "out/soong/.intermediates/hardware/interfaces/security/keymint/aidl/android.hardware.security.keymint-V1-ndk_platform-source/gen/include/aidl/android/hardware/security/keymint/EcCurve.h"
  },
  {
   "alignment" : 4,
   "is_const" : true,
   "linker_set_key" : "_ZTIKNSt3__15arrayIN4aidl7android8hardware8security7keymint9AlgorithmELm5EEE",
   "name" : "const std::array<aidl::android::hardware::security::keymint::Algorithm, 5>",
   "referenced_type" : "_ZTINSt3__15arrayIN4aidl7android8hardware8security7keymint9AlgorithmELm5EEE",
   "self_type" : "_ZTIKNSt3__15arrayIN4aidl7android8hardware8security7keymint9AlgorithmELm5EEE",
   "size" : 20,
   "source_file" : "out/soong/.intermediates/hardware/interfaces/security/keymint/aidl/android.hardware.security.keymint-V1-ndk_platform-source/gen/include/aidl/android/hardware/security/keymint/Algorithm.h"
  },
  {
   "alignment" : 4,
   "is_const" : true,
   "linker_set_key" : "_ZTIKNSt3__15arrayIN4aidl7android8hardware8security7keymint9BlockModeELm4EEE",
   "name" : "const std::array<aidl::android::hardware::security::keymint::BlockMode, 4>",
   "referenced_type" : "_ZTINSt3__15arrayIN4aidl7android8hardware8security7keymint9BlockModeELm4EEE",
   "self_type" : "_ZTIKNSt3__15arrayIN4aidl7android8hardware8security7keymint9BlockModeELm4EEE",
   "size" : 16,
   "source_file" : "out/soong/.intermediates/hardware/interfaces/security/keymint/aidl/android.hardware.security.keymint-V1-ndk_platform-source/gen/include/aidl/android/hardware/security/keymint/BlockMode.h"
  },
  {
   "alignment" : 4,
   "is_const" : true,
   "linker_set_key" : "_ZTIKNSt3__15arrayIN4aidl7android8hardware8security7keymint9KeyFormatELm3EEE",
   "name" : "const std::array<aidl::android::hardware::security::keymint::KeyFormat, 3>",
   "referenced_type" : "_ZTINSt3__15arrayIN4aidl7android8hardware8security7keymint9KeyFormatELm3EEE",
   "self_type" : "_ZTIKNSt3__15arrayIN4aidl7android8hardware8security7keymint9KeyFormatELm3EEE",
   "size" : 12,
   "source_file" : "out/soong/.intermediates/hardware/interfaces/security/keymint/aidl/android.hardware.security.keymint-V1-ndk_platform-source/gen/include/aidl/android/hardware/security/keymint/KeyFormat.h"
  },
  {
   "alignment" : 4,
   "is_const" : true,
   "linker_set_key" : "_ZTIKNSt3__15arrayIN4aidl7android8hardware8security7keymint9KeyOriginELm5EEE",
   "name" : "const std::array<aidl::android::hardware::security::keymint::KeyOrigin, 5>",
   "referenced_type" : "_ZTINSt3__15arrayIN4aidl7android8hardware8security7keymint9KeyOriginELm5EEE",
   "self_type" : "_ZTIKNSt3__15arrayIN4aidl7android8hardware8security7keymint9KeyOriginELm5EEE",
   "size" : 20,
   "source_file" : "out/soong/.intermediates/hardware/interfaces/security/keymint/aidl/android.hardware.security.keymint-V1-ndk_platform-source/gen/include/aidl/android/hardware/security/keymint/KeyOrigin.h"
  },
  {
   "alignment" : 8,
   "is_const" : true,
   "linker_set_key" : "_ZTIKNSt3__16vectorIDsNS_9allocatorIDsEEEE",
   "name" : "const std::vector<char16_t, std::allocator<char16_t>>",
   "referenced_type" : "_ZTINSt3__16vectorIDsNS_9allocatorIDsEEEE",
   "self_type" : "_ZTIKNSt3__16vectorIDsNS_9allocatorIDsEEEE",
   "size" : 24,
   "source_file" : "frameworks/native/libs/binder/ndk/include_cpp/android/binder_parcel_utils.h"
  },
  {
   "alignment" : 8,
   "is_const" : true,
   "linker_set_key" : "_ZTIKNSt3__16vectorIN4aidl7android8hardware8security7keymint11CertificateENS_9allocatorIS6_EEEE",
   "name" : "const std::vector<aidl::android::hardware::security::keymint::Certificate, std::allocator<aidl::android::hardware::security::keymint::Certificate>>",
   "referenced_type" : "_ZTINSt3__16vectorIN4aidl7android8hardware8security7keymint11CertificateENS_9allocatorIS6_EEEE",
   "self_type" : "_ZTIKNSt3__16vectorIN4aidl7android8hardware8security7keymint11CertificateENS_9allocatorIS6_EEEE",
   "size" : 24,
   "source_file" : "frameworks/native/libs/binder/ndk/include_cpp/android/binder_to_string.h"
  },
  {
   "alignment" : 8,
   "is_const" : true,
   "linker_set_key" : "_ZTIKNSt3__16vectorIN4aidl7android8hardware8security7keymint12KeyParameterENS_9allocatorIS6_EEEE",
   "name" : "const std::vector<aidl::android::hardware::security::keymint::KeyParameter, std::allocator<aidl::android::hardware::security::keymint::KeyParameter>>",
   "referenced_type" : "_ZTINSt3__16vectorIN4aidl7android8hardware8security7keymint12KeyParameterENS_9allocatorIS6_EEEE",
   "self_type" : "_ZTIKNSt3__16vectorIN4aidl7android8hardware8security7keymint12KeyParameterENS_9allocatorIS6_EEEE",
   "size" : 24,
   "source_file" : "frameworks/native/libs/binder/ndk/include_cpp/android/binder_to_string.h"
  },
  {
   "alignment" : 8,
   "is_const" : true,
   "linker_set_key" : "_ZTIKNSt3__16vectorIN4aidl7android8hardware8security7keymint14MacedPublicKeyENS_9allocatorIS6_EEEE",
   "name" : "const std::vector<aidl::android::hardware::security::keymint::MacedPublicKey, std::allocator<aidl::android::hardware::security::keymint::MacedPublicKey>>",
   "referenced_type" : "_ZTINSt3__16vectorIN4aidl7android8hardware8security7keymint14MacedPublicKeyENS_9allocatorIS6_EEEE",
   "self_type" : "_ZTIKNSt3__16vectorIN4aidl7android8hardware8security7keymint14MacedPublicKeyENS_9allocatorIS6_EEEE",
   "size" : 24,
   "source_file" : "out/soong/.intermediates/hardware/interfaces/security/keymint/aidl/android.hardware.security.keymint-V1-ndk_platform-source/gen/include/aidl/android/hardware/security/keymint/IRemotelyProvisionedComponent.h"
  },
  {
   "alignment" : 8,
   "is_const" : true,
   "linker_set_key" : "_ZTIKNSt3__16vectorIN4aidl7android8hardware8security7keymint18KeyCharacteristicsENS_9allocatorIS6_EEEE",
   "name" : "const std::vector<aidl::android::hardware::security::keymint::KeyCharacteristics, std::allocator<aidl::android::hardware::security::keymint::KeyCharacteristics>>",
   "referenced_type" : "_ZTINSt3__16vectorIN4aidl7android8hardware8security7keymint18KeyCharacteristicsENS_9allocatorIS6_EEEE",
   "self_type" : "_ZTIKNSt3__16vectorIN4aidl7android8hardware8security7keymint18KeyCharacteristicsENS_9allocatorIS6_EEEE",
   "size" : 24,
   "source_file" : "frameworks/native/libs/binder/ndk/include_cpp/android/binder_to_string.h"
  },
  {
   "alignment" : 8,
   "is_const" : true,
   "linker_set_key" : "_ZTIKNSt3__16vectorIbNS_9allocatorIbEEEE",
   "name" : "const std::vector<bool, std::allocator<bool>>",
   "referenced_type" : "_ZTINSt3__16vectorIbNS_9allocatorIbEEEE",
   "self_type" : "_ZTIKNSt3__16vectorIbNS_9allocatorIbEEEE",
   "size" : 24,
   "source_file" : "frameworks/native/libs/binder/ndk/include_cpp/android/binder_parcel_utils.h"
  },
  {
   "alignment" : 8,
   "is_const" : true,
   "linker_set_key" : "_ZTIKNSt3__16vectorIdNS_9allocatorIdEEEE",
   "name" : "const std::vector<double, std::allocator<double>>",
   "referenced_type" : "_ZTINSt3__16vectorIdNS_9allocatorIdEEEE",
   "self_type" : "_ZTIKNSt3__16vectorIdNS_9allocatorIdEEEE",
   "size" : 24,
   "source_file" : "frameworks/native/libs/binder/ndk/include_cpp/android/binder_parcel_utils.h"
  },
  {
   "alignment" : 8,
   "is_const" : true,
   "linker_set_key" : "_ZTIKNSt3__16vectorIfNS_9allocatorIfEEEE",
   "name" : "const std::vector<float, std::allocator<float>>",
   "referenced_type" : "_ZTINSt3__16vectorIfNS_9allocatorIfEEEE",
   "self_type" : "_ZTIKNSt3__16vectorIfNS_9allocatorIfEEEE",
   "size" : 24,
   "source_file" : "frameworks/native/libs/binder/ndk/include_cpp/android/binder_parcel_utils.h"
  },
  {
   "alignment" : 8,
   "is_const" : true,
   "linker_set_key" : "_ZTIKNSt3__16vectorIhNS_9allocatorIhEEEE",
   "name" : "const std::vector<unsigned char, std::allocator<unsigned char>>",
   "referenced_type" : "_ZTINSt3__16vectorIhNS_9allocatorIhEEEE",
   "self_type" : "_ZTIKNSt3__16vectorIhNS_9allocatorIhEEEE",
   "size" : 24,
   "source_file" : "frameworks/native/libs/binder/ndk/include_cpp/android/binder_parcel_utils.h"
  },
  {
   "alignment" : 8,
   "is_const" : true,
   "linker_set_key" : "_ZTIKNSt3__16vectorIiNS_9allocatorIiEEEE",
   "name" : "const std::vector<int, std::allocator<int>>",
   "referenced_type" : "_ZTINSt3__16vectorIiNS_9allocatorIiEEEE",
   "self_type" : "_ZTIKNSt3__16vectorIiNS_9allocatorIiEEEE",
   "size" : 24,
   "source_file" : "frameworks/native/libs/binder/ndk/include_cpp/android/binder_parcel_utils.h"
  },
  {
   "alignment" : 8,
   "is_const" : true,
   "linker_set_key" : "_ZTIKNSt3__16vectorIjNS_9allocatorIjEEEE",
   "name" : "const std::vector<unsigned int, std::allocator<unsigned int>>",
   "referenced_type" : "_ZTINSt3__16vectorIjNS_9allocatorIjEEEE",
   "self_type" : "_ZTIKNSt3__16vectorIjNS_9allocatorIjEEEE",
   "size" : 24,
   "source_file" : "frameworks/native/libs/binder/ndk/include_cpp/android/binder_parcel_utils.h"
  },
  {
   "alignment" : 8,
   "is_const" : true,
   "linker_set_key" : "_ZTIKNSt3__16vectorIlNS_9allocatorIlEEEE",
   "name" : "const std::vector<long, std::allocator<long>>",
   "referenced_type" : "_ZTINSt3__16vectorIlNS_9allocatorIlEEEE",
   "self_type" : "_ZTIKNSt3__16vectorIlNS_9allocatorIlEEEE",
   "size" : 24,
   "source_file" : "frameworks/native/libs/binder/ndk/include_cpp/android/binder_parcel_utils.h"
  },
  {
   "alignment" : 8,
   "is_const" : true,
   "linker_set_key" : "_ZTIKNSt3__16vectorImNS_9allocatorImEEEE",
   "name" : "const std::vector<unsigned long, std::allocator<unsigned long>>",
   "referenced_type" : "_ZTINSt3__16vectorImNS_9allocatorImEEEE",
   "self_type" : "_ZTIKNSt3__16vectorImNS_9allocatorImEEEE",
   "size" : 24,
   "source_file" : "frameworks/native/libs/binder/ndk/include_cpp/android/binder_parcel_utils.h"
  },
  {
   "alignment" : 8,
   "is_const" : true,
   "linker_set_key" : "_ZTIKNSt3__18optionalIN4aidl7android8hardware8security11secureclock14TimeStampTokenEEE",
   "name" : "const std::optional<aidl::android::hardware::security::secureclock::TimeStampToken>",
   "referenced_type" : "_ZTINSt3__18optionalIN4aidl7android8hardware8security11secureclock14TimeStampTokenEEE",
   "self_type" : "_ZTIKNSt3__18optionalIN4aidl7android8hardware8security11secureclock14TimeStampTokenEEE",
   "size" : 48,
   "source_file" : "out/soong/.intermediates/hardware/interfaces/security/keymint/aidl/android.hardware.security.keymint-V1-ndk_platform-source/gen/include/aidl/android/hardware/security/keymint/IKeyMintDevice.h"
  },
  {
   "alignment" : 8,
   "is_const" : true,
   "linker_set_key" : "_ZTIKNSt3__18optionalIN4aidl7android8hardware8security7keymint14AttestationKeyEEE",
   "name" : "const std::optional<aidl::android::hardware::security::keymint::AttestationKey>",
   "referenced_type" : "_ZTINSt3__18optionalIN4aidl7android8hardware8security7keymint14AttestationKeyEEE",
   "self_type" : "_ZTIKNSt3__18optionalIN4aidl7android8hardware8security7keymint14AttestationKeyEEE",
   "size" : 80,
   "source_file" : "out/soong/.intermediates/hardware/interfaces/security/keymint/aidl/android.hardware.security.keymint-V1-ndk_platform-source/gen/include/aidl/android/hardware/security/keymint/IKeyMintDevice.h"
  },
  {
   "alignment" : 8,
   "is_const" : true,
   "linker_set_key" : "_ZTIKNSt3__18optionalIN4aidl7android8hardware8security7keymint17HardwareAuthTokenEEE",
   "name" : "const std::optional<aidl::android::hardware::security::keymint::HardwareAuthToken>",
   "referenced_type" : "_ZTINSt3__18optionalIN4aidl7android8hardware8security7keymint17HardwareAuthTokenEEE",
   "self_type" : "_ZTIKNSt3__18optionalIN4aidl7android8hardware8security7keymint17HardwareAuthTokenEEE",
   "size" : 72,
   "source_file" : "out/soong/.intermediates/hardware/interfaces/security/keymint/aidl/android.hardware.security.keymint-V1-ndk_platform-source/gen/include/aidl/android/hardware/security/keymint/IKeyMintDevice.h"
  },
  {
   "alignment" : 8,
   "is_const" : true,
   "linker_set_key" : "_ZTIKNSt3__18optionalINS_6vectorIDsNS_9allocatorIDsEEEEEE",
   "name" : "const std::optional<std::vector<char16_t, std::allocator<char16_t>>>",
   "referenced_type" : "_ZTINSt3__18optionalINS_6vectorIDsNS_9allocatorIDsEEEEEE",
   "self_type" : "_ZTIKNSt3__18optionalINS_6vectorIDsNS_9allocatorIDsEEEEEE",
   "size" : 32,
   "source_file" : "frameworks/native/libs/binder/ndk/include_cpp/android/binder_parcel_utils.h"
  },
  {
   "alignment" : 8,
   "is_const" : true,
   "linker_set_key" : "_ZTIKNSt3__18optionalINS_6vectorIbNS_9allocatorIbEEEEEE",
   "name" : "const std::optional<std::vector<bool, std::allocator<bool>>>",
   "referenced_type" : "_ZTINSt3__18optionalINS_6vectorIbNS_9allocatorIbEEEEEE",
   "self_type" : "_ZTIKNSt3__18optionalINS_6vectorIbNS_9allocatorIbEEEEEE",
   "size" : 32,
   "source_file" : "frameworks/native/libs/binder/ndk/include_cpp/android/binder_parcel_utils.h"
  },
  {
   "alignment" : 8,
   "is_const" : true,
   "linker_set_key" : "_ZTIKNSt3__18optionalINS_6vectorIdNS_9allocatorIdEEEEEE",
   "name" : "const std::optional<std::vector<double, std::allocator<double>>>",
   "referenced_type" : "_ZTINSt3__18optionalINS_6vectorIdNS_9allocatorIdEEEEEE",
   "self_type" : "_ZTIKNSt3__18optionalINS_6vectorIdNS_9allocatorIdEEEEEE",
   "size" : 32,
   "source_file" : "frameworks/native/libs/binder/ndk/include_cpp/android/binder_parcel_utils.h"
  },
  {
   "alignment" : 8,
   "is_const" : true,
   "linker_set_key" : "_ZTIKNSt3__18optionalINS_6vectorIfNS_9allocatorIfEEEEEE",
   "name" : "const std::optional<std::vector<float, std::allocator<float>>>",
   "referenced_type" : "_ZTINSt3__18optionalINS_6vectorIfNS_9allocatorIfEEEEEE",
   "self_type" : "_ZTIKNSt3__18optionalINS_6vectorIfNS_9allocatorIfEEEEEE",
   "size" : 32,
   "source_file" : "frameworks/native/libs/binder/ndk/include_cpp/android/binder_parcel_utils.h"
  },
  {
   "alignment" : 8,
   "is_const" : true,
   "linker_set_key" : "_ZTIKNSt3__18optionalINS_6vectorIhNS_9allocatorIhEEEEEE",
   "name" : "const std::optional<std::vector<unsigned char, std::allocator<unsigned char>>>",
   "referenced_type" : "_ZTINSt3__18optionalINS_6vectorIhNS_9allocatorIhEEEEEE",
   "self_type" : "_ZTIKNSt3__18optionalINS_6vectorIhNS_9allocatorIhEEEEEE",
   "size" : 32,
   "source_file" : "frameworks/native/libs/binder/ndk/include_cpp/android/binder_parcel_utils.h"
  },
  {
   "alignment" : 8,
   "is_const" : true,
   "linker_set_key" : "_ZTIKNSt3__18optionalINS_6vectorIiNS_9allocatorIiEEEEEE",
   "name" : "const std::optional<std::vector<int, std::allocator<int>>>",
   "referenced_type" : "_ZTINSt3__18optionalINS_6vectorIiNS_9allocatorIiEEEEEE",
   "self_type" : "_ZTIKNSt3__18optionalINS_6vectorIiNS_9allocatorIiEEEEEE",
   "size" : 32,
   "source_file" : "frameworks/native/libs/binder/ndk/include_cpp/android/binder_parcel_utils.h"
  },
  {
   "alignment" : 8,
   "is_const" : true,
   "linker_set_key" : "_ZTIKNSt3__18optionalINS_6vectorIjNS_9allocatorIjEEEEEE",
   "name" : "const std::optional<std::vector<unsigned int, std::allocator<unsigned int>>>",
   "referenced_type" : "_ZTINSt3__18optionalINS_6vectorIjNS_9allocatorIjEEEEEE",
   "self_type" : "_ZTIKNSt3__18optionalINS_6vectorIjNS_9allocatorIjEEEEEE",
   "size" : 32,
   "source_file" : "frameworks/native/libs/binder/ndk/include_cpp/android/binder_parcel_utils.h"
  },
  {
   "alignment" : 8,
   "is_const" : true,
   "linker_set_key" : "_ZTIKNSt3__18optionalINS_6vectorIlNS_9allocatorIlEEEEEE",
   "name" : "const std::optional<std::vector<long, std::allocator<long>>>",
   "referenced_type" : "_ZTINSt3__18optionalINS_6vectorIlNS_9allocatorIlEEEEEE",
   "self_type" : "_ZTIKNSt3__18optionalINS_6vectorIlNS_9allocatorIlEEEEEE",
   "size" : 32,
   "source_file" : "frameworks/native/libs/binder/ndk/include_cpp/android/binder_parcel_utils.h"
  },
  {
   "alignment" : 8,
   "is_const" : true,
   "linker_set_key" : "_ZTIKNSt3__18optionalINS_6vectorImNS_9allocatorImEEEEEE",
   "name" : "const std::optional<std::vector<unsigned long, std::allocator<unsigned long>>>",
   "referenced_type" : "_ZTINSt3__18optionalINS_6vectorImNS_9allocatorImEEEEEE",
   "self_type" : "_ZTIKNSt3__18optionalINS_6vectorImNS_9allocatorImEEEEEE",
   "size" : 32,
   "source_file" : "frameworks/native/libs/binder/ndk/include_cpp/android/binder_parcel_utils.h"
  },
  {
   "alignment" : 8,
   "is_const" : true,
   "linker_set_key" : "_ZTIKP7AParcel",
   "name" : "AParcel *const",
   "referenced_type" : "_ZTIP7AParcel",
   "self_type" : "_ZTIKP7AParcel",
   "size" : 8,
   "source_file" : "frameworks/native/libs/binder/ndk/include_cpp/android/binder_auto_utils.h"
  },
  {
   "alignment" : 8,
   "is_const" : true,
   "linker_set_key" : "_ZTIKP7AStatus",
   "name" : "AStatus *const",
   "referenced_type" : "_ZTIP7AStatus",
   "self_type" : "_ZTIKP7AStatus",
   "size" : 8,
   "source_file" : "frameworks/native/libs/binder/ndk/include_cpp/android/binder_auto_utils.h"
  },
  {
   "alignment" : 1,
   "is_const" : true,
   "linker_set_key" : "_ZTIKb",
   "name" : "const bool",
   "referenced_type" : "_ZTIb",
   "self_type" : "_ZTIKb",
   "size" : 1,
   "source_file" : "frameworks/native/libs/binder/ndk/include_cpp/android/binder_to_string.h"
  },
  {
   "alignment" : 1,
   "is_const" : true,
   "linker_set_key" : "_ZTIKc",
   "name" : "const char",
   "referenced_type" : "_ZTIc",
   "self_type" : "_ZTIKc",
   "size" : 1,
   "source_file" : "frameworks/native/libs/binder/ndk/include_cpp/android/binder_auto_utils.h"
  },
  {
   "alignment" : 1,
   "is_const" : true,
   "linker_set_key" : "_ZTIKh",
   "name" : "const unsigned char",
   "referenced_type" : "_ZTIh",
   "self_type" : "_ZTIKh",
   "size" : 1,
   "source_file" : "frameworks/native/libs/binder/ndk/include_cpp/android/binder_to_string.h"
  },
  {
   "alignment" : 4,
   "is_const" : true,
   "linker_set_key" : "_ZTIKi",
   "name" : "const int",
   "referenced_type" : "_ZTIi",
   "self_type" : "_ZTIKi",
   "size" : 4,
   "source_file" : "frameworks/native/libs/binder/ndk/include_cpp/android/binder_to_string.h"
  },
  {
   "alignment" : 4,
   "is_const" : true,
   "linker_set_key" : "_ZTIKj",
   "name" : "const unsigned int",
   "referenced_type" : "_ZTIj",
   "self_type" : "_ZTIKj",
   "size" : 4,
   "source_file" : "out/soong/.intermediates/hardware/interfaces/security/keymint/aidl/android.hardware.security.keymint-V1-ndk_platform-source/gen/include/aidl/android/hardware/security/keymint/IKeyMintOperation.h"
  },
  {
   "alignment" : 8,
   "is_const" : true,
   "linker_set_key" : "_ZTIKl",
   "name" : "const long",
   "referenced_type" : "_ZTIl",
   "self_type" : "_ZTIKl",
   "size" : 8,
   "source_file" : "frameworks/native/libs/binder/ndk/include_cpp/android/binder_to_string.h"
  },
  {
   "is_const" : true,
   "linker_set_key" : "_ZTIKv",
   "name" : "const void",
   "referenced_type" : "_ZTIv",
   "self_type" : "_ZTIKv",
   "source_file" : "frameworks/native/libs/binder/ndk/include_cpp/android/binder_parcel_utils.h"
  }
 ],
 "record_types" :
 [
  {
   "alignment" : 8,
   "fields" :
   [
    {
     "access" : "private",
     "field_name" : "mBinder",
     "referenced_type" : "_ZTIP8AIBinder"
    }
   ],
   "linker_set_key" : "_ZTIN3ndk10SpAIBinderE",
   "name" : "ndk::SpAIBinder",
   "record_kind" : "class",
   "referenced_type" : "_ZTIN3ndk10SpAIBinderE",
   "self_type" : "_ZTIN3ndk10SpAIBinderE",
   "size" : 8,
   "source_file" : "frameworks/native/libs/binder/ndk/include_cpp/android/binder_auto_utils.h"
  },
  {
   "access" : "private",
   "alignment" : 8,
   "fields" :
   [
    {
     "field_name" : "interface",
     "referenced_type" : "_ZTINSt3__110shared_ptrIN3ndk11ICInterfaceEEE"
    }
   ],
   "linker_set_key" : "_ZTIN3ndk11ICInterface15ICInterfaceDataE",
   "name" : "ndk::ICInterface::ICInterfaceData",
   "record_kind" : "class",
   "referenced_type" : "_ZTIN3ndk11ICInterface15ICInterfaceDataE",
   "self_type" : "_ZTIN3ndk11ICInterface15ICInterfaceDataE",
   "size" : 16,
   "source_file" : "frameworks/native/libs/binder/ndk/include_cpp/android/binder_interface_utils.h"
  },
  {
   "alignment" : 8,
   "base_specifiers" :
   [
    {
     "referenced_type" : "_ZTIN3ndk13SharedRefBaseE"
    }
   ],
   "linker_set_key" : "_ZTIN3ndk11ICInterfaceE",
   "name" : "ndk::ICInterface",
   "record_kind" : "class",
   "referenced_type" : "_ZTIN3ndk11ICInterfaceE",
   "self_type" : "_ZTIN3ndk11ICInterfaceE",
   "size" : 32,
   "source_file" : "frameworks/native/libs/binder/ndk/include_cpp/android/binder_interface_utils.h",
   "vtable_components" :
   [
    {
     "kind" : "offset_to_top"
    },
    {
     "kind" : "rtti",
     "mangled_component_name" : "_ZTIN3ndk11ICInterfaceE"
    },
    {
     "kind" : "complete_dtor_pointer",
     "mangled_component_name" : "_ZN3ndk11ICInterfaceD1Ev"
    },
    {
     "kind" : "deleting_dtor_pointer",
     "mangled_component_name" : "_ZN3ndk11ICInterfaceD0Ev"
    },
    {
     "is_pure" : true,
     "mangled_component_name" : "_ZN3ndk11ICInterface8asBinderEv"
    },
    {
     "is_pure" : true,
     "mangled_component_name" : "_ZN3ndk11ICInterface8isRemoteEv"
    },
    {
     "mangled_component_name" : "_ZN3ndk11ICInterface4dumpEiPPKcj"
    },
    {
     "mangled_component_name" : "_ZN3ndk11ICInterface18handleShellCommandEiiiPPKcj"
    }
   ]
  },
  {
   "alignment" : 8,
   "base_specifiers" :
   [
    {
     "referenced_type" : "_ZTIN4aidl7android8hardware8security7keymint14IKeyMintDeviceE"
    }
   ],
   "fields" :
   [
    {
     "access" : "private",
     "field_name" : "mMutex",
     "field_offset" : 256,
     "referenced_type" : "_ZTINSt3__15mutexE"
    },
    {
     "access" : "private",
     "field_name" : "mWeakBinder",
     "field_offset" : 576,
     "referenced_type" : "_ZTIN3ndk19ScopedAIBinder_WeakE"
    }
   ],
   "linker_set_key" : "_ZTIN3ndk12BnCInterfaceIN4aidl7android8hardware8security7keymint14IKeyMintDeviceEEE",
   "name" : "ndk::BnCInterface<aidl::android::hardware::security::keymint::IKeyMintDevice>",
   "record_kind" : "class",
   "referenced_type" : "_ZTIN3ndk12BnCInterfaceIN4aidl7android8hardware8security7keymint14IKeyMintDeviceEEE",
   "self_type" : "_ZTIN3ndk12BnCInterfaceIN4aidl7android8hardware8security7keymint14IKeyMintDeviceEEE",
   "size" : 80,
   "source_file" : "frameworks/native/libs/binder/ndk/include_cpp/android/binder_interface_utils.h",
   "template_args" : [ "_ZTIN4aidl7android8hardware8security7keymint14IKeyMintDeviceE" ],
   "vtable_components" :
   [
    {
     "kind" : "offset_to_top"
    },
    {
     "kind" : "rtti",
     "mangled_component_name" : "_ZTIN3ndk12BnCInterfaceIN4aidl7android8hardware8security7keymint14IKeyMintDeviceEEE"
    },
    {
     "kind" : "complete_dtor_pointer",
     "mangled_component_name" : "_ZN3ndk12BnCInterfaceIN4aidl7android8hardware8security7keymint14IKeyMintDeviceEED1Ev"
    },
    {
     "kind" : "deleting_dtor_pointer",
     "mangled_component_name" : "_ZN3ndk12BnCInterfaceIN4aidl7android8hardware8security7keymint14IKeyMintDeviceEED0Ev"
    },
    {
     "mangled_component_name" : "_ZN3ndk12BnCInterfaceIN4aidl7android8hardware8security7keymint14IKeyMintDeviceEE8asBinderEv"
    },
    {
     "mangled_component_name" : "_ZN3ndk12BnCInterfaceIN4aidl7android8hardware8security7keymint14IKeyMintDeviceEE8isRemoteEv"
    },
    {
     "mangled_component_name" : "_ZN3ndk11ICInterface4dumpEiPPKcj"
    },
    {
     "mangled_component_name" : "_ZN3ndk11ICInterface18handleShellCommandEiiiPPKcj"
    },
    {
     "is_pure" : true,
     "mangled_component_name" : "_ZN4aidl7android8hardware8security7keymint14IKeyMintDevice15getHardwareInfoEPNS3_19KeyMintHardwareInfoE"
    },
    {
     "is_pure" : true,
     "mangled_component_name" : "_ZN4aidl7android8hardware8security7keymint14IKeyMintDevice13addRngEntropyERKNSt3__16vectorIhNS5_9allocatorIhEEEE"
    },
    {
     "is_pure" : true,
     "mangled_component_name" : "_ZN4aidl7android8hardware8security7keymint14IKeyMintDevice11generateKeyERKNSt3__16vectorINS3_12KeyParameterENS5_9allocatorIS7_EEEERKNS5_8optionalINS3_14AttestationKeyEEEPNS3_17KeyCreationResultE"
    },
    {
     "is_pure" : true,
     "mangled_component_name" : "_ZN4aidl7android8hardware8security7keymint14IKeyMintDevice9importKeyERKNSt3__16vectorINS3_12KeyParameterENS5_9allocatorIS7_EEEENS3_9KeyFormatERKNS6_IhNS8_IhEEEERKNS5_8optionalINS3_14AttestationKeyEEEPNS3_17KeyCreationResultE"
    },
    {
     "is_pure" : true,
     "mangled_component_name" : "_ZN4aidl7android8hardware8security7keymint14IKeyMintDevice16importWrappedKeyERKNSt3__16vectorIhNS5_9allocatorIhEEEESB_SB_RKNS6_INS3_12KeyParameterENS7_ISC_EEEEllPNS3_17KeyCreationResultE"
    },
    {
     "is_pure" : true,
     "mangled_component_name" : "_ZN4aidl7android8hardware8security7keymint14IKeyMintDevice10upgradeKeyERKNSt3__16vectorIhNS5_9allocatorIhEEEERKNS6_INS3_12KeyParameterENS7_ISC_EEEEPS9_"
    },
    {
     "is_pure" : true,
     "mangled_component_name" : "_ZN4aidl7android8hardware8security7keymint14IKeyMintDevice9deleteKeyERKNSt3__16vectorIhNS5_9allocatorIhEEEE"
    },
    {
     "is_pure" : true,
     "mangled_component_name" : "_ZN4aidl7android8hardware8security7keymint14IKeyMintDevice13deleteAllKeysEv"
    },
    {
     "is_pure" : true,
     "mangled_component_name" : "_ZN4aidl7android8hardware8security7keymint14IKeyMintDevice21destroyAttestationIdsEv"
    },
    {
     "is_pure" : true,
     "mangled_component_name" : "_ZN4aidl7android8hardware8security7keymint14IKeyMintDevice5beginENS3_10KeyPurposeERKNSt3__16vectorIhNS6_9allocatorIhEEEERKNS7_INS3_12KeyParameterENS8_ISD_EEEERKNS6_8optionalINS3_17HardwareAuthTokenEEEPNS3_11BeginResultE"
    },
    {
     "is_pure" : true,
     "mangled_component_name" : "_ZN4aidl7android8hardware8security7keymint14IKeyMintDevice12deviceLockedEbRKNSt3__18optionalINS2_11secureclock14TimeStampTokenEEE"
    },
    {
     "is_pure" : true,
     "mangled_component_name" : "_ZN4aidl7android8hardware8security7keymint14IKeyMintDevice14earlyBootEndedEv"
    },
    {
     "is_pure" : true,
     "mangled_component_name" : "_ZN4aidl7android8hardware8security7keymint14IKeyMintDevice28convertStorageKeyToEphemeralERKNSt3__16vectorIhNS5_9allocatorIhEEEEPS9_"
    },
    {
     "is_pure" : true,
     "mangled_component_name" : "_ZN4aidl7android8hardware8security7keymint14IKeyMintDevice21getKeyCharacteristicsERKNSt3__16vectorIhNS5_9allocatorIhEEEESB_SB_PNS6_INS3_18KeyCharacteristicsENS7_ISC_EEEE"
    },
    {
     "is_pure" : true,
     "mangled_component_name" : "_ZN4aidl7android8hardware8security7keymint14IKeyMintDevice19getInterfaceVersionEPi"
    },
    {
     "is_pure" : true,
     "mangled_component_name" : "_ZN4aidl7android8hardware8security7keymint14IKeyMintDevice16getInterfaceHashEPNSt3__112basic_stringIcNS5_11char_traitsIcEENS5_9allocatorIcEEEE"
    },
    {
     "is_pure" : true,
     "mangled_component_name" : "_ZN3ndk12BnCInterfaceIN4aidl7android8hardware8security7keymint14IKeyMintDeviceEE12createBinderEv"
    }
   ]
  },
  {
   "alignment" : 8,
   "base_specifiers" :
   [
    {
     "referenced_type" : "_ZTIN4aidl7android8hardware8security7keymint17IKeyMintOperationE"
    }
   ],
   "fields" :
   [
    {
     "access" : "private",
     "field_name" : "mMutex",
     "field_offset" : 256,
     "referenced_type" : "_ZTINSt3__15mutexE"
    },
    {
     "access" : "private",
     "field_name" : "mWeakBinder",
     "field_offset" : 576,
     "referenced_type" : "_ZTIN3ndk19ScopedAIBinder_WeakE"
    }
   ],
   "linker_set_key" : "_ZTIN3ndk12BnCInterfaceIN4aidl7android8hardware8security7keymint17IKeyMintOperationEEE",
   "name" : "ndk::BnCInterface<aidl::android::hardware::security::keymint::IKeyMintOperation>",
   "record_kind" : "class",
   "referenced_type" : "_ZTIN3ndk12BnCInterfaceIN4aidl7android8hardware8security7keymint17IKeyMintOperationEEE",
   "self_type" : "_ZTIN3ndk12BnCInterfaceIN4aidl7android8hardware8security7keymint17IKeyMintOperationEEE",
   "size" : 80,
   "source_file" : "frameworks/native/libs/binder/ndk/include_cpp/android/binder_interface_utils.h",
   "template_args" : [ "_ZTIN4aidl7android8hardware8security7keymint17IKeyMintOperationE" ],
   "vtable_components" :
   [
    {
     "kind" : "offset_to_top"
    },
    {
     "kind" : "rtti",
     "mangled_component_name" : "_ZTIN3ndk12BnCInterfaceIN4aidl7android8hardware8security7keymint17IKeyMintOperationEEE"
    },
    {
     "kind" : "complete_dtor_pointer",
     "mangled_component_name" : "_ZN3ndk12BnCInterfaceIN4aidl7android8hardware8security7keymint17IKeyMintOperationEED1Ev"
    },
    {
     "kind" : "deleting_dtor_pointer",
     "mangled_component_name" : "_ZN3ndk12BnCInterfaceIN4aidl7android8hardware8security7keymint17IKeyMintOperationEED0Ev"
    },
    {
     "mangled_component_name" : "_ZN3ndk12BnCInterfaceIN4aidl7android8hardware8security7keymint17IKeyMintOperationEE8asBinderEv"
    },
    {
     "mangled_component_name" : "_ZN3ndk12BnCInterfaceIN4aidl7android8hardware8security7keymint17IKeyMintOperationEE8isRemoteEv"
    },
    {
     "mangled_component_name" : "_ZN3ndk11ICInterface4dumpEiPPKcj"
    },
    {
     "mangled_component_name" : "_ZN3ndk11ICInterface18handleShellCommandEiiiPPKcj"
    },
    {
     "is_pure" : true,
     "mangled_component_name" : "_ZN4aidl7android8hardware8security7keymint17IKeyMintOperation9updateAadERKNSt3__16vectorIhNS5_9allocatorIhEEEERKNS5_8optionalINS3_17HardwareAuthTokenEEERKNSC_INS2_11secureclock14TimeStampTokenEEE"
    },
    {
     "is_pure" : true,
     "mangled_component_name" : "_ZN4aidl7android8hardware8security7keymint17IKeyMintOperation6updateERKNSt3__16vectorIhNS5_9allocatorIhEEEERKNS5_8optionalINS3_17HardwareAuthTokenEEERKNSC_INS2_11secureclock14TimeStampTokenEEEPS9_"
    },
    {
     "is_pure" : true,
     "mangled_component_name" : "_ZN4aidl7android8hardware8security7keymint17IKeyMintOperation6finishERKNSt3__18optionalINS5_6vectorIhNS5_9allocatorIhEEEEEESD_RKNS6_INS3_17HardwareAuthTokenEEERKNS6_INS2_11secureclock14TimeStampTokenEEESD_PSA_"
    },
    {
     "is_pure" : true,
     "mangled_component_name" : "_ZN4aidl7android8hardware8security7keymint17IKeyMintOperation5abortEv"
    },
    {
     "is_pure" : true,
     "mangled_component_name" : "_ZN4aidl7android8hardware8security7keymint17IKeyMintOperation19getInterfaceVersionEPi"
    },
    {
     "is_pure" : true,
     "mangled_component_name" : "_ZN4aidl7android8hardware8security7keymint17IKeyMintOperation16getInterfaceHashEPNSt3__112basic_stringIcNS5_11char_traitsIcEENS5_9allocatorIcEEEE"
    },
    {
     "is_pure" : true,
     "mangled_component_name" : "_ZN3ndk12BnCInterfaceIN4aidl7android8hardware8security7keymint17IKeyMintOperationEE12createBinderEv"
    }
   ]
  },
  {
   "alignment" : 8,
   "base_specifiers" :
   [
    {
     "referenced_type" : "_ZTIN4aidl7android8hardware8security7keymint29IRemotelyProvisionedComponentE"
    }
   ],
   "fields" :
   [
    {
     "access" : "private",
     "field_name" : "mMutex",
     "field_offset" : 256,
     "referenced_type" : "_ZTINSt3__15mutexE"
    },
    {
     "access" : "private",
     "field_name" : "mWeakBinder",
     "field_offset" : 576,
     "referenced_type" : "_ZTIN3ndk19ScopedAIBinder_WeakE"
    }
   ],
   "linker_set_key" : "_ZTIN3ndk12BnCInterfaceIN4aidl7android8hardware8security7keymint29IRemotelyProvisionedComponentEEE",
   "name" : "ndk::BnCInterface<aidl::android::hardware::security::keymint::IRemotelyProvisionedComponent>",
   "record_kind" : "class",
   "referenced_type" : "_ZTIN3ndk12BnCInterfaceIN4aidl7android8hardware8security7keymint29IRemotelyProvisionedComponentEEE",
   "self_type" : "_ZTIN3ndk12BnCInterfaceIN4aidl7android8hardware8security7keymint29IRemotelyProvisionedComponentEEE",
   "size" : 80,
   "source_file" : "frameworks/native/libs/binder/ndk/include_cpp/android/binder_interface_utils.h",
   "template_args" :
   [
    "_ZTIN4aidl7android8hardware8security7keymint29IRemotelyProvisionedComponentE"
   ],
   "vtable_components" :
   [
    {
     "kind" : "offset_to_top"
    },
    {
     "kind" : "rtti",
     "mangled_component_name" : "_ZTIN3ndk12BnCInterfaceIN4aidl7android8hardware8security7keymint29IRemotelyProvisionedComponentEEE"
    },
    {
     "kind" : "complete_dtor_pointer",
     "mangled_component_name" : "_ZN3ndk12BnCInterfaceIN4aidl7android8hardware8security7keymint29IRemotelyProvisionedComponentEED1Ev"
    },
    {
     "kind" : "deleting_dtor_pointer",
     "mangled_component_name" : "_ZN3ndk12BnCInterfaceIN4aidl7android8hardware8security7keymint29IRemotelyProvisionedComponentEED0Ev"
    },
    {
     "mangled_component_name" : "_ZN3ndk12BnCInterfaceIN4aidl7android8hardware8security7keymint29IRemotelyProvisionedComponentEE8asBinderEv"
    },
    {
     "mangled_component_name" : "_ZN3ndk12BnCInterfaceIN4aidl7android8hardware8security7keymint29IRemotelyProvisionedComponentEE8isRemoteEv"
    },
    {
     "mangled_component_name" : "_ZN3ndk11ICInterface4dumpEiPPKcj"
    },
    {
     "mangled_component_name" : "_ZN3ndk11ICInterface18handleShellCommandEiiiPPKcj"
    },
    {
     "is_pure" : true,
     "mangled_component_name" : "_ZN4aidl7android8hardware8security7keymint29IRemotelyProvisionedComponent15getHardwareInfoEPNS3_15RpcHardwareInfoE"
    },
    {
     "is_pure" : true,
     "mangled_component_name" : "_ZN4aidl7android8hardware8security7keymint29IRemotelyProvisionedComponent24generateEcdsaP256KeyPairEbPNS3_14MacedPublicKeyEPNSt3__16vectorIhNS7_9allocatorIhEEEE"
    },
    {
     "is_pure" : true,
     "mangled_component_name" : "_ZN4aidl7android8hardware8security7keymint29IRemotelyProvisionedComponent26generateCertificateRequestEbRKNSt3__16vectorINS3_14MacedPublicKeyENS5_9allocatorIS7_EEEERKNS6_IhNS8_IhEEEESG_PNS3_10DeviceInfoEPNS3_13ProtectedDataEPSE_"
    },
    {
     "is_pure" : true,
     "mangled_component_name" : "_ZN4aidl7android8hardware8security7keymint29IRemotelyProvisionedComponent19getInterfaceVersionEPi"
    },
    {
     "is_pure" : true,
     "mangled_component_name" : "_ZN4aidl7android8hardware8security7keymint29IRemotelyProvisionedComponent16getInterfaceHashEPNSt3__112basic_stringIcNS5_11char_traitsIcEENS5_9allocatorIcEEEE"
    },
    {
     "is_pure" : true,
     "mangled_component_name" : "_ZN3ndk12BnCInterfaceIN4aidl7android8hardware8security7keymint29IRemotelyProvisionedComponentEE12createBinderEv"
    }
   ]
  },
  {
   "alignment" : 8,
   "base_specifiers" :
   [
    {
     "referenced_type" : "_ZTIN4aidl7android8hardware8security7keymint14IKeyMintDeviceE"
    }
   ],
   "fields" :
   [
    {
     "access" : "private",
     "field_name" : "mBinder",
     "field_offset" : 256,
     "referenced_type" : "_ZTIN3ndk10SpAIBinderE"
    }
   ],
   "linker_set_key" : "_ZTIN3ndk12BpCInterfaceIN4aidl7android8hardware8security7keymint14IKeyMintDeviceEEE",
   "name" : "ndk::BpCInterface<aidl::android::hardware::security::keymint::IKeyMintDevice>",
   "record_kind" : "class",
   "referenced_type" : "_ZTIN3ndk12BpCInterfaceIN4aidl7android8hardware8security7keymint14IKeyMintDeviceEEE",
   "self_type" : "_ZTIN3ndk12BpCInterfaceIN4aidl7android8hardware8security7keymint14IKeyMintDeviceEEE",
   "size" : 40,
   "source_file" : "frameworks/native/libs/binder/ndk/include_cpp/android/binder_interface_utils.h",
   "template_args" : [ "_ZTIN4aidl7android8hardware8security7keymint14IKeyMintDeviceE" ],
   "vtable_components" :
   [
    {
     "kind" : "offset_to_top"
    },
    {
     "kind" : "rtti",
     "mangled_component_name" : "_ZTIN3ndk12BpCInterfaceIN4aidl7android8hardware8security7keymint14IKeyMintDeviceEEE"
    },
    {
     "kind" : "complete_dtor_pointer",
     "mangled_component_name" : "_ZN3ndk12BpCInterfaceIN4aidl7android8hardware8security7keymint14IKeyMintDeviceEED1Ev"
    },
    {
     "kind" : "deleting_dtor_pointer",
     "mangled_component_name" : "_ZN3ndk12BpCInterfaceIN4aidl7android8hardware8security7keymint14IKeyMintDeviceEED0Ev"
    },
    {
     "mangled_component_name" : "_ZN3ndk12BpCInterfaceIN4aidl7android8hardware8security7keymint14IKeyMintDeviceEE8asBinderEv"
    },
    {
     "mangled_component_name" : "_ZN3ndk12BpCInterfaceIN4aidl7android8hardware8security7keymint14IKeyMintDeviceEE8isRemoteEv"
    },
    {
     "mangled_component_name" : "_ZN3ndk12BpCInterfaceIN4aidl7android8hardware8security7keymint14IKeyMintDeviceEE4dumpEiPPKcj"
    },
    {
     "mangled_component_name" : "_ZN3ndk11ICInterface18handleShellCommandEiiiPPKcj"
    },
    {
     "is_pure" : true,
     "mangled_component_name" : "_ZN4aidl7android8hardware8security7keymint14IKeyMintDevice15getHardwareInfoEPNS3_19KeyMintHardwareInfoE"
    },
    {
     "is_pure" : true,
     "mangled_component_name" : "_ZN4aidl7android8hardware8security7keymint14IKeyMintDevice13addRngEntropyERKNSt3__16vectorIhNS5_9allocatorIhEEEE"
    },
    {
     "is_pure" : true,
     "mangled_component_name" : "_ZN4aidl7android8hardware8security7keymint14IKeyMintDevice11generateKeyERKNSt3__16vectorINS3_12KeyParameterENS5_9allocatorIS7_EEEERKNS5_8optionalINS3_14AttestationKeyEEEPNS3_17KeyCreationResultE"
    },
    {
     "is_pure" : true,
     "mangled_component_name" : "_ZN4aidl7android8hardware8security7keymint14IKeyMintDevice9importKeyERKNSt3__16vectorINS3_12KeyParameterENS5_9allocatorIS7_EEEENS3_9KeyFormatERKNS6_IhNS8_IhEEEERKNS5_8optionalINS3_14AttestationKeyEEEPNS3_17KeyCreationResultE"
    },
    {
     "is_pure" : true,
     "mangled_component_name" : "_ZN4aidl7android8hardware8security7keymint14IKeyMintDevice16importWrappedKeyERKNSt3__16vectorIhNS5_9allocatorIhEEEESB_SB_RKNS6_INS3_12KeyParameterENS7_ISC_EEEEllPNS3_17KeyCreationResultE"
    },
    {
     "is_pure" : true,
     "mangled_component_name" : "_ZN4aidl7android8hardware8security7keymint14IKeyMintDevice10upgradeKeyERKNSt3__16vectorIhNS5_9allocatorIhEEEERKNS6_INS3_12KeyParameterENS7_ISC_EEEEPS9_"
    },
    {
     "is_pure" : true,
     "mangled_component_name" : "_ZN4aidl7android8hardware8security7keymint14IKeyMintDevice9deleteKeyERKNSt3__16vectorIhNS5_9allocatorIhEEEE"
    },
    {
     "is_pure" : true,
     "mangled_component_name" : "_ZN4aidl7android8hardware8security7keymint14IKeyMintDevice13deleteAllKeysEv"
    },
    {
     "is_pure" : true,
     "mangled_component_name" : "_ZN4aidl7android8hardware8security7keymint14IKeyMintDevice21destroyAttestationIdsEv"
    },
    {
     "is_pure" : true,
     "mangled_component_name" : "_ZN4aidl7android8hardware8security7keymint14IKeyMintDevice5beginENS3_10KeyPurposeERKNSt3__16vectorIhNS6_9allocatorIhEEEERKNS7_INS3_12KeyParameterENS8_ISD_EEEERKNS6_8optionalINS3_17HardwareAuthTokenEEEPNS3_11BeginResultE"
    },
    {
     "is_pure" : true,
     "mangled_component_name" : "_ZN4aidl7android8hardware8security7keymint14IKeyMintDevice12deviceLockedEbRKNSt3__18optionalINS2_11secureclock14TimeStampTokenEEE"
    },
    {
     "is_pure" : true,
     "mangled_component_name" : "_ZN4aidl7android8hardware8security7keymint14IKeyMintDevice14earlyBootEndedEv"
    },
    {
     "is_pure" : true,
     "mangled_component_name" : "_ZN4aidl7android8hardware8security7keymint14IKeyMintDevice28convertStorageKeyToEphemeralERKNSt3__16vectorIhNS5_9allocatorIhEEEEPS9_"
    },
    {
     "is_pure" : true,
     "mangled_component_name" : "_ZN4aidl7android8hardware8security7keymint14IKeyMintDevice21getKeyCharacteristicsERKNSt3__16vectorIhNS5_9allocatorIhEEEESB_SB_PNS6_INS3_18KeyCharacteristicsENS7_ISC_EEEE"
    },
    {
     "is_pure" : true,
     "mangled_component_name" : "_ZN4aidl7android8hardware8security7keymint14IKeyMintDevice19getInterfaceVersionEPi"
    },
    {
     "is_pure" : true,
     "mangled_component_name" : "_ZN4aidl7android8hardware8security7keymint14IKeyMintDevice16getInterfaceHashEPNSt3__112basic_stringIcNS5_11char_traitsIcEENS5_9allocatorIcEEEE"
    }
   ]
  },
  {
   "alignment" : 8,
   "base_specifiers" :
   [
    {
     "referenced_type" : "_ZTIN4aidl7android8hardware8security7keymint17IKeyMintOperationE"
    }
   ],
   "fields" :
   [
    {
     "access" : "private",
     "field_name" : "mBinder",
     "field_offset" : 256,
     "referenced_type" : "_ZTIN3ndk10SpAIBinderE"
    }
   ],
   "linker_set_key" : "_ZTIN3ndk12BpCInterfaceIN4aidl7android8hardware8security7keymint17IKeyMintOperationEEE",
   "name" : "ndk::BpCInterface<aidl::android::hardware::security::keymint::IKeyMintOperation>",
   "record_kind" : "class",
   "referenced_type" : "_ZTIN3ndk12BpCInterfaceIN4aidl7android8hardware8security7keymint17IKeyMintOperationEEE",
   "self_type" : "_ZTIN3ndk12BpCInterfaceIN4aidl7android8hardware8security7keymint17IKeyMintOperationEEE",
   "size" : 40,
   "source_file" : "frameworks/native/libs/binder/ndk/include_cpp/android/binder_interface_utils.h",
   "template_args" : [ "_ZTIN4aidl7android8hardware8security7keymint17IKeyMintOperationE" ],
   "vtable_components" :
   [
    {
     "kind" : "offset_to_top"
    },
    {
     "kind" : "rtti",
     "mangled_component_name" : "_ZTIN3ndk12BpCInterfaceIN4aidl7android8hardware8security7keymint17IKeyMintOperationEEE"
    },
    {
     "kind" : "complete_dtor_pointer",
     "mangled_component_name" : "_ZN3ndk12BpCInterfaceIN4aidl7android8hardware8security7keymint17IKeyMintOperationEED1Ev"
    },
    {
     "kind" : "deleting_dtor_pointer",
     "mangled_component_name" : "_ZN3ndk12BpCInterfaceIN4aidl7android8hardware8security7keymint17IKeyMintOperationEED0Ev"
    },
    {
     "mangled_component_name" : "_ZN3ndk12BpCInterfaceIN4aidl7android8hardware8security7keymint17IKeyMintOperationEE8asBinderEv"
    },
    {
     "mangled_component_name" : "_ZN3ndk12BpCInterfaceIN4aidl7android8hardware8security7keymint17IKeyMintOperationEE8isRemoteEv"
    },
    {
     "mangled_component_name" : "_ZN3ndk12BpCInterfaceIN4aidl7android8hardware8security7keymint17IKeyMintOperationEE4dumpEiPPKcj"
    },
    {
     "mangled_component_name" : "_ZN3ndk11ICInterface18handleShellCommandEiiiPPKcj"
    },
    {
     "is_pure" : true,
     "mangled_component_name" : "_ZN4aidl7android8hardware8security7keymint17IKeyMintOperation9updateAadERKNSt3__16vectorIhNS5_9allocatorIhEEEERKNS5_8optionalINS3_17HardwareAuthTokenEEERKNSC_INS2_11secureclock14TimeStampTokenEEE"
    },
    {
     "is_pure" : true,
     "mangled_component_name" : "_ZN4aidl7android8hardware8security7keymint17IKeyMintOperation6updateERKNSt3__16vectorIhNS5_9allocatorIhEEEERKNS5_8optionalINS3_17HardwareAuthTokenEEERKNSC_INS2_11secureclock14TimeStampTokenEEEPS9_"
    },
    {
     "is_pure" : true,
     "mangled_component_name" : "_ZN4aidl7android8hardware8security7keymint17IKeyMintOperation6finishERKNSt3__18optionalINS5_6vectorIhNS5_9allocatorIhEEEEEESD_RKNS6_INS3_17HardwareAuthTokenEEERKNS6_INS2_11secureclock14TimeStampTokenEEESD_PSA_"
    },
    {
     "is_pure" : true,
     "mangled_component_name" : "_ZN4aidl7android8hardware8security7keymint17IKeyMintOperation5abortEv"
    },
    {
     "is_pure" : true,
     "mangled_component_name" : "_ZN4aidl7android8hardware8security7keymint17IKeyMintOperation19getInterfaceVersionEPi"
    },
    {
     "is_pure" : true,
     "mangled_component_name" : "_ZN4aidl7android8hardware8security7keymint17IKeyMintOperation16getInterfaceHashEPNSt3__112basic_stringIcNS5_11char_traitsIcEENS5_9allocatorIcEEEE"
    }
   ]
  },
  {
   "alignment" : 8,
   "base_specifiers" :
   [
    {
     "referenced_type" : "_ZTIN4aidl7android8hardware8security7keymint29IRemotelyProvisionedComponentE"
    }
   ],
   "fields" :
   [
    {
     "access" : "private",
     "field_name" : "mBinder",
     "field_offset" : 256,
     "referenced_type" : "_ZTIN3ndk10SpAIBinderE"
    }
   ],
   "linker_set_key" : "_ZTIN3ndk12BpCInterfaceIN4aidl7android8hardware8security7keymint29IRemotelyProvisionedComponentEEE",
   "name" : "ndk::BpCInterface<aidl::android::hardware::security::keymint::IRemotelyProvisionedComponent>",
   "record_kind" : "class",
   "referenced_type" : "_ZTIN3ndk12BpCInterfaceIN4aidl7android8hardware8security7keymint29IRemotelyProvisionedComponentEEE",
   "self_type" : "_ZTIN3ndk12BpCInterfaceIN4aidl7android8hardware8security7keymint29IRemotelyProvisionedComponentEEE",
   "size" : 40,
   "source_file" : "frameworks/native/libs/binder/ndk/include_cpp/android/binder_interface_utils.h",
   "template_args" :
   [
    "_ZTIN4aidl7android8hardware8security7keymint29IRemotelyProvisionedComponentE"
   ],
   "vtable_components" :
   [
    {
     "kind" : "offset_to_top"
    },
    {
     "kind" : "rtti",
     "mangled_component_name" : "_ZTIN3ndk12BpCInterfaceIN4aidl7android8hardware8security7keymint29IRemotelyProvisionedComponentEEE"
    },
    {
     "kind" : "complete_dtor_pointer",
     "mangled_component_name" : "_ZN3ndk12BpCInterfaceIN4aidl7android8hardware8security7keymint29IRemotelyProvisionedComponentEED1Ev"
    },
    {
     "kind" : "deleting_dtor_pointer",
     "mangled_component_name" : "_ZN3ndk12BpCInterfaceIN4aidl7android8hardware8security7keymint29IRemotelyProvisionedComponentEED0Ev"
    },
    {
     "mangled_component_name" : "_ZN3ndk12BpCInterfaceIN4aidl7android8hardware8security7keymint29IRemotelyProvisionedComponentEE8asBinderEv"
    },
    {
     "mangled_component_name" : "_ZN3ndk12BpCInterfaceIN4aidl7android8hardware8security7keymint29IRemotelyProvisionedComponentEE8isRemoteEv"
    },
    {
     "mangled_component_name" : "_ZN3ndk12BpCInterfaceIN4aidl7android8hardware8security7keymint29IRemotelyProvisionedComponentEE4dumpEiPPKcj"
    },
    {
     "mangled_component_name" : "_ZN3ndk11ICInterface18handleShellCommandEiiiPPKcj"
    },
    {
     "is_pure" : true,
     "mangled_component_name" : "_ZN4aidl7android8hardware8security7keymint29IRemotelyProvisionedComponent15getHardwareInfoEPNS3_15RpcHardwareInfoE"
    },
    {
     "is_pure" : true,
     "mangled_component_name" : "_ZN4aidl7android8hardware8security7keymint29IRemotelyProvisionedComponent24generateEcdsaP256KeyPairEbPNS3_14MacedPublicKeyEPNSt3__16vectorIhNS7_9allocatorIhEEEE"
    },
    {
     "is_pure" : true,
     "mangled_component_name" : "_ZN4aidl7android8hardware8security7keymint29IRemotelyProvisionedComponent26generateCertificateRequestEbRKNSt3__16vectorINS3_14MacedPublicKeyENS5_9allocatorIS7_EEEERKNS6_IhNS8_IhEEEESG_PNS3_10DeviceInfoEPNS3_13ProtectedDataEPSE_"
    },
    {
     "is_pure" : true,
     "mangled_component_name" : "_ZN4aidl7android8hardware8security7keymint29IRemotelyProvisionedComponent19getInterfaceVersionEPi"
    },
    {
     "is_pure" : true,
     "mangled_component_name" : "_ZN4aidl7android8hardware8security7keymint29IRemotelyProvisionedComponent16getInterfaceHashEPNSt3__112basic_stringIcNS5_11char_traitsIcEENS5_9allocatorIcEEEE"
    }
   ]
  },
  {
   "alignment" : 8,
   "base_specifiers" :
   [
    {
     "referenced_type" : "_ZTIN3ndk4impl15ScopedAResourceIP7AParcelXadL_Z14AParcel_deleteEELS3_0EEE"
    }
   ],
   "linker_set_key" : "_ZTIN3ndk13ScopedAParcelE",
   "name" : "ndk::ScopedAParcel",
   "record_kind" : "class",
   "referenced_type" : "_ZTIN3ndk13ScopedAParcelE",
   "self_type" : "_ZTIN3ndk13ScopedAParcelE",
   "size" : 8,
   "source_file" : "frameworks/native/libs/binder/ndk/include_cpp/android/binder_auto_utils.h"
  },
  {
   "alignment" : 8,
   "base_specifiers" :
   [
    {
     "referenced_type" : "_ZTIN3ndk4impl15ScopedAResourceIP7AStatusXadL_Z14AStatus_deleteEELS3_0EEE"
    }
   ],
   "linker_set_key" : "_ZTIN3ndk13ScopedAStatusE",
   "name" : "ndk::ScopedAStatus",
   "record_kind" : "class",
   "referenced_type" : "_ZTIN3ndk13ScopedAStatusE",
   "self_type" : "_ZTIN3ndk13ScopedAStatusE",
   "size" : 8,
   "source_file" : "frameworks/native/libs/binder/ndk/include_cpp/android/binder_auto_utils.h"
  },
  {
   "alignment" : 8,
   "fields" :
   [
    {
     "access" : "private",
     "field_name" : "mFlagThis",
     "field_offset" : 64,
     "referenced_type" : "_ZTINSt3__19once_flagE"
    },
    {
     "access" : "private",
     "field_name" : "mThis",
     "field_offset" : 128,
     "referenced_type" : "_ZTINSt3__18weak_ptrIN3ndk13SharedRefBaseEEE"
    }
   ],
   "linker_set_key" : "_ZTIN3ndk13SharedRefBaseE",
   "name" : "ndk::SharedRefBase",
   "record_kind" : "class",
   "referenced_type" : "_ZTIN3ndk13SharedRefBaseE",
   "self_type" : "_ZTIN3ndk13SharedRefBaseE",
   "size" : 32,
   "source_file" : "frameworks/native/libs/binder/ndk/include_cpp/android/binder_interface_utils.h",
   "vtable_components" :
   [
    {
     "kind" : "offset_to_top"
    },
    {
     "kind" : "rtti",
     "mangled_component_name" : "_ZTIN3ndk13SharedRefBaseE"
    },
    {
     "kind" : "complete_dtor_pointer",
     "mangled_component_name" : "_ZN3ndk13SharedRefBaseD1Ev"
    },
    {
     "kind" : "deleting_dtor_pointer",
     "mangled_component_name" : "_ZN3ndk13SharedRefBaseD0Ev"
    }
   ]
  },
  {
   "alignment" : 8,
   "fields" :
   [
    {
     "access" : "private",
     "field_name" : "mParcel",
     "field_offset" : 64,
     "referenced_type" : "_ZTIN3ndk13ScopedAParcelE"
    },
    {
     "access" : "private",
     "field_name" : "mStability",
     "field_offset" : 128,
     "referenced_type" : "_ZTIi"
    }
   ],
   "linker_set_key" : "_ZTIN3ndk17AParcelableHolderE",
   "name" : "ndk::AParcelableHolder",
   "record_kind" : "class",
   "referenced_type" : "_ZTIN3ndk17AParcelableHolderE",
   "self_type" : "_ZTIN3ndk17AParcelableHolderE",
   "size" : 24,
   "source_file" : "frameworks/native/libs/binder/ndk/include_cpp/android/binder_parcelable_utils.h",
   "vtable_components" :
   [
    {
     "kind" : "offset_to_top"
    },
    {
     "kind" : "rtti",
     "mangled_component_name" : "_ZTIN3ndk17AParcelableHolderE"
    },
    {
     "kind" : "complete_dtor_pointer",
     "mangled_component_name" : "_ZN3ndk17AParcelableHolderD1Ev"
    },
    {
     "kind" : "deleting_dtor_pointer",
     "mangled_component_name" : "_ZN3ndk17AParcelableHolderD0Ev"
    }
   ]
  },
  {
   "alignment" : 8,
   "base_specifiers" :
   [
    {
     "referenced_type" : "_ZTIN3ndk4impl15ScopedAResourceIP13AIBinder_WeakXadL_Z20AIBinder_Weak_deleteEELS3_0EEE"
    }
   ],
   "linker_set_key" : "_ZTIN3ndk19ScopedAIBinder_WeakE",
   "name" : "ndk::ScopedAIBinder_Weak",
   "record_kind" : "class",
   "referenced_type" : "_ZTIN3ndk19ScopedAIBinder_WeakE",
   "self_type" : "_ZTIN3ndk19ScopedAIBinder_WeakE",
   "size" : 8,
   "source_file" : "frameworks/native/libs/binder/ndk/include_cpp/android/binder_auto_utils.h"
  },
  {
   "alignment" : 4,
   "base_specifiers" :
   [
    {
     "referenced_type" : "_ZTIN3ndk4impl15ScopedAResourceIiXadL_ZNS_8internalL14closeWithErrorEiEELin1EEE"
    }
   ],
   "linker_set_key" : "_ZTIN3ndk20ScopedFileDescriptorE",
   "name" : "ndk::ScopedFileDescriptor",
   "record_kind" : "class",
   "referenced_type" : "_ZTIN3ndk20ScopedFileDescriptorE",
   "self_type" : "_ZTIN3ndk20ScopedFileDescriptorE",
   "size" : 4,
   "source_file" : "frameworks/native/libs/binder/ndk/include_cpp/android/binder_auto_utils.h"
  },
  {
   "alignment" : 8,
   "base_specifiers" :
   [
    {
     "referenced_type" : "_ZTIN3ndk4impl15ScopedAResourceIP23AIBinder_DeathRecipientXadL_Z30AIBinder_DeathRecipient_deleteEELS3_0EEE"
    }
   ],
   "linker_set_key" : "_ZTIN3ndk29ScopedAIBinder_DeathRecipientE",
   "name" : "ndk::ScopedAIBinder_DeathRecipient",
   "record_kind" : "class",
   "referenced_type" : "_ZTIN3ndk29ScopedAIBinder_DeathRecipientE",
   "self_type" : "_ZTIN3ndk29ScopedAIBinder_DeathRecipientE",
   "size" : 8,
   "source_file" : "frameworks/native/libs/binder/ndk/include_cpp/android/binder_auto_utils.h"
  },
  {
   "alignment" : 8,
   "fields" :
   [
    {
     "access" : "private",
     "field_name" : "mT",
     "referenced_type" : "_ZTIP13AIBinder_Weak"
    }
   ],
   "linker_set_key" : "_ZTIN3ndk4impl15ScopedAResourceIP13AIBinder_WeakXadL_Z20AIBinder_Weak_deleteEELS3_0EEE",
   "name" : "ndk::impl::ScopedAResource<AIBinder_Weak *, &AIBinder_Weak_delete, nullptr>",
   "record_kind" : "class",
   "referenced_type" : "_ZTIN3ndk4impl15ScopedAResourceIP13AIBinder_WeakXadL_Z20AIBinder_Weak_deleteEELS3_0EEE",
   "self_type" : "_ZTIN3ndk4impl15ScopedAResourceIP13AIBinder_WeakXadL_Z20AIBinder_Weak_deleteEELS3_0EEE",
   "size" : 8,
   "source_file" : "frameworks/native/libs/binder/ndk/include_cpp/android/binder_auto_utils.h",
   "template_args" : [ "_ZTIP13AIBinder_Weak" ]
  },
  {
   "alignment" : 8,
   "fields" :
   [
    {
     "access" : "private",
     "field_name" : "mT",
     "referenced_type" : "_ZTIP23AIBinder_DeathRecipient"
    }
   ],
   "linker_set_key" : "_ZTIN3ndk4impl15ScopedAResourceIP23AIBinder_DeathRecipientXadL_Z30AIBinder_DeathRecipient_deleteEELS3_0EEE",
   "name" : "ndk::impl::ScopedAResource<AIBinder_DeathRecipient *, &AIBinder_DeathRecipient_delete, nullptr>",
   "record_kind" : "class",
   "referenced_type" : "_ZTIN3ndk4impl15ScopedAResourceIP23AIBinder_DeathRecipientXadL_Z30AIBinder_DeathRecipient_deleteEELS3_0EEE",
   "self_type" : "_ZTIN3ndk4impl15ScopedAResourceIP23AIBinder_DeathRecipientXadL_Z30AIBinder_DeathRecipient_deleteEELS3_0EEE",
   "size" : 8,
   "source_file" : "frameworks/native/libs/binder/ndk/include_cpp/android/binder_auto_utils.h",
   "template_args" : [ "_ZTIP23AIBinder_DeathRecipient" ]
  },
  {
   "alignment" : 8,
   "fields" :
   [
    {
     "access" : "private",
     "field_name" : "mT",
     "referenced_type" : "_ZTIP7AParcel"
    }
   ],
   "linker_set_key" : "_ZTIN3ndk4impl15ScopedAResourceIP7AParcelXadL_Z14AParcel_deleteEELS3_0EEE",
   "name" : "ndk::impl::ScopedAResource<AParcel *, &AParcel_delete, nullptr>",
   "record_kind" : "class",
   "referenced_type" : "_ZTIN3ndk4impl15ScopedAResourceIP7AParcelXadL_Z14AParcel_deleteEELS3_0EEE",
   "self_type" : "_ZTIN3ndk4impl15ScopedAResourceIP7AParcelXadL_Z14AParcel_deleteEELS3_0EEE",
   "size" : 8,
   "source_file" : "frameworks/native/libs/binder/ndk/include_cpp/android/binder_auto_utils.h",
   "template_args" : [ "_ZTIP7AParcel" ]
  },
  {
   "alignment" : 8,
   "fields" :
   [
    {
     "access" : "private",
     "field_name" : "mT",
     "referenced_type" : "_ZTIP7AStatus"
    }
   ],
   "linker_set_key" : "_ZTIN3ndk4impl15ScopedAResourceIP7AStatusXadL_Z14AStatus_deleteEELS3_0EEE",
   "name" : "ndk::impl::ScopedAResource<AStatus *, &AStatus_delete, nullptr>",
   "record_kind" : "class",
   "referenced_type" : "_ZTIN3ndk4impl15ScopedAResourceIP7AStatusXadL_Z14AStatus_deleteEELS3_0EEE",
   "self_type" : "_ZTIN3ndk4impl15ScopedAResourceIP7AStatusXadL_Z14AStatus_deleteEELS3_0EEE",
   "size" : 8,
   "source_file" : "frameworks/native/libs/binder/ndk/include_cpp/android/binder_auto_utils.h",
   "template_args" : [ "_ZTIP7AStatus" ]
  },
  {
   "alignment" : 8,
   "fields" :
   [
    {
     "field_name" : "challenge",
     "referenced_type" : "_ZTIl"
    },
    {
     "field_name" : "timestamp",
     "field_offset" : 64,
     "referenced_type" : "_ZTIN4aidl7android8hardware8security11secureclock9TimestampE"
    },
    {
     "field_name" : "mac",
     "field_offset" : 128,
     "referenced_type" : "_ZTINSt3__16vectorIhNS_9allocatorIhEEEE"
    }
   ],
   "linker_set_key" : "_ZTIN4aidl7android8hardware8security11secureclock14TimeStampTokenE",
   "name" : "aidl::android::hardware::security::secureclock::TimeStampToken",
   "record_kind" : "class",
   "referenced_type" : "_ZTIN4aidl7android8hardware8security11secureclock14TimeStampTokenE",
   "self_type" : "_ZTIN4aidl7android8hardware8security11secureclock14TimeStampTokenE",
   "size" : 40,
   "source_file" : "out/soong/.intermediates/hardware/interfaces/security/secureclock/aidl/android.hardware.security.secureclock-V1-ndk_platform-source/gen/include/aidl/android/hardware/security/secureclock/TimeStampToken.h"
  },
  {
   "alignment" : 8,
   "fields" :
   [
    {
     "field_name" : "milliSeconds",
     "referenced_type" : "_ZTIl"
    }
   ],
   "linker_set_key" : "_ZTIN4aidl7android8hardware8security11secureclock9TimestampE",
   "name" : "aidl::android::hardware::security::secureclock::Timestamp",
   "record_kind" : "class",
   "referenced_type" : "_ZTIN4aidl7android8hardware8security11secureclock9TimestampE",
   "self_type" : "_ZTIN4aidl7android8hardware8security11secureclock9TimestampE",
   "size" : 8,
   "source_file" : "out/soong/.intermediates/hardware/interfaces/security/secureclock/aidl/android.hardware.security.secureclock-V1-ndk_platform-source/gen/include/aidl/android/hardware/security/secureclock/Timestamp.h"
  },
  {
   "alignment" : 8,
   "fields" :
   [
    {
     "field_name" : "deviceInfo",
     "referenced_type" : "_ZTINSt3__16vectorIhNS_9allocatorIhEEEE"
    }
   ],
   "linker_set_key" : "_ZTIN4aidl7android8hardware8security7keymint10DeviceInfoE",
   "name" : "aidl::android::hardware::security::keymint::DeviceInfo",
   "record_kind" : "class",
   "referenced_type" : "_ZTIN4aidl7android8hardware8security7keymint10DeviceInfoE",
   "self_type" : "_ZTIN4aidl7android8hardware8security7keymint10DeviceInfoE",
   "size" : 24,
   "source_file" : "out/soong/.intermediates/hardware/interfaces/security/keymint/aidl/android.hardware.security.keymint-V1-ndk_platform-source/gen/include/aidl/android/hardware/security/keymint/DeviceInfo.h"
  },
  {
   "alignment" : 8,
   "fields" :
   [
    {
     "field_name" : "challenge",
     "referenced_type" : "_ZTIl"
    },
    {
     "field_name" : "params",
     "field_offset" : 64,
     "referenced_type" : "_ZTINSt3__16vectorIN4aidl7android8hardware8security7keymint12KeyParameterENS_9allocatorIS6_EEEE"
    },
    {
     "field_name" : "operation",
     "field_offset" : 256,
     "referenced_type" : "_ZTINSt3__110shared_ptrIN4aidl7android8hardware8security7keymint17IKeyMintOperationEEE"
    }
   ],
   "linker_set_key" : "_ZTIN4aidl7android8hardware8security7keymint11BeginResultE",
   "name" : "aidl::android::hardware::security::keymint::BeginResult",
   "record_kind" : "class",
   "referenced_type" : "_ZTIN4aidl7android8hardware8security7keymint11BeginResultE",
   "self_type" : "_ZTIN4aidl7android8hardware8security7keymint11BeginResultE",
   "size" : 48,
   "source_file" : "out/soong/.intermediates/hardware/interfaces/security/keymint/aidl/android.hardware.security.keymint-V1-ndk_platform-source/gen/include/aidl/android/hardware/security/keymint/BeginResult.h"
  },
  {
   "alignment" : 8,
   "fields" :
   [
    {
     "field_name" : "encodedCertificate",
     "referenced_type" : "_ZTINSt3__16vectorIhNS_9allocatorIhEEEE"
    }
   ],
   "linker_set_key" : "_ZTIN4aidl7android8hardware8security7keymint11CertificateE",
   "name" : "aidl::android::hardware::security::keymint::Certificate",
   "record_kind" : "class",
   "referenced_type" : "_ZTIN4aidl7android8hardware8security7keymint11CertificateE",
   "self_type" : "_ZTIN4aidl7android8hardware8security7keymint11CertificateE",
   "size" : 24,
   "source_file" : "out/soong/.intermediates/hardware/interfaces/security/keymint/aidl/android.hardware.security.keymint-V1-ndk_platform-source/gen/include/aidl/android/hardware/security/keymint/Certificate.h"
  },
  {
   "alignment" : 8,
   "fields" :
   [
    {
     "field_name" : "tag",
     "referenced_type" : "_ZTIN4aidl7android8hardware8security7keymint3TagE"
    },
    {
     "field_name" : "value",
     "field_offset" : 64,
     "referenced_type" : "_ZTIN4aidl7android8hardware8security7keymint17KeyParameterValueE"
    }
   ],
   "linker_set_key" : "_ZTIN4aidl7android8hardware8security7keymint12KeyParameterE",
   "name" : "aidl::android::hardware::security::keymint::KeyParameter",
   "record_kind" : "class",
   "referenced_type" : "_ZTIN4aidl7android8hardware8security7keymint12KeyParameterE",
   "self_type" : "_ZTIN4aidl7android8hardware8security7keymint12KeyParameterE",
   "size" : 40,
   "source_file" : "out/soong/.intermediates/hardware/interfaces/security/keymint/aidl/android.hardware.security.keymint-V1-ndk_platform-source/gen/include/aidl/android/hardware/security/keymint/KeyParameter.h"
  },
  {
   "alignment" : 8,
   "fields" :
   [
    {
     "field_name" : "protectedData",
     "referenced_type" : "_ZTINSt3__16vectorIhNS_9allocatorIhEEEE"
    }
   ],
   "linker_set_key" : "_ZTIN4aidl7android8hardware8security7keymint13ProtectedDataE",
   "name" : "aidl::android::hardware::security::keymint::ProtectedData",
   "record_kind" : "class",
   "referenced_type" : "_ZTIN4aidl7android8hardware8security7keymint13ProtectedDataE",
   "self_type" : "_ZTIN4aidl7android8hardware8security7keymint13ProtectedDataE",
   "size" : 24,
   "source_file" : "out/soong/.intermediates/hardware/interfaces/security/keymint/aidl/android.hardware.security.keymint-V1-ndk_platform-source/gen/include/aidl/android/hardware/security/keymint/ProtectedData.h"
  },
  {
   "alignment" : 8,
   "fields" :
   [
    {
     "field_name" : "keyBlob",
     "referenced_type" : "_ZTINSt3__16vectorIhNS_9allocatorIhEEEE"
    },
    {
     "field_name" : "attestKeyParams",
     "field_offset" : 192,
     "referenced_type" : "_ZTINSt3__16vectorIN4aidl7android8hardware8security7keymint12KeyParameterENS_9allocatorIS6_EEEE"
    },
    {
     "field_name" : "issuerSubjectName",
     "field_offset" : 384,
     "referenced_type" : "_ZTINSt3__16vectorIhNS_9allocatorIhEEEE"
    }
   ],
   "linker_set_key" : "_ZTIN4aidl7android8hardware8security7keymint14AttestationKeyE",
   "name" : "aidl::android::hardware::security::keymint::AttestationKey",
   "record_kind" : "class",
   "referenced_type" : "_ZTIN4aidl7android8hardware8security7keymint14AttestationKeyE",
   "self_type" : "_ZTIN4aidl7android8hardware8security7keymint14AttestationKeyE",
   "size" : 72,
   "source_file" : "out/soong/.intermediates/hardware/interfaces/security/keymint/aidl/android.hardware.security.keymint-V1-ndk_platform-source/gen/include/aidl/android/hardware/security/keymint/AttestationKey.h"
  },
  {
   "alignment" : 8,
   "base_specifiers" :
   [
    {
     "referenced_type" : "_ZTIN3ndk11ICInterfaceE"
    }
   ],
   "linker_set_key" : "_ZTIN4aidl7android8hardware8security7keymint14IKeyMintDeviceE",
   "name" : "aidl::android::hardware::security::keymint::IKeyMintDevice",
   "record_kind" : "class",
   "referenced_type" : "_ZTIN4aidl7android8hardware8security7keymint14IKeyMintDeviceE",
   "self_type" : "_ZTIN4aidl7android8hardware8security7keymint14IKeyMintDeviceE",
   "size" : 32,
   "source_file" : "out/soong/.intermediates/hardware/interfaces/security/keymint/aidl/android.hardware.security.keymint-V1-ndk_platform-source/gen/include/aidl/android/hardware/security/keymint/IKeyMintDevice.h",
   "vtable_components" :
   [
    {
     "kind" : "offset_to_top"
    },
    {
     "kind" : "rtti",
     "mangled_component_name" : "_ZTIN4aidl7android8hardware8security7keymint14IKeyMintDeviceE"
    },
    {
     "kind" : "complete_dtor_pointer",
     "mangled_component_name" : "_ZN4aidl7android8hardware8security7keymint14IKeyMintDeviceD1Ev"
    },
    {
     "kind" : "deleting_dtor_pointer",
     "mangled_component_name" : "_ZN4aidl7android8hardware8security7keymint14IKeyMintDeviceD0Ev"
    },
    {
     "is_pure" : true,
     "mangled_component_name" : "_ZN3ndk11ICInterface8asBinderEv"
    },
    {
     "is_pure" : true,
     "mangled_component_name" : "_ZN3ndk11ICInterface8isRemoteEv"
    },
    {
     "mangled_component_name" : "_ZN3ndk11ICInterface4dumpEiPPKcj"
    },
    {
     "mangled_component_name" : "_ZN3ndk11ICInterface18handleShellCommandEiiiPPKcj"
    },
    {
     "is_pure" : true,
     "mangled_component_name" : "_ZN4aidl7android8hardware8security7keymint14IKeyMintDevice15getHardwareInfoEPNS3_19KeyMintHardwareInfoE"
    },
    {
     "is_pure" : true,
     "mangled_component_name" : "_ZN4aidl7android8hardware8security7keymint14IKeyMintDevice13addRngEntropyERKNSt3__16vectorIhNS5_9allocatorIhEEEE"
    },
    {
     "is_pure" : true,
     "mangled_component_name" : "_ZN4aidl7android8hardware8security7keymint14IKeyMintDevice11generateKeyERKNSt3__16vectorINS3_12KeyParameterENS5_9allocatorIS7_EEEERKNS5_8optionalINS3_14AttestationKeyEEEPNS3_17KeyCreationResultE"
    },
    {
     "is_pure" : true,
     "mangled_component_name" : "_ZN4aidl7android8hardware8security7keymint14IKeyMintDevice9importKeyERKNSt3__16vectorINS3_12KeyParameterENS5_9allocatorIS7_EEEENS3_9KeyFormatERKNS6_IhNS8_IhEEEERKNS5_8optionalINS3_14AttestationKeyEEEPNS3_17KeyCreationResultE"
    },
    {
     "is_pure" : true,
     "mangled_component_name" : "_ZN4aidl7android8hardware8security7keymint14IKeyMintDevice16importWrappedKeyERKNSt3__16vectorIhNS5_9allocatorIhEEEESB_SB_RKNS6_INS3_12KeyParameterENS7_ISC_EEEEllPNS3_17KeyCreationResultE"
    },
    {
     "is_pure" : true,
     "mangled_component_name" : "_ZN4aidl7android8hardware8security7keymint14IKeyMintDevice10upgradeKeyERKNSt3__16vectorIhNS5_9allocatorIhEEEERKNS6_INS3_12KeyParameterENS7_ISC_EEEEPS9_"
    },
    {
     "is_pure" : true,
     "mangled_component_name" : "_ZN4aidl7android8hardware8security7keymint14IKeyMintDevice9deleteKeyERKNSt3__16vectorIhNS5_9allocatorIhEEEE"
    },
    {
     "is_pure" : true,
     "mangled_component_name" : "_ZN4aidl7android8hardware8security7keymint14IKeyMintDevice13deleteAllKeysEv"
    },
    {
     "is_pure" : true,
     "mangled_component_name" : "_ZN4aidl7android8hardware8security7keymint14IKeyMintDevice21destroyAttestationIdsEv"
    },
    {
     "is_pure" : true,
     "mangled_component_name" : "_ZN4aidl7android8hardware8security7keymint14IKeyMintDevice5beginENS3_10KeyPurposeERKNSt3__16vectorIhNS6_9allocatorIhEEEERKNS7_INS3_12KeyParameterENS8_ISD_EEEERKNS6_8optionalINS3_17HardwareAuthTokenEEEPNS3_11BeginResultE"
    },
    {
     "is_pure" : true,
     "mangled_component_name" : "_ZN4aidl7android8hardware8security7keymint14IKeyMintDevice12deviceLockedEbRKNSt3__18optionalINS2_11secureclock14TimeStampTokenEEE"
    },
    {
     "is_pure" : true,
     "mangled_component_name" : "_ZN4aidl7android8hardware8security7keymint14IKeyMintDevice14earlyBootEndedEv"
    },
    {
     "is_pure" : true,
     "mangled_component_name" : "_ZN4aidl7android8hardware8security7keymint14IKeyMintDevice28convertStorageKeyToEphemeralERKNSt3__16vectorIhNS5_9allocatorIhEEEEPS9_"
    },
    {
     "is_pure" : true,
     "mangled_component_name" : "_ZN4aidl7android8hardware8security7keymint14IKeyMintDevice21getKeyCharacteristicsERKNSt3__16vectorIhNS5_9allocatorIhEEEESB_SB_PNS6_INS3_18KeyCharacteristicsENS7_ISC_EEEE"
    },
    {
     "is_pure" : true,
     "mangled_component_name" : "_ZN4aidl7android8hardware8security7keymint14IKeyMintDevice19getInterfaceVersionEPi"
    },
    {
     "is_pure" : true,
     "mangled_component_name" : "_ZN4aidl7android8hardware8security7keymint14IKeyMintDevice16getInterfaceHashEPNSt3__112basic_stringIcNS5_11char_traitsIcEENS5_9allocatorIcEEEE"
    }
   ]
  },
  {
   "alignment" : 8,
   "fields" :
   [
    {
     "field_name" : "macedKey",
     "referenced_type" : "_ZTINSt3__16vectorIhNS_9allocatorIhEEEE"
    }
   ],
   "linker_set_key" : "_ZTIN4aidl7android8hardware8security7keymint14MacedPublicKeyE",
   "name" : "aidl::android::hardware::security::keymint::MacedPublicKey",
   "record_kind" : "class",
   "referenced_type" : "_ZTIN4aidl7android8hardware8security7keymint14MacedPublicKeyE",
   "self_type" : "_ZTIN4aidl7android8hardware8security7keymint14MacedPublicKeyE",
   "size" : 24,
   "source_file" : "out/soong/.intermediates/hardware/interfaces/security/keymint/aidl/android.hardware.security.keymint-V1-ndk_platform-source/gen/include/aidl/android/hardware/security/keymint/MacedPublicKey.h"
  },
  {
   "alignment" : 8,
   "base_specifiers" :
   [
    {
     "referenced_type" : "_ZTIN3ndk12BnCInterfaceIN4aidl7android8hardware8security7keymint14IKeyMintDeviceEEE"
    }
   ],
   "linker_set_key" : "_ZTIN4aidl7android8hardware8security7keymint15BnKeyMintDeviceE",
   "name" : "aidl::android::hardware::security::keymint::BnKeyMintDevice",
   "record_kind" : "class",
   "referenced_type" : "_ZTIN4aidl7android8hardware8security7keymint15BnKeyMintDeviceE",
   "self_type" : "_ZTIN4aidl7android8hardware8security7keymint15BnKeyMintDeviceE",
   "size" : 80,
   "source_file" : "out/soong/.intermediates/hardware/interfaces/security/keymint/aidl/android.hardware.security.keymint-V1-ndk_platform-source/gen/include/aidl/android/hardware/security/keymint/BnKeyMintDevice.h",
   "vtable_components" :
   [
    {
     "kind" : "offset_to_top"
    },
    {
     "kind" : "rtti",
     "mangled_component_name" : "_ZTIN4aidl7android8hardware8security7keymint15BnKeyMintDeviceE"
    },
    {
     "kind" : "complete_dtor_pointer",
     "mangled_component_name" : "_ZN4aidl7android8hardware8security7keymint15BnKeyMintDeviceD1Ev"
    },
    {
     "kind" : "deleting_dtor_pointer",
     "mangled_component_name" : "_ZN4aidl7android8hardware8security7keymint15BnKeyMintDeviceD0Ev"
    },
    {
     "mangled_component_name" : "_ZN3ndk12BnCInterfaceIN4aidl7android8hardware8security7keymint14IKeyMintDeviceEE8asBinderEv"
    },
    {
     "mangled_component_name" : "_ZN3ndk12BnCInterfaceIN4aidl7android8hardware8security7keymint14IKeyMintDeviceEE8isRemoteEv"
    },
    {
     "mangled_component_name" : "_ZN3ndk11ICInterface4dumpEiPPKcj"
    },
    {
     "mangled_component_name" : "_ZN3ndk11ICInterface18handleShellCommandEiiiPPKcj"
    },
    {
     "is_pure" : true,
     "mangled_component_name" : "_ZN4aidl7android8hardware8security7keymint14IKeyMintDevice15getHardwareInfoEPNS3_19KeyMintHardwareInfoE"
    },
    {
     "is_pure" : true,
     "mangled_component_name" : "_ZN4aidl7android8hardware8security7keymint14IKeyMintDevice13addRngEntropyERKNSt3__16vectorIhNS5_9allocatorIhEEEE"
    },
    {
     "is_pure" : true,
     "mangled_component_name" : "_ZN4aidl7android8hardware8security7keymint14IKeyMintDevice11generateKeyERKNSt3__16vectorINS3_12KeyParameterENS5_9allocatorIS7_EEEERKNS5_8optionalINS3_14AttestationKeyEEEPNS3_17KeyCreationResultE"
    },
    {
     "is_pure" : true,
     "mangled_component_name" : "_ZN4aidl7android8hardware8security7keymint14IKeyMintDevice9importKeyERKNSt3__16vectorINS3_12KeyParameterENS5_9allocatorIS7_EEEENS3_9KeyFormatERKNS6_IhNS8_IhEEEERKNS5_8optionalINS3_14AttestationKeyEEEPNS3_17KeyCreationResultE"
    },
    {
     "is_pure" : true,
     "mangled_component_name" : "_ZN4aidl7android8hardware8security7keymint14IKeyMintDevice16importWrappedKeyERKNSt3__16vectorIhNS5_9allocatorIhEEEESB_SB_RKNS6_INS3_12KeyParameterENS7_ISC_EEEEllPNS3_17KeyCreationResultE"
    },
    {
     "is_pure" : true,
     "mangled_component_name" : "_ZN4aidl7android8hardware8security7keymint14IKeyMintDevice10upgradeKeyERKNSt3__16vectorIhNS5_9allocatorIhEEEERKNS6_INS3_12KeyParameterENS7_ISC_EEEEPS9_"
    },
    {
     "is_pure" : true,
     "mangled_component_name" : "_ZN4aidl7android8hardware8security7keymint14IKeyMintDevice9deleteKeyERKNSt3__16vectorIhNS5_9allocatorIhEEEE"
    },
    {
     "is_pure" : true,
     "mangled_component_name" : "_ZN4aidl7android8hardware8security7keymint14IKeyMintDevice13deleteAllKeysEv"
    },
    {
     "is_pure" : true,
     "mangled_component_name" : "_ZN4aidl7android8hardware8security7keymint14IKeyMintDevice21destroyAttestationIdsEv"
    },
    {
     "is_pure" : true,
     "mangled_component_name" : "_ZN4aidl7android8hardware8security7keymint14IKeyMintDevice5beginENS3_10KeyPurposeERKNSt3__16vectorIhNS6_9allocatorIhEEEERKNS7_INS3_12KeyParameterENS8_ISD_EEEERKNS6_8optionalINS3_17HardwareAuthTokenEEEPNS3_11BeginResultE"
    },
    {
     "is_pure" : true,
     "mangled_component_name" : "_ZN4aidl7android8hardware8security7keymint14IKeyMintDevice12deviceLockedEbRKNSt3__18optionalINS2_11secureclock14TimeStampTokenEEE"
    },
    {
     "is_pure" : true,
     "mangled_component_name" : "_ZN4aidl7android8hardware8security7keymint14IKeyMintDevice14earlyBootEndedEv"
    },
    {
     "is_pure" : true,
     "mangled_component_name" : "_ZN4aidl7android8hardware8security7keymint14IKeyMintDevice28convertStorageKeyToEphemeralERKNSt3__16vectorIhNS5_9allocatorIhEEEEPS9_"
    },
    {
     "is_pure" : true,
     "mangled_component_name" : "_ZN4aidl7android8hardware8security7keymint14IKeyMintDevice21getKeyCharacteristicsERKNSt3__16vectorIhNS5_9allocatorIhEEEESB_SB_PNS6_INS3_18KeyCharacteristicsENS7_ISC_EEEE"
    },
    {
     "mangled_component_name" : "_ZN4aidl7android8hardware8security7keymint15BnKeyMintDevice19getInterfaceVersionEPi"
    },
    {
     "mangled_component_name" : "_ZN4aidl7android8hardware8security7keymint15BnKeyMintDevice16getInterfaceHashEPNSt3__112basic_stringIcNS5_11char_traitsIcEENS5_9allocatorIcEEEE"
    },
    {
     "mangled_component_name" : "_ZN4aidl7android8hardware8security7keymint15BnKeyMintDevice12createBinderEv"
    }
   ]
  },
  {
   "alignment" : 8,
   "base_specifiers" :
   [
    {
     "referenced_type" : "_ZTIN3ndk12BpCInterfaceIN4aidl7android8hardware8security7keymint14IKeyMintDeviceEEE"
    }
   ],
   "fields" :
   [
    {
     "field_name" : "_aidl_cached_version",
     "field_offset" : 320,
     "referenced_type" : "_ZTIi"
    },
    {
     "field_name" : "_aidl_cached_hash",
     "field_offset" : 384,
     "referenced_type" : "_ZTINSt3__112basic_stringIcNS_11char_traitsIcEENS_9allocatorIcEEEE"
    },
    {
     "field_name" : "_aidl_cached_hash_mutex",
     "field_offset" : 576,
     "referenced_type" : "_ZTINSt3__15mutexE"
    }
   ],
   "linker_set_key" : "_ZTIN4aidl7android8hardware8security7keymint15BpKeyMintDeviceE",
   "name" : "aidl::android::hardware::security::keymint::BpKeyMintDevice",
   "record_kind" : "class",
   "referenced_type" : "_ZTIN4aidl7android8hardware8security7keymint15BpKeyMintDeviceE",
   "self_type" : "_ZTIN4aidl7android8hardware8security7keymint15BpKeyMintDeviceE",
   "size" : 112,
   "source_file" : "out/soong/.intermediates/hardware/interfaces/security/keymint/aidl/android.hardware.security.keymint-V1-ndk_platform-source/gen/include/aidl/android/hardware/security/keymint/BpKeyMintDevice.h",
   "vtable_components" :
   [
    {
     "kind" : "offset_to_top"
    },
    {
     "kind" : "rtti",
     "mangled_component_name" : "_ZTIN4aidl7android8hardware8security7keymint15BpKeyMintDeviceE"
    },
    {
     "kind" : "complete_dtor_pointer",
     "mangled_component_name" : "_ZN4aidl7android8hardware8security7keymint15BpKeyMintDeviceD1Ev"
    },
    {
     "kind" : "deleting_dtor_pointer",
     "mangled_component_name" : "_ZN4aidl7android8hardware8security7keymint15BpKeyMintDeviceD0Ev"
    },
    {
     "mangled_component_name" : "_ZN3ndk12BpCInterfaceIN4aidl7android8hardware8security7keymint14IKeyMintDeviceEE8asBinderEv"
    },
    {
     "mangled_component_name" : "_ZN3ndk12BpCInterfaceIN4aidl7android8hardware8security7keymint14IKeyMintDeviceEE8isRemoteEv"
    },
    {
     "mangled_component_name" : "_ZN3ndk12BpCInterfaceIN4aidl7android8hardware8security7keymint14IKeyMintDeviceEE4dumpEiPPKcj"
    },
    {
     "mangled_component_name" : "_ZN3ndk11ICInterface18handleShellCommandEiiiPPKcj"
    },
    {
     "mangled_component_name" : "_ZN4aidl7android8hardware8security7keymint15BpKeyMintDevice15getHardwareInfoEPNS3_19KeyMintHardwareInfoE"
    },
    {
     "mangled_component_name" : "_ZN4aidl7android8hardware8security7keymint15BpKeyMintDevice13addRngEntropyERKNSt3__16vectorIhNS5_9allocatorIhEEEE"
    },
    {
     "mangled_component_name" : "_ZN4aidl7android8hardware8security7keymint15BpKeyMintDevice11generateKeyERKNSt3__16vectorINS3_12KeyParameterENS5_9allocatorIS7_EEEERKNS5_8optionalINS3_14AttestationKeyEEEPNS3_17KeyCreationResultE"
    },
    {
     "mangled_component_name" : "_ZN4aidl7android8hardware8security7keymint15BpKeyMintDevice9importKeyERKNSt3__16vectorINS3_12KeyParameterENS5_9allocatorIS7_EEEENS3_9KeyFormatERKNS6_IhNS8_IhEEEERKNS5_8optionalINS3_14AttestationKeyEEEPNS3_17KeyCreationResultE"
    },
    {
     "mangled_component_name" : "_ZN4aidl7android8hardware8security7keymint15BpKeyMintDevice16importWrappedKeyERKNSt3__16vectorIhNS5_9allocatorIhEEEESB_SB_RKNS6_INS3_12KeyParameterENS7_ISC_EEEEllPNS3_17KeyCreationResultE"
    },
    {
     "mangled_component_name" : "_ZN4aidl7android8hardware8security7keymint15BpKeyMintDevice10upgradeKeyERKNSt3__16vectorIhNS5_9allocatorIhEEEERKNS6_INS3_12KeyParameterENS7_ISC_EEEEPS9_"
    },
    {
     "mangled_component_name" : "_ZN4aidl7android8hardware8security7keymint15BpKeyMintDevice9deleteKeyERKNSt3__16vectorIhNS5_9allocatorIhEEEE"
    },
    {
     "mangled_component_name" : "_ZN4aidl7android8hardware8security7keymint15BpKeyMintDevice13deleteAllKeysEv"
    },
    {
     "mangled_component_name" : "_ZN4aidl7android8hardware8security7keymint15BpKeyMintDevice21destroyAttestationIdsEv"
    },
    {
     "mangled_component_name" : "_ZN4aidl7android8hardware8security7keymint15BpKeyMintDevice5beginENS3_10KeyPurposeERKNSt3__16vectorIhNS6_9allocatorIhEEEERKNS7_INS3_12KeyParameterENS8_ISD_EEEERKNS6_8optionalINS3_17HardwareAuthTokenEEEPNS3_11BeginResultE"
    },
    {
     "mangled_component_name" : "_ZN4aidl7android8hardware8security7keymint15BpKeyMintDevice12deviceLockedEbRKNSt3__18optionalINS2_11secureclock14TimeStampTokenEEE"
    },
    {
     "mangled_component_name" : "_ZN4aidl7android8hardware8security7keymint15BpKeyMintDevice14earlyBootEndedEv"
    },
    {
     "mangled_component_name" : "_ZN4aidl7android8hardware8security7keymint15BpKeyMintDevice28convertStorageKeyToEphemeralERKNSt3__16vectorIhNS5_9allocatorIhEEEEPS9_"
    },
    {
     "mangled_component_name" : "_ZN4aidl7android8hardware8security7keymint15BpKeyMintDevice21getKeyCharacteristicsERKNSt3__16vectorIhNS5_9allocatorIhEEEESB_SB_PNS6_INS3_18KeyCharacteristicsENS7_ISC_EEEE"
    },
    {
     "mangled_component_name" : "_ZN4aidl7android8hardware8security7keymint15BpKeyMintDevice19getInterfaceVersionEPi"
    },
    {
     "mangled_component_name" : "_ZN4aidl7android8hardware8security7keymint15BpKeyMintDevice16getInterfaceHashEPNSt3__112basic_stringIcNS5_11char_traitsIcEENS5_9allocatorIcEEEE"
    }
   ]
  },
  {
   "alignment" : 8,
   "fields" :
   [
    {
     "field_name" : "versionNumber",
     "referenced_type" : "_ZTIi"
    },
    {
     "field_name" : "rpcAuthorName",
     "field_offset" : 64,
     "referenced_type" : "_ZTINSt3__112basic_stringIcNS_11char_traitsIcEENS_9allocatorIcEEEE"
    },
    {
     "field_name" : "supportedEekCurve",
     "field_offset" : 256,
     "referenced_type" : "_ZTIi"
    }
   ],
   "linker_set_key" : "_ZTIN4aidl7android8hardware8security7keymint15RpcHardwareInfoE",
   "name" : "aidl::android::hardware::security::keymint::RpcHardwareInfo",
   "record_kind" : "class",
   "referenced_type" : "_ZTIN4aidl7android8hardware8security7keymint15RpcHardwareInfoE",
   "self_type" : "_ZTIN4aidl7android8hardware8security7keymint15RpcHardwareInfoE",
   "size" : 40,
   "source_file" : "out/soong/.intermediates/hardware/interfaces/security/keymint/aidl/android.hardware.security.keymint-V1-ndk_platform-source/gen/include/aidl/android/hardware/security/keymint/RpcHardwareInfo.h"
  },
  {
   "alignment" : 8,
   "fields" :
   [
    {
     "field_name" : "challenge",
     "referenced_type" : "_ZTIl"
    },
    {
     "field_name" : "userId",
     "field_offset" : 64,
     "referenced_type" : "_ZTIl"
    },
    {
     "field_name" : "authenticatorId",
     "field_offset" : 128,
     "referenced_type" : "_ZTIl"
    },
    {
     "field_name" : "authenticatorType",
     "field_offset" : 192,
     "referenced_type" : "_ZTIN4aidl7android8hardware8security7keymint25HardwareAuthenticatorTypeE"
    },
    {
     "field_name" : "timestamp",
     "field_offset" : 256,
     "referenced_type" : "_ZTIN4aidl7android8hardware8security11secureclock9TimestampE"
    },
    {
     "field_name" : "mac",
     "field_offset" : 320,
     "referenced_type" : "_ZTINSt3__16vectorIhNS_9allocatorIhEEEE"
    }
   ],
   "linker_set_key" : "_ZTIN4aidl7android8hardware8security7keymint17HardwareAuthTokenE",
   "name" : "aidl::android::hardware::security::keymint::HardwareAuthToken",
   "record_kind" : "class",
   "referenced_type" : "_ZTIN4aidl7android8hardware8security7keymint17HardwareAuthTokenE",
   "self_type" : "_ZTIN4aidl7android8hardware8security7keymint17HardwareAuthTokenE",
   "size" : 64,
   "source_file" : "out/soong/.intermediates/hardware/interfaces/security/keymint/aidl/android.hardware.security.keymint-V1-ndk_platform-source/gen/include/aidl/android/hardware/security/keymint/HardwareAuthToken.h"
  },
  {
   "alignment" : 8,
   "base_specifiers" :
   [
    {
     "referenced_type" : "_ZTIN3ndk11ICInterfaceE"
    }
   ],
   "linker_set_key" : "_ZTIN4aidl7android8hardware8security7keymint17IKeyMintOperationE",
   "name" : "aidl::android::hardware::security::keymint::IKeyMintOperation",
   "record_kind" : "class",
   "referenced_type" : "_ZTIN4aidl7android8hardware8security7keymint17IKeyMintOperationE",
   "self_type" : "_ZTIN4aidl7android8hardware8security7keymint17IKeyMintOperationE",
   "size" : 32,
   "source_file" : "out/soong/.intermediates/hardware/interfaces/security/keymint/aidl/android.hardware.security.keymint-V1-ndk_platform-source/gen/include/aidl/android/hardware/security/keymint/IKeyMintOperation.h",
   "vtable_components" :
   [
    {
     "kind" : "offset_to_top"
    },
    {
     "kind" : "rtti",
     "mangled_component_name" : "_ZTIN4aidl7android8hardware8security7keymint17IKeyMintOperationE"
    },
    {
     "kind" : "complete_dtor_pointer",
     "mangled_component_name" : "_ZN4aidl7android8hardware8security7keymint17IKeyMintOperationD1Ev"
    },
    {
     "kind" : "deleting_dtor_pointer",
     "mangled_component_name" : "_ZN4aidl7android8hardware8security7keymint17IKeyMintOperationD0Ev"
    },
    {
     "is_pure" : true,
     "mangled_component_name" : "_ZN3ndk11ICInterface8asBinderEv"
    },
    {
     "is_pure" : true,
     "mangled_component_name" : "_ZN3ndk11ICInterface8isRemoteEv"
    },
    {
     "mangled_component_name" : "_ZN3ndk11ICInterface4dumpEiPPKcj"
    },
    {
     "mangled_component_name" : "_ZN3ndk11ICInterface18handleShellCommandEiiiPPKcj"
    },
    {
     "is_pure" : true,
     "mangled_component_name" : "_ZN4aidl7android8hardware8security7keymint17IKeyMintOperation9updateAadERKNSt3__16vectorIhNS5_9allocatorIhEEEERKNS5_8optionalINS3_17HardwareAuthTokenEEERKNSC_INS2_11secureclock14TimeStampTokenEEE"
    },
    {
     "is_pure" : true,
     "mangled_component_name" : "_ZN4aidl7android8hardware8security7keymint17IKeyMintOperation6updateERKNSt3__16vectorIhNS5_9allocatorIhEEEERKNS5_8optionalINS3_17HardwareAuthTokenEEERKNSC_INS2_11secureclock14TimeStampTokenEEEPS9_"
    },
    {
     "is_pure" : true,
     "mangled_component_name" : "_ZN4aidl7android8hardware8security7keymint17IKeyMintOperation6finishERKNSt3__18optionalINS5_6vectorIhNS5_9allocatorIhEEEEEESD_RKNS6_INS3_17HardwareAuthTokenEEERKNS6_INS2_11secureclock14TimeStampTokenEEESD_PSA_"
    },
    {
     "is_pure" : true,
     "mangled_component_name" : "_ZN4aidl7android8hardware8security7keymint17IKeyMintOperation5abortEv"
    },
    {
     "is_pure" : true,
     "mangled_component_name" : "_ZN4aidl7android8hardware8security7keymint17IKeyMintOperation19getInterfaceVersionEPi"
    },
    {
     "is_pure" : true,
     "mangled_component_name" : "_ZN4aidl7android8hardware8security7keymint17IKeyMintOperation16getInterfaceHashEPNSt3__112basic_stringIcNS5_11char_traitsIcEENS5_9allocatorIcEEEE"
    }
   ]
  },
  {
   "alignment" : 8,
   "fields" :
   [
    {
     "field_name" : "keyBlob",
     "referenced_type" : "_ZTINSt3__16vectorIhNS_9allocatorIhEEEE"
    },
    {
     "field_name" : "keyCharacteristics",
     "field_offset" : 192,
     "referenced_type" : "_ZTINSt3__16vectorIN4aidl7android8hardware8security7keymint18KeyCharacteristicsENS_9allocatorIS6_EEEE"
    },
    {
     "field_name" : "certificateChain",
     "field_offset" : 384,
     "referenced_type" : "_ZTINSt3__16vectorIN4aidl7android8hardware8security7keymint11CertificateENS_9allocatorIS6_EEEE"
    }
   ],
   "linker_set_key" : "_ZTIN4aidl7android8hardware8security7keymint17KeyCreationResultE",
   "name" : "aidl::android::hardware::security::keymint::KeyCreationResult",
   "record_kind" : "class",
   "referenced_type" : "_ZTIN4aidl7android8hardware8security7keymint17KeyCreationResultE",
   "self_type" : "_ZTIN4aidl7android8hardware8security7keymint17KeyCreationResultE",
   "size" : 72,
   "source_file" : "out/soong/.intermediates/hardware/interfaces/security/keymint/aidl/android.hardware.security.keymint-V1-ndk_platform-source/gen/include/aidl/android/hardware/security/keymint/KeyCreationResult.h"
  },
  {
   "alignment" : 8,
   "fields" :
   [
    {
     "access" : "private",
     "field_name" : "_value",
     "referenced_type" : "_ZTINSt3__17variantIJiN4aidl7android8hardware8security7keymint9AlgorithmENS5_9BlockModeENS5_11PaddingModeENS5_6DigestENS5_7EcCurveENS5_9KeyOriginENS5_10KeyPurposeENS5_25HardwareAuthenticatorTypeENS5_13SecurityLevelEbillNS_6vectorIhNS_9allocatorIhEEEEEEE"
    }
   ],
   "linker_set_key" : "_ZTIN4aidl7android8hardware8security7keymint17KeyParameterValueE",
   "name" : "aidl::android::hardware::security::keymint::KeyParameterValue",
   "record_kind" : "class",
   "referenced_type" : "_ZTIN4aidl7android8hardware8security7keymint17KeyParameterValueE",
   "self_type" : "_ZTIN4aidl7android8hardware8security7keymint17KeyParameterValueE",
   "size" : 32,
   "source_file" : "out/soong/.intermediates/hardware/interfaces/security/keymint/aidl/android.hardware.security.keymint-V1-ndk_platform-source/gen/include/aidl/android/hardware/security/keymint/KeyParameterValue.h"
  },
  {
   "alignment" : 8,
   "base_specifiers" :
   [
    {
     "referenced_type" : "_ZTIN3ndk12BnCInterfaceIN4aidl7android8hardware8security7keymint17IKeyMintOperationEEE"
    }
   ],
   "linker_set_key" : "_ZTIN4aidl7android8hardware8security7keymint18BnKeyMintOperationE",
   "name" : "aidl::android::hardware::security::keymint::BnKeyMintOperation",
   "record_kind" : "class",
   "referenced_type" : "_ZTIN4aidl7android8hardware8security7keymint18BnKeyMintOperationE",
   "self_type" : "_ZTIN4aidl7android8hardware8security7keymint18BnKeyMintOperationE",
   "size" : 80,
   "source_file" : "out/soong/.intermediates/hardware/interfaces/security/keymint/aidl/android.hardware.security.keymint-V1-ndk_platform-source/gen/include/aidl/android/hardware/security/keymint/BnKeyMintOperation.h",
   "vtable_components" :
   [
    {
     "kind" : "offset_to_top"
    },
    {
     "kind" : "rtti",
     "mangled_component_name" : "_ZTIN4aidl7android8hardware8security7keymint18BnKeyMintOperationE"
    },
    {
     "kind" : "complete_dtor_pointer",
     "mangled_component_name" : "_ZN4aidl7android8hardware8security7keymint18BnKeyMintOperationD1Ev"
    },
    {
     "kind" : "deleting_dtor_pointer",
     "mangled_component_name" : "_ZN4aidl7android8hardware8security7keymint18BnKeyMintOperationD0Ev"
    },
    {
     "mangled_component_name" : "_ZN3ndk12BnCInterfaceIN4aidl7android8hardware8security7keymint17IKeyMintOperationEE8asBinderEv"
    },
    {
     "mangled_component_name" : "_ZN3ndk12BnCInterfaceIN4aidl7android8hardware8security7keymint17IKeyMintOperationEE8isRemoteEv"
    },
    {
     "mangled_component_name" : "_ZN3ndk11ICInterface4dumpEiPPKcj"
    },
    {
     "mangled_component_name" : "_ZN3ndk11ICInterface18handleShellCommandEiiiPPKcj"
    },
    {
     "is_pure" : true,
     "mangled_component_name" : "_ZN4aidl7android8hardware8security7keymint17IKeyMintOperation9updateAadERKNSt3__16vectorIhNS5_9allocatorIhEEEERKNS5_8optionalINS3_17HardwareAuthTokenEEERKNSC_INS2_11secureclock14TimeStampTokenEEE"
    },
    {
     "is_pure" : true,
     "mangled_component_name" : "_ZN4aidl7android8hardware8security7keymint17IKeyMintOperation6updateERKNSt3__16vectorIhNS5_9allocatorIhEEEERKNS5_8optionalINS3_17HardwareAuthTokenEEERKNSC_INS2_11secureclock14TimeStampTokenEEEPS9_"
    },
    {
     "is_pure" : true,
     "mangled_component_name" : "_ZN4aidl7android8hardware8security7keymint17IKeyMintOperation6finishERKNSt3__18optionalINS5_6vectorIhNS5_9allocatorIhEEEEEESD_RKNS6_INS3_17HardwareAuthTokenEEERKNS6_INS2_11secureclock14TimeStampTokenEEESD_PSA_"
    },
    {
     "is_pure" : true,
     "mangled_component_name" : "_ZN4aidl7android8hardware8security7keymint17IKeyMintOperation5abortEv"
    },
    {
     "mangled_component_name" : "_ZN4aidl7android8hardware8security7keymint18BnKeyMintOperation19getInterfaceVersionEPi"
    },
    {
     "mangled_component_name" : "_ZN4aidl7android8hardware8security7keymint18BnKeyMintOperation16getInterfaceHashEPNSt3__112basic_stringIcNS5_11char_traitsIcEENS5_9allocatorIcEEEE"
    },
    {
     "mangled_component_name" : "_ZN4aidl7android8hardware8security7keymint18BnKeyMintOperation12createBinderEv"
    }
   ]
  },
  {
   "alignment" : 8,
   "base_specifiers" :
   [
    {
     "referenced_type" : "_ZTIN3ndk12BpCInterfaceIN4aidl7android8hardware8security7keymint17IKeyMintOperationEEE"
    }
   ],
   "fields" :
   [
    {
     "field_name" : "_aidl_cached_version",
     "field_offset" : 320,
     "referenced_type" : "_ZTIi"
    },
    {
     "field_name" : "_aidl_cached_hash",
     "field_offset" : 384,
     "referenced_type" : "_ZTINSt3__112basic_stringIcNS_11char_traitsIcEENS_9allocatorIcEEEE"
    },
    {
     "field_name" : "_aidl_cached_hash_mutex",
     "field_offset" : 576,
     "referenced_type" : "_ZTINSt3__15mutexE"
    }
   ],
   "linker_set_key" : "_ZTIN4aidl7android8hardware8security7keymint18BpKeyMintOperationE",
   "name" : "aidl::android::hardware::security::keymint::BpKeyMintOperation",
   "record_kind" : "class",
   "referenced_type" : "_ZTIN4aidl7android8hardware8security7keymint18BpKeyMintOperationE",
   "self_type" : "_ZTIN4aidl7android8hardware8security7keymint18BpKeyMintOperationE",
   "size" : 112,
   "source_file" : "out/soong/.intermediates/hardware/interfaces/security/keymint/aidl/android.hardware.security.keymint-V1-ndk_platform-source/gen/include/aidl/android/hardware/security/keymint/BpKeyMintOperation.h",
   "vtable_components" :
   [
    {
     "kind" : "offset_to_top"
    },
    {
     "kind" : "rtti",
     "mangled_component_name" : "_ZTIN4aidl7android8hardware8security7keymint18BpKeyMintOperationE"
    },
    {
     "kind" : "complete_dtor_pointer",
     "mangled_component_name" : "_ZN4aidl7android8hardware8security7keymint18BpKeyMintOperationD1Ev"
    },
    {
     "kind" : "deleting_dtor_pointer",
     "mangled_component_name" : "_ZN4aidl7android8hardware8security7keymint18BpKeyMintOperationD0Ev"
    },
    {
     "mangled_component_name" : "_ZN3ndk12BpCInterfaceIN4aidl7android8hardware8security7keymint17IKeyMintOperationEE8asBinderEv"
    },
    {
     "mangled_component_name" : "_ZN3ndk12BpCInterfaceIN4aidl7android8hardware8security7keymint17IKeyMintOperationEE8isRemoteEv"
    },
    {
     "mangled_component_name" : "_ZN3ndk12BpCInterfaceIN4aidl7android8hardware8security7keymint17IKeyMintOperationEE4dumpEiPPKcj"
    },
    {
     "mangled_component_name" : "_ZN3ndk11ICInterface18handleShellCommandEiiiPPKcj"
    },
    {
     "mangled_component_name" : "_ZN4aidl7android8hardware8security7keymint18BpKeyMintOperation9updateAadERKNSt3__16vectorIhNS5_9allocatorIhEEEERKNS5_8optionalINS3_17HardwareAuthTokenEEERKNSC_INS2_11secureclock14TimeStampTokenEEE"
    },
    {
     "mangled_component_name" : "_ZN4aidl7android8hardware8security7keymint18BpKeyMintOperation6updateERKNSt3__16vectorIhNS5_9allocatorIhEEEERKNS5_8optionalINS3_17HardwareAuthTokenEEERKNSC_INS2_11secureclock14TimeStampTokenEEEPS9_"
    },
    {
     "mangled_component_name" : "_ZN4aidl7android8hardware8security7keymint18BpKeyMintOperation6finishERKNSt3__18optionalINS5_6vectorIhNS5_9allocatorIhEEEEEESD_RKNS6_INS3_17HardwareAuthTokenEEERKNS6_INS2_11secureclock14TimeStampTokenEEESD_PSA_"
    },
    {
     "mangled_component_name" : "_ZN4aidl7android8hardware8security7keymint18BpKeyMintOperation5abortEv"
    },
    {
     "mangled_component_name" : "_ZN4aidl7android8hardware8security7keymint18BpKeyMintOperation19getInterfaceVersionEPi"
    },
    {
     "mangled_component_name" : "_ZN4aidl7android8hardware8security7keymint18BpKeyMintOperation16getInterfaceHashEPNSt3__112basic_stringIcNS5_11char_traitsIcEENS5_9allocatorIcEEEE"
    }
   ]
  },
  {
   "alignment" : 8,
   "fields" :
   [
    {
     "field_name" : "securityLevel",
     "referenced_type" : "_ZTIN4aidl7android8hardware8security7keymint13SecurityLevelE"
    },
    {
     "field_name" : "authorizations",
     "field_offset" : 64,
     "referenced_type" : "_ZTINSt3__16vectorIN4aidl7android8hardware8security7keymint12KeyParameterENS_9allocatorIS6_EEEE"
    }
   ],
   "linker_set_key" : "_ZTIN4aidl7android8hardware8security7keymint18KeyCharacteristicsE",
   "name" : "aidl::android::hardware::security::keymint::KeyCharacteristics",
   "record_kind" : "class",
   "referenced_type" : "_ZTIN4aidl7android8hardware8security7keymint18KeyCharacteristicsE",
   "self_type" : "_ZTIN4aidl7android8hardware8security7keymint18KeyCharacteristicsE",
   "size" : 32,
   "source_file" : "out/soong/.intermediates/hardware/interfaces/security/keymint/aidl/android.hardware.security.keymint-V1-ndk_platform-source/gen/include/aidl/android/hardware/security/keymint/KeyCharacteristics.h"
  },
  {
   "alignment" : 8,
   "fields" :
   [
    {
     "field_name" : "versionNumber",
     "referenced_type" : "_ZTIi"
    },
    {
     "field_name" : "securityLevel",
     "field_offset" : 32,
     "referenced_type" : "_ZTIN4aidl7android8hardware8security7keymint13SecurityLevelE"
    },
    {
     "field_name" : "keyMintName",
     "field_offset" : 64,
     "referenced_type" : "_ZTINSt3__112basic_stringIcNS_11char_traitsIcEENS_9allocatorIcEEEE"
    },
    {
     "field_name" : "keyMintAuthorName",
     "field_offset" : 256,
     "referenced_type" : "_ZTINSt3__112basic_stringIcNS_11char_traitsIcEENS_9allocatorIcEEEE"
    },
    {
     "field_name" : "timestampTokenRequired",
     "field_offset" : 448,
     "referenced_type" : "_ZTIb"
    }
   ],
   "linker_set_key" : "_ZTIN4aidl7android8hardware8security7keymint19KeyMintHardwareInfoE",
   "name" : "aidl::android::hardware::security::keymint::KeyMintHardwareInfo",
   "record_kind" : "class",
   "referenced_type" : "_ZTIN4aidl7android8hardware8security7keymint19KeyMintHardwareInfoE",
   "self_type" : "_ZTIN4aidl7android8hardware8security7keymint19KeyMintHardwareInfoE",
   "size" : 64,
   "source_file" : "out/soong/.intermediates/hardware/interfaces/security/keymint/aidl/android.hardware.security.keymint-V1-ndk_platform-source/gen/include/aidl/android/hardware/security/keymint/KeyMintHardwareInfo.h"
  },
  {
   "alignment" : 8,
   "base_specifiers" :
   [
    {
     "referenced_type" : "_ZTIN4aidl7android8hardware8security7keymint14IKeyMintDeviceE"
    }
   ],
   "linker_set_key" : "_ZTIN4aidl7android8hardware8security7keymint21IKeyMintDeviceDefaultE",
   "name" : "aidl::android::hardware::security::keymint::IKeyMintDeviceDefault",
   "record_kind" : "class",
   "referenced_type" : "_ZTIN4aidl7android8hardware8security7keymint21IKeyMintDeviceDefaultE",
   "self_type" : "_ZTIN4aidl7android8hardware8security7keymint21IKeyMintDeviceDefaultE",
   "size" : 32,
   "source_file" : "out/soong/.intermediates/hardware/interfaces/security/keymint/aidl/android.hardware.security.keymint-V1-ndk_platform-source/gen/include/aidl/android/hardware/security/keymint/IKeyMintDevice.h",
   "vtable_components" :
   [
    {
     "kind" : "offset_to_top"
    },
    {
     "kind" : "rtti",
     "mangled_component_name" : "_ZTIN4aidl7android8hardware8security7keymint21IKeyMintDeviceDefaultE"
    },
    {
     "kind" : "complete_dtor_pointer",
     "mangled_component_name" : "_ZN4aidl7android8hardware8security7keymint21IKeyMintDeviceDefaultD1Ev"
    },
    {
     "kind" : "deleting_dtor_pointer",
     "mangled_component_name" : "_ZN4aidl7android8hardware8security7keymint21IKeyMintDeviceDefaultD0Ev"
    },
    {
     "mangled_component_name" : "_ZN4aidl7android8hardware8security7keymint21IKeyMintDeviceDefault8asBinderEv"
    },
    {
     "mangled_component_name" : "_ZN4aidl7android8hardware8security7keymint21IKeyMintDeviceDefault8isRemoteEv"
    },
    {
     "mangled_component_name" : "_ZN3ndk11ICInterface4dumpEiPPKcj"
    },
    {
     "mangled_component_name" : "_ZN3ndk11ICInterface18handleShellCommandEiiiPPKcj"
    },
    {
     "mangled_component_name" : "_ZN4aidl7android8hardware8security7keymint21IKeyMintDeviceDefault15getHardwareInfoEPNS3_19KeyMintHardwareInfoE"
    },
    {
     "mangled_component_name" : "_ZN4aidl7android8hardware8security7keymint21IKeyMintDeviceDefault13addRngEntropyERKNSt3__16vectorIhNS5_9allocatorIhEEEE"
    },
    {
     "mangled_component_name" : "_ZN4aidl7android8hardware8security7keymint21IKeyMintDeviceDefault11generateKeyERKNSt3__16vectorINS3_12KeyParameterENS5_9allocatorIS7_EEEERKNS5_8optionalINS3_14AttestationKeyEEEPNS3_17KeyCreationResultE"
    },
    {
