{
 "array_types" :
 [
  {
   "alignment" : 4,
   "linker_set_key" : "_ZTIA2_j",
   "name" : "unsigned int [2]",
   "referenced_type" : "_ZTIj",
   "self_type" : "_ZTIA2_j",
   "size" : 8,
   "source_file" : "external/boringssl/src/include/openssl/bn.h"
  },
  {
   "alignment" : 1,
   "linker_set_key" : "_ZTIA56_h",
   "name" : "unsigned char [56]",
   "referenced_type" : "_ZTIh",
   "self_type" : "_ZTIA56_h",
   "size" : 56,
   "source_file" : "external/boringssl/src/include/openssl/thread.h"
  }
 ],
 "builtin_types" :
 [
  {
   "alignment" : 1,
   "is_integral" : true,
   "is_unsigned" : true,
   "linker_set_key" : "_ZTIc",
   "name" : "char",
   "referenced_type" : "_ZTIc",
   "self_type" : "_ZTIc",
   "size" : 1
  },
  {
   "alignment" : 8,
   "linker_set_key" : "_ZTId",
   "name" : "double",
   "referenced_type" : "_ZTId",
   "self_type" : "_ZTId",
   "size" : 8
  },
  {
   "alignment" : 1,
   "is_integral" : true,
   "is_unsigned" : true,
   "linker_set_key" : "_ZTIh",
   "name" : "unsigned char",
   "referenced_type" : "_ZTIh",
   "self_type" : "_ZTIh",
   "size" : 1
  },
  {
   "alignment" : 4,
   "is_integral" : true,
   "linker_set_key" : "_ZTIi",
   "name" : "int",
   "referenced_type" : "_ZTIi",
   "self_type" : "_ZTIi",
   "size" : 4
  },
  {
   "alignment" : 4,
   "is_integral" : true,
   "is_unsigned" : true,
   "linker_set_key" : "_ZTIj",
   "name" : "unsigned int",
   "referenced_type" : "_ZTIj",
   "self_type" : "_ZTIj",
   "size" : 4
  },
  {
   "linker_set_key" : "_ZTIv",
   "name" : "void",
   "referenced_type" : "_ZTIv",
   "self_type" : "_ZTIv"
  }
 ],
 "elf_functions" : [],
 "elf_objects" : [],
 "enum_types" :
 [
  {
   "alignment" : 4,
   "enum_fields" :
   [
    {
     "enum_field_value" : 1,
     "name" : "ERR_LIB_NONE"
    },
    {
     "enum_field_value" : 2,
     "name" : "ERR_LIB_SYS"
    },
    {
     "enum_field_value" : 3,
     "name" : "ERR_LIB_BN"
    },
    {
     "enum_field_value" : 4,
     "name" : "ERR_LIB_RSA"
    },
    {
     "enum_field_value" : 5,
     "name" : "ERR_LIB_DH"
    },
    {
     "enum_field_value" : 6,
     "name" : "ERR_LIB_EVP"
    },
    {
     "enum_field_value" : 7,
     "name" : "ERR_LIB_BUF"
    },
    {
     "enum_field_value" : 8,
     "name" : "ERR_LIB_OBJ"
    },
    {
     "enum_field_value" : 9,
     "name" : "ERR_LIB_PEM"
    },
    {
     "enum_field_value" : 10,
     "name" : "ERR_LIB_DSA"
    },
    {
     "enum_field_value" : 11,
     "name" : "ERR_LIB_X509"
    },
    {
     "enum_field_value" : 12,
     "name" : "ERR_LIB_ASN1"
    },
    {
     "enum_field_value" : 13,
     "name" : "ERR_LIB_CONF"
    },
    {
     "enum_field_value" : 14,
     "name" : "ERR_LIB_CRYPTO"
    },
    {
     "enum_field_value" : 15,
     "name" : "ERR_LIB_EC"
    },
    {
     "enum_field_value" : 16,
     "name" : "ERR_LIB_SSL"
    },
    {
     "enum_field_value" : 17,
     "name" : "ERR_LIB_BIO"
    },
    {
     "enum_field_value" : 18,
     "name" : "ERR_LIB_PKCS7"
    },
    {
     "enum_field_value" : 19,
     "name" : "ERR_LIB_PKCS8"
    },
    {
     "enum_field_value" : 20,
     "name" : "ERR_LIB_X509V3"
    },
    {
     "enum_field_value" : 21,
     "name" : "ERR_LIB_RAND"
    },
    {
     "enum_field_value" : 22,
     "name" : "ERR_LIB_ENGINE"
    },
    {
     "enum_field_value" : 23,
     "name" : "ERR_LIB_OCSP"
    },
    {
     "enum_field_value" : 24,
     "name" : "ERR_LIB_UI"
    },
    {
     "enum_field_value" : 25,
     "name" : "ERR_LIB_COMP"
    },
    {
     "enum_field_value" : 26,
     "name" : "ERR_LIB_ECDSA"
    },
    {
     "enum_field_value" : 27,
     "name" : "ERR_LIB_ECDH"
    },
    {
     "enum_field_value" : 28,
     "name" : "ERR_LIB_HMAC"
    },
    {
     "enum_field_value" : 29,
     "name" : "ERR_LIB_DIGEST"
    },
    {
     "enum_field_value" : 30,
     "name" : "ERR_LIB_CIPHER"
    },
    {
     "enum_field_value" : 31,
     "name" : "ERR_LIB_HKDF"
    },
    {
     "enum_field_value" : 32,
     "name" : "ERR_LIB_TRUST_TOKEN"
    },
    {
     "enum_field_value" : 33,
     "name" : "ERR_LIB_USER"
    },
    {
     "enum_field_value" : 34,
     "name" : "ERR_NUM_LIBS"
    }
   ],
   "linker_set_key" : "_ZTI13$ERR_LIB_ASN1",
   "name" : "(anonymous enum at external/boringssl/src/include/openssl/err.h:290:1)",
   "referenced_type" : "_ZTI13$ERR_LIB_ASN1",
   "self_type" : "_ZTI13$ERR_LIB_ASN1",
   "size" : 4,
   "source_file" : "external/boringssl/src/include/openssl/err.h",
   "underlying_type" : "_ZTIj"
  },
  {
   "alignment" : 4,
   "enum_fields" :
   [
    {
     "enum_field_value" : 0,
     "name" : "bn_probably_prime"
    },
    {
     "enum_field_value" : 1,
     "name" : "bn_composite"
    },
    {
     "enum_field_value" : 2,
     "name" : "bn_non_prime_power_composite"
    }
   ],
   "linker_set_key" : "_ZTI21bn_primality_result_t",
   "name" : "bn_primality_result_t",
   "referenced_type" : "_ZTI21bn_primality_result_t",
   "self_type" : "_ZTI21bn_primality_result_t",
   "size" : 4,
   "source_file" : "external/boringssl/src/include/openssl/bn.h",
   "underlying_type" : "_ZTIj"
  }
 ],
 "function_types" :
 [
  {
   "alignment" : 4,
   "linker_set_key" : "_ZTIFiiiP11bn_gencb_stE",
   "name" : "int (int, int, bn_gencb_st *)",
   "parameters" :
   [
    {
     "referenced_type" : "_ZTIi"
    },
    {
     "referenced_type" : "_ZTIi"
    },
    {
     "referenced_type" : "_ZTIP11bn_gencb_st"
    }
   ],
   "referenced_type" : "_ZTIFiiiP11bn_gencb_stE",
   "return_type" : "_ZTIi",
   "self_type" : "_ZTIFiiiP11bn_gencb_stE",
   "source_file" : "external/boringssl/src/include/openssl/bn.h"
  }
 ],
 "functions" :
 [
  {
   "function_name" : "BN_marshal_asn1",
   "linker_set_key" : "BN_marshal_asn1",
   "parameters" :
   [
    {
     "referenced_type" : "_ZTIP6cbb_st"
    },
    {
     "referenced_type" : "_ZTIPK9bignum_st"
    }
   ],
   "return_type" : "_ZTIi",
   "source_file" : "external/boringssl/src/include/openssl/bn.h"
  },
  {
   "function_name" : "BN_parse_asn1_unsigned",
   "linker_set_key" : "BN_parse_asn1_unsigned",
   "parameters" :
   [
    {
     "referenced_type" : "_ZTIP6cbs_st"
    },
    {
     "referenced_type" : "_ZTIP9bignum_st"
    }
   ],
   "return_type" : "_ZTIi",
   "source_file" : "external/boringssl/src/include/openssl/bn.h"
  }
 ],
 "global_vars" : [],
 "lvalue_reference_types" : [],
 "pointer_types" :
 [
  {
   "alignment" : 4,
   "linker_set_key" : "_ZTIP11bn_gencb_st",
   "name" : "bn_gencb_st *",
   "referenced_type" : "_ZTI11bn_gencb_st",
   "self_type" : "_ZTIP11bn_gencb_st",
   "size" : 4,
   "source_file" : "external/boringssl/src/include/openssl/bn.h"
  },
  {
   "alignment" : 4,
   "linker_set_key" : "_ZTIP13cbb_buffer_st",
   "name" : "cbb_buffer_st *",
   "referenced_type" : "_ZTI13cbb_buffer_st",
   "self_type" : "_ZTIP13cbb_buffer_st",
   "size" : 4,
   "source_file" : "external/boringssl/src/include/openssl/bytestring.h"
  },
  {
   "alignment" : 4,
   "linker_set_key" : "_ZTIP20CRYPTO_dynlock_value",
   "name" : "CRYPTO_dynlock_value *",
   "referenced_type" : "_ZTI20CRYPTO_dynlock_value",
   "self_type" : "_ZTIP20CRYPTO_dynlock_value",
   "size" : 4,
   "source_file" : "external/boringssl/src/include/openssl/thread.h"
  },
  {
   "alignment" : 4,
   "linker_set_key" : "_ZTIP6cbb_st",
   "name" : "cbb_st *",
   "referenced_type" : "_ZTI6cbb_st",
   "self_type" : "_ZTIP6cbb_st",
   "size" : 4,
   "source_file" : "external/boringssl/src/include/openssl/bn.h"
  },
  {
   "alignment" : 4,
   "linker_set_key" : "_ZTIP6cbs_st",
   "name" : "cbs_st *",
   "referenced_type" : "_ZTI6cbs_st",
   "self_type" : "_ZTIP6cbs_st",
   "size" : 4,
   "source_file" : "external/boringssl/src/include/openssl/bn.h"
  },
  {
   "alignment" : 4,
   "linker_set_key" : "_ZTIP9bignum_st",
   "name" : "bignum_st *",
   "referenced_type" : "_ZTI9bignum_st",
   "self_type" : "_ZTIP9bignum_st",
   "size" : 4,
   "source_file" : "external/boringssl/src/include/openssl/bn.h"
  },
  {
   "alignment" : 4,
   "linker_set_key" : "_ZTIPFiiiP11bn_gencb_stE",
   "name" : "int (*)(int, int, bn_gencb_st *)",
   "referenced_type" : "_ZTIFiiiP11bn_gencb_stE",
   "self_type" : "_ZTIPFiiiP11bn_gencb_stE",
   "size" : 4,
   "source_file" : "external/boringssl/src/include/openssl/bn.h"
  },
  {
   "alignment" : 4,
   "linker_set_key" : "_ZTIPK9bignum_st",
   "name" : "const bignum_st *",
   "referenced_type" : "_ZTIK9bignum_st",
   "self_type" : "_ZTIPK9bignum_st",
   "size" : 4,
   "source_file" : "external/boringssl/src/include/openssl/bn.h"
  },
  {
   "alignment" : 4,
   "linker_set_key" : "_ZTIPKh",
   "name" : "const unsigned char *",
   "referenced_type" : "_ZTIKh",
   "self_type" : "_ZTIPKh",
   "size" : 4,
   "source_file" : "external/boringssl/src/include/openssl/bytestring.h"
  },
  {
   "alignment" : 4,
   "linker_set_key" : "_ZTIPh",
   "name" : "unsigned char *",
   "referenced_type" : "_ZTIh",
   "self_type" : "_ZTIPh",
   "size" : 4,
   "source_file" : "external/boringssl/src/include/openssl/bytestring.h"
  },
  {
   "alignment" : 4,
   "linker_set_key" : "_ZTIPj",
   "name" : "unsigned int *",
   "referenced_type" : "_ZTIj",
   "self_type" : "_ZTIPj",
   "size" : 4,
   "source_file" : "external/boringssl/src/include/openssl/bn.h"
  },
  {
   "alignment" : 4,
   "linker_set_key" : "_ZTIPv",
   "name" : "void *",
   "referenced_type" : "_ZTIv",
   "self_type" : "_ZTIPv",
   "size" : 4,
   "source_file" : "external/boringssl/src/include/openssl/bn.h"
  }
 ],
 "qualified_types" :
 [
  {
   "alignment" : 4,
   "is_const" : true,
   "linker_set_key" : "_ZTIK9bignum_st",
   "name" : "const bignum_st",
   "referenced_type" : "_ZTI9bignum_st",
   "self_type" : "_ZTIK9bignum_st",
   "size" : 20,
   "source_file" : "external/boringssl/src/include/openssl/bn.h"
  },
  {
   "alignment" : 1,
   "is_const" : true,
   "linker_set_key" : "_ZTIKh",
   "name" : "const unsigned char",
   "referenced_type" : "_ZTIh",
   "self_type" : "_ZTIKh",
   "size" : 1,
   "source_file" : "external/boringssl/src/include/openssl/bytestring.h"
  }
 ],
 "record_types" :
 [
  {
   "alignment" : 4,
   "fields" :
   [
    {
     "field_name" : "arg",
     "referenced_type" : "_ZTIPv"
    },
    {
     "field_name" : "callback",
     "field_offset" : 32,
     "referenced_type" : "_ZTIPFiiiP11bn_gencb_stE"
    }
   ],
   "linker_set_key" : "_ZTI11bn_gencb_st",
   "name" : "bn_gencb_st",
   "referenced_type" : "_ZTI11bn_gencb_st",
   "self_type" : "_ZTI11bn_gencb_st",
   "size" : 8,
   "source_file" : "external/boringssl/src/include/openssl/bn.h"
  },
  {
   "alignment" : 4,
   "fields" :
   [
    {
     "field_name" : "buf",
     "referenced_type" : "_ZTIPh"
    },
    {
     "field_name" : "len",
     "field_offset" : 32,
     "referenced_type" : "_ZTIj"
    },
    {
     "field_name" : "cap",
     "field_offset" : 64,
     "referenced_type" : "_ZTIj"
    },
    {
     "field_name" : "can_resize",
     "field_offset" : 96,
     "referenced_type" : "_ZTIc"
    },
    {
     "field_name" : "error",
     "field_offset" : 104,
     "referenced_type" : "_ZTIc"
    }
   ],
   "linker_set_key" : "_ZTI13cbb_buffer_st",
   "name" : "cbb_buffer_st",
   "referenced_type" : "_ZTI13cbb_buffer_st",
   "self_type" : "_ZTI13cbb_buffer_st",
   "size" : 16,
   "source_file" : "external/boringssl/src/include/openssl/bytestring.h"
  },
  {
   "alignment" : 4,
   "fields" :
   [
    {
     "field_name" : "references",
     "referenced_type" : "_ZTIi"
    },
    {
     "field_name" : "data",
     "field_offset" : 32,
     "referenced_type" : "_ZTIP20CRYPTO_dynlock_value"
    }
   ],
   "linker_set_key" : "_ZTI14CRYPTO_dynlock",
   "name" : "CRYPTO_dynlock",
   "referenced_type" : "_ZTI14CRYPTO_dynlock",
   "self_type" : "_ZTI14CRYPTO_dynlock",
   "size" : 8,
   "source_file" : "external/boringssl/src/include/openssl/thread.h"
  },
  {
   "alignment" : 4,
   "fields" :
   [
    {
     "field_name" : "RR",
     "referenced_type" : "_ZTI9bignum_st"
    },
    {
     "field_name" : "N",
     "field_offset" : 160,
     "referenced_type" : "_ZTI9bignum_st"
    },
    {
     "field_name" : "n0",
     "field_offset" : 320,
     "referenced_type" : "_ZTIA2_j"
    }
   ],
   "linker_set_key" : "_ZTI14bn_mont_ctx_st",
   "name" : "bn_mont_ctx_st",
   "referenced_type" : "_ZTI14bn_mont_ctx_st",
   "self_type" : "_ZTI14bn_mont_ctx_st",
   "size" : 48,
   "source_file" : "external/boringssl/src/include/openssl/bn.h"
  },
  {
   "alignment" : 8,
   "fields" :
   [
    {
     "field_name" : "alignment",
     "referenced_type" : "_ZTId"
    },
    {
     "field_name" : "padding",
     "referenced_type" : "_ZTIA56_h"
    }
   ],
   "linker_set_key" : "_ZTI15crypto_mutex_st",
   "name" : "crypto_mutex_st",
   "record_kind" : "union",
   "referenced_type" : "_ZTI15crypto_mutex_st",
   "self_type" : "_ZTI15crypto_mutex_st",
   "size" : 56,
   "source_file" : "external/boringssl/src/include/openssl/thread.h"
  },
  {
   "alignment" : 4,
   "fields" :
   [
    {
     "field_name" : "base",
     "referenced_type" : "_ZTIP13cbb_buffer_st"
    },
    {
     "field_name" : "child",
     "field_offset" : 32,
     "referenced_type" : "_ZTIP6cbb_st"
    },
    {
     "field_name" : "offset",
     "field_offset" : 64,
     "referenced_type" : "_ZTIj"
    },
    {
     "field_name" : "pending_len_len",
     "field_offset" : 96,
     "referenced_type" : "_ZTIh"
    },
    {
     "field_name" : "pending_is_asn1",
     "field_offset" : 104,
     "referenced_type" : "_ZTIc"
    },
    {
     "field_name" : "is_child",
     "field_offset" : 112,
     "referenced_type" : "_ZTIc"
    }
   ],
   "linker_set_key" : "_ZTI6cbb_st",
   "name" : "cbb_st",
   "referenced_type" : "_ZTI6cbb_st",
   "self_type" : "_ZTI6cbb_st",
   "size" : 16,
   "source_file" : "external/boringssl/src/include/openssl/bytestring.h"
  },
  {
   "alignment" : 4,
   "fields" :
   [
    {
     "field_name" : "data",
     "referenced_type" : "_ZTIPKh"
    },
    {
     "field_name" : "len",
     "field_offset" : 32,
     "referenced_type" : "_ZTIj"
    }
   ],
   "linker_set_key" : "_ZTI6cbs_st",
   "name" : "cbs_st",
   "referenced_type" : "_ZTI6cbs_st",
   "self_type" : "_ZTI6cbs_st",
   "size" : 8,
   "source_file" : "external/boringssl/src/include/openssl/bytestring.h"
  },
  {
   "alignment" : 4,
   "fields" :
   [
    {
     "field_name" : "d",
     "referenced_type" : "_ZTIPj"
    },
    {
     "field_name" : "width",
     "field_offset" : 32,
     "referenced_type" : "_ZTIi"
    },
    {
     "field_name" : "dmax",
     "field_offset" : 64,
     "referenced_type" : "_ZTIi"
    },
    {
     "field_name" : "neg",
     "field_offset" : 96,
     "referenced_type" : "_ZTIi"
    },
    {
     "field_name" : "flags",
     "field_offset" : 128,
     "referenced_type" : "_ZTIi"
    }
   ],
   "linker_set_key" : "_ZTI9bignum_st",
   "name" : "bignum_st",
   "referenced_type" : "_ZTI9bignum_st",
   "self_type" : "_ZTI9bignum_st",
   "size" : 20,
   "source_file" : "external/boringssl/src/include/openssl/bn.h"
  }
 ],
 "rvalue_reference_types" : []
}
