{
 "array_types" :
 [
  {
   "alignment" : 1,
   "linker_set_key" : "_ZTIA1_c",
   "name" : "char [1]",
   "referenced_type" : "_ZTIc",
   "self_type" : "_ZTIA1_c",
   "size" : 1,
   "source_file" : "external/libevent/include/event2/dns_struct.h"
  }
 ],
 "builtin_types" :
 [
  {
   "alignment" : 1,
   "is_integral" : true,
   "is_unsigned" : true,
   "linker_set_key" : "_ZTIc",
   "name" : "char",
   "referenced_type" : "_ZTIc",
   "self_type" : "_ZTIc",
   "size" : 1
  },
  {
   "alignment" : 1,
   "is_integral" : true,
   "is_unsigned" : true,
   "linker_set_key" : "_ZTIh",
   "name" : "unsigned char",
   "referenced_type" : "_ZTIh",
   "self_type" : "_ZTIh",
   "size" : 1
  },
  {
   "alignment" : 4,
   "is_integral" : true,
   "linker_set_key" : "_ZTIi",
   "name" : "int",
   "referenced_type" : "_ZTIi",
   "self_type" : "_ZTIi",
   "size" : 4
  },
  {
   "alignment" : 4,
   "is_integral" : true,
   "is_unsigned" : true,
   "linker_set_key" : "_ZTIj",
   "name" : "unsigned int",
   "referenced_type" : "_ZTIj",
   "self_type" : "_ZTIj",
   "size" : 4
  },
  {
   "alignment" : 8,
   "is_integral" : true,
   "is_unsigned" : true,
   "linker_set_key" : "_ZTIm",
   "name" : "unsigned long",
   "referenced_type" : "_ZTIm",
   "self_type" : "_ZTIm",
   "size" : 8
  },
  {
   "alignment" : 2,
   "is_integral" : true,
   "linker_set_key" : "_ZTIs",
   "name" : "short",
   "referenced_type" : "_ZTIs",
   "self_type" : "_ZTIs",
   "size" : 2
  },
  {
   "linker_set_key" : "_ZTIv",
   "name" : "void",
   "referenced_type" : "_ZTIv",
   "self_type" : "_ZTIv"
  }
 ],
 "elf_functions" : [],
 "elf_objects" : [],
 "enum_types" :
 [
  {
   "alignment" : 4,
   "enum_fields" :
   [
    {
     "enum_field_value" : 1,
     "name" : "EV_FEATURE_ET"
    },
    {
     "enum_field_value" : 2,
     "name" : "EV_FEATURE_O1"
    },
    {
     "enum_field_value" : 4,
     "name" : "EV_FEATURE_FDS"
    },
    {
     "enum_field_value" : 8,
     "name" : "EV_FEATURE_EARLY_CLOSE"
    }
   ],
   "linker_set_key" : "_ZTI20event_method_feature",
   "name" : "event_method_feature",
   "referenced_type" : "_ZTI20event_method_feature",
   "self_type" : "_ZTI20event_method_feature",
   "size" : 4,
   "source_file" : "external/libevent/include/event2/event.h",
   "underlying_type" : "_ZTIj"
  },
  {
   "alignment" : 4,
   "enum_fields" :
   [
    {
     "enum_field_value" : 1,
     "name" : "EVENT_BASE_FLAG_NOLOCK"
    },
    {
     "enum_field_value" : 2,
     "name" : "EVENT_BASE_FLAG_IGNORE_ENV"
    },
    {
     "enum_field_value" : 4,
     "name" : "EVENT_BASE_FLAG_STARTUP_IOCP"
    },
    {
     "enum_field_value" : 8,
     "name" : "EVENT_BASE_FLAG_NO_CACHE_TIME"
    },
    {
     "enum_field_value" : 16,
     "name" : "EVENT_BASE_FLAG_EPOLL_USE_CHANGELIST"
    },
    {
     "enum_field_value" : 32,
     "name" : "EVENT_BASE_FLAG_PRECISE_TIMER"
    }
   ],
   "linker_set_key" : "_ZTI22event_base_config_flag",
   "name" : "event_base_config_flag",
   "referenced_type" : "_ZTI22event_base_config_flag",
   "self_type" : "_ZTI22event_base_config_flag",
   "size" : 4,
   "source_file" : "external/libevent/include/event2/event.h",
   "underlying_type" : "_ZTIj"
  }
 ],
 "function_types" :
 [
  {
   "alignment" : 4,
   "linker_set_key" : "_ZTIFPvjE",
   "name" : "void *(unsigned int)",
   "parameters" :
   [
    {
     "referenced_type" : "_ZTIj"
    }
   ],
   "referenced_type" : "_ZTIFPvjE",
   "return_type" : "_ZTIPv",
   "self_type" : "_ZTIFPvjE",
   "source_file" : "external/libevent/include/event2/thread.h"
  },
  {
   "alignment" : 4,
   "linker_set_key" : "_ZTIFiPvS_PK7timevalE",
   "name" : "int (void *, void *, const timeval *)",
   "parameters" :
   [
    {
     "referenced_type" : "_ZTIPv"
    },
    {
     "referenced_type" : "_ZTIPv"
    },
    {
     "referenced_type" : "_ZTIPK7timeval"
    }
   ],
   "referenced_type" : "_ZTIFiPvS_PK7timevalE",
   "return_type" : "_ZTIi",
   "self_type" : "_ZTIFiPvS_PK7timevalE",
   "source_file" : "external/libevent/include/event2/thread.h"
  },
  {
   "alignment" : 4,
   "linker_set_key" : "_ZTIFiPviE",
   "name" : "int (void *, int)",
   "parameters" :
   [
    {
     "referenced_type" : "_ZTIPv"
    },
    {
     "referenced_type" : "_ZTIi"
    }
   ],
   "referenced_type" : "_ZTIFiPviE",
   "return_type" : "_ZTIi",
   "self_type" : "_ZTIFiPviE",
   "source_file" : "external/libevent/include/event2/thread.h"
  },
  {
   "alignment" : 4,
   "linker_set_key" : "_ZTIFijPvE",
   "name" : "int (unsigned int, void *)",
   "parameters" :
   [
    {
     "referenced_type" : "_ZTIj"
    },
    {
     "referenced_type" : "_ZTIPv"
    }
   ],
   "referenced_type" : "_ZTIFijPvE",
   "return_type" : "_ZTIi",
   "self_type" : "_ZTIFijPvE",
   "source_file" : "external/libevent/include/event2/thread.h"
  },
  {
   "alignment" : 4,
   "linker_set_key" : "_ZTIFtvE",
   "name" : "unsigned short (void)",
   "referenced_type" : "_ZTIFtvE",
   "return_type" : "_ZTIt",
   "self_type" : "_ZTIFtvE",
   "source_file" : "external/libevent/include/event2/dns.h"
  },
  {
   "alignment" : 4,
   "linker_set_key" : "_ZTIFvP14event_callbackPvE",
   "name" : "void (event_callback *, void *)",
   "parameters" :
   [
    {
     "referenced_type" : "_ZTIP14event_callback"
    },
    {
     "referenced_type" : "_ZTIPv"
    }
   ],
   "referenced_type" : "_ZTIFvP14event_callbackPvE",
   "return_type" : "_ZTIv",
   "self_type" : "_ZTIFvP14event_callbackPvE",
   "source_file" : "external/libevent/include/event2/event_struct.h"
  },
  {
   "alignment" : 4,
   "linker_set_key" : "_ZTIFvP20evdns_server_requestPvE",
   "name" : "void (evdns_server_request *, void *)",
   "parameters" :
   [
    {
     "referenced_type" : "_ZTIP20evdns_server_request"
    },
    {
     "referenced_type" : "_ZTIPv"
    }
   ],
   "referenced_type" : "_ZTIFvP20evdns_server_requestPvE",
   "return_type" : "_ZTIv",
   "self_type" : "_ZTIFvP20evdns_server_requestPvE",
   "source_file" : "external/libevent/include/event2/dns.h"
  },
  {
   "alignment" : 4,
   "linker_set_key" : "_ZTIFvP5eventPvE",
   "name" : "void (event *, void *)",
   "parameters" :
   [
    {
     "referenced_type" : "_ZTIP5event"
    },
    {
     "referenced_type" : "_ZTIPv"
    }
   ],
   "referenced_type" : "_ZTIFvP5eventPvE",
   "return_type" : "_ZTIv",
   "self_type" : "_ZTIFvP5eventPvE",
   "source_file" : "external/libevent/include/event2/event_struct.h"
  },
  {
   "alignment" : 4,
   "linker_set_key" : "_ZTIFvPcmE",
   "name" : "void (char *, unsigned long)",
   "parameters" :
   [
    {
     "referenced_type" : "_ZTIPc"
    },
    {
     "referenced_type" : "_ZTIm"
    }
   ],
   "referenced_type" : "_ZTIFvPcmE",
   "return_type" : "_ZTIv",
   "self_type" : "_ZTIFvPcmE",
   "source_file" : "external/libevent/include/event2/dns.h"
  },
  {
   "alignment" : 4,
   "linker_set_key" : "_ZTIFvPvE",
   "name" : "void (void *)",
   "parameters" :
   [
    {
     "referenced_type" : "_ZTIPv"
    }
   ],
   "referenced_type" : "_ZTIFvPvE",
   "return_type" : "_ZTIv",
   "self_type" : "_ZTIFvPvE",
   "source_file" : "external/libevent/include/event2/thread.h"
  },
  {
   "alignment" : 4,
   "linker_set_key" : "_ZTIFvPvjE",
   "name" : "void (void *, unsigned int)",
   "parameters" :
   [
    {
     "referenced_type" : "_ZTIPv"
    },
    {
     "referenced_type" : "_ZTIj"
    }
   ],
   "referenced_type" : "_ZTIFvPvjE",
   "return_type" : "_ZTIv",
   "self_type" : "_ZTIFvPvjE",
   "source_file" : "external/libevent/include/event2/thread.h"
  },
  {
   "alignment" : 4,
   "linker_set_key" : "_ZTIFviP8addrinfoPvE",
   "name" : "void (int, addrinfo *, void *)",
   "parameters" :
   [
    {
     "referenced_type" : "_ZTIi"
    },
    {
     "referenced_type" : "_ZTIP8addrinfo"
    },
    {
     "referenced_type" : "_ZTIPv"
    }
   ],
   "referenced_type" : "_ZTIFviP8addrinfoPvE",
   "return_type" : "_ZTIv",
   "self_type" : "_ZTIFviP8addrinfoPvE",
   "source_file" : "external/libevent/include/event2/dns.h"
  },
  {
   "alignment" : 4,
   "linker_set_key" : "_ZTIFviPKcE",
   "name" : "void (int, const char *)",
   "parameters" :
   [
    {
     "referenced_type" : "_ZTIi"
    },
    {
     "referenced_type" : "_ZTIPKc"
    }
   ],
   "referenced_type" : "_ZTIFviPKcE",
   "return_type" : "_ZTIv",
   "self_type" : "_ZTIFviPKcE",
   "source_file" : "external/libevent/include/event2/dns.h"
  },
  {
   "alignment" : 4,
   "linker_set_key" : "_ZTIFviciiPvS_E",
   "name" : "void (int, char, int, int, void *, void *)",
   "parameters" :
   [
    {
     "referenced_type" : "_ZTIi"
    },
    {
     "referenced_type" : "_ZTIc"
    },
    {
     "referenced_type" : "_ZTIi"
    },
    {
     "referenced_type" : "_ZTIi"
    },
    {
     "referenced_type" : "_ZTIPv"
    },
    {
     "referenced_type" : "_ZTIPv"
    }
   ],
   "referenced_type" : "_ZTIFviciiPvS_E",
   "return_type" : "_ZTIv",
   "self_type" : "_ZTIFviciiPvS_E",
   "source_file" : "external/libevent/include/event2/dns.h"
  },
  {
   "alignment" : 4,
   "linker_set_key" : "_ZTIFvisPvE",
   "name" : "void (int, short, void *)",
   "parameters" :
   [
    {
     "referenced_type" : "_ZTIi"
    },
    {
     "referenced_type" : "_ZTIs"
    },
    {
     "referenced_type" : "_ZTIPv"
    }
   ],
   "referenced_type" : "_ZTIFvisPvE",
   "return_type" : "_ZTIv",
   "self_type" : "_ZTIFvisPvE",
   "source_file" : "external/libevent/include/event2/event_struct.h"
  }
 ],
 "functions" :
 [
  {
   "function_name" : "evdns_add_server_port",
   "linker_set_key" : "evdns_add_server_port",
   "parameters" :
   [
    {
     "referenced_type" : "_ZTIi"
    },
    {
     "referenced_type" : "_ZTIi"
    },
    {
     "referenced_type" : "_ZTIPFvP20evdns_server_requestPvE"
    },
    {
     "referenced_type" : "_ZTIPv"
    }
   ],
   "return_type" : "_ZTIP17evdns_server_port",
   "source_file" : "external/libevent/include/event2/dns_compat.h"
  },
  {
   "function_name" : "evdns_add_server_port_with_base",
   "linker_set_key" : "evdns_add_server_port_with_base",
   "parameters" :
   [
    {
     "referenced_type" : "_ZTIP10event_base"
    },
    {
     "referenced_type" : "_ZTIi"
    },
    {
     "referenced_type" : "_ZTIi"
    },
    {
     "referenced_type" : "_ZTIPFvP20evdns_server_requestPvE"
    },
    {
     "referenced_type" : "_ZTIPv"
    }
   ],
   "return_type" : "_ZTIP17evdns_server_port",
   "source_file" : "external/libevent/include/event2/dns.h"
  },
  {
   "function_name" : "evdns_base_clear_host_addresses",
   "linker_set_key" : "evdns_base_clear_host_addresses",
   "parameters" :
   [
    {
     "referenced_type" : "_ZTIP10evdns_base"
    }
   ],
   "return_type" : "_ZTIv",
   "source_file" : "external/libevent/include/event2/dns.h"
  },
  {
   "function_name" : "evdns_base_clear_nameservers_and_suspend",
   "linker_set_key" : "evdns_base_clear_nameservers_and_suspend",
   "parameters" :
   [
    {
     "referenced_type" : "_ZTIP10evdns_base"
    }
   ],
   "return_type" : "_ZTIi",
   "source_file" : "external/libevent/include/event2/dns.h"
  },
  {
   "function_name" : "evdns_base_count_nameservers",
   "linker_set_key" : "evdns_base_count_nameservers",
   "parameters" :
   [
    {
     "referenced_type" : "_ZTIP10evdns_base"
    }
   ],
   "return_type" : "_ZTIi",
   "source_file" : "external/libevent/include/event2/dns.h"
  },
  {
   "function_name" : "evdns_base_free",
   "linker_set_key" : "evdns_base_free",
   "parameters" :
   [
    {
     "referenced_type" : "_ZTIP10evdns_base"
    },
    {
     "referenced_type" : "_ZTIi"
    }
   ],
   "return_type" : "_ZTIv",
   "source_file" : "external/libevent/include/event2/dns.h"
  },
  {
   "function_name" : "evdns_base_get_nameserver_addr",
   "linker_set_key" : "evdns_base_get_nameserver_addr",
   "parameters" :
   [
    {
     "referenced_type" : "_ZTIP10evdns_base"
    },
    {
     "referenced_type" : "_ZTIi"
    },
    {
     "referenced_type" : "_ZTIP8sockaddr"
    },
    {
     "referenced_type" : "_ZTIj"
    }
   ],
   "return_type" : "_ZTIi",
   "source_file" : "external/libevent/include/event2/dns.h"
  },
  {
   "function_name" : "evdns_base_load_hosts",
   "linker_set_key" : "evdns_base_load_hosts",
   "parameters" :
   [
    {
     "referenced_type" : "_ZTIP10evdns_base"
    },
    {
     "referenced_type" : "_ZTIPKc"
    }
   ],
   "return_type" : "_ZTIi",
   "source_file" : "external/libevent/include/event2/dns.h"
  },
  {
   "function_name" : "evdns_base_nameserver_add",
   "linker_set_key" : "evdns_base_nameserver_add",
   "parameters" :
   [
    {
     "referenced_type" : "_ZTIP10evdns_base"
    },
    {
     "referenced_type" : "_ZTIm"
    }
   ],
   "return_type" : "_ZTIi",
   "source_file" : "external/libevent/include/event2/dns.h"
  },
  {
   "function_name" : "evdns_base_nameserver_ip_add",
   "linker_set_key" : "evdns_base_nameserver_ip_add",
   "parameters" :
   [
    {
     "referenced_type" : "_ZTIP10evdns_base"
    },
    {
     "referenced_type" : "_ZTIPKc"
    }
   ],
   "return_type" : "_ZTIi",
   "source_file" : "external/libevent/include/event2/dns.h"
  },
  {
   "function_name" : "evdns_base_nameserver_sockaddr_add",
   "linker_set_key" : "evdns_base_nameserver_sockaddr_add",
   "parameters" :
   [
    {
     "referenced_type" : "_ZTIP10evdns_base"
    },
    {
     "referenced_type" : "_ZTIPK8sockaddr"
    },
    {
     "referenced_type" : "_ZTIj"
    },
    {
     "referenced_type" : "_ZTIj"
    }
   ],
   "return_type" : "_ZTIi",
   "source_file" : "external/libevent/include/event2/dns.h"
  },
  {
   "function_name" : "evdns_base_new",
   "linker_set_key" : "evdns_base_new",
   "parameters" :
   [
    {
     "referenced_type" : "_ZTIP10event_base"
    },
    {
     "referenced_type" : "_ZTIi"
    }
   ],
   "return_type" : "_ZTIP10evdns_base",
   "source_file" : "external/libevent/include/event2/dns.h"
  },
  {
   "function_name" : "evdns_base_resolv_conf_parse",
   "linker_set_key" : "evdns_base_resolv_conf_parse",
   "parameters" :
   [
    {
     "referenced_type" : "_ZTIP10evdns_base"
    },
    {
     "referenced_type" : "_ZTIi"
    },
    {
     "referenced_type" : "_ZTIKPKc"
    }
   ],
   "return_type" : "_ZTIi",
   "source_file" : "external/libevent/include/event2/dns.h"
  },
  {
   "function_name" : "evdns_base_resolve_ipv4",
   "linker_set_key" : "evdns_base_resolve_ipv4",
   "parameters" :
   [
    {
     "referenced_type" : "_ZTIP10evdns_base"
    },
    {
     "referenced_type" : "_ZTIPKc"
    },
    {
     "referenced_type" : "_ZTIi"
    },
    {
     "referenced_type" : "_ZTIPFviciiPvS_E"
    },
    {
     "referenced_type" : "_ZTIPv"
    }
   ],
   "return_type" : "_ZTIP13evdns_request",
   "source_file" : "external/libevent/include/event2/dns.h"
  },
  {
   "function_name" : "evdns_base_resolve_ipv6",
   "linker_set_key" : "evdns_base_resolve_ipv6",
   "parameters" :
   [
    {
     "referenced_type" : "_ZTIP10evdns_base"
    },
    {
     "referenced_type" : "_ZTIPKc"
    },
    {
     "referenced_type" : "_ZTIi"
    },
    {
     "referenced_type" : "_ZTIPFviciiPvS_E"
    },
    {
     "referenced_type" : "_ZTIPv"
    }
   ],
   "return_type" : "_ZTIP13evdns_request",
   "source_file" : "external/libevent/include/event2/dns.h"
  },
  {
   "function_name" : "evdns_base_resolve_reverse",
   "linker_set_key" : "evdns_base_resolve_reverse",
   "parameters" :
   [
    {
     "referenced_type" : "_ZTIP10evdns_base"
    },
    {
     "referenced_type" : "_ZTIPK7in_addr"
    },
    {
     "referenced_type" : "_ZTIi"
    },
    {
     "referenced_type" : "_ZTIPFviciiPvS_E"
    },
    {
     "referenced_type" : "_ZTIPv"
    }
   ],
   "return_type" : "_ZTIP13evdns_request",
   "source_file" : "external/libevent/include/event2/dns.h"
  },
  {
   "function_name" : "evdns_base_resolve_reverse_ipv6",
   "linker_set_key" : "evdns_base_resolve_reverse_ipv6",
   "parameters" :
   [
    {
     "referenced_type" : "_ZTIP10evdns_base"
    },
    {
     "referenced_type" : "_ZTIPK8in6_addr"
    },
    {
     "referenced_type" : "_ZTIi"
    },
    {
     "referenced_type" : "_ZTIPFviciiPvS_E"
    },
    {
     "referenced_type" : "_ZTIPv"
    }
   ],
   "return_type" : "_ZTIP13evdns_request",
   "source_file" : "external/libevent/include/event2/dns.h"
  },
  {
   "function_name" : "evdns_base_resume",
   "linker_set_key" : "evdns_base_resume",
   "parameters" :
   [
    {
     "referenced_type" : "_ZTIP10evdns_base"
    }
   ],
   "return_type" : "_ZTIi",
   "source_file" : "external/libevent/include/event2/dns.h"
  },
  {
   "function_name" : "evdns_base_search_add",
   "linker_set_key" : "evdns_base_search_add",
   "parameters" :
   [
    {
     "referenced_type" : "_ZTIP10evdns_base"
    },
    {
     "referenced_type" : "_ZTIPKc"
    }
   ],
   "return_type" : "_ZTIv",
   "source_file" : "external/libevent/include/event2/dns.h"
  },
  {
   "function_name" : "evdns_base_search_clear",
   "linker_set_key" : "evdns_base_search_clear",
   "parameters" :
   [
    {
     "referenced_type" : "_ZTIP10evdns_base"
    }
   ],
   "return_type" : "_ZTIv",
   "source_file" : "external/libevent/include/event2/dns.h"
  },
  {
   "function_name" : "evdns_base_search_ndots_set",
   "linker_set_key" : "evdns_base_search_ndots_set",
   "parameters" :
   [
    {
     "referenced_type" : "_ZTIP10evdns_base"
    },
    {
     "referenced_type" : "_ZTIKi"
    }
   ],
   "return_type" : "_ZTIv",
   "source_file" : "external/libevent/include/event2/dns.h"
  },
  {
   "function_name" : "evdns_base_set_option",
   "linker_set_key" : "evdns_base_set_option",
   "parameters" :
   [
    {
     "referenced_type" : "_ZTIP10evdns_base"
    },
    {
     "referenced_type" : "_ZTIPKc"
    },
    {
     "referenced_type" : "_ZTIPKc"
    }
   ],
   "return_type" : "_ZTIi",
   "source_file" : "external/libevent/include/event2/dns.h"
  },
  {
   "function_name" : "evdns_cancel_request",
   "linker_set_key" : "evdns_cancel_request",
   "parameters" :
   [
    {
     "referenced_type" : "_ZTIP10evdns_base"
    },
    {
     "referenced_type" : "_ZTIP13evdns_request"
    }
   ],
   "return_type" : "_ZTIv",
   "source_file" : "external/libevent/include/event2/dns.h"
  },
  {
   "function_name" : "evdns_clear_nameservers_and_suspend",
   "linker_set_key" : "evdns_clear_nameservers_and_suspend",
   "return_type" : "_ZTIi",
   "source_file" : "external/libevent/include/event2/dns_compat.h"
  },
  {
   "function_name" : "evdns_close_server_port",
   "linker_set_key" : "evdns_close_server_port",
   "parameters" :
   [
    {
     "referenced_type" : "_ZTIP17evdns_server_port"
    }
   ],
   "return_type" : "_ZTIv",
   "source_file" : "external/libevent/include/event2/dns.h"
  },
  {
   "function_name" : "evdns_count_nameservers",
   "linker_set_key" : "evdns_count_nameservers",
   "return_type" : "_ZTIi",
   "source_file" : "external/libevent/include/event2/dns_compat.h"
  },
  {
   "function_name" : "evdns_err_to_string",
   "linker_set_key" : "evdns_err_to_string",
   "parameters" :
   [
    {
     "referenced_type" : "_ZTIi"
    }
   ],
   "return_type" : "_ZTIPKc",
   "source_file" : "external/libevent/include/event2/dns.h"
  },
  {
   "function_name" : "evdns_get_global_base",
   "linker_set_key" : "evdns_get_global_base",
   "return_type" : "_ZTIP10evdns_base",
   "source_file" : "external/libevent/include/event2/dns_compat.h"
  },
  {
   "function_name" : "evdns_getaddrinfo",
   "linker_set_key" : "evdns_getaddrinfo",
   "parameters" :
   [
    {
     "referenced_type" : "_ZTIP10evdns_base"
    },
    {
     "referenced_type" : "_ZTIPKc"
    },
    {
     "referenced_type" : "_ZTIPKc"
    },
    {
     "referenced_type" : "_ZTIPK8addrinfo"
    },
    {
     "referenced_type" : "_ZTIPFviP8addrinfoPvE"
    },
    {
     "referenced_type" : "_ZTIPv"
    }
   ],
   "return_type" : "_ZTIP25evdns_getaddrinfo_request",
   "source_file" : "external/libevent/include/event2/dns.h"
  },
  {
   "function_name" : "evdns_getaddrinfo_cancel",
   "linker_set_key" : "evdns_getaddrinfo_cancel",
   "parameters" :
   [
    {
     "referenced_type" : "_ZTIP25evdns_getaddrinfo_request"
    }
   ],
   "return_type" : "_ZTIv",
   "source_file" : "external/libevent/include/event2/dns.h"
  },
  {
   "function_name" : "evdns_init",
   "linker_set_key" : "evdns_init",
   "return_type" : "_ZTIi",
   "source_file" : "external/libevent/include/event2/dns_compat.h"
  },
  {
   "function_name" : "evdns_nameserver_add",
   "linker_set_key" : "evdns_nameserver_add",
   "parameters" :
   [
    {
     "referenced_type" : "_ZTIm"
    }
   ],
   "return_type" : "_ZTIi",
   "source_file" : "external/libevent/include/event2/dns_compat.h"
  },
  {
   "function_name" : "evdns_nameserver_ip_add",
   "linker_set_key" : "evdns_nameserver_ip_add",
   "parameters" :
   [
    {
     "referenced_type" : "_ZTIPKc"
    }
   ],
   "return_type" : "_ZTIi",
   "source_file" : "external/libevent/include/event2/dns_compat.h"
  },
  {
   "function_name" : "evdns_resolv_conf_parse",
   "linker_set_key" : "evdns_resolv_conf_parse",
   "parameters" :
   [
    {
     "referenced_type" : "_ZTIi"
    },
    {
     "referenced_type" : "_ZTIKPKc"
    }
   ],
   "return_type" : "_ZTIi",
   "source_file" : "external/libevent/include/event2/dns_compat.h"
  },
  {
   "function_name" : "evdns_resolve_ipv4",
   "linker_set_key" : "evdns_resolve_ipv4",
   "parameters" :
   [
    {
     "referenced_type" : "_ZTIPKc"
    },
    {
     "referenced_type" : "_ZTIi"
    },
    {
     "referenced_type" : "_ZTIPFviciiPvS_E"
    },
    {
     "referenced_type" : "_ZTIPv"
    }
   ],
   "return_type" : "_ZTIi",
   "source_file" : "external/libevent/include/event2/dns_compat.h"
  },
  {
   "function_name" : "evdns_resolve_ipv6",
   "linker_set_key" : "evdns_resolve_ipv6",
   "parameters" :
   [
    {
     "referenced_type" : "_ZTIPKc"
    },
    {
     "referenced_type" : "_ZTIi"
    },
    {
     "referenced_type" : "_ZTIPFviciiPvS_E"
    },
    {
     "referenced_type" : "_ZTIPv"
    }
   ],
   "return_type" : "_ZTIi",
   "source_file" : "external/libevent/include/event2/dns_compat.h"
  },
  {
   "function_name" : "evdns_resolve_reverse",
   "linker_set_key" : "evdns_resolve_reverse",
   "parameters" :
   [
    {
     "referenced_type" : "_ZTIPK7in_addr"
    },
    {
     "referenced_type" : "_ZTIi"
    },
    {
     "referenced_type" : "_ZTIPFviciiPvS_E"
    },
    {
     "referenced_type" : "_ZTIPv"
    }
   ],
   "return_type" : "_ZTIi",
   "source_file" : "external/libevent/include/event2/dns_compat.h"
  },
  {
   "function_name" : "evdns_resolve_reverse_ipv6",
   "linker_set_key" : "evdns_resolve_reverse_ipv6",
   "parameters" :
   [
    {
     "referenced_type" : "_ZTIPK8in6_addr"
    },
    {
     "referenced_type" : "_ZTIi"
    },
    {
     "referenced_type" : "_ZTIPFviciiPvS_E"
    },
    {
     "referenced_type" : "_ZTIPv"
    }
   ],
   "return_type" : "_ZTIi",
   "source_file" : "external/libevent/include/event2/dns_compat.h"
  },
  {
   "function_name" : "evdns_resume",
   "linker_set_key" : "evdns_resume",
   "return_type" : "_ZTIi",
   "source_file" : "external/libevent/include/event2/dns_compat.h"
  },
  {
   "function_name" : "evdns_search_add",
   "linker_set_key" : "evdns_search_add",
   "parameters" :
   [
    {
     "referenced_type" : "_ZTIPKc"
    }
   ],
   "return_type" : "_ZTIv",
   "source_file" : "external/libevent/include/event2/dns_compat.h"
  },
  {
   "function_name" : "evdns_search_clear",
   "linker_set_key" : "evdns_search_clear",
   "return_type" : "_ZTIv",
   "source_file" : "external/libevent/include/event2/dns_compat.h"
  },
  {
   "function_name" : "evdns_search_ndots_set",
   "linker_set_key" : "evdns_search_ndots_set",
   "parameters" :
   [
    {
     "referenced_type" : "_ZTIKi"
    }
   ],
   "return_type" : "_ZTIv",
   "source_file" : "external/libevent/include/event2/dns_compat.h"
  },
  {
   "function_name" : "evdns_server_request_add_a_reply",
   "linker_set_key" : "evdns_server_request_add_a_reply",
   "parameters" :
   [
    {
     "referenced_type" : "_ZTIP20evdns_server_request"
    },
    {
     "referenced_type" : "_ZTIPKc"
    },
    {
     "referenced_type" : "_ZTIi"
    },
    {
     "referenced_type" : "_ZTIPKv"
    },
    {
     "referenced_type" : "_ZTIi"
    }
   ],
   "return_type" : "_ZTIi",
   "source_file" : "external/libevent/include/event2/dns.h"
  },
  {
   "function_name" : "evdns_server_request_add_aaaa_reply",
   "linker_set_key" : "evdns_server_request_add_aaaa_reply",
   "parameters" :
   [
    {
     "referenced_type" : "_ZTIP20evdns_server_request"
    },
    {
     "referenced_type" : "_ZTIPKc"
    },
    {
     "referenced_type" : "_ZTIi"
    },
    {
     "referenced_type" : "_ZTIPKv"
    },
    {
     "referenced_type" : "_ZTIi"
    }
   ],
   "return_type" : "_ZTIi",
   "source_file" : "external/libevent/include/event2/dns.h"
  },
  {
   "function_name" : "evdns_server_request_add_cname_reply",
   "linker_set_key" : "evdns_server_request_add_cname_reply",
   "parameters" :
   [
    {
     "referenced_type" : "_ZTIP20evdns_server_request"
    },
    {
     "referenced_type" : "_ZTIPKc"
    },
    {
     "referenced_type" : "_ZTIPKc"
    },
    {
     "referenced_type" : "_ZTIi"
    }
   ],
   "return_type" : "_ZTIi",
   "source_file" : "external/libevent/include/event2/dns.h"
  },
  {
   "function_name" : "evdns_server_request_add_ptr_reply",
   "linker_set_key" : "evdns_server_request_add_ptr_reply",
   "parameters" :
   [
    {
     "referenced_type" : "_ZTIP20evdns_server_request"
    },
    {
     "referenced_type" : "_ZTIP7in_addr"
    },
    {
     "referenced_type" : "_ZTIPKc"
    },
    {
     "referenced_type" : "_ZTIPKc"
    },
    {
     "referenced_type" : "_ZTIi"
    }
   ],
   "return_type" : "_ZTIi",
   "source_file" : "external/libevent/include/event2/dns.h"
  },
  {
   "function_name" : "evdns_server_request_add_reply",
   "linker_set_key" : "evdns_server_request_add_reply",
   "parameters" :
   [
    {
     "referenced_type" : "_ZTIP20evdns_server_request"
    },
    {
     "referenced_type" : "_ZTIi"
    },
    {
     "referenced_type" : "_ZTIPKc"
    },
    {
     "referenced_type" : "_ZTIi"
    },
    {
     "referenced_type" : "_ZTIi"
    },
    {
     "referenced_type" : "_ZTIi"
    },
    {
     "referenced_type" : "_ZTIi"
    },
    {
     "referenced_type" : "_ZTIi"
    },
    {
     "referenced_type" : "_ZTIPKc"
    }
   ],
   "return_type" : "_ZTIi",
   "source_file" : "external/libevent/include/event2/dns.h"
  },
  {
   "function_name" : "evdns_server_request_drop",
   "linker_set_key" : "evdns_server_request_drop",
   "parameters" :
   [
    {
     "referenced_type" : "_ZTIP20evdns_server_request"
    }
   ],
   "return_type" : "_ZTIi",
   "source_file" : "external/libevent/include/event2/dns.h"
  },
  {
   "function_name" : "evdns_server_request_get_requesting_addr",
   "linker_set_key" : "evdns_server_request_get_requesting_addr",
   "parameters" :
   [
    {
     "referenced_type" : "_ZTIP20evdns_server_request"
    },
    {
     "referenced_type" : "_ZTIP8sockaddr"
    },
    {
     "referenced_type" : "_ZTIi"
    }
   ],
   "return_type" : "_ZTIi",
   "source_file" : "external/libevent/include/event2/dns.h"
  },
  {
   "function_name" : "evdns_server_request_respond",
   "linker_set_key" : "evdns_server_request_respond",
   "parameters" :
   [
    {
     "referenced_type" : "_ZTIP20evdns_server_request"
    },
    {
     "referenced_type" : "_ZTIi"
    }
   ],
   "return_type" : "_ZTIi",
   "source_file" : "external/libevent/include/event2/dns.h"
  },
  {
   "function_name" : "evdns_server_request_set_flags",
   "linker_set_key" : "evdns_server_request_set_flags",
   "parameters" :
   [
    {
     "referenced_type" : "_ZTIP20evdns_server_request"
    },
    {
     "referenced_type" : "_ZTIi"
    }
   ],
   "return_type" : "_ZTIv",
   "source_file" : "external/libevent/include/event2/dns.h"
  },
  {
   "function_name" : "evdns_set_log_fn",
   "linker_set_key" : "evdns_set_log_fn",
   "parameters" :
   [
    {
     "referenced_type" : "_ZTIPFviPKcE"
    }
   ],
   "return_type" : "_ZTIv",
   "source_file" : "external/libevent/include/event2/dns.h"
  },
  {
   "function_name" : "evdns_set_option",
   "linker_set_key" : "evdns_set_option",
   "parameters" :
   [
    {
     "referenced_type" : "_ZTIPKc"
    },
    {
     "referenced_type" : "_ZTIPKc"
    },
    {
     "referenced_type" : "_ZTIi"
    }
   ],
   "return_type" : "_ZTIi",
   "source_file" : "external/libevent/include/event2/dns_compat.h"
  },
  {
   "function_name" : "evdns_set_random_bytes_fn",
   "linker_set_key" : "evdns_set_random_bytes_fn",
   "parameters" :
   [
    {
     "referenced_type" : "_ZTIPFvPcmE"
    }
   ],
   "return_type" : "_ZTIv",
   "source_file" : "external/libevent/include/event2/dns.h"
  },
  {
   "function_name" : "evdns_set_transaction_id_fn",
   "linker_set_key" : "evdns_set_transaction_id_fn",
   "parameters" :
   [
    {
     "referenced_type" : "_ZTIPFtvE"
    }
   ],
   "return_type" : "_ZTIv",
   "source_file" : "external/libevent/include/event2/dns.h"
  },
  {
   "function_name" : "evdns_shutdown",
   "linker_set_key" : "evdns_shutdown",
   "parameters" :
   [
    {
     "referenced_type" : "_ZTIi"
    }
   ],
   "return_type" : "_ZTIv",
   "source_file" : "external/libevent/include/event2/dns_compat.h"
  }
 ],
 "global_vars" : [],
 "lvalue_reference_types" : [],
 "pointer_types" :
 [
  {
   "alignment" : 8,
   "linker_set_key" : "_ZTIP10evdns_base",
   "name" : "evdns_base *",
   "referenced_type" : "_ZTI10evdns_base",
   "self_type" : "_ZTIP10evdns_base",
   "size" : 8,
   "source_file" : "external/libevent/include/event2/dns.h"
  },
  {
   "alignment" : 8,
   "linker_set_key" : "_ZTIP10event_base",
   "name" : "event_base *",
   "referenced_type" : "_ZTI10event_base",
   "self_type" : "_ZTIP10event_base",
   "size" : 8,
   "source_file" : "external/libevent/include/event2/dns.h"
  },
  {
   "alignment" : 8,
   "linker_set_key" : "_ZTIP13evdns_request",
   "name" : "evdns_request *",
   "referenced_type" : "_ZTI13evdns_request",
   "self_type" : "_ZTIP13evdns_request",
   "size" : 8,
   "source_file" : "external/libevent/include/event2/dns.h"
  },
  {
   "alignment" : 8,
   "linker_set_key" : "_ZTIP14event_callback",
   "name" : "event_callback *",
   "referenced_type" : "_ZTI14event_callback",
   "self_type" : "_ZTIP14event_callback",
   "size" : 8,
   "source_file" : "external/libevent/include/event2/event_struct.h"
  },
  {
   "alignment" : 8,
   "linker_set_key" : "_ZTIP17evdns_server_port",
   "name" : "evdns_server_port *",
   "referenced_type" : "_ZTI17evdns_server_port",
   "self_type" : "_ZTIP17evdns_server_port",
   "size" : 8,
   "source_file" : "external/libevent/include/event2/dns.h"
  },
  {
   "alignment" : 8,
   "linker_set_key" : "_ZTIP20evdns_server_request",
   "name" : "evdns_server_request *",
   "referenced_type" : "_ZTI20evdns_server_request",
   "self_type" : "_ZTIP20evdns_server_request",
   "size" : 8,
   "source_file" : "external/libevent/include/event2/dns.h"
  },
  {
   "alignment" : 8,
   "linker_set_key" : "_ZTIP21evdns_server_question",
   "name" : "evdns_server_question *",
   "referenced_type" : "_ZTI21evdns_server_question",
   "self_type" : "_ZTIP21evdns_server_question",
   "size" : 8,
   "source_file" : "external/libevent/include/event2/dns_struct.h"
  },
  {
   "alignment" : 8,
   "linker_set_key" : "_ZTIP25evdns_getaddrinfo_request",
   "name" : "evdns_getaddrinfo_request *",
   "referenced_type" : "_ZTI25evdns_getaddrinfo_request",
   "self_type" : "_ZTIP25evdns_getaddrinfo_request",
   "size" : 8,
   "source_file" : "external/libevent/include/event2/dns.h"
  },
  {
   "alignment" : 8,
   "linker_set_key" : "_ZTIP5event",
   "name" : "event *",
   "referenced_type" : "_ZTI5event",
   "self_type" : "_ZTIP5event",
   "size" : 8,
   "source_file" : "external/libevent/include/event2/event_struct.h"
  },
  {
   "alignment" : 8,
   "linker_set_key" : "_ZTIP7in_addr",
   "name" : "in_addr *",
   "referenced_type" : "_ZTI7in_addr",
   "self_type" : "_ZTIP7in_addr",
   "size" : 8,
   "source_file" : "external/libevent/include/event2/dns.h"
  },
  {
   "alignment" : 8,
   "linker_set_key" : "_ZTIP8addrinfo",
   "name" : "addrinfo *",
   "referenced_type" : "_ZTI8addrinfo",
   "self_type" : "_ZTIP8addrinfo",
   "size" : 8,
   "source_file" : "external/libevent/include/event2/dns.h"
  },
  {
   "alignment" : 8,
   "linker_set_key" : "_ZTIP8evkeyval",
   "name" : "evkeyval *",
   "referenced_type" : "_ZTI8evkeyval",
   "self_type" : "_ZTIP8evkeyval",
   "size" : 8,
   "source_file" : "external/libevent/include/event2/keyvalq_struct.h"
  },
  {
   "alignment" : 8,
   "linker_set_key" : "_ZTIP8sockaddr",
   "name" : "sockaddr *",
   "referenced_type" : "_ZTI8sockaddr",
   "self_type" : "_ZTIP8sockaddr",
   "size" : 8,
   "source_file" : "external/libevent/include/event2/dns.h"
  },
  {
   "alignment" : 8,
   "linker_set_key" : "_ZTIPFPvjE",
   "name" : "void *(*)(unsigned int)",
   "referenced_type" : "_ZTIFPvjE",
   "self_type" : "_ZTIPFPvjE",
   "size" : 8,
   "source_file" : "external/libevent/include/event2/thread.h"
  },
  {
   "alignment" : 8,
   "linker_set_key" : "_ZTIPFiPvS_PK7timevalE",
   "name" : "int (*)(void *, void *, const timeval *)",
   "referenced_type" : "_ZTIFiPvS_PK7timevalE",
   "self_type" : "_ZTIPFiPvS_PK7timevalE",
   "size" : 8,
   "source_file" : "external/libevent/include/event2/thread.h"
  },
  {
   "alignment" : 8,
   "linker_set_key" : "_ZTIPFiPviE",
   "name" : "int (*)(void *, int)",
   "referenced_type" : "_ZTIFiPviE",
   "self_type" : "_ZTIPFiPviE",
   "size" : 8,
   "source_file" : "external/libevent/include/event2/thread.h"
  },
  {
   "alignment" : 8,
   "linker_set_key" : "_ZTIPFijPvE",
   "name" : "int (*)(unsigned int, void *)",
   "referenced_type" : "_ZTIFijPvE",
   "self_type" : "_ZTIPFijPvE",
   "size" : 8,
   "source_file" : "external/libevent/include/event2/thread.h"
  },
  {
   "alignment" : 8,
   "linker_set_key" : "_ZTIPFtvE",
   "name" : "unsigned short (*)(void)",
   "referenced_type" : "_ZTIFtvE",
   "self_type" : "_ZTIPFtvE",
   "size" : 8,
   "source_file" : "external/libevent/include/event2/dns.h"
  },
  {
   "alignment" : 8,
   "linker_set_key" : "_ZTIPFvP14event_callbackPvE",
   "name" : "void (*)(event_callback *, void *)",
   "referenced_type" : "_ZTIFvP14event_callbackPvE",
   "self_type" : "_ZTIPFvP14event_callbackPvE",
   "size" : 8,
   "source_file" : "external/libevent/include/event2/event_struct.h"
  },
  {
   "alignment" : 8,
   "linker_set_key" : "_ZTIPFvP20evdns_server_requestPvE",
   "name" : "void (*)(evdns_server_request *, void *)",
   "referenced_type" : "_ZTIFvP20evdns_server_requestPvE",
   "self_type" : "_ZTIPFvP20evdns_server_requestPvE",
   "size" : 8,
   "source_file" : "external/libevent/include/event2/dns.h"
  },
  {
   "alignment" : 8,
   "linker_set_key" : "_ZTIPFvP5eventPvE",
   "name" : "void (*)(event *, void *)",
   "referenced_type" : "_ZTIFvP5eventPvE",
   "self_type" : "_ZTIPFvP5eventPvE",
   "size" : 8,
   "source_file" : "external/libevent/include/event2/event_struct.h"
  },
  {
   "alignment" : 8,
   "linker_set_key" : "_ZTIPFvPcmE",
   "name" : "void (*)(char *, unsigned long)",
   "referenced_type" : "_ZTIFvPcmE",
   "self_type" : "_ZTIPFvPcmE",
   "size" : 8,
   "source_file" : "external/libevent/include/event2/dns.h"
  },
  {
   "alignment" : 8,
   "linker_set_key" : "_ZTIPFvPvE",
   "name" : "void (*)(void *)",
   "referenced_type" : "_ZTIFvPvE",
   "self_type" : "_ZTIPFvPvE",
   "size" : 8,
   "source_file" : "external/libevent/include/event2/thread.h"
  },
  {
   "alignment" : 8,
   "linker_set_key" : "_ZTIPFvPvjE",
   "name" : "void (*)(void *, unsigned int)",
   "referenced_type" : "_ZTIFvPvjE",
   "self_type" : "_ZTIPFvPvjE",
   "size" : 8,
   "source_file" : "external/libevent/include/event2/thread.h"
  },
  {
   "alignment" : 8,
   "linker_set_key" : "_ZTIPFviP8addrinfoPvE",
   "name" : "void (*)(int, addrinfo *, void *)",
   "referenced_type" : "_ZTIFviP8addrinfoPvE",
   "self_type" : "_ZTIPFviP8addrinfoPvE",
   "size" : 8,
   "source_file" : "external/libevent/include/event2/dns.h"
  },
  {
   "alignment" : 8,
   "linker_set_key" : "_ZTIPFviPKcE",
   "name" : "void (*)(int, const char *)",
   "referenced_type" : "_ZTIFviPKcE",
   "self_type" : "_ZTIPFviPKcE",
   "size" : 8,
   "source_file" : "external/libevent/include/event2/dns.h"
  },
  {
   "alignment" : 8,
   "linker_set_key" : "_ZTIPFviciiPvS_E",
   "name" : "void (*)(int, char, int, int, void *, void *)",
   "referenced_type" : "_ZTIFviciiPvS_E",
   "self_type" : "_ZTIPFviciiPvS_E",
   "size" : 8,
   "source_file" : "external/libevent/include/event2/dns.h"
  },
  {
   "alignment" : 8,
   "linker_set_key" : "_ZTIPFvisPvE",
   "name" : "void (*)(int, short, void *)",
   "referenced_type" : "_ZTIFvisPvE",
   "self_type" : "_ZTIPFvisPvE",
   "size" : 8,
   "source_file" : "external/libevent/include/event2/event_struct.h"
  },
  {
   "alignment" : 8,
   "linker_set_key" : "_ZTIPK7in_addr",
   "name" : "const in_addr *",
   "referenced_type" : "_ZTIK7in_addr",
   "self_type" : "_ZTIPK7in_addr",
   "size" : 8,
   "source_file" : "external/libevent/include/event2/dns.h"
  },
  {
   "alignment" : 8,
   "linker_set_key" : "_ZTIPK7timeval",
   "name" : "const timeval *",
   "referenced_type" : "_ZTIK7timeval",
   "self_type" : "_ZTIPK7timeval",
   "size" : 8,
   "source_file" : "external/libevent/include/event2/thread.h"
  },
  {
   "alignment" : 8,
   "linker_set_key" : "_ZTIPK8addrinfo",
   "name" : "const addrinfo *",
   "referenced_type" : "_ZTIK8addrinfo",
   "self_type" : "_ZTIPK8addrinfo",
   "size" : 8,
   "source_file" : "external/libevent/include/event2/dns.h"
  },
  {
   "alignment" : 8,
   "linker_set_key" : "_ZTIPK8in6_addr",
   "name" : "const in6_addr *",
   "referenced_type" : "_ZTIK8in6_addr",
   "self_type" : "_ZTIPK8in6_addr",
   "size" : 8,
   "source_file" : "external/libevent/include/event2/dns.h"
  },
  {
   "alignment" : 8,
   "linker_set_key" : "_ZTIPK8sockaddr",
   "name" : "const sockaddr *",
   "referenced_type" : "_ZTIK8sockaddr",
   "self_type" : "_ZTIPK8sockaddr",
   "size" : 8,
   "source_file" : "external/libevent/include/event2/dns.h"
  },
  {
   "alignment" : 8,
   "linker_set_key" : "_ZTIPKc",
   "name" : "const char *",
   "referenced_type" : "_ZTIKc",
   "self_type" : "_ZTIPKc",
   "size" : 8,
   "source_file" : "external/libevent/include/event2/dns.h"
  },
  {
   "alignment" : 8,
   "linker_set_key" : "_ZTIPKv",
   "name" : "const void *",
   "referenced_type" : "_ZTIKv",
   "self_type" : "_ZTIPKv",
   "size" : 8,
   "source_file" : "external/libevent/include/event2/dns.h"
  },
  {
   "alignment" : 8,
   "linker_set_key" : "_ZTIPP14event_callback",
   "name" : "event_callback **",
   "referenced_type" : "_ZTIP14event_callback",
   "self_type" : "_ZTIPP14event_callback",
   "size" : 8,
   "source_file" : "external/libevent/include/event2/event_struct.h"
  },
  {
   "alignment" : 8,
   "linker_set_key" : "_ZTIPP21evdns_server_question",
   "name" : "evdns_server_question **",
   "referenced_type" : "_ZTIP21evdns_server_question",
   "self_type" : "_ZTIPP21evdns_server_question",
   "size" : 8,
   "source_file" : "external/libevent/include/event2/dns_struct.h"
  },
  {
   "alignment" : 8,
   "linker_set_key" : "_ZTIPP5event",
   "name" : "event **",
   "referenced_type" : "_ZTIP5event",
   "self_type" : "_ZTIPP5event",
   "size" : 8,
   "source_file" : "external/libevent/include/event2/event_struct.h"
  },
  {
   "alignment" : 8,
   "linker_set_key" : "_ZTIPP8evkeyval",
   "name" : "evkeyval **",
   "referenced_type" : "_ZTIP8evkeyval",
   "self_type" : "_ZTIPP8evkeyval",
   "size" : 8,
   "source_file" : "external/libevent/include/event2/keyvalq_struct.h"
  },
  {
   "alignment" : 8,
   "linker_set_key" : "_ZTIPc",
   "name" : "char *",
   "referenced_type" : "_ZTIc",
   "self_type" : "_ZTIPc",
   "size" : 8,
   "source_file" : "external/libevent/include/event2/dns.h"
  },
  {
   "alignment" : 8,
   "linker_set_key" : "_ZTIPs",
   "name" : "short *",
   "referenced_type" : "_ZTIs",
   "self_type" : "_ZTIPs",
   "size" : 8,
   "source_file" : "external/libevent/include/event2/event_struct.h"
  },
  {
   "alignment" : 8,
   "linker_set_key" : "_ZTIPv",
   "name" : "void *",
   "referenced_type" : "_ZTIv",
   "self_type" : "_ZTIPv",
   "size" : 8,
   "source_file" : "external/libevent/include/event2/dns.h"
  }
 ],
 "qualified_types" :
 [
  {
   "alignment" : 4,
   "is_const" : true,
   "linker_set_key" : "_ZTIK7in_addr",
   "name" : "const in_addr",
   "referenced_type" : "_ZTI7in_addr",
   "self_type" : "_ZTIK7in_addr",
   "size" : 4,
   "source_file" : "external/libevent/include/event2/dns.h"
  },
  {
   "alignment" : 8,
   "is_const" : true,
   "linker_set_key" : "_ZTIK7timeval",
   "name" : "const timeval",
   "referenced_type" : "_ZTI7timeval",
   "self_type" : "_ZTIK7timeval",
   "size" : 16,
   "source_file" : "external/libevent/include/event2/thread.h"
  },
  {
   "alignment" : 8,
   "is_const" : true,
   "linker_set_key" : "_ZTIK8addrinfo",
   "name" : "const addrinfo",
   "referenced_type" : "_ZTI8addrinfo",
   "self_type" : "_ZTIK8addrinfo",
   "size" : 48,
   "source_file" : "external/libevent/include/event2/dns.h"
  },
  {
   "alignment" : 4,
   "is_const" : true,
   "linker_set_key" : "_ZTIK8in6_addr",
   "name" : "const in6_addr",
   "referenced_type" : "_ZTI8in6_addr",
   "self_type" : "_ZTIK8in6_addr",
   "size" : 16,
   "source_file" : "external/libevent/include/event2/dns.h"
  },
  {
   "alignment" : 2,
   "is_const" : true,
   "linker_set_key" : "_ZTIK8sockaddr",
   "name" : "const sockaddr",
   "referenced_type" : "_ZTI8sockaddr",
   "self_type" : "_ZTIK8sockaddr",
   "size" : 16,
   "source_file" : "external/libevent/include/event2/dns.h"
  },
  {
   "alignment" : 8,
   "is_const" : true,
   "linker_set_key" : "_ZTIKPKc",
   "name" : "const char *const",
   "referenced_type" : "_ZTIPKc",
   "self_type" : "_ZTIKPKc",
   "size" : 8,
   "source_file" : "external/libevent/include/event2/dns.h"
  },
  {
   "alignment" : 1,
   "is_const" : true,
   "linker_set_key" : "_ZTIKc",
   "name" : "const char",
   "referenced_type" : "_ZTIc",
   "self_type" : "_ZTIKc",
   "size" : 1,
   "source_file" : "external/libevent/include/event2/dns.h"
  },
  {
   "alignment" : 4,
   "is_const" : true,
   "linker_set_key" : "_ZTIKi",
   "name" : "const int",
   "referenced_type" : "_ZTIi",
   "self_type" : "_ZTIKi",
   "size" : 4,
   "source_file" : "external/libevent/include/event2/dns.h"
  },
  {
   "is_const" : true,
   "linker_set_key" : "_ZTIKv",
   "name" : "const void",
   "referenced_type" : "_ZTIv",
   "self_type" : "_ZTIKv",
   "source_file" : "external/libevent/include/event2/dns.h"
  }
 ],
 "record_types" :
 [
  {
   "alignment" : 8,
   "fields" :
   [
    {
     "field_name" : "tqh_first",
     "referenced_type" : "_ZTIP5event"
    },
    {
     "field_name" : "tqh_last",
     "field_offset" : 64,
     "referenced_type" : "_ZTIPP5event"
    }
   ],
   "linker_set_key" : "_ZTI10event_list",
   "name" : "event_list",
   "referenced_type" : "_ZTI10event_list",
   "self_type" : "_ZTI10event_list",
   "size" : 16,
   "source_file" : "external/libevent/include/event2/event_struct.h"
  },
  {
   "alignment" : 8,
   "fields" :
   [
    {
     "field_name" : "lh_first",
     "referenced_type" : "_ZTIP5event"
    }
   ],
   "linker_set_key" : "_ZTI11event_dlist",
   "name" : "event_dlist",
   "referenced_type" : "_ZTI11event_dlist",
   "self_type" : "_ZTI11event_dlist",
   "size" : 8,
   "source_file" : "external/libevent/include/event2/event_struct.h"
  },
  {
   "alignment" : 8,
   "fields" :
   [
    {
     "field_name" : "evcb_active_next",
     "referenced_type" : "_ZTIN14event_callbackUt_E"
    },
    {
     "field_name" : "evcb_flags",
     "field_offset" : 128,
     "referenced_type" : "_ZTIs"
    },
    {
     "field_name" : "evcb_pri",
     "field_offset" : 144,
     "referenced_type" : "_ZTIh"
    },
    {
     "field_name" : "evcb_closure",
     "field_offset" : 152,
     "referenced_type" : "_ZTIh"
    },
    {
     "field_name" : "evcb_cb_union",
     "field_offset" : 192,
     "referenced_type" : "_ZTIN14event_callbackUt_E"
    },
    {
     "field_name" : "evcb_arg",
     "field_offset" : 256,
     "referenced_type" : "_ZTIPv"
    }
   ],
   "linker_set_key" : "_ZTI14event_callback",
   "name" : "event_callback",
   "referenced_type" : "_ZTI14event_callback",
   "self_type" : "_ZTI14event_callback",
   "size" : 40,
   "source_file" : "external/libevent/include/event2/event_struct.h"
  },
  {
   "alignment" : 8,
   "fields" :
   [
    {
     "field_name" : "flags",
     "referenced_type" : "_ZTIi"
    },
    {
     "field_name" : "nquestions",
     "field_offset" : 32,
     "referenced_type" : "_ZTIi"
    },
    {
     "field_name" : "questions",
     "field_offset" : 64,
     "referenced_type" : "_ZTIPP21evdns_server_question"
    }
   ],
   "linker_set_key" : "_ZTI20evdns_server_request",
   "name" : "evdns_server_request",
   "referenced_type" : "_ZTI20evdns_server_request",
   "self_type" : "_ZTI20evdns_server_request",
   "size" : 16,
   "source_file" : "external/libevent/include/event2/dns_struct.h"
  },
  {
   "alignment" : 4,
   "fields" :
   [
    {
     "field_name" : "type",
     "referenced_type" : "_ZTIi"
    },
    {
     "field_name" : "class",
     "field_offset" : 32,
     "referenced_type" : "_ZTIi"
    },
    {
     "field_name" : "name",
     "field_offset" : 64,
     "referenced_type" : "_ZTIA1_c"
    }
   ],
   "linker_set_key" : "_ZTI21evdns_server_question",
   "name" : "evdns_server_question",
   "referenced_type" : "_ZTI21evdns_server_question",
   "self_type" : "_ZTI21evdns_server_question",
   "size" : 12,
   "source_file" : "external/libevent/include/event2/dns_struct.h"
  },
  {
   "alignment" : 8,
   "fields" :
   [
    {
     "field_name" : "lock_api_version",
     "referenced_type" : "_ZTIi"
    },
    {
     "field_name" : "supported_locktypes",
     "field_offset" : 32,
     "referenced_type" : "_ZTIj"
    },
    {
     "field_name" : "alloc",
     "field_offset" : 64,
     "referenced_type" : "_ZTIPFPvjE"
    },
    {
     "field_name" : "free",
     "field_offset" : 128,
     "referenced_type" : "_ZTIPFvPvjE"
    },
    {
     "field_name" : "lock",
     "field_offset" : 192,
     "referenced_type" : "_ZTIPFijPvE"
    },
    {
     "field_name" : "unlock",
     "field_offset" : 256,
     "referenced_type" : "_ZTIPFijPvE"
    }
   ],
   "linker_set_key" : "_ZTI23evthread_lock_callbacks",
   "name" : "evthread_lock_callbacks",
   "referenced_type" : "_ZTI23evthread_lock_callbacks",
   "self_type" : "_ZTI23evthread_lock_callbacks",
   "size" : 40,
   "source_file" : "external/libevent/include/event2/thread.h"
  },
  {
   "alignment" : 8,
   "fields" :
   [
    {
     "field_name" : "condition_api_version",
     "referenced_type" : "_ZTIi"
    },
    {
     "field_name" : "alloc_condition",
     "field_offset" : 64,
     "referenced_type" : "_ZTIPFPvjE"
    },
    {
     "field_name" : "free_condition",
     "field_offset" : 128,
     "referenced_type" : "_ZTIPFvPvE"
    },
    {
     "field_name" : "signal_condition",
     "field_offset" : 192,
     "referenced_type" : "_ZTIPFiPviE"
    },
    {
     "field_name" : "wait_condition",
     "field_offset" : 256,
     "referenced_type" : "_ZTIPFiPvS_PK7timevalE"
    }
   ],
   "linker_set_key" : "_ZTI28evthread_condition_callbacks",
   "name" : "evthread_condition_callbacks",
   "referenced_type" : "_ZTI28evthread_condition_callbacks",
   "self_type" : "_ZTI28evthread_condition_callbacks",
   "size" : 40,
   "source_file" : "external/libevent/include/event2/thread.h"
  },
  {
   "alignment" : 8,
   "fields" :
   [
    {
     "field_name" : "ev_evcallback",
     "referenced_type" : "_ZTI14event_callback"
    },
    {
     "field_name" : "ev_timeout_pos",
     "field_offset" : 320,
     "referenced_type" : "_ZTIN5eventUt_E"
    },
    {
     "field_name" : "ev_fd",
     "field_offset" : 448,
     "referenced_type" : "_ZTIi"
    },
    {
     "field_name" : "ev_base",
     "field_offset" : 512,
     "referenced_type" : "_ZTIP10event_base"
    },
    {
     "field_name" : "ev_",
     "field_offset" : 576,
     "referenced_type" : "_ZTIN5eventUt_E"
    },
    {
     "field_name" : "ev_events",
     "field_offset" : 832,
     "referenced_type" : "_ZTIs"
    },
    {
     "field_name" : "ev_res",
     "field_offset" : 848,
     "referenced_type" : "_ZTIs"
    },
    {
     "field_name" : "ev_timeout",
     "field_offset" : 896,
     "referenced_type" : "_ZTI7timeval"
    }
   ],
   "linker_set_key" : "_ZTI5event",
   "name" : "event",
   "referenced_type" : "_ZTI5event",
   "self_type" : "_ZTI5event",
   "size" : 128,
   "source_file" : "external/libevent/include/event2/event_struct.h"
  },
  {
   "alignment" : 8,
   "fields" :
   [
    {
     "field_name" : "next",
     "referenced_type" : "_ZTIN8evkeyvalUt_E"
    },
    {
     "field_name" : "key",
     "field_offset" : 128,
     "referenced_type" : "_ZTIPc"
    },
    {
     "field_name" : "value",
     "field_offset" : 192,
     "referenced_type" : "_ZTIPc"
    }
   ],
   "linker_set_key" : "_ZTI8evkeyval",
   "name" : "evkeyval",
   "referenced_type" : "_ZTI8evkeyval",
   "self_type" : "_ZTI8evkeyval",
   "size" : 32,
   "source_file" : "external/libevent/include/event2/keyvalq_struct.h"
  },
  {
   "alignment" : 8,
   "fields" :
   [
    {
     "field_name" : "tqh_first",
     "referenced_type" : "_ZTIP8evkeyval"
    },
    {
     "field_name" : "tqh_last",
     "field_offset" : 64,
     "referenced_type" : "_ZTIPP8evkeyval"
    }
   ],
   "linker_set_key" : "_ZTI9evkeyvalq",
   "name" : "evkeyvalq",
   "referenced_type" : "_ZTI9evkeyvalq",
   "self_type" : "_ZTI9evkeyvalq",
   "size" : 16,
   "source_file" : "external/libevent/include/event2/keyvalq_struct.h"
  },
  {
   "alignment" : 8,
   "fields" :
   [
    {
     "field_name" : "tqe_next",
     "referenced_type" : "_ZTIP14event_callback"
    },
    {
     "field_name" : "tqe_prev",
     "field_offset" : 64,
     "referenced_type" : "_ZTIPP14event_callback"
    }
   ],
   "is_anonymous" : true,
   "linker_set_key" : "_ZTIN14event_callbackUt_E",
   "name" : "event_callback::(anonymous struct at external/libevent/include/event2/event_struct.h:108:2)",
   "referenced_type" : "_ZTIN14event_callbackUt_E",
   "self_type" : "_ZTIN14event_callbackUt_E",
   "size" : 16,
   "source_file" : "external/libevent/include/event2/event_struct.h"
  },
  {
   "alignment" : 8,
   "fields" :
   [
    {
     "field_name" : "ev_next_with_common_timeout",
     "referenced_type" : "_ZTIN5eventUt_Ut_E"
    },
    {
     "field_name" : "min_heap_idx",
     "referenced_type" : "_ZTIi"
    }
   ],
   "is_anonymous" : true,
   "linker_set_key" : "_ZTIN5eventUt_E",
   "name" : "event::(anonymous union at external/libevent/include/event2/event_struct.h:127:2)",
   "record_kind" : "union",
   "referenced_type" : "_ZTIN5eventUt_E",
   "self_type" : "_ZTIN5eventUt_E",
   "size" : 16,
   "source_file" : "external/libevent/include/event2/event_struct.h"
  },
  {
   "alignment" : 8,
   "fields" :
   [
    {
     "field_name" : "tqe_next",
     "referenced_type" : "_ZTIP5event"
    },
    {
     "field_name" : "tqe_prev",
     "field_offset" : 64,
     "referenced_type" : "_ZTIPP5event"
    }
   ],
   "is_anonymous" : true,
   "linker_set_key" : "_ZTIN5eventUt_Ut_E",
   "name" : "event::(anonymous union at external/libevent/include/event2/event_struct.h:127:2)::(anonymous struct at external/libevent/include/event2/event_struct.h:128:3)",
   "referenced_type" : "_ZTIN5eventUt_Ut_E",
   "self_type" : "_ZTIN5eventUt_Ut_E",
   "size" : 16,
   "source_file" : "external/libevent/include/event2/event_struct.h"
  },
  {
   "alignment" : 8,
   "fields" :
   [
    {
     "field_name" : "le_next",
     "referenced_type" : "_ZTIP5event"
    },
    {
     "field_name" : "le_prev",
     "field_offset" : 64,
     "referenced_type" : "_ZTIPP5event"
    }
   ],
   "is_anonymous" : true,
   "linker_set_key" : "_ZTIN5eventUt_Ut_Ut_E",
   "name" : "event::(anonymous union at external/libevent/include/event2/event_struct.h:135:2)::(anonymous struct at external/libevent/include/event2/event_struct.h:137:3)::(anonymous struct at external/libevent/include/event2/event_struct.h:138:4)",
   "referenced_type" : "_ZTIN5eventUt_Ut_Ut_E",
   "self_type" : "_ZTIN5eventUt_Ut_Ut_E",
   "size" : 16,
   "source_file" : "external/libevent/include/event2/event_struct.h"
  },
  {
   "alignment" : 8,
   "fields" :
   [
    {
     "field_name" : "tqe_next",
     "referenced_type" : "_ZTIP8evkeyval"
    },
    {
     "field_name" : "tqe_prev",
     "field_offset" : 64,
     "referenced_type" : "_ZTIPP8evkeyval"
    }
   ],
   "is_anonymous" : true,
   "linker_set_key" : "_ZTIN8evkeyvalUt_E",
   "name" : "evkeyval::(anonymous struct at external/libevent/include/event2/keyvalq_struct.h:59:2)",
   "referenced_type" : "_ZTIN8evkeyvalUt_E",
   "self_type" : "_ZTIN8evkeyvalUt_E",
   "size" : 16,
   "source_file" : "external/libevent/include/event2/keyvalq_struct.h"
  }
 ],
 "rvalue_reference_types" : []
}
