{
 "array_types" :
 [
  {
   "alignment" : 1,
   "linker_set_key" : "_ZTIA16_h",
   "name" : "unsigned char [16]",
   "referenced_type" : "_ZTIh",
   "self_type" : "_ZTIA16_h",
   "size" : 16,
   "source_file" : "external/boringssl/src/include/openssl/cipher.h"
  },
  {
   "alignment" : 1,
   "linker_set_key" : "_ZTIA32_h",
   "name" : "unsigned char [32]",
   "referenced_type" : "_ZTIh",
   "self_type" : "_ZTIA32_h",
   "size" : 32,
   "source_file" : "external/boringssl/src/include/openssl/cipher.h"
  },
  {
   "alignment" : 1,
   "linker_set_key" : "_ZTIA56_h",
   "name" : "unsigned char [56]",
   "referenced_type" : "_ZTIh",
   "self_type" : "_ZTIA56_h",
   "size" : 56,
   "source_file" : "external/boringssl/src/include/openssl/thread.h"
  },
  {
   "alignment" : 4,
   "linker_set_key" : "_ZTIA60_j",
   "name" : "unsigned int [60]",
   "referenced_type" : "_ZTIj",
   "self_type" : "_ZTIA60_j",
   "size" : 240,
   "source_file" : "external/boringssl/src/include/openssl/aes.h"
  }
 ],
 "builtin_types" :
 [
  {
   "alignment" : 8,
   "linker_set_key" : "_ZTId",
   "name" : "double",
   "referenced_type" : "_ZTId",
   "self_type" : "_ZTId",
   "size" : 8
  },
  {
   "alignment" : 1,
   "is_integral" : true,
   "is_unsigned" : true,
   "linker_set_key" : "_ZTIh",
   "name" : "unsigned char",
   "referenced_type" : "_ZTIh",
   "self_type" : "_ZTIh",
   "size" : 1
  },
  {
   "alignment" : 4,
   "is_integral" : true,
   "linker_set_key" : "_ZTIi",
   "name" : "int",
   "referenced_type" : "_ZTIi",
   "self_type" : "_ZTIi",
   "size" : 4
  },
  {
   "alignment" : 4,
   "is_integral" : true,
   "is_unsigned" : true,
   "linker_set_key" : "_ZTIj",
   "name" : "unsigned int",
   "referenced_type" : "_ZTIj",
   "self_type" : "_ZTIj",
   "size" : 4
  },
  {
   "linker_set_key" : "_ZTIv",
   "name" : "void",
   "referenced_type" : "_ZTIv",
   "self_type" : "_ZTIv"
  }
 ],
 "elf_functions" : [],
 "elf_objects" : [],
 "enum_types" : [],
 "function_types" :
 [
  {
   "alignment" : 4,
   "linker_set_key" : "_ZTIFiP17evp_cipher_ctx_stPKhS2_iE",
   "name" : "int (evp_cipher_ctx_st *, const unsigned char *, const unsigned char *, int)",
   "parameters" :
   [
    {
     "referenced_type" : "_ZTIP17evp_cipher_ctx_st"
    },
    {
     "referenced_type" : "_ZTIPKh"
    },
    {
     "referenced_type" : "_ZTIPKh"
    },
    {
     "referenced_type" : "_ZTIi"
    }
   ],
   "referenced_type" : "_ZTIFiP17evp_cipher_ctx_stPKhS2_iE",
   "return_type" : "_ZTIi",
   "self_type" : "_ZTIFiP17evp_cipher_ctx_stPKhS2_iE",
   "source_file" : "external/boringssl/src/include/openssl/cipher.h"
  },
  {
   "alignment" : 4,
   "linker_set_key" : "_ZTIFiP17evp_cipher_ctx_stPhPKhjE",
   "name" : "int (evp_cipher_ctx_st *, unsigned char *, const unsigned char *, unsigned int)",
   "parameters" :
   [
    {
     "referenced_type" : "_ZTIP17evp_cipher_ctx_st"
    },
    {
     "referenced_type" : "_ZTIPh"
    },
    {
     "referenced_type" : "_ZTIPKh"
    },
    {
     "referenced_type" : "_ZTIj"
    }
   ],
   "referenced_type" : "_ZTIFiP17evp_cipher_ctx_stPhPKhjE",
   "return_type" : "_ZTIi",
   "self_type" : "_ZTIFiP17evp_cipher_ctx_stPhPKhjE",
   "source_file" : "external/boringssl/src/include/openssl/cipher.h"
  },
  {
   "alignment" : 4,
   "linker_set_key" : "_ZTIFiP17evp_cipher_ctx_stiiPvE",
   "name" : "int (evp_cipher_ctx_st *, int, int, void *)",
   "parameters" :
   [
    {
     "referenced_type" : "_ZTIP17evp_cipher_ctx_st"
    },
    {
     "referenced_type" : "_ZTIi"
    },
    {
     "referenced_type" : "_ZTIi"
    },
    {
     "referenced_type" : "_ZTIPv"
    }
   ],
   "referenced_type" : "_ZTIFiP17evp_cipher_ctx_stiiPvE",
   "return_type" : "_ZTIi",
   "self_type" : "_ZTIFiP17evp_cipher_ctx_stiiPvE",
   "source_file" : "external/boringssl/src/include/openssl/cipher.h"
  },
  {
   "alignment" : 4,
   "linker_set_key" : "_ZTIFiPPKvS1_E",
   "name" : "int (const void **, const void **)",
   "parameters" :
   [
    {
     "referenced_type" : "_ZTIPPKv"
    },
    {
     "referenced_type" : "_ZTIPPKv"
    }
   ],
   "referenced_type" : "_ZTIFiPPKvS1_E",
   "return_type" : "_ZTIi",
   "self_type" : "_ZTIFiPPKvS1_E",
   "source_file" : "external/boringssl/src/include/openssl/stack.h"
  },
  {
   "alignment" : 4,
   "linker_set_key" : "_ZTIFvP17evp_cipher_ctx_stE",
   "name" : "void (evp_cipher_ctx_st *)",
   "parameters" :
   [
    {
     "referenced_type" : "_ZTIP17evp_cipher_ctx_st"
    }
   ],
   "referenced_type" : "_ZTIFvP17evp_cipher_ctx_stE",
   "return_type" : "_ZTIv",
   "self_type" : "_ZTIFvP17evp_cipher_ctx_stE",
   "source_file" : "external/boringssl/src/include/openssl/cipher.h"
  }
 ],
 "functions" :
 [
  {
   "function_name" : "AES_CMAC",
   "linker_set_key" : "AES_CMAC",
   "parameters" :
   [
    {
     "referenced_type" : "_ZTIPh"
    },
    {
     "referenced_type" : "_ZTIPKh"
    },
    {
     "referenced_type" : "_ZTIj"
    },
    {
     "referenced_type" : "_ZTIPKh"
    },
    {
     "referenced_type" : "_ZTIj"
    }
   ],
   "return_type" : "_ZTIi",
   "source_file" : "external/boringssl/src/include/openssl/cmac.h"
  },
  {
   "function_name" : "CMAC_CTX_copy",
   "linker_set_key" : "CMAC_CTX_copy",
   "parameters" :
   [
    {
     "referenced_type" : "_ZTIP11cmac_ctx_st"
    },
    {
     "referenced_type" : "_ZTIPK11cmac_ctx_st"
    }
   ],
   "return_type" : "_ZTIi",
   "source_file" : "external/boringssl/src/include/openssl/cmac.h"
  },
  {
   "function_name" : "CMAC_CTX_free",
   "linker_set_key" : "CMAC_CTX_free",
   "parameters" :
   [
    {
     "referenced_type" : "_ZTIP11cmac_ctx_st"
    }
   ],
   "return_type" : "_ZTIv",
   "source_file" : "external/boringssl/src/include/openssl/cmac.h"
  },
  {
   "function_name" : "CMAC_CTX_new",
   "linker_set_key" : "CMAC_CTX_new",
   "return_type" : "_ZTIP11cmac_ctx_st",
   "source_file" : "external/boringssl/src/include/openssl/cmac.h"
  },
  {
   "function_name" : "CMAC_Final",
   "linker_set_key" : "CMAC_Final",
   "parameters" :
   [
    {
     "referenced_type" : "_ZTIP11cmac_ctx_st"
    },
    {
     "referenced_type" : "_ZTIPh"
    },
    {
     "referenced_type" : "_ZTIPj"
    }
   ],
   "return_type" : "_ZTIi",
   "source_file" : "external/boringssl/src/include/openssl/cmac.h"
  },
  {
   "function_name" : "CMAC_Init",
   "linker_set_key" : "CMAC_Init",
   "parameters" :
   [
    {
     "referenced_type" : "_ZTIP11cmac_ctx_st"
    },
    {
     "referenced_type" : "_ZTIPKv"
    },
    {
     "referenced_type" : "_ZTIj"
    },
    {
     "referenced_type" : "_ZTIPK13evp_cipher_st"
    },
    {
     "referenced_type" : "_ZTIP9engine_st"
    }
   ],
   "return_type" : "_ZTIi",
   "source_file" : "external/boringssl/src/include/openssl/cmac.h"
  },
  {
   "function_name" : "CMAC_Reset",
   "linker_set_key" : "CMAC_Reset",
   "parameters" :
   [
    {
     "referenced_type" : "_ZTIP11cmac_ctx_st"
    }
   ],
   "return_type" : "_ZTIi",
   "source_file" : "external/boringssl/src/include/openssl/cmac.h"
  },
  {
   "function_name" : "CMAC_Update",
   "linker_set_key" : "CMAC_Update",
   "parameters" :
   [
    {
     "referenced_type" : "_ZTIP11cmac_ctx_st"
    },
    {
     "referenced_type" : "_ZTIPKh"
    },
    {
     "referenced_type" : "_ZTIj"
    }
   ],
   "return_type" : "_ZTIi",
   "source_file" : "external/boringssl/src/include/openssl/cmac.h"
  }
 ],
 "global_vars" : [],
 "lvalue_reference_types" : [],
 "pointer_types" :
 [
  {
   "alignment" : 4,
   "linker_set_key" : "_ZTIP11cmac_ctx_st",
   "name" : "cmac_ctx_st *",
   "referenced_type" : "_ZTI11cmac_ctx_st",
   "self_type" : "_ZTIP11cmac_ctx_st",
   "size" : 4,
   "source_file" : "external/boringssl/src/include/openssl/cmac.h"
  },
  {
   "alignment" : 4,
   "linker_set_key" : "_ZTIP13stack_st_void",
   "name" : "stack_st_void *",
   "referenced_type" : "_ZTI13stack_st_void",
   "self_type" : "_ZTIP13stack_st_void",
   "size" : 4,
   "source_file" : "external/boringssl/src/include/openssl/ex_data.h"
  },
  {
   "alignment" : 4,
   "linker_set_key" : "_ZTIP17evp_cipher_ctx_st",
   "name" : "evp_cipher_ctx_st *",
   "referenced_type" : "_ZTI17evp_cipher_ctx_st",
   "self_type" : "_ZTIP17evp_cipher_ctx_st",
   "size" : 4,
   "source_file" : "external/boringssl/src/include/openssl/cipher.h"
  },
  {
   "alignment" : 4,
   "linker_set_key" : "_ZTIP20CRYPTO_dynlock_value",
   "name" : "CRYPTO_dynlock_value *",
   "referenced_type" : "_ZTI20CRYPTO_dynlock_value",
   "self_type" : "_ZTIP20CRYPTO_dynlock_value",
   "size" : 4,
   "source_file" : "external/boringssl/src/include/openssl/thread.h"
  },
  {
   "alignment" : 4,
   "linker_set_key" : "_ZTIP9engine_st",
   "name" : "engine_st *",
   "referenced_type" : "_ZTI9engine_st",
   "self_type" : "_ZTIP9engine_st",
   "size" : 4,
   "source_file" : "external/boringssl/src/include/openssl/cmac.h"
  },
  {
   "alignment" : 4,
   "linker_set_key" : "_ZTIPFiP17evp_cipher_ctx_stPKhS2_iE",
   "name" : "int (*)(evp_cipher_ctx_st *, const unsigned char *, const unsigned char *, int)",
   "referenced_type" : "_ZTIFiP17evp_cipher_ctx_stPKhS2_iE",
   "self_type" : "_ZTIPFiP17evp_cipher_ctx_stPKhS2_iE",
   "size" : 4,
   "source_file" : "external/boringssl/src/include/openssl/cipher.h"
  },
  {
   "alignment" : 4,
   "linker_set_key" : "_ZTIPFiP17evp_cipher_ctx_stPhPKhjE",
   "name" : "int (*)(evp_cipher_ctx_st *, unsigned char *, const unsigned char *, unsigned int)",
   "referenced_type" : "_ZTIFiP17evp_cipher_ctx_stPhPKhjE",
   "self_type" : "_ZTIPFiP17evp_cipher_ctx_stPhPKhjE",
   "size" : 4,
   "source_file" : "external/boringssl/src/include/openssl/cipher.h"
  },
  {
   "alignment" : 4,
   "linker_set_key" : "_ZTIPFiP17evp_cipher_ctx_stiiPvE",
   "name" : "int (*)(evp_cipher_ctx_st *, int, int, void *)",
   "referenced_type" : "_ZTIFiP17evp_cipher_ctx_stiiPvE",
   "self_type" : "_ZTIPFiP17evp_cipher_ctx_stiiPvE",
   "size" : 4,
   "source_file" : "external/boringssl/src/include/openssl/cipher.h"
  },
  {
   "alignment" : 4,
   "linker_set_key" : "_ZTIPFiPPKvS1_E",
   "name" : "int (*)(const void **, const void **)",
   "referenced_type" : "_ZTIFiPPKvS1_E",
   "self_type" : "_ZTIPFiPPKvS1_E",
   "size" : 4,
   "source_file" : "external/boringssl/src/include/openssl/stack.h"
  },
  {
   "alignment" : 4,
   "linker_set_key" : "_ZTIPFvP17evp_cipher_ctx_stE",
   "name" : "void (*)(evp_cipher_ctx_st *)",
   "referenced_type" : "_ZTIFvP17evp_cipher_ctx_stE",
   "self_type" : "_ZTIPFvP17evp_cipher_ctx_stE",
   "size" : 4,
   "source_file" : "external/boringssl/src/include/openssl/cipher.h"
  },
  {
   "alignment" : 4,
   "linker_set_key" : "_ZTIPK11cmac_ctx_st",
   "name" : "const cmac_ctx_st *",
   "referenced_type" : "_ZTIK11cmac_ctx_st",
   "self_type" : "_ZTIPK11cmac_ctx_st",
   "size" : 4,
   "source_file" : "external/boringssl/src/include/openssl/cmac.h"
  },
  {
   "alignment" : 4,
   "linker_set_key" : "_ZTIPK13evp_cipher_st",
   "name" : "const evp_cipher_st *",
   "referenced_type" : "_ZTIK13evp_cipher_st",
   "self_type" : "_ZTIPK13evp_cipher_st",
   "size" : 4,
   "source_file" : "external/boringssl/src/include/openssl/cmac.h"
  },
  {
   "alignment" : 4,
   "linker_set_key" : "_ZTIPKh",
   "name" : "const unsigned char *",
   "referenced_type" : "_ZTIKh",
   "self_type" : "_ZTIPKh",
   "size" : 4,
   "source_file" : "external/boringssl/src/include/openssl/cmac.h"
  },
  {
   "alignment" : 4,
   "linker_set_key" : "_ZTIPKv",
   "name" : "const void *",
   "referenced_type" : "_ZTIKv",
   "self_type" : "_ZTIPKv",
   "size" : 4,
   "source_file" : "external/boringssl/src/include/openssl/cmac.h"
  },
  {
   "alignment" : 4,
   "linker_set_key" : "_ZTIPPKv",
   "name" : "const void **",
   "referenced_type" : "_ZTIPKv",
   "self_type" : "_ZTIPPKv",
   "size" : 4,
   "source_file" : "external/boringssl/src/include/openssl/stack.h"
  },
  {
   "alignment" : 4,
   "linker_set_key" : "_ZTIPPv",
   "name" : "void **",
   "referenced_type" : "_ZTIPv",
   "self_type" : "_ZTIPPv",
   "size" : 4,
   "source_file" : "external/boringssl/src/include/openssl/stack.h"
  },
  {
   "alignment" : 4,
   "linker_set_key" : "_ZTIPh",
   "name" : "unsigned char *",
   "referenced_type" : "_ZTIh",
   "self_type" : "_ZTIPh",
   "size" : 4,
   "source_file" : "external/boringssl/src/include/openssl/cmac.h"
  },
  {
   "alignment" : 4,
   "linker_set_key" : "_ZTIPj",
   "name" : "unsigned int *",
   "referenced_type" : "_ZTIj",
   "self_type" : "_ZTIPj",
   "size" : 4,
   "source_file" : "external/boringssl/src/include/openssl/cmac.h"
  },
  {
   "alignment" : 4,
   "linker_set_key" : "_ZTIPv",
   "name" : "void *",
   "referenced_type" : "_ZTIv",
   "self_type" : "_ZTIPv",
   "size" : 4,
   "source_file" : "external/boringssl/src/include/openssl/cipher.h"
  }
 ],
 "qualified_types" :
 [
  {
   "alignment" : 4,
   "is_const" : true,
   "linker_set_key" : "_ZTIK11cmac_ctx_st",
   "name" : "const cmac_ctx_st",
   "referenced_type" : "_ZTI11cmac_ctx_st",
   "self_type" : "_ZTIK11cmac_ctx_st",
   "size" : 188,
   "source_file" : "external/boringssl/src/include/openssl/cmac.h"
  },
  {
   "alignment" : 4,
   "is_const" : true,
   "linker_set_key" : "_ZTIK13evp_cipher_st",
   "name" : "const evp_cipher_st",
   "referenced_type" : "_ZTI13evp_cipher_st",
   "self_type" : "_ZTIK13evp_cipher_st",
   "size" : 44,
   "source_file" : "external/boringssl/src/include/openssl/cmac.h"
  },
  {
   "alignment" : 1,
   "is_const" : true,
   "linker_set_key" : "_ZTIKh",
   "name" : "const unsigned char",
   "referenced_type" : "_ZTIh",
   "self_type" : "_ZTIKh",
   "size" : 1,
   "source_file" : "external/boringssl/src/include/openssl/cmac.h"
  },
  {
   "is_const" : true,
   "linker_set_key" : "_ZTIKv",
   "name" : "const void",
   "referenced_type" : "_ZTIv",
   "self_type" : "_ZTIKv",
   "source_file" : "external/boringssl/src/include/openssl/cmac.h"
  }
 ],
 "record_types" :
 [
  {
   "alignment" : 4,
   "fields" :
   [
    {
     "field_name" : "rd_key",
     "referenced_type" : "_ZTIA60_j"
    },
    {
     "field_name" : "rounds",
     "field_offset" : 1920,
     "referenced_type" : "_ZTIj"
    }
   ],
   "linker_set_key" : "_ZTI10aes_key_st",
   "name" : "aes_key_st",
   "referenced_type" : "_ZTI10aes_key_st",
   "self_type" : "_ZTI10aes_key_st",
   "size" : 244,
   "source_file" : "external/boringssl/src/include/openssl/aes.h"
  },
  {
   "alignment" : 4,
   "fields" :
   [
    {
     "field_name" : "nid",
     "referenced_type" : "_ZTIi"
    },
    {
     "field_name" : "block_size",
     "field_offset" : 32,
     "referenced_type" : "_ZTIj"
    },
    {
     "field_name" : "key_len",
     "field_offset" : 64,
     "referenced_type" : "_ZTIj"
    },
    {
     "field_name" : "iv_len",
     "field_offset" : 96,
     "referenced_type" : "_ZTIj"
    },
    {
     "field_name" : "ctx_size",
     "field_offset" : 128,
     "referenced_type" : "_ZTIj"
    },
    {
     "field_name" : "flags",
     "field_offset" : 160,
     "referenced_type" : "_ZTIj"
    },
    {
     "field_name" : "app_data",
     "field_offset" : 192,
     "referenced_type" : "_ZTIPv"
    },
    {
     "field_name" : "init",
     "field_offset" : 224,
     "referenced_type" : "_ZTIPFiP17evp_cipher_ctx_stPKhS2_iE"
    },
    {
     "field_name" : "cipher",
     "field_offset" : 256,
     "referenced_type" : "_ZTIPFiP17evp_cipher_ctx_stPhPKhjE"
    },
    {
     "field_name" : "cleanup",
     "field_offset" : 288,
     "referenced_type" : "_ZTIPFvP17evp_cipher_ctx_stE"
    },
    {
     "field_name" : "ctrl",
     "field_offset" : 320,
     "referenced_type" : "_ZTIPFiP17evp_cipher_ctx_stiiPvE"
    }
   ],
   "linker_set_key" : "_ZTI13evp_cipher_st",
   "name" : "evp_cipher_st",
   "referenced_type" : "_ZTI13evp_cipher_st",
   "self_type" : "_ZTI13evp_cipher_st",
   "size" : 44,
   "source_file" : "external/boringssl/src/include/openssl/cipher.h"
  },
  {
   "alignment" : 4,
   "fields" :
   [
    {
     "field_name" : "references",
     "referenced_type" : "_ZTIi"
    },
    {
     "field_name" : "data",
     "field_offset" : 32,
     "referenced_type" : "_ZTIP20CRYPTO_dynlock_value"
    }
   ],
   "linker_set_key" : "_ZTI14CRYPTO_dynlock",
   "name" : "CRYPTO_dynlock",
   "referenced_type" : "_ZTI14CRYPTO_dynlock",
   "self_type" : "_ZTI14CRYPTO_dynlock",
   "size" : 8,
   "source_file" : "external/boringssl/src/include/openssl/thread.h"
  },
  {
   "alignment" : 8,
   "fields" :
   [
    {
     "field_name" : "alignment",
     "referenced_type" : "_ZTId"
    },
    {
     "field_name" : "padding",
     "referenced_type" : "_ZTIA56_h"
    }
   ],
   "linker_set_key" : "_ZTI15crypto_mutex_st",
   "name" : "crypto_mutex_st",
   "record_kind" : "union",
   "referenced_type" : "_ZTI15crypto_mutex_st",
   "self_type" : "_ZTI15crypto_mutex_st",
   "size" : 56,
   "source_file" : "external/boringssl/src/include/openssl/thread.h"
  },
  {
   "alignment" : 4,
   "fields" :
   [
    {
     "field_name" : "sk",
     "referenced_type" : "_ZTIP13stack_st_void"
    }
   ],
   "linker_set_key" : "_ZTI17crypto_ex_data_st",
   "name" : "crypto_ex_data_st",
   "referenced_type" : "_ZTI17crypto_ex_data_st",
   "self_type" : "_ZTI17crypto_ex_data_st",
   "size" : 4,
   "source_file" : "external/boringssl/src/include/openssl/ex_data.h"
  },
  {
   "alignment" : 4,
   "fields" :
   [
    {
     "field_name" : "cipher",
     "referenced_type" : "_ZTIPK13evp_cipher_st"
    },
    {
     "field_name" : "app_data",
     "field_offset" : 32,
     "referenced_type" : "_ZTIPv"
    },
    {
     "field_name" : "cipher_data",
     "field_offset" : 64,
     "referenced_type" : "_ZTIPv"
    },
    {
     "field_name" : "key_len",
     "field_offset" : 96,
     "referenced_type" : "_ZTIj"
    },
    {
     "field_name" : "encrypt",
     "field_offset" : 128,
     "referenced_type" : "_ZTIi"
    },
    {
     "field_name" : "flags",
     "field_offset" : 160,
     "referenced_type" : "_ZTIj"
    },
    {
     "field_name" : "oiv",
     "field_offset" : 192,
     "referenced_type" : "_ZTIA16_h"
    },
    {
     "field_name" : "iv",
     "field_offset" : 320,
     "referenced_type" : "_ZTIA16_h"
    },
    {
     "field_name" : "buf",
     "field_offset" : 448,
     "referenced_type" : "_ZTIA32_h"
    },
    {
     "field_name" : "buf_len",
     "field_offset" : 704,
     "referenced_type" : "_ZTIi"
    },
    {
     "field_name" : "num",
     "field_offset" : 736,
     "referenced_type" : "_ZTIj"
    },
    {
     "field_name" : "final_used",
     "field_offset" : 768,
     "referenced_type" : "_ZTIi"
    },
    {
     "field_name" : "block_mask",
     "field_offset" : 800,
     "referenced_type" : "_ZTIi"
    },
    {
     "field_name" : "final",
     "field_offset" : 832,
     "referenced_type" : "_ZTIA32_h"
    }
   ],
   "linker_set_key" : "_ZTI17evp_cipher_ctx_st",
   "name" : "evp_cipher_ctx_st",
   "referenced_type" : "_ZTI17evp_cipher_ctx_st",
   "self_type" : "_ZTI17evp_cipher_ctx_st",
   "size" : 136,
   "source_file" : "external/boringssl/src/include/openssl/cipher.h"
  },
  {
   "alignment" : 4,
   "fields" :
   [
    {
     "field_name" : "cipher",
     "referenced_type" : "_ZTIPK13evp_cipher_st"
    },
    {
     "field_name" : "iv",
     "field_offset" : 32,
     "referenced_type" : "_ZTIA16_h"
    }
   ],
   "linker_set_key" : "_ZTI18evp_cipher_info_st",
   "name" : "evp_cipher_info_st",
   "referenced_type" : "_ZTI18evp_cipher_info_st",
   "self_type" : "_ZTI18evp_cipher_info_st",
   "size" : 20,
   "source_file" : "external/boringssl/src/include/openssl/cipher.h"
  },
  {
   "alignment" : 4,
   "fields" :
   [
    {
     "field_name" : "num",
     "referenced_type" : "_ZTIj"
    },
    {
     "field_name" : "data",
     "field_offset" : 32,
     "referenced_type" : "_ZTIPPv"
    },
    {
     "field_name" : "sorted",
     "field_offset" : 64,
     "referenced_type" : "_ZTIi"
    },
    {
     "field_name" : "num_alloc",
     "field_offset" : 96,
     "referenced_type" : "_ZTIj"
    },
    {
     "field_name" : "comp",
     "field_offset" : 128,
     "referenced_type" : "_ZTIPFiPPKvS1_E"
    }
   ],
   "linker_set_key" : "_ZTI8stack_st",
   "name" : "stack_st",
   "referenced_type" : "_ZTI8stack_st",
   "self_type" : "_ZTI8stack_st",
   "size" : 20,
   "source_file" : "external/boringssl/src/include/openssl/stack.h"
  }
 ],
 "rvalue_reference_types" : []
}
