{
 "array_types" :
 [
  {
   "alignment" : 4,
   "linker_set_key" : "_ZTIA10_i",
   "name" : "int [10]",
   "referenced_type" : "_ZTIi",
   "self_type" : "_ZTIA10_i",
   "size" : 40,
   "source_file" : "bionic/libc/include/bits/pthread_types.h"
  },
  {
   "alignment" : 2,
   "linker_set_key" : "_ZTIA11_Ds",
   "name" : "char16_t [11]",
   "referenced_type" : "_ZTIDs",
   "self_type" : "_ZTIA11_Ds",
   "size" : 22,
   "source_file" : "external/libcxx/include/string"
  },
  {
   "alignment" : 1,
   "linker_set_key" : "_ZTIA120_c",
   "name" : "char [120]",
   "referenced_type" : "_ZTIc",
   "self_type" : "_ZTIA120_c",
   "size" : 120,
   "source_file" : "bionic/libc/include/sys/ucontext.h"
  },
  {
   "alignment" : 4,
   "linker_set_key" : "_ZTIA12_i",
   "name" : "int [12]",
   "referenced_type" : "_ZTIi",
   "self_type" : "_ZTIA12_i",
   "size" : 48,
   "source_file" : "bionic/libc/include/bits/pthread_types.h"
  },
  {
   "alignment" : 4,
   "linker_set_key" : "_ZTIA14_i",
   "name" : "int [14]",
   "referenced_type" : "_ZTIi",
   "self_type" : "_ZTIA14_i",
   "size" : 56,
   "source_file" : "bionic/libc/include/bits/pthread_types.h"
  },
  {
   "alignment" : 1,
   "linker_set_key" : "_ZTIA16_c",
   "name" : "char [16]",
   "referenced_type" : "_ZTIc",
   "self_type" : "_ZTIA16_c",
   "size" : 16,
   "source_file" : "bionic/libc/include/bits/pthread_types.h"
  },
  {
   "alignment" : 8,
   "linker_set_key" : "_ZTIA16_m",
   "name" : "unsigned long [16]",
   "referenced_type" : "_ZTIm",
   "self_type" : "_ZTIA16_m",
   "size" : 128,
   "source_file" : "bionic/libc/kernel/uapi/linux/posix_types.h"
  },
  {
   "alignment" : 8,
   "linker_set_key" : "_ZTIA1_m",
   "name" : "unsigned long [1]",
   "referenced_type" : "_ZTIm",
   "self_type" : "_ZTIA1_m",
   "size" : 8,
   "source_file" : "bionic/libc/kernel/uapi/asm-generic/signal.h"
  },
  {
   "alignment" : 1,
   "linker_set_key" : "_ZTIA23_c",
   "name" : "char [23]",
   "referenced_type" : "_ZTIc",
   "self_type" : "_ZTIA23_c",
   "size" : 23,
   "source_file" : "external/libcxx/include/string"
  },
  {
   "alignment" : 8,
   "linker_set_key" : "_ZTIA2_PKc",
   "name" : "const char *[2]",
   "referenced_type" : "_ZTIPKc",
   "self_type" : "_ZTIA2_PKc",
   "size" : 16,
   "source_file" : "out/soong/.intermediates/system/libsysprop/srcs/libPlatformProperties/android_arm64_armv8-a_static_apex31/gen/sysprop/android/sysprop/SetupWizardProperties.sysprop.cpp"
  },
  {
   "alignment" : 1,
   "linker_set_key" : "_ZTIA2_c",
   "name" : "char [2]",
   "referenced_type" : "_ZTIc",
   "self_type" : "_ZTIA2_c",
   "size" : 2,
   "source_file" : "external/libcxx/include/type_traits"
  },
  {
   "alignment" : 4,
   "linker_set_key" : "_ZTIA2_i",
   "name" : "int [2]",
   "referenced_type" : "_ZTIi",
   "self_type" : "_ZTIA2_i",
   "size" : 8,
   "source_file" : "bionic/libc/kernel/uapi/asm-generic/posix_types.h"
  },
  {
   "alignment" : 8,
   "linker_set_key" : "_ZTIA31_m",
   "name" : "unsigned long [31]",
   "referenced_type" : "_ZTIm",
   "self_type" : "_ZTIA31_m",
   "size" : 248,
   "source_file" : "bionic/libc/include/sys/user.h"
  },
  {
   "alignment" : 8,
   "linker_set_key" : "_ZTIA31_y",
   "name" : "unsigned long long [31]",
   "referenced_type" : "_ZTIy",
   "self_type" : "_ZTIA31_y",
   "size" : 248,
   "source_file" : "bionic/libc/kernel/uapi/asm-arm64/asm/sigcontext.h"
  },
  {
   "alignment" : 1,
   "linker_set_key" : "_ZTIA32_h",
   "name" : "unsigned char [32]",
   "referenced_type" : "_ZTIh",
   "self_type" : "_ZTIA32_h",
   "size" : 32,
   "source_file" : "external/libcxx/include/type_traits"
  },
  {
   "alignment" : 4,
   "linker_set_key" : "_ZTIA32_i",
   "name" : "int [32]",
   "referenced_type" : "_ZTIi",
   "self_type" : "_ZTIA32_i",
   "size" : 128,
   "source_file" : "bionic/libc/kernel/uapi/asm-generic/siginfo.h"
  },
  {
   "alignment" : 16,
   "linker_set_key" : "_ZTIA32_o",
   "name" : "unsigned __int128 [32]",
   "referenced_type" : "_ZTIo",
   "self_type" : "_ZTIA32_o",
   "size" : 512,
   "source_file" : "bionic/libc/kernel/uapi/asm-arm64/asm/sigcontext.h"
  },
  {
   "alignment" : 4,
   "linker_set_key" : "_ZTIA3_j",
   "name" : "unsigned int [3]",
   "referenced_type" : "_ZTIj",
   "self_type" : "_ZTIA3_j",
   "size" : 12,
   "source_file" : "bionic/libc/kernel/uapi/asm-arm64/asm/sigcontext.h"
  },
  {
   "alignment" : 8,
   "linker_set_key" : "_ZTIA3_m",
   "name" : "unsigned long [3]",
   "referenced_type" : "_ZTIm",
   "self_type" : "_ZTIA3_m",
   "size" : 24,
   "source_file" : "external/libcxx/include/string"
  },
  {
   "alignment" : 2,
   "linker_set_key" : "_ZTIA3_t",
   "name" : "unsigned short [3]",
   "referenced_type" : "_ZTIt",
   "self_type" : "_ZTIA3_t",
   "size" : 6,
   "source_file" : "bionic/libc/kernel/uapi/asm-arm64/asm/sigcontext.h"
  },
  {
   "alignment" : 1,
   "linker_set_key" : "_ZTIA4096_h",
   "name" : "unsigned char [4096]",
   "referenced_type" : "_ZTIh",
   "self_type" : "_ZTIA4096_h",
   "size" : 4096,
   "source_file" : "bionic/libc/kernel/uapi/asm-arm64/asm/sigcontext.h"
  },
  {
   "alignment" : 8,
   "linker_set_key" : "_ZTIA4_d",
   "name" : "double [4]",
   "referenced_type" : "_ZTId",
   "self_type" : "_ZTIA4_d",
   "size" : 32,
   "source_file" : "external/libcxx/include/type_traits"
  },
  {
   "alignment" : 1,
   "linker_set_key" : "_ZTIA4_h",
   "name" : "unsigned char [4]",
   "referenced_type" : "_ZTIh",
   "self_type" : "_ZTIA4_h",
   "size" : 4,
   "source_file" : "bionic/libc/include/bits/mbstate_t.h"
  },
  {
   "alignment" : 8,
   "linker_set_key" : "_ZTIA4_l",
   "name" : "long [4]",
   "referenced_type" : "_ZTIl",
   "self_type" : "_ZTIA4_l",
   "size" : 32,
   "source_file" : "bionic/libc/include/bits/pthread_types.h"
  },
  {
   "alignment" : 4,
   "linker_set_key" : "_ZTIA5_Di",
   "name" : "char32_t [5]",
   "referenced_type" : "_ZTIDi",
   "self_type" : "_ZTIA5_Di",
   "size" : 20,
   "source_file" : "external/libcxx/include/string"
  },
  {
   "alignment" : 4,
   "linker_set_key" : "_ZTIA5_w",
   "name" : "wchar_t [5]",
   "referenced_type" : "_ZTIw",
   "self_type" : "_ZTIA5_w",
   "size" : 20,
   "source_file" : "external/libcxx/include/string"
  },
  {
   "alignment" : 8,
   "linker_set_key" : "_ZTIA65_PKc",
   "name" : "const char *[65]",
   "referenced_type" : "_ZTIPKc",
   "self_type" : "_ZTIA65_PKc",
   "size" : 520,
   "source_file" : "bionic/libc/include/signal.h"
  },
  {
   "alignment" : 1,
   "linker_set_key" : "_ZTIA8_c",
   "name" : "char [8]",
   "referenced_type" : "_ZTIc",
   "self_type" : "_ZTIA8_c",
   "size" : 8,
   "source_file" : "bionic/libc/kernel/uapi/asm-generic/siginfo.h"
  },
  {
   "linker_set_key" : "_ZTIA_Pc",
   "name" : "char *[]",
   "referenced_type" : "_ZTIPc",
   "self_type" : "_ZTIA_Pc",
   "source_file" : "bionic/libc/include/time.h"
  }
 ],
 "builtin_types" :
 [
  {
   "alignment" : 4,
   "is_integral" : true,
   "is_unsigned" : true,
   "linker_set_key" : "_ZTIDi",
   "name" : "char32_t",
   "referenced_type" : "_ZTIDi",
   "self_type" : "_ZTIDi",
   "size" : 4
  },
  {
   "alignment" : 8,
   "linker_set_key" : "_ZTIDn",
   "name" : "nullptr_t",
   "referenced_type" : "_ZTIDn",
   "self_type" : "_ZTIDn",
   "size" : 8
  },
  {
   "alignment" : 2,
   "is_integral" : true,
   "is_unsigned" : true,
   "linker_set_key" : "_ZTIDs",
   "name" : "char16_t",
   "referenced_type" : "_ZTIDs",
   "self_type" : "_ZTIDs",
   "size" : 2
  },
  {
   "alignment" : 1,
   "is_integral" : true,
   "linker_set_key" : "_ZTIa",
   "name" : "signed char",
   "referenced_type" : "_ZTIa",
   "self_type" : "_ZTIa",
   "size" : 1
  },
  {
   "alignment" : 1,
   "is_integral" : true,
   "is_unsigned" : true,
   "linker_set_key" : "_ZTIb",
   "name" : "bool",
   "referenced_type" : "_ZTIb",
   "self_type" : "_ZTIb",
   "size" : 1
  },
  {
   "alignment" : 1,
   "is_integral" : true,
   "is_unsigned" : true,
   "linker_set_key" : "_ZTIc",
   "name" : "char",
   "referenced_type" : "_ZTIc",
   "self_type" : "_ZTIc",
   "size" : 1
  },
  {
   "alignment" : 8,
   "linker_set_key" : "_ZTId",
   "name" : "double",
   "referenced_type" : "_ZTId",
   "self_type" : "_ZTId",
   "size" : 8
  },
  {
   "alignment" : 16,
   "linker_set_key" : "_ZTIe",
   "name" : "long double",
   "referenced_type" : "_ZTIe",
   "self_type" : "_ZTIe",
   "size" : 16
  },
  {
   "alignment" : 4,
   "linker_set_key" : "_ZTIf",
   "name" : "float",
   "referenced_type" : "_ZTIf",
   "self_type" : "_ZTIf",
   "size" : 4
  },
  {
   "alignment" : 1,
   "is_integral" : true,
   "is_unsigned" : true,
   "linker_set_key" : "_ZTIh",
   "name" : "unsigned char",
   "referenced_type" : "_ZTIh",
   "self_type" : "_ZTIh",
   "size" : 1
  },
  {
   "alignment" : 4,
   "is_integral" : true,
   "linker_set_key" : "_ZTIi",
   "name" : "int",
   "referenced_type" : "_ZTIi",
   "self_type" : "_ZTIi",
   "size" : 4
  },
  {
   "alignment" : 4,
   "is_integral" : true,
   "is_unsigned" : true,
   "linker_set_key" : "_ZTIj",
   "name" : "unsigned int",
   "referenced_type" : "_ZTIj",
   "self_type" : "_ZTIj",
   "size" : 4
  },
  {
   "alignment" : 8,
   "is_integral" : true,
   "linker_set_key" : "_ZTIl",
   "name" : "long",
   "referenced_type" : "_ZTIl",
   "self_type" : "_ZTIl",
   "size" : 8
  },
  {
   "alignment" : 8,
   "is_integral" : true,
   "is_unsigned" : true,
   "linker_set_key" : "_ZTIm",
   "name" : "unsigned long",
   "referenced_type" : "_ZTIm",
   "self_type" : "_ZTIm",
   "size" : 8
  },
  {
   "alignment" : 16,
   "is_integral" : true,
   "linker_set_key" : "_ZTIn",
   "name" : "__int128",
   "referenced_type" : "_ZTIn",
   "self_type" : "_ZTIn",
   "size" : 16
  },
  {
   "alignment" : 16,
   "is_integral" : true,
   "is_unsigned" : true,
   "linker_set_key" : "_ZTIo",
   "name" : "unsigned __int128",
   "referenced_type" : "_ZTIo",
   "self_type" : "_ZTIo",
   "size" : 16
  },
  {
   "alignment" : 2,
   "is_integral" : true,
   "linker_set_key" : "_ZTIs",
   "name" : "short",
   "referenced_type" : "_ZTIs",
   "self_type" : "_ZTIs",
   "size" : 2
  },
  {
   "alignment" : 2,
   "is_integral" : true,
   "is_unsigned" : true,
   "linker_set_key" : "_ZTIt",
   "name" : "unsigned short",
   "referenced_type" : "_ZTIt",
   "self_type" : "_ZTIt",
   "size" : 2
  },
  {
   "linker_set_key" : "_ZTIv",
   "name" : "void",
   "referenced_type" : "_ZTIv",
   "self_type" : "_ZTIv"
  },
  {
   "alignment" : 4,
   "is_integral" : true,
   "is_unsigned" : true,
   "linker_set_key" : "_ZTIw",
   "name" : "wchar_t",
   "referenced_type" : "_ZTIw",
   "self_type" : "_ZTIw",
   "size" : 4
  },
  {
   "alignment" : 8,
   "is_integral" : true,
   "linker_set_key" : "_ZTIx",
   "name" : "long long",
   "referenced_type" : "_ZTIx",
   "self_type" : "_ZTIx",
   "size" : 8
  },
  {
   "alignment" : 8,
   "is_integral" : true,
   "is_unsigned" : true,
   "linker_set_key" : "_ZTIy",
   "name" : "unsigned long long",
   "referenced_type" : "_ZTIy",
   "self_type" : "_ZTIy",
   "size" : 8
  }
 ],
 "elf_functions" : [],
 "elf_objects" : [],
 "enum_types" :
 [
  {
   "alignment" : 4,
   "enum_fields" :
   [
    {
     "enum_field_value" : 0,
     "name" : "M_HEAP_TAGGING_LEVEL_NONE"
    },
    {
     "enum_field_value" : 1,
     "name" : "M_HEAP_TAGGING_LEVEL_TBI"
    },
    {
     "enum_field_value" : 2,
     "name" : "M_HEAP_TAGGING_LEVEL_ASYNC"
    },
    {
     "enum_field_value" : 3,
     "name" : "M_HEAP_TAGGING_LEVEL_SYNC"
    }
   ],
   "linker_set_key" : "_ZTI16HeapTaggingLevel",
   "name" : "HeapTaggingLevel",
   "referenced_type" : "_ZTI16HeapTaggingLevel",
   "self_type" : "_ZTI16HeapTaggingLevel",
   "size" : 4,
   "source_file" : "bionic/libc/include/malloc.h",
   "underlying_type" : "_ZTIj"
  },
  {
   "alignment" : 4,
   "enum_fields" :
   [
    {
     "enum_field_value" : 10,
     "name" : "EVENT_TYPE_LIST_STOP"
    },
    {
     "enum_field_value" : 63,
     "name" : "EVENT_TYPE_UNKNOWN"
    },
    {
     "enum_field_value" : 0,
     "name" : "EVENT_TYPE_INT"
    },
    {
     "enum_field_value" : 1,
     "name" : "EVENT_TYPE_LONG"
    },
    {
     "enum_field_value" : 2,
     "name" : "EVENT_TYPE_STRING"
    },
    {
     "enum_field_value" : 3,
     "name" : "EVENT_TYPE_LIST"
    },
    {
     "enum_field_value" : 4,
     "name" : "EVENT_TYPE_FLOAT"
    }
   ],
   "linker_set_key" : "_ZTI19AndroidEventLogType",
   "name" : "AndroidEventLogType",
   "referenced_type" : "_ZTI19AndroidEventLogType",
   "self_type" : "_ZTI19AndroidEventLogType",
   "size" : 4,
   "source_file" : "system/logging/liblog/include/log/log.h",
   "underlying_type" : "_ZTIj"
  },
  {
   "alignment" : 4,
   "enum_fields" :
   [
    {
     "enum_field_value" : 0,
     "name" : "ANDROID_LOG_UNKNOWN"
    },
    {
     "enum_field_value" : 1,
     "name" : "ANDROID_LOG_DEFAULT"
    },
    {
     "enum_field_value" : 2,
     "name" : "ANDROID_LOG_VERBOSE"
    },
    {
     "enum_field_value" : 3,
     "name" : "ANDROID_LOG_DEBUG"
    },
    {
     "enum_field_value" : 4,
     "name" : "ANDROID_LOG_INFO"
    },
    {
     "enum_field_value" : 5,
     "name" : "ANDROID_LOG_WARN"
    },
    {
     "enum_field_value" : 6,
     "name" : "ANDROID_LOG_ERROR"
    },
    {
     "enum_field_value" : 7,
     "name" : "ANDROID_LOG_FATAL"
    },
    {
     "enum_field_value" : 8,
     "name" : "ANDROID_LOG_SILENT"
    }
   ],
   "linker_set_key" : "_ZTI19android_LogPriority",
   "name" : "android_LogPriority",
   "referenced_type" : "_ZTI19android_LogPriority",
   "self_type" : "_ZTI19android_LogPriority",
   "size" : 4,
   "source_file" : "system/logging/liblog/include/android/log.h",
   "underlying_type" : "_ZTIj"
  },
  {
   "alignment" : 4,
   "enum_fields" :
   [
    {
     "enum_field_value" : 0,
     "name" : "PTHREAD_MUTEX_NORMAL"
    },
    {
     "enum_field_value" : 1,
     "name" : "PTHREAD_MUTEX_RECURSIVE"
    },
    {
     "enum_field_value" : 2,
     "name" : "PTHREAD_MUTEX_ERRORCHECK"
    },
    {
     "enum_field_value" : 2,
     "name" : "PTHREAD_MUTEX_ERRORCHECK_NP"
    },
    {
     "enum_field_value" : 1,
     "name" : "PTHREAD_MUTEX_RECURSIVE_NP"
    },
    {
     "enum_field_value" : 0,
     "name" : "PTHREAD_MUTEX_DEFAULT"
    }
   ],
   "linker_set_key" : "_ZTI22$PTHREAD_MUTEX_DEFAULT",
   "name" : "(anonymous enum at bionic/libc/include/pthread.h:41:1)",
   "referenced_type" : "_ZTI22$PTHREAD_MUTEX_DEFAULT",
   "self_type" : "_ZTI22$PTHREAD_MUTEX_DEFAULT",
   "size" : 4,
   "source_file" : "bionic/libc/include/pthread.h",
   "underlying_type" : "_ZTIj"
  },
  {
   "alignment" : 4,
   "enum_fields" :
   [
    {
     "enum_field_value" : 0,
     "name" : "PTHREAD_RWLOCK_PREFER_READER_NP"
    },
    {
     "enum_field_value" : 1,
     "name" : "PTHREAD_RWLOCK_PREFER_WRITER_NONRECURSIVE_NP"
    }
   ],
   "linker_set_key" : "_ZTI32$PTHREAD_RWLOCK_PREFER_READER_NP",
   "name" : "(anonymous enum at bionic/libc/include/pthread.h:63:1)",
   "referenced_type" : "_ZTI32$PTHREAD_RWLOCK_PREFER_READER_NP",
   "self_type" : "_ZTI32$PTHREAD_RWLOCK_PREFER_READER_NP",
   "size" : 4,
   "source_file" : "bionic/libc/include/pthread.h",
   "underlying_type" : "_ZTIj"
  },
  {
   "alignment" : 4,
   "enum_fields" :
   [
    {
     "enum_field_value" : 0,
     "name" : "LOG_ID_MIN"
    },
    {
     "enum_field_value" : 0,
     "name" : "LOG_ID_MAIN"
    },
    {
     "enum_field_value" : 1,
     "name" : "LOG_ID_RADIO"
    },
    {
     "enum_field_value" : 2,
     "name" : "LOG_ID_EVENTS"
    },
    {
     "enum_field_value" : 3,
     "name" : "LOG_ID_SYSTEM"
    },
    {
     "enum_field_value" : 4,
     "name" : "LOG_ID_CRASH"
    },
    {
     "enum_field_value" : 5,
     "name" : "LOG_ID_STATS"
    },
    {
     "enum_field_value" : 6,
     "name" : "LOG_ID_SECURITY"
    },
    {
     "enum_field_value" : 7,
     "name" : "LOG_ID_KERNEL"
    },
    {
     "enum_field_value" : 8,
     "name" : "LOG_ID_MAX"
    },
    {
     "enum_field_value" : 2147483647,
     "name" : "LOG_ID_DEFAULT"
    }
   ],
   "linker_set_key" : "_ZTI6log_id",
   "name" : "log_id",
   "referenced_type" : "_ZTI6log_id",
   "self_type" : "_ZTI6log_id",
   "size" : 4,
   "source_file" : "system/logging/liblog/include/android/log.h",
   "underlying_type" : "_ZTIj"
  },
  {
   "access" : "private",
   "alignment" : 4,
   "enum_fields" :
   [
    {
     "enum_field_value" : 5,
     "name" : "std::__1::basic_string<char32_t, std::__1::char_traits<char32_t>, std::__1::allocator<char32_t>>::__min_cap"
    }
   ],
   "linker_set_key" : "_ZTINSt3__112basic_stringIDiNS_11char_traitsIDiEENS_9allocatorIDiEEE10$__min_capE",
   "name" : "std::basic_string<char32_t, char_traits<char32_t>, allocator<char32_t>>::(anonymous enum at external/libcxx/include/string:751:5)",
   "referenced_type" : "_ZTINSt3__112basic_stringIDiNS_11char_traitsIDiEENS_9allocatorIDiEEE10$__min_capE",
   "self_type" : "_ZTINSt3__112basic_stringIDiNS_11char_traitsIDiEENS_9allocatorIDiEEE10$__min_capE",
   "size" : 4,
   "source_file" : "external/libcxx/include/string",
   "underlying_type" : "_ZTIj"
  },
  {
   "access" : "private",
   "alignment" : 4,
   "enum_fields" :
   [
    {
     "enum_field_value" : 3,
     "name" : "std::__1::basic_string<char32_t, std::__1::char_traits<char32_t>, std::__1::allocator<char32_t>>::__n_words"
    }
   ],
   "linker_set_key" : "_ZTINSt3__112basic_stringIDiNS_11char_traitsIDiEENS_9allocatorIDiEEE10$__n_wordsE",
   "name" : "std::basic_string<char32_t, char_traits<char32_t>, allocator<char32_t>>::(anonymous enum at external/libcxx/include/string:768:5)",
   "referenced_type" : "_ZTINSt3__112basic_stringIDiNS_11char_traitsIDiEENS_9allocatorIDiEEE10$__n_wordsE",
   "self_type" : "_ZTINSt3__112basic_stringIDiNS_11char_traitsIDiEENS_9allocatorIDiEEE10$__n_wordsE",
   "size" : 4,
   "source_file" : "external/libcxx/include/string",
   "underlying_type" : "_ZTIj"
  },
  {
   "access" : "private",
   "alignment" : 4,
   "enum_fields" :
   [
    {
     "enum_field_value" : 16,
     "name" : "std::__1::basic_string<char32_t, std::__1::char_traits<char32_t>, std::__1::allocator<char32_t>>::__alignment"
    }
   ],
   "linker_set_key" : "_ZTINSt3__112basic_stringIDiNS_11char_traitsIDiEENS_9allocatorIDiEEE12$__alignmentE",
   "name" : "std::basic_string<char32_t, char_traits<char32_t>, allocator<char32_t>>::(anonymous enum at external/libcxx/include/string:1535:5)",
   "referenced_type" : "_ZTINSt3__112basic_stringIDiNS_11char_traitsIDiEENS_9allocatorIDiEEE12$__alignmentE",
   "self_type" : "_ZTINSt3__112basic_stringIDiNS_11char_traitsIDiEENS_9allocatorIDiEEE12$__alignmentE",
   "size" : 4,
   "source_file" : "external/libcxx/include/string",
   "underlying_type" : "_ZTIj"
  },
  {
   "access" : "private",
   "alignment" : 4,
   "enum_fields" :
   [
    {
     "enum_field_value" : 11,
     "name" : "std::__1::basic_string<char16_t, std::__1::char_traits<char16_t>, std::__1::allocator<char16_t>>::__min_cap"
    }
   ],
   "linker_set_key" : "_ZTINSt3__112basic_stringIDsNS_11char_traitsIDsEENS_9allocatorIDsEEE10$__min_capE",
   "name" : "std::basic_string<char16_t, char_traits<char16_t>, allocator<char16_t>>::(anonymous enum at external/libcxx/include/string:751:5)",
   "referenced_type" : "_ZTINSt3__112basic_stringIDsNS_11char_traitsIDsEENS_9allocatorIDsEEE10$__min_capE",
   "self_type" : "_ZTINSt3__112basic_stringIDsNS_11char_traitsIDsEENS_9allocatorIDsEEE10$__min_capE",
   "size" : 4,
   "source_file" : "external/libcxx/include/string",
   "underlying_type" : "_ZTIj"
  },
  {
   "access" : "private",
   "alignment" : 4,
   "enum_fields" :
   [
    {
     "enum_field_value" : 3,
     "name" : "std::__1::basic_string<char16_t, std::__1::char_traits<char16_t>, std::__1::allocator<char16_t>>::__n_words"
    }
   ],
   "linker_set_key" : "_ZTINSt3__112basic_stringIDsNS_11char_traitsIDsEENS_9allocatorIDsEEE10$__n_wordsE",
   "name" : "std::basic_string<char16_t, char_traits<char16_t>, allocator<char16_t>>::(anonymous enum at external/libcxx/include/string:768:5)",
   "referenced_type" : "_ZTINSt3__112basic_stringIDsNS_11char_traitsIDsEENS_9allocatorIDsEEE10$__n_wordsE",
   "self_type" : "_ZTINSt3__112basic_stringIDsNS_11char_traitsIDsEENS_9allocatorIDsEEE10$__n_wordsE",
   "size" : 4,
   "source_file" : "external/libcxx/include/string",
   "underlying_type" : "_ZTIj"
  },
  {
   "access" : "private",
   "alignment" : 4,
   "enum_fields" :
   [
    {
     "enum_field_value" : 16,
     "name" : "std::__1::basic_string<char16_t, std::__1::char_traits<char16_t>, std::__1::allocator<char16_t>>::__alignment"
    }
   ],
   "linker_set_key" : "_ZTINSt3__112basic_stringIDsNS_11char_traitsIDsEENS_9allocatorIDsEEE12$__alignmentE",
   "name" : "std::basic_string<char16_t, char_traits<char16_t>, allocator<char16_t>>::(anonymous enum at external/libcxx/include/string:1535:5)",
   "referenced_type" : "_ZTINSt3__112basic_stringIDsNS_11char_traitsIDsEENS_9allocatorIDsEEE12$__alignmentE",
   "self_type" : "_ZTINSt3__112basic_stringIDsNS_11char_traitsIDsEENS_9allocatorIDsEEE12$__alignmentE",
   "size" : 4,
   "source_file" : "external/libcxx/include/string",
   "underlying_type" : "_ZTIj"
  },
  {
   "access" : "private",
   "alignment" : 4,
   "enum_fields" :
   [
    {
     "enum_field_value" : 23,
     "name" : "std::__1::basic_string<char, std::__1::char_traits<char>, std::__1::allocator<char>>::__min_cap"
    }
   ],
   "linker_set_key" : "_ZTINSt3__112basic_stringIcNS_11char_traitsIcEENS_9allocatorIcEEE10$__min_capE",
   "name" : "std::basic_string<char>::(anonymous enum at external/libcxx/include/string:751:5)",
   "referenced_type" : "_ZTINSt3__112basic_stringIcNS_11char_traitsIcEENS_9allocatorIcEEE10$__min_capE",
   "self_type" : "_ZTINSt3__112basic_stringIcNS_11char_traitsIcEENS_9allocatorIcEEE10$__min_capE",
   "size" : 4,
   "source_file" : "external/libcxx/include/string",
   "underlying_type" : "_ZTIj"
  },
  {
   "access" : "private",
   "alignment" : 4,
   "enum_fields" :
   [
    {
     "enum_field_value" : 3,
     "name" : "std::__1::basic_string<char, std::__1::char_traits<char>, std::__1::allocator<char>>::__n_words"
    }
   ],
   "linker_set_key" : "_ZTINSt3__112basic_stringIcNS_11char_traitsIcEENS_9allocatorIcEEE10$__n_wordsE",
   "name" : "std::basic_string<char>::(anonymous enum at external/libcxx/include/string:768:5)",
   "referenced_type" : "_ZTINSt3__112basic_stringIcNS_11char_traitsIcEENS_9allocatorIcEEE10$__n_wordsE",
   "self_type" : "_ZTINSt3__112basic_stringIcNS_11char_traitsIcEENS_9allocatorIcEEE10$__n_wordsE",
   "size" : 4,
   "source_file" : "external/libcxx/include/string",
   "underlying_type" : "_ZTIj"
  },
  {
   "access" : "private",
   "alignment" : 4,
   "enum_fields" :
   [
    {
     "enum_field_value" : 16,
     "name" : "std::__1::basic_string<char, std::__1::char_traits<char>, std::__1::allocator<char>>::__alignment"
    }
   ],
   "linker_set_key" : "_ZTINSt3__112basic_stringIcNS_11char_traitsIcEENS_9allocatorIcEEE12$__alignmentE",
   "name" : "std::basic_string<char>::(anonymous enum at external/libcxx/include/string:1535:5)",
   "referenced_type" : "_ZTINSt3__112basic_stringIcNS_11char_traitsIcEENS_9allocatorIcEEE12$__alignmentE",
   "self_type" : "_ZTINSt3__112basic_stringIcNS_11char_traitsIcEENS_9allocatorIcEEE12$__alignmentE",
   "size" : 4,
   "source_file" : "external/libcxx/include/string",
   "underlying_type" : "_ZTIj"
  },
  {
   "access" : "private",
   "alignment" : 4,
   "enum_fields" :
   [
    {
     "enum_field_value" : 5,
     "name" : "std::__1::basic_string<wchar_t, std::__1::char_traits<wchar_t>, std::__1::allocator<wchar_t>>::__min_cap"
    }
   ],
   "linker_set_key" : "_ZTINSt3__112basic_stringIwNS_11char_traitsIwEENS_9allocatorIwEEE10$__min_capE",
   "name" : "std::basic_string<wchar_t>::(anonymous enum at external/libcxx/include/string:751:5)",
   "referenced_type" : "_ZTINSt3__112basic_stringIwNS_11char_traitsIwEENS_9allocatorIwEEE10$__min_capE",
   "self_type" : "_ZTINSt3__112basic_stringIwNS_11char_traitsIwEENS_9allocatorIwEEE10$__min_capE",
   "size" : 4,
   "source_file" : "external/libcxx/include/string",
   "underlying_type" : "_ZTIj"
  },
  {
   "access" : "private",
   "alignment" : 4,
   "enum_fields" :
   [
    {
     "enum_field_value" : 3,
     "name" : "std::__1::basic_string<wchar_t, std::__1::char_traits<wchar_t>, std::__1::allocator<wchar_t>>::__n_words"
    }
   ],
   "linker_set_key" : "_ZTINSt3__112basic_stringIwNS_11char_traitsIwEENS_9allocatorIwEEE10$__n_wordsE",
   "name" : "std::basic_string<wchar_t>::(anonymous enum at external/libcxx/include/string:768:5)",
   "referenced_type" : "_ZTINSt3__112basic_stringIwNS_11char_traitsIwEENS_9allocatorIwEEE10$__n_wordsE",
   "self_type" : "_ZTINSt3__112basic_stringIwNS_11char_traitsIwEENS_9allocatorIwEEE10$__n_wordsE",
   "size" : 4,
   "source_file" : "external/libcxx/include/string",
   "underlying_type" : "_ZTIj"
  },
  {
   "access" : "private",
   "alignment" : 4,
   "enum_fields" :
   [
    {
     "enum_field_value" : 16,
     "name" : "std::__1::basic_string<wchar_t, std::__1::char_traits<wchar_t>, std::__1::allocator<wchar_t>>::__alignment"
    }
   ],
   "linker_set_key" : "_ZTINSt3__112basic_stringIwNS_11char_traitsIwEENS_9allocatorIwEEE12$__alignmentE",
   "name" : "std::basic_string<wchar_t>::(anonymous enum at external/libcxx/include/string:1535:5)",
   "referenced_type" : "_ZTINSt3__112basic_stringIwNS_11char_traitsIwEENS_9allocatorIwEEE12$__alignmentE",
   "self_type" : "_ZTINSt3__112basic_stringIwNS_11char_traitsIwEENS_9allocatorIwEEE12$__alignmentE",
   "size" : 4,
   "source_file" : "external/libcxx/include/string",
   "underlying_type" : "_ZTIj"
  },
  {
   "alignment" : 4,
   "enum_fields" :
   [
    {
     "enum_field_value" : 0,
     "name" : "std::__1::memory_order_relaxed"
    },
    {
     "enum_field_value" : 1,
     "name" : "std::__1::memory_order_consume"
    },
    {
     "enum_field_value" : 2,
     "name" : "std::__1::memory_order_acquire"
    },
    {
     "enum_field_value" : 3,
     "name" : "std::__1::memory_order_release"
    },
    {
     "enum_field_value" : 4,
     "name" : "std::__1::memory_order_acq_rel"
    },
    {
     "enum_field_value" : 5,
     "name" : "std::__1::memory_order_seq_cst"
    }
   ],
   "linker_set_key" : "_ZTINSt3__112memory_orderE",
   "name" : "std::memory_order",
   "referenced_type" : "_ZTINSt3__112memory_orderE",
   "self_type" : "_ZTINSt3__112memory_orderE",
   "size" : 4,
   "source_file" : "external/libcxx/include/atomic",
   "underlying_type" : "_ZTIj"
  },
  {
   "alignment" : 4,
   "enum_fields" :
   [
    {
     "enum_field_value" : 0,
     "name" : "std::__1::pointer_safety::relaxed"
    },
    {
     "enum_field_value" : 1,
     "name" : "std::__1::pointer_safety::preferred"
    },
    {
     "enum_field_value" : 2,
     "name" : "std::__1::pointer_safety::strict"
    }
   ],
   "linker_set_key" : "_ZTINSt3__114pointer_safety4__lxE",
   "name" : "std::pointer_safety::__lx",
   "referenced_type" : "_ZTINSt3__114pointer_safety4__lxE",
   "self_type" : "_ZTINSt3__114pointer_safety4__lxE",
   "size" : 4,
   "source_file" : "external/libcxx/include/memory",
   "underlying_type" : "_ZTIj"
  },
  {
   "alignment" : 4,
   "enum_fields" :
   [
    {
     "enum_field_value" : -1,
     "name" : "std::__1::round_indeterminate"
    },
    {
     "enum_field_value" : 0,
     "name" : "std::__1::round_toward_zero"
    },
    {
     "enum_field_value" : 1,
     "name" : "std::__1::round_to_nearest"
    },
    {
     "enum_field_value" : 2,
     "name" : "std::__1::round_toward_infinity"
    },
    {
     "enum_field_value" : 3,
     "name" : "std::__1::round_toward_neg_infinity"
    }
   ],
   "linker_set_key" : "_ZTINSt3__117float_round_styleE",
   "name" : "std::float_round_style",
   "referenced_type" : "_ZTINSt3__117float_round_styleE",
   "self_type" : "_ZTINSt3__117float_round_styleE",
   "size" : 4,
   "source_file" : "external/libcxx/include/limits",
   "underlying_type" : "_ZTIi"
  },
  {
   "alignment" : 4,
   "enum_fields" :
   [
    {
     "enum_field_value" : -1,
     "name" : "std::__1::denorm_indeterminate"
    },
    {
     "enum_field_value" : 0,
     "name" : "std::__1::denorm_absent"
    },
    {
     "enum_field_value" : 1,
     "name" : "std::__1::denorm_present"
    }
   ],
   "linker_set_key" : "_ZTINSt3__118float_denorm_styleE",
   "name" : "std::float_denorm_style",
   "referenced_type" : "_ZTINSt3__118float_denorm_styleE",
   "self_type" : "_ZTINSt3__118float_denorm_styleE",
   "size" : 4,
   "source_file" : "external/libcxx/include/limits",
   "underlying_type" : "_ZTIi"
  },
  {
   "alignment" : 8,
   "linker_set_key" : "_ZTISt11align_val_t",
   "name" : "std::align_val_t",
   "referenced_type" : "_ZTISt11align_val_t",
   "self_type" : "_ZTISt11align_val_t",
   "size" : 8,
   "source_file" : "external/libcxx/include/new",
   "underlying_type" : "_ZTIm"
  },
  {
   "alignment" : 1,
   "linker_set_key" : "_ZTISt4byte",
   "name" : "std::byte",
   "referenced_type" : "_ZTISt4byte",
   "self_type" : "_ZTISt4byte",
   "size" : 1,
   "source_file" : "external/libcxx/include/cstddef",
   "underlying_type" : "_ZTIh"
  }
 ],
 "function_types" :
 [
  {
   "alignment" : 4,
   "linker_set_key" : "_ZTIFPvPKvE",
   "name" : "void *(const void *)",
   "parameters" :
   [
    {
     "referenced_type" : "_ZTIPKv"
    }
   ],
   "referenced_type" : "_ZTIFPvPKvE",
   "return_type" : "_ZTIPv",
   "self_type" : "_ZTIFPvPKvE",
   "source_file" : "external/libcxx/include/functional"
  },
  {
   "alignment" : 4,
   "linker_set_key" : "_ZTIFPvS_mPKvE",
   "name" : "void *(void *, unsigned long, const void *)",
   "parameters" :
   [
    {
     "referenced_type" : "_ZTIPv"
    },
    {
     "referenced_type" : "_ZTIm"
    },
    {
     "referenced_type" : "_ZTIPKv"
    }
   ],
   "referenced_type" : "_ZTIFPvS_mPKvE",
   "return_type" : "_ZTIPv",
   "self_type" : "_ZTIFPvS_mPKvE",
   "source_file" : "bionic/libc/include/malloc.h"
  },
  {
   "alignment" : 4,
   "linker_set_key" : "_ZTIFPvmPKvE",
   "name" : "void *(unsigned long, const void *)",
   "parameters" :
   [
    {
     "referenced_type" : "_ZTIm"
    },
    {
     "referenced_type" : "_ZTIPKv"
    }
   ],
   "referenced_type" : "_ZTIFPvmPKvE",
   "return_type" : "_ZTIPv",
   "self_type" : "_ZTIFPvmPKvE",
   "source_file" : "bionic/libc/include/malloc.h"
  },
  {
   "alignment" : 4,
   "linker_set_key" : "_ZTIFPvmmPKvE",
   "name" : "void *(unsigned long, unsigned long, const void *)",
   "parameters" :
   [
    {
     "referenced_type" : "_ZTIm"
    },
    {
     "referenced_type" : "_ZTIm"
    },
    {
     "referenced_type" : "_ZTIPKv"
    }
   ],
   "referenced_type" : "_ZTIFPvmmPKvE",
   "return_type" : "_ZTIPv",
   "self_type" : "_ZTIFPvmmPKvE",
   "source_file" : "bionic/libc/include/malloc.h"
  },
  {
   "alignment" : 4,
   "linker_set_key" : "_ZTIFv6sigvalE",
   "name" : "void (sigval)",
   "parameters" :
   [
    {
     "referenced_type" : "_ZTI6sigval"
    }
   ],
   "referenced_type" : "_ZTIFv6sigvalE",
   "return_type" : "_ZTIv",
   "self_type" : "_ZTIFv6sigvalE",
   "source_file" : "bionic/libc/kernel/uapi/asm-generic/siginfo.h"
  },
  {
   "alignment" : 4,
   "linker_set_key" : "_ZTIFvPvE",
   "name" : "void (void *)",
   "parameters" :
   [
    {
     "referenced_type" : "_ZTIPv"
    }
   ],
   "referenced_type" : "_ZTIFvPvE",
   "return_type" : "_ZTIv",
   "self_type" : "_ZTIFvPvE",
   "source_file" : "external/libcxx/include/functional"
  },
  {
   "alignment" : 4,
   "linker_set_key" : "_ZTIFvPvPKvE",
   "name" : "void (void *, const void *)",
   "parameters" :
   [
    {
     "referenced_type" : "_ZTIPv"
    },
    {
     "referenced_type" : "_ZTIPKv"
    }
   ],
   "referenced_type" : "_ZTIFvPvPKvE",
   "return_type" : "_ZTIv",
   "self_type" : "_ZTIFvPvPKvE",
   "source_file" : "bionic/libc/include/malloc.h"
  },
  {
   "alignment" : 4,
   "linker_set_key" : "_ZTIFvRKNSt3__119__libcpp_debug_infoEE",
   "name" : "void (const std::__1::__libcpp_debug_info &)",
   "parameters" :
   [
    {
     "referenced_type" : "_ZTIRKNSt3__119__libcpp_debug_infoE"
    }
   ],
   "referenced_type" : "_ZTIFvRKNSt3__119__libcpp_debug_infoEE",
   "return_type" : "_ZTIv",
   "self_type" : "_ZTIFvRKNSt3__119__libcpp_debug_infoEE",
   "source_file" : "external/libcxx/include/__debug"
  },
  {
   "alignment" : 4,
   "linker_set_key" : "_ZTIFviE",
   "name" : "void (int)",
   "parameters" :
   [
    {
     "referenced_type" : "_ZTIi"
    }
   ],
   "referenced_type" : "_ZTIFviE",
   "return_type" : "_ZTIv",
   "self_type" : "_ZTIFviE",
   "source_file" : "bionic/libc/kernel/uapi/asm-generic/signal.h"
  },
  {
   "alignment" : 4,
   "linker_set_key" : "_ZTIFviP7siginfoPvE",
   "name" : "void (int, siginfo *, void *)",
   "parameters" :
   [
    {
     "referenced_type" : "_ZTIi"
    },
    {
     "referenced_type" : "_ZTIP7siginfo"
    },
    {
     "referenced_type" : "_ZTIPv"
    }
   ],
   "referenced_type" : "_ZTIFviP7siginfoPvE",
   "return_type" : "_ZTIv",
   "self_type" : "_ZTIFviP7siginfoPvE",
   "source_file" : "bionic/libc/include/bits/signal_types.h"
  },
  {
   "alignment" : 4,
   "linker_set_key" : "_ZTIFvvE",
   "name" : "void ()",
   "referenced_type" : "_ZTIFvvE",
   "return_type" : "_ZTIv",
   "self_type" : "_ZTIFvvE",
   "source_file" : "bionic/libc/kernel/uapi/asm-generic/signal.h"
  }
 ],
 "functions" :
 [
  {
   "function_name" : "__bionic_memchr",
   "linker_set_key" : "_Z15__bionic_memchrPKvU17pass_object_size1im",
   "parameters" :
   [
    {
     "referenced_type" : "_ZTIKPKv"
    },
    {
     "referenced_type" : "_ZTIi"
    },
    {
     "referenced_type" : "_ZTIm"
    }
   ],
   "return_type" : "_ZTIPv",
   "source_file" : "bionic/libc/include/string.h"
  },
  {
   "function_name" : "__bionic_strchr",
   "linker_set_key" : "_Z15__bionic_strchrPKcU17pass_object_size1i",
   "parameters" :
   [
    {
     "referenced_type" : "_ZTIKPKc"
    },
    {
     "referenced_type" : "_ZTIi"
    }
   ],
   "return_type" : "_ZTIPc",
   "source_file" : "bionic/libc/include/string.h"
  },
  {
   "function_name" : "__bionic_strstr",
   "linker_set_key" : "_Z15__bionic_strstrPKcS0_",
   "parameters" :
   [
    {
     "referenced_type" : "_ZTIPKc"
    },
    {
     "referenced_type" : "_ZTIPKc"
    }
   ],
   "return_type" : "_ZTIPc",
   "source_file" : "bionic/libc/include/string.h"
  },
  {
   "function_name" : "__libcpp_memchr",
   "linker_set_key" : "_Z15__libcpp_memchrPKvim",
   "parameters" :
   [
    {
     "referenced_type" : "_ZTIPKv"
    },
    {
     "referenced_type" : "_ZTIi"
    },
    {
     "referenced_type" : "_ZTIm"
    }
   ],
   "return_type" : "_ZTIPv",
   "source_file" : "external/libcxx/include/string.h"
  },
  {
   "function_name" : "__libcpp_strchr",
   "linker_set_key" : "_Z15__libcpp_strchrPKci",
   "parameters" :
   [
    {
     "referenced_type" : "_ZTIPKc"
    },
    {
     "referenced_type" : "_ZTIi"
    }
   ],
   "return_type" : "_ZTIPc",
   "source_file" : "external/libcxx/include/string.h"
  },
  {
   "function_name" : "__libcpp_strstr",
   "linker_set_key" : "_Z15__libcpp_strstrPKcS0_",
   "parameters" :
   [
    {
     "referenced_type" : "_ZTIPKc"
    },
    {
     "referenced_type" : "_ZTIPKc"
    }
   ],
   "return_type" : "_ZTIPc",
   "source_file" : "external/libcxx/include/string.h"
  },
  {
   "function_name" : "__libcpp_wcschr",
   "linker_set_key" : "_Z15__libcpp_wcschrPKww",
   "parameters" :
   [
    {
     "referenced_type" : "_ZTIPKw"
    },
    {
     "referenced_type" : "_ZTIw"
    }
   ],
   "return_type" : "_ZTIPw",
   "source_file" : "external/libcxx/include/wchar.h"
  },
  {
   "function_name" : "__libcpp_wcsstr",
   "linker_set_key" : "_Z15__libcpp_wcsstrPKwS0_",
   "parameters" :
   [
    {
     "referenced_type" : "_ZTIPKw"
    },
    {
     "referenced_type" : "_ZTIPKw"
    }
   ],
   "return_type" : "_ZTIPw",
   "source_file" : "external/libcxx/include/wchar.h"
  },
  {
   "function_name" : "__bionic_strpbrk",
   "linker_set_key" : "_Z16__bionic_strpbrkPKcS0_",
   "parameters" :
   [
    {
     "referenced_type" : "_ZTIPKc"
    },
    {
     "referenced_type" : "_ZTIPKc"
    }
   ],
   "return_type" : "_ZTIPc",
   "source_file" : "bionic/libc/include/string.h"
  },
  {
   "function_name" : "__bionic_strrchr",
   "linker_set_key" : "_Z16__bionic_strrchrPKcU17pass_object_size1i",
   "parameters" :
   [
    {
     "referenced_type" : "_ZTIKPKc"
    },
    {
     "referenced_type" : "_ZTIi"
    }
   ],
   "return_type" : "_ZTIPc",
   "source_file" : "bionic/libc/include/string.h"
  },
  {
   "function_name" : "__libcpp_strpbrk",
   "linker_set_key" : "_Z16__libcpp_strpbrkPKcS0_",
   "parameters" :
   [
    {
     "referenced_type" : "_ZTIPKc"
    },
    {
     "referenced_type" : "_ZTIPKc"
    }
   ],
   "return_type" : "_ZTIPc",
   "source_file" : "external/libcxx/include/string.h"
  },
  {
   "function_name" : "__libcpp_strrchr",
   "linker_set_key" : "_Z16__libcpp_strrchrPKci",
   "parameters" :
   [
    {
     "referenced_type" : "_ZTIPKc"
    },
    {
     "referenced_type" : "_ZTIi"
    }
   ],
   "return_type" : "_ZTIPc",
   "source_file" : "external/libcxx/include/string.h"
  },
  {
   "function_name" : "__libcpp_wcspbrk",
   "linker_set_key" : "_Z16__libcpp_wcspbrkPKwS0_",
   "parameters" :
   [
    {
     "referenced_type" : "_ZTIPKw"
    },
    {
     "referenced_type" : "_ZTIPKw"
    }
   ],
   "return_type" : "_ZTIPw",
   "source_file" : "external/libcxx/include/wchar.h"
  },
  {
   "function_name" : "__libcpp_wcsrchr",
   "linker_set_key" : "_Z16__libcpp_wcsrchrPKww",
   "parameters" :
   [
    {
     "referenced_type" : "_ZTIPKw"
    },
    {
     "referenced_type" : "_ZTIw"
    }
   ],
   "return_type" : "_ZTIPw",
   "source_file" : "external/libcxx/include/wchar.h"
  },
  {
   "function_name" : "__libcpp_wmemchr",
   "linker_set_key" : "_Z16__libcpp_wmemchrPKwwm",
   "parameters" :
   [
    {
     "referenced_type" : "_ZTIPKw"
    },
    {
     "referenced_type" : "_ZTIw"
    },
    {
     "referenced_type" : "_ZTIm"
    }
   ],
   "return_type" : "_ZTIPw",
   "source_file" : "external/libcxx/include/wchar.h"
  },
  {
   "function_name" : "abs",
   "linker_set_key" : "_Z3absl",
   "parameters" :
   [
    {
     "referenced_type" : "_ZTIl"
    }
   ],
   "return_type" : "_ZTIl",
   "source_file" : "external/libcxx/include/stdlib.h"
  },
  {
   "function_name" : "abs",
   "linker_set_key" : "_Z3absx",
   "parameters" :
   [
    {
     "referenced_type" : "_ZTIx"
    }
   ],
   "return_type" : "_ZTIx",
   "source_file" : "external/libcxx/include/stdlib.h"
  },
  {
   "function_name" : "div",
   "linker_set_key" : "_Z3divll",
   "parameters" :
   [
    {
     "referenced_type" : "_ZTIl"
    },
    {
     "referenced_type" : "_ZTIl"
    }
   ],
   "return_type" : "_ZTI6ldiv_t",
   "source_file" : "external/libcxx/include/stdlib.h"
  },
  {
   "function_name" : "div",
   "linker_set_key" : "_Z3divxx",
   "parameters" :
   [
    {
     "referenced_type" : "_ZTIx"
    },
    {
     "referenced_type" : "_ZTIx"
    }
   ],
   "return_type" : "_ZTI7lldiv_t",
   "source_file" : "external/libcxx/include/stdlib.h"
  },
  {
   "function_name" : "memchr",
   "linker_set_key" : "_Z6memchrUa9enable_ifIXLb1EEEPKvim",
   "parameters" :
   [
    {
     "referenced_type" : "_ZTIPKv"
    },
    {
     "referenced_type" : "_ZTIi"
    },
    {
     "referenced_type" : "_ZTIm"
    }
   ],
   "return_type" : "_ZTIPKv",
   "source_file" : "external/libcxx/include/string.h"
  },
  {
   "function_name" : "memchr",
   "linker_set_key" : "_Z6memchrUa9enable_ifIXLb1EEEPvim",
   "parameters" :
   [
    {
     "referenced_type" : "_ZTIPv"
    },
    {
     "referenced_type" : "_ZTIi"
    },
    {
     "referenced_type" : "_ZTIm"
    }
   ],
   "return_type" : "_ZTIPv",
   "source_file" : "external/libcxx/include/string.h"
  },
  {
   "function_name" : "memchr",
   "linker_set_key" : "_Z6memchrUa9enable_ifIXLb1EEXLb1EEEPKvU17pass_object_size1im",
   "parameters" :
   [
    {
     "referenced_type" : "_ZTIKPKv"
    },
    {
     "referenced_type" : "_ZTIi"
    },
    {
     "referenced_type" : "_ZTIm"
    }
   ],
   "return_type" : "_ZTIPKv",
   "source_file" : "bionic/libc/include/string.h"
  },
  {
   "function_name" : "memchr",
   "linker_set_key" : "_Z6memchrUa9enable_ifIXLb1EEXLb1EEEPvU17pass_object_size1im",
   "parameters" :
   [
    {
     "referenced_type" : "_ZTIKPv"
    },
    {
     "referenced_type" : "_ZTIi"
    },
    {
     "referenced_type" : "_ZTIm"
    }
   ],
   "return_type" : "_ZTIPv",
   "source_file" : "bionic/libc/include/string.h"
  },
  {
   "function_name" : "strchr",
   "linker_set_key" : "_Z6strchrUa9enable_ifIXLb1EEEPKci",
   "parameters" :
   [
    {
     "referenced_type" : "_ZTIPKc"
    },
    {
     "referenced_type" : "_ZTIi"
    }
   ],
   "return_type" : "_ZTIPKc",
   "source_file" : "external/libcxx/include/string.h"
  },
  {
   "function_name" : "strchr",
   "linker_set_key" : "_Z6strchrUa9enable_ifIXLb1EEEPci",
   "parameters" :
   [
    {
     "referenced_type" : "_ZTIPc"
    },
    {
     "referenced_type" : "_ZTIi"
    }
   ],
   "return_type" : "_ZTIPc",
   "source_file" : "external/libcxx/include/string.h"
  },
  {
   "function_name" : "strchr",
   "linker_set_key" : "_Z6strchrUa9enable_ifIXLb1EEXLb1EEEPKcU17pass_object_size1i",
   "parameters" :
   [
    {
     "referenced_type" : "_ZTIKPKc"
    },
    {
     "referenced_type" : "_ZTIi"
    }
   ],
   "return_type" : "_ZTIPKc",
   "source_file" : "bionic/libc/include/string.h"
  },
  {
   "function_name" : "strchr",
   "linker_set_key" : "_Z6strchrUa9enable_ifIXLb1EEXLb1EEEPcU17pass_object_size1i",
   "parameters" :
   [
    {
     "referenced_type" : "_ZTIKPc"
    },
    {
     "referenced_type" : "_ZTIi"
    }
   ],
   "return_type" : "_ZTIPc",
   "source_file" : "bionic/libc/include/string.h"
  },
  {
   "function_name" : "strstr",
   "linker_set_key" : "_Z6strstrUa9enable_ifIXLb1EEEPKcS0_",
   "parameters" :
   [
    {
     "referenced_type" : "_ZTIPKc"
    },
    {
     "referenced_type" : "_ZTIPKc"
    }
   ],
   "return_type" : "_ZTIPKc",
   "source_file" : "external/libcxx/include/string.h"
  },
  {
   "function_name" : "strstr",
   "linker_set_key" : "_Z6strstrUa9enable_ifIXLb1EEEPcPKc",
   "parameters" :
   [
    {
     "referenced_type" : "_ZTIPc"
    },
    {
     "referenced_type" : "_ZTIPKc"
    }
   ],
   "return_type" : "_ZTIPc",
   "source_file" : "external/libcxx/include/string.h"
  },
  {
   "function_name" : "strstr",
   "linker_set_key" : "_Z6strstrUa9enable_ifIXLb1EEXLb1EEEPKcS0_",
   "parameters" :
   [
    {
     "referenced_type" : "_ZTIPKc"
    },
    {
     "referenced_type" : "_ZTIPKc"
    }
   ],
   "return_type" : "_ZTIPKc",
   "source_file" : "bionic/libc/include/string.h"
  },
  {
   "function_name" : "strstr",
   "linker_set_key" : "_Z6strstrUa9enable_ifIXLb1EEXLb1EEEPcPKc",
   "parameters" :
   [
    {
     "referenced_type" : "_ZTIPc"
    },
    {
     "referenced_type" : "_ZTIPKc"
    }
   ],
   "return_type" : "_ZTIPc",
   "source_file" : "bionic/libc/include/string.h"
  },
  {
   "function_name" : "wcschr",
   "linker_set_key" : "_Z6wcschrUa9enable_ifIXLb1EEEPKww",
   "parameters" :
   [
    {
     "referenced_type" : "_ZTIPKw"
    },
    {
     "referenced_type" : "_ZTIw"
    }
   ],
   "return_type" : "_ZTIPKw",
   "source_file" : "external/libcxx/include/wchar.h"
  },
  {
   "function_name" : "wcschr",
   "linker_set_key" : "_Z6wcschrUa9enable_ifIXLb1EEEPww",
   "parameters" :
   [
    {
     "referenced_type" : "_ZTIPw"
    },
    {
     "referenced_type" : "_ZTIw"
    }
   ],
   "return_type" : "_ZTIPw",
   "source_file" : "external/libcxx/include/wchar.h"
  },
  {
   "function_name" : "wcsstr",
   "linker_set_key" : "_Z6wcsstrUa9enable_ifIXLb1EEEPKwS0_",
   "parameters" :
   [
    {
     "referenced_type" : "_ZTIPKw"
    },
    {
     "referenced_type" : "_ZTIPKw"
    }
   ],
   "return_type" : "_ZTIPKw",
   "source_file" : "external/libcxx/include/wchar.h"
  },
  {
   "function_name" : "wcsstr",
   "linker_set_key" : "_Z6wcsstrUa9enable_ifIXLb1EEEPwPKw",
   "parameters" :
   [
    {
     "referenced_type" : "_ZTIPw"
    },
    {
     "referenced_type" : "_ZTIPKw"
    }
   ],
   "return_type" : "_ZTIPw",
   "source_file" : "external/libcxx/include/wchar.h"
  },
  {
   "function_name" : "strpbrk",
   "linker_set_key" : "_Z7strpbrkUa9enable_ifIXLb1EEEPKcS0_",
   "parameters" :
   [
    {
     "referenced_type" : "_ZTIPKc"
    },
    {
     "referenced_type" : "_ZTIPKc"
    }
   ],
   "return_type" : "_ZTIPKc",
   "source_file" : "external/libcxx/include/string.h"
  },
  {
   "function_name" : "strpbrk",
   "linker_set_key" : "_Z7strpbrkUa9enable_ifIXLb1EEEPcPKc",
   "parameters" :
   [
    {
     "referenced_type" : "_ZTIPc"
    },
    {
     "referenced_type" : "_ZTIPKc"
    }
   ],
   "return_type" : "_ZTIPc",
   "source_file" : "external/libcxx/include/string.h"
  },
  {
   "function_name" : "strpbrk",
   "linker_set_key" : "_Z7strpbrkUa9enable_ifIXLb1EEXLb1EEEPKcS0_",
   "parameters" :
   [
    {
     "referenced_type" : "_ZTIPKc"
    },
    {
     "referenced_type" : "_ZTIPKc"
    }
   ],
   "return_type" : "_ZTIPKc",
   "source_file" : "bionic/libc/include/string.h"
  },
  {
   "function_name" : "strpbrk",
   "linker_set_key" : "_Z7strpbrkUa9enable_ifIXLb1EEXLb1EEEPcPKc",
   "parameters" :
   [
    {
     "referenced_type" : "_ZTIPc"
    },
    {
     "referenced_type" : "_ZTIPKc"
    }
   ],
   "return_type" : "_ZTIPc",
   "source_file" : "bionic/libc/include/string.h"
  },
  {
   "function_name" : "strrchr",
   "linker_set_key" : "_Z7strrchrUa9enable_ifIXLb1EEEPKci",
   "parameters" :
   [
    {
     "referenced_type" : "_ZTIPKc"
    },
    {
     "referenced_type" : "_ZTIi"
    }
   ],
   "return_type" : "_ZTIPKc",
   "source_file" : "external/libcxx/include/string.h"
  },
  {
   "function_name" : "strrchr",
   "linker_set_key" : "_Z7strrchrUa9enable_ifIXLb1EEEPci",
   "parameters" :
   [
    {
     "referenced_type" : "_ZTIPc"
    },
    {
     "referenced_type" : "_ZTIi"
    }
   ],
   "return_type" : "_ZTIPc",
   "source_file" : "external/libcxx/include/string.h"
  },
  {
   "function_name" : "strrchr",
   "linker_set_key" : "_Z7strrchrUa9enable_ifIXLb1EEXLb1EEEPKcU17pass_object_size1i",
   "parameters" :
   [
    {
     "referenced_type" : "_ZTIKPKc"
    },
    {
     "referenced_type" : "_ZTIi"
    }
   ],
   "return_type" : "_ZTIPKc",
   "source_file" : "bionic/libc/include/string.h"
  },
  {
   "function_name" : "strrchr",
   "linker_set_key" : "_Z7strrchrUa9enable_ifIXLb1EEXLb1EEEPcU17pass_object_size1i",
   "parameters" :
   [
    {
     "referenced_type" : "_ZTIKPc"
    },
    {
     "referenced_type" : "_ZTIi"
    }
   ],
   "return_type" : "_ZTIPc",
   "source_file" : "bionic/libc/include/string.h"
  },
  {
   "function_name" : "wcspbrk",
   "linker_set_key" : "_Z7wcspbrkUa9enable_ifIXLb1EEEPKwS0_",
   "parameters" :
   [
    {
     "referenced_type" : "_ZTIPKw"
    },
    {
     "referenced_type" : "_ZTIPKw"
    }
   ],
   "return_type" : "_ZTIPKw",
   "source_file" : "external/libcxx/include/wchar.h"
  },
  {
   "function_name" : "wcspbrk",
   "linker_set_key" : "_Z7wcspbrkUa9enable_ifIXLb1EEEPwPKw",
   "parameters" :
   [
    {
     "referenced_type" : "_ZTIPw"
    },
    {
     "referenced_type" : "_ZTIPKw"
    }
   ],
   "return_type" : "_ZTIPw",
   "source_file" : "external/libcxx/include/wchar.h"
  },
  {
   "function_name" : "wcsrchr",
   "linker_set_key" : "_Z7wcsrchrUa9enable_ifIXLb1EEEPKww",
   "parameters" :
   [
    {
     "referenced_type" : "_ZTIPKw"
    },
    {
     "referenced_type" : "_ZTIw"
    }
   ],
   "return_type" : "_ZTIPKw",
   "source_file" : "external/libcxx/include/wchar.h"
  },
  {
   "function_name" : "wcsrchr",
   "linker_set_key" : "_Z7wcsrchrUa9enable_ifIXLb1EEEPww",
   "parameters" :
   [
    {
     "referenced_type" : "_ZTIPw"
    },
    {
     "referenced_type" : "_ZTIw"
    }
   ],
   "return_type" : "_ZTIPw",
   "source_file" : "external/libcxx/include/wchar.h"
  },
  {
   "function_name" : "wmemchr",
   "linker_set_key" : "_Z7wmemchrUa9enable_ifIXLb1EEEPKwwm",
   "parameters" :
   [
    {
     "referenced_type" : "_ZTIPKw"
    },
    {
     "referenced_type" : "_ZTIw"
    },
    {
     "referenced_type" : "_ZTIm"
    }
   ],
   "return_type" : "_ZTIPKw",
   "source_file" : "external/libcxx/include/wchar.h"
  },
  {
   "function_name" : "wmemchr",
   "linker_set_key" : "_Z7wmemchrUa9enable_ifIXLb1EEEPwwm",
   "parameters" :
   [
    {
     "referenced_type" : "_ZTIPw"
    },
    {
     "referenced_type" : "_ZTIw"
    },
    {
     "referenced_type" : "_ZTIm"
    }
   ],
   "return_type" : "_ZTIPw",
   "source_file" : "external/libcxx/include/wchar.h"
  },
  {
   "function_name" : "android::base::ParseInt",
   "linker_set_key" : "_ZN7android4base8ParseIntIiEEbPKcPT_S4_S4_",
   "parameters" :
   [
    {
     "referenced_type" : "_ZTIPKc"
    },
    {
     "referenced_type" : "_ZTIPi"
    },
    {
     "default_arg" : true,
     "referenced_type" : "_ZTIi"
    },
    {
     "default_arg" : true,
     "referenced_type" : "_ZTIi"
    }
   ],
   "return_type" : "_ZTIb",
   "source_file" : "system/libbase/include/android-base/parseint.h",
   "template_args" : [ "_ZTIi" ]
  },
  {
   "function_name" : "android::base::ParseInt",
   "linker_set_key" : "_ZN7android4base8ParseIntIlEEbPKcPT_S4_S4_",
   "parameters" :
   [
    {
     "referenced_type" : "_ZTIPKc"
    },
    {
     "referenced_type" : "_ZTIPl"
    },
    {
     "default_arg" : true,
     "referenced_type" : "_ZTIl"
    },
    {
     "default_arg" : true,
     "referenced_type" : "_ZTIl"
    }
   ],
   "return_type" : "_ZTIb",
   "source_file" : "system/libbase/include/android-base/parseint.h",
   "template_args" : [ "_ZTIl" ]
  },
  {
   "function_name" : "android::base::ParseUint",
   "linker_set_key" : "_ZN7android4base9ParseUintIjEEbPKcPT_S4_b",
   "parameters" :
   [
    {
     "referenced_type" : "_ZTIPKc"
    },
    {
     "referenced_type" : "_ZTIPj"
    },
    {
     "default_arg" : true,
     "referenced_type" : "_ZTIj"
    },
    {
     "default_arg" : true,
     "referenced_type" : "_ZTIb"
    }
   ],
   "return_type" : "_ZTIb",
   "source_file" : "system/libbase/include/android-base/parseint.h",
   "template_args" : [ "_ZTIj" ]
  },
  {
   "function_name" : "android::base::ParseUint",
   "linker_set_key" : "_ZN7android4base9ParseUintImEEbPKcPT_S4_b",
   "parameters" :
   [
    {
     "referenced_type" : "_ZTIPKc"
    },
    {
     "referenced_type" : "_ZTIPm"
    },
    {
     "default_arg" : true,
     "referenced_type" : "_ZTIm"
    },
    {
     "default_arg" : true,
     "referenced_type" : "_ZTIb"
    }
   ],
   "return_type" : "_ZTIb",
   "source_file" : "system/libbase/include/android-base/parseint.h",
   "template_args" : [ "_ZTIm" ]
  },
  {
   "function_name" : "android::sysprop::SetupWizardProperties::esim_cid_ignore",
   "linker_set_key" : "_ZN7android7sysprop21SetupWizardProperties15esim_cid_ignoreEv",
   "return_type" : "_ZTINSt3__16vectorINS_8optionalINS_12basic_stringIcNS_11char_traitsIcEENS_9allocatorIcEEEEEENS5_IS8_EEEE",
   "source_file" : "out/soong/.intermediates/system/libsysprop/srcs/libPlatformProperties/android_arm64_armv8-a_static_apex31/gen/sysprop/include/android/sysprop/SetupWizardProperties.sysprop.h"
  },
  {
   "function_name" : "android::sysprop::SetupWizardProperties::theme",
   "linker_set_key" : "_ZN7android7sysprop21SetupWizardProperties5themeERKNSt3__18optionalINS2_12basic_stringIcNS2_11char_traitsIcEENS2_9allocatorIcEEEEEE",
   "parameters" :
   [
    {
     "referenced_type" : "_ZTIRKNSt3__18optionalINS_12basic_stringIcNS_11char_traitsIcEENS_9allocatorIcEEEEEE"
    }
   ],
   "return_type" : "_ZTIb",
   "source_file" : "out/soong/.intermediates/system/libsysprop/srcs/libPlatformProperties/android_arm64_armv8-a_static_apex31/gen/sysprop/include/android/sysprop/SetupWizardProperties.sysprop.h"
  },
  {
   "function_name" : "android::sysprop::SetupWizardProperties::theme",
   "linker_set_key" : "_ZN7android7sysprop21SetupWizardProperties5themeEv",
   "return_type" : "_ZTINSt3__18optionalINS_12basic_stringIcNS_11char_traitsIcEENS_9allocatorIcEEEEEE",
   "source_file" : "out/soong/.intermediates/system/libsysprop/srcs/libPlatformProperties/android_arm64_armv8-a_static_apex31/gen/sysprop/include/android/sysprop/SetupWizardProperties.sysprop.h"
  },
  {
   "function_name" : "log_time::log_time",
   "linker_set_key" : "_ZN8log_timeC1ERK8timespec",
   "parameters" :
   [
    {
     "is_this_ptr" : true,
     "referenced_type" : "_ZTIP8log_time"
    },
    {
     "referenced_type" : "_ZTIRK8timespec"
    }
   ],
   "return_type" : "_ZTIv",
   "source_file" : "system/logging/liblog/include/log/log_time.h"
  },
  {
   "function_name" : "log_time::log_time",
   "linker_set_key" : "_ZN8log_timeC1Ei",
   "parameters" :
   [
    {
     "is_this_ptr" : true,
     "referenced_type" : "_ZTIP8log_time"
    },
    {
     "referenced_type" : "_ZTIi"
    }
   ],
   "return_type" : "_ZTIv",
   "source_file" : "system/logging/liblog/include/log/log_time.h"
  },
  {
   "function_name" : "log_time::log_time",
   "linker_set_key" : "_ZN8log_timeC1Ejj",
   "parameters" :
   [
    {
     "is_this_ptr" : true,
     "referenced_type" : "_ZTIP8log_time"
    },
    {
     "referenced_type" : "_ZTIj"
    },
    {
     "default_arg" : true,
     "referenced_type" : "_ZTIj"
    }
   ],
   "return_type" : "_ZTIv",
   "source_file" : "system/logging/liblog/include/log/log_time.h"
  },
  {
   "function_name" : "log_time::log_time",
   "linker_set_key" : "_ZN8log_timeC1Ev",
   "parameters" :
   [
    {
     "is_this_ptr" : true,
     "referenced_type" : "_ZTIP8log_time"
    }
   ],
   "return_type" : "_ZTIv",
   "source_file" : "system/logging/liblog/include/log/log_time.h"
  },
  {
   "function_name" : "log_time::log_time",
   "linker_set_key" : "_ZN8log_timeC2ERK8timespec",
   "parameters" :
   [
    {
     "is_this_ptr" : true,
     "referenced_type" : "_ZTIP8log_time"
    },
    {
     "referenced_type" : "_ZTIRK8timespec"
    }
   ],
   "return_type" : "_ZTIv",
   "source_file" : "system/logging/liblog/include/log/log_time.h"
  },
  {
   "function_name" : "log_time::log_time",
   "linker_set_key" : "_ZN8log_timeC2Ei",
   "parameters" :
   [
    {
     "is_this_ptr" : true,
     "referenced_type" : "_ZTIP8log_time"
    },
    {
     "referenced_type" : "_ZTIi"
    }
   ],
   "return_type" : "_ZTIv",
   "source_file" : "system/logging/liblog/include/log/log_time.h"
  },
  {
   "function_name" : "log_time::log_time",
   "linker_set_key" : "_ZN8log_timeC2Ejj",
   "parameters" :
   [
    {
     "is_this_ptr" : true,
     "referenced_type" : "_ZTIP8log_time"
    },
    {
     "referenced_type" : "_ZTIj"
    },
    {
     "default_arg" : true,
     "referenced_type" : "_ZTIj"
    }
   ],
   "return_type" : "_ZTIv",
   "source_file" : "system/logging/liblog/include/log/log_time.h"
  },
  {
   "function_name" : "log_time::log_time",
   "linker_set_key" : "_ZN8log_timeC2Ev",
   "parameters" :
   [
    {
     "is_this_ptr" : true,
     "referenced_type" : "_ZTIP8log_time"
    }
   ],
   "return_type" : "_ZTIv",
   "source_file" : "system/logging/liblog/include/log/log_time.h"
  },
  {
   "function_name" : "log_time::operator-=",
   "linker_set_key" : "_ZN8log_timemIERKS_",
   "parameters" :
   [
    {
     "is_this_ptr" : true,
     "referenced_type" : "_ZTIP8log_time"
    },
    {
     "referenced_type" : "_ZTIRK8log_time"
    }
   ],
   "return_type" : "_ZTI8log_time",
   "source_file" : "system/logging/liblog/include/log/log_time.h"
  },
  {
   "function_name" : "log_time::operator+=",
   "linker_set_key" : "_ZN8log_timepLERKS_",
   "parameters" :
   [
    {
     "is_this_ptr" : true,
     "referenced_type" : "_ZTIP8log_time"
    },
    {
     "referenced_type" : "_ZTIRK8log_time"
    }
   ],
   "return_type" : "_ZTI8log_time",
   "source_file" : "system/logging/liblog/include/log/log_time.h"
  },
  {
   "function_name" : "log_time::msec",
   "linker_set_key" : "_ZNK8log_time4msecEv",
   "parameters" :
   [
    {
     "is_this_ptr" : true,
     "referenced_type" : "_ZTIPK8log_time"
    }
   ],
   "return_type" : "_ZTIm",
   "source_file" : "system/logging/liblog/include/log/log_time.h"
  },
  {
   "function_name" : "log_time::nsec",
   "linker_set_key" : "_ZNK8log_time4nsecEv",
   "parameters" :
   [
    {
     "is_this_ptr" : true,
     "referenced_type" : "_ZTIPK8log_time"
    }
   ],
   "return_type" : "_ZTIm",
   "source_file" : "system/logging/liblog/include/log/log_time.h"
  },
  {
   "function_name" : "log_time::usec",
   "linker_set_key" : "_ZNK8log_time4usecEv",
   "parameters" :
   [
    {
     "is_this_ptr" : true,
     "referenced_type" : "_ZTIPK8log_time"
    }
   ],
   "return_type" : "_ZTIm",
   "source_file" : "system/logging/liblog/include/log/log_time.h"
  },
  {
   "function_name" : "log_time::operator==",
   "linker_set_key" : "_ZNK8log_timeeqERK8timespec",
   "parameters" :
   [
    {
     "is_this_ptr" : true,
     "referenced_type" : "_ZTIPK8log_time"
    },
    {
     "referenced_type" : "_ZTIRK8timespec"
    }
   ],
   "return_type" : "_ZTIb",
   "source_file" : "system/logging/liblog/include/log/log_time.h"
  },
  {
   "function_name" : "log_time::operator==",
   "linker_set_key" : "_ZNK8log_timeeqERKS_",
   "parameters" :
   [
    {
     "is_this_ptr" : true,
     "referenced_type" : "_ZTIPK8log_time"
    },
    {
     "referenced_type" : "_ZTIRK8log_time"
    }
   ],
   "return_type" : "_ZTIb",
   "source_file" : "system/logging/liblog/include/log/log_time.h"
  },
  {
   "function_name" : "log_time::operator>=",
   "linker_set_key" : "_ZNK8log_timegeERK8timespec",
   "parameters" :
   [
    {
     "is_this_ptr" : true,
     "referenced_type" : "_ZTIPK8log_time"
    },
    {
     "referenced_type" : "_ZTIRK8timespec"
    }
   ],
   "return_type" : "_ZTIb",
   "source_file" : "system/logging/liblog/include/log/log_time.h"
  },
  {
   "function_name" : "log_time::operator>=",
   "linker_set_key" : "_ZNK8log_timegeERKS_",
   "parameters" :
   [
    {
     "is_this_ptr" : true,
     "referenced_type" : "_ZTIPK8log_time"
    },
    {
     "referenced_type" : "_ZTIRK8log_time"
    }
   ],
   "return_type" : "_ZTIb",
   "source_file" : "system/logging/liblog/include/log/log_time.h"
  },
  {
   "function_name" : "log_time::operator>",
   "linker_set_key" : "_ZNK8log_timegtERK8timespec",
   "parameters" :
   [
    {
     "is_this_ptr" : true,
     "referenced_type" : "_ZTIPK8log_time"
    },
    {
     "referenced_type" : "_ZTIRK8timespec"
    }
   ],
   "return_type" : "_ZTIb",
   "source_file" : "system/logging/liblog/include/log/log_time.h"
  },
  {
   "function_name" : "log_time::operator>",
   "linker_set_key" : "_ZNK8log_timegtERKS_",
   "parameters" :
   [
    {
     "is_this_ptr" : true,
     "referenced_type" : "_ZTIPK8log_time"
    },
    {
     "referenced_type" : "_ZTIRK8log_time"
    }
   ],
   "return_type" : "_ZTIb",
   "source_file" : "system/logging/liblog/include/log/log_time.h"
  },
  {
   "function_name" : "log_time::operator<=",
   "linker_set_key" : "_ZNK8log_timeleERK8timespec",
   "parameters" :
   [
    {
     "is_this_ptr" : true,
     "referenced_type" : "_ZTIPK8log_time"
    },
    {
     "referenced_type" : "_ZTIRK8timespec"
    }
   ],
   "return_type" : "_ZTIb",
   "source_file" : "system/logging/liblog/include/log/log_time.h"
  },
  {
   "function_name" : "log_time::operator<=",
   "linker_set_key" : "_ZNK8log_timeleERKS_",
   "parameters" :
   [
    {
     "is_this_ptr" : true,
     "referenced_type" : "_ZTIPK8log_time"
    },
    {
     "referenced_type" : "_ZTIRK8log_time"
    }
   ],
   "return_type" : "_ZTIb",
   "source_file" : "system/logging/liblog/include/log/log_time.h"
  },
  {
   "function_name" : "log_time::operator<",
   "linker_set_key" : "_ZNK8log_timeltERK8timespec",
   "parameters" :
   [
    {
     "is_this_ptr" : true,
     "referenced_type" : "_ZTIPK8log_time"
    },
    {
     "referenced_type" : "_ZTIRK8timespec"
    }
   ],
   "return_type" : "_ZTIb",
   "source_file" : "system/logging/liblog/include/log/log_time.h"
  },
  {
   "function_name" : "log_time::operator<",
   "linker_set_key" : "_ZNK8log_timeltERKS_",
   "parameters" :
   [
    {
     "is_this_ptr" : true,
     "referenced_type" : "_ZTIPK8log_time"
    },
    {
     "referenced_type" : "_ZTIRK8log_time"
    }
   ],
   "return_type" : "_ZTIb",
   "source_file" : "system/logging/liblog/include/log/log_time.h"
  },
  {
   "function_name" : "log_time::operator-",
   "linker_set_key" : "_ZNK8log_timemiERKS_",
   "parameters" :
   [
    {
     "is_this_ptr" : true,
     "referenced_type" : "_ZTIPK8log_time"
    },
    {
     "referenced_type" : "_ZTIRK8log_time"
    }
   ],
   "return_type" : "_ZTI8log_time",
   "source_file" : "system/logging/liblog/include/log/log_time.h"
  },
  {
   "function_name" : "log_time::operator!=",
   "linker_set_key" : "_ZNK8log_timeneERK8timespec",
   "parameters" :
   [
    {
     "is_this_ptr" : true,
     "referenced_type" : "_ZTIPK8log_time"
    },
    {
     "referenced_type" : "_ZTIRK8timespec"
    }
   ],
   "return_type" : "_ZTIb",
   "source_file" : "system/logging/liblog/include/log/log_time.h"
  },
  {
   "function_name" : "log_time::operator!=",
   "linker_set_key" : "_ZNK8log_timeneERKS_",
   "parameters" :
   [
    {
     "is_this_ptr" : true,
     "referenced_type" : "_ZTIPK8log_time"
    },
    {
     "referenced_type" : "_ZTIRK8log_time"
    }
   ],
   "return_type" : "_ZTIb",
   "source_file" : "system/logging/liblog/include/log/log_time.h"
  },
  {
   "function_name" : "log_time::operator+",
   "linker_set_key" : "_ZNK8log_timeplERKS_",
   "parameters" :
   [
    {
     "is_this_ptr" : true,
     "referenced_type" : "_ZTIPK8log_time"
    },
    {
     "referenced_type" : "_ZTIRK8log_time"
    }
   ],
   "return_type" : "_ZTI8log_time",
   "source_file" : "system/logging/liblog/include/log/log_time.h"
  },
  {
   "function_name" : "std::__1::__optional_storage_base<std::__1::basic_string<char>, false>::__get",
   "linker_set_key" : "_ZNKRSt3__123__optional_storage_baseINS_12basic_stringIcNS_11char_traitsIcEENS_9allocatorIcEEEELb0EE5__getEv",
   "parameters" :
   [
    {
     "is_this_ptr" : true,
     "referenced_type" : "_ZTIPKNSt3__123__optional_storage_baseINS_12basic_stringIcNS_11char_traitsIcEENS_9allocatorIcEEEELb0EEE"
    }
   ],
   "return_type" : "_ZTIRKNSt3__112basic_stringIcNS_11char_traitsIcEENS_9allocatorIcEEEE",
   "source_file" : "external/libcxx/include/optional"
  },
  {
   "function_name" : "std::__1::__optional_storage_base<bool, false>::__get",
   "linker_set_key" : "_ZNKRSt3__123__optional_storage_baseIbLb0EE5__getEv",
   "parameters" :
   [
    {
     "is_this_ptr" : true,
     "referenced_type" : "_ZTIPKNSt3__123__optional_storage_baseIbLb0EEE"
    }
   ],
   "return_type" : "_ZTIRKb",
   "source_file" : "external/libcxx/include/optional"
  },
  {
   "function_name" : "std::__1::__optional_storage_base<double, false>::__get",
   "linker_set_key" : "_ZNKRSt3__123__optional_storage_baseIdLb0EE5__getEv",
   "parameters" :
   [
    {
     "is_this_ptr" : true,
     "referenced_type" : "_ZTIPKNSt3__123__optional_storage_baseIdLb0EEE"
    }
   ],
   "return_type" : "_ZTIRKd",
   "source_file" : "external/libcxx/include/optional"
  },
  {
   "function_name" : "std::__1::__optional_storage_base<int, false>::__get",
   "linker_set_key" : "_ZNKRSt3__123__optional_storage_baseIiLb0EE5__getEv",
   "parameters" :
   [
    {
     "is_this_ptr" : true,
     "referenced_type" : "_ZTIPKNSt3__123__optional_storage_baseIiLb0EEE"
    }
   ],
   "return_type" : "_ZTIRKi",
   "source_file" : "external/libcxx/include/optional"
  },
  {
   "function_name" : "std::__1::__optional_storage_base<unsigned int, false>::__get",
   "linker_set_key" : "_ZNKRSt3__123__optional_storage_baseIjLb0EE5__getEv",
   "parameters" :
   [
    {
     "is_this_ptr" : true,
     "referenced_type" : "_ZTIPKNSt3__123__optional_storage_baseIjLb0EEE"
    }
   ],
   "return_type" : "_ZTIRKj",
   "source_file" : "external/libcxx/include/optional"
  },
  {
   "function_name" : "std::__1::__optional_storage_base<long, false>::__get",
   "linker_set_key" : "_ZNKRSt3__123__optional_storage_baseIlLb0EE5__getEv",
   "parameters" :
   [
    {
     "is_this_ptr" : true,
     "referenced_type" : "_ZTIPKNSt3__123__optional_storage_baseIlLb0EEE"
    }
   ],
   "return_type" : "_ZTIRKl",
   "source_file" : "external/libcxx/include/optional"
  },
  {
   "function_name" : "std::__1::__optional_storage_base<unsigned long, false>::__get",
   "linker_set_key" : "_ZNKRSt3__123__optional_storage_baseImLb0EE5__getEv",
   "parameters" :
   [
    {
     "is_this_ptr" : true,
     "referenced_type" : "_ZTIPKNSt3__123__optional_storage_baseImLb0EEE"
    }
   ],
   "return_type" : "_ZTIRKm",
   "source_file" : "external/libcxx/include/optional"
  },
  {
   "function_name" : "std::__1::optional<bool>::operator*",
   "linker_set_key" : "_ZNKRSt3__18optionalIbEdeEv",
   "parameters" :
   [
    {
     "is_this_ptr" : true,
     "referenced_type" : "_ZTIPKNSt3__18optionalIbEE"
    }
   ],
   "return_type" : "_ZTIRKb",
   "source_file" : "external/libcxx/include/optional"
  },
  {
   "function_name" : "std::__1::optional<double>::operator*",
   "linker_set_key" : "_ZNKRSt3__18optionalIdEdeEv",
   "parameters" :
   [
    {
     "is_this_ptr" : true,
     "referenced_type" : "_ZTIPKNSt3__18optionalIdEE"
    }
   ],
   "return_type" : "_ZTIRKd",
   "source_file" : "external/libcxx/include/optional"
  },
  {
   "function_name" : "std::__1::optional<int>::operator*",
   "linker_set_key" : "_ZNKRSt3__18optionalIiEdeEv",
   "parameters" :
   [
    {
     "is_this_ptr" : true,
     "referenced_type" : "_ZTIPKNSt3__18optionalIiEE"
    }
   ],
   "return_type" : "_ZTIRKi",
   "source_file" : "external/libcxx/include/optional"
  },
  {
   "function_name" : "std::__1::optional<unsigned int>::operator*",
   "linker_set_key" : "_ZNKRSt3__18optionalIjEdeEv",
   "parameters" :
   [
    {
     "is_this_ptr" : true,
     "referenced_type" : "_ZTIPKNSt3__18optionalIjEE"
    }
   ],
   "return_type" : "_ZTIRKj",
   "source_file" : "external/libcxx/include/optional"
  },
  {
   "function_name" : "std::__1::optional<long>::operator*",
   "linker_set_key" : "_ZNKRSt3__18optionalIlEdeEv",
   "parameters" :
   [
    {
     "is_this_ptr" : true,
     "referenced_type" : "_ZTIPKNSt3__18optionalIlEE"
    }
   ],
   "return_type" : "_ZTIRKl",
   "source_file" : "external/libcxx/include/optional"
  },
  {
   "function_name" : "std::__1::optional<unsigned long>::operator*",
   "linker_set_key" : "_ZNKRSt3__18optionalImEdeEv",
   "parameters" :
   [
    {
     "is_this_ptr" : true,
     "referenced_type" : "_ZTIPKNSt3__18optionalImEE"
    }
   ],
   "return_type" : "_ZTIRKm",
   "source_file" : "external/libcxx/include/optional"
  },
  {
   "function_name" : "std::exception_ptr::operator bool",
   "linker_set_key" : "_ZNKSt13exception_ptrcvbEv",
   "parameters" :
   [
    {
     "is_this_ptr" : true,
     "referenced_type" : "_ZTIPKSt13exception_ptr"
    }
   ],
   "return_type" : "_ZTIb",
   "source_file" : "external/libcxx/include/exception"
  },
  {
   "function_name" : "std::initializer_list<bool>::end",
   "linker_set_key" : "_ZNKSt16initializer_listIbE3endEv",
   "parameters" :
   [
    {
     "is_this_ptr" : true,
     "referenced_type" : "_ZTIPKSt16initializer_listIbE"
    }
   ],
   "return_type" : "_ZTIPKb",
   "source_file" : "external/libcxx/include/initializer_list"
  },
  {
   "function_name" : "std::initializer_list<bool>::size",
   "linker_set_key" : "_ZNKSt16initializer_listIbE4sizeEv",
   "parameters" :
   [
    {
     "is_this_ptr" : true,
     "referenced_type" : "_ZTIPKSt16initializer_listIbE"
    }
   ],
   "return_type" : "_ZTIm",
   "source_file" : "external/libcxx/include/initializer_list"
  },
  {
   "function_name" : "std::initializer_list<bool>::begin",
   "linker_set_key" : "_ZNKSt16initializer_listIbE5beginEv",
   "parameters" :
   [
    {
     "is_this_ptr" : true,
     "referenced_type" : "_ZTIPKSt16initializer_listIbE"
    }
   ],
   "return_type" : "_ZTIPKb",
   "source_file" : "external/libcxx/include/initializer_list"
  },
  {
   "function_name" : "std::nested_exception::nested_ptr",
   "linker_set_key" : "_ZNKSt16nested_exception10nested_ptrEv",
   "parameters" :
   [
    {
     "is_this_ptr" : true,
     "referenced_type" : "_ZTIPKSt16nested_exception"
    }
   ],
   "return_type" : "_ZTISt13exception_ptr",
   "source_file" : "external/libcxx/include/exception"
  },
  {
   "access" : "private",
   "function_name" : "std::__1::basic_string<char32_t, std::__1::char_traits<char32_t>, std::__1::allocator<char32_t>>::__get_long_cap",
   "linker_set_key" : "_ZNKSt3__112basic_stringIDiNS_11char_traitsIDiEENS_9allocatorIDiEEE14__get_long_capEv",
   "parameters" :
   [
    {
     "is_this_ptr" : true,
     "referenced_type" : "_ZTIPKNSt3__112basic_stringIDiNS_11char_traitsIDiEENS_9allocatorIDiEEEE"
    }
   ],
   "return_type" : "_ZTIm",
   "source_file" : "external/libcxx/include/string"
  },
  {
   "access" : "private",
   "function_name" : "std::__1::basic_string<char32_t, std::__1::char_traits<char32_t>, std::__1::allocator<char32_t>>::__alloc",
   "linker_set_key" : "_ZNKSt3__112basic_stringIDiNS_11char_traitsIDiEENS_9allocatorIDiEEE7__allocEv",
   "parameters" :
   [
    {
     "is_this_ptr" : true,
     "referenced_type" : "_ZTIPKNSt3__112basic_stringIDiNS_11char_traitsIDiEENS_9allocatorIDiEEEE"
    }
   ],
   "return_type" : "_ZTIRKNSt3__19allocatorIDiEE",
   "source_file" : "external/libcxx/include/string"
  },
  {
   "function_name" : "std::__1::basic_string<char32_t, std::__1::char_traits<char32_t>, std::__1::allocator<char32_t>>::max_size",
   "linker_set_key" : "_ZNKSt3__112basic_stringIDiNS_11char_traitsIDiEENS_9allocatorIDiEEE8max_sizeEv",
   "parameters" :
   [
    {
     "is_this_ptr" : true,
     "referenced_type" : "_ZTIPKNSt3__112basic_stringIDiNS_11char_traitsIDiEENS_9allocatorIDiEEEE"
    }
   ],
   "return_type" : "_ZTIm",
   "source_file" : "external/libcxx/include/string"
  },
  {
   "function_name" : "std::__1::basic_string<char32_t, std::__1::char_traits<char32_t>, std::__1::allocator<char32_t>>::__is_long",
   "linker_set_key" : "_ZNKSt3__112basic_stringIDiNS_11char_traitsIDiEENS_9allocatorIDiEEE9__is_longEv",
   "parameters" :
   [
    {
     "is_this_ptr" : true,
     "referenced_type" : "_ZTIPKNSt3__112basic_stringIDiNS_11char_traitsIDiEENS_9allocatorIDiEEEE"
    }
   ],
   "return_type" : "_ZTIb",
   "source_file" : "external/libcxx/include/string"
  },
  {
   "access" : "private",
   "function_name" : "std::__1::basic_string<char16_t, std::__1::char_traits<char16_t>, std::__1::allocator<char16_t>>::__get_long_cap",
   "linker_set_key" : "_ZNKSt3__112basic_stringIDsNS_11char_traitsIDsEENS_9allocatorIDsEEE14__get_long_capEv",
   "parameters" :
   [
    {
     "is_this_ptr" : true,
     "referenced_type" : "_ZTIPKNSt3__112basic_stringIDsNS_11char_traitsIDsEENS_9allocatorIDsEEEE"
    }
   ],
   "return_type" : "_ZTIm",
   "source_file" : "external/libcxx/include/string"
  },
  {
   "access" : "private",
   "function_name" : "std::__1::basic_string<char16_t, std::__1::char_traits<char16_t>, std::__1::allocator<char16_t>>::__alloc",
   "linker_set_key" : "_ZNKSt3__112basic_stringIDsNS_11char_traitsIDsEENS_9allocatorIDsEEE7__allocEv",
   "parameters" :
   [
    {
     "is_this_ptr" : true,
     "referenced_type" : "_ZTIPKNSt3__112basic_stringIDsNS_11char_traitsIDsEENS_9allocatorIDsEEEE"
    }
   ],
   "return_type" : "_ZTIRKNSt3__19allocatorIDsEE",
   "source_file" : "external/libcxx/include/string"
  },
  {
   "function_name" : "std::__1::basic_string<char16_t, std::__1::char_traits<char16_t>, std::__1::allocator<char16_t>>::max_size",
   "linker_set_key" : "_ZNKSt3__112basic_stringIDsNS_11char_traitsIDsEENS_9allocatorIDsEEE8max_sizeEv",
   "parameters" :
   [
    {
     "is_this_ptr" : true,
     "referenced_type" : "_ZTIPKNSt3__112basic_stringIDsNS_11char_traitsIDsEENS_9allocatorIDsEEEE"
    }
   ],
   "return_type" : "_ZTIm",
   "source_file" : "external/libcxx/include/string"
  },
  {
   "function_name" : "std::__1::basic_string<char16_t, std::__1::char_traits<char16_t>, std::__1::allocator<char16_t>>::__is_long",
   "linker_set_key" : "_ZNKSt3__112basic_stringIDsNS_11char_traitsIDsEENS_9allocatorIDsEEE9__is_longEv",
   "parameters" :
   [
    {
     "is_this_ptr" : true,
     "referenced_type" : "_ZTIPKNSt3__112basic_stringIDsNS_11char_traitsIDsEENS_9allocatorIDsEEEE"
    }
   ],
   "return_type" : "_ZTIb",
   "source_file" : "external/libcxx/include/string"
  },
  {
   "access" : "private",
   "function_name" : "std::__1::basic_string<char, std::__1::char_traits<char>, std::__1::allocator<char>>::__get_pointer",
   "linker_set_key" : "_ZNKSt3__112basic_stringIcNS_11char_traitsIcEENS_9allocatorIcEEE13__get_pointerEv",
   "parameters" :
   [
    {
     "is_this_ptr" : true,
     "referenced_type" : "_ZTIPKNSt3__112basic_stringIcNS_11char_traitsIcEENS_9allocatorIcEEEE"
    }
   ],
   "return_type" : "_ZTIPKc",
   "source_file" : "external/libcxx/include/string"
  },
  {
   "access" : "private",
   "function_name" : "std::__1::basic_string<char, std::__1::char_traits<char>, std::__1::allocator<char>>::__get_long_cap",
   "linker_set_key" : "_ZNKSt3__112basic_stringIcNS_11char_traitsIcEENS_9allocatorIcEEE14__get_long_capEv",
   "parameters" :
   [
    {
     "is_this_ptr" : true,
     "referenced_type" : "_ZTIPKNSt3__112basic_stringIcNS_11char_traitsIcEENS_9allocatorIcEEEE"
    }
   ],
   "return_type" : "_ZTIm",
   "source_file" : "external/libcxx/include/string"
  },
  {
   "access" : "private",
   "function_name" : "std::__1::basic_string<char, std::__1::char_traits<char>, std::__1::allocator<char>>::__get_long_size",
   "linker_set_key" : "_ZNKSt3__112basic_stringIcNS_11char_traitsIcEENS_9allocatorIcEEE15__get_long_sizeEv",
   "parameters" :
   [
    {
     "is_this_ptr" : true,
     "referenced_type" : "_ZTIPKNSt3__112basic_stringIcNS_11char_traitsIcEENS_9allocatorIcEEEE"
    }
   ],
   "return_type" : "_ZTIm",
   "source_file" : "external/libcxx/include/string"
  },
  {
   "access" : "private",
   "function_name" : "std::__1::basic_string<char, std::__1::char_traits<char>, std::__1::allocator<char>>::__get_short_size",
   "linker_set_key" : "_ZNKSt3__112basic_stringIcNS_11char_traitsIcEENS_9allocatorIcEEE16__get_short_sizeEv",
   "parameters" :
   [
    {
     "is_this_ptr" : true,
     "referenced_type" : "_ZTIPKNSt3__112basic_stringIcNS_11char_traitsIcEENS_9allocatorIcEEEE"
    }
   ],
   "return_type" : "_ZTIm",
   "source_file" : "external/libcxx/include/string"
  },
  {
   "access" : "private",
   "function_name" : "std::__1::basic_string<char, std::__1::char_traits<char>, std::__1::allocator<char>>::__get_long_pointer",
   "linker_set_key" : "_ZNKSt3__112basic_stringIcNS_11char_traitsIcEENS_9allocatorIcEEE18__get_long_pointerEv",
   "parameters" :
   [
    {
     "is_this_ptr" : true,
     "referenced_type" : "_ZTIPKNSt3__112basic_stringIcNS_11char_traitsIcEENS_9allocatorIcEEEE"
    }
   ],
   "return_type" : "_ZTIPKc",
   "source_file" : "external/libcxx/include/string"
  },
  {
   "access" : "private",
   "function_name" : "std::__1::basic_string<char, std::__1::char_traits<char>, std::__1::allocator<char>>::__get_short_pointer",
   "linker_set_key" : "_ZNKSt3__112basic_stringIcNS_11char_traitsIcEENS_9allocatorIcEEE19__get_short_pointerEv",
   "parameters" :
   [
    {
     "is_this_ptr" : true,
     "referenced_type" : "_ZTIPKNSt3__112basic_stringIcNS_11char_traitsIcEENS_9allocatorIcEEEE"
    }
   ],
   "return_type" : "_ZTIPKc",
   "source_file" : "external/libcxx/include/string"
  },
  {
   "function_name" : "std::__1::basic_string<char, std::__1::char_traits<char>, std::__1::allocator<char>>::data",
   "linker_set_key" : "_ZNKSt3__112basic_stringIcNS_11char_traitsIcEENS_9allocatorIcEEE4dataEv",
   "parameters" :
   [
    {
     "is_this_ptr" : true,
     "referenced_type" : "_ZTIPKNSt3__112basic_stringIcNS_11char_traitsIcEENS_9allocatorIcEEEE"
    }
   ],
   "return_type" : "_ZTIPKc",
   "source_file" : "external/libcxx/include/string"
  },
  {
   "function_name" : "std::__1::basic_string<char, std::__1::char_traits<char>, std::__1::allocator<char>>::size",
   "linker_set_key" : "_ZNKSt3__112basic_stringIcNS_11char_traitsIcEENS_9allocatorIcEEE4sizeEv",
   "parameters" :
   [
    {
     "is_this_ptr" : true,
     "referenced_type" : "_ZTIPKNSt3__112basic_stringIcNS_11char_traitsIcEENS_9allocatorIcEEEE"
    }
   ],
   "return_type" : "_ZTIm",
   "source_file" : "external/libcxx/include/string"
  },
  {
   "function_name" : "std::__1::basic_string<char, std::__1::char_traits<char>, std::__1::allocator<char>>::c_str",
   "linker_set_key" : "_ZNKSt3__112basic_stringIcNS_11char_traitsIcEENS_9allocatorIcEEE5c_strEv",
   "parameters" :
   [
    {
     "is_this_ptr" : true,
     "referenced_type" : "_ZTIPKNSt3__112basic_stringIcNS_11char_traitsIcEENS_9allocatorIcEEEE"
    }
   ],
   "return_type" : "_ZTIPKc",
   "source_file" : "external/libcxx/include/string"
  },
  {
   "function_name" : "std::__1::basic_string<char, std::__1::char_traits<char>, std::__1::allocator<char>>::empty",
   "linker_set_key" : "_ZNKSt3__112basic_stringIcNS_11char_traitsIcEENS_9allocatorIcEEE5emptyEv",
   "parameters" :
   [
    {
     "is_this_ptr" : true,
     "referenced_type" : "_ZTIPKNSt3__112basic_stringIcNS_11char_traitsIcEENS_9allocatorIcEEEE"
    }
   ],
   "return_type" : "_ZTIb",
   "source_file" : "external/libcxx/include/string"
  },
  {
   "access" : "private",
   "function_name" : "std::__1::basic_string<char, std::__1::char_traits<char>, std::__1::allocator<char>>::__alloc",
   "linker_set_key" : "_ZNKSt3__112basic_stringIcNS_11char_traitsIcEENS_9allocatorIcEEE7__allocEv",
   "parameters" :
   [
    {
     "is_this_ptr" : true,
     "referenced_type" : "_ZTIPKNSt3__112basic_stringIcNS_11char_traitsIcEENS_9allocatorIcEEEE"
    }
   ],
   "return_type" : "_ZTIRKNSt3__19allocatorIcEE",
   "source_file" : "external/libcxx/include/string"
  },
  {
   "function_name" : "std::__1::basic_string<char, std::__1::char_traits<char>, std::__1::allocator<char>>::max_size",
   "linker_set_key" : "_ZNKSt3__112basic_stringIcNS_11char_traitsIcEENS_9allocatorIcEEE8max_sizeEv",
   "parameters" :
   [
    {
     "is_this_ptr" : true,
     "referenced_type" : "_ZTIPKNSt3__112basic_stringIcNS_11char_traitsIcEENS_9allocatorIcEEEE"
    }
   ],
   "return_type" : "_ZTIm",
   "source_file" : "external/libcxx/include/string"
  },
  {
   "function_name" : "std::__1::basic_string<char, std::__1::char_traits<char>, std::__1::allocator<char>>::__is_long",
   "linker_set_key" : "_ZNKSt3__112basic_stringIcNS_11char_traitsIcEENS_9allocatorIcEEE9__is_longEv",
   "parameters" :
   [
    {
     "is_this_ptr" : true,
     "referenced_type" : "_ZTIPKNSt3__112basic_stringIcNS_11char_traitsIcEENS_9allocatorIcEEEE"
    }
   ],
   "return_type" : "_ZTIb",
   "source_file" : "external/libcxx/include/string"
  },
  {
   "access" : "private",
   "function_name" : "std::__1::basic_string<wchar_t, std::__1::char_traits<wchar_t>, std::__1::allocator<wchar_t>>::__get_long_cap",
   "linker_set_key" : "_ZNKSt3__112basic_stringIwNS_11char_traitsIwEENS_9allocatorIwEEE14__get_long_capEv",
   "parameters" :
   [
    {
     "is_this_ptr" : true,
     "referenced_type" : "_ZTIPKNSt3__112basic_stringIwNS_11char_traitsIwEENS_9allocatorIwEEEE"
    }
   ],
   "return_type" : "_ZTIm",
   "source_file" : "external/libcxx/include/string"
  },
  {
   "access" : "private",
   "function_name" : "std::__1::basic_string<wchar_t, std::__1::char_traits<wchar_t>, std::__1::allocator<wchar_t>>::__alloc",
   "linker_set_key" : "_ZNKSt3__112basic_stringIwNS_11char_traitsIwEENS_9allocatorIwEEE7__allocEv",
   "parameters" :
   [
    {
     "is_this_ptr" : true,
     "referenced_type" : "_ZTIPKNSt3__112basic_stringIwNS_11char_traitsIwEENS_9allocatorIwEEEE"
    }
   ],
   "return_type" : "_ZTIRKNSt3__19allocatorIwEE",
   "source_file" : "external/libcxx/include/string"
  },
  {
   "function_name" : "std::__1::basic_string<wchar_t, std::__1::char_traits<wchar_t>, std::__1::allocator<wchar_t>>::max_size",
   "linker_set_key" : "_ZNKSt3__112basic_stringIwNS_11char_traitsIwEENS_9allocatorIwEEE8max_sizeEv",
   "parameters" :
   [
    {
     "is_this_ptr" : true,
     "referenced_type" : "_ZTIPKNSt3__112basic_stringIwNS_11char_traitsIwEENS_9allocatorIwEEEE"
    }
   ],
   "return_type" : "_ZTIm",
   "source_file" : "external/libcxx/include/string"
  },
  {
   "function_name" : "std::__1::basic_string<wchar_t, std::__1::char_traits<wchar_t>, std::__1::allocator<wchar_t>>::__is_long",
   "linker_set_key" : "_ZNKSt3__112basic_stringIwNS_11char_traitsIwEENS_9allocatorIwEEE9__is_longEv",
   "parameters" :
   [
    {
     "is_this_ptr" : true,
     "referenced_type" : "_ZTIPKNSt3__112basic_stringIwNS_11char_traitsIwEENS_9allocatorIwEEEE"
    }
   ],
   "return_type" : "_ZTIb",
   "source_file" : "external/libcxx/include/string"
  },
  {
   "function_name" : "std::__1::__scalar_hash<std::__1::_PairT, 2>::operator()",
   "linker_set_key" : "_ZNKSt3__113__scalar_hashINS_6_PairTELm2EEclES1_",
   "parameters" :
   [
    {
     "is_this_ptr" : true,
     "referenced_type" : "_ZTIPKNSt3__113__scalar_hashINS_6_PairTELm2EEE"
    },
    {
     "referenced_type" : "_ZTINSt3__16_PairTE"
    }
   ],
   "return_type" : "_ZTIm",
   "source_file" : "external/libcxx/include/utility"
  },
  {
   "function_name" : "std::__1::__scalar_hash<double, 1>::operator()",
   "linker_set_key" : "_ZNKSt3__113__scalar_hashIdLm1EEclEd",
   "parameters" :
   [
    {
     "is_this_ptr" : true,
     "referenced_type" : "_ZTIPKNSt3__113__scalar_hashIdLm1EEE"
    },
    {
     "referenced_type" : "_ZTId"
    }
   ],
   "return_type" : "_ZTIm",
   "source_file" : "external/libcxx/include/utility"
  },
  {
   "function_name" : "std::__1::__scalar_hash<long double, 2>::operator()",
   "linker_set_key" : "_ZNKSt3__113__scalar_hashIeLm2EEclEe",
   "parameters" :
   [
    {
     "is_this_ptr" : true,
     "referenced_type" : "_ZTIPKNSt3__113__scalar_hashIeLm2EEE"
    },
    {
     "referenced_type" : "_ZTIe"
    }
   ],
   "return_type" : "_ZTIm",
   "source_file" : "external/libcxx/include/utility"
  },
  {
   "function_name" : "std::__1::__scalar_hash<float, 0>::operator()",
   "linker_set_key" : "_ZNKSt3__113__scalar_hashIfLm0EEclEf",
   "parameters" :
   [
    {
     "is_this_ptr" : true,
     "referenced_type" : "_ZTIPKNSt3__113__scalar_hashIfLm0EEE"
    },
    {
     "referenced_type" : "_ZTIf"
    }
   ],
   "return_type" : "_ZTIm",
   "source_file" : "external/libcxx/include/utility"
  },
  {
   "access" : "protected",
   "function_name" : "std::__1::__vector_base<std::__1::optional<std::__1::basic_string<char>>, std::__1::allocator<std::__1::optional<std::__1::basic_string<char>>>>::__alloc",
   "linker_set_key" : "_ZNKSt3__113__vector_baseINS_8optionalINS_12basic_stringIcNS_11char_traitsIcEENS_9allocatorIcEEEEEENS5_IS8_EEE7__allocEv",
   "parameters" :
   [
    {
     "is_this_ptr" : true,
     "referenced_type" : "_ZTIPKNSt3__113__vector_baseINS_8optionalINS_12basic_stringIcNS_11char_traitsIcEENS_9allocatorIcEEEEEENS5_IS8_EEEE"
    }
   ],
   "return_type" : "_ZTIRKNSt3__19allocatorINS_8optionalINS_12basic_stringIcNS_11char_traitsIcEENS0_IcEEEEEEEE",
   "source_file" : "external/libcxx/include/vector"
  },
  {
   "access" : "protected",
   "function_name" : "std::__1::__vector_base<std::__1::optional<std::__1::basic_string<char>>, std::__1::allocator<std::__1::optional<std::__1::basic_string<char>>>>::capacity",
   "linker_set_key" : "_ZNKSt3__113__vector_baseINS_8optionalINS_12basic_stringIcNS_11char_traitsIcEENS_9allocatorIcEEEEEENS5_IS8_EEE8capacityEv",
   "parameters" :
   [
    {
     "is_this_ptr" : true,
     "referenced_type" : "_ZTIPKNSt3__113__vector_baseINS_8optionalINS_12basic_stringIcNS_11char_traitsIcEENS_9allocatorIcEEEEEENS5_IS8_EEEE"
    }
   ],
   "return_type" : "_ZTIm",
   "source_file" : "external/libcxx/include/vector"
  },
  {
   "access" : "protected",
   "function_name" : "std::__1::__vector_base<std::__1::optional<std::__1::basic_string<char>>, std::__1::allocator<std::__1::optional<std::__1::basic_string<char>>>>::__end_cap",
   "linker_set_key" : "_ZNKSt3__113__vector_baseINS_8optionalINS_12basic_stringIcNS_11char_traitsIcEENS_9allocatorIcEEEEEENS5_IS8_EEE9__end_capEv",
   "parameters" :
   [
    {
     "is_this_ptr" : true,
     "referenced_type" : "_ZTIPKNSt3__113__vector_baseINS_8optionalINS_12basic_stringIcNS_11char_traitsIcEENS_9allocatorIcEEEEEENS5_IS8_EEEE"
    }
   ],
   "return_type" : "_ZTIRKPNSt3__18optionalINS_12basic_stringIcNS_11char_traitsIcEENS_9allocatorIcEEEEEE",
   "source_file" : "external/libcxx/include/vector"
  },
  {
   "function_name" : "std::__1::__shared_count::use_count",
   "linker_set_key" : "_ZNKSt3__114__shared_count9use_countEv",
   "parameters" :
   [
    {
     "is_this_ptr" : true,
     "referenced_type" : "_ZTIPKNSt3__114__shared_countE"
    }
   ],
   "return_type" : "_ZTIl",
   "source_file" : "external/libcxx/include/memory"
  },
  {
   "function_name" : "std::__1::__split_buffer<std::__1::optional<std::__1::basic_string<char>>, std::__1::allocator<std::__1::optional<std::__1::basic_string<char>>> &>::capacity",
   "linker_set_key" : "_ZNKSt3__114__split_bufferINS_8optionalINS_12basic_stringIcNS_11char_traitsIcEENS_9allocatorIcEEEEEERNS5_IS8_EEE8capacityEv",
   "parameters" :
   [
    {
     "is_this_ptr" : true,
     "referenced_type" : "_ZTIPKNSt3__114__split_bufferINS_8optionalINS_12basic_stringIcNS_11char_traitsIcEENS_9allocatorIcEEEEEERNS5_IS8_EEEE"
    }
   ],
   "return_type" : "_ZTIm",
   "source_file" : "external/libcxx/include/__split_buffer"
  },
  {
   "function_name" : "std::__1::__split_buffer<std::__1::optional<std::__1::basic_string<char>>, std::__1::allocator<std::__1::optional<std::__1::basic_string<char>>> &>::__end_cap",
   "linker_set_key" : "_ZNKSt3__114__split_bufferINS_8optionalINS_12basic_stringIcNS_11char_traitsIcEENS_9allocatorIcEEEEEERNS5_IS8_EEE9__end_capEv",
   "parameters" :
   [
    {
     "is_this_ptr" : true,
     "referenced_type" : "_ZTIPKNSt3__114__split_bufferINS_8optionalINS_12basic_stringIcNS_11char_traitsIcEENS_9allocatorIcEEEEEERNS5_IS8_EEEE"
    }
   ],
   "return_type" : "_ZTIRKPNSt3__18optionalINS_12basic_stringIcNS_11char_traitsIcEENS_9allocatorIcEEEEEE",
   "source_file" : "external/libcxx/include/__split_buffer"
  },
  {
   "function_name" : "std::__1::pointer_safety::operator int",
   "linker_set_key" : "_ZNKSt3__114pointer_safetycviEv",
   "parameters" :
   [
    {
     "is_this_ptr" : true,
     "referenced_type" : "_ZTIPKNSt3__114pointer_safetyE"
    }
   ],
   "return_type" : "_ZTIi",
   "source_file" : "external/libcxx/include/memory"
  },
  {
   "function_name" : "std::__1::__compressed_pair<std::__1::basic_string<char32_t, std::__1::char_traits<char32_t>, std::__1::allocator<char32_t>>::__rep, std::__1::allocator<char32_t>>::first",
   "linker_set_key" : "_ZNKSt3__117__compressed_pairINS_12basic_stringIDiNS_11char_traitsIDiEENS_9allocatorIDiEEE5__repES5_E5firstEv",
   "parameters" :
   [
    {
     "is_this_ptr" : true,
     "referenced_type" : "_ZTIPKNSt3__117__compressed_pairINS_12basic_stringIDiNS_11char_traitsIDiEENS_9allocatorIDiEEE5__repES5_EE"
    }
   ],
   "return_type" : "_ZTIRKNSt3__112basic_stringIDiNS_11char_traitsIDiEENS_9allocatorIDiEEE5__repE",
   "source_file" : "external/libcxx/include/memory"
  },
  {
   "function_name" : "std::__1::__compressed_pair<std::__1::basic_string<char32_t, std::__1::char_traits<char32_t>, std::__1::allocator<char32_t>>::__rep, std::__1::allocator<char32_t>>::second",
   "linker_set_key" : "_ZNKSt3__117__compressed_pairINS_12basic_stringIDiNS_11char_traitsIDiEENS_9allocatorIDiEEE5__repES5_E6secondEv",
   "parameters" :
   [
    {
     "is_this_ptr" : true,
     "referenced_type" : "_ZTIPKNSt3__117__compressed_pairINS_12basic_stringIDiNS_11char_traitsIDiEENS_9allocatorIDiEEE5__repES5_EE"
    }
   ],
   "return_type" : "_ZTIRKNSt3__19allocatorIDiEE",
   "source_file" : "external/libcxx/include/memory"
  },
  {
   "function_name" : "std::__1::__compressed_pair<std::__1::basic_string<char16_t, std::__1::char_traits<char16_t>, std::__1::allocator<char16_t>>::__rep, std::__1::allocator<char16_t>>::first",
   "linker_set_key" : "_ZNKSt3__117__compressed_pairINS_12basic_stringIDsNS_11char_traitsIDsEENS_9allocatorIDsEEE5__repES5_E5firstEv",
   "parameters" :
   [
    {
     "is_this_ptr" : true,
     "referenced_type" : "_ZTIPKNSt3__117__compressed_pairINS_12basic_stringIDsNS_11char_traitsIDsEENS_9allocatorIDsEEE5__repES5_EE"
    }
   ],
   "return_type" : "_ZTIRKNSt3__112basic_stringIDsNS_11char_traitsIDsEENS_9allocatorIDsEEE5__repE",
   "source_file" : "external/libcxx/include/memory"
  },
  {
   "function_name" : "std::__1::__compressed_pair<std::__1::basic_string<char16_t, std::__1::char_traits<char16_t>, std::__1::allocator<char16_t>>::__rep, std::__1::allocator<char16_t>>::second",
   "linker_set_key" : "_ZNKSt3__117__compressed_pairINS_12basic_stringIDsNS_11char_traitsIDsEENS_9allocatorIDsEEE5__repES5_E6secondEv",
   "parameters" :
   [
    {
     "is_this_ptr" : true,
     "referenced_type" : "_ZTIPKNSt3__117__compressed_pairINS_12basic_stringIDsNS_11char_traitsIDsEENS_9allocatorIDsEEE5__repES5_EE"
    }
   ],
   "return_type" : "_ZTIRKNSt3__19allocatorIDsEE",
   "source_file" : "external/libcxx/include/memory"
  },
  {
   "function_name" : "std::__1::__compressed_pair<std::__1::basic_string<char, std::__1::char_traits<char>, std::__1::allocator<char>>::__rep, std::__1::allocator<char>>::first",
   "linker_set_key" : "_ZNKSt3__117__compressed_pairINS_12basic_stringIcNS_11char_traitsIcEENS_9allocatorIcEEE5__repES5_E5firstEv",
   "parameters" :
   [
    {
     "is_this_ptr" : true,
     "referenced_type" : "_ZTIPKNSt3__117__compressed_pairINS_12basic_stringIcNS_11char_traitsIcEENS_9allocatorIcEEE5__repES5_EE"
    }
   ],
   "return_type" : "_ZTIRKNSt3__112basic_stringIcNS_11char_traitsIcEENS_9allocatorIcEEE5__repE",
   "source_file" : "external/libcxx/include/memory"
  },
  {
   "function_name" : "std::__1::__compressed_pair<std::__1::basic_string<char, std::__1::char_traits<char>, std::__1::allocator<char>>::__rep, std::__1::allocator<char>>::second",
   "linker_set_key" : "_ZNKSt3__117__compressed_pairINS_12basic_stringIcNS_11char_traitsIcEENS_9allocatorIcEEE5__repES5_E6secondEv",
   "parameters" :
   [
    {
     "is_this_ptr" : true,
     "referenced_type" : "_ZTIPKNSt3__117__compressed_pairINS_12basic_stringIcNS_11char_traitsIcEENS_9allocatorIcEEE5__repES5_EE"
    }
   ],
   "return_type" : "_ZTIRKNSt3__19allocatorIcEE",
   "source_file" : "external/libcxx/include/memory"
  },
  {
   "function_name" : "std::__1::__compressed_pair<std::__1::basic_string<wchar_t, std::__1::char_traits<wchar_t>, std::__1::allocator<wchar_t>>::__rep, std::__1::allocator<wchar_t>>::first",
   "linker_set_key" : "_ZNKSt3__117__compressed_pairINS_12basic_stringIwNS_11char_traitsIwEENS_9allocatorIwEEE5__repES5_E5firstEv",
   "parameters" :
   [
    {
     "is_this_ptr" : true,
     "referenced_type" : "_ZTIPKNSt3__117__compressed_pairINS_12basic_stringIwNS_11char_traitsIwEENS_9allocatorIwEEE5__repES5_EE"
    }
   ],
   "return_type" : "_ZTIRKNSt3__112basic_stringIwNS_11char_traitsIwEENS_9allocatorIwEEE5__repE",
   "source_file" : "external/libcxx/include/memory"
  },
  {
   "function_name" : "std::__1::__compressed_pair<std::__1::basic_string<wchar_t, std::__1::char_traits<wchar_t>, std::__1::allocator<wchar_t>>::__rep, std::__1::allocator<wchar_t>>::second",
   "linker_set_key" : "_ZNKSt3__117__compressed_pairINS_12basic_stringIwNS_11char_traitsIwEENS_9allocatorIwEEE5__repES5_E6secondEv",
   "parameters" :
   [
    {
     "is_this_ptr" : true,
     "referenced_type" : "_ZTIPKNSt3__117__compressed_pairINS_12basic_stringIwNS_11char_traitsIwEENS_9allocatorIwEEE5__repES5_EE"
    }
   ],
   "return_type" : "_ZTIRKNSt3__19allocatorIwEE",
   "source_file" : "external/libcxx/include/memory"
  },
  {
   "function_name" : "std::__1::__compressed_pair<std::__1::optional<std::__1::basic_string<char>> *, std::__1::allocator<std::__1::optional<std::__1::basic_string<char>>>>::first",
   "linker_set_key" : "_ZNKSt3__117__compressed_pairIPNS_8optionalINS_12basic_stringIcNS_11char_traitsIcEENS_9allocatorIcEEEEEENS5_IS8_EEE5firstEv",
   "parameters" :
   [
    {
     "is_this_ptr" : true,
     "referenced_type" : "_ZTIPKNSt3__117__compressed_pairIPNS_8optionalINS_12basic_stringIcNS_11char_traitsIcEENS_9allocatorIcEEEEEENS5_IS8_EEEE"
    }
   ],
   "return_type" : "_ZTIRKPNSt3__18optionalINS_12basic_stringIcNS_11char_traitsIcEENS_9allocatorIcEEEEEE",
   "source_file" : "external/libcxx/include/memory"
  },
  {
   "function_name" : "std::__1::__compressed_pair<std::__1::optional<std::__1::basic_string<char>> *, std::__1::allocator<std::__1::optional<std::__1::basic_string<char>>>>::second",
   "linker_set_key" : "_ZNKSt3__117__compressed_pairIPNS_8optionalINS_12basic_stringIcNS_11char_traitsIcEENS_9allocatorIcEEEEEENS5_IS8_EEE6secondEv",
   "parameters" :
   [
    {
     "is_this_ptr" : true,
     "referenced_type" : "_ZTIPKNSt3__117__compressed_pairIPNS_8optionalINS_12basic_stringIcNS_11char_traitsIcEENS_9allocatorIcEEEEEENS5_IS8_EEEE"
    }
   ],
   "return_type" : "_ZTIRKNSt3__19allocatorINS_8optionalINS_12basic_stringIcNS_11char_traitsIcEENS0_IcEEEEEEEE",
   "source_file" : "external/libcxx/include/memory"
  },
  {
   "function_name" : "std::__1::__compressed_pair<std::__1::optional<std::__1::basic_string<char>> *, std::__1::allocator<std::__1::optional<std::__1::basic_string<char>>> &>::first",
   "linker_set_key" : "_ZNKSt3__117__compressed_pairIPNS_8optionalINS_12basic_stringIcNS_11char_traitsIcEENS_9allocatorIcEEEEEERNS5_IS8_EEE5firstEv",
   "parameters" :
   [
    {
     "is_this_ptr" : true,
     "referenced_type" : "_ZTIPKNSt3__117__compressed_pairIPNS_8optionalINS_12basic_stringIcNS_11char_traitsIcEENS_9allocatorIcEEEEEERNS5_IS8_EEEE"
    }
   ],
   "return_type" : "_ZTIRKPNSt3__18optionalINS_12basic_stringIcNS_11char_traitsIcEENS_9allocatorIcEEEEEE",
   "source_file" : "external/libcxx/include/memory"
  },
  {
   "function_name" : "std::__1::__libcpp_refstring::c_str",
   "linker_set_key" : "_ZNKSt3__118__libcpp_refstring5c_strEv",
   "parameters" :
   [
    {
     "is_this_ptr" : true,
     "referenced_type" : "_ZTIPKNSt3__118__libcpp_refstringE"
    }
   ],
   "return_type" : "_ZTIPKc",
   "source_file" : "external/libcxx/include/stdexcept"
  },
  {
   "function_name" : "std::__1::__shared_weak_count::use_count",
   "linker_set_key" : "_ZNKSt3__119__shared_weak_count9use_countEv",
   "parameters" :
   [
    {
     "is_this_ptr" : true,
     "referenced_type" : "_ZTIPKNSt3__119__shared_weak_countE"
    }
   ],
   "return_type" : "_ZTIl",
   "source_file" : "external/libcxx/include/memory"
  },
  {
   "function_name" : "std::__1::__compressed_pair_elem<std::__1::basic_string<char32_t, std::__1::char_traits<char32_t>, std::__1::allocator<char32_t>>::__rep, 0, false>::__get",
   "linker_set_key" : "_ZNKSt3__122__compressed_pair_elemINS_12basic_stringIDiNS_11char_traitsIDiEENS_9allocatorIDiEEE5__repELi0ELb0EE5__getEv",
   "parameters" :
   [
    {
     "is_this_ptr" : true,
     "referenced_type" : "_ZTIPKNSt3__122__compressed_pair_elemINS_12basic_stringIDiNS_11char_traitsIDiEENS_9allocatorIDiEEE5__repELi0ELb0EEE"
    }
   ],
   "return_type" : "_ZTIRKNSt3__112basic_stringIDiNS_11char_traitsIDiEENS_9allocatorIDiEEE5__repE",
   "source_file" : "external/libcxx/include/memory"
  },
  {
   "function_name" : "std::__1::__compressed_pair_elem<std::__1::basic_string<char16_t, std::__1::char_traits<char16_t>, std::__1::allocator<char16_t>>::__rep, 0, false>::__get",
   "linker_set_key" : "_ZNKSt3__122__compressed_pair_elemINS_12basic_stringIDsNS_11char_traitsIDsEENS_9allocatorIDsEEE5__repELi0ELb0EE5__getEv",
   "parameters" :
   [
    {
     "is_this_ptr" : true,
     "referenced_type" : "_ZTIPKNSt3__122__compressed_pair_elemINS_12basic_stringIDsNS_11char_traitsIDsEENS_9allocatorIDsEEE5__repELi0ELb0EEE"
    }
   ],
   "return_type" : "_ZTIRKNSt3__112basic_stringIDsNS_11char_traitsIDsEENS_9allocatorIDsEEE5__repE",
   "source_file" : "external/libcxx/include/memory"
  },
  {
   "function_name" : "std::__1::__compressed_pair_elem<std::__1::basic_string<char, std::__1::char_traits<char>, std::__1::allocator<char>>::__rep, 0, false>::__get",
   "linker_set_key" : "_ZNKSt3__122__compressed_pair_elemINS_12basic_stringIcNS_11char_traitsIcEENS_9allocatorIcEEE5__repELi0ELb0EE5__getEv",
   "parameters" :
   [
    {
     "is_this_ptr" : true,
     "referenced_type" : "_ZTIPKNSt3__122__compressed_pair_elemINS_12basic_stringIcNS_11char_traitsIcEENS_9allocatorIcEEE5__repELi0ELb0EEE"
    }
   ],
   "return_type" : "_ZTIRKNSt3__112basic_stringIcNS_11char_traitsIcEENS_9allocatorIcEEE5__repE",
   "source_file" : "external/libcxx/include/memory"
  },
  {
   "function_name" : "std::__1::__compressed_pair_elem<std::__1::basic_string<wchar_t, std::__1::char_traits<wchar_t>, std::__1::allocator<wchar_t>>::__rep, 0, false>::__get",
   "linker_set_key" : "_ZNKSt3__122__compressed_pair_elemINS_12basic_stringIwNS_11char_traitsIwEENS_9allocatorIwEEE5__repELi0ELb0EE5__getEv",
   "parameters" :
   [
    {
     "is_this_ptr" : true,
     "referenced_type" : "_ZTIPKNSt3__122__compressed_pair_elemINS_12basic_stringIwNS_11char_traitsIwEENS_9allocatorIwEEE5__repELi0ELb0EEE"
    }
   ],
   "return_type" : "_ZTIRKNSt3__112basic_stringIwNS_11char_traitsIwEENS_9allocatorIwEEE5__repE",
   "source_file" : "external/libcxx/include/memory"
  },
  {
   "function_name" : "std::__1::__compressed_pair_elem<std::__1::allocator<char32_t>, 1, true>::__get",
   "linker_set_key" : "_ZNKSt3__122__compressed_pair_elemINS_9allocatorIDiEELi1ELb1EE5__getEv",
   "parameters" :
   [
    {
     "is_this_ptr" : true,
     "referenced_type" : "_ZTIPKNSt3__122__compressed_pair_elemINS_9allocatorIDiEELi1ELb1EEE"
    }
   ],
   "return_type" : "_ZTIRKNSt3__19allocatorIDiEE",
   "source_file" : "external/libcxx/include/memory"
  },
  {
   "function_name" : "std::__1::__compressed_pair_elem<std::__1::allocator<char16_t>, 1, true>::__get",
   "linker_set_key" : "_ZNKSt3__122__compressed_pair_elemINS_9allocatorIDsEELi1ELb1EE5__getEv",
   "parameters" :
   [
    {
     "is_this_ptr" : true,
     "referenced_type" : "_ZTIPKNSt3__122__compressed_pair_elemINS_9allocatorIDsEELi1ELb1EEE"
    }
   ],
   "return_type" : "_ZTIRKNSt3__19allocatorIDsEE",
   "source_file" : "external/libcxx/include/memory"
  },
  {
   "function_name" : "std::__1::__compressed_pair_elem<std::__1::allocator<std::__1::optional<std::__1::basic_string<char>>>, 1, true>::__get",
   "linker_set_key" : "_ZNKSt3__122__compressed_pair_elemINS_9allocatorINS_8optionalINS_12basic_stringIcNS_11char_traitsIcEENS1_IcEEEEEEEELi1ELb1EE5__getEv",
   "parameters" :
   [
    {
     "is_this_ptr" : true,
     "referenced_type" : "_ZTIPKNSt3__122__compressed_pair_elemINS_9allocatorINS_8optionalINS_12basic_stringIcNS_11char_traitsIcEENS1_IcEEEEEEEELi1ELb1EEE"
    }
   ],
   "return_type" : "_ZTIRKNSt3__19allocatorINS_8optionalINS_12basic_stringIcNS_11char_traitsIcEENS0_IcEEEEEEEE",
   "source_file" : "external/libcxx/include/memory"
  },
  {
   "function_name" : "std::__1::__compressed_pair_elem<std::__1::allocator<char>, 1, true>::__get",
   "linker_set_key" : "_ZNKSt3__122__compressed_pair_elemINS_9allocatorIcEELi1ELb1EE5__getEv",
   "parameters" :
   [
    {
     "is_this_ptr" : true,
     "referenced_type" : "_ZTIPKNSt3__122__compressed_pair_elemINS_9allocatorIcEELi1ELb1EEE"
    }
   ],
   "return_type" : "_ZTIRKNSt3__19allocatorIcEE",
   "source_file" : "external/libcxx/include/memory"
  },
  {
   "function_name" : "std::__1::__compressed_pair_elem<std::__1::allocator<wchar_t>, 1, true>::__get",
   "linker_set_key" : "_ZNKSt3__122__compressed_pair_elemINS_9allocatorIwEELi1ELb1EE5__getEv",
   "parameters" :
   [
    {
     "is_this_ptr" : true,
     "referenced_type" : "_ZTIPKNSt3__122__compressed_pair_elemINS_9allocatorIwEELi1ELb1EEE"
    }
   ],
   "return_type" : "_ZTIRKNSt3__19allocatorIwEE",
   "source_file" : "external/libcxx/include/memory"
  },
  {
   "function_name" : "std::__1::__compressed_pair_elem<std::__1::optional<std::__1::basic_string<char>> *, 0, false>::__get",
   "linker_set_key" : "_ZNKSt3__122__compressed_pair_elemIPNS_8optionalINS_12basic_stringIcNS_11char_traitsIcEENS_9allocatorIcEEEEEELi0ELb0EE5__getEv",
   "parameters" :
   [
    {
     "is_this_ptr" : true,
     "referenced_type" : "_ZTIPKNSt3__122__compressed_pair_elemIPNS_8optionalINS_12basic_stringIcNS_11char_traitsIcEENS_9allocatorIcEEEEEELi0ELb0EEE"
    }
   ],
   "return_type" : "_ZTIRKPNSt3__18optionalINS_12basic_stringIcNS_11char_traitsIcEENS_9allocatorIcEEEEEE",
   "source_file" : "external/libcxx/include/memory"
  },
  {
   "function_name" : "std::__1::__optional_storage_base<std::__1::basic_string<char>, false>::has_value",
   "linker_set_key" : "_ZNKSt3__123__optional_storage_baseINS_12basic_stringIcNS_11char_traitsIcEENS_9allocatorIcEEEELb0EE9has_valueEv",
   "parameters" :
   [
    {
     "is_this_ptr" : true,
     "referenced_type" : "_ZTIPKNSt3__123__optional_storage_baseINS_12basic_stringIcNS_11char_traitsIcEENS_9allocatorIcEEEELb0EEE"
    }
   ],
   "return_type" : "_ZTIb",
   "source_file" : "external/libcxx/include/optional"
  },
  {
   "function_name" : "std::__1::__optional_storage_base<const char *, false>::has_value",
   "linker_set_key" : "_ZNKSt3__123__optional_storage_baseIPKcLb0EE9has_valueEv",
   "parameters" :
   [
    {
     "is_this_ptr" : true,
     "referenced_type" : "_ZTIPKNSt3__123__optional_storage_baseIPKcLb0EEE"
    }
   ],
   "return_type" : "_ZTIb",
   "source_file" : "external/libcxx/include/optional"
  },
  {
   "function_name" : "std::__1::__optional_storage_base<bool, false>::has_value",
   "linker_set_key" : "_ZNKSt3__123__optional_storage_baseIbLb0EE9has_valueEv",
   "parameters" :
   [
    {
     "is_this_ptr" : true,
     "referenced_type" : "_ZTIPKNSt3__123__optional_storage_baseIbLb0EEE"
    }
   ],
   "return_type" : "_ZTIb",
   "source_file" : "external/libcxx/include/optional"
  },
  {
   "function_name" : "std::__1::__optional_storage_base<double, false>::has_value",
   "linker_set_key" : "_ZNKSt3__123__optional_storage_baseIdLb0EE9has_valueEv",
   "parameters" :
   [
    {
     "is_this_ptr" : true,
     "referenced_type" : "_ZTIPKNSt3__123__optional_storage_baseIdLb0EEE"
    }
   ],
   "return_type" : "_ZTIb",
   "source_file" : "external/libcxx/include/optional"
  },
  {
   "function_name" : "std::__1::__optional_storage_base<int, false>::has_value",
   "linker_set_key" : "_ZNKSt3__123__optional_storage_baseIiLb0EE9has_valueEv",
   "parameters" :
   [
    {
     "is_this_ptr" : true,
     "referenced_type" : "_ZTIPKNSt3__123__optional_storage_baseIiLb0EEE"
    }
   ],
   "return_type" : "_ZTIb",
   "source_file" : "external/libcxx/include/optional"
  },
  {
   "function_name" : "std::__1::__optional_storage_base<unsigned int, false>::has_value",
   "linker_set_key" : "_ZNKSt3__123__optional_storage_baseIjLb0EE9has_valueEv",
   "parameters" :
   [
    {
     "is_this_ptr" : true,
     "referenced_type" : "_ZTIPKNSt3__123__optional_storage_baseIjLb0EEE"
    }
   ],
   "return_type" : "_ZTIb",
   "source_file" : "external/libcxx/include/optional"
  },
  {
   "function_name" : "std::__1::__optional_storage_base<long, false>::has_value",
   "linker_set_key" : "_ZNKSt3__123__optional_storage_baseIlLb0EE9has_valueEv",
   "parameters" :
   [
    {
     "is_this_ptr" : true,
     "referenced_type" : "_ZTIPKNSt3__123__optional_storage_baseIlLb0EEE"
    }
   ],
   "return_type" : "_ZTIb",
   "source_file" : "external/libcxx/include/optional"
  },
  {
   "function_name" : "std::__1::__optional_storage_base<unsigned long, false>::has_value",
   "linker_set_key" : "_ZNKSt3__123__optional_storage_baseImLb0EE9has_valueEv",
   "parameters" :
   [
    {
     "is_this_ptr" : true,
     "referenced_type" : "_ZTIPKNSt3__123__optional_storage_baseImLb0EEE"
    }
   ],
   "return_type" : "_ZTIb",
   "source_file" : "external/libcxx/include/optional"
  },
  {
   "function_name" : "std::__1::hash<char32_t>::operator()",
   "linker_set_key" : "_ZNKSt3__14hashIDiEclEDi",
   "parameters" :
   [
    {
     "is_this_ptr" : true,
     "referenced_type" : "_ZTIPKNSt3__14hashIDiEE"
    },
    {
     "referenced_type" : "_ZTIDi"
    }
   ],
   "return_type" : "_ZTIm",
   "source_file" : "external/libcxx/include/utility"
  },
  {
   "function_name" : "std::__1::hash<nullptr_t>::operator()",
   "linker_set_key" : "_ZNKSt3__14hashIDnEclEDn",
   "parameters" :
   [
    {
     "is_this_ptr" : true,
     "referenced_type" : "_ZTIPKNSt3__14hashIDnEE"
    },
    {
     "referenced_type" : "_ZTIDn"
    }
   ],
   "return_type" : "_ZTIm",
   "source_file" : "external/libcxx/include/utility"
  },
  {
   "function_name" : "std::__1::hash<char16_t>::operator()",
   "linker_set_key" : "_ZNKSt3__14hashIDsEclEDs",
   "parameters" :
   [
    {
     "is_this_ptr" : true,
     "referenced_type" : "_ZTIPKNSt3__14hashIDsEE"
    },
    {
     "referenced_type" : "_ZTIDs"
    }
   ],
   "return_type" : "_ZTIm",
   "source_file" : "external/libcxx/include/utility"
  },
  {
   "function_name" : "std::__1::hash<signed char>::operator()",
   "linker_set_key" : "_ZNKSt3__14hashIaEclEa",
   "parameters" :
   [
    {
     "is_this_ptr" : true,
     "referenced_type" : "_ZTIPKNSt3__14hashIaEE"
    },
    {
     "referenced_type" : "_ZTIa"
    }
   ],
   "return_type" : "_ZTIm",
   "source_file" : "external/libcxx/include/utility"
  },
  {
   "function_name" : "std::__1::hash<bool>::operator()",
   "linker_set_key" : "_ZNKSt3__14hashIbEclEb",
   "parameters" :
   [
    {
     "is_this_ptr" : true,
     "referenced_type" : "_ZTIPKNSt3__14hashIbEE"
    },
    {
     "referenced_type" : "_ZTIb"
    }
   ],
   "return_type" : "_ZTIm",
   "source_file" : "external/libcxx/include/utility"
  },
  {
   "function_name" : "std::__1::hash<char>::operator()",
   "linker_set_key" : "_ZNKSt3__14hashIcEclEc",
   "parameters" :
   [
    {
     "is_this_ptr" : true,
     "referenced_type" : "_ZTIPKNSt3__14hashIcEE"
    },
    {
     "referenced_type" : "_ZTIc"
    }
   ],
   "return_type" : "_ZTIm",
   "source_file" : "external/libcxx/include/utility"
  },
  {
   "function_name" : "std::__1::hash<double>::operator()",
   "linker_set_key" : "_ZNKSt3__14hashIdEclEd",
   "parameters" :
   [
    {
     "is_this_ptr" : true,
     "referenced_type" : "_ZTIPKNSt3__14hashIdEE"
    },
    {
     "referenced_type" : "_ZTId"
    }
   ],
   "return_type" : "_ZTIm",
   "source_file" : "external/libcxx/include/utility"
  },
  {
   "function_name" : "std::__1::hash<long double>::operator()",
   "linker_set_key" : "_ZNKSt3__14hashIeEclEe",
   "parameters" :
   [
    {
     "is_this_ptr" : true,
     "referenced_type" : "_ZTIPKNSt3__14hashIeEE"
    },
    {
     "referenced_type" : "_ZTIe"
    }
   ],
   "return_type" : "_ZTIm",
   "source_file" : "external/libcxx/include/utility"
  },
  {
   "function_name" : "std::__1::hash<float>::operator()",
   "linker_set_key" : "_ZNKSt3__14hashIfEclEf",
   "parameters" :
   [
    {
     "is_this_ptr" : true,
     "referenced_type" : "_ZTIPKNSt3__14hashIfEE"
    },
    {
     "referenced_type" : "_ZTIf"
    }
   ],
   "return_type" : "_ZTIm",
   "source_file" : "external/libcxx/include/utility"
  },
  {
   "function_name" : "std::__1::hash<unsigned char>::operator()",
   "linker_set_key" : "_ZNKSt3__14hashIhEclEh",
   "parameters" :
   [
    {
     "is_this_ptr" : true,
     "referenced_type" : "_ZTIPKNSt3__14hashIhEE"
    },
    {
     "referenced_type" : "_ZTIh"
    }
   ],
   "return_type" : "_ZTIm",
   "source_file" : "external/libcxx/include/utility"
  },
  {
   "function_name" : "std::__1::hash<int>::operator()",
   "linker_set_key" : "_ZNKSt3__14hashIiEclEi",
   "parameters" :
   [
    {
     "is_this_ptr" : true,
     "referenced_type" : "_ZTIPKNSt3__14hashIiEE"
    },
    {
     "referenced_type" : "_ZTIi"
    }
   ],
   "return_type" : "_ZTIm",
   "source_file" : "external/libcxx/include/utility"
  },
  {
   "function_name" : "std::__1::hash<unsigned int>::operator()",
   "linker_set_key" : "_ZNKSt3__14hashIjEclEj",
   "parameters" :
   [
    {
     "is_this_ptr" : true,
     "referenced_type" : "_ZTIPKNSt3__14hashIjEE"
    },
    {
     "referenced_type" : "_ZTIj"
    }
   ],
   "return_type" : "_ZTIm",
   "source_file" : "external/libcxx/include/utility"
  },
  {
   "function_name" : "std::__1::hash<long>::operator()",
   "linker_set_key" : "_ZNKSt3__14hashIlEclEl",
   "parameters" :
   [
    {
     "is_this_ptr" : true,
     "referenced_type" : "_ZTIPKNSt3__14hashIlEE"
    },
    {
     "referenced_type" : "_ZTIl"
    }
   ],
   "return_type" : "_ZTIm",
   "source_file" : "external/libcxx/include/utility"
  },
  {
   "function_name" : "std::__1::hash<unsigned long>::operator()",
   "linker_set_key" : "_ZNKSt3__14hashImEclEm",
   "parameters" :
   [
    {
     "is_this_ptr" : true,
     "referenced_type" : "_ZTIPKNSt3__14hashImEE"
    },
    {
     "referenced_type" : "_ZTIm"
    }
   ],
   "return_type" : "_ZTIm",
   "source_file" : "external/libcxx/include/utility"
  },
  {
   "function_name" : "std::__1::hash<short>::operator()",
   "linker_set_key" : "_ZNKSt3__14hashIsEclEs",
   "parameters" :
   [
    {
     "is_this_ptr" : true,
     "referenced_type" : "_ZTIPKNSt3__14hashIsEE"
    },
    {
     "referenced_type" : "_ZTIs"
    }
   ],
   "return_type" : "_ZTIm",
   "source_file" : "external/libcxx/include/utility"
  },
  {
   "function_name" : "std::__1::hash<unsigned short>::operator()",
   "linker_set_key" : "_ZNKSt3__14hashItEclEt",
   "parameters" :
   [
    {
     "is_this_ptr" : true,
     "referenced_type" : "_ZTIPKNSt3__14hashItEE"
    },
    {
     "referenced_type" : "_ZTIt"
    }
   ],
   "return_type" : "_ZTIm",
   "source_file" : "external/libcxx/include/utility"
  },
  {
   "function_name" : "std::__1::hash<wchar_t>::operator()",
   "linker_set_key" : "_ZNKSt3__14hashIwEclEw",
   "parameters" :
   [
    {
     "is_this_ptr" : true,
     "referenced_type" : "_ZTIPKNSt3__14hashIwEE"
    },
    {
     "referenced_type" : "_ZTIw"
    }
   ],
   "return_type" : "_ZTIm",
   "source_file" : "external/libcxx/include/utility"
  },
  {
   "function_name" : "std::__1::__less<unsigned long, unsigned long>::operator()",
   "linker_set_key" : "_ZNKSt3__16__lessImmEclERKmS3_",
   "parameters" :
   [
    {
     "is_this_ptr" : true,
     "referenced_type" : "_ZTIPKNSt3__16__lessImmEE"
    },
    {
     "referenced_type" : "_ZTIRKm"
    },
    {
     "referenced_type" : "_ZTIRKm"
    }
   ],
   "return_type" : "_ZTIb",
   "source_file" : "external/libcxx/include/algorithm"
  },
  {
   "access" : "private",
   "function_name" : "std::__1::vector<std::__1::optional<std::__1::basic_string<char>>, std::__1::allocator<std::__1::optional<std::__1::basic_string<char>>>>::__recommend",
   "linker_set_key" : "_ZNKSt3__16vectorINS_8optionalINS_12basic_stringIcNS_11char_traitsIcEENS_9allocatorIcEEEEEENS5_IS8_EEE11__recommendEm",
   "parameters" :
   [
    {
     "is_this_ptr" : true,
     "referenced_type" : "_ZTIPKNSt3__16vectorINS_8optionalINS_12basic_stringIcNS_11char_traitsIcEENS_9allocatorIcEEEEEENS5_IS8_EEEE"
    },
    {
     "referenced_type" : "_ZTIm"
    }
   ],
   "return_type" : "_ZTIm",
   "source_file" : "external/libcxx/include/vector"
  },
  {
   "access" : "private",
   "function_name" : "std::__1::vector<std::__1::optional<std::__1::basic_string<char>>, std::__1::allocator<std::__1::optional<std::__1::basic_string<char>>>>::__annotate_new",
   "linker_set_key" : "_ZNKSt3__16vectorINS_8optionalINS_12basic_stringIcNS_11char_traitsIcEENS_9allocatorIcEEEEEENS5_IS8_EEE14__annotate_newEm",
   "parameters" :
   [
    {
     "is_this_ptr" : true,
     "referenced_type" : "_ZTIPKNSt3__16vectorINS_8optionalINS_12basic_stringIcNS_11char_traitsIcEENS_9allocatorIcEEEEEENS5_IS8_EEEE"
    },
    {
     "referenced_type" : "_ZTIm"
    }
   ],
   "return_type" : "_ZTIv",
   "source_file" : "external/libcxx/include/vector"
  },
  {
   "access" : "private",
   "function_name" : "std::__1::vector<std::__1::optional<std::__1::basic_string<char>>, std::__1::allocator<std::__1::optional<std::__1::basic_string<char>>>>::__annotate_delete",
   "linker_set_key" : "_ZNKSt3__16vectorINS_8optionalINS_12basic_stringIcNS_11char_traitsIcEENS_9allocatorIcEEEEEENS5_IS8_EEE17__annotate_deleteEv",
   "parameters" :
   [
    {
     "is_this_ptr" : true,
     "referenced_type" : "_ZTIPKNSt3__16vectorINS_8optionalINS_12basic_stringIcNS_11char_traitsIcEENS_9allocatorIcEEEEEENS5_IS8_EEEE"
    }
   ],
   "return_type" : "_ZTIv",
   "source_file" : "external/libcxx/include/vector"
  },
  {
   "access" : "private",
   "function_name" : "std::__1::vector<std::__1::optional<std::__1::basic_string<char>>, std::__1::allocator<std::__1::optional<std::__1::basic_string<char>>>>::__annotate_contiguous_container",
   "linker_set_key" : "_ZNKSt3__16vectorINS_8optionalINS_12basic_stringIcNS_11char_traitsIcEENS_9allocatorIcEEEEEENS5_IS8_EEE31__annotate_contiguous_containerEPKvSC_SC_SC_",
   "parameters" :
   [
    {
     "is_this_ptr" : true,
     "referenced_type" : "_ZTIPKNSt3__16vectorINS_8optionalINS_12basic_stringIcNS_11char_traitsIcEENS_9allocatorIcEEEEEENS5_IS8_EEEE"
    },
    {
     "referenced_type" : "_ZTIPKv"
    },
    {
     "referenced_type" : "_ZTIPKv"
    },
    {
     "referenced_type" : "_ZTIPKv"
    },
    {
     "referenced_type" : "_ZTIPKv"
    }
   ],
   "return_type" : "_ZTIv",
   "source_file" : "external/libcxx/include/vector"
  },
  {
   "function_name" : "std::__1::vector<std::__1::optional<std::__1::basic_string<char>>, std::__1::allocator<std::__1::optional<std::__1::basic_string<char>>>>::data",
   "linker_set_key" : "_ZNKSt3__16vectorINS_8optionalINS_12basic_stringIcNS_11char_traitsIcEENS_9allocatorIcEEEEEENS5_IS8_EEE4dataEv",
   "parameters" :
   [
    {
     "is_this_ptr" : true,
     "referenced_type" : "_ZTIPKNSt3__16vectorINS_8optionalINS_12basic_stringIcNS_11char_traitsIcEENS_9allocatorIcEEEEEENS5_IS8_EEEE"
    }
   ],
   "return_type" : "_ZTIPKNSt3__18optionalINS_12basic_stringIcNS_11char_traitsIcEENS_9allocatorIcEEEEEE",
   "source_file" : "external/libcxx/include/vector"
  },
  {
   "function_name" : "std::__1::vector<std::__1::optional<std::__1::basic_string<char>>, std::__1::allocator<std::__1::optional<std::__1::basic_string<char>>>>::size",
   "linker_set_key" : "_ZNKSt3__16vectorINS_8optionalINS_12basic_stringIcNS_11char_traitsIcEENS_9allocatorIcEEEEEENS5_IS8_EEE4sizeEv",
   "parameters" :
   [
    {
     "is_this_ptr" : true,
     "referenced_type" : "_ZTIPKNSt3__16vectorINS_8optionalINS_12basic_stringIcNS_11char_traitsIcEENS_9allocatorIcEEEEEENS5_IS8_EEEE"
    }
   ],
   "return_type" : "_ZTIm",
   "source_file" : "external/libcxx/include/vector"
  },
  {
   "function_name" : "std::__1::vector<std::__1::optional<std::__1::basic_string<char>>, std::__1::allocator<std::__1::optional<std::__1::basic_string<char>>>>::capacity",
   "linker_set_key" : "_ZNKSt3__16vectorINS_8optionalINS_12basic_stringIcNS_11char_traitsIcEENS_9allocatorIcEEEEEENS5_IS8_EEE8capacityEv",
   "parameters" :
   [
    {
     "is_this_ptr" : true,
     "referenced_type" : "_ZTIPKNSt3__16vectorINS_8optionalINS_12basic_stringIcNS_11char_traitsIcEENS_9allocatorIcEEEEEENS5_IS8_EEEE"
    }
   ],
   "return_type" : "_ZTIm",
   "source_file" : "external/libcxx/include/vector"
  },
  {
   "function_name" : "std::__1::vector<std::__1::optional<std::__1::basic_string<char>>, std::__1::allocator<std::__1::optional<std::__1::basic_string<char>>>>::max_size",
   "linker_set_key" : "_ZNKSt3__16vectorINS_8optionalINS_12basic_stringIcNS_11char_traitsIcEENS_9allocatorIcEEEEEENS5_IS8_EEE8max_sizeEv",
   "parameters" :
   [
    {
     "is_this_ptr" : true,
     "referenced_type" : "_ZTIPKNSt3__16vectorINS_8optionalINS_12basic_stringIcNS_11char_traitsIcEENS_9allocatorIcEEEEEENS5_IS8_EEEE"
    }
   ],
   "return_type" : "_ZTIm",
   "source_file" : "external/libcxx/include/vector"
  },
  {
   "function_name" : "std::__1::optional<std::__1::basic_string<char>>::operator bool",
   "linker_set_key" : "_ZNKSt3__18optionalINS_12basic_stringIcNS_11char_traitsIcEENS_9allocatorIcEEEEEcvbEv",
   "parameters" :
   [
    {
     "is_this_ptr" : true,
     "referenced_type" : "_ZTIPKNSt3__18optionalINS_12basic_stringIcNS_11char_traitsIcEENS_9allocatorIcEEEEEE"
    }
   ],
   "return_type" : "_ZTIb",
   "source_file" : "external/libcxx/include/optional"
  },
  {
   "function_name" : "std::__1::optional<std::__1::basic_string<char>>::operator->",
   "linker_set_key" : "_ZNKSt3__18optionalINS_12basic_stringIcNS_11char_traitsIcEENS_9allocatorIcEEEEEptEv",
   "parameters" :
   [
    {
     "is_this_ptr" : true,
     "referenced_type" : "_ZTIPKNSt3__18optionalINS_12basic_stringIcNS_11char_traitsIcEENS_9allocatorIcEEEEEE"
    }
   ],
   "return_type" : "_ZTIPKNSt3__112basic_stringIcNS_11char_traitsIcEENS_9allocatorIcEEEE",
   "source_file" : "external/libcxx/include/optional"
  },
  {
   "function_name" : "std::__1::optional<bool>::operator bool",
   "linker_set_key" : "_ZNKSt3__18optionalIbEcvbEv",
   "parameters" :
   [
    {
     "is_this_ptr" : true,
     "referenced_type" : "_ZTIPKNSt3__18optionalIbEE"
    }
   ],
   "return_type" : "_ZTIb",
   "source_file" : "external/libcxx/include/optional"
  },
  {
   "function_name" : "std::__1::optional<double>::operator bool",
   "linker_set_key" : "_ZNKSt3__18optionalIdEcvbEv",
   "parameters" :
   [
    {
     "is_this_ptr" : true,
     "referenced_type" : "_ZTIPKNSt3__18optionalIdEE"
    }
   ],
   "return_type" : "_ZTIb",
   "source_file" : "external/libcxx/include/optional"
  },
  {
   "function_name" : "std::__1::optional<int>::operator bool",
   "linker_set_key" : "_ZNKSt3__18optionalIiEcvbEv",
   "parameters" :
   [
    {
     "is_this_ptr" : true,
     "referenced_type" : "_ZTIPKNSt3__18optionalIiEE"
    }
   ],
   "return_type" : "_ZTIb",
   "source_file" : "external/libcxx/include/optional"
  },
  {
   "function_name" : "std::__1::optional<unsigned int>::operator bool",
   "linker_set_key" : "_ZNKSt3__18optionalIjEcvbEv",
   "parameters" :
   [
    {
     "is_this_ptr" : true,
     "referenced_type" : "_ZTIPKNSt3__18optionalIjEE"
    }
   ],
   "return_type" : "_ZTIb",
   "source_file" : "external/libcxx/include/optional"
  },
  {
   "function_name" : "std::__1::optional<long>::operator bool",
   "linker_set_key" : "_ZNKSt3__18optionalIlEcvbEv",
   "parameters" :
   [
    {
     "is_this_ptr" : true,
     "referenced_type" : "_ZTIPKNSt3__18optionalIlEE"
    }
   ],
   "return_type" : "_ZTIb",
   "source_file" : "external/libcxx/include/optional"
  },
  {
   "function_name" : "std::__1::optional<unsigned long>::operator bool",
   "linker_set_key" : "_ZNKSt3__18optionalImEcvbEv",
   "parameters" :
   [
    {
     "is_this_ptr" : true,
     "referenced_type" : "_ZTIPKNSt3__18optionalImEE"
    }
   ],
   "return_type" : "_ZTIb",
   "source_file" : "external/libcxx/include/optional"
  },
  {
   "function_name" : "std::__1::allocator<char32_t>::max_size",
   "linker_set_key" : "_ZNKSt3__19allocatorIDiE8max_sizeEv",
   "parameters" :
   [
    {
     "is_this_ptr" : true,
     "referenced_type" : "_ZTIPKNSt3__19allocatorIDiEE"
    }
   ],
   "return_type" : "_ZTIm",
   "source_file" : "external/libcxx/include/memory"
  },
  {
   "function_name" : "std::__1::allocator<char16_t>::max_size",
   "linker_set_key" : "_ZNKSt3__19allocatorIDsE8max_sizeEv",
   "parameters" :
   [
    {
     "is_this_ptr" : true,
     "referenced_type" : "_ZTIPKNSt3__19allocatorIDsEE"
    }
   ],
   "return_type" : "_ZTIm",
   "source_file" : "external/libcxx/include/memory"
  },
  {
   "function_name" : "std::__1::allocator<std::__1::optional<std::__1::basic_string<char>>>::max_size",
   "linker_set_key" : "_ZNKSt3__19allocatorINS_8optionalINS_12basic_stringIcNS_11char_traitsIcEENS0_IcEEEEEEE8max_sizeEv",
   "parameters" :
   [
    {
     "is_this_ptr" : true,
     "referenced_type" : "_ZTIPKNSt3__19allocatorINS_8optionalINS_12basic_stringIcNS_11char_traitsIcEENS0_IcEEEEEEEE"
    }
   ],
   "return_type" : "_ZTIm",
   "source_file" : "external/libcxx/include/memory"
  },
  {
   "function_name" : "std::__1::allocator<char>::max_size",
   "linker_set_key" : "_ZNKSt3__19allocatorIcE8max_sizeEv",
   "parameters" :
   [
    {
     "is_this_ptr" : true,
     "referenced_type" : "_ZTIPKNSt3__19allocatorIcEE"
    }
   ],
   "return_type" : "_ZTIm",
   "source_file" : "external/libcxx/include/memory"
  },
  {
   "function_name" : "std::__1::allocator<wchar_t>::max_size",
   "linker_set_key" : "_ZNKSt3__19allocatorIwE8max_sizeEv",
   "parameters" :
   [
    {
     "is_this_ptr" : true,
     "referenced_type" : "_ZTIPKNSt3__19allocatorIwEE"
    }
   ],
   "return_type" : "_ZTIm",
   "source_file" : "external/libcxx/include/memory"
  },
  {
   "function_name" : "std::type_info::name",
   "linker_set_key" : "_ZNKSt9type_info4nameEv",
   "parameters" :
   [
    {
     "is_this_ptr" : true,
     "referenced_type" : "_ZTIPKSt9type_info"
    }
   ],
   "return_type" : "_ZTIPKc",
   "source_file" : "external/libcxx/include/typeinfo"
  },
  {
   "function_name" : "std::type_info::before",
   "linker_set_key" : "_ZNKSt9type_info6beforeERKS_",
   "parameters" :
   [
    {
     "is_this_ptr" : true,
     "referenced_type" : "_ZTIPKSt9type_info"
    },
    {
     "referenced_type" : "_ZTIRKSt9type_info"
    }
   ],
   "return_type" : "_ZTIb",
   "source_file" : "external/libcxx/include/typeinfo"
  },
  {
   "function_name" : "std::type_info::hash_code",
   "linker_set_key" : "_ZNKSt9type_info9hash_codeEv",
   "parameters" :
   [
    {
     "is_this_ptr" : true,
     "referenced_type" : "_ZTIPKSt9type_info"
    }
   ],
   "return_type" : "_ZTIm",
   "source_file" : "external/libcxx/include/typeinfo"
  },
  {
   "function_name" : "std::type_info::operator==",
   "linker_set_key" : "_ZNKSt9type_infoeqERKS_",
   "parameters" :
   [
    {
     "is_this_ptr" : true,
     "referenced_type" : "_ZTIPKSt9type_info"
    },
    {
     "referenced_type" : "_ZTIRKSt9type_info"
    }
   ],
   "return_type" : "_ZTIb",
   "source_file" : "external/libcxx/include/typeinfo"
  },
  {
   "function_name" : "std::type_info::operator!=",
   "linker_set_key" : "_ZNKSt9type_infoneERKS_",
   "parameters" :
   [
    {
     "is_this_ptr" : true,
     "referenced_type" : "_ZTIPKSt9type_info"
    },
    {
     "referenced_type" : "_ZTIRKSt9type_info"
    }
   ],
   "return_type" : "_ZTIb",
   "source_file" : "external/libcxx/include/typeinfo"
  },
  {
   "function_name" : "std::__1::__optional_storage_base<std::__1::basic_string<char>, false>::__get",
   "linker_set_key" : "_ZNOSt3__123__optional_storage_baseINS_12basic_stringIcNS_11char_traitsIcEENS_9allocatorIcEEEELb0EE5__getEv",
   "parameters" :
   [
    {
     "is_this_ptr" : true,
     "referenced_type" : "_ZTIPNSt3__123__optional_storage_baseINS_12basic_stringIcNS_11char_traitsIcEENS_9allocatorIcEEEELb0EEE"
    }
   ],
   "return_type" : "_ZTIONSt3__112basic_stringIcNS_11char_traitsIcEENS_9allocatorIcEEEE",
   "source_file" : "external/libcxx/include/optional"
  },
  {
   "function_name" : "std::__1::__optional_storage_base<const char *, false>::__get",
   "linker_set_key" : "_ZNOSt3__123__optional_storage_baseIPKcLb0EE5__getEv",
   "parameters" :
   [
    {
     "is_this_ptr" : true,
     "referenced_type" : "_ZTIPNSt3__123__optional_storage_baseIPKcLb0EEE"
    }
   ],
   "return_type" : "_ZTIOPKc",
   "source_file" : "external/libcxx/include/optional"
  },
  {
   "function_name" : "std::range_error::range_error",
   "linker_set_key" : "_ZNSt11range_errorC1EPKc",
   "parameters" :
   [
    {
     "is_this_ptr" : true,
     "referenced_type" : "_ZTIPSt11range_error"
    },
    {
     "referenced_type" : "_ZTIPKc"
    }
   ],
   "return_type" : "_ZTIv",
   "source_file" : "external/libcxx/include/stdexcept"
  },
  {
   "function_name" : "std::range_error::range_error",
   "linker_set_key" : "_ZNSt11range_errorC1ERKNSt3__112basic_stringIcNS0_11char_traitsIcEENS0_9allocatorIcEEEE",
   "parameters" :
   [
    {
     "is_this_ptr" : true,
     "referenced_type" : "_ZTIPSt11range_error"
    },
    {
     "referenced_type" : "_ZTIRKNSt3__112basic_stringIcNS_11char_traitsIcEENS_9allocatorIcEEEE"
    }
   ],
   "return_type" : "_ZTIv",
   "source_file" : "external/libcxx/include/stdexcept"
  },
  {
   "function_name" : "std::range_error::range_error",
   "linker_set_key" : "_ZNSt11range_errorC2EPKc",
   "parameters" :
   [
    {
     "is_this_ptr" : true,
     "referenced_type" : "_ZTIPSt11range_error"
    },
    {
     "referenced_type" : "_ZTIPKc"
    }
   ],
   "return_type" : "_ZTIv",
   "source_file" : "external/libcxx/include/stdexcept"
  },
  {
   "function_name" : "std::range_error::range_error",
   "linker_set_key" : "_ZNSt11range_errorC2ERKNSt3__112basic_stringIcNS0_11char_traitsIcEENS0_9allocatorIcEEEE",
   "parameters" :
   [
    {
     "is_this_ptr" : true,
     "referenced_type" : "_ZTIPSt11range_error"
    },
    {
     "referenced_type" : "_ZTIRKNSt3__112basic_stringIcNS_11char_traitsIcEENS_9allocatorIcEEEE"
    }
   ],
   "return_type" : "_ZTIv",
   "source_file" : "external/libcxx/include/stdexcept"
  },
  {
   "function_name" : "std::domain_error::domain_error",
   "linker_set_key" : "_ZNSt12domain_errorC1EPKc",
   "parameters" :
   [
    {
     "is_this_ptr" : true,
     "referenced_type" : "_ZTIPSt12domain_error"
    },
    {
     "referenced_type" : "_ZTIPKc"
    }
   ],
   "return_type" : "_ZTIv",
   "source_file" : "external/libcxx/include/stdexcept"
  },
  {
   "function_name" : "std::domain_error::domain_error",
   "linker_set_key" : "_ZNSt12domain_errorC1ERKNSt3__112basic_stringIcNS0_11char_traitsIcEENS0_9allocatorIcEEEE",
   "parameters" :
   [
    {
     "is_this_ptr" : true,
     "referenced_type" : "_ZTIPSt12domain_error"
    },
    {
     "referenced_type" : "_ZTIRKNSt3__112basic_stringIcNS_11char_traitsIcEENS_9allocatorIcEEEE"
    }
   ],
   "return_type" : "_ZTIv",
   "source_file" : "external/libcxx/include/stdexcept"
  },
  {
   "function_name" : "std::domain_error::domain_error",
   "linker_set_key" : "_ZNSt12domain_errorC2EPKc",
   "parameters" :
   [
    {
     "is_this_ptr" : true,
     "referenced_type" : "_ZTIPSt12domain_error"
    },
    {
     "referenced_type" : "_ZTIPKc"
    }
   ],
   "return_type" : "_ZTIv",
   "source_file" : "external/libcxx/include/stdexcept"
  },
  {
   "function_name" : "std::domain_error::domain_error",
   "linker_set_key" : "_ZNSt12domain_errorC2ERKNSt3__112basic_stringIcNS0_11char_traitsIcEENS0_9allocatorIcEEEE",
   "parameters" :
   [
    {
     "is_this_ptr" : true,
     "referenced_type" : "_ZTIPSt12domain_error"
    },
    {
     "referenced_type" : "_ZTIRKNSt3__112basic_stringIcNS_11char_traitsIcEENS_9allocatorIcEEEE"
    }
   ],
   "return_type" : "_ZTIv",
   "source_file" : "external/libcxx/include/stdexcept"
  },
  {
   "function_name" : "std::length_error::length_error",
   "linker_set_key" : "_ZNSt12length_errorC1EPKc",
   "parameters" :
   [
    {
     "is_this_ptr" : true,
     "referenced_type" : "_ZTIPSt12length_error"
    },
    {
     "referenced_type" : "_ZTIPKc"
    }
   ],
   "return_type" : "_ZTIv",
   "source_file" : "external/libcxx/include/stdexcept"
  },
  {
   "function_name" : "std::length_error::length_error",
   "linker_set_key" : "_ZNSt12length_errorC1ERKNSt3__112basic_stringIcNS0_11char_traitsIcEENS0_9allocatorIcEEEE",
   "parameters" :
   [
    {
     "is_this_ptr" : true,
     "referenced_type" : "_ZTIPSt12length_error"
    },
    {
     "referenced_type" : "_ZTIRKNSt3__112basic_stringIcNS_11char_traitsIcEENS_9allocatorIcEEEE"
    }
   ],
   "return_type" : "_ZTIv",
   "source_file" : "external/libcxx/include/stdexcept"
  },
  {
   "function_name" : "std::length_error::length_error",
   "linker_set_key" : "_ZNSt12length_errorC2EPKc",
   "parameters" :
   [
    {
     "is_this_ptr" : true,
     "referenced_type" : "_ZTIPSt12length_error"
    },
    {
     "referenced_type" : "_ZTIPKc"
    }
   ],
   "return_type" : "_ZTIv",
   "source_file" : "external/libcxx/include/stdexcept"
  },
  {
   "function_name" : "std::length_error::length_error",
   "linker_set_key" : "_ZNSt12length_errorC2ERKNSt3__112basic_stringIcNS0_11char_traitsIcEENS0_9allocatorIcEEEE",
   "parameters" :
   [
    {
     "is_this_ptr" : true,
     "referenced_type" : "_ZTIPSt12length_error"
    },
    {
     "referenced_type" : "_ZTIRKNSt3__112basic_stringIcNS_11char_traitsIcEENS_9allocatorIcEEEE"
    }
   ],
   "return_type" : "_ZTIv",
   "source_file" : "external/libcxx/include/stdexcept"
  },
  {
   "function_name" : "std::out_of_range::out_of_range",
   "linker_set_key" : "_ZNSt12out_of_rangeC1EPKc",
   "parameters" :
   [
    {
     "is_this_ptr" : true,
     "referenced_type" : "_ZTIPSt12out_of_range"
    },
    {
     "referenced_type" : "_ZTIPKc"
    }
   ],
   "return_type" : "_ZTIv",
   "source_file" : "external/libcxx/include/stdexcept"
  },
  {
   "function_name" : "std::out_of_range::out_of_range",
   "linker_set_key" : "_ZNSt12out_of_rangeC1ERKNSt3__112basic_stringIcNS0_11char_traitsIcEENS0_9allocatorIcEEEE",
   "parameters" :
   [
    {
     "is_this_ptr" : true,
     "referenced_type" : "_ZTIPSt12out_of_range"
    },
    {
     "referenced_type" : "_ZTIRKNSt3__112basic_stringIcNS_11char_traitsIcEENS_9allocatorIcEEEE"
    }
   ],
   "return_type" : "_ZTIv",
   "source_file" : "external/libcxx/include/stdexcept"
  },
  {
   "function_name" : "std::out_of_range::out_of_range",
   "linker_set_key" : "_ZNSt12out_of_rangeC2EPKc",
   "parameters" :
   [
    {
     "is_this_ptr" : true,
     "referenced_type" : "_ZTIPSt12out_of_range"
    },
    {
     "referenced_type" : "_ZTIPKc"
    }
   ],
   "return_type" : "_ZTIv",
   "source_file" : "external/libcxx/include/stdexcept"
  },
  {
   "function_name" : "std::out_of_range::out_of_range",
   "linker_set_key" : "_ZNSt12out_of_rangeC2ERKNSt3__112basic_stringIcNS0_11char_traitsIcEENS0_9allocatorIcEEEE",
   "parameters" :
   [
    {
     "is_this_ptr" : true,
     "referenced_type" : "_ZTIPSt12out_of_range"
    },
    {
     "referenced_type" : "_ZTIRKNSt3__112basic_stringIcNS_11char_traitsIcEENS_9allocatorIcEEEE"
    }
   ],
   "return_type" : "_ZTIv",
   "source_file" : "external/libcxx/include/stdexcept"
  },
  {
   "function_name" : "std::bad_exception::bad_exception",
   "linker_set_key" : "_ZNSt13bad_exceptionC1Ev",
   "parameters" :
   [
    {
     "is_this_ptr" : true,
     "referenced_type" : "_ZTIPSt13bad_exception"
    }
   ],
   "return_type" : "_ZTIv",
   "source_file" : "external/libcxx/include/exception"
  },
  {
   "function_name" : "std::bad_exception::bad_exception",
   "linker_set_key" : "_ZNSt13bad_exceptionC2Ev",
   "parameters" :
   [
    {
     "is_this_ptr" : true,
     "referenced_type" : "_ZTIPSt13bad_exception"
    }
   ],
   "return_type" : "_ZTIv",
   "source_file" : "external/libcxx/include/exception"
  },
  {
   "function_name" : "std::exception_ptr::exception_ptr",
   "linker_set_key" : "_ZNSt13exception_ptrC1EDn",
   "parameters" :
   [
    {
     "is_this_ptr" : true,
     "referenced_type" : "_ZTIPSt13exception_ptr"
    },
    {
     "referenced_type" : "_ZTIDn"
    }
   ],
   "return_type" : "_ZTIv",
   "source_file" : "external/libcxx/include/exception"
  },
  {
   "function_name" : "std::exception_ptr::exception_ptr",
   "linker_set_key" : "_ZNSt13exception_ptrC1Ev",
   "parameters" :
   [
    {
     "is_this_ptr" : true,
     "referenced_type" : "_ZTIPSt13exception_ptr"
    }
   ],
   "return_type" : "_ZTIv",
   "source_file" : "external/libcxx/include/exception"
  },
  {
   "function_name" : "std::exception_ptr::exception_ptr",
   "linker_set_key" : "_ZNSt13exception_ptrC2EDn",
   "parameters" :
   [
    {
     "is_this_ptr" : true,
     "referenced_type" : "_ZTIPSt13exception_ptr"
    },
    {
     "referenced_type" : "_ZTIDn"
    }
   ],
   "return_type" : "_ZTIv",
   "source_file" : "external/libcxx/include/exception"
  },
  {
   "function_name" : "std::exception_ptr::exception_ptr",
   "linker_set_key" : "_ZNSt13exception_ptrC2Ev",
   "parameters" :
   [
    {
     "is_this_ptr" : true,
     "referenced_type" : "_ZTIPSt13exception_ptr"
    }
   ],
   "return_type" : "_ZTIv",
   "source_file" : "external/libcxx/include/exception"
  },
  {
   "function_name" : "std::overflow_error::overflow_error",
   "linker_set_key" : "_ZNSt14overflow_errorC1EPKc",
   "parameters" :
   [
    {
     "is_this_ptr" : true,
     "referenced_type" : "_ZTIPSt14overflow_error"
    },
    {
     "referenced_type" : "_ZTIPKc"
    }
   ],
   "return_type" : "_ZTIv",
   "source_file" : "external/libcxx/include/stdexcept"
  },
  {
   "function_name" : "std::overflow_error::overflow_error",
   "linker_set_key" : "_ZNSt14overflow_errorC1ERKNSt3__112basic_stringIcNS0_11char_traitsIcEENS0_9allocatorIcEEEE",
   "parameters" :
   [
    {
     "is_this_ptr" : true,
     "referenced_type" : "_ZTIPSt14overflow_error"
    },
    {
     "referenced_type" : "_ZTIRKNSt3__112basic_stringIcNS_11char_traitsIcEENS_9allocatorIcEEEE"
    }
   ],
   "return_type" : "_ZTIv",
   "source_file" : "external/libcxx/include/stdexcept"
  },
  {
   "function_name" : "std::overflow_error::overflow_error",
   "linker_set_key" : "_ZNSt14overflow_errorC2EPKc",
   "parameters" :
   [
    {
     "is_this_ptr" : true,
     "referenced_type" : "_ZTIPSt14overflow_error"
    },
    {
     "referenced_type" : "_ZTIPKc"
    }
   ],
   "return_type" : "_ZTIv",
   "source_file" : "external/libcxx/include/stdexcept"
  },
  {
   "function_name" : "std::overflow_error::overflow_error",
   "linker_set_key" : "_ZNSt14overflow_errorC2ERKNSt3__112basic_stringIcNS0_11char_traitsIcEENS0_9allocatorIcEEEE",
   "parameters" :
   [
    {
     "is_this_ptr" : true,
     "referenced_type" : "_ZTIPSt14overflow_error"
    },
    {
     "referenced_type" : "_ZTIRKNSt3__112basic_stringIcNS_11char_traitsIcEENS_9allocatorIcEEEE"
    }
   ],
   "return_type" : "_ZTIv",
   "source_file" : "external/libcxx/include/stdexcept"
  },
  {
   "function_name" : "std::underflow_error::underflow_error",
   "linker_set_key" : "_ZNSt15underflow_errorC1EPKc",
   "parameters" :
   [
    {
     "is_this_ptr" : true,
     "referenced_type" : "_ZTIPSt15underflow_error"
    },
    {
     "referenced_type" : "_ZTIPKc"
    }
   ],
   "return_type" : "_ZTIv",
   "source_file" : "external/libcxx/include/stdexcept"
  },
  {
   "function_name" : "std::underflow_error::underflow_error",
   "linker_set_key" : "_ZNSt15underflow_errorC1ERKNSt3__112basic_stringIcNS0_11char_traitsIcEENS0_9allocatorIcEEEE",
   "parameters" :
   [
    {
     "is_this_ptr" : true,
     "referenced_type" : "_ZTIPSt15underflow_error"
    },
    {
     "referenced_type" : "_ZTIRKNSt3__112basic_stringIcNS_11char_traitsIcEENS_9allocatorIcEEEE"
    }
   ],
   "return_type" : "_ZTIv",
   "source_file" : "external/libcxx/include/stdexcept"
  },
  {
   "function_name" : "std::underflow_error::underflow_error",
   "linker_set_key" : "_ZNSt15underflow_errorC2EPKc",
   "parameters" :
   [
    {
     "is_this_ptr" : true,
     "referenced_type" : "_ZTIPSt15underflow_error"
    },
    {
     "referenced_type" : "_ZTIPKc"
    }
   ],
   "return_type" : "_ZTIv",
   "source_file" : "external/libcxx/include/stdexcept"
  },
  {
   "function_name" : "std::underflow_error::underflow_error",
   "linker_set_key" : "_ZNSt15underflow_errorC2ERKNSt3__112basic_stringIcNS0_11char_traitsIcEENS0_9allocatorIcEEEE",
   "parameters" :
   [
    {
     "is_this_ptr" : true,
     "referenced_type" : "_ZTIPSt15underflow_error"
    },
    {
     "referenced_type" : "_ZTIRKNSt3__112basic_stringIcNS_11char_traitsIcEENS_9allocatorIcEEEE"
    }
   ],
   "return_type" : "_ZTIv",
   "source_file" : "external/libcxx/include/stdexcept"
  },
  {
   "function_name" : "std::invalid_argument::invalid_argument",
   "linker_set_key" : "_ZNSt16invalid_argumentC1EPKc",
   "parameters" :
   [
    {
     "is_this_ptr" : true,
     "referenced_type" : "_ZTIPSt16invalid_argument"
    },
    {
     "referenced_type" : "_ZTIPKc"
    }
   ],
   "return_type" : "_ZTIv",
   "source_file" : "external/libcxx/include/stdexcept"
  },
  {
   "function_name" : "std::invalid_argument::invalid_argument",
   "linker_set_key" : "_ZNSt16invalid_argumentC1ERKNSt3__112basic_stringIcNS0_11char_traitsIcEENS0_9allocatorIcEEEE",
   "parameters" :
   [
    {
     "is_this_ptr" : true,
     "referenced_type" : "_ZTIPSt16invalid_argument"
    },
    {
     "referenced_type" : "_ZTIRKNSt3__112basic_stringIcNS_11char_traitsIcEENS_9allocatorIcEEEE"
    }
   ],
   "return_type" : "_ZTIv",
   "source_file" : "external/libcxx/include/stdexcept"
  },
  {
   "function_name" : "std::invalid_argument::invalid_argument",
   "linker_set_key" : "_ZNSt16invalid_argumentC2EPKc",
   "parameters" :
   [
    {
     "is_this_ptr" : true,
     "referenced_type" : "_ZTIPSt16invalid_argument"
    },
    {
     "referenced_type" : "_ZTIPKc"
    }
   ],
   "return_type" : "_ZTIv",
   "source_file" : "external/libcxx/include/stdexcept"
  },
  {
   "function_name" : "std::invalid_argument::invalid_argument",
   "linker_set_key" : "_ZNSt16invalid_argumentC2ERKNSt3__112basic_stringIcNS0_11char_traitsIcEENS0_9allocatorIcEEEE",
   "parameters" :
   [
    {
     "is_this_ptr" : true,
     "referenced_type" : "_ZTIPSt16invalid_argument"
    },
    {
     "referenced_type" : "_ZTIRKNSt3__112basic_stringIcNS_11char_traitsIcEENS_9allocatorIcEEEE"
    }
   ],
   "return_type" : "_ZTIv",
   "source_file" : "external/libcxx/include/stdexcept"
  },
  {
   "function_name" : "std::__1::__function::__policy::__create_empty",
   "linker_set_key" : "_ZNSt3__110__function8__policy14__create_emptyEv",
   "return_type" : "_ZTIPKNSt3__110__function8__policyE",
   "source_file" : "external/libcxx/include/functional"
  },
  {
   "function_name" : "std::__1::__loadword",
   "linker_set_key" : "_ZNSt3__110__loadwordIjEET_PKv",
   "parameters" :
   [
    {
     "referenced_type" : "_ZTIPKv"
    }
   ],
   "return_type" : "_ZTIj",
   "source_file" : "external/libcxx/include/utility",
   "template_args" : [ "_ZTIj" ]
  },
  {
   "function_name" : "std::__1::__loadword",
   "linker_set_key" : "_ZNSt3__110__loadwordImEET_PKv",
   "parameters" :
   [
    {
     "referenced_type" : "_ZTIPKv"
    }
   ],
   "return_type" : "_ZTIm",
   "source_file" : "external/libcxx/include/utility",
   "template_args" : [ "_ZTIm" ]
  },
  {
   "function_name" : "std::__1::__popcount",
   "linker_set_key" : "_ZNSt3__110__popcountEj",
   "parameters" :
   [
    {
     "referenced_type" : "_ZTIj"
    }
   ],
   "return_type" : "_ZTIi",
   "source_file" : "external/libcxx/include/bit"
  },
  {
   "function_name" : "std::__1::__popcount",
   "linker_set_key" : "_ZNSt3__110__popcountEm",
   "parameters" :
   [
    {
     "referenced_type" : "_ZTIm"
    }
   ],
   "return_type" : "_ZTIi",
   "source_file" : "external/libcxx/include/bit"
  },
  {
   "function_name" : "std::__1::__popcount",
   "linker_set_key" : "_ZNSt3__110__popcountEy",
   "parameters" :
   [
    {
     "referenced_type" : "_ZTIy"
    }
   ],
   "return_type" : "_ZTIi",
   "source_file" : "external/libcxx/include/bit"
  },
  {
   "function_name" : "std::__1::in_place_t::in_place_t",
   "linker_set_key" : "_ZNSt3__110in_place_tC1Ev",
   "parameters" :
   [
    {
     "is_this_ptr" : true,
     "referenced_type" : "_ZTIPNSt3__110in_place_tE"
    }
   ],
   "return_type" : "_ZTIv",
   "source_file" : "external/libcxx/include/utility"
  },
  {
   "function_name" : "std::__1::in_place_t::in_place_t",
   "linker_set_key" : "_ZNSt3__110in_place_tC2Ev",
   "parameters" :
   [
    {
     "is_this_ptr" : true,
     "referenced_type" : "_ZTIPNSt3__110in_place_tE"
    }
   ],
   "return_type" : "_ZTIv",
   "source_file" : "external/libcxx/include/utility"
  },
  {
   "function_name" : "std::__1::atomic_flag::test_and_set",
   "linker_set_key" : "_ZNSt3__111atomic_flag12test_and_setENS_12memory_orderE",
   "parameters" :
   [
    {
     "is_this_ptr" : true,
     "referenced_type" : "_ZTIPNSt3__111atomic_flagE"
    },
    {
     "default_arg" : true,
     "referenced_type" : "_ZTINSt3__112memory_orderE"
    }
   ],
   "return_type" : "_ZTIb",
   "source_file" : "external/libcxx/include/atomic"
  },
  {
   "function_name" : "std::__1::atomic_flag::clear",
   "linker_set_key" : "_ZNSt3__111atomic_flag5clearENS_12memory_orderE",
   "parameters" :
   [
    {
     "is_this_ptr" : true,
     "referenced_type" : "_ZTIPNSt3__111atomic_flagE"
    },
    {
     "default_arg" : true,
     "referenced_type" : "_ZTINSt3__112memory_orderE"
    }
   ],
   "return_type" : "_ZTIv",
   "source_file" : "external/libcxx/include/atomic"
  },
  {
   "function_name" : "std::__1::atomic_flag::atomic_flag",
   "linker_set_key" : "_ZNSt3__111atomic_flagC1Eb",
   "parameters" :
   [
    {
     "is_this_ptr" : true,
     "referenced_type" : "_ZTIPNSt3__111atomic_flagE"
    },
    {
     "referenced_type" : "_ZTIb"
    }
   ],
   "return_type" : "_ZTIv",
   "source_file" : "external/libcxx/include/atomic"
  },
  {
   "function_name" : "std::__1::atomic_flag::atomic_flag",
   "linker_set_key" : "_ZNSt3__111atomic_flagC1Ev",
   "parameters" :
   [
    {
     "is_this_ptr" : true,
     "referenced_type" : "_ZTIPNSt3__111atomic_flagE"
    }
   ],
   "return_type" : "_ZTIv",
   "source_file" : "external/libcxx/include/atomic"
  },
  {
   "function_name" : "std::__1::atomic_flag::atomic_flag",
   "linker_set_key" : "_ZNSt3__111atomic_flagC2Eb",
   "parameters" :
   [
    {
     "is_this_ptr" : true,
     "referenced_type" : "_ZTIPNSt3__111atomic_flagE"
    },
    {
     "referenced_type" : "_ZTIb"
    }
   ],
   "return_type" : "_ZTIv",
   "source_file" : "external/libcxx/include/atomic"
  },
  {
   "function_name" : "std::__1::atomic_flag::atomic_flag",
   "linker_set_key" : "_ZNSt3__111atomic_flagC2Ev",
   "parameters" :
   [
    {
     "is_this_ptr" : true,
     "referenced_type" : "_ZTIPNSt3__111atomic_flagE"
    }
   ],
   "return_type" : "_ZTIv",
   "source_file" : "external/libcxx/include/atomic"
  },
  {
   "function_name" : "std::__1::char_traits<char32_t>::eq_int_type",
   "linker_set_key" : "_ZNSt3__111char_traitsIDiE11eq_int_typeEjj",
   "parameters" :
   [
    {
     "referenced_type" : "_ZTIj"
    },
    {
     "referenced_type" : "_ZTIj"
    }
   ],
   "return_type" : "_ZTIb",
   "source_file" : "external/libcxx/include/__string"
  },
  {
   "function_name" : "std::__1::char_traits<char32_t>::to_int_type",
   "linker_set_key" : "_ZNSt3__111char_traitsIDiE11to_int_typeEDi",
   "parameters" :
   [
    {
     "referenced_type" : "_ZTIDi"
    }
   ],
   "return_type" : "_ZTIj",
   "source_file" : "external/libcxx/include/__string"
  },
  {
   "function_name" : "std::__1::char_traits<char32_t>::to_char_type",
   "linker_set_key" : "_ZNSt3__111char_traitsIDiE12to_char_typeEj",
   "parameters" :
   [
    {
     "referenced_type" : "_ZTIj"
    }
   ],
   "return_type" : "_ZTIDi",
   "source_file" : "external/libcxx/include/__string"
  },
  {
   "function_name" : "std::__1::char_traits<char32_t>::eq",
   "linker_set_key" : "_ZNSt3__111char_traitsIDiE2eqEDiDi",
   "parameters" :
   [
    {
     "referenced_type" : "_ZTIDi"
    },
    {
     "referenced_type" : "_ZTIDi"
    }
   ],
   "return_type" : "_ZTIb",
   "source_file" : "external/libcxx/include/__string"
  },
  {
   "function_name" : "std::__1::char_traits<char32_t>::lt",
   "linker_set_key" : "_ZNSt3__111char_traitsIDiE2ltEDiDi",
   "parameters" :
   [
    {
     "referenced_type" : "_ZTIDi"
    },
    {
     "referenced_type" : "_ZTIDi"
    }
   ],
   "return_type" : "_ZTIb",
   "source_file" : "external/libcxx/include/__string"
  },
  {
   "function_name" : "std::__1::char_traits<char32_t>::eof",
   "linker_set_key" : "_ZNSt3__111char_traitsIDiE3eofEv",
   "return_type" : "_ZTIj",
   "source_file" : "external/libcxx/include/__string"
  },
  {
   "function_name" : "std::__1::char_traits<char32_t>::copy",
   "linker_set_key" : "_ZNSt3__111char_traitsIDiE4copyEPDiPKDim",
   "parameters" :
   [
    {
     "referenced_type" : "_ZTIPDi"
    },
    {
     "referenced_type" : "_ZTIPKDi"
    },
    {
     "referenced_type" : "_ZTIm"
    }
   ],
   "return_type" : "_ZTIPDi",
   "source_file" : "external/libcxx/include/__string"
  },
  {
   "function_name" : "std::__1::char_traits<char32_t>::find",
   "linker_set_key" : "_ZNSt3__111char_traitsIDiE4findEPKDimRS2_",
   "parameters" :
   [
    {
     "referenced_type" : "_ZTIPKDi"
    },
    {
     "referenced_type" : "_ZTIm"
    },
    {
     "referenced_type" : "_ZTIRKDi"
    }
   ],
   "return_type" : "_ZTIPKDi",
   "source_file" : "external/libcxx/include/__string"
  },
  {
   "function_name" : "std::__1::char_traits<char32_t>::move",
   "linker_set_key" : "_ZNSt3__111char_traitsIDiE4moveEPDiPKDim",
   "parameters" :
   [
    {
     "referenced_type" : "_ZTIPDi"
    },
    {
     "referenced_type" : "_ZTIPKDi"
    },
    {
     "referenced_type" : "_ZTIm"
    }
   ],
   "return_type" : "_ZTIPDi",
   "source_file" : "external/libcxx/include/__string"
  },
  {
   "function_name" : "std::__1::char_traits<char32_t>::assign",
   "linker_set_key" : "_ZNSt3__111char_traitsIDiE6assignEPDimDi",
   "parameters" :
   [
    {
     "referenced_type" : "_ZTIPDi"
    },
    {
     "referenced_type" : "_ZTIm"
    },
    {
     "referenced_type" : "_ZTIDi"
    }
   ],
   "return_type" : "_ZTIPDi",
   "source_file" : "external/libcxx/include/__string"
  },
  {
   "function_name" : "std::__1::char_traits<char32_t>::assign",
   "linker_set_key" : "_ZNSt3__111char_traitsIDiE6assignERDiRKDi",
   "parameters" :
   [
    {
     "referenced_type" : "_ZTIRDi"
    },
    {
     "referenced_type" : "_ZTIRKDi"
    }
   ],
   "return_type" : "_ZTIv",
   "source_file" : "external/libcxx/include/__string"
  },
  {
   "function_name" : "std::__1::char_traits<char32_t>::length",
   "linker_set_key" : "_ZNSt3__111char_traitsIDiE6lengthEPKDi",
   "parameters" :
   [
    {
     "referenced_type" : "_ZTIPKDi"
    }
   ],
   "return_type" : "_ZTIm",
   "source_file" : "external/libcxx/include/__string"
  },
  {
   "function_name" : "std::__1::char_traits<char32_t>::compare",
   "linker_set_key" : "_ZNSt3__111char_traitsIDiE7compareEPKDiS3_m",
   "parameters" :
   [
    {
     "referenced_type" : "_ZTIPKDi"
    },
    {
     "referenced_type" : "_ZTIPKDi"
    },
    {
     "referenced_type" : "_ZTIm"
    }
   ],
   "return_type" : "_ZTIi",
   "source_file" : "external/libcxx/include/__string"
  },
  {
   "function_name" : "std::__1::char_traits<char32_t>::not_eof",
   "linker_set_key" : "_ZNSt3__111char_traitsIDiE7not_eofEj",
   "parameters" :
   [
    {
     "referenced_type" : "_ZTIj"
    }
   ],
   "return_type" : "_ZTIj",
   "source_file" : "external/libcxx/include/__string"
  },
  {
   "function_name" : "std::__1::char_traits<char16_t>::eq_int_type",
   "linker_set_key" : "_ZNSt3__111char_traitsIDsE11eq_int_typeEtt",
   "parameters" :
   [
    {
     "referenced_type" : "_ZTIt"
    },
    {
     "referenced_type" : "_ZTIt"
    }
   ],
   "return_type" : "_ZTIb",
   "source_file" : "external/libcxx/include/__string"
  },
  {
   "function_name" : "std::__1::char_traits<char16_t>::to_int_type",
   "linker_set_key" : "_ZNSt3__111char_traitsIDsE11to_int_typeEDs",
   "parameters" :
   [
    {
     "referenced_type" : "_ZTIDs"
    }
   ],
   "return_type" : "_ZTIt",
   "source_file" : "external/libcxx/include/__string"
  },
  {
   "function_name" : "std::__1::char_traits<char16_t>::to_char_type",
   "linker_set_key" : "_ZNSt3__111char_traitsIDsE12to_char_typeEt",
   "parameters" :
   [
    {
     "referenced_type" : "_ZTIt"
    }
   ],
   "return_type" : "_ZTIDs",
   "source_file" : "external/libcxx/include/__string"
  },
  {
   "function_name" : "std::__1::char_traits<char16_t>::eq",
   "linker_set_key" : "_ZNSt3__111char_traitsIDsE2eqEDsDs",
   "parameters" :
   [
    {
     "referenced_type" : "_ZTIDs"
    },
    {
     "referenced_type" : "_ZTIDs"
    }
   ],
   "return_type" : "_ZTIb",
   "source_file" : "external/libcxx/include/__string"
  },
  {
   "function_name" : "std::__1::char_traits<char16_t>::lt",
   "linker_set_key" : "_ZNSt3__111char_traitsIDsE2ltEDsDs",
   "parameters" :
   [
    {
     "referenced_type" : "_ZTIDs"
    },
    {
     "referenced_type" : "_ZTIDs"
    }
   ],
   "return_type" : "_ZTIb",
   "source_file" : "external/libcxx/include/__string"
  },
  {
   "function_name" : "std::__1::char_traits<char16_t>::eof",
   "linker_set_key" : "_ZNSt3__111char_traitsIDsE3eofEv",
   "return_type" : "_ZTIt",
   "source_file" : "external/libcxx/include/__string"
  },
  {
   "function_name" : "std::__1::char_traits<char16_t>::copy",
   "linker_set_key" : "_ZNSt3__111char_traitsIDsE4copyEPDsPKDsm",
   "parameters" :
   [
    {
     "referenced_type" : "_ZTIPDs"
    },
    {
     "referenced_type" : "_ZTIPKDs"
    },
    {
     "referenced_type" : "_ZTIm"
    }
   ],
   "return_type" : "_ZTIPDs",
   "source_file" : "external/libcxx/include/__string"
  },
  {
   "function_name" : "std::__1::char_traits<char16_t>::find",
   "linker_set_key" : "_ZNSt3__111char_traitsIDsE4findEPKDsmRS2_",
   "parameters" :
   [
    {
     "referenced_type" : "_ZTIPKDs"
    },
    {
     "referenced_type" : "_ZTIm"
    },
    {
     "referenced_type" : "_ZTIRKDs"
    }
   ],
   "return_type" : "_ZTIPKDs",
   "source_file" : "external/libcxx/include/__string"
  },
  {
   "function_name" : "std::__1::char_traits<char16_t>::move",
   "linker_set_key" : "_ZNSt3__111char_traitsIDsE4moveEPDsPKDsm",
   "parameters" :
   [
    {
     "referenced_type" : "_ZTIPDs"
    },
    {
     "referenced_type" : "_ZTIPKDs"
    },
    {
     "referenced_type" : "_ZTIm"
    }
   ],
   "return_type" : "_ZTIPDs",
   "source_file" : "external/libcxx/include/__string"
  },
  {
   "function_name" : "std::__1::char_traits<char16_t>::assign",
   "linker_set_key" : "_ZNSt3__111char_traitsIDsE6assignEPDsmDs",
   "parameters" :
   [
    {
     "referenced_type" : "_ZTIPDs"
    },
    {
     "referenced_type" : "_ZTIm"
    },
    {
     "referenced_type" : "_ZTIDs"
    }
   ],
   "return_type" : "_ZTIPDs",
   "source_file" : "external/libcxx/include/__string"
  },
  {
   "function_name" : "std::__1::char_traits<char16_t>::assign",
   "linker_set_key" : "_ZNSt3__111char_traitsIDsE6assignERDsRKDs",
   "parameters" :
   [
    {
     "referenced_type" : "_ZTIRDs"
    },
    {
     "referenced_type" : "_ZTIRKDs"
    }
   ],
   "return_type" : "_ZTIv",
   "source_file" : "external/libcxx/include/__string"
  },
  {
   "function_name" : "std::__1::char_traits<char16_t>::length",
   "linker_set_key" : "_ZNSt3__111char_traitsIDsE6lengthEPKDs",
   "parameters" :
   [
    {
     "referenced_type" : "_ZTIPKDs"
    }
   ],
   "return_type" : "_ZTIm",
   "source_file" : "external/libcxx/include/__string"
  },
  {
   "function_name" : "std::__1::char_traits<char16_t>::compare",
   "linker_set_key" : "_ZNSt3__111char_traitsIDsE7compareEPKDsS3_m",
   "parameters" :
   [
    {
     "referenced_type" : "_ZTIPKDs"
    },
    {
     "referenced_type" : "_ZTIPKDs"
    },
    {
     "referenced_type" : "_ZTIm"
    }
   ],
   "return_type" : "_ZTIi",
   "source_file" : "external/libcxx/include/__string"
  },
  {
   "function_name" : "std::__1::char_traits<char16_t>::not_eof",
   "linker_set_key" : "_ZNSt3__111char_traitsIDsE7not_eofEt",
   "parameters" :
   [
    {
     "referenced_type" : "_ZTIt"
    }
   ],
   "return_type" : "_ZTIt",
   "source_file" : "external/libcxx/include/__string"
  },
  {
   "function_name" : "std::__1::char_traits<char>::eq_int_type",
   "linker_set_key" : "_ZNSt3__111char_traitsIcE11eq_int_typeEii",
   "parameters" :
   [
    {
     "referenced_type" : "_ZTIi"
    },
    {
     "referenced_type" : "_ZTIi"
    }
   ],
   "return_type" : "_ZTIb",
   "source_file" : "external/libcxx/include/__string"
  },
  {
   "function_name" : "std::__1::char_traits<char>::to_int_type",
   "linker_set_key" : "_ZNSt3__111char_traitsIcE11to_int_typeEc",
   "parameters" :
   [
    {
     "referenced_type" : "_ZTIc"
    }
   ],
   "return_type" : "_ZTIi",
   "source_file" : "external/libcxx/include/__string"
  },
  {
   "function_name" : "std::__1::char_traits<char>::to_char_type",
   "linker_set_key" : "_ZNSt3__111char_traitsIcE12to_char_typeEi",
   "parameters" :
   [
    {
     "referenced_type" : "_ZTIi"
    }
   ],
   "return_type" : "_ZTIc",
   "source_file" : "external/libcxx/include/__string"
  },
  {
   "function_name" : "std::__1::char_traits<char>::eq",
   "linker_set_key" : "_ZNSt3__111char_traitsIcE2eqEcc",
   "parameters" :
   [
    {
     "referenced_type" : "_ZTIc"
    },
    {
     "referenced_type" : "_ZTIc"
    }
   ],
   "return_type" : "_ZTIb",
   "source_file" : "external/libcxx/include/__string"
  },
  {
   "function_name" : "std::__1::char_traits<char>::lt",
   "linker_set_key" : "_ZNSt3__111char_traitsIcE2ltEcc",
   "parameters" :
   [
    {
     "referenced_type" : "_ZTIc"
    },
    {
     "referenced_type" : "_ZTIc"
    }
   ],
   "return_type" : "_ZTIb",
   "source_file" : "external/libcxx/include/__string"
  },
  {
   "function_name" : "std::__1::char_traits<char>::eof",
   "linker_set_key" : "_ZNSt3__111char_traitsIcE3eofEv",
   "return_type" : "_ZTIi",
   "source_file" : "external/libcxx/include/__string"
  },
  {
   "function_name" : "std::__1::char_traits<char>::copy",
   "linker_set_key" : "_ZNSt3__111char_traitsIcE4copyEPcPKcm",
   "parameters" :
   [
    {
     "referenced_type" : "_ZTIPc"
    },
    {
     "referenced_type" : "_ZTIPKc"
    },
    {
     "referenced_type" : "_ZTIm"
    }
   ],
   "return_type" : "_ZTIPc",
   "source_file" : "external/libcxx/include/__string"
  },
  {
   "function_name" : "std::__1::char_traits<char>::find",
   "linker_set_key" : "_ZNSt3__111char_traitsIcE4findEPKcmRS2_",
   "parameters" :
   [
    {
     "referenced_type" : "_ZTIPKc"
    },
    {
     "referenced_type" : "_ZTIm"
    },
    {
     "referenced_type" : "_ZTIRKc"
    }
   ],
   "return_type" : "_ZTIPKc",
   "source_file" : "external/libcxx/include/__string"
  },
  {
   "function_name" : "std::__1::char_traits<char>::move",
   "linker_set_key" : "_ZNSt3__111char_traitsIcE4moveEPcPKcm",
   "parameters" :
   [
    {
     "referenced_type" : "_ZTIPc"
    },
    {
     "referenced_type" : "_ZTIPKc"
    },
    {
     "referenced_type" : "_ZTIm"
    }
   ],
   "return_type" : "_ZTIPc",
   "source_file" : "external/libcxx/include/__string"
  },
  {
   "function_name" : "std::__1::char_traits<char>::assign",
   "linker_set_key" : "_ZNSt3__111char_traitsIcE6assignEPcmc",
   "parameters" :
   [
    {
     "referenced_type" : "_ZTIPc"
    },
    {
     "referenced_type" : "_ZTIm"
    },
    {
     "referenced_type" : "_ZTIc"
    }
   ],
   "return_type" : "_ZTIPc",
   "source_file" : "external/libcxx/include/__string"
  },
  {
   "function_name" : "std::__1::char_traits<char>::assign",
   "linker_set_key" : "_ZNSt3__111char_traitsIcE6assignERcRKc",
   "parameters" :
   [
    {
     "referenced_type" : "_ZTIRc"
    },
    {
     "referenced_type" : "_ZTIRKc"
    }
   ],
   "return_type" : "_ZTIv",
   "source_file" : "external/libcxx/include/__string"
  },
  {
   "function_name" : "std::__1::char_traits<char>::length",
   "linker_set_key" : "_ZNSt3__111char_traitsIcE6lengthEPKc",
   "parameters" :
   [
    {
     "referenced_type" : "_ZTIPKc"
    }
   ],
   "return_type" : "_ZTIm",
   "source_file" : "external/libcxx/include/__string"
  },
  {
   "function_name" : "std::__1::char_traits<char>::compare",
   "linker_set_key" : "_ZNSt3__111char_traitsIcE7compareEPKcS3_m",
   "parameters" :
   [
    {
     "referenced_type" : "_ZTIPKc"
    },
    {
     "referenced_type" : "_ZTIPKc"
    },
    {
     "referenced_type" : "_ZTIm"
    }
   ],
   "return_type" : "_ZTIi",
   "source_file" : "external/libcxx/include/__string"
  },
  {
   "function_name" : "std::__1::char_traits<char>::not_eof",
   "linker_set_key" : "_ZNSt3__111char_traitsIcE7not_eofEi",
   "parameters" :
   [
    {
     "referenced_type" : "_ZTIi"
    }
   ],
   "return_type" : "_ZTIi",
   "source_file" : "external/libcxx/include/__string"
  },
  {
   "function_name" : "std::__1::char_traits<wchar_t>::eq_int_type",
   "linker_set_key" : "_ZNSt3__111char_traitsIwE11eq_int_typeEjj",
   "parameters" :
   [
    {
     "referenced_type" : "_ZTIj"
    },
    {
     "referenced_type" : "_ZTIj"
    }
   ],
   "return_type" : "_ZTIb",
   "source_file" : "external/libcxx/include/__string"
  },
  {
   "function_name" : "std::__1::char_traits<wchar_t>::to_int_type",
   "linker_set_key" : "_ZNSt3__111char_traitsIwE11to_int_typeEw",
   "parameters" :
   [
    {
     "referenced_type" : "_ZTIw"
    }
   ],
   "return_type" : "_ZTIj",
   "source_file" : "external/libcxx/include/__string"
  },
  {
   "function_name" : "std::__1::char_traits<wchar_t>::to_char_type",
   "linker_set_key" : "_ZNSt3__111char_traitsIwE12to_char_typeEj",
   "parameters" :
   [
    {
     "referenced_type" : "_ZTIj"
    }
   ],
   "return_type" : "_ZTIw",
   "source_file" : "external/libcxx/include/__string"
  },
  {
   "function_name" : "std::__1::char_traits<wchar_t>::eq",
   "linker_set_key" : "_ZNSt3__111char_traitsIwE2eqEww",
   "parameters" :
   [
    {
     "referenced_type" : "_ZTIw"
    },
    {
     "referenced_type" : "_ZTIw"
    }
   ],
   "return_type" : "_ZTIb",
   "source_file" : "external/libcxx/include/__string"
  },
  {
   "function_name" : "std::__1::char_traits<wchar_t>::lt",
   "linker_set_key" : "_ZNSt3__111char_traitsIwE2ltEww",
   "parameters" :
   [
    {
     "referenced_type" : "_ZTIw"
    },
    {
     "referenced_type" : "_ZTIw"
    }
   ],
   "return_type" : "_ZTIb",
   "source_file" : "external/libcxx/include/__string"
  },
  {
   "function_name" : "std::__1::char_traits<wchar_t>::eof",
   "linker_set_key" : "_ZNSt3__111char_traitsIwE3eofEv",
   "return_type" : "_ZTIj",
   "source_file" : "external/libcxx/include/__string"
  },
  {
   "function_name" : "std::__1::char_traits<wchar_t>::copy",
   "linker_set_key" : "_ZNSt3__111char_traitsIwE4copyEPwPKwm",
   "parameters" :
   [
    {
     "referenced_type" : "_ZTIPw"
    },
    {
     "referenced_type" : "_ZTIPKw"
    },
    {
     "referenced_type" : "_ZTIm"
    }
   ],
   "return_type" : "_ZTIPw",
   "source_file" : "external/libcxx/include/__string"
  },
  {
   "function_name" : "std::__1::char_traits<wchar_t>::find",
   "linker_set_key" : "_ZNSt3__111char_traitsIwE4findEPKwmRS2_",
   "parameters" :
   [
    {
     "referenced_type" : "_ZTIPKw"
    },
    {
     "referenced_type" : "_ZTIm"
    },
    {
     "referenced_type" : "_ZTIRKw"
    }
   ],
   "return_type" : "_ZTIPKw",
   "source_file" : "external/libcxx/include/__string"
  },
  {
   "function_name" : "std::__1::char_traits<wchar_t>::move",
   "linker_set_key" : "_ZNSt3__111char_traitsIwE4moveEPwPKwm",
   "parameters" :
   [
    {
     "referenced_type" : "_ZTIPw"
    },
    {
     "referenced_type" : "_ZTIPKw"
    },
    {
     "referenced_type" : "_ZTIm"
    }
   ],
   "return_type" : "_ZTIPw",
   "source_file" : "external/libcxx/include/__string"
  },
  {
   "function_name" : "std::__1::char_traits<wchar_t>::assign",
   "linker_set_key" : "_ZNSt3__111char_traitsIwE6assignEPwmw",
   "parameters" :
   [
    {
     "referenced_type" : "_ZTIPw"
    },
    {
     "referenced_type" : "_ZTIm"
    },
    {
     "referenced_type" : "_ZTIw"
    }
   ],
   "return_type" : "_ZTIPw",
   "source_file" : "external/libcxx/include/__string"
  },
  {
   "function_name" : "std::__1::char_traits<wchar_t>::assign",
   "linker_set_key" : "_ZNSt3__111char_traitsIwE6assignERwRKw",
   "parameters" :
   [
    {
     "referenced_type" : "_ZTIRw"
    },
    {
     "referenced_type" : "_ZTIRKw"
    }
   ],
   "return_type" : "_ZTIv",
   "source_file" : "external/libcxx/include/__string"
  },
  {
   "function_name" : "std::__1::char_traits<wchar_t>::length",
   "linker_set_key" : "_ZNSt3__111char_traitsIwE6lengthEPKw",
   "parameters" :
   [
    {
     "referenced_type" : "_ZTIPKw"
    }
   ],
   "return_type" : "_ZTIm",
   "source_file" : "external/libcxx/include/__string"
  },
  {
   "function_name" : "std::__1::char_traits<wchar_t>::compare",
   "linker_set_key" : "_ZNSt3__111char_traitsIwE7compareEPKwS3_m",
   "parameters" :
   [
    {
     "referenced_type" : "_ZTIPKw"
    },
    {
     "referenced_type" : "_ZTIPKw"
    },
    {
     "referenced_type" : "_ZTIm"
    }
   ],
   "return_type" : "_ZTIi",
   "source_file" : "external/libcxx/include/__string"
  },
  {
   "function_name" : "std::__1::char_traits<wchar_t>::not_eof",
   "linker_set_key" : "_ZNSt3__111char_traitsIwE7not_eofEj",
   "parameters" :
   [
    {
     "referenced_type" : "_ZTIj"
    }
   ],
   "return_type" : "_ZTIj",
   "source_file" : "external/libcxx/include/__string"
  },
  {
   "access" : "private",
   "function_name" : "std::__1::__destruct_n::__set",
   "linker_set_key" : "_ZNSt3__112__destruct_n5__setEmNS_17integral_constantIbLb0EEE",
   "parameters" :
   [
    {
     "is_this_ptr" : true,
     "referenced_type" : "_ZTIPNSt3__112__destruct_nE"
    },
    {
     "referenced_type" : "_ZTIm"
    },
    {
     "referenced_type" : "_ZTINSt3__117integral_constantIbLb0EEE"
    }
   ],
   "return_type" : "_ZTIv",
   "source_file" : "external/libcxx/include/memory"
  },
  {
   "access" : "private",
   "function_name" : "std::__1::__destruct_n::__set",
   "linker_set_key" : "_ZNSt3__112__destruct_n5__setEmNS_17integral_constantIbLb1EEE",
   "parameters" :
   [
    {
     "is_this_ptr" : true,
     "referenced_type" : "_ZTIPNSt3__112__destruct_nE"
    },
    {
     "referenced_type" : "_ZTIm"
    },
    {
     "referenced_type" : "_ZTINSt3__117integral_constantIbLb1EEE"
    }
   ],
   "return_type" : "_ZTIv",
   "source_file" : "external/libcxx/include/memory"
  },
  {
   "access" : "private",
   "function_name" : "std::__1::__destruct_n::__incr",
   "linker_set_key" : "_ZNSt3__112__destruct_n6__incrENS_17integral_constantIbLb0EEE",
   "parameters" :
   [
    {
     "is_this_ptr" : true,
     "referenced_type" : "_ZTIPNSt3__112__destruct_nE"
    },
    {
     "referenced_type" : "_ZTINSt3__117integral_constantIbLb0EEE"
    }
   ],
   "return_type" : "_ZTIv",
   "source_file" : "external/libcxx/include/memory"
  },
  {
   "access" : "private",
   "function_name" : "std::__1::__destruct_n::__incr",
   "linker_set_key" : "_ZNSt3__112__destruct_n6__incrENS_17integral_constantIbLb1EEE",
   "parameters" :
   [
    {
     "is_this_ptr" : true,
     "referenced_type" : "_ZTIPNSt3__112__destruct_nE"
    },
    {
     "referenced_type" : "_ZTINSt3__117integral_constantIbLb1EEE"
    }
   ],
   "return_type" : "_ZTIv",
   "source_file" : "external/libcxx/include/memory"
  },
  {
   "function_name" : "std::__1::__destruct_n::__destruct_n",
   "linker_set_key" : "_ZNSt3__112__destruct_nC1Em",
   "parameters" :
   [
    {
     "is_this_ptr" : true,
     "referenced_type" : "_ZTIPNSt3__112__destruct_nE"
    },
    {
     "referenced_type" : "_ZTIm"
    }
   ],
   "return_type" : "_ZTIv",
   "source_file" : "external/libcxx/include/memory"
  },
  {
   "function_name" : "std::__1::__destruct_n::__destruct_n",
   "linker_set_key" : "_ZNSt3__112__destruct_nC2Em",
   "parameters" :
   [
    {
     "is_this_ptr" : true,
     "referenced_type" : "_ZTIPNSt3__112__destruct_nE"
    },
    {
     "referenced_type" : "_ZTIm"
    }
   ],
   "return_type" : "_ZTIv",
   "source_file" : "external/libcxx/include/memory"
  },
  {
   "access" : "private",
   "function_name" : "std::__1::basic_string<char32_t, std::__1::char_traits<char32_t>, std::__1::allocator<char32_t>>::__align_it",
   "linker_set_key" : "_ZNSt3__112basic_stringIDiNS_11char_traitsIDiEENS_9allocatorIDiEEE10__align_itILm4EEEmm",
   "parameters" :
   [
    {
     "referenced_type" : "_ZTIm"
    }
   ],
   "return_type" : "_ZTIm",
   "source_file" : "external/libcxx/include/string"
  },
  {
   "access" : "private",
   "function_name" : "std::__1::basic_string<char32_t, std::__1::char_traits<char32_t>, std::__1::allocator<char32_t>>::__recommend",
   "linker_set_key" : "_ZNSt3__112basic_stringIDiNS_11char_traitsIDiEENS_9allocatorIDiEEE11__recommendEm",
   "parameters" :
   [
    {
     "referenced_type" : "_ZTIm"
    }
   ],
   "return_type" : "_ZTIm",
   "source_file" : "external/libcxx/include/string"
  },
  {
   "access" : "private",
   "function_name" : "std::__1::basic_string<char32_t, std::__1::char_traits<char32_t>, std::__1::allocator<char32_t>>::__set_long_cap",
   "linker_set_key" : "_ZNSt3__112basic_stringIDiNS_11char_traitsIDiEENS_9allocatorIDiEEE14__set_long_capEm",
   "parameters" :
   [
    {
     "is_this_ptr" : true,
     "referenced_type" : "_ZTIPNSt3__112basic_stringIDiNS_11char_traitsIDiEENS_9allocatorIDiEEEE"
    },
    {
     "referenced_type" : "_ZTIm"
    }
   ],
   "return_type" : "_ZTIv",
   "source_file" : "external/libcxx/include/string"
  },
  {
   "access" : "private",
   "function_name" : "std::__1::basic_string<char32_t, std::__1::char_traits<char32_t>, std::__1::allocator<char32_t>>::__set_long_size",
   "linker_set_key" : "_ZNSt3__112basic_stringIDiNS_11char_traitsIDiEENS_9allocatorIDiEEE15__set_long_sizeEm",
   "parameters" :
   [
    {
     "is_this_ptr" : true,
     "referenced_type" : "_ZTIPNSt3__112basic_stringIDiNS_11char_traitsIDiEENS_9allocatorIDiEEEE"
    },
    {
     "referenced_type" : "_ZTIm"
    }
   ],
   "return_type" : "_ZTIv",
   "source_file" : "external/libcxx/include/string"
  },
  {
   "access" : "private",
   "function_name" : "std::__1::basic_string<char32_t, std::__1::char_traits<char32_t>, std::__1::allocator<char32_t>>::__set_short_size",
   "linker_set_key" : "_ZNSt3__112basic_stringIDiNS_11char_traitsIDiEENS_9allocatorIDiEEE16__set_short_sizeEm",
   "parameters" :
   [
    {
     "is_this_ptr" : true,
     "referenced_type" : "_ZTIPNSt3__112basic_stringIDiNS_11char_traitsIDiEENS_9allocatorIDiEEEE"
    },
    {
     "referenced_type" : "_ZTIm"
    }
   ],
   "return_type" : "_ZTIv",
   "source_file" : "external/libcxx/include/string"
  },
  {
   "access" : "private",
   "function_name" : "std::__1::basic_string<char32_t, std::__1::char_traits<char32_t>, std::__1::allocator<char32_t>>::__get_long_pointer",
   "linker_set_key" : "_ZNSt3__112basic_stringIDiNS_11char_traitsIDiEENS_9allocatorIDiEEE18__get_long_pointerEv",
   "parameters" :
   [
    {
     "is_this_ptr" : true,
     "referenced_type" : "_ZTIPNSt3__112basic_stringIDiNS_11char_traitsIDiEENS_9allocatorIDiEEEE"
    }
   ],
   "return_type" : "_ZTIPDi",
   "source_file" : "external/libcxx/include/string"
  },
  {
   "access" : "private",
   "function_name" : "std::__1::basic_string<char32_t, std::__1::char_traits<char32_t>, std::__1::allocator<char32_t>>::__set_long_pointer",
   "linker_set_key" : "_ZNSt3__112basic_stringIDiNS_11char_traitsIDiEENS_9allocatorIDiEEE18__set_long_pointerEPDi",
   "parameters" :
   [
    {
     "is_this_ptr" : true,
     "referenced_type" : "_ZTIPNSt3__112basic_stringIDiNS_11char_traitsIDiEENS_9allocatorIDiEEEE"
    },
    {
     "referenced_type" : "_ZTIPDi"
    }
   ],
   "return_type" : "_ZTIv",
   "source_file" : "external/libcxx/include/string"
  },
  {
   "access" : "private",
   "function_name" : "std::__1::basic_string<char32_t, std::__1::char_traits<char32_t>, std::__1::allocator<char32_t>>::__get_short_pointer",
   "linker_set_key" : "_ZNSt3__112basic_stringIDiNS_11char_traitsIDiEENS_9allocatorIDiEEE19__get_short_pointerEv",
   "parameters" :
   [
    {
     "is_this_ptr" : true,
     "referenced_type" : "_ZTIPNSt3__112basic_stringIDiNS_11char_traitsIDiEENS_9allocatorIDiEEEE"
    }
   ],
   "return_type" : "_ZTIPDi",
   "source_file" : "external/libcxx/include/string"
  },
  {
   "access" : "private",
   "function_name" : "std::__1::basic_string<char32_t, std::__1::char_traits<char32_t>, std::__1::allocator<char32_t>>::__init",
   "linker_set_key" : "_ZNSt3__112basic_stringIDiNS_11char_traitsIDiEENS_9allocatorIDiEEE6__initEPKDim",
   "parameters" :
   [
    {
     "is_this_ptr" : true,
     "referenced_type" : "_ZTIPNSt3__112basic_stringIDiNS_11char_traitsIDiEENS_9allocatorIDiEEEE"
    },
    {
     "referenced_type" : "_ZTIPKDi"
    },
    {
     "referenced_type" : "_ZTIm"
    }
   ],
   "return_type" : "_ZTIv",
   "source_file" : "external/libcxx/include/string"
  },
  {
   "access" : "private",
   "function_name" : "std::__1::basic_string<char32_t, std::__1::char_traits<char32_t>, std::__1::allocator<char32_t>>::__alloc",
   "linker_set_key" : "_ZNSt3__112basic_stringIDiNS_11char_traitsIDiEENS_9allocatorIDiEEE7__allocEv",
   "parameters" :
   [
    {
     "is_this_ptr" : true,
     "referenced_type" : "_ZTIPNSt3__112basic_stringIDiNS_11char_traitsIDiEENS_9allocatorIDiEEEE"
    }
   ],
   "return_type" : "_ZTIRNSt3__19allocatorIDiEE",
   "source_file" : "external/libcxx/include/string"
  },
  {
   "function_name" : "std::__1::basic_string<char32_t, std::__1::char_traits<char32_t>, std::__1::allocator<char32_t>>::basic_string",
   "linker_set_key" : "_ZNSt3__112basic_stringIDiNS_11char_traitsIDiEENS_9allocatorIDiEEEC1EPKDim",
   "parameters" :
   [
    {
     "is_this_ptr" : true,
     "referenced_type" : "_ZTIPNSt3__112basic_stringIDiNS_11char_traitsIDiEENS_9allocatorIDiEEEE"
    },
    {
     "referenced_type" : "_ZTIPKDi"
    },
    {
     "referenced_type" : "_ZTIm"
    }
   ],
   "return_type" : "_ZTIv",
   "source_file" : "external/libcxx/include/string"
  },
  {
   "function_name" : "std::__1::basic_string<char32_t, std::__1::char_traits<char32_t>, std::__1::allocator<char32_t>>::basic_string",
   "linker_set_key" : "_ZNSt3__112basic_stringIDiNS_11char_traitsIDiEENS_9allocatorIDiEEEC2EPKDim",
   "parameters" :
   [
    {
     "is_this_ptr" : true,
     "referenced_type" : "_ZTIPNSt3__112basic_stringIDiNS_11char_traitsIDiEENS_9allocatorIDiEEEE"
    },
    {
     "referenced_type" : "_ZTIPKDi"
    },
    {
     "referenced_type" : "_ZTIm"
    }
   ],
   "return_type" : "_ZTIv",
   "source_file" : "external/libcxx/include/string"
  },
  {
   "function_name" : "std::__1::basic_string<char32_t, std::__1::char_traits<char32_t>, std::__1::allocator<char32_t>>::~basic_string",
   "linker_set_key" : "_ZNSt3__112basic_stringIDiNS_11char_traitsIDiEENS_9allocatorIDiEEED1Ev",
   "parameters" :
   [
    {
     "is_this_ptr" : true,
     "referenced_type" : "_ZTIPNSt3__112basic_stringIDiNS_11char_traitsIDiEENS_9allocatorIDiEEEE"
    }
   ],
   "return_type" : "_ZTIv",
   "source_file" : "external/libcxx/include/string"
  },
  {
   "function_name" : "std::__1::basic_string<char32_t, std::__1::char_traits<char32_t>, std::__1::allocator<char32_t>>::~basic_string",
   "linker_set_key" : "_ZNSt3__112basic_stringIDiNS_11char_traitsIDiEENS_9allocatorIDiEEED2Ev",
   "parameters" :
   [
    {
     "is_this_ptr" : true,
     "referenced_type" : "_ZTIPNSt3__112basic_stringIDiNS_11char_traitsIDiEENS_9allocatorIDiEEEE"
    }
   ],
   "return_type" : "_ZTIv",
   "source_file" : "external/libcxx/include/string"
  },
  {
   "access" : "private",
   "function_name" : "std::__1::basic_string<char16_t, std::__1::char_traits<char16_t>, std::__1::allocator<char16_t>>::__align_it",
   "linker_set_key" : "_ZNSt3__112basic_stringIDsNS_11char_traitsIDsEENS_9allocatorIDsEEE10__align_itILm8EEEmm",
   "parameters" :
   [
    {
     "referenced_type" : "_ZTIm"
    }
   ],
   "return_type" : "_ZTIm",
   "source_file" : "external/libcxx/include/string"
  },
  {
   "access" : "private",
   "function_name" : "std::__1::basic_string<char16_t, std::__1::char_traits<char16_t>, std::__1::allocator<char16_t>>::__recommend",
   "linker_set_key" : "_ZNSt3__112basic_stringIDsNS_11char_traitsIDsEENS_9allocatorIDsEEE11__recommendEm",
   "parameters" :
   [
    {
     "referenced_type" : "_ZTIm"
    }
   ],
   "return_type" : "_ZTIm",
   "source_file" : "external/libcxx/include/string"
  },
  {
   "access" : "private",
   "function_name" : "std::__1::basic_string<char16_t, std::__1::char_traits<char16_t>, std::__1::allocator<char16_t>>::__set_long_cap",
   "linker_set_key" : "_ZNSt3__112basic_stringIDsNS_11char_traitsIDsEENS_9allocatorIDsEEE14__set_long_capEm",
   "parameters" :
   [
    {
     "is_this_ptr" : true,
     "referenced_type" : "_ZTIPNSt3__112basic_stringIDsNS_11char_traitsIDsEENS_9allocatorIDsEEEE"
    },
    {
     "referenced_type" : "_ZTIm"
    }
   ],
   "return_type" : "_ZTIv",
   "source_file" : "external/libcxx/include/string"
  },
  {
   "access" : "private",
   "function_name" : "std::__1::basic_string<char16_t, std::__1::char_traits<char16_t>, std::__1::allocator<char16_t>>::__set_long_size",
   "linker_set_key" : "_ZNSt3__112basic_stringIDsNS_11char_traitsIDsEENS_9allocatorIDsEEE15__set_long_sizeEm",
   "parameters" :
   [
    {
     "is_this_ptr" : true,
     "referenced_type" : "_ZTIPNSt3__112basic_stringIDsNS_11char_traitsIDsEENS_9allocatorIDsEEEE"
    },
    {
     "referenced_type" : "_ZTIm"
    }
   ],
   "return_type" : "_ZTIv",
   "source_file" : "external/libcxx/include/string"
  },
  {
   "access" : "private",
   "function_name" : "std::__1::basic_string<char16_t, std::__1::char_traits<char16_t>, std::__1::allocator<char16_t>>::__set_short_size",
   "linker_set_key" : "_ZNSt3__112basic_stringIDsNS_11char_traitsIDsEENS_9allocatorIDsEEE16__set_short_sizeEm",
   "parameters" :
   [
    {
     "is_this_ptr" : true,
     "referenced_type" : "_ZTIPNSt3__112basic_stringIDsNS_11char_traitsIDsEENS_9allocatorIDsEEEE"
    },
    {
     "referenced_type" : "_ZTIm"
    }
   ],
   "return_type" : "_ZTIv",
   "source_file" : "external/libcxx/include/string"
  },
  {
   "access" : "private",
   "function_name" : "std::__1::basic_string<char16_t, std::__1::char_traits<char16_t>, std::__1::allocator<char16_t>>::__get_long_pointer",
   "linker_set_key" : "_ZNSt3__112basic_stringIDsNS_11char_traitsIDsEENS_9allocatorIDsEEE18__get_long_pointerEv",
   "parameters" :
   [
    {
     "is_this_ptr" : true,
     "referenced_type" : "_ZTIPNSt3__112basic_stringIDsNS_11char_traitsIDsEENS_9allocatorIDsEEEE"
    }
   ],
   "return_type" : "_ZTIPDs",
   "source_file" : "external/libcxx/include/string"
  },
  {
   "access" : "private",
   "function_name" : "std::__1::basic_string<char16_t, std::__1::char_traits<char16_t>, std::__1::allocator<char16_t>>::__set_long_pointer",
   "linker_set_key" : "_ZNSt3__112basic_stringIDsNS_11char_traitsIDsEENS_9allocatorIDsEEE18__set_long_pointerEPDs",
   "parameters" :
   [
    {
     "is_this_ptr" : true,
     "referenced_type" : "_ZTIPNSt3__112basic_stringIDsNS_11char_traitsIDsEENS_9allocatorIDsEEEE"
    },
    {
     "referenced_type" : "_ZTIPDs"
    }
   ],
   "return_type" : "_ZTIv",
   "source_file" : "external/libcxx/include/string"
  },
  {
   "access" : "private",
   "function_name" : "std::__1::basic_string<char16_t, std::__1::char_traits<char16_t>, std::__1::allocator<char16_t>>::__get_short_pointer",
   "linker_set_key" : "_ZNSt3__112basic_stringIDsNS_11char_traitsIDsEENS_9allocatorIDsEEE19__get_short_pointerEv",
   "parameters" :
   [
    {
     "is_this_ptr" : true,
     "referenced_type" : "_ZTIPNSt3__112basic_stringIDsNS_11char_traitsIDsEENS_9allocatorIDsEEEE"
    }
   ],
   "return_type" : "_ZTIPDs",
   "source_file" : "external/libcxx/include/string"
  },
  {
   "access" : "private",
   "function_name" : "std::__1::basic_string<char16_t, std::__1::char_traits<char16_t>, std::__1::allocator<char16_t>>::__init",
   "linker_set_key" : "_ZNSt3__112basic_stringIDsNS_11char_traitsIDsEENS_9allocatorIDsEEE6__initEPKDsm",
   "parameters" :
   [
    {
     "is_this_ptr" : true,
     "referenced_type" : "_ZTIPNSt3__112basic_stringIDsNS_11char_traitsIDsEENS_9allocatorIDsEEEE"
    },
    {
     "referenced_type" : "_ZTIPKDs"
    },
    {
     "referenced_type" : "_ZTIm"
    }
   ],
   "return_type" : "_ZTIv",
   "source_file" : "external/libcxx/include/string"
  },
  {
   "access" : "private",
   "function_name" : "std::__1::basic_string<char16_t, std::__1::char_traits<char16_t>, std::__1::allocator<char16_t>>::__alloc",
   "linker_set_key" : "_ZNSt3__112basic_stringIDsNS_11char_traitsIDsEENS_9allocatorIDsEEE7__allocEv",
   "parameters" :
   [
    {
     "is_this_ptr" : true,
     "referenced_type" : "_ZTIPNSt3__112basic_stringIDsNS_11char_traitsIDsEENS_9allocatorIDsEEEE"
    }
   ],
   "return_type" : "_ZTIRNSt3__19allocatorIDsEE",
   "source_file" : "external/libcxx/include/string"
  },
  {
   "function_name" : "std::__1::basic_string<char16_t, std::__1::char_traits<char16_t>, std::__1::allocator<char16_t>>::basic_string",
   "linker_set_key" : "_ZNSt3__112basic_stringIDsNS_11char_traitsIDsEENS_9allocatorIDsEEEC1EPKDsm",
   "parameters" :
   [
    {
     "is_this_ptr" : true,
     "referenced_type" : "_ZTIPNSt3__112basic_stringIDsNS_11char_traitsIDsEENS_9allocatorIDsEEEE"
    },
    {
     "referenced_type" : "_ZTIPKDs"
    },
    {
     "referenced_type" : "_ZTIm"
    }
   ],
   "return_type" : "_ZTIv",
   "source_file" : "external/libcxx/include/string"
  },
  {
   "function_name" : "std::__1::basic_string<char16_t, std::__1::char_traits<char16_t>, std::__1::allocator<char16_t>>::basic_string",
   "linker_set_key" : "_ZNSt3__112basic_stringIDsNS_11char_traitsIDsEENS_9allocatorIDsEEEC2EPKDsm",
   "parameters" :
   [
    {
     "is_this_ptr" : true,
     "referenced_type" : "_ZTIPNSt3__112basic_stringIDsNS_11char_traitsIDsEENS_9allocatorIDsEEEE"
    },
    {
     "referenced_type" : "_ZTIPKDs"
    },
    {
     "referenced_type" : "_ZTIm"
    }
   ],
   "return_type" : "_ZTIv",
   "source_file" : "external/libcxx/include/string"
  },
  {
   "function_name" : "std::__1::basic_string<char16_t, std::__1::char_traits<char16_t>, std::__1::allocator<char16_t>>::~basic_string",
   "linker_set_key" : "_ZNSt3__112basic_stringIDsNS_11char_traitsIDsEENS_9allocatorIDsEEED1Ev",
   "parameters" :
   [
    {
     "is_this_ptr" : true,
     "referenced_type" : "_ZTIPNSt3__112basic_stringIDsNS_11char_traitsIDsEENS_9allocatorIDsEEEE"
    }
   ],
   "return_type" : "_ZTIv",
   "source_file" : "external/libcxx/include/string"
  },
  {
   "function_name" : "std::__1::basic_string<char16_t, std::__1::char_traits<char16_t>, std::__1::allocator<char16_t>>::~basic_string",
   "linker_set_key" : "_ZNSt3__112basic_stringIDsNS_11char_traitsIDsEENS_9allocatorIDsEEED2Ev",
   "parameters" :
   [
    {
     "is_this_ptr" : true,
     "referenced_type" : "_ZTIPNSt3__112basic_stringIDsNS_11char_traitsIDsEENS_9allocatorIDsEEEE"
    }
   ],
   "return_type" : "_ZTIv",
   "source_file" : "external/libcxx/include/string"
  },
  {
   "access" : "private",
   "function_name" : "std::__1::basic_string<char, std::__1::char_traits<char>, std::__1::allocator<char>>::__align_it",
   "linker_set_key" : "_ZNSt3__112basic_stringIcNS_11char_traitsIcEENS_9allocatorIcEEE10__align_itILm16EEEmm",
   "parameters" :
   [
    {
     "referenced_type" : "_ZTIm"
    }
   ],
   "return_type" : "_ZTIm",
   "source_file" : "external/libcxx/include/string"
  },
  {
   "access" : "private",
   "function_name" : "std::__1::basic_string<char, std::__1::char_traits<char>, std::__1::allocator<char>>::__recommend",
   "linker_set_key" : "_ZNSt3__112basic_stringIcNS_11char_traitsIcEENS_9allocatorIcEEE11__recommendEm",
   "parameters" :
   [
    {
     "referenced_type" : "_ZTIm"
    }
   ],
   "return_type" : "_ZTIm",
   "source_file" : "external/libcxx/include/string"
  },
  {
   "access" : "private",
   "function_name" : "std::__1::basic_string<char, std::__1::char_traits<char>, std::__1::allocator<char>>::__set_long_cap",
   "linker_set_key" : "_ZNSt3__112basic_stringIcNS_11char_traitsIcEENS_9allocatorIcEEE14__set_long_capEm",
   "parameters" :
   [
    {
     "is_this_ptr" : true,
     "referenced_type" : "_ZTIPNSt3__112basic_stringIcNS_11char_traitsIcEENS_9allocatorIcEEEE"
    },
    {
     "referenced_type" : "_ZTIm"
    }
   ],
   "return_type" : "_ZTIv",
   "source_file" : "external/libcxx/include/string"
  },
  {
   "access" : "private",
   "function_name" : "std::__1::basic_string<char, std::__1::char_traits<char>, std::__1::allocator<char>>::__set_long_size",
   "linker_set_key" : "_ZNSt3__112basic_stringIcNS_11char_traitsIcEENS_9allocatorIcEEE15__set_long_sizeEm",
   "parameters" :
   [
    {
     "is_this_ptr" : true,
     "referenced_type" : "_ZTIPNSt3__112basic_stringIcNS_11char_traitsIcEENS_9allocatorIcEEEE"
    },
    {
     "referenced_type" : "_ZTIm"
    }
   ],
   "return_type" : "_ZTIv",
   "source_file" : "external/libcxx/include/string"
  },
  {
   "access" : "private",
   "function_name" : "std::__1::basic_string<char, std::__1::char_traits<char>, std::__1::allocator<char>>::__set_short_size",
   "linker_set_key" : "_ZNSt3__112basic_stringIcNS_11char_traitsIcEENS_9allocatorIcEEE16__set_short_sizeEm",
   "parameters" :
   [
    {
     "is_this_ptr" : true,
     "referenced_type" : "_ZTIPNSt3__112basic_stringIcNS_11char_traitsIcEENS_9allocatorIcEEEE"
    },
    {
     "referenced_type" : "_ZTIm"
    }
   ],
   "return_type" : "_ZTIv",
   "source_file" : "external/libcxx/include/string"
  },
  {
   "access" : "private",
   "function_name" : "std::__1::basic_string<char, std::__1::char_traits<char>, std::__1::allocator<char>>::__get_long_pointer",
   "linker_set_key" : "_ZNSt3__112basic_stringIcNS_11char_traitsIcEENS_9allocatorIcEEE18__get_long_pointerEv",
   "parameters" :
   [
    {
     "is_this_ptr" : true,
     "referenced_type" : "_ZTIPNSt3__112basic_stringIcNS_11char_traitsIcEENS_9allocatorIcEEEE"
    }
   ],
   "return_type" : "_ZTIPc",
   "source_file" : "external/libcxx/include/string"
  },
  {
   "access" : "private",
   "function_name" : "std::__1::basic_string<char, std::__1::char_traits<char>, std::__1::allocator<char>>::__set_long_pointer",
   "linker_set_key" : "_ZNSt3__112basic_stringIcNS_11char_traitsIcEENS_9allocatorIcEEE18__set_long_pointerEPc",
   "parameters" :
   [
    {
     "is_this_ptr" : true,
     "referenced_type" : "_ZTIPNSt3__112basic_stringIcNS_11char_traitsIcEENS_9allocatorIcEEEE"
    },
    {
     "referenced_type" : "_ZTIPc"
    }
   ],
   "return_type" : "_ZTIv",
   "source_file" : "external/libcxx/include/string"
  },
  {
   "access" : "private",
   "function_name" : "std::__1::basic_string<char, std::__1::char_traits<char>, std::__1::allocator<char>>::__get_short_pointer",
   "linker_set_key" : "_ZNSt3__112basic_stringIcNS_11char_traitsIcEENS_9allocatorIcEEE19__get_short_pointerEv",
   "parameters" :
   [
    {
     "is_this_ptr" : true,
     "referenced_type" : "_ZTIPNSt3__112basic_stringIcNS_11char_traitsIcEENS_9allocatorIcEEEE"
    }
   ],
   "return_type" : "_ZTIPc",
   "source_file" : "external/libcxx/include/string"
  },
  {
   "access" : "private",
   "function_name" : "std::__1::basic_string<char, std::__1::char_traits<char>, std::__1::allocator<char>>::__init",
   "linker_set_key" : "_ZNSt3__112basic_stringIcNS_11char_traitsIcEENS_9allocatorIcEEE6__initEPKcm",
   "parameters" :
   [
    {
     "is_this_ptr" : true,
     "referenced_type" : "_ZTIPNSt3__112basic_stringIcNS_11char_traitsIcEENS_9allocatorIcEEEE"
    },
    {
     "referenced_type" : "_ZTIPKc"
    },
    {
     "referenced_type" : "_ZTIm"
    }
   ],
   "return_type" : "_ZTIv",
   "source_file" : "external/libcxx/include/string"
  },
  {
   "access" : "private",
   "function_name" : "std::__1::basic_string<char, std::__1::char_traits<char>, std::__1::allocator<char>>::__zero",
   "linker_set_key" : "_ZNSt3__112basic_stringIcNS_11char_traitsIcEENS_9allocatorIcEEE6__zeroEv",
   "parameters" :
   [
    {
     "is_this_ptr" : true,
     "referenced_type" : "_ZTIPNSt3__112basic_stringIcNS_11char_traitsIcEENS_9allocatorIcEEEE"
    }
   ],
   "return_type" : "_ZTIv",
   "source_file" : "external/libcxx/include/string"
  },
  {
   "access" : "private",
   "function_name" : "std::__1::basic_string<char, std::__1::char_traits<char>, std::__1::allocator<char>>::__alloc",
   "linker_set_key" : "_ZNSt3__112basic_stringIcNS_11char_traitsIcEENS_9allocatorIcEEE7__allocEv",
   "parameters" :
   [
    {
     "is_this_ptr" : true,
     "referenced_type" : "_ZTIPNSt3__112basic_stringIcNS_11char_traitsIcEENS_9allocatorIcEEEE"
    }
   ],
   "return_type" : "_ZTIRNSt3__19allocatorIcEE",
   "source_file" : "external/libcxx/include/string"
  },
  {
   "function_name" : "std::__1::basic_string<char, std::__1::char_traits<char>, std::__1::allocator<char>>::basic_string",
   "linker_set_key" : "_ZNSt3__112basic_stringIcNS_11char_traitsIcEENS_9allocatorIcEEEC1EOS5_",
   "parameters" :
   [
    {
     "is_this_ptr" : true,
     "referenced_type" : "_ZTIPNSt3__112basic_stringIcNS_11char_traitsIcEENS_9allocatorIcEEEE"
    },
    {
     "referenced_type" : "_ZTIONSt3__112basic_stringIcNS_11char_traitsIcEENS_9allocatorIcEEEE"
    }
   ],
   "return_type" : "_ZTIv",
   "source_file" : "external/libcxx/include/string"
  },
  {
   "function_name" : "std::__1::basic_string<char, std::__1::char_traits<char>, std::__1::allocator<char>>::basic_string",
   "linker_set_key" : "_ZNSt3__112basic_stringIcNS_11char_traitsIcEENS_9allocatorIcEEEC1EPKcm",
   "parameters" :
   [
    {
     "is_this_ptr" : true,
     "referenced_type" : "_ZTIPNSt3__112basic_stringIcNS_11char_traitsIcEENS_9allocatorIcEEEE"
    },
    {
     "referenced_type" : "_ZTIPKc"
    },
    {
     "referenced_type" : "_ZTIm"
    }
   ],
   "return_type" : "_ZTIv",
   "source_file" : "external/libcxx/include/string"
  },
  {
   "function_name" : "std::__1::basic_string<char, std::__1::char_traits<char>, std::__1::allocator<char>>::basic_string",
   "linker_set_key" : "_ZNSt3__112basic_stringIcNS_11char_traitsIcEENS_9allocatorIcEEEC1Ev",
   "parameters" :
   [
    {
     "is_this_ptr" : true,
     "referenced_type" : "_ZTIPNSt3__112basic_stringIcNS_11char_traitsIcEENS_9allocatorIcEEEE"
    }
   ],
   "return_type" : "_ZTIv",
   "source_file" : "external/libcxx/include/string"
  },
  {
   "function_name" : "std::__1::basic_string<char, std::__1::char_traits<char>, std::__1::allocator<char>>::basic_string",
   "linker_set_key" : "_ZNSt3__112basic_stringIcNS_11char_traitsIcEENS_9allocatorIcEEEC1IDnEEPKc",
   "parameters" :
   [
    {
     "is_this_ptr" : true,
     "referenced_type" : "_ZTIPNSt3__112basic_stringIcNS_11char_traitsIcEENS_9allocatorIcEEEE"
    },
    {
     "referenced_type" : "_ZTIPKc"
    }
   ],
   "return_type" : "_ZTIv",
   "source_file" : "external/libcxx/include/string",
   "template_args" : [ "_ZTIDn" ]
  },
  {
   "function_name" : "std::__1::basic_string<char, std::__1::char_traits<char>, std::__1::allocator<char>>::basic_string",
   "linker_set_key" : "_ZNSt3__112basic_stringIcNS_11char_traitsIcEENS_9allocatorIcEEEC2EOS5_",
   "parameters" :
   [
    {
     "is_this_ptr" : true,
     "referenced_type" : "_ZTIPNSt3__112basic_stringIcNS_11char_traitsIcEENS_9allocatorIcEEEE"
    },
    {
     "referenced_type" : "_ZTIONSt3__112basic_stringIcNS_11char_traitsIcEENS_9allocatorIcEEEE"
    }
   ],
   "return_type" : "_ZTIv",
   "source_file" : "external/libcxx/include/string"
  },
  {
   "function_name" : "std::__1::basic_string<char, std::__1::char_traits<char>, std::__1::allocator<char>>::basic_string",
   "linker_set_key" : "_ZNSt3__112basic_stringIcNS_11char_traitsIcEENS_9allocatorIcEEEC2EPKcm",
   "parameters" :
   [
    {
     "is_this_ptr" : true,
     "referenced_type" : "_ZTIPNSt3__112basic_stringIcNS_11char_traitsIcEENS_9allocatorIcEEEE"
    },
    {
     "referenced_type" : "_ZTIPKc"
    },
    {
     "referenced_type" : "_ZTIm"
    }
   ],
   "return_type" : "_ZTIv",
   "source_file" : "external/libcxx/include/string"
  },
  {
   "function_name" : "std::__1::basic_string<char, std::__1::char_traits<char>, std::__1::allocator<char>>::basic_string",
   "linker_set_key" : "_ZNSt3__112basic_stringIcNS_11char_traitsIcEENS_9allocatorIcEEEC2Ev",
   "parameters" :
   [
    {
     "is_this_ptr" : true,
     "referenced_type" : "_ZTIPNSt3__112basic_stringIcNS_11char_traitsIcEENS_9allocatorIcEEEE"
    }
   ],
   "return_type" : "_ZTIv",
   "source_file" : "external/libcxx/include/string"
  },
  {
   "function_name" : "std::__1::basic_string<char, std::__1::char_traits<char>, std::__1::allocator<char>>::basic_string",
   "linker_set_key" : "_ZNSt3__112basic_stringIcNS_11char_traitsIcEENS_9allocatorIcEEEC2IDnEEPKc",
   "parameters" :
   [
    {
     "is_this_ptr" : true,
     "referenced_type" : "_ZTIPNSt3__112basic_stringIcNS_11char_traitsIcEENS_9allocatorIcEEEE"
    },
    {
     "referenced_type" : "_ZTIPKc"
    }
   ],
   "return_type" : "_ZTIv",
   "source_file" : "external/libcxx/include/string",
   "template_args" : [ "_ZTIDn" ]
  },
  {
   "function_name" : "std::__1::basic_string<char, std::__1::char_traits<char>, std::__1::allocator<char>>::~basic_string",
   "linker_set_key" : "_ZNSt3__112basic_stringIcNS_11char_traitsIcEENS_9allocatorIcEEED1Ev",
   "parameters" :
   [
    {
     "is_this_ptr" : true,
     "referenced_type" : "_ZTIPNSt3__112basic_stringIcNS_11char_traitsIcEENS_9allocatorIcEEEE"
    }
   ],
   "return_type" : "_ZTIv",
   "source_file" : "external/libcxx/include/string"
  },
  {
   "function_name" : "std::__1::basic_string<char, std::__1::char_traits<char>, std::__1::allocator<char>>::~basic_string",
   "linker_set_key" : "_ZNSt3__112basic_stringIcNS_11char_traitsIcEENS_9allocatorIcEEED2Ev",
   "parameters" :
   [
    {
     "is_this_ptr" : true,
     "referenced_type" : "_ZTIPNSt3__112basic_stringIcNS_11char_traitsIcEENS_9allocatorIcEEEE"
    }
   ],
   "return_type" : "_ZTIv",
   "source_file" : "external/libcxx/include/string"
  },
  {
   "function_name" : "std::__1::basic_string<char, std::__1::char_traits<char>, std::__1::allocator<char>>::operator=",
   "linker_set_key" : "_ZNSt3__112basic_stringIcNS_11char_traitsIcEENS_9allocatorIcEEEaSEPKc",
   "parameters" :
   [
    {
     "is_this_ptr" : true,
     "referenced_type" : "_ZTIPNSt3__112basic_stringIcNS_11char_traitsIcEENS_9allocatorIcEEEE"
    },
    {
     "referenced_type" : "_ZTIPKc"
    }
   ],
   "return_type" : "_ZTIRNSt3__112basic_stringIcNS_11char_traitsIcEENS_9allocatorIcEEEE",
   "source_file" : "external/libcxx/include/string"
  },
  {
   "function_name" : "std::__1::basic_string<char, std::__1::char_traits<char>, std::__1::allocator<char>>::operator+=",
   "linker_set_key" : "_ZNSt3__112basic_stringIcNS_11char_traitsIcEENS_9allocatorIcEEEpLEc",
   "parameters" :
   [
    {
     "is_this_ptr" : true,
     "referenced_type" : "_ZTIPNSt3__112basic_stringIcNS_11char_traitsIcEENS_9allocatorIcEEEE"
    },
    {
     "referenced_type" : "_ZTIc"
    }
   ],
   "return_type" : "_ZTIRNSt3__112basic_stringIcNS_11char_traitsIcEENS_9allocatorIcEEEE",
   "source_file" : "external/libcxx/include/string"
  },
  {
   "access" : "private",
   "function_name" : "std::__1::basic_string<wchar_t, std::__1::char_traits<wchar_t>, std::__1::allocator<wchar_t>>::__align_it",
   "linker_set_key" : "_ZNSt3__112basic_stringIwNS_11char_traitsIwEENS_9allocatorIwEEE10__align_itILm4EEEmm",
   "parameters" :
   [
    {
     "referenced_type" : "_ZTIm"
    }
   ],
   "return_type" : "_ZTIm",
   "source_file" : "external/libcxx/include/string"
  },
  {
   "access" : "private",
   "function_name" : "std::__1::basic_string<wchar_t, std::__1::char_traits<wchar_t>, std::__1::allocator<wchar_t>>::__recommend",
   "linker_set_key" : "_ZNSt3__112basic_stringIwNS_11char_traitsIwEENS_9allocatorIwEEE11__recommendEm",
   "parameters" :
   [
    {
     "referenced_type" : "_ZTIm"
    }
   ],
   "return_type" : "_ZTIm",
   "source_file" : "external/libcxx/include/string"
  },
  {
   "access" : "private",
   "function_name" : "std::__1::basic_string<wchar_t, std::__1::char_traits<wchar_t>, std::__1::allocator<wchar_t>>::__set_long_cap",
   "linker_set_key" : "_ZNSt3__112basic_stringIwNS_11char_traitsIwEENS_9allocatorIwEEE14__set_long_capEm",
   "parameters" :
   [
    {
     "is_this_ptr" : true,
     "referenced_type" : "_ZTIPNSt3__112basic_stringIwNS_11char_traitsIwEENS_9allocatorIwEEEE"
    },
    {
     "referenced_type" : "_ZTIm"
    }
   ],
   "return_type" : "_ZTIv",
   "source_file" : "external/libcxx/include/string"
  },
  {
   "access" : "private",
   "function_name" : "std::__1::basic_string<wchar_t, std::__1::char_traits<wchar_t>, std::__1::allocator<wchar_t>>::__set_long_size",
   "linker_set_key" : "_ZNSt3__112basic_stringIwNS_11char_traitsIwEENS_9allocatorIwEEE15__set_long_sizeEm",
   "parameters" :
   [
    {
     "is_this_ptr" : true,
     "referenced_type" : "_ZTIPNSt3__112basic_stringIwNS_11char_traitsIwEENS_9allocatorIwEEEE"
    },
    {
     "referenced_type" : "_ZTIm"
    }
   ],
   "return_type" : "_ZTIv",
   "source_file" : "external/libcxx/include/string"
  },
  {
   "access" : "private",
   "function_name" : "std::__1::basic_string<wchar_t, std::__1::char_traits<wchar_t>, std::__1::allocator<wchar_t>>::__set_short_size",
   "linker_set_key" : "_ZNSt3__112basic_stringIwNS_11char_traitsIwEENS_9allocatorIwEEE16__set_short_sizeEm",
   "parameters" :
   [
    {
     "is_this_ptr" : true,
     "referenced_type" : "_ZTIPNSt3__112basic_stringIwNS_11char_traitsIwEENS_9allocatorIwEEEE"
    },
    {
     "referenced_type" : "_ZTIm"
    }
   ],
   "return_type" : "_ZTIv",
   "source_file" : "external/libcxx/include/string"
  },
  {
   "access" : "private",
   "function_name" : "std::__1::basic_string<wchar_t, std::__1::char_traits<wchar_t>, std::__1::allocator<wchar_t>>::__get_long_pointer",
   "linker_set_key" : "_ZNSt3__112basic_stringIwNS_11char_traitsIwEENS_9allocatorIwEEE18__get_long_pointerEv",
   "parameters" :
   [
    {
     "is_this_ptr" : true,
     "referenced_type" : "_ZTIPNSt3__112basic_stringIwNS_11char_traitsIwEENS_9allocatorIwEEEE"
    }
   ],
   "return_type" : "_ZTIPw",
   "source_file" : "external/libcxx/include/string"
  },
  {
   "access" : "private",
   "function_name" : "std::__1::basic_string<wchar_t, std::__1::char_traits<wchar_t>, std::__1::allocator<wchar_t>>::__set_long_pointer",
   "linker_set_key" : "_ZNSt3__112basic_stringIwNS_11char_traitsIwEENS_9allocatorIwEEE18__set_long_pointerEPw",
   "parameters" :
   [
    {
     "is_this_ptr" : true,
     "referenced_type" : "_ZTIPNSt3__112basic_stringIwNS_11char_traitsIwEENS_9allocatorIwEEEE"
    },
    {
     "referenced_type" : "_ZTIPw"
    }
   ],
   "return_type" : "_ZTIv",
   "source_file" : "external/libcxx/include/string"
  },
  {
   "access" : "private",
   "function_name" : "std::__1::basic_string<wchar_t, std::__1::char_traits<wchar_t>, std::__1::allocator<wchar_t>>::__get_short_pointer",
   "linker_set_key" : "_ZNSt3__112basic_stringIwNS_11char_traitsIwEENS_9allocatorIwEEE19__get_short_pointerEv",
   "parameters" :
   [
    {
     "is_this_ptr" : true,
     "referenced_type" : "_ZTIPNSt3__112basic_stringIwNS_11char_traitsIwEENS_9allocatorIwEEEE"
    }
   ],
   "return_type" : "_ZTIPw",
   "source_file" : "external/libcxx/include/string"
  },
  {
   "access" : "private",
   "function_name" : "std::__1::basic_string<wchar_t, std::__1::char_traits<wchar_t>, std::__1::allocator<wchar_t>>::__init",
   "linker_set_key" : "_ZNSt3__112basic_stringIwNS_11char_traitsIwEENS_9allocatorIwEEE6__initEPKwm",
   "parameters" :
   [
    {
     "is_this_ptr" : true,
     "referenced_type" : "_ZTIPNSt3__112basic_stringIwNS_11char_traitsIwEENS_9allocatorIwEEEE"
    },
    {
     "referenced_type" : "_ZTIPKw"
    },
    {
     "referenced_type" : "_ZTIm"
    }
   ],
   "return_type" : "_ZTIv",
   "source_file" : "external/libcxx/include/string"
  },
  {
   "access" : "private",
   "function_name" : "std::__1::basic_string<wchar_t, std::__1::char_traits<wchar_t>, std::__1::allocator<wchar_t>>::__alloc",
   "linker_set_key" : "_ZNSt3__112basic_stringIwNS_11char_traitsIwEENS_9allocatorIwEEE7__allocEv",
   "parameters" :
   [
    {
     "is_this_ptr" : true,
     "referenced_type" : "_ZTIPNSt3__112basic_stringIwNS_11char_traitsIwEENS_9allocatorIwEEEE"
    }
   ],
   "return_type" : "_ZTIRNSt3__19allocatorIwEE",
   "source_file" : "external/libcxx/include/string"
  },
  {
   "function_name" : "std::__1::basic_string<wchar_t, std::__1::char_traits<wchar_t>, std::__1::allocator<wchar_t>>::basic_string",
   "linker_set_key" : "_ZNSt3__112basic_stringIwNS_11char_traitsIwEENS_9allocatorIwEEEC1EPKwm",
   "parameters" :
   [
    {
     "is_this_ptr" : true,
     "referenced_type" : "_ZTIPNSt3__112basic_stringIwNS_11char_traitsIwEENS_9allocatorIwEEEE"
    },
    {
     "referenced_type" : "_ZTIPKw"
    },
    {
     "referenced_type" : "_ZTIm"
    }
   ],
   "return_type" : "_ZTIv",
   "source_file" : "external/libcxx/include/string"
  },
  {
   "function_name" : "std::__1::basic_string<wchar_t, std::__1::char_traits<wchar_t>, std::__1::allocator<wchar_t>>::basic_string",
   "linker_set_key" : "_ZNSt3__112basic_stringIwNS_11char_traitsIwEENS_9allocatorIwEEEC2EPKwm",
   "parameters" :
   [
    {
     "is_this_ptr" : true,
     "referenced_type" : "_ZTIPNSt3__112basic_stringIwNS_11char_traitsIwEENS_9allocatorIwEEEE"
    },
    {
     "referenced_type" : "_ZTIPKw"
    },
    {
     "referenced_type" : "_ZTIm"
    }
   ],
   "return_type" : "_ZTIv",
   "source_file" : "external/libcxx/include/string"
  },
  {
   "function_name" : "std::__1::basic_string<wchar_t, std::__1::char_traits<wchar_t>, std::__1::allocator<wchar_t>>::~basic_string",
   "linker_set_key" : "_ZNSt3__112basic_stringIwNS_11char_traitsIwEENS_9allocatorIwEEED1Ev",
   "parameters" :
   [
    {
     "is_this_ptr" : true,
     "referenced_type" : "_ZTIPNSt3__112basic_stringIwNS_11char_traitsIwEENS_9allocatorIwEEEE"
    }
   ],
   "return_type" : "_ZTIv",
   "source_file" : "external/libcxx/include/string"
  },
  {
   "function_name" : "std::__1::basic_string<wchar_t, std::__1::char_traits<wchar_t>, std::__1::allocator<wchar_t>>::~basic_string",
   "linker_set_key" : "_ZNSt3__112basic_stringIwNS_11char_traitsIwEENS_9allocatorIwEEED2Ev",
   "parameters" :
   [
    {
     "is_this_ptr" : true,
     "referenced_type" : "_ZTIPNSt3__112basic_stringIwNS_11char_traitsIwEENS_9allocatorIwEEEE"
    }
   ],
   "return_type" : "_ZTIv",
   "source_file" : "external/libcxx/include/string"
  },
  {
   "function_name" : "std::__1::__find_detail::__find_idx_return",
   "linker_set_key" : "_ZNSt3__113__find_detail17__find_idx_returnEmmb",
   "parameters" :
   [
    {
     "referenced_type" : "_ZTIm"
    },
    {
     "referenced_type" : "_ZTIm"
    },
    {
     "referenced_type" : "_ZTIb"
    }
   ],
   "return_type" : "_ZTIm",
   "source_file" : "external/libcxx/include/tuple"
  },
  {
   "access" : "protected",
   "function_name" : "std::__1::__vector_base<std::__1::optional<std::__1::basic_string<char>>, std::__1::allocator<std::__1::optional<std::__1::basic_string<char>>>>::__destruct_at_end",
   "linker_set_key" : "_ZNSt3__113__vector_baseINS_8optionalINS_12basic_stringIcNS_11char_traitsIcEENS_9allocatorIcEEEEEENS5_IS8_EEE17__destruct_at_endEPS8_",
   "parameters" :
   [
    {
     "is_this_ptr" : true,
     "referenced_type" : "_ZTIPNSt3__113__vector_baseINS_8optionalINS_12basic_stringIcNS_11char_traitsIcEENS_9allocatorIcEEEEEENS5_IS8_EEEE"
    },
    {
     "referenced_type" : "_ZTIPNSt3__18optionalINS_12basic_stringIcNS_11char_traitsIcEENS_9allocatorIcEEEEEE"
    }
   ],
   "return_type" : "_ZTIv",
   "source_file" : "external/libcxx/include/vector"
  },
  {
   "access" : "protected",
   "function_name" : "std::__1::__vector_base<std::__1::optional<std::__1::basic_string<char>>, std::__1::allocator<std::__1::optional<std::__1::basic_string<char>>>>::clear",
   "linker_set_key" : "_ZNSt3__113__vector_baseINS_8optionalINS_12basic_stringIcNS_11char_traitsIcEENS_9allocatorIcEEEEEENS5_IS8_EEE5clearEv",
   "parameters" :
   [
    {
     "is_this_ptr" : true,
     "referenced_type" : "_ZTIPNSt3__113__vector_baseINS_8optionalINS_12basic_stringIcNS_11char_traitsIcEENS_9allocatorIcEEEEEENS5_IS8_EEEE"
    }
   ],
   "return_type" : "_ZTIv",
   "source_file" : "external/libcxx/include/vector"
  },
  {
   "access" : "protected",
   "function_name" : "std::__1::__vector_base<std::__1::optional<std::__1::basic_string<char>>, std::__1::allocator<std::__1::optional<std::__1::basic_string<char>>>>::__alloc",
   "linker_set_key" : "_ZNSt3__113__vector_baseINS_8optionalINS_12basic_stringIcNS_11char_traitsIcEENS_9allocatorIcEEEEEENS5_IS8_EEE7__allocEv",
   "parameters" :
   [
    {
     "is_this_ptr" : true,
     "referenced_type" : "_ZTIPNSt3__113__vector_baseINS_8optionalINS_12basic_stringIcNS_11char_traitsIcEENS_9allocatorIcEEEEEENS5_IS8_EEEE"
    }
   ],
   "return_type" : "_ZTIRNSt3__19allocatorINS_8optionalINS_12basic_stringIcNS_11char_traitsIcEENS0_IcEEEEEEEE",
   "source_file" : "external/libcxx/include/vector"
  },
  {
   "access" : "protected",
   "function_name" : "std::__1::__vector_base<std::__1::optional<std::__1::basic_string<char>>, std::__1::allocator<std::__1::optional<std::__1::basic_string<char>>>>::__end_cap",
   "linker_set_key" : "_ZNSt3__113__vector_baseINS_8optionalINS_12basic_stringIcNS_11char_traitsIcEENS_9allocatorIcEEEEEENS5_IS8_EEE9__end_capEv",
   "parameters" :
   [
    {
     "is_this_ptr" : true,
     "referenced_type" : "_ZTIPNSt3__113__vector_baseINS_8optionalINS_12basic_stringIcNS_11char_traitsIcEENS_9allocatorIcEEEEEENS5_IS8_EEEE"
    }
   ],
   "return_type" : "_ZTIRPNSt3__18optionalINS_12basic_stringIcNS_11char_traitsIcEENS_9allocatorIcEEEEEE",
   "source_file" : "external/libcxx/include/vector"
  },
  {
   "access" : "protected",
   "function_name" : "std::__1::__vector_base<std::__1::optional<std::__1::basic_string<char>>, std::__1::allocator<std::__1::optional<std::__1::basic_string<char>>>>::__vector_base",
   "linker_set_key" : "_ZNSt3__113__vector_baseINS_8optionalINS_12basic_stringIcNS_11char_traitsIcEENS_9allocatorIcEEEEEENS5_IS8_EEEC1EOS9_",
   "parameters" :
   [
    {
     "is_this_ptr" : true,
     "referenced_type" : "_ZTIPNSt3__113__vector_baseINS_8optionalINS_12basic_stringIcNS_11char_traitsIcEENS_9allocatorIcEEEEEENS5_IS8_EEEE"
    },
    {
     "referenced_type" : "_ZTIONSt3__19allocatorINS_8optionalINS_12basic_stringIcNS_11char_traitsIcEENS0_IcEEEEEEEE"
    }
   ],
   "return_type" : "_ZTIv",
   "source_file" : "external/libcxx/include/vector"
  },
  {
   "access" : "protected",
   "function_name" : "std::__1::__vector_base<std::__1::optional<std::__1::basic_string<char>>, std::__1::allocator<std::__1::optional<std::__1::basic_string<char>>>>::__vector_base",
   "linker_set_key" : "_ZNSt3__113__vector_baseINS_8optionalINS_12basic_stringIcNS_11char_traitsIcEENS_9allocatorIcEEEEEENS5_IS8_EEEC1Ev",
   "parameters" :
   [
    {
     "is_this_ptr" : true,
     "referenced_type" : "_ZTIPNSt3__113__vector_baseINS_8optionalINS_12basic_stringIcNS_11char_traitsIcEENS_9allocatorIcEEEEEENS5_IS8_EEEE"
    }
   ],
   "return_type" : "_ZTIv",
   "source_file" : "external/libcxx/include/vector"
  },
  {
   "access" : "protected",
   "function_name" : "std::__1::__vector_base<std::__1::optional<std::__1::basic_string<char>>, std::__1::allocator<std::__1::optional<std::__1::basic_string<char>>>>::__vector_base",
   "linker_set_key" : "_ZNSt3__113__vector_baseINS_8optionalINS_12basic_stringIcNS_11char_traitsIcEENS_9allocatorIcEEEEEENS5_IS8_EEEC2EOS9_",
   "parameters" :
   [
    {
     "is_this_ptr" : true,
     "referenced_type" : "_ZTIPNSt3__113__vector_baseINS_8optionalINS_12basic_stringIcNS_11char_traitsIcEENS_9allocatorIcEEEEEENS5_IS8_EEEE"
    },
    {
     "referenced_type" : "_ZTIONSt3__19allocatorINS_8optionalINS_12basic_stringIcNS_11char_traitsIcEENS0_IcEEEEEEEE"
    }
   ],
   "return_type" : "_ZTIv",
   "source_file" : "external/libcxx/include/vector"
  },
  {
   "access" : "protected",
   "function_name" : "std::__1::__vector_base<std::__1::optional<std::__1::basic_string<char>>, std::__1::allocator<std::__1::optional<std::__1::basic_string<char>>>>::__vector_base",
   "linker_set_key" : "_ZNSt3__113__vector_baseINS_8optionalINS_12basic_stringIcNS_11char_traitsIcEENS_9allocatorIcEEEEEENS5_IS8_EEEC2Ev",
   "parameters" :
   [
    {
     "is_this_ptr" : true,
     "referenced_type" : "_ZTIPNSt3__113__vector_baseINS_8optionalINS_12basic_stringIcNS_11char_traitsIcEENS_9allocatorIcEEEEEENS5_IS8_EEEE"
    }
   ],
   "return_type" : "_ZTIv",
   "source_file" : "external/libcxx/include/vector"
  },
  {
   "access" : "protected",
   "function_name" : "std::__1::__vector_base<std::__1::optional<std::__1::basic_string<char>>, std::__1::allocator<std::__1::optional<std::__1::basic_string<char>>>>::~__vector_base",
   "linker_set_key" : "_ZNSt3__113__vector_baseINS_8optionalINS_12basic_stringIcNS_11char_traitsIcEENS_9allocatorIcEEEEEENS5_IS8_EEED1Ev",
   "parameters" :
   [
    {
     "is_this_ptr" : true,
     "referenced_type" : "_ZTIPNSt3__113__vector_baseINS_8optionalINS_12basic_stringIcNS_11char_traitsIcEENS_9allocatorIcEEEEEENS5_IS8_EEEE"
    }
   ],
   "return_type" : "_ZTIv",
   "source_file" : "external/libcxx/include/vector"
  },
  {
   "access" : "protected",
   "function_name" : "std::__1::__vector_base<std::__1::optional<std::__1::basic_string<char>>, std::__1::allocator<std::__1::optional<std::__1::basic_string<char>>>>::~__vector_base",
   "linker_set_key" : "_ZNSt3__113__vector_baseINS_8optionalINS_12basic_stringIcNS_11char_traitsIcEENS_9allocatorIcEEEEEENS5_IS8_EEED2Ev",
   "parameters" :
   [
    {
     "is_this_ptr" : true,
     "referenced_type" : "_ZTIPNSt3__113__vector_baseINS_8optionalINS_12basic_stringIcNS_11char_traitsIcEENS_9allocatorIcEEEEEENS5_IS8_EEEE"
    }
   ],
   "return_type" : "_ZTIv",
   "source_file" : "external/libcxx/include/vector"
  },
  {
   "function_name" : "std::__1::make_optional",
   "linker_set_key" : "_ZNSt3__113make_optionalIRPKcEENS_8optionalINS_5decayIT_E4typeEEEOS6_",
   "parameters" :
   [
    {
     "referenced_type" : "_ZTIRPKc"
    }
   ],
   "return_type" : "_ZTINSt3__18optionalIPKcEE",
   "source_file" : "external/libcxx/include/optional",
   "template_args" : [ "_ZTIRPKc" ]
  },
  {
   "function_name" : "std::__1::make_optional",
   "linker_set_key" : "_ZNSt3__113make_optionalIRdEENS_8optionalINS_5decayIT_E4typeEEEOS4_",
   "parameters" :
   [
    {
     "referenced_type" : "_ZTIRd"
    }
   ],
   "return_type" : "_ZTINSt3__18optionalIdEE",
   "source_file" : "external/libcxx/include/optional",
   "template_args" : [ "_ZTIRd" ]
  },
  {
   "function_name" : "std::__1::make_optional",
   "linker_set_key" : "_ZNSt3__113make_optionalIRiEENS_8optionalINS_5decayIT_E4typeEEEOS4_",
   "parameters" :
   [
    {
     "referenced_type" : "_ZTIRi"
    }
   ],
   "return_type" : "_ZTINSt3__18optionalIiEE",
   "source_file" : "external/libcxx/include/optional",
   "template_args" : [ "_ZTIRi" ]
  },
  {
   "function_name" : "std::__1::make_optional",
   "linker_set_key" : "_ZNSt3__113make_optionalIRjEENS_8optionalINS_5decayIT_E4typeEEEOS4_",
   "parameters" :
   [
    {
     "referenced_type" : "_ZTIRj"
    }
   ],
   "return_type" : "_ZTINSt3__18optionalIjEE",
   "source_file" : "external/libcxx/include/optional",
   "template_args" : [ "_ZTIRj" ]
  },
  {
   "function_name" : "std::__1::make_optional",
   "linker_set_key" : "_ZNSt3__113make_optionalIRlEENS_8optionalINS_5decayIT_E4typeEEEOS4_",
   "parameters" :
   [
    {
     "referenced_type" : "_ZTIRl"
    }
   ],
   "return_type" : "_ZTINSt3__18optionalIlEE",
   "source_file" : "external/libcxx/include/optional",
   "template_args" : [ "_ZTIRl" ]
  },
  {
   "function_name" : "std::__1::make_optional",
   "linker_set_key" : "_ZNSt3__113make_optionalIRmEENS_8optionalINS_5decayIT_E4typeEEEOS4_",
   "parameters" :
   [
    {
     "referenced_type" : "_ZTIRm"
    }
   ],
   "return_type" : "_ZTINSt3__18optionalImEE",
   "source_file" : "external/libcxx/include/optional",
   "template_args" : [ "_ZTIRm" ]
  },
  {
   "function_name" : "std::__1::make_optional",
   "linker_set_key" : "_ZNSt3__113make_optionalIbEENS_8optionalINS_5decayIT_E4typeEEEOS3_",
   "parameters" :
   [
    {
     "referenced_type" : "_ZTIOb"
    }
   ],
   "return_type" : "_ZTINSt3__18optionalIbEE",
   "source_file" : "external/libcxx/include/optional",
   "template_args" : [ "_ZTIb" ]
  },
  {
   "function_name" : "std::__1::__hash_combine",
   "linker_set_key" : "_ZNSt3__114__hash_combineEmm",
   "parameters" :
   [
    {
     "referenced_type" : "_ZTIm"
    },
    {
     "referenced_type" : "_ZTIm"
    }
   ],
   "return_type" : "_ZTIm",
   "source_file" : "external/libcxx/include/utility"
  },
  {
   "function_name" : "std::__1::__shared_count::__add_shared",
   "linker_set_key" : "_ZNSt3__114__shared_count12__add_sharedEv",
   "parameters" :
   [
    {
     "is_this_ptr" : true,
     "referenced_type" : "_ZTIPNSt3__114__shared_countE"
    }
   ],
   "return_type" : "_ZTIv",
   "source_file" : "external/libcxx/include/memory"
  },
  {
   "function_name" : "std::__1::__shared_count::__release_shared",
   "linker_set_key" : "_ZNSt3__114__shared_count16__release_sharedEv",
   "parameters" :
   [
    {
     "is_this_ptr" : true,
     "referenced_type" : "_ZTIPNSt3__114__shared_countE"
    }
   ],
   "return_type" : "_ZTIb",
   "source_file" : "external/libcxx/include/memory"
  },
  {
   "function_name" : "std::__1::__shared_count::__shared_count",
   "linker_set_key" : "_ZNSt3__114__shared_countC2El",
   "parameters" :
   [
    {
     "is_this_ptr" : true,
     "referenced_type" : "_ZTIPNSt3__114__shared_countE"
    },
    {
     "default_arg" : true,
     "referenced_type" : "_ZTIl"
    }
   ],
   "return_type" : "_ZTIv",
   "source_file" : "external/libcxx/include/memory"
  },
  {
   "function_name" : "std::__1::__split_buffer<std::__1::optional<std::__1::basic_string<char>>, std::__1::allocator<std::__1::optional<std::__1::basic_string<char>>> &>::__destruct_at_end",
   "linker_set_key" : "_ZNSt3__114__split_bufferINS_8optionalINS_12basic_stringIcNS_11char_traitsIcEENS_9allocatorIcEEEEEERNS5_IS8_EEE17__destruct_at_endEPS8_",
   "parameters" :
   [
    {
     "is_this_ptr" : true,
     "referenced_type" : "_ZTIPNSt3__114__split_bufferINS_8optionalINS_12basic_stringIcNS_11char_traitsIcEENS_9allocatorIcEEEEEERNS5_IS8_EEEE"
    },
    {
     "referenced_type" : "_ZTIPNSt3__18optionalINS_12basic_stringIcNS_11char_traitsIcEENS_9allocatorIcEEEEEE"
    }
   ],
   "return_type" : "_ZTIv",
   "source_file" : "external/libcxx/include/__split_buffer"
  },
  {
   "function_name" : "std::__1::__split_buffer<std::__1::optional<std::__1::basic_string<char>>, std::__1::allocator<std::__1::optional<std::__1::basic_string<char>>> &>::__destruct_at_end",
   "linker_set_key" : "_ZNSt3__114__split_bufferINS_8optionalINS_12basic_stringIcNS_11char_traitsIcEENS_9allocatorIcEEEEEERNS5_IS8_EEE17__destruct_at_endEPS8_NS_17integral_constantIbLb0EEE",
   "parameters" :
   [
    {
     "is_this_ptr" : true,
     "referenced_type" : "_ZTIPNSt3__114__split_bufferINS_8optionalINS_12basic_stringIcNS_11char_traitsIcEENS_9allocatorIcEEEEEERNS5_IS8_EEEE"
    },
    {
     "referenced_type" : "_ZTIPNSt3__18optionalINS_12basic_stringIcNS_11char_traitsIcEENS_9allocatorIcEEEEEE"
    },
    {
     "referenced_type" : "_ZTINSt3__117integral_constantIbLb0EEE"
    }
   ],
   "return_type" : "_ZTIv",
   "source_file" : "external/libcxx/include/__split_buffer"
  },
  {
   "function_name" : "std::__1::__split_buffer<std::__1::optional<std::__1::basic_string<char>>, std::__1::allocator<std::__1::optional<std::__1::basic_string<char>>> &>::clear",
   "linker_set_key" : "_ZNSt3__114__split_bufferINS_8optionalINS_12basic_stringIcNS_11char_traitsIcEENS_9allocatorIcEEEEEERNS5_IS8_EEE5clearEv",
   "parameters" :
   [
    {
     "is_this_ptr" : true,
     "referenced_type" : "_ZTIPNSt3__114__split_bufferINS_8optionalINS_12basic_stringIcNS_11char_traitsIcEENS_9allocatorIcEEEEEERNS5_IS8_EEEE"
    }
   ],
   "return_type" : "_ZTIv",
   "source_file" : "external/libcxx/include/__split_buffer"
  },
  {
   "function_name" : "std::__1::__split_buffer<std::__1::optional<std::__1::basic_string<char>>, std::__1::allocator<std::__1::optional<std::__1::basic_string<char>>> &>::__alloc",
   "linker_set_key" : "_ZNSt3__114__split_bufferINS_8optionalINS_12basic_stringIcNS_11char_traitsIcEENS_9allocatorIcEEEEEERNS5_IS8_EEE7__allocEv",
   "parameters" :
   [
    {
     "is_this_ptr" : true,
     "referenced_type" : "_ZTIPNSt3__114__split_bufferINS_8optionalINS_12basic_stringIcNS_11char_traitsIcEENS_9allocatorIcEEEEEERNS5_IS8_EEEE"
    }
   ],
   "return_type" : "_ZTIRNSt3__19allocatorINS_8optionalINS_12basic_stringIcNS_11char_traitsIcEENS0_IcEEEEEEEE",
   "source_file" : "external/libcxx/include/__split_buffer"
  },
  {
   "function_name" : "std::__1::__split_buffer<std::__1::optional<std::__1::basic_string<char>>, std::__1::allocator<std::__1::optional<std::__1::basic_string<char>>> &>::__end_cap",
   "linker_set_key" : "_ZNSt3__114__split_bufferINS_8optionalINS_12basic_stringIcNS_11char_traitsIcEENS_9allocatorIcEEEEEERNS5_IS8_EEE9__end_capEv",
   "parameters" :
   [
    {
     "is_this_ptr" : true,
     "referenced_type" : "_ZTIPNSt3__114__split_bufferINS_8optionalINS_12basic_stringIcNS_11char_traitsIcEENS_9allocatorIcEEEEEERNS5_IS8_EEEE"
    }
   ],
   "return_type" : "_ZTIRPNSt3__18optionalINS_12basic_stringIcNS_11char_traitsIcEENS_9allocatorIcEEEEEE",
   "source_file" : "external/libcxx/include/__split_buffer"
  },
  {
   "function_name" : "std::__1::__split_buffer<std::__1::optional<std::__1::basic_string<char>>, std::__1::allocator<std::__1::optional<std::__1::basic_string<char>>> &>::__split_buffer",
   "linker_set_key" : "_ZNSt3__114__split_bufferINS_8optionalINS_12basic_stringIcNS_11char_traitsIcEENS_9allocatorIcEEEEEERNS5_IS8_EEEC1EmmSA_",
   "parameters" :
   [
    {
     "is_this_ptr" : true,
     "referenced_type" : "_ZTIPNSt3__114__split_bufferINS_8optionalINS_12basic_stringIcNS_11char_traitsIcEENS_9allocatorIcEEEEEERNS5_IS8_EEEE"
    },
    {
     "referenced_type" : "_ZTIm"
    },
    {
     "referenced_type" : "_ZTIm"
    },
    {
     "referenced_type" : "_ZTIRNSt3__19allocatorINS_8optionalINS_12basic_stringIcNS_11char_traitsIcEENS0_IcEEEEEEEE"
    }
   ],
   "return_type" : "_ZTIv",
   "source_file" : "external/libcxx/include/__split_buffer"
  },
  {
   "function_name" : "std::__1::__split_buffer<std::__1::optional<std::__1::basic_string<char>>, std::__1::allocator<std::__1::optional<std::__1::basic_string<char>>> &>::__split_buffer",
   "linker_set_key" : "_ZNSt3__114__split_bufferINS_8optionalINS_12basic_stringIcNS_11char_traitsIcEENS_9allocatorIcEEEEEERNS5_IS8_EEEC2EmmSA_",
   "parameters" :
   [
    {
     "is_this_ptr" : true,
     "referenced_type" : "_ZTIPNSt3__114__split_bufferINS_8optionalINS_12basic_stringIcNS_11char_traitsIcEENS_9allocatorIcEEEEEERNS5_IS8_EEEE"
    },
    {
     "referenced_type" : "_ZTIm"
    },
    {
     "referenced_type" : "_ZTIm"
    },
    {
     "referenced_type" : "_ZTIRNSt3__19allocatorINS_8optionalINS_12basic_stringIcNS_11char_traitsIcEENS0_IcEEEEEEEE"
    }
   ],
   "return_type" : "_ZTIv",
   "source_file" : "external/libcxx/include/__split_buffer"
  },
  {
   "function_name" : "std::__1::__split_buffer<std::__1::optional<std::__1::basic_string<char>>, std::__1::allocator<std::__1::optional<std::__1::basic_string<char>>> &>::~__split_buffer",
   "linker_set_key" : "_ZNSt3__114__split_bufferINS_8optionalINS_12basic_stringIcNS_11char_traitsIcEENS_9allocatorIcEEEEEERNS5_IS8_EEED1Ev",
   "parameters" :
   [
    {
     "is_this_ptr" : true,
     "referenced_type" : "_ZTIPNSt3__114__split_bufferINS_8optionalINS_12basic_stringIcNS_11char_traitsIcEENS_9allocatorIcEEEEEERNS5_IS8_EEEE"
    }
   ],
   "return_type" : "_ZTIv",
   "source_file" : "external/libcxx/include/__split_buffer"
  },
  {
   "function_name" : "std::__1::__split_buffer<std::__1::optional<std::__1::basic_string<char>>, std::__1::allocator<std::__1::optional<std::__1::basic_string<char>>> &>::~__split_buffer",
   "linker_set_key" : "_ZNSt3__114__split_bufferINS_8optionalINS_12basic_stringIcNS_11char_traitsIcEENS_9allocatorIcEEEEEERNS5_IS8_EEED2Ev",
   "parameters" :
   [
    {
     "is_this_ptr" : true,
     "referenced_type" : "_ZTIPNSt3__114__split_bufferINS_8optionalINS_12basic_stringIcNS_11char_traitsIcEENS_9allocatorIcEEEEEERNS5_IS8_EEEE"
    }
   ],
   "return_type" : "_ZTIv",
   "source_file" : "external/libcxx/include/__split_buffer"
  },
  {
   "function_name" : "std::__1::numeric_limits<int>::max",
   "linker_set_key" : "_ZNSt3__114numeric_limitsIiE3maxEv",
   "return_type" : "_ZTIi",
   "source_file" : "external/libcxx/include/limits"
  },
  {
   "function_name" : "std::__1::numeric_limits<int>::min",
   "linker_set_key" : "_ZNSt3__114numeric_limitsIiE3minEv",
   "return_type" : "_ZTIi",
   "source_file" : "external/libcxx/include/limits"
  },
  {
   "function_name" : "std::__1::numeric_limits<unsigned int>::max",
   "linker_set_key" : "_ZNSt3__114numeric_limitsIjE3maxEv",
   "return_type" : "_ZTIj",
   "source_file" : "external/libcxx/include/limits"
  },
  {
   "function_name" : "std::__1::numeric_limits<long>::max",
   "linker_set_key" : "_ZNSt3__114numeric_limitsIlE3maxEv",
   "return_type" : "_ZTIl",
   "source_file" : "external/libcxx/include/limits"
  },
  {
   "function_name" : "std::__1::numeric_limits<long>::min",
   "linker_set_key" : "_ZNSt3__114numeric_limitsIlE3minEv",
   "return_type" : "_ZTIl",
   "source_file" : "external/libcxx/include/limits"
  },
  {
   "function_name" : "std::__1::numeric_limits<unsigned long>::max",
   "linker_set_key" : "_ZNSt3__114numeric_limitsImE3maxEv",
   "return_type" : "_ZTIm",
   "source_file" : "external/libcxx/include/limits"
  },
  {
   "function_name" : "std::__1::pointer_safety::pointer_safety",
   "linker_set_key" : "_ZNSt3__114pointer_safetyC1ENS0_4__lxE",
   "parameters" :
   [
    {
     "is_this_ptr" : true,
     "referenced_type" : "_ZTIPNSt3__114pointer_safetyE"
    },
    {
     "referenced_type" : "_ZTINSt3__114pointer_safety4__lxE"
    }
   ],
   "return_type" : "_ZTIv",
   "source_file" : "external/libcxx/include/memory"
  },
  {
   "function_name" : "std::__1::pointer_safety::pointer_safety",
   "linker_set_key" : "_ZNSt3__114pointer_safetyC1Ev",
   "parameters" :
   [
    {
     "is_this_ptr" : true,
     "referenced_type" : "_ZTIPNSt3__114pointer_safetyE"
    }
   ],
   "return_type" : "_ZTIv",
   "source_file" : "external/libcxx/include/memory"
  },
  {
   "function_name" : "std::__1::pointer_safety::pointer_safety",
   "linker_set_key" : "_ZNSt3__114pointer_safetyC2ENS0_4__lxE",
   "parameters" :
   [
    {
     "is_this_ptr" : true,
     "referenced_type" : "_ZTIPNSt3__114pointer_safetyE"
    },
    {
     "referenced_type" : "_ZTINSt3__114pointer_safety4__lxE"
    }
   ],
   "return_type" : "_ZTIv",
   "source_file" : "external/libcxx/include/memory"
  },
  {
   "function_name" : "std::__1::pointer_safety::pointer_safety",
   "linker_set_key" : "_ZNSt3__114pointer_safetyC2Ev",
   "parameters" :
   [
    {
     "is_this_ptr" : true,
     "referenced_type" : "_ZTIPNSt3__114pointer_safetyE"
    }
   ],
   "return_type" : "_ZTIv",
   "source_file" : "external/libcxx/include/memory"
  },
  {
   "function_name" : "std::__1::pointer_traits<char32_t *>::pointer_to",
   "linker_set_key" : "_ZNSt3__114pointer_traitsIPDiE10pointer_toERDi",
   "parameters" :
   [
    {
     "referenced_type" : "_ZTIRDi"
    }
   ],
   "return_type" : "_ZTIPDi",
   "source_file" : "external/libcxx/include/memory"
  },
  {
   "function_name" : "std::__1::pointer_traits<char16_t *>::pointer_to",
   "linker_set_key" : "_ZNSt3__114pointer_traitsIPDsE10pointer_toERDs",
   "parameters" :
   [
    {
     "referenced_type" : "_ZTIRDs"
    }
   ],
   "return_type" : "_ZTIPDs",
   "source_file" : "external/libcxx/include/memory"
  },
  {
   "function_name" : "std::__1::pointer_traits<const char *>::pointer_to",
   "linker_set_key" : "_ZNSt3__114pointer_traitsIPKcE10pointer_toERS1_",
   "parameters" :
   [
    {
     "referenced_type" : "_ZTIRKc"
    }
   ],
   "return_type" : "_ZTIPKc",
   "source_file" : "external/libcxx/include/memory"
  },
  {
   "function_name" : "std::__1::pointer_traits<char *>::pointer_to",
   "linker_set_key" : "_ZNSt3__114pointer_traitsIPcE10pointer_toERc",
   "parameters" :
   [
    {
     "referenced_type" : "_ZTIRc"
    }
   ],
   "return_type" : "_ZTIPc",
   "source_file" : "external/libcxx/include/memory"
  },
  {
   "function_name" : "std::__1::pointer_traits<wchar_t *>::pointer_to",
   "linker_set_key" : "_ZNSt3__114pointer_traitsIPwE10pointer_toERw",
   "parameters" :
   [
    {
     "referenced_type" : "_ZTIRw"
    }
   ],
   "return_type" : "_ZTIPw",
   "source_file" : "external/libcxx/include/memory"
  },
  {
   "function_name" : "std::__1::__throw_bad_cast",
   "linker_set_key" : "_ZNSt3__116__throw_bad_castEv",
   "return_type" : "_ZTIv",
   "source_file" : "external/libcxx/include/typeinfo"
  },
  {
   "function_name" : "std::__1::__to_raw_pointer",
   "linker_set_key" : "_ZNSt3__116__to_raw_pointerIDiEEPT_S2_",
   "parameters" :
   [
    {
     "referenced_type" : "_ZTIPDi"
    }
   ],
   "return_type" : "_ZTIPDi",
   "source_file" : "external/libcxx/include/memory",
   "template_args" : [ "_ZTIDi" ]
  },
  {
   "function_name" : "std::__1::__to_raw_pointer",
   "linker_set_key" : "_ZNSt3__116__to_raw_pointerIDsEEPT_S2_",
   "parameters" :
   [
    {
     "referenced_type" : "_ZTIPDs"
    }
   ],
   "return_type" : "_ZTIPDs",
   "source_file" : "external/libcxx/include/memory",
   "template_args" : [ "_ZTIDs" ]
  },
  {
   "function_name" : "std::__1::__to_raw_pointer",
   "linker_set_key" : "_ZNSt3__116__to_raw_pointerIKcEEPT_S3_",
   "parameters" :
   [
    {
     "referenced_type" : "_ZTIPKc"
    }
   ],
   "return_type" : "_ZTIPKc",
   "source_file" : "external/libcxx/include/memory",
   "template_args" : [ "_ZTIKc" ]
  },
  {
   "function_name" : "std::__1::__to_raw_pointer",
   "linker_set_key" : "_ZNSt3__116__to_raw_pointerINS_8optionalINS_12basic_stringIcNS_11char_traitsIcEENS_9allocatorIcEEEEEEEEPT_SA_",
   "parameters" :
   [
    {
     "referenced_type" : "_ZTIPNSt3__18optionalINS_12basic_stringIcNS_11char_traitsIcEENS_9allocatorIcEEEEEE"
    }
   ],
   "return_type" : "_ZTIPNSt3__18optionalINS_12basic_stringIcNS_11char_traitsIcEENS_9allocatorIcEEEEEE",
   "source_file" : "external/libcxx/include/memory",
   "template_args" :
   [
    "_ZTINSt3__18optionalINS_12basic_stringIcNS_11char_traitsIcEENS_9allocatorIcEEEEEE"
   ]
  },
  {
   "function_name" : "std::__1::__to_raw_pointer",
   "linker_set_key" : "_ZNSt3__116__to_raw_pointerIcEEPT_S2_",
   "parameters" :
   [
    {
     "referenced_type" : "_ZTIPc"
    }
   ],
   "return_type" : "_ZTIPc",
   "source_file" : "external/libcxx/include/memory",
   "template_args" : [ "_ZTIc" ]
  },
  {
   "function_name" : "std::__1::__to_raw_pointer",
   "linker_set_key" : "_ZNSt3__116__to_raw_pointerIwEEPT_S2_",
   "parameters" :
   [
    {
     "referenced_type" : "_ZTIPw"
    }
   ],
   "return_type" : "_ZTIPw",
   "source_file" : "external/libcxx/include/memory",
   "template_args" : [ "_ZTIw" ]
  },
  {
   "access" : "private",
   "function_name" : "std::__1::allocator_traits<std::__1::allocator<char32_t>>::__max_size",
   "linker_set_key" : "_ZNSt3__116allocator_traitsINS_9allocatorIDiEEE10__max_sizeENS_17integral_constantIbLb1EEERKS2_",
   "parameters" :
   [
    {
     "referenced_type" : "_ZTINSt3__117integral_constantIbLb1EEE"
    },
    {
     "referenced_type" : "_ZTIRKNSt3__19allocatorIDiEE"
    }
   ],
   "return_type" : "_ZTIm",
   "source_file" : "external/libcxx/include/memory"
  },
  {
   "function_name" : "std::__1::allocator_traits<std::__1::allocator<char32_t>>::deallocate",
   "linker_set_key" : "_ZNSt3__116allocator_traitsINS_9allocatorIDiEEE10deallocateERS2_PDim",
   "parameters" :
   [
    {
     "referenced_type" : "_ZTIRNSt3__19allocatorIDiEE"
    },
    {
     "referenced_type" : "_ZTIPDi"
    },
    {
     "referenced_type" : "_ZTIm"
    }
   ],
   "return_type" : "_ZTIv",
   "source_file" : "external/libcxx/include/memory"
  },
  {
   "function_name" : "std::__1::allocator_traits<std::__1::allocator<char32_t>>::allocate",
   "linker_set_key" : "_ZNSt3__116allocator_traitsINS_9allocatorIDiEEE8allocateERS2_m",
   "parameters" :
   [
    {
     "referenced_type" : "_ZTIRNSt3__19allocatorIDiEE"
    },
    {
     "referenced_type" : "_ZTIm"
    }
   ],
   "return_type" : "_ZTIPDi",
   "source_file" : "external/libcxx/include/memory"
  },
  {
   "function_name" : "std::__1::allocator_traits<std::__1::allocator<char32_t>>::max_size",
   "linker_set_key" : "_ZNSt3__116allocator_traitsINS_9allocatorIDiEEE8max_sizeERKS2_",
   "parameters" :
   [
    {
     "referenced_type" : "_ZTIRKNSt3__19allocatorIDiEE"
    }
   ],
   "return_type" : "_ZTIm",
   "source_file" : "external/libcxx/include/memory"
  },
  {
   "access" : "private",
   "function_name" : "std::__1::allocator_traits<std::__1::allocator<char16_t>>::__max_size",
   "linker_set_key" : "_ZNSt3__116allocator_traitsINS_9allocatorIDsEEE10__max_sizeENS_17integral_constantIbLb1EEERKS2_",
   "parameters" :
   [
    {
     "referenced_type" : "_ZTINSt3__117integral_constantIbLb1EEE"
    },
    {
     "referenced_type" : "_ZTIRKNSt3__19allocatorIDsEE"
    }
   ],
   "return_type" : "_ZTIm",
   "source_file" : "external/libcxx/include/memory"
  },
  {
   "function_name" : "std::__1::allocator_traits<std::__1::allocator<char16_t>>::deallocate",
   "linker_set_key" : "_ZNSt3__116allocator_traitsINS_9allocatorIDsEEE10deallocateERS2_PDsm",
   "parameters" :
   [
    {
     "referenced_type" : "_ZTIRNSt3__19allocatorIDsEE"
    },
    {
     "referenced_type" : "_ZTIPDs"
    },
    {
     "referenced_type" : "_ZTIm"
    }
   ],
   "return_type" : "_ZTIv",
   "source_file" : "external/libcxx/include/memory"
  },
  {
   "function_name" : "std::__1::allocator_traits<std::__1::allocator<char16_t>>::allocate",
   "linker_set_key" : "_ZNSt3__116allocator_traitsINS_9allocatorIDsEEE8allocateERS2_m",
   "parameters" :
   [
    {
     "referenced_type" : "_ZTIRNSt3__19allocatorIDsEE"
    },
    {
     "referenced_type" : "_ZTIm"
    }
   ],
   "return_type" : "_ZTIPDs",
   "source_file" : "external/libcxx/include/memory"
  },
  {
   "function_name" : "std::__1::allocator_traits<std::__1::allocator<char16_t>>::max_size",
   "linker_set_key" : "_ZNSt3__116allocator_traitsINS_9allocatorIDsEEE8max_sizeERKS2_",
   "parameters" :
   [
    {
     "referenced_type" : "_ZTIRKNSt3__19allocatorIDsEE"
    }
   ],
   "return_type" : "_ZTIm",
   "source_file" : "external/libcxx/include/memory"
  },
  {
   "access" : "private",
   "function_name" : "std::__1::allocator_traits<std::__1::allocator<std::__1::optional<std::__1::basic_string<char>>>>::__max_size",
   "linker_set_key" : "_ZNSt3__116allocator_traitsINS_9allocatorINS_8optionalINS_12basic_stringIcNS_11char_traitsIcEENS1_IcEEEEEEEEE10__max_sizeENS_17integral_constantIbLb1EEERKS9_",
   "parameters" :
   [
    {
     "referenced_type" : "_ZTINSt3__117integral_constantIbLb1EEE"
    },
    {
     "referenced_type" : "_ZTIRKNSt3__19allocatorINS_8optionalINS_12basic_stringIcNS_11char_traitsIcEENS0_IcEEEEEEEE"
    }
   ],
   "return_type" : "_ZTIm",
   "source_file" : "external/libcxx/include/memory"
  },
  {
   "function_name" : "std::__1::allocator_traits<std::__1::allocator<std::__1::optional<std::__1::basic_string<char>>>>::deallocate",
   "linker_set_key" : "_ZNSt3__116allocator_traitsINS_9allocatorINS_8optionalINS_12basic_stringIcNS_11char_traitsIcEENS1_IcEEEEEEEEE10deallocateERS9_PS8_m",
   "parameters" :
   [
    {
     "referenced_type" : "_ZTIRNSt3__19allocatorINS_8optionalINS_12basic_stringIcNS_11char_traitsIcEENS0_IcEEEEEEEE"
    },
    {
     "referenced_type" : "_ZTIPNSt3__18optionalINS_12basic_stringIcNS_11char_traitsIcEENS_9allocatorIcEEEEEE"
    },
    {
     "referenced_type" : "_ZTIm"
    }
   ],
   "return_type" : "_ZTIv",
   "source_file" : "external/libcxx/include/memory"
  },
  {
   "access" : "private",
   "function_name" : "std::__1::allocator_traits<std::__1::allocator<std::__1::optional<std::__1::basic_string<char>>>>::__construct",
   "linker_set_key" : "_ZNSt3__116allocator_traitsINS_9allocatorINS_8optionalINS_12basic_stringIcNS_11char_traitsIcEENS1_IcEEEEEEEEE11__constructIS8_JS8_EEEvNS_17integral_constantIbLb1EEERS9_PT_DpOT0_",
   "parameters" :
   [
    {
     "referenced_type" : "_ZTINSt3__117integral_constantIbLb1EEE"
    },
    {
     "referenced_type" : "_ZTIRNSt3__19allocatorINS_8optionalINS_12basic_stringIcNS_11char_traitsIcEENS0_IcEEEEEEEE"
    },
    {
     "referenced_type" : "_ZTIPNSt3__18optionalINS_12basic_stringIcNS_11char_traitsIcEENS_9allocatorIcEEEEEE"
    },
    {
     "referenced_type" : "_ZTIONSt3__18optionalINS_12basic_stringIcNS_11char_traitsIcEENS_9allocatorIcEEEEEE"
    }
   ],
   "return_type" : "_ZTIv",
   "source_file" : "external/libcxx/include/memory",
   "template_args" :
   [
    "_ZTINSt3__18optionalINS_12basic_stringIcNS_11char_traitsIcEENS_9allocatorIcEEEEEE"
   ]
  },
  {
   "function_name" : "std::__1::allocator_traits<std::__1::allocator<std::__1::optional<std::__1::basic_string<char>>>>::__construct_backward",
   "linker_set_key" : "_ZNSt3__116allocator_traitsINS_9allocatorINS_8optionalINS_12basic_stringIcNS_11char_traitsIcEENS1_IcEEEEEEEEE20__construct_backwardIPS8_EEvRS9_T_SE_RSE_",
   "parameters" :
   [
    {
     "referenced_type" : "_ZTIRNSt3__19allocatorINS_8optionalINS_12basic_stringIcNS_11char_traitsIcEENS0_IcEEEEEEEE"
    },
    {
     "referenced_type" : "_ZTIPNSt3__18optionalINS_12basic_stringIcNS_11char_traitsIcEENS_9allocatorIcEEEEEE"
    },
    {
     "referenced_type" : "_ZTIPNSt3__18optionalINS_12basic_stringIcNS_11char_traitsIcEENS_9allocatorIcEEEEEE"
    },
    {
     "referenced_type" : "_ZTIRPNSt3__18optionalINS_12basic_stringIcNS_11char_traitsIcEENS_9allocatorIcEEEEEE"
    }
   ],
   "return_type" : "_ZTIv",
   "source_file" : "external/libcxx/include/memory",
   "template_args" :
   [
    "_ZTIPNSt3__18optionalINS_12basic_stringIcNS_11char_traitsIcEENS_9allocatorIcEEEEEE"
   ]
  },
  {
   "function_name" : "std::__1::allocator_traits<std::__1::allocator<std::__1::optional<std::__1::basic_string<char>>>>::destroy",
   "linker_set_key" : "_ZNSt3__116allocator_traitsINS_9allocatorINS_8optionalINS_12basic_stringIcNS_11char_traitsIcEENS1_IcEEEEEEEEE7destroyIS8_EEvRS9_PT_",
   "parameters" :
   [
    {
     "referenced_type" : "_ZTIRNSt3__19allocatorINS_8optionalINS_12basic_stringIcNS_11char_traitsIcEENS0_IcEEEEEEEE"
    },
    {
     "referenced_type" : "_ZTIPNSt3__18optionalINS_12basic_stringIcNS_11char_traitsIcEENS_9allocatorIcEEEEEE"
    }
   ],
   "return_type" : "_ZTIv",
   "source_file" : "external/libcxx/include/memory",
   "template_args" :
   [
    "_ZTINSt3__18optionalINS_12basic_stringIcNS_11char_traitsIcEENS_9allocatorIcEEEEEE"
   ]
  },
  {
   "function_name" : "std::__1::allocator_traits<std::__1::allocator<std::__1::optional<std::__1::basic_string<char>>>>::allocate",
   "linker_set_key" : "_ZNSt3__116allocator_traitsINS_9allocatorINS_8optionalINS_12basic_stringIcNS_11char_traitsIcEENS1_IcEEEEEEEEE8allocateERS9_m",
   "parameters" :
   [
    {
     "referenced_type" : "_ZTIRNSt3__19allocatorINS_8optionalINS_12basic_stringIcNS_11char_traitsIcEENS0_IcEEEEEEEE"
    },
    {
     "referenced_type" : "_ZTIm"
    }
   ],
   "return_type" : "_ZTIPNSt3__18optionalINS_12basic_stringIcNS_11char_traitsIcEENS_9allocatorIcEEEEEE",
   "source_file" : "external/libcxx/include/memory"
  },
  {
   "function_name" : "std::__1::allocator_traits<std::__1::allocator<std::__1::optional<std::__1::basic_string<char>>>>::max_size",
   "linker_set_key" : "_ZNSt3__116allocator_traitsINS_9allocatorINS_8optionalINS_12basic_stringIcNS_11char_traitsIcEENS1_IcEEEEEEEEE8max_sizeERKS9_",
   "parameters" :
   [
    {
     "referenced_type" : "_ZTIRKNSt3__19allocatorINS_8optionalINS_12basic_stringIcNS_11char_traitsIcEENS0_IcEEEEEEEE"
    }
   ],
   "return_type" : "_ZTIm",
   "source_file" : "external/libcxx/include/memory"
  },
  {
   "access" : "private",
   "function_name" : "std::__1::allocator_traits<std::__1::allocator<std::__1::optional<std::__1::basic_string<char>>>>::__destroy",
   "linker_set_key" : "_ZNSt3__116allocator_traitsINS_9allocatorINS_8optionalINS_12basic_stringIcNS_11char_traitsIcEENS1_IcEEEEEEEEE9__destroyIS8_EEvNS_17integral_constantIbLb1EEERS9_PT_",
   "parameters" :
   [
    {
     "referenced_type" : "_ZTINSt3__117integral_constantIbLb1EEE"
    },
    {
     "referenced_type" : "_ZTIRNSt3__19allocatorINS_8optionalINS_12basic_stringIcNS_11char_traitsIcEENS0_IcEEEEEEEE"
    },
    {
     "referenced_type" : "_ZTIPNSt3__18optionalINS_12basic_stringIcNS_11char_traitsIcEENS_9allocatorIcEEEEEE"
    }
   ],
   "return_type" : "_ZTIv",
   "source_file" : "external/libcxx/include/memory",
   "template_args" :
   [
    "_ZTINSt3__18optionalINS_12basic_stringIcNS_11char_traitsIcEENS_9allocatorIcEEEEEE"
   ]
  },
  {
   "function_name" : "std::__1::allocator_traits<std::__1::allocator<std::__1::optional<std::__1::basic_string<char>>>>::construct",
   "linker_set_key" : "_ZNSt3__116allocator_traitsINS_9allocatorINS_8optionalINS_12basic_stringIcNS_11char_traitsIcEENS1_IcEEEEEEEEE9constructIS8_JS8_EEEvRS9_PT_DpOT0_",
   "parameters" :
   [
    {
     "referenced_type" : "_ZTIRNSt3__19allocatorINS_8optionalINS_12basic_stringIcNS_11char_traitsIcEENS0_IcEEEEEEEE"
    },
    {
     "referenced_type" : "_ZTIPNSt3__18optionalINS_12basic_stringIcNS_11char_traitsIcEENS_9allocatorIcEEEEEE"
    },
    {
     "referenced_type" : "_ZTIONSt3__18optionalINS_12basic_stringIcNS_11char_traitsIcEENS_9allocatorIcEEEEEE"
    }
   ],
   "return_type" : "_ZTIv",
   "source_file" : "external/libcxx/include/memory",
   "template_args" :
   [
    "_ZTINSt3__18optionalINS_12basic_stringIcNS_11char_traitsIcEENS_9allocatorIcEEEEEE"
   ]
  },
  {
   "access" : "private",
   "function_name" : "std::__1::allocator_traits<std::__1::allocator<char>>::__max_size",
   "linker_set_key" : "_ZNSt3__116allocator_traitsINS_9allocatorIcEEE10__max_sizeENS_17integral_constantIbLb1EEERKS2_",
   "parameters" :
   [
    {
     "referenced_type" : "_ZTINSt3__117integral_constantIbLb1EEE"
    },
    {
     "referenced_type" : "_ZTIRKNSt3__19allocatorIcEE"
    }
   ],
   "return_type" : "_ZTIm",
   "source_file" : "external/libcxx/include/memory"
  },
  {
   "function_name" : "std::__1::allocator_traits<std::__1::allocator<char>>::deallocate",
   "linker_set_key" : "_ZNSt3__116allocator_traitsINS_9allocatorIcEEE10deallocateERS2_Pcm",
   "parameters" :
   [
    {
     "referenced_type" : "_ZTIRNSt3__19allocatorIcEE"
    },
    {
     "referenced_type" : "_ZTIPc"
    },
    {
     "referenced_type" : "_ZTIm"
    }
   ],
   "return_type" : "_ZTIv",
   "source_file" : "external/libcxx/include/memory"
  },
  {
   "function_name" : "std::__1::allocator_traits<std::__1::allocator<char>>::allocate",
   "linker_set_key" : "_ZNSt3__116allocator_traitsINS_9allocatorIcEEE8allocateERS2_m",
   "parameters" :
   [
    {
     "referenced_type" : "_ZTIRNSt3__19allocatorIcEE"
    },
    {
     "referenced_type" : "_ZTIm"
    }
   ],
   "return_type" : "_ZTIPc",
   "source_file" : "external/libcxx/include/memory"
  },
  {
   "function_name" : "std::__1::allocator_traits<std::__1::allocator<char>>::max_size",
   "linker_set_key" : "_ZNSt3__116allocator_traitsINS_9allocatorIcEEE8max_sizeERKS2_",
   "parameters" :
   [
    {
     "referenced_type" : "_ZTIRKNSt3__19allocatorIcEE"
    }
   ],
   "return_type" : "_ZTIm",
   "source_file" : "external/libcxx/include/memory"
  },
  {
   "access" : "private",
   "function_name" : "std::__1::allocator_traits<std::__1::allocator<wchar_t>>::__max_size",
   "linker_set_key" : "_ZNSt3__116allocator_traitsINS_9allocatorIwEEE10__max_sizeENS_17integral_constantIbLb1EEERKS2_",
   "parameters" :
   [
    {
     "referenced_type" : "_ZTINSt3__117integral_constantIbLb1EEE"
    },
    {
     "referenced_type" : "_ZTIRKNSt3__19allocatorIwEE"
    }
   ],
   "return_type" : "_ZTIm",
   "source_file" : "external/libcxx/include/memory"
  },
  {
   "function_name" : "std::__1::allocator_traits<std::__1::allocator<wchar_t>>::deallocate",
   "linker_set_key" : "_ZNSt3__116allocator_traitsINS_9allocatorIwEEE10deallocateERS2_Pwm",
   "parameters" :
   [
    {
     "referenced_type" : "_ZTIRNSt3__19allocatorIwEE"
    },
    {
     "referenced_type" : "_ZTIPw"
    },
    {
     "referenced_type" : "_ZTIm"
    }
   ],
   "return_type" : "_ZTIv",
   "source_file" : "external/libcxx/include/memory"
  },
  {
   "function_name" : "std::__1::allocator_traits<std::__1::allocator<wchar_t>>::allocate",
   "linker_set_key" : "_ZNSt3__116allocator_traitsINS_9allocatorIwEEE8allocateERS2_m",
   "parameters" :
   [
    {
     "referenced_type" : "_ZTIRNSt3__19allocatorIwEE"
    },
    {
     "referenced_type" : "_ZTIm"
    }
   ],
   "return_type" : "_ZTIPw",
   "source_file" : "external/libcxx/include/memory"
  },
  {
   "function_name" : "std::__1::allocator_traits<std::__1::allocator<wchar_t>>::max_size",
   "linker_set_key" : "_ZNSt3__116allocator_traitsINS_9allocatorIwEEE8max_sizeERKS2_",
   "parameters" :
   [
    {
     "referenced_type" : "_ZTIRKNSt3__19allocatorIwEE"
    }
   ],
   "return_type" : "_ZTIm",
   "source_file" : "external/libcxx/include/memory"
  },
  {
   "function_name" : "std::__1::forward_as_tuple",
   "linker_set_key" : "_ZNSt3__116forward_as_tupleIJEEENS_5tupleIJDpOT_EEES4_",
   "return_type" : "_ZTINSt3__15tupleIJEEE",
   "source_file" : "external/libcxx/include/tuple"
  },
  {
   "function_name" : "std::__1::move_if_noexcept",
   "linker_set_key" : "_ZNSt3__116move_if_noexceptINS_8optionalINS_12basic_stringIcNS_11char_traitsIcEENS_9allocatorIcEEEEEEEENS_11conditionalIXaantsr29is_nothrow_move_constructibleIT_EE5valuesr21is_copy_constructibleISA_EE5valueERKSA_OSA_E4typeERSA_",
   "parameters" :
   [
    {
     "referenced_type" : "_ZTIRNSt3__18optionalINS_12basic_stringIcNS_11char_traitsIcEENS_9allocatorIcEEEEEE"
    }
   ],
   "return_type" : "_ZTIONSt3__18optionalINS_12basic_stringIcNS_11char_traitsIcEENS_9allocatorIcEEEEEE",
   "source_file" : "external/libcxx/include/utility",
   "template_args" :
   [
    "_ZTINSt3__18optionalINS_12basic_stringIcNS_11char_traitsIcEENS_9allocatorIcEEEEEE"
   ]
  },
  {
   "access" : "private",
   "function_name" : "std::__1::_DeallocateCaller::__do_deallocate_handle_size",
   "linker_set_key" : "_ZNSt3__117_DeallocateCaller27__do_deallocate_handle_sizeEPvm",
   "parameters" :
   [
    {
     "referenced_type" : "_ZTIPv"
    },
    {
     "referenced_type" : "_ZTIm"
    }
   ],
   "return_type" : "_ZTIv",
   "source_file" : "external/libcxx/include/new"
  },
  {
   "access" : "private",
   "function_name" : "std::__1::_DeallocateCaller::__do_deallocate_handle_size",
   "linker_set_key" : "_ZNSt3__117_DeallocateCaller27__do_deallocate_handle_sizeEPvmSt11align_val_t",
   "parameters" :
   [
    {
     "referenced_type" : "_ZTIPv"
    },
    {
     "referenced_type" : "_ZTIm"
    },
    {
     "referenced_type" : "_ZTISt11align_val_t"
    }
   ],
   "return_type" : "_ZTIv",
   "source_file" : "external/libcxx/include/new"
  },
  {
   "function_name" : "std::__1::_DeallocateCaller::__do_deallocate_handle_align",
   "linker_set_key" : "_ZNSt3__117_DeallocateCaller28__do_deallocate_handle_alignEPvm",
   "parameters" :
   [
    {
     "referenced_type" : "_ZTIPv"
    },
    {
     "referenced_type" : "_ZTIm"
    }
   ],
   "return_type" : "_ZTIv",
   "source_file" : "external/libcxx/include/new"
  },
  {
   "function_name" : "std::__1::_DeallocateCaller::__do_deallocate_handle_size_align",
   "linker_set_key" : "_ZNSt3__117_DeallocateCaller33__do_deallocate_handle_size_alignEPvmm",
   "parameters" :
   [
    {
     "referenced_type" : "_ZTIPv"
    },
    {
     "referenced_type" : "_ZTIm"
    },
    {
     "referenced_type" : "_ZTIm"
    }
   ],
   "return_type" : "_ZTIv",
   "source_file" : "external/libcxx/include/new"
  },
  {
   "access" : "private",
   "function_name" : "std::__1::_DeallocateCaller::__do_call",
   "linker_set_key" : "_ZNSt3__117_DeallocateCaller9__do_callEPv",
   "parameters" :
   [
    {
     "referenced_type" : "_ZTIPv"
    }
   ],
   "return_type" : "_ZTIv",
   "source_file" : "external/libcxx/include/new"
  },
  {
   "access" : "private",
   "function_name" : "std::__1::_DeallocateCaller::__do_call",
   "linker_set_key" : "_ZNSt3__117_DeallocateCaller9__do_callISt11align_val_tEEvPvT_",
   "parameters" :
   [
    {
     "referenced_type" : "_ZTIPv"
    },
    {
     "referenced_type" : "_ZTISt11align_val_t"
    }
   ],
   "return_type" : "_ZTIv",
   "source_file" : "external/libcxx/include/new",
   "template_args" : [ "_ZTISt11align_val_t" ]
  },
  {
   "function_name" : "std::__1::__compressed_pair<std::__1::basic_string<char32_t, std::__1::char_traits<char32_t>, std::__1::allocator<char32_t>>::__rep, std::__1::allocator<char32_t>>::first",
   "linker_set_key" : "_ZNSt3__117__compressed_pairINS_12basic_stringIDiNS_11char_traitsIDiEENS_9allocatorIDiEEE5__repES5_E5firstEv",
   "parameters" :
   [
    {
     "is_this_ptr" : true,
     "referenced_type" : "_ZTIPNSt3__117__compressed_pairINS_12basic_stringIDiNS_11char_traitsIDiEENS_9allocatorIDiEEE5__repES5_EE"
    }
   ],
   "return_type" : "_ZTIRNSt3__112basic_stringIDiNS_11char_traitsIDiEENS_9allocatorIDiEEE5__repE",
   "source_file" : "external/libcxx/include/memory"
  },
  {
   "function_name" : "std::__1::__compressed_pair<std::__1::basic_string<char32_t, std::__1::char_traits<char32_t>, std::__1::allocator<char32_t>>::__rep, std::__1::allocator<char32_t>>::second",
   "linker_set_key" : "_ZNSt3__117__compressed_pairINS_12basic_stringIDiNS_11char_traitsIDiEENS_9allocatorIDiEEE5__repES5_E6secondEv",
   "parameters" :
   [
    {
     "is_this_ptr" : true,
     "referenced_type" : "_ZTIPNSt3__117__compressed_pairINS_12basic_stringIDiNS_11char_traitsIDiEENS_9allocatorIDiEEE5__repES5_EE"
    }
   ],
   "return_type" : "_ZTIRNSt3__19allocatorIDiEE",
   "source_file" : "external/libcxx/include/memory"
  },
  {
   "function_name" : "std::__1::__compressed_pair<std::__1::basic_string<char32_t, std::__1::char_traits<char32_t>, std::__1::allocator<char32_t>>::__rep, std::__1::allocator<char32_t>>::__compressed_pair",
   "linker_set_key" : "_ZNSt3__117__compressed_pairINS_12basic_stringIDiNS_11char_traitsIDiEENS_9allocatorIDiEEE5__repES5_EC1ILb1EvEEv",
   "parameters" :
   [
    {
     "is_this_ptr" : true,
     "referenced_type" : "_ZTIPNSt3__117__compressed_pairINS_12basic_stringIDiNS_11char_traitsIDiEENS_9allocatorIDiEEE5__repES5_EE"
    }
   ],
   "return_type" : "_ZTIv",
   "source_file" : "external/libcxx/include/memory",
   "template_args" : [ "_ZTIv" ]
  },
  {
   "function_name" : "std::__1::__compressed_pair<std::__1::basic_string<char32_t, std::__1::char_traits<char32_t>, std::__1::allocator<char32_t>>::__rep, std::__1::allocator<char32_t>>::__compressed_pair",
   "linker_set_key" : "_ZNSt3__117__compressed_pairINS_12basic_stringIDiNS_11char_traitsIDiEENS_9allocatorIDiEEE5__repES5_EC2ILb1EvEEv",
   "parameters" :
   [
    {
     "is_this_ptr" : true,
     "referenced_type" : "_ZTIPNSt3__117__compressed_pairINS_12basic_stringIDiNS_11char_traitsIDiEENS_9allocatorIDiEEE5__repES5_EE"
    }
   ],
   "return_type" : "_ZTIv",
   "source_file" : "external/libcxx/include/memory",
   "template_args" : [ "_ZTIv" ]
  },
  {
   "function_name" : "std::__1::__compressed_pair<std::__1::basic_string<char16_t, std::__1::char_traits<char16_t>, std::__1::allocator<char16_t>>::__rep, std::__1::allocator<char16_t>>::first",
   "linker_set_key" : "_ZNSt3__117__compressed_pairINS_12basic_stringIDsNS_11char_traitsIDsEENS_9allocatorIDsEEE5__repES5_E5firstEv",
   "parameters" :
   [
    {
     "is_this_ptr" : true,
     "referenced_type" : "_ZTIPNSt3__117__compressed_pairINS_12basic_stringIDsNS_11char_traitsIDsEENS_9allocatorIDsEEE5__repES5_EE"
    }
   ],
   "return_type" : "_ZTIRNSt3__112basic_stringIDsNS_11char_traitsIDsEENS_9allocatorIDsEEE5__repE",
   "source_file" : "external/libcxx/include/memory"
  },
  {
   "function_name" : "std::__1::__compressed_pair<std::__1::basic_string<char16_t, std::__1::char_traits<char16_t>, std::__1::allocator<char16_t>>::__rep, std::__1::allocator<char16_t>>::second",
   "linker_set_key" : "_ZNSt3__117__compressed_pairINS_12basic_stringIDsNS_11char_traitsIDsEENS_9allocatorIDsEEE5__repES5_E6secondEv",
   "parameters" :
   [
    {
     "is_this_ptr" : true,
     "referenced_type" : "_ZTIPNSt3__117__compressed_pairINS_12basic_stringIDsNS_11char_traitsIDsEENS_9allocatorIDsEEE5__repES5_EE"
    }
   ],
   "return_type" : "_ZTIRNSt3__19allocatorIDsEE",
   "source_file" : "external/libcxx/include/memory"
  },
  {
   "function_name" : "std::__1::__compressed_pair<std::__1::basic_string<char16_t, std::__1::char_traits<char16_t>, std::__1::allocator<char16_t>>::__rep, std::__1::allocator<char16_t>>::__compressed_pair",
   "linker_set_key" : "_ZNSt3__117__compressed_pairINS_12basic_stringIDsNS_11char_traitsIDsEENS_9allocatorIDsEEE5__repES5_EC1ILb1EvEEv",
   "parameters" :
   [
    {
     "is_this_ptr" : true,
     "referenced_type" : "_ZTIPNSt3__117__compressed_pairINS_12basic_stringIDsNS_11char_traitsIDsEENS_9allocatorIDsEEE5__repES5_EE"
    }
   ],
   "return_type" : "_ZTIv",
   "source_file" : "external/libcxx/include/memory",
   "template_args" : [ "_ZTIv" ]
  },
  {
   "function_name" : "std::__1::__compressed_pair<std::__1::basic_string<char16_t, std::__1::char_traits<char16_t>, std::__1::allocator<char16_t>>::__rep, std::__1::allocator<char16_t>>::__compressed_pair",
   "linker_set_key" : "_ZNSt3__117__compressed_pairINS_12basic_stringIDsNS_11char_traitsIDsEENS_9allocatorIDsEEE5__repES5_EC2ILb1EvEEv",
   "parameters" :
   [
    {
     "is_this_ptr" : true,
     "referenced_type" : "_ZTIPNSt3__117__compressed_pairINS_12basic_stringIDsNS_11char_traitsIDsEENS_9allocatorIDsEEE5__repES5_EE"
    }
   ],
   "return_type" : "_ZTIv",
   "source_file" : "external/libcxx/include/memory",
   "template_args" : [ "_ZTIv" ]
  },
  {
   "function_name" : "std::__1::__compressed_pair<std::__1::basic_string<char, std::__1::char_traits<char>, std::__1::allocator<char>>::__rep, std::__1::allocator<char>>::first",
   "linker_set_key" : "_ZNSt3__117__compressed_pairINS_12basic_stringIcNS_11char_traitsIcEENS_9allocatorIcEEE5__repES5_E5firstEv",
   "parameters" :
   [
    {
     "is_this_ptr" : true,
     "referenced_type" : "_ZTIPNSt3__117__compressed_pairINS_12basic_stringIcNS_11char_traitsIcEENS_9allocatorIcEEE5__repES5_EE"
    }
   ],
   "return_type" : "_ZTIRNSt3__112basic_stringIcNS_11char_traitsIcEENS_9allocatorIcEEE5__repE",
   "source_file" : "external/libcxx/include/memory"
  },
  {
   "function_name" : "std::__1::__compressed_pair<std::__1::basic_string<char, std::__1::char_traits<char>, std::__1::allocator<char>>::__rep, std::__1::allocator<char>>::second",
   "linker_set_key" : "_ZNSt3__117__compressed_pairINS_12basic_stringIcNS_11char_traitsIcEENS_9allocatorIcEEE5__repES5_E6secondEv",
   "parameters" :
   [
    {
     "is_this_ptr" : true,
     "referenced_type" : "_ZTIPNSt3__117__compressed_pairINS_12basic_stringIcNS_11char_traitsIcEENS_9allocatorIcEEE5__repES5_EE"
    }
   ],
   "return_type" : "_ZTIRNSt3__19allocatorIcEE",
   "source_file" : "external/libcxx/include/memory"
  },
  {
   "function_name" : "std::__1::__compressed_pair<std::__1::basic_string<char, std::__1::char_traits<char>, std::__1::allocator<char>>::__rep, std::__1::allocator<char>>::__compressed_pair",
   "linker_set_key" : "_ZNSt3__117__compressed_pairINS_12basic_stringIcNS_11char_traitsIcEENS_9allocatorIcEEE5__repES5_EC1ILb1EvEEv",
   "parameters" :
   [
    {
     "is_this_ptr" : true,
     "referenced_type" : "_ZTIPNSt3__117__compressed_pairINS_12basic_stringIcNS_11char_traitsIcEENS_9allocatorIcEEE5__repES5_EE"
    }
   ],
   "return_type" : "_ZTIv",
   "source_file" : "external/libcxx/include/memory",
   "template_args" : [ "_ZTIv" ]
  },
  {
   "function_name" : "std::__1::__compressed_pair<std::__1::basic_string<char, std::__1::char_traits<char>, std::__1::allocator<char>>::__rep, std::__1::allocator<char>>::__compressed_pair",
   "linker_set_key" : "_ZNSt3__117__compressed_pairINS_12basic_stringIcNS_11char_traitsIcEENS_9allocatorIcEEE5__repES5_EC2ILb1EvEEv",
   "parameters" :
   [
    {
     "is_this_ptr" : true,
     "referenced_type" : "_ZTIPNSt3__117__compressed_pairINS_12basic_stringIcNS_11char_traitsIcEENS_9allocatorIcEEE5__repES5_EE"
    }
   ],
   "return_type" : "_ZTIv",
   "source_file" : "external/libcxx/include/memory",
   "template_args" : [ "_ZTIv" ]
  },
  {
   "function_name" : "std::__1::__compressed_pair<std::__1::basic_string<wchar_t, std::__1::char_traits<wchar_t>, std::__1::allocator<wchar_t>>::__rep, std::__1::allocator<wchar_t>>::first",
   "linker_set_key" : "_ZNSt3__117__compressed_pairINS_12basic_stringIwNS_11char_traitsIwEENS_9allocatorIwEEE5__repES5_E5firstEv",
   "parameters" :
   [
    {
     "is_this_ptr" : true,
     "referenced_type" : "_ZTIPNSt3__117__compressed_pairINS_12basic_stringIwNS_11char_traitsIwEENS_9allocatorIwEEE5__repES5_EE"
    }
   ],
   "return_type" : "_ZTIRNSt3__112basic_stringIwNS_11char_traitsIwEENS_9allocatorIwEEE5__repE",
   "source_file" : "external/libcxx/include/memory"
  },
  {
   "function_name" : "std::__1::__compressed_pair<std::__1::basic_string<wchar_t, std::__1::char_traits<wchar_t>, std::__1::allocator<wchar_t>>::__rep, std::__1::allocator<wchar_t>>::second",
   "linker_set_key" : "_ZNSt3__117__compressed_pairINS_12basic_stringIwNS_11char_traitsIwEENS_9allocatorIwEEE5__repES5_E6secondEv",
   "parameters" :
   [
    {
     "is_this_ptr" : true,
     "referenced_type" : "_ZTIPNSt3__117__compressed_pairINS_12basic_stringIwNS_11char_traitsIwEENS_9allocatorIwEEE5__repES5_EE"
    }
   ],
   "return_type" : "_ZTIRNSt3__19allocatorIwEE",
   "source_file" : "external/libcxx/include/memory"
  },
  {
   "function_name" : "std::__1::__compressed_pair<std::__1::basic_string<wchar_t, std::__1::char_traits<wchar_t>, std::__1::allocator<wchar_t>>::__rep, std::__1::allocator<wchar_t>>::__compressed_pair",
   "linker_set_key" : "_ZNSt3__117__compressed_pairINS_12basic_stringIwNS_11char_traitsIwEENS_9allocatorIwEEE5__repES5_EC1ILb1EvEEv",
   "parameters" :
   [
    {
     "is_this_ptr" : true,
     "referenced_type" : "_ZTIPNSt3__117__compressed_pairINS_12basic_stringIwNS_11char_traitsIwEENS_9allocatorIwEEE5__repES5_EE"
    }
   ],
   "return_type" : "_ZTIv",
   "source_file" : "external/libcxx/include/memory",
   "template_args" : [ "_ZTIv" ]
  },
  {
   "function_name" : "std::__1::__compressed_pair<std::__1::basic_string<wchar_t, std::__1::char_traits<wchar_t>, std::__1::allocator<wchar_t>>::__rep, std::__1::allocator<wchar_t>>::__compressed_pair",
   "linker_set_key" : "_ZNSt3__117__compressed_pairINS_12basic_stringIwNS_11char_traitsIwEENS_9allocatorIwEEE5__repES5_EC2ILb1EvEEv",
   "parameters" :
   [
    {
     "is_this_ptr" : true,
     "referenced_type" : "_ZTIPNSt3__117__compressed_pairINS_12basic_stringIwNS_11char_traitsIwEENS_9allocatorIwEEE5__repES5_EE"
    }
   ],
   "return_type" : "_ZTIv",
   "source_file" : "external/libcxx/include/memory",
   "template_args" : [ "_ZTIv" ]
  },
  {
   "function_name" : "std::__1::__compressed_pair<std::__1::optional<std::__1::basic_string<char>> *, std::__1::allocator<std::__1::optional<std::__1::basic_string<char>>>>::first",
   "linker_set_key" : "_ZNSt3__117__compressed_pairIPNS_8optionalINS_12basic_stringIcNS_11char_traitsIcEENS_9allocatorIcEEEEEENS5_IS8_EEE5firstEv",
   "parameters" :
   [
    {
     "is_this_ptr" : true,
     "referenced_type" : "_ZTIPNSt3__117__compressed_pairIPNS_8optionalINS_12basic_stringIcNS_11char_traitsIcEENS_9allocatorIcEEEEEENS5_IS8_EEEE"
    }
   ],
   "return_type" : "_ZTIRPNSt3__18optionalINS_12basic_stringIcNS_11char_traitsIcEENS_9allocatorIcEEEEEE",
   "source_file" : "external/libcxx/include/memory"
  },
  {
   "function_name" : "std::__1::__compressed_pair<std::__1::optional<std::__1::basic_string<char>> *, std::__1::allocator<std::__1::optional<std::__1::basic_string<char>>>>::second",
   "linker_set_key" : "_ZNSt3__117__compressed_pairIPNS_8optionalINS_12basic_stringIcNS_11char_traitsIcEENS_9allocatorIcEEEEEENS5_IS8_EEE6secondEv",
   "parameters" :
   [
    {
     "is_this_ptr" : true,
     "referenced_type" : "_ZTIPNSt3__117__compressed_pairIPNS_8optionalINS_12basic_stringIcNS_11char_traitsIcEENS_9allocatorIcEEEEEENS5_IS8_EEEE"
    }
   ],
   "return_type" : "_ZTIRNSt3__19allocatorINS_8optionalINS_12basic_stringIcNS_11char_traitsIcEENS0_IcEEEEEEEE",
   "source_file" : "external/libcxx/include/memory"
  },
  {
   "function_name" : "std::__1::__compressed_pair<std::__1::optional<std::__1::basic_string<char>> *, std::__1::allocator<std::__1::optional<std::__1::basic_string<char>>>>::__compressed_pair",
   "linker_set_key" : "_ZNSt3__117__compressed_pairIPNS_8optionalINS_12basic_stringIcNS_11char_traitsIcEENS_9allocatorIcEEEEEENS5_IS8_EEEC1IDnLb1EEEOT_",
   "parameters" :
   [
    {
     "is_this_ptr" : true,
     "referenced_type" : "_ZTIPNSt3__117__compressed_pairIPNS_8optionalINS_12basic_stringIcNS_11char_traitsIcEENS_9allocatorIcEEEEEENS5_IS8_EEEE"
    },
    {
     "referenced_type" : "_ZTIODn"
    }
   ],
   "return_type" : "_ZTIv",
   "source_file" : "external/libcxx/include/memory",
   "template_args" : [ "_ZTIDn" ]
  },
  {
   "function_name" : "std::__1::__compressed_pair<std::__1::optional<std::__1::basic_string<char>> *, std::__1::allocator<std::__1::optional<std::__1::basic_string<char>>>>::__compressed_pair",
   "linker_set_key" : "_ZNSt3__117__compressed_pairIPNS_8optionalINS_12basic_stringIcNS_11char_traitsIcEENS_9allocatorIcEEEEEENS5_IS8_EEEC1IDnSA_EEOT_OT0_",
   "parameters" :
   [
    {
     "is_this_ptr" : true,
     "referenced_type" : "_ZTIPNSt3__117__compressed_pairIPNS_8optionalINS_12basic_stringIcNS_11char_traitsIcEENS_9allocatorIcEEEEEENS5_IS8_EEEE"
    },
    {
     "referenced_type" : "_ZTIODn"
    },
    {
     "referenced_type" : "_ZTIONSt3__19allocatorINS_8optionalINS_12basic_stringIcNS_11char_traitsIcEENS0_IcEEEEEEEE"
    }
   ],
   "return_type" : "_ZTIv",
   "source_file" : "external/libcxx/include/memory",
   "template_args" :
   [
    "_ZTIDn",
    "_ZTINSt3__19allocatorINS_8optionalINS_12basic_stringIcNS_11char_traitsIcEENS0_IcEEEEEEEE"
   ]
  },
  {
   "function_name" : "std::__1::__compressed_pair<std::__1::optional<std::__1::basic_string<char>> *, std::__1::allocator<std::__1::optional<std::__1::basic_string<char>>>>::__compressed_pair",
   "linker_set_key" : "_ZNSt3__117__compressed_pairIPNS_8optionalINS_12basic_stringIcNS_11char_traitsIcEENS_9allocatorIcEEEEEENS5_IS8_EEEC2IDnLb1EEEOT_",
   "parameters" :
   [
    {
     "is_this_ptr" : true,
     "referenced_type" : "_ZTIPNSt3__117__compressed_pairIPNS_8optionalINS_12basic_stringIcNS_11char_traitsIcEENS_9allocatorIcEEEEEENS5_IS8_EEEE"
    },
    {
     "referenced_type" : "_ZTIODn"
    }
   ],
   "return_type" : "_ZTIv",
   "source_file" : "external/libcxx/include/memory",
   "template_args" : [ "_ZTIDn" ]
  },
  {
   "function_name" : "std::__1::__compressed_pair<std::__1::optional<std::__1::basic_string<char>> *, std::__1::allocator<std::__1::optional<std::__1::basic_string<char>>>>::__compressed_pair",
   "linker_set_key" : "_ZNSt3__117__compressed_pairIPNS_8optionalINS_12basic_stringIcNS_11char_traitsIcEENS_9allocatorIcEEEEEENS5_IS8_EEEC2IDnSA_EEOT_OT0_",
   "parameters" :
   [
    {
     "is_this_ptr" : true,
     "referenced_type" : "_ZTIPNSt3__117__compressed_pairIPNS_8optionalINS_12basic_stringIcNS_11char_traitsIcEENS_9allocatorIcEEEEEENS5_IS8_EEEE"
    },
    {
     "referenced_type" : "_ZTIODn"
    },
    {
     "referenced_type" : "_ZTIONSt3__19allocatorINS_8optionalINS_12basic_stringIcNS_11char_traitsIcEENS0_IcEEEEEEEE"
    }
   ],
   "return_type" : "_ZTIv",
   "source_file" : "external/libcxx/include/memory",
   "template_args" :
   [
    "_ZTIDn",
    "_ZTINSt3__19allocatorINS_8optionalINS_12basic_stringIcNS_11char_traitsIcEENS0_IcEEEEEEEE"
   ]
  },
  {
   "function_name" : "std::__1::__compressed_pair<std::__1::optional<std::__1::basic_string<char>> *, std::__1::allocator<std::__1::optional<std::__1::basic_string<char>>> &>::first",
   "linker_set_key" : "_ZNSt3__117__compressed_pairIPNS_8optionalINS_12basic_stringIcNS_11char_traitsIcEENS_9allocatorIcEEEEEERNS5_IS8_EEE5firstEv",
   "parameters" :
   [
    {
     "is_this_ptr" : true,
     "referenced_type" : "_ZTIPNSt3__117__compressed_pairIPNS_8optionalINS_12basic_stringIcNS_11char_traitsIcEENS_9allocatorIcEEEEEERNS5_IS8_EEEE"
    }
   ],
   "return_type" : "_ZTIRPNSt3__18optionalINS_12basic_stringIcNS_11char_traitsIcEENS_9allocatorIcEEEEEE",
   "source_file" : "external/libcxx/include/memory"
  },
  {
   "function_name" : "std::__1::__compressed_pair<std::__1::optional<std::__1::basic_string<char>> *, std::__1::allocator<std::__1::optional<std::__1::basic_string<char>>> &>::second",
   "linker_set_key" : "_ZNSt3__117__compressed_pairIPNS_8optionalINS_12basic_stringIcNS_11char_traitsIcEENS_9allocatorIcEEEEEERNS5_IS8_EEE6secondEv",
   "parameters" :
   [
    {
     "is_this_ptr" : true,
     "referenced_type" : "_ZTIPNSt3__117__compressed_pairIPNS_8optionalINS_12basic_stringIcNS_11char_traitsIcEENS_9allocatorIcEEEEEERNS5_IS8_EEEE"
    }
   ],
   "return_type" : "_ZTIRNSt3__19allocatorINS_8optionalINS_12basic_stringIcNS_11char_traitsIcEENS0_IcEEEEEEEE",
   "source_file" : "external/libcxx/include/memory"
  },
  {
   "function_name" : "std::__1::__compressed_pair<std::__1::optional<std::__1::basic_string<char>> *, std::__1::allocator<std::__1::optional<std::__1::basic_string<char>>> &>::__compressed_pair",
   "linker_set_key" : "_ZNSt3__117__compressed_pairIPNS_8optionalINS_12basic_stringIcNS_11char_traitsIcEENS_9allocatorIcEEEEEERNS5_IS8_EEEC1IDnSB_EEOT_OT0_",
   "parameters" :
   [
    {
     "is_this_ptr" : true,
     "referenced_type" : "_ZTIPNSt3__117__compressed_pairIPNS_8optionalINS_12basic_stringIcNS_11char_traitsIcEENS_9allocatorIcEEEEEERNS5_IS8_EEEE"
    },
    {
     "referenced_type" : "_ZTIODn"
    },
    {
     "referenced_type" : "_ZTIRNSt3__19allocatorINS_8optionalINS_12basic_stringIcNS_11char_traitsIcEENS0_IcEEEEEEEE"
    }
   ],
   "return_type" : "_ZTIv",
   "source_file" : "external/libcxx/include/memory",
   "template_args" :
   [
    "_ZTIDn",
    "_ZTIRNSt3__19allocatorINS_8optionalINS_12basic_stringIcNS_11char_traitsIcEENS0_IcEEEEEEEE"
   ]
  },
  {
   "function_name" : "std::__1::__compressed_pair<std::__1::optional<std::__1::basic_string<char>> *, std::__1::allocator<std::__1::optional<std::__1::basic_string<char>>> &>::__compressed_pair",
   "linker_set_key" : "_ZNSt3__117__compressed_pairIPNS_8optionalINS_12basic_stringIcNS_11char_traitsIcEENS_9allocatorIcEEEEEERNS5_IS8_EEEC2IDnSB_EEOT_OT0_",
   "parameters" :
   [
    {
     "is_this_ptr" : true,
     "referenced_type" : "_ZTIPNSt3__117__compressed_pairIPNS_8optionalINS_12basic_stringIcNS_11char_traitsIcEENS_9allocatorIcEEEEEERNS5_IS8_EEEE"
    },
    {
     "referenced_type" : "_ZTIODn"
    },
    {
     "referenced_type" : "_ZTIRNSt3__19allocatorINS_8optionalINS_12basic_stringIcNS_11char_traitsIcEENS0_IcEEEEEEEE"
    }
   ],
   "return_type" : "_ZTIv",
   "source_file" : "external/libcxx/include/memory",
   "template_args" :
   [
    "_ZTIDn",
    "_ZTIRNSt3__19allocatorINS_8optionalINS_12basic_stringIcNS_11char_traitsIcEENS0_IcEEEEEEEE"
   ]
  },
  {
   "function_name" : "std::__1::__libcpp_allocate",
   "linker_set_key" : "_ZNSt3__117__libcpp_allocateEmm",
   "parameters" :
   [
    {
     "referenced_type" : "_ZTIm"
    },
    {
     "referenced_type" : "_ZTIm"
    }
   ],
   "return_type" : "_ZTIPv",
   "source_file" : "external/libcxx/include/new"
  },
  {
   "function_name" : "std::__1::atomic_flag_clear",
   "linker_set_key" : "_ZNSt3__117atomic_flag_clearEPNS_11atomic_flagE",
   "parameters" :
   [
    {
     "referenced_type" : "_ZTIPNSt3__111atomic_flagE"
    }
   ],
   "return_type" : "_ZTIv",
   "source_file" : "external/libcxx/include/atomic"
  },
  {
   "function_name" : "std::__1::atomic_flag_clear",
   "linker_set_key" : "_ZNSt3__117atomic_flag_clearEPVNS_11atomic_flagE",
   "parameters" :
   [
    {
     "referenced_type" : "_ZTIPVNSt3__111atomic_flagE"
    }
   ],
   "return_type" : "_ZTIv",
   "source_file" : "external/libcxx/include/atomic"
  },
  {
   "function_name" : "std::__1::basic_string_view<char32_t, std::__1::char_traits<char32_t>>::basic_string_view",
   "linker_set_key" : "_ZNSt3__117basic_string_viewIDiNS_11char_traitsIDiEEEC1EPKDim",
   "parameters" :
   [
    {
     "is_this_ptr" : true,
     "referenced_type" : "_ZTIPNSt3__117basic_string_viewIDiNS_11char_traitsIDiEEEE"
    },
    {
     "referenced_type" : "_ZTIPKDi"
    },
    {
     "referenced_type" : "_ZTIm"
    }
   ],
   "return_type" : "_ZTIv",
   "source_file" : "external/libcxx/include/string_view"
  },
  {
   "function_name" : "std::__1::basic_string_view<char32_t, std::__1::char_traits<char32_t>>::basic_string_view",
   "linker_set_key" : "_ZNSt3__117basic_string_viewIDiNS_11char_traitsIDiEEEC1ERKS3_",
   "parameters" :
   [
    {
     "is_this_ptr" : true,
     "referenced_type" : "_ZTIPNSt3__117basic_string_viewIDiNS_11char_traitsIDiEEEE"
    },
    {
     "referenced_type" : "_ZTIRKNSt3__117basic_string_viewIDiNS_11char_traitsIDiEEEE"
    }
   ],
   "return_type" : "_ZTIv",
   "source_file" : "external/libcxx/include/string_view"
  },
  {
   "function_name" : "std::__1::basic_string_view<char32_t, std::__1::char_traits<char32_t>>::basic_string_view",
   "linker_set_key" : "_ZNSt3__117basic_string_viewIDiNS_11char_traitsIDiEEEC2EPKDim",
   "parameters" :
   [
    {
     "is_this_ptr" : true,
     "referenced_type" : "_ZTIPNSt3__117basic_string_viewIDiNS_11char_traitsIDiEEEE"
    },
    {
     "referenced_type" : "_ZTIPKDi"
    },
    {
     "referenced_type" : "_ZTIm"
    }
   ],
   "return_type" : "_ZTIv",
   "source_file" : "external/libcxx/include/string_view"
  },
  {
   "function_name" : "std::__1::basic_string_view<char32_t, std::__1::char_traits<char32_t>>::basic_string_view",
   "linker_set_key" : "_ZNSt3__117basic_string_viewIDiNS_11char_traitsIDiEEEC2ERKS3_",
   "parameters" :
   [
    {
     "is_this_ptr" : true,
     "referenced_type" : "_ZTIPNSt3__117basic_string_viewIDiNS_11char_traitsIDiEEEE"
    },
    {
     "referenced_type" : "_ZTIRKNSt3__117basic_string_viewIDiNS_11char_traitsIDiEEEE"
    }
   ],
   "return_type" : "_ZTIv",
   "source_file" : "external/libcxx/include/string_view"
  },
  {
   "function_name" : "std::__1::basic_string_view<char32_t, std::__1::char_traits<char32_t>>::operator=",
   "linker_set_key" : "_ZNSt3__117basic_string_viewIDiNS_11char_traitsIDiEEEaSERKS3_",
   "parameters" :
   [
    {
     "is_this_ptr" : true,
     "referenced_type" : "_ZTIPNSt3__117basic_string_viewIDiNS_11char_traitsIDiEEEE"
    },
    {
     "referenced_type" : "_ZTIRKNSt3__117basic_string_viewIDiNS_11char_traitsIDiEEEE"
    }
   ],
   "return_type" : "_ZTIRNSt3__117basic_string_viewIDiNS_11char_traitsIDiEEEE",
   "source_file" : "external/libcxx/include/string_view"
  },
  {
   "function_name" : "std::__1::basic_string_view<char16_t, std::__1::char_traits<char16_t>>::basic_string_view",
   "linker_set_key" : "_ZNSt3__117basic_string_viewIDsNS_11char_traitsIDsEEEC1EPKDsm",
   "parameters" :
   [
    {
     "is_this_ptr" : true,
     "referenced_type" : "_ZTIPNSt3__117basic_string_viewIDsNS_11char_traitsIDsEEEE"
    },
    {
     "referenced_type" : "_ZTIPKDs"
    },
    {
     "referenced_type" : "_ZTIm"
    }
   ],
   "return_type" : "_ZTIv",
   "source_file" : "external/libcxx/include/string_view"
  },
  {
   "function_name" : "std::__1::basic_string_view<char16_t, std::__1::char_traits<char16_t>>::basic_string_view",
   "linker_set_key" : "_ZNSt3__117basic_string_viewIDsNS_11char_traitsIDsEEEC1ERKS3_",
   "parameters" :
   [
    {
     "is_this_ptr" : true,
     "referenced_type" : "_ZTIPNSt3__117basic_string_viewIDsNS_11char_traitsIDsEEEE"
    },
    {
     "referenced_type" : "_ZTIRKNSt3__117basic_string_viewIDsNS_11char_traitsIDsEEEE"
    }
   ],
   "return_type" : "_ZTIv",
   "source_file" : "external/libcxx/include/string_view"
  },
  {
   "function_name" : "std::__1::basic_string_view<char16_t, std::__1::char_traits<char16_t>>::basic_string_view",
   "linker_set_key" : "_ZNSt3__117basic_string_viewIDsNS_11char_traitsIDsEEEC2EPKDsm",
   "parameters" :
   [
    {
     "is_this_ptr" : true,
     "referenced_type" : "_ZTIPNSt3__117basic_string_viewIDsNS_11char_traitsIDsEEEE"
    },
    {
     "referenced_type" : "_ZTIPKDs"
    },
    {
     "referenced_type" : "_ZTIm"
    }
   ],
   "return_type" : "_ZTIv",
   "source_file" : "external/libcxx/include/string_view"
  },
  {
   "function_name" : "std::__1::basic_string_view<char16_t, std::__1::char_traits<char16_t>>::basic_string_view",
   "linker_set_key" : "_ZNSt3__117basic_string_viewIDsNS_11char_traitsIDsEEEC2ERKS3_",
   "parameters" :
   [
    {
     "is_this_ptr" : true,
     "referenced_type" : "_ZTIPNSt3__117basic_string_viewIDsNS_11char_traitsIDsEEEE"
    },
    {
     "referenced_type" : "_ZTIRKNSt3__117basic_string_viewIDsNS_11char_traitsIDsEEEE"
    }
   ],
   "return_type" : "_ZTIv",
   "source_file" : "external/libcxx/include/string_view"
  },
  {
   "function_name" : "std::__1::basic_string_view<char16_t, std::__1::char_traits<char16_t>>::operator=",
   "linker_set_key" : "_ZNSt3__117basic_string_viewIDsNS_11char_traitsIDsEEEaSERKS3_",
   "parameters" :
   [
    {
     "is_this_ptr" : true,
     "referenced_type" : "_ZTIPNSt3__117basic_string_viewIDsNS_11char_traitsIDsEEEE"
    },
    {
     "referenced_type" : "_ZTIRKNSt3__117basic_string_viewIDsNS_11char_traitsIDsEEEE"
    }
   ],
   "return_type" : "_ZTIRNSt3__117basic_string_viewIDsNS_11char_traitsIDsEEEE",
   "source_file" : "external/libcxx/include/string_view"
  },
  {
   "function_name" : "std::__1::basic_string_view<char, std::__1::char_traits<char>>::basic_string_view",
   "linker_set_key" : "_ZNSt3__117basic_string_viewIcNS_11char_traitsIcEEEC1EPKcm",
   "parameters" :
   [
    {
     "is_this_ptr" : true,
     "referenced_type" : "_ZTIPNSt3__117basic_string_viewIcNS_11char_traitsIcEEEE"
    },
    {
     "referenced_type" : "_ZTIPKc"
    },
    {
     "referenced_type" : "_ZTIm"
    }
   ],
   "return_type" : "_ZTIv",
   "source_file" : "external/libcxx/include/string_view"
  },
  {
   "function_name" : "std::__1::basic_string_view<char, std::__1::char_traits<char>>::basic_string_view",
   "linker_set_key" : "_ZNSt3__117basic_string_viewIcNS_11char_traitsIcEEEC1ERKS3_",
   "parameters" :
   [
    {
     "is_this_ptr" : true,
     "referenced_type" : "_ZTIPNSt3__117basic_string_viewIcNS_11char_traitsIcEEEE"
    },
    {
     "referenced_type" : "_ZTIRKNSt3__117basic_string_viewIcNS_11char_traitsIcEEEE"
    }
   ],
   "return_type" : "_ZTIv",
   "source_file" : "external/libcxx/include/string_view"
  },
  {
   "function_name" : "std::__1::basic_string_view<char, std::__1::char_traits<char>>::basic_string_view",
   "linker_set_key" : "_ZNSt3__117basic_string_viewIcNS_11char_traitsIcEEEC2EPKcm",
   "parameters" :
   [
    {
     "is_this_ptr" : true,
     "referenced_type" : "_ZTIPNSt3__117basic_string_viewIcNS_11char_traitsIcEEEE"
    },
    {
     "referenced_type" : "_ZTIPKc"
    },
    {
     "referenced_type" : "_ZTIm"
    }
   ],
   "return_type" : "_ZTIv",
   "source_file" : "external/libcxx/include/string_view"
  },
  {
   "function_name" : "std::__1::basic_string_view<char, std::__1::char_traits<char>>::basic_string_view",
   "linker_set_key" : "_ZNSt3__117basic_string_viewIcNS_11char_traitsIcEEEC2ERKS3_",
   "parameters" :
   [
    {
     "is_this_ptr" : true,
     "referenced_type" : "_ZTIPNSt3__117basic_string_viewIcNS_11char_traitsIcEEEE"
    },
    {
     "referenced_type" : "_ZTIRKNSt3__117basic_string_viewIcNS_11char_traitsIcEEEE"
    }
   ],
   "return_type" : "_ZTIv",
   "source_file" : "external/libcxx/include/string_view"
  },
  {
   "function_name" : "std::__1::basic_string_view<char, std::__1::char_traits<char>>::operator=",
   "linker_set_key" : "_ZNSt3__117basic_string_viewIcNS_11char_traitsIcEEEaSERKS3_",
   "parameters" :
   [
    {
     "is_this_ptr" : true,
     "referenced_type" : "_ZTIPNSt3__117basic_string_viewIcNS_11char_traitsIcEEEE"
    },
    {
     "referenced_type" : "_ZTIRKNSt3__117basic_string_viewIcNS_11char_traitsIcEEEE"
    }
   ],
   "return_type" : "_ZTIRNSt3__117basic_string_viewIcNS_11char_traitsIcEEEE",
   "source_file" : "external/libcxx/include/string_view"
  },
  {
   "function_name" : "std::__1::basic_string_view<wchar_t, std::__1::char_traits<wchar_t>>::basic_string_view",
   "linker_set_key" : "_ZNSt3__117basic_string_viewIwNS_11char_traitsIwEEEC1EPKwm",
   "parameters" :
   [
    {
     "is_this_ptr" : true,
     "referenced_type" : "_ZTIPNSt3__117basic_string_viewIwNS_11char_traitsIwEEEE"
    },
    {
     "referenced_type" : "_ZTIPKw"
    },
    {
     "referenced_type" : "_ZTIm"
    }
   ],
   "return_type" : "_ZTIv",
   "source_file" : "external/libcxx/include/string_view"
  },
  {
   "function_name" : "std::__1::basic_string_view<wchar_t, std::__1::char_traits<wchar_t>>::basic_string_view",
   "linker_set_key" : "_ZNSt3__117basic_string_viewIwNS_11char_traitsIwEEEC1ERKS3_",
   "parameters" :
   [
    {
     "is_this_ptr" : true,
     "referenced_type" : "_ZTIPNSt3__117basic_string_viewIwNS_11char_traitsIwEEEE"
    },
    {
     "referenced_type" : "_ZTIRKNSt3__117basic_string_viewIwNS_11char_traitsIwEEEE"
    }
   ],
   "return_type" : "_ZTIv",
   "source_file" : "external/libcxx/include/string_view"
  },
  {
   "function_name" : "std::__1::basic_string_view<wchar_t, std::__1::char_traits<wchar_t>>::basic_string_view",
   "linker_set_key" : "_ZNSt3__117basic_string_viewIwNS_11char_traitsIwEEEC2EPKwm",
   "parameters" :
   [
    {
     "is_this_ptr" : true,
     "referenced_type" : "_ZTIPNSt3__117basic_string_viewIwNS_11char_traitsIwEEEE"
    },
    {
     "referenced_type" : "_ZTIPKw"
    },
    {
     "referenced_type" : "_ZTIm"
    }
   ],
   "return_type" : "_ZTIv",
   "source_file" : "external/libcxx/include/string_view"
  },
  {
   "function_name" : "std::__1::basic_string_view<wchar_t, std::__1::char_traits<wchar_t>>::basic_string_view",
   "linker_set_key" : "_ZNSt3__117basic_string_viewIwNS_11char_traitsIwEEEC2ERKS3_",
   "parameters" :
   [
    {
     "is_this_ptr" : true,
     "referenced_type" : "_ZTIPNSt3__117basic_string_viewIwNS_11char_traitsIwEEEE"
    },
    {
     "referenced_type" : "_ZTIRKNSt3__117basic_string_viewIwNS_11char_traitsIwEEEE"
    }
   ],
   "return_type" : "_ZTIv",
   "source_file" : "external/libcxx/include/string_view"
  },
  {
   "function_name" : "std::__1::basic_string_view<wchar_t, std::__1::char_traits<wchar_t>>::operator=",
   "linker_set_key" : "_ZNSt3__117basic_string_viewIwNS_11char_traitsIwEEEaSERKS3_",
   "parameters" :
   [
    {
     "is_this_ptr" : true,
     "referenced_type" : "_ZTIPNSt3__117basic_string_viewIwNS_11char_traitsIwEEEE"
    },
    {
     "referenced_type" : "_ZTIRKNSt3__117basic_string_viewIwNS_11char_traitsIwEEEE"
    }
   ],
   "return_type" : "_ZTIRNSt3__117basic_string_viewIwNS_11char_traitsIwEEEE",
   "source_file" : "external/libcxx/include/string_view"
  },
  {
   "function_name" : "std::__1::__sfinae_ctor_base<false, false>::__sfinae_ctor_base",
   "linker_set_key" : "_ZNSt3__118__sfinae_ctor_baseILb0ELb0EEC1Ev",
   "parameters" :
   [
    {
     "is_this_ptr" : true,
     "referenced_type" : "_ZTIPNSt3__118__sfinae_ctor_baseILb0ELb0EEE"
    }
   ],
   "return_type" : "_ZTIv",
   "source_file" : "external/libcxx/include/__tuple"
  },
  {
   "function_name" : "std::__1::__sfinae_ctor_base<false, false>::__sfinae_ctor_base",
   "linker_set_key" : "_ZNSt3__118__sfinae_ctor_baseILb0ELb0EEC2Ev",
   "parameters" :
   [
    {
     "is_this_ptr" : true,
     "referenced_type" : "_ZTIPNSt3__118__sfinae_ctor_baseILb0ELb0EEE"
    }
   ],
   "return_type" : "_ZTIv",
   "source_file" : "external/libcxx/include/__tuple"
  },
  {
   "function_name" : "std::__1::__sfinae_ctor_base<false, false>::operator=",
   "linker_set_key" : "_ZNSt3__118__sfinae_ctor_baseILb0ELb0EEaSEOS1_",
   "parameters" :
   [
    {
     "is_this_ptr" : true,
     "referenced_type" : "_ZTIPNSt3__118__sfinae_ctor_baseILb0ELb0EEE"
    },
    {
     "referenced_type" : "_ZTIONSt3__118__sfinae_ctor_baseILb0ELb0EEE"
    }
   ],
   "return_type" : "_ZTIRNSt3__118__sfinae_ctor_baseILb0ELb0EEE",
   "source_file" : "external/libcxx/include/__tuple"
  },
  {
   "function_name" : "std::__1::__sfinae_ctor_base<false, false>::operator=",
   "linker_set_key" : "_ZNSt3__118__sfinae_ctor_baseILb0ELb0EEaSERKS1_",
   "parameters" :
   [
    {
     "is_this_ptr" : true,
     "referenced_type" : "_ZTIPNSt3__118__sfinae_ctor_baseILb0ELb0EEE"
    },
    {
     "referenced_type" : "_ZTIRKNSt3__118__sfinae_ctor_baseILb0ELb0EEE"
    }
   ],
   "return_type" : "_ZTIRNSt3__118__sfinae_ctor_baseILb0ELb0EEE",
   "source_file" : "external/libcxx/include/__tuple"
  },
  {
   "function_name" : "std::__1::__sfinae_ctor_base<false, true>::__sfinae_ctor_base",
   "linker_set_key" : "_ZNSt3__118__sfinae_ctor_baseILb0ELb1EEC1EOS1_",
   "parameters" :
   [
    {
     "is_this_ptr" : true,
     "referenced_type" : "_ZTIPNSt3__118__sfinae_ctor_baseILb0ELb1EEE"
    },
    {
     "referenced_type" : "_ZTIONSt3__118__sfinae_ctor_baseILb0ELb1EEE"
    }
   ],
   "return_type" : "_ZTIv",
   "source_file" : "external/libcxx/include/__tuple"
  },
  {
   "function_name" : "std::__1::__sfinae_ctor_base<false, true>::__sfinae_ctor_base",
   "linker_set_key" : "_ZNSt3__118__sfinae_ctor_baseILb0ELb1EEC1Ev",
   "parameters" :
   [
    {
     "is_this_ptr" : true,
     "referenced_type" : "_ZTIPNSt3__118__sfinae_ctor_baseILb0ELb1EEE"
    }
   ],
   "return_type" : "_ZTIv",
   "source_file" : "external/libcxx/include/__tuple"
  },
  {
   "function_name" : "std::__1::__sfinae_ctor_base<false, true>::__sfinae_ctor_base",
   "linker_set_key" : "_ZNSt3__118__sfinae_ctor_baseILb0ELb1EEC2EOS1_",
   "parameters" :
   [
    {
     "is_this_ptr" : true,
     "referenced_type" : "_ZTIPNSt3__118__sfinae_ctor_baseILb0ELb1EEE"
    },
    {
     "referenced_type" : "_ZTIONSt3__118__sfinae_ctor_baseILb0ELb1EEE"
    }
   ],
   "return_type" : "_ZTIv",
   "source_file" : "external/libcxx/include/__tuple"
  },
  {
   "function_name" : "std::__1::__sfinae_ctor_base<false, true>::__sfinae_ctor_base",
   "linker_set_key" : "_ZNSt3__118__sfinae_ctor_baseILb0ELb1EEC2Ev",
   "parameters" :
   [
    {
     "is_this_ptr" : true,
     "referenced_type" : "_ZTIPNSt3__118__sfinae_ctor_baseILb0ELb1EEE"
    }
   ],
   "return_type" : "_ZTIv",
   "source_file" : "external/libcxx/include/__tuple"
  },
  {
   "function_name" : "std::__1::__sfinae_ctor_base<false, true>::operator=",
   "linker_set_key" : "_ZNSt3__118__sfinae_ctor_baseILb0ELb1EEaSEOS1_",
   "parameters" :
   [
    {
     "is_this_ptr" : true,
     "referenced_type" : "_ZTIPNSt3__118__sfinae_ctor_baseILb0ELb1EEE"
    },
    {
     "referenced_type" : "_ZTIONSt3__118__sfinae_ctor_baseILb0ELb1EEE"
    }
   ],
   "return_type" : "_ZTIRNSt3__118__sfinae_ctor_baseILb0ELb1EEE",
   "source_file" : "external/libcxx/include/__tuple"
  },
  {
   "function_name" : "std::__1::__sfinae_ctor_base<false, true>::operator=",
   "linker_set_key" : "_ZNSt3__118__sfinae_ctor_baseILb0ELb1EEaSERKS1_",
   "parameters" :
   [
    {
     "is_this_ptr" : true,
     "referenced_type" : "_ZTIPNSt3__118__sfinae_ctor_baseILb0ELb1EEE"
    },
    {
     "referenced_type" : "_ZTIRKNSt3__118__sfinae_ctor_baseILb0ELb1EEE"
    }
   ],
   "return_type" : "_ZTIRNSt3__118__sfinae_ctor_baseILb0ELb1EEE",
   "source_file" : "external/libcxx/include/__tuple"
  },
  {
   "function_name" : "std::__1::__sfinae_ctor_base<true, false>::__sfinae_ctor_base",
   "linker_set_key" : "_ZNSt3__118__sfinae_ctor_baseILb1ELb0EEC1ERKS1_",
   "parameters" :
   [
    {
     "is_this_ptr" : true,
     "referenced_type" : "_ZTIPNSt3__118__sfinae_ctor_baseILb1ELb0EEE"
    },
    {
     "referenced_type" : "_ZTIRKNSt3__118__sfinae_ctor_baseILb1ELb0EEE"
    }
   ],
   "return_type" : "_ZTIv",
   "source_file" : "external/libcxx/include/__tuple"
  },
  {
   "function_name" : "std::__1::__sfinae_ctor_base<true, false>::__sfinae_ctor_base",
   "linker_set_key" : "_ZNSt3__118__sfinae_ctor_baseILb1ELb0EEC1Ev",
   "parameters" :
   [
    {
     "is_this_ptr" : true,
     "referenced_type" : "_ZTIPNSt3__118__sfinae_ctor_baseILb1ELb0EEE"
    }
   ],
   "return_type" : "_ZTIv",
   "source_file" : "external/libcxx/include/__tuple"
  },
  {
   "function_name" : "std::__1::__sfinae_ctor_base<true, false>::__sfinae_ctor_base",
   "linker_set_key" : "_ZNSt3__118__sfinae_ctor_baseILb1ELb0EEC2ERKS1_",
   "parameters" :
   [
    {
     "is_this_ptr" : true,
     "referenced_type" : "_ZTIPNSt3__118__sfinae_ctor_baseILb1ELb0EEE"
    },
    {
     "referenced_type" : "_ZTIRKNSt3__118__sfinae_ctor_baseILb1ELb0EEE"
    }
   ],
   "return_type" : "_ZTIv",
   "source_file" : "external/libcxx/include/__tuple"
  },
  {
   "function_name" : "std::__1::__sfinae_ctor_base<true, false>::__sfinae_ctor_base",
   "linker_set_key" : "_ZNSt3__118__sfinae_ctor_baseILb1ELb0EEC2Ev",
   "parameters" :
   [
    {
     "is_this_ptr" : true,
     "referenced_type" : "_ZTIPNSt3__118__sfinae_ctor_baseILb1ELb0EEE"
    }
   ],
   "return_type" : "_ZTIv",
   "source_file" : "external/libcxx/include/__tuple"
  },
  {
   "function_name" : "std::__1::__sfinae_ctor_base<true, false>::operator=",
   "linker_set_key" : "_ZNSt3__118__sfinae_ctor_baseILb1ELb0EEaSEOS1_",
   "parameters" :
   [
    {
     "is_this_ptr" : true,
     "referenced_type" : "_ZTIPNSt3__118__sfinae_ctor_baseILb1ELb0EEE"
    },
    {
     "referenced_type" : "_ZTIONSt3__118__sfinae_ctor_baseILb1ELb0EEE"
    }
   ],
   "return_type" : "_ZTIRNSt3__118__sfinae_ctor_baseILb1ELb0EEE",
   "source_file" : "external/libcxx/include/__tuple"
  },
  {
   "function_name" : "std::__1::__sfinae_ctor_base<true, false>::operator=",
   "linker_set_key" : "_ZNSt3__118__sfinae_ctor_baseILb1ELb0EEaSERKS1_",
   "parameters" :
   [
    {
     "is_this_ptr" : true,
     "referenced_type" : "_ZTIPNSt3__118__sfinae_ctor_baseILb1ELb0EEE"
    },
    {
     "referenced_type" : "_ZTIRKNSt3__118__sfinae_ctor_baseILb1ELb0EEE"
    }
   ],
   "return_type" : "_ZTIRNSt3__118__sfinae_ctor_baseILb1ELb0EEE",
   "source_file" : "external/libcxx/include/__tuple"
  },
  {
   "function_name" : "std::__1::get_pointer_safety",
   "linker_set_key" : "_ZNSt3__118get_pointer_safetyEv",
   "return_type" : "_ZTINSt3__114pointer_safetyE",
   "source_file" : "external/libcxx/include/memory"
  },
  {
   "function_name" : "std::__1::__libcpp_deallocate",
   "linker_set_key" : "_ZNSt3__119__libcpp_deallocateEPvmm",
   "parameters" :
   [
    {
     "referenced_type" : "_ZTIPv"
    },
    {
     "referenced_type" : "_ZTIm"
    },
    {
     "referenced_type" : "_ZTIm"
    }
   ],
   "return_type" : "_ZTIv",
   "source_file" : "external/libcxx/include/new"
  },
  {
   "function_name" : "std::__1::__libcpp_debug_info::__libcpp_debug_info",
   "linker_set_key" : "_ZNSt3__119__libcpp_debug_infoC1EPKciS2_S2_",
   "parameters" :
   [
    {
     "is_this_ptr" : true,
     "referenced_type" : "_ZTIPNSt3__119__libcpp_debug_infoE"
    },
    {
     "referenced_type" : "_ZTIPKc"
    },
    {
     "referenced_type" : "_ZTIi"
    },
    {
     "referenced_type" : "_ZTIPKc"
    },
    {
     "referenced_type" : "_ZTIPKc"
    }
   ],
   "return_type" : "_ZTIv",
   "source_file" : "external/libcxx/include/__debug"
  },
  {
   "function_name" : "std::__1::__libcpp_debug_info::__libcpp_debug_info",
   "linker_set_key" : "_ZNSt3__119__libcpp_debug_infoC1Ev",
   "parameters" :
   [
    {
     "is_this_ptr" : true,
     "referenced_type" : "_ZTIPNSt3__119__libcpp_debug_infoE"
    }
   ],
   "return_type" : "_ZTIv",
   "source_file" : "external/libcxx/include/__debug"
  },
  {
   "function_name" : "std::__1::__libcpp_debug_info::__libcpp_debug_info",
   "linker_set_key" : "_ZNSt3__119__libcpp_debug_infoC2EPKciS2_S2_",
   "parameters" :
   [
    {
     "is_this_ptr" : true,
     "referenced_type" : "_ZTIPNSt3__119__libcpp_debug_infoE"
    },
    {
     "referenced_type" : "_ZTIPKc"
    },
    {
     "referenced_type" : "_ZTIi"
    },
    {
     "referenced_type" : "_ZTIPKc"
    },
    {
     "referenced_type" : "_ZTIPKc"
    }
   ],
   "return_type" : "_ZTIv",
   "source_file" : "external/libcxx/include/__debug"
  },
  {
   "function_name" : "std::__1::__libcpp_debug_info::__libcpp_debug_info",
   "linker_set_key" : "_ZNSt3__119__libcpp_debug_infoC2Ev",
   "parameters" :
   [
    {
     "is_this_ptr" : true,
     "referenced_type" : "_ZTIPNSt3__119__libcpp_debug_infoE"
    }
   ],
   "return_type" : "_ZTIv",
   "source_file" : "external/libcxx/include/__debug"
  },
  {
   "function_name" : "std::__1::__shared_weak_count::__add_weak",
   "linker_set_key" : "_ZNSt3__119__shared_weak_count10__add_weakEv",
   "parameters" :
   [
    {
     "is_this_ptr" : true,
     "referenced_type" : "_ZTIPNSt3__119__shared_weak_countE"
    }
   ],
   "return_type" : "_ZTIv",
   "source_file" : "external/libcxx/include/memory"
  },
  {
   "function_name" : "std::__1::__shared_weak_count::__add_shared",
   "linker_set_key" : "_ZNSt3__119__shared_weak_count12__add_sharedEv",
   "parameters" :
   [
    {
     "is_this_ptr" : true,
     "referenced_type" : "_ZTIPNSt3__119__shared_weak_countE"
    }
   ],
   "return_type" : "_ZTIv",
   "source_file" : "external/libcxx/include/memory"
  },
  {
   "function_name" : "std::__1::__shared_weak_count::__release_shared",
   "linker_set_key" : "_ZNSt3__119__shared_weak_count16__release_sharedEv",
   "parameters" :
   [
    {
     "is_this_ptr" : true,
     "referenced_type" : "_ZTIPNSt3__119__shared_weak_countE"
    }
   ],
   "return_type" : "_ZTIv",
   "source_file" : "external/libcxx/include/memory"
  },
  {
   "function_name" : "std::__1::__shared_weak_count::__shared_weak_count",
   "linker_set_key" : "_ZNSt3__119__shared_weak_countC2El",
   "parameters" :
   [
    {
     "is_this_ptr" : true,
     "referenced_type" : "_ZTIPNSt3__119__shared_weak_countE"
    },
    {
     "default_arg" : true,
     "referenced_type" : "_ZTIl"
    }
   ],
   "return_type" : "_ZTIv",
   "source_file" : "external/libcxx/include/memory"
  },
  {
   "function_name" : "std::__1::__throw_logic_error",
   "linker_set_key" : "_ZNSt3__119__throw_logic_errorEPKc",
   "parameters" :
   [
    {
     "referenced_type" : "_ZTIPKc"
    }
   ],
   "return_type" : "_ZTIv",
   "source_file" : "external/libcxx/include/stdexcept"
  },
  {
   "function_name" : "std::__1::__throw_range_error",
   "linker_set_key" : "_ZNSt3__119__throw_range_errorEPKc",
   "parameters" :
   [
    {
     "referenced_type" : "_ZTIPKc"
    }
   ],
   "return_type" : "_ZTIv",
   "source_file" : "external/libcxx/include/stdexcept"
  },
  {
   "function_name" : "std::__1::atomic_signal_fence",
   "linker_set_key" : "_ZNSt3__119atomic_signal_fenceENS_12memory_orderE",
   "parameters" :
   [
    {
     "referenced_type" : "_ZTINSt3__112memory_orderE"
    }
   ],
   "return_type" : "_ZTIv",
   "source_file" : "external/libcxx/include/atomic"
  },
  {
   "function_name" : "std::__1::atomic_thread_fence",
   "linker_set_key" : "_ZNSt3__119atomic_thread_fenceENS_12memory_orderE",
   "parameters" :
   [
    {
     "referenced_type" : "_ZTINSt3__112memory_orderE"
    }
   ],
   "return_type" : "_ZTIv",
   "source_file" : "external/libcxx/include/atomic"
  },
  {
   "function_name" : "std::__1::__optional_copy_base<std::__1::basic_string<char>, false>::__optional_copy_base",
   "linker_set_key" : "_ZNSt3__120__optional_copy_baseINS_12basic_stringIcNS_11char_traitsIcEENS_9allocatorIcEEEELb0EEC1Ev",
   "parameters" :
   [
    {
     "is_this_ptr" : true,
     "referenced_type" : "_ZTIPNSt3__120__optional_copy_baseINS_12basic_stringIcNS_11char_traitsIcEENS_9allocatorIcEEEELb0EEE"
    }
   ],
   "return_type" : "_ZTIv",
   "source_file" : "external/libcxx/include/optional"
  },
  {
   "function_name" : "std::__1::__optional_copy_base<std::__1::basic_string<char>, false>::__optional_copy_base",
   "linker_set_key" : "_ZNSt3__120__optional_copy_baseINS_12basic_stringIcNS_11char_traitsIcEENS_9allocatorIcEEEELb0EEC2Ev",
   "parameters" :
   [
    {
     "is_this_ptr" : true,
     "referenced_type" : "_ZTIPNSt3__120__optional_copy_baseINS_12basic_stringIcNS_11char_traitsIcEENS_9allocatorIcEEEELb0EEE"
    }
   ],
   "return_type" : "_ZTIv",
   "source_file" : "external/libcxx/include/optional"
  },
  {
   "function_name" : "std::__1::__optional_move_base<std::__1::basic_string<char>, false>::__optional_move_base",
   "linker_set_key" : "_ZNSt3__120__optional_move_baseINS_12basic_stringIcNS_11char_traitsIcEENS_9allocatorIcEEEELb0EEC1EOS7_",
   "parameters" :
   [
    {
     "is_this_ptr" : true,
     "referenced_type" : "_ZTIPNSt3__120__optional_move_baseINS_12basic_stringIcNS_11char_traitsIcEENS_9allocatorIcEEEELb0EEE"
    },
    {
     "referenced_type" : "_ZTIONSt3__120__optional_move_baseINS_12basic_stringIcNS_11char_traitsIcEENS_9allocatorIcEEEELb0EEE"
    }
   ],
   "return_type" : "_ZTIv",
   "source_file" : "external/libcxx/include/optional"
  },
  {
   "function_name" : "std::__1::__optional_move_base<std::__1::basic_string<char>, false>::__optional_move_base",
   "linker_set_key" : "_ZNSt3__120__optional_move_baseINS_12basic_stringIcNS_11char_traitsIcEENS_9allocatorIcEEEELb0EEC1ERKS7_",
   "parameters" :
   [
    {
     "is_this_ptr" : true,
     "referenced_type" : "_ZTIPNSt3__120__optional_move_baseINS_12basic_stringIcNS_11char_traitsIcEENS_9allocatorIcEEEELb0EEE"
    },
    {
     "referenced_type" : "_ZTIRKNSt3__120__optional_move_baseINS_12basic_stringIcNS_11char_traitsIcEENS_9allocatorIcEEEELb0EEE"
    }
   ],
   "return_type" : "_ZTIv",
   "source_file" : "external/libcxx/include/optional"
  },
  {
   "function_name" : "std::__1::__optional_move_base<std::__1::basic_string<char>, false>::__optional_move_base",
   "linker_set_key" : "_ZNSt3__120__optional_move_baseINS_12basic_stringIcNS_11char_traitsIcEENS_9allocatorIcEEEELb0EEC1Ev",
   "parameters" :
   [
    {
     "is_this_ptr" : true,
     "referenced_type" : "_ZTIPNSt3__120__optional_move_baseINS_12basic_stringIcNS_11char_traitsIcEENS_9allocatorIcEEEELb0EEE"
    }
   ],
   "return_type" : "_ZTIv",
   "source_file" : "external/libcxx/include/optional"
  },
  {
   "function_name" : "std::__1::__optional_move_base<std::__1::basic_string<char>, false>::__optional_move_base",
   "linker_set_key" : "_ZNSt3__120__optional_move_baseINS_12basic_stringIcNS_11char_traitsIcEENS_9allocatorIcEEEELb0EEC2EOS7_",
   "parameters" :
   [
    {
     "is_this_ptr" : true,
     "referenced_type" : "_ZTIPNSt3__120__optional_move_baseINS_12basic_stringIcNS_11char_traitsIcEENS_9allocatorIcEEEELb0EEE"
    },
    {
     "referenced_type" : "_ZTIONSt3__120__optional_move_baseINS_12basic_stringIcNS_11char_traitsIcEENS_9allocatorIcEEEELb0EEE"
    }
   ],
   "return_type" : "_ZTIv",
   "source_file" : "external/libcxx/include/optional"
  },
  {
   "function_name" : "std::__1::__optional_move_base<std::__1::basic_string<char>, false>::__optional_move_base",
   "linker_set_key" : "_ZNSt3__120__optional_move_baseINS_12basic_stringIcNS_11char_traitsIcEENS_9allocatorIcEEEELb0EEC2ERKS7_",
   "parameters" :
   [
    {
     "is_this_ptr" : true,
     "referenced_type" : "_ZTIPNSt3__120__optional_move_baseINS_12basic_stringIcNS_11char_traitsIcEENS_9allocatorIcEEEELb0EEE"
    },
    {
     "referenced_type" : "_ZTIRKNSt3__120__optional_move_baseINS_12basic_stringIcNS_11char_traitsIcEENS_9allocatorIcEEEELb0EEE"
    }
   ],
   "return_type" : "_ZTIv",
   "source_file" : "external/libcxx/include/optional"
  },
  {
   "function_name" : "std::__1::__optional_move_base<std::__1::basic_string<char>, false>::__optional_move_base",
   "linker_set_key" : "_ZNSt3__120__optional_move_baseINS_12basic_stringIcNS_11char_traitsIcEENS_9allocatorIcEEEELb0EEC2Ev",
   "parameters" :
   [
    {
     "is_this_ptr" : true,
     "referenced_type" : "_ZTIPNSt3__120__optional_move_baseINS_12basic_stringIcNS_11char_traitsIcEENS_9allocatorIcEEEELb0EEE"
    }
   ],
   "return_type" : "_ZTIv",
   "source_file" : "external/libcxx/include/optional"
  },
  {
   "function_name" : "std::__1::__sfinae_assign_base<false, false>::__sfinae_assign_base",
   "linker_set_key" : "_ZNSt3__120__sfinae_assign_baseILb0ELb0EEC1EOS1_",
   "parameters" :
   [
    {
     "is_this_ptr" : true,
     "referenced_type" : "_ZTIPNSt3__120__sfinae_assign_baseILb0ELb0EEE"
    },
    {
     "referenced_type" : "_ZTIONSt3__120__sfinae_assign_baseILb0ELb0EEE"
    }
   ],
   "return_type" : "_ZTIv",
   "source_file" : "external/libcxx/include/__tuple"
  },
  {
   "function_name" : "std::__1::__sfinae_assign_base<false, false>::__sfinae_assign_base",
   "linker_set_key" : "_ZNSt3__120__sfinae_assign_baseILb0ELb0EEC1ERKS1_",
   "parameters" :
   [
    {
     "is_this_ptr" : true,
     "referenced_type" : "_ZTIPNSt3__120__sfinae_assign_baseILb0ELb0EEE"
    },
    {
     "referenced_type" : "_ZTIRKNSt3__120__sfinae_assign_baseILb0ELb0EEE"
    }
   ],
   "return_type" : "_ZTIv",
   "source_file" : "external/libcxx/include/__tuple"
  },
  {
   "function_name" : "std::__1::__sfinae_assign_base<false, false>::__sfinae_assign_base",
   "linker_set_key" : "_ZNSt3__120__sfinae_assign_baseILb0ELb0EEC1Ev",
   "parameters" :
   [
    {
     "is_this_ptr" : true,
     "referenced_type" : "_ZTIPNSt3__120__sfinae_assign_baseILb0ELb0EEE"
    }
   ],
   "return_type" : "_ZTIv",
   "source_file" : "external/libcxx/include/__tuple"
  },
  {
   "function_name" : "std::__1::__sfinae_assign_base<false, false>::__sfinae_assign_base",
   "linker_set_key" : "_ZNSt3__120__sfinae_assign_baseILb0ELb0EEC2EOS1_",
   "parameters" :
   [
    {
     "is_this_ptr" : true,
     "referenced_type" : "_ZTIPNSt3__120__sfinae_assign_baseILb0ELb0EEE"
    },
    {
     "referenced_type" : "_ZTIONSt3__120__sfinae_assign_baseILb0ELb0EEE"
    }
   ],
   "return_type" : "_ZTIv",
   "source_file" : "external/libcxx/include/__tuple"
  },
  {
   "function_name" : "std::__1::__sfinae_assign_base<false, false>::__sfinae_assign_base",
   "linker_set_key" : "_ZNSt3__120__sfinae_assign_baseILb0ELb0EEC2ERKS1_",
   "parameters" :
   [
    {
     "is_this_ptr" : true,
     "referenced_type" : "_ZTIPNSt3__120__sfinae_assign_baseILb0ELb0EEE"
    },
    {
     "referenced_type" : "_ZTIRKNSt3__120__sfinae_assign_baseILb0ELb0EEE"
    }
   ],
   "return_type" : "_ZTIv",
   "source_file" : "external/libcxx/include/__tuple"
  },
  {
   "function_name" : "std::__1::__sfinae_assign_base<false, false>::__sfinae_assign_base",
   "linker_set_key" : "_ZNSt3__120__sfinae_assign_baseILb0ELb0EEC2Ev",
   "parameters" :
   [
    {
     "is_this_ptr" : true,
     "referenced_type" : "_ZTIPNSt3__120__sfinae_assign_baseILb0ELb0EEE"
    }
   ],
   "return_type" : "_ZTIv",
   "source_file" : "external/libcxx/include/__tuple"
  },
  {
   "function_name" : "std::__1::__sfinae_assign_base<false, true>::__sfinae_assign_base",
   "linker_set_key" : "_ZNSt3__120__sfinae_assign_baseILb0ELb1EEC1EOS1_",
   "parameters" :
   [
    {
     "is_this_ptr" : true,
     "referenced_type" : "_ZTIPNSt3__120__sfinae_assign_baseILb0ELb1EEE"
    },
    {
     "referenced_type" : "_ZTIONSt3__120__sfinae_assign_baseILb0ELb1EEE"
    }
   ],
   "return_type" : "_ZTIv",
   "source_file" : "external/libcxx/include/__tuple"
  },
  {
   "function_name" : "std::__1::__sfinae_assign_base<false, true>::__sfinae_assign_base",
   "linker_set_key" : "_ZNSt3__120__sfinae_assign_baseILb0ELb1EEC1ERKS1_",
   "parameters" :
   [
    {
     "is_this_ptr" : true,
     "referenced_type" : "_ZTIPNSt3__120__sfinae_assign_baseILb0ELb1EEE"
    },
    {
     "referenced_type" : "_ZTIRKNSt3__120__sfinae_assign_baseILb0ELb1EEE"
    }
   ],
   "return_type" : "_ZTIv",
   "source_file" : "external/libcxx/include/__tuple"
  },
  {
   "function_name" : "std::__1::__sfinae_assign_base<false, true>::__sfinae_assign_base",
   "linker_set_key" : "_ZNSt3__120__sfinae_assign_baseILb0ELb1EEC1Ev",
   "parameters" :
   [
    {
     "is_this_ptr" : true,
     "referenced_type" : "_ZTIPNSt3__120__sfinae_assign_baseILb0ELb1EEE"
    }
   ],
   "return_type" : "_ZTIv",
   "source_file" : "external/libcxx/include/__tuple"
  },
  {
   "function_name" : "std::__1::__sfinae_assign_base<false, true>::__sfinae_assign_base",
   "linker_set_key" : "_ZNSt3__120__sfinae_assign_baseILb0ELb1EEC2EOS1_",
   "parameters" :
   [
    {
     "is_this_ptr" : true,
     "referenced_type" : "_ZTIPNSt3__120__sfinae_assign_baseILb0ELb1EEE"
    },
    {
     "referenced_type" : "_ZTIONSt3__120__sfinae_assign_baseILb0ELb1EEE"
    }
   ],
   "return_type" : "_ZTIv",
   "source_file" : "external/libcxx/include/__tuple"
  },
  {
   "function_name" : "std::__1::__sfinae_assign_base<false, true>::__sfinae_assign_base",
   "linker_set_key" : "_ZNSt3__120__sfinae_assign_baseILb0ELb1EEC2ERKS1_",
   "parameters" :
   [
    {
     "is_this_ptr" : true,
     "referenced_type" : "_ZTIPNSt3__120__sfinae_assign_baseILb0ELb1EEE"
    },
    {
     "referenced_type" : "_ZTIRKNSt3__120__sfinae_assign_baseILb0ELb1EEE"
    }
   ],
   "return_type" : "_ZTIv",
   "source_file" : "external/libcxx/include/__tuple"
  },
  {
   "function_name" : "std::__1::__sfinae_assign_base<false, true>::__sfinae_assign_base",
   "linker_set_key" : "_ZNSt3__120__sfinae_assign_baseILb0ELb1EEC2Ev",
   "parameters" :
   [
    {
     "is_this_ptr" : true,
     "referenced_type" : "_ZTIPNSt3__120__sfinae_assign_baseILb0ELb1EEE"
    }
   ],
   "return_type" : "_ZTIv",
   "source_file" : "external/libcxx/include/__tuple"
  },
  {
   "function_name" : "std::__1::__sfinae_assign_base<false, true>::operator=",
   "linker_set_key" : "_ZNSt3__120__sfinae_assign_baseILb0ELb1EEaSEOS1_",
   "parameters" :
   [
    {
     "is_this_ptr" : true,
     "referenced_type" : "_ZTIPNSt3__120__sfinae_assign_baseILb0ELb1EEE"
    },
    {
     "referenced_type" : "_ZTIONSt3__120__sfinae_assign_baseILb0ELb1EEE"
    }
   ],
   "return_type" : "_ZTIRNSt3__120__sfinae_assign_baseILb0ELb1EEE",
   "source_file" : "external/libcxx/include/__tuple"
  },
  {
   "function_name" : "std::__1::__sfinae_assign_base<true, false>::__sfinae_assign_base",
   "linker_set_key" : "_ZNSt3__120__sfinae_assign_baseILb1ELb0EEC1EOS1_",
   "parameters" :
   [
    {
     "is_this_ptr" : true,
     "referenced_type" : "_ZTIPNSt3__120__sfinae_assign_baseILb1ELb0EEE"
    },
    {
     "referenced_type" : "_ZTIONSt3__120__sfinae_assign_baseILb1ELb0EEE"
    }
   ],
   "return_type" : "_ZTIv",
   "source_file" : "external/libcxx/include/__tuple"
  },
  {
   "function_name" : "std::__1::__sfinae_assign_base<true, false>::__sfinae_assign_base",
   "linker_set_key" : "_ZNSt3__120__sfinae_assign_baseILb1ELb0EEC1ERKS1_",
   "parameters" :
   [
    {
     "is_this_ptr" : true,
     "referenced_type" : "_ZTIPNSt3__120__sfinae_assign_baseILb1ELb0EEE"
    },
    {
     "referenced_type" : "_ZTIRKNSt3__120__sfinae_assign_baseILb1ELb0EEE"
    }
   ],
   "return_type" : "_ZTIv",
   "source_file" : "external/libcxx/include/__tuple"
  },
  {
   "function_name" : "std::__1::__sfinae_assign_base<true, false>::__sfinae_assign_base",
   "linker_set_key" : "_ZNSt3__120__sfinae_assign_baseILb1ELb0EEC1Ev",
   "parameters" :
   [
    {
     "is_this_ptr" : true,
     "referenced_type" : "_ZTIPNSt3__120__sfinae_assign_baseILb1ELb0EEE"
    }
   ],
   "return_type" : "_ZTIv",
   "source_file" : "external/libcxx/include/__tuple"
  },
  {
   "function_name" : "std::__1::__sfinae_assign_base<true, false>::__sfinae_assign_base",
   "linker_set_key" : "_ZNSt3__120__sfinae_assign_baseILb1ELb0EEC2EOS1_",
   "parameters" :
   [
    {
     "is_this_ptr" : true,
     "referenced_type" : "_ZTIPNSt3__120__sfinae_assign_baseILb1ELb0EEE"
    },
    {
     "referenced_type" : "_ZTIONSt3__120__sfinae_assign_baseILb1ELb0EEE"
    }
   ],
   "return_type" : "_ZTIv",
   "source_file" : "external/libcxx/include/__tuple"
  },
  {
   "function_name" : "std::__1::__sfinae_assign_base<true, false>::__sfinae_assign_base",
   "linker_set_key" : "_ZNSt3__120__sfinae_assign_baseILb1ELb0EEC2ERKS1_",
   "parameters" :
   [
    {
     "is_this_ptr" : true,
     "referenced_type" : "_ZTIPNSt3__120__sfinae_assign_baseILb1ELb0EEE"
    },
    {
     "referenced_type" : "_ZTIRKNSt3__120__sfinae_assign_baseILb1ELb0EEE"
    }
   ],
   "return_type" : "_ZTIv",
   "source_file" : "external/libcxx/include/__tuple"
  },
  {
   "function_name" : "std::__1::__sfinae_assign_base<true, false>::__sfinae_assign_base",
   "linker_set_key" : "_ZNSt3__120__sfinae_assign_baseILb1ELb0EEC2Ev",
   "parameters" :
   [
    {
     "is_this_ptr" : true,
     "referenced_type" : "_ZTIPNSt3__120__sfinae_assign_baseILb1ELb0EEE"
    }
   ],
   "return_type" : "_ZTIv",
   "source_file" : "external/libcxx/include/__tuple"
  },
  {
   "function_name" : "std::__1::__sfinae_assign_base<true, false>::operator=",
   "linker_set_key" : "_ZNSt3__120__sfinae_assign_baseILb1ELb0EEaSERKS1_",
   "parameters" :
   [
    {
     "is_this_ptr" : true,
     "referenced_type" : "_ZTIPNSt3__120__sfinae_assign_baseILb1ELb0EEE"
    },
    {
     "referenced_type" : "_ZTIRKNSt3__120__sfinae_assign_baseILb1ELb0EEE"
    }
   ],
   "return_type" : "_ZTIRNSt3__120__sfinae_assign_baseILb1ELb0EEE",
   "source_file" : "external/libcxx/include/__tuple"
  },
  {
   "function_name" : "std::__1::__throw_bad_weak_ptr",
   "linker_set_key" : "_ZNSt3__120__throw_bad_weak_ptrEv",
   "return_type" : "_ZTIv",
   "source_file" : "external/libcxx/include/memory"
  },
  {
   "function_name" : "std::__1::__throw_domain_error",
   "linker_set_key" : "_ZNSt3__120__throw_domain_errorEPKc",
   "parameters" :
   [
    {
     "referenced_type" : "_ZTIPKc"
    }
   ],
   "return_type" : "_ZTIv",
   "source_file" : "external/libcxx/include/stdexcept"
  },
  {
   "function_name" : "std::__1::__throw_length_error",
   "linker_set_key" : "_ZNSt3__120__throw_length_errorEPKc",
   "parameters" :
   [
    {
     "referenced_type" : "_ZTIPKc"
    }
   ],
   "return_type" : "_ZTIv",
   "source_file" : "external/libcxx/include/stdexcept"
  },
  {
   "function_name" : "std::__1::__throw_out_of_range",
   "linker_set_key" : "_ZNSt3__120__throw_out_of_rangeEPKc",
   "parameters" :
   [
    {
     "referenced_type" : "_ZTIPKc"
    }
   ],
   "return_type" : "_ZTIv",
   "source_file" : "external/libcxx/include/stdexcept"
  },
  {
   "access" : "protected",
   "function_name" : "std::__1::__vector_base_common<true>::__vector_base_common",
   "linker_set_key" : "_ZNSt3__120__vector_base_commonILb1EEC1Ev",
   "parameters" :
   [
    {
     "is_this_ptr" : true,
     "referenced_type" : "_ZTIPNSt3__120__vector_base_commonILb1EEE"
    }
   ],
   "return_type" : "_ZTIv",
   "source_file" : "external/libcxx/include/vector"
  },
  {
   "access" : "protected",
   "function_name" : "std::__1::__vector_base_common<true>::__vector_base_common",
   "linker_set_key" : "_ZNSt3__120__vector_base_commonILb1EEC2Ev",
   "parameters" :
   [
    {
     "is_this_ptr" : true,
     "referenced_type" : "_ZTIPNSt3__120__vector_base_commonILb1EEE"
    }
   ],
   "return_type" : "_ZTIv",
   "source_file" : "external/libcxx/include/vector"
  },
  {
   "function_name" : "std::__1::__convert_to_integral",
   "linker_set_key" : "_ZNSt3__121__convert_to_integralEi",
   "parameters" :
   [
    {
     "referenced_type" : "_ZTIi"
    }
   ],
   "return_type" : "_ZTIi",
   "source_file" : "external/libcxx/include/type_traits"
  },
  {
   "function_name" : "std::__1::__convert_to_integral",
   "linker_set_key" : "_ZNSt3__121__convert_to_integralEj",
   "parameters" :
   [
    {
     "referenced_type" : "_ZTIj"
    }
   ],
   "return_type" : "_ZTIj",
   "source_file" : "external/libcxx/include/type_traits"
  },
  {
   "function_name" : "std::__1::__convert_to_integral",
   "linker_set_key" : "_ZNSt3__121__convert_to_integralEl",
   "parameters" :
   [
    {
     "referenced_type" : "_ZTIl"
    }
   ],
   "return_type" : "_ZTIl",
   "source_file" : "external/libcxx/include/type_traits"
  },
  {
   "function_name" : "std::__1::__convert_to_integral",
   "linker_set_key" : "_ZNSt3__121__convert_to_integralEm",
   "parameters" :
   [
    {
     "referenced_type" : "_ZTIm"
    }
   ],
   "return_type" : "_ZTIm",
   "source_file" : "external/libcxx/include/type_traits"
  },
  {
   "function_name" : "std::__1::__convert_to_integral",
   "linker_set_key" : "_ZNSt3__121__convert_to_integralEn",
   "parameters" :
   [
    {
     "referenced_type" : "_ZTIn"
    }
   ],
   "return_type" : "_ZTIn",
   "source_file" : "external/libcxx/include/type_traits"
  },
  {
   "function_name" : "std::__1::__convert_to_integral",
   "linker_set_key" : "_ZNSt3__121__convert_to_integralEo",
   "parameters" :
   [
    {
     "referenced_type" : "_ZTIo"
    }
   ],
   "return_type" : "_ZTIo",
   "source_file" : "external/libcxx/include/type_traits"
  },
  {
   "function_name" : "std::__1::__convert_to_integral",
   "linker_set_key" : "_ZNSt3__121__convert_to_integralEx",
   "parameters" :
   [
    {
     "referenced_type" : "_ZTIx"
    }
   ],
   "return_type" : "_ZTIx",
   "source_file" : "external/libcxx/include/type_traits"
  },
  {
   "function_name" : "std::__1::__convert_to_integral",
   "linker_set_key" : "_ZNSt3__121__convert_to_integralEy",
   "parameters" :
   [
    {
     "referenced_type" : "_ZTIy"
    }
   ],
   "return_type" : "_ZTIy",
   "source_file" : "external/libcxx/include/type_traits"
  },
  {
   "function_name" : "std::__1::__libcpp_relaxed_load",
   "linker_set_key" : "_ZNSt3__121__libcpp_relaxed_loadIlEET_PKS1_",
   "parameters" :
   [
    {
     "referenced_type" : "_ZTIPKl"
    }
   ],
   "return_type" : "_ZTIl",
   "source_file" : "external/libcxx/include/memory",
   "template_args" : [ "_ZTIl" ]
  },
  {
   "access" : "private",
   "function_name" : "std::__1::__murmur2_or_cityhash<unsigned long, 64>::__shift_mix",
   "linker_set_key" : "_ZNSt3__121__murmur2_or_cityhashImLm64EE11__shift_mixEm",
   "parameters" :
   [
    {
     "referenced_type" : "_ZTIm"
    }
   ],
   "return_type" : "_ZTIm",
   "source_file" : "external/libcxx/include/utility"
  },
  {
   "access" : "private",
   "function_name" : "std::__1::__murmur2_or_cityhash<unsigned long, 64>::__hash_len_16",
   "linker_set_key" : "_ZNSt3__121__murmur2_or_cityhashImLm64EE13__hash_len_16Emm",
   "parameters" :
   [
    {
     "referenced_type" : "_ZTIm"
    },
    {
     "referenced_type" : "_ZTIm"
    }
   ],
   "return_type" : "_ZTIm",
   "source_file" : "external/libcxx/include/utility"
  },
  {
   "access" : "private",
   "function_name" : "std::__1::__murmur2_or_cityhash<unsigned long, 64>::__hash_len_0_to_16",
   "linker_set_key" : "_ZNSt3__121__murmur2_or_cityhashImLm64EE18__hash_len_0_to_16EPKcm",
   "parameters" :
   [
    {
     "referenced_type" : "_ZTIPKc"
    },
    {
     "referenced_type" : "_ZTIm"
    }
   ],
   "return_type" : "_ZTIm",
   "source_file" : "external/libcxx/include/utility"
  },
  {
   "access" : "private",
   "function_name" : "std::__1::__murmur2_or_cityhash<unsigned long, 64>::__hash_len_17_to_32",
   "linker_set_key" : "_ZNSt3__121__murmur2_or_cityhashImLm64EE19__hash_len_17_to_32EPKcm",
   "parameters" :
   [
    {
     "referenced_type" : "_ZTIPKc"
    },
    {
     "referenced_type" : "_ZTIm"
    }
   ],
   "return_type" : "_ZTIm",
   "source_file" : "external/libcxx/include/utility"
  },
  {
   "access" : "private",
   "function_name" : "std::__1::__murmur2_or_cityhash<unsigned long, 64>::__hash_len_33_to_64",
   "linker_set_key" : "_ZNSt3__121__murmur2_or_cityhashImLm64EE19__hash_len_33_to_64EPKcm",
   "parameters" :
   [
    {
     "referenced_type" : "_ZTIPKc"
    },
    {
     "referenced_type" : "_ZTIm"
    }
   ],
   "return_type" : "_ZTIm",
   "source_file" : "external/libcxx/include/utility"
  },
  {
   "access" : "private",
   "function_name" : "std::__1::__murmur2_or_cityhash<unsigned long, 64>::__rotate_by_at_least_1",
   "linker_set_key" : "_ZNSt3__121__murmur2_or_cityhashImLm64EE22__rotate_by_at_least_1Emi",
   "parameters" :
   [
    {
     "referenced_type" : "_ZTIm"
    },
    {
     "referenced_type" : "_ZTIi"
    }
   ],
   "return_type" : "_ZTIm",
   "source_file" : "external/libcxx/include/utility"
  },
  {
   "access" : "private",
   "function_name" : "std::__1::__murmur2_or_cityhash<unsigned long, 64>::__weak_hash_len_32_with_seeds",
   "linker_set_key" : "_ZNSt3__121__murmur2_or_cityhashImLm64EE29__weak_hash_len_32_with_seedsEPKcmm",
   "parameters" :
   [
    {
     "referenced_type" : "_ZTIPKc"
    },
    {
     "referenced_type" : "_ZTIm"
    },
    {
     "referenced_type" : "_ZTIm"
    }
   ],
   "return_type" : "_ZTINSt3__14pairImmEE",
   "source_file" : "external/libcxx/include/utility"
  },
  {
   "access" : "private",
   "function_name" : "std::__1::__murmur2_or_cityhash<unsigned long, 64>::__weak_hash_len_32_with_seeds",
   "linker_set_key" : "_ZNSt3__121__murmur2_or_cityhashImLm64EE29__weak_hash_len_32_with_seedsEmmmmmm",
   "parameters" :
   [
    {
     "referenced_type" : "_ZTIm"
    },
    {
     "referenced_type" : "_ZTIm"
    },
    {
     "referenced_type" : "_ZTIm"
    },
    {
     "referenced_type" : "_ZTIm"
    },
    {
     "referenced_type" : "_ZTIm"
    },
    {
     "referenced_type" : "_ZTIm"
    }
   ],
   "return_type" : "_ZTINSt3__14pairImmEE",
   "source_file" : "external/libcxx/include/utility"
  },
  {
   "access" : "private",
   "function_name" : "std::__1::__murmur2_or_cityhash<unsigned long, 64>::__rotate",
   "linker_set_key" : "_ZNSt3__121__murmur2_or_cityhashImLm64EE8__rotateEmi",
   "parameters" :
   [
    {
     "referenced_type" : "_ZTIm"
    },
    {
     "referenced_type" : "_ZTIi"
    }
   ],
   "return_type" : "_ZTIm",
   "source_file" : "external/libcxx/include/utility"
  },
  {
   "function_name" : "std::__1::__murmur2_or_cityhash<unsigned long, 64>::operator()",
   "linker_set_key" : "_ZNSt3__121__murmur2_or_cityhashImLm64EEclEPKvm",
   "parameters" :
   [
    {
     "is_this_ptr" : true,
     "referenced_type" : "_ZTIPNSt3__121__murmur2_or_cityhashImLm64EEE"
    },
    {
     "referenced_type" : "_ZTIPKv"
    },
    {
     "referenced_type" : "_ZTIm"
    }
   ],
   "return_type" : "_ZTIm",
   "source_file" : "external/libcxx/include/utility"
  },
  {
   "function_name" : "std::__1::__compressed_pair_elem<std::__1::basic_string<char32_t, std::__1::char_traits<char32_t>, std::__1::allocator<char32_t>>::__rep, 0, false>::__get",
   "linker_set_key" : "_ZNSt3__122__compressed_pair_elemINS_12basic_stringIDiNS_11char_traitsIDiEENS_9allocatorIDiEEE5__repELi0ELb0EE5__getEv",
   "parameters" :
   [
    {
     "is_this_ptr" : true,
     "referenced_type" : "_ZTIPNSt3__122__compressed_pair_elemINS_12basic_stringIDiNS_11char_traitsIDiEENS_9allocatorIDiEEE5__repELi0ELb0EEE"
    }
   ],
   "return_type" : "_ZTIRNSt3__112basic_stringIDiNS_11char_traitsIDiEENS_9allocatorIDiEEE5__repE",
   "source_file" : "external/libcxx/include/memory"
  },
  {
   "function_name" : "std::__1::__compressed_pair_elem<std::__1::basic_string<char32_t, std::__1::char_traits<char32_t>, std::__1::allocator<char32_t>>::__rep, 0, false>::__compressed_pair_elem",
   "linker_set_key" : "_ZNSt3__122__compressed_pair_elemINS_12basic_stringIDiNS_11char_traitsIDiEENS_9allocatorIDiEEE5__repELi0ELb0EEC1Ev",
   "parameters" :
   [
    {
     "is_this_ptr" : true,
     "referenced_type" : "_ZTIPNSt3__122__compressed_pair_elemINS_12basic_stringIDiNS_11char_traitsIDiEENS_9allocatorIDiEEE5__repELi0ELb0EEE"
    }
   ],
   "return_type" : "_ZTIv",
   "source_file" : "external/libcxx/include/memory"
  },
  {
   "function_name" : "std::__1::__compressed_pair_elem<std::__1::basic_string<char32_t, std::__1::char_traits<char32_t>, std::__1::allocator<char32_t>>::__rep, 0, false>::__compressed_pair_elem",
   "linker_set_key" : "_ZNSt3__122__compressed_pair_elemINS_12basic_stringIDiNS_11char_traitsIDiEENS_9allocatorIDiEEE5__repELi0ELb0EEC2Ev",
   "parameters" :
   [
    {
     "is_this_ptr" : true,
     "referenced_type" : "_ZTIPNSt3__122__compressed_pair_elemINS_12basic_stringIDiNS_11char_traitsIDiEENS_9allocatorIDiEEE5__repELi0ELb0EEE"
    }
   ],
   "return_type" : "_ZTIv",
   "source_file" : "external/libcxx/include/memory"
  },
  {
   "function_name" : "std::__1::__compressed_pair_elem<std::__1::basic_string<char16_t, std::__1::char_traits<char16_t>, std::__1::allocator<char16_t>>::__rep, 0, false>::__get",
   "linker_set_key" : "_ZNSt3__122__compressed_pair_elemINS_12basic_stringIDsNS_11char_traitsIDsEENS_9allocatorIDsEEE5__repELi0ELb0EE5__getEv",
   "parameters" :
   [
    {
     "is_this_ptr" : true,
     "referenced_type" : "_ZTIPNSt3__122__compressed_pair_elemINS_12basic_stringIDsNS_11char_traitsIDsEENS_9allocatorIDsEEE5__repELi0ELb0EEE"
    }
   ],
   "return_type" : "_ZTIRNSt3__112basic_stringIDsNS_11char_traitsIDsEENS_9allocatorIDsEEE5__repE",
   "source_file" : "external/libcxx/include/memory"
  },
  {
   "function_name" : "std::__1::__compressed_pair_elem<std::__1::basic_string<char16_t, std::__1::char_traits<char16_t>, std::__1::allocator<char16_t>>::__rep, 0, false>::__compressed_pair_elem",
   "linker_set_key" : "_ZNSt3__122__compressed_pair_elemINS_12basic_stringIDsNS_11char_traitsIDsEENS_9allocatorIDsEEE5__repELi0ELb0EEC1Ev",
   "parameters" :
   [
    {
     "is_this_ptr" : true,
     "referenced_type" : "_ZTIPNSt3__122__compressed_pair_elemINS_12basic_stringIDsNS_11char_traitsIDsEENS_9allocatorIDsEEE5__repELi0ELb0EEE"
    }
   ],
   "return_type" : "_ZTIv",
   "source_file" : "external/libcxx/include/memory"
  },
  {
   "function_name" : "std::__1::__compressed_pair_elem<std::__1::basic_string<char16_t, std::__1::char_traits<char16_t>, std::__1::allocator<char16_t>>::__rep, 0, false>::__compressed_pair_elem",
   "linker_set_key" : "_ZNSt3__122__compressed_pair_elemINS_12basic_stringIDsNS_11char_traitsIDsEENS_9allocatorIDsEEE5__repELi0ELb0EEC2Ev",
   "parameters" :
   [
    {
     "is_this_ptr" : true,
     "referenced_type" : "_ZTIPNSt3__122__compressed_pair_elemINS_12basic_stringIDsNS_11char_traitsIDsEENS_9allocatorIDsEEE5__repELi0ELb0EEE"
    }
   ],
   "return_type" : "_ZTIv",
   "source_file" : "external/libcxx/include/memory"
  },
  {
   "function_name" : "std::__1::__compressed_pair_elem<std::__1::basic_string<char, std::__1::char_traits<char>, std::__1::allocator<char>>::__rep, 0, false>::__get",
   "linker_set_key" : "_ZNSt3__122__compressed_pair_elemINS_12basic_stringIcNS_11char_traitsIcEENS_9allocatorIcEEE5__repELi0ELb0EE5__getEv",
   "parameters" :
   [
    {
     "is_this_ptr" : true,
     "referenced_type" : "_ZTIPNSt3__122__compressed_pair_elemINS_12basic_stringIcNS_11char_traitsIcEENS_9allocatorIcEEE5__repELi0ELb0EEE"
    }
   ],
   "return_type" : "_ZTIRNSt3__112basic_stringIcNS_11char_traitsIcEENS_9allocatorIcEEE5__repE",
   "source_file" : "external/libcxx/include/memory"
  },
  {
   "function_name" : "std::__1::__compressed_pair_elem<std::__1::basic_string<char, std::__1::char_traits<char>, std::__1::allocator<char>>::__rep, 0, false>::__compressed_pair_elem",
   "linker_set_key" : "_ZNSt3__122__compressed_pair_elemINS_12basic_stringIcNS_11char_traitsIcEENS_9allocatorIcEEE5__repELi0ELb0EEC1Ev",
   "parameters" :
   [
    {
     "is_this_ptr" : true,
     "referenced_type" : "_ZTIPNSt3__122__compressed_pair_elemINS_12basic_stringIcNS_11char_traitsIcEENS_9allocatorIcEEE5__repELi0ELb0EEE"
    }
   ],
   "return_type" : "_ZTIv",
   "source_file" : "external/libcxx/include/memory"
  },
  {
   "function_name" : "std::__1::__compressed_pair_elem<std::__1::basic_string<char, std::__1::char_traits<char>, std::__1::allocator<char>>::__rep, 0, false>::__compressed_pair_elem",
   "linker_set_key" : "_ZNSt3__122__compressed_pair_elemINS_12basic_stringIcNS_11char_traitsIcEENS_9allocatorIcEEE5__repELi0ELb0EEC2Ev",
   "parameters" :
   [
    {
     "is_this_ptr" : true,
     "referenced_type" : "_ZTIPNSt3__122__compressed_pair_elemINS_12basic_stringIcNS_11char_traitsIcEENS_9allocatorIcEEE5__repELi0ELb0EEE"
    }
   ],
   "return_type" : "_ZTIv",
   "source_file" : "external/libcxx/include/memory"
  },
  {
   "function_name" : "std::__1::__compressed_pair_elem<std::__1::basic_string<wchar_t, std::__1::char_traits<wchar_t>, std::__1::allocator<wchar_t>>::__rep, 0, false>::__get",
   "linker_set_key" : "_ZNSt3__122__compressed_pair_elemINS_12basic_stringIwNS_11char_traitsIwEENS_9allocatorIwEEE5__repELi0ELb0EE5__getEv",
   "parameters" :
   [
    {
     "is_this_ptr" : true,
     "referenced_type" : "_ZTIPNSt3__122__compressed_pair_elemINS_12basic_stringIwNS_11char_traitsIwEENS_9allocatorIwEEE5__repELi0ELb0EEE"
    }
   ],
   "return_type" : "_ZTIRNSt3__112basic_stringIwNS_11char_traitsIwEENS_9allocatorIwEEE5__repE",
   "source_file" : "external/libcxx/include/memory"
  },
  {
   "function_name" : "std::__1::__compressed_pair_elem<std::__1::basic_string<wchar_t, std::__1::char_traits<wchar_t>, std::__1::allocator<wchar_t>>::__rep, 0, false>::__compressed_pair_elem",
   "linker_set_key" : "_ZNSt3__122__compressed_pair_elemINS_12basic_stringIwNS_11char_traitsIwEENS_9allocatorIwEEE5__repELi0ELb0EEC1Ev",
   "parameters" :
   [
    {
     "is_this_ptr" : true,
     "referenced_type" : "_ZTIPNSt3__122__compressed_pair_elemINS_12basic_stringIwNS_11char_traitsIwEENS_9allocatorIwEEE5__repELi0ELb0EEE"
    }
   ],
   "return_type" : "_ZTIv",
   "source_file" : "external/libcxx/include/memory"
  },
  {
   "function_name" : "std::__1::__compressed_pair_elem<std::__1::basic_string<wchar_t, std::__1::char_traits<wchar_t>, std::__1::allocator<wchar_t>>::__rep, 0, false>::__compressed_pair_elem",
   "linker_set_key" : "_ZNSt3__122__compressed_pair_elemINS_12basic_stringIwNS_11char_traitsIwEENS_9allocatorIwEEE5__repELi0ELb0EEC2Ev",
   "parameters" :
   [
    {
     "is_this_ptr" : true,
     "referenced_type" : "_ZTIPNSt3__122__compressed_pair_elemINS_12basic_stringIwNS_11char_traitsIwEENS_9allocatorIwEEE5__repELi0ELb0EEE"
    }
   ],
   "return_type" : "_ZTIv",
   "source_file" : "external/libcxx/include/memory"
  },
  {
   "function_name" : "std::__1::__compressed_pair_elem<std::__1::allocator<char32_t>, 1, true>::__get",
   "linker_set_key" : "_ZNSt3__122__compressed_pair_elemINS_9allocatorIDiEELi1ELb1EE5__getEv",
   "parameters" :
   [
    {
     "is_this_ptr" : true,
     "referenced_type" : "_ZTIPNSt3__122__compressed_pair_elemINS_9allocatorIDiEELi1ELb1EEE"
    }
   ],
   "return_type" : "_ZTIRNSt3__19allocatorIDiEE",
   "source_file" : "external/libcxx/include/memory"
  },
  {
   "function_name" : "std::__1::__compressed_pair_elem<std::__1::allocator<char32_t>, 1, true>::__compressed_pair_elem",
   "linker_set_key" : "_ZNSt3__122__compressed_pair_elemINS_9allocatorIDiEELi1ELb1EEC1Ev",
   "parameters" :
   [
    {
     "is_this_ptr" : true,
     "referenced_type" : "_ZTIPNSt3__122__compressed_pair_elemINS_9allocatorIDiEELi1ELb1EEE"
    }
   ],
   "return_type" : "_ZTIv",
   "source_file" : "external/libcxx/include/memory"
  },
  {
   "function_name" : "std::__1::__compressed_pair_elem<std::__1::allocator<char32_t>, 1, true>::__compressed_pair_elem",
   "linker_set_key" : "_ZNSt3__122__compressed_pair_elemINS_9allocatorIDiEELi1ELb1EEC2Ev",
   "parameters" :
   [
    {
     "is_this_ptr" : true,
     "referenced_type" : "_ZTIPNSt3__122__compressed_pair_elemINS_9allocatorIDiEELi1ELb1EEE"
    }
   ],
   "return_type" : "_ZTIv",
   "source_file" : "external/libcxx/include/memory"
  },
  {
   "function_name" : "std::__1::__compressed_pair_elem<std::__1::allocator<char16_t>, 1, true>::__get",
   "linker_set_key" : "_ZNSt3__122__compressed_pair_elemINS_9allocatorIDsEELi1ELb1EE5__getEv",
   "parameters" :
   [
    {
     "is_this_ptr" : true,
     "referenced_type" : "_ZTIPNSt3__122__compressed_pair_elemINS_9allocatorIDsEELi1ELb1EEE"
    }
   ],
   "return_type" : "_ZTIRNSt3__19allocatorIDsEE",
   "source_file" : "external/libcxx/include/memory"
  },
  {
   "function_name" : "std::__1::__compressed_pair_elem<std::__1::allocator<char16_t>, 1, true>::__compressed_pair_elem",
   "linker_set_key" : "_ZNSt3__122__compressed_pair_elemINS_9allocatorIDsEELi1ELb1EEC1Ev",
   "parameters" :
   [
    {
     "is_this_ptr" : true,
     "referenced_type" : "_ZTIPNSt3__122__compressed_pair_elemINS_9allocatorIDsEELi1ELb1EEE"
    }
   ],
   "return_type" : "_ZTIv",
   "source_file" : "external/libcxx/include/memory"
  },
  {
   "function_name" : "std::__1::__compressed_pair_elem<std::__1::allocator<char16_t>, 1, true>::__compressed_pair_elem",
   "linker_set_key" : "_ZNSt3__122__compressed_pair_elemINS_9allocatorIDsEELi1ELb1EEC2Ev",
   "parameters" :
   [
    {
     "is_this_ptr" : true,
     "referenced_type" : "_ZTIPNSt3__122__compressed_pair_elemINS_9allocatorIDsEELi1ELb1EEE"
    }
   ],
   "return_type" : "_ZTIv",
   "source_file" : "external/libcxx/include/memory"
  },
  {
   "function_name" : "std::__1::__compressed_pair_elem<std::__1::allocator<std::__1::optional<std::__1::basic_string<char>>>, 1, true>::__get",
   "linker_set_key" : "_ZNSt3__122__compressed_pair_elemINS_9allocatorINS_8optionalINS_12basic_stringIcNS_11char_traitsIcEENS1_IcEEEEEEEELi1ELb1EE5__getEv",
   "parameters" :
   [
    {
     "is_this_ptr" : true,
     "referenced_type" : "_ZTIPNSt3__122__compressed_pair_elemINS_9allocatorINS_8optionalINS_12basic_stringIcNS_11char_traitsIcEENS1_IcEEEEEEEELi1ELb1EEE"
    }
   ],
   "return_type" : "_ZTIRNSt3__19allocatorINS_8optionalINS_12basic_stringIcNS_11char_traitsIcEENS0_IcEEEEEEEE",
   "source_file" : "external/libcxx/include/memory"
  },
  {
   "function_name" : "std::__1::__compressed_pair_elem<std::__1::allocator<std::__1::optional<std::__1::basic_string<char>>>, 1, true>::__compressed_pair_elem",
   "linker_set_key" : "_ZNSt3__122__compressed_pair_elemINS_9allocatorINS_8optionalINS_12basic_stringIcNS_11char_traitsIcEENS1_IcEEEEEEEELi1ELb1EEC1Ev",
   "parameters" :
   [
    {
     "is_this_ptr" : true,
     "referenced_type" : "_ZTIPNSt3__122__compressed_pair_elemINS_9allocatorINS_8optionalINS_12basic_stringIcNS_11char_traitsIcEENS1_IcEEEEEEEELi1ELb1EEE"
    }
   ],
   "return_type" : "_ZTIv",
   "source_file" : "external/libcxx/include/memory"
  },
  {
   "function_name" : "std::__1::__compressed_pair_elem<std::__1::allocator<std::__1::optional<std::__1::basic_string<char>>>, 1, true>::__compressed_pair_elem",
   "linker_set_key" : "_ZNSt3__122__compressed_pair_elemINS_9allocatorINS_8optionalINS_12basic_stringIcNS_11char_traitsIcEENS1_IcEEEEEEEELi1ELb1EEC1IS9_vEEOT_",
   "parameters" :
   [
    {
     "is_this_ptr" : true,
     "referenced_type" : "_ZTIPNSt3__122__compressed_pair_elemINS_9allocatorINS_8optionalINS_12basic_stringIcNS_11char_traitsIcEENS1_IcEEEEEEEELi1ELb1EEE"
    },
    {
     "referenced_type" : "_ZTIONSt3__19allocatorINS_8optionalINS_12basic_stringIcNS_11char_traitsIcEENS0_IcEEEEEEEE"
    }
   ],
   "return_type" : "_ZTIv",
   "source_file" : "external/libcxx/include/memory",
   "template_args" :
   [
    "_ZTINSt3__19allocatorINS_8optionalINS_12basic_stringIcNS_11char_traitsIcEENS0_IcEEEEEEEE",
    "_ZTIv"
   ]
  },
  {
   "function_name" : "std::__1::__compressed_pair_elem<std::__1::allocator<std::__1::optional<std::__1::basic_string<char>>>, 1, true>::__compressed_pair_elem",
   "linker_set_key" : "_ZNSt3__122__compressed_pair_elemINS_9allocatorINS_8optionalINS_12basic_stringIcNS_11char_traitsIcEENS1_IcEEEEEEEELi1ELb1EEC2Ev",
   "parameters" :
   [
    {
     "is_this_ptr" : true,
     "referenced_type" : "_ZTIPNSt3__122__compressed_pair_elemINS_9allocatorINS_8optionalINS_12basic_stringIcNS_11char_traitsIcEENS1_IcEEEEEEEELi1ELb1EEE"
    }
   ],
   "return_type" : "_ZTIv",
   "source_file" : "external/libcxx/include/memory"
  },
  {
   "function_name" : "std::__1::__compressed_pair_elem<std::__1::allocator<std::__1::optional<std::__1::basic_string<char>>>, 1, true>::__compressed_pair_elem",
   "linker_set_key" : "_ZNSt3__122__compressed_pair_elemINS_9allocatorINS_8optionalINS_12basic_stringIcNS_11char_traitsIcEENS1_IcEEEEEEEELi1ELb1EEC2IS9_vEEOT_",
   "parameters" :
   [
    {
     "is_this_ptr" : true,
     "referenced_type" : "_ZTIPNSt3__122__compressed_pair_elemINS_9allocatorINS_8optionalINS_12basic_stringIcNS_11char_traitsIcEENS1_IcEEEEEEEELi1ELb1EEE"
    },
    {
     "referenced_type" : "_ZTIONSt3__19allocatorINS_8optionalINS_12basic_stringIcNS_11char_traitsIcEENS0_IcEEEEEEEE"
    }
   ],
   "return_type" : "_ZTIv",
   "source_file" : "external/libcxx/include/memory",
   "template_args" :
   [
    "_ZTINSt3__19allocatorINS_8optionalINS_12basic_stringIcNS_11char_traitsIcEENS0_IcEEEEEEEE",
    "_ZTIv"
   ]
  },
  {
   "function_name" : "std::__1::__compressed_pair_elem<std::__1::allocator<char>, 1, true>::__get",
   "linker_set_key" : "_ZNSt3__122__compressed_pair_elemINS_9allocatorIcEELi1ELb1EE5__getEv",
   "parameters" :
   [
    {
     "is_this_ptr" : true,
     "referenced_type" : "_ZTIPNSt3__122__compressed_pair_elemINS_9allocatorIcEELi1ELb1EEE"
    }
   ],
   "return_type" : "_ZTIRNSt3__19allocatorIcEE",
   "source_file" : "external/libcxx/include/memory"
  },
  {
   "function_name" : "std::__1::__compressed_pair_elem<std::__1::allocator<char>, 1, true>::__compressed_pair_elem",
   "linker_set_key" : "_ZNSt3__122__compressed_pair_elemINS_9allocatorIcEELi1ELb1EEC1Ev",
   "parameters" :
   [
    {
     "is_this_ptr" : true,
     "referenced_type" : "_ZTIPNSt3__122__compressed_pair_elemINS_9allocatorIcEELi1ELb1EEE"
    }
   ],
   "return_type" : "_ZTIv",
   "source_file" : "external/libcxx/include/memory"
  },
  {
   "function_name" : "std::__1::__compressed_pair_elem<std::__1::allocator<char>, 1, true>::__compressed_pair_elem",
   "linker_set_key" : "_ZNSt3__122__compressed_pair_elemINS_9allocatorIcEELi1ELb1EEC2Ev",
   "parameters" :
   [
    {
     "is_this_ptr" : true,
     "referenced_type" : "_ZTIPNSt3__122__compressed_pair_elemINS_9allocatorIcEELi1ELb1EEE"
    }
   ],
   "return_type" : "_ZTIv",
   "source_file" : "external/libcxx/include/memory"
  },
  {
   "function_name" : "std::__1::__compressed_pair_elem<std::__1::allocator<wchar_t>, 1, true>::__get",
   "linker_set_key" : "_ZNSt3__122__compressed_pair_elemINS_9allocatorIwEELi1ELb1EE5__getEv",
   "parameters" :
   [
    {
     "is_this_ptr" : true,
     "referenced_type" : "_ZTIPNSt3__122__compressed_pair_elemINS_9allocatorIwEELi1ELb1EEE"
    }
   ],
   "return_type" : "_ZTIRNSt3__19allocatorIwEE",
   "source_file" : "external/libcxx/include/memory"
  },
  {
   "function_name" : "std::__1::__compressed_pair_elem<std::__1::allocator<wchar_t>, 1, true>::__compressed_pair_elem",
   "linker_set_key" : "_ZNSt3__122__compressed_pair_elemINS_9allocatorIwEELi1ELb1EEC1Ev",
   "parameters" :
   [
    {
     "is_this_ptr" : true,
     "referenced_type" : "_ZTIPNSt3__122__compressed_pair_elemINS_9allocatorIwEELi1ELb1EEE"
    }
   ],
   "return_type" : "_ZTIv",
   "source_file" : "external/libcxx/include/memory"
  },
  {
   "function_name" : "std::__1::__compressed_pair_elem<std::__1::allocator<wchar_t>, 1, true>::__compressed_pair_elem",
   "linker_set_key" : "_ZNSt3__122__compressed_pair_elemINS_9allocatorIwEELi1ELb1EEC2Ev",
   "parameters" :
   [
    {
     "is_this_ptr" : true,
     "referenced_type" : "_ZTIPNSt3__122__compressed_pair_elemINS_9allocatorIwEELi1ELb1EEE"
    }
   ],
   "return_type" : "_ZTIv",
   "source_file" : "external/libcxx/include/memory"
  },
  {
   "function_name" : "std::__1::__compressed_pair_elem<std::__1::optional<std::__1::basic_string<char>> *, 0, false>::__get",
   "linker_set_key" : "_ZNSt3__122__compressed_pair_elemIPNS_8optionalINS_12basic_stringIcNS_11char_traitsIcEENS_9allocatorIcEEEEEELi0ELb0EE5__getEv",
   "parameters" :
   [
    {
     "is_this_ptr" : true,
     "referenced_type" : "_ZTIPNSt3__122__compressed_pair_elemIPNS_8optionalINS_12basic_stringIcNS_11char_traitsIcEENS_9allocatorIcEEEEEELi0ELb0EEE"
    }
   ],
   "return_type" : "_ZTIRPNSt3__18optionalINS_12basic_stringIcNS_11char_traitsIcEENS_9allocatorIcEEEEEE",
   "source_file" : "external/libcxx/include/memory"
  },
  {
   "function_name" : "std::__1::__compressed_pair_elem<std::__1::optional<std::__1::basic_string<char>> *, 0, false>::__compressed_pair_elem",
   "linker_set_key" : "_ZNSt3__122__compressed_pair_elemIPNS_8optionalINS_12basic_stringIcNS_11char_traitsIcEENS_9allocatorIcEEEEEELi0ELb0EEC1IDnvEEOT_",
   "parameters" :
   [
    {
     "is_this_ptr" : true,
     "referenced_type" : "_ZTIPNSt3__122__compressed_pair_elemIPNS_8optionalINS_12basic_stringIcNS_11char_traitsIcEENS_9allocatorIcEEEEEELi0ELb0EEE"
    },
    {
     "referenced_type" : "_ZTIODn"
    }
   ],
   "return_type" : "_ZTIv",
   "source_file" : "external/libcxx/include/memory",
   "template_args" : [ "_ZTIDn", "_ZTIv" ]
  },
  {
   "function_name" : "std::__1::__compressed_pair_elem<std::__1::optional<std::__1::basic_string<char>> *, 0, false>::__compressed_pair_elem",
   "linker_set_key" : "_ZNSt3__122__compressed_pair_elemIPNS_8optionalINS_12basic_stringIcNS_11char_traitsIcEENS_9allocatorIcEEEEEELi0ELb0EEC2IDnvEEOT_",
   "parameters" :
   [
    {
     "is_this_ptr" : true,
     "referenced_type" : "_ZTIPNSt3__122__compressed_pair_elemIPNS_8optionalINS_12basic_stringIcNS_11char_traitsIcEENS_9allocatorIcEEEEEELi0ELb0EEE"
    },
    {
     "referenced_type" : "_ZTIODn"
    }
   ],
   "return_type" : "_ZTIv",
   "source_file" : "external/libcxx/include/memory",
   "template_args" : [ "_ZTIDn", "_ZTIv" ]
  },
  {
   "function_name" : "std::__1::__compressed_pair_elem<std::__1::allocator<std::__1::optional<std::__1::basic_string<char>>> &, 1, false>::__get",
   "linker_set_key" : "_ZNSt3__122__compressed_pair_elemIRNS_9allocatorINS_8optionalINS_12basic_stringIcNS_11char_traitsIcEENS1_IcEEEEEEEELi1ELb0EE5__getEv",
   "parameters" :
   [
    {
     "is_this_ptr" : true,
     "referenced_type" : "_ZTIPNSt3__122__compressed_pair_elemIRNS_9allocatorINS_8optionalINS_12basic_stringIcNS_11char_traitsIcEENS1_IcEEEEEEEELi1ELb0EEE"
    }
   ],
   "return_type" : "_ZTIRNSt3__19allocatorINS_8optionalINS_12basic_stringIcNS_11char_traitsIcEENS0_IcEEEEEEEE",
   "source_file" : "external/libcxx/include/memory"
  },
  {
   "function_name" : "std::__1::__compressed_pair_elem<std::__1::allocator<std::__1::optional<std::__1::basic_string<char>>> &, 1, false>::__compressed_pair_elem",
   "linker_set_key" : "_ZNSt3__122__compressed_pair_elemIRNS_9allocatorINS_8optionalINS_12basic_stringIcNS_11char_traitsIcEENS1_IcEEEEEEEELi1ELb0EEC1ISA_vEEOT_",
   "parameters" :
   [
    {
     "is_this_ptr" : true,
     "referenced_type" : "_ZTIPNSt3__122__compressed_pair_elemIRNS_9allocatorINS_8optionalINS_12basic_stringIcNS_11char_traitsIcEENS1_IcEEEEEEEELi1ELb0EEE"
    },
    {
     "referenced_type" : "_ZTIRNSt3__19allocatorINS_8optionalINS_12basic_stringIcNS_11char_traitsIcEENS0_IcEEEEEEEE"
    }
   ],
   "return_type" : "_ZTIv",
   "source_file" : "external/libcxx/include/memory",
   "template_args" :
   [
    "_ZTIRNSt3__19allocatorINS_8optionalINS_12basic_stringIcNS_11char_traitsIcEENS0_IcEEEEEEEE",
    "_ZTIv"
   ]
  },
  {
   "function_name" : "std::__1::__compressed_pair_elem<std::__1::allocator<std::__1::optional<std::__1::basic_string<char>>> &, 1, false>::__compressed_pair_elem",
   "linker_set_key" : "_ZNSt3__122__compressed_pair_elemIRNS_9allocatorINS_8optionalINS_12basic_stringIcNS_11char_traitsIcEENS1_IcEEEEEEEELi1ELb0EEC2ISA_vEEOT_",
   "parameters" :
   [
    {
     "is_this_ptr" : true,
     "referenced_type" : "_ZTIPNSt3__122__compressed_pair_elemIRNS_9allocatorINS_8optionalINS_12basic_stringIcNS_11char_traitsIcEENS1_IcEEEEEEEELi1ELb0EEE"
    },
    {
     "referenced_type" : "_ZTIRNSt3__19allocatorINS_8optionalINS_12basic_stringIcNS_11char_traitsIcEENS0_IcEEEEEEEE"
    }
   ],
   "return_type" : "_ZTIv",
   "source_file" : "external/libcxx/include/memory",
   "template_args" :
   [
    "_ZTIRNSt3__19allocatorINS_8optionalINS_12basic_stringIcNS_11char_traitsIcEENS0_IcEEEEEEEE",
    "_ZTIv"
   ]
  },
  {
   "function_name" : "std::__1::__throw_overflow_error",
   "linker_set_key" : "_ZNSt3__122__throw_overflow_errorEPKc",
   "parameters" :
   [
    {
     "referenced_type" : "_ZTIPKc"
    }
   ],
   "return_type" : "_ZTIv",
   "source_file" : "external/libcxx/include/stdexcept"
  },
  {
   "access" : "protected",
   "function_name" : "std::__1::__libcpp_numeric_limits<bool, true>::denorm_min",
   "linker_set_key" : "_ZNSt3__123__libcpp_numeric_limitsIbLb1EE10denorm_minEv",
   "return_type" : "_ZTIb",
   "source_file" : "external/libcxx/include/limits"
  },
  {
   "access" : "protected",
   "function_name" : "std::__1::__libcpp_numeric_limits<bool, true>::round_error",
   "linker_set_key" : "_ZNSt3__123__libcpp_numeric_limitsIbLb1EE11round_errorEv",
   "return_type" : "_ZTIb",
   "source_file" : "external/libcxx/include/limits"
  },
  {
   "access" : "protected",
   "function_name" : "std::__1::__libcpp_numeric_limits<bool, true>::signaling_NaN",
   "linker_set_key" : "_ZNSt3__123__libcpp_numeric_limitsIbLb1EE13signaling_NaNEv",
   "return_type" : "_ZTIb",
   "source_file" : "external/libcxx/include/limits"
  },
  {
   "access" : "protected",
   "function_name" : "std::__1::__libcpp_numeric_limits<bool, true>::max",
   "linker_set_key" : "_ZNSt3__123__libcpp_numeric_limitsIbLb1EE3maxEv",
   "return_type" : "_ZTIb",
   "source_file" : "external/libcxx/include/limits"
  },
  {
   "access" : "protected",
   "function_name" : "std::__1::__libcpp_numeric_limits<bool, true>::min",
   "linker_set_key" : "_ZNSt3__123__libcpp_numeric_limitsIbLb1EE3minEv",
   "return_type" : "_ZTIb",
   "source_file" : "external/libcxx/include/limits"
  },
  {
   "access" : "protected",
   "function_name" : "std::__1::__libcpp_numeric_limits<bool, true>::lowest",
   "linker_set_key" : "_ZNSt3__123__libcpp_numeric_limitsIbLb1EE6lowestEv",
   "return_type" : "_ZTIb",
   "source_file" : "external/libcxx/include/limits"
  },
  {
   "access" : "protected",
   "function_name" : "std::__1::__libcpp_numeric_limits<bool, true>::epsilon",
   "linker_set_key" : "_ZNSt3__123__libcpp_numeric_limitsIbLb1EE7epsilonEv",
   "return_type" : "_ZTIb",
   "source_file" : "external/libcxx/include/limits"
  },
  {
   "access" : "protected",
   "function_name" : "std::__1::__libcpp_numeric_limits<bool, true>::infinity",
   "linker_set_key" : "_ZNSt3__123__libcpp_numeric_limitsIbLb1EE8infinityEv",
   "return_type" : "_ZTIb",
   "source_file" : "external/libcxx/include/limits"
  },
  {
   "access" : "protected",
   "function_name" : "std::__1::__libcpp_numeric_limits<bool, true>::quiet_NaN",
   "linker_set_key" : "_ZNSt3__123__libcpp_numeric_limitsIbLb1EE9quiet_NaNEv",
   "return_type" : "_ZTIb",
   "source_file" : "external/libcxx/include/limits"
  },
  {
   "access" : "protected",
   "function_name" : "std::__1::__libcpp_numeric_limits<double, true>::denorm_min",
   "linker_set_key" : "_ZNSt3__123__libcpp_numeric_limitsIdLb1EE10denorm_minEv",
   "return_type" : "_ZTId",
   "source_file" : "external/libcxx/include/limits"
  },
  {
   "access" : "protected",
   "function_name" : "std::__1::__libcpp_numeric_limits<double, true>::round_error",
   "linker_set_key" : "_ZNSt3__123__libcpp_numeric_limitsIdLb1EE11round_errorEv",
   "return_type" : "_ZTId",
   "source_file" : "external/libcxx/include/limits"
  },
  {
   "access" : "protected",
   "function_name" : "std::__1::__libcpp_numeric_limits<double, true>::signaling_NaN",
   "linker_set_key" : "_ZNSt3__123__libcpp_numeric_limitsIdLb1EE13signaling_NaNEv",
   "return_type" : "_ZTId",
   "source_file" : "external/libcxx/include/limits"
  },
  {
   "access" : "protected",
   "function_name" : "std::__1::__libcpp_numeric_limits<double, true>::max",
   "linker_set_key" : "_ZNSt3__123__libcpp_numeric_limitsIdLb1EE3maxEv",
   "return_type" : "_ZTId",
   "source_file" : "external/libcxx/include/limits"
  },
  {
   "access" : "protected",
   "function_name" : "std::__1::__libcpp_numeric_limits<double, true>::min",
   "linker_set_key" : "_ZNSt3__123__libcpp_numeric_limitsIdLb1EE3minEv",
   "return_type" : "_ZTId",
   "source_file" : "external/libcxx/include/limits"
  },
  {
   "access" : "protected",
   "function_name" : "std::__1::__libcpp_numeric_limits<double, true>::lowest",
   "linker_set_key" : "_ZNSt3__123__libcpp_numeric_limitsIdLb1EE6lowestEv",
   "return_type" : "_ZTId",
   "source_file" : "external/libcxx/include/limits"
  },
  {
   "access" : "protected",
   "function_name" : "std::__1::__libcpp_numeric_limits<double, true>::epsilon",
   "linker_set_key" : "_ZNSt3__123__libcpp_numeric_limitsIdLb1EE7epsilonEv",
   "return_type" : "_ZTId",
   "source_file" : "external/libcxx/include/limits"
  },
  {
   "access" : "protected",
   "function_name" : "std::__1::__libcpp_numeric_limits<double, true>::infinity",
   "linker_set_key" : "_ZNSt3__123__libcpp_numeric_limitsIdLb1EE8infinityEv",
   "return_type" : "_ZTId",
   "source_file" : "external/libcxx/include/limits"
  },
  {
   "access" : "protected",
   "function_name" : "std::__1::__libcpp_numeric_limits<double, true>::quiet_NaN",
   "linker_set_key" : "_ZNSt3__123__libcpp_numeric_limitsIdLb1EE9quiet_NaNEv",
   "return_type" : "_ZTId",
   "source_file" : "external/libcxx/include/limits"
  },
  {
   "access" : "protected",
   "function_name" : "std::__1::__libcpp_numeric_limits<long double, true>::denorm_min",
   "linker_set_key" : "_ZNSt3__123__libcpp_numeric_limitsIeLb1EE10denorm_minEv",
   "return_type" : "_ZTIe",
   "source_file" : "external/libcxx/include/limits"
  },
  {
   "access" : "protected",
   "function_name" : "std::__1::__libcpp_numeric_limits<long double, true>::round_error",
   "linker_set_key" : "_ZNSt3__123__libcpp_numeric_limitsIeLb1EE11round_errorEv",
   "return_type" : "_ZTIe",
   "source_file" : "external/libcxx/include/limits"
  },
  {
   "access" : "protected",
   "function_name" : "std::__1::__libcpp_numeric_limits<long double, true>::signaling_NaN",
   "linker_set_key" : "_ZNSt3__123__libcpp_numeric_limitsIeLb1EE13signaling_NaNEv",
   "return_type" : "_ZTIe",
   "source_file" : "external/libcxx/include/limits"
  },
  {
   "access" : "protected",
   "function_name" : "std::__1::__libcpp_numeric_limits<long double, true>::max",
   "linker_set_key" : "_ZNSt3__123__libcpp_numeric_limitsIeLb1EE3maxEv",
   "return_type" : "_ZTIe",
   "source_file" : "external/libcxx/include/limits"
  },
  {
   "access" : "protected",
   "function_name" : "std::__1::__libcpp_numeric_limits<long double, true>::min",
   "linker_set_key" : "_ZNSt3__123__libcpp_numeric_limitsIeLb1EE3minEv",
   "return_type" : "_ZTIe",
   "source_file" : "external/libcxx/include/limits"
  },
  {
   "access" : "protected",
   "function_name" : "std::__1::__libcpp_numeric_limits<long double, true>::lowest",
   "linker_set_key" : "_ZNSt3__123__libcpp_numeric_limitsIeLb1EE6lowestEv",
   "return_type" : "_ZTIe",
   "source_file" : "external/libcxx/include/limits"
  },
  {
   "access" : "protected",
   "function_name" : "std::__1::__libcpp_numeric_limits<long double, true>::epsilon",
   "linker_set_key" : "_ZNSt3__123__libcpp_numeric_limitsIeLb1EE7epsilonEv",
   "return_type" : "_ZTIe",
   "source_file" : "external/libcxx/include/limits"
  },
  {
   "access" : "protected",
   "function_name" : "std::__1::__libcpp_numeric_limits<long double, true>::infinity",
   "linker_set_key" : "_ZNSt3__123__libcpp_numeric_limitsIeLb1EE8infinityEv",
   "return_type" : "_ZTIe",
   "source_file" : "external/libcxx/include/limits"
  },
  {
   "access" : "protected",
   "function_name" : "std::__1::__libcpp_numeric_limits<long double, true>::quiet_NaN",
   "linker_set_key" : "_ZNSt3__123__libcpp_numeric_limitsIeLb1EE9quiet_NaNEv",
   "return_type" : "_ZTIe",
   "source_file" : "external/libcxx/include/limits"
  },
  {
   "access" : "protected",
   "function_name" : "std::__1::__libcpp_numeric_limits<float, true>::denorm_min",
   "linker_set_key" : "_ZNSt3__123__libcpp_numeric_limitsIfLb1EE10denorm_minEv",
   "return_type" : "_ZTIf",
   "source_file" : "external/libcxx/include/limits"
  },
  {
   "access" : "protected",
   "function_name" : "std::__1::__libcpp_numeric_limits<float, true>::round_error",
   "linker_set_key" : "_ZNSt3__123__libcpp_numeric_limitsIfLb1EE11round_errorEv",
   "return_type" : "_ZTIf",
   "source_file" : "external/libcxx/include/limits"
  },
  {
   "access" : "protected",
   "function_name" : "std::__1::__libcpp_numeric_limits<float, true>::signaling_NaN",
   "linker_set_key" : "_ZNSt3__123__libcpp_numeric_limitsIfLb1EE13signaling_NaNEv",
   "return_type" : "_ZTIf",
   "source_file" : "external/libcxx/include/limits"
  },
  {
   "access" : "protected",
   "function_name" : "std::__1::__libcpp_numeric_limits<float, true>::max",
   "linker_set_key" : "_ZNSt3__123__libcpp_numeric_limitsIfLb1EE3maxEv",
   "return_type" : "_ZTIf",
   "source_file" : "external/libcxx/include/limits"
  },
  {
   "access" : "protected",
   "function_name" : "std::__1::__libcpp_numeric_limits<float, true>::min",
   "linker_set_key" : "_ZNSt3__123__libcpp_numeric_limitsIfLb1EE3minEv",
   "return_type" : "_ZTIf",
   "source_file" : "external/libcxx/include/limits"
  },
  {
   "access" : "protected",
   "function_name" : "std::__1::__libcpp_numeric_limits<float, true>::lowest",
   "linker_set_key" : "_ZNSt3__123__libcpp_numeric_limitsIfLb1EE6lowestEv",
   "return_type" : "_ZTIf",
   "source_file" : "external/libcxx/include/limits"
  },
  {
   "access" : "protected",
   "function_name" : "std::__1::__libcpp_numeric_limits<float, true>::epsilon",
   "linker_set_key" : "_ZNSt3__123__libcpp_numeric_limitsIfLb1EE7epsilonEv",
   "return_type" : "_ZTIf",
   "source_file" : "external/libcxx/include/limits"
  },
  {
   "access" : "protected",
   "function_name" : "std::__1::__libcpp_numeric_limits<float, true>::infinity",
   "linker_set_key" : "_ZNSt3__123__libcpp_numeric_limitsIfLb1EE8infinityEv",
   "return_type" : "_ZTIf",
   "source_file" : "external/libcxx/include/limits"
  },
  {
   "access" : "protected",
   "function_name" : "std::__1::__libcpp_numeric_limits<float, true>::quiet_NaN",
   "linker_set_key" : "_ZNSt3__123__libcpp_numeric_limitsIfLb1EE9quiet_NaNEv",
   "return_type" : "_ZTIf",
   "source_file" : "external/libcxx/include/limits"
  },
  {
   "access" : "protected",
   "function_name" : "std::__1::__libcpp_numeric_limits<int, true>::max",
   "linker_set_key" : "_ZNSt3__123__libcpp_numeric_limitsIiLb1EE3maxEv",
   "return_type" : "_ZTIi",
   "source_file" : "external/libcxx/include/limits"
  },
  {
   "access" : "protected",
   "function_name" : "std::__1::__libcpp_numeric_limits<int, true>::min",
   "linker_set_key" : "_ZNSt3__123__libcpp_numeric_limitsIiLb1EE3minEv",
   "return_type" : "_ZTIi",
   "source_file" : "external/libcxx/include/limits"
  },
  {
   "access" : "protected",
   "function_name" : "std::__1::__libcpp_numeric_limits<unsigned int, true>::max",
   "linker_set_key" : "_ZNSt3__123__libcpp_numeric_limitsIjLb1EE3maxEv",
   "return_type" : "_ZTIj",
   "source_file" : "external/libcxx/include/limits"
  },
  {
   "access" : "protected",
   "function_name" : "std::__1::__libcpp_numeric_limits<long, true>::max",
   "linker_set_key" : "_ZNSt3__123__libcpp_numeric_limitsIlLb1EE3maxEv",
   "return_type" : "_ZTIl",
   "source_file" : "external/libcxx/include/limits"
  },
  {
   "access" : "protected",
   "function_name" : "std::__1::__libcpp_numeric_limits<long, true>::min",
   "linker_set_key" : "_ZNSt3__123__libcpp_numeric_limitsIlLb1EE3minEv",
   "return_type" : "_ZTIl",
   "source_file" : "external/libcxx/include/limits"
  },
  {
   "access" : "protected",
   "function_name" : "std::__1::__libcpp_numeric_limits<unsigned long, true>::max",
   "linker_set_key" : "_ZNSt3__123__libcpp_numeric_limitsImLb1EE3maxEv",
   "return_type" : "_ZTIm",
   "source_file" : "external/libcxx/include/limits"
  },
  {
   "function_name" : "std::__1::__optional_storage_base<std::__1::basic_string<char>, false>::__construct",
   "linker_set_key" : "_ZNSt3__123__optional_storage_baseINS_12basic_stringIcNS_11char_traitsIcEENS_9allocatorIcEEEELb0EE11__constructIJPKcEEEvDpOT_",
   "parameters" :
   [
    {
     "is_this_ptr" : true,
     "referenced_type" : "_ZTIPNSt3__123__optional_storage_baseINS_12basic_stringIcNS_11char_traitsIcEENS_9allocatorIcEEEELb0EEE"
    },
    {
     "referenced_type" : "_ZTIOPKc"
    }
   ],
   "return_type" : "_ZTIv",
   "source_file" : "external/libcxx/include/optional"
  },
  {
   "function_name" : "std::__1::__optional_storage_base<std::__1::basic_string<char>, false>::__construct",
   "linker_set_key" : "_ZNSt3__123__optional_storage_baseINS_12basic_stringIcNS_11char_traitsIcEENS_9allocatorIcEEEELb0EE11__constructIJS6_EEEvDpOT_",
   "parameters" :
   [
    {
     "is_this_ptr" : true,
     "referenced_type" : "_ZTIPNSt3__123__optional_storage_baseINS_12basic_stringIcNS_11char_traitsIcEENS_9allocatorIcEEEELb0EEE"
    },
    {
     "referenced_type" : "_ZTIONSt3__112basic_stringIcNS_11char_traitsIcEENS_9allocatorIcEEEE"
    }
   ],
   "return_type" : "_ZTIv",
   "source_file" : "external/libcxx/include/optional"
  },
  {
   "function_name" : "std::__1::__optional_storage_base<std::__1::basic_string<char>, false>::__construct_from",
   "linker_set_key" : "_ZNSt3__123__optional_storage_baseINS_12basic_stringIcNS_11char_traitsIcEENS_9allocatorIcEEEELb0EE16__construct_fromINS_20__optional_move_baseIS6_Lb0EEEEEvOT_",
   "parameters" :
   [
    {
     "is_this_ptr" : true,
     "referenced_type" : "_ZTIPNSt3__123__optional_storage_baseINS_12basic_stringIcNS_11char_traitsIcEENS_9allocatorIcEEEELb0EEE"
    },
    {
     "referenced_type" : "_ZTIONSt3__120__optional_move_baseINS_12basic_stringIcNS_11char_traitsIcEENS_9allocatorIcEEEELb0EEE"
    }
   ],
   "return_type" : "_ZTIv",
   "source_file" : "external/libcxx/include/optional",
   "template_args" :
   [
    "_ZTINSt3__120__optional_move_baseINS_12basic_stringIcNS_11char_traitsIcEENS_9allocatorIcEEEELb0EEE"
   ]
  },
  {
   "function_name" : "std::__1::__optional_storage_base<std::__1::basic_string<char>, false>::__construct_from",
   "linker_set_key" : "_ZNSt3__123__optional_storage_baseINS_12basic_stringIcNS_11char_traitsIcEENS_9allocatorIcEEEELb0EE16__construct_fromINS_8optionalIPKcEEEEvOT_",
   "parameters" :
   [
    {
     "is_this_ptr" : true,
     "referenced_type" : "_ZTIPNSt3__123__optional_storage_baseINS_12basic_stringIcNS_11char_traitsIcEENS_9allocatorIcEEEELb0EEE"
    },
    {
     "referenced_type" : "_ZTIONSt3__18optionalIPKcEE"
    }
   ],
   "return_type" : "_ZTIv",
   "source_file" : "external/libcxx/include/optional",
   "template_args" : [ "_ZTINSt3__18optionalIPKcEE" ]
  },
  {
   "function_name" : "std::__1::__throw_underflow_error",
   "linker_set_key" : "_ZNSt3__123__throw_underflow_errorEPKc",
   "parameters" :
   [
    {
     "referenced_type" : "_ZTIPKc"
    }
   ],
   "return_type" : "_ZTIv",
   "source_file" : "external/libcxx/include/stdexcept"
  },
  {
   "function_name" : "std::__1::__is_overaligned_for_new",
   "linker_set_key" : "_ZNSt3__124__is_overaligned_for_newEm",
   "parameters" :
   [
    {
     "referenced_type" : "_ZTIm"
    }
   ],
   "return_type" : "_ZTIb",
   "source_file" : "external/libcxx/include/new"
  },
  {
   "function_name" : "std::__1::__optional_destruct_base<std::__1::basic_string<char>, false>::__optional_destruct_base",
   "linker_set_key" : "_ZNSt3__124__optional_destruct_baseINS_12basic_stringIcNS_11char_traitsIcEENS_9allocatorIcEEEELb0EEC1Ev",
   "parameters" :
   [
    {
     "is_this_ptr" : true,
     "referenced_type" : "_ZTIPNSt3__124__optional_destruct_baseINS_12basic_stringIcNS_11char_traitsIcEENS_9allocatorIcEEEELb0EEE"
    }
   ],
   "return_type" : "_ZTIv",
   "source_file" : "external/libcxx/include/optional"
  },
  {
   "function_name" : "std::__1::__optional_destruct_base<std::__1::basic_string<char>, false>::__optional_destruct_base",
   "linker_set_key" : "_ZNSt3__124__optional_destruct_baseINS_12basic_stringIcNS_11char_traitsIcEENS_9allocatorIcEEEELb0EEC2Ev",
   "parameters" :
   [
    {
     "is_this_ptr" : true,
     "referenced_type" : "_ZTIPNSt3__124__optional_destruct_baseINS_12basic_stringIcNS_11char_traitsIcEENS_9allocatorIcEEEELb0EEE"
    }
   ],
   "return_type" : "_ZTIv",
   "source_file" : "external/libcxx/include/optional"
  },
  {
   "function_name" : "std::__1::__optional_destruct_base<std::__1::basic_string<char>, false>::~__optional_destruct_base",
   "linker_set_key" : "_ZNSt3__124__optional_destruct_baseINS_12basic_stringIcNS_11char_traitsIcEENS_9allocatorIcEEEELb0EED1Ev",
   "parameters" :
   [
    {
     "is_this_ptr" : true,
     "referenced_type" : "_ZTIPNSt3__124__optional_destruct_baseINS_12basic_stringIcNS_11char_traitsIcEENS_9allocatorIcEEEELb0EEE"
    }
   ],
   "return_type" : "_ZTIv",
   "source_file" : "external/libcxx/include/optional"
  },
  {
   "function_name" : "std::__1::__optional_destruct_base<std::__1::basic_string<char>, false>::~__optional_destruct_base",
   "linker_set_key" : "_ZNSt3__124__optional_destruct_baseINS_12basic_stringIcNS_11char_traitsIcEENS_9allocatorIcEEEELb0EED2Ev",
   "parameters" :
   [
    {
     "is_this_ptr" : true,
     "referenced_type" : "_ZTIPNSt3__124__optional_destruct_baseINS_12basic_stringIcNS_11char_traitsIcEENS_9allocatorIcEEEELb0EEE"
    }
   ],
   "return_type" : "_ZTIv",
   "source_file" : "external/libcxx/include/optional"
  },
  {
   "function_name" : "std::__1::__optional_destruct_base<const char *, true>::__optional_destruct_base",
   "linker_set_key" : "_ZNSt3__124__optional_destruct_baseIPKcLb1EEC1Ev",
   "parameters" :
   [
    {
     "is_this_ptr" : true,
     "referenced_type" : "_ZTIPNSt3__124__optional_destruct_baseIPKcLb1EEE"
    }
   ],
   "return_type" : "_ZTIv",
   "source_file" : "external/libcxx/include/optional"
  },
  {
   "function_name" : "std::__1::__optional_destruct_base<const char *, true>::__optional_destruct_base",
   "linker_set_key" : "_ZNSt3__124__optional_destruct_baseIPKcLb1EEC1IJRS2_EEENS_10in_place_tEDpOT_",
   "parameters" :
   [
    {
     "is_this_ptr" : true,
     "referenced_type" : "_ZTIPNSt3__124__optional_destruct_baseIPKcLb1EEE"
    },
    {
     "referenced_type" : "_ZTINSt3__110in_place_tE"
    },
    {
     "referenced_type" : "_ZTIRPKc"
    }
   ],
   "return_type" : "_ZTIv",
   "source_file" : "external/libcxx/include/optional"
  },
  {
   "function_name" : "std::__1::__optional_destruct_base<const char *, true>::__optional_destruct_base",
   "linker_set_key" : "_ZNSt3__124__optional_destruct_baseIPKcLb1EEC2Ev",
   "parameters" :
   [
    {
     "is_this_ptr" : true,
     "referenced_type" : "_ZTIPNSt3__124__optional_destruct_baseIPKcLb1EEE"
    }
   ],
   "return_type" : "_ZTIv",
   "source_file" : "external/libcxx/include/optional"
  },
  {
   "function_name" : "std::__1::__optional_destruct_base<const char *, true>::__optional_destruct_base",
   "linker_set_key" : "_ZNSt3__124__optional_destruct_baseIPKcLb1EEC2IJRS2_EEENS_10in_place_tEDpOT_",
   "parameters" :
   [
    {
     "is_this_ptr" : true,
     "referenced_type" : "_ZTIPNSt3__124__optional_destruct_baseIPKcLb1EEE"
    },
    {
     "referenced_type" : "_ZTINSt3__110in_place_tE"
    },
    {
     "referenced_type" : "_ZTIRPKc"
    }
   ],
   "return_type" : "_ZTIv",
   "source_file" : "external/libcxx/include/optional"
  },
  {
   "function_name" : "std::__1::__optional_destruct_base<bool, true>::__optional_destruct_base",
   "linker_set_key" : "_ZNSt3__124__optional_destruct_baseIbLb1EEC1Ev",
   "parameters" :
   [
    {
     "is_this_ptr" : true,
     "referenced_type" : "_ZTIPNSt3__124__optional_destruct_baseIbLb1EEE"
    }
   ],
   "return_type" : "_ZTIv",
   "source_file" : "external/libcxx/include/optional"
  },
  {
   "function_name" : "std::__1::__optional_destruct_base<bool, true>::__optional_destruct_base",
   "linker_set_key" : "_ZNSt3__124__optional_destruct_baseIbLb1EEC1IJbEEENS_10in_place_tEDpOT_",
   "parameters" :
   [
    {
     "is_this_ptr" : true,
     "referenced_type" : "_ZTIPNSt3__124__optional_destruct_baseIbLb1EEE"
    },
    {
     "referenced_type" : "_ZTINSt3__110in_place_tE"
    },
    {
     "referenced_type" : "_ZTIOb"
    }
   ],
   "return_type" : "_ZTIv",
   "source_file" : "external/libcxx/include/optional"
  },
  {
   "function_name" : "std::__1::__optional_destruct_base<bool, true>::__optional_destruct_base",
   "linker_set_key" : "_ZNSt3__124__optional_destruct_baseIbLb1EEC2Ev",
   "parameters" :
   [
    {
     "is_this_ptr" : true,
     "referenced_type" : "_ZTIPNSt3__124__optional_destruct_baseIbLb1EEE"
    }
   ],
   "return_type" : "_ZTIv",
   "source_file" : "external/libcxx/include/optional"
  },
  {
   "function_name" : "std::__1::__optional_destruct_base<bool, true>::__optional_destruct_base",
   "linker_set_key" : "_ZNSt3__124__optional_destruct_baseIbLb1EEC2IJbEEENS_10in_place_tEDpOT_",
   "parameters" :
   [
    {
     "is_this_ptr" : true,
     "referenced_type" : "_ZTIPNSt3__124__optional_destruct_baseIbLb1EEE"
    },
    {
     "referenced_type" : "_ZTINSt3__110in_place_tE"
    },
    {
     "referenced_type" : "_ZTIOb"
    }
   ],
   "return_type" : "_ZTIv",
   "source_file" : "external/libcxx/include/optional"
  },
  {
   "function_name" : "std::__1::__optional_destruct_base<double, true>::__optional_destruct_base",
   "linker_set_key" : "_ZNSt3__124__optional_destruct_baseIdLb1EEC1Ev",
   "parameters" :
   [
    {
     "is_this_ptr" : true,
     "referenced_type" : "_ZTIPNSt3__124__optional_destruct_baseIdLb1EEE"
    }
   ],
   "return_type" : "_ZTIv",
   "source_file" : "external/libcxx/include/optional"
  },
  {
   "function_name" : "std::__1::__optional_destruct_base<double, true>::__optional_destruct_base",
   "linker_set_key" : "_ZNSt3__124__optional_destruct_baseIdLb1EEC1IJRdEEENS_10in_place_tEDpOT_",
   "parameters" :
   [
    {
     "is_this_ptr" : true,
     "referenced_type" : "_ZTIPNSt3__124__optional_destruct_baseIdLb1EEE"
    },
    {
     "referenced_type" : "_ZTINSt3__110in_place_tE"
    },
    {
     "referenced_type" : "_ZTIRd"
    }
   ],
   "return_type" : "_ZTIv",
   "source_file" : "external/libcxx/include/optional"
  },
  {
   "function_name" : "std::__1::__optional_destruct_base<double, true>::__optional_destruct_base",
   "linker_set_key" : "_ZNSt3__124__optional_destruct_baseIdLb1EEC2Ev",
   "parameters" :
   [
    {
     "is_this_ptr" : true,
     "referenced_type" : "_ZTIPNSt3__124__optional_destruct_baseIdLb1EEE"
    }
   ],
   "return_type" : "_ZTIv",
   "source_file" : "external/libcxx/include/optional"
  },
  {
   "function_name" : "std::__1::__optional_destruct_base<double, true>::__optional_destruct_base",
   "linker_set_key" : "_ZNSt3__124__optional_destruct_baseIdLb1EEC2IJRdEEENS_10in_place_tEDpOT_",
   "parameters" :
   [
    {
     "is_this_ptr" : true,
     "referenced_type" : "_ZTIPNSt3__124__optional_destruct_baseIdLb1EEE"
    },
    {
     "referenced_type" : "_ZTINSt3__110in_place_tE"
    },
    {
     "referenced_type" : "_ZTIRd"
    }
   ],
   "return_type" : "_ZTIv",
   "source_file" : "external/libcxx/include/optional"
  },
  {
   "function_name" : "std::__1::__optional_destruct_base<int, true>::__optional_destruct_base",
   "linker_set_key" : "_ZNSt3__124__optional_destruct_baseIiLb1EEC1Ev",
   "parameters" :
   [
    {
     "is_this_ptr" : true,
     "referenced_type" : "_ZTIPNSt3__124__optional_destruct_baseIiLb1EEE"
    }
   ],
   "return_type" : "_ZTIv",
   "source_file" : "external/libcxx/include/optional"
  },
  {
   "function_name" : "std::__1::__optional_destruct_base<int, true>::__optional_destruct_base",
   "linker_set_key" : "_ZNSt3__124__optional_destruct_baseIiLb1EEC1IJRiEEENS_10in_place_tEDpOT_",
   "parameters" :
   [
    {
     "is_this_ptr" : true,
     "referenced_type" : "_ZTIPNSt3__124__optional_destruct_baseIiLb1EEE"
    },
    {
     "referenced_type" : "_ZTINSt3__110in_place_tE"
    },
    {
     "referenced_type" : "_ZTIRi"
    }
   ],
   "return_type" : "_ZTIv",
   "source_file" : "external/libcxx/include/optional"
  },
  {
   "function_name" : "std::__1::__optional_destruct_base<int, true>::__optional_destruct_base",
   "linker_set_key" : "_ZNSt3__124__optional_destruct_baseIiLb1EEC2Ev",
   "parameters" :
   [
    {
     "is_this_ptr" : true,
     "referenced_type" : "_ZTIPNSt3__124__optional_destruct_baseIiLb1EEE"
    }
   ],
   "return_type" : "_ZTIv",
   "source_file" : "external/libcxx/include/optional"
  },
  {
   "function_name" : "std::__1::__optional_destruct_base<int, true>::__optional_destruct_base",
   "linker_set_key" : "_ZNSt3__124__optional_destruct_baseIiLb1EEC2IJRiEEENS_10in_place_tEDpOT_",
   "parameters" :
   [
    {
     "is_this_ptr" : true,
     "referenced_type" : "_ZTIPNSt3__124__optional_destruct_baseIiLb1EEE"
    },
    {
     "referenced_type" : "_ZTINSt3__110in_place_tE"
    },
    {
     "referenced_type" : "_ZTIRi"
    }
   ],
   "return_type" : "_ZTIv",
   "source_file" : "external/libcxx/include/optional"
  },
  {
   "function_name" : "std::__1::__optional_destruct_base<unsigned int, true>::__optional_destruct_base",
   "linker_set_key" : "_ZNSt3__124__optional_destruct_baseIjLb1EEC1Ev",
   "parameters" :
   [
    {
     "is_this_ptr" : true,
     "referenced_type" : "_ZTIPNSt3__124__optional_destruct_baseIjLb1EEE"
    }
   ],
   "return_type" : "_ZTIv",
   "source_file" : "external/libcxx/include/optional"
  },
  {
   "function_name" : "std::__1::__optional_destruct_base<unsigned int, true>::__optional_destruct_base",
   "linker_set_key" : "_ZNSt3__124__optional_destruct_baseIjLb1EEC1IJRjEEENS_10in_place_tEDpOT_",
   "parameters" :
   [
    {
     "is_this_ptr" : true,
     "referenced_type" : "_ZTIPNSt3__124__optional_destruct_baseIjLb1EEE"
    },
    {
     "referenced_type" : "_ZTINSt3__110in_place_tE"
    },
    {
     "referenced_type" : "_ZTIRj"
    }
   ],
   "return_type" : "_ZTIv",
   "source_file" : "external/libcxx/include/optional"
  },
  {
   "function_name" : "std::__1::__optional_destruct_base<unsigned int, true>::__optional_destruct_base",
   "linker_set_key" : "_ZNSt3__124__optional_destruct_baseIjLb1EEC2Ev",
   "parameters" :
   [
    {
     "is_this_ptr" : true,
     "referenced_type" : "_ZTIPNSt3__124__optional_destruct_baseIjLb1EEE"
    }
   ],
   "return_type" : "_ZTIv",
   "source_file" : "external/libcxx/include/optional"
  },
  {
   "function_name" : "std::__1::__optional_destruct_base<unsigned int, true>::__optional_destruct_base",
   "linker_set_key" : "_ZNSt3__124__optional_destruct_baseIjLb1EEC2IJRjEEENS_10in_place_tEDpOT_",
   "parameters" :
   [
    {
     "is_this_ptr" : true,
     "referenced_type" : "_ZTIPNSt3__124__optional_destruct_baseIjLb1EEE"
    },
    {
     "referenced_type" : "_ZTINSt3__110in_place_tE"
    },
    {
     "referenced_type" : "_ZTIRj"
    }
   ],
   "return_type" : "_ZTIv",
   "source_file" : "external/libcxx/include/optional"
  },
  {
   "function_name" : "std::__1::__optional_destruct_base<long, true>::__optional_destruct_base",
   "linker_set_key" : "_ZNSt3__124__optional_destruct_baseIlLb1EEC1Ev",
   "parameters" :
   [
    {
     "is_this_ptr" : true,
     "referenced_type" : "_ZTIPNSt3__124__optional_destruct_baseIlLb1EEE"
    }
   ],
   "return_type" : "_ZTIv",
   "source_file" : "external/libcxx/include/optional"
  },
  {
   "function_name" : "std::__1::__optional_destruct_base<long, true>::__optional_destruct_base",
   "linker_set_key" : "_ZNSt3__124__optional_destruct_baseIlLb1EEC1IJRlEEENS_10in_place_tEDpOT_",
   "parameters" :
   [
    {
     "is_this_ptr" : true,
     "referenced_type" : "_ZTIPNSt3__124__optional_destruct_baseIlLb1EEE"
    },
    {
     "referenced_type" : "_ZTINSt3__110in_place_tE"
    },
    {
     "referenced_type" : "_ZTIRl"
    }
   ],
   "return_type" : "_ZTIv",
   "source_file" : "external/libcxx/include/optional"
  },
  {
   "function_name" : "std::__1::__optional_destruct_base<long, true>::__optional_destruct_base",
   "linker_set_key" : "_ZNSt3__124__optional_destruct_baseIlLb1EEC2Ev",
   "parameters" :
   [
    {
     "is_this_ptr" : true,
     "referenced_type" : "_ZTIPNSt3__124__optional_destruct_baseIlLb1EEE"
    }
   ],
   "return_type" : "_ZTIv",
   "source_file" : "external/libcxx/include/optional"
  },
  {
   "function_name" : "std::__1::__optional_destruct_base<long, true>::__optional_destruct_base",
   "linker_set_key" : "_ZNSt3__124__optional_destruct_baseIlLb1EEC2IJRlEEENS_10in_place_tEDpOT_",
   "parameters" :
   [
    {
     "is_this_ptr" : true,
     "referenced_type" : "_ZTIPNSt3__124__optional_destruct_baseIlLb1EEE"
    },
    {
     "referenced_type" : "_ZTINSt3__110in_place_tE"
    },
    {
     "referenced_type" : "_ZTIRl"
    }
   ],
   "return_type" : "_ZTIv",
   "source_file" : "external/libcxx/include/optional"
  },
  {
   "function_name" : "std::__1::__optional_destruct_base<unsigned long, true>::__optional_destruct_base",
   "linker_set_key" : "_ZNSt3__124__optional_destruct_baseImLb1EEC1Ev",
   "parameters" :
   [
    {
     "is_this_ptr" : true,
     "referenced_type" : "_ZTIPNSt3__124__optional_destruct_baseImLb1EEE"
    }
   ],
   "return_type" : "_ZTIv",
   "source_file" : "external/libcxx/include/optional"
  },
  {
   "function_name" : "std::__1::__optional_destruct_base<unsigned long, true>::__optional_destruct_base",
   "linker_set_key" : "_ZNSt3__124__optional_destruct_baseImLb1EEC1IJRmEEENS_10in_place_tEDpOT_",
   "parameters" :
   [
    {
     "is_this_ptr" : true,
     "referenced_type" : "_ZTIPNSt3__124__optional_destruct_baseImLb1EEE"
    },
    {
     "referenced_type" : "_ZTINSt3__110in_place_tE"
    },
    {
     "referenced_type" : "_ZTIRm"
    }
   ],
   "return_type" : "_ZTIv",
   "source_file" : "external/libcxx/include/optional"
  },
  {
   "function_name" : "std::__1::__optional_destruct_base<unsigned long, true>::__optional_destruct_base",
   "linker_set_key" : "_ZNSt3__124__optional_destruct_baseImLb1EEC2Ev",
   "parameters" :
   [
    {
     "is_this_ptr" : true,
     "referenced_type" : "_ZTIPNSt3__124__optional_destruct_baseImLb1EEE"
    }
   ],
   "return_type" : "_ZTIv",
   "source_file" : "external/libcxx/include/optional"
  },
  {
   "function_name" : "std::__1::__optional_destruct_base<unsigned long, true>::__optional_destruct_base",
   "linker_set_key" : "_ZNSt3__124__optional_destruct_baseImLb1EEC2IJRmEEENS_10in_place_tEDpOT_",
   "parameters" :
   [
    {
     "is_this_ptr" : true,
     "referenced_type" : "_ZTIPNSt3__124__optional_destruct_baseImLb1EEE"
    },
    {
     "referenced_type" : "_ZTINSt3__110in_place_tE"
    },
    {
     "referenced_type" : "_ZTIRm"
    }
   ],
   "return_type" : "_ZTIv",
   "source_file" : "external/libcxx/include/optional"
  },
  {
   "function_name" : "std::__1::__throw_invalid_argument",
   "linker_set_key" : "_ZNSt3__124__throw_invalid_argumentEPKc",
   "parameters" :
   [
    {
     "referenced_type" : "_ZTIPKc"
    }
   ],
   "return_type" : "_ZTIv",
   "source_file" : "external/libcxx/include/stdexcept"
  },
  {
   "function_name" : "std::__1::atomic_flag_test_and_set",
   "linker_set_key" : "_ZNSt3__124atomic_flag_test_and_setEPNS_11atomic_flagE",
   "parameters" :
   [
    {
     "referenced_type" : "_ZTIPNSt3__111atomic_flagE"
    }
   ],
   "return_type" : "_ZTIb",
   "source_file" : "external/libcxx/include/atomic"
  },
  {
   "function_name" : "std::__1::atomic_flag_test_and_set",
   "linker_set_key" : "_ZNSt3__124atomic_flag_test_and_setEPVNS_11atomic_flagE",
   "parameters" :
   [
    {
     "referenced_type" : "_ZTIPVNSt3__111atomic_flagE"
    }
   ],
   "return_type" : "_ZTIb",
   "source_file" : "external/libcxx/include/atomic"
  },
  {
   "function_name" : "std::__1::__throw_bad_function_call",
   "linker_set_key" : "_ZNSt3__125__throw_bad_function_callEv",
   "return_type" : "_ZTIv",
   "source_file" : "external/libcxx/include/functional"
  },
  {
   "function_name" : "std::__1::atomic_flag_clear_explicit",
   "linker_set_key" : "_ZNSt3__126atomic_flag_clear_explicitEPNS_11atomic_flagENS_12memory_orderE",
   "parameters" :
   [
    {
     "referenced_type" : "_ZTIPNSt3__111atomic_flagE"
    },
    {
     "referenced_type" : "_ZTINSt3__112memory_orderE"
    }
   ],
   "return_type" : "_ZTIv",
   "source_file" : "external/libcxx/include/atomic"
  },
  {
   "function_name" : "std::__1::atomic_flag_clear_explicit",
   "linker_set_key" : "_ZNSt3__126atomic_flag_clear_explicitEPVNS_11atomic_flagENS_12memory_orderE",
   "parameters" :
   [
    {
     "referenced_type" : "_ZTIPVNSt3__111atomic_flagE"
    },
    {
     "referenced_type" : "_ZTINSt3__112memory_orderE"
    }
   ],
   "return_type" : "_ZTIv",
   "source_file" : "external/libcxx/include/atomic"
  },
  {
   "function_name" : "std::__1::__libcpp_deallocate_unsized",
   "linker_set_key" : "_ZNSt3__127__libcpp_deallocate_unsizedEPvm",
   "parameters" :
   [
    {
     "referenced_type" : "_ZTIPv"
    },
    {
     "referenced_type" : "_ZTIm"
    }
   ],
   "return_type" : "_ZTIv",
   "source_file" : "external/libcxx/include/new"
  },
  {
   "function_name" : "std::__1::__optional_copy_assign_base<std::__1::basic_string<char>, false>::__optional_copy_assign_base",
   "linker_set_key" : "_ZNSt3__127__optional_copy_assign_baseINS_12basic_stringIcNS_11char_traitsIcEENS_9allocatorIcEEEELb0EEC1EOS7_",
   "parameters" :
   [
    {
     "is_this_ptr" : true,
     "referenced_type" : "_ZTIPNSt3__127__optional_copy_assign_baseINS_12basic_stringIcNS_11char_traitsIcEENS_9allocatorIcEEEELb0EEE"
    },
    {
     "referenced_type" : "_ZTIONSt3__127__optional_copy_assign_baseINS_12basic_stringIcNS_11char_traitsIcEENS_9allocatorIcEEEELb0EEE"
    }
   ],
   "return_type" : "_ZTIv",
   "source_file" : "external/libcxx/include/optional"
  },
  {
   "function_name" : "std::__1::__optional_copy_assign_base<std::__1::basic_string<char>, false>::__optional_copy_assign_base",
   "linker_set_key" : "_ZNSt3__127__optional_copy_assign_baseINS_12basic_stringIcNS_11char_traitsIcEENS_9allocatorIcEEEELb0EEC1ERKS7_",
   "parameters" :
   [
    {
     "is_this_ptr" : true,
     "referenced_type" : "_ZTIPNSt3__127__optional_copy_assign_baseINS_12basic_stringIcNS_11char_traitsIcEENS_9allocatorIcEEEELb0EEE"
    },
    {
     "referenced_type" : "_ZTIRKNSt3__127__optional_copy_assign_baseINS_12basic_stringIcNS_11char_traitsIcEENS_9allocatorIcEEEELb0EEE"
    }
   ],
   "return_type" : "_ZTIv",
   "source_file" : "external/libcxx/include/optional"
  },
  {
   "function_name" : "std::__1::__optional_copy_assign_base<std::__1::basic_string<char>, false>::__optional_copy_assign_base",
   "linker_set_key" : "_ZNSt3__127__optional_copy_assign_baseINS_12basic_stringIcNS_11char_traitsIcEENS_9allocatorIcEEEELb0EEC1Ev",
   "parameters" :
   [
    {
     "is_this_ptr" : true,
     "referenced_type" : "_ZTIPNSt3__127__optional_copy_assign_baseINS_12basic_stringIcNS_11char_traitsIcEENS_9allocatorIcEEEELb0EEE"
    }
   ],
   "return_type" : "_ZTIv",
   "source_file" : "external/libcxx/include/optional"
  },
  {
   "function_name" : "std::__1::__optional_copy_assign_base<std::__1::basic_string<char>, false>::__optional_copy_assign_base",
   "linker_set_key" : "_ZNSt3__127__optional_copy_assign_baseINS_12basic_stringIcNS_11char_traitsIcEENS_9allocatorIcEEEELb0EEC2EOS7_",
   "parameters" :
   [
    {
     "is_this_ptr" : true,
     "referenced_type" : "_ZTIPNSt3__127__optional_copy_assign_baseINS_12basic_stringIcNS_11char_traitsIcEENS_9allocatorIcEEEELb0EEE"
    },
    {
     "referenced_type" : "_ZTIONSt3__127__optional_copy_assign_baseINS_12basic_stringIcNS_11char_traitsIcEENS_9allocatorIcEEEELb0EEE"
    }
   ],
   "return_type" : "_ZTIv",
   "source_file" : "external/libcxx/include/optional"
  },
  {
   "function_name" : "std::__1::__optional_copy_assign_base<std::__1::basic_string<char>, false>::__optional_copy_assign_base",
   "linker_set_key" : "_ZNSt3__127__optional_copy_assign_baseINS_12basic_stringIcNS_11char_traitsIcEENS_9allocatorIcEEEELb0EEC2ERKS7_",
   "parameters" :
   [
    {
     "is_this_ptr" : true,
     "referenced_type" : "_ZTIPNSt3__127__optional_copy_assign_baseINS_12basic_stringIcNS_11char_traitsIcEENS_9allocatorIcEEEELb0EEE"
    },
    {
     "referenced_type" : "_ZTIRKNSt3__127__optional_copy_assign_baseINS_12basic_stringIcNS_11char_traitsIcEENS_9allocatorIcEEEELb0EEE"
    }
   ],
   "return_type" : "_ZTIv",
   "source_file" : "external/libcxx/include/optional"
  },
  {
   "function_name" : "std::__1::__optional_copy_assign_base<std::__1::basic_string<char>, false>::__optional_copy_assign_base",
   "linker_set_key" : "_ZNSt3__127__optional_copy_assign_baseINS_12basic_stringIcNS_11char_traitsIcEENS_9allocatorIcEEEELb0EEC2Ev",
   "parameters" :
   [
    {
     "is_this_ptr" : true,
     "referenced_type" : "_ZTIPNSt3__127__optional_copy_assign_baseINS_12basic_stringIcNS_11char_traitsIcEENS_9allocatorIcEEEELb0EEE"
    }
   ],
   "return_type" : "_ZTIv",
   "source_file" : "external/libcxx/include/optional"
  },
  {
   "function_name" : "std::__1::__optional_move_assign_base<std::__1::basic_string<char>, false>::__optional_move_assign_base",
   "linker_set_key" : "_ZNSt3__127__optional_move_assign_baseINS_12basic_stringIcNS_11char_traitsIcEENS_9allocatorIcEEEELb0EEC1EOS7_",
   "parameters" :
   [
    {
     "is_this_ptr" : true,
     "referenced_type" : "_ZTIPNSt3__127__optional_move_assign_baseINS_12basic_stringIcNS_11char_traitsIcEENS_9allocatorIcEEEELb0EEE"
    },
    {
     "referenced_type" : "_ZTIONSt3__127__optional_move_assign_baseINS_12basic_stringIcNS_11char_traitsIcEENS_9allocatorIcEEEELb0EEE"
    }
   ],
   "return_type" : "_ZTIv",
   "source_file" : "external/libcxx/include/optional"
  },
  {
   "function_name" : "std::__1::__optional_move_assign_base<std::__1::basic_string<char>, false>::__optional_move_assign_base",
   "linker_set_key" : "_ZNSt3__127__optional_move_assign_baseINS_12basic_stringIcNS_11char_traitsIcEENS_9allocatorIcEEEELb0EEC1ERKS7_",
   "parameters" :
   [
    {
     "is_this_ptr" : true,
     "referenced_type" : "_ZTIPNSt3__127__optional_move_assign_baseINS_12basic_stringIcNS_11char_traitsIcEENS_9allocatorIcEEEELb0EEE"
    },
    {
     "referenced_type" : "_ZTIRKNSt3__127__optional_move_assign_baseINS_12basic_stringIcNS_11char_traitsIcEENS_9allocatorIcEEEELb0EEE"
    }
   ],
   "return_type" : "_ZTIv",
   "source_file" : "external/libcxx/include/optional"
  },
  {
   "function_name" : "std::__1::__optional_move_assign_base<std::__1::basic_string<char>, false>::__optional_move_assign_base",
   "linker_set_key" : "_ZNSt3__127__optional_move_assign_baseINS_12basic_stringIcNS_11char_traitsIcEENS_9allocatorIcEEEELb0EEC1Ev",
   "parameters" :
   [
    {
     "is_this_ptr" : true,
     "referenced_type" : "_ZTIPNSt3__127__optional_move_assign_baseINS_12basic_stringIcNS_11char_traitsIcEENS_9allocatorIcEEEELb0EEE"
    }
   ],
   "return_type" : "_ZTIv",
   "source_file" : "external/libcxx/include/optional"
  },
  {
   "function_name" : "std::__1::__optional_move_assign_base<std::__1::basic_string<char>, false>::__optional_move_assign_base",
   "linker_set_key" : "_ZNSt3__127__optional_move_assign_baseINS_12basic_stringIcNS_11char_traitsIcEENS_9allocatorIcEEEELb0EEC2EOS7_",
   "parameters" :
   [
    {
     "is_this_ptr" : true,
     "referenced_type" : "_ZTIPNSt3__127__optional_move_assign_baseINS_12basic_stringIcNS_11char_traitsIcEENS_9allocatorIcEEEELb0EEE"
    },
    {
     "referenced_type" : "_ZTIONSt3__127__optional_move_assign_baseINS_12basic_stringIcNS_11char_traitsIcEENS_9allocatorIcEEEELb0EEE"
    }
   ],
   "return_type" : "_ZTIv",
   "source_file" : "external/libcxx/include/optional"
  },
  {
   "function_name" : "std::__1::__optional_move_assign_base<std::__1::basic_string<char>, false>::__optional_move_assign_base",
   "linker_set_key" : "_ZNSt3__127__optional_move_assign_baseINS_12basic_stringIcNS_11char_traitsIcEENS_9allocatorIcEEEELb0EEC2ERKS7_",
   "parameters" :
   [
    {
     "is_this_ptr" : true,
     "referenced_type" : "_ZTIPNSt3__127__optional_move_assign_baseINS_12basic_stringIcNS_11char_traitsIcEENS_9allocatorIcEEEELb0EEE"
    },
    {
     "referenced_type" : "_ZTIRKNSt3__127__optional_move_assign_baseINS_12basic_stringIcNS_11char_traitsIcEENS_9allocatorIcEEEELb0EEE"
    }
   ],
   "return_type" : "_ZTIv",
   "source_file" : "external/libcxx/include/optional"
  },
  {
   "function_name" : "std::__1::__optional_move_assign_base<std::__1::basic_string<char>, false>::__optional_move_assign_base",
   "linker_set_key" : "_ZNSt3__127__optional_move_assign_baseINS_12basic_stringIcNS_11char_traitsIcEENS_9allocatorIcEEEELb0EEC2Ev",
   "parameters" :
   [
    {
     "is_this_ptr" : true,
     "referenced_type" : "_ZTIPNSt3__127__optional_move_assign_baseINS_12basic_stringIcNS_11char_traitsIcEENS_9allocatorIcEEEELb0EEE"
    }
   ],
   "return_type" : "_ZTIv",
   "source_file" : "external/libcxx/include/optional"
  },
  {
   "function_name" : "std::__1::__optional_move_assign_base<std::__1::basic_string<char>, false>::operator=",
   "linker_set_key" : "_ZNSt3__127__optional_move_assign_baseINS_12basic_stringIcNS_11char_traitsIcEENS_9allocatorIcEEEELb0EEaSERKS7_",
   "parameters" :
   [
    {
     "is_this_ptr" : true,
     "referenced_type" : "_ZTIPNSt3__127__optional_move_assign_baseINS_12basic_stringIcNS_11char_traitsIcEENS_9allocatorIcEEEELb0EEE"
    },
    {
     "referenced_type" : "_ZTIRKNSt3__127__optional_move_assign_baseINS_12basic_stringIcNS_11char_traitsIcEENS_9allocatorIcEEEELb0EEE"
    }
   ],
   "return_type" : "_ZTIRNSt3__127__optional_move_assign_baseINS_12basic_stringIcNS_11char_traitsIcEENS_9allocatorIcEEEELb0EEE",
   "source_file" : "external/libcxx/include/optional"
  },
  {
   "function_name" : "std::__1::__throw_bad_optional_access",
   "linker_set_key" : "_ZNSt3__127__throw_bad_optional_accessEv",
   "return_type" : "_ZTIv",
   "source_file" : "external/libcxx/include/optional"
  },
  {
   "function_name" : "std::__1::__check_tuple_constructor_fail::__enable_assign",
   "linker_set_key" : "_ZNSt3__130__check_tuple_constructor_fail15__enable_assignIJNS_4pairImmEEEEEbv",
   "return_type" : "_ZTIb",
   "source_file" : "external/libcxx/include/__tuple"
  },
  {
   "function_name" : "std::__1::__check_tuple_constructor_fail::__enable_explicit",
   "linker_set_key" : "_ZNSt3__130__check_tuple_constructor_fail17__enable_explicitIJNS_12basic_stringIcNS_11char_traitsIcEENS_9allocatorIcEEEEEEEbv",
   "return_type" : "_ZTIb",
   "source_file" : "external/libcxx/include/__tuple"
  },
  {
   "function_name" : "std::__1::__check_tuple_constructor_fail::__enable_explicit",
   "linker_set_key" : "_ZNSt3__130__check_tuple_constructor_fail17__enable_explicitIJNS_8optionalINS_12basic_stringIcNS_11char_traitsIcEENS_9allocatorIcEEEEEEEEEbv",
   "return_type" : "_ZTIb",
   "source_file" : "external/libcxx/include/__tuple"
  },
  {
   "function_name" : "std::__1::__check_tuple_constructor_fail::__enable_explicit",
   "linker_set_key" : "_ZNSt3__130__check_tuple_constructor_fail17__enable_explicitIJRKNS_8optionalINS_12basic_stringIcNS_11char_traitsIcEENS_9allocatorIcEEEEEEEEEbv",
   "return_type" : "_ZTIb",
   "source_file" : "external/libcxx/include/__tuple"
  },
  {
   "function_name" : "std::__1::__check_tuple_constructor_fail::__enable_implicit",
   "linker_set_key" : "_ZNSt3__130__check_tuple_constructor_fail17__enable_implicitIJNS_12basic_stringIcNS_11char_traitsIcEENS_9allocatorIcEEEEEEEbv",
   "return_type" : "_ZTIb",
   "source_file" : "external/libcxx/include/__tuple"
  },
  {
   "function_name" : "std::__1::__check_tuple_constructor_fail::__enable_implicit",
   "linker_set_key" : "_ZNSt3__130__check_tuple_constructor_fail17__enable_implicitIJNS_8optionalINS_12basic_stringIcNS_11char_traitsIcEENS_9allocatorIcEEEEEEEEEbv",
   "return_type" : "_ZTIb",
   "source_file" : "external/libcxx/include/__tuple"
  },
  {
   "function_name" : "std::__1::__check_tuple_constructor_fail::__enable_implicit",
   "linker_set_key" : "_ZNSt3__130__check_tuple_constructor_fail17__enable_implicitIJRKNS_8optionalINS_12basic_stringIcNS_11char_traitsIcEENS_9allocatorIcEEEEEEEEEbv",
   "return_type" : "_ZTIb",
   "source_file" : "external/libcxx/include/__tuple"
  },
  {
   "function_name" : "std::__1::atomic_flag_test_and_set_explicit",
   "linker_set_key" : "_ZNSt3__133atomic_flag_test_and_set_explicitEPNS_11atomic_flagENS_12memory_orderE",
   "parameters" :
   [
    {
     "referenced_type" : "_ZTIPNSt3__111atomic_flagE"
    },
    {
     "referenced_type" : "_ZTINSt3__112memory_orderE"
    }
   ],
   "return_type" : "_ZTIb",
   "source_file" : "external/libcxx/include/atomic"
  },
  {
   "function_name" : "std::__1::atomic_flag_test_and_set_explicit",
   "linker_set_key" : "_ZNSt3__133atomic_flag_test_and_set_explicitEPVNS_11atomic_flagENS_12memory_orderE",
   "parameters" :
   [
    {
     "referenced_type" : "_ZTIPVNSt3__111atomic_flagE"
    },
    {
     "referenced_type" : "_ZTINSt3__112memory_orderE"
    }
   ],
   "return_type" : "_ZTIb",
   "source_file" : "external/libcxx/include/atomic"
  },
  {
   "function_name" : "std::__1::__libcpp_atomic_refcount_decrement",
   "linker_set_key" : "_ZNSt3__134__libcpp_atomic_refcount_decrementIlEET_RS1_",
   "parameters" :
   [
    {
     "referenced_type" : "_ZTIRl"
    }
   ],
   "return_type" : "_ZTIl",
   "source_file" : "external/libcxx/include/memory",
   "template_args" : [ "_ZTIl" ]
  },
  {
   "function_name" : "std::__1::__libcpp_atomic_refcount_increment",
   "linker_set_key" : "_ZNSt3__134__libcpp_atomic_refcount_incrementIlEET_RS1_",
   "parameters" :
   [
    {
     "referenced_type" : "_ZTIRl"
    }
   ],
   "return_type" : "_ZTIl",
   "source_file" : "external/libcxx/include/memory",
   "template_args" : [ "_ZTIl" ]
  },
  {
   "function_name" : "std::__1::max",
   "linker_set_key" : "_ZNSt3__13maxImEERKT_S3_S3_",
   "parameters" :
   [
    {
     "referenced_type" : "_ZTIRKm"
    },
    {
     "referenced_type" : "_ZTIRKm"
    }
   ],
   "return_type" : "_ZTIRKm",
   "source_file" : "external/libcxx/include/algorithm",
   "template_args" : [ "_ZTIm" ]
  },
  {
   "function_name" : "std::__1::max",
   "linker_set_key" : "_ZNSt3__13maxImNS_6__lessImmEEEERKT_S5_S5_T0_",
   "parameters" :
   [
    {
     "referenced_type" : "_ZTIRKm"
    },
    {
     "referenced_type" : "_ZTIRKm"
    },
    {
     "referenced_type" : "_ZTINSt3__16__lessImmEE"
    }
   ],
   "return_type" : "_ZTIRKm",
   "source_file" : "external/libcxx/include/algorithm",
   "template_args" : [ "_ZTIm", "_ZTINSt3__16__lessImmEE" ]
  },
  {
   "function_name" : "std::__1::min",
   "linker_set_key" : "_ZNSt3__13minImEERKT_S3_S3_",
   "parameters" :
   [
    {
     "referenced_type" : "_ZTIRKm"
    },
    {
     "referenced_type" : "_ZTIRKm"
    }
   ],
   "return_type" : "_ZTIRKm",
   "source_file" : "external/libcxx/include/algorithm",
   "template_args" : [ "_ZTIm" ]
  },
  {
   "function_name" : "std::__1::min",
   "linker_set_key" : "_ZNSt3__13minImNS_6__lessImmEEEERKT_S5_S5_T0_",
   "parameters" :
   [
    {
     "referenced_type" : "_ZTIRKm"
    },
    {
     "referenced_type" : "_ZTIRKm"
    },
    {
     "referenced_type" : "_ZTINSt3__16__lessImmEE"
    }
   ],
   "return_type" : "_ZTIRKm",
   "source_file" : "external/libcxx/include/algorithm",
   "template_args" : [ "_ZTIm", "_ZTINSt3__16__lessImmEE" ]
  },
  {
   "function_name" : "std::__1::move",
   "linker_set_key" : "_ZNSt3__14moveIRNS_12basic_stringIcNS_11char_traitsIcEENS_9allocatorIcEEEEEEONS_16remove_referenceIT_E4typeEOS9_",
   "parameters" :
   [
    {
     "referenced_type" : "_ZTIRNSt3__112basic_stringIcNS_11char_traitsIcEENS_9allocatorIcEEEE"
    }
   ],
   "return_type" : "_ZTIONSt3__112basic_stringIcNS_11char_traitsIcEENS_9allocatorIcEEEE",
   "source_file" : "external/libcxx/include/type_traits",
   "template_args" : [ "_ZTIRNSt3__112basic_stringIcNS_11char_traitsIcEENS_9allocatorIcEEEE" ]
  },
  {
   "function_name" : "std::__1::move",
   "linker_set_key" : "_ZNSt3__14moveIRNS_17__compressed_pairINS_12basic_stringIcNS_11char_traitsIcEENS_9allocatorIcEEE5__repES6_EEEEONS_16remove_referenceIT_E4typeEOSC_",
   "parameters" :
   [
    {
     "referenced_type" : "_ZTIRNSt3__117__compressed_pairINS_12basic_stringIcNS_11char_traitsIcEENS_9allocatorIcEEE5__repES5_EE"
    }
   ],
   "return_type" : "_ZTIONSt3__117__compressed_pairINS_12basic_stringIcNS_11char_traitsIcEENS_9allocatorIcEEE5__repES5_EE",
   "source_file" : "external/libcxx/include/type_traits",
   "template_args" :
   [
    "_ZTIRNSt3__117__compressed_pairINS_12basic_stringIcNS_11char_traitsIcEENS_9allocatorIcEEE5__repES5_EE"
   ]
  },
  {
   "function_name" : "std::__1::move",
   "linker_set_key" : "_ZNSt3__14moveIRNS_20__optional_move_baseINS_12basic_stringIcNS_11char_traitsIcEENS_9allocatorIcEEEELb0EEEEEONS_16remove_referenceIT_E4typeEOSB_",
   "parameters" :
   [
    {
     "referenced_type" : "_ZTIRNSt3__120__optional_move_baseINS_12basic_stringIcNS_11char_traitsIcEENS_9allocatorIcEEEELb0EEE"
    }
   ],
   "return_type" : "_ZTIONSt3__120__optional_move_baseINS_12basic_stringIcNS_11char_traitsIcEENS_9allocatorIcEEEELb0EEE",
   "source_file" : "external/libcxx/include/type_traits",
   "template_args" :
   [
    "_ZTIRNSt3__120__optional_move_baseINS_12basic_stringIcNS_11char_traitsIcEENS_9allocatorIcEEEELb0EEE"
   ]
  },
  {
   "function_name" : "std::__1::move",
   "linker_set_key" : "_ZNSt3__14moveIRNS_8optionalINS_12basic_stringIcNS_11char_traitsIcEENS_9allocatorIcEEEEEEEEONS_16remove_referenceIT_E4typeEOSB_",
   "parameters" :
   [
    {
     "referenced_type" : "_ZTIRNSt3__18optionalINS_12basic_stringIcNS_11char_traitsIcEENS_9allocatorIcEEEEEE"
    }
   ],
   "return_type" : "_ZTIONSt3__18optionalINS_12basic_stringIcNS_11char_traitsIcEENS_9allocatorIcEEEEEE",
   "source_file" : "external/libcxx/include/type_traits",
   "template_args" :
   [
    "_ZTIRNSt3__18optionalINS_12basic_stringIcNS_11char_traitsIcEENS_9allocatorIcEEEEEE"
   ]
  },
  {
   "function_name" : "std::__1::move",
   "linker_set_key" : "_ZNSt3__14moveIRNS_8optionalIPKcEEEEONS_16remove_referenceIT_E4typeEOS7_",
   "parameters" :
   [
    {
     "referenced_type" : "_ZTIRNSt3__18optionalIPKcEE"
    }
   ],
   "return_type" : "_ZTIONSt3__18optionalIPKcEE",
   "source_file" : "external/libcxx/include/type_traits",
   "template_args" : [ "_ZTIRNSt3__18optionalIPKcEE" ]
  },
  {
   "function_name" : "std::__1::move",
   "linker_set_key" : "_ZNSt3__14moveIRNS_9allocatorINS_8optionalINS_12basic_stringIcNS_11char_traitsIcEENS1_IcEEEEEEEEEEONS_16remove_referenceIT_E4typeEOSC_",
   "parameters" :
   [
    {
     "referenced_type" : "_ZTIRNSt3__19allocatorINS_8optionalINS_12basic_stringIcNS_11char_traitsIcEENS0_IcEEEEEEEE"
    }
   ],
   "return_type" : "_ZTIONSt3__19allocatorINS_8optionalINS_12basic_stringIcNS_11char_traitsIcEENS0_IcEEEEEEEE",
   "source_file" : "external/libcxx/include/type_traits",
   "template_args" :
   [
    "_ZTIRNSt3__19allocatorINS_8optionalINS_12basic_stringIcNS_11char_traitsIcEENS0_IcEEEEEEEE"
   ]
  },
  {
   "function_name" : "std::__1::move",
   "linker_set_key" : "_ZNSt3__14moveIRPKcEEONS_16remove_referenceIT_E4typeEOS5_",
   "parameters" :
   [
    {
     "referenced_type" : "_ZTIRPKc"
    }
   ],
   "return_type" : "_ZTIOPKc",
   "source_file" : "external/libcxx/include/type_traits",
   "template_args" : [ "_ZTIRPKc" ]
  },
  {
   "function_name" : "std::__1::move",
   "linker_set_key" : "_ZNSt3__14moveIRPNS_8optionalINS_12basic_stringIcNS_11char_traitsIcEENS_9allocatorIcEEEEEEEEONS_16remove_referenceIT_E4typeEOSC_",
   "parameters" :
   [
    {
     "referenced_type" : "_ZTIRPNSt3__18optionalINS_12basic_stringIcNS_11char_traitsIcEENS_9allocatorIcEEEEEE"
    }
   ],
   "return_type" : "_ZTIOPNSt3__18optionalINS_12basic_stringIcNS_11char_traitsIcEENS_9allocatorIcEEEEEE",
   "source_file" : "external/libcxx/include/type_traits",
   "template_args" :
   [
    "_ZTIRPNSt3__18optionalINS_12basic_stringIcNS_11char_traitsIcEENS_9allocatorIcEEEEEE"
   ]
  },
  {
   "function_name" : "std::__1::move",
   "linker_set_key" : "_ZNSt3__14moveIRmEEONS_16remove_referenceIT_E4typeEOS3_",
   "parameters" :
   [
    {
     "referenced_type" : "_ZTIRm"
    }
   ],
   "return_type" : "_ZTIOm",
   "source_file" : "external/libcxx/include/type_traits",
   "template_args" : [ "_ZTIRm" ]
  },
  {
   "function_name" : "std::__1::pair<unsigned long, unsigned long>::_CheckArgs::__enable_explicit",
   "linker_set_key" : "_ZNSt3__14pairImmE10_CheckArgs17__enable_explicitIRKmS5_EEbv",
   "return_type" : "_ZTIb",
   "source_file" : "external/libcxx/include/utility",
   "template_args" : [ "_ZTIRKm", "_ZTIRKm" ]
  },
  {
   "function_name" : "std::__1::pair<unsigned long, unsigned long>::_CheckArgs::__enable_explicit",
   "linker_set_key" : "_ZNSt3__14pairImmE10_CheckArgs17__enable_explicitImmEEbv",
   "return_type" : "_ZTIb",
   "source_file" : "external/libcxx/include/utility",
   "template_args" : [ "_ZTIm", "_ZTIm" ]
  },
  {
   "function_name" : "std::__1::pair<unsigned long, unsigned long>::_CheckArgs::__enable_implicit",
   "linker_set_key" : "_ZNSt3__14pairImmE10_CheckArgs17__enable_implicitIRKmS5_EEbv",
   "return_type" : "_ZTIb",
   "source_file" : "external/libcxx/include/utility",
   "template_args" : [ "_ZTIRKm", "_ZTIRKm" ]
  },
  {
   "function_name" : "std::__1::pair<unsigned long, unsigned long>::_CheckArgs::__enable_implicit",
   "linker_set_key" : "_ZNSt3__14pairImmE10_CheckArgs17__enable_implicitImmEEbv",
   "return_type" : "_ZTIb",
   "source_file" : "external/libcxx/include/utility",
   "template_args" : [ "_ZTIm", "_ZTIm" ]
  },
  {
   "function_name" : "std::__1::pair<unsigned long, unsigned long>::pair",
   "linker_set_key" : "_ZNSt3__14pairImmEC1EOS1_",
   "parameters" :
   [
    {
     "is_this_ptr" : true,
     "referenced_type" : "_ZTIPNSt3__14pairImmEE"
    },
    {
     "referenced_type" : "_ZTIONSt3__14pairImmEE"
    }
   ],
   "return_type" : "_ZTIv",
   "source_file" : "external/libcxx/include/utility"
  },
  {
   "function_name" : "std::__1::pair<unsigned long, unsigned long>::pair",
   "linker_set_key" : "_ZNSt3__14pairImmEC1ERKS1_",
   "parameters" :
   [
    {
     "is_this_ptr" : true,
     "referenced_type" : "_ZTIPNSt3__14pairImmEE"
    },
    {
     "referenced_type" : "_ZTIRKNSt3__14pairImmEE"
    }
   ],
   "return_type" : "_ZTIv",
   "source_file" : "external/libcxx/include/utility"
  },
  {
   "function_name" : "std::__1::pair<unsigned long, unsigned long>::pair",
   "linker_set_key" : "_ZNSt3__14pairImmEC1ImmLb0EEEOT_OT0_",
   "parameters" :
   [
    {
     "is_this_ptr" : true,
     "referenced_type" : "_ZTIPNSt3__14pairImmEE"
    },
    {
     "referenced_type" : "_ZTIOm"
    },
    {
     "referenced_type" : "_ZTIOm"
    }
   ],
   "return_type" : "_ZTIv",
   "source_file" : "external/libcxx/include/utility",
   "template_args" : [ "_ZTIm", "_ZTIm" ]
  },
  {
   "function_name" : "std::__1::pair<unsigned long, unsigned long>::pair",
   "linker_set_key" : "_ZNSt3__14pairImmEC2EOS1_",
   "parameters" :
   [
    {
     "is_this_ptr" : true,
     "referenced_type" : "_ZTIPNSt3__14pairImmEE"
    },
    {
     "referenced_type" : "_ZTIONSt3__14pairImmEE"
    }
   ],
   "return_type" : "_ZTIv",
   "source_file" : "external/libcxx/include/utility"
  },
  {
   "function_name" : "std::__1::pair<unsigned long, unsigned long>::pair",
   "linker_set_key" : "_ZNSt3__14pairImmEC2ERKS1_",
   "parameters" :
   [
    {
     "is_this_ptr" : true,
     "referenced_type" : "_ZTIPNSt3__14pairImmEE"
    },
    {
     "referenced_type" : "_ZTIRKNSt3__14pairImmEE"
    }
   ],
   "return_type" : "_ZTIv",
   "source_file" : "external/libcxx/include/utility"
  },
  {
   "function_name" : "std::__1::pair<unsigned long, unsigned long>::pair",
   "linker_set_key" : "_ZNSt3__14pairImmEC2ImmLb0EEEOT_OT0_",
   "parameters" :
   [
    {
     "is_this_ptr" : true,
     "referenced_type" : "_ZTIPNSt3__14pairImmEE"
    },
    {
     "referenced_type" : "_ZTIOm"
    },
    {
     "referenced_type" : "_ZTIOm"
    }
   ],
   "return_type" : "_ZTIv",
   "source_file" : "external/libcxx/include/utility",
   "template_args" : [ "_ZTIm", "_ZTIm" ]
  },
  {
   "function_name" : "std::__1::pair<unsigned long, unsigned long>::operator=",
   "linker_set_key" : "_ZNSt3__14pairImmEaSEOS1_",
   "parameters" :
   [
    {
     "is_this_ptr" : true,
     "referenced_type" : "_ZTIPNSt3__14pairImmEE"
    },
    {
     "referenced_type" : "_ZTIONSt3__14pairImmEE"
    }
   ],
   "return_type" : "_ZTIRNSt3__14pairImmEE",
   "source_file" : "external/libcxx/include/utility"
  },
  {
   "function_name" : "std::__1::swap",
   "linker_set_key" : "_ZNSt3__14swapIPNS_8optionalINS_12basic_stringIcNS_11char_traitsIcEENS_9allocatorIcEEEEEEEENS_9enable_ifIXaasr21is_move_constructibleIT_EE5valuesr18is_move_assignableISB_EE5valueEvE4typeERSB_SE_",
   "parameters" :
   [
    {
     "referenced_type" : "_ZTIRPNSt3__18optionalINS_12basic_stringIcNS_11char_traitsIcEENS_9allocatorIcEEEEEE"
    },
    {
     "referenced_type" : "_ZTIRPNSt3__18optionalINS_12basic_stringIcNS_11char_traitsIcEENS_9allocatorIcEEEEEE"
    }
   ],
   "return_type" : "_ZTIv",
   "source_file" : "external/libcxx/include/type_traits",
   "template_args" :
   [
    "_ZTIPNSt3__18optionalINS_12basic_stringIcNS_11char_traitsIcEENS_9allocatorIcEEEEEE"
   ]
  },
  {
   "function_name" : "std::__1::swap",
   "linker_set_key" : "_ZNSt3__14swapImEENS_9enable_ifIXaasr21is_move_constructibleIT_EE5valuesr18is_move_assignableIS2_EE5valueEvE4typeERS2_S5_",
   "parameters" :
   [
    {
     "referenced_type" : "_ZTIRm"
    },
    {
     "referenced_type" : "_ZTIRm"
    }
   ],
   "return_type" : "_ZTIv",
   "source_file" : "external/libcxx/include/type_traits",
   "template_args" : [ "_ZTIm" ]
  },
  {
   "function_name" : "std::__1::__clz",
   "linker_set_key" : "_ZNSt3__15__clzEj",
   "parameters" :
   [
    {
     "referenced_type" : "_ZTIj"
    }
   ],
   "return_type" : "_ZTIi",
   "source_file" : "external/libcxx/include/bit"
  },
  {
   "function_name" : "std::__1::__clz",
   "linker_set_key" : "_ZNSt3__15__clzEm",
   "parameters" :
   [
    {
     "referenced_type" : "_ZTIm"
    }
   ],
   "return_type" : "_ZTIi",
   "source_file" : "external/libcxx/include/bit"
  },
  {
   "function_name" : "std::__1::__clz",
   "linker_set_key" : "_ZNSt3__15__clzEy",
   "parameters" :
   [
    {
     "referenced_type" : "_ZTIy"
    }
   ],
   "return_type" : "_ZTIi",
   "source_file" : "external/libcxx/include/bit"
  },
  {
   "function_name" : "std::__1::__ctz",
   "linker_set_key" : "_ZNSt3__15__ctzEj",
   "parameters" :
   [
    {
     "referenced_type" : "_ZTIj"
    }
   ],
   "return_type" : "_ZTIi",
   "source_file" : "external/libcxx/include/bit"
  },
  {
   "function_name" : "std::__1::__ctz",
   "linker_set_key" : "_ZNSt3__15__ctzEm",
   "parameters" :
   [
    {
     "referenced_type" : "_ZTIm"
    }
   ],
   "return_type" : "_ZTIi",
   "source_file" : "external/libcxx/include/bit"
  },
  {
   "function_name" : "std::__1::__ctz",
   "linker_set_key" : "_ZNSt3__15__ctzEy",
   "parameters" :
   [
    {
     "referenced_type" : "_ZTIy"
    }
   ],
   "return_type" : "_ZTIi",
   "source_file" : "external/libcxx/include/bit"
  },
  {
   "function_name" : "std::__1::tuple<>::swap",
   "linker_set_key" : "_ZNSt3__15tupleIJEE4swapERS1_",
   "parameters" :
   [
    {
     "is_this_ptr" : true,
     "referenced_type" : "_ZTIPNSt3__15tupleIJEEE"
    },
    {
     "referenced_type" : "_ZTIRNSt3__15tupleIJEEE"
    }
   ],
   "return_type" : "_ZTIv",
   "source_file" : "external/libcxx/include/tuple"
  },
  {
   "function_name" : "std::__1::tuple<>::tuple",
   "linker_set_key" : "_ZNSt3__15tupleIJEEC1Ev",
   "parameters" :
   [
    {
     "is_this_ptr" : true,
     "referenced_type" : "_ZTIPNSt3__15tupleIJEEE"
    }
   ],
   "return_type" : "_ZTIv",
   "source_file" : "external/libcxx/include/tuple"
  },
  {
   "function_name" : "std::__1::tuple<>::tuple",
   "linker_set_key" : "_ZNSt3__15tupleIJEEC2Ev",
   "parameters" :
   [
    {
     "is_this_ptr" : true,
     "referenced_type" : "_ZTIPNSt3__15tupleIJEEE"
    }
   ],
   "return_type" : "_ZTIv",
   "source_file" : "external/libcxx/include/tuple"
  },
  {
   "function_name" : "std::__1::vector<std::__1::optional<std::__1::basic_string<char>>, std::__1::allocator<std::__1::optional<std::__1::basic_string<char>>>>::emplace_back",
   "linker_set_key" : "_ZNSt3__16vectorINS_8optionalINS_12basic_stringIcNS_11char_traitsIcEENS_9allocatorIcEEEEEENS5_IS8_EEE12emplace_backIJS8_EEERS8_DpOT_",
   "parameters" :
   [
    {
     "is_this_ptr" : true,
     "referenced_type" : "_ZTIPNSt3__16vectorINS_8optionalINS_12basic_stringIcNS_11char_traitsIcEENS_9allocatorIcEEEEEENS5_IS8_EEEE"
    },
    {
     "referenced_type" : "_ZTIONSt3__18optionalINS_12basic_stringIcNS_11char_traitsIcEENS_9allocatorIcEEEEEE"
    }
   ],
   "return_type" : "_ZTIRNSt3__18optionalINS_12basic_stringIcNS_11char_traitsIcEENS_9allocatorIcEEEEEE",
   "source_file" : "external/libcxx/include/vector"
  },
  {
   "function_name" : "std::__1::vector<std::__1::optional<std::__1::basic_string<char>>, std::__1::allocator<std::__1::optional<std::__1::basic_string<char>>>>::__RAII_IncreaseAnnotator::__done",
   "linker_set_key" : "_ZNSt3__16vectorINS_8optionalINS_12basic_stringIcNS_11char_traitsIcEENS_9allocatorIcEEEEEENS5_IS8_EEE24__RAII_IncreaseAnnotator6__doneEv",
   "parameters" :
   [
    {
     "is_this_ptr" : true,
     "referenced_type" : "_ZTIPNSt3__16vectorINS_8optionalINS_12basic_stringIcNS_11char_traitsIcEENS_9allocatorIcEEEEEENS5_IS8_EEE24__RAII_IncreaseAnnotatorE"
    }
   ],
   "return_type" : "_ZTIv",
   "source_file" : "external/libcxx/include/vector"
  },
  {
   "function_name" : "std::__1::vector<std::__1::optional<std::__1::basic_string<char>>, std::__1::allocator<std::__1::optional<std::__1::basic_string<char>>>>::__RAII_IncreaseAnnotator::__RAII_IncreaseAnnotator",
   "linker_set_key" : "_ZNSt3__16vectorINS_8optionalINS_12basic_stringIcNS_11char_traitsIcEENS_9allocatorIcEEEEEENS5_IS8_EEE24__RAII_IncreaseAnnotatorC1ERKSA_m",
   "parameters" :
   [
    {
     "is_this_ptr" : true,
     "referenced_type" : "_ZTIPNSt3__16vectorINS_8optionalINS_12basic_stringIcNS_11char_traitsIcEENS_9allocatorIcEEEEEENS5_IS8_EEE24__RAII_IncreaseAnnotatorE"
    },
    {
     "referenced_type" : "_ZTIRKNSt3__16vectorINS_8optionalINS_12basic_stringIcNS_11char_traitsIcEENS_9allocatorIcEEEEEENS5_IS8_EEEE"
    },
    {
     "default_arg" : true,
     "referenced_type" : "_ZTIm"
    }
   ],
   "return_type" : "_ZTIv",
   "source_file" : "external/libcxx/include/vector"
  },
  {
   "function_name" : "std::__1::vector<std::__1::optional<std::__1::basic_string<char>>, std::__1::allocator<std::__1::optional<std::__1::basic_string<char>>>>::__RAII_IncreaseAnnotator::__RAII_IncreaseAnnotator",
   "linker_set_key" : "_ZNSt3__16vectorINS_8optionalINS_12basic_stringIcNS_11char_traitsIcEENS_9allocatorIcEEEEEENS5_IS8_EEE24__RAII_IncreaseAnnotatorC2ERKSA_m",
   "parameters" :
   [
    {
     "is_this_ptr" : true,
     "referenced_type" : "_ZTIPNSt3__16vectorINS_8optionalINS_12basic_stringIcNS_11char_traitsIcEENS_9allocatorIcEEEEEENS5_IS8_EEE24__RAII_IncreaseAnnotatorE"
    },
    {
     "referenced_type" : "_ZTIRKNSt3__16vectorINS_8optionalINS_12basic_stringIcNS_11char_traitsIcEENS_9allocatorIcEEEEEENS5_IS8_EEEE"
    },
    {
     "default_arg" : true,
     "referenced_type" : "_ZTIm"
    }
   ],
   "return_type" : "_ZTIv",
   "source_file" : "external/libcxx/include/vector"
  },
  {
   "access" : "private",
   "function_name" : "std::__1::vector<std::__1::optional<std::__1::basic_string<char>>, std::__1::allocator<std::__1::optional<std::__1::basic_string<char>>>>::__emplace_back_slow_path",
   "linker_set_key" : "_ZNSt3__16vectorINS_8optionalINS_12basic_stringIcNS_11char_traitsIcEENS_9allocatorIcEEEEEENS5_IS8_EEE24__emplace_back_slow_pathIJS8_EEEvDpOT_",
   "parameters" :
   [
    {
     "is_this_ptr" : true,
     "referenced_type" : "_ZTIPNSt3__16vectorINS_8optionalINS_12basic_stringIcNS_11char_traitsIcEENS_9allocatorIcEEEEEENS5_IS8_EEEE"
    },
    {
     "referenced_type" : "_ZTIONSt3__18optionalINS_12basic_stringIcNS_11char_traitsIcEENS_9allocatorIcEEEEEE"
    }
   ],
   "return_type" : "_ZTIv",
   "source_file" : "external/libcxx/include/vector"
  },
  {
   "access" : "private",
   "function_name" : "std::__1::vector<std::__1::optional<std::__1::basic_string<char>>, std::__1::allocator<std::__1::optional<std::__1::basic_string<char>>>>::__invalidate_all_iterators",
   "linker_set_key" : "_ZNSt3__16vectorINS_8optionalINS_12basic_stringIcNS_11char_traitsIcEENS_9allocatorIcEEEEEENS5_IS8_EEE26__invalidate_all_iteratorsEv",
   "parameters" :
   [
    {
     "is_this_ptr" : true,
     "referenced_type" : "_ZTIPNSt3__16vectorINS_8optionalINS_12basic_stringIcNS_11char_traitsIcEENS_9allocatorIcEEEEEENS5_IS8_EEEE"
    }
   ],
   "return_type" : "_ZTIv",
   "source_file" : "external/libcxx/include/vector"
  },
  {
   "access" : "private",
   "function_name" : "std::__1::vector<std::__1::optional<std::__1::basic_string<char>>, std::__1::allocator<std::__1::optional<std::__1::basic_string<char>>>>::__swap_out_circular_buffer",
   "linker_set_key" : "_ZNSt3__16vectorINS_8optionalINS_12basic_stringIcNS_11char_traitsIcEENS_9allocatorIcEEEEEENS5_IS8_EEE26__swap_out_circular_bufferERNS_14__split_bufferIS8_RS9_EE",
   "parameters" :
   [
    {
     "is_this_ptr" : true,
     "referenced_type" : "_ZTIPNSt3__16vectorINS_8optionalINS_12basic_stringIcNS_11char_traitsIcEENS_9allocatorIcEEEEEENS5_IS8_EEEE"
    },
    {
     "referenced_type" : "_ZTIRNSt3__114__split_bufferINS_8optionalINS_12basic_stringIcNS_11char_traitsIcEENS_9allocatorIcEEEEEERNS5_IS8_EEEE"
    }
   ],
   "return_type" : "_ZTIv",
   "source_file" : "external/libcxx/include/vector"
  },
  {
   "function_name" : "std::__1::vector<std::__1::optional<std::__1::basic_string<char>>, std::__1::allocator<std::__1::optional<std::__1::basic_string<char>>>>::back",
   "linker_set_key" : "_ZNSt3__16vectorINS_8optionalINS_12basic_stringIcNS_11char_traitsIcEENS_9allocatorIcEEEEEENS5_IS8_EEE4backEv",
   "parameters" :
   [
    {
     "is_this_ptr" : true,
     "referenced_type" : "_ZTIPNSt3__16vectorINS_8optionalINS_12basic_stringIcNS_11char_traitsIcEENS_9allocatorIcEEEEEENS5_IS8_EEEE"
    }
   ],
   "return_type" : "_ZTIRNSt3__18optionalINS_12basic_stringIcNS_11char_traitsIcEENS_9allocatorIcEEEEEE",
   "source_file" : "external/libcxx/include/vector"
  },
  {
   "function_name" : "std::__1::vector<std::__1::optional<std::__1::basic_string<char>>, std::__1::allocator<std::__1::optional<std::__1::basic_string<char>>>>::vector",
   "linker_set_key" : "_ZNSt3__16vectorINS_8optionalINS_12basic_stringIcNS_11char_traitsIcEENS_9allocatorIcEEEEEENS5_IS8_EEEC1EOSA_",
   "parameters" :
   [
    {
     "is_this_ptr" : true,
     "referenced_type" : "_ZTIPNSt3__16vectorINS_8optionalINS_12basic_stringIcNS_11char_traitsIcEENS_9allocatorIcEEEEEENS5_IS8_EEEE"
    },
    {
     "referenced_type" : "_ZTIONSt3__16vectorINS_8optionalINS_12basic_stringIcNS_11char_traitsIcEENS_9allocatorIcEEEEEENS5_IS8_EEEE"
    }
   ],
   "return_type" : "_ZTIv",
   "source_file" : "external/libcxx/include/vector"
  },
  {
   "function_name" : "std::__1::vector<std::__1::optional<std::__1::basic_string<char>>, std::__1::allocator<std::__1::optional<std::__1::basic_string<char>>>>::vector",
   "linker_set_key" : "_ZNSt3__16vectorINS_8optionalINS_12basic_stringIcNS_11char_traitsIcEENS_9allocatorIcEEEEEENS5_IS8_EEEC1Ev",
   "parameters" :
   [
    {
     "is_this_ptr" : true,
     "referenced_type" : "_ZTIPNSt3__16vectorINS_8optionalINS_12basic_stringIcNS_11char_traitsIcEENS_9allocatorIcEEEEEENS5_IS8_EEEE"
    }
   ],
   "return_type" : "_ZTIv",
   "source_file" : "external/libcxx/include/vector"
  },
  {
   "function_name" : "std::__1::vector<std::__1::optional<std::__1::basic_string<char>>, std::__1::allocator<std::__1::optional<std::__1::basic_string<char>>>>::vector",
   "linker_set_key" : "_ZNSt3__16vectorINS_8optionalINS_12basic_stringIcNS_11char_traitsIcEENS_9allocatorIcEEEEEENS5_IS8_EEEC2EOSA_",
   "parameters" :
   [
    {
     "is_this_ptr" : true,
     "referenced_type" : "_ZTIPNSt3__16vectorINS_8optionalINS_12basic_stringIcNS_11char_traitsIcEENS_9allocatorIcEEEEEENS5_IS8_EEEE"
    },
    {
     "referenced_type" : "_ZTIONSt3__16vectorINS_8optionalINS_12basic_stringIcNS_11char_traitsIcEENS_9allocatorIcEEEEEENS5_IS8_EEEE"
    }
   ],
   "return_type" : "_ZTIv",
   "source_file" : "external/libcxx/include/vector"
  },
  {
   "function_name" : "std::__1::vector<std::__1::optional<std::__1::basic_string<char>>, std::__1::allocator<std::__1::optional<std::__1::basic_string<char>>>>::vector",
   "linker_set_key" : "_ZNSt3__16vectorINS_8optionalINS_12basic_stringIcNS_11char_traitsIcEENS_9allocatorIcEEEEEENS5_IS8_EEEC2Ev",
   "parameters" :
   [
    {
     "is_this_ptr" : true,
     "referenced_type" : "_ZTIPNSt3__16vectorINS_8optionalINS_12basic_stringIcNS_11char_traitsIcEENS_9allocatorIcEEEEEENS5_IS8_EEEE"
    }
   ],
   "return_type" : "_ZTIv",
   "source_file" : "external/libcxx/include/vector"
  },
  {
   "function_name" : "std::__1::vector<std::__1::optional<std::__1::basic_string<char>>, std::__1::allocator<std::__1::optional<std::__1::basic_string<char>>>>::~vector",
   "linker_set_key" : "_ZNSt3__16vectorINS_8optionalINS_12basic_stringIcNS_11char_traitsIcEENS_9allocatorIcEEEEEENS5_IS8_EEED1Ev",
   "parameters" :
   [
    {
     "is_this_ptr" : true,
     "referenced_type" : "_ZTIPNSt3__16vectorINS_8optionalINS_12basic_stringIcNS_11char_traitsIcEENS_9allocatorIcEEEEEENS5_IS8_EEEE"
    }
   ],
   "return_type" : "_ZTIv",
   "source_file" : "external/libcxx/include/vector"
  },
  {
   "function_name" : "std::__1::vector<std::__1::optional<std::__1::basic_string<char>>, std::__1::allocator<std::__1::optional<std::__1::basic_string<char>>>>::~vector",
   "linker_set_key" : "_ZNSt3__16vectorINS_8optionalINS_12basic_stringIcNS_11char_traitsIcEENS_9allocatorIcEEEEEENS5_IS8_EEED2Ev",
   "parameters" :
   [
    {
     "is_this_ptr" : true,
     "referenced_type" : "_ZTIPNSt3__16vectorINS_8optionalINS_12basic_stringIcNS_11char_traitsIcEENS_9allocatorIcEEEEEENS5_IS8_EEEE"
    }
   ],
   "return_type" : "_ZTIv",
   "source_file" : "external/libcxx/include/vector"
  },
  {
   "function_name" : "std::__1::forward",
   "linker_set_key" : "_ZNSt3__17forwardIDnEEOT_RNS_16remove_referenceIS1_E4typeE",
   "parameters" :
   [
    {
     "referenced_type" : "_ZTIRDn"
    }
   ],
   "return_type" : "_ZTIODn",
   "source_file" : "external/libcxx/include/type_traits",
   "template_args" : [ "_ZTIDn" ]
  },
  {
   "function_name" : "std::__1::forward",
   "linker_set_key" : "_ZNSt3__17forwardINS_12basic_stringIcNS_11char_traitsIcEENS_9allocatorIcEEEEEEOT_RNS_16remove_referenceIS7_E4typeE",
   "parameters" :
   [
    {
     "referenced_type" : "_ZTIRNSt3__112basic_stringIcNS_11char_traitsIcEENS_9allocatorIcEEEE"
    }
   ],
   "return_type" : "_ZTIONSt3__112basic_stringIcNS_11char_traitsIcEENS_9allocatorIcEEEE",
   "source_file" : "external/libcxx/include/type_traits",
   "template_args" : [ "_ZTINSt3__112basic_stringIcNS_11char_traitsIcEENS_9allocatorIcEEEE" ]
  },
  {
   "function_name" : "std::__1::forward",
   "linker_set_key" : "_ZNSt3__17forwardINS_20__optional_move_baseINS_12basic_stringIcNS_11char_traitsIcEENS_9allocatorIcEEEELb0EEEEEOT_RNS_16remove_referenceIS9_E4typeE",
   "parameters" :
   [
    {
     "referenced_type" : "_ZTIRNSt3__120__optional_move_baseINS_12basic_stringIcNS_11char_traitsIcEENS_9allocatorIcEEEELb0EEE"
    }
   ],
   "return_type" : "_ZTIONSt3__120__optional_move_baseINS_12basic_stringIcNS_11char_traitsIcEENS_9allocatorIcEEEELb0EEE",
   "source_file" : "external/libcxx/include/type_traits",
   "template_args" :
   [
    "_ZTINSt3__120__optional_move_baseINS_12basic_stringIcNS_11char_traitsIcEENS_9allocatorIcEEEELb0EEE"
   ]
  },
  {
   "function_name" : "std::__1::forward",
   "linker_set_key" : "_ZNSt3__17forwardINS_8optionalINS_12basic_stringIcNS_11char_traitsIcEENS_9allocatorIcEEEEEEEEOT_RNS_16remove_referenceIS9_E4typeE",
   "parameters" :
   [
    {
     "referenced_type" : "_ZTIRNSt3__18optionalINS_12basic_stringIcNS_11char_traitsIcEENS_9allocatorIcEEEEEE"
    }
   ],
   "return_type" : "_ZTIONSt3__18optionalINS_12basic_stringIcNS_11char_traitsIcEENS_9allocatorIcEEEEEE",
   "source_file" : "external/libcxx/include/type_traits",
   "template_args" :
   [
    "_ZTINSt3__18optionalINS_12basic_stringIcNS_11char_traitsIcEENS_9allocatorIcEEEEEE"
   ]
  },
  {
   "function_name" : "std::__1::forward",
   "linker_set_key" : "_ZNSt3__17forwardINS_8optionalIPKcEEEEOT_RNS_16remove_referenceIS5_E4typeE",
   "parameters" :
   [
    {
     "referenced_type" : "_ZTIRNSt3__18optionalIPKcEE"
    }
   ],
   "return_type" : "_ZTIONSt3__18optionalIPKcEE",
   "source_file" : "external/libcxx/include/type_traits",
   "template_args" : [ "_ZTINSt3__18optionalIPKcEE" ]
  },
  {
   "function_name" : "std::__1::forward",
   "linker_set_key" : "_ZNSt3__17forwardINS_9allocatorINS_8optionalINS_12basic_stringIcNS_11char_traitsIcEENS1_IcEEEEEEEEEEOT_RNS_16remove_referenceISA_E4typeE",
   "parameters" :
   [
    {
     "referenced_type" : "_ZTIRNSt3__19allocatorINS_8optionalINS_12basic_stringIcNS_11char_traitsIcEENS0_IcEEEEEEEE"
    }
   ],
   "return_type" : "_ZTIONSt3__19allocatorINS_8optionalINS_12basic_stringIcNS_11char_traitsIcEENS0_IcEEEEEEEE",
   "source_file" : "external/libcxx/include/type_traits",
   "template_args" :
   [
    "_ZTINSt3__19allocatorINS_8optionalINS_12basic_stringIcNS_11char_traitsIcEENS0_IcEEEEEEEE"
   ]
  },
  {
   "function_name" : "std::__1::forward",
   "linker_set_key" : "_ZNSt3__17forwardIPKcEEOT_RNS_16remove_referenceIS3_E4typeE",
   "parameters" :
   [
    {
     "referenced_type" : "_ZTIRPKc"
    }
   ],
   "return_type" : "_ZTIOPKc",
   "source_file" : "external/libcxx/include/type_traits",
   "template_args" : [ "_ZTIPKc" ]
  },
  {
   "function_name" : "std::__1::forward",
   "linker_set_key" : "_ZNSt3__17forwardIRNS_9allocatorINS_8optionalINS_12basic_stringIcNS_11char_traitsIcEENS1_IcEEEEEEEEEEOT_RNS_16remove_referenceISB_E4typeE",
   "parameters" :
   [
    {
     "referenced_type" : "_ZTIRNSt3__19allocatorINS_8optionalINS_12basic_stringIcNS_11char_traitsIcEENS0_IcEEEEEEEE"
    }
   ],
   "return_type" : "_ZTIRNSt3__19allocatorINS_8optionalINS_12basic_stringIcNS_11char_traitsIcEENS0_IcEEEEEEEE",
   "source_file" : "external/libcxx/include/type_traits",
   "template_args" :
   [
    "_ZTIRNSt3__19allocatorINS_8optionalINS_12basic_stringIcNS_11char_traitsIcEENS0_IcEEEEEEEE"
   ]
  },
  {
   "function_name" : "std::__1::forward",
   "linker_set_key" : "_ZNSt3__17forwardIRPKcEEOT_RNS_16remove_referenceIS4_E4typeE",
   "parameters" :
   [
    {
     "referenced_type" : "_ZTIRPKc"
    }
   ],
   "return_type" : "_ZTIRPKc",
   "source_file" : "external/libcxx/include/type_traits",
   "template_args" : [ "_ZTIRPKc" ]
  },
  {
   "function_name" : "std::__1::forward",
   "linker_set_key" : "_ZNSt3__17forwardIRdEEOT_RNS_16remove_referenceIS2_E4typeE",
   "parameters" :
   [
    {
     "referenced_type" : "_ZTIRd"
    }
   ],
   "return_type" : "_ZTIRd",
   "source_file" : "external/libcxx/include/type_traits",
   "template_args" : [ "_ZTIRd" ]
  },
  {
   "function_name" : "std::__1::forward",
   "linker_set_key" : "_ZNSt3__17forwardIRiEEOT_RNS_16remove_referenceIS2_E4typeE",
   "parameters" :
   [
    {
     "referenced_type" : "_ZTIRi"
    }
   ],
   "return_type" : "_ZTIRi",
   "source_file" : "external/libcxx/include/type_traits",
   "template_args" : [ "_ZTIRi" ]
  },
  {
   "function_name" : "std::__1::forward",
   "linker_set_key" : "_ZNSt3__17forwardIRjEEOT_RNS_16remove_referenceIS2_E4typeE",
   "parameters" :
   [
    {
     "referenced_type" : "_ZTIRj"
    }
   ],
   "return_type" : "_ZTIRj",
   "source_file" : "external/libcxx/include/type_traits",
   "template_args" : [ "_ZTIRj" ]
  },
  {
   "function_name" : "std::__1::forward",
   "linker_set_key" : "_ZNSt3__17forwardIRlEEOT_RNS_16remove_referenceIS2_E4typeE",
   "parameters" :
   [
    {
     "referenced_type" : "_ZTIRl"
    }
   ],
   "return_type" : "_ZTIRl",
   "source_file" : "external/libcxx/include/type_traits",
   "template_args" : [ "_ZTIRl" ]
  },
  {
   "function_name" : "std::__1::forward",
   "linker_set_key" : "_ZNSt3__17forwardIRmEEOT_RNS_16remove_referenceIS2_E4typeE",
   "parameters" :
   [
    {
     "referenced_type" : "_ZTIRm"
    }
   ],
   "return_type" : "_ZTIRm",
   "source_file" : "external/libcxx/include/type_traits",
   "template_args" : [ "_ZTIRm" ]
  },
  {
   "function_name" : "std::__1::forward",
   "linker_set_key" : "_ZNSt3__17forwardIbEEOT_RNS_16remove_referenceIS1_E4typeE",
   "parameters" :
   [
    {
     "referenced_type" : "_ZTIRb"
    }
   ],
   "return_type" : "_ZTIOb",
   "source_file" : "external/libcxx/include/type_traits",
   "template_args" : [ "_ZTIb" ]
  },
  {
   "function_name" : "std::__1::forward",
   "linker_set_key" : "_ZNSt3__17forwardImEEOT_RNS_16remove_referenceIS1_E4typeE",
   "parameters" :
   [
    {
     "referenced_type" : "_ZTIRm"
    }
   ],
   "return_type" : "_ZTIOm",
   "source_file" : "external/libcxx/include/type_traits",
   "template_args" : [ "_ZTIm" ]
  },
  {
   "function_name" : "std::__1::literals::string_literals::operator\"\"s",
   "linker_set_key" : "_ZNSt3__18literals15string_literalsli1sEPKDim",
   "parameters" :
   [
    {
     "referenced_type" : "_ZTIPKDi"
    },
    {
     "referenced_type" : "_ZTIm"
    }
   ],
   "return_type" : "_ZTINSt3__112basic_stringIDiNS_11char_traitsIDiEENS_9allocatorIDiEEEE",
   "source_file" : "external/libcxx/include/string"
  },
  {
   "function_name" : "std::__1::literals::string_literals::operator\"\"s",
   "linker_set_key" : "_ZNSt3__18literals15string_literalsli1sEPKDsm",
   "parameters" :
   [
    {
     "referenced_type" : "_ZTIPKDs"
    },
    {
     "referenced_type" : "_ZTIm"
    }
   ],
   "return_type" : "_ZTINSt3__112basic_stringIDsNS_11char_traitsIDsEENS_9allocatorIDsEEEE",
   "source_file" : "external/libcxx/include/string"
  },
  {
   "function_name" : "std::__1::literals::string_literals::operator\"\"s",
   "linker_set_key" : "_ZNSt3__18literals15string_literalsli1sEPKcm",
   "parameters" :
   [
    {
     "referenced_type" : "_ZTIPKc"
    },
    {
     "referenced_type" : "_ZTIm"
    }
   ],
   "return_type" : "_ZTINSt3__112basic_stringIcNS_11char_traitsIcEENS_9allocatorIcEEEE",
   "source_file" : "external/libcxx/include/string"
  },
  {
   "function_name" : "std::__1::literals::string_literals::operator\"\"s",
   "linker_set_key" : "_ZNSt3__18literals15string_literalsli1sEPKwm",
   "parameters" :
   [
    {
     "referenced_type" : "_ZTIPKw"
    },
    {
     "referenced_type" : "_ZTIm"
    }
   ],
   "return_type" : "_ZTINSt3__112basic_stringIwNS_11char_traitsIwEENS_9allocatorIwEEEE",
   "source_file" : "external/libcxx/include/string"
  },
  {
   "function_name" : "std::__1::literals::string_view_literals::operator\"\"sv",
   "linker_set_key" : "_ZNSt3__18literals20string_view_literalsli2svEPKDim",
   "parameters" :
   [
    {
     "referenced_type" : "_ZTIPKDi"
    },
    {
     "referenced_type" : "_ZTIm"
    }
   ],
   "return_type" : "_ZTINSt3__117basic_string_viewIDiNS_11char_traitsIDiEEEE",
   "source_file" : "external/libcxx/include/string_view"
  },
  {
   "function_name" : "std::__1::literals::string_view_literals::operator\"\"sv",
   "linker_set_key" : "_ZNSt3__18literals20string_view_literalsli2svEPKDsm",
   "parameters" :
   [
    {
     "referenced_type" : "_ZTIPKDs"
    },
    {
     "referenced_type" : "_ZTIm"
    }
   ],
   "return_type" : "_ZTINSt3__117basic_string_viewIDsNS_11char_traitsIDsEEEE",
   "source_file" : "external/libcxx/include/string_view"
  },
  {
   "function_name" : "std::__1::literals::string_view_literals::operator\"\"sv",
   "linker_set_key" : "_ZNSt3__18literals20string_view_literalsli2svEPKcm",
   "parameters" :
   [
    {
     "referenced_type" : "_ZTIPKc"
    },
    {
     "referenced_type" : "_ZTIm"
    }
   ],
   "return_type" : "_ZTINSt3__117basic_string_viewIcNS_11char_traitsIcEEEE",
   "source_file" : "external/libcxx/include/string_view"
  },
  {
   "function_name" : "std::__1::literals::string_view_literals::operator\"\"sv",
   "linker_set_key" : "_ZNSt3__18literals20string_view_literalsli2svEPKwm",
   "parameters" :
   [
    {
     "referenced_type" : "_ZTIPKw"
    },
    {
     "referenced_type" : "_ZTIm"
    }
   ],
   "return_type" : "_ZTINSt3__117basic_string_viewIwNS_11char_traitsIwEEEE",
   "source_file" : "external/libcxx/include/string_view"
  },
  {
   "function_name" : "std::__1::optional<std::__1::basic_string<char>>::_CheckOptionalArgsConstructor::__enable_implicit",
   "linker_set_key" : "_ZNSt3__18optionalINS_12basic_stringIcNS_11char_traitsIcEENS_9allocatorIcEEEEE29_CheckOptionalArgsConstructor17__enable_implicitINS0_IPKcEEEEbv",
   "return_type" : "_ZTIb",
   "source_file" : "external/libcxx/include/optional",
   "template_args" : [ "_ZTINSt3__18optionalIPKcEE" ]
  },
  {
   "function_name" : "std::__1::optional<std::__1::basic_string<char>>::_CheckOptionalLikeConstructor<const char *&&>::__enable_implicit",
   "linker_set_key" : "_ZNSt3__18optionalINS_12basic_stringIcNS_11char_traitsIcEENS_9allocatorIcEEEEE29_CheckOptionalLikeConstructorIOPKcE17__enable_implicitISA_SB_EEbv",
   "return_type" : "_ZTIb",
   "source_file" : "external/libcxx/include/optional",
   "template_args" : [ "_ZTIPKc", "_ZTIOPKc" ]
  },
  {
   "function_name" : "std::__1::optional<std::__1::basic_string<char>>::_CheckOptionalLikeConstructor<const char *const &>::__enable_implicit",
   "linker_set_key" : "_ZNSt3__18optionalINS_12basic_stringIcNS_11char_traitsIcEENS_9allocatorIcEEEEE29_CheckOptionalLikeConstructorIRKPKcE17__enable_implicitISA_SC_EEbv",
   "return_type" : "_ZTIb",
   "source_file" : "external/libcxx/include/optional",
   "template_args" : [ "_ZTIPKc", "_ZTIRKPKc" ]
  },
  {
   "function_name" : "std::__1::optional<std::__1::basic_string<char>>::optional",
   "linker_set_key" : "_ZNSt3__18optionalINS_12basic_stringIcNS_11char_traitsIcEENS_9allocatorIcEEEEEC1EOS7_",
   "parameters" :
   [
    {
     "is_this_ptr" : true,
     "referenced_type" : "_ZTIPNSt3__18optionalINS_12basic_stringIcNS_11char_traitsIcEENS_9allocatorIcEEEEEE"
    },
    {
     "referenced_type" : "_ZTIONSt3__18optionalINS_12basic_stringIcNS_11char_traitsIcEENS_9allocatorIcEEEEEE"
    }
   ],
   "return_type" : "_ZTIv",
   "source_file" : "external/libcxx/include/optional"
  },
  {
   "function_name" : "std::__1::optional<std::__1::basic_string<char>>::optional",
   "linker_set_key" : "_ZNSt3__18optionalINS_12basic_stringIcNS_11char_traitsIcEENS_9allocatorIcEEEEEC1ERKS7_",
   "parameters" :
   [
    {
     "is_this_ptr" : true,
     "referenced_type" : "_ZTIPNSt3__18optionalINS_12basic_stringIcNS_11char_traitsIcEENS_9allocatorIcEEEEEE"
    },
    {
     "referenced_type" : "_ZTIRKNSt3__18optionalINS_12basic_stringIcNS_11char_traitsIcEENS_9allocatorIcEEEEEE"
    }
   ],
   "return_type" : "_ZTIv",
   "source_file" : "external/libcxx/include/optional"
  },
  {
   "function_name" : "std::__1::optional<std::__1::basic_string<char>>::optional",
   "linker_set_key" : "_ZNSt3__18optionalINS_12basic_stringIcNS_11char_traitsIcEENS_9allocatorIcEEEEEC1IPKcLi0EEEONS0_IT_EE",
   "parameters" :
   [
    {
     "is_this_ptr" : true,
     "referenced_type" : "_ZTIPNSt3__18optionalINS_12basic_stringIcNS_11char_traitsIcEENS_9allocatorIcEEEEEE"
    },
    {
     "referenced_type" : "_ZTIONSt3__18optionalIPKcEE"
    }
   ],
   "return_type" : "_ZTIv",
   "source_file" : "external/libcxx/include/optional",
   "template_args" : [ "_ZTIPKc" ]
  },
  {
   "function_name" : "std::__1::optional<std::__1::basic_string<char>>::optional",
   "linker_set_key" : "_ZNSt3__18optionalINS_12basic_stringIcNS_11char_traitsIcEENS_9allocatorIcEEEEEC2EOS7_",
   "parameters" :
   [
    {
     "is_this_ptr" : true,
     "referenced_type" : "_ZTIPNSt3__18optionalINS_12basic_stringIcNS_11char_traitsIcEENS_9allocatorIcEEEEEE"
    },
    {
     "referenced_type" : "_ZTIONSt3__18optionalINS_12basic_stringIcNS_11char_traitsIcEENS_9allocatorIcEEEEEE"
    }
   ],
   "return_type" : "_ZTIv",
   "source_file" : "external/libcxx/include/optional"
  },
  {
   "function_name" : "std::__1::optional<std::__1::basic_string<char>>::optional",
   "linker_set_key" : "_ZNSt3__18optionalINS_12basic_stringIcNS_11char_traitsIcEENS_9allocatorIcEEEEEC2ERKS7_",
   "parameters" :
   [
    {
     "is_this_ptr" : true,
     "referenced_type" : "_ZTIPNSt3__18optionalINS_12basic_stringIcNS_11char_traitsIcEENS_9allocatorIcEEEEEE"
    },
    {
     "referenced_type" : "_ZTIRKNSt3__18optionalINS_12basic_stringIcNS_11char_traitsIcEENS_9allocatorIcEEEEEE"
    }
   ],
   "return_type" : "_ZTIv",
   "source_file" : "external/libcxx/include/optional"
  },
  {
   "function_name" : "std::__1::optional<std::__1::basic_string<char>>::optional",
   "linker_set_key" : "_ZNSt3__18optionalINS_12basic_stringIcNS_11char_traitsIcEENS_9allocatorIcEEEEEC2IPKcLi0EEEONS0_IT_EE",
   "parameters" :
   [
    {
     "is_this_ptr" : true,
     "referenced_type" : "_ZTIPNSt3__18optionalINS_12basic_stringIcNS_11char_traitsIcEENS_9allocatorIcEEEEEE"
    },
    {
     "referenced_type" : "_ZTIONSt3__18optionalIPKcEE"
    }
   ],
   "return_type" : "_ZTIv",
   "source_file" : "external/libcxx/include/optional",
   "template_args" : [ "_ZTIPKc" ]
  },
  {
   "function_name" : "std::__1::optional<std::__1::basic_string<char>>::operator=",
   "linker_set_key" : "_ZNSt3__18optionalINS_12basic_stringIcNS_11char_traitsIcEENS_9allocatorIcEEEEEaSEOS7_",
   "parameters" :
   [
    {
     "is_this_ptr" : true,
     "referenced_type" : "_ZTIPNSt3__18optionalINS_12basic_stringIcNS_11char_traitsIcEENS_9allocatorIcEEEEEE"
    },
    {
     "referenced_type" : "_ZTIONSt3__18optionalINS_12basic_stringIcNS_11char_traitsIcEENS_9allocatorIcEEEEEE"
    }
   ],
   "return_type" : "_ZTIRNSt3__18optionalINS_12basic_stringIcNS_11char_traitsIcEENS_9allocatorIcEEEEEE",
   "source_file" : "external/libcxx/include/optional"
  },
  {
   "function_name" : "std::__1::optional<std::__1::basic_string<char>>::operator=",
   "linker_set_key" : "_ZNSt3__18optionalINS_12basic_stringIcNS_11char_traitsIcEENS_9allocatorIcEEEEEaSERKS7_",
   "parameters" :
   [
    {
     "is_this_ptr" : true,
     "referenced_type" : "_ZTIPNSt3__18optionalINS_12basic_stringIcNS_11char_traitsIcEENS_9allocatorIcEEEEEE"
    },
    {
     "referenced_type" : "_ZTIRKNSt3__18optionalINS_12basic_stringIcNS_11char_traitsIcEENS_9allocatorIcEEEEEE"
    }
   ],
   "return_type" : "_ZTIRNSt3__18optionalINS_12basic_stringIcNS_11char_traitsIcEENS_9allocatorIcEEEEEE",
   "source_file" : "external/libcxx/include/optional"
  },
  {
   "function_name" : "std::__1::optional<const char *>::_CheckOptionalArgsConstructor::__enable_explicit",
   "linker_set_key" : "_ZNSt3__18optionalIPKcE29_CheckOptionalArgsConstructor17__enable_explicitIRS2_EEbv",
   "return_type" : "_ZTIb",
   "source_file" : "external/libcxx/include/optional",
   "template_args" : [ "_ZTIRPKc" ]
  },
  {
   "function_name" : "std::__1::optional<const char *>::_CheckOptionalArgsConstructor::__enable_implicit",
   "linker_set_key" : "_ZNSt3__18optionalIPKcE29_CheckOptionalArgsConstructor17__enable_implicitIRKNS_9nullopt_tEEEbv",
   "return_type" : "_ZTIb",
   "source_file" : "external/libcxx/include/optional",
   "template_args" : [ "_ZTIRKNSt3__19nullopt_tE" ]
  },
  {
   "function_name" : "std::__1::optional<const char *>::_CheckOptionalArgsConstructor::__enable_implicit",
   "linker_set_key" : "_ZNSt3__18optionalIPKcE29_CheckOptionalArgsConstructor17__enable_implicitIRS2_EEbv",
   "return_type" : "_ZTIb",
   "source_file" : "external/libcxx/include/optional",
   "template_args" : [ "_ZTIRPKc" ]
  },
  {
   "function_name" : "std::__1::optional<const char *>::optional",
   "linker_set_key" : "_ZNSt3__18optionalIPKcEC1ENS_9nullopt_tE",
   "parameters" :
   [
    {
     "is_this_ptr" : true,
     "referenced_type" : "_ZTIPNSt3__18optionalIPKcEE"
    },
    {
     "referenced_type" : "_ZTINSt3__19nullopt_tE"
    }
   ],
   "return_type" : "_ZTIv",
   "source_file" : "external/libcxx/include/optional"
  },
  {
   "function_name" : "std::__1::optional<const char *>::optional",
   "linker_set_key" : "_ZNSt3__18optionalIPKcEC1EOS3_",
   "parameters" :
   [
    {
     "is_this_ptr" : true,
     "referenced_type" : "_ZTIPNSt3__18optionalIPKcEE"
    },
    {
     "referenced_type" : "_ZTIONSt3__18optionalIPKcEE"
    }
   ],
   "return_type" : "_ZTIv",
   "source_file" : "external/libcxx/include/optional"
  },
  {
   "function_name" : "std::__1::optional<const char *>::optional",
   "linker_set_key" : "_ZNSt3__18optionalIPKcEC1ERKS3_",
   "parameters" :
   [
    {
     "is_this_ptr" : true,
     "referenced_type" : "_ZTIPNSt3__18optionalIPKcEE"
    },
    {
     "referenced_type" : "_ZTIRKNSt3__18optionalIPKcEE"
    }
   ],
   "return_type" : "_ZTIv",
   "source_file" : "external/libcxx/include/optional"
  },
  {
   "function_name" : "std::__1::optional<const char *>::optional",
   "linker_set_key" : "_ZNSt3__18optionalIPKcEC1IRS2_Li0EEEOT_",
   "parameters" :
   [
    {
     "is_this_ptr" : true,
     "referenced_type" : "_ZTIPNSt3__18optionalIPKcEE"
    },
    {
     "referenced_type" : "_ZTIRPKc"
    }
   ],
   "return_type" : "_ZTIv",
   "source_file" : "external/libcxx/include/optional",
   "template_args" : [ "_ZTIRPKc" ]
  },
  {
   "function_name" : "std::__1::optional<const char *>::optional",
   "linker_set_key" : "_ZNSt3__18optionalIPKcEC2ENS_9nullopt_tE",
   "parameters" :
   [
    {
     "is_this_ptr" : true,
     "referenced_type" : "_ZTIPNSt3__18optionalIPKcEE"
    },
    {
     "referenced_type" : "_ZTINSt3__19nullopt_tE"
    }
   ],
   "return_type" : "_ZTIv",
   "source_file" : "external/libcxx/include/optional"
  },
  {
   "function_name" : "std::__1::optional<const char *>::optional",
   "linker_set_key" : "_ZNSt3__18optionalIPKcEC2EOS3_",
   "parameters" :
   [
    {
     "is_this_ptr" : true,
     "referenced_type" : "_ZTIPNSt3__18optionalIPKcEE"
    },
    {
     "referenced_type" : "_ZTIONSt3__18optionalIPKcEE"
    }
   ],
   "return_type" : "_ZTIv",
   "source_file" : "external/libcxx/include/optional"
  },
  {
   "function_name" : "std::__1::optional<const char *>::optional",
   "linker_set_key" : "_ZNSt3__18optionalIPKcEC2ERKS3_",
   "parameters" :
   [
    {
     "is_this_ptr" : true,
     "referenced_type" : "_ZTIPNSt3__18optionalIPKcEE"
    },
    {
     "referenced_type" : "_ZTIRKNSt3__18optionalIPKcEE"
    }
   ],
   "return_type" : "_ZTIv",
   "source_file" : "external/libcxx/include/optional"
  },
  {
   "function_name" : "std::__1::optional<const char *>::optional",
   "linker_set_key" : "_ZNSt3__18optionalIPKcEC2IRS2_Li0EEEOT_",
   "parameters" :
   [
    {
     "is_this_ptr" : true,
     "referenced_type" : "_ZTIPNSt3__18optionalIPKcEE"
    },
    {
     "referenced_type" : "_ZTIRPKc"
    }
   ],
   "return_type" : "_ZTIv",
   "source_file" : "external/libcxx/include/optional",
   "template_args" : [ "_ZTIRPKc" ]
  },
  {
   "function_name" : "std::__1::optional<const char *>::operator=",
   "linker_set_key" : "_ZNSt3__18optionalIPKcEaSEOS3_",
   "parameters" :
   [
    {
     "is_this_ptr" : true,
     "referenced_type" : "_ZTIPNSt3__18optionalIPKcEE"
    },
    {
     "referenced_type" : "_ZTIONSt3__18optionalIPKcEE"
    }
   ],
   "return_type" : "_ZTIRNSt3__18optionalIPKcEE",
   "source_file" : "external/libcxx/include/optional"
  },
  {
   "function_name" : "std::__1::optional<const char *>::operator=",
   "linker_set_key" : "_ZNSt3__18optionalIPKcEaSERKS3_",
   "parameters" :
   [
    {
     "is_this_ptr" : true,
     "referenced_type" : "_ZTIPNSt3__18optionalIPKcEE"
    },
    {
     "referenced_type" : "_ZTIRKNSt3__18optionalIPKcEE"
    }
   ],
   "return_type" : "_ZTIRNSt3__18optionalIPKcEE",
   "source_file" : "external/libcxx/include/optional"
  },
  {
   "function_name" : "std::__1::optional<bool>::_CheckOptionalArgsConstructor::__enable_explicit",
   "linker_set_key" : "_ZNSt3__18optionalIbE29_CheckOptionalArgsConstructor17__enable_explicitIbEEbv",
   "return_type" : "_ZTIb",
   "source_file" : "external/libcxx/include/optional",
   "template_args" : [ "_ZTIb" ]
  },
  {
   "function_name" : "std::__1::optional<bool>::_CheckOptionalArgsConstructor::__enable_implicit",
   "linker_set_key" : "_ZNSt3__18optionalIbE29_CheckOptionalArgsConstructor17__enable_implicitIRKNS_9nullopt_tEEEbv",
   "return_type" : "_ZTIb",
   "source_file" : "external/libcxx/include/optional",
   "template_args" : [ "_ZTIRKNSt3__19nullopt_tE" ]
  },
  {
   "function_name" : "std::__1::optional<bool>::_CheckOptionalArgsConstructor::__enable_implicit",
   "linker_set_key" : "_ZNSt3__18optionalIbE29_CheckOptionalArgsConstructor17__enable_implicitIbEEbv",
   "return_type" : "_ZTIb",
   "source_file" : "external/libcxx/include/optional",
   "template_args" : [ "_ZTIb" ]
  },
  {
   "function_name" : "std::__1::optional<bool>::optional",
   "linker_set_key" : "_ZNSt3__18optionalIbEC1ENS_9nullopt_tE",
   "parameters" :
   [
    {
     "is_this_ptr" : true,
     "referenced_type" : "_ZTIPNSt3__18optionalIbEE"
    },
    {
     "referenced_type" : "_ZTINSt3__19nullopt_tE"
    }
   ],
   "return_type" : "_ZTIv",
   "source_file" : "external/libcxx/include/optional"
  },
  {
   "function_name" : "std::__1::optional<bool>::optional",
   "linker_set_key" : "_ZNSt3__18optionalIbEC1EOS1_",
   "parameters" :
   [
    {
     "is_this_ptr" : true,
     "referenced_type" : "_ZTIPNSt3__18optionalIbEE"
    },
    {
     "referenced_type" : "_ZTIONSt3__18optionalIbEE"
    }
   ],
   "return_type" : "_ZTIv",
   "source_file" : "external/libcxx/include/optional"
  },
  {
   "function_name" : "std::__1::optional<bool>::optional",
   "linker_set_key" : "_ZNSt3__18optionalIbEC1ERKS1_",
   "parameters" :
   [
    {
     "is_this_ptr" : true,
     "referenced_type" : "_ZTIPNSt3__18optionalIbEE"
    },
    {
     "referenced_type" : "_ZTIRKNSt3__18optionalIbEE"
    }
   ],
   "return_type" : "_ZTIv",
   "source_file" : "external/libcxx/include/optional"
  },
  {
   "function_name" : "std::__1::optional<bool>::optional",
   "linker_set_key" : "_ZNSt3__18optionalIbEC1IbLi0EEEOT_",
   "parameters" :
   [
    {
     "is_this_ptr" : true,
     "referenced_type" : "_ZTIPNSt3__18optionalIbEE"
    },
    {
     "referenced_type" : "_ZTIOb"
    }
   ],
   "return_type" : "_ZTIv",
   "source_file" : "external/libcxx/include/optional",
   "template_args" : [ "_ZTIb" ]
  },
  {
   "function_name" : "std::__1::optional<bool>::optional",
   "linker_set_key" : "_ZNSt3__18optionalIbEC2ENS_9nullopt_tE",
   "parameters" :
   [
    {
     "is_this_ptr" : true,
     "referenced_type" : "_ZTIPNSt3__18optionalIbEE"
    },
    {
     "referenced_type" : "_ZTINSt3__19nullopt_tE"
    }
   ],
   "return_type" : "_ZTIv",
   "source_file" : "external/libcxx/include/optional"
  },
  {
   "function_name" : "std::__1::optional<bool>::optional",
   "linker_set_key" : "_ZNSt3__18optionalIbEC2EOS1_",
   "parameters" :
   [
    {
     "is_this_ptr" : true,
     "referenced_type" : "_ZTIPNSt3__18optionalIbEE"
    },
    {
     "referenced_type" : "_ZTIONSt3__18optionalIbEE"
    }
   ],
   "return_type" : "_ZTIv",
   "source_file" : "external/libcxx/include/optional"
  },
  {
   "function_name" : "std::__1::optional<bool>::optional",
   "linker_set_key" : "_ZNSt3__18optionalIbEC2ERKS1_",
   "parameters" :
   [
    {
     "is_this_ptr" : true,
     "referenced_type" : "_ZTIPNSt3__18optionalIbEE"
    },
    {
     "referenced_type" : "_ZTIRKNSt3__18optionalIbEE"
    }
   ],
   "return_type" : "_ZTIv",
   "source_file" : "external/libcxx/include/optional"
  },
  {
   "function_name" : "std::__1::optional<bool>::optional",
   "linker_set_key" : "_ZNSt3__18optionalIbEC2IbLi0EEEOT_",
   "parameters" :
   [
    {
     "is_this_ptr" : true,
     "referenced_type" : "_ZTIPNSt3__18optionalIbEE"
    },
    {
     "referenced_type" : "_ZTIOb"
    }
   ],
   "return_type" : "_ZTIv",
   "source_file" : "external/libcxx/include/optional",
   "template_args" : [ "_ZTIb" ]
  },
  {
   "function_name" : "std::__1::optional<bool>::operator=",
   "linker_set_key" : "_ZNSt3__18optionalIbEaSEOS1_",
   "parameters" :
   [
    {
     "is_this_ptr" : true,
     "referenced_type" : "_ZTIPNSt3__18optionalIbEE"
    },
    {
     "referenced_type" : "_ZTIONSt3__18optionalIbEE"
    }
   ],
   "return_type" : "_ZTIRNSt3__18optionalIbEE",
   "source_file" : "external/libcxx/include/optional"
  },
  {
   "function_name" : "std::__1::optional<bool>::operator=",
   "linker_set_key" : "_ZNSt3__18optionalIbEaSERKS1_",
   "parameters" :
   [
    {
     "is_this_ptr" : true,
     "referenced_type" : "_ZTIPNSt3__18optionalIbEE"
    },
    {
     "referenced_type" : "_ZTIRKNSt3__18optionalIbEE"
    }
   ],
   "return_type" : "_ZTIRNSt3__18optionalIbEE",
   "source_file" : "external/libcxx/include/optional"
  },
  {
   "function_name" : "std::__1::optional<double>::_CheckOptionalArgsConstructor::__enable_explicit",
   "linker_set_key" : "_ZNSt3__18optionalIdE29_CheckOptionalArgsConstructor17__enable_explicitIRdEEbv",
   "return_type" : "_ZTIb",
   "source_file" : "external/libcxx/include/optional",
   "template_args" : [ "_ZTIRd" ]
  },
  {
   "function_name" : "std::__1::optional<double>::_CheckOptionalArgsConstructor::__enable_implicit",
   "linker_set_key" : "_ZNSt3__18optionalIdE29_CheckOptionalArgsConstructor17__enable_implicitIRKNS_9nullopt_tEEEbv",
   "return_type" : "_ZTIb",
   "source_file" : "external/libcxx/include/optional",
   "template_args" : [ "_ZTIRKNSt3__19nullopt_tE" ]
  },
  {
   "function_name" : "std::__1::optional<double>::_CheckOptionalArgsConstructor::__enable_implicit",
   "linker_set_key" : "_ZNSt3__18optionalIdE29_CheckOptionalArgsConstructor17__enable_implicitIRdEEbv",
   "return_type" : "_ZTIb",
   "source_file" : "external/libcxx/include/optional",
   "template_args" : [ "_ZTIRd" ]
  },
  {
   "function_name" : "std::__1::optional<double>::optional",
   "linker_set_key" : "_ZNSt3__18optionalIdEC1ENS_9nullopt_tE",
   "parameters" :
   [
    {
     "is_this_ptr" : true,
     "referenced_type" : "_ZTIPNSt3__18optionalIdEE"
    },
    {
     "referenced_type" : "_ZTINSt3__19nullopt_tE"
    }
   ],
   "return_type" : "_ZTIv",
   "source_file" : "external/libcxx/include/optional"
  },
  {
   "function_name" : "std::__1::optional<double>::optional",
   "linker_set_key" : "_ZNSt3__18optionalIdEC1EOS1_",
   "parameters" :
   [
    {
     "is_this_ptr" : true,
     "referenced_type" : "_ZTIPNSt3__18optionalIdEE"
    },
    {
     "referenced_type" : "_ZTIONSt3__18optionalIdEE"
    }
   ],
   "return_type" : "_ZTIv",
   "source_file" : "external/libcxx/include/optional"
  },
  {
   "function_name" : "std::__1::optional<double>::optional",
   "linker_set_key" : "_ZNSt3__18optionalIdEC1ERKS1_",
   "parameters" :
   [
    {
     "is_this_ptr" : true,
     "referenced_type" : "_ZTIPNSt3__18optionalIdEE"
    },
    {
     "referenced_type" : "_ZTIRKNSt3__18optionalIdEE"
    }
   ],
   "return_type" : "_ZTIv",
   "source_file" : "external/libcxx/include/optional"
  },
  {
   "function_name" : "std::__1::optional<double>::optional",
   "linker_set_key" : "_ZNSt3__18optionalIdEC1IRdLi0EEEOT_",
   "parameters" :
   [
    {
     "is_this_ptr" : true,
     "referenced_type" : "_ZTIPNSt3__18optionalIdEE"
    },
    {
     "referenced_type" : "_ZTIRd"
    }
   ],
   "return_type" : "_ZTIv",
   "source_file" : "external/libcxx/include/optional",
   "template_args" : [ "_ZTIRd" ]
  },
  {
   "function_name" : "std::__1::optional<double>::optional",
   "linker_set_key" : "_ZNSt3__18optionalIdEC2ENS_9nullopt_tE",
   "parameters" :
   [
    {
     "is_this_ptr" : true,
     "referenced_type" : "_ZTIPNSt3__18optionalIdEE"
    },
    {
     "referenced_type" : "_ZTINSt3__19nullopt_tE"
    }
   ],
   "return_type" : "_ZTIv",
   "source_file" : "external/libcxx/include/optional"
  },
  {
   "function_name" : "std::__1::optional<double>::optional",
   "linker_set_key" : "_ZNSt3__18optionalIdEC2EOS1_",
   "parameters" :
   [
    {
     "is_this_ptr" : true,
     "referenced_type" : "_ZTIPNSt3__18optionalIdEE"
    },
    {
     "referenced_type" : "_ZTIONSt3__18optionalIdEE"
    }
   ],
   "return_type" : "_ZTIv",
   "source_file" : "external/libcxx/include/optional"
  },
  {
   "function_name" : "std::__1::optional<double>::optional",
   "linker_set_key" : "_ZNSt3__18optionalIdEC2ERKS1_",
   "parameters" :
   [
    {
     "is_this_ptr" : true,
     "referenced_type" : "_ZTIPNSt3__18optionalIdEE"
    },
    {
     "referenced_type" : "_ZTIRKNSt3__18optionalIdEE"
    }
   ],
   "return_type" : "_ZTIv",
   "source_file" : "external/libcxx/include/optional"
  },
  {
   "function_name" : "std::__1::optional<double>::optional",
   "linker_set_key" : "_ZNSt3__18optionalIdEC2IRdLi0EEEOT_",
   "parameters" :
   [
    {
     "is_this_ptr" : true,
     "referenced_type" : "_ZTIPNSt3__18optionalIdEE"
    },
    {
     "referenced_type" : "_ZTIRd"
    }
   ],
   "return_type" : "_ZTIv",
   "source_file" : "external/libcxx/include/optional",
   "template_args" : [ "_ZTIRd" ]
  },
  {
   "function_name" : "std::__1::optional<double>::operator=",
   "linker_set_key" : "_ZNSt3__18optionalIdEaSEOS1_",
   "parameters" :
   [
    {
     "is_this_ptr" : true,
     "referenced_type" : "_ZTIPNSt3__18optionalIdEE"
    },
    {
     "referenced_type" : "_ZTIONSt3__18optionalIdEE"
    }
   ],
   "return_type" : "_ZTIRNSt3__18optionalIdEE",
   "source_file" : "external/libcxx/include/optional"
  },
  {
   "function_name" : "std::__1::optional<double>::operator=",
   "linker_set_key" : "_ZNSt3__18optionalIdEaSERKS1_",
   "parameters" :
   [
    {
     "is_this_ptr" : true,
     "referenced_type" : "_ZTIPNSt3__18optionalIdEE"
    },
    {
     "referenced_type" : "_ZTIRKNSt3__18optionalIdEE"
    }
   ],
   "return_type" : "_ZTIRNSt3__18optionalIdEE",
   "source_file" : "external/libcxx/include/optional"
  },
  {
   "function_name" : "std::__1::optional<int>::_CheckOptionalArgsConstructor::__enable_explicit",
   "linker_set_key" : "_ZNSt3__18optionalIiE29_CheckOptionalArgsConstructor17__enable_explicitIRiEEbv",
   "return_type" : "_ZTIb",
   "source_file" : "external/libcxx/include/optional",
   "template_args" : [ "_ZTIRi" ]
  },
  {
   "function_name" : "std::__1::optional<int>::_CheckOptionalArgsConstructor::__enable_implicit",
   "linker_set_key" : "_ZNSt3__18optionalIiE29_CheckOptionalArgsConstructor17__enable_implicitIRKNS_9nullopt_tEEEbv",
   "return_type" : "_ZTIb",
   "source_file" : "external/libcxx/include/optional",
   "template_args" : [ "_ZTIRKNSt3__19nullopt_tE" ]
  },
  {
   "function_name" : "std::__1::optional<int>::_CheckOptionalArgsConstructor::__enable_implicit",
   "linker_set_key" : "_ZNSt3__18optionalIiE29_CheckOptionalArgsConstructor17__enable_implicitIRiEEbv",
   "return_type" : "_ZTIb",
   "source_file" : "external/libcxx/include/optional",
   "template_args" : [ "_ZTIRi" ]
  },
  {
   "function_name" : "std::__1::optional<int>::optional",
   "linker_set_key" : "_ZNSt3__18optionalIiEC1ENS_9nullopt_tE",
   "parameters" :
   [
    {
     "is_this_ptr" : true,
     "referenced_type" : "_ZTIPNSt3__18optionalIiEE"
    },
    {
     "referenced_type" : "_ZTINSt3__19nullopt_tE"
    }
   ],
   "return_type" : "_ZTIv",
   "source_file" : "external/libcxx/include/optional"
  },
  {
   "function_name" : "std::__1::optional<int>::optional",
   "linker_set_key" : "_ZNSt3__18optionalIiEC1EOS1_",
   "parameters" :
   [
    {
     "is_this_ptr" : true,
     "referenced_type" : "_ZTIPNSt3__18optionalIiEE"
    },
    {
     "referenced_type" : "_ZTIONSt3__18optionalIiEE"
    }
   ],
   "return_type" : "_ZTIv",
   "source_file" : "external/libcxx/include/optional"
  },
  {
   "function_name" : "std::__1::optional<int>::optional",
   "linker_set_key" : "_ZNSt3__18optionalIiEC1ERKS1_",
   "parameters" :
   [
    {
     "is_this_ptr" : true,
     "referenced_type" : "_ZTIPNSt3__18optionalIiEE"
    },
    {
     "referenced_type" : "_ZTIRKNSt3__18optionalIiEE"
    }
   ],
   "return_type" : "_ZTIv",
   "source_file" : "external/libcxx/include/optional"
  },
  {
   "function_name" : "std::__1::optional<int>::optional",
   "linker_set_key" : "_ZNSt3__18optionalIiEC1IRiLi0EEEOT_",
   "parameters" :
   [
    {
     "is_this_ptr" : true,
     "referenced_type" : "_ZTIPNSt3__18optionalIiEE"
    },
    {
     "referenced_type" : "_ZTIRi"
    }
   ],
   "return_type" : "_ZTIv",
   "source_file" : "external/libcxx/include/optional",
   "template_args" : [ "_ZTIRi" ]
  },
  {
   "function_name" : "std::__1::optional<int>::optional",
   "linker_set_key" : "_ZNSt3__18optionalIiEC2ENS_9nullopt_tE",
   "parameters" :
   [
    {
     "is_this_ptr" : true,
     "referenced_type" : "_ZTIPNSt3__18optionalIiEE"
    },
    {
     "referenced_type" : "_ZTINSt3__19nullopt_tE"
    }
   ],
   "return_type" : "_ZTIv",
   "source_file" : "external/libcxx/include/optional"
  },
  {
   "function_name" : "std::__1::optional<int>::optional",
   "linker_set_key" : "_ZNSt3__18optionalIiEC2EOS1_",
   "parameters" :
   [
    {
     "is_this_ptr" : true,
     "referenced_type" : "_ZTIPNSt3__18optionalIiEE"
    },
    {
     "referenced_type" : "_ZTIONSt3__18optionalIiEE"
    }
   ],
   "return_type" : "_ZTIv",
   "source_file" : "external/libcxx/include/optional"
  },
  {
   "function_name" : "std::__1::optional<int>::optional",
   "linker_set_key" : "_ZNSt3__18optionalIiEC2ERKS1_",
   "parameters" :
   [
    {
     "is_this_ptr" : true,
     "referenced_type" : "_ZTIPNSt3__18optionalIiEE"
    },
    {
     "referenced_type" : "_ZTIRKNSt3__18optionalIiEE"
    }
   ],
   "return_type" : "_ZTIv",
   "source_file" : "external/libcxx/include/optional"
  },
  {
   "function_name" : "std::__1::optional<int>::optional",
   "linker_set_key" : "_ZNSt3__18optionalIiEC2IRiLi0EEEOT_",
   "parameters" :
   [
    {
     "is_this_ptr" : true,
     "referenced_type" : "_ZTIPNSt3__18optionalIiEE"
    },
    {
     "referenced_type" : "_ZTIRi"
    }
   ],
   "return_type" : "_ZTIv",
   "source_file" : "external/libcxx/include/optional",
   "template_args" : [ "_ZTIRi" ]
  },
  {
   "function_name" : "std::__1::optional<int>::operator=",
   "linker_set_key" : "_ZNSt3__18optionalIiEaSEOS1_",
   "parameters" :
   [
    {
     "is_this_ptr" : true,
     "referenced_type" : "_ZTIPNSt3__18optionalIiEE"
    },
    {
     "referenced_type" : "_ZTIONSt3__18optionalIiEE"
    }
   ],
   "return_type" : "_ZTIRNSt3__18optionalIiEE",
   "source_file" : "external/libcxx/include/optional"
  },
  {
   "function_name" : "std::__1::optional<int>::operator=",
   "linker_set_key" : "_ZNSt3__18optionalIiEaSERKS1_",
   "parameters" :
   [
    {
     "is_this_ptr" : true,
     "referenced_type" : "_ZTIPNSt3__18optionalIiEE"
    },
    {
     "referenced_type" : "_ZTIRKNSt3__18optionalIiEE"
    }
   ],
   "return_type" : "_ZTIRNSt3__18optionalIiEE",
   "source_file" : "external/libcxx/include/optional"
  },
  {
   "function_name" : "std::__1::optional<unsigned int>::_CheckOptionalArgsConstructor::__enable_explicit",
   "linker_set_key" : "_ZNSt3__18optionalIjE29_CheckOptionalArgsConstructor17__enable_explicitIRjEEbv",
   "return_type" : "_ZTIb",
   "source_file" : "external/libcxx/include/optional",
   "template_args" : [ "_ZTIRj" ]
  },
  {
   "function_name" : "std::__1::optional<unsigned int>::_CheckOptionalArgsConstructor::__enable_implicit",
   "linker_set_key" : "_ZNSt3__18optionalIjE29_CheckOptionalArgsConstructor17__enable_implicitIRKNS_9nullopt_tEEEbv",
   "return_type" : "_ZTIb",
   "source_file" : "external/libcxx/include/optional",
   "template_args" : [ "_ZTIRKNSt3__19nullopt_tE" ]
  },
  {
   "function_name" : "std::__1::optional<unsigned int>::_CheckOptionalArgsConstructor::__enable_implicit",
   "linker_set_key" : "_ZNSt3__18optionalIjE29_CheckOptionalArgsConstructor17__enable_implicitIRjEEbv",
   "return_type" : "_ZTIb",
   "source_file" : "external/libcxx/include/optional",
   "template_args" : [ "_ZTIRj" ]
  },
  {
   "function_name" : "std::__1::optional<unsigned int>::optional",
   "linker_set_key" : "_ZNSt3__18optionalIjEC1ENS_9nullopt_tE",
   "parameters" :
   [
    {
     "is_this_ptr" : true,
     "referenced_type" : "_ZTIPNSt3__18optionalIjEE"
    },
    {
     "referenced_type" : "_ZTINSt3__19nullopt_tE"
    }
   ],
   "return_type" : "_ZTIv",
   "source_file" : "external/libcxx/include/optional"
  },
  {
   "function_name" : "std::__1::optional<unsigned int>::optional",
   "linker_set_key" : "_ZNSt3__18optionalIjEC1EOS1_",
   "parameters" :
   [
    {
     "is_this_ptr" : true,
     "referenced_type" : "_ZTIPNSt3__18optionalIjEE"
    },
    {
     "referenced_type" : "_ZTIONSt3__18optionalIjEE"
    }
   ],
   "return_type" : "_ZTIv",
   "source_file" : "external/libcxx/include/optional"
  },
  {
   "function_name" : "std::__1::optional<unsigned int>::optional",
   "linker_set_key" : "_ZNSt3__18optionalIjEC1ERKS1_",
   "parameters" :
   [
    {
     "is_this_ptr" : true,
     "referenced_type" : "_ZTIPNSt3__18optionalIjEE"
    },
    {
     "referenced_type" : "_ZTIRKNSt3__18optionalIjEE"
    }
   ],
   "return_type" : "_ZTIv",
   "source_file" : "external/libcxx/include/optional"
  },
  {
   "function_name" : "std::__1::optional<unsigned int>::optional",
   "linker_set_key" : "_ZNSt3__18optionalIjEC1IRjLi0EEEOT_",
   "parameters" :
   [
    {
     "is_this_ptr" : true,
     "referenced_type" : "_ZTIPNSt3__18optionalIjEE"
    },
    {
     "referenced_type" : "_ZTIRj"
    }
   ],
   "return_type" : "_ZTIv",
   "source_file" : "external/libcxx/include/optional",
   "template_args" : [ "_ZTIRj" ]
  },
  {
   "function_name" : "std::__1::optional<unsigned int>::optional",
   "linker_set_key" : "_ZNSt3__18optionalIjEC2ENS_9nullopt_tE",
   "parameters" :
   [
    {
     "is_this_ptr" : true,
     "referenced_type" : "_ZTIPNSt3__18optionalIjEE"
    },
    {
     "referenced_type" : "_ZTINSt3__19nullopt_tE"
    }
   ],
   "return_type" : "_ZTIv",
   "source_file" : "external/libcxx/include/optional"
  },
  {
   "function_name" : "std::__1::optional<unsigned int>::optional",
   "linker_set_key" : "_ZNSt3__18optionalIjEC2EOS1_",
   "parameters" :
   [
    {
     "is_this_ptr" : true,
     "referenced_type" : "_ZTIPNSt3__18optionalIjEE"
    },
    {
     "referenced_type" : "_ZTIONSt3__18optionalIjEE"
    }
   ],
   "return_type" : "_ZTIv",
   "source_file" : "external/libcxx/include/optional"
  },
  {
   "function_name" : "std::__1::optional<unsigned int>::optional",
   "linker_set_key" : "_ZNSt3__18optionalIjEC2ERKS1_",
   "parameters" :
   [
    {
     "is_this_ptr" : true,
     "referenced_type" : "_ZTIPNSt3__18optionalIjEE"
    },
    {
     "referenced_type" : "_ZTIRKNSt3__18optionalIjEE"
    }
   ],
   "return_type" : "_ZTIv",
   "source_file" : "external/libcxx/include/optional"
  },
  {
   "function_name" : "std::__1::optional<unsigned int>::optional",
   "linker_set_key" : "_ZNSt3__18optionalIjEC2IRjLi0EEEOT_",
   "parameters" :
   [
    {
     "is_this_ptr" : true,
     "referenced_type" : "_ZTIPNSt3__18optionalIjEE"
    },
    {
     "referenced_type" : "_ZTIRj"
    }
   ],
   "return_type" : "_ZTIv",
   "source_file" : "external/libcxx/include/optional",
   "template_args" : [ "_ZTIRj" ]
  },
  {
   "function_name" : "std::__1::optional<unsigned int>::operator=",
   "linker_set_key" : "_ZNSt3__18optionalIjEaSEOS1_",
   "parameters" :
   [
    {
     "is_this_ptr" : true,
     "referenced_type" : "_ZTIPNSt3__18optionalIjEE"
    },
    {
     "referenced_type" : "_ZTIONSt3__18optionalIjEE"
    }
   ],
   "return_type" : "_ZTIRNSt3__18optionalIjEE",
   "source_file" : "external/libcxx/include/optional"
  },
  {
   "function_name" : "std::__1::optional<unsigned int>::operator=",
   "linker_set_key" : "_ZNSt3__18optionalIjEaSERKS1_",
   "parameters" :
   [
    {
     "is_this_ptr" : true,
     "referenced_type" : "_ZTIPNSt3__18optionalIjEE"
    },
    {
     "referenced_type" : "_ZTIRKNSt3__18optionalIjEE"
    }
   ],
   "return_type" : "_ZTIRNSt3__18optionalIjEE",
   "source_file" : "external/libcxx/include/optional"
  },
  {
   "function_name" : "std::__1::optional<long>::_CheckOptionalArgsConstructor::__enable_explicit",
   "linker_set_key" : "_ZNSt3__18optionalIlE29_CheckOptionalArgsConstructor17__enable_explicitIRlEEbv",
   "return_type" : "_ZTIb",
   "source_file" : "external/libcxx/include/optional",
   "template_args" : [ "_ZTIRl" ]
  },
  {
   "function_name" : "std::__1::optional<long>::_CheckOptionalArgsConstructor::__enable_implicit",
   "linker_set_key" : "_ZNSt3__18optionalIlE29_CheckOptionalArgsConstructor17__enable_implicitIRKNS_9nullopt_tEEEbv",
   "return_type" : "_ZTIb",
   "source_file" : "external/libcxx/include/optional",
   "template_args" : [ "_ZTIRKNSt3__19nullopt_tE" ]
  },
  {
   "function_name" : "std::__1::optional<long>::_CheckOptionalArgsConstructor::__enable_implicit",
   "linker_set_key" : "_ZNSt3__18optionalIlE29_CheckOptionalArgsConstructor17__enable_implicitIRlEEbv",
   "return_type" : "_ZTIb",
   "source_file" : "external/libcxx/include/optional",
   "template_args" : [ "_ZTIRl" ]
  },
  {
   "function_name" : "std::__1::optional<long>::optional",
   "linker_set_key" : "_ZNSt3__18optionalIlEC1ENS_9nullopt_tE",
   "parameters" :
   [
    {
     "is_this_ptr" : true,
     "referenced_type" : "_ZTIPNSt3__18optionalIlEE"
    },
    {
     "referenced_type" : "_ZTINSt3__19nullopt_tE"
    }
   ],
   "return_type" : "_ZTIv",
   "source_file" : "external/libcxx/include/optional"
  },
  {
   "function_name" : "std::__1::optional<long>::optional",
   "linker_set_key" : "_ZNSt3__18optionalIlEC1EOS1_",
   "parameters" :
   [
    {
     "is_this_ptr" : true,
     "referenced_type" : "_ZTIPNSt3__18optionalIlEE"
    },
    {
     "referenced_type" : "_ZTIONSt3__18optionalIlEE"
    }
   ],
   "return_type" : "_ZTIv",
   "source_file" : "external/libcxx/include/optional"
  },
  {
   "function_name" : "std::__1::optional<long>::optional",
   "linker_set_key" : "_ZNSt3__18optionalIlEC1ERKS1_",
   "parameters" :
   [
    {
     "is_this_ptr" : true,
     "referenced_type" : "_ZTIPNSt3__18optionalIlEE"
    },
    {
     "referenced_type" : "_ZTIRKNSt3__18optionalIlEE"
    }
   ],
   "return_type" : "_ZTIv",
   "source_file" : "external/libcxx/include/optional"
  },
  {
   "function_name" : "std::__1::optional<long>::optional",
   "linker_set_key" : "_ZNSt3__18optionalIlEC1IRlLi0EEEOT_",
   "parameters" :
   [
    {
     "is_this_ptr" : true,
     "referenced_type" : "_ZTIPNSt3__18optionalIlEE"
    },
    {
     "referenced_type" : "_ZTIRl"
    }
   ],
   "return_type" : "_ZTIv",
   "source_file" : "external/libcxx/include/optional",
   "template_args" : [ "_ZTIRl" ]
  },
  {
   "function_name" : "std::__1::optional<long>::optional",
   "linker_set_key" : "_ZNSt3__18optionalIlEC2ENS_9nullopt_tE",
   "parameters" :
   [
    {
     "is_this_ptr" : true,
     "referenced_type" : "_ZTIPNSt3__18optionalIlEE"
    },
    {
     "referenced_type" : "_ZTINSt3__19nullopt_tE"
    }
   ],
   "return_type" : "_ZTIv",
   "source_file" : "external/libcxx/include/optional"
  },
  {
   "function_name" : "std::__1::optional<long>::optional",
   "linker_set_key" : "_ZNSt3__18optionalIlEC2EOS1_",
   "parameters" :
   [
    {
     "is_this_ptr" : true,
     "referenced_type" : "_ZTIPNSt3__18optionalIlEE"
    },
    {
     "referenced_type" : "_ZTIONSt3__18optionalIlEE"
    }
   ],
   "return_type" : "_ZTIv",
   "source_file" : "external/libcxx/include/optional"
  },
  {
   "function_name" : "std::__1::optional<long>::optional",
   "linker_set_key" : "_ZNSt3__18optionalIlEC2ERKS1_",
   "parameters" :
   [
    {
     "is_this_ptr" : true,
     "referenced_type" : "_ZTIPNSt3__18optionalIlEE"
    },
    {
     "referenced_type" : "_ZTIRKNSt3__18optionalIlEE"
    }
   ],
   "return_type" : "_ZTIv",
   "source_file" : "external/libcxx/include/optional"
  },
  {
   "function_name" : "std::__1::optional<long>::optional",
   "linker_set_key" : "_ZNSt3__18optionalIlEC2IRlLi0EEEOT_",
   "parameters" :
   [
    {
     "is_this_ptr" : true,
     "referenced_type" : "_ZTIPNSt3__18optionalIlEE"
    },
    {
     "referenced_type" : "_ZTIRl"
    }
   ],
   "return_type" : "_ZTIv",
   "source_file" : "external/libcxx/include/optional",
   "template_args" : [ "_ZTIRl" ]
  },
  {
   "function_name" : "std::__1::optional<long>::operator=",
   "linker_set_key" : "_ZNSt3__18optionalIlEaSEOS1_",
   "parameters" :
   [
    {
     "is_this_ptr" : true,
     "referenced_type" : "_ZTIPNSt3__18optionalIlEE"
    },
    {
     "referenced_type" : "_ZTIONSt3__18optionalIlEE"
    }
   ],
   "return_type" : "_ZTIRNSt3__18optionalIlEE",
   "source_file" : "external/libcxx/include/optional"
  },
  {
   "function_name" : "std::__1::optional<long>::operator=",
   "linker_set_key" : "_ZNSt3__18optionalIlEaSERKS1_",
   "parameters" :
   [
    {
     "is_this_ptr" : true,
     "referenced_type" : "_ZTIPNSt3__18optionalIlEE"
    },
    {
     "referenced_type" : "_ZTIRKNSt3__18optionalIlEE"
    }
   ],
   "return_type" : "_ZTIRNSt3__18optionalIlEE",
   "source_file" : "external/libcxx/include/optional"
  },
  {
   "function_name" : "std::__1::optional<unsigned long>::_CheckOptionalArgsConstructor::__enable_explicit",
   "linker_set_key" : "_ZNSt3__18optionalImE29_CheckOptionalArgsConstructor17__enable_explicitIRmEEbv",
   "return_type" : "_ZTIb",
   "source_file" : "external/libcxx/include/optional",
   "template_args" : [ "_ZTIRm" ]
  },
  {
   "function_name" : "std::__1::optional<unsigned long>::_CheckOptionalArgsConstructor::__enable_implicit",
   "linker_set_key" : "_ZNSt3__18optionalImE29_CheckOptionalArgsConstructor17__enable_implicitIRKNS_9nullopt_tEEEbv",
   "return_type" : "_ZTIb",
   "source_file" : "external/libcxx/include/optional",
   "template_args" : [ "_ZTIRKNSt3__19nullopt_tE" ]
  },
  {
   "function_name" : "std::__1::optional<unsigned long>::_CheckOptionalArgsConstructor::__enable_implicit",
   "linker_set_key" : "_ZNSt3__18optionalImE29_CheckOptionalArgsConstructor17__enable_implicitIRmEEbv",
   "return_type" : "_ZTIb",
   "source_file" : "external/libcxx/include/optional",
   "template_args" : [ "_ZTIRm" ]
  },
  {
   "function_name" : "std::__1::optional<unsigned long>::optional",
   "linker_set_key" : "_ZNSt3__18optionalImEC1ENS_9nullopt_tE",
   "parameters" :
   [
    {
     "is_this_ptr" : true,
     "referenced_type" : "_ZTIPNSt3__18optionalImEE"
    },
    {
     "referenced_type" : "_ZTINSt3__19nullopt_tE"
    }
   ],
   "return_type" : "_ZTIv",
   "source_file" : "external/libcxx/include/optional"
  },
  {
   "function_name" : "std::__1::optional<unsigned long>::optional",
   "linker_set_key" : "_ZNSt3__18optionalImEC1EOS1_",
   "parameters" :
   [
    {
     "is_this_ptr" : true,
     "referenced_type" : "_ZTIPNSt3__18optionalImEE"
    },
    {
     "referenced_type" : "_ZTIONSt3__18optionalImEE"
    }
   ],
   "return_type" : "_ZTIv",
   "source_file" : "external/libcxx/include/optional"
  },
  {
   "function_name" : "std::__1::optional<unsigned long>::optional",
   "linker_set_key" : "_ZNSt3__18optionalImEC1ERKS1_",
   "parameters" :
   [
    {
     "is_this_ptr" : true,
     "referenced_type" : "_ZTIPNSt3__18optionalImEE"
    },
    {
     "referenced_type" : "_ZTIRKNSt3__18optionalImEE"
    }
   ],
   "return_type" : "_ZTIv",
   "source_file" : "external/libcxx/include/optional"
  },
  {
   "function_name" : "std::__1::optional<unsigned long>::optional",
   "linker_set_key" : "_ZNSt3__18optionalImEC1IRmLi0EEEOT_",
   "parameters" :
   [
    {
     "is_this_ptr" : true,
     "referenced_type" : "_ZTIPNSt3__18optionalImEE"
    },
    {
     "referenced_type" : "_ZTIRm"
    }
   ],
   "return_type" : "_ZTIv",
   "source_file" : "external/libcxx/include/optional",
   "template_args" : [ "_ZTIRm" ]
  },
  {
   "function_name" : "std::__1::optional<unsigned long>::optional",
   "linker_set_key" : "_ZNSt3__18optionalImEC2ENS_9nullopt_tE",
   "parameters" :
   [
    {
     "is_this_ptr" : true,
     "referenced_type" : "_ZTIPNSt3__18optionalImEE"
    },
    {
     "referenced_type" : "_ZTINSt3__19nullopt_tE"
    }
   ],
   "return_type" : "_ZTIv",
   "source_file" : "external/libcxx/include/optional"
  },
  {
   "function_name" : "std::__1::optional<unsigned long>::optional",
   "linker_set_key" : "_ZNSt3__18optionalImEC2EOS1_",
   "parameters" :
   [
    {
     "is_this_ptr" : true,
     "referenced_type" : "_ZTIPNSt3__18optionalImEE"
    },
    {
     "referenced_type" : "_ZTIONSt3__18optionalImEE"
    }
   ],
   "return_type" : "_ZTIv",
   "source_file" : "external/libcxx/include/optional"
  },
  {
   "function_name" : "std::__1::optional<unsigned long>::optional",
   "linker_set_key" : "_ZNSt3__18optionalImEC2ERKS1_",
   "parameters" :
   [
    {
     "is_this_ptr" : true,
     "referenced_type" : "_ZTIPNSt3__18optionalImEE"
    },
    {
     "referenced_type" : "_ZTIRKNSt3__18optionalImEE"
    }
   ],
   "return_type" : "_ZTIv",
   "source_file" : "external/libcxx/include/optional"
  },
  {
   "function_name" : "std::__1::optional<unsigned long>::optional",
   "linker_set_key" : "_ZNSt3__18optionalImEC2IRmLi0EEEOT_",
   "parameters" :
   [
    {
     "is_this_ptr" : true,
     "referenced_type" : "_ZTIPNSt3__18optionalImEE"
    },
    {
     "referenced_type" : "_ZTIRm"
    }
   ],
   "return_type" : "_ZTIv",
   "source_file" : "external/libcxx/include/optional",
   "template_args" : [ "_ZTIRm" ]
  },
  {
   "function_name" : "std::__1::optional<unsigned long>::operator=",
   "linker_set_key" : "_ZNSt3__18optionalImEaSEOS1_",
   "parameters" :
   [
    {
     "is_this_ptr" : true,
     "referenced_type" : "_ZTIPNSt3__18optionalImEE"
    },
    {
     "referenced_type" : "_ZTIONSt3__18optionalImEE"
    }
   ],
   "return_type" : "_ZTIRNSt3__18optionalImEE",
   "source_file" : "external/libcxx/include/optional"
  },
  {
   "function_name" : "std::__1::optional<unsigned long>::operator=",
   "linker_set_key" : "_ZNSt3__18optionalImEaSERKS1_",
   "parameters" :
   [
    {
     "is_this_ptr" : true,
     "referenced_type" : "_ZTIPNSt3__18optionalImEE"
    },
    {
     "referenced_type" : "_ZTIRKNSt3__18optionalImEE"
    }
   ],
   "return_type" : "_ZTIRNSt3__18optionalImEE",
   "source_file" : "external/libcxx/include/optional"
  },
  {
   "function_name" : "std::__1::addressof",
   "linker_set_key" : "_ZNSt3__19addressofIDiEEPT_RS1_",
   "parameters" :
   [
    {
     "referenced_type" : "_ZTIRDi"
    }
   ],
   "return_type" : "_ZTIPDi",
   "source_file" : "external/libcxx/include/type_traits",
   "template_args" : [ "_ZTIDi" ]
  },
  {
   "function_name" : "std::__1::addressof",
   "linker_set_key" : "_ZNSt3__19addressofIDsEEPT_RS1_",
   "parameters" :
   [
    {
     "referenced_type" : "_ZTIRDs"
    }
   ],
   "return_type" : "_ZTIPDs",
   "source_file" : "external/libcxx/include/type_traits",
   "template_args" : [ "_ZTIDs" ]
  },
  {
   "function_name" : "std::__1::addressof",
   "linker_set_key" : "_ZNSt3__19addressofIKNS_10__function16__policy_storageEEEPT_RS4_",
   "parameters" :
   [
    {
     "referenced_type" : "_ZTIRKNSt3__110__function16__policy_storageE"
    }
   ],
   "return_type" : "_ZTIPKNSt3__110__function16__policy_storageE",
   "source_file" : "external/libcxx/include/type_traits",
   "template_args" : [ "_ZTIKNSt3__110__function16__policy_storageE" ]
  },
  {
   "function_name" : "std::__1::addressof",
   "linker_set_key" : "_ZNSt3__19addressofIKNS_12basic_stringIcNS_11char_traitsIcEENS_9allocatorIcEEEEEEPT_RS8_",
   "parameters" :
   [
    {
     "referenced_type" : "_ZTIRKNSt3__112basic_stringIcNS_11char_traitsIcEENS_9allocatorIcEEEE"
    }
   ],
   "return_type" : "_ZTIPKNSt3__112basic_stringIcNS_11char_traitsIcEENS_9allocatorIcEEEE",
   "source_file" : "external/libcxx/include/type_traits",
   "template_args" : [ "_ZTIKNSt3__112basic_stringIcNS_11char_traitsIcEENS_9allocatorIcEEEE" ]
  },
  {
   "function_name" : "std::__1::addressof",
   "linker_set_key" : "_ZNSt3__19addressofIKcEEPT_RS2_",
   "parameters" :
   [
    {
     "referenced_type" : "_ZTIRKc"
    }
   ],
   "return_type" : "_ZTIPKc",
   "source_file" : "external/libcxx/include/type_traits",
   "template_args" : [ "_ZTIKc" ]
  },
  {
   "function_name" : "std::__1::addressof",
   "linker_set_key" : "_ZNSt3__19addressofINS_12basic_stringIcNS_11char_traitsIcEENS_9allocatorIcEEEEEEPT_RS7_",
   "parameters" :
   [
    {
     "referenced_type" : "_ZTIRNSt3__112basic_stringIcNS_11char_traitsIcEENS_9allocatorIcEEEE"
    }
   ],
   "return_type" : "_ZTIPNSt3__112basic_stringIcNS_11char_traitsIcEENS_9allocatorIcEEEE",
   "source_file" : "external/libcxx/include/type_traits",
   "template_args" : [ "_ZTINSt3__112basic_stringIcNS_11char_traitsIcEENS_9allocatorIcEEEE" ]
  },
  {
   "function_name" : "std::__1::addressof",
   "linker_set_key" : "_ZNSt3__19addressofIcEEPT_RS1_",
   "parameters" :
   [
    {
     "referenced_type" : "_ZTIRc"
    }
   ],
   "return_type" : "_ZTIPc",
   "source_file" : "external/libcxx/include/type_traits",
   "template_args" : [ "_ZTIc" ]
  },
  {
   "function_name" : "std::__1::addressof",
   "linker_set_key" : "_ZNSt3__19addressofIwEEPT_RS1_",
   "parameters" :
   [
    {
     "referenced_type" : "_ZTIRw"
    }
   ],
   "return_type" : "_ZTIPw",
   "source_file" : "external/libcxx/include/type_traits",
   "template_args" : [ "_ZTIw" ]
  },
  {
   "function_name" : "std::__1::allocator<char32_t>::deallocate",
   "linker_set_key" : "_ZNSt3__19allocatorIDiE10deallocateEPDim",
   "parameters" :
   [
    {
     "is_this_ptr" : true,
     "referenced_type" : "_ZTIPNSt3__19allocatorIDiEE"
    },
    {
     "referenced_type" : "_ZTIPDi"
    },
    {
     "referenced_type" : "_ZTIm"
    }
   ],
   "return_type" : "_ZTIv",
   "source_file" : "external/libcxx/include/memory"
  },
  {
   "function_name" : "std::__1::allocator<char32_t>::allocate",
   "linker_set_key" : "_ZNSt3__19allocatorIDiE8allocateEmPKv",
   "parameters" :
   [
    {
     "is_this_ptr" : true,
     "referenced_type" : "_ZTIPNSt3__19allocatorIDiEE"
    },
    {
     "referenced_type" : "_ZTIm"
    },
    {
     "default_arg" : true,
     "referenced_type" : "_ZTIPKv"
    }
   ],
   "return_type" : "_ZTIPDi",
   "source_file" : "external/libcxx/include/memory"
  },
  {
   "function_name" : "std::__1::allocator<char32_t>::allocator",
   "linker_set_key" : "_ZNSt3__19allocatorIDiEC1Ev",
   "parameters" :
   [
    {
     "is_this_ptr" : true,
     "referenced_type" : "_ZTIPNSt3__19allocatorIDiEE"
    }
   ],
   "return_type" : "_ZTIv",
   "source_file" : "external/libcxx/include/memory"
  },
  {
   "function_name" : "std::__1::allocator<char32_t>::allocator",
   "linker_set_key" : "_ZNSt3__19allocatorIDiEC2Ev",
   "parameters" :
   [
    {
     "is_this_ptr" : true,
     "referenced_type" : "_ZTIPNSt3__19allocatorIDiEE"
    }
   ],
   "return_type" : "_ZTIv",
   "source_file" : "external/libcxx/include/memory"
  },
  {
   "function_name" : "std::__1::allocator<char16_t>::deallocate",
   "linker_set_key" : "_ZNSt3__19allocatorIDsE10deallocateEPDsm",
   "parameters" :
   [
    {
     "is_this_ptr" : true,
     "referenced_type" : "_ZTIPNSt3__19allocatorIDsEE"
    },
    {
     "referenced_type" : "_ZTIPDs"
    },
    {
     "referenced_type" : "_ZTIm"
    }
   ],
   "return_type" : "_ZTIv",
   "source_file" : "external/libcxx/include/memory"
  },
  {
   "function_name" : "std::__1::allocator<char16_t>::allocate",
   "linker_set_key" : "_ZNSt3__19allocatorIDsE8allocateEmPKv",
   "parameters" :
   [
    {
     "is_this_ptr" : true,
     "referenced_type" : "_ZTIPNSt3__19allocatorIDsEE"
    },
    {
     "referenced_type" : "_ZTIm"
    },
    {
     "default_arg" : true,
     "referenced_type" : "_ZTIPKv"
    }
   ],
   "return_type" : "_ZTIPDs",
   "source_file" : "external/libcxx/include/memory"
  },
  {
   "function_name" : "std::__1::allocator<char16_t>::allocator",
   "linker_set_key" : "_ZNSt3__19allocatorIDsEC1Ev",
   "parameters" :
   [
    {
     "is_this_ptr" : true,
     "referenced_type" : "_ZTIPNSt3__19allocatorIDsEE"
    }
   ],
   "return_type" : "_ZTIv",
   "source_file" : "external/libcxx/include/memory"
  },
  {
   "function_name" : "std::__1::allocator<char16_t>::allocator",
   "linker_set_key" : "_ZNSt3__19allocatorIDsEC2Ev",
   "parameters" :
   [
    {
     "is_this_ptr" : true,
     "referenced_type" : "_ZTIPNSt3__19allocatorIDsEE"
    }
   ],
   "return_type" : "_ZTIv",
   "source_file" : "external/libcxx/include/memory"
  },
  {
   "function_name" : "std::__1::allocator<std::__1::optional<std::__1::basic_string<char>>>::deallocate",
   "linker_set_key" : "_ZNSt3__19allocatorINS_8optionalINS_12basic_stringIcNS_11char_traitsIcEENS0_IcEEEEEEE10deallocateEPS7_m",
   "parameters" :
   [
    {
     "is_this_ptr" : true,
     "referenced_type" : "_ZTIPNSt3__19allocatorINS_8optionalINS_12basic_stringIcNS_11char_traitsIcEENS0_IcEEEEEEEE"
    },
    {
     "referenced_type" : "_ZTIPNSt3__18optionalINS_12basic_stringIcNS_11char_traitsIcEENS_9allocatorIcEEEEEE"
    },
    {
     "referenced_type" : "_ZTIm"
    }
   ],
   "return_type" : "_ZTIv",
   "source_file" : "external/libcxx/include/memory"
  },
  {
   "function_name" : "std::__1::allocator<std::__1::optional<std::__1::basic_string<char>>>::destroy",
   "linker_set_key" : "_ZNSt3__19allocatorINS_8optionalINS_12basic_stringIcNS_11char_traitsIcEENS0_IcEEEEEEE7destroyEPS7_",
   "parameters" :
   [
    {
     "is_this_ptr" : true,
     "referenced_type" : "_ZTIPNSt3__19allocatorINS_8optionalINS_12basic_stringIcNS_11char_traitsIcEENS0_IcEEEEEEEE"
    },
    {
     "referenced_type" : "_ZTIPNSt3__18optionalINS_12basic_stringIcNS_11char_traitsIcEENS_9allocatorIcEEEEEE"
    }
   ],
   "return_type" : "_ZTIv",
   "source_file" : "external/libcxx/include/memory"
  },
  {
   "function_name" : "std::__1::allocator<std::__1::optional<std::__1::basic_string<char>>>::allocate",
   "linker_set_key" : "_ZNSt3__19allocatorINS_8optionalINS_12basic_stringIcNS_11char_traitsIcEENS0_IcEEEEEEE8allocateEmPKv",
   "parameters" :
   [
    {
     "is_this_ptr" : true,
     "referenced_type" : "_ZTIPNSt3__19allocatorINS_8optionalINS_12basic_stringIcNS_11char_traitsIcEENS0_IcEEEEEEEE"
    },
    {
     "referenced_type" : "_ZTIm"
    },
    {
     "default_arg" : true,
     "referenced_type" : "_ZTIPKv"
    }
   ],
   "return_type" : "_ZTIPNSt3__18optionalINS_12basic_stringIcNS_11char_traitsIcEENS_9allocatorIcEEEEEE",
   "source_file" : "external/libcxx/include/memory"
  },
  {
   "function_name" : "std::__1::allocator<std::__1::optional<std::__1::basic_string<char>>>::construct",
   "linker_set_key" : "_ZNSt3__19allocatorINS_8optionalINS_12basic_stringIcNS_11char_traitsIcEENS0_IcEEEEEEE9constructIS7_JS7_EEEvPT_DpOT0_",
   "parameters" :
   [
    {
     "is_this_ptr" : true,
     "referenced_type" : "_ZTIPNSt3__19allocatorINS_8optionalINS_12basic_stringIcNS_11char_traitsIcEENS0_IcEEEEEEEE"
    },
    {
     "referenced_type" : "_ZTIPNSt3__18optionalINS_12basic_stringIcNS_11char_traitsIcEENS_9allocatorIcEEEEEE"
    },
    {
     "referenced_type" : "_ZTIONSt3__18optionalINS_12basic_stringIcNS_11char_traitsIcEENS_9allocatorIcEEEEEE"
    }
   ],
   "return_type" : "_ZTIv",
   "source_file" : "external/libcxx/include/memory",
   "template_args" :
   [
    "_ZTINSt3__18optionalINS_12basic_stringIcNS_11char_traitsIcEENS_9allocatorIcEEEEEE"
   ]
  },
  {
   "function_name" : "std::__1::allocator<std::__1::optional<std::__1::basic_string<char>>>::allocator",
   "linker_set_key" : "_ZNSt3__19allocatorINS_8optionalINS_12basic_stringIcNS_11char_traitsIcEENS0_IcEEEEEEEC1Ev",
   "parameters" :
   [
    {
     "is_this_ptr" : true,
     "referenced_type" : "_ZTIPNSt3__19allocatorINS_8optionalINS_12basic_stringIcNS_11char_traitsIcEENS0_IcEEEEEEEE"
    }
   ],
   "return_type" : "_ZTIv",
   "source_file" : "external/libcxx/include/memory"
  },
  {
   "function_name" : "std::__1::allocator<std::__1::optional<std::__1::basic_string<char>>>::allocator",
   "linker_set_key" : "_ZNSt3__19allocatorINS_8optionalINS_12basic_stringIcNS_11char_traitsIcEENS0_IcEEEEEEEC2Ev",
   "parameters" :
   [
    {
     "is_this_ptr" : true,
     "referenced_type" : "_ZTIPNSt3__19allocatorINS_8optionalINS_12basic_stringIcNS_11char_traitsIcEENS0_IcEEEEEEEE"
    }
   ],
   "return_type" : "_ZTIv",
   "source_file" : "external/libcxx/include/memory"
  },
  {
   "function_name" : "std::__1::allocator<char>::deallocate",
   "linker_set_key" : "_ZNSt3__19allocatorIcE10deallocateEPcm",
   "parameters" :
   [
    {
     "is_this_ptr" : true,
     "referenced_type" : "_ZTIPNSt3__19allocatorIcEE"
    },
    {
     "referenced_type" : "_ZTIPc"
    },
    {
     "referenced_type" : "_ZTIm"
    }
   ],
   "return_type" : "_ZTIv",
   "source_file" : "external/libcxx/include/memory"
  },
  {
   "function_name" : "std::__1::allocator<char>::allocate",
   "linker_set_key" : "_ZNSt3__19allocatorIcE8allocateEmPKv",
   "parameters" :
   [
    {
     "is_this_ptr" : true,
     "referenced_type" : "_ZTIPNSt3__19allocatorIcEE"
    },
    {
     "referenced_type" : "_ZTIm"
    },
    {
     "default_arg" : true,
     "referenced_type" : "_ZTIPKv"
    }
   ],
   "return_type" : "_ZTIPc",
   "source_file" : "external/libcxx/include/memory"
  },
  {
   "function_name" : "std::__1::allocator<char>::allocator",
   "linker_set_key" : "_ZNSt3__19allocatorIcEC1Ev",
   "parameters" :
   [
    {
     "is_this_ptr" : true,
     "referenced_type" : "_ZTIPNSt3__19allocatorIcEE"
    }
   ],
   "return_type" : "_ZTIv",
   "source_file" : "external/libcxx/include/memory"
  },
  {
   "function_name" : "std::__1::allocator<char>::allocator",
   "linker_set_key" : "_ZNSt3__19allocatorIcEC2Ev",
   "parameters" :
   [
    {
     "is_this_ptr" : true,
     "referenced_type" : "_ZTIPNSt3__19allocatorIcEE"
    }
   ],
   "return_type" : "_ZTIv",
   "source_file" : "external/libcxx/include/memory"
  },
  {
   "function_name" : "std::__1::allocator<wchar_t>::deallocate",
   "linker_set_key" : "_ZNSt3__19allocatorIwE10deallocateEPwm",
   "parameters" :
   [
    {
     "is_this_ptr" : true,
     "referenced_type" : "_ZTIPNSt3__19allocatorIwEE"
    },
    {
     "referenced_type" : "_ZTIPw"
    },
    {
     "referenced_type" : "_ZTIm"
    }
   ],
   "return_type" : "_ZTIv",
   "source_file" : "external/libcxx/include/memory"
  },
  {
   "function_name" : "std::__1::allocator<wchar_t>::allocate",
   "linker_set_key" : "_ZNSt3__19allocatorIwE8allocateEmPKv",
   "parameters" :
   [
    {
     "is_this_ptr" : true,
     "referenced_type" : "_ZTIPNSt3__19allocatorIwEE"
    },
    {
     "referenced_type" : "_ZTIm"
    },
    {
     "default_arg" : true,
     "referenced_type" : "_ZTIPKv"
    }
   ],
   "return_type" : "_ZTIPw",
   "source_file" : "external/libcxx/include/memory"
  },
  {
   "function_name" : "std::__1::allocator<wchar_t>::allocator",
   "linker_set_key" : "_ZNSt3__19allocatorIwEC1Ev",
   "parameters" :
   [
    {
     "is_this_ptr" : true,
     "referenced_type" : "_ZTIPNSt3__19allocatorIwEE"
    }
   ],
   "return_type" : "_ZTIv",
   "source_file" : "external/libcxx/include/memory"
  },
  {
   "function_name" : "std::__1::allocator<wchar_t>::allocator",
   "linker_set_key" : "_ZNSt3__19allocatorIwEC2Ev",
   "parameters" :
   [
    {
     "is_this_ptr" : true,
     "referenced_type" : "_ZTIPNSt3__19allocatorIwEE"
    }
   ],
   "return_type" : "_ZTIv",
   "source_file" : "external/libcxx/include/memory"
  },
  {
   "function_name" : "std::__1::nullopt_t::__secret_tag::__secret_tag",
   "linker_set_key" : "_ZNSt3__19nullopt_t12__secret_tagC1Ev",
   "parameters" :
   [
    {
     "is_this_ptr" : true,
     "referenced_type" : "_ZTIPNSt3__19nullopt_t12__secret_tagE"
    }
   ],
   "return_type" : "_ZTIv",
   "source_file" : "external/libcxx/include/optional"
  },
  {
   "function_name" : "std::__1::nullopt_t::__secret_tag::__secret_tag",
   "linker_set_key" : "_ZNSt3__19nullopt_t12__secret_tagC2Ev",
   "parameters" :
   [
    {
     "is_this_ptr" : true,
     "referenced_type" : "_ZTIPNSt3__19nullopt_t12__secret_tagE"
    }
   ],
   "return_type" : "_ZTIv",
   "source_file" : "external/libcxx/include/optional"
  },
  {
   "function_name" : "std::__1::nullopt_t::nullopt_t",
   "linker_set_key" : "_ZNSt3__19nullopt_tC1ENS0_12__secret_tagES1_",
   "parameters" :
   [
    {
     "is_this_ptr" : true,
     "referenced_type" : "_ZTIPNSt3__19nullopt_tE"
    },
    {
     "referenced_type" : "_ZTINSt3__19nullopt_t12__secret_tagE"
    },
    {
     "referenced_type" : "_ZTINSt3__19nullopt_t12__secret_tagE"
    }
   ],
   "return_type" : "_ZTIv",
   "source_file" : "external/libcxx/include/optional"
  },
  {
   "function_name" : "std::__1::nullopt_t::nullopt_t",
   "linker_set_key" : "_ZNSt3__19nullopt_tC2ENS0_12__secret_tagES1_",
   "parameters" :
   [
    {
     "is_this_ptr" : true,
     "referenced_type" : "_ZTIPNSt3__19nullopt_tE"
    },
    {
     "referenced_type" : "_ZTINSt3__19nullopt_t12__secret_tagE"
    },
    {
     "referenced_type" : "_ZTINSt3__19nullopt_t12__secret_tagE"
    }
   ],
   "return_type" : "_ZTIv",
   "source_file" : "external/libcxx/include/optional"
  },
  {
   "function_name" : "std::__1::tuple_cat",
   "linker_set_key" : "_ZNSt3__19tuple_catEv",
   "return_type" : "_ZTINSt3__15tupleIJEEE",
   "source_file" : "external/libcxx/include/tuple"
  },
  {
   "function_name" : "std::__1::operator==",
   "linker_set_key" : "_ZNSt3__1eqERKNS_14__bit_iteratorIT_XT0_EXT1_EEES5_",
   "parameters" :
   [
    {
     "referenced_type" : "_ZTIRKNSt3__114__bit_iteratorIT_XT0_EXT1_EEE"
    },
    {
     "referenced_type" : "_ZTIRKNSt3__114__bit_iteratorIT_XT0_EXT1_EEE"
    }
   ],
   "return_type" : "_ZTIb",
   "source_file" : "external/libcxx/include/__bit_reference"
  },
  {
   "function_name" : "std::__1::operator==",
   "linker_set_key" : "_ZNSt3__1eqERKNS_24uniform_int_distribution10param_typeES3_",
   "parameters" :
   [
    {
     "referenced_type" : "_ZTIRKNSt3__124uniform_int_distribution10param_typeE"
    },
    {
     "referenced_type" : "_ZTIRKNSt3__124uniform_int_distribution10param_typeE"
    }
   ],
   "return_type" : "_ZTIb",
   "source_file" : "external/libcxx/include/algorithm"
  },
  {
   "function_name" : "std::__1::operator==",
   "linker_set_key" : "_ZNSt3__1eqERKNS_24uniform_int_distributionIT_EES5_",
   "parameters" :
   [
    {
     "referenced_type" : "_ZTIRKNSt3__124uniform_int_distributionIT_EE"
    },
    {
     "referenced_type" : "_ZTIRKNSt3__124uniform_int_distributionIT_EE"
    }
   ],
   "return_type" : "_ZTIb",
   "source_file" : "external/libcxx/include/algorithm"
  },
  {
   "function_name" : "std::__1::operator>=",
   "linker_set_key" : "_ZNSt3__1geERKNS_14__bit_iteratorIT_XT0_EXT1_EEES5_",
   "parameters" :
   [
    {
     "referenced_type" : "_ZTIRKNSt3__114__bit_iteratorIT_XT0_EXT1_EEE"
    },
    {
     "referenced_type" : "_ZTIRKNSt3__114__bit_iteratorIT_XT0_EXT1_EEE"
    }
   ],
   "return_type" : "_ZTIb",
   "source_file" : "external/libcxx/include/__bit_reference"
  },
  {
   "function_name" : "std::__1::operator>",
   "linker_set_key" : "_ZNSt3__1gtERKNS_14__bit_iteratorIT_XT0_EXT1_EEES5_",
   "parameters" :
   [
    {
     "referenced_type" : "_ZTIRKNSt3__114__bit_iteratorIT_XT0_EXT1_EEE"
    },
    {
     "referenced_type" : "_ZTIRKNSt3__114__bit_iteratorIT_XT0_EXT1_EEE"
    }
   ],
   "return_type" : "_ZTIb",
   "source_file" : "external/libcxx/include/__bit_reference"
  },
  {
   "function_name" : "std::__1::operator<=",
   "linker_set_key" : "_ZNSt3__1leERKNS_14__bit_iteratorIT_XT0_EXT1_EEES5_",
   "parameters" :
   [
    {
     "referenced_type" : "_ZTIRKNSt3__114__bit_iteratorIT_XT0_EXT1_EEE"
    },
    {
     "referenced_type" : "_ZTIRKNSt3__114__bit_iteratorIT_XT0_EXT1_EEE"
    }
   ],
   "return_type" : "_ZTIb",
   "source_file" : "external/libcxx/include/__bit_reference"
  },
  {
   "function_name" : "std::__1::operator<",
   "linker_set_key" : "_ZNSt3__1ltERKNS_14__bit_iteratorIT_XT0_EXT1_EEES5_",
   "parameters" :
   [
    {
     "referenced_type" : "_ZTIRKNSt3__114__bit_iteratorIT_XT0_EXT1_EEE"
    },
    {
     "referenced_type" : "_ZTIRKNSt3__114__bit_iteratorIT_XT0_EXT1_EEE"
    }
   ],
   "return_type" : "_ZTIb",
   "source_file" : "external/libcxx/include/__bit_reference"
  },
  {
   "function_name" : "std::__1::operator-",
   "linker_set_key" : "_ZNSt3__1miERKNS_14__bit_iteratorIT_XT0_EXT1_EEES5_",
   "parameters" :
   [
    {
     "referenced_type" : "_ZTIRKNSt3__114__bit_iteratorIT_XT0_EXT1_EEE"
    },
    {
     "referenced_type" : "_ZTIRKNSt3__114__bit_iteratorIT_XT0_EXT1_EEE"
    }
   ],
   "return_type" : "_ZTINT_15difference_typeE",
   "source_file" : "external/libcxx/include/__bit_reference"
  },
  {
   "function_name" : "std::__1::operator!=",
   "linker_set_key" : "_ZNSt3__1neERKNS_14__bit_iteratorIT_XT0_EXT1_EEES5_",
   "parameters" :
   [
    {
     "referenced_type" : "_ZTIRKNSt3__114__bit_iteratorIT_XT0_EXT1_EEE"
    },
    {
     "referenced_type" : "_ZTIRKNSt3__114__bit_iteratorIT_XT0_EXT1_EEE"
    }
   ],
   "return_type" : "_ZTIb",
   "source_file" : "external/libcxx/include/__bit_reference"
  },
  {
   "function_name" : "std::__1::operator!=",
   "linker_set_key" : "_ZNSt3__1neERKNS_24uniform_int_distribution10param_typeES3_",
   "parameters" :
   [
    {
     "referenced_type" : "_ZTIRKNSt3__124uniform_int_distribution10param_typeE"
    },
    {
     "referenced_type" : "_ZTIRKNSt3__124uniform_int_distribution10param_typeE"
    }
   ],
   "return_type" : "_ZTIb",
   "source_file" : "external/libcxx/include/algorithm"
  },
  {
   "function_name" : "std::__1::operator!=",
   "linker_set_key" : "_ZNSt3__1neERKNS_24uniform_int_distributionIT_EES5_",
   "parameters" :
   [
    {
     "referenced_type" : "_ZTIRKNSt3__124uniform_int_distributionIT_EE"
    },
    {
     "referenced_type" : "_ZTIRKNSt3__124uniform_int_distributionIT_EE"
    }
   ],
   "return_type" : "_ZTIb",
   "source_file" : "external/libcxx/include/algorithm"
  },
  {
   "function_name" : "std::__1::operator+",
   "linker_set_key" : "_ZNSt3__1plENT_15difference_typeERKNS_14__bit_iteratorIS0_XT0_EXT1_EEE",
   "parameters" :
   [
    {
     "referenced_type" : "_ZTINT_15difference_typeE"
    },
    {
     "referenced_type" : "_ZTIRKNSt3__114__bit_iteratorIT_XT0_EXT1_EEE"
    }
   ],
   "return_type" : "_ZTINSt3__114__bit_iteratorIT_XT0_EXT1_EEE",
   "source_file" : "external/libcxx/include/__bit_reference"
  },
  {
   "function_name" : "std::exception::exception",
   "linker_set_key" : "_ZNSt9exceptionC1Ev",
   "parameters" :
   [
    {
     "is_this_ptr" : true,
     "referenced_type" : "_ZTIPSt9exception"
    }
   ],
   "return_type" : "_ZTIv",
   "source_file" : "external/libcxx/include/exception"
  },
  {
   "function_name" : "std::exception::exception",
   "linker_set_key" : "_ZNSt9exceptionC2Ev",
   "parameters" :
   [
    {
     "is_this_ptr" : true,
     "referenced_type" : "_ZTIPSt9exception"
    }
   ],
   "return_type" : "_ZTIv",
   "source_file" : "external/libcxx/include/exception"
  },
  {
   "access" : "protected",
   "function_name" : "std::type_info::type_info",
   "linker_set_key" : "_ZNSt9type_infoC1EPKc",
   "parameters" :
   [
    {
     "is_this_ptr" : true,
     "referenced_type" : "_ZTIPSt9type_info"
    },
    {
     "referenced_type" : "_ZTIPKc"
    }
   ],
   "return_type" : "_ZTIv",
   "source_file" : "external/libcxx/include/typeinfo"
  },
  {
   "access" : "protected",
   "function_name" : "std::type_info::type_info",
   "linker_set_key" : "_ZNSt9type_infoC2EPKc",
   "parameters" :
   [
    {
     "is_this_ptr" : true,
     "referenced_type" : "_ZTIPSt9type_info"
    },
    {
     "referenced_type" : "_ZTIPKc"
    }
   ],
   "return_type" : "_ZTIv",
   "source_file" : "external/libcxx/include/typeinfo"
  },
  {
   "function_name" : "std::__1::atomic_flag::test_and_set",
   "linker_set_key" : "_ZNVSt3__111atomic_flag12test_and_setENS_12memory_orderE",
   "parameters" :
   [
    {
     "is_this_ptr" : true,
     "referenced_type" : "_ZTIPVNSt3__111atomic_flagE"
    },
    {
     "default_arg" : true,
     "referenced_type" : "_ZTINSt3__112memory_orderE"
    }
   ],
   "return_type" : "_ZTIb",
   "source_file" : "external/libcxx/include/atomic"
  },
  {
   "function_name" : "std::__1::atomic_flag::clear",
   "linker_set_key" : "_ZNVSt3__111atomic_flag5clearENS_12memory_orderE",
   "parameters" :
   [
    {
     "is_this_ptr" : true,
     "referenced_type" : "_ZTIPVNSt3__111atomic_flagE"
    },
    {
     "default_arg" : true,
     "referenced_type" : "_ZTINSt3__112memory_orderE"
    }
   ],
   "return_type" : "_ZTIv",
   "source_file" : "external/libcxx/include/atomic"
  },
  {
   "function_name" : "std::operator&=",
   "linker_set_key" : "_ZStaNRSt4byteS_",
   "parameters" :
   [
    {
     "referenced_type" : "_ZTIRSt4byte"
    },
    {
     "referenced_type" : "_ZTISt4byte"
    }
   ],
   "return_type" : "_ZTIRSt4byte",
   "source_file" : "external/libcxx/include/cstddef"
  },
  {
   "function_name" : "std::operator&",
   "linker_set_key" : "_ZStanSt4byteS_",
   "parameters" :
   [
    {
     "referenced_type" : "_ZTISt4byte"
    },
    {
     "referenced_type" : "_ZTISt4byte"
    }
   ],
   "return_type" : "_ZTISt4byte",
   "source_file" : "external/libcxx/include/cstddef"
  },
  {
   "function_name" : "std::operator~",
   "linker_set_key" : "_ZStcoSt4byte",
   "parameters" :
   [
    {
     "referenced_type" : "_ZTISt4byte"
    }
   ],
   "return_type" : "_ZTISt4byte",
   "source_file" : "external/libcxx/include/cstddef"
  },
  {
   "function_name" : "std::operator^=",
   "linker_set_key" : "_ZSteORSt4byteS_",
   "parameters" :
   [
    {
     "referenced_type" : "_ZTIRSt4byte"
    },
    {
     "referenced_type" : "_ZTISt4byte"
    }
   ],
   "return_type" : "_ZTIRSt4byte",
   "source_file" : "external/libcxx/include/cstddef"
  },
  {
   "function_name" : "std::operator^",
   "linker_set_key" : "_ZSteoSt4byteS_",
   "parameters" :
   [
    {
     "referenced_type" : "_ZTISt4byte"
    },
    {
     "referenced_type" : "_ZTISt4byte"
    }
   ],
   "return_type" : "_ZTISt4byte",
   "source_file" : "external/libcxx/include/cstddef"
  },
  {
   "function_name" : "std::operator==",
   "linker_set_key" : "_ZSteqRKSt13exception_ptrS1_",
   "parameters" :
   [
    {
     "referenced_type" : "_ZTIRKSt13exception_ptr"
    },
    {
     "referenced_type" : "_ZTIRKSt13exception_ptr"
    }
   ],
   "return_type" : "_ZTIb",
   "source_file" : "external/libcxx/include/exception"
  },
  {
   "function_name" : "std::operator!=",
   "linker_set_key" : "_ZStneRKSt13exception_ptrS1_",
   "parameters" :
   [
    {
     "referenced_type" : "_ZTIRKSt13exception_ptr"
    },
    {
     "referenced_type" : "_ZTIRKSt13exception_ptr"
    }
   ],
   "return_type" : "_ZTIb",
   "source_file" : "external/libcxx/include/exception"
  },
  {
   "function_name" : "std::operator|=",
   "linker_set_key" : "_ZStoRRSt4byteS_",
   "parameters" :
   [
    {
     "referenced_type" : "_ZTIRSt4byte"
    },
    {
     "referenced_type" : "_ZTISt4byte"
    }
   ],
   "return_type" : "_ZTIRSt4byte",
   "source_file" : "external/libcxx/include/cstddef"
  },
  {
   "function_name" : "std::operator|",
   "linker_set_key" : "_ZStorSt4byteS_",
   "parameters" :
   [
    {
     "referenced_type" : "_ZTISt4byte"
    },
    {
     "referenced_type" : "_ZTISt4byte"
    }
   ],
   "return_type" : "_ZTISt4byte",
   "source_file" : "external/libcxx/include/cstddef"
  },
  {
   "function_name" : "operator delete[]",
   "linker_set_key" : "_ZdaPvS_",
   "parameters" :
   [
    {
     "referenced_type" : "_ZTIPv"
    },
    {
     "referenced_type" : "_ZTIPv"
    }
   ],
   "return_type" : "_ZTIv",
   "source_file" : "external/libcxx/include/new"
  },
  {
   "function_name" : "operator delete",
   "linker_set_key" : "_ZdlPvS_",
   "parameters" :
   [
    {
     "referenced_type" : "_ZTIPv"
    },
    {
     "referenced_type" : "_ZTIPv"
    }
   ],
   "return_type" : "_ZTIv",
   "source_file" : "external/libcxx/include/new"
  },
  {
   "function_name" : "operator new[]",
   "linker_set_key" : "_ZnamPv",
   "parameters" :
   [
    {
     "referenced_type" : "_ZTIm"
    },
    {
     "referenced_type" : "_ZTIPv"
    }
   ],
   "return_type" : "_ZTIPv",
   "source_file" : "external/libcxx/include/new"
  },
  {
   "function_name" : "operator new",
   "linker_set_key" : "_ZnwmPv",
   "parameters" :
   [
    {
     "referenced_type" : "_ZTIm"
    },
    {
     "referenced_type" : "_ZTIPv"
    }
   ],
   "return_type" : "_ZTIPv",
   "source_file" : "external/libcxx/include/new"
  }
 ],
 "global_vars" :
 [
  {
   "linker_set_key" : "_ZN12_GLOBAL__N_19is_vectorE",
   "name" : "(anonymous namespace)::is_vector",
   "referenced_type" : "_ZTIKb",
   "source_file" : "out/soong/.intermediates/system/libsysprop/srcs/libPlatformProperties/android_arm64_armv8-a_static_apex31/gen/sysprop/android/sysprop/SetupWizardProperties.sysprop.cpp"
  },
  {
   "linker_set_key" : "_ZN12_GLOBAL__N_19is_vectorINSt3__16vectorINS1_8optionalINS1_12basic_stringIcNS1_11char_traitsIcEENS1_9allocatorIcEEEEEENS7_ISA_EEEEEE",
   "name" : "(anonymous namespace)::is_vector",
   "referenced_type" : "_ZTIKb",
   "source_file" : "out/soong/.intermediates/system/libsysprop/srcs/libPlatformProperties/android_arm64_armv8-a_static_apex31/gen/sysprop/android/sysprop/SetupWizardProperties.sysprop.cpp"
  },
  {
   "linker_set_key" : "_ZN12_GLOBAL__N_19is_vectorINSt3__16vectorIT_NS1_9allocatorIS3_EEEEEE",
   "name" : "(anonymous namespace)::is_vector",
   "referenced_type" : "_ZTIKb",
   "source_file" : "out/soong/.intermediates/system/libsysprop/srcs/libPlatformProperties/android_arm64_armv8-a_static_apex31/gen/sysprop/android/sysprop/SetupWizardProperties.sysprop.cpp"
  },
  {
   "linker_set_key" : "_ZN12_GLOBAL__N_19is_vectorINSt3__18optionalINS1_12basic_stringIcNS1_11char_traitsIcEENS1_9allocatorIcEEEEEEEE",
   "name" : "(anonymous namespace)::is_vector",
   "referenced_type" : "_ZTIKb",
   "source_file" : "out/soong/.intermediates/system/libsysprop/srcs/libPlatformProperties/android_arm64_armv8-a_static_apex31/gen/sysprop/android/sysprop/SetupWizardProperties.sysprop.cpp"
  },
  {
   "linker_set_key" : "_ZN8log_time5EPOCHE",
   "name" : "log_time::EPOCH",
   "referenced_type" : "_ZTIK8timespec",
   "source_file" : "system/logging/liblog/include/log/log_time.h"
  },
  {
   "linker_set_key" : "_ZNSt3__110__log2_imp5valueE",
   "name" : "std::__1::__log2_imp::value",
   "referenced_type" : "_ZTIKm",
   "source_file" : "external/libcxx/include/algorithm"
  },
  {
   "linker_set_key" : "_ZNSt3__110__log2_impILy0EXT_EE5valueE",
   "name" : "std::__1::__log2_imp<0, _Rp>::value",
   "referenced_type" : "_ZTIKm",
   "source_file" : "external/libcxx/include/algorithm"
  },
  {
   "linker_set_key" : "_ZNSt3__110__log2_impIXT_ELm0EE5valueE",
   "name" : "std::__1::__log2_imp<_Xp, 0>::value",
   "referenced_type" : "_ZTIKm",
   "source_file" : "external/libcxx/include/algorithm"
  },
  {
   "linker_set_key" : "_ZNSt3__110is_array_vE",
   "name" : "std::__1::is_array_v",
   "referenced_type" : "_ZTIKb",
   "source_file" : "external/libcxx/include/type_traits"
  },
  {
   "linker_set_key" : "_ZNSt3__110is_class_vE",
   "name" : "std::__1::is_class_v",
   "referenced_type" : "_ZTIKb",
   "source_file" : "external/libcxx/include/type_traits"
  },
  {
   "linker_set_key" : "_ZNSt3__110is_const_vE",
   "name" : "std::__1::is_const_v",
   "referenced_type" : "_ZTIKb",
   "source_file" : "external/libcxx/include/type_traits"
  },
  {
   "linker_set_key" : "_ZNSt3__110is_empty_vE",
   "name" : "std::__1::is_empty_v",
   "referenced_type" : "_ZTIKb",
   "source_file" : "external/libcxx/include/type_traits"
  },
  {
   "linker_set_key" : "_ZNSt3__110is_final_vE",
   "name" : "std::__1::is_final_v",
   "referenced_type" : "_ZTIKb",
   "source_file" : "external/libcxx/include/type_traits"
  },
  {
   "linker_set_key" : "_ZNSt3__110is_union_vE",
   "name" : "std::__1::is_union_v",
   "referenced_type" : "_ZTIKb",
   "source_file" : "external/libcxx/include/type_traits"
  },
  {
   "linker_set_key" : "_ZNSt3__110negation_vE",
   "name" : "std::__1::negation_v",
   "referenced_type" : "_ZTIKb",
   "source_file" : "external/libcxx/include/type_traits"
  },
  {
   "linker_set_key" : "_ZNSt3__111__bit_array15__bits_per_wordE",
   "name" : "std::__1::__bit_array::__bits_per_word",
   "referenced_type" : "_ZTIKj",
   "source_file" : "external/libcxx/include/__bit_reference"
  },
  {
   "linker_set_key" : "_ZNSt3__111__bit_array3_NpE",
   "name" : "std::__1::__bit_array::_Np",
   "referenced_type" : "_ZTIKj",
   "source_file" : "external/libcxx/include/__bit_reference"
  },
  {
   "linker_set_key" : "_ZNSt3__111is_object_vE",
   "name" : "std::__1::is_object_v",
   "referenced_type" : "_ZTIKb",
   "source_file" : "external/libcxx/include/type_traits"
  },
  {
   "linker_set_key" : "_ZNSt3__111is_object_vINS_12basic_stringIcNS_11char_traitsIcEENS_9allocatorIcEEEEEE",
   "name" : "std::__1::is_object_v",
   "referenced_type" : "_ZTIKb",
   "source_file" : "external/libcxx/include/type_traits"
  },
  {
   "linker_set_key" : "_ZNSt3__111is_object_vIPKcEE",
   "name" : "std::__1::is_object_v",
   "referenced_type" : "_ZTIKb",
   "source_file" : "external/libcxx/include/type_traits"
  },
  {
   "linker_set_key" : "_ZNSt3__111is_object_vIbEE",
   "name" : "std::__1::is_object_v",
   "referenced_type" : "_ZTIKb",
   "source_file" : "external/libcxx/include/type_traits"
  },
  {
   "linker_set_key" : "_ZNSt3__111is_object_vIdEE",
   "name" : "std::__1::is_object_v",
   "referenced_type" : "_ZTIKb",
   "source_file" : "external/libcxx/include/type_traits"
  },
  {
   "linker_set_key" : "_ZNSt3__111is_object_vIiEE",
   "name" : "std::__1::is_object_v",
   "referenced_type" : "_ZTIKb",
   "source_file" : "external/libcxx/include/type_traits"
  },
  {
   "linker_set_key" : "_ZNSt3__111is_object_vIjEE",
   "name" : "std::__1::is_object_v",
   "referenced_type" : "_ZTIKb",
   "source_file" : "external/libcxx/include/type_traits"
  },
  {
   "linker_set_key" : "_ZNSt3__111is_object_vIlEE",
   "name" : "std::__1::is_object_v",
   "referenced_type" : "_ZTIKb",
   "source_file" : "external/libcxx/include/type_traits"
  },
  {
   "linker_set_key" : "_ZNSt3__111is_object_vImEE",
   "name" : "std::__1::is_object_v",
   "referenced_type" : "_ZTIKb",
   "source_file" : "external/libcxx/include/type_traits"
  },
  {
   "linker_set_key" : "_ZNSt3__111is_scalar_vE",
   "name" : "std::__1::is_scalar_v",
   "referenced_type" : "_ZTIKb",
   "source_file" : "external/libcxx/include/type_traits"
  },
  {
   "linker_set_key" : "_ZNSt3__111is_scalar_vINS_12basic_stringIcNS_11char_traitsIcEENS_9allocatorIcEEEEEE",
   "name" : "std::__1::is_scalar_v",
   "referenced_type" : "_ZTIKb",
   "source_file" : "external/libcxx/include/type_traits"
  },
  {
   "linker_set_key" : "_ZNSt3__111is_scalar_vIPKcEE",
   "name" : "std::__1::is_scalar_v",
   "referenced_type" : "_ZTIKb",
   "source_file" : "external/libcxx/include/type_traits"
  },
  {
   "linker_set_key" : "_ZNSt3__111is_scalar_vIbEE",
   "name" : "std::__1::is_scalar_v",
   "referenced_type" : "_ZTIKb",
   "source_file" : "external/libcxx/include/type_traits"
  },
  {
   "linker_set_key" : "_ZNSt3__111is_scalar_vIdEE",
   "name" : "std::__1::is_scalar_v",
   "referenced_type" : "_ZTIKb",
   "source_file" : "external/libcxx/include/type_traits"
  },
  {
   "linker_set_key" : "_ZNSt3__111is_scalar_vIiEE",
   "name" : "std::__1::is_scalar_v",
   "referenced_type" : "_ZTIKb",
   "source_file" : "external/libcxx/include/type_traits"
  },
  {
   "linker_set_key" : "_ZNSt3__111is_scalar_vIjEE",
   "name" : "std::__1::is_scalar_v",
   "referenced_type" : "_ZTIKb",
   "source_file" : "external/libcxx/include/type_traits"
  },
  {
   "linker_set_key" : "_ZNSt3__111is_scalar_vIlEE",
   "name" : "std::__1::is_scalar_v",
   "referenced_type" : "_ZTIKb",
   "source_file" : "external/libcxx/include/type_traits"
  },
  {
   "linker_set_key" : "_ZNSt3__111is_scalar_vImEE",
   "name" : "std::__1::is_scalar_v",
   "referenced_type" : "_ZTIKb",
   "source_file" : "external/libcxx/include/type_traits"
  },
  {
   "linker_set_key" : "_ZNSt3__111is_signed_vE",
   "name" : "std::__1::is_signed_v",
   "referenced_type" : "_ZTIKb",
   "source_file" : "external/libcxx/include/type_traits"
  },
  {
   "linker_set_key" : "_ZNSt3__112_GLOBAL__N_16ignoreE",
   "name" : "std::__1::(anonymous namespace)::ignore",
   "referenced_type" : "_ZTIKNSt3__110__ignore_tIhEE",
   "source_file" : "external/libcxx/include/tuple"
  },
  {
   "linker_set_key" : "_ZNSt3__112__align_type5valueE",
   "name" : "std::__1::__align_type::value",
   "referenced_type" : "_ZTIKm",
   "source_file" : "external/libcxx/include/type_traits"
  },
  {
   "linker_set_key" : "_ZNSt3__112__align_typeINS_15__struct_doubleEE5valueE",
   "name" : "std::__1::__align_type<std::__1::__struct_double>::value",
   "referenced_type" : "_ZTIKm",
   "source_file" : "external/libcxx/include/type_traits"
  },
  {
   "linker_set_key" : "_ZNSt3__112__align_typeINS_16__struct_double4EE5valueE",
   "name" : "std::__1::__align_type<std::__1::__struct_double4>::value",
   "referenced_type" : "_ZTIKm",
   "source_file" : "external/libcxx/include/type_traits"
  },
  {
   "linker_set_key" : "_ZNSt3__112__align_typeIPiE5valueE",
   "name" : "std::__1::__align_type<int *>::value",
   "referenced_type" : "_ZTIKm",
   "source_file" : "external/libcxx/include/type_traits"
  },
  {
   "linker_set_key" : "_ZNSt3__112__align_typeIdE5valueE",
   "name" : "std::__1::__align_type<double>::value",
   "referenced_type" : "_ZTIKm",
   "source_file" : "external/libcxx/include/type_traits"
  },
  {
   "linker_set_key" : "_ZNSt3__112__align_typeIeE5valueE",
   "name" : "std::__1::__align_type<long double>::value",
   "referenced_type" : "_ZTIKm",
   "source_file" : "external/libcxx/include/type_traits"
  },
  {
   "linker_set_key" : "_ZNSt3__112__align_typeIhE5valueE",
   "name" : "std::__1::__align_type<unsigned char>::value",
   "referenced_type" : "_ZTIKm",
   "source_file" : "external/libcxx/include/type_traits"
  },
  {
   "linker_set_key" : "_ZNSt3__112__align_typeIjE5valueE",
   "name" : "std::__1::__align_type<unsigned int>::value",
   "referenced_type" : "_ZTIKm",
   "source_file" : "external/libcxx/include/type_traits"
  },
  {
   "linker_set_key" : "_ZNSt3__112__align_typeImE5valueE",
   "name" : "std::__1::__align_type<unsigned long>::value",
   "referenced_type" : "_ZTIKm",
   "source_file" : "external/libcxx/include/type_traits"
  },
  {
   "linker_set_key" : "_ZNSt3__112__align_typeItE5valueE",
   "name" : "std::__1::__align_type<unsigned short>::value",
   "referenced_type" : "_ZTIKm",
   "source_file" : "external/libcxx/include/type_traits"
  },
  {
   "linker_set_key" : "_ZNSt3__112__align_typeIyE5valueE",
   "name" : "std::__1::__align_type<unsigned long long>::value",
   "referenced_type" : "_ZTIKm",
   "source_file" : "external/libcxx/include/type_traits"
  },
  {
   "linker_set_key" : "_ZNSt3__112__has_rebind5valueE",
   "name" : "std::__1::__has_rebind::value",
   "referenced_type" : "_ZTIKb",
   "source_file" : "external/libcxx/include/memory"
  },
  {
   "linker_set_key" : "_ZNSt3__112__static_maxIXT_EJEE5valueE",
   "name" : "std::__1::__static_max<_I0>::value",
   "referenced_type" : "_ZTIKm",
   "source_file" : "external/libcxx/include/type_traits"
  },
  {
   "linker_set_key" : "_ZNSt3__112__static_maxIXT_EJXT0_EXspT1_EEE5valueE",
   "name" : "std::__1::__static_max<_I0, _I1, _In...>::value",
   "referenced_type" : "_ZTIKm",
   "source_file" : "external/libcxx/include/type_traits"
  },
  {
   "access" : "private",
   "linker_set_key" : "_ZNSt3__112basic_stringIDiNS_11char_traitsIDiEENS_9allocatorIDiEEE11__long_maskE",
   "name" : "std::__1::basic_string<char32_t, std::__1::char_traits<char32_t>, std::__1::allocator<char32_t>>::__long_mask",
   "referenced_type" : "_ZTIKm",
   "source_file" : "external/libcxx/include/string"
  },
  {
   "access" : "private",
   "linker_set_key" : "_ZNSt3__112basic_stringIDiNS_11char_traitsIDiEENS_9allocatorIDiEEE12__short_maskE",
   "name" : "std::__1::basic_string<char32_t, std::__1::char_traits<char32_t>, std::__1::allocator<char32_t>>::__short_mask",
   "referenced_type" : "_ZTIKm",
   "source_file" : "external/libcxx/include/string"
  },
  {
   "linker_set_key" : "_ZNSt3__112basic_stringIDiNS_11char_traitsIDiEENS_9allocatorIDiEEE4nposE",
   "name" : "std::__1::basic_string<char32_t, std::__1::char_traits<char32_t>, std::__1::allocator<char32_t>>::npos",
   "referenced_type" : "_ZTIKm",
   "source_file" : "external/libcxx/include/string"
  },
  {
   "access" : "private",
   "linker_set_key" : "_ZNSt3__112basic_stringIDsNS_11char_traitsIDsEENS_9allocatorIDsEEE11__long_maskE",
   "name" : "std::__1::basic_string<char16_t, std::__1::char_traits<char16_t>, std::__1::allocator<char16_t>>::__long_mask",
   "referenced_type" : "_ZTIKm",
   "source_file" : "external/libcxx/include/string"
  },
  {
   "access" : "private",
   "linker_set_key" : "_ZNSt3__112basic_stringIDsNS_11char_traitsIDsEENS_9allocatorIDsEEE12__short_maskE",
   "name" : "std::__1::basic_string<char16_t, std::__1::char_traits<char16_t>, std::__1::allocator<char16_t>>::__short_mask",
   "referenced_type" : "_ZTIKm",
   "source_file" : "external/libcxx/include/string"
  },
  {
   "linker_set_key" : "_ZNSt3__112basic_stringIDsNS_11char_traitsIDsEENS_9allocatorIDsEEE4nposE",
   "name" : "std::__1::basic_string<char16_t, std::__1::char_traits<char16_t>, std::__1::allocator<char16_t>>::npos",
   "referenced_type" : "_ZTIKm",
   "source_file" : "external/libcxx/include/string"
  },
  {
   "access" : "private",
   "linker_set_key" : "_ZNSt3__112basic_stringIcNS_11char_traitsIcEENS_9allocatorIcEEE11__long_maskE",
   "name" : "std::__1::basic_string<char, std::__1::char_traits<char>, std::__1::allocator<char>>::__long_mask",
   "referenced_type" : "_ZTIKm",
   "source_file" : "external/libcxx/include/string"
  },
  {
   "access" : "private",
   "linker_set_key" : "_ZNSt3__112basic_stringIcNS_11char_traitsIcEENS_9allocatorIcEEE12__short_maskE",
   "name" : "std::__1::basic_string<char, std::__1::char_traits<char>, std::__1::allocator<char>>::__short_mask",
   "referenced_type" : "_ZTIKm",
   "source_file" : "external/libcxx/include/string"
  },
  {
   "linker_set_key" : "_ZNSt3__112basic_stringIcNS_11char_traitsIcEENS_9allocatorIcEEE4nposE",
   "name" : "std::__1::basic_string<char, std::__1::char_traits<char>, std::__1::allocator<char>>::npos",
   "referenced_type" : "_ZTIKm",
   "source_file" : "external/libcxx/include/string"
  },
  {
   "access" : "private",
   "linker_set_key" : "_ZNSt3__112basic_stringIwNS_11char_traitsIwEENS_9allocatorIwEEE11__long_maskE",
   "name" : "std::__1::basic_string<wchar_t, std::__1::char_traits<wchar_t>, std::__1::allocator<wchar_t>>::__long_mask",
   "referenced_type" : "_ZTIKm",
   "source_file" : "external/libcxx/include/string"
  },
  {
   "access" : "private",
   "linker_set_key" : "_ZNSt3__112basic_stringIwNS_11char_traitsIwEENS_9allocatorIwEEE12__short_maskE",
   "name" : "std::__1::basic_string<wchar_t, std::__1::char_traits<wchar_t>, std::__1::allocator<wchar_t>>::__short_mask",
   "referenced_type" : "_ZTIKm",
   "source_file" : "external/libcxx/include/string"
  },
  {
   "linker_set_key" : "_ZNSt3__112basic_stringIwNS_11char_traitsIwEENS_9allocatorIwEEE4nposE",
   "name" : "std::__1::basic_string<wchar_t, std::__1::char_traits<wchar_t>, std::__1::allocator<wchar_t>>::npos",
   "referenced_type" : "_ZTIKm",
   "source_file" : "external/libcxx/include/string"
  },
  {
   "linker_set_key" : "_ZNSt3__112is_base_of_vE",
   "name" : "std::__1::is_base_of_v",
   "referenced_type" : "_ZTIKb",
   "source_file" : "external/libcxx/include/type_traits"
  },
  {
   "linker_set_key" : "_ZNSt3__112is_pointer_vE",
   "name" : "std::__1::is_pointer_v",
   "referenced_type" : "_ZTIKb",
   "source_file" : "external/libcxx/include/type_traits"
  },
  {
   "linker_set_key" : "_ZNSt3__112is_trivial_vE",
   "name" : "std::__1::is_trivial_v",
   "referenced_type" : "_ZTIKb",
   "source_file" : "external/libcxx/include/type_traits"
  },
  {
   "linker_set_key" : "_ZNSt3__112placeholdersL2_1E",
   "name" : "std::__1::placeholders::_1",
   "referenced_type" : "_ZTIKNSt3__112placeholders4__phILi1EEE",
   "source_file" : "external/libcxx/include/functional"
  },
  {
   "linker_set_key" : "_ZNSt3__112placeholdersL2_2E",
   "name" : "std::__1::placeholders::_2",
   "referenced_type" : "_ZTIKNSt3__112placeholders4__phILi2EEE",
   "source_file" : "external/libcxx/include/functional"
  },
  {
   "linker_set_key" : "_ZNSt3__112placeholdersL2_3E",
   "name" : "std::__1::placeholders::_3",
   "referenced_type" : "_ZTIKNSt3__112placeholders4__phILi3EEE",
   "source_file" : "external/libcxx/include/functional"
  },
  {
   "linker_set_key" : "_ZNSt3__112placeholdersL2_4E",
   "name" : "std::__1::placeholders::_4",
   "referenced_type" : "_ZTIKNSt3__112placeholders4__phILi4EEE",
   "source_file" : "external/libcxx/include/functional"
  },
  {
   "linker_set_key" : "_ZNSt3__112placeholdersL2_5E",
   "name" : "std::__1::placeholders::_5",
   "referenced_type" : "_ZTIKNSt3__112placeholders4__phILi5EEE",
   "source_file" : "external/libcxx/include/functional"
  },
  {
   "linker_set_key" : "_ZNSt3__112placeholdersL2_6E",
   "name" : "std::__1::placeholders::_6",
   "referenced_type" : "_ZTIKNSt3__112placeholders4__phILi6EEE",
   "source_file" : "external/libcxx/include/functional"
  },
  {
   "linker_set_key" : "_ZNSt3__112placeholdersL2_7E",
   "name" : "std::__1::placeholders::_7",
   "referenced_type" : "_ZTIKNSt3__112placeholders4__phILi7EEE",
   "source_file" : "external/libcxx/include/functional"
  },
  {
   "linker_set_key" : "_ZNSt3__112placeholdersL2_8E",
   "name" : "std::__1::placeholders::_8",
   "referenced_type" : "_ZTIKNSt3__112placeholders4__phILi8EEE",
   "source_file" : "external/libcxx/include/functional"
  },
  {
   "linker_set_key" : "_ZNSt3__112placeholdersL2_9E",
   "name" : "std::__1::placeholders::_9",
   "referenced_type" : "_ZTIKNSt3__112placeholders4__phILi9EEE",
   "source_file" : "external/libcxx/include/functional"
  },
  {
   "linker_set_key" : "_ZNSt3__112placeholdersL3_10E",
   "name" : "std::__1::placeholders::_10",
   "referenced_type" : "_ZTIKNSt3__112placeholders4__phILi10EEE",
   "source_file" : "external/libcxx/include/functional"
  },
  {
   "linker_set_key" : "_ZNSt3__112tuple_size_vE",
   "name" : "std::__1::tuple_size_v",
   "referenced_type" : "_ZTIKm",
   "source_file" : "external/libcxx/include/tuple"
  },
  {
   "linker_set_key" : "_ZNSt3__113__atomic_base19is_always_lock_freeE",
   "name" : "std::__1::__atomic_base::is_always_lock_free",
   "referenced_type" : "_ZTIKb",
   "source_file" : "external/libcxx/include/atomic"
  },
  {
   "linker_set_key" : "_ZNSt3__113__find_detail26__find_exactly_one_checked5valueE",
   "name" : "std::__1::__find_detail::__find_exactly_one_checked::value",
   "referenced_type" : "_ZTIKm",
   "source_file" : "external/libcxx/include/tuple"
  },
  {
   "linker_set_key" : "_ZNSt3__113__find_detailL11__ambiguousE",
   "name" : "std::__1::__find_detail::__ambiguous",
   "referenced_type" : "_ZTIKm",
   "source_file" : "external/libcxx/include/tuple"
  },
  {
   "linker_set_key" : "_ZNSt3__113__find_detailL11__not_foundE",
   "name" : "std::__1::__find_detail::__not_found",
   "referenced_type" : "_ZTIKm",
   "source_file" : "external/libcxx/include/tuple"
  },
  {
   "linker_set_key" : "_ZNSt3__113__invokable_r5valueE",
   "name" : "std::__1::__invokable_r::value",
   "referenced_type" : "_ZTIKb",
   "source_file" : "external/libcxx/include/type_traits"
  },
  {
   "linker_set_key" : "_ZNSt3__113__promote_imp5valueE",
   "name" : "std::__1::__promote_imp::value",
   "referenced_type" : "_ZTIKb",
   "source_file" : "external/libcxx/include/type_traits"
  },
  {
   "linker_set_key" : "_ZNSt3__113__promote_impIT_T0_T1_Lb1EE5valueE",
   "name" : "std::__1::__promote_imp<type-parameter-0-0, type-parameter-0-1, type-parameter-0-2, true>::value",
   "referenced_type" : "_ZTIKb",
   "source_file" : "external/libcxx/include/type_traits"
  },
  {
   "linker_set_key" : "_ZNSt3__113__promote_impIT_T0_vLb1EE5valueE",
   "name" : "std::__1::__promote_imp<type-parameter-0-0, type-parameter-0-1, void, true>::value",
   "referenced_type" : "_ZTIKb",
   "source_file" : "external/libcxx/include/type_traits"
  },
  {
   "linker_set_key" : "_ZNSt3__113__promote_impIT_vvLb1EE5valueE",
   "name" : "std::__1::__promote_imp<type-parameter-0-0, void, void, true>::value",
   "referenced_type" : "_ZTIKb",
   "source_file" : "external/libcxx/include/type_traits"
  },
  {
   "linker_set_key" : "_ZNSt3__113aligned_union15alignment_valueE",
   "name" : "std::__1::aligned_union::alignment_value",
   "referenced_type" : "_ZTIKm",
   "source_file" : "external/libcxx/include/type_traits"
  },
  {
   "linker_set_key" : "_ZNSt3__113aligned_union5__lenE",
   "name" : "std::__1::aligned_union::__len",
   "referenced_type" : "_ZTIKm",
   "source_file" : "external/libcxx/include/type_traits"
  },
  {
   "linker_set_key" : "_ZNSt3__113conjunction_vE",
   "name" : "std::__1::conjunction_v",
   "referenced_type" : "_ZTIKb",
   "source_file" : "external/libcxx/include/type_traits"
  },
  {
   "linker_set_key" : "_ZNSt3__113disjunction_vE",
   "name" : "std::__1::disjunction_v",
   "referenced_type" : "_ZTIKb",
   "source_file" : "external/libcxx/include/type_traits"
  },
  {
   "linker_set_key" : "_ZNSt3__113is_abstract_vE",
   "name" : "std::__1::is_abstract_v",
   "referenced_type" : "_ZTIKb",
   "source_file" : "external/libcxx/include/type_traits"
  },
  {
   "linker_set_key" : "_ZNSt3__113is_compound_vE",
   "name" : "std::__1::is_compound_v",
   "referenced_type" : "_ZTIKb",
   "source_file" : "external/libcxx/include/type_traits"
  },
  {
   "linker_set_key" : "_ZNSt3__113is_function_vE",
   "name" : "std::__1::is_function_v",
   "referenced_type" : "_ZTIKb",
   "source_file" : "external/libcxx/include/type_traits"
  },
  {
   "linker_set_key" : "_ZNSt3__113is_integral_vE",
   "name" : "std::__1::is_integral_v",
   "referenced_type" : "_ZTIKb",
   "source_file" : "external/libcxx/include/type_traits"
  },
  {
   "linker_set_key" : "_ZNSt3__113is_unsigned_vE",
   "name" : "std::__1::is_unsigned_v",
   "referenced_type" : "_ZTIKb",
   "source_file" : "external/libcxx/include/type_traits"
  },
  {
   "linker_set_key" : "_ZNSt3__113is_volatile_vE",
   "name" : "std::__1::is_volatile_v",
   "referenced_type" : "_ZTIKb",
   "source_file" : "external/libcxx/include/type_traits"
  },
  {
   "access" : "private",
   "linker_set_key" : "_ZNSt3__114__bit_iterator15__bits_per_wordE",
   "name" : "std::__1::__bit_iterator::__bits_per_word",
   "referenced_type" : "_ZTIKj",
   "source_file" : "external/libcxx/include/__bit_reference"
  },
  {
   "linker_set_key" : "_ZNSt3__114__numeric_type5valueE",
   "name" : "std::__1::__numeric_type::value",
   "referenced_type" : "_ZTIKb",
   "source_file" : "external/libcxx/include/type_traits"
  },
  {
