{
 "array_types" :
 [
  {
   "alignment" : 1,
   "linker_set_key" : "_ZTIA12_c",
   "name" : "char [12]",
   "referenced_type" : "_ZTIc",
   "self_type" : "_ZTIA12_c",
   "size" : 12,
   "source_file" : "external/protobuf/src/google/protobuf/message_lite.h"
  },
  {
   "alignment" : 4,
   "linker_set_key" : "_ZTIA1_N6google8protobuf8internal9ArenaImpl11CleanupNodeE",
   "name" : "google::protobuf::internal::ArenaImpl::CleanupNode [1]",
   "referenced_type" : "_ZTIN6google8protobuf8internal9ArenaImpl11CleanupNodeE",
   "self_type" : "_ZTIA1_N6google8protobuf8internal9ArenaImpl11CleanupNodeE",
   "size" : 8,
   "source_file" : "external/protobuf/src/google/protobuf/arena_impl.h"
  },
  {
   "alignment" : 4,
   "linker_set_key" : "_ZTIA1_Pv",
   "name" : "void *[1]",
   "referenced_type" : "_ZTIPv",
   "self_type" : "_ZTIA1_Pv",
   "size" : 4,
   "source_file" : "external/protobuf/src/google/protobuf/repeated_field.h"
  },
  {
   "alignment" : 1,
   "linker_set_key" : "_ZTIA1_b",
   "name" : "bool [1]",
   "referenced_type" : "_ZTIb",
   "self_type" : "_ZTIA1_b",
   "size" : 1,
   "source_file" : "external/protobuf/src/google/protobuf/repeated_field.h"
  },
  {
   "alignment" : 8,
   "linker_set_key" : "_ZTIA1_d",
   "name" : "double [1]",
   "referenced_type" : "_ZTId",
   "self_type" : "_ZTIA1_d",
   "size" : 8,
   "source_file" : "external/protobuf/src/google/protobuf/repeated_field.h"
  },
  {
   "alignment" : 4,
   "linker_set_key" : "_ZTIA1_f",
   "name" : "float [1]",
   "referenced_type" : "_ZTIf",
   "self_type" : "_ZTIA1_f",
   "size" : 4,
   "source_file" : "external/protobuf/src/google/protobuf/repeated_field.h"
  },
  {
   "alignment" : 4,
   "linker_set_key" : "_ZTIA1_i",
   "name" : "int [1]",
   "referenced_type" : "_ZTIi",
   "self_type" : "_ZTIA1_i",
   "size" : 4,
   "source_file" : "external/protobuf/src/google/protobuf/repeated_field.h"
  },
  {
   "alignment" : 4,
   "linker_set_key" : "_ZTIA1_j",
   "name" : "unsigned int [1]",
   "referenced_type" : "_ZTIj",
   "self_type" : "_ZTIA1_j",
   "size" : 4,
   "source_file" : "external/protobuf/src/google/protobuf/has_bits.h"
  },
  {
   "alignment" : 8,
   "linker_set_key" : "_ZTIA1_x",
   "name" : "long long [1]",
   "referenced_type" : "_ZTIx",
   "self_type" : "_ZTIA1_x",
   "size" : 8,
   "source_file" : "external/protobuf/src/google/protobuf/repeated_field.h"
  },
  {
   "alignment" : 8,
   "linker_set_key" : "_ZTIA1_y",
   "name" : "unsigned long long [1]",
   "referenced_type" : "_ZTIy",
   "self_type" : "_ZTIA1_y",
   "size" : 8,
   "source_file" : "external/protobuf/src/google/protobuf/repeated_field.h"
  },
  {
   "alignment" : 1,
   "linker_set_key" : "_ZTIA20_c",
   "name" : "char [20]",
   "referenced_type" : "_ZTIc",
   "self_type" : "_ZTIA20_c",
   "size" : 20,
   "source_file" : "external/protobuf/src/google/protobuf/message_lite.h"
  },
  {
   "alignment" : 4,
   "linker_set_key" : "_ZTIA2_j",
   "name" : "unsigned int [2]",
   "referenced_type" : "_ZTIj",
   "self_type" : "_ZTIA2_j",
   "size" : 8,
   "source_file" : "external/protobuf/src/google/protobuf/has_bits.h"
  },
  {
   "alignment" : 1,
   "linker_set_key" : "_ZTIA32_c",
   "name" : "char [32]",
   "referenced_type" : "_ZTIc",
   "self_type" : "_ZTIA32_c",
   "size" : 32,
   "source_file" : "external/protobuf/src/google/protobuf/stubs/strutil.h"
  },
  {
   "alignment" : 4,
   "linker_set_key" : "_ZTIA3_j",
   "name" : "unsigned int [3]",
   "referenced_type" : "_ZTIj",
   "self_type" : "_ZTIA3_j",
   "size" : 12,
   "source_file" : "external/protobuf/src/google/protobuf/has_bits.h"
  },
  {
   "alignment" : 4,
   "linker_set_key" : "_ZTIA4_j",
   "name" : "unsigned int [4]",
   "referenced_type" : "_ZTIj",
   "self_type" : "_ZTIA4_j",
   "size" : 16,
   "source_file" : "external/protobuf/src/google/protobuf/has_bits.h"
  },
  {
   "linker_set_key" : "_ZTIA_N6google8protobuf8internal14WireFormatLite7CppTypeE",
   "name" : "google::protobuf::internal::WireFormatLite::CppType []",
   "referenced_type" : "_ZTIN6google8protobuf8internal14WireFormatLite7CppTypeE",
   "self_type" : "_ZTIA_N6google8protobuf8internal14WireFormatLite7CppTypeE",
   "source_file" : "external/protobuf/src/google/protobuf/wire_format_lite.h"
  },
  {
   "linker_set_key" : "_ZTIA_N6google8protobuf8internal14WireFormatLite8WireTypeE",
   "name" : "google::protobuf::internal::WireFormatLite::WireType []",
   "referenced_type" : "_ZTIN6google8protobuf8internal14WireFormatLite8WireTypeE",
   "self_type" : "_ZTIA_N6google8protobuf8internal14WireFormatLite8WireTypeE",
   "source_file" : "external/protobuf/src/google/protobuf/wire_format_lite.h"
  }
 ],
 "builtin_types" :
 [
  {
   "alignment" : 1,
   "is_integral" : true,
   "is_unsigned" : true,
   "linker_set_key" : "_ZTIb",
   "name" : "bool",
   "referenced_type" : "_ZTIb",
   "self_type" : "_ZTIb",
   "size" : 1
  },
  {
   "alignment" : 1,
   "is_integral" : true,
   "is_unsigned" : true,
   "linker_set_key" : "_ZTIc",
   "name" : "char",
   "referenced_type" : "_ZTIc",
   "self_type" : "_ZTIc",
   "size" : 1
  },
  {
   "alignment" : 8,
   "linker_set_key" : "_ZTId",
   "name" : "double",
   "referenced_type" : "_ZTId",
   "self_type" : "_ZTId",
   "size" : 8
  },
  {
   "alignment" : 4,
   "linker_set_key" : "_ZTIf",
   "name" : "float",
   "referenced_type" : "_ZTIf",
   "self_type" : "_ZTIf",
   "size" : 4
  },
  {
   "alignment" : 1,
   "is_integral" : true,
   "is_unsigned" : true,
   "linker_set_key" : "_ZTIh",
   "name" : "unsigned char",
   "referenced_type" : "_ZTIh",
   "self_type" : "_ZTIh",
   "size" : 1
  },
  {
   "alignment" : 4,
   "is_integral" : true,
   "linker_set_key" : "_ZTIi",
   "name" : "int",
   "referenced_type" : "_ZTIi",
   "self_type" : "_ZTIi",
   "size" : 4
  },
  {
   "alignment" : 4,
   "is_integral" : true,
   "is_unsigned" : true,
   "linker_set_key" : "_ZTIj",
   "name" : "unsigned int",
   "referenced_type" : "_ZTIj",
   "self_type" : "_ZTIj",
   "size" : 4
  },
  {
   "alignment" : 4,
   "is_integral" : true,
   "linker_set_key" : "_ZTIl",
   "name" : "long",
   "referenced_type" : "_ZTIl",
   "self_type" : "_ZTIl",
   "size" : 4
  },
  {
   "alignment" : 4,
   "is_integral" : true,
   "is_unsigned" : true,
   "linker_set_key" : "_ZTIm",
   "name" : "unsigned long",
   "referenced_type" : "_ZTIm",
   "self_type" : "_ZTIm",
   "size" : 4
  },
  {
   "alignment" : 2,
   "is_integral" : true,
   "is_unsigned" : true,
   "linker_set_key" : "_ZTIt",
   "name" : "unsigned short",
   "referenced_type" : "_ZTIt",
   "self_type" : "_ZTIt",
   "size" : 2
  },
  {
   "linker_set_key" : "_ZTIv",
   "name" : "void",
   "referenced_type" : "_ZTIv",
   "self_type" : "_ZTIv"
  },
  {
   "alignment" : 8,
   "is_integral" : true,
   "linker_set_key" : "_ZTIx",
   "name" : "long long",
   "referenced_type" : "_ZTIx",
   "self_type" : "_ZTIx",
   "size" : 8
  },
  {
   "alignment" : 8,
   "is_integral" : true,
   "is_unsigned" : true,
   "linker_set_key" : "_ZTIy",
   "name" : "unsigned long long",
   "referenced_type" : "_ZTIy",
   "self_type" : "_ZTIy",
   "size" : 8
  }
 ],
 "elf_functions" : [],
 "elf_objects" : [],
 "enum_types" :
 [
  {
   "alignment" : 4,
   "enum_fields" :
   [
    {
     "enum_field_value" : 0,
     "name" : "google::protobuf::MessageLite::kMerge"
    },
    {
     "enum_field_value" : 1,
     "name" : "google::protobuf::MessageLite::kParse"
    },
    {
     "enum_field_value" : 2,
     "name" : "google::protobuf::MessageLite::kMergePartial"
    },
    {
     "enum_field_value" : 3,
     "name" : "google::protobuf::MessageLite::kParsePartial"
    },
    {
     "enum_field_value" : 4,
     "name" : "google::protobuf::MessageLite::kMergeWithAliasing"
    },
    {
     "enum_field_value" : 5,
     "name" : "google::protobuf::MessageLite::kParseWithAliasing"
    },
    {
     "enum_field_value" : 6,
     "name" : "google::protobuf::MessageLite::kMergePartialWithAliasing"
    },
    {
     "enum_field_value" : 7,
     "name" : "google::protobuf::MessageLite::kParsePartialWithAliasing"
    }
   ],
   "linker_set_key" : "_ZTIN6google8protobuf11MessageLite10ParseFlagsE",
   "name" : "google::protobuf::MessageLite::ParseFlags",
   "referenced_type" : "_ZTIN6google8protobuf11MessageLite10ParseFlagsE",
   "self_type" : "_ZTIN6google8protobuf11MessageLite10ParseFlagsE",
   "size" : 4,
   "source_file" : "external/protobuf/src/google/protobuf/message_lite.h",
   "underlying_type" : "_ZTIj"
  },
  {
   "alignment" : 4,
   "enum_fields" :
   [
    {
     "enum_field_value" : 1,
     "name" : "google::protobuf::strings::NO_PAD"
    },
    {
     "enum_field_value" : 2,
     "name" : "google::protobuf::strings::ZERO_PAD_2"
    },
    {
     "enum_field_value" : 3,
     "name" : "google::protobuf::strings::ZERO_PAD_3"
    },
    {
     "enum_field_value" : 4,
     "name" : "google::protobuf::strings::ZERO_PAD_4"
    },
    {
     "enum_field_value" : 5,
     "name" : "google::protobuf::strings::ZERO_PAD_5"
    },
    {
     "enum_field_value" : 6,
     "name" : "google::protobuf::strings::ZERO_PAD_6"
    },
    {
     "enum_field_value" : 7,
     "name" : "google::protobuf::strings::ZERO_PAD_7"
    },
    {
     "enum_field_value" : 8,
     "name" : "google::protobuf::strings::ZERO_PAD_8"
    },
    {
     "enum_field_value" : 9,
     "name" : "google::protobuf::strings::ZERO_PAD_9"
    },
    {
     "enum_field_value" : 10,
     "name" : "google::protobuf::strings::ZERO_PAD_10"
    },
    {
     "enum_field_value" : 11,
     "name" : "google::protobuf::strings::ZERO_PAD_11"
    },
    {
     "enum_field_value" : 12,
     "name" : "google::protobuf::strings::ZERO_PAD_12"
    },
    {
     "enum_field_value" : 13,
     "name" : "google::protobuf::strings::ZERO_PAD_13"
    },
    {
     "enum_field_value" : 14,
     "name" : "google::protobuf::strings::ZERO_PAD_14"
    },
    {
     "enum_field_value" : 15,
     "name" : "google::protobuf::strings::ZERO_PAD_15"
    },
    {
     "enum_field_value" : 16,
     "name" : "google::protobuf::strings::ZERO_PAD_16"
    }
   ],
   "linker_set_key" : "_ZTIN6google8protobuf7strings7PadSpecE",
   "name" : "google::protobuf::strings::PadSpec",
   "referenced_type" : "_ZTIN6google8protobuf7strings7PadSpecE",
   "self_type" : "_ZTIN6google8protobuf7strings7PadSpecE",
   "size" : 4,
   "source_file" : "external/protobuf/src/google/protobuf/stubs/strutil.h",
   "underlying_type" : "_ZTIj"
  },
  {
   "alignment" : 4,
   "enum_fields" :
   [
    {
     "enum_field_value" : 0,
     "name" : "google::protobuf::LOGLEVEL_INFO"
    },
    {
     "enum_field_value" : 1,
     "name" : "google::protobuf::LOGLEVEL_WARNING"
    },
    {
     "enum_field_value" : 2,
     "name" : "google::protobuf::LOGLEVEL_ERROR"
    },
    {
     "enum_field_value" : 3,
     "name" : "google::protobuf::LOGLEVEL_FATAL"
    },
    {
     "enum_field_value" : 2,
     "name" : "google::protobuf::LOGLEVEL_DFATAL"
    }
   ],
   "linker_set_key" : "_ZTIN6google8protobuf8LogLevelE",
   "name" : "google::protobuf::LogLevel",
   "referenced_type" : "_ZTIN6google8protobuf8LogLevelE",
   "self_type" : "_ZTIN6google8protobuf8LogLevelE",
   "size" : 4,
   "source_file" : "external/protobuf/src/google/protobuf/stubs/logging.h",
   "underlying_type" : "_ZTIj"
  },
  {
   "alignment" : 4,
   "enum_fields" :
   [
    {
     "enum_field_value" : 0,
     "name" : "google::protobuf::internal::SCCInfoBase::kInitialized"
    },
    {
     "enum_field_value" : 1,
     "name" : "google::protobuf::internal::SCCInfoBase::kRunning"
    },
    {
     "enum_field_value" : -1,
     "name" : "google::protobuf::internal::SCCInfoBase::kUninitialized"
    }
   ],
   "linker_set_key" : "_ZTIN6google8protobuf8internal11SCCInfoBase13$kInitializedE",
   "name" : "google::protobuf::internal::SCCInfoBase::(anonymous enum at external/protobuf/src/google/protobuf/generated_message_util.h:184:3)",
   "referenced_type" : "_ZTIN6google8protobuf8internal11SCCInfoBase13$kInitializedE",
   "self_type" : "_ZTIN6google8protobuf8internal11SCCInfoBase13$kInitializedE",
   "size" : 4,
   "source_file" : "external/protobuf/src/google/protobuf/generated_message_util.h",
   "underlying_type" : "_ZTIi"
  },
  {
   "alignment" : 4,
   "enum_fields" :
   [
    {
     "enum_field_value" : 1,
     "name" : "google::protobuf::internal::WireFormatLite::CPPTYPE_INT32"
    },
    {
     "enum_field_value" : 2,
     "name" : "google::protobuf::internal::WireFormatLite::CPPTYPE_INT64"
    },
    {
     "enum_field_value" : 3,
     "name" : "google::protobuf::internal::WireFormatLite::CPPTYPE_UINT32"
    },
    {
     "enum_field_value" : 4,
     "name" : "google::protobuf::internal::WireFormatLite::CPPTYPE_UINT64"
    },
    {
     "enum_field_value" : 5,
     "name" : "google::protobuf::internal::WireFormatLite::CPPTYPE_DOUBLE"
    },
    {
     "enum_field_value" : 6,
     "name" : "google::protobuf::internal::WireFormatLite::CPPTYPE_FLOAT"
    },
    {
     "enum_field_value" : 7,
     "name" : "google::protobuf::internal::WireFormatLite::CPPTYPE_BOOL"
    },
    {
     "enum_field_value" : 8,
     "name" : "google::protobuf::internal::WireFormatLite::CPPTYPE_ENUM"
    },
    {
     "enum_field_value" : 9,
     "name" : "google::protobuf::internal::WireFormatLite::CPPTYPE_STRING"
    },
    {
     "enum_field_value" : 10,
     "name" : "google::protobuf::internal::WireFormatLite::CPPTYPE_MESSAGE"
    },
    {
     "enum_field_value" : 10,
     "name" : "google::protobuf::internal::WireFormatLite::MAX_CPPTYPE"
    }
   ],
   "linker_set_key" : "_ZTIN6google8protobuf8internal14WireFormatLite7CppTypeE",
   "name" : "google::protobuf::internal::WireFormatLite::CppType",
   "referenced_type" : "_ZTIN6google8protobuf8internal14WireFormatLite7CppTypeE",
   "self_type" : "_ZTIN6google8protobuf8internal14WireFormatLite7CppTypeE",
   "size" : 4,
   "source_file" : "external/protobuf/src/google/protobuf/wire_format_lite.h",
   "underlying_type" : "_ZTIj"
  },
  {
   "alignment" : 4,
   "enum_fields" :
   [
    {
     "enum_field_value" : 0,
     "name" : "google::protobuf::internal::WireFormatLite::WIRETYPE_VARINT"
    },
    {
     "enum_field_value" : 1,
     "name" : "google::protobuf::internal::WireFormatLite::WIRETYPE_FIXED64"
    },
    {
     "enum_field_value" : 2,
     "name" : "google::protobuf::internal::WireFormatLite::WIRETYPE_LENGTH_DELIMITED"
    },
    {
     "enum_field_value" : 3,
     "name" : "google::protobuf::internal::WireFormatLite::WIRETYPE_START_GROUP"
    },
    {
     "enum_field_value" : 4,
     "name" : "google::protobuf::internal::WireFormatLite::WIRETYPE_END_GROUP"
    },
    {
     "enum_field_value" : 5,
     "name" : "google::protobuf::internal::WireFormatLite::WIRETYPE_FIXED32"
    }
   ],
   "linker_set_key" : "_ZTIN6google8protobuf8internal14WireFormatLite8WireTypeE",
   "name" : "google::protobuf::internal::WireFormatLite::WireType",
   "referenced_type" : "_ZTIN6google8protobuf8internal14WireFormatLite8WireTypeE",
   "self_type" : "_ZTIN6google8protobuf8internal14WireFormatLite8WireTypeE",
   "size" : 4,
   "source_file" : "external/protobuf/src/google/protobuf/wire_format_lite.h",
   "underlying_type" : "_ZTIj"
  },
  {
   "alignment" : 4,
   "enum_fields" :
   [
    {
     "enum_field_value" : 1,
     "name" : "google::protobuf::internal::WireFormatLite::TYPE_DOUBLE"
    },
    {
     "enum_field_value" : 2,
     "name" : "google::protobuf::internal::WireFormatLite::TYPE_FLOAT"
    },
    {
     "enum_field_value" : 3,
     "name" : "google::protobuf::internal::WireFormatLite::TYPE_INT64"
    },
    {
     "enum_field_value" : 4,
     "name" : "google::protobuf::internal::WireFormatLite::TYPE_UINT64"
    },
    {
     "enum_field_value" : 5,
     "name" : "google::protobuf::internal::WireFormatLite::TYPE_INT32"
    },
    {
     "enum_field_value" : 6,
     "name" : "google::protobuf::internal::WireFormatLite::TYPE_FIXED64"
    },
    {
     "enum_field_value" : 7,
     "name" : "google::protobuf::internal::WireFormatLite::TYPE_FIXED32"
    },
    {
     "enum_field_value" : 8,
     "name" : "google::protobuf::internal::WireFormatLite::TYPE_BOOL"
    },
    {
     "enum_field_value" : 9,
     "name" : "google::protobuf::internal::WireFormatLite::TYPE_STRING"
    },
    {
     "enum_field_value" : 10,
     "name" : "google::protobuf::internal::WireFormatLite::TYPE_GROUP"
    },
    {
     "enum_field_value" : 11,
     "name" : "google::protobuf::internal::WireFormatLite::TYPE_MESSAGE"
    },
    {
     "enum_field_value" : 12,
     "name" : "google::protobuf::internal::WireFormatLite::TYPE_BYTES"
    },
    {
     "enum_field_value" : 13,
     "name" : "google::protobuf::internal::WireFormatLite::TYPE_UINT32"
    },
    {
     "enum_field_value" : 14,
     "name" : "google::protobuf::internal::WireFormatLite::TYPE_ENUM"
    },
    {
     "enum_field_value" : 15,
     "name" : "google::protobuf::internal::WireFormatLite::TYPE_SFIXED32"
    },
    {
     "enum_field_value" : 16,
     "name" : "google::protobuf::internal::WireFormatLite::TYPE_SFIXED64"
    },
    {
     "enum_field_value" : 17,
     "name" : "google::protobuf::internal::WireFormatLite::TYPE_SINT32"
    },
    {
     "enum_field_value" : 18,
     "name" : "google::protobuf::internal::WireFormatLite::TYPE_SINT64"
    },
    {
     "enum_field_value" : 18,
     "name" : "google::protobuf::internal::WireFormatLite::MAX_FIELD_TYPE"
    }
   ],
   "linker_set_key" : "_ZTIN6google8protobuf8internal14WireFormatLite9FieldTypeE",
   "name" : "google::protobuf::internal::WireFormatLite::FieldType",
   "referenced_type" : "_ZTIN6google8protobuf8internal14WireFormatLite9FieldTypeE",
   "self_type" : "_ZTIN6google8protobuf8internal14WireFormatLite9FieldTypeE",
   "size" : 4,
   "source_file" : "external/protobuf/src/google/protobuf/wire_format_lite.h",
   "underlying_type" : "_ZTIj"
  },
  {
   "alignment" : 4,
   "enum_fields" :
   [
    {
     "enum_field_value" : 0,
     "name" : "google::protobuf::internal::WireFormatLite::PARSE"
    },
    {
     "enum_field_value" : 1,
     "name" : "google::protobuf::internal::WireFormatLite::SERIALIZE"
    }
   ],
   "linker_set_key" : "_ZTIN6google8protobuf8internal14WireFormatLite9OperationE",
   "name" : "google::protobuf::internal::WireFormatLite::Operation",
   "referenced_type" : "_ZTIN6google8protobuf8internal14WireFormatLite9OperationE",
   "self_type" : "_ZTIN6google8protobuf8internal14WireFormatLite9OperationE",
   "size" : 4,
   "source_file" : "external/protobuf/src/google/protobuf/wire_format_lite.h",
   "underlying_type" : "_ZTIj"
  },
  {
   "access" : "private",
   "alignment" : 4,
   "enum_fields" :
   [
    {
     "enum_field_value" : 0,
     "name" : "google::protobuf::internal::EpsCopyInputStream::kNoAliasing"
    },
    {
     "enum_field_value" : 1,
     "name" : "google::protobuf::internal::EpsCopyInputStream::kOnPatch"
    },
    {
     "enum_field_value" : 2,
     "name" : "google::protobuf::internal::EpsCopyInputStream::kNoDelta"
    }
   ],
   "linker_set_key" : "_ZTIN6google8protobuf8internal18EpsCopyInputStream12$kNoAliasingE",
   "name" : "google::protobuf::internal::EpsCopyInputStream::(anonymous enum at external/protobuf/src/google/protobuf/parse_context.h:251:3)",
   "referenced_type" : "_ZTIN6google8protobuf8internal18EpsCopyInputStream12$kNoAliasingE",
   "self_type" : "_ZTIN6google8protobuf8internal18EpsCopyInputStream12$kNoAliasingE",
   "size" : 4,
   "source_file" : "external/protobuf/src/google/protobuf/parse_context.h",
   "underlying_type" : "_ZTIj"
  },
  {
   "alignment" : 4,
   "enum_fields" :
   [
    {
     "enum_field_value" : 16,
     "name" : "google::protobuf::internal::EpsCopyInputStream::kSlopBytes"
    },
    {
     "enum_field_value" : 512,
     "name" : "google::protobuf::internal::EpsCopyInputStream::kMaxCordBytesToCopy"
    }
   ],
   "linker_set_key" : "_ZTIN6google8protobuf8internal18EpsCopyInputStream20$kMaxCordBytesToCopyE",
   "name" : "google::protobuf::internal::EpsCopyInputStream::(anonymous enum at external/protobuf/src/google/protobuf/parse_context.h:109:3)",
   "referenced_type" : "_ZTIN6google8protobuf8internal18EpsCopyInputStream20$kMaxCordBytesToCopyE",
   "self_type" : "_ZTIN6google8protobuf8internal18EpsCopyInputStream20$kMaxCordBytesToCopyE",
   "size" : 4,
   "source_file" : "external/protobuf/src/google/protobuf/parse_context.h",
   "underlying_type" : "_ZTIj"
  },
  {
   "access" : "private",
   "alignment" : 4,
   "enum_fields" :
   [
    {
     "enum_field_value" : 0,
     "name" : "google::protobuf::internal::InternalMetadataWithArenaBase<std::__1::basic_string<char>, google::protobuf::internal::InternalMetadataWithArenaLite>::kTagArena"
    },
    {
     "enum_field_value" : 1,
     "name" : "google::protobuf::internal::InternalMetadataWithArenaBase<std::__1::basic_string<char>, google::protobuf::internal::InternalMetadataWithArenaLite>::kTagContainer"
    }
   ],
   "linker_set_key" : "_ZTIN6google8protobuf8internal29InternalMetadataWithArenaBaseINSt3__112basic_stringIcNS3_11char_traitsIcEENS3_9allocatorIcEEEENS1_29InternalMetadataWithArenaLiteEE10$kTagArenaE",
   "name" : "google::protobuf::internal::InternalMetadataWithArenaBase<basic_string<char>, InternalMetadataWithArenaLite>::(anonymous enum at external/protobuf/src/google/protobuf/metadata_lite.h:132:3)",
   "referenced_type" : "_ZTIN6google8protobuf8internal29InternalMetadataWithArenaBaseINSt3__112basic_stringIcNS3_11char_traitsIcEENS3_9allocatorIcEEEENS1_29InternalMetadataWithArenaLiteEE10$kTagArenaE",
   "self_type" : "_ZTIN6google8protobuf8internal29InternalMetadataWithArenaBaseINSt3__112basic_stringIcNS3_11char_traitsIcEENS3_9allocatorIcEEEENS1_29InternalMetadataWithArenaLiteEE10$kTagArenaE",
   "size" : 4,
   "source_file" : "external/protobuf/src/google/protobuf/metadata_lite.h",
   "underlying_type" : "_ZTIj"
  }
 ],
 "function_types" :
 [
  {
   "alignment" : 4,
   "linker_set_key" : "_ZTIFPhbS_E",
   "name" : "unsigned char *(bool, unsigned char *)",
   "parameters" :
   [
    {
     "referenced_type" : "_ZTIb"
    },
    {
     "referenced_type" : "_ZTIPh"
    }
   ],
   "referenced_type" : "_ZTIFPhbS_E",
   "return_type" : "_ZTIPh",
   "self_type" : "_ZTIFPhbS_E",
   "source_file" : "external/protobuf/src/google/protobuf/wire_format_lite.h"
  },
  {
   "alignment" : 4,
   "linker_set_key" : "_ZTIFPhdS_E",
   "name" : "unsigned char *(double, unsigned char *)",
   "parameters" :
   [
    {
     "referenced_type" : "_ZTId"
    },
    {
     "referenced_type" : "_ZTIPh"
    }
   ],
   "referenced_type" : "_ZTIFPhdS_E",
   "return_type" : "_ZTIPh",
   "self_type" : "_ZTIFPhdS_E",
   "source_file" : "external/protobuf/src/google/protobuf/wire_format_lite.h"
  },
  {
   "alignment" : 4,
   "linker_set_key" : "_ZTIFPhfS_E",
   "name" : "unsigned char *(float, unsigned char *)",
   "parameters" :
   [
    {
     "referenced_type" : "_ZTIf"
    },
    {
     "referenced_type" : "_ZTIPh"
    }
   ],
   "referenced_type" : "_ZTIFPhfS_E",
   "return_type" : "_ZTIPh",
   "self_type" : "_ZTIFPhfS_E",
   "source_file" : "external/protobuf/src/google/protobuf/wire_format_lite.h"
  },
  {
   "alignment" : 4,
   "linker_set_key" : "_ZTIFPhiS_E",
   "name" : "unsigned char *(int, unsigned char *)",
   "parameters" :
   [
    {
     "referenced_type" : "_ZTIi"
    },
    {
     "referenced_type" : "_ZTIPh"
    }
   ],
   "referenced_type" : "_ZTIFPhiS_E",
   "return_type" : "_ZTIPh",
   "self_type" : "_ZTIFPhiS_E",
   "source_file" : "external/protobuf/src/google/protobuf/wire_format_lite.h"
  },
  {
   "alignment" : 4,
   "linker_set_key" : "_ZTIFPhibS_E",
   "name" : "unsigned char *(int, bool, unsigned char *)",
   "parameters" :
   [
    {
     "referenced_type" : "_ZTIi"
    },
    {
     "referenced_type" : "_ZTIb"
    },
    {
     "referenced_type" : "_ZTIPh"
    }
   ],
   "referenced_type" : "_ZTIFPhibS_E",
   "return_type" : "_ZTIPh",
   "self_type" : "_ZTIFPhibS_E",
   "source_file" : "external/protobuf/src/google/protobuf/wire_format_lite.h"
  },
  {
   "alignment" : 4,
   "linker_set_key" : "_ZTIFPhidS_E",
   "name" : "unsigned char *(int, double, unsigned char *)",
   "parameters" :
   [
    {
     "referenced_type" : "_ZTIi"
    },
    {
     "referenced_type" : "_ZTId"
    },
    {
     "referenced_type" : "_ZTIPh"
    }
   ],
   "referenced_type" : "_ZTIFPhidS_E",
   "return_type" : "_ZTIPh",
   "self_type" : "_ZTIFPhidS_E",
   "source_file" : "external/protobuf/src/google/protobuf/wire_format_lite.h"
  },
  {
   "alignment" : 4,
   "linker_set_key" : "_ZTIFPhifS_E",
   "name" : "unsigned char *(int, float, unsigned char *)",
   "parameters" :
   [
    {
     "referenced_type" : "_ZTIi"
    },
    {
     "referenced_type" : "_ZTIf"
    },
    {
     "referenced_type" : "_ZTIPh"
    }
   ],
   "referenced_type" : "_ZTIFPhifS_E",
   "return_type" : "_ZTIPh",
   "self_type" : "_ZTIFPhifS_E",
   "source_file" : "external/protobuf/src/google/protobuf/wire_format_lite.h"
  },
  {
   "alignment" : 4,
   "linker_set_key" : "_ZTIFPhiiS_E",
   "name" : "unsigned char *(int, int, unsigned char *)",
   "parameters" :
   [
    {
     "referenced_type" : "_ZTIi"
    },
    {
     "referenced_type" : "_ZTIi"
    },
    {
     "referenced_type" : "_ZTIPh"
    }
   ],
   "referenced_type" : "_ZTIFPhiiS_E",
   "return_type" : "_ZTIPh",
   "self_type" : "_ZTIFPhiiS_E",
   "source_file" : "external/protobuf/src/google/protobuf/wire_format_lite.h"
  },
  {
   "alignment" : 4,
   "linker_set_key" : "_ZTIFPhijS_E",
   "name" : "unsigned char *(int, unsigned int, unsigned char *)",
   "parameters" :
   [
    {
     "referenced_type" : "_ZTIi"
    },
    {
     "referenced_type" : "_ZTIj"
    },
    {
     "referenced_type" : "_ZTIPh"
    }
   ],
   "referenced_type" : "_ZTIFPhijS_E",
   "return_type" : "_ZTIPh",
   "self_type" : "_ZTIFPhijS_E",
   "source_file" : "external/protobuf/src/google/protobuf/wire_format_lite.h"
  },
  {
   "alignment" : 4,
   "linker_set_key" : "_ZTIFPhixS_E",
   "name" : "unsigned char *(int, long long, unsigned char *)",
   "parameters" :
   [
    {
     "referenced_type" : "_ZTIi"
    },
    {
     "referenced_type" : "_ZTIx"
    },
    {
     "referenced_type" : "_ZTIPh"
    }
   ],
   "referenced_type" : "_ZTIFPhixS_E",
   "return_type" : "_ZTIPh",
   "self_type" : "_ZTIFPhixS_E",
   "source_file" : "external/protobuf/src/google/protobuf/wire_format_lite.h"
  },
  {
   "alignment" : 4,
   "linker_set_key" : "_ZTIFPhiyS_E",
   "name" : "unsigned char *(int, unsigned long long, unsigned char *)",
   "parameters" :
   [
    {
     "referenced_type" : "_ZTIi"
    },
    {
     "referenced_type" : "_ZTIy"
    },
    {
     "referenced_type" : "_ZTIPh"
    }
   ],
   "referenced_type" : "_ZTIFPhiyS_E",
   "return_type" : "_ZTIPh",
   "self_type" : "_ZTIFPhiyS_E",
   "source_file" : "external/protobuf/src/google/protobuf/wire_format_lite.h"
  },
  {
   "alignment" : 4,
   "linker_set_key" : "_ZTIFPhjS_E",
   "name" : "unsigned char *(unsigned int, unsigned char *)",
   "parameters" :
   [
    {
     "referenced_type" : "_ZTIj"
    },
    {
     "referenced_type" : "_ZTIPh"
    }
   ],
   "referenced_type" : "_ZTIFPhjS_E",
   "return_type" : "_ZTIPh",
   "self_type" : "_ZTIFPhjS_E",
   "source_file" : "external/protobuf/src/google/protobuf/wire_format_lite.h"
  },
  {
   "alignment" : 4,
   "linker_set_key" : "_ZTIFPhxS_E",
   "name" : "unsigned char *(long long, unsigned char *)",
   "parameters" :
   [
    {
     "referenced_type" : "_ZTIx"
    },
    {
     "referenced_type" : "_ZTIPh"
    }
   ],
   "referenced_type" : "_ZTIFPhxS_E",
   "return_type" : "_ZTIPh",
   "self_type" : "_ZTIFPhxS_E",
   "source_file" : "external/protobuf/src/google/protobuf/wire_format_lite.h"
  },
  {
   "alignment" : 4,
   "linker_set_key" : "_ZTIFPhyS_E",
   "name" : "unsigned char *(unsigned long long, unsigned char *)",
   "parameters" :
   [
    {
     "referenced_type" : "_ZTIy"
    },
    {
     "referenced_type" : "_ZTIPh"
    }
   ],
   "referenced_type" : "_ZTIFPhyS_E",
   "return_type" : "_ZTIPh",
   "self_type" : "_ZTIFPhyS_E",
   "source_file" : "external/protobuf/src/google/protobuf/wire_format_lite.h"
  },
  {
   "alignment" : 4,
   "linker_set_key" : "_ZTIFPvPN6google8protobuf5ArenaEE",
   "name" : "void *(google::protobuf::Arena *)",
   "parameters" :
   [
    {
     "referenced_type" : "_ZTIPN6google8protobuf5ArenaE"
    }
   ],
   "referenced_type" : "_ZTIFPvPN6google8protobuf5ArenaEE",
   "return_type" : "_ZTIPv",
   "self_type" : "_ZTIFPvPN6google8protobuf5ArenaEE",
   "source_file" : "external/protobuf/src/google/protobuf/arena.h"
  },
  {
   "alignment" : 4,
   "linker_set_key" : "_ZTIFPvjE",
   "name" : "void *(unsigned int)",
   "parameters" :
   [
    {
     "referenced_type" : "_ZTIj"
    }
   ],
   "referenced_type" : "_ZTIFPvjE",
   "return_type" : "_ZTIPv",
   "self_type" : "_ZTIFPvjE",
   "source_file" : "external/protobuf/src/google/protobuf/arena_impl.h"
  },
  {
   "alignment" : 4,
   "linker_set_key" : "_ZTIFvPKSt9type_infoyPvE",
   "name" : "void (const std::type_info *, unsigned long long, void *)",
   "parameters" :
   [
    {
     "referenced_type" : "_ZTIPKSt9type_info"
    },
    {
     "referenced_type" : "_ZTIy"
    },
    {
     "referenced_type" : "_ZTIPv"
    }
   ],
   "referenced_type" : "_ZTIFvPKSt9type_infoyPvE",
   "return_type" : "_ZTIv",
   "self_type" : "_ZTIFvPKSt9type_infoyPvE",
   "source_file" : "external/protobuf/src/google/protobuf/arena.h"
  },
  {
   "alignment" : 4,
   "linker_set_key" : "_ZTIFvPN6google8protobuf5ArenaEPvyE",
   "name" : "void (google::protobuf::Arena *, void *, unsigned long long)",
   "parameters" :
   [
    {
     "referenced_type" : "_ZTIPN6google8protobuf5ArenaE"
    },
    {
     "referenced_type" : "_ZTIPv"
    },
    {
     "referenced_type" : "_ZTIy"
    }
   ],
   "referenced_type" : "_ZTIFvPN6google8protobuf5ArenaEPvyE",
   "return_type" : "_ZTIv",
   "self_type" : "_ZTIFvPN6google8protobuf5ArenaEPvyE",
   "source_file" : "external/protobuf/src/google/protobuf/arena.h"
  },
  {
   "alignment" : 4,
   "linker_set_key" : "_ZTIFvPvE",
   "name" : "void (void *)",
   "parameters" :
   [
    {
     "referenced_type" : "_ZTIPv"
    }
   ],
   "referenced_type" : "_ZTIFvPvE",
   "return_type" : "_ZTIv",
   "self_type" : "_ZTIFvPvE",
   "source_file" : "external/protobuf/src/google/protobuf/arena_impl.h"
  },
  {
   "alignment" : 4,
   "linker_set_key" : "_ZTIFvPvjE",
   "name" : "void (void *, unsigned int)",
   "parameters" :
   [
    {
     "referenced_type" : "_ZTIPv"
    },
    {
     "referenced_type" : "_ZTIj"
    }
   ],
   "referenced_type" : "_ZTIFvPvjE",
   "return_type" : "_ZTIv",
   "self_type" : "_ZTIFvPvjE",
   "source_file" : "external/protobuf/src/google/protobuf/arena_impl.h"
  },
  {
   "alignment" : 4,
   "linker_set_key" : "_ZTIFvvE",
   "name" : "void ()",
   "referenced_type" : "_ZTIFvvE",
   "return_type" : "_ZTIv",
   "self_type" : "_ZTIFvvE",
   "source_file" : "external/protobuf/src/google/protobuf/stubs/once.h"
  }
 ],
 "functions" :
 [
  {
   "function_name" : "google::protobuf::SimpleBtoa",
   "linker_set_key" : "_ZN6google8protobuf10SimpleBtoaEb",
   "parameters" :
   [
    {
     "referenced_type" : "_ZTIb"
    }
   ],
   "return_type" : "_ZTINSt3__112basic_stringIcNS_11char_traitsIcEENS_9allocatorIcEEEE",
   "source_file" : "external/protobuf/src/google/protobuf/stubs/strutil.h"
  },
  {
   "function_name" : "google::protobuf::JoinStrings",
   "linker_set_key" : "_ZN6google8protobuf11JoinStringsERKNSt3__16vectorINS1_12basic_stringIcNS1_11char_traitsIcEENS1_9allocatorIcEEEENS6_IS8_EEEEPKc",
   "parameters" :
   [
    {
     "referenced_type" : "_ZTIRKNSt3__16vectorINS_12basic_stringIcNS_11char_traitsIcEENS_9allocatorIcEEEENS4_IS6_EEEE"
    },
    {
     "referenced_type" : "_ZTIPKc"
    }
   ],
   "return_type" : "_ZTINSt3__112basic_stringIcNS_11char_traitsIcEENS_9allocatorIcEEEE",
   "source_file" : "external/protobuf/src/google/protobuf/stubs/strutil.h"
  },
  {
   "function_name" : "google::protobuf::LowerString",
   "linker_set_key" : "_ZN6google8protobuf11LowerStringEPNSt3__112basic_stringIcNS1_11char_traitsIcEENS1_9allocatorIcEEEE",
   "parameters" :
   [
    {
     "referenced_type" : "_ZTIPNSt3__112basic_stringIcNS_11char_traitsIcEENS_9allocatorIcEEEE"
    }
   ],
   "return_type" : "_ZTIv",
   "source_file" : "external/protobuf/src/google/protobuf/stubs/strutil.h"
  },
  {
   "function_name" : "google::protobuf::MessageLite::MessageLite",
   "linker_set_key" : "_ZN6google8protobuf11MessageLiteC2Ev",
   "parameters" :
   [
    {
     "is_this_ptr" : true,
     "referenced_type" : "_ZTIPN6google8protobuf11MessageLiteE"
    }
   ],
   "return_type" : "_ZTIv",
   "source_file" : "external/protobuf/src/google/protobuf/message_lite.h"
  },
  {
   "function_name" : "google::protobuf::MessageLite::~MessageLite",
   "linker_set_key" : "_ZN6google8protobuf11MessageLiteD0Ev",
   "parameters" :
   [
    {
     "is_this_ptr" : true,
     "referenced_type" : "_ZTIPN6google8protobuf11MessageLiteE"
    }
   ],
   "return_type" : "_ZTIv",
   "source_file" : "external/protobuf/src/google/protobuf/message_lite.h"
  },
  {
   "function_name" : "google::protobuf::MessageLite::~MessageLite",
   "linker_set_key" : "_ZN6google8protobuf11MessageLiteD1Ev",
   "parameters" :
   [
    {
     "is_this_ptr" : true,
     "referenced_type" : "_ZTIPN6google8protobuf11MessageLiteE"
    }
   ],
   "return_type" : "_ZTIv",
   "source_file" : "external/protobuf/src/google/protobuf/message_lite.h"
  },
  {
   "function_name" : "google::protobuf::MessageLite::~MessageLite",
   "linker_set_key" : "_ZN6google8protobuf11MessageLiteD2Ev",
   "parameters" :
   [
    {
     "is_this_ptr" : true,
     "referenced_type" : "_ZTIPN6google8protobuf11MessageLiteE"
    }
   ],
   "return_type" : "_ZTIv",
   "source_file" : "external/protobuf/src/google/protobuf/message_lite.h"
  },
  {
   "function_name" : "google::protobuf::NewCallback",
   "linker_set_key" : "_ZN6google8protobuf11NewCallbackEPFvvE",
   "parameters" :
   [
    {
     "referenced_type" : "_ZTIPFvvE"
    }
   ],
   "return_type" : "_ZTIPN6google8protobuf7ClosureE",
   "source_file" : "external/protobuf/src/google/protobuf/stubs/callback.h"
  },
  {
   "function_name" : "google::protobuf::StringPiece::remove_prefix",
   "linker_set_key" : "_ZN6google8protobuf11StringPiece13remove_prefixEi",
   "parameters" :
   [
    {
     "is_this_ptr" : true,
     "referenced_type" : "_ZTIPN6google8protobuf11StringPieceE"
    },
    {
     "referenced_type" : "_ZTIi"
    }
   ],
   "return_type" : "_ZTIv",
   "source_file" : "external/protobuf/src/google/protobuf/stubs/stringpiece.h"
  },
  {
   "function_name" : "google::protobuf::StringPiece::remove_suffix",
   "linker_set_key" : "_ZN6google8protobuf11StringPiece13remove_suffixEi",
   "parameters" :
   [
    {
     "is_this_ptr" : true,
     "referenced_type" : "_ZTIPN6google8protobuf11StringPieceE"
    },
    {
     "referenced_type" : "_ZTIi"
    }
   ],
   "return_type" : "_ZTIv",
   "source_file" : "external/protobuf/src/google/protobuf/stubs/stringpiece.h"
  },
  {
   "access" : "private",
   "function_name" : "google::protobuf::StringPiece::CheckedSsizeTFromSizeT",
   "linker_set_key" : "_ZN6google8protobuf11StringPiece22CheckedSsizeTFromSizeTEj",
   "parameters" :
   [
    {
     "referenced_type" : "_ZTIj"
    }
   ],
   "return_type" : "_ZTIi",
   "source_file" : "external/protobuf/src/google/protobuf/stubs/stringpiece.h"
  },
  {
   "function_name" : "google::protobuf::StringPiece::set",
   "linker_set_key" : "_ZN6google8protobuf11StringPiece3setEPKc",
   "parameters" :
   [
    {
     "is_this_ptr" : true,
     "referenced_type" : "_ZTIPN6google8protobuf11StringPieceE"
    },
    {
     "referenced_type" : "_ZTIPKc"
    }
   ],
   "return_type" : "_ZTIv",
   "source_file" : "external/protobuf/src/google/protobuf/stubs/stringpiece.h"
  },
  {
   "function_name" : "google::protobuf::StringPiece::set",
   "linker_set_key" : "_ZN6google8protobuf11StringPiece3setEPKci",
   "parameters" :
   [
    {
     "is_this_ptr" : true,
     "referenced_type" : "_ZTIPN6google8protobuf11StringPieceE"
    },
    {
     "referenced_type" : "_ZTIPKc"
    },
    {
     "referenced_type" : "_ZTIi"
    }
   ],
   "return_type" : "_ZTIv",
   "source_file" : "external/protobuf/src/google/protobuf/stubs/stringpiece.h"
  },
  {
   "function_name" : "google::protobuf::StringPiece::set",
   "linker_set_key" : "_ZN6google8protobuf11StringPiece3setEPKvi",
   "parameters" :
   [
    {
     "is_this_ptr" : true,
     "referenced_type" : "_ZTIPN6google8protobuf11StringPieceE"
    },
    {
     "referenced_type" : "_ZTIPKv"
    },
    {
     "referenced_type" : "_ZTIi"
    }
   ],
   "return_type" : "_ZTIv",
   "source_file" : "external/protobuf/src/google/protobuf/stubs/stringpiece.h"
  },
  {
   "function_name" : "google::protobuf::StringPiece::clear",
   "linker_set_key" : "_ZN6google8protobuf11StringPiece5clearEv",
   "parameters" :
   [
    {
     "is_this_ptr" : true,
     "referenced_type" : "_ZTIPN6google8protobuf11StringPieceE"
    }
   ],
   "return_type" : "_ZTIv",
   "source_file" : "external/protobuf/src/google/protobuf/stubs/stringpiece.h"
  },
  {
   "function_name" : "google::protobuf::StringPiece::StringPiece",
   "linker_set_key" : "_ZN6google8protobuf11StringPieceC1EPKc",
   "parameters" :
   [
    {
     "is_this_ptr" : true,
     "referenced_type" : "_ZTIPN6google8protobuf11StringPieceE"
    },
    {
     "referenced_type" : "_ZTIPKc"
    }
   ],
   "return_type" : "_ZTIv",
   "source_file" : "external/protobuf/src/google/protobuf/stubs/stringpiece.h"
  },
  {
   "function_name" : "google::protobuf::StringPiece::StringPiece",
   "linker_set_key" : "_ZN6google8protobuf11StringPieceC1EPKci",
   "parameters" :
   [
    {
     "is_this_ptr" : true,
     "referenced_type" : "_ZTIPN6google8protobuf11StringPieceE"
    },
    {
     "referenced_type" : "_ZTIPKc"
    },
    {
     "referenced_type" : "_ZTIi"
    }
   ],
   "return_type" : "_ZTIv",
   "source_file" : "external/protobuf/src/google/protobuf/stubs/stringpiece.h"
  },
  {
   "function_name" : "google::protobuf::StringPiece::StringPiece",
   "linker_set_key" : "_ZN6google8protobuf11StringPieceC1Ev",
   "parameters" :
   [
    {
     "is_this_ptr" : true,
     "referenced_type" : "_ZTIPN6google8protobuf11StringPieceE"
    }
   ],
   "return_type" : "_ZTIv",
   "source_file" : "external/protobuf/src/google/protobuf/stubs/stringpiece.h"
  },
  {
   "function_name" : "google::protobuf::StringPiece::StringPiece",
   "linker_set_key" : "_ZN6google8protobuf11StringPieceC2EPKc",
   "parameters" :
   [
    {
     "is_this_ptr" : true,
     "referenced_type" : "_ZTIPN6google8protobuf11StringPieceE"
    },
    {
     "referenced_type" : "_ZTIPKc"
    }
   ],
   "return_type" : "_ZTIv",
   "source_file" : "external/protobuf/src/google/protobuf/stubs/stringpiece.h"
  },
  {
   "function_name" : "google::protobuf::StringPiece::StringPiece",
   "linker_set_key" : "_ZN6google8protobuf11StringPieceC2EPKci",
   "parameters" :
   [
    {
     "is_this_ptr" : true,
     "referenced_type" : "_ZTIPN6google8protobuf11StringPieceE"
    },
    {
     "referenced_type" : "_ZTIPKc"
    },
    {
     "referenced_type" : "_ZTIi"
    }
   ],
   "return_type" : "_ZTIv",
   "source_file" : "external/protobuf/src/google/protobuf/stubs/stringpiece.h"
  },
  {
   "function_name" : "google::protobuf::StringPiece::StringPiece",
   "linker_set_key" : "_ZN6google8protobuf11StringPieceC2Ev",
   "parameters" :
   [
    {
     "is_this_ptr" : true,
     "referenced_type" : "_ZTIPN6google8protobuf11StringPieceE"
    }
   ],
   "return_type" : "_ZTIv",
   "source_file" : "external/protobuf/src/google/protobuf/stubs/stringpiece.h"
  },
  {
   "function_name" : "google::protobuf::UpperString",
   "linker_set_key" : "_ZN6google8protobuf11UpperStringEPNSt3__112basic_stringIcNS1_11char_traitsIcEENS1_9allocatorIcEEEE",
   "parameters" :
   [
    {
     "referenced_type" : "_ZTIPNSt3__112basic_stringIcNS_11char_traitsIcEENS_9allocatorIcEEEE"
    }
   ],
   "return_type" : "_ZTIv",
   "source_file" : "external/protobuf/src/google/protobuf/stubs/strutil.h"
  },
  {
   "function_name" : "google::protobuf::safe_strtod",
   "linker_set_key" : "_ZN6google8protobuf11safe_strtodENS0_11StringPieceEPd",
   "parameters" :
   [
    {
     "referenced_type" : "_ZTIN6google8protobuf11StringPieceE"
    },
    {
     "referenced_type" : "_ZTIPd"
    }
   ],
   "return_type" : "_ZTIb",
   "source_file" : "external/protobuf/src/google/protobuf/stubs/strutil.h"
  },
  {
   "function_name" : "google::protobuf::safe_strtod",
   "linker_set_key" : "_ZN6google8protobuf11safe_strtodERKNSt3__112basic_stringIcNS1_11char_traitsIcEENS1_9allocatorIcEEEEPd",
   "parameters" :
   [
    {
     "referenced_type" : "_ZTIRKNSt3__112basic_stringIcNS_11char_traitsIcEENS_9allocatorIcEEEE"
    },
    {
     "referenced_type" : "_ZTIPd"
    }
   ],
   "return_type" : "_ZTIb",
   "source_file" : "external/protobuf/src/google/protobuf/stubs/strutil.h"
  },
  {
   "function_name" : "google::protobuf::safe_strtof",
   "linker_set_key" : "_ZN6google8protobuf11safe_strtofENS0_11StringPieceEPf",
   "parameters" :
   [
    {
     "referenced_type" : "_ZTIN6google8protobuf11StringPieceE"
    },
    {
     "referenced_type" : "_ZTIPf"
    }
   ],
   "return_type" : "_ZTIb",
   "source_file" : "external/protobuf/src/google/protobuf/stubs/strutil.h"
  },
  {
   "function_name" : "google::protobuf::safe_strtof",
   "linker_set_key" : "_ZN6google8protobuf11safe_strtofERKNSt3__112basic_stringIcNS1_11char_traitsIcEENS1_9allocatorIcEEEEPf",
   "parameters" :
   [
    {
     "referenced_type" : "_ZTIRKNSt3__112basic_stringIcNS_11char_traitsIcEENS_9allocatorIcEEEE"
    },
    {
     "referenced_type" : "_ZTIPf"
    }
   ],
   "return_type" : "_ZTIb",
   "source_file" : "external/protobuf/src/google/protobuf/stubs/strutil.h"
  },
  {
   "function_name" : "google::protobuf::ArenaOptions::ArenaOptions",
   "linker_set_key" : "_ZN6google8protobuf12ArenaOptionsC1Ev",
   "parameters" :
   [
    {
     "is_this_ptr" : true,
     "referenced_type" : "_ZTIPN6google8protobuf12ArenaOptionsE"
    }
   ],
   "return_type" : "_ZTIv",
   "source_file" : "external/protobuf/src/google/protobuf/arena.h"
  },
  {
   "function_name" : "google::protobuf::ArenaOptions::ArenaOptions",
   "linker_set_key" : "_ZN6google8protobuf12ArenaOptionsC2Ev",
   "parameters" :
   [
    {
     "is_this_ptr" : true,
     "referenced_type" : "_ZTIPN6google8protobuf12ArenaOptionsE"
    }
   ],
   "return_type" : "_ZTIv",
   "source_file" : "external/protobuf/src/google/protobuf/arena.h"
  },
  {
   "function_name" : "google::protobuf::safe_strto32",
   "linker_set_key" : "_ZN6google8protobuf12safe_strto32ENS0_11StringPieceEPi",
   "parameters" :
   [
    {
     "referenced_type" : "_ZTIN6google8protobuf11StringPieceE"
    },
    {
     "referenced_type" : "_ZTIPi"
    }
   ],
   "return_type" : "_ZTIb",
   "source_file" : "external/protobuf/src/google/protobuf/stubs/strutil.h"
  },
  {
   "function_name" : "google::protobuf::safe_strto32",
   "linker_set_key" : "_ZN6google8protobuf12safe_strto32EPKcPi",
   "parameters" :
   [
    {
     "referenced_type" : "_ZTIPKc"
    },
    {
     "referenced_type" : "_ZTIPi"
    }
   ],
   "return_type" : "_ZTIb",
   "source_file" : "external/protobuf/src/google/protobuf/stubs/strutil.h"
  },
  {
   "function_name" : "google::protobuf::safe_strto64",
   "linker_set_key" : "_ZN6google8protobuf12safe_strto64ENS0_11StringPieceEPx",
   "parameters" :
   [
    {
     "referenced_type" : "_ZTIN6google8protobuf11StringPieceE"
    },
    {
     "referenced_type" : "_ZTIPx"
    }
   ],
   "return_type" : "_ZTIb",
   "source_file" : "external/protobuf/src/google/protobuf/stubs/strutil.h"
  },
  {
   "function_name" : "google::protobuf::safe_strto64",
   "linker_set_key" : "_ZN6google8protobuf12safe_strto64EPKcPx",
   "parameters" :
   [
    {
     "referenced_type" : "_ZTIPKc"
    },
    {
     "referenced_type" : "_ZTIPx"
    }
   ],
   "return_type" : "_ZTIb",
   "source_file" : "external/protobuf/src/google/protobuf/stubs/strutil.h"
  },
  {
   "function_name" : "google::protobuf::RepeatedField<double>::mutable_data",
   "linker_set_key" : "_ZN6google8protobuf13RepeatedFieldIdE12mutable_dataEv",
   "parameters" :
   [
    {
     "is_this_ptr" : true,
     "referenced_type" : "_ZTIPN6google8protobuf13RepeatedFieldIdEE"
    }
   ],
   "return_type" : "_ZTIPd",
   "source_file" : "external/protobuf/src/google/protobuf/repeated_field.h"
  },
  {
   "function_name" : "google::protobuf::RepeatedField<double>::AddAlreadyReserved",
   "linker_set_key" : "_ZN6google8protobuf13RepeatedFieldIdE18AddAlreadyReservedERKd",
   "parameters" :
   [
    {
     "is_this_ptr" : true,
     "referenced_type" : "_ZTIPN6google8protobuf13RepeatedFieldIdEE"
    },
    {
     "referenced_type" : "_ZTIRKd"
    }
   ],
   "return_type" : "_ZTIv",
   "source_file" : "external/protobuf/src/google/protobuf/repeated_field.h"
  },
  {
   "function_name" : "google::protobuf::RepeatedField<double>::Add",
   "linker_set_key" : "_ZN6google8protobuf13RepeatedFieldIdE3AddERKd",
   "parameters" :
   [
    {
     "is_this_ptr" : true,
     "referenced_type" : "_ZTIPN6google8protobuf13RepeatedFieldIdEE"
    },
    {
     "referenced_type" : "_ZTIRKd"
    }
   ],
   "return_type" : "_ZTIv",
   "source_file" : "external/protobuf/src/google/protobuf/repeated_field.h"
  },
  {
   "function_name" : "google::protobuf::RepeatedField<double>::Resize",
   "linker_set_key" : "_ZN6google8protobuf13RepeatedFieldIdE6ResizeEiRKd",
   "parameters" :
   [
    {
     "is_this_ptr" : true,
     "referenced_type" : "_ZTIPN6google8protobuf13RepeatedFieldIdEE"
    },
    {
     "referenced_type" : "_ZTIi"
    },
    {
     "referenced_type" : "_ZTIRKd"
    }
   ],
   "return_type" : "_ZTIv",
   "source_file" : "external/protobuf/src/google/protobuf/repeated_field.h"
  },
  {
   "function_name" : "google::protobuf::RepeatedField<double>::Truncate",
   "linker_set_key" : "_ZN6google8protobuf13RepeatedFieldIdE8TruncateEi",
   "parameters" :
   [
    {
     "is_this_ptr" : true,
     "referenced_type" : "_ZTIPN6google8protobuf13RepeatedFieldIdEE"
    },
    {
     "referenced_type" : "_ZTIi"
    }
   ],
   "return_type" : "_ZTIv",
   "source_file" : "external/protobuf/src/google/protobuf/repeated_field.h"
  },
  {
   "function_name" : "google::protobuf::RepeatedField<float>::mutable_data",
   "linker_set_key" : "_ZN6google8protobuf13RepeatedFieldIfE12mutable_dataEv",
   "parameters" :
   [
    {
     "is_this_ptr" : true,
     "referenced_type" : "_ZTIPN6google8protobuf13RepeatedFieldIfEE"
    }
   ],
   "return_type" : "_ZTIPf",
   "source_file" : "external/protobuf/src/google/protobuf/repeated_field.h"
  },
  {
   "function_name" : "google::protobuf::RepeatedField<float>::AddAlreadyReserved",
   "linker_set_key" : "_ZN6google8protobuf13RepeatedFieldIfE18AddAlreadyReservedERKf",
   "parameters" :
   [
    {
     "is_this_ptr" : true,
     "referenced_type" : "_ZTIPN6google8protobuf13RepeatedFieldIfEE"
    },
    {
     "referenced_type" : "_ZTIRKf"
    }
   ],
   "return_type" : "_ZTIv",
   "source_file" : "external/protobuf/src/google/protobuf/repeated_field.h"
  },
  {
   "function_name" : "google::protobuf::RepeatedField<float>::Add",
   "linker_set_key" : "_ZN6google8protobuf13RepeatedFieldIfE3AddERKf",
   "parameters" :
   [
    {
     "is_this_ptr" : true,
     "referenced_type" : "_ZTIPN6google8protobuf13RepeatedFieldIfEE"
    },
    {
     "referenced_type" : "_ZTIRKf"
    }
   ],
   "return_type" : "_ZTIv",
   "source_file" : "external/protobuf/src/google/protobuf/repeated_field.h"
  },
  {
   "function_name" : "google::protobuf::RepeatedField<float>::Resize",
   "linker_set_key" : "_ZN6google8protobuf13RepeatedFieldIfE6ResizeEiRKf",
   "parameters" :
   [
    {
     "is_this_ptr" : true,
     "referenced_type" : "_ZTIPN6google8protobuf13RepeatedFieldIfEE"
    },
    {
     "referenced_type" : "_ZTIi"
    },
    {
     "referenced_type" : "_ZTIRKf"
    }
   ],
   "return_type" : "_ZTIv",
   "source_file" : "external/protobuf/src/google/protobuf/repeated_field.h"
  },
  {
   "function_name" : "google::protobuf::RepeatedField<float>::Truncate",
   "linker_set_key" : "_ZN6google8protobuf13RepeatedFieldIfE8TruncateEi",
   "parameters" :
   [
    {
     "is_this_ptr" : true,
     "referenced_type" : "_ZTIPN6google8protobuf13RepeatedFieldIfEE"
    },
    {
     "referenced_type" : "_ZTIi"
    }
   ],
   "return_type" : "_ZTIv",
   "source_file" : "external/protobuf/src/google/protobuf/repeated_field.h"
  },
  {
   "function_name" : "google::protobuf::RepeatedField<int>::mutable_data",
   "linker_set_key" : "_ZN6google8protobuf13RepeatedFieldIiE12mutable_dataEv",
   "parameters" :
   [
    {
     "is_this_ptr" : true,
     "referenced_type" : "_ZTIPN6google8protobuf13RepeatedFieldIiEE"
    }
   ],
   "return_type" : "_ZTIPi",
   "source_file" : "external/protobuf/src/google/protobuf/repeated_field.h"
  },
  {
   "function_name" : "google::protobuf::RepeatedField<int>::AddAlreadyReserved",
   "linker_set_key" : "_ZN6google8protobuf13RepeatedFieldIiE18AddAlreadyReservedERKi",
   "parameters" :
   [
    {
     "is_this_ptr" : true,
     "referenced_type" : "_ZTIPN6google8protobuf13RepeatedFieldIiEE"
    },
    {
     "referenced_type" : "_ZTIRKi"
    }
   ],
   "return_type" : "_ZTIv",
   "source_file" : "external/protobuf/src/google/protobuf/repeated_field.h"
  },
  {
   "function_name" : "google::protobuf::RepeatedField<int>::Add",
   "linker_set_key" : "_ZN6google8protobuf13RepeatedFieldIiE3AddERKi",
   "parameters" :
   [
    {
     "is_this_ptr" : true,
     "referenced_type" : "_ZTIPN6google8protobuf13RepeatedFieldIiEE"
    },
    {
     "referenced_type" : "_ZTIRKi"
    }
   ],
   "return_type" : "_ZTIv",
   "source_file" : "external/protobuf/src/google/protobuf/repeated_field.h"
  },
  {
   "function_name" : "google::protobuf::RepeatedField<int>::Resize",
   "linker_set_key" : "_ZN6google8protobuf13RepeatedFieldIiE6ResizeEiRKi",
   "parameters" :
   [
    {
     "is_this_ptr" : true,
     "referenced_type" : "_ZTIPN6google8protobuf13RepeatedFieldIiEE"
    },
    {
     "referenced_type" : "_ZTIi"
    },
    {
     "referenced_type" : "_ZTIRKi"
    }
   ],
   "return_type" : "_ZTIv",
   "source_file" : "external/protobuf/src/google/protobuf/repeated_field.h"
  },
  {
   "function_name" : "google::protobuf::RepeatedField<int>::Truncate",
   "linker_set_key" : "_ZN6google8protobuf13RepeatedFieldIiE8TruncateEi",
   "parameters" :
   [
    {
     "is_this_ptr" : true,
     "referenced_type" : "_ZTIPN6google8protobuf13RepeatedFieldIiEE"
    },
    {
     "referenced_type" : "_ZTIi"
    }
   ],
   "return_type" : "_ZTIv",
   "source_file" : "external/protobuf/src/google/protobuf/repeated_field.h"
  },
  {
   "function_name" : "google::protobuf::RepeatedField<unsigned int>::mutable_data",
   "linker_set_key" : "_ZN6google8protobuf13RepeatedFieldIjE12mutable_dataEv",
   "parameters" :
   [
    {
     "is_this_ptr" : true,
     "referenced_type" : "_ZTIPN6google8protobuf13RepeatedFieldIjEE"
    }
   ],
   "return_type" : "_ZTIPj",
   "source_file" : "external/protobuf/src/google/protobuf/repeated_field.h"
  },
  {
   "function_name" : "google::protobuf::RepeatedField<unsigned int>::AddAlreadyReserved",
   "linker_set_key" : "_ZN6google8protobuf13RepeatedFieldIjE18AddAlreadyReservedERKj",
   "parameters" :
   [
    {
     "is_this_ptr" : true,
     "referenced_type" : "_ZTIPN6google8protobuf13RepeatedFieldIjEE"
    },
    {
     "referenced_type" : "_ZTIRKj"
    }
   ],
   "return_type" : "_ZTIv",
   "source_file" : "external/protobuf/src/google/protobuf/repeated_field.h"
  },
  {
   "function_name" : "google::protobuf::RepeatedField<unsigned int>::Add",
   "linker_set_key" : "_ZN6google8protobuf13RepeatedFieldIjE3AddERKj",
   "parameters" :
   [
    {
     "is_this_ptr" : true,
     "referenced_type" : "_ZTIPN6google8protobuf13RepeatedFieldIjEE"
    },
    {
     "referenced_type" : "_ZTIRKj"
    }
   ],
   "return_type" : "_ZTIv",
   "source_file" : "external/protobuf/src/google/protobuf/repeated_field.h"
  },
  {
   "function_name" : "google::protobuf::RepeatedField<unsigned int>::Resize",
   "linker_set_key" : "_ZN6google8protobuf13RepeatedFieldIjE6ResizeEiRKj",
   "parameters" :
   [
    {
     "is_this_ptr" : true,
     "referenced_type" : "_ZTIPN6google8protobuf13RepeatedFieldIjEE"
    },
    {
     "referenced_type" : "_ZTIi"
    },
    {
     "referenced_type" : "_ZTIRKj"
    }
   ],
   "return_type" : "_ZTIv",
   "source_file" : "external/protobuf/src/google/protobuf/repeated_field.h"
  },
  {
   "function_name" : "google::protobuf::RepeatedField<unsigned int>::Truncate",
   "linker_set_key" : "_ZN6google8protobuf13RepeatedFieldIjE8TruncateEi",
   "parameters" :
   [
    {
     "is_this_ptr" : true,
     "referenced_type" : "_ZTIPN6google8protobuf13RepeatedFieldIjEE"
    },
    {
     "referenced_type" : "_ZTIi"
    }
   ],
   "return_type" : "_ZTIv",
   "source_file" : "external/protobuf/src/google/protobuf/repeated_field.h"
  },
  {
   "function_name" : "google::protobuf::RepeatedField<long long>::mutable_data",
   "linker_set_key" : "_ZN6google8protobuf13RepeatedFieldIxE12mutable_dataEv",
   "parameters" :
   [
    {
     "is_this_ptr" : true,
     "referenced_type" : "_ZTIPN6google8protobuf13RepeatedFieldIxEE"
    }
   ],
   "return_type" : "_ZTIPx",
   "source_file" : "external/protobuf/src/google/protobuf/repeated_field.h"
  },
  {
   "function_name" : "google::protobuf::RepeatedField<long long>::AddAlreadyReserved",
   "linker_set_key" : "_ZN6google8protobuf13RepeatedFieldIxE18AddAlreadyReservedERKx",
   "parameters" :
   [
    {
     "is_this_ptr" : true,
     "referenced_type" : "_ZTIPN6google8protobuf13RepeatedFieldIxEE"
    },
    {
     "referenced_type" : "_ZTIRKx"
    }
   ],
   "return_type" : "_ZTIv",
   "source_file" : "external/protobuf/src/google/protobuf/repeated_field.h"
  },
  {
   "function_name" : "google::protobuf::RepeatedField<long long>::Add",
   "linker_set_key" : "_ZN6google8protobuf13RepeatedFieldIxE3AddERKx",
   "parameters" :
   [
    {
     "is_this_ptr" : true,
     "referenced_type" : "_ZTIPN6google8protobuf13RepeatedFieldIxEE"
    },
    {
     "referenced_type" : "_ZTIRKx"
    }
   ],
   "return_type" : "_ZTIv",
   "source_file" : "external/protobuf/src/google/protobuf/repeated_field.h"
  },
  {
   "function_name" : "google::protobuf::RepeatedField<long long>::Resize",
   "linker_set_key" : "_ZN6google8protobuf13RepeatedFieldIxE6ResizeEiRKx",
   "parameters" :
   [
    {
     "is_this_ptr" : true,
     "referenced_type" : "_ZTIPN6google8protobuf13RepeatedFieldIxEE"
    },
    {
     "referenced_type" : "_ZTIi"
    },
    {
     "referenced_type" : "_ZTIRKx"
    }
   ],
   "return_type" : "_ZTIv",
   "source_file" : "external/protobuf/src/google/protobuf/repeated_field.h"
  },
  {
   "function_name" : "google::protobuf::RepeatedField<long long>::Truncate",
   "linker_set_key" : "_ZN6google8protobuf13RepeatedFieldIxE8TruncateEi",
   "parameters" :
   [
    {
     "is_this_ptr" : true,
     "referenced_type" : "_ZTIPN6google8protobuf13RepeatedFieldIxEE"
    },
    {
     "referenced_type" : "_ZTIi"
    }
   ],
   "return_type" : "_ZTIv",
   "source_file" : "external/protobuf/src/google/protobuf/repeated_field.h"
  },
  {
   "function_name" : "google::protobuf::RepeatedField<unsigned long long>::mutable_data",
   "linker_set_key" : "_ZN6google8protobuf13RepeatedFieldIyE12mutable_dataEv",
   "parameters" :
   [
    {
     "is_this_ptr" : true,
     "referenced_type" : "_ZTIPN6google8protobuf13RepeatedFieldIyEE"
    }
   ],
   "return_type" : "_ZTIPy",
   "source_file" : "external/protobuf/src/google/protobuf/repeated_field.h"
  },
  {
   "function_name" : "google::protobuf::RepeatedField<unsigned long long>::AddAlreadyReserved",
   "linker_set_key" : "_ZN6google8protobuf13RepeatedFieldIyE18AddAlreadyReservedERKy",
   "parameters" :
   [
    {
     "is_this_ptr" : true,
     "referenced_type" : "_ZTIPN6google8protobuf13RepeatedFieldIyEE"
    },
    {
     "referenced_type" : "_ZTIRKy"
    }
   ],
   "return_type" : "_ZTIv",
   "source_file" : "external/protobuf/src/google/protobuf/repeated_field.h"
  },
  {
   "function_name" : "google::protobuf::RepeatedField<unsigned long long>::Add",
   "linker_set_key" : "_ZN6google8protobuf13RepeatedFieldIyE3AddERKy",
   "parameters" :
   [
    {
     "is_this_ptr" : true,
     "referenced_type" : "_ZTIPN6google8protobuf13RepeatedFieldIyEE"
    },
    {
     "referenced_type" : "_ZTIRKy"
    }
   ],
   "return_type" : "_ZTIv",
   "source_file" : "external/protobuf/src/google/protobuf/repeated_field.h"
  },
  {
   "function_name" : "google::protobuf::RepeatedField<unsigned long long>::Resize",
   "linker_set_key" : "_ZN6google8protobuf13RepeatedFieldIyE6ResizeEiRKy",
   "parameters" :
   [
    {
     "is_this_ptr" : true,
     "referenced_type" : "_ZTIPN6google8protobuf13RepeatedFieldIyEE"
    },
    {
     "referenced_type" : "_ZTIi"
    },
    {
     "referenced_type" : "_ZTIRKy"
    }
   ],
   "return_type" : "_ZTIv",
   "source_file" : "external/protobuf/src/google/protobuf/repeated_field.h"
  },
  {
   "function_name" : "google::protobuf::RepeatedField<unsigned long long>::Truncate",
   "linker_set_key" : "_ZN6google8protobuf13RepeatedFieldIyE8TruncateEi",
   "parameters" :
   [
    {
     "is_this_ptr" : true,
     "referenced_type" : "_ZTIPN6google8protobuf13RepeatedFieldIyEE"
    },
    {
     "referenced_type" : "_ZTIi"
    }
   ],
   "return_type" : "_ZTIv",
   "source_file" : "external/protobuf/src/google/protobuf/repeated_field.h"
  },
  {
   "function_name" : "google::protobuf::ascii_isalnum",
   "linker_set_key" : "_ZN6google8protobuf13ascii_isalnumEc",
   "parameters" :
   [
    {
     "referenced_type" : "_ZTIc"
    }
   ],
   "return_type" : "_ZTIb",
   "source_file" : "external/protobuf/src/google/protobuf/stubs/strutil.h"
  },
  {
   "function_name" : "google::protobuf::ascii_isdigit",
   "linker_set_key" : "_ZN6google8protobuf13ascii_isdigitEc",
   "parameters" :
   [
    {
     "referenced_type" : "_ZTIc"
    }
   ],
   "return_type" : "_ZTIb",
   "source_file" : "external/protobuf/src/google/protobuf/stubs/strutil.h"
  },
  {
   "function_name" : "google::protobuf::ascii_islower",
   "linker_set_key" : "_ZN6google8protobuf13ascii_islowerEc",
   "parameters" :
   [
    {
     "referenced_type" : "_ZTIc"
    }
   ],
   "return_type" : "_ZTIb",
   "source_file" : "external/protobuf/src/google/protobuf/stubs/strutil.h"
  },
  {
   "function_name" : "google::protobuf::ascii_isspace",
   "linker_set_key" : "_ZN6google8protobuf13ascii_isspaceEc",
   "parameters" :
   [
    {
     "referenced_type" : "_ZTIc"
    }
   ],
   "return_type" : "_ZTIb",
   "source_file" : "external/protobuf/src/google/protobuf/stubs/strutil.h"
  },
  {
   "function_name" : "google::protobuf::ascii_isupper",
   "linker_set_key" : "_ZN6google8protobuf13ascii_isupperEc",
   "parameters" :
   [
    {
     "referenced_type" : "_ZTIc"
    }
   ],
   "return_type" : "_ZTIb",
   "source_file" : "external/protobuf/src/google/protobuf/stubs/strutil.h"
  },
  {
   "function_name" : "google::protobuf::ascii_tolower",
   "linker_set_key" : "_ZN6google8protobuf13ascii_tolowerEc",
   "parameters" :
   [
    {
     "referenced_type" : "_ZTIc"
    }
   ],
   "return_type" : "_ZTIc",
   "source_file" : "external/protobuf/src/google/protobuf/stubs/strutil.h"
  },
  {
   "function_name" : "google::protobuf::ascii_toupper",
   "linker_set_key" : "_ZN6google8protobuf13ascii_toupperEc",
   "parameters" :
   [
    {
     "referenced_type" : "_ZTIc"
    }
   ],
   "return_type" : "_ZTIc",
   "source_file" : "external/protobuf/src/google/protobuf/stubs/strutil.h"
  },
  {
   "function_name" : "google::protobuf::safe_strtou32",
   "linker_set_key" : "_ZN6google8protobuf13safe_strtou32ENS0_11StringPieceEPj",
   "parameters" :
   [
    {
     "referenced_type" : "_ZTIN6google8protobuf11StringPieceE"
    },
    {
     "referenced_type" : "_ZTIPj"
    }
   ],
   "return_type" : "_ZTIb",
   "source_file" : "external/protobuf/src/google/protobuf/stubs/strutil.h"
  },
  {
   "function_name" : "google::protobuf::safe_strtou32",
   "linker_set_key" : "_ZN6google8protobuf13safe_strtou32EPKcPj",
   "parameters" :
   [
    {
     "referenced_type" : "_ZTIPKc"
    },
    {
     "referenced_type" : "_ZTIPj"
    }
   ],
   "return_type" : "_ZTIb",
   "source_file" : "external/protobuf/src/google/protobuf/stubs/strutil.h"
  },
  {
   "function_name" : "google::protobuf::safe_strtou64",
   "linker_set_key" : "_ZN6google8protobuf13safe_strtou64ENS0_11StringPieceEPy",
   "parameters" :
   [
    {
     "referenced_type" : "_ZTIN6google8protobuf11StringPieceE"
    },
    {
     "referenced_type" : "_ZTIPy"
    }
   ],
   "return_type" : "_ZTIb",
   "source_file" : "external/protobuf/src/google/protobuf/stubs/strutil.h"
  },
  {
   "function_name" : "google::protobuf::safe_strtou64",
   "linker_set_key" : "_ZN6google8protobuf13safe_strtou64EPKcPy",
   "parameters" :
   [
    {
     "referenced_type" : "_ZTIPKc"
    },
    {
     "referenced_type" : "_ZTIPy"
    }
   ],
   "return_type" : "_ZTIb",
   "source_file" : "external/protobuf/src/google/protobuf/stubs/strutil.h"
  },
  {
   "function_name" : "google::protobuf::FastIntToBuffer",
   "linker_set_key" : "_ZN6google8protobuf15FastIntToBufferEiPc",
   "parameters" :
   [
    {
     "referenced_type" : "_ZTIi"
    },
    {
     "referenced_type" : "_ZTIPc"
    }
   ],
   "return_type" : "_ZTIPc",
   "source_file" : "external/protobuf/src/google/protobuf/stubs/strutil.h"
  },
  {
   "function_name" : "google::protobuf::HasPrefixString",
   "linker_set_key" : "_ZN6google8protobuf15HasPrefixStringERKNSt3__112basic_stringIcNS1_11char_traitsIcEENS1_9allocatorIcEEEES9_",
   "parameters" :
   [
    {
     "referenced_type" : "_ZTIRKNSt3__112basic_stringIcNS_11char_traitsIcEENS_9allocatorIcEEEE"
    },
    {
     "referenced_type" : "_ZTIRKNSt3__112basic_stringIcNS_11char_traitsIcEENS_9allocatorIcEEEE"
    }
   ],
   "return_type" : "_ZTIb",
   "source_file" : "external/protobuf/src/google/protobuf/stubs/strutil.h"
  },
  {
   "function_name" : "google::protobuf::HasSuffixString",
   "linker_set_key" : "_ZN6google8protobuf15HasSuffixStringERKNSt3__112basic_stringIcNS1_11char_traitsIcEENS1_9allocatorIcEEEES9_",
   "parameters" :
   [
    {
     "referenced_type" : "_ZTIRKNSt3__112basic_stringIcNS_11char_traitsIcEENS_9allocatorIcEEEE"
    },
    {
     "referenced_type" : "_ZTIRKNSt3__112basic_stringIcNS_11char_traitsIcEENS_9allocatorIcEEEE"
    }
   ],
   "return_type" : "_ZTIb",
   "source_file" : "external/protobuf/src/google/protobuf/stubs/strutil.h"
  },
  {
   "function_name" : "google::protobuf::string_as_array",
   "linker_set_key" : "_ZN6google8protobuf15string_as_arrayEPNSt3__112basic_stringIcNS1_11char_traitsIcEENS1_9allocatorIcEEEE",
   "parameters" :
   [
    {
     "referenced_type" : "_ZTIPNSt3__112basic_stringIcNS_11char_traitsIcEENS_9allocatorIcEEEE"
    }
   ],
   "return_type" : "_ZTIPc",
   "source_file" : "external/protobuf/src/google/protobuf/stubs/stl_util.h"
  },
  {
   "function_name" : "google::protobuf::FastLongToBuffer",
   "linker_set_key" : "_ZN6google8protobuf16FastLongToBufferElPc",
   "parameters" :
   [
    {
     "referenced_type" : "_ZTIl"
    },
    {
     "referenced_type" : "_ZTIPc"
    }
   ],
   "return_type" : "_ZTIPc",
   "source_file" : "external/protobuf/src/google/protobuf/stubs/strutil.h"
  },
  {
   "function_name" : "google::protobuf::FastUIntToBuffer",
   "linker_set_key" : "_ZN6google8protobuf16FastUIntToBufferEjPc",
   "parameters" :
   [
    {
     "referenced_type" : "_ZTIj"
    },
    {
     "referenced_type" : "_ZTIPc"
    }
   ],
   "return_type" : "_ZTIPc",
   "source_file" : "external/protobuf/src/google/protobuf/stubs/strutil.h"
  },
  {
   "function_name" : "google::protobuf::IsValidCodePoint",
   "linker_set_key" : "_ZN6google8protobuf16IsValidCodePointEj",
   "parameters" :
   [
    {
     "referenced_type" : "_ZTIj"
    }
   ],
   "return_type" : "_ZTIb",
   "source_file" : "external/protobuf/src/google/protobuf/stubs/strutil.h"
  },
  {
   "function_name" : "google::protobuf::hex_digit_to_int",
   "linker_set_key" : "_ZN6google8protobuf16hex_digit_to_intEc",
   "parameters" :
   [
    {
     "referenced_type" : "_ZTIc"
    }
   ],
   "return_type" : "_ZTIi",
   "source_file" : "external/protobuf/src/google/protobuf/stubs/strutil.h"
  },
  {
   "function_name" : "google::protobuf::FastULongToBuffer",
   "linker_set_key" : "_ZN6google8protobuf17FastULongToBufferEmPc",
   "parameters" :
   [
    {
     "referenced_type" : "_ZTIm"
    },
    {
     "referenced_type" : "_ZTIPc"
    }
   ],
   "return_type" : "_ZTIPc",
   "source_file" : "external/protobuf/src/google/protobuf/stubs/strutil.h"
  },
  {
   "function_name" : "google::protobuf::StripPrefixString",
   "linker_set_key" : "_ZN6google8protobuf17StripPrefixStringERKNSt3__112basic_stringIcNS1_11char_traitsIcEENS1_9allocatorIcEEEES9_",
   "parameters" :
   [
    {
     "referenced_type" : "_ZTIRKNSt3__112basic_stringIcNS_11char_traitsIcEENS_9allocatorIcEEEE"
    },
    {
     "referenced_type" : "_ZTIRKNSt3__112basic_stringIcNS_11char_traitsIcEENS_9allocatorIcEEEE"
    }
   ],
   "return_type" : "_ZTINSt3__112basic_stringIcNS_11char_traitsIcEENS_9allocatorIcEEEE",
   "source_file" : "external/protobuf/src/google/protobuf/stubs/strutil.h"
  },
  {
   "function_name" : "google::protobuf::StripSuffixString",
   "linker_set_key" : "_ZN6google8protobuf17StripSuffixStringERKNSt3__112basic_stringIcNS1_11char_traitsIcEENS1_9allocatorIcEEEES9_",
   "parameters" :
   [
    {
     "referenced_type" : "_ZTIRKNSt3__112basic_stringIcNS_11char_traitsIcEENS_9allocatorIcEEEE"
    },
    {
     "referenced_type" : "_ZTIRKNSt3__112basic_stringIcNS_11char_traitsIcEENS_9allocatorIcEEEE"
    }
   ],
   "return_type" : "_ZTINSt3__112basic_stringIcNS_11char_traitsIcEENS_9allocatorIcEEEE",
   "source_file" : "external/protobuf/src/google/protobuf/stubs/strutil.h"
  },
  {
   "function_name" : "google::protobuf::FastUInt32ToBuffer",
   "linker_set_key" : "_ZN6google8protobuf18FastUInt32ToBufferEjPc",
   "parameters" :
   [
    {
     "referenced_type" : "_ZTIj"
    },
    {
     "referenced_type" : "_ZTIPc"
    }
   ],
   "return_type" : "_ZTIPc",
   "source_file" : "external/protobuf/src/google/protobuf/stubs/strutil.h"
  },
  {
   "function_name" : "google::protobuf::FastUInt64ToBuffer",
   "linker_set_key" : "_ZN6google8protobuf18FastUInt64ToBufferEyPc",
   "parameters" :
   [
    {
     "referenced_type" : "_ZTIy"
    },
    {
     "referenced_type" : "_ZTIPc"
    }
   ],
   "return_type" : "_ZTIPc",
   "source_file" : "external/protobuf/src/google/protobuf/stubs/strutil.h"
  },
  {
   "function_name" : "google::protobuf::NewPermanentCallback",
   "linker_set_key" : "_ZN6google8protobuf20NewPermanentCallbackEPFvvE",
   "parameters" :
   [
    {
     "referenced_type" : "_ZTIPFvvE"
    }
   ],
   "return_type" : "_ZTIPN6google8protobuf7ClosureE",
   "source_file" : "external/protobuf/src/google/protobuf/stubs/callback.h"
  },
  {
   "function_name" : "google::protobuf::GOOGLE_UNALIGNED_LOAD16",
   "linker_set_key" : "_ZN6google8protobuf23GOOGLE_UNALIGNED_LOAD16EPKv",
   "parameters" :
   [
    {
     "referenced_type" : "_ZTIPKv"
    }
   ],
   "return_type" : "_ZTIt",
   "source_file" : "external/protobuf/src/google/protobuf/stubs/port.h"
  },
  {
   "function_name" : "google::protobuf::GOOGLE_UNALIGNED_LOAD32",
   "linker_set_key" : "_ZN6google8protobuf23GOOGLE_UNALIGNED_LOAD32EPKv",
   "parameters" :
   [
    {
     "referenced_type" : "_ZTIPKv"
    }
   ],
   "return_type" : "_ZTIj",
   "source_file" : "external/protobuf/src/google/protobuf/stubs/port.h"
  },
  {
   "function_name" : "google::protobuf::GOOGLE_UNALIGNED_LOAD64",
   "linker_set_key" : "_ZN6google8protobuf23GOOGLE_UNALIGNED_LOAD64EPKv",
   "parameters" :
   [
    {
     "referenced_type" : "_ZTIPKv"
    }
   ],
   "return_type" : "_ZTIy",
   "source_file" : "external/protobuf/src/google/protobuf/stubs/port.h"
  },
  {
   "function_name" : "google::protobuf::GOOGLE_UNALIGNED_STORE16",
   "linker_set_key" : "_ZN6google8protobuf24GOOGLE_UNALIGNED_STORE16EPvt",
   "parameters" :
   [
    {
     "referenced_type" : "_ZTIPv"
    },
    {
     "referenced_type" : "_ZTIt"
    }
   ],
   "return_type" : "_ZTIv",
   "source_file" : "external/protobuf/src/google/protobuf/stubs/port.h"
  },
  {
   "function_name" : "google::protobuf::GOOGLE_UNALIGNED_STORE32",
   "linker_set_key" : "_ZN6google8protobuf24GOOGLE_UNALIGNED_STORE32EPvj",
   "parameters" :
   [
    {
     "referenced_type" : "_ZTIPv"
    },
    {
     "referenced_type" : "_ZTIj"
    }
   ],
   "return_type" : "_ZTIv",
   "source_file" : "external/protobuf/src/google/protobuf/stubs/port.h"
  },
  {
   "function_name" : "google::protobuf::GOOGLE_UNALIGNED_STORE64",
   "linker_set_key" : "_ZN6google8protobuf24GOOGLE_UNALIGNED_STORE64EPvy",
   "parameters" :
   [
    {
     "referenced_type" : "_ZTIPv"
    },
    {
     "referenced_type" : "_ZTIy"
    }
   ],
   "return_type" : "_ZTIv",
   "source_file" : "external/protobuf/src/google/protobuf/stubs/port.h"
  },
  {
   "function_name" : "google::protobuf::STLStringResizeUninitialized",
   "linker_set_key" : "_ZN6google8protobuf28STLStringResizeUninitializedEPNSt3__112basic_stringIcNS1_11char_traitsIcEENS1_9allocatorIcEEEEj",
   "parameters" :
   [
    {
     "referenced_type" : "_ZTIPNSt3__112basic_stringIcNS_11char_traitsIcEENS_9allocatorIcEEEE"
    },
    {
     "referenced_type" : "_ZTIj"
    }
   ],
   "return_type" : "_ZTIv",
   "source_file" : "external/protobuf/src/google/protobuf/stubs/stl_util.h"
  },
  {
   "function_name" : "google::protobuf::io::as_string_data",
   "linker_set_key" : "_ZN6google8protobuf2io14as_string_dataEPNSt3__112basic_stringIcNS2_11char_traitsIcEENS2_9allocatorIcEEEE",
   "parameters" :
   [
    {
     "referenced_type" : "_ZTIPNSt3__112basic_stringIcNS_11char_traitsIcEENS_9allocatorIcEEEE"
    }
   ],
   "return_type" : "_ZTINSt3__14pairIPcbEE",
   "source_file" : "external/protobuf/src/google/protobuf/io/zero_copy_stream_impl_lite.h"
  },
  {
   "function_name" : "google::protobuf::io::ArrayInputStream::~ArrayInputStream",
   "linker_set_key" : "_ZN6google8protobuf2io16ArrayInputStreamD0Ev",
   "parameters" :
   [
    {
     "is_this_ptr" : true,
     "referenced_type" : "_ZTIPN6google8protobuf2io16ArrayInputStreamE"
    }
   ],
   "return_type" : "_ZTIv",
   "source_file" : "external/protobuf/src/google/protobuf/io/zero_copy_stream_impl_lite.h"
  },
  {
   "function_name" : "google::protobuf::io::ArrayInputStream::~ArrayInputStream",
   "linker_set_key" : "_ZN6google8protobuf2io16ArrayInputStreamD1Ev",
   "parameters" :
   [
    {
     "is_this_ptr" : true,
     "referenced_type" : "_ZTIPN6google8protobuf2io16ArrayInputStreamE"
    }
   ],
   "return_type" : "_ZTIv",
   "source_file" : "external/protobuf/src/google/protobuf/io/zero_copy_stream_impl_lite.h"
  },
  {
   "function_name" : "google::protobuf::io::ArrayInputStream::~ArrayInputStream",
   "linker_set_key" : "_ZN6google8protobuf2io16ArrayInputStreamD2Ev",
   "parameters" :
   [
    {
     "is_this_ptr" : true,
     "referenced_type" : "_ZTIPN6google8protobuf2io16ArrayInputStreamE"
    }
   ],
   "return_type" : "_ZTIv",
   "source_file" : "external/protobuf/src/google/protobuf/io/zero_copy_stream_impl_lite.h"
  },
  {
   "function_name" : "google::protobuf::io::CodedInputStream::LastTagWas",
   "linker_set_key" : "_ZN6google8protobuf2io16CodedInputStream10LastTagWasEj",
   "parameters" :
   [
    {
     "is_this_ptr" : true,
     "referenced_type" : "_ZTIPN6google8protobuf2io16CodedInputStreamE"
    },
    {
     "referenced_type" : "_ZTIj"
    }
   ],
   "return_type" : "_ZTIb",
   "source_file" : "external/protobuf/src/google/protobuf/io/coded_stream.h"
  },
  {
   "function_name" : "google::protobuf::io::CodedInputStream::SetLastTag",
   "linker_set_key" : "_ZN6google8protobuf2io16CodedInputStream10SetLastTagEj",
   "parameters" :
   [
    {
     "is_this_ptr" : true,
     "referenced_type" : "_ZTIPN6google8protobuf2io16CodedInputStreamE"
    },
    {
     "referenced_type" : "_ZTIj"
    }
   ],
   "return_type" : "_ZTIv",
   "source_file" : "external/protobuf/src/google/protobuf/io/coded_stream.h"
  },
  {
   "function_name" : "google::protobuf::io::CodedInputStream::ExpectAtEnd",
   "linker_set_key" : "_ZN6google8protobuf2io16CodedInputStream11ExpectAtEndEv",
   "parameters" :
   [
    {
     "is_this_ptr" : true,
     "referenced_type" : "_ZTIPN6google8protobuf2io16CodedInputStreamE"
    }
   ],
   "return_type" : "_ZTIb",
   "source_file" : "external/protobuf/src/google/protobuf/io/coded_stream.h"
  },
  {
   "function_name" : "google::protobuf::io::CodedInputStream::SetConsumed",
   "linker_set_key" : "_ZN6google8protobuf2io16CodedInputStream11SetConsumedEv",
   "parameters" :
   [
    {
     "is_this_ptr" : true,
     "referenced_type" : "_ZTIPN6google8protobuf2io16CodedInputStreamE"
    }
   ],
   "return_type" : "_ZTIv",
   "source_file" : "external/protobuf/src/google/protobuf/io/coded_stream.h"
  },
  {
   "function_name" : "google::protobuf::io::CodedInputStream::ReadVarint32",
   "linker_set_key" : "_ZN6google8protobuf2io16CodedInputStream12ReadVarint32EPj",
   "parameters" :
   [
    {
     "is_this_ptr" : true,
     "referenced_type" : "_ZTIPN6google8protobuf2io16CodedInputStreamE"
    },
    {
     "referenced_type" : "_ZTIPj"
    }
   ],
   "return_type" : "_ZTIb",
   "source_file" : "external/protobuf/src/google/protobuf/io/coded_stream.h"
  },
  {
   "function_name" : "google::protobuf::io::CodedInputStream::ReadVarint64",
   "linker_set_key" : "_ZN6google8protobuf2io16CodedInputStream12ReadVarint64EPy",
   "parameters" :
   [
    {
     "is_this_ptr" : true,
     "referenced_type" : "_ZTIPN6google8protobuf2io16CodedInputStreamE"
    },
    {
     "referenced_type" : "_ZTIPy"
    }
   ],
   "return_type" : "_ZTIb",
   "source_file" : "external/protobuf/src/google/protobuf/io/coded_stream.h"
  },
  {
   "function_name" : "google::protobuf::io::CodedInputStream::RecursionBudget",
   "linker_set_key" : "_ZN6google8protobuf2io16CodedInputStream15RecursionBudgetEv",
   "parameters" :
   [
    {
     "is_this_ptr" : true,
     "referenced_type" : "_ZTIPN6google8protobuf2io16CodedInputStreamE"
    }
   ],
   "return_type" : "_ZTIi",
   "source_file" : "external/protobuf/src/google/protobuf/io/coded_stream.h"
  },
  {
   "function_name" : "google::protobuf::io::CodedInputStream::GetExtensionPool",
   "linker_set_key" : "_ZN6google8protobuf2io16CodedInputStream16GetExtensionPoolEv",
   "parameters" :
   [
    {
     "is_this_ptr" : true,
     "referenced_type" : "_ZTIPN6google8protobuf2io16CodedInputStreamE"
    }
   ],
   "return_type" : "_ZTIPKN6google8protobuf14DescriptorPoolE",
   "source_file" : "external/protobuf/src/google/protobuf/io/coded_stream.h"
  },
  {
   "function_name" : "google::protobuf::io::CodedInputStream::ReadTagNoLastTag",
   "linker_set_key" : "_ZN6google8protobuf2io16CodedInputStream16ReadTagNoLastTagEv",
   "parameters" :
   [
    {
     "is_this_ptr" : true,
     "referenced_type" : "_ZTIPN6google8protobuf2io16CodedInputStreamE"
    }
   ],
   "return_type" : "_ZTIj",
   "source_file" : "external/protobuf/src/google/protobuf/io/coded_stream.h"
  },
  {
   "function_name" : "google::protobuf::io::CodedInputStream::ReadTagWithCutoff",
   "linker_set_key" : "_ZN6google8protobuf2io16CodedInputStream17ReadTagWithCutoffEj",
   "parameters" :
   [
    {
     "is_this_ptr" : true,
     "referenced_type" : "_ZTIPN6google8protobuf2io16CodedInputStreamE"
    },
    {
     "referenced_type" : "_ZTIj"
    }
   ],
   "return_type" : "_ZTINSt3__14pairIjbEE",
   "source_file" : "external/protobuf/src/google/protobuf/io/coded_stream.h"
  },
  {
   "function_name" : "google::protobuf::io::CodedInputStream::SetRecursionLimit",
   "linker_set_key" : "_ZN6google8protobuf2io16CodedInputStream17SetRecursionLimitEi",
   "parameters" :
   [
    {
     "is_this_ptr" : true,
     "referenced_type" : "_ZTIPN6google8protobuf2io16CodedInputStreamE"
    },
    {
     "referenced_type" : "_ZTIi"
    }
   ],
   "return_type" : "_ZTIv",
   "source_file" : "external/protobuf/src/google/protobuf/io/coded_stream.h"
  },
  {
   "function_name" : "google::protobuf::io::CodedInputStream::ExpectTagFromArray",
   "linker_set_key" : "_ZN6google8protobuf2io16CodedInputStream18ExpectTagFromArrayEPKhj",
   "parameters" :
   [
    {
     "referenced_type" : "_ZTIPKh"
    },
    {
     "referenced_type" : "_ZTIj"
    }
   ],
   "return_type" : "_ZTIPKh",
   "source_file" : "external/protobuf/src/google/protobuf/io/coded_stream.h"
  },
  {
   "function_name" : "google::protobuf::io::CodedInputStream::ReadLittleEndian32",
   "linker_set_key" : "_ZN6google8protobuf2io16CodedInputStream18ReadLittleEndian32EPj",
   "parameters" :
   [
    {
     "is_this_ptr" : true,
     "referenced_type" : "_ZTIPN6google8protobuf2io16CodedInputStreamE"
    },
    {
     "referenced_type" : "_ZTIPj"
    }
   ],
   "return_type" : "_ZTIb",
   "source_file" : "external/protobuf/src/google/protobuf/io/coded_stream.h"
  },
  {
   "function_name" : "google::protobuf::io::CodedInputStream::ReadLittleEndian64",
   "linker_set_key" : "_ZN6google8protobuf2io16CodedInputStream18ReadLittleEndian64EPy",
   "parameters" :
   [
    {
     "is_this_ptr" : true,
     "referenced_type" : "_ZTIPN6google8protobuf2io16CodedInputStreamE"
    },
    {
     "referenced_type" : "_ZTIPy"
    }
   ],
   "return_type" : "_ZTIb",
   "source_file" : "external/protobuf/src/google/protobuf/io/coded_stream.h"
  },
  {
   "function_name" : "google::protobuf::io::CodedInputStream::SetTotalBytesLimit",
   "linker_set_key" : "_ZN6google8protobuf2io16CodedInputStream18SetTotalBytesLimitEii",
   "parameters" :
   [
    {
     "is_this_ptr" : true,
     "referenced_type" : "_ZTIPN6google8protobuf2io16CodedInputStreamE"
    },
    {
     "referenced_type" : "_ZTIi"
    },
    {
     "referenced_type" : "_ZTIi"
    }
   ],
   "return_type" : "_ZTIv",
   "source_file" : "external/protobuf/src/google/protobuf/io/coded_stream.h"
  },
  {
   "function_name" : "google::protobuf::io::CodedInputStream::GetExtensionFactory",
   "linker_set_key" : "_ZN6google8protobuf2io16CodedInputStream19GetExtensionFactoryEv",
   "parameters" :
   [
    {
     "is_this_ptr" : true,
     "referenced_type" : "_ZTIPN6google8protobuf2io16CodedInputStreamE"
    }
   ],
   "return_type" : "_ZTIPN6google8protobuf14MessageFactoryE",
   "source_file" : "external/protobuf/src/google/protobuf/io/coded_stream.h"
  },
  {
   "function_name" : "google::protobuf::io::CodedInputStream::ReadVarintSizeAsInt",
   "linker_set_key" : "_ZN6google8protobuf2io16CodedInputStream19ReadVarintSizeAsIntEPi",
   "parameters" :
   [
    {
     "is_this_ptr" : true,
     "referenced_type" : "_ZTIPN6google8protobuf2io16CodedInputStreamE"
    },
    {
     "referenced_type" : "_ZTIPi"
    }
   ],
   "return_type" : "_ZTIb",
   "source_file" : "external/protobuf/src/google/protobuf/io/coded_stream.h"
  },
  {
   "function_name" : "google::protobuf::io::CodedInputStream::SetExtensionRegistry",
   "linker_set_key" : "_ZN6google8protobuf2io16CodedInputStream20SetExtensionRegistryEPKNS0_14DescriptorPoolEPNS0_14MessageFactoryE",
   "parameters" :
   [
    {
     "is_this_ptr" : true,
     "referenced_type" : "_ZTIPN6google8protobuf2io16CodedInputStreamE"
    },
    {
     "referenced_type" : "_ZTIPKN6google8protobuf14DescriptorPoolE"
    },
    {
     "referenced_type" : "_ZTIPN6google8protobuf14MessageFactoryE"
    }
   ],
   "return_type" : "_ZTIv",
   "source_file" : "external/protobuf/src/google/protobuf/io/coded_stream.h"
  },
  {
   "function_name" : "google::protobuf::io::CodedInputStream::ConsumedEntireMessage",
   "linker_set_key" : "_ZN6google8protobuf2io16CodedInputStream21ConsumedEntireMessageEv",
   "parameters" :
   [
    {
     "is_this_ptr" : true,
     "referenced_type" : "_ZTIPN6google8protobuf2io16CodedInputStreamE"
    }
   ],
   "return_type" : "_ZTIb",
   "source_file" : "external/protobuf/src/google/protobuf/io/coded_stream.h"
  },
  {
   "function_name" : "google::protobuf::io::CodedInputStream::DecrementRecursionDepth",
   "linker_set_key" : "_ZN6google8protobuf2io16CodedInputStream23DecrementRecursionDepthEv",
   "parameters" :
   [
    {
     "is_this_ptr" : true,
     "referenced_type" : "_ZTIPN6google8protobuf2io16CodedInputStreamE"
    }
   ],
   "return_type" : "_ZTIv",
   "source_file" : "external/protobuf/src/google/protobuf/io/coded_stream.h"
  },
  {
   "function_name" : "google::protobuf::io::CodedInputStream::IncrementRecursionDepth",
   "linker_set_key" : "_ZN6google8protobuf2io16CodedInputStream23IncrementRecursionDepthEv",
   "parameters" :
   [
    {
     "is_this_ptr" : true,
     "referenced_type" : "_ZTIPN6google8protobuf2io16CodedInputStreamE"
    }
   ],
   "return_type" : "_ZTIb",
   "source_file" : "external/protobuf/src/google/protobuf/io/coded_stream.h"
  },
  {
   "function_name" : "google::protobuf::io::CodedInputStream::GetDefaultRecursionLimit",
   "linker_set_key" : "_ZN6google8protobuf2io16CodedInputStream24GetDefaultRecursionLimitEv",
   "return_type" : "_ZTIi",
   "source_file" : "external/protobuf/src/google/protobuf/io/coded_stream.h"
  },
  {
   "function_name" : "google::protobuf::io::CodedInputStream::ReadTagWithCutoffNoLastTag",
   "linker_set_key" : "_ZN6google8protobuf2io16CodedInputStream26ReadTagWithCutoffNoLastTagEj",
   "parameters" :
   [
    {
     "is_this_ptr" : true,
     "referenced_type" : "_ZTIPN6google8protobuf2io16CodedInputStreamE"
    },
    {
     "referenced_type" : "_ZTIj"
    }
   ],
   "return_type" : "_ZTINSt3__14pairIjbEE",
   "source_file" : "external/protobuf/src/google/protobuf/io/coded_stream.h"
  },
  {
   "function_name" : "google::protobuf::io::CodedInputStream::ReadLittleEndian32FromArray",
   "linker_set_key" : "_ZN6google8protobuf2io16CodedInputStream27ReadLittleEndian32FromArrayEPKhPj",
   "parameters" :
   [
    {
     "referenced_type" : "_ZTIPKh"
    },
    {
     "referenced_type" : "_ZTIPj"
    }
   ],
   "return_type" : "_ZTIPKh",
   "source_file" : "external/protobuf/src/google/protobuf/io/coded_stream.h"
  },
  {
   "function_name" : "google::protobuf::io::CodedInputStream::ReadLittleEndian64FromArray",
   "linker_set_key" : "_ZN6google8protobuf2io16CodedInputStream27ReadLittleEndian64FromArrayEPKhPy",
   "parameters" :
   [
    {
     "referenced_type" : "_ZTIPKh"
    },
    {
     "referenced_type" : "_ZTIPy"
    }
   ],
   "return_type" : "_ZTIPKh",
   "source_file" : "external/protobuf/src/google/protobuf/io/coded_stream.h"
  },
  {
   "function_name" : "google::protobuf::io::CodedInputStream::GetDirectBufferPointerInline",
   "linker_set_key" : "_ZN6google8protobuf2io16CodedInputStream28GetDirectBufferPointerInlineEPPKvPi",
   "parameters" :
   [
    {
     "is_this_ptr" : true,
     "referenced_type" : "_ZTIPN6google8protobuf2io16CodedInputStreamE"
    },
    {
     "referenced_type" : "_ZTIPPKv"
    },
    {
     "referenced_type" : "_ZTIPi"
    }
   ],
   "return_type" : "_ZTIv",
   "source_file" : "external/protobuf/src/google/protobuf/io/coded_stream.h"
  },
  {
   "function_name" : "google::protobuf::io::CodedInputStream::UnsafeDecrementRecursionDepth",
   "linker_set_key" : "_ZN6google8protobuf2io16CodedInputStream29UnsafeDecrementRecursionDepthEv",
   "parameters" :
   [
    {
     "is_this_ptr" : true,
     "referenced_type" : "_ZTIPN6google8protobuf2io16CodedInputStreamE"
    }
   ],
   "return_type" : "_ZTIv",
   "source_file" : "external/protobuf/src/google/protobuf/io/coded_stream.h"
  },
  {
   "function_name" : "google::protobuf::io::CodedInputStream::Skip",
   "linker_set_key" : "_ZN6google8protobuf2io16CodedInputStream4SkipEi",
   "parameters" :
   [
    {
     "is_this_ptr" : true,
     "referenced_type" : "_ZTIPN6google8protobuf2io16CodedInputStreamE"
    },
    {
     "referenced_type" : "_ZTIi"
    }
   ],
   "return_type" : "_ZTIb",
   "source_file" : "external/protobuf/src/google/protobuf/io/coded_stream.h"
  },
  {
   "access" : "private",
   "function_name" : "google::protobuf::io::CodedInputStream::Advance",
   "linker_set_key" : "_ZN6google8protobuf2io16CodedInputStream7AdvanceEi",
   "parameters" :
   [
    {
     "is_this_ptr" : true,
     "referenced_type" : "_ZTIPN6google8protobuf2io16CodedInputStreamE"
    },
    {
     "referenced_type" : "_ZTIi"
    }
   ],
   "return_type" : "_ZTIv",
   "source_file" : "external/protobuf/src/google/protobuf/io/coded_stream.h"
  },
  {
   "function_name" : "google::protobuf::io::CodedInputStream::ReadTag",
   "linker_set_key" : "_ZN6google8protobuf2io16CodedInputStream7ReadTagEv",
   "parameters" :
   [
    {
     "is_this_ptr" : true,
     "referenced_type" : "_ZTIPN6google8protobuf2io16CodedInputStreamE"
    }
   ],
   "return_type" : "_ZTIj",
   "source_file" : "external/protobuf/src/google/protobuf/io/coded_stream.h"
  },
  {
   "function_name" : "google::protobuf::io::CodedInputStream::ExpectTag",
   "linker_set_key" : "_ZN6google8protobuf2io16CodedInputStream9ExpectTagEj",
   "parameters" :
   [
    {
     "is_this_ptr" : true,
     "referenced_type" : "_ZTIPN6google8protobuf2io16CodedInputStreamE"
    },
    {
     "referenced_type" : "_ZTIj"
    }
   ],
   "return_type" : "_ZTIb",
   "source_file" : "external/protobuf/src/google/protobuf/io/coded_stream.h"
  },
  {
   "function_name" : "google::protobuf::io::CodedInputStream::CodedInputStream",
   "linker_set_key" : "_ZN6google8protobuf2io16CodedInputStreamC1EPKhi",
   "parameters" :
   [
    {
     "is_this_ptr" : true,
     "referenced_type" : "_ZTIPN6google8protobuf2io16CodedInputStreamE"
    },
    {
     "referenced_type" : "_ZTIPKh"
    },
    {
     "referenced_type" : "_ZTIi"
    }
   ],
   "return_type" : "_ZTIv",
   "source_file" : "external/protobuf/src/google/protobuf/io/coded_stream.h"
  },
  {
   "function_name" : "google::protobuf::io::CodedInputStream::CodedInputStream",
   "linker_set_key" : "_ZN6google8protobuf2io16CodedInputStreamC1EPNS1_19ZeroCopyInputStreamE",
   "parameters" :
   [
    {
     "is_this_ptr" : true,
     "referenced_type" : "_ZTIPN6google8protobuf2io16CodedInputStreamE"
    },
    {
     "referenced_type" : "_ZTIPN6google8protobuf2io19ZeroCopyInputStreamE"
    }
   ],
   "return_type" : "_ZTIv",
   "source_file" : "external/protobuf/src/google/protobuf/io/coded_stream.h"
  },
  {
   "function_name" : "google::protobuf::io::CodedInputStream::CodedInputStream",
   "linker_set_key" : "_ZN6google8protobuf2io16CodedInputStreamC2EPKhi",
   "parameters" :
   [
    {
     "is_this_ptr" : true,
     "referenced_type" : "_ZTIPN6google8protobuf2io16CodedInputStreamE"
    },
    {
     "referenced_type" : "_ZTIPKh"
    },
    {
     "referenced_type" : "_ZTIi"
    }
   ],
   "return_type" : "_ZTIv",
   "source_file" : "external/protobuf/src/google/protobuf/io/coded_stream.h"
  },
  {
   "function_name" : "google::protobuf::io::CodedInputStream::CodedInputStream",
   "linker_set_key" : "_ZN6google8protobuf2io16CodedInputStreamC2EPNS1_19ZeroCopyInputStreamE",
   "parameters" :
   [
    {
     "is_this_ptr" : true,
     "referenced_type" : "_ZTIPN6google8protobuf2io16CodedInputStreamE"
    },
    {
     "referenced_type" : "_ZTIPN6google8protobuf2io19ZeroCopyInputStreamE"
    }
   ],
   "return_type" : "_ZTIv",
   "source_file" : "external/protobuf/src/google/protobuf/io/coded_stream.h"
  },
  {
   "function_name" : "google::protobuf::io::ArrayOutputStream::~ArrayOutputStream",
   "linker_set_key" : "_ZN6google8protobuf2io17ArrayOutputStreamD0Ev",
   "parameters" :
   [
    {
     "is_this_ptr" : true,
     "referenced_type" : "_ZTIPN6google8protobuf2io17ArrayOutputStreamE"
    }
   ],
   "return_type" : "_ZTIv",
   "source_file" : "external/protobuf/src/google/protobuf/io/zero_copy_stream_impl_lite.h"
  },
  {
   "function_name" : "google::protobuf::io::ArrayOutputStream::~ArrayOutputStream",
   "linker_set_key" : "_ZN6google8protobuf2io17ArrayOutputStreamD1Ev",
   "parameters" :
   [
    {
     "is_this_ptr" : true,
     "referenced_type" : "_ZTIPN6google8protobuf2io17ArrayOutputStreamE"
    }
   ],
   "return_type" : "_ZTIv",
   "source_file" : "external/protobuf/src/google/protobuf/io/zero_copy_stream_impl_lite.h"
  },
  {
   "function_name" : "google::protobuf::io::ArrayOutputStream::~ArrayOutputStream",
   "linker_set_key" : "_ZN6google8protobuf2io17ArrayOutputStreamD2Ev",
   "parameters" :
   [
    {
     "is_this_ptr" : true,
     "referenced_type" : "_ZTIPN6google8protobuf2io17ArrayOutputStreamE"
    }
   ],
   "return_type" : "_ZTIv",
   "source_file" : "external/protobuf/src/google/protobuf/io/zero_copy_stream_impl_lite.h"
  },
  {
   "function_name" : "google::protobuf::io::CodedOutputStream::WriteString",
   "linker_set_key" : "_ZN6google8protobuf2io17CodedOutputStream11WriteStringERKNSt3__112basic_stringIcNS3_11char_traitsIcEENS3_9allocatorIcEEEE",
   "parameters" :
   [
    {
     "is_this_ptr" : true,
     "referenced_type" : "_ZTIPN6google8protobuf2io17CodedOutputStreamE"
    },
    {
     "referenced_type" : "_ZTIRKNSt3__112basic_stringIcNS_11char_traitsIcEENS_9allocatorIcEEEE"
    }
   ],
   "return_type" : "_ZTIv",
   "source_file" : "external/protobuf/src/google/protobuf/io/coded_stream.h"
  },
  {
   "function_name" : "google::protobuf::io::CodedOutputStream::VarintSize32",
   "linker_set_key" : "_ZN6google8protobuf2io17CodedOutputStream12VarintSize32Ej",
   "parameters" :
   [
    {
     "referenced_type" : "_ZTIj"
    }
   ],
   "return_type" : "_ZTIj",
   "source_file" : "external/protobuf/src/google/protobuf/io/coded_stream.h"
  },
  {
   "function_name" : "google::protobuf::io::CodedOutputStream::VarintSize64",
   "linker_set_key" : "_ZN6google8protobuf2io17CodedOutputStream12VarintSize64Ey",
   "parameters" :
   [
    {
     "referenced_type" : "_ZTIy"
    }
   ],
   "return_type" : "_ZTIj",
   "source_file" : "external/protobuf/src/google/protobuf/io/coded_stream.h"
  },
  {
   "function_name" : "google::protobuf::io::CodedOutputStream::WriteVarint32",
   "linker_set_key" : "_ZN6google8protobuf2io17CodedOutputStream13WriteVarint32Ej",
   "parameters" :
   [
    {
     "is_this_ptr" : true,
     "referenced_type" : "_ZTIPN6google8protobuf2io17CodedOutputStreamE"
    },
    {
     "referenced_type" : "_ZTIj"
    }
   ],
   "return_type" : "_ZTIv",
   "source_file" : "external/protobuf/src/google/protobuf/io/coded_stream.h"
  },
  {
   "function_name" : "google::protobuf::io::CodedOutputStream::WriteVarint64",
   "linker_set_key" : "_ZN6google8protobuf2io17CodedOutputStream13WriteVarint64Ey",
   "parameters" :
   [
    {
     "is_this_ptr" : true,
     "referenced_type" : "_ZTIPN6google8protobuf2io17CodedOutputStreamE"
    },
    {
     "referenced_type" : "_ZTIy"
    }
   ],
   "return_type" : "_ZTIv",
   "source_file" : "external/protobuf/src/google/protobuf/io/coded_stream.h"
  },
  {
   "function_name" : "google::protobuf::io::CodedOutputStream::WriteTagToArray",
   "linker_set_key" : "_ZN6google8protobuf2io17CodedOutputStream15WriteTagToArrayEjPh",
   "parameters" :
   [
    {
     "referenced_type" : "_ZTIj"
    },
    {
     "referenced_type" : "_ZTIPh"
    }
   ],
   "return_type" : "_ZTIPh",
   "source_file" : "external/protobuf/src/google/protobuf/io/coded_stream.h"
  },
  {
   "function_name" : "google::protobuf::io::CodedOutputStream::WriteStringToArray",
   "linker_set_key" : "_ZN6google8protobuf2io17CodedOutputStream18WriteStringToArrayERKNSt3__112basic_stringIcNS3_11char_traitsIcEENS3_9allocatorIcEEEEPh",
   "parameters" :
   [
    {
     "referenced_type" : "_ZTIRKNSt3__112basic_stringIcNS_11char_traitsIcEENS_9allocatorIcEEEE"
    },
    {
     "referenced_type" : "_ZTIPh"
    }
   ],
   "return_type" : "_ZTIPh",
   "source_file" : "external/protobuf/src/google/protobuf/io/coded_stream.h"
  },
  {
   "function_name" : "google::protobuf::io::CodedOutputStream::WriteRawMaybeAliased",
   "linker_set_key" : "_ZN6google8protobuf2io17CodedOutputStream20WriteRawMaybeAliasedEPKvi",
   "parameters" :
   [
    {
     "is_this_ptr" : true,
     "referenced_type" : "_ZTIPN6google8protobuf2io17CodedOutputStreamE"
    },
    {
     "referenced_type" : "_ZTIPKv"
    },
    {
     "referenced_type" : "_ZTIi"
    }
   ],
   "return_type" : "_ZTIv",
   "source_file" : "external/protobuf/src/google/protobuf/io/coded_stream.h"
  },
  {
   "function_name" : "google::protobuf::io::CodedOutputStream::WriteVarint32ToArray",
   "linker_set_key" : "_ZN6google8protobuf2io17CodedOutputStream20WriteVarint32ToArrayEjPh",
   "parameters" :
   [
    {
     "referenced_type" : "_ZTIj"
    },
    {
     "referenced_type" : "_ZTIPh"
    }
   ],
   "return_type" : "_ZTIPh",
   "source_file" : "external/protobuf/src/google/protobuf/io/coded_stream.h"
  },
  {
   "function_name" : "google::protobuf::io::CodedOutputStream::WriteVarint64ToArray",
   "linker_set_key" : "_ZN6google8protobuf2io17CodedOutputStream20WriteVarint64ToArrayEyPh",
   "parameters" :
   [
    {
     "referenced_type" : "_ZTIy"
    },
    {
     "referenced_type" : "_ZTIPh"
    }
   ],
   "return_type" : "_ZTIPh",
   "source_file" : "external/protobuf/src/google/protobuf/io/coded_stream.h"
  },
  {
   "function_name" : "google::protobuf::io::CodedOutputStream::VarintSize32SignExtended",
   "linker_set_key" : "_ZN6google8protobuf2io17CodedOutputStream24VarintSize32SignExtendedEi",
   "parameters" :
   [
    {
     "referenced_type" : "_ZTIi"
    }
   ],
   "return_type" : "_ZTIj",
   "source_file" : "external/protobuf/src/google/protobuf/io/coded_stream.h"
  },
  {
   "function_name" : "google::protobuf::io::CodedOutputStream::WriteVarint32SignExtended",
   "linker_set_key" : "_ZN6google8protobuf2io17CodedOutputStream25WriteVarint32SignExtendedEi",
   "parameters" :
   [
    {
     "is_this_ptr" : true,
     "referenced_type" : "_ZTIPN6google8protobuf2io17CodedOutputStreamE"
    },
    {
     "referenced_type" : "_ZTIi"
    }
   ],
   "return_type" : "_ZTIv",
   "source_file" : "external/protobuf/src/google/protobuf/io/coded_stream.h"
  },
  {
   "function_name" : "google::protobuf::io::CodedOutputStream::WriteLittleEndian32ToArray",
   "linker_set_key" : "_ZN6google8protobuf2io17CodedOutputStream26WriteLittleEndian32ToArrayEjPh",
   "parameters" :
   [
    {
     "referenced_type" : "_ZTIj"
    },
    {
     "referenced_type" : "_ZTIPh"
    }
   ],
   "return_type" : "_ZTIPh",
   "source_file" : "external/protobuf/src/google/protobuf/io/coded_stream.h"
  },
  {
   "function_name" : "google::protobuf::io::CodedOutputStream::WriteLittleEndian64ToArray",
   "linker_set_key" : "_ZN6google8protobuf2io17CodedOutputStream26WriteLittleEndian64ToArrayEyPh",
   "parameters" :
   [
    {
     "referenced_type" : "_ZTIy"
    },
    {
     "referenced_type" : "_ZTIPh"
    }
   ],
   "return_type" : "_ZTIPh",
   "source_file" : "external/protobuf/src/google/protobuf/io/coded_stream.h"
  },
  {
   "function_name" : "google::protobuf::io::CodedOutputStream::SetSerializationDeterministic",
   "linker_set_key" : "_ZN6google8protobuf2io17CodedOutputStream29SetSerializationDeterministicEb",
   "parameters" :
   [
    {
     "is_this_ptr" : true,
     "referenced_type" : "_ZTIPN6google8protobuf2io17CodedOutputStreamE"
    },
    {
     "referenced_type" : "_ZTIb"
    }
   ],
   "return_type" : "_ZTIv",
   "source_file" : "external/protobuf/src/google/protobuf/io/coded_stream.h"
  },
  {
   "function_name" : "google::protobuf::io::CodedOutputStream::WriteVarint32SignExtendedToArray",
   "linker_set_key" : "_ZN6google8protobuf2io17CodedOutputStream32WriteVarint32SignExtendedToArrayEiPh",
   "parameters" :
   [
    {
     "referenced_type" : "_ZTIi"
    },
    {
     "referenced_type" : "_ZTIPh"
    }
   ],
   "return_type" : "_ZTIPh",
   "source_file" : "external/protobuf/src/google/protobuf/io/coded_stream.h"
  },
  {
   "function_name" : "google::protobuf::io::CodedOutputStream::GetDirectBufferForNBytesAndAdvance",
   "linker_set_key" : "_ZN6google8protobuf2io17CodedOutputStream34GetDirectBufferForNBytesAndAdvanceEi",
   "parameters" :
   [
    {
     "is_this_ptr" : true,
     "referenced_type" : "_ZTIPN6google8protobuf2io17CodedOutputStreamE"
    },
    {
     "referenced_type" : "_ZTIi"
    }
   ],
   "return_type" : "_ZTIPh",
   "source_file" : "external/protobuf/src/google/protobuf/io/coded_stream.h"
  },
  {
   "function_name" : "google::protobuf::io::CodedOutputStream::IsDefaultSerializationDeterministic",
   "linker_set_key" : "_ZN6google8protobuf2io17CodedOutputStream35IsDefaultSerializationDeterministicEv",
   "return_type" : "_ZTIb",
   "source_file" : "external/protobuf/src/google/protobuf/io/coded_stream.h"
  },
  {
   "access" : "private",
   "function_name" : "google::protobuf::io::CodedOutputStream::SetDefaultSerializationDeterministic",
   "linker_set_key" : "_ZN6google8protobuf2io17CodedOutputStream36SetDefaultSerializationDeterministicEv",
   "return_type" : "_ZTIv",
   "source_file" : "external/protobuf/src/google/protobuf/io/coded_stream.h"
  },
  {
   "access" : "private",
   "function_name" : "google::protobuf::io::CodedOutputStream::Advance",
   "linker_set_key" : "_ZN6google8protobuf2io17CodedOutputStream7AdvanceEi",
   "parameters" :
   [
    {
     "is_this_ptr" : true,
     "referenced_type" : "_ZTIPN6google8protobuf2io17CodedOutputStreamE"
    },
    {
     "referenced_type" : "_ZTIi"
    }
   ],
   "return_type" : "_ZTIv",
   "source_file" : "external/protobuf/src/google/protobuf/io/coded_stream.h"
  },
  {
   "function_name" : "google::protobuf::io::CodedOutputStream::WriteTag",
   "linker_set_key" : "_ZN6google8protobuf2io17CodedOutputStream8WriteTagEj",
   "parameters" :
   [
    {
     "is_this_ptr" : true,
     "referenced_type" : "_ZTIPN6google8protobuf2io17CodedOutputStreamE"
    },
    {
     "referenced_type" : "_ZTIj"
    }
   ],
   "return_type" : "_ZTIv",
   "source_file" : "external/protobuf/src/google/protobuf/io/coded_stream.h"
  },
  {
   "function_name" : "google::protobuf::io::CopyingInputStream::~CopyingInputStream",
   "linker_set_key" : "_ZN6google8protobuf2io18CopyingInputStreamD0Ev",
   "parameters" :
   [
    {
     "is_this_ptr" : true,
     "referenced_type" : "_ZTIPN6google8protobuf2io18CopyingInputStreamE"
    }
   ],
   "return_type" : "_ZTIv",
   "source_file" : "external/protobuf/src/google/protobuf/io/zero_copy_stream_impl_lite.h"
  },
  {
   "function_name" : "google::protobuf::io::CopyingInputStream::~CopyingInputStream",
   "linker_set_key" : "_ZN6google8protobuf2io18CopyingInputStreamD1Ev",
   "parameters" :
   [
    {
     "is_this_ptr" : true,
     "referenced_type" : "_ZTIPN6google8protobuf2io18CopyingInputStreamE"
    }
   ],
   "return_type" : "_ZTIv",
   "source_file" : "external/protobuf/src/google/protobuf/io/zero_copy_stream_impl_lite.h"
  },
  {
   "function_name" : "google::protobuf::io::CopyingInputStream::~CopyingInputStream",
   "linker_set_key" : "_ZN6google8protobuf2io18CopyingInputStreamD2Ev",
   "parameters" :
   [
    {
     "is_this_ptr" : true,
     "referenced_type" : "_ZTIPN6google8protobuf2io18CopyingInputStreamE"
    }
   ],
   "return_type" : "_ZTIv",
   "source_file" : "external/protobuf/src/google/protobuf/io/zero_copy_stream_impl_lite.h"
  },
  {
   "function_name" : "google::protobuf::io::StringOutputStream::~StringOutputStream",
   "linker_set_key" : "_ZN6google8protobuf2io18StringOutputStreamD0Ev",
   "parameters" :
   [
    {
     "is_this_ptr" : true,
     "referenced_type" : "_ZTIPN6google8protobuf2io18StringOutputStreamE"
    }
   ],
   "return_type" : "_ZTIv",
   "source_file" : "external/protobuf/src/google/protobuf/io/zero_copy_stream_impl_lite.h"
  },
  {
   "function_name" : "google::protobuf::io::StringOutputStream::~StringOutputStream",
   "linker_set_key" : "_ZN6google8protobuf2io18StringOutputStreamD1Ev",
   "parameters" :
   [
    {
     "is_this_ptr" : true,
     "referenced_type" : "_ZTIPN6google8protobuf2io18StringOutputStreamE"
    }
   ],
   "return_type" : "_ZTIv",
   "source_file" : "external/protobuf/src/google/protobuf/io/zero_copy_stream_impl_lite.h"
  },
  {
   "function_name" : "google::protobuf::io::StringOutputStream::~StringOutputStream",
   "linker_set_key" : "_ZN6google8protobuf2io18StringOutputStreamD2Ev",
   "parameters" :
   [
    {
     "is_this_ptr" : true,
     "referenced_type" : "_ZTIPN6google8protobuf2io18StringOutputStreamE"
    }
   ],
   "return_type" : "_ZTIv",
   "source_file" : "external/protobuf/src/google/protobuf/io/zero_copy_stream_impl_lite.h"
  },
  {
   "function_name" : "google::protobuf::io::CopyingOutputStream::~CopyingOutputStream",
   "linker_set_key" : "_ZN6google8protobuf2io19CopyingOutputStreamD0Ev",
   "parameters" :
   [
    {
     "is_this_ptr" : true,
     "referenced_type" : "_ZTIPN6google8protobuf2io19CopyingOutputStreamE"
    }
   ],
   "return_type" : "_ZTIv",
   "source_file" : "external/protobuf/src/google/protobuf/io/zero_copy_stream_impl_lite.h"
  },
  {
   "function_name" : "google::protobuf::io::CopyingOutputStream::~CopyingOutputStream",
   "linker_set_key" : "_ZN6google8protobuf2io19CopyingOutputStreamD1Ev",
   "parameters" :
   [
    {
     "is_this_ptr" : true,
     "referenced_type" : "_ZTIPN6google8protobuf2io19CopyingOutputStreamE"
    }
   ],
   "return_type" : "_ZTIv",
   "source_file" : "external/protobuf/src/google/protobuf/io/zero_copy_stream_impl_lite.h"
  },
  {
   "function_name" : "google::protobuf::io::CopyingOutputStream::~CopyingOutputStream",
   "linker_set_key" : "_ZN6google8protobuf2io19CopyingOutputStreamD2Ev",
   "parameters" :
   [
    {
     "is_this_ptr" : true,
     "referenced_type" : "_ZTIPN6google8protobuf2io19CopyingOutputStreamE"
    }
   ],
   "return_type" : "_ZTIv",
   "source_file" : "external/protobuf/src/google/protobuf/io/zero_copy_stream_impl_lite.h"
  },
  {
   "function_name" : "google::protobuf::io::ZeroCopyInputStream::ZeroCopyInputStream",
   "linker_set_key" : "_ZN6google8protobuf2io19ZeroCopyInputStreamC2Ev",
   "parameters" :
   [
    {
     "is_this_ptr" : true,
     "referenced_type" : "_ZTIPN6google8protobuf2io19ZeroCopyInputStreamE"
    }
   ],
   "return_type" : "_ZTIv",
   "source_file" : "external/protobuf/src/google/protobuf/io/zero_copy_stream.h"
  },
  {
   "function_name" : "google::protobuf::io::ZeroCopyInputStream::~ZeroCopyInputStream",
   "linker_set_key" : "_ZN6google8protobuf2io19ZeroCopyInputStreamD0Ev",
   "parameters" :
   [
    {
     "is_this_ptr" : true,
     "referenced_type" : "_ZTIPN6google8protobuf2io19ZeroCopyInputStreamE"
    }
   ],
   "return_type" : "_ZTIv",
   "source_file" : "external/protobuf/src/google/protobuf/io/zero_copy_stream.h"
  },
  {
   "function_name" : "google::protobuf::io::ZeroCopyInputStream::~ZeroCopyInputStream",
   "linker_set_key" : "_ZN6google8protobuf2io19ZeroCopyInputStreamD1Ev",
   "parameters" :
   [
    {
     "is_this_ptr" : true,
     "referenced_type" : "_ZTIPN6google8protobuf2io19ZeroCopyInputStreamE"
    }
   ],
   "return_type" : "_ZTIv",
   "source_file" : "external/protobuf/src/google/protobuf/io/zero_copy_stream.h"
  },
  {
   "function_name" : "google::protobuf::io::ZeroCopyInputStream::~ZeroCopyInputStream",
   "linker_set_key" : "_ZN6google8protobuf2io19ZeroCopyInputStreamD2Ev",
   "parameters" :
   [
    {
     "is_this_ptr" : true,
     "referenced_type" : "_ZTIPN6google8protobuf2io19ZeroCopyInputStreamE"
    }
   ],
   "return_type" : "_ZTIv",
   "source_file" : "external/protobuf/src/google/protobuf/io/zero_copy_stream.h"
  },
  {
   "function_name" : "google::protobuf::io::mutable_string_data",
   "linker_set_key" : "_ZN6google8protobuf2io19mutable_string_dataEPNSt3__112basic_stringIcNS2_11char_traitsIcEENS2_9allocatorIcEEEE",
   "parameters" :
   [
    {
     "referenced_type" : "_ZTIPNSt3__112basic_stringIcNS_11char_traitsIcEENS_9allocatorIcEEEE"
    }
   ],
   "return_type" : "_ZTIPc",
   "source_file" : "external/protobuf/src/google/protobuf/io/zero_copy_stream_impl_lite.h"
  },
  {
   "function_name" : "google::protobuf::io::ZeroCopyOutputStream::ZeroCopyOutputStream",
   "linker_set_key" : "_ZN6google8protobuf2io20ZeroCopyOutputStreamC2Ev",
   "parameters" :
   [
    {
     "is_this_ptr" : true,
     "referenced_type" : "_ZTIPN6google8protobuf2io20ZeroCopyOutputStreamE"
    }
   ],
   "return_type" : "_ZTIv",
   "source_file" : "external/protobuf/src/google/protobuf/io/zero_copy_stream.h"
  },
  {
   "function_name" : "google::protobuf::io::ZeroCopyOutputStream::~ZeroCopyOutputStream",
   "linker_set_key" : "_ZN6google8protobuf2io20ZeroCopyOutputStreamD0Ev",
   "parameters" :
   [
    {
     "is_this_ptr" : true,
     "referenced_type" : "_ZTIPN6google8protobuf2io20ZeroCopyOutputStreamE"
    }
   ],
   "return_type" : "_ZTIv",
   "source_file" : "external/protobuf/src/google/protobuf/io/zero_copy_stream.h"
  },
  {
   "function_name" : "google::protobuf::io::ZeroCopyOutputStream::~ZeroCopyOutputStream",
   "linker_set_key" : "_ZN6google8protobuf2io20ZeroCopyOutputStreamD1Ev",
   "parameters" :
   [
    {
     "is_this_ptr" : true,
     "referenced_type" : "_ZTIPN6google8protobuf2io20ZeroCopyOutputStreamE"
    }
   ],
   "return_type" : "_ZTIv",
   "source_file" : "external/protobuf/src/google/protobuf/io/zero_copy_stream.h"
  },
  {
   "function_name" : "google::protobuf::io::ZeroCopyOutputStream::~ZeroCopyOutputStream",
   "linker_set_key" : "_ZN6google8protobuf2io20ZeroCopyOutputStreamD2Ev",
   "parameters" :
   [
    {
     "is_this_ptr" : true,
     "referenced_type" : "_ZTIPN6google8protobuf2io20ZeroCopyOutputStreamE"
    }
   ],
   "return_type" : "_ZTIv",
   "source_file" : "external/protobuf/src/google/protobuf/io/zero_copy_stream.h"
  },
  {
   "function_name" : "google::protobuf::io::CopyingInputStreamAdaptor::SetOwnsCopyingStream",
   "linker_set_key" : "_ZN6google8protobuf2io25CopyingInputStreamAdaptor20SetOwnsCopyingStreamEb",
   "parameters" :
   [
    {
     "is_this_ptr" : true,
     "referenced_type" : "_ZTIPN6google8protobuf2io25CopyingInputStreamAdaptorE"
    },
    {
     "referenced_type" : "_ZTIb"
    }
   ],
   "return_type" : "_ZTIv",
   "source_file" : "external/protobuf/src/google/protobuf/io/zero_copy_stream_impl_lite.h"
  },
  {
   "function_name" : "google::protobuf::io::CopyingOutputStreamAdaptor::SetOwnsCopyingStream",
   "linker_set_key" : "_ZN6google8protobuf2io26CopyingOutputStreamAdaptor20SetOwnsCopyingStreamEb",
   "parameters" :
   [
    {
     "is_this_ptr" : true,
     "referenced_type" : "_ZTIPN6google8protobuf2io26CopyingOutputStreamAdaptorE"
    },
    {
     "referenced_type" : "_ZTIb"
    }
   ],
   "return_type" : "_ZTIv",
   "source_file" : "external/protobuf/src/google/protobuf/io/zero_copy_stream_impl_lite.h"
  },
  {
   "function_name" : "google::protobuf::Bits::Log2FloorNonZero",
   "linker_set_key" : "_ZN6google8protobuf4Bits16Log2FloorNonZeroEj",
   "parameters" :
   [
    {
     "referenced_type" : "_ZTIj"
    }
   ],
   "return_type" : "_ZTIj",
   "source_file" : "external/protobuf/src/google/protobuf/stubs/port.h"
  },
  {
   "function_name" : "google::protobuf::Bits::Log2FloorNonZero64",
   "linker_set_key" : "_ZN6google8protobuf4Bits18Log2FloorNonZero64Ey",
   "parameters" :
   [
    {
     "referenced_type" : "_ZTIy"
    }
   ],
   "return_type" : "_ZTIj",
   "source_file" : "external/protobuf/src/google/protobuf/stubs/port.h"
  },
  {
   "access" : "private",
   "function_name" : "google::protobuf::Bits::Log2FloorNonZero_Portable",
   "linker_set_key" : "_ZN6google8protobuf4Bits25Log2FloorNonZero_PortableEj",
   "parameters" :
   [
    {
     "referenced_type" : "_ZTIj"
    }
   ],
   "return_type" : "_ZTIi",
   "source_file" : "external/protobuf/src/google/protobuf/stubs/port.h"
  },
  {
   "access" : "private",
   "function_name" : "google::protobuf::Bits::Log2FloorNonZero64_Portable",
   "linker_set_key" : "_ZN6google8protobuf4Bits27Log2FloorNonZero64_PortableEy",
   "parameters" :
   [
    {
     "referenced_type" : "_ZTIy"
    }
   ],
   "return_type" : "_ZTIi",
   "source_file" : "external/protobuf/src/google/protobuf/stubs/port.h"
  },
  {
   "access" : "private",
   "function_name" : "google::protobuf::Arena::OwnInternal",
   "linker_set_key" : "_ZN6google8protobuf5Arena11OwnInternalINSt3__112basic_stringIcNS3_11char_traitsIcEENS3_9allocatorIcEEEEEEvPT_NS3_17integral_constantIbLb0EEE",
   "parameters" :
   [
    {
     "is_this_ptr" : true,
     "referenced_type" : "_ZTIPN6google8protobuf5ArenaE"
    },
    {
     "referenced_type" : "_ZTIPNSt3__112basic_stringIcNS_11char_traitsIcEENS_9allocatorIcEEEE"
    },
    {
     "referenced_type" : "_ZTINSt3__117integral_constantIbLb0EEE"
    }
   ],
   "return_type" : "_ZTIv",
   "source_file" : "external/protobuf/src/google/protobuf/arena.h",
   "template_args" : [ "_ZTINSt3__112basic_stringIcNS_11char_traitsIcEENS_9allocatorIcEEEE" ]
  },
  {
   "function_name" : "google::protobuf::Arena::CreateMessage",
   "linker_set_key" : "_ZN6google8protobuf5Arena13CreateMessageINS0_8internal19ImplicitWeakMessageEJEEEPT_PS1_DpOT0_",
   "parameters" :
   [
    {
     "referenced_type" : "_ZTIPN6google8protobuf5ArenaE"
    }
   ],
   "return_type" : "_ZTIPN6google8protobuf8internal19ImplicitWeakMessageE",
   "source_file" : "external/protobuf/src/google/protobuf/arena.h",
   "template_args" : [ "_ZTIN6google8protobuf8internal19ImplicitWeakMessageE" ]
  },
  {
   "access" : "private",
   "function_name" : "google::protobuf::Arena::CreateInternal",
   "linker_set_key" : "_ZN6google8protobuf5Arena14CreateInternalINS0_8internal29InternalMetadataWithArenaBaseINSt3__112basic_stringIcNS5_11char_traitsIcEENS5_9allocatorIcEEEENS3_29InternalMetadataWithArenaLiteEE9ContainerEJEEEPT_PS1_DpOT0_",
   "parameters" :
   [
    {
     "referenced_type" : "_ZTIPN6google8protobuf5ArenaE"
    }
   ],
   "return_type" : "_ZTIPN6google8protobuf8internal29InternalMetadataWithArenaBaseINSt3__112basic_stringIcNS3_11char_traitsIcEENS3_9allocatorIcEEEENS1_29InternalMetadataWithArenaLiteEE9ContainerE",
   "source_file" : "external/protobuf/src/google/protobuf/arena.h",
   "template_args" :
   [
    "_ZTIN6google8protobuf8internal29InternalMetadataWithArenaBaseINSt3__112basic_stringIcNS3_11char_traitsIcEENS3_9allocatorIcEEEENS1_29InternalMetadataWithArenaLiteEE9ContainerE"
   ]
  },
  {
   "access" : "private",
   "function_name" : "google::protobuf::Arena::CreateInternal",
   "linker_set_key" : "_ZN6google8protobuf5Arena14CreateInternalINSt3__112basic_stringIcNS3_11char_traitsIcEENS3_9allocatorIcEEEEJEEEPT_PS1_DpOT0_",
   "parameters" :
   [
    {
     "referenced_type" : "_ZTIPN6google8protobuf5ArenaE"
    }
   ],
   "return_type" : "_ZTIPNSt3__112basic_stringIcNS_11char_traitsIcEENS_9allocatorIcEEEE",
   "source_file" : "external/protobuf/src/google/protobuf/arena.h",
   "template_args" : [ "_ZTINSt3__112basic_stringIcNS_11char_traitsIcEENS_9allocatorIcEEEE" ]
  },
  {
   "access" : "private",
   "function_name" : "google::protobuf::Arena::CreateInternal",
   "linker_set_key" : "_ZN6google8protobuf5Arena14CreateInternalINSt3__112basic_stringIcNS3_11char_traitsIcEENS3_9allocatorIcEEEEJRKS9_EEEPT_PS1_DpOT0_",
   "parameters" :
   [
    {
     "referenced_type" : "_ZTIPN6google8protobuf5ArenaE"
    },
    {
     "referenced_type" : "_ZTIRKNSt3__112basic_stringIcNS_11char_traitsIcEENS_9allocatorIcEEEE"
    }
   ],
   "return_type" : "_ZTIPNSt3__112basic_stringIcNS_11char_traitsIcEENS_9allocatorIcEEEE",
   "source_file" : "external/protobuf/src/google/protobuf/arena.h",
   "template_args" : [ "_ZTINSt3__112basic_stringIcNS_11char_traitsIcEENS_9allocatorIcEEEE" ]
  },
  {
   "access" : "private",
   "function_name" : "google::protobuf::Arena::CreateInternal",
   "linker_set_key" : "_ZN6google8protobuf5Arena14CreateInternalINSt3__112basic_stringIcNS3_11char_traitsIcEENS3_9allocatorIcEEEEJS9_EEEPT_PS1_DpOT0_",
   "parameters" :
   [
    {
     "referenced_type" : "_ZTIPN6google8protobuf5ArenaE"
    },
    {
     "referenced_type" : "_ZTIONSt3__112basic_stringIcNS_11char_traitsIcEENS_9allocatorIcEEEE"
    }
   ],
   "return_type" : "_ZTIPNSt3__112basic_stringIcNS_11char_traitsIcEENS_9allocatorIcEEEE",
   "source_file" : "external/protobuf/src/google/protobuf/arena.h",
   "template_args" : [ "_ZTINSt3__112basic_stringIcNS_11char_traitsIcEENS_9allocatorIcEEEE" ]
  },
  {
   "access" : "private",
   "function_name" : "google::protobuf::Arena::InternalHelper<google::protobuf::internal::ImplicitWeakMessage>::Construct",
   "linker_set_key" : "_ZN6google8protobuf5Arena14InternalHelperINS0_8internal19ImplicitWeakMessageEE9ConstructIJPS1_EEEPS4_PvDpOT_",
   "parameters" :
   [
    {
     "referenced_type" : "_ZTIPv"
    },
    {
     "referenced_type" : "_ZTIOPN6google8protobuf5ArenaE"
    }
   ],
   "return_type" : "_ZTIPN6google8protobuf8internal19ImplicitWeakMessageE",
   "source_file" : "external/protobuf/src/google/protobuf/arena.h"
  },
  {
   "access" : "private",
   "function_name" : "google::protobuf::Arena::AllocateAligned",
   "linker_set_key" : "_ZN6google8protobuf5Arena15AllocateAlignedEj",
   "parameters" :
   [
    {
     "is_this_ptr" : true,
     "referenced_type" : "_ZTIPN6google8protobuf5ArenaE"
    },
    {
     "referenced_type" : "_ZTIj"
    }
   ],
   "return_type" : "_ZTIPv",
   "source_file" : "external/protobuf/src/google/protobuf/arena.h"
  },
  {
   "access" : "private",
   "function_name" : "google::protobuf::Arena::CreateNoMessage",
   "linker_set_key" : "_ZN6google8protobuf5Arena15CreateNoMessageINS0_8internal29InternalMetadataWithArenaBaseINSt3__112basic_stringIcNS5_11char_traitsIcEENS5_9allocatorIcEEEENS3_29InternalMetadataWithArenaLiteEE9ContainerEJEEEPT_PS1_NS5_17integral_constantIbLb0EEEDpOT0_",
   "parameters" :
   [
    {
     "referenced_type" : "_ZTIPN6google8protobuf5ArenaE"
    },
    {
     "referenced_type" : "_ZTINSt3__117integral_constantIbLb0EEE"
    }
   ],
   "return_type" : "_ZTIPN6google8protobuf8internal29InternalMetadataWithArenaBaseINSt3__112basic_stringIcNS3_11char_traitsIcEENS3_9allocatorIcEEEENS1_29InternalMetadataWithArenaLiteEE9ContainerE",
   "source_file" : "external/protobuf/src/google/protobuf/arena.h",
   "template_args" :
   [
    "_ZTIN6google8protobuf8internal29InternalMetadataWithArenaBaseINSt3__112basic_stringIcNS3_11char_traitsIcEENS3_9allocatorIcEEEENS1_29InternalMetadataWithArenaLiteEE9ContainerE"
   ]
  },
  {
   "access" : "private",
   "function_name" : "google::protobuf::Arena::CreateNoMessage",
   "linker_set_key" : "_ZN6google8protobuf5Arena15CreateNoMessageINSt3__112basic_stringIcNS3_11char_traitsIcEENS3_9allocatorIcEEEEJEEEPT_PS1_NS3_17integral_constantIbLb0EEEDpOT0_",
   "parameters" :
   [
    {
     "referenced_type" : "_ZTIPN6google8protobuf5ArenaE"
    },
    {
     "referenced_type" : "_ZTINSt3__117integral_constantIbLb0EEE"
    }
   ],
   "return_type" : "_ZTIPNSt3__112basic_stringIcNS_11char_traitsIcEENS_9allocatorIcEEEE",
   "source_file" : "external/protobuf/src/google/protobuf/arena.h",
   "template_args" : [ "_ZTINSt3__112basic_stringIcNS_11char_traitsIcEENS_9allocatorIcEEEE" ]
  },
  {
   "access" : "private",
   "function_name" : "google::protobuf::Arena::CreateNoMessage",
   "linker_set_key" : "_ZN6google8protobuf5Arena15CreateNoMessageINSt3__112basic_stringIcNS3_11char_traitsIcEENS3_9allocatorIcEEEEJRKS9_EEEPT_PS1_NS3_17integral_constantIbLb0EEEDpOT0_",
   "parameters" :
   [
    {
     "referenced_type" : "_ZTIPN6google8protobuf5ArenaE"
    },
    {
     "referenced_type" : "_ZTINSt3__117integral_constantIbLb0EEE"
    },
    {
     "referenced_type" : "_ZTIRKNSt3__112basic_stringIcNS_11char_traitsIcEENS_9allocatorIcEEEE"
    }
   ],
   "return_type" : "_ZTIPNSt3__112basic_stringIcNS_11char_traitsIcEENS_9allocatorIcEEEE",
   "source_file" : "external/protobuf/src/google/protobuf/arena.h",
   "template_args" : [ "_ZTINSt3__112basic_stringIcNS_11char_traitsIcEENS_9allocatorIcEEEE" ]
  },
  {
   "access" : "private",
   "function_name" : "google::protobuf::Arena::CreateNoMessage",
   "linker_set_key" : "_ZN6google8protobuf5Arena15CreateNoMessageINSt3__112basic_stringIcNS3_11char_traitsIcEENS3_9allocatorIcEEEEJS9_EEEPT_PS1_NS3_17integral_constantIbLb0EEEDpOT0_",
   "parameters" :
   [
    {
     "referenced_type" : "_ZTIPN6google8protobuf5ArenaE"
    },
    {
     "referenced_type" : "_ZTINSt3__117integral_constantIbLb0EEE"
    },
    {
     "referenced_type" : "_ZTIONSt3__112basic_stringIcNS_11char_traitsIcEENS_9allocatorIcEEEE"
    }
   ],
   "return_type" : "_ZTIPNSt3__112basic_stringIcNS_11char_traitsIcEENS_9allocatorIcEEEE",
   "source_file" : "external/protobuf/src/google/protobuf/arena.h",
   "template_args" : [ "_ZTINSt3__112basic_stringIcNS_11char_traitsIcEENS_9allocatorIcEEEE" ]
  },
  {
   "access" : "private",
   "function_name" : "google::protobuf::Arena::DoCreateMessage",
   "linker_set_key" : "_ZN6google8protobuf5Arena15DoCreateMessageINS0_8internal19ImplicitWeakMessageEJEEEPT_DpOT0_",
   "parameters" :
   [
    {
     "is_this_ptr" : true,
     "referenced_type" : "_ZTIPN6google8protobuf5ArenaE"
    }
   ],
   "return_type" : "_ZTIPN6google8protobuf8internal19ImplicitWeakMessageE",
   "source_file" : "external/protobuf/src/google/protobuf/arena.h",
   "template_args" : [ "_ZTIN6google8protobuf8internal19ImplicitWeakMessageE" ]
  },
  {
   "access" : "private",
   "function_name" : "google::protobuf::Arena::AllocateInternal",
   "linker_set_key" : "_ZN6google8protobuf5Arena16AllocateInternalINS0_8internal19ImplicitWeakMessageEEEPvb",
   "parameters" :
   [
    {
     "is_this_ptr" : true,
     "referenced_type" : "_ZTIPN6google8protobuf5ArenaE"
    },
    {
     "referenced_type" : "_ZTIb"
    }
   ],
   "return_type" : "_ZTIPv",
   "source_file" : "external/protobuf/src/google/protobuf/arena.h",
   "template_args" : [ "_ZTIN6google8protobuf8internal19ImplicitWeakMessageE" ]
  },
  {
   "access" : "private",
   "function_name" : "google::protobuf::Arena::AllocateInternal",
   "linker_set_key" : "_ZN6google8protobuf5Arena16AllocateInternalINS0_8internal29InternalMetadataWithArenaBaseINSt3__112basic_stringIcNS5_11char_traitsIcEENS5_9allocatorIcEEEENS3_29InternalMetadataWithArenaLiteEE9ContainerEEEPvb",
   "parameters" :
   [
    {
     "is_this_ptr" : true,
     "referenced_type" : "_ZTIPN6google8protobuf5ArenaE"
    },
    {
     "referenced_type" : "_ZTIb"
    }
   ],
   "return_type" : "_ZTIPv",
   "source_file" : "external/protobuf/src/google/protobuf/arena.h",
   "template_args" :
   [
    "_ZTIN6google8protobuf8internal29InternalMetadataWithArenaBaseINSt3__112basic_stringIcNS3_11char_traitsIcEENS3_9allocatorIcEEEENS1_29InternalMetadataWithArenaLiteEE9ContainerE"
   ]
  },
  {
   "access" : "private",
   "function_name" : "google::protobuf::Arena::AllocateInternal",
   "linker_set_key" : "_ZN6google8protobuf5Arena16AllocateInternalINSt3__112basic_stringIcNS3_11char_traitsIcEENS3_9allocatorIcEEEEEEPvb",
   "parameters" :
   [
    {
     "is_this_ptr" : true,
     "referenced_type" : "_ZTIPN6google8protobuf5ArenaE"
    },
    {
     "referenced_type" : "_ZTIb"
    }
   ],
   "return_type" : "_ZTIPv",
   "source_file" : "external/protobuf/src/google/protobuf/arena.h",
   "template_args" : [ "_ZTINSt3__112basic_stringIcNS_11char_traitsIcEENS_9allocatorIcEEEE" ]
  },
  {
   "access" : "private",
   "function_name" : "google::protobuf::Arena::CreateMaybeMessage",
   "linker_set_key" : "_ZN6google8protobuf5Arena18CreateMaybeMessageINS0_8internal19ImplicitWeakMessageEJEEEPT_PS1_DpOT0_",
   "parameters" :
   [
    {
     "referenced_type" : "_ZTIPN6google8protobuf5ArenaE"
    }
   ],
   "return_type" : "_ZTIPN6google8protobuf8internal19ImplicitWeakMessageE",
   "source_file" : "external/protobuf/src/google/protobuf/arena.h",
   "template_args" : [ "_ZTIN6google8protobuf8internal19ImplicitWeakMessageE" ]
  },
  {
   "access" : "private",
   "function_name" : "google::protobuf::Arena::CreateMaybeMessage",
   "linker_set_key" : "_ZN6google8protobuf5Arena18CreateMaybeMessageINS0_8internal29InternalMetadataWithArenaBaseINSt3__112basic_stringIcNS5_11char_traitsIcEENS5_9allocatorIcEEEENS3_29InternalMetadataWithArenaLiteEE9ContainerEJEEEPT_PS1_DpOT0_",
   "parameters" :
   [
    {
     "referenced_type" : "_ZTIPN6google8protobuf5ArenaE"
    }
   ],
   "return_type" : "_ZTIPN6google8protobuf8internal29InternalMetadataWithArenaBaseINSt3__112basic_stringIcNS3_11char_traitsIcEENS3_9allocatorIcEEEENS1_29InternalMetadataWithArenaLiteEE9ContainerE",
   "source_file" : "external/protobuf/src/google/protobuf/arena.h",
   "template_args" :
   [
    "_ZTIN6google8protobuf8internal29InternalMetadataWithArenaBaseINSt3__112basic_stringIcNS3_11char_traitsIcEENS3_9allocatorIcEEEENS1_29InternalMetadataWithArenaLiteEE9ContainerE"
   ]
  },
  {
   "access" : "private",
   "function_name" : "google::protobuf::Arena::CreateMaybeMessage",
   "linker_set_key" : "_ZN6google8protobuf5Arena18CreateMaybeMessageINSt3__112basic_stringIcNS3_11char_traitsIcEENS3_9allocatorIcEEEEJEEEPT_PS1_DpOT0_",
   "parameters" :
   [
    {
     "referenced_type" : "_ZTIPN6google8protobuf5ArenaE"
    }
   ],
   "return_type" : "_ZTIPNSt3__112basic_stringIcNS_11char_traitsIcEENS_9allocatorIcEEEE",
   "source_file" : "external/protobuf/src/google/protobuf/arena.h",
   "template_args" : [ "_ZTINSt3__112basic_stringIcNS_11char_traitsIcEENS_9allocatorIcEEEE" ]
  },
  {
   "access" : "private",
   "function_name" : "google::protobuf::Arena::CreateMaybeMessage",
   "linker_set_key" : "_ZN6google8protobuf5Arena18CreateMaybeMessageINSt3__112basic_stringIcNS3_11char_traitsIcEENS3_9allocatorIcEEEEJRKS9_EEEPT_PS1_DpOT0_",
   "parameters" :
   [
    {
     "referenced_type" : "_ZTIPN6google8protobuf5ArenaE"
    },
    {
     "referenced_type" : "_ZTIRKNSt3__112basic_stringIcNS_11char_traitsIcEENS_9allocatorIcEEEE"
    }
   ],
   "return_type" : "_ZTIPNSt3__112basic_stringIcNS_11char_traitsIcEENS_9allocatorIcEEEE",
   "source_file" : "external/protobuf/src/google/protobuf/arena.h",
   "template_args" : [ "_ZTINSt3__112basic_stringIcNS_11char_traitsIcEENS_9allocatorIcEEEE" ]
  },
  {
   "access" : "private",
   "function_name" : "google::protobuf::Arena::CreateMaybeMessage",
   "linker_set_key" : "_ZN6google8protobuf5Arena18CreateMaybeMessageINSt3__112basic_stringIcNS3_11char_traitsIcEENS3_9allocatorIcEEEEJS9_EEEPT_PS1_DpOT0_",
   "parameters" :
   [
    {
     "referenced_type" : "_ZTIPN6google8protobuf5ArenaE"
    },
    {
     "referenced_type" : "_ZTIONSt3__112basic_stringIcNS_11char_traitsIcEENS_9allocatorIcEEEE"
    }
   ],
   "return_type" : "_ZTIPNSt3__112basic_stringIcNS_11char_traitsIcEENS_9allocatorIcEEEE",
   "source_file" : "external/protobuf/src/google/protobuf/arena.h",
   "template_args" : [ "_ZTINSt3__112basic_stringIcNS_11char_traitsIcEENS_9allocatorIcEEEE" ]
  },
  {
   "function_name" : "google::protobuf::Arena::OwnCustomDestructor",
   "linker_set_key" : "_ZN6google8protobuf5Arena19OwnCustomDestructorEPvPFvS2_E",
   "parameters" :
   [
    {
     "is_this_ptr" : true,
     "referenced_type" : "_ZTIPN6google8protobuf5ArenaE"
    },
    {
     "referenced_type" : "_ZTIPv"
    },
    {
     "referenced_type" : "_ZTIPFvPvE"
    }
   ],
   "return_type" : "_ZTIv",
   "source_file" : "external/protobuf/src/google/protobuf/arena.h"
  },
  {
   "access" : "private",
   "function_name" : "google::protobuf::Arena::DoCreateMaybeMessage",
   "linker_set_key" : "_ZN6google8protobuf5Arena20DoCreateMaybeMessageINS0_8internal19ImplicitWeakMessageEJEEEPT_PS1_NSt3__117integral_constantIbLb1EEEDpOT0_",
   "parameters" :
   [
    {
     "referenced_type" : "_ZTIPN6google8protobuf5ArenaE"
    },
    {
     "referenced_type" : "_ZTINSt3__117integral_constantIbLb1EEE"
    }
   ],
   "return_type" : "_ZTIPN6google8protobuf8internal19ImplicitWeakMessageE",
   "source_file" : "external/protobuf/src/google/protobuf/arena.h",
   "template_args" : [ "_ZTIN6google8protobuf8internal19ImplicitWeakMessageE" ]
  },
  {
   "access" : "private",
   "function_name" : "google::protobuf::Arena::DoCreateMaybeMessage",
   "linker_set_key" : "_ZN6google8protobuf5Arena20DoCreateMaybeMessageINS0_8internal29InternalMetadataWithArenaBaseINSt3__112basic_stringIcNS5_11char_traitsIcEENS5_9allocatorIcEEEENS3_29InternalMetadataWithArenaLiteEE9ContainerEJEEEPT_PS1_NS5_17integral_constantIbLb0EEEDpOT0_",
   "parameters" :
   [
    {
     "referenced_type" : "_ZTIPN6google8protobuf5ArenaE"
    },
    {
     "referenced_type" : "_ZTINSt3__117integral_constantIbLb0EEE"
    }
   ],
   "return_type" : "_ZTIPN6google8protobuf8internal29InternalMetadataWithArenaBaseINSt3__112basic_stringIcNS3_11char_traitsIcEENS3_9allocatorIcEEEENS1_29InternalMetadataWithArenaLiteEE9ContainerE",
   "source_file" : "external/protobuf/src/google/protobuf/arena.h",
   "template_args" :
   [
    "_ZTIN6google8protobuf8internal29InternalMetadataWithArenaBaseINSt3__112basic_stringIcNS3_11char_traitsIcEENS3_9allocatorIcEEEENS1_29InternalMetadataWithArenaLiteEE9ContainerE"
   ]
  },
  {
   "access" : "private",
   "function_name" : "google::protobuf::Arena::DoCreateMaybeMessage",
   "linker_set_key" : "_ZN6google8protobuf5Arena20DoCreateMaybeMessageINSt3__112basic_stringIcNS3_11char_traitsIcEENS3_9allocatorIcEEEEJEEEPT_PS1_NS3_17integral_constantIbLb0EEEDpOT0_",
   "parameters" :
   [
    {
     "referenced_type" : "_ZTIPN6google8protobuf5ArenaE"
    },
    {
     "referenced_type" : "_ZTINSt3__117integral_constantIbLb0EEE"
    }
   ],
   "return_type" : "_ZTIPNSt3__112basic_stringIcNS_11char_traitsIcEENS_9allocatorIcEEEE",
   "source_file" : "external/protobuf/src/google/protobuf/arena.h",
   "template_args" : [ "_ZTINSt3__112basic_stringIcNS_11char_traitsIcEENS_9allocatorIcEEEE" ]
  },
  {
   "access" : "private",
   "function_name" : "google::protobuf::Arena::DoCreateMaybeMessage",
   "linker_set_key" : "_ZN6google8protobuf5Arena20DoCreateMaybeMessageINSt3__112basic_stringIcNS3_11char_traitsIcEENS3_9allocatorIcEEEEJRKS9_EEEPT_PS1_NS3_17integral_constantIbLb0EEEDpOT0_",
   "parameters" :
   [
    {
     "referenced_type" : "_ZTIPN6google8protobuf5ArenaE"
    },
    {
     "referenced_type" : "_ZTINSt3__117integral_constantIbLb0EEE"
    },
    {
     "referenced_type" : "_ZTIRKNSt3__112basic_stringIcNS_11char_traitsIcEENS_9allocatorIcEEEE"
    }
   ],
   "return_type" : "_ZTIPNSt3__112basic_stringIcNS_11char_traitsIcEENS_9allocatorIcEEEE",
   "source_file" : "external/protobuf/src/google/protobuf/arena.h",
   "template_args" : [ "_ZTINSt3__112basic_stringIcNS_11char_traitsIcEENS_9allocatorIcEEEE" ]
  },
  {
   "access" : "private",
   "function_name" : "google::protobuf::Arena::DoCreateMaybeMessage",
   "linker_set_key" : "_ZN6google8protobuf5Arena20DoCreateMaybeMessageINSt3__112basic_stringIcNS3_11char_traitsIcEENS3_9allocatorIcEEEEJS9_EEEPT_PS1_NS3_17integral_constantIbLb0EEEDpOT0_",
   "parameters" :
   [
    {
     "referenced_type" : "_ZTIPN6google8protobuf5ArenaE"
    },
    {
     "referenced_type" : "_ZTINSt3__117integral_constantIbLb0EEE"
    },
    {
     "referenced_type" : "_ZTIONSt3__112basic_stringIcNS_11char_traitsIcEENS_9allocatorIcEEEE"
    }
   ],
   "return_type" : "_ZTIPNSt3__112basic_stringIcNS_11char_traitsIcEENS_9allocatorIcEEEE",
   "source_file" : "external/protobuf/src/google/protobuf/arena.h",
   "template_args" : [ "_ZTINSt3__112basic_stringIcNS_11char_traitsIcEENS_9allocatorIcEEEE" ]
  },
  {
   "access" : "private",
   "function_name" : "google::protobuf::Arena::CreateMessageInternal",
   "linker_set_key" : "_ZN6google8protobuf5Arena21CreateMessageInternalINS0_8internal19ImplicitWeakMessageEEEPT_PS1_",
   "parameters" :
   [
    {
     "referenced_type" : "_ZTIPN6google8protobuf5ArenaE"
    }
   ],
   "return_type" : "_ZTIPN6google8protobuf8internal19ImplicitWeakMessageE",
   "source_file" : "external/protobuf/src/google/protobuf/arena.h",
   "template_args" : [ "_ZTIN6google8protobuf8internal19ImplicitWeakMessageE" ]
  },
  {
   "function_name" : "google::protobuf::Arena::Own",
   "linker_set_key" : "_ZN6google8protobuf5Arena3OwnINSt3__112basic_stringIcNS3_11char_traitsIcEENS3_9allocatorIcEEEEEEvPT_",
   "parameters" :
   [
    {
     "is_this_ptr" : true,
     "referenced_type" : "_ZTIPN6google8protobuf5ArenaE"
    },
    {
     "referenced_type" : "_ZTIPNSt3__112basic_stringIcNS_11char_traitsIcEENS_9allocatorIcEEEE"
    }
   ],
   "return_type" : "_ZTIv",
   "source_file" : "external/protobuf/src/google/protobuf/arena.h",
   "template_args" : [ "_ZTINSt3__112basic_stringIcNS_11char_traitsIcEENS_9allocatorIcEEEE" ]
  },
  {
   "function_name" : "google::protobuf::Arena::Init",
   "linker_set_key" : "_ZN6google8protobuf5Arena4InitERKNS0_12ArenaOptionsE",
   "parameters" :
   [
    {
     "is_this_ptr" : true,
     "referenced_type" : "_ZTIPN6google8protobuf5ArenaE"
    },
    {
     "referenced_type" : "_ZTIRKN6google8protobuf12ArenaOptionsE"
    }
   ],
   "return_type" : "_ZTIv",
   "source_file" : "external/protobuf/src/google/protobuf/arena.h"
  },
  {
   "function_name" : "google::protobuf::Arena::Reset",
   "linker_set_key" : "_ZN6google8protobuf5Arena5ResetEv",
   "parameters" :
   [
    {
     "is_this_ptr" : true,
     "referenced_type" : "_ZTIPN6google8protobuf5ArenaE"
    }
   ],
   "return_type" : "_ZTIy",
   "source_file" : "external/protobuf/src/google/protobuf/arena.h"
  },
  {
   "function_name" : "google::protobuf::Arena::Create",
   "linker_set_key" : "_ZN6google8protobuf5Arena6CreateINS0_8internal29InternalMetadataWithArenaBaseINSt3__112basic_stringIcNS5_11char_traitsIcEENS5_9allocatorIcEEEENS3_29InternalMetadataWithArenaLiteEE9ContainerEJEEEPT_PS1_DpOT0_",
   "parameters" :
   [
    {
     "referenced_type" : "_ZTIPN6google8protobuf5ArenaE"
    }
   ],
   "return_type" : "_ZTIPN6google8protobuf8internal29InternalMetadataWithArenaBaseINSt3__112basic_stringIcNS3_11char_traitsIcEENS3_9allocatorIcEEEENS1_29InternalMetadataWithArenaLiteEE9ContainerE",
   "source_file" : "external/protobuf/src/google/protobuf/arena.h",
   "template_args" :
   [
    "_ZTIN6google8protobuf8internal29InternalMetadataWithArenaBaseINSt3__112basic_stringIcNS3_11char_traitsIcEENS3_9allocatorIcEEEENS1_29InternalMetadataWithArenaLiteEE9ContainerE"
   ]
  },
  {
   "function_name" : "google::protobuf::Arena::Create",
   "linker_set_key" : "_ZN6google8protobuf5Arena6CreateINSt3__112basic_stringIcNS3_11char_traitsIcEENS3_9allocatorIcEEEEJEEEPT_PS1_DpOT0_",
   "parameters" :
   [
    {
     "referenced_type" : "_ZTIPN6google8protobuf5ArenaE"
    }
   ],
   "return_type" : "_ZTIPNSt3__112basic_stringIcNS_11char_traitsIcEENS_9allocatorIcEEEE",
   "source_file" : "external/protobuf/src/google/protobuf/arena.h",
   "template_args" : [ "_ZTINSt3__112basic_stringIcNS_11char_traitsIcEENS_9allocatorIcEEEE" ]
  },
  {
   "function_name" : "google::protobuf::Arena::Create",
   "linker_set_key" : "_ZN6google8protobuf5Arena6CreateINSt3__112basic_stringIcNS3_11char_traitsIcEENS3_9allocatorIcEEEEJRKS9_EEEPT_PS1_DpOT0_",
   "parameters" :
   [
    {
     "referenced_type" : "_ZTIPN6google8protobuf5ArenaE"
    },
    {
     "referenced_type" : "_ZTIRKNSt3__112basic_stringIcNS_11char_traitsIcEENS_9allocatorIcEEEE"
    }
   ],
   "return_type" : "_ZTIPNSt3__112basic_stringIcNS_11char_traitsIcEENS_9allocatorIcEEEE",
   "source_file" : "external/protobuf/src/google/protobuf/arena.h",
   "template_args" : [ "_ZTINSt3__112basic_stringIcNS_11char_traitsIcEENS_9allocatorIcEEEE" ]
  },
  {
   "function_name" : "google::protobuf::Arena::Create",
   "linker_set_key" : "_ZN6google8protobuf5Arena6CreateINSt3__112basic_stringIcNS3_11char_traitsIcEENS3_9allocatorIcEEEEJS9_EEEPT_PS1_DpOT0_",
   "parameters" :
   [
    {
     "referenced_type" : "_ZTIPN6google8protobuf5ArenaE"
    },
    {
     "referenced_type" : "_ZTIONSt3__112basic_stringIcNS_11char_traitsIcEENS_9allocatorIcEEEE"
    }
   ],
   "return_type" : "_ZTIPNSt3__112basic_stringIcNS_11char_traitsIcEENS_9allocatorIcEEEE",
   "source_file" : "external/protobuf/src/google/protobuf/arena.h",
   "template_args" : [ "_ZTINSt3__112basic_stringIcNS_11char_traitsIcEENS_9allocatorIcEEEE" ]
  },
  {
   "access" : "private",
   "function_name" : "google::protobuf::Arena::DoCreate",
   "linker_set_key" : "_ZN6google8protobuf5Arena8DoCreateINS0_8internal29InternalMetadataWithArenaBaseINSt3__112basic_stringIcNS5_11char_traitsIcEENS5_9allocatorIcEEEENS3_29InternalMetadataWithArenaLiteEE9ContainerEJEEEPT_bDpOT0_",
   "parameters" :
   [
    {
     "is_this_ptr" : true,
     "referenced_type" : "_ZTIPN6google8protobuf5ArenaE"
    },
    {
     "referenced_type" : "_ZTIb"
    }
   ],
   "return_type" : "_ZTIPN6google8protobuf8internal29InternalMetadataWithArenaBaseINSt3__112basic_stringIcNS3_11char_traitsIcEENS3_9allocatorIcEEEENS1_29InternalMetadataWithArenaLiteEE9ContainerE",
   "source_file" : "external/protobuf/src/google/protobuf/arena.h",
   "template_args" :
   [
    "_ZTIN6google8protobuf8internal29InternalMetadataWithArenaBaseINSt3__112basic_stringIcNS3_11char_traitsIcEENS3_9allocatorIcEEEENS1_29InternalMetadataWithArenaLiteEE9ContainerE"
   ]
  },
  {
   "access" : "private",
   "function_name" : "google::protobuf::Arena::DoCreate",
   "linker_set_key" : "_ZN6google8protobuf5Arena8DoCreateINSt3__112basic_stringIcNS3_11char_traitsIcEENS3_9allocatorIcEEEEJEEEPT_bDpOT0_",
   "parameters" :
   [
    {
     "is_this_ptr" : true,
     "referenced_type" : "_ZTIPN6google8protobuf5ArenaE"
    },
    {
     "referenced_type" : "_ZTIb"
    }
   ],
   "return_type" : "_ZTIPNSt3__112basic_stringIcNS_11char_traitsIcEENS_9allocatorIcEEEE",
   "source_file" : "external/protobuf/src/google/protobuf/arena.h",
   "template_args" : [ "_ZTINSt3__112basic_stringIcNS_11char_traitsIcEENS_9allocatorIcEEEE" ]
  },
  {
   "access" : "private",
   "function_name" : "google::protobuf::Arena::DoCreate",
   "linker_set_key" : "_ZN6google8protobuf5Arena8DoCreateINSt3__112basic_stringIcNS3_11char_traitsIcEENS3_9allocatorIcEEEEJRKS9_EEEPT_bDpOT0_",
   "parameters" :
   [
    {
     "is_this_ptr" : true,
     "referenced_type" : "_ZTIPN6google8protobuf5ArenaE"
    },
    {
     "referenced_type" : "_ZTIb"
    },
    {
     "referenced_type" : "_ZTIRKNSt3__112basic_stringIcNS_11char_traitsIcEENS_9allocatorIcEEEE"
    }
   ],
   "return_type" : "_ZTIPNSt3__112basic_stringIcNS_11char_traitsIcEENS_9allocatorIcEEEE",
   "source_file" : "external/protobuf/src/google/protobuf/arena.h",
   "template_args" : [ "_ZTINSt3__112basic_stringIcNS_11char_traitsIcEENS_9allocatorIcEEEE" ]
  },
  {
   "access" : "private",
   "function_name" : "google::protobuf::Arena::DoCreate",
   "linker_set_key" : "_ZN6google8protobuf5Arena8DoCreateINSt3__112basic_stringIcNS3_11char_traitsIcEENS3_9allocatorIcEEEEJS9_EEEPT_bDpOT0_",
   "parameters" :
   [
    {
     "is_this_ptr" : true,
     "referenced_type" : "_ZTIPN6google8protobuf5ArenaE"
    },
    {
     "referenced_type" : "_ZTIb"
    },
    {
     "referenced_type" : "_ZTIONSt3__112basic_stringIcNS_11char_traitsIcEENS_9allocatorIcEEEE"
    }
   ],
   "return_type" : "_ZTIPNSt3__112basic_stringIcNS_11char_traitsIcEENS_9allocatorIcEEEE",
   "source_file" : "external/protobuf/src/google/protobuf/arena.h",
   "template_args" : [ "_ZTINSt3__112basic_stringIcNS_11char_traitsIcEENS_9allocatorIcEEEE" ]
  },
  {
   "function_name" : "google::protobuf::Arena::Arena",
   "linker_set_key" : "_ZN6google8protobuf5ArenaC1ERKNS0_12ArenaOptionsE",
   "parameters" :
   [
    {
     "is_this_ptr" : true,
     "referenced_type" : "_ZTIPN6google8protobuf5ArenaE"
    },
    {
     "referenced_type" : "_ZTIRKN6google8protobuf12ArenaOptionsE"
    }
   ],
   "return_type" : "_ZTIv",
   "source_file" : "external/protobuf/src/google/protobuf/arena.h"
  },
  {
   "function_name" : "google::protobuf::Arena::Arena",
   "linker_set_key" : "_ZN6google8protobuf5ArenaC1Ev",
   "parameters" :
   [
    {
     "is_this_ptr" : true,
     "referenced_type" : "_ZTIPN6google8protobuf5ArenaE"
    }
   ],
   "return_type" : "_ZTIv",
   "source_file" : "external/protobuf/src/google/protobuf/arena.h"
  },
  {
   "function_name" : "google::protobuf::Arena::Arena",
   "linker_set_key" : "_ZN6google8protobuf5ArenaC2ERKNS0_12ArenaOptionsE",
   "parameters" :
   [
    {
     "is_this_ptr" : true,
     "referenced_type" : "_ZTIPN6google8protobuf5ArenaE"
    },
    {
     "referenced_type" : "_ZTIRKN6google8protobuf12ArenaOptionsE"
    }
   ],
   "return_type" : "_ZTIv",
   "source_file" : "external/protobuf/src/google/protobuf/arena.h"
  },
  {
   "function_name" : "google::protobuf::Arena::Arena",
   "linker_set_key" : "_ZN6google8protobuf5ArenaC2Ev",
   "parameters" :
   [
    {
     "is_this_ptr" : true,
     "referenced_type" : "_ZTIPN6google8protobuf5ArenaE"
    }
   ],
   "return_type" : "_ZTIv",
   "source_file" : "external/protobuf/src/google/protobuf/arena.h"
  },
  {
   "function_name" : "google::protobuf::Arena::~Arena",
   "linker_set_key" : "_ZN6google8protobuf5ArenaD1Ev",
   "parameters" :
   [
    {
     "is_this_ptr" : true,
     "referenced_type" : "_ZTIPN6google8protobuf5ArenaE"
    }
   ],
   "return_type" : "_ZTIv",
   "source_file" : "external/protobuf/src/google/protobuf/arena.h"
  },
  {
   "function_name" : "google::protobuf::Arena::~Arena",
   "linker_set_key" : "_ZN6google8protobuf5ArenaD2Ev",
   "parameters" :
   [
    {
     "is_this_ptr" : true,
     "referenced_type" : "_ZTIPN6google8protobuf5ArenaE"
    }
   ],
   "return_type" : "_ZTIv",
   "source_file" : "external/protobuf/src/google/protobuf/arena.h"
  },
  {
   "function_name" : "google::protobuf::Split",
   "linker_set_key" : "_ZN6google8protobuf5SplitERKNSt3__112basic_stringIcNS1_11char_traitsIcEENS1_9allocatorIcEEEEPKcb",
   "parameters" :
   [
    {
     "referenced_type" : "_ZTIRKNSt3__112basic_stringIcNS_11char_traitsIcEENS_9allocatorIcEEEE"
    },
    {
     "referenced_type" : "_ZTIPKc"
    },
    {
     "default_arg" : true,
     "referenced_type" : "_ZTIb"
    }
   ],
   "return_type" : "_ZTINSt3__16vectorINS_12basic_stringIcNS_11char_traitsIcEENS_9allocatorIcEEEENS4_IS6_EEEE",
   "source_file" : "external/protobuf/src/google/protobuf/stubs/strutil.h"
  },
  {
   "function_name" : "google::protobuf::StrCat",
   "linker_set_key" : "_ZN6google8protobuf6StrCatERKNS0_7strings8AlphaNumE",
   "parameters" :
   [
    {
     "referenced_type" : "_ZTIRKN6google8protobuf7strings8AlphaNumE"
    }
   ],
   "return_type" : "_ZTINSt3__112basic_stringIcNS_11char_traitsIcEENS_9allocatorIcEEEE",
   "source_file" : "external/protobuf/src/google/protobuf/stubs/strutil.h"
  },
  {
   "function_name" : "google::protobuf::Closure::Closure",
   "linker_set_key" : "_ZN6google8protobuf7ClosureC2Ev",
   "parameters" :
   [
    {
     "is_this_ptr" : true,
     "referenced_type" : "_ZTIPN6google8protobuf7ClosureE"
    }
   ],
   "return_type" : "_ZTIv",
   "source_file" : "external/protobuf/src/google/protobuf/stubs/callback.h"
  },
  {
   "function_name" : "google::protobuf::ToUpper",
   "linker_set_key" : "_ZN6google8protobuf7ToUpperERKNSt3__112basic_stringIcNS1_11char_traitsIcEENS1_9allocatorIcEEEE",
   "parameters" :
   [
    {
     "referenced_type" : "_ZTIRKNSt3__112basic_stringIcNS_11char_traitsIcEENS_9allocatorIcEEEE"
    }
   ],
   "return_type" : "_ZTINSt3__112basic_stringIcNS_11char_traitsIcEENS_9allocatorIcEEEE",
   "source_file" : "external/protobuf/src/google/protobuf/stubs/strutil.h"
  },
  {
   "function_name" : "google::protobuf::strings::AlphaNum::AlphaNum",
   "linker_set_key" : "_ZN6google8protobuf7strings8AlphaNumC1ENS0_11StringPieceE",
   "parameters" :
   [
    {
     "is_this_ptr" : true,
     "referenced_type" : "_ZTIPN6google8protobuf7strings8AlphaNumE"
    },
    {
     "referenced_type" : "_ZTIN6google8protobuf11StringPieceE"
    }
   ],
   "return_type" : "_ZTIv",
   "source_file" : "external/protobuf/src/google/protobuf/stubs/strutil.h"
  },
  {
   "function_name" : "google::protobuf::strings::AlphaNum::AlphaNum",
   "linker_set_key" : "_ZN6google8protobuf7strings8AlphaNumC1ENS0_8internal14StringPiecePodE",
   "parameters" :
   [
    {
     "is_this_ptr" : true,
     "referenced_type" : "_ZTIPN6google8protobuf7strings8AlphaNumE"
    },
    {
     "referenced_type" : "_ZTIN6google8protobuf8internal14StringPiecePodE"
    }
   ],
   "return_type" : "_ZTIv",
   "source_file" : "external/protobuf/src/google/protobuf/stubs/strutil.h"
  },
  {
   "function_name" : "google::protobuf::strings::AlphaNum::AlphaNum",
   "linker_set_key" : "_ZN6google8protobuf7strings8AlphaNumC1EPKc",
   "parameters" :
   [
    {
     "is_this_ptr" : true,
     "referenced_type" : "_ZTIPN6google8protobuf7strings8AlphaNumE"
    },
    {
     "referenced_type" : "_ZTIPKc"
    }
   ],
   "return_type" : "_ZTIv",
   "source_file" : "external/protobuf/src/google/protobuf/stubs/strutil.h"
  },
  {
   "function_name" : "google::protobuf::strings::AlphaNum::AlphaNum",
   "linker_set_key" : "_ZN6google8protobuf7strings8AlphaNumC1ERKNSt3__112basic_stringIcNS3_11char_traitsIcEENS3_9allocatorIcEEEE",
   "parameters" :
   [
    {
     "is_this_ptr" : true,
     "referenced_type" : "_ZTIPN6google8protobuf7strings8AlphaNumE"
    },
    {
     "referenced_type" : "_ZTIRKNSt3__112basic_stringIcNS_11char_traitsIcEENS_9allocatorIcEEEE"
    }
   ],
   "return_type" : "_ZTIv",
   "source_file" : "external/protobuf/src/google/protobuf/stubs/strutil.h"
  },
  {
   "function_name" : "google::protobuf::strings::AlphaNum::AlphaNum",
   "linker_set_key" : "_ZN6google8protobuf7strings8AlphaNumC1Ed",
   "parameters" :
   [
    {
     "is_this_ptr" : true,
     "referenced_type" : "_ZTIPN6google8protobuf7strings8AlphaNumE"
    },
    {
     "referenced_type" : "_ZTId"
    }
   ],
   "return_type" : "_ZTIv",
   "source_file" : "external/protobuf/src/google/protobuf/stubs/strutil.h"
  },
  {
   "function_name" : "google::protobuf::strings::AlphaNum::AlphaNum",
   "linker_set_key" : "_ZN6google8protobuf7strings8AlphaNumC1Ef",
   "parameters" :
   [
    {
     "is_this_ptr" : true,
     "referenced_type" : "_ZTIPN6google8protobuf7strings8AlphaNumE"
    },
    {
     "referenced_type" : "_ZTIf"
    }
   ],
   "return_type" : "_ZTIv",
   "source_file" : "external/protobuf/src/google/protobuf/stubs/strutil.h"
  },
  {
   "function_name" : "google::protobuf::strings::AlphaNum::AlphaNum",
   "linker_set_key" : "_ZN6google8protobuf7strings8AlphaNumC1Ei",
   "parameters" :
   [
    {
     "is_this_ptr" : true,
     "referenced_type" : "_ZTIPN6google8protobuf7strings8AlphaNumE"
    },
    {
     "referenced_type" : "_ZTIi"
    }
   ],
   "return_type" : "_ZTIv",
   "source_file" : "external/protobuf/src/google/protobuf/stubs/strutil.h"
  },
  {
   "function_name" : "google::protobuf::strings::AlphaNum::AlphaNum",
   "linker_set_key" : "_ZN6google8protobuf7strings8AlphaNumC1Ej",
   "parameters" :
   [
    {
     "is_this_ptr" : true,
     "referenced_type" : "_ZTIPN6google8protobuf7strings8AlphaNumE"
    },
    {
     "referenced_type" : "_ZTIj"
    }
   ],
   "return_type" : "_ZTIv",
   "source_file" : "external/protobuf/src/google/protobuf/stubs/strutil.h"
  },
  {
   "function_name" : "google::protobuf::strings::AlphaNum::AlphaNum",
   "linker_set_key" : "_ZN6google8protobuf7strings8AlphaNumC1El",
   "parameters" :
   [
    {
     "is_this_ptr" : true,
     "referenced_type" : "_ZTIPN6google8protobuf7strings8AlphaNumE"
    },
    {
     "referenced_type" : "_ZTIl"
    }
   ],
   "return_type" : "_ZTIv",
   "source_file" : "external/protobuf/src/google/protobuf/stubs/strutil.h"
  },
  {
   "function_name" : "google::protobuf::strings::AlphaNum::AlphaNum",
   "linker_set_key" : "_ZN6google8protobuf7strings8AlphaNumC1Em",
   "parameters" :
   [
    {
     "is_this_ptr" : true,
     "referenced_type" : "_ZTIPN6google8protobuf7strings8AlphaNumE"
    },
    {
     "referenced_type" : "_ZTIm"
    }
   ],
   "return_type" : "_ZTIv",
   "source_file" : "external/protobuf/src/google/protobuf/stubs/strutil.h"
  },
  {
   "function_name" : "google::protobuf::strings::AlphaNum::AlphaNum",
   "linker_set_key" : "_ZN6google8protobuf7strings8AlphaNumC1Ex",
   "parameters" :
   [
    {
     "is_this_ptr" : true,
     "referenced_type" : "_ZTIPN6google8protobuf7strings8AlphaNumE"
    },
    {
     "referenced_type" : "_ZTIx"
    }
   ],
   "return_type" : "_ZTIv",
   "source_file" : "external/protobuf/src/google/protobuf/stubs/strutil.h"
  },
  {
   "function_name" : "google::protobuf::strings::AlphaNum::AlphaNum",
   "linker_set_key" : "_ZN6google8protobuf7strings8AlphaNumC1Ey",
   "parameters" :
   [
    {
     "is_this_ptr" : true,
     "referenced_type" : "_ZTIPN6google8protobuf7strings8AlphaNumE"
    },
    {
     "referenced_type" : "_ZTIy"
    }
   ],
   "return_type" : "_ZTIv",
   "source_file" : "external/protobuf/src/google/protobuf/stubs/strutil.h"
  },
  {
   "function_name" : "google::protobuf::strings::AlphaNum::AlphaNum",
   "linker_set_key" : "_ZN6google8protobuf7strings8AlphaNumC2ENS0_11StringPieceE",
   "parameters" :
   [
    {
     "is_this_ptr" : true,
     "referenced_type" : "_ZTIPN6google8protobuf7strings8AlphaNumE"
    },
    {
     "referenced_type" : "_ZTIN6google8protobuf11StringPieceE"
    }
   ],
   "return_type" : "_ZTIv",
   "source_file" : "external/protobuf/src/google/protobuf/stubs/strutil.h"
  },
  {
   "function_name" : "google::protobuf::strings::AlphaNum::AlphaNum",
   "linker_set_key" : "_ZN6google8protobuf7strings8AlphaNumC2ENS0_8internal14StringPiecePodE",
   "parameters" :
   [
    {
     "is_this_ptr" : true,
     "referenced_type" : "_ZTIPN6google8protobuf7strings8AlphaNumE"
    },
    {
     "referenced_type" : "_ZTIN6google8protobuf8internal14StringPiecePodE"
    }
   ],
   "return_type" : "_ZTIv",
   "source_file" : "external/protobuf/src/google/protobuf/stubs/strutil.h"
  },
  {
   "function_name" : "google::protobuf::strings::AlphaNum::AlphaNum",
   "linker_set_key" : "_ZN6google8protobuf7strings8AlphaNumC2EPKc",
   "parameters" :
   [
    {
     "is_this_ptr" : true,
     "referenced_type" : "_ZTIPN6google8protobuf7strings8AlphaNumE"
    },
    {
     "referenced_type" : "_ZTIPKc"
    }
   ],
   "return_type" : "_ZTIv",
   "source_file" : "external/protobuf/src/google/protobuf/stubs/strutil.h"
  },
  {
   "function_name" : "google::protobuf::strings::AlphaNum::AlphaNum",
   "linker_set_key" : "_ZN6google8protobuf7strings8AlphaNumC2ERKNSt3__112basic_stringIcNS3_11char_traitsIcEENS3_9allocatorIcEEEE",
   "parameters" :
   [
    {
     "is_this_ptr" : true,
     "referenced_type" : "_ZTIPN6google8protobuf7strings8AlphaNumE"
    },
    {
     "referenced_type" : "_ZTIRKNSt3__112basic_stringIcNS_11char_traitsIcEENS_9allocatorIcEEEE"
    }
   ],
   "return_type" : "_ZTIv",
   "source_file" : "external/protobuf/src/google/protobuf/stubs/strutil.h"
  },
  {
   "function_name" : "google::protobuf::strings::AlphaNum::AlphaNum",
   "linker_set_key" : "_ZN6google8protobuf7strings8AlphaNumC2Ed",
   "parameters" :
   [
    {
     "is_this_ptr" : true,
     "referenced_type" : "_ZTIPN6google8protobuf7strings8AlphaNumE"
    },
    {
     "referenced_type" : "_ZTId"
    }
   ],
   "return_type" : "_ZTIv",
   "source_file" : "external/protobuf/src/google/protobuf/stubs/strutil.h"
  },
  {
   "function_name" : "google::protobuf::strings::AlphaNum::AlphaNum",
   "linker_set_key" : "_ZN6google8protobuf7strings8AlphaNumC2Ef",
   "parameters" :
   [
    {
     "is_this_ptr" : true,
     "referenced_type" : "_ZTIPN6google8protobuf7strings8AlphaNumE"
    },
    {
     "referenced_type" : "_ZTIf"
    }
   ],
   "return_type" : "_ZTIv",
   "source_file" : "external/protobuf/src/google/protobuf/stubs/strutil.h"
  },
  {
   "function_name" : "google::protobuf::strings::AlphaNum::AlphaNum",
   "linker_set_key" : "_ZN6google8protobuf7strings8AlphaNumC2Ei",
   "parameters" :
   [
    {
     "is_this_ptr" : true,
     "referenced_type" : "_ZTIPN6google8protobuf7strings8AlphaNumE"
    },
    {
     "referenced_type" : "_ZTIi"
    }
   ],
   "return_type" : "_ZTIv",
   "source_file" : "external/protobuf/src/google/protobuf/stubs/strutil.h"
  },
  {
   "function_name" : "google::protobuf::strings::AlphaNum::AlphaNum",
   "linker_set_key" : "_ZN6google8protobuf7strings8AlphaNumC2Ej",
   "parameters" :
   [
    {
     "is_this_ptr" : true,
     "referenced_type" : "_ZTIPN6google8protobuf7strings8AlphaNumE"
    },
    {
     "referenced_type" : "_ZTIj"
    }
   ],
   "return_type" : "_ZTIv",
   "source_file" : "external/protobuf/src/google/protobuf/stubs/strutil.h"
  },
  {
   "function_name" : "google::protobuf::strings::AlphaNum::AlphaNum",
   "linker_set_key" : "_ZN6google8protobuf7strings8AlphaNumC2El",
   "parameters" :
   [
    {
     "is_this_ptr" : true,
     "referenced_type" : "_ZTIPN6google8protobuf7strings8AlphaNumE"
    },
    {
     "referenced_type" : "_ZTIl"
    }
   ],
   "return_type" : "_ZTIv",
   "source_file" : "external/protobuf/src/google/protobuf/stubs/strutil.h"
  },
  {
   "function_name" : "google::protobuf::strings::AlphaNum::AlphaNum",
   "linker_set_key" : "_ZN6google8protobuf7strings8AlphaNumC2Em",
   "parameters" :
   [
    {
     "is_this_ptr" : true,
     "referenced_type" : "_ZTIPN6google8protobuf7strings8AlphaNumE"
    },
    {
     "referenced_type" : "_ZTIm"
    }
   ],
   "return_type" : "_ZTIv",
   "source_file" : "external/protobuf/src/google/protobuf/stubs/strutil.h"
  },
  {
   "function_name" : "google::protobuf::strings::AlphaNum::AlphaNum",
   "linker_set_key" : "_ZN6google8protobuf7strings8AlphaNumC2Ex",
   "parameters" :
   [
    {
     "is_this_ptr" : true,
     "referenced_type" : "_ZTIPN6google8protobuf7strings8AlphaNumE"
    },
    {
     "referenced_type" : "_ZTIx"
    }
   ],
   "return_type" : "_ZTIv",
   "source_file" : "external/protobuf/src/google/protobuf/stubs/strutil.h"
  },
  {
   "function_name" : "google::protobuf::strings::AlphaNum::AlphaNum",
   "linker_set_key" : "_ZN6google8protobuf7strings8AlphaNumC2Ey",
   "parameters" :
   [
    {
     "is_this_ptr" : true,
     "referenced_type" : "_ZTIPN6google8protobuf7strings8AlphaNumE"
    },
    {
     "referenced_type" : "_ZTIy"
    }
   ],
   "return_type" : "_ZTIv",
   "source_file" : "external/protobuf/src/google/protobuf/stubs/strutil.h"
  },
  {
   "function_name" : "google::protobuf::strings::EndsWith",
   "linker_set_key" : "_ZN6google8protobuf7strings8EndsWithENS0_11StringPieceES2_",
   "parameters" :
   [
    {
     "referenced_type" : "_ZTIN6google8protobuf11StringPieceE"
    },
    {
     "referenced_type" : "_ZTIN6google8protobuf11StringPieceE"
    }
   ],
   "return_type" : "_ZTIb",
   "source_file" : "external/protobuf/src/google/protobuf/stubs/strutil.h"
  },
  {
   "function_name" : "google::protobuf::strto32",
   "linker_set_key" : "_ZN6google8protobuf7strto32EPKcPPci",
   "parameters" :
   [
    {
     "referenced_type" : "_ZTIPKc"
    },
    {
     "referenced_type" : "_ZTIPPc"
    },
    {
     "referenced_type" : "_ZTIi"
    }
   ],
   "return_type" : "_ZTIi",
   "source_file" : "external/protobuf/src/google/protobuf/stubs/strutil.h"
  },
  {
   "function_name" : "google::protobuf::strto64",
   "linker_set_key" : "_ZN6google8protobuf7strto64EPKcPPci",
   "parameters" :
   [
    {
     "referenced_type" : "_ZTIPKc"
    },
    {
     "referenced_type" : "_ZTIPPc"
    },
    {
     "referenced_type" : "_ZTIi"
    }
   ],
   "return_type" : "_ZTIx",
   "source_file" : "external/protobuf/src/google/protobuf/stubs/strutil.h"
  },
  {
   "function_name" : "google::protobuf::internal::AlignUpTo8",
   "linker_set_key" : "_ZN6google8protobuf8internal10AlignUpTo8Ej",
   "parameters" :
   [
    {
     "referenced_type" : "_ZTIj"
    }
   ],
   "return_type" : "_ZTIj",
   "source_file" : "external/protobuf/src/google/protobuf/arena_impl.h"
  },
  {
   "function_name" : "google::protobuf::internal::CachedSize::Set",
   "linker_set_key" : "_ZN6google8protobuf8internal10CachedSize3SetEi",
   "parameters" :
   [
    {
     "is_this_ptr" : true,
     "referenced_type" : "_ZTIPN6google8protobuf8internal10CachedSizeE"
    },
    {
     "referenced_type" : "_ZTIi"
    }
   ],
   "return_type" : "_ZTIv",
   "source_file" : "external/protobuf/src/google/protobuf/generated_message_util.h"
  },
  {
   "function_name" : "google::protobuf::internal::ReadVarint",
   "linker_set_key" : "_ZN6google8protobuf8internal10ReadVarintEPPKc",
   "parameters" :
   [
    {
     "referenced_type" : "_ZTIPPKc"
    }
   ],
   "return_type" : "_ZTIy",
   "source_file" : "external/protobuf/src/google/protobuf/parse_context.h"
  },
  {
   "function_name" : "google::protobuf::internal::ReadVarint",
   "linker_set_key" : "_ZN6google8protobuf8internal10ReadVarintEPPKcj",
   "parameters" :
   [
    {
     "referenced_type" : "_ZTIPPKc"
    },
    {
     "referenced_type" : "_ZTIj"
    }
   ],
   "return_type" : "_ZTIy",
   "source_file" : "external/protobuf/src/google/protobuf/parse_context.h"
  },
  {
   "function_name" : "google::protobuf::internal::arena_free",
   "linker_set_key" : "_ZN6google8protobuf8internal10arena_freeEPvj",
   "parameters" :
   [
    {
     "referenced_type" : "_ZTIPv"
    },
    {
     "referenced_type" : "_ZTIj"
    }
   ],
   "return_type" : "_ZTIv",
   "source_file" : "external/protobuf/src/google/protobuf/arena.h"
  },
  {
   "function_name" : "google::protobuf::internal::FromIntSize",
   "linker_set_key" : "_ZN6google8protobuf8internal11FromIntSizeEi",
   "parameters" :
   [
    {
     "referenced_type" : "_ZTIi"
    }
   ],
   "return_type" : "_ZTIj",
   "source_file" : "external/protobuf/src/google/protobuf/message_lite.h"
  },
  {
   "function_name" : "google::protobuf::internal::FieldSkipper::FieldSkipper",
   "linker_set_key" : "_ZN6google8protobuf8internal12FieldSkipperC1Ev",
   "parameters" :
   [
    {
     "is_this_ptr" : true,
     "referenced_type" : "_ZTIPN6google8protobuf8internal12FieldSkipperE"
    }
   ],
   "return_type" : "_ZTIv",
   "source_file" : "external/protobuf/src/google/protobuf/wire_format_lite.h"
  },
  {
   "function_name" : "google::protobuf::internal::FieldSkipper::FieldSkipper",
   "linker_set_key" : "_ZN6google8protobuf8internal12FieldSkipperC2Ev",
   "parameters" :
   [
    {
     "is_this_ptr" : true,
     "referenced_type" : "_ZTIPN6google8protobuf8internal12FieldSkipperE"
    }
   ],
   "return_type" : "_ZTIv",
   "source_file" : "external/protobuf/src/google/protobuf/wire_format_lite.h"
  },
  {
   "function_name" : "google::protobuf::internal::FieldSkipper::~FieldSkipper",
   "linker_set_key" : "_ZN6google8protobuf8internal12FieldSkipperD0Ev",
   "parameters" :
   [
    {
     "is_this_ptr" : true,
     "referenced_type" : "_ZTIPN6google8protobuf8internal12FieldSkipperE"
    }
   ],
   "return_type" : "_ZTIv",
   "source_file" : "external/protobuf/src/google/protobuf/wire_format_lite.h"
  },
  {
   "function_name" : "google::protobuf::internal::FieldSkipper::~FieldSkipper",
   "linker_set_key" : "_ZN6google8protobuf8internal12FieldSkipperD1Ev",
   "parameters" :
   [
    {
     "is_this_ptr" : true,
     "referenced_type" : "_ZTIPN6google8protobuf8internal12FieldSkipperE"
    }
   ],
   "return_type" : "_ZTIv",
   "source_file" : "external/protobuf/src/google/protobuf/wire_format_lite.h"
  },
  {
   "function_name" : "google::protobuf::internal::FieldSkipper::~FieldSkipper",
   "linker_set_key" : "_ZN6google8protobuf8internal12FieldSkipperD2Ev",
   "parameters" :
   [
    {
     "is_this_ptr" : true,
     "referenced_type" : "_ZTIPN6google8protobuf8internal12FieldSkipperE"
    }
   ],
   "return_type" : "_ZTIv",
   "source_file" : "external/protobuf/src/google/protobuf/wire_format_lite.h"
  },
  {
   "function_name" : "google::protobuf::internal::ParseContext::DoneNoSlopCheck",
   "linker_set_key" : "_ZN6google8protobuf8internal12ParseContext15DoneNoSlopCheckEPPKc",
   "parameters" :
   [
    {
     "is_this_ptr" : true,
     "referenced_type" : "_ZTIPN6google8protobuf8internal12ParseContextE"
    },
    {
     "referenced_type" : "_ZTIPPKc"
    }
   ],
   "return_type" : "_ZTIb",
   "source_file" : "external/protobuf/src/google/protobuf/parse_context.h"
  },
  {
   "function_name" : "google::protobuf::internal::ParseContext::TrackCorrectEnding",
   "linker_set_key" : "_ZN6google8protobuf8internal12ParseContext18TrackCorrectEndingEv",
   "parameters" :
   [
    {
     "is_this_ptr" : true,
     "referenced_type" : "_ZTIPN6google8protobuf8internal12ParseContextE"
    }
   ],
   "return_type" : "_ZTIv",
   "source_file" : "external/protobuf/src/google/protobuf/parse_context.h"
  },
  {
   "function_name" : "google::protobuf::internal::ParseContext::Done",
   "linker_set_key" : "_ZN6google8protobuf8internal12ParseContext4DoneEPPKc",
   "parameters" :
   [
    {
     "is_this_ptr" : true,
     "referenced_type" : "_ZTIPN6google8protobuf8internal12ParseContextE"
    },
    {
     "referenced_type" : "_ZTIPPKc"
    }
   ],
   "return_type" : "_ZTIb",
   "source_file" : "external/protobuf/src/google/protobuf/parse_context.h"
  },
  {
   "function_name" : "google::protobuf::internal::ParseContext::data",
   "linker_set_key" : "_ZN6google8protobuf8internal12ParseContext4dataEv",
   "parameters" :
   [
    {
     "is_this_ptr" : true,
     "referenced_type" : "_ZTIPN6google8protobuf8internal12ParseContextE"
    }
   ],
   "return_type" : "_ZTIRN6google8protobuf8internal12ParseContext4DataE",
   "source_file" : "external/protobuf/src/google/protobuf/parse_context.h"
  },
  {
   "function_name" : "google::protobuf::internal::ToCachedSize",
   "linker_set_key" : "_ZN6google8protobuf8internal12ToCachedSizeEj",
   "parameters" :
   [
    {
     "referenced_type" : "_ZTIj"
    }
   ],
   "return_type" : "_ZTIi",
   "source_file" : "external/protobuf/src/google/protobuf/message_lite.h"
  },
  {
   "function_name" : "google::protobuf::internal::ParseVarint64",
   "linker_set_key" : "_ZN6google8protobuf8internal13ParseVarint64EPKcPy",
   "parameters" :
   [
    {
     "referenced_type" : "_ZTIPKc"
    },
    {
     "referenced_type" : "_ZTIPy"
    }
   ],
   "return_type" : "_ZTIPKc",
   "source_file" : "external/protobuf/src/google/protobuf/parse_context.h"
  },
  {
   "function_name" : "google::protobuf::internal::ParseVarint64",
   "linker_set_key" : "_ZN6google8protobuf8internal13ParseVarint64EPKcjPy",
   "parameters" :
   [
    {
     "referenced_type" : "_ZTIPKc"
    },
    {
     "referenced_type" : "_ZTIj"
    },
    {
     "referenced_type" : "_ZTIPy"
    }
   ],
   "return_type" : "_ZTIPKc",
   "source_file" : "external/protobuf/src/google/protobuf/parse_context.h"
  },
  {
   "function_name" : "google::protobuf::internal::UnalignedLoad",
   "linker_set_key" : "_ZN6google8protobuf8internal13UnalignedLoadItEET_PKv",
   "parameters" :
   [
    {
     "referenced_type" : "_ZTIPKv"
    }
   ],
   "return_type" : "_ZTIt",
   "source_file" : "external/protobuf/src/google/protobuf/parse_context.h",
   "template_args" : [ "_ZTIt" ]
  },
  {
   "function_name" : "google::protobuf::internal::ArenaStringPtr::SetNoArena",
   "linker_set_key" : "_ZN6google8protobuf8internal14ArenaStringPtr10SetNoArenaEPKNSt3__112basic_stringIcNS3_11char_traitsIcEENS3_9allocatorIcEEEEOS9_",
   "parameters" :
   [
    {
     "is_this_ptr" : true,
     "referenced_type" : "_ZTIPN6google8protobuf8internal14ArenaStringPtrE"
    },
    {
     "referenced_type" : "_ZTIPKNSt3__112basic_stringIcNS_11char_traitsIcEENS_9allocatorIcEEEE"
    },
    {
     "referenced_type" : "_ZTIONSt3__112basic_stringIcNS_11char_traitsIcEENS_9allocatorIcEEEE"
    }
   ],
   "return_type" : "_ZTIv",
   "source_file" : "external/protobuf/src/google/protobuf/arenastring.h"
  },
  {
   "function_name" : "google::protobuf::internal::ArenaStringPtr::SetNoArena",
   "linker_set_key" : "_ZN6google8protobuf8internal14ArenaStringPtr10SetNoArenaEPKNSt3__112basic_stringIcNS3_11char_traitsIcEENS3_9allocatorIcEEEERSA_",
   "parameters" :
   [
    {
     "is_this_ptr" : true,
     "referenced_type" : "_ZTIPN6google8protobuf8internal14ArenaStringPtrE"
    },
    {
     "referenced_type" : "_ZTIPKNSt3__112basic_stringIcNS_11char_traitsIcEENS_9allocatorIcEEEE"
    },
    {
     "referenced_type" : "_ZTIRKNSt3__112basic_stringIcNS_11char_traitsIcEENS_9allocatorIcEEEE"
    }
   ],
   "return_type" : "_ZTIv",
   "source_file" : "external/protobuf/src/google/protobuf/arenastring.h"
  },
  {
   "function_name" : "google::protobuf::internal::ArenaStringPtr::ClearToEmpty",
   "linker_set_key" : "_ZN6google8protobuf8internal14ArenaStringPtr12ClearToEmptyEPKNSt3__112basic_stringIcNS3_11char_traitsIcEENS3_9allocatorIcEEEEPNS0_5ArenaE",
   "parameters" :
   [
    {
     "is_this_ptr" : true,
     "referenced_type" : "_ZTIPN6google8protobuf8internal14ArenaStringPtrE"
    },
    {
     "referenced_type" : "_ZTIPKNSt3__112basic_stringIcNS_11char_traitsIcEENS_9allocatorIcEEEE"
    },
    {
     "referenced_type" : "_ZTIPN6google8protobuf5ArenaE"
    }
   ],
   "return_type" : "_ZTIv",
   "source_file" : "external/protobuf/src/google/protobuf/arenastring.h"
  },
  {
   "function_name" : "google::protobuf::internal::ArenaStringPtr::SetAllocated",
   "linker_set_key" : "_ZN6google8protobuf8internal14ArenaStringPtr12SetAllocatedEPKNSt3__112basic_stringIcNS3_11char_traitsIcEENS3_9allocatorIcEEEEPS9_PNS0_5ArenaE",
   "parameters" :
   [
    {
     "is_this_ptr" : true,
     "referenced_type" : "_ZTIPN6google8protobuf8internal14ArenaStringPtrE"
    },
    {
     "referenced_type" : "_ZTIPKNSt3__112basic_stringIcNS_11char_traitsIcEENS_9allocatorIcEEEE"
    },
    {
     "referenced_type" : "_ZTIPNSt3__112basic_stringIcNS_11char_traitsIcEENS_9allocatorIcEEEE"
    },
    {
     "referenced_type" : "_ZTIPN6google8protobuf5ArenaE"
    }
   ],
   "return_type" : "_ZTIv",
   "source_file" : "external/protobuf/src/google/protobuf/arenastring.h"
  },
  {
   "function_name" : "google::protobuf::internal::ArenaStringPtr::ClearToDefault",
   "linker_set_key" : "_ZN6google8protobuf8internal14ArenaStringPtr14ClearToDefaultEPKNSt3__112basic_stringIcNS3_11char_traitsIcEENS3_9allocatorIcEEEEPNS0_5ArenaE",
   "parameters" :
   [
    {
     "is_this_ptr" : true,
     "referenced_type" : "_ZTIPN6google8protobuf8internal14ArenaStringPtrE"
    },
    {
     "referenced_type" : "_ZTIPKNSt3__112basic_stringIcNS_11char_traitsIcEENS_9allocatorIcEEEE"
    },
    {
     "referenced_type" : "_ZTIPN6google8protobuf5ArenaE"
    }
   ],
   "return_type" : "_ZTIv",
   "source_file" : "external/protobuf/src/google/protobuf/arenastring.h"
  },
  {
   "access" : "private",
   "function_name" : "google::protobuf::internal::ArenaStringPtr::CreateInstance",
   "linker_set_key" : "_ZN6google8protobuf8internal14ArenaStringPtr14CreateInstanceEPNS0_5ArenaEPKNSt3__112basic_stringIcNS5_11char_traitsIcEENS5_9allocatorIcEEEE",
   "parameters" :
   [
    {
     "is_this_ptr" : true,
     "referenced_type" : "_ZTIPN6google8protobuf8internal14ArenaStringPtrE"
    },
    {
     "referenced_type" : "_ZTIPN6google8protobuf5ArenaE"
    },
    {
     "referenced_type" : "_ZTIPKNSt3__112basic_stringIcNS_11char_traitsIcEENS_9allocatorIcEEEE"
    }
   ],
   "return_type" : "_ZTIv",
   "source_file" : "external/protobuf/src/google/protobuf/arenastring.h"
  },
  {
   "function_name" : "google::protobuf::internal::ArenaStringPtr::DestroyNoArena",
   "linker_set_key" : "_ZN6google8protobuf8internal14ArenaStringPtr14DestroyNoArenaEPKNSt3__112basic_stringIcNS3_11char_traitsIcEENS3_9allocatorIcEEEE",
   "parameters" :
   [
    {
     "is_this_ptr" : true,
     "referenced_type" : "_ZTIPN6google8protobuf8internal14ArenaStringPtrE"
    },
    {
     "referenced_type" : "_ZTIPKNSt3__112basic_stringIcNS_11char_traitsIcEENS_9allocatorIcEEEE"
    }
   ],
   "return_type" : "_ZTIv",
   "source_file" : "external/protobuf/src/google/protobuf/arenastring.h"
  },
  {
   "function_name" : "google::protobuf::internal::ArenaStringPtr::MutableNoArena",
   "linker_set_key" : "_ZN6google8protobuf8internal14ArenaStringPtr14MutableNoArenaEPKNSt3__112basic_stringIcNS3_11char_traitsIcEENS3_9allocatorIcEEEE",
   "parameters" :
   [
    {
     "is_this_ptr" : true,
     "referenced_type" : "_ZTIPN6google8protobuf8internal14ArenaStringPtrE"
    },
    {
     "referenced_type" : "_ZTIPKNSt3__112basic_stringIcNS_11char_traitsIcEENS_9allocatorIcEEEE"
    }
   ],
   "return_type" : "_ZTIPNSt3__112basic_stringIcNS_11char_traitsIcEENS_9allocatorIcEEEE",
   "source_file" : "external/protobuf/src/google/protobuf/arenastring.h"
  },
  {
   "function_name" : "google::protobuf::internal::ArenaStringPtr::ReleaseNoArena",
   "linker_set_key" : "_ZN6google8protobuf8internal14ArenaStringPtr14ReleaseNoArenaEPKNSt3__112basic_stringIcNS3_11char_traitsIcEENS3_9allocatorIcEEEE",
   "parameters" :
   [
    {
     "is_this_ptr" : true,
     "referenced_type" : "_ZTIPN6google8protobuf8internal14ArenaStringPtrE"
    },
    {
     "referenced_type" : "_ZTIPKNSt3__112basic_stringIcNS_11char_traitsIcEENS_9allocatorIcEEEE"
    }
   ],
   "return_type" : "_ZTIPNSt3__112basic_stringIcNS_11char_traitsIcEENS_9allocatorIcEEEE",
   "source_file" : "external/protobuf/src/google/protobuf/arenastring.h"
  },
  {
   "function_name" : "google::protobuf::internal::ArenaStringPtr::UnsafeSetDefault",
   "linker_set_key" : "_ZN6google8protobuf8internal14ArenaStringPtr16UnsafeSetDefaultEPKNSt3__112basic_stringIcNS3_11char_traitsIcEENS3_9allocatorIcEEEE",
   "parameters" :
   [
    {
     "is_this_ptr" : true,
     "referenced_type" : "_ZTIPN6google8protobuf8internal14ArenaStringPtrE"
    },
    {
     "referenced_type" : "_ZTIPKNSt3__112basic_stringIcNS_11char_traitsIcEENS_9allocatorIcEEEE"
    }
   ],
   "return_type" : "_ZTIv",
   "source_file" : "external/protobuf/src/google/protobuf/arenastring.h"
  },
  {
   "function_name" : "google::protobuf::internal::ArenaStringPtr::AssignWithDefault",
   "linker_set_key" : "_ZN6google8protobuf8internal14ArenaStringPtr17AssignWithDefaultEPKNSt3__112basic_stringIcNS3_11char_traitsIcEENS3_9allocatorIcEEEES2_",
   "parameters" :
   [
    {
     "is_this_ptr" : true,
     "referenced_type" : "_ZTIPN6google8protobuf8internal14ArenaStringPtrE"
    },
    {
     "referenced_type" : "_ZTIPKNSt3__112basic_stringIcNS_11char_traitsIcEENS_9allocatorIcEEEE"
    },
    {
     "referenced_type" : "_ZTIN6google8protobuf8internal14ArenaStringPtrE"
    }
   ],
   "return_type" : "_ZTIv",
   "source_file" : "external/protobuf/src/google/protobuf/arenastring.h"
  },
  {
   "function_name" : "google::protobuf::internal::ArenaStringPtr::ReleaseNonDefault",
   "linker_set_key" : "_ZN6google8protobuf8internal14ArenaStringPtr17ReleaseNonDefaultEPKNSt3__112basic_stringIcNS3_11char_traitsIcEENS3_9allocatorIcEEEEPNS0_5ArenaE",
   "parameters" :
   [
    {
     "is_this_ptr" : true,
     "referenced_type" : "_ZTIPN6google8protobuf8internal14ArenaStringPtrE"
    },
    {
     "referenced_type" : "_ZTIPKNSt3__112basic_stringIcNS_11char_traitsIcEENS_9allocatorIcEEEE"
    },
    {
     "referenced_type" : "_ZTIPN6google8protobuf5ArenaE"
    }
   ],
   "return_type" : "_ZTIPNSt3__112basic_stringIcNS_11char_traitsIcEENS_9allocatorIcEEEE",
   "source_file" : "external/protobuf/src/google/protobuf/arenastring.h"
  },
  {
   "function_name" : "google::protobuf::internal::ArenaStringPtr::UnsafeArenaRelease",
   "linker_set_key" : "_ZN6google8protobuf8internal14ArenaStringPtr18UnsafeArenaReleaseEPKNSt3__112basic_stringIcNS3_11char_traitsIcEENS3_9allocatorIcEEEEPNS0_5ArenaE",
   "parameters" :
   [
    {
     "is_this_ptr" : true,
     "referenced_type" : "_ZTIPN6google8protobuf8internal14ArenaStringPtrE"
    },
    {
     "referenced_type" : "_ZTIPKNSt3__112basic_stringIcNS_11char_traitsIcEENS_9allocatorIcEEEE"
    },
    {
     "referenced_type" : "_ZTIPN6google8protobuf5ArenaE"
    }
   ],
   "return_type" : "_ZTIPNSt3__112basic_stringIcNS_11char_traitsIcEENS_9allocatorIcEEEE",
   "source_file" : "external/protobuf/src/google/protobuf/arenastring.h"
  },
  {
   "function_name" : "google::protobuf::internal::ArenaStringPtr::ClearToEmptyNoArena",
   "linker_set_key" : "_ZN6google8protobuf8internal14ArenaStringPtr19ClearToEmptyNoArenaEPKNSt3__112basic_stringIcNS3_11char_traitsIcEENS3_9allocatorIcEEEE",
   "parameters" :
   [
    {
     "is_this_ptr" : true,
     "referenced_type" : "_ZTIPN6google8protobuf8internal14ArenaStringPtrE"
    },
    {
     "referenced_type" : "_ZTIPKNSt3__112basic_stringIcNS_11char_traitsIcEENS_9allocatorIcEEEE"
    }
   ],
   "return_type" : "_ZTIv",
   "source_file" : "external/protobuf/src/google/protobuf/arenastring.h"
  },
  {
   "function_name" : "google::protobuf::internal::ArenaStringPtr::SetAllocatedNoArena",
   "linker_set_key" : "_ZN6google8protobuf8internal14ArenaStringPtr19SetAllocatedNoArenaEPKNSt3__112basic_stringIcNS3_11char_traitsIcEENS3_9allocatorIcEEEEPS9_",
   "parameters" :
   [
    {
     "is_this_ptr" : true,
     "referenced_type" : "_ZTIPN6google8protobuf8internal14ArenaStringPtrE"
    },
    {
     "referenced_type" : "_ZTIPKNSt3__112basic_stringIcNS_11char_traitsIcEENS_9allocatorIcEEEE"
    },
    {
     "referenced_type" : "_ZTIPNSt3__112basic_stringIcNS_11char_traitsIcEENS_9allocatorIcEEEE"
    }
   ],
   "return_type" : "_ZTIv",
   "source_file" : "external/protobuf/src/google/protobuf/arenastring.h"
  },
  {
   "function_name" : "google::protobuf::internal::ArenaStringPtr::UnsafeMutablePointer",
   "linker_set_key" : "_ZN6google8protobuf8internal14ArenaStringPtr20UnsafeMutablePointerEv",
   "parameters" :
   [
    {
     "is_this_ptr" : true,
     "referenced_type" : "_ZTIPN6google8protobuf8internal14ArenaStringPtrE"
    }
   ],
   "return_type" : "_ZTIPNSt3__112basic_stringIcNS_11char_traitsIcEENS_9allocatorIcEEEE",
   "source_file" : "external/protobuf/src/google/protobuf/arenastring.h"
  },
  {
   "function_name" : "google::protobuf::internal::ArenaStringPtr::ClearToDefaultNoArena",
   "linker_set_key" : "_ZN6google8protobuf8internal14ArenaStringPtr21ClearToDefaultNoArenaEPKNSt3__112basic_stringIcNS3_11char_traitsIcEENS3_9allocatorIcEEEE",
   "parameters" :
   [
    {
     "is_this_ptr" : true,
     "referenced_type" : "_ZTIPN6google8protobuf8internal14ArenaStringPtrE"
    },
    {
     "referenced_type" : "_ZTIPKNSt3__112basic_stringIcNS_11char_traitsIcEENS_9allocatorIcEEEE"
    }
   ],
   "return_type" : "_ZTIv",
   "source_file" : "external/protobuf/src/google/protobuf/arenastring.h"
  },
  {
   "access" : "private",
   "function_name" : "google::protobuf::internal::ArenaStringPtr::CreateInstanceNoArena",
   "linker_set_key" : "_ZN6google8protobuf8internal14ArenaStringPtr21CreateInstanceNoArenaEPKNSt3__112basic_stringIcNS3_11char_traitsIcEENS3_9allocatorIcEEEE",
   "parameters" :
   [
    {
     "is_this_ptr" : true,
     "referenced_type" : "_ZTIPN6google8protobuf8internal14ArenaStringPtrE"
    },
    {
     "referenced_type" : "_ZTIPKNSt3__112basic_stringIcNS_11char_traitsIcEENS_9allocatorIcEEEE"
    }
   ],
   "return_type" : "_ZTIv",
   "source_file" : "external/protobuf/src/google/protobuf/arenastring.h"
  },
  {
   "function_name" : "google::protobuf::internal::ArenaStringPtr::ClearNonDefaultToEmpty",
   "linker_set_key" : "_ZN6google8protobuf8internal14ArenaStringPtr22ClearNonDefaultToEmptyEv",
   "parameters" :
   [
    {
     "is_this_ptr" : true,
     "referenced_type" : "_ZTIPN6google8protobuf8internal14ArenaStringPtrE"
    }
   ],
   "return_type" : "_ZTIv",
   "source_file" : "external/protobuf/src/google/protobuf/arenastring.h"
  },
  {
   "function_name" : "google::protobuf::internal::ArenaStringPtr::UnsafeRawStringPointer",
   "linker_set_key" : "_ZN6google8protobuf8internal14ArenaStringPtr22UnsafeRawStringPointerEv",
   "parameters" :
   [
    {
     "is_this_ptr" : true,
     "referenced_type" : "_ZTIPN6google8protobuf8internal14ArenaStringPtrE"
    }
   ],
   "return_type" : "_ZTIPPNSt3__112basic_stringIcNS_11char_traitsIcEENS_9allocatorIcEEEE",
   "source_file" : "external/protobuf/src/google/protobuf/arenastring.h"
  },
  {
   "function_name" : "google::protobuf::internal::ArenaStringPtr::UnsafeSetTaggedPointer",
   "linker_set_key" : "_ZN6google8protobuf8internal14ArenaStringPtr22UnsafeSetTaggedPointerENS1_9TaggedPtrINSt3__112basic_stringIcNS4_11char_traitsIcEENS4_9allocatorIcEEEEEE",
   "parameters" :
   [
    {
     "is_this_ptr" : true,
     "referenced_type" : "_ZTIPN6google8protobuf8internal14ArenaStringPtrE"
    },
    {
     "referenced_type" : "_ZTIN6google8protobuf8internal9TaggedPtrINSt3__112basic_stringIcNS3_11char_traitsIcEENS3_9allocatorIcEEEEEE"
    }
   ],
   "return_type" : "_ZTIv",
   "source_file" : "external/protobuf/src/google/protobuf/arenastring.h"
  },
  {
   "function_name" : "google::protobuf::internal::ArenaStringPtr::UnsafeArenaSetAllocated",
   "linker_set_key" : "_ZN6google8protobuf8internal14ArenaStringPtr23UnsafeArenaSetAllocatedEPKNSt3__112basic_stringIcNS3_11char_traitsIcEENS3_9allocatorIcEEEEPS9_PNS0_5ArenaE",
   "parameters" :
   [
    {
     "is_this_ptr" : true,
     "referenced_type" : "_ZTIPN6google8protobuf8internal14ArenaStringPtrE"
    },
    {
     "referenced_type" : "_ZTIPKNSt3__112basic_stringIcNS_11char_traitsIcEENS_9allocatorIcEEEE"
    },
    {
     "referenced_type" : "_ZTIPNSt3__112basic_stringIcNS_11char_traitsIcEENS_9allocatorIcEEEE"
    },
    {
     "referenced_type" : "_ZTIPN6google8protobuf5ArenaE"
    }
   ],
   "return_type" : "_ZTIv",
   "source_file" : "external/protobuf/src/google/protobuf/arenastring.h"
  },
  {
   "function_name" : "google::protobuf::internal::ArenaStringPtr::ReleaseNonDefaultNoArena",
   "linker_set_key" : "_ZN6google8protobuf8internal14ArenaStringPtr24ReleaseNonDefaultNoArenaEPKNSt3__112basic_stringIcNS3_11char_traitsIcEENS3_9allocatorIcEEEE",
   "parameters" :
   [
    {
     "is_this_ptr" : true,
     "referenced_type" : "_ZTIPN6google8protobuf8internal14ArenaStringPtrE"
    },
    {
     "referenced_type" : "_ZTIPKNSt3__112basic_stringIcNS_11char_traitsIcEENS_9allocatorIcEEEE"
    }
   ],
   "return_type" : "_ZTIPNSt3__112basic_stringIcNS_11char_traitsIcEENS_9allocatorIcEEEE",
   "source_file" : "external/protobuf/src/google/protobuf/arenastring.h"
  },
  {
   "function_name" : "google::protobuf::internal::ArenaStringPtr::ClearNonDefaultToEmptyNoArena",
   "linker_set_key" : "_ZN6google8protobuf8internal14ArenaStringPtr29ClearNonDefaultToEmptyNoArenaEv",
   "parameters" :
   [
    {
     "is_this_ptr" : true,
     "referenced_type" : "_ZTIPN6google8protobuf8internal14ArenaStringPtrE"
    }
   ],
   "return_type" : "_ZTIv",
   "source_file" : "external/protobuf/src/google/protobuf/arenastring.h"
  },
  {
   "function_name" : "google::protobuf::internal::ArenaStringPtr::Set",
   "linker_set_key" : "_ZN6google8protobuf8internal14ArenaStringPtr3SetEPKNSt3__112basic_stringIcNS3_11char_traitsIcEENS3_9allocatorIcEEEERSA_PNS0_5ArenaE",
   "parameters" :
   [
    {
     "is_this_ptr" : true,
     "referenced_type" : "_ZTIPN6google8protobuf8internal14ArenaStringPtrE"
    },
    {
     "referenced_type" : "_ZTIPKNSt3__112basic_stringIcNS_11char_traitsIcEENS_9allocatorIcEEEE"
    },
    {
     "referenced_type" : "_ZTIRKNSt3__112basic_stringIcNS_11char_traitsIcEENS_9allocatorIcEEEE"
    },
    {
     "referenced_type" : "_ZTIPN6google8protobuf5ArenaE"
    }
   ],
   "return_type" : "_ZTIv",
   "source_file" : "external/protobuf/src/google/protobuf/arenastring.h"
  },
  {
   "function_name" : "google::protobuf::internal::ArenaStringPtr::Swap",
   "linker_set_key" : "_ZN6google8protobuf8internal14ArenaStringPtr4SwapEPS2_",
   "parameters" :
   [
    {
     "is_this_ptr" : true,
     "referenced_type" : "_ZTIPN6google8protobuf8internal14ArenaStringPtrE"
    },
    {
     "referenced_type" : "_ZTIPN6google8protobuf8internal14ArenaStringPtrE"
    }
   ],
   "return_type" : "_ZTIv",
   "source_file" : "external/protobuf/src/google/protobuf/arenastring.h"
  },
  {
   "function_name" : "google::protobuf::internal::ArenaStringPtr::Swap",
   "linker_set_key" : "_ZN6google8protobuf8internal14ArenaStringPtr4SwapEPS2_PKNSt3__112basic_stringIcNS4_11char_traitsIcEENS4_9allocatorIcEEEEPNS0_5ArenaE",
   "parameters" :
   [
    {
     "is_this_ptr" : true,
     "referenced_type" : "_ZTIPN6google8protobuf8internal14ArenaStringPtrE"
    },
    {
     "referenced_type" : "_ZTIPN6google8protobuf8internal14ArenaStringPtrE"
    },
    {
     "referenced_type" : "_ZTIPKNSt3__112basic_stringIcNS_11char_traitsIcEENS_9allocatorIcEEEE"
    },
    {
     "referenced_type" : "_ZTIPN6google8protobuf5ArenaE"
    }
   ],
   "return_type" : "_ZTIv",
   "source_file" : "external/protobuf/src/google/protobuf/arenastring.h"
  },
  {
   "function_name" : "google::protobuf::internal::ArenaStringPtr::Destroy",
   "linker_set_key" : "_ZN6google8protobuf8internal14ArenaStringPtr7DestroyEPKNSt3__112basic_stringIcNS3_11char_traitsIcEENS3_9allocatorIcEEEEPNS0_5ArenaE",
   "parameters" :
   [
    {
     "is_this_ptr" : true,
     "referenced_type" : "_ZTIPN6google8protobuf8internal14ArenaStringPtrE"
    },
    {
     "referenced_type" : "_ZTIPKNSt3__112basic_stringIcNS_11char_traitsIcEENS_9allocatorIcEEEE"
    },
    {
     "referenced_type" : "_ZTIPN6google8protobuf5ArenaE"
    }
   ],
   "return_type" : "_ZTIv",
   "source_file" : "external/protobuf/src/google/protobuf/arenastring.h"
  },
  {
   "function_name" : "google::protobuf::internal::ArenaStringPtr::Mutable",
   "linker_set_key" : "_ZN6google8protobuf8internal14ArenaStringPtr7MutableEPKNSt3__112basic_stringIcNS3_11char_traitsIcEENS3_9allocatorIcEEEEPNS0_5ArenaE",
   "parameters" :
   [
    {
     "is_this_ptr" : true,
     "referenced_type" : "_ZTIPN6google8protobuf8internal14ArenaStringPtrE"
    },
    {
     "referenced_type" : "_ZTIPKNSt3__112basic_stringIcNS_11char_traitsIcEENS_9allocatorIcEEEE"
    },
    {
     "referenced_type" : "_ZTIPN6google8protobuf5ArenaE"
    }
   ],
   "return_type" : "_ZTIPNSt3__112basic_stringIcNS_11char_traitsIcEENS_9allocatorIcEEEE",
   "source_file" : "external/protobuf/src/google/protobuf/arenastring.h"
  },
  {
   "function_name" : "google::protobuf::internal::ArenaStringPtr::Release",
   "linker_set_key" : "_ZN6google8protobuf8internal14ArenaStringPtr7ReleaseEPKNSt3__112basic_stringIcNS3_11char_traitsIcEENS3_9allocatorIcEEEEPNS0_5ArenaE",
   "parameters" :
   [
    {
     "is_this_ptr" : true,
     "referenced_type" : "_ZTIPN6google8protobuf8internal14ArenaStringPtrE"
    },
    {
     "referenced_type" : "_ZTIPKNSt3__112basic_stringIcNS_11char_traitsIcEENS_9allocatorIcEEEE"
    },
    {
     "referenced_type" : "_ZTIPN6google8protobuf5ArenaE"
    }
   ],
   "return_type" : "_ZTIPNSt3__112basic_stringIcNS_11char_traitsIcEENS_9allocatorIcEEEE",
   "source_file" : "external/protobuf/src/google/protobuf/arenastring.h"
  },
  {
   "function_name" : "google::protobuf::internal::ArenaStringPtr::SetLite",
   "linker_set_key" : "_ZN6google8protobuf8internal14ArenaStringPtr7SetLiteEPKNSt3__112basic_stringIcNS3_11char_traitsIcEENS3_9allocatorIcEEEERSA_PNS0_5ArenaE",
   "parameters" :
   [
    {
     "is_this_ptr" : true,
     "referenced_type" : "_ZTIPN6google8protobuf8internal14ArenaStringPtrE"
    },
    {
     "referenced_type" : "_ZTIPKNSt3__112basic_stringIcNS_11char_traitsIcEENS_9allocatorIcEEEE"
    },
    {
     "referenced_type" : "_ZTIRKNSt3__112basic_stringIcNS_11char_traitsIcEENS_9allocatorIcEEEE"
    },
    {
     "referenced_type" : "_ZTIPN6google8protobuf5ArenaE"
    }
   ],
   "return_type" : "_ZTIv",
   "source_file" : "external/protobuf/src/google/protobuf/arenastring.h"
  },
  {
   "function_name" : "google::protobuf::internal::DecodeTwoBytes",
   "linker_set_key" : "_ZN6google8protobuf8internal14DecodeTwoBytesEjPPKc",
   "parameters" :
   [
    {
     "referenced_type" : "_ZTIj"
    },
    {
     "referenced_type" : "_ZTIPPKc"
    }
   ],
   "return_type" : "_ZTIj",
   "source_file" : "external/protobuf/src/google/protobuf/parse_context.h"
  },
  {
   "function_name" : "google::protobuf::internal::GetEmptyString",
   "linker_set_key" : "_ZN6google8protobuf8internal14GetEmptyStringEv",
   "return_type" : "_ZTIRKNSt3__112basic_stringIcNS_11char_traitsIcEENS_9allocatorIcEEEE",
   "source_file" : "external/protobuf/src/google/protobuf/generated_message_util.h"
  },
  {
   "function_name" : "google::protobuf::internal::IsOneofPresent",
   "linker_set_key" : "_ZN6google8protobuf8internal14IsOneofPresentEPKvjj",
   "parameters" :
   [
    {
     "referenced_type" : "_ZTIPKv"
    },
    {
     "referenced_type" : "_ZTIj"
    },
    {
     "referenced_type" : "_ZTIj"
    }
   ],
   "return_type" : "_ZTIb",
   "source_file" : "external/protobuf/src/google/protobuf/generated_message_util.h"
  },
  {
   "function_name" : "google::protobuf::internal::StringPiecePod::CreateFromStringPiece",
   "linker_set_key" : "_ZN6google8protobuf8internal14StringPiecePod21CreateFromStringPieceENS0_11StringPieceE",
   "parameters" :
   [
    {
     "referenced_type" : "_ZTIN6google8protobuf11StringPieceE"
    }
   ],
   "return_type" : "_ZTIN6google8protobuf8internal14StringPiecePodE",
   "source_file" : "external/protobuf/src/google/protobuf/stubs/stringpiece.h"
  },
  {
   "function_name" : "google::protobuf::internal::WireFormatLite::ReadString",
   "linker_set_key" : "_ZN6google8protobuf8internal14WireFormatLite10ReadStringEPNS0_2io16CodedInputStreamEPNSt3__112basic_stringIcNS6_11char_traitsIcEENS6_9allocatorIcEEEE",
   "parameters" :
   [
    {
     "referenced_type" : "_ZTIPN6google8protobuf2io16CodedInputStreamE"
    },
    {
     "referenced_type" : "_ZTIPNSt3__112basic_stringIcNS_11char_traitsIcEENS_9allocatorIcEEEE"
    }
   ],
   "return_type" : "_ZTIb",
   "source_file" : "external/protobuf/src/google/protobuf/wire_format_lite.h"
  },
  {
   "function_name" : "google::protobuf::internal::WireFormatLite::ReadString",
   "linker_set_key" : "_ZN6google8protobuf8internal14WireFormatLite10ReadStringEPNS0_2io16CodedInputStreamEPPNSt3__112basic_stringIcNS6_11char_traitsIcEENS6_9allocatorIcEEEE",
   "parameters" :
   [
    {
     "referenced_type" : "_ZTIPN6google8protobuf2io16CodedInputStreamE"
    },
    {
     "referenced_type" : "_ZTIPPNSt3__112basic_stringIcNS_11char_traitsIcEENS_9allocatorIcEEEE"
    }
   ],
   "return_type" : "_ZTIb",
   "source_file" : "external/protobuf/src/google/protobuf/wire_format_lite.h"
  },
  {
   "function_name" : "google::protobuf::internal::WireFormatLite::SInt32Size",
   "linker_set_key" : "_ZN6google8protobuf8internal14WireFormatLite10SInt32SizeEi",
   "parameters" :
   [
    {
     "referenced_type" : "_ZTIi"
    }
   ],
   "return_type" : "_ZTIj",
   "source_file" : "external/protobuf/src/google/protobuf/wire_format_lite.h"
  },
  {
   "function_name" : "google::protobuf::internal::WireFormatLite::SInt64Size",
   "linker_set_key" : "_ZN6google8protobuf8internal14WireFormatLite10SInt64SizeEx",
   "parameters" :
   [
    {
     "referenced_type" : "_ZTIx"
    }
   ],
   "return_type" : "_ZTIj",
   "source_file" : "external/protobuf/src/google/protobuf/wire_format_lite.h"
  },
  {
   "function_name" : "google::protobuf::internal::WireFormatLite::StringSize",
   "linker_set_key" : "_ZN6google8protobuf8internal14WireFormatLite10StringSizeERKNSt3__112basic_stringIcNS3_11char_traitsIcEENS3_9allocatorIcEEEE",
   "parameters" :
   [
    {
     "referenced_type" : "_ZTIRKNSt3__112basic_stringIcNS_11char_traitsIcEENS_9allocatorIcEEEE"
    }
   ],
   "return_type" : "_ZTIj",
   "source_file" : "external/protobuf/src/google/protobuf/wire_format_lite.h"
  },
  {
   "function_name" : "google::protobuf::internal::WireFormatLite::UInt32Size",
   "linker_set_key" : "_ZN6google8protobuf8internal14WireFormatLite10UInt32SizeEj",
   "parameters" :
   [
    {
     "referenced_type" : "_ZTIj"
    }
   ],
   "return_type" : "_ZTIj",
   "source_file" : "external/protobuf/src/google/protobuf/wire_format_lite.h"
  },
  {
   "function_name" : "google::protobuf::internal::WireFormatLite::UInt64Size",
   "linker_set_key" : "_ZN6google8protobuf8internal14WireFormatLite10UInt64SizeEy",
   "parameters" :
   [
    {
     "referenced_type" : "_ZTIy"
    }
   ],
   "return_type" : "_ZTIj",
   "source_file" : "external/protobuf/src/google/protobuf/wire_format_lite.h"
  },
  {
   "function_name" : "google::protobuf::internal::WireFormatLite::DecodeFloat",
   "linker_set_key" : "_ZN6google8protobuf8internal14WireFormatLite11DecodeFloatEj",
   "parameters" :
   [
    {
     "referenced_type" : "_ZTIj"
    }
   ],
   "return_type" : "_ZTIf",
   "source_file" : "external/protobuf/src/google/protobuf/wire_format_lite.h"
  },
  {
   "function_name" : "google::protobuf::internal::WireFormatLite::EncodeFloat",
   "linker_set_key" : "_ZN6google8protobuf8internal14WireFormatLite11EncodeFloatEf",
   "parameters" :
   [
    {
     "referenced_type" : "_ZTIf"
    }
   ],
   "return_type" : "_ZTIj",
   "source_file" : "external/protobuf/src/google/protobuf/wire_format_lite.h"
  },
  {
   "function_name" : "google::protobuf::internal::WireFormatLite::DecodeDouble",
   "linker_set_key" : "_ZN6google8protobuf8internal14WireFormatLite12DecodeDoubleEy",
   "parameters" :
   [
    {
     "referenced_type" : "_ZTIy"
    }
   ],
   "return_type" : "_ZTId",
   "source_file" : "external/protobuf/src/google/protobuf/wire_format_lite.h"
  },
  {
   "function_name" : "google::protobuf::internal::WireFormatLite::EncodeDouble",
   "linker_set_key" : "_ZN6google8protobuf8internal14WireFormatLite12EncodeDoubleEd",
   "parameters" :
   [
    {
     "referenced_type" : "_ZTId"
    }
   ],
   "return_type" : "_ZTIy",
   "source_file" : "external/protobuf/src/google/protobuf/wire_format_lite.h"
  },
  {
   "function_name" : "google::protobuf::internal::WireFormatLite::ReadPrimitive",
   "linker_set_key" : "_ZN6google8protobuf8internal14WireFormatLite13ReadPrimitiveIbLNS2_9FieldTypeE8EEEbPNS0_2io16CodedInputStreamEPT_",
   "parameters" :
   [
    {
     "referenced_type" : "_ZTIPN6google8protobuf2io16CodedInputStreamE"
    },
    {
     "referenced_type" : "_ZTIPb"
    }
   ],
   "return_type" : "_ZTIb",
   "source_file" : "external/protobuf/src/google/protobuf/wire_format_lite.h",
   "template_args" : [ "_ZTIb" ]
  },
  {
   "function_name" : "google::protobuf::internal::WireFormatLite::ReadPrimitive",
   "linker_set_key" : "_ZN6google8protobuf8internal14WireFormatLite13ReadPrimitiveIdLNS2_9FieldTypeE1EEEbPNS0_2io16CodedInputStreamEPT_",
   "parameters" :
   [
    {
     "referenced_type" : "_ZTIPN6google8protobuf2io16CodedInputStreamE"
    },
    {
     "referenced_type" : "_ZTIPd"
    }
   ],
   "return_type" : "_ZTIb",
   "source_file" : "external/protobuf/src/google/protobuf/wire_format_lite.h",
   "template_args" : [ "_ZTId" ]
  },
  {
   "function_name" : "google::protobuf::internal::WireFormatLite::ReadPrimitive",
   "linker_set_key" : "_ZN6google8protobuf8internal14WireFormatLite13ReadPrimitiveIfLNS2_9FieldTypeE2EEEbPNS0_2io16CodedInputStreamEPT_",
   "parameters" :
   [
    {
     "referenced_type" : "_ZTIPN6google8protobuf2io16CodedInputStreamE"
    },
    {
     "referenced_type" : "_ZTIPf"
    }
   ],
   "return_type" : "_ZTIb",
   "source_file" : "external/protobuf/src/google/protobuf/wire_format_lite.h",
   "template_args" : [ "_ZTIf" ]
  },
  {
   "function_name" : "google::protobuf::internal::WireFormatLite::ReadPrimitive",
   "linker_set_key" : "_ZN6google8protobuf8internal14WireFormatLite13ReadPrimitiveIiLNS2_9FieldTypeE14EEEbPNS0_2io16CodedInputStreamEPT_",
   "parameters" :
   [
    {
     "referenced_type" : "_ZTIPN6google8protobuf2io16CodedInputStreamE"
    },
    {
     "referenced_type" : "_ZTIPi"
    }
   ],
   "return_type" : "_ZTIb",
   "source_file" : "external/protobuf/src/google/protobuf/wire_format_lite.h",
   "template_args" : [ "_ZTIi" ]
  },
  {
   "function_name" : "google::protobuf::internal::WireFormatLite::ReadPrimitive",
   "linker_set_key" : "_ZN6google8protobuf8internal14WireFormatLite13ReadPrimitiveIiLNS2_9FieldTypeE15EEEbPNS0_2io16CodedInputStreamEPT_",
   "parameters" :
   [
    {
     "referenced_type" : "_ZTIPN6google8protobuf2io16CodedInputStreamE"
    },
    {
     "referenced_type" : "_ZTIPi"
    }
   ],
   "return_type" : "_ZTIb",
   "source_file" : "external/protobuf/src/google/protobuf/wire_format_lite.h",
   "template_args" : [ "_ZTIi" ]
  },
  {
   "function_name" : "google::protobuf::internal::WireFormatLite::ReadPrimitive",
   "linker_set_key" : "_ZN6google8protobuf8internal14WireFormatLite13ReadPrimitiveIiLNS2_9FieldTypeE17EEEbPNS0_2io16CodedInputStreamEPT_",
   "parameters" :
   [
    {
     "referenced_type" : "_ZTIPN6google8protobuf2io16CodedInputStreamE"
    },
    {
     "referenced_type" : "_ZTIPi"
    }
   ],
   "return_type" : "_ZTIb",
   "source_file" : "external/protobuf/src/google/protobuf/wire_format_lite.h",
   "template_args" : [ "_ZTIi" ]
  },
  {
   "function_name" : "google::protobuf::internal::WireFormatLite::ReadPrimitive",
   "linker_set_key" : "_ZN6google8protobuf8internal14WireFormatLite13ReadPrimitiveIiLNS2_9FieldTypeE5EEEbPNS0_2io16CodedInputStreamEPT_",
   "parameters" :
   [
    {
     "referenced_type" : "_ZTIPN6google8protobuf2io16CodedInputStreamE"
    },
    {
     "referenced_type" : "_ZTIPi"
    }
   ],
   "return_type" : "_ZTIb",
   "source_file" : "external/protobuf/src/google/protobuf/wire_format_lite.h",
   "template_args" : [ "_ZTIi" ]
  },
  {
   "function_name" : "google::protobuf::internal::WireFormatLite::ReadPrimitive",
   "linker_set_key" : "_ZN6google8protobuf8internal14WireFormatLite13ReadPrimitiveIjLNS2_9FieldTypeE13EEEbPNS0_2io16CodedInputStreamEPT_",
   "parameters" :
   [
    {
     "referenced_type" : "_ZTIPN6google8protobuf2io16CodedInputStreamE"
    },
    {
     "referenced_type" : "_ZTIPj"
    }
   ],
   "return_type" : "_ZTIb",
   "source_file" : "external/protobuf/src/google/protobuf/wire_format_lite.h",
   "template_args" : [ "_ZTIj" ]
  },
  {
   "function_name" : "google::protobuf::internal::WireFormatLite::ReadPrimitive",
   "linker_set_key" : "_ZN6google8protobuf8internal14WireFormatLite13ReadPrimitiveIjLNS2_9FieldTypeE7EEEbPNS0_2io16CodedInputStreamEPT_",
   "parameters" :
   [
    {
     "referenced_type" : "_ZTIPN6google8protobuf2io16CodedInputStreamE"
    },
    {
     "referenced_type" : "_ZTIPj"
    }
   ],
   "return_type" : "_ZTIb",
   "source_file" : "external/protobuf/src/google/protobuf/wire_format_lite.h",
   "template_args" : [ "_ZTIj" ]
  },
  {
   "function_name" : "google::protobuf::internal::WireFormatLite::ReadPrimitive",
   "linker_set_key" : "_ZN6google8protobuf8internal14WireFormatLite13ReadPrimitiveIxLNS2_9FieldTypeE16EEEbPNS0_2io16CodedInputStreamEPT_",
   "parameters" :
   [
    {
     "referenced_type" : "_ZTIPN6google8protobuf2io16CodedInputStreamE"
    },
    {
     "referenced_type" : "_ZTIPx"
    }
   ],
   "return_type" : "_ZTIb",
   "source_file" : "external/protobuf/src/google/protobuf/wire_format_lite.h",
   "template_args" : [ "_ZTIx" ]
  },
  {
   "function_name" : "google::protobuf::internal::WireFormatLite::ReadPrimitive",
   "linker_set_key" : "_ZN6google8protobuf8internal14WireFormatLite13ReadPrimitiveIxLNS2_9FieldTypeE18EEEbPNS0_2io16CodedInputStreamEPT_",
   "parameters" :
   [
    {
     "referenced_type" : "_ZTIPN6google8protobuf2io16CodedInputStreamE"
    },
    {
     "referenced_type" : "_ZTIPx"
    }
   ],
   "return_type" : "_ZTIb",
   "source_file" : "external/protobuf/src/google/protobuf/wire_format_lite.h",
   "template_args" : [ "_ZTIx" ]
  },
  {
   "function_name" : "google::protobuf::internal::WireFormatLite::ReadPrimitive",
   "linker_set_key" : "_ZN6google8protobuf8internal14WireFormatLite13ReadPrimitiveIxLNS2_9FieldTypeE3EEEbPNS0_2io16CodedInputStreamEPT_",
   "parameters" :
   [
    {
     "referenced_type" : "_ZTIPN6google8protobuf2io16CodedInputStreamE"
    },
    {
     "referenced_type" : "_ZTIPx"
    }
   ],
   "return_type" : "_ZTIb",
   "source_file" : "external/protobuf/src/google/protobuf/wire_format_lite.h",
   "template_args" : [ "_ZTIx" ]
  },
  {
   "function_name" : "google::protobuf::internal::WireFormatLite::ReadPrimitive",
   "linker_set_key" : "_ZN6google8protobuf8internal14WireFormatLite13ReadPrimitiveIyLNS2_9FieldTypeE4EEEbPNS0_2io16CodedInputStreamEPT_",
   "parameters" :
   [
    {
     "referenced_type" : "_ZTIPN6google8protobuf2io16CodedInputStreamE"
    },
    {
     "referenced_type" : "_ZTIPy"
    }
   ],
   "return_type" : "_ZTIb",
   "source_file" : "external/protobuf/src/google/protobuf/wire_format_lite.h",
   "template_args" : [ "_ZTIy" ]
  },
  {
   "function_name" : "google::protobuf::internal::WireFormatLite::ReadPrimitive",
   "linker_set_key" : "_ZN6google8protobuf8internal14WireFormatLite13ReadPrimitiveIyLNS2_9FieldTypeE6EEEbPNS0_2io16CodedInputStreamEPT_",
   "parameters" :
   [
    {
     "referenced_type" : "_ZTIPN6google8protobuf2io16CodedInputStreamE"
    },
    {
     "referenced_type" : "_ZTIPy"
    }
   ],
   "return_type" : "_ZTIb",
   "source_file" : "external/protobuf/src/google/protobuf/wire_format_lite.h",
   "template_args" : [ "_ZTIy" ]
  },
  {
   "function_name" : "google::protobuf::internal::WireFormatLite::GetTagWireType",
   "linker_set_key" : "_ZN6google8protobuf8internal14WireFormatLite14GetTagWireTypeEj",
   "parameters" :
   [
    {
     "referenced_type" : "_ZTIj"
    }
   ],
   "return_type" : "_ZTIN6google8protobuf8internal14WireFormatLite8WireTypeE",
   "source_file" : "external/protobuf/src/google/protobuf/wire_format_lite.h"
  },
  {
   "function_name" : "google::protobuf::internal::WireFormatLite::WriteBoolNoTag",
   "linker_set_key" : "_ZN6google8protobuf8internal14WireFormatLite14WriteBoolNoTagEbPNS0_2io17CodedOutputStreamE",
   "parameters" :
   [
    {
     "referenced_type" : "_ZTIb"
    },
    {
     "referenced_type" : "_ZTIPN6google8protobuf2io17CodedOutputStreamE"
    }
   ],
   "return_type" : "_ZTIv",
   "source_file" : "external/protobuf/src/google/protobuf/wire_format_lite.h"
  },
  {
   "function_name" : "google::protobuf::internal::WireFormatLite::WriteEnumNoTag",
   "linker_set_key" : "_ZN6google8protobuf8internal14WireFormatLite14WriteEnumNoTagEiPNS0_2io17CodedOutputStreamE",
   "parameters" :
   [
    {
     "referenced_type" : "_ZTIi"
    },
    {
     "referenced_type" : "_ZTIPN6google8protobuf2io17CodedOutputStreamE"
    }
   ],
   "return_type" : "_ZTIv",
   "source_file" : "external/protobuf/src/google/protobuf/wire_format_lite.h"
  },
  {
   "function_name" : "google::protobuf::internal::WireFormatLite::ZigZagDecode32",
   "linker_set_key" : "_ZN6google8protobuf8internal14WireFormatLite14ZigZagDecode32Ej",
   "parameters" :
   [
    {
     "referenced_type" : "_ZTIj"
    }
   ],
   "return_type" : "_ZTIi",
   "source_file" : "external/protobuf/src/google/protobuf/wire_format_lite.h"
  },
  {
   "function_name" : "google::protobuf::internal::WireFormatLite::ZigZagDecode64",
   "linker_set_key" : "_ZN6google8protobuf8internal14WireFormatLite14ZigZagDecode64Ey",
   "parameters" :
   [
    {
     "referenced_type" : "_ZTIy"
    }
   ],
   "return_type" : "_ZTIx",
   "source_file" : "external/protobuf/src/google/protobuf/wire_format_lite.h"
  },
  {
   "function_name" : "google::protobuf::internal::WireFormatLite::ZigZagEncode32",
   "linker_set_key" : "_ZN6google8protobuf8internal14WireFormatLite14ZigZagEncode32Ei",
   "parameters" :
   [
    {
     "referenced_type" : "_ZTIi"
    }
   ],
   "return_type" : "_ZTIj",
   "source_file" : "external/protobuf/src/google/protobuf/wire_format_lite.h"
  },
  {
   "function_name" : "google::protobuf::internal::WireFormatLite::ZigZagEncode64",
   "linker_set_key" : "_ZN6google8protobuf8internal14WireFormatLite14ZigZagEncode64Ex",
   "parameters" :
   [
    {
     "referenced_type" : "_ZTIx"
    }
   ],
   "return_type" : "_ZTIy",
   "source_file" : "external/protobuf/src/google/protobuf/wire_format_lite.h"
  },
  {
   "function_name" : "google::protobuf::internal::WireFormatLite::WriteFloatNoTag",
   "linker_set_key" : "_ZN6google8protobuf8internal14WireFormatLite15WriteFloatNoTagEfPNS0_2io17CodedOutputStreamE",
   "parameters" :
   [
    {
     "referenced_type" : "_ZTIf"
    },
    {
     "referenced_type" : "_ZTIPN6google8protobuf2io17CodedOutputStreamE"
    }
   ],
   "return_type" : "_ZTIv",
   "source_file" : "external/protobuf/src/google/protobuf/wire_format_lite.h"
  },
  {
   "function_name" : "google::protobuf::internal::WireFormatLite::WriteInt32NoTag",
   "linker_set_key" : "_ZN6google8protobuf8internal14WireFormatLite15WriteInt32NoTagEiPNS0_2io17CodedOutputStreamE",
   "parameters" :
   [
    {
     "referenced_type" : "_ZTIi"
    },
    {
     "referenced_type" : "_ZTIPN6google8protobuf2io17CodedOutputStreamE"
    }
   ],
   "return_type" : "_ZTIv",
   "source_file" : "external/protobuf/src/google/protobuf/wire_format_lite.h"
  },
  {
   "function_name" : "google::protobuf::internal::WireFormatLite::WriteInt64NoTag",
   "linker_set_key" : "_ZN6google8protobuf8internal14WireFormatLite15WriteInt64NoTagExPNS0_2io17CodedOutputStreamE",
   "parameters" :
   [
    {
     "referenced_type" : "_ZTIx"
    },
    {
     "referenced_type" : "_ZTIPN6google8protobuf2io17CodedOutputStreamE"
    }
   ],
   "return_type" : "_ZTIv",
   "source_file" : "external/protobuf/src/google/protobuf/wire_format_lite.h"
  },
  {
   "function_name" : "google::protobuf::internal::WireFormatLite::WriteTagToArray",
   "linker_set_key" : "_ZN6google8protobuf8internal14WireFormatLite15WriteTagToArrayEiNS2_8WireTypeEPh",
   "parameters" :
   [
    {
     "referenced_type" : "_ZTIi"
    },
    {
     "referenced_type" : "_ZTIN6google8protobuf8internal14WireFormatLite8WireTypeE"
    },
    {
     "referenced_type" : "_ZTIPh"
    }
   ],
   "return_type" : "_ZTIPh",
   "source_file" : "external/protobuf/src/google/protobuf/wire_format_lite.h"
  },
  {
   "function_name" : "google::protobuf::internal::WireFormatLite::WriteBoolToArray",
   "linker_set_key" : "_ZN6google8protobuf8internal14WireFormatLite16WriteBoolToArrayEiRKNS0_13RepeatedFieldIbEEPh",
   "parameters" :
   [
    {
     "referenced_type" : "_ZTIi"
    },
    {
     "referenced_type" : "_ZTIRKN6google8protobuf13RepeatedFieldIbEE"
    },
    {
     "referenced_type" : "_ZTIPh"
    }
   ],
   "return_type" : "_ZTIPh",
   "source_file" : "external/protobuf/src/google/protobuf/wire_format_lite.h"
  },
  {
   "function_name" : "google::protobuf::internal::WireFormatLite::WriteBoolToArray",
   "linker_set_key" : "_ZN6google8protobuf8internal14WireFormatLite16WriteBoolToArrayEibPh",
   "parameters" :
   [
    {
     "referenced_type" : "_ZTIi"
    },
    {
     "referenced_type" : "_ZTIb"
    },
    {
     "referenced_type" : "_ZTIPh"
    }
   ],
   "return_type" : "_ZTIPh",
   "source_file" : "external/protobuf/src/google/protobuf/wire_format_lite.h"
  },
  {
   "function_name" : "google::protobuf::internal::WireFormatLite::WriteDoubleNoTag",
   "linker_set_key" : "_ZN6google8protobuf8internal14WireFormatLite16WriteDoubleNoTagEdPNS0_2io17CodedOutputStreamE",
   "parameters" :
   [
    {
     "referenced_type" : "_ZTId"
    },
    {
     "referenced_type" : "_ZTIPN6google8protobuf2io17CodedOutputStreamE"
    }
   ],
   "return_type" : "_ZTIv",
   "source_file" : "external/protobuf/src/google/protobuf/wire_format_lite.h"
  },
  {
   "function_name" : "google::protobuf::internal::WireFormatLite::WriteEnumToArray",
   "linker_set_key" : "_ZN6google8protobuf8internal14WireFormatLite16WriteEnumToArrayEiRKNS0_13RepeatedFieldIiEEPh",
   "parameters" :
   [
    {
     "referenced_type" : "_ZTIi"
    },
    {
     "referenced_type" : "_ZTIRKN6google8protobuf13RepeatedFieldIiEE"
    },
    {
     "referenced_type" : "_ZTIPh"
    }
   ],
   "return_type" : "_ZTIPh",
   "source_file" : "external/protobuf/src/google/protobuf/wire_format_lite.h"
  },
  {
   "function_name" : "google::protobuf::internal::WireFormatLite::WriteEnumToArray",
   "linker_set_key" : "_ZN6google8protobuf8internal14WireFormatLite16WriteEnumToArrayEiiPh",
   "parameters" :
   [
    {
     "referenced_type" : "_ZTIi"
    },
    {
     "referenced_type" : "_ZTIi"
    },
    {
     "referenced_type" : "_ZTIPh"
    }
   ],
   "return_type" : "_ZTIPh",
   "source_file" : "external/protobuf/src/google/protobuf/wire_format_lite.h"
  },
  {
   "function_name" : "google::protobuf::internal::WireFormatLite::WriteSInt32NoTag",
   "linker_set_key" : "_ZN6google8protobuf8internal14WireFormatLite16WriteSInt32NoTagEiPNS0_2io17CodedOutputStreamE",
   "parameters" :
   [
    {
     "referenced_type" : "_ZTIi"
    },
    {
     "referenced_type" : "_ZTIPN6google8protobuf2io17CodedOutputStreamE"
    }
   ],
   "return_type" : "_ZTIv",
   "source_file" : "external/protobuf/src/google/protobuf/wire_format_lite.h"
  },
  {
   "function_name" : "google::protobuf::internal::WireFormatLite::WriteSInt64NoTag",
   "linker_set_key" : "_ZN6google8protobuf8internal14WireFormatLite16WriteSInt64NoTagExPNS0_2io17CodedOutputStreamE",
   "parameters" :
   [
    {
     "referenced_type" : "_ZTIx"
    },
    {
     "referenced_type" : "_ZTIPN6google8protobuf2io17CodedOutputStreamE"
    }
   ],
   "return_type" : "_ZTIv",
   "source_file" : "external/protobuf/src/google/protobuf/wire_format_lite.h"
  },
  {
   "function_name" : "google::protobuf::internal::WireFormatLite::WriteUInt32NoTag",
   "linker_set_key" : "_ZN6google8protobuf8internal14WireFormatLite16WriteUInt32NoTagEjPNS0_2io17CodedOutputStreamE",
   "parameters" :
   [
    {
     "referenced_type" : "_ZTIj"
    },
    {
     "referenced_type" : "_ZTIPN6google8protobuf2io17CodedOutputStreamE"
    }
   ],
   "return_type" : "_ZTIv",
   "source_file" : "external/protobuf/src/google/protobuf/wire_format_lite.h"
  },
  {
   "function_name" : "google::protobuf::internal::WireFormatLite::WriteUInt64NoTag",
   "linker_set_key" : "_ZN6google8protobuf8internal14WireFormatLite16WriteUInt64NoTagEyPNS0_2io17CodedOutputStreamE",
   "parameters" :
   [
    {
     "referenced_type" : "_ZTIy"
    },
    {
     "referenced_type" : "_ZTIPN6google8protobuf2io17CodedOutputStreamE"
    }
   ],
   "return_type" : "_ZTIv",
   "source_file" : "external/protobuf/src/google/protobuf/wire_format_lite.h"
  },
  {
   "function_name" : "google::protobuf::internal::WireFormatLite::GetTagFieldNumber",
   "linker_set_key" : "_ZN6google8protobuf8internal14WireFormatLite17GetTagFieldNumberEj",
   "parameters" :
   [
    {
     "referenced_type" : "_ZTIj"
    }
   ],
   "return_type" : "_ZTIi",
   "source_file" : "external/protobuf/src/google/protobuf/wire_format_lite.h"
  },
  {
   "function_name" : "google::protobuf::internal::WireFormatLite::WriteBytesToArray",
   "linker_set_key" : "_ZN6google8protobuf8internal14WireFormatLite17WriteBytesToArrayEiRKNSt3__112basic_stringIcNS3_11char_traitsIcEENS3_9allocatorIcEEEEPh",
   "parameters" :
   [
    {
     "referenced_type" : "_ZTIi"
    },
    {
     "referenced_type" : "_ZTIRKNSt3__112basic_stringIcNS_11char_traitsIcEENS_9allocatorIcEEEE"
    },
    {
     "referenced_type" : "_ZTIPh"
    }
   ],
   "return_type" : "_ZTIPh",
   "source_file" : "external/protobuf/src/google/protobuf/wire_format_lite.h"
  },
  {
   "function_name" : "google::protobuf::internal::WireFormatLite::WriteFixed32NoTag",
   "linker_set_key" : "_ZN6google8protobuf8internal14WireFormatLite17WriteFixed32NoTagEjPNS0_2io17CodedOutputStreamE",
   "parameters" :
   [
    {
     "referenced_type" : "_ZTIj"
    },
    {
     "referenced_type" : "_ZTIPN6google8protobuf2io17CodedOutputStreamE"
    }
   ],
   "return_type" : "_ZTIv",
   "source_file" : "external/protobuf/src/google/protobuf/wire_format_lite.h"
  },
  {
   "function_name" : "google::protobuf::internal::WireFormatLite::WriteFixed64NoTag",
   "linker_set_key" : "_ZN6google8protobuf8internal14WireFormatLite17WriteFixed64NoTagEyPNS0_2io17CodedOutputStreamE",
   "parameters" :
   [
    {
     "referenced_type" : "_ZTIy"
    },
    {
     "referenced_type" : "_ZTIPN6google8protobuf2io17CodedOutputStreamE"
    }
   ],
   "return_type" : "_ZTIv",
   "source_file" : "external/protobuf/src/google/protobuf/wire_format_lite.h"
  },
  {
   "function_name" : "google::protobuf::internal::WireFormatLite::WriteFloatToArray",
   "linker_set_key" : "_ZN6google8protobuf8internal14WireFormatLite17WriteFloatToArrayEiRKNS0_13RepeatedFieldIfEEPh",
   "parameters" :
   [
    {
     "referenced_type" : "_ZTIi"
    },
    {
     "referenced_type" : "_ZTIRKN6google8protobuf13RepeatedFieldIfEE"
    },
    {
     "referenced_type" : "_ZTIPh"
    }
   ],
   "return_type" : "_ZTIPh",
   "source_file" : "external/protobuf/src/google/protobuf/wire_format_lite.h"
  },
  {
   "function_name" : "google::protobuf::internal::WireFormatLite::WriteFloatToArray",
   "linker_set_key" : "_ZN6google8protobuf8internal14WireFormatLite17WriteFloatToArrayEifPh",
   "parameters" :
   [
    {
     "referenced_type" : "_ZTIi"
    },
    {
     "referenced_type" : "_ZTIf"
    },
    {
     "referenced_type" : "_ZTIPh"
    }
   ],
   "return_type" : "_ZTIPh",
   "source_file" : "external/protobuf/src/google/protobuf/wire_format_lite.h"
  },
  {
   "function_name" : "google::protobuf::internal::WireFormatLite::WriteGroupToArray",
   "linker_set_key" : "_ZN6google8protobuf8internal14WireFormatLite17WriteGroupToArrayEiRKNS0_11MessageLiteEPh",
   "parameters" :
   [
    {
     "referenced_type" : "_ZTIi"
    },
    {
     "referenced_type" : "_ZTIRKN6google8protobuf11MessageLiteE"
    },
    {
     "referenced_type" : "_ZTIPh"
    }
   ],
   "return_type" : "_ZTIPh",
   "source_file" : "external/protobuf/src/google/protobuf/wire_format_lite.h"
  },
  {
   "function_name" : "google::protobuf::internal::WireFormatLite::WriteInt32ToArray",
   "linker_set_key" : "_ZN6google8protobuf8internal14WireFormatLite17WriteInt32ToArrayEiRKNS0_13RepeatedFieldIiEEPh",
   "parameters" :
   [
    {
     "referenced_type" : "_ZTIi"
    },
    {
     "referenced_type" : "_ZTIRKN6google8protobuf13RepeatedFieldIiEE"
    },
    {
     "referenced_type" : "_ZTIPh"
    }
   ],
   "return_type" : "_ZTIPh",
   "source_file" : "external/protobuf/src/google/protobuf/wire_format_lite.h"
  },
  {
   "function_name" : "google::protobuf::internal::WireFormatLite::WriteInt32ToArray",
   "linker_set_key" : "_ZN6google8protobuf8internal14WireFormatLite17WriteInt32ToArrayEiiPh",
   "parameters" :
   [
    {
     "referenced_type" : "_ZTIi"
    },
    {
     "referenced_type" : "_ZTIi"
    },
    {
     "referenced_type" : "_ZTIPh"
    }
   ],
   "return_type" : "_ZTIPh",
   "source_file" : "external/protobuf/src/google/protobuf/wire_format_lite.h"
  },
  {
   "function_name" : "google::protobuf::internal::WireFormatLite::WriteInt64ToArray",
   "linker_set_key" : "_ZN6google8protobuf8internal14WireFormatLite17WriteInt64ToArrayEiRKNS0_13RepeatedFieldIxEEPh",
   "parameters" :
   [
    {
     "referenced_type" : "_ZTIi"
    },
    {
     "referenced_type" : "_ZTIRKN6google8protobuf13RepeatedFieldIxEE"
    },
    {
     "referenced_type" : "_ZTIPh"
    }
   ],
   "return_type" : "_ZTIPh",
   "source_file" : "external/protobuf/src/google/protobuf/wire_format_lite.h"
  },
  {
   "function_name" : "google::protobuf::internal::WireFormatLite::WriteInt64ToArray",
   "linker_set_key" : "_ZN6google8protobuf8internal14WireFormatLite17WriteInt64ToArrayEixPh",
   "parameters" :
   [
    {
     "referenced_type" : "_ZTIi"
    },
    {
     "referenced_type" : "_ZTIx"
    },
    {
     "referenced_type" : "_ZTIPh"
    }
   ],
   "return_type" : "_ZTIPh",
   "source_file" : "external/protobuf/src/google/protobuf/wire_format_lite.h"
  },
  {
   "function_name" : "google::protobuf::internal::WireFormatLite::FieldTypeToCppType",
   "linker_set_key" : "_ZN6google8protobuf8internal14WireFormatLite18FieldTypeToCppTypeENS2_9FieldTypeE",
   "parameters" :
   [
    {
     "referenced_type" : "_ZTIN6google8protobuf8internal14WireFormatLite9FieldTypeE"
    }
   ],
   "return_type" : "_ZTIN6google8protobuf8internal14WireFormatLite7CppTypeE",
   "source_file" : "external/protobuf/src/google/protobuf/wire_format_lite.h"
  },
  {
   "function_name" : "google::protobuf::internal::WireFormatLite::WriteDoubleToArray",
   "linker_set_key" : "_ZN6google8protobuf8internal14WireFormatLite18WriteDoubleToArrayEiRKNS0_13RepeatedFieldIdEEPh",
   "parameters" :
   [
    {
     "referenced_type" : "_ZTIi"
    },
    {
     "referenced_type" : "_ZTIRKN6google8protobuf13RepeatedFieldIdEE"
    },
    {
     "referenced_type" : "_ZTIPh"
    }
   ],
   "return_type" : "_ZTIPh",
   "source_file" : "external/protobuf/src/google/protobuf/wire_format_lite.h"
  },
  {
   "function_name" : "google::protobuf::internal::WireFormatLite::WriteDoubleToArray",
   "linker_set_key" : "_ZN6google8protobuf8internal14WireFormatLite18WriteDoubleToArrayEidPh",
   "parameters" :
   [
    {
     "referenced_type" : "_ZTIi"
    },
    {
     "referenced_type" : "_ZTId"
    },
    {
     "referenced_type" : "_ZTIPh"
    }
   ],
   "return_type" : "_ZTIPh",
   "source_file" : "external/protobuf/src/google/protobuf/wire_format_lite.h"
  },
  {
   "function_name" : "google::protobuf::internal::WireFormatLite::WriteSFixed32NoTag",
   "linker_set_key" : "_ZN6google8protobuf8internal14WireFormatLite18WriteSFixed32NoTagEiPNS0_2io17CodedOutputStreamE",
   "parameters" :
   [
    {
     "referenced_type" : "_ZTIi"
    },
    {
     "referenced_type" : "_ZTIPN6google8protobuf2io17CodedOutputStreamE"
    }
   ],
   "return_type" : "_ZTIv",
   "source_file" : "external/protobuf/src/google/protobuf/wire_format_lite.h"
  },
  {
   "function_name" : "google::protobuf::internal::WireFormatLite::WriteSFixed64NoTag",
   "linker_set_key" : "_ZN6google8protobuf8internal14WireFormatLite18WriteSFixed64NoTagExPNS0_2io17CodedOutputStreamE",
   "parameters" :
   [
    {
     "referenced_type" : "_ZTIx"
    },
    {
     "referenced_type" : "_ZTIPN6google8protobuf2io17CodedOutputStreamE"
    }
   ],
   "return_type" : "_ZTIv",
   "source_file" : "external/protobuf/src/google/protobuf/wire_format_lite.h"
  },
  {
   "function_name" : "google::protobuf::internal::WireFormatLite::WriteSInt32ToArray",
   "linker_set_key" : "_ZN6google8protobuf8internal14WireFormatLite18WriteSInt32ToArrayEiRKNS0_13RepeatedFieldIiEEPh",
   "parameters" :
   [
    {
     "referenced_type" : "_ZTIi"
    },
    {
     "referenced_type" : "_ZTIRKN6google8protobuf13RepeatedFieldIiEE"
    },
    {
     "referenced_type" : "_ZTIPh"
    }
   ],
   "return_type" : "_ZTIPh",
   "source_file" : "external/protobuf/src/google/protobuf/wire_format_lite.h"
  },
  {
   "function_name" : "google::protobuf::internal::WireFormatLite::WriteSInt32ToArray",
   "linker_set_key" : "_ZN6google8protobuf8internal14WireFormatLite18WriteSInt32ToArrayEiiPh",
   "parameters" :
   [
    {
     "referenced_type" : "_ZTIi"
    },
    {
     "referenced_type" : "_ZTIi"
    },
    {
     "referenced_type" : "_ZTIPh"
    }
   ],
   "return_type" : "_ZTIPh",
   "source_file" : "external/protobuf/src/google/protobuf/wire_format_lite.h"
  },
  {
   "function_name" : "google::protobuf::internal::WireFormatLite::WriteSInt64ToArray",
   "linker_set_key" : "_ZN6google8protobuf8internal14WireFormatLite18WriteSInt64ToArrayEiRKNS0_13RepeatedFieldIxEEPh",
   "parameters" :
   [
    {
     "referenced_type" : "_ZTIi"
    },
    {
     "referenced_type" : "_ZTIRKN6google8protobuf13RepeatedFieldIxEE"
    },
    {
     "referenced_type" : "_ZTIPh"
    }
   ],
   "return_type" : "_ZTIPh",
   "source_file" : "external/protobuf/src/google/protobuf/wire_format_lite.h"
  },
  {
   "function_name" : "google::protobuf::internal::WireFormatLite::WriteSInt64ToArray",
   "linker_set_key" : "_ZN6google8protobuf8internal14WireFormatLite18WriteSInt64ToArrayEixPh",
   "parameters" :
   [
    {
     "referenced_type" : "_ZTIi"
    },
    {
     "referenced_type" : "_ZTIx"
    },
    {
     "referenced_type" : "_ZTIPh"
    }
   ],
   "return_type" : "_ZTIPh",
   "source_file" : "external/protobuf/src/google/protobuf/wire_format_lite.h"
  },
  {
   "function_name" : "google::protobuf::internal::WireFormatLite::WriteStringToArray",
   "linker_set_key" : "_ZN6google8protobuf8internal14WireFormatLite18WriteStringToArrayEiRKNSt3__112basic_stringIcNS3_11char_traitsIcEENS3_9allocatorIcEEEEPh",
   "parameters" :
   [
    {
     "referenced_type" : "_ZTIi"
    },
    {
     "referenced_type" : "_ZTIRKNSt3__112basic_stringIcNS_11char_traitsIcEENS_9allocatorIcEEEE"
    },
    {
     "referenced_type" : "_ZTIPh"
    }
   ],
   "return_type" : "_ZTIPh",
   "source_file" : "external/protobuf/src/google/protobuf/wire_format_lite.h"
  },
  {
   "function_name" : "google::protobuf::internal::WireFormatLite::WriteUInt32ToArray",
   "linker_set_key" : "_ZN6google8protobuf8internal14WireFormatLite18WriteUInt32ToArrayEiRKNS0_13RepeatedFieldIjEEPh",
   "parameters" :
   [
    {
     "referenced_type" : "_ZTIi"
    },
    {
     "referenced_type" : "_ZTIRKN6google8protobuf13RepeatedFieldIjEE"
    },
    {
     "referenced_type" : "_ZTIPh"
    }
   ],
   "return_type" : "_ZTIPh",
   "source_file" : "external/protobuf/src/google/protobuf/wire_format_lite.h"
  },
  {
   "function_name" : "google::protobuf::internal::WireFormatLite::WriteUInt32ToArray",
   "linker_set_key" : "_ZN6google8protobuf8internal14WireFormatLite18WriteUInt32ToArrayEijPh",
   "parameters" :
   [
    {
     "referenced_type" : "_ZTIi"
    },
    {
     "referenced_type" : "_ZTIj"
    },
    {
     "referenced_type" : "_ZTIPh"
    }
   ],
   "return_type" : "_ZTIPh",
   "source_file" : "external/protobuf/src/google/protobuf/wire_format_lite.h"
  },
  {
   "function_name" : "google::protobuf::internal::WireFormatLite::WriteUInt64ToArray",
   "linker_set_key" : "_ZN6google8protobuf8internal14WireFormatLite18WriteUInt64ToArrayEiRKNS0_13RepeatedFieldIyEEPh",
   "parameters" :
   [
    {
     "referenced_type" : "_ZTIi"
    },
    {
     "referenced_type" : "_ZTIRKN6google8protobuf13RepeatedFieldIyEE"
    },
    {
     "referenced_type" : "_ZTIPh"
    }
   ],
   "return_type" : "_ZTIPh",
   "source_file" : "external/protobuf/src/google/protobuf/wire_format_lite.h"
  },
  {
   "function_name" : "google::protobuf::internal::WireFormatLite::WriteUInt64ToArray",
   "linker_set_key" : "_ZN6google8protobuf8internal14WireFormatLite18WriteUInt64ToArrayEiyPh",
   "parameters" :
   [
    {
     "referenced_type" : "_ZTIi"
    },
    {
     "referenced_type" : "_ZTIy"
    },
    {
     "referenced_type" : "_ZTIPh"
    }
   ],
   "return_type" : "_ZTIPh",
   "source_file" : "external/protobuf/src/google/protobuf/wire_format_lite.h"
  },
  {
   "function_name" : "google::protobuf::internal::WireFormatLite::LengthDelimitedSize",
   "linker_set_key" : "_ZN6google8protobuf8internal14WireFormatLite19LengthDelimitedSizeEj",
   "parameters" :
   [
    {
     "referenced_type" : "_ZTIj"
    }
   ],
   "return_type" : "_ZTIj",
   "source_file" : "external/protobuf/src/google/protobuf/wire_format_lite.h"
  },
  {
   "function_name" : "google::protobuf::internal::WireFormatLite::ReadPackedPrimitive",
   "linker_set_key" : "_ZN6google8protobuf8internal14WireFormatLite19ReadPackedPrimitiveIdLNS2_9FieldTypeE1EEEbPNS0_2io16CodedInputStreamEPNS0_13RepeatedFieldIT_EE",
   "parameters" :
   [
    {
     "referenced_type" : "_ZTIPN6google8protobuf2io16CodedInputStreamE"
    },
    {
     "referenced_type" : "_ZTIPN6google8protobuf13RepeatedFieldIdEE"
    }
   ],
   "return_type" : "_ZTIb",
   "source_file" : "external/protobuf/src/google/protobuf/wire_format_lite.h",
   "template_args" : [ "_ZTId" ]
  },
  {
   "function_name" : "google::protobuf::internal::WireFormatLite::ReadPackedPrimitive",
   "linker_set_key" : "_ZN6google8protobuf8internal14WireFormatLite19ReadPackedPrimitiveIfLNS2_9FieldTypeE2EEEbPNS0_2io16CodedInputStreamEPNS0_13RepeatedFieldIT_EE",
   "parameters" :
   [
    {
     "referenced_type" : "_ZTIPN6google8protobuf2io16CodedInputStreamE"
    },
    {
     "referenced_type" : "_ZTIPN6google8protobuf13RepeatedFieldIfEE"
    }
   ],
   "return_type" : "_ZTIb",
   "source_file" : "external/protobuf/src/google/protobuf/wire_format_lite.h",
   "template_args" : [ "_ZTIf" ]
  },
  {
   "function_name" : "google::protobuf::internal::WireFormatLite::ReadPackedPrimitive",
   "linker_set_key" : "_ZN6google8protobuf8internal14WireFormatLite19ReadPackedPrimitiveIiLNS2_9FieldTypeE15EEEbPNS0_2io16CodedInputStreamEPNS0_13RepeatedFieldIT_EE",
   "parameters" :
   [
    {
     "referenced_type" : "_ZTIPN6google8protobuf2io16CodedInputStreamE"
    },
    {
     "referenced_type" : "_ZTIPN6google8protobuf13RepeatedFieldIiEE"
    }
   ],
   "return_type" : "_ZTIb",
   "source_file" : "external/protobuf/src/google/protobuf/wire_format_lite.h",
   "template_args" : [ "_ZTIi" ]
  },
  {
   "function_name" : "google::protobuf::internal::WireFormatLite::ReadPackedPrimitive",
   "linker_set_key" : "_ZN6google8protobuf8internal14WireFormatLite19ReadPackedPrimitiveIjLNS2_9FieldTypeE7EEEbPNS0_2io16CodedInputStreamEPNS0_13RepeatedFieldIT_EE",
   "parameters" :
   [
    {
     "referenced_type" : "_ZTIPN6google8protobuf2io16CodedInputStreamE"
    },
    {
     "referenced_type" : "_ZTIPN6google8protobuf13RepeatedFieldIjEE"
    }
   ],
   "return_type" : "_ZTIb",
   "source_file" : "external/protobuf/src/google/protobuf/wire_format_lite.h",
   "template_args" : [ "_ZTIj" ]
  },
  {
   "function_name" : "google::protobuf::internal::WireFormatLite::ReadPackedPrimitive",
   "linker_set_key" : "_ZN6google8protobuf8internal14WireFormatLite19ReadPackedPrimitiveIxLNS2_9FieldTypeE16EEEbPNS0_2io16CodedInputStreamEPNS0_13RepeatedFieldIT_EE",
   "parameters" :
   [
    {
     "referenced_type" : "_ZTIPN6google8protobuf2io16CodedInputStreamE"
    },
    {
     "referenced_type" : "_ZTIPN6google8protobuf13RepeatedFieldIxEE"
    }
   ],
   "return_type" : "_ZTIb",
   "source_file" : "external/protobuf/src/google/protobuf/wire_format_lite.h",
   "template_args" : [ "_ZTIx" ]
  },
  {
   "function_name" : "google::protobuf::internal::WireFormatLite::ReadPackedPrimitive",
   "linker_set_key" : "_ZN6google8protobuf8internal14WireFormatLite19ReadPackedPrimitiveIyLNS2_9FieldTypeE6EEEbPNS0_2io16CodedInputStreamEPNS0_13RepeatedFieldIT_EE",
   "parameters" :
   [
    {
     "referenced_type" : "_ZTIPN6google8protobuf2io16CodedInputStreamE"
    },
    {
     "referenced_type" : "_ZTIPN6google8protobuf13RepeatedFieldIyEE"
    }
   ],
   "return_type" : "_ZTIb",
   "source_file" : "external/protobuf/src/google/protobuf/wire_format_lite.h",
   "template_args" : [ "_ZTIy" ]
  },
  {
   "function_name" : "google::protobuf::internal::WireFormatLite::WriteFixed32ToArray",
   "linker_set_key" : "_ZN6google8protobuf8internal14WireFormatLite19WriteFixed32ToArrayEiRKNS0_13RepeatedFieldIjEEPh",
   "parameters" :
   [
    {
     "referenced_type" : "_ZTIi"
    },
    {
     "referenced_type" : "_ZTIRKN6google8protobuf13RepeatedFieldIjEE"
    },
    {
     "referenced_type" : "_ZTIPh"
    }
   ],
   "return_type" : "_ZTIPh",
   "source_file" : "external/protobuf/src/google/protobuf/wire_format_lite.h"
  },
  {
   "function_name" : "google::protobuf::internal::WireFormatLite::WriteFixed32ToArray",
   "linker_set_key" : "_ZN6google8protobuf8internal14WireFormatLite19WriteFixed32ToArrayEijPh",
   "parameters" :
   [
    {
     "referenced_type" : "_ZTIi"
    },
    {
     "referenced_type" : "_ZTIj"
    },
    {
     "referenced_type" : "_ZTIPh"
    }
   ],
   "return_type" : "_ZTIPh",
   "source_file" : "external/protobuf/src/google/protobuf/wire_format_lite.h"
  },
  {
   "function_name" : "google::protobuf::internal::WireFormatLite::WriteFixed64ToArray",
   "linker_set_key" : "_ZN6google8protobuf8internal14WireFormatLite19WriteFixed64ToArrayEiRKNS0_13RepeatedFieldIyEEPh",
   "parameters" :
   [
    {
     "referenced_type" : "_ZTIi"
    },
    {
     "referenced_type" : "_ZTIRKN6google8protobuf13RepeatedFieldIyEE"
    },
    {
     "referenced_type" : "_ZTIPh"
    }
   ],
   "return_type" : "_ZTIPh",
   "source_file" : "external/protobuf/src/google/protobuf/wire_format_lite.h"
  },
  {
   "function_name" : "google::protobuf::internal::WireFormatLite::WriteFixed64ToArray",
   "linker_set_key" : "_ZN6google8protobuf8internal14WireFormatLite19WriteFixed64ToArrayEiyPh",
   "parameters" :
   [
    {
     "referenced_type" : "_ZTIi"
    },
    {
     "referenced_type" : "_ZTIy"
    },
    {
     "referenced_type" : "_ZTIPh"
    }
   ],
   "return_type" : "_ZTIPh",
   "source_file" : "external/protobuf/src/google/protobuf/wire_format_lite.h"
  },
  {
   "function_name" : "google::protobuf::internal::WireFormatLite::WriteMessageToArray",
   "linker_set_key" : "_ZN6google8protobuf8internal14WireFormatLite19WriteMessageToArrayEiRKNS0_11MessageLiteEPh",
   "parameters" :
   [
    {
     "referenced_type" : "_ZTIi"
    },
    {
     "referenced_type" : "_ZTIRKN6google8protobuf11MessageLiteE"
    },
    {
     "referenced_type" : "_ZTIPh"
    }
   ],
   "return_type" : "_ZTIPh",
   "source_file" : "external/protobuf/src/google/protobuf/wire_format_lite.h"
  },
  {
   "function_name" : "google::protobuf::internal::WireFormatLite::WireTypeForFieldType",
   "linker_set_key" : "_ZN6google8protobuf8internal14WireFormatLite20WireTypeForFieldTypeENS2_9FieldTypeE",
   "parameters" :
   [
    {
     "referenced_type" : "_ZTIN6google8protobuf8internal14WireFormatLite9FieldTypeE"
    }
   ],
   "return_type" : "_ZTIN6google8protobuf8internal14WireFormatLite8WireTypeE",
   "source_file" : "external/protobuf/src/google/protobuf/wire_format_lite.h"
  },
  {
   "function_name" : "google::protobuf::internal::WireFormatLite::WriteSFixed32ToArray",
   "linker_set_key" : "_ZN6google8protobuf8internal14WireFormatLite20WriteSFixed32ToArrayEiRKNS0_13RepeatedFieldIiEEPh",
   "parameters" :
   [
    {
     "referenced_type" : "_ZTIi"
    },
    {
     "referenced_type" : "_ZTIRKN6google8protobuf13RepeatedFieldIiEE"
    },
    {
     "referenced_type" : "_ZTIPh"
    }
   ],
   "return_type" : "_ZTIPh",
   "source_file" : "external/protobuf/src/google/protobuf/wire_format_lite.h"
  },
  {
   "function_name" : "google::protobuf::internal::WireFormatLite::WriteSFixed32ToArray",
   "linker_set_key" : "_ZN6google8protobuf8internal14WireFormatLite20WriteSFixed32ToArrayEiiPh",
   "parameters" :
   [
    {
     "referenced_type" : "_ZTIi"
    },
    {
     "referenced_type" : "_ZTIi"
    },
    {
     "referenced_type" : "_ZTIPh"
    }
   ],
   "return_type" : "_ZTIPh",
   "source_file" : "external/protobuf/src/google/protobuf/wire_format_lite.h"
  },
  {
   "function_name" : "google::protobuf::internal::WireFormatLite::WriteSFixed64ToArray",
   "linker_set_key" : "_ZN6google8protobuf8internal14WireFormatLite20WriteSFixed64ToArrayEiRKNS0_13RepeatedFieldIxEEPh",
   "parameters" :
   [
    {
     "referenced_type" : "_ZTIi"
    },
    {
     "referenced_type" : "_ZTIRKN6google8protobuf13RepeatedFieldIxEE"
    },
    {
     "referenced_type" : "_ZTIPh"
    }
   ],
   "return_type" : "_ZTIPh",
   "source_file" : "external/protobuf/src/google/protobuf/wire_format_lite.h"
  },
  {
   "function_name" : "google::protobuf::internal::WireFormatLite::WriteSFixed64ToArray",
   "linker_set_key" : "_ZN6google8protobuf8internal14WireFormatLite20WriteSFixed64ToArrayEixPh",
   "parameters" :
   [
    {
     "referenced_type" : "_ZTIi"
    },
    {
     "referenced_type" : "_ZTIx"
    },
    {
     "referenced_type" : "_ZTIPh"
    }
   ],
   "return_type" : "_ZTIPh",
   "source_file" : "external/protobuf/src/google/protobuf/wire_format_lite.h"
  },
  {
   "function_name" : "google::protobuf::internal::WireFormatLite::ReadRepeatedPrimitive",
   "linker_set_key" : "_ZN6google8protobuf8internal14WireFormatLite21ReadRepeatedPrimitiveIdLNS2_9FieldTypeE1EEEbijPNS0_2io16CodedInputStreamEPNS0_13RepeatedFieldIT_EE",
   "parameters" :
   [
    {
     "referenced_type" : "_ZTIi"
    },
    {
     "referenced_type" : "_ZTIj"
    },
    {
     "referenced_type" : "_ZTIPN6google8protobuf2io16CodedInputStreamE"
    },
    {
     "referenced_type" : "_ZTIPN6google8protobuf13RepeatedFieldIdEE"
    }
   ],
   "return_type" : "_ZTIb",
   "source_file" : "external/protobuf/src/google/protobuf/wire_format_lite.h",
   "template_args" : [ "_ZTId" ]
  },
  {
   "function_name" : "google::protobuf::internal::WireFormatLite::ReadRepeatedPrimitive",
   "linker_set_key" : "_ZN6google8protobuf8internal14WireFormatLite21ReadRepeatedPrimitiveIfLNS2_9FieldTypeE2EEEbijPNS0_2io16CodedInputStreamEPNS0_13RepeatedFieldIT_EE",
   "parameters" :
   [
    {
     "referenced_type" : "_ZTIi"
    },
    {
     "referenced_type" : "_ZTIj"
    },
    {
     "referenced_type" : "_ZTIPN6google8protobuf2io16CodedInputStreamE"
    },
    {
     "referenced_type" : "_ZTIPN6google8protobuf13RepeatedFieldIfEE"
    }
   ],
   "return_type" : "_ZTIb",
   "source_file" : "external/protobuf/src/google/protobuf/wire_format_lite.h",
   "template_args" : [ "_ZTIf" ]
  },
  {
   "function_name" : "google::protobuf::internal::WireFormatLite::ReadRepeatedPrimitive",
   "linker_set_key" : "_ZN6google8protobuf8internal14WireFormatLite21ReadRepeatedPrimitiveIiLNS2_9FieldTypeE15EEEbijPNS0_2io16CodedInputStreamEPNS0_13RepeatedFieldIT_EE",
   "parameters" :
   [
    {
     "referenced_type" : "_ZTIi"
    },
    {
     "referenced_type" : "_ZTIj"
    },
    {
     "referenced_type" : "_ZTIPN6google8protobuf2io16CodedInputStreamE"
    },
    {
     "referenced_type" : "_ZTIPN6google8protobuf13RepeatedFieldIiEE"
    }
   ],
   "return_type" : "_ZTIb",
   "source_file" : "external/protobuf/src/google/protobuf/wire_format_lite.h",
   "template_args" : [ "_ZTIi" ]
  },
  {
   "function_name" : "google::protobuf::internal::WireFormatLite::ReadRepeatedPrimitive",
   "linker_set_key" : "_ZN6google8protobuf8internal14WireFormatLite21ReadRepeatedPrimitiveIjLNS2_9FieldTypeE7EEEbijPNS0_2io16CodedInputStreamEPNS0_13RepeatedFieldIT_EE",
   "parameters" :
   [
    {
     "referenced_type" : "_ZTIi"
    },
    {
     "referenced_type" : "_ZTIj"
    },
    {
     "referenced_type" : "_ZTIPN6google8protobuf2io16CodedInputStreamE"
    },
    {
     "referenced_type" : "_ZTIPN6google8protobuf13RepeatedFieldIjEE"
    }
   ],
   "return_type" : "_ZTIb",
   "source_file" : "external/protobuf/src/google/protobuf/wire_format_lite.h",
   "template_args" : [ "_ZTIj" ]
  },
  {
   "function_name" : "google::protobuf::internal::WireFormatLite::ReadRepeatedPrimitive",
   "linker_set_key" : "_ZN6google8protobuf8internal14WireFormatLite21ReadRepeatedPrimitiveIxLNS2_9FieldTypeE16EEEbijPNS0_2io16CodedInputStreamEPNS0_13RepeatedFieldIT_EE",
   "parameters" :
   [
    {
     "referenced_type" : "_ZTIi"
    },
    {
     "referenced_type" : "_ZTIj"
    },
    {
     "referenced_type" : "_ZTIPN6google8protobuf2io16CodedInputStreamE"
    },
    {
     "referenced_type" : "_ZTIPN6google8protobuf13RepeatedFieldIxEE"
    }
   ],
   "return_type" : "_ZTIb",
   "source_file" : "external/protobuf/src/google/protobuf/wire_format_lite.h",
   "template_args" : [ "_ZTIx" ]
  },
  {
   "function_name" : "google::protobuf::internal::WireFormatLite::ReadRepeatedPrimitive",
   "linker_set_key" : "_ZN6google8protobuf8internal14WireFormatLite21ReadRepeatedPrimitiveIyLNS2_9FieldTypeE6EEEbijPNS0_2io16CodedInputStreamEPNS0_13RepeatedFieldIT_EE",
   "parameters" :
   [
    {
     "referenced_type" : "_ZTIi"
    },
    {
     "referenced_type" : "_ZTIj"
    },
    {
     "referenced_type" : "_ZTIPN6google8protobuf2io16CodedInputStreamE"
    },
    {
     "referenced_type" : "_ZTIPN6google8protobuf13RepeatedFieldIyEE"
    }
   ],
   "return_type" : "_ZTIb",
   "source_file" : "external/protobuf/src/google/protobuf/wire_format_lite.h",
   "template_args" : [ "_ZTIy" ]
  },
  {
   "function_name" : "google::protobuf::internal::WireFormatLite::WriteBoolNoTagToArray",
   "linker_set_key" : "_ZN6google8protobuf8internal14WireFormatLite21WriteBoolNoTagToArrayERKNS0_13RepeatedFieldIbEEPh",
   "parameters" :
   [
    {
     "referenced_type" : "_ZTIRKN6google8protobuf13RepeatedFieldIbEE"
    },
    {
     "referenced_type" : "_ZTIPh"
    }
   ],
   "return_type" : "_ZTIPh",
   "source_file" : "external/protobuf/src/google/protobuf/wire_format_lite.h"
  },
  {
   "function_name" : "google::protobuf::internal::WireFormatLite::WriteBoolNoTagToArray",
   "linker_set_key" : "_ZN6google8protobuf8internal14WireFormatLite21WriteBoolNoTagToArrayEbPh",
   "parameters" :
   [
    {
     "referenced_type" : "_ZTIb"
    },
    {
     "referenced_type" : "_ZTIPh"
    }
   ],
   "return_type" : "_ZTIPh",
   "source_file" : "external/protobuf/src/google/protobuf/wire_format_lite.h"
  },
  {
   "function_name" : "google::protobuf::internal::WireFormatLite::WriteEnumNoTagToArray",
   "linker_set_key" : "_ZN6google8protobuf8internal14WireFormatLite21WriteEnumNoTagToArrayERKNS0_13RepeatedFieldIiEEPh",
   "parameters" :
   [
    {
     "referenced_type" : "_ZTIRKN6google8protobuf13RepeatedFieldIiEE"
    },
    {
     "referenced_type" : "_ZTIPh"
    }
   ],
   "return_type" : "_ZTIPh",
   "source_file" : "external/protobuf/src/google/protobuf/wire_format_lite.h"
  },
  {
   "function_name" : "google::protobuf::internal::WireFormatLite::WriteEnumNoTagToArray",
   "linker_set_key" : "_ZN6google8protobuf8internal14WireFormatLite21WriteEnumNoTagToArrayEiPh",
   "parameters" :
   [
    {
     "referenced_type" : "_ZTIi"
    },
    {
     "referenced_type" : "_ZTIPh"
    }
   ],
   "return_type" : "_ZTIPh",
   "source_file" : "external/protobuf/src/google/protobuf/wire_format_lite.h"
  },
  {
   "function_name" : "google::protobuf::internal::WireFormatLite::WritePrimitiveToArray",
   "linker_set_key" : "_ZN6google8protobuf8internal14WireFormatLite21WritePrimitiveToArrayIbEEPhiRKNS0_13RepeatedFieldIT_EEPFS4_iS6_S4_ES4_",
   "parameters" :
   [
    {
     "referenced_type" : "_ZTIi"
    },
    {
     "referenced_type" : "_ZTIRKN6google8protobuf13RepeatedFieldIbEE"
    },
    {
     "referenced_type" : "_ZTIPFPhibS_E"
    },
    {
     "referenced_type" : "_ZTIPh"
    }
   ],
   "return_type" : "_ZTIPh",
   "source_file" : "external/protobuf/src/google/protobuf/wire_format_lite.h",
   "template_args" : [ "_ZTIb" ]
  },
  {
   "function_name" : "google::protobuf::internal::WireFormatLite::WritePrimitiveToArray",
   "linker_set_key" : "_ZN6google8protobuf8internal14WireFormatLite21WritePrimitiveToArrayIdEEPhiRKNS0_13RepeatedFieldIT_EEPFS4_iS6_S4_ES4_",
   "parameters" :
   [
    {
     "referenced_type" : "_ZTIi"
    },
    {
     "referenced_type" : "_ZTIRKN6google8protobuf13RepeatedFieldIdEE"
    },
    {
     "referenced_type" : "_ZTIPFPhidS_E"
    },
    {
     "referenced_type" : "_ZTIPh"
    }
   ],
   "return_type" : "_ZTIPh",
   "source_file" : "external/protobuf/src/google/protobuf/wire_format_lite.h",
   "template_args" : [ "_ZTId" ]
  },
  {
   "function_name" : "google::protobuf::internal::WireFormatLite::WritePrimitiveToArray",
   "linker_set_key" : "_ZN6google8protobuf8internal14WireFormatLite21WritePrimitiveToArrayIfEEPhiRKNS0_13RepeatedFieldIT_EEPFS4_iS6_S4_ES4_",
   "parameters" :
   [
    {
     "referenced_type" : "_ZTIi"
    },
    {
     "referenced_type" : "_ZTIRKN6google8protobuf13RepeatedFieldIfEE"
    },
    {
     "referenced_type" : "_ZTIPFPhifS_E"
    },
    {
     "referenced_type" : "_ZTIPh"
    }
   ],
   "return_type" : "_ZTIPh",
   "source_file" : "external/protobuf/src/google/protobuf/wire_format_lite.h",
   "template_args" : [ "_ZTIf" ]
  },
  {
   "function_name" : "google::protobuf::internal::WireFormatLite::WritePrimitiveToArray",
   "linker_set_key" : "_ZN6google8protobuf8internal14WireFormatLite21WritePrimitiveToArrayIiEEPhiRKNS0_13RepeatedFieldIT_EEPFS4_iS6_S4_ES4_",
   "parameters" :
   [
    {
     "referenced_type" : "_ZTIi"
    },
    {
     "referenced_type" : "_ZTIRKN6google8protobuf13RepeatedFieldIiEE"
    },
    {
     "referenced_type" : "_ZTIPFPhiiS_E"
    },
    {
     "referenced_type" : "_ZTIPh"
    }
   ],
   "return_type" : "_ZTIPh",
   "source_file" : "external/protobuf/src/google/protobuf/wire_format_lite.h",
   "template_args" : [ "_ZTIi" ]
  },
  {
   "function_name" : "google::protobuf::internal::WireFormatLite::WritePrimitiveToArray",
   "linker_set_key" : "_ZN6google8protobuf8internal14WireFormatLite21WritePrimitiveToArrayIjEEPhiRKNS0_13RepeatedFieldIT_EEPFS4_iS6_S4_ES4_",
   "parameters" :
   [
    {
     "referenced_type" : "_ZTIi"
    },
    {
     "referenced_type" : "_ZTIRKN6google8protobuf13RepeatedFieldIjEE"
    },
    {
     "referenced_type" : "_ZTIPFPhijS_E"
    },
    {
     "referenced_type" : "_ZTIPh"
    }
   ],
   "return_type" : "_ZTIPh",
   "source_file" : "external/protobuf/src/google/protobuf/wire_format_lite.h",
   "template_args" : [ "_ZTIj" ]
  },
  {
   "function_name" : "google::protobuf::internal::WireFormatLite::WritePrimitiveToArray",
   "linker_set_key" : "_ZN6google8protobuf8internal14WireFormatLite21WritePrimitiveToArrayIxEEPhiRKNS0_13RepeatedFieldIT_EEPFS4_iS6_S4_ES4_",
   "parameters" :
   [
    {
     "referenced_type" : "_ZTIi"
    },
    {
     "referenced_type" : "_ZTIRKN6google8protobuf13RepeatedFieldIxEE"
    },
    {
     "referenced_type" : "_ZTIPFPhixS_E"
    },
    {
     "referenced_type" : "_ZTIPh"
    }
   ],
   "return_type" : "_ZTIPh",
   "source_file" : "external/protobuf/src/google/protobuf/wire_format_lite.h",
   "template_args" : [ "_ZTIx" ]
  },
  {
   "function_name" : "google::protobuf::internal::WireFormatLite::WritePrimitiveToArray",
   "linker_set_key" : "_ZN6google8protobuf8internal14WireFormatLite21WritePrimitiveToArrayIyEEPhiRKNS0_13RepeatedFieldIT_EEPFS4_iS6_S4_ES4_",
   "parameters" :
   [
    {
     "referenced_type" : "_ZTIi"
    },
    {
     "referenced_type" : "_ZTIRKN6google8protobuf13RepeatedFieldIyEE"
    },
    {
     "referenced_type" : "_ZTIPFPhiyS_E"
    },
    {
     "referenced_type" : "_ZTIPh"
    }
   ],
   "return_type" : "_ZTIPh",
   "source_file" : "external/protobuf/src/google/protobuf/wire_format_lite.h",
   "template_args" : [ "_ZTIy" ]
  },
  {
   "function_name" : "google::protobuf::internal::WireFormatLite::ReadPrimitiveFromArray",
   "linker_set_key" : "_ZN6google8protobuf8internal14WireFormatLite22ReadPrimitiveFromArrayIdLNS2_9FieldTypeE1EEEPKhS6_PT_",
   "parameters" :
   [
    {
     "referenced_type" : "_ZTIPKh"
    },
    {
     "referenced_type" : "_ZTIPd"
    }
   ],
   "return_type" : "_ZTIPKh",
   "source_file" : "external/protobuf/src/google/protobuf/wire_format_lite.h",
   "template_args" : [ "_ZTId" ]
  },
  {
   "function_name" : "google::protobuf::internal::WireFormatLite::ReadPrimitiveFromArray",
   "linker_set_key" : "_ZN6google8protobuf8internal14WireFormatLite22ReadPrimitiveFromArrayIfLNS2_9FieldTypeE2EEEPKhS6_PT_",
   "parameters" :
   [
    {
     "referenced_type" : "_ZTIPKh"
    },
    {
     "referenced_type" : "_ZTIPf"
    }
   ],
   "return_type" : "_ZTIPKh",
   "source_file" : "external/protobuf/src/google/protobuf/wire_format_lite.h",
   "template_args" : [ "_ZTIf" ]
  },
  {
   "function_name" : "google::protobuf::internal::WireFormatLite::ReadPrimitiveFromArray",
   "linker_set_key" : "_ZN6google8protobuf8internal14WireFormatLite22ReadPrimitiveFromArrayIiLNS2_9FieldTypeE15EEEPKhS6_PT_",
   "parameters" :
   [
    {
     "referenced_type" : "_ZTIPKh"
    },
    {
     "referenced_type" : "_ZTIPi"
    }
   ],
   "return_type" : "_ZTIPKh",
   "source_file" : "external/protobuf/src/google/protobuf/wire_format_lite.h",
   "template_args" : [ "_ZTIi" ]
  },
  {
   "function_name" : "google::protobuf::internal::WireFormatLite::ReadPrimitiveFromArray",
   "linker_set_key" : "_ZN6google8protobuf8internal14WireFormatLite22ReadPrimitiveFromArrayIjLNS2_9FieldTypeE7EEEPKhS6_PT_",
   "parameters" :
   [
    {
     "referenced_type" : "_ZTIPKh"
    },
    {
     "referenced_type" : "_ZTIPj"
    }
   ],
   "return_type" : "_ZTIPKh",
   "source_file" : "external/protobuf/src/google/protobuf/wire_format_lite.h",
   "template_args" : [ "_ZTIj" ]
  },
  {
   "function_name" : "google::protobuf::internal::WireFormatLite::ReadPrimitiveFromArray",
   "linker_set_key" : "_ZN6google8protobuf8internal14WireFormatLite22ReadPrimitiveFromArrayIxLNS2_9FieldTypeE16EEEPKhS6_PT_",
   "parameters" :
   [
    {
     "referenced_type" : "_ZTIPKh"
    },
    {
     "referenced_type" : "_ZTIPx"
    }
   ],
   "return_type" : "_ZTIPKh",
   "source_file" : "external/protobuf/src/google/protobuf/wire_format_lite.h",
   "template_args" : [ "_ZTIx" ]
  },
  {
   "function_name" : "google::protobuf::internal::WireFormatLite::ReadPrimitiveFromArray",
   "linker_set_key" : "_ZN6google8protobuf8internal14WireFormatLite22ReadPrimitiveFromArrayIyLNS2_9FieldTypeE6EEEPKhS6_PT_",
   "parameters" :
   [
    {
     "referenced_type" : "_ZTIPKh"
    },
    {
     "referenced_type" : "_ZTIPy"
    }
   ],
   "return_type" : "_ZTIPKh",
   "source_file" : "external/protobuf/src/google/protobuf/wire_format_lite.h",
   "template_args" : [ "_ZTIy" ]
  },
  {
   "function_name" : "google::protobuf::internal::WireFormatLite::WriteFixedNoTagToArray",
   "linker_set_key" : "_ZN6google8protobuf8internal14WireFormatLite22WriteFixedNoTagToArrayIdEEPhRKNS0_13RepeatedFieldIT_EEPFS4_S6_S4_ES4_",
   "parameters" :
   [
    {
     "referenced_type" : "_ZTIRKN6google8protobuf13RepeatedFieldIdEE"
    },
    {
     "referenced_type" : "_ZTIPFPhdS_E"
    },
    {
     "referenced_type" : "_ZTIPh"
    }
   ],
   "return_type" : "_ZTIPh",
   "source_file" : "external/protobuf/src/google/protobuf/wire_format_lite.h",
   "template_args" : [ "_ZTId" ]
  },
  {
   "function_name" : "google::protobuf::internal::WireFormatLite::WriteFixedNoTagToArray",
   "linker_set_key" : "_ZN6google8protobuf8internal14WireFormatLite22WriteFixedNoTagToArrayIfEEPhRKNS0_13RepeatedFieldIT_EEPFS4_S6_S4_ES4_",
   "parameters" :
   [
    {
     "referenced_type" : "_ZTIRKN6google8protobuf13RepeatedFieldIfEE"
    },
    {
     "referenced_type" : "_ZTIPFPhfS_E"
    },
    {
     "referenced_type" : "_ZTIPh"
    }
   ],
   "return_type" : "_ZTIPh",
   "source_file" : "external/protobuf/src/google/protobuf/wire_format_lite.h",
   "template_args" : [ "_ZTIf" ]
  },
  {
   "function_name" : "google::protobuf::internal::WireFormatLite::WriteFixedNoTagToArray",
   "linker_set_key" : "_ZN6google8protobuf8internal14WireFormatLite22WriteFixedNoTagToArrayIiEEPhRKNS0_13RepeatedFieldIT_EEPFS4_S6_S4_ES4_",
   "parameters" :
   [
    {
     "referenced_type" : "_ZTIRKN6google8protobuf13RepeatedFieldIiEE"
    },
    {
     "referenced_type" : "_ZTIPFPhiS_E"
    },
    {
     "referenced_type" : "_ZTIPh"
    }
   ],
   "return_type" : "_ZTIPh",
   "source_file" : "external/protobuf/src/google/protobuf/wire_format_lite.h",
   "template_args" : [ "_ZTIi" ]
  },
  {
   "function_name" : "google::protobuf::internal::WireFormatLite::WriteFixedNoTagToArray",
   "linker_set_key" : "_ZN6google8protobuf8internal14WireFormatLite22WriteFixedNoTagToArrayIjEEPhRKNS0_13RepeatedFieldIT_EEPFS4_S6_S4_ES4_",
   "parameters" :
   [
    {
     "referenced_type" : "_ZTIRKN6google8protobuf13RepeatedFieldIjEE"
    },
    {
     "referenced_type" : "_ZTIPFPhjS_E"
    },
    {
     "referenced_type" : "_ZTIPh"
    }
   ],
   "return_type" : "_ZTIPh",
   "source_file" : "external/protobuf/src/google/protobuf/wire_format_lite.h",
   "template_args" : [ "_ZTIj" ]
  },
  {
   "function_name" : "google::protobuf::internal::WireFormatLite::WriteFixedNoTagToArray",
   "linker_set_key" : "_ZN6google8protobuf8internal14WireFormatLite22WriteFixedNoTagToArrayIxEEPhRKNS0_13RepeatedFieldIT_EEPFS4_S6_S4_ES4_",
   "parameters" :
   [
    {
     "referenced_type" : "_ZTIRKN6google8protobuf13RepeatedFieldIxEE"
    },
    {
     "referenced_type" : "_ZTIPFPhxS_E"
    },
    {
     "referenced_type" : "_ZTIPh"
    }
   ],
   "return_type" : "_ZTIPh",
   "source_file" : "external/protobuf/src/google/protobuf/wire_format_lite.h",
   "template_args" : [ "_ZTIx" ]
  },
  {
   "function_name" : "google::protobuf::internal::WireFormatLite::WriteFixedNoTagToArray",
   "linker_set_key" : "_ZN6google8protobuf8internal14WireFormatLite22WriteFixedNoTagToArrayIyEEPhRKNS0_13RepeatedFieldIT_EEPFS4_S6_S4_ES4_",
   "parameters" :
   [
    {
     "referenced_type" : "_ZTIRKN6google8protobuf13RepeatedFieldIyEE"
    },
    {
     "referenced_type" : "_ZTIPFPhyS_E"
    },
    {
     "referenced_type" : "_ZTIPh"
    }
   ],
   "return_type" : "_ZTIPh",
   "source_file" : "external/protobuf/src/google/protobuf/wire_format_lite.h",
   "template_args" : [ "_ZTIy" ]
  },
  {
   "function_name" : "google::protobuf::internal::WireFormatLite::WriteFloatNoTagToArray",
   "linker_set_key" : "_ZN6google8protobuf8internal14WireFormatLite22WriteFloatNoTagToArrayERKNS0_13RepeatedFieldIfEEPh",
   "parameters" :
   [
    {
     "referenced_type" : "_ZTIRKN6google8protobuf13RepeatedFieldIfEE"
    },
    {
     "referenced_type" : "_ZTIPh"
    }
   ],
   "return_type" : "_ZTIPh",
   "source_file" : "external/protobuf/src/google/protobuf/wire_format_lite.h"
  },
  {
   "function_name" : "google::protobuf::internal::WireFormatLite::WriteFloatNoTagToArray",
   "linker_set_key" : "_ZN6google8protobuf8internal14WireFormatLite22WriteFloatNoTagToArrayEfPh",
   "parameters" :
   [
    {
     "referenced_type" : "_ZTIf"
    },
    {
     "referenced_type" : "_ZTIPh"
    }
   ],
   "return_type" : "_ZTIPh",
   "source_file" : "external/protobuf/src/google/protobuf/wire_format_lite.h"
  },
  {
   "function_name" : "google::protobuf::internal::WireFormatLite::WriteInt32NoTagToArray",
   "linker_set_key" : "_ZN6google8protobuf8internal14WireFormatLite22WriteInt32NoTagToArrayERKNS0_13RepeatedFieldIiEEPh",
   "parameters" :
   [
    {
     "referenced_type" : "_ZTIRKN6google8protobuf13RepeatedFieldIiEE"
    },
    {
     "referenced_type" : "_ZTIPh"
    }
   ],
   "return_type" : "_ZTIPh",
   "source_file" : "external/protobuf/src/google/protobuf/wire_format_lite.h"
  },
  {
   "function_name" : "google::protobuf::internal::WireFormatLite::WriteInt32NoTagToArray",
   "linker_set_key" : "_ZN6google8protobuf8internal14WireFormatLite22WriteInt32NoTagToArrayEiPh",
   "parameters" :
   [
    {
     "referenced_type" : "_ZTIi"
    },
    {
     "referenced_type" : "_ZTIPh"
    }
   ],
   "return_type" : "_ZTIPh",
   "source_file" : "external/protobuf/src/google/protobuf/wire_format_lite.h"
  },
  {
   "function_name" : "google::protobuf::internal::WireFormatLite::WriteInt64NoTagToArray",
   "linker_set_key" : "_ZN6google8protobuf8internal14WireFormatLite22WriteInt64NoTagToArrayERKNS0_13RepeatedFieldIxEEPh",
   "parameters" :
   [
    {
     "referenced_type" : "_ZTIRKN6google8protobuf13RepeatedFieldIxEE"
    },
    {
     "referenced_type" : "_ZTIPh"
    }
   ],
   "return_type" : "_ZTIPh",
   "source_file" : "external/protobuf/src/google/protobuf/wire_format_lite.h"
  },
  {
   "function_name" : "google::protobuf::internal::WireFormatLite::WriteInt64NoTagToArray",
   "linker_set_key" : "_ZN6google8protobuf8internal14WireFormatLite22WriteInt64NoTagToArrayExPh",
   "parameters" :
   [
    {
     "referenced_type" : "_ZTIx"
    },
    {
     "referenced_type" : "_ZTIPh"
    }
   ],
   "return_type" : "_ZTIPh",
   "source_file" : "external/protobuf/src/google/protobuf/wire_format_lite.h"
  },
  {
   "function_name" : "google::protobuf::internal::WireFormatLite::WriteDoubleNoTagToArray",
   "linker_set_key" : "_ZN6google8protobuf8internal14WireFormatLite23WriteDoubleNoTagToArrayERKNS0_13RepeatedFieldIdEEPh",
   "parameters" :
   [
    {
     "referenced_type" : "_ZTIRKN6google8protobuf13RepeatedFieldIdEE"
    },
    {
     "referenced_type" : "_ZTIPh"
    }
   ],
   "return_type" : "_ZTIPh",
   "source_file" : "external/protobuf/src/google/protobuf/wire_format_lite.h"
  },
  {
   "function_name" : "google::protobuf::internal::WireFormatLite::WriteDoubleNoTagToArray",
   "linker_set_key" : "_ZN6google8protobuf8internal14WireFormatLite23WriteDoubleNoTagToArrayEdPh",
   "parameters" :
   [
    {
     "referenced_type" : "_ZTId"
    },
    {
     "referenced_type" : "_ZTIPh"
    }
   ],
   "return_type" : "_ZTIPh",
   "source_file" : "external/protobuf/src/google/protobuf/wire_format_lite.h"
  },
  {
   "function_name" : "google::protobuf::internal::WireFormatLite::WriteSInt32NoTagToArray",
   "linker_set_key" : "_ZN6google8protobuf8internal14WireFormatLite23WriteSInt32NoTagToArrayERKNS0_13RepeatedFieldIiEEPh",
   "parameters" :
   [
    {
     "referenced_type" : "_ZTIRKN6google8protobuf13RepeatedFieldIiEE"
    },
    {
     "referenced_type" : "_ZTIPh"
    }
   ],
   "return_type" : "_ZTIPh",
   "source_file" : "external/protobuf/src/google/protobuf/wire_format_lite.h"
  },
  {
   "function_name" : "google::protobuf::internal::WireFormatLite::WriteSInt32NoTagToArray",
   "linker_set_key" : "_ZN6google8protobuf8internal14WireFormatLite23WriteSInt32NoTagToArrayEiPh",
   "parameters" :
   [
    {
     "referenced_type" : "_ZTIi"
    },
    {
     "referenced_type" : "_ZTIPh"
    }
   ],
   "return_type" : "_ZTIPh",
   "source_file" : "external/protobuf/src/google/protobuf/wire_format_lite.h"
  },
  {
   "function_name" : "google::protobuf::internal::WireFormatLite::WriteSInt64NoTagToArray",
   "linker_set_key" : "_ZN6google8protobuf8internal14WireFormatLite23WriteSInt64NoTagToArrayERKNS0_13RepeatedFieldIxEEPh",
   "parameters" :
   [
    {
     "referenced_type" : "_ZTIRKN6google8protobuf13RepeatedFieldIxEE"
    },
    {
     "referenced_type" : "_ZTIPh"
    }
   ],
   "return_type" : "_ZTIPh",
   "source_file" : "external/protobuf/src/google/protobuf/wire_format_lite.h"
  },
  {
   "function_name" : "google::protobuf::internal::WireFormatLite::WriteSInt64NoTagToArray",
   "linker_set_key" : "_ZN6google8protobuf8internal14WireFormatLite23WriteSInt64NoTagToArrayExPh",
   "parameters" :
   [
    {
     "referenced_type" : "_ZTIx"
    },
    {
     "referenced_type" : "_ZTIPh"
    }
   ],
   "return_type" : "_ZTIPh",
   "source_file" : "external/protobuf/src/google/protobuf/wire_format_lite.h"
  },
  {
   "function_name" : "google::protobuf::internal::WireFormatLite::WriteUInt32NoTagToArray",
   "linker_set_key" : "_ZN6google8protobuf8internal14WireFormatLite23WriteUInt32NoTagToArrayERKNS0_13RepeatedFieldIjEEPh",
   "parameters" :
   [
    {
     "referenced_type" : "_ZTIRKN6google8protobuf13RepeatedFieldIjEE"
    },
    {
     "referenced_type" : "_ZTIPh"
    }
   ],
   "return_type" : "_ZTIPh",
   "source_file" : "external/protobuf/src/google/protobuf/wire_format_lite.h"
  },
  {
   "function_name" : "google::protobuf::internal::WireFormatLite::WriteUInt32NoTagToArray",
   "linker_set_key" : "_ZN6google8protobuf8internal14WireFormatLite23WriteUInt32NoTagToArrayEjPh",
   "parameters" :
   [
    {
     "referenced_type" : "_ZTIj"
    },
    {
     "referenced_type" : "_ZTIPh"
    }
   ],
   "return_type" : "_ZTIPh",
   "source_file" : "external/protobuf/src/google/protobuf/wire_format_lite.h"
  },
  {
   "function_name" : "google::protobuf::internal::WireFormatLite::WriteUInt64NoTagToArray",
   "linker_set_key" : "_ZN6google8protobuf8internal14WireFormatLite23WriteUInt64NoTagToArrayERKNS0_13RepeatedFieldIyEEPh",
   "parameters" :
   [
    {
     "referenced_type" : "_ZTIRKN6google8protobuf13RepeatedFieldIyEE"
    },
    {
     "referenced_type" : "_ZTIPh"
    }
   ],
   "return_type" : "_ZTIPh",
   "source_file" : "external/protobuf/src/google/protobuf/wire_format_lite.h"
  },
  {
   "function_name" : "google::protobuf::internal::WireFormatLite::WriteUInt64NoTagToArray",
   "linker_set_key" : "_ZN6google8protobuf8internal14WireFormatLite23WriteUInt64NoTagToArrayEyPh",
   "parameters" :
   [
    {
     "referenced_type" : "_ZTIy"
    },
    {
     "referenced_type" : "_ZTIPh"
    }
   ],
   "return_type" : "_ZTIPh",
   "source_file" : "external/protobuf/src/google/protobuf/wire_format_lite.h"
  },
  {
   "function_name" : "google::protobuf::internal::WireFormatLite::WriteFixed32NoTagToArray",
   "linker_set_key" : "_ZN6google8protobuf8internal14WireFormatLite24WriteFixed32NoTagToArrayERKNS0_13RepeatedFieldIjEEPh",
   "parameters" :
   [
    {
     "referenced_type" : "_ZTIRKN6google8protobuf13RepeatedFieldIjEE"
    },
    {
     "referenced_type" : "_ZTIPh"
    }
   ],
   "return_type" : "_ZTIPh",
   "source_file" : "external/protobuf/src/google/protobuf/wire_format_lite.h"
  },
  {
   "function_name" : "google::protobuf::internal::WireFormatLite::WriteFixed32NoTagToArray",
   "linker_set_key" : "_ZN6google8protobuf8internal14WireFormatLite24WriteFixed32NoTagToArrayEjPh",
   "parameters" :
   [
    {
     "referenced_type" : "_ZTIj"
    },
    {
     "referenced_type" : "_ZTIPh"
    }
   ],
   "return_type" : "_ZTIPh",
   "source_file" : "external/protobuf/src/google/protobuf/wire_format_lite.h"
  },
  {
   "function_name" : "google::protobuf::internal::WireFormatLite::WriteFixed64NoTagToArray",
   "linker_set_key" : "_ZN6google8protobuf8internal14WireFormatLite24WriteFixed64NoTagToArrayERKNS0_13RepeatedFieldIyEEPh",
   "parameters" :
   [
    {
     "referenced_type" : "_ZTIRKN6google8protobuf13RepeatedFieldIyEE"
    },
    {
     "referenced_type" : "_ZTIPh"
    }
   ],
   "return_type" : "_ZTIPh",
   "source_file" : "external/protobuf/src/google/protobuf/wire_format_lite.h"
  },
  {
   "function_name" : "google::protobuf::internal::WireFormatLite::WriteFixed64NoTagToArray",
   "linker_set_key" : "_ZN6google8protobuf8internal14WireFormatLite24WriteFixed64NoTagToArrayEyPh",
   "parameters" :
   [
    {
     "referenced_type" : "_ZTIy"
    },
    {
     "referenced_type" : "_ZTIPh"
    }
   ],
   "return_type" : "_ZTIPh",
   "source_file" : "external/protobuf/src/google/protobuf/wire_format_lite.h"
  },
  {
   "function_name" : "google::protobuf::internal::WireFormatLite::InternalWriteGroupToArray",
   "linker_set_key" : "_ZN6google8protobuf8internal14WireFormatLite25InternalWriteGroupToArrayINS0_11MessageLiteEEEPhiRKT_S5_",
   "parameters" :
   [
    {
     "referenced_type" : "_ZTIi"
    },
    {
     "referenced_type" : "_ZTIRKN6google8protobuf11MessageLiteE"
    },
    {
     "referenced_type" : "_ZTIPh"
    }
   ],
   "return_type" : "_ZTIPh",
   "source_file" : "external/protobuf/src/google/protobuf/wire_format_lite.h",
   "template_args" : [ "_ZTIN6google8protobuf11MessageLiteE" ]
  },
  {
   "function_name" : "google::protobuf::internal::WireFormatLite::WriteSFixed32NoTagToArray",
   "linker_set_key" : "_ZN6google8protobuf8internal14WireFormatLite25WriteSFixed32NoTagToArrayERKNS0_13RepeatedFieldIiEEPh",
   "parameters" :
   [
    {
     "referenced_type" : "_ZTIRKN6google8protobuf13RepeatedFieldIiEE"
    },
    {
     "referenced_type" : "_ZTIPh"
    }
   ],
   "return_type" : "_ZTIPh",
   "source_file" : "external/protobuf/src/google/protobuf/wire_format_lite.h"
  },
  {
   "function_name" : "google::protobuf::internal::WireFormatLite::WriteSFixed32NoTagToArray",
   "linker_set_key" : "_ZN6google8protobuf8internal14WireFormatLite25WriteSFixed32NoTagToArrayEiPh",
   "parameters" :
   [
    {
     "referenced_type" : "_ZTIi"
    },
    {
     "referenced_type" : "_ZTIPh"
    }
   ],
   "return_type" : "_ZTIPh",
   "source_file" : "external/protobuf/src/google/protobuf/wire_format_lite.h"
  },
  {
   "function_name" : "google::protobuf::internal::WireFormatLite::WriteSFixed64NoTagToArray",
   "linker_set_key" : "_ZN6google8protobuf8internal14WireFormatLite25WriteSFixed64NoTagToArrayERKNS0_13RepeatedFieldIxEEPh",
   "parameters" :
   [
    {
     "referenced_type" : "_ZTIRKN6google8protobuf13RepeatedFieldIxEE"
    },
    {
     "referenced_type" : "_ZTIPh"
    }
   ],
   "return_type" : "_ZTIPh",
   "source_file" : "external/protobuf/src/google/protobuf/wire_format_lite.h"
  },
  {
   "function_name" : "google::protobuf::internal::WireFormatLite::WriteSFixed64NoTagToArray",
   "linker_set_key" : "_ZN6google8protobuf8internal14WireFormatLite25WriteSFixed64NoTagToArrayExPh",
   "parameters" :
   [
    {
     "referenced_type" : "_ZTIx"
    },
    {
     "referenced_type" : "_ZTIPh"
    }
   ],
   "return_type" : "_ZTIPh",
   "source_file" : "external/protobuf/src/google/protobuf/wire_format_lite.h"
  },
  {
   "function_name" : "google::protobuf::internal::WireFormatLite::WritePrimitiveNoTagToArray",
   "linker_set_key" : "_ZN6google8protobuf8internal14WireFormatLite26WritePrimitiveNoTagToArrayIbEEPhRKNS0_13RepeatedFieldIT_EEPFS4_S6_S4_ES4_",
   "parameters" :
   [
    {
     "referenced_type" : "_ZTIRKN6google8protobuf13RepeatedFieldIbEE"
    },
    {
     "referenced_type" : "_ZTIPFPhbS_E"
    },
    {
     "referenced_type" : "_ZTIPh"
    }
   ],
   "return_type" : "_ZTIPh",
   "source_file" : "external/protobuf/src/google/protobuf/wire_format_lite.h",
   "template_args" : [ "_ZTIb" ]
  },
  {
   "function_name" : "google::protobuf::internal::WireFormatLite::WritePrimitiveNoTagToArray",
   "linker_set_key" : "_ZN6google8protobuf8internal14WireFormatLite26WritePrimitiveNoTagToArrayIiEEPhRKNS0_13RepeatedFieldIT_EEPFS4_S6_S4_ES4_",
   "parameters" :
   [
    {
     "referenced_type" : "_ZTIRKN6google8protobuf13RepeatedFieldIiEE"
    },
    {
     "referenced_type" : "_ZTIPFPhiS_E"
    },
    {
     "referenced_type" : "_ZTIPh"
    }
   ],
   "return_type" : "_ZTIPh",
   "source_file" : "external/protobuf/src/google/protobuf/wire_format_lite.h",
   "template_args" : [ "_ZTIi" ]
  },
  {
   "function_name" : "google::protobuf::internal::WireFormatLite::WritePrimitiveNoTagToArray",
   "linker_set_key" : "_ZN6google8protobuf8internal14WireFormatLite26WritePrimitiveNoTagToArrayIjEEPhRKNS0_13RepeatedFieldIT_EEPFS4_S6_S4_ES4_",
   "parameters" :
   [
    {
     "referenced_type" : "_ZTIRKN6google8protobuf13RepeatedFieldIjEE"
    },
    {
     "referenced_type" : "_ZTIPFPhjS_E"
    },
    {
     "referenced_type" : "_ZTIPh"
    }
   ],
   "return_type" : "_ZTIPh",
   "source_file" : "external/protobuf/src/google/protobuf/wire_format_lite.h",
   "template_args" : [ "_ZTIj" ]
  },
  {
   "function_name" : "google::protobuf::internal::WireFormatLite::WritePrimitiveNoTagToArray",
   "linker_set_key" : "_ZN6google8protobuf8internal14WireFormatLite26WritePrimitiveNoTagToArrayIxEEPhRKNS0_13RepeatedFieldIT_EEPFS4_S6_S4_ES4_",
   "parameters" :
   [
    {
     "referenced_type" : "_ZTIRKN6google8protobuf13RepeatedFieldIxEE"
    },
    {
     "referenced_type" : "_ZTIPFPhxS_E"
    },
    {
     "referenced_type" : "_ZTIPh"
    }
   ],
   "return_type" : "_ZTIPh",
   "source_file" : "external/protobuf/src/google/protobuf/wire_format_lite.h",
   "template_args" : [ "_ZTIx" ]
  },
  {
   "function_name" : "google::protobuf::internal::WireFormatLite::WritePrimitiveNoTagToArray",
   "linker_set_key" : "_ZN6google8protobuf8internal14WireFormatLite26WritePrimitiveNoTagToArrayIyEEPhRKNS0_13RepeatedFieldIT_EEPFS4_S6_S4_ES4_",
   "parameters" :
   [
    {
     "referenced_type" : "_ZTIRKN6google8protobuf13RepeatedFieldIyEE"
    },
    {
     "referenced_type" : "_ZTIPFPhyS_E"
    },
    {
     "referenced_type" : "_ZTIPh"
    }
   ],
   "return_type" : "_ZTIPh",
   "source_file" : "external/protobuf/src/google/protobuf/wire_format_lite.h",
   "template_args" : [ "_ZTIy" ]
  },
  {
   "function_name" : "google::protobuf::internal::WireFormatLite::InternalWriteMessageToArray",
   "linker_set_key" : "_ZN6google8protobuf8internal14WireFormatLite27InternalWriteMessageToArrayINS0_11MessageLiteEEEPhiRKT_S5_",
   "parameters" :
   [
    {
     "referenced_type" : "_ZTIi"
    },
    {
     "referenced_type" : "_ZTIRKN6google8protobuf11MessageLiteE"
    },
    {
     "referenced_type" : "_ZTIPh"
    }
   ],
   "return_type" : "_ZTIPh",
   "source_file" : "external/protobuf/src/google/protobuf/wire_format_lite.h",
   "template_args" : [ "_ZTIN6google8protobuf11MessageLiteE" ]
  },
  {
   "access" : "private",
   "function_name" : "google::protobuf::internal::WireFormatLite::ReadPackedFixedSizePrimitive",
   "linker_set_key" : "_ZN6google8protobuf8internal14WireFormatLite28ReadPackedFixedSizePrimitiveIdLNS2_9FieldTypeE1EEEbPNS0_2io16CodedInputStreamEPNS0_13RepeatedFieldIT_EE",
   "parameters" :
   [
    {
     "referenced_type" : "_ZTIPN6google8protobuf2io16CodedInputStreamE"
    },
    {
     "referenced_type" : "_ZTIPN6google8protobuf13RepeatedFieldIdEE"
    }
   ],
   "return_type" : "_ZTIb",
   "source_file" : "external/protobuf/src/google/protobuf/wire_format_lite.h",
   "template_args" : [ "_ZTId" ]
  },
  {
   "access" : "private",
   "function_name" : "google::protobuf::internal::WireFormatLite::ReadPackedFixedSizePrimitive",
   "linker_set_key" : "_ZN6google8protobuf8internal14WireFormatLite28ReadPackedFixedSizePrimitiveIfLNS2_9FieldTypeE2EEEbPNS0_2io16CodedInputStreamEPNS0_13RepeatedFieldIT_EE",
   "parameters" :
   [
    {
     "referenced_type" : "_ZTIPN6google8protobuf2io16CodedInputStreamE"
    },
    {
     "referenced_type" : "_ZTIPN6google8protobuf13RepeatedFieldIfEE"
    }
   ],
   "return_type" : "_ZTIb",
   "source_file" : "external/protobuf/src/google/protobuf/wire_format_lite.h",
   "template_args" : [ "_ZTIf" ]
  },
  {
   "access" : "private",
   "function_name" : "google::protobuf::internal::WireFormatLite::ReadPackedFixedSizePrimitive",
   "linker_set_key" : "_ZN6google8protobuf8internal14WireFormatLite28ReadPackedFixedSizePrimitiveIiLNS2_9FieldTypeE15EEEbPNS0_2io16CodedInputStreamEPNS0_13RepeatedFieldIT_EE",
   "parameters" :
   [
    {
     "referenced_type" : "_ZTIPN6google8protobuf2io16CodedInputStreamE"
    },
    {
     "referenced_type" : "_ZTIPN6google8protobuf13RepeatedFieldIiEE"
    }
   ],
   "return_type" : "_ZTIb",
   "source_file" : "external/protobuf/src/google/protobuf/wire_format_lite.h",
   "template_args" : [ "_ZTIi" ]
  },
  {
   "access" : "private",
   "function_name" : "google::protobuf::internal::WireFormatLite::ReadPackedFixedSizePrimitive",
   "linker_set_key" : "_ZN6google8protobuf8internal14WireFormatLite28ReadPackedFixedSizePrimitiveIjLNS2_9FieldTypeE7EEEbPNS0_2io16CodedInputStreamEPNS0_13RepeatedFieldIT_EE",
   "parameters" :
   [
    {
     "referenced_type" : "_ZTIPN6google8protobuf2io16CodedInputStreamE"
    },
    {
     "referenced_type" : "_ZTIPN6google8protobuf13RepeatedFieldIjEE"
    }
   ],
   "return_type" : "_ZTIb",
   "source_file" : "external/protobuf/src/google/protobuf/wire_format_lite.h",
   "template_args" : [ "_ZTIj" ]
  },
  {
   "access" : "private",
   "function_name" : "google::protobuf::internal::WireFormatLite::ReadPackedFixedSizePrimitive",
   "linker_set_key" : "_ZN6google8protobuf8internal14WireFormatLite28ReadPackedFixedSizePrimitiveIxLNS2_9FieldTypeE16EEEbPNS0_2io16CodedInputStreamEPNS0_13RepeatedFieldIT_EE",
   "parameters" :
   [
    {
     "referenced_type" : "_ZTIPN6google8protobuf2io16CodedInputStreamE"
    },
    {
     "referenced_type" : "_ZTIPN6google8protobuf13RepeatedFieldIxEE"
    }
   ],
   "return_type" : "_ZTIb",
   "source_file" : "external/protobuf/src/google/protobuf/wire_format_lite.h",
   "template_args" : [ "_ZTIx" ]
  },
  {
   "access" : "private",
   "function_name" : "google::protobuf::internal::WireFormatLite::ReadPackedFixedSizePrimitive",
   "linker_set_key" : "_ZN6google8protobuf8internal14WireFormatLite28ReadPackedFixedSizePrimitiveIyLNS2_9FieldTypeE6EEEbPNS0_2io16CodedInputStreamEPNS0_13RepeatedFieldIT_EE",
   "parameters" :
   [
    {
     "referenced_type" : "_ZTIPN6google8protobuf2io16CodedInputStreamE"
    },
    {
     "referenced_type" : "_ZTIPN6google8protobuf13RepeatedFieldIyEE"
    }
   ],
   "return_type" : "_ZTIb",
   "source_file" : "external/protobuf/src/google/protobuf/wire_format_lite.h",
   "template_args" : [ "_ZTIy" ]
  },
  {
   "access" : "private",
   "function_name" : "google::protobuf::internal::WireFormatLite::ReadRepeatedFixedSizePrimitive",
   "linker_set_key" : "_ZN6google8protobuf8internal14WireFormatLite30ReadRepeatedFixedSizePrimitiveIdLNS2_9FieldTypeE1EEEbijPNS0_2io16CodedInputStreamEPNS0_13RepeatedFieldIT_EE",
   "parameters" :
   [
    {
     "referenced_type" : "_ZTIi"
    },
    {
     "referenced_type" : "_ZTIj"
    },
    {
     "referenced_type" : "_ZTIPN6google8protobuf2io16CodedInputStreamE"
    },
    {
     "referenced_type" : "_ZTIPN6google8protobuf13RepeatedFieldIdEE"
    }
   ],
   "return_type" : "_ZTIb",
   "source_file" : "external/protobuf/src/google/protobuf/wire_format_lite.h",
   "template_args" : [ "_ZTId" ]
  },
  {
   "access" : "private",
   "function_name" : "google::protobuf::internal::WireFormatLite::ReadRepeatedFixedSizePrimitive",
   "linker_set_key" : "_ZN6google8protobuf8internal14WireFormatLite30ReadRepeatedFixedSizePrimitiveIfLNS2_9FieldTypeE2EEEbijPNS0_2io16CodedInputStreamEPNS0_13RepeatedFieldIT_EE",
   "parameters" :
   [
    {
     "referenced_type" : "_ZTIi"
    },
    {
     "referenced_type" : "_ZTIj"
    },
    {
     "referenced_type" : "_ZTIPN6google8protobuf2io16CodedInputStreamE"
    },
    {
     "referenced_type" : "_ZTIPN6google8protobuf13RepeatedFieldIfEE"
    }
   ],
   "return_type" : "_ZTIb",
   "source_file" : "external/protobuf/src/google/protobuf/wire_format_lite.h",
   "template_args" : [ "_ZTIf" ]
  },
  {
   "access" : "private",
   "function_name" : "google::protobuf::internal::WireFormatLite::ReadRepeatedFixedSizePrimitive",
   "linker_set_key" : "_ZN6google8protobuf8internal14WireFormatLite30ReadRepeatedFixedSizePrimitiveIiLNS2_9FieldTypeE15EEEbijPNS0_2io16CodedInputStreamEPNS0_13RepeatedFieldIT_EE",
   "parameters" :
   [
    {
     "referenced_type" : "_ZTIi"
    },
    {
     "referenced_type" : "_ZTIj"
    },
    {
     "referenced_type" : "_ZTIPN6google8protobuf2io16CodedInputStreamE"
    },
    {
     "referenced_type" : "_ZTIPN6google8protobuf13RepeatedFieldIiEE"
    }
   ],
   "return_type" : "_ZTIb",
   "source_file" : "external/protobuf/src/google/protobuf/wire_format_lite.h",
   "template_args" : [ "_ZTIi" ]
  },
  {
   "access" : "private",
   "function_name" : "google::protobuf::internal::WireFormatLite::ReadRepeatedFixedSizePrimitive",
   "linker_set_key" : "_ZN6google8protobuf8internal14WireFormatLite30ReadRepeatedFixedSizePrimitiveIjLNS2_9FieldTypeE7EEEbijPNS0_2io16CodedInputStreamEPNS0_13RepeatedFieldIT_EE",
   "parameters" :
   [
    {
     "referenced_type" : "_ZTIi"
    },
    {
     "referenced_type" : "_ZTIj"
    },
    {
     "referenced_type" : "_ZTIPN6google8protobuf2io16CodedInputStreamE"
    },
    {
     "referenced_type" : "_ZTIPN6google8protobuf13RepeatedFieldIjEE"
    }
   ],
   "return_type" : "_ZTIb",
   "source_file" : "external/protobuf/src/google/protobuf/wire_format_lite.h",
   "template_args" : [ "_ZTIj" ]
  },
  {
   "access" : "private",
   "function_name" : "google::protobuf::internal::WireFormatLite::ReadRepeatedFixedSizePrimitive",
   "linker_set_key" : "_ZN6google8protobuf8internal14WireFormatLite30ReadRepeatedFixedSizePrimitiveIxLNS2_9FieldTypeE16EEEbijPNS0_2io16CodedInputStreamEPNS0_13RepeatedFieldIT_EE",
   "parameters" :
   [
    {
     "referenced_type" : "_ZTIi"
    },
    {
     "referenced_type" : "_ZTIj"
    },
    {
     "referenced_type" : "_ZTIPN6google8protobuf2io16CodedInputStreamE"
    },
    {
     "referenced_type" : "_ZTIPN6google8protobuf13RepeatedFieldIxEE"
    }
   ],
   "return_type" : "_ZTIb",
   "source_file" : "external/protobuf/src/google/protobuf/wire_format_lite.h",
   "template_args" : [ "_ZTIx" ]
  },
  {
   "access" : "private",
   "function_name" : "google::protobuf::internal::WireFormatLite::ReadRepeatedFixedSizePrimitive",
   "linker_set_key" : "_ZN6google8protobuf8internal14WireFormatLite30ReadRepeatedFixedSizePrimitiveIyLNS2_9FieldTypeE6EEEbijPNS0_2io16CodedInputStreamEPNS0_13RepeatedFieldIT_EE",
   "parameters" :
   [
    {
     "referenced_type" : "_ZTIi"
    },
    {
     "referenced_type" : "_ZTIj"
    },
    {
     "referenced_type" : "_ZTIPN6google8protobuf2io16CodedInputStreamE"
    },
    {
     "referenced_type" : "_ZTIPN6google8protobuf13RepeatedFieldIyEE"
    }
   ],
   "return_type" : "_ZTIb",
   "source_file" : "external/protobuf/src/google/protobuf/wire_format_lite.h",
   "template_args" : [ "_ZTIy" ]
  },
  {
   "function_name" : "google::protobuf::internal::WireFormatLite::MakeTag",
   "linker_set_key" : "_ZN6google8protobuf8internal14WireFormatLite7MakeTagEiNS2_8WireTypeE",
   "parameters" :
   [
    {
     "referenced_type" : "_ZTIi"
    },
    {
     "referenced_type" : "_ZTIN6google8protobuf8internal14WireFormatLite8WireTypeE"
    }
   ],
   "return_type" : "_ZTIj",
   "source_file" : "external/protobuf/src/google/protobuf/wire_format_lite.h"
  },
  {
   "function_name" : "google::protobuf::internal::WireFormatLite::TagSize",
   "linker_set_key" : "_ZN6google8protobuf8internal14WireFormatLite7TagSizeEiNS2_9FieldTypeE",
   "parameters" :
   [
    {
     "referenced_type" : "_ZTIi"
    },
    {
     "referenced_type" : "_ZTIN6google8protobuf8internal14WireFormatLite9FieldTypeE"
    }
   ],
   "return_type" : "_ZTIj",
   "source_file" : "external/protobuf/src/google/protobuf/wire_format_lite.h"
  },
  {
   "function_name" : "google::protobuf::internal::WireFormatLite::EnumSize",
   "linker_set_key" : "_ZN6google8protobuf8internal14WireFormatLite8EnumSizeEi",
   "parameters" :
   [
    {
     "referenced_type" : "_ZTIi"
    }
   ],
   "return_type" : "_ZTIj",
   "source_file" : "external/protobuf/src/google/protobuf/wire_format_lite.h"
  },
  {
   "function_name" : "google::protobuf::internal::WireFormatLite::WriteTag",
   "linker_set_key" : "_ZN6google8protobuf8internal14WireFormatLite8WriteTagEiNS2_8WireTypeEPNS0_2io17CodedOutputStreamE",
   "parameters" :
   [
    {
     "referenced_type" : "_ZTIi"
    },
    {
     "referenced_type" : "_ZTIN6google8protobuf8internal14WireFormatLite8WireTypeE"
    },
    {
     "referenced_type" : "_ZTIPN6google8protobuf2io17CodedOutputStreamE"
    }
   ],
   "return_type" : "_ZTIv",
   "source_file" : "external/protobuf/src/google/protobuf/wire_format_lite.h"
  },
  {
   "function_name" : "google::protobuf::internal::WireFormatLite::BytesSize",
   "linker_set_key" : "_ZN6google8protobuf8internal14WireFormatLite9BytesSizeERKNSt3__112basic_stringIcNS3_11char_traitsIcEENS3_9allocatorIcEEEE",
   "parameters" :
   [
    {
     "referenced_type" : "_ZTIRKNSt3__112basic_stringIcNS_11char_traitsIcEENS_9allocatorIcEEEE"
    }
   ],
   "return_type" : "_ZTIj",
   "source_file" : "external/protobuf/src/google/protobuf/wire_format_lite.h"
  },
  {
   "function_name" : "google::protobuf::internal::WireFormatLite::Int32Size",
   "linker_set_key" : "_ZN6google8protobuf8internal14WireFormatLite9Int32SizeEi",
   "parameters" :
   [
    {
     "referenced_type" : "_ZTIi"
    }
   ],
   "return_type" : "_ZTIj",
   "source_file" : "external/protobuf/src/google/protobuf/wire_format_lite.h"
  },
  {
   "function_name" : "google::protobuf::internal::WireFormatLite::Int64Size",
   "linker_set_key" : "_ZN6google8protobuf8internal14WireFormatLite9Int64SizeEx",
   "parameters" :
   [
    {
     "referenced_type" : "_ZTIx"
    }
   ],
   "return_type" : "_ZTIj",
   "source_file" : "external/protobuf/src/google/protobuf/wire_format_lite.h"
  },
  {
   "function_name" : "google::protobuf::internal::memcpy_inlined",
   "linker_set_key" : "_ZN6google8protobuf8internal14memcpy_inlinedEPcPKcj",
   "parameters" :
   [
    {
     "referenced_type" : "_ZTIPc"
    },
    {
     "referenced_type" : "_ZTIPKc"
    },
    {
     "referenced_type" : "_ZTIj"
    }
   ],
   "return_type" : "_ZTIv",
   "source_file" : "external/protobuf/src/google/protobuf/stubs/fastmem.h"
  },
  {
   "function_name" : "google::protobuf::internal::FunctionClosure0::Run",
   "linker_set_key" : "_ZN6google8protobuf8internal16FunctionClosure03RunEv",
   "parameters" :
   [
    {
     "is_this_ptr" : true,
     "referenced_type" : "_ZTIPN6google8protobuf8internal16FunctionClosure0E"
    }
   ],
   "return_type" : "_ZTIv",
   "source_file" : "external/protobuf/src/google/protobuf/stubs/callback.h"
  },
  {
   "function_name" : "google::protobuf::internal::FunctionClosure0::FunctionClosure0",
   "linker_set_key" : "_ZN6google8protobuf8internal16FunctionClosure0C1EPFvvEb",
   "parameters" :
   [
    {
     "is_this_ptr" : true,
     "referenced_type" : "_ZTIPN6google8protobuf8internal16FunctionClosure0E"
    },
    {
     "referenced_type" : "_ZTIPFvvE"
    },
    {
     "referenced_type" : "_ZTIb"
    }
   ],
   "return_type" : "_ZTIv",
   "source_file" : "external/protobuf/src/google/protobuf/stubs/callback.h"
  },
  {
   "function_name" : "google::protobuf::internal::FunctionClosure0::FunctionClosure0",
   "linker_set_key" : "_ZN6google8protobuf8internal16FunctionClosure0C2EPFvvEb",
   "parameters" :
   [
    {
     "is_this_ptr" : true,
     "referenced_type" : "_ZTIPN6google8protobuf8internal16FunctionClosure0E"
    },
    {
     "referenced_type" : "_ZTIPFvvE"
    },
    {
     "referenced_type" : "_ZTIb"
    }
   ],
   "return_type" : "_ZTIv",
   "source_file" : "external/protobuf/src/google/protobuf/stubs/callback.h"
  },
  {
   "function_name" : "google::protobuf::internal::StringTypeHandler::SpaceUsedLong",
   "linker_set_key" : "_ZN6google8protobuf8internal17StringTypeHandler13SpaceUsedLongERKNSt3__112basic_stringIcNS3_11char_traitsIcEENS3_9allocatorIcEEEE",
   "parameters" :
   [
    {
     "referenced_type" : "_ZTIRKNSt3__112basic_stringIcNS_11char_traitsIcEENS_9allocatorIcEEEE"
    }
   ],
   "return_type" : "_ZTIj",
   "source_file" : "external/protobuf/src/google/protobuf/repeated_field.h"
  },
  {
   "function_name" : "google::protobuf::internal::StringTypeHandler::NewFromPrototype",
   "linker_set_key" : "_ZN6google8protobuf8internal17StringTypeHandler16NewFromPrototypeEPKNSt3__112basic_stringIcNS3_11char_traitsIcEENS3_9allocatorIcEEEEPNS0_5ArenaE",
   "parameters" :
   [
    {
     "referenced_type" : "_ZTIPKNSt3__112basic_stringIcNS_11char_traitsIcEENS_9allocatorIcEEEE"
    },
    {
     "referenced_type" : "_ZTIPN6google8protobuf5ArenaE"
    }
   ],
   "return_type" : "_ZTIPNSt3__112basic_stringIcNS_11char_traitsIcEENS_9allocatorIcEEEE",
   "source_file" : "external/protobuf/src/google/protobuf/repeated_field.h"
  },
  {
   "function_name" : "google::protobuf::internal::StringTypeHandler::GetMaybeArenaPointer",
   "linker_set_key" : "_ZN6google8protobuf8internal17StringTypeHandler20GetMaybeArenaPointerEPNSt3__112basic_stringIcNS3_11char_traitsIcEENS3_9allocatorIcEEEE",
   "parameters" :
   [
    {
     "referenced_type" : "_ZTIPNSt3__112basic_stringIcNS_11char_traitsIcEENS_9allocatorIcEEEE"
    }
   ],
   "return_type" : "_ZTIPv",
   "source_file" : "external/protobuf/src/google/protobuf/repeated_field.h"
  },
  {
   "function_name" : "google::protobuf::internal::StringTypeHandler::New",
   "linker_set_key" : "_ZN6google8protobuf8internal17StringTypeHandler3NewEPNS0_5ArenaE",
   "parameters" :
   [
    {
     "referenced_type" : "_ZTIPN6google8protobuf5ArenaE"
    }
   ],
   "return_type" : "_ZTIPNSt3__112basic_stringIcNS_11char_traitsIcEENS_9allocatorIcEEEE",
   "source_file" : "external/protobuf/src/google/protobuf/repeated_field.h"
  },
  {
   "function_name" : "google::protobuf::internal::StringTypeHandler::New",
   "linker_set_key" : "_ZN6google8protobuf8internal17StringTypeHandler3NewEPNS0_5ArenaEONSt3__112basic_stringIcNS5_11char_traitsIcEENS5_9allocatorIcEEEE",
   "parameters" :
   [
    {
     "referenced_type" : "_ZTIPN6google8protobuf5ArenaE"
    },
    {
     "referenced_type" : "_ZTIONSt3__112basic_stringIcNS_11char_traitsIcEENS_9allocatorIcEEEE"
    }
   ],
   "return_type" : "_ZTIPNSt3__112basic_stringIcNS_11char_traitsIcEENS_9allocatorIcEEEE",
   "source_file" : "external/protobuf/src/google/protobuf/repeated_field.h"
  },
  {
   "function_name" : "google::protobuf::internal::StringTypeHandler::Clear",
   "linker_set_key" : "_ZN6google8protobuf8internal17StringTypeHandler5ClearEPNSt3__112basic_stringIcNS3_11char_traitsIcEENS3_9allocatorIcEEEE",
   "parameters" :
   [
    {
     "referenced_type" : "_ZTIPNSt3__112basic_stringIcNS_11char_traitsIcEENS_9allocatorIcEEEE"
    }
   ],
   "return_type" : "_ZTIv",
   "source_file" : "external/protobuf/src/google/protobuf/repeated_field.h"
  },
  {
   "function_name" : "google::protobuf::internal::StringTypeHandler::Merge",
   "linker_set_key" : "_ZN6google8protobuf8internal17StringTypeHandler5MergeERKNSt3__112basic_stringIcNS3_11char_traitsIcEENS3_9allocatorIcEEEEPS9_",
   "parameters" :
   [
    {
     "referenced_type" : "_ZTIRKNSt3__112basic_stringIcNS_11char_traitsIcEENS_9allocatorIcEEEE"
    },
    {
     "referenced_type" : "_ZTIPNSt3__112basic_stringIcNS_11char_traitsIcEENS_9allocatorIcEEEE"
    }
   ],
   "return_type" : "_ZTIv",
   "source_file" : "external/protobuf/src/google/protobuf/repeated_field.h"
  },
  {
   "function_name" : "google::protobuf::internal::StringTypeHandler::Delete",
   "linker_set_key" : "_ZN6google8protobuf8internal17StringTypeHandler6DeleteEPNSt3__112basic_stringIcNS3_11char_traitsIcEENS3_9allocatorIcEEEEPNS0_5ArenaE",
   "parameters" :
   [
    {
     "referenced_type" : "_ZTIPNSt3__112basic_stringIcNS_11char_traitsIcEENS_9allocatorIcEEEE"
    },
    {
     "referenced_type" : "_ZTIPN6google8protobuf5ArenaE"
    }
   ],
   "return_type" : "_ZTIv",
   "source_file" : "external/protobuf/src/google/protobuf/repeated_field.h"
  },
  {
   "function_name" : "google::protobuf::internal::StringTypeHandler::GetArena",
   "linker_set_key" : "_ZN6google8protobuf8internal17StringTypeHandler8GetArenaEPNSt3__112basic_stringIcNS3_11char_traitsIcEENS3_9allocatorIcEEEE",
   "parameters" :
   [
    {
     "referenced_type" : "_ZTIPNSt3__112basic_stringIcNS_11char_traitsIcEENS_9allocatorIcEEEE"
    }
   ],
   "return_type" : "_ZTIPN6google8protobuf5ArenaE",
   "source_file" : "external/protobuf/src/google/protobuf/repeated_field.h"
  },
  {
   "function_name" : "google::protobuf::internal::EpsCopyInputStream::ReadString",
   "linker_set_key" : "_ZN6google8protobuf8internal18EpsCopyInputStream10ReadStringEPKciPNSt3__112basic_stringIcNS5_11char_traitsIcEENS5_9allocatorIcEEEE",
   "parameters" :
   [
    {
     "is_this_ptr" : true,
     "referenced_type" : "_ZTIPN6google8protobuf8internal18EpsCopyInputStreamE"
    },
    {
     "referenced_type" : "_ZTIPKc"
    },
    {
     "referenced_type" : "_ZTIi"
    },
    {
     "referenced_type" : "_ZTIPNSt3__112basic_stringIcNS_11char_traitsIcEENS_9allocatorIcEEEE"
    }
   ],
   "return_type" : "_ZTIPKc",
   "source_file" : "external/protobuf/src/google/protobuf/parse_context.h"
  },
  {
   "function_name" : "google::protobuf::internal::EpsCopyInputStream::SetLastTag",
   "linker_set_key" : "_ZN6google8protobuf8internal18EpsCopyInputStream10SetLastTagEj",
   "parameters" :
   [
    {
     "is_this_ptr" : true,
     "referenced_type" : "_ZTIPN6google8protobuf8internal18EpsCopyInputStreamE"
    },
    {
     "referenced_type" : "_ZTIj"
    }
   ],
   "return_type" : "_ZTIv",
   "source_file" : "external/protobuf/src/google/protobuf/parse_context.h"
  },
  {
   "access" : "private",
   "function_name" : "google::protobuf::internal::EpsCopyInputStream::AppendString",
   "linker_set_key" : "_ZN6google8protobuf8internal18EpsCopyInputStream12AppendStringEPKcPNSt3__112basic_stringIcNS5_11char_traitsIcEENS5_9allocatorIcEEEE",
   "parameters" :
   [
    {
     "is_this_ptr" : true,
     "referenced_type" : "_ZTIPN6google8protobuf8internal18EpsCopyInputStreamE"
    },
    {
     "referenced_type" : "_ZTIPKc"
    },
    {
     "referenced_type" : "_ZTIPNSt3__112basic_stringIcNS_11char_traitsIcEENS_9allocatorIcEEEE"
    }
   ],
   "return_type" : "_ZTIPKc",
   "source_file" : "external/protobuf/src/google/protobuf/parse_context.h"
  },
  {
   "function_name" : "google::protobuf::internal::EpsCopyInputStream::AppendString",
   "linker_set_key" : "_ZN6google8protobuf8internal18EpsCopyInputStream12AppendStringEPKciPNSt3__112basic_stringIcNS5_11char_traitsIcEENS5_9allocatorIcEEEE",
   "parameters" :
   [
    {
     "is_this_ptr" : true,
     "referenced_type" : "_ZTIPN6google8protobuf8internal18EpsCopyInputStreamE"
    },
    {
     "referenced_type" : "_ZTIPKc"
    },
    {
     "referenced_type" : "_ZTIi"
    },
    {
     "referenced_type" : "_ZTIPNSt3__112basic_stringIcNS_11char_traitsIcEENS_9allocatorIcEEEE"
    }
   ],
   "return_type" : "_ZTIPKc",
   "source_file" : "external/protobuf/src/google/protobuf/parse_context.h"
  },
  {
   "function_name" : "google::protobuf::internal::EpsCopyInputStream::DataAvailable",
   "linker_set_key" : "_ZN6google8protobuf8internal18EpsCopyInputStream13DataAvailableEPKc",
   "parameters" :
   [
    {
     "is_this_ptr" : true,
     "referenced_type" : "_ZTIPN6google8protobuf8internal18EpsCopyInputStreamE"
    },
    {
     "referenced_type" : "_ZTIPKc"
    }
   ],
   "return_type" : "_ZTIb",
   "source_file" : "external/protobuf/src/google/protobuf/parse_context.h"
  },
  {
   "access" : "protected",
   "function_name" : "google::protobuf::internal::EpsCopyInputStream::DoneWithCheck",
   "linker_set_key" : "_ZN6google8protobuf8internal18EpsCopyInputStream13DoneWithCheckEPPKci",
   "parameters" :
   [
    {
     "is_this_ptr" : true,
     "referenced_type" : "_ZTIPN6google8protobuf8internal18EpsCopyInputStreamE"
    },
    {
     "referenced_type" : "_ZTIPPKc"
    },
    {
     "referenced_type" : "_ZTIi"
    }
   ],
   "return_type" : "_ZTIb",
   "source_file" : "external/protobuf/src/google/protobuf/parse_context.h"
  },
  {
   "function_name" : "google::protobuf::internal::EpsCopyInputStream::SetEndOfStream",
   "linker_set_key" : "_ZN6google8protobuf8internal18EpsCopyInputStream14SetEndOfStreamEv",
   "parameters" :
   [
    {
     "is_this_ptr" : true,
     "referenced_type" : "_ZTIPN6google8protobuf8internal18EpsCopyInputStreamE"
    }
   ],
   "return_type" : "_ZTIv",
   "source_file" : "external/protobuf/src/google/protobuf/parse_context.h"
  },
  {
   "function_name" : "google::protobuf::internal::EpsCopyInputStream::ConsumeEndGroup",
   "linker_set_key" : "_ZN6google8protobuf8internal18EpsCopyInputStream15ConsumeEndGroupEj",
   "parameters" :
   [
    {
     "is_this_ptr" : true,
     "referenced_type" : "_ZTIPN6google8protobuf8internal18EpsCopyInputStreamE"
    },
    {
     "referenced_type" : "_ZTIj"
    }
   ],
   "return_type" : "_ZTIb",
   "source_file" : "external/protobuf/src/google/protobuf/parse_context.h"
  },
  {
   "function_name" : "google::protobuf::internal::EpsCopyInputStream::IsExceedingLimit",
   "linker_set_key" : "_ZN6google8protobuf8internal18EpsCopyInputStream16IsExceedingLimitEPKc",
   "parameters" :
   [
    {
     "is_this_ptr" : true,
     "referenced_type" : "_ZTIPN6google8protobuf8internal18EpsCopyInputStreamE"
    },
    {
     "referenced_type" : "_ZTIPKc"
    }
   ],
   "return_type" : "_ZTIb",
   "source_file" : "external/protobuf/src/google/protobuf/parse_context.h"
  },
  {
   "function_name" : "google::protobuf::internal::EpsCopyInputStream::Skip",
   "linker_set_key" : "_ZN6google8protobuf8internal18EpsCopyInputStream4SkipEPKci",
   "parameters" :
   [
    {
     "is_this_ptr" : true,
     "referenced_type" : "_ZTIPN6google8protobuf8internal18EpsCopyInputStreamE"
    },
    {
     "referenced_type" : "_ZTIPKc"
    },
    {
     "referenced_type" : "_ZTIi"
    }
   ],
   "return_type" : "_ZTIPKc",
   "source_file" : "external/protobuf/src/google/protobuf/parse_context.h"
  },
  {
   "function_name" : "google::protobuf::internal::EpsCopyInputStream::BackUp",
   "linker_set_key" : "_ZN6google8protobuf8internal18EpsCopyInputStream6BackUpEPKc",
   "parameters" :
   [
    {
     "is_this_ptr" : true,
     "referenced_type" : "_ZTIPN6google8protobuf8internal18EpsCopyInputStreamE"
    },
    {
     "referenced_type" : "_ZTIPKc"
    }
   ],
   "return_type" : "_ZTIv",
   "source_file" : "external/protobuf/src/google/protobuf/parse_context.h"
  },
  {
   "access" : "protected",
   "function_name" : "google::protobuf::internal::EpsCopyInputStream::InitFrom",
   "linker_set_key" : "_ZN6google8protobuf8internal18EpsCopyInputStream8InitFromENS0_11StringPieceE",
   "parameters" :
   [
    {
     "is_this_ptr" : true,
     "referenced_type" : "_ZTIPN6google8protobuf8internal18EpsCopyInputStreamE"
    },
    {
     "referenced_type" : "_ZTIN6google8protobuf11StringPieceE"
    }
   ],
   "return_type" : "_ZTIPKc",
   "source_file" : "external/protobuf/src/google/protobuf/parse_context.h"
  },
  {
   "access" : "protected",
   "function_name" : "google::protobuf::internal::EpsCopyInputStream::InitFrom",
   "linker_set_key" : "_ZN6google8protobuf8internal18EpsCopyInputStream8InitFromEPNS0_2io19ZeroCopyInputStreamEi",
   "parameters" :
   [
    {
     "is_this_ptr" : true,
     "referenced_type" : "_ZTIPN6google8protobuf8internal18EpsCopyInputStreamE"
    },
    {
     "referenced_type" : "_ZTIPN6google8protobuf2io19ZeroCopyInputStreamE"
    },
    {
     "referenced_type" : "_ZTIi"
    }
   ],
   "return_type" : "_ZTIPKc",
   "source_file" : "external/protobuf/src/google/protobuf/parse_context.h"
  },
  {
   "function_name" : "google::protobuf::internal::EpsCopyInputStream::PopLimit",
   "linker_set_key" : "_ZN6google8protobuf8internal18EpsCopyInputStream8PopLimitEi",
   "parameters" :
   [
    {
     "is_this_ptr" : true,
     "referenced_type" : "_ZTIPN6google8protobuf8internal18EpsCopyInputStreamE"
    },
    {
     "referenced_type" : "_ZTIi"
    }
   ],
   "return_type" : "_ZTIb",
   "source_file" : "external/protobuf/src/google/protobuf/parse_context.h"
  },
  {
   "function_name" : "google::protobuf::internal::EpsCopyInputStream::PushLimit",
   "linker_set_key" : "_ZN6google8protobuf8internal18EpsCopyInputStream9PushLimitEPKci",
   "parameters" :
   [
    {
     "is_this_ptr" : true,
     "referenced_type" : "_ZTIPN6google8protobuf8internal18EpsCopyInputStreamE"
    },
    {
     "referenced_type" : "_ZTIPKc"
    },
    {
     "referenced_type" : "_ZTIi"
    }
   ],
   "return_type" : "_ZTIi",
   "source_file" : "external/protobuf/src/google/protobuf/parse_context.h"
  },
  {
   "function_name" : "google::protobuf::internal::EpsCopyInputStream::EpsCopyInputStream",
   "linker_set_key" : "_ZN6google8protobuf8internal18EpsCopyInputStreamC1Eb",
   "parameters" :
   [
    {
     "is_this_ptr" : true,
     "referenced_type" : "_ZTIPN6google8protobuf8internal18EpsCopyInputStreamE"
    },
    {
     "referenced_type" : "_ZTIb"
    }
   ],
   "return_type" : "_ZTIv",
   "source_file" : "external/protobuf/src/google/protobuf/parse_context.h"
  },
  {
   "function_name" : "google::protobuf::internal::EpsCopyInputStream::EpsCopyInputStream",
   "linker_set_key" : "_ZN6google8protobuf8internal18EpsCopyInputStreamC2Eb",
   "parameters" :
   [
    {
     "is_this_ptr" : true,
     "referenced_type" : "_ZTIPN6google8protobuf8internal18EpsCopyInputStreamE"
    },
    {
     "referenced_type" : "_ZTIb"
    }
   ],
   "return_type" : "_ZTIv",
   "source_file" : "external/protobuf/src/google/protobuf/parse_context.h"
  },
  {
   "function_name" : "google::protobuf::internal::GenericTypeHandler<google::protobuf::MessageLite>::GetMaybeArenaPointer",
   "linker_set_key" : "_ZN6google8protobuf8internal18GenericTypeHandlerINS0_11MessageLiteEE20GetMaybeArenaPointerEPS3_",
   "parameters" :
   [
    {
     "referenced_type" : "_ZTIPN6google8protobuf11MessageLiteE"
    }
   ],
   "return_type" : "_ZTIPv",
   "source_file" : "external/protobuf/src/google/protobuf/repeated_field.h"
  },
  {
   "function_name" : "google::protobuf::internal::GenericTypeHandler<google::protobuf::MessageLite>::GetArena",
   "linker_set_key" : "_ZN6google8protobuf8internal18GenericTypeHandlerINS0_11MessageLiteEE8GetArenaEPS3_",
   "parameters" :
   [
    {
     "referenced_type" : "_ZTIPN6google8protobuf11MessageLiteE"
    }
   ],
   "return_type" : "_ZTIPN6google8protobuf5ArenaE",
   "source_file" : "external/protobuf/src/google/protobuf/repeated_field.h"
  },
  {
   "function_name" : "google::protobuf::internal::GenericTypeHandler<std::__1::basic_string<char>>::Clear",
   "linker_set_key" : "_ZN6google8protobuf8internal18GenericTypeHandlerINSt3__112basic_stringIcNS3_11char_traitsIcEENS3_9allocatorIcEEEEE5ClearEPS9_",
   "parameters" :
   [
    {
     "referenced_type" : "_ZTIPNSt3__112basic_stringIcNS_11char_traitsIcEENS_9allocatorIcEEEE"
    }
   ],
   "return_type" : "_ZTIv",
   "source_file" : "external/protobuf/src/google/protobuf/repeated_field.h"
  },
  {
   "function_name" : "google::protobuf::internal::ReadVarintZigZag32",
   "linker_set_key" : "_ZN6google8protobuf8internal18ReadVarintZigZag32EPPKc",
   "parameters" :
   [
    {
     "referenced_type" : "_ZTIPPKc"
    }
   ],
   "return_type" : "_ZTIi",
   "source_file" : "external/protobuf/src/google/protobuf/parse_context.h"
  },
  {
   "function_name" : "google::protobuf::internal::ReadVarintZigZag32",
   "linker_set_key" : "_ZN6google8protobuf8internal18ReadVarintZigZag32EPPKcj",
   "parameters" :
   [
    {
     "referenced_type" : "_ZTIPPKc"
    },
    {
     "referenced_type" : "_ZTIj"
    }
   ],
   "return_type" : "_ZTIi",
   "source_file" : "external/protobuf/src/google/protobuf/parse_context.h"
  },
  {
   "function_name" : "google::protobuf::internal::ReadVarintZigZag64",
   "linker_set_key" : "_ZN6google8protobuf8internal18ReadVarintZigZag64EPPKc",
   "parameters" :
   [
    {
     "referenced_type" : "_ZTIPPKc"
    }
   ],
   "return_type" : "_ZTIx",
   "source_file" : "external/protobuf/src/google/protobuf/parse_context.h"
  },
  {
   "function_name" : "google::protobuf::internal::ReadVarintZigZag64",
   "linker_set_key" : "_ZN6google8protobuf8internal18ReadVarintZigZag64EPPKcj",
   "parameters" :
   [
    {
     "referenced_type" : "_ZTIPPKc"
    },
    {
     "referenced_type" : "_ZTIj"
    }
   ],
   "return_type" : "_ZTIx",
   "source_file" : "external/protobuf/src/google/protobuf/parse_context.h"
  },
  {
   "function_name" : "google::protobuf::internal::fastmemcmp_inlined",
   "linker_set_key" : "_ZN6google8protobuf8internal18fastmemcmp_inlinedEPKcS3_j",
   "parameters" :
   [
    {
     "referenced_type" : "_ZTIPKc"
    },
    {
     "referenced_type" : "_ZTIPKc"
    },
    {
     "referenced_type" : "_ZTIj"
    }
   ],
   "return_type" : "_ZTIi",
   "source_file" : "external/protobuf/src/google/protobuf/stubs/fastmem.h"
  },
  {
   "function_name" : "google::protobuf::internal::ImplicitWeakMessage::default_instance",
   "linker_set_key" : "_ZN6google8protobuf8internal19ImplicitWeakMessage16default_instanceEv",
   "return_type" : "_ZTIPKN6google8protobuf8internal19ImplicitWeakMessageE",
   "source_file" : "external/protobuf/src/google/protobuf/implicit_weak_message.h"
  },
  {
   "function_name" : "google::protobuf::internal::ImplicitWeakMessage::CheckTypeAndMergeFrom",
   "linker_set_key" : "_ZN6google8protobuf8internal19ImplicitWeakMessage21CheckTypeAndMergeFromERKNS0_11MessageLiteE",
   "parameters" :
   [
    {
     "is_this_ptr" : true,
     "referenced_type" : "_ZTIPN6google8protobuf8internal19ImplicitWeakMessageE"
    },
    {
     "referenced_type" : "_ZTIRKN6google8protobuf11MessageLiteE"
    }
   ],
   "return_type" : "_ZTIv",
   "source_file" : "external/protobuf/src/google/protobuf/implicit_weak_message.h"
  },
  {
   "function_name" : "google::protobuf::internal::ImplicitWeakMessage::MergePartialFromCodedStream",
   "linker_set_key" : "_ZN6google8protobuf8internal19ImplicitWeakMessage27MergePartialFromCodedStreamEPNS0_2io16CodedInputStreamE",
   "parameters" :
   [
    {
     "is_this_ptr" : true,
     "referenced_type" : "_ZTIPN6google8protobuf8internal19ImplicitWeakMessageE"
    },
    {
     "referenced_type" : "_ZTIPN6google8protobuf2io16CodedInputStreamE"
    }
   ],
   "return_type" : "_ZTIb",
   "source_file" : "external/protobuf/src/google/protobuf/implicit_weak_message.h"
  },
  {
   "function_name" : "google::protobuf::internal::ImplicitWeakMessage::Clear",
   "linker_set_key" : "_ZN6google8protobuf8internal19ImplicitWeakMessage5ClearEv",
   "parameters" :
   [
    {
     "is_this_ptr" : true,
     "referenced_type" : "_ZTIPN6google8protobuf8internal19ImplicitWeakMessageE"
    }
   ],
   "return_type" : "_ZTIv",
   "source_file" : "external/protobuf/src/google/protobuf/implicit_weak_message.h"
  },
  {
   "function_name" : "google::protobuf::internal::ImplicitWeakMessage::ImplicitWeakMessage",
   "linker_set_key" : "_ZN6google8protobuf8internal19ImplicitWeakMessageC1EPNS0_5ArenaE",
   "parameters" :
   [
    {
     "is_this_ptr" : true,
     "referenced_type" : "_ZTIPN6google8protobuf8internal19ImplicitWeakMessageE"
    },
    {
     "referenced_type" : "_ZTIPN6google8protobuf5ArenaE"
    }
   ],
   "return_type" : "_ZTIv",
   "source_file" : "external/protobuf/src/google/protobuf/implicit_weak_message.h"
  },
  {
   "function_name" : "google::protobuf::internal::ImplicitWeakMessage::ImplicitWeakMessage",
   "linker_set_key" : "_ZN6google8protobuf8internal19ImplicitWeakMessageC1Ev",
   "parameters" :
   [
    {
     "is_this_ptr" : true,
     "referenced_type" : "_ZTIPN6google8protobuf8internal19ImplicitWeakMessageE"
    }
   ],
   "return_type" : "_ZTIv",
   "source_file" : "external/protobuf/src/google/protobuf/implicit_weak_message.h"
  },
  {
   "function_name" : "google::protobuf::internal::ImplicitWeakMessage::ImplicitWeakMessage",
   "linker_set_key" : "_ZN6google8protobuf8internal19ImplicitWeakMessageC2EPNS0_5ArenaE",
   "parameters" :
   [
    {
     "is_this_ptr" : true,
     "referenced_type" : "_ZTIPN6google8protobuf8internal19ImplicitWeakMessageE"
    },
    {
     "referenced_type" : "_ZTIPN6google8protobuf5ArenaE"
    }
   ],
   "return_type" : "_ZTIv",
   "source_file" : "external/protobuf/src/google/protobuf/implicit_weak_message.h"
  },
  {
   "function_name" : "google::protobuf::internal::ImplicitWeakMessage::ImplicitWeakMessage",
   "linker_set_key" : "_ZN6google8protobuf8internal19ImplicitWeakMessageC2Ev",
   "parameters" :
   [
    {
     "is_this_ptr" : true,
     "referenced_type" : "_ZTIPN6google8protobuf8internal19ImplicitWeakMessageE"
    }
   ],
   "return_type" : "_ZTIv",
   "source_file" : "external/protobuf/src/google/protobuf/implicit_weak_message.h"
  },
  {
   "function_name" : "google::protobuf::internal::ParseVarint64Inline",
   "linker_set_key" : "_ZN6google8protobuf8internal19ParseVarint64InlineEPKcPy",
   "parameters" :
   [
    {
     "referenced_type" : "_ZTIPKc"
    },
    {
     "referenced_type" : "_ZTIPy"
    }
   ],
   "return_type" : "_ZTIPKc",
   "source_file" : "external/protobuf/src/google/protobuf/parse_context.h"
  },
  {
   "function_name" : "google::protobuf::internal::arena_delete_object",
   "linker_set_key" : "_ZN6google8protobuf8internal19arena_delete_objectINSt3__112basic_stringIcNS3_11char_traitsIcEENS3_9allocatorIcEEEEEEvPv",
   "parameters" :
   [
    {
     "referenced_type" : "_ZTIPv"
    }
   ],
   "return_type" : "_ZTIv",
   "source_file" : "external/protobuf/src/google/protobuf/arena.h",
   "template_args" : [ "_ZTINSt3__112basic_stringIcNS_11char_traitsIcEENS_9allocatorIcEEEE" ]
  },
  {
   "function_name" : "google::protobuf::internal::RepeatedPtrFieldBase::InternalSwap",
   "linker_set_key" : "_ZN6google8protobuf8internal20RepeatedPtrFieldBase12InternalSwapEPS2_",
   "parameters" :
   [
    {
     "is_this_ptr" : true,
     "referenced_type" : "_ZTIPN6google8protobuf8internal20RepeatedPtrFieldBaseE"
    },
    {
     "referenced_type" : "_ZTIPN6google8protobuf8internal20RepeatedPtrFieldBaseE"
    }
   ],
   "return_type" : "_ZTIv",
   "source_file" : "external/protobuf/src/google/protobuf/repeated_field.h"
  },
  {
   "access" : "protected",
   "function_name" : "google::protobuf::internal::RepeatedPtrFieldBase::SwapElements",
   "linker_set_key" : "_ZN6google8protobuf8internal20RepeatedPtrFieldBase12SwapElementsEii",
   "parameters" :
   [
    {
     "is_this_ptr" : true,
     "referenced_type" : "_ZTIPN6google8protobuf8internal20RepeatedPtrFieldBaseE"
    },
    {
     "referenced_type" : "_ZTIi"
    },
    {
     "referenced_type" : "_ZTIi"
    }
   ],
   "return_type" : "_ZTIv",
   "source_file" : "external/protobuf/src/google/protobuf/repeated_field.h"
  },
  {
   "access" : "private",
   "function_name" : "google::protobuf::internal::RepeatedPtrFieldBase::MergeFromInternal",
   "linker_set_key" : "_ZN6google8protobuf8internal20RepeatedPtrFieldBase17MergeFromInternalERKS2_MS2_FvPPvS6_iiE",
   "parameters" :
   [
    {
     "is_this_ptr" : true,
     "referenced_type" : "_ZTIPN6google8protobuf8internal20RepeatedPtrFieldBaseE"
    },
    {
     "referenced_type" : "_ZTIRKN6google8protobuf8internal20RepeatedPtrFieldBaseE"
    },
    {
     "referenced_type" : "_ZTIMN6google8protobuf8internal20RepeatedPtrFieldBaseEFvPPvS4_iiE"
    }
   ],
   "return_type" : "_ZTIv",
   "source_file" : "external/protobuf/src/google/protobuf/repeated_field.h"
  },
  {
   "access" : "protected",
   "function_name" : "google::protobuf::internal::RepeatedPtrFieldBase::RepeatedPtrFieldBase",
   "linker_set_key" : "_ZN6google8protobuf8internal20RepeatedPtrFieldBaseC1EPNS0_5ArenaE",
   "parameters" :
   [
    {
     "is_this_ptr" : true,
     "referenced_type" : "_ZTIPN6google8protobuf8internal20RepeatedPtrFieldBaseE"
    },
    {
     "referenced_type" : "_ZTIPN6google8protobuf5ArenaE"
    }
   ],
   "return_type" : "_ZTIv",
   "source_file" : "external/protobuf/src/google/protobuf/repeated_field.h"
  },
  {
   "access" : "protected",
   "function_name" : "google::protobuf::internal::RepeatedPtrFieldBase::RepeatedPtrFieldBase",
   "linker_set_key" : "_ZN6google8protobuf8internal20RepeatedPtrFieldBaseC1Ev",
   "parameters" :
   [
    {
     "is_this_ptr" : true,
     "referenced_type" : "_ZTIPN6google8protobuf8internal20RepeatedPtrFieldBaseE"
    }
   ],
   "return_type" : "_ZTIv",
   "source_file" : "external/protobuf/src/google/protobuf/repeated_field.h"
  },
  {
   "access" : "protected",
   "function_name" : "google::protobuf::internal::RepeatedPtrFieldBase::RepeatedPtrFieldBase",
   "linker_set_key" : "_ZN6google8protobuf8internal20RepeatedPtrFieldBaseC2EPNS0_5ArenaE",
   "parameters" :
   [
    {
     "is_this_ptr" : true,
     "referenced_type" : "_ZTIPN6google8protobuf8internal20RepeatedPtrFieldBaseE"
    },
    {
     "referenced_type" : "_ZTIPN6google8protobuf5ArenaE"
    }
   ],
   "return_type" : "_ZTIv",
   "source_file" : "external/protobuf/src/google/protobuf/repeated_field.h"
  },
  {
   "access" : "protected",
   "function_name" : "google::protobuf::internal::RepeatedPtrFieldBase::RepeatedPtrFieldBase",
   "linker_set_key" : "_ZN6google8protobuf8internal20RepeatedPtrFieldBaseC2Ev",
   "parameters" :
   [
    {
     "is_this_ptr" : true,
     "referenced_type" : "_ZTIPN6google8protobuf8internal20RepeatedPtrFieldBaseE"
    }
   ],
   "return_type" : "_ZTIv",
   "source_file" : "external/protobuf/src/google/protobuf/repeated_field.h"
  },
  {
   "access" : "protected",
   "function_name" : "google::protobuf::internal::RepeatedPtrFieldBase::~RepeatedPtrFieldBase",
   "linker_set_key" : "_ZN6google8protobuf8internal20RepeatedPtrFieldBaseD1Ev",
   "parameters" :
   [
    {
     "is_this_ptr" : true,
     "referenced_type" : "_ZTIPN6google8protobuf8internal20RepeatedPtrFieldBaseE"
    }
   ],
   "return_type" : "_ZTIv",
   "source_file" : "external/protobuf/src/google/protobuf/repeated_field.h"
  },
  {
   "access" : "protected",
   "function_name" : "google::protobuf::internal::RepeatedPtrFieldBase::~RepeatedPtrFieldBase",
   "linker_set_key" : "_ZN6google8protobuf8internal20RepeatedPtrFieldBaseD2Ev",
   "parameters" :
   [
    {
     "is_this_ptr" : true,
     "referenced_type" : "_ZTIPN6google8protobuf8internal20RepeatedPtrFieldBaseE"
    }
   ],
   "return_type" : "_ZTIv",
   "source_file" : "external/protobuf/src/google/protobuf/repeated_field.h"
  },
  {
   "function_name" : "google::protobuf::internal::ExplicitlyConstructed<google::protobuf::internal::ImplicitWeakMessage>::DefaultConstruct",
   "linker_set_key" : "_ZN6google8protobuf8internal21ExplicitlyConstructedINS1_19ImplicitWeakMessageEE16DefaultConstructEv",
   "parameters" :
   [
    {
     "is_this_ptr" : true,
     "referenced_type" : "_ZTIPN6google8protobuf8internal21ExplicitlyConstructedINS1_19ImplicitWeakMessageEEE"
    }
   ],
   "return_type" : "_ZTIv",
   "source_file" : "external/protobuf/src/google/protobuf/message_lite.h"
  },
  {
   "function_name" : "google::protobuf::internal::arena_destruct_object",
   "linker_set_key" : "_ZN6google8protobuf8internal21arena_destruct_objectINS1_19ImplicitWeakMessageEEEvPv",
   "parameters" :
   [
    {
     "referenced_type" : "_ZTIPv"
    }
   ],
   "return_type" : "_ZTIv",
   "source_file" : "external/protobuf/src/google/protobuf/arena.h",
   "template_args" : [ "_ZTIN6google8protobuf8internal19ImplicitWeakMessageE" ]
  },
  {
   "function_name" : "google::protobuf::internal::arena_destruct_object",
   "linker_set_key" : "_ZN6google8protobuf8internal21arena_destruct_objectINS1_29InternalMetadataWithArenaBaseINSt3__112basic_stringIcNS4_11char_traitsIcEENS4_9allocatorIcEEEENS1_29InternalMetadataWithArenaLiteEE9ContainerEEEvPv",
   "parameters" :
   [
    {
     "referenced_type" : "_ZTIPv"
    }
   ],
   "return_type" : "_ZTIv",
   "source_file" : "external/protobuf/src/google/protobuf/arena.h",
   "template_args" :
   [
    "_ZTIN6google8protobuf8internal29InternalMetadataWithArenaBaseINSt3__112basic_stringIcNS3_11char_traitsIcEENS3_9allocatorIcEEEENS1_29InternalMetadataWithArenaLiteEE9ContainerE"
   ]
  },
  {
   "function_name" : "google::protobuf::internal::arena_destruct_object",
   "linker_set_key" : "_ZN6google8protobuf8internal21arena_destruct_objectINSt3__112basic_stringIcNS3_11char_traitsIcEENS3_9allocatorIcEEEEEEvPv",
   "parameters" :
   [
    {
     "referenced_type" : "_ZTIPv"
    }
   ],
   "return_type" : "_ZTIv",
   "source_file" : "external/protobuf/src/google/protobuf/arena.h",
   "template_args" : [ "_ZTINSt3__112basic_stringIcNS_11char_traitsIcEENS_9allocatorIcEEEE" ]
  },
  {
   "function_name" : "google::protobuf::internal::LiteUnknownFieldSetter::buffer",
   "linker_set_key" : "_ZN6google8protobuf8internal22LiteUnknownFieldSetter6bufferEv",
   "parameters" :
   [
    {
     "is_this_ptr" : true,
     "referenced_type" : "_ZTIPN6google8protobuf8internal22LiteUnknownFieldSetterE"
    }
   ],
   "return_type" : "_ZTIPNSt3__112basic_stringIcNS_11char_traitsIcEENS_9allocatorIcEEEE",
   "source_file" : "external/protobuf/src/google/protobuf/metadata_lite.h"
  },
  {
   "function_name" : "google::protobuf::internal::LiteUnknownFieldSetter::LiteUnknownFieldSetter",
   "linker_set_key" : "_ZN6google8protobuf8internal22LiteUnknownFieldSetterC1EPNS1_29InternalMetadataWithArenaLiteE",
   "parameters" :
   [
    {
     "is_this_ptr" : true,
     "referenced_type" : "_ZTIPN6google8protobuf8internal22LiteUnknownFieldSetterE"
    },
    {
     "referenced_type" : "_ZTIPN6google8protobuf8internal29InternalMetadataWithArenaLiteE"
    }
   ],
   "return_type" : "_ZTIv",
   "source_file" : "external/protobuf/src/google/protobuf/metadata_lite.h"
  },
  {
   "function_name" : "google::protobuf::internal::LiteUnknownFieldSetter::LiteUnknownFieldSetter",
   "linker_set_key" : "_ZN6google8protobuf8internal22LiteUnknownFieldSetterC2EPNS1_29InternalMetadataWithArenaLiteE",
   "parameters" :
   [
    {
     "is_this_ptr" : true,
     "referenced_type" : "_ZTIPN6google8protobuf8internal22LiteUnknownFieldSetterE"
    },
    {
     "referenced_type" : "_ZTIPN6google8protobuf8internal29InternalMetadataWithArenaLiteE"
    }
   ],
   "return_type" : "_ZTIv",
   "source_file" : "external/protobuf/src/google/protobuf/metadata_lite.h"
  },
  {
   "function_name" : "google::protobuf::internal::LiteUnknownFieldSetter::~LiteUnknownFieldSetter",
   "linker_set_key" : "_ZN6google8protobuf8internal22LiteUnknownFieldSetterD1Ev",
   "parameters" :
   [
    {
     "is_this_ptr" : true,
     "referenced_type" : "_ZTIPN6google8protobuf8internal22LiteUnknownFieldSetterE"
    }
   ],
   "return_type" : "_ZTIv",
   "source_file" : "external/protobuf/src/google/protobuf/metadata_lite.h"
  },
  {
   "function_name" : "google::protobuf::internal::LiteUnknownFieldSetter::~LiteUnknownFieldSetter",
   "linker_set_key" : "_ZN6google8protobuf8internal22LiteUnknownFieldSetterD2Ev",
   "parameters" :
   [
    {
     "is_this_ptr" : true,
     "referenced_type" : "_ZTIPN6google8protobuf8internal22LiteUnknownFieldSetterE"
    }
   ],
   "return_type" : "_ZTIv",
   "source_file" : "external/protobuf/src/google/protobuf/metadata_lite.h"
  },
  {
   "function_name" : "google::protobuf::internal::IsStructurallyValidUTF8",
   "linker_set_key" : "_ZN6google8protobuf8internal23IsStructurallyValidUTF8ERKNSt3__112basic_stringIcNS2_11char_traitsIcEENS2_9allocatorIcEEEE",
   "parameters" :
   [
    {
     "referenced_type" : "_ZTIRKNSt3__112basic_stringIcNS_11char_traitsIcEENS_9allocatorIcEEEE"
    }
   ],
   "return_type" : "_ZTIb",
   "source_file" : "external/protobuf/src/google/protobuf/stubs/common.h"
  },
  {
   "function_name" : "google::protobuf::internal::OnShutdownDestroyString",
   "linker_set_key" : "_ZN6google8protobuf8internal23OnShutdownDestroyStringEPKNSt3__112basic_stringIcNS2_11char_traitsIcEENS2_9allocatorIcEEEE",
   "parameters" :
   [
    {
     "referenced_type" : "_ZTIPKNSt3__112basic_stringIcNS_11char_traitsIcEENS_9allocatorIcEEEE"
    }
   ],
   "return_type" : "_ZTIv",
   "source_file" : "external/protobuf/src/google/protobuf/generated_message_util.h"
  },
  {
   "function_name" : "google::protobuf::internal::OnShutdownDestroyMessage",
   "linker_set_key" : "_ZN6google8protobuf8internal24OnShutdownDestroyMessageEPKv",
   "parameters" :
   [
    {
     "referenced_type" : "_ZTIPKv"
    }
   ],
   "return_type" : "_ZTIv",
   "source_file" : "external/protobuf/src/google/protobuf/generated_message_util.h"
  },
  {
   "function_name" : "google::protobuf::internal::GetEmptyStringAlreadyInited",
   "linker_set_key" : "_ZN6google8protobuf8internal27GetEmptyStringAlreadyInitedEv",
   "return_type" : "_ZTIRKNSt3__112basic_stringIcNS_11char_traitsIcEENS_9allocatorIcEEEE",
   "source_file" : "external/protobuf/src/google/protobuf/message_lite.h"
  },
  {
   "function_name" : "google::protobuf::internal::ParseVarint64FallbackInline",
   "linker_set_key" : "_ZN6google8protobuf8internal27ParseVarint64FallbackInlineEPKcy",
   "parameters" :
   [
    {
     "referenced_type" : "_ZTIPKc"
    },
    {
     "referenced_type" : "_ZTIy"
    }
   ],
   "return_type" : "_ZTINSt3__14pairIPKcyEE",
   "source_file" : "external/protobuf/src/google/protobuf/parse_context.h"
  },
  {
   "function_name" : "google::protobuf::internal::CodedOutputStreamFieldSkipper::CodedOutputStreamFieldSkipper",
   "linker_set_key" : "_ZN6google8protobuf8internal29CodedOutputStreamFieldSkipperC1EPNS0_2io17CodedOutputStreamE",
   "parameters" :
   [
    {
     "is_this_ptr" : true,
     "referenced_type" : "_ZTIPN6google8protobuf8internal29CodedOutputStreamFieldSkipperE"
    },
    {
     "referenced_type" : "_ZTIPN6google8protobuf2io17CodedOutputStreamE"
    }
   ],
   "return_type" : "_ZTIv",
   "source_file" : "external/protobuf/src/google/protobuf/wire_format_lite.h"
  },
  {
   "function_name" : "google::protobuf::internal::CodedOutputStreamFieldSkipper::CodedOutputStreamFieldSkipper",
   "linker_set_key" : "_ZN6google8protobuf8internal29CodedOutputStreamFieldSkipperC2EPNS0_2io17CodedOutputStreamE",
   "parameters" :
   [
    {
     "is_this_ptr" : true,
     "referenced_type" : "_ZTIPN6google8protobuf8internal29CodedOutputStreamFieldSkipperE"
    },
    {
     "referenced_type" : "_ZTIPN6google8protobuf2io17CodedOutputStreamE"
    }
   ],
   "return_type" : "_ZTIv",
   "source_file" : "external/protobuf/src/google/protobuf/wire_format_lite.h"
  },
  {
   "function_name" : "google::protobuf::internal::CodedOutputStreamFieldSkipper::~CodedOutputStreamFieldSkipper",
   "linker_set_key" : "_ZN6google8protobuf8internal29CodedOutputStreamFieldSkipperD0Ev",
   "parameters" :
   [
    {
     "is_this_ptr" : true,
     "referenced_type" : "_ZTIPN6google8protobuf8internal29CodedOutputStreamFieldSkipperE"
    }
   ],
   "return_type" : "_ZTIv",
   "source_file" : "external/protobuf/src/google/protobuf/wire_format_lite.h"
  },
  {
   "function_name" : "google::protobuf::internal::CodedOutputStreamFieldSkipper::~CodedOutputStreamFieldSkipper",
   "linker_set_key" : "_ZN6google8protobuf8internal29CodedOutputStreamFieldSkipperD1Ev",
   "parameters" :
   [
    {
     "is_this_ptr" : true,
     "referenced_type" : "_ZTIPN6google8protobuf8internal29CodedOutputStreamFieldSkipperE"
    }
   ],
   "return_type" : "_ZTIv",
   "source_file" : "external/protobuf/src/google/protobuf/wire_format_lite.h"
  },
  {
   "function_name" : "google::protobuf::internal::CodedOutputStreamFieldSkipper::~CodedOutputStreamFieldSkipper",
   "linker_set_key" : "_ZN6google8protobuf8internal29CodedOutputStreamFieldSkipperD2Ev",
   "parameters" :
   [
    {
     "is_this_ptr" : true,
     "referenced_type" : "_ZTIPN6google8protobuf8internal29CodedOutputStreamFieldSkipperE"
    }
   ],
   "return_type" : "_ZTIv",
   "source_file" : "external/protobuf/src/google/protobuf/wire_format_lite.h"
  },
  {
   "function_name" : "google::protobuf::internal::InternalMetadataWithArenaBase<std::__1::basic_string<char>, google::protobuf::internal::InternalMetadataWithArenaLite>::mutable_unknown_fields",
   "linker_set_key" : "_ZN6google8protobuf8internal29InternalMetadataWithArenaBaseINSt3__112basic_stringIcNS3_11char_traitsIcEENS3_9allocatorIcEEEENS1_29InternalMetadataWithArenaLiteEE22mutable_unknown_fieldsEv",
   "parameters" :
   [
    {
     "is_this_ptr" : true,
     "referenced_type" : "_ZTIPN6google8protobuf8internal29InternalMetadataWithArenaBaseINSt3__112basic_stringIcNS3_11char_traitsIcEENS3_9allocatorIcEEEENS1_29InternalMetadataWithArenaLiteEEE"
    }
   ],
   "return_type" : "_ZTIPNSt3__112basic_stringIcNS_11char_traitsIcEENS_9allocatorIcEEEE",
   "source_file" : "external/protobuf/src/google/protobuf/metadata_lite.h"
  },
  {
   "access" : "private",
   "function_name" : "google::protobuf::internal::InternalMetadataWithArenaBase<std::__1::basic_string<char>, google::protobuf::internal::InternalMetadataWithArenaLite>::mutable_unknown_fields_slow",
   "linker_set_key" : "_ZN6google8protobuf8internal29InternalMetadataWithArenaBaseINSt3__112basic_stringIcNS3_11char_traitsIcEENS3_9allocatorIcEEEENS1_29InternalMetadataWithArenaLiteEE27mutable_unknown_fields_slowEv",
   "parameters" :
   [
    {
     "is_this_ptr" : true,
     "referenced_type" : "_ZTIPN6google8protobuf8internal29InternalMetadataWithArenaBaseINSt3__112basic_stringIcNS3_11char_traitsIcEENS3_9allocatorIcEEEENS1_29InternalMetadataWithArenaLiteEEE"
    }
   ],
   "return_type" : "_ZTIPNSt3__112basic_stringIcNS_11char_traitsIcEENS_9allocatorIcEEEE",
   "source_file" : "external/protobuf/src/google/protobuf/metadata_lite.h"
  },
  {
   "function_name" : "google::protobuf::internal::InternalMetadataWithArenaBase<std::__1::basic_string<char>, google::protobuf::internal::InternalMetadataWithArenaLite>::InternalMetadataWithArenaBase",
   "linker_set_key" : "_ZN6google8protobuf8internal29InternalMetadataWithArenaBaseINSt3__112basic_stringIcNS3_11char_traitsIcEENS3_9allocatorIcEEEENS1_29InternalMetadataWithArenaLiteEEC1EPNS0_5ArenaE",
   "parameters" :
   [
    {
     "is_this_ptr" : true,
     "referenced_type" : "_ZTIPN6google8protobuf8internal29InternalMetadataWithArenaBaseINSt3__112basic_stringIcNS3_11char_traitsIcEENS3_9allocatorIcEEEENS1_29InternalMetadataWithArenaLiteEEE"
    },
    {
     "referenced_type" : "_ZTIPN6google8protobuf5ArenaE"
    }
   ],
   "return_type" : "_ZTIv",
   "source_file" : "external/protobuf/src/google/protobuf/metadata_lite.h"
  },
  {
   "function_name" : "google::protobuf::internal::InternalMetadataWithArenaBase<std::__1::basic_string<char>, google::protobuf::internal::InternalMetadataWithArenaLite>::InternalMetadataWithArenaBase",
   "linker_set_key" : "_ZN6google8protobuf8internal29InternalMetadataWithArenaBaseINSt3__112basic_stringIcNS3_11char_traitsIcEENS3_9allocatorIcEEEENS1_29InternalMetadataWithArenaLiteEEC1Ev",
   "parameters" :
   [
    {
     "is_this_ptr" : true,
     "referenced_type" : "_ZTIPN6google8protobuf8internal29InternalMetadataWithArenaBaseINSt3__112basic_stringIcNS3_11char_traitsIcEENS3_9allocatorIcEEEENS1_29InternalMetadataWithArenaLiteEEE"
    }
   ],
   "return_type" : "_ZTIv",
   "source_file" : "external/protobuf/src/google/protobuf/metadata_lite.h"
  },
  {
   "function_name" : "google::protobuf::internal::InternalMetadataWithArenaBase<std::__1::basic_string<char>, google::protobuf::internal::InternalMetadataWithArenaLite>::InternalMetadataWithArenaBase",
   "linker_set_key" : "_ZN6google8protobuf8internal29InternalMetadataWithArenaBaseINSt3__112basic_stringIcNS3_11char_traitsIcEENS3_9allocatorIcEEEENS1_29InternalMetadataWithArenaLiteEEC2EPNS0_5ArenaE",
   "parameters" :
   [
    {
     "is_this_ptr" : true,
     "referenced_type" : "_ZTIPN6google8protobuf8internal29InternalMetadataWithArenaBaseINSt3__112basic_stringIcNS3_11char_traitsIcEENS3_9allocatorIcEEEENS1_29InternalMetadataWithArenaLiteEEE"
    },
    {
     "referenced_type" : "_ZTIPN6google8protobuf5ArenaE"
    }
   ],
   "return_type" : "_ZTIv",
   "source_file" : "external/protobuf/src/google/protobuf/metadata_lite.h"
  },
  {
   "function_name" : "google::protobuf::internal::InternalMetadataWithArenaBase<std::__1::basic_string<char>, google::protobuf::internal::InternalMetadataWithArenaLite>::InternalMetadataWithArenaBase",
   "linker_set_key" : "_ZN6google8protobuf8internal29InternalMetadataWithArenaBaseINSt3__112basic_stringIcNS3_11char_traitsIcEENS3_9allocatorIcEEEENS1_29InternalMetadataWithArenaLiteEEC2Ev",
   "parameters" :
   [
    {
     "is_this_ptr" : true,
     "referenced_type" : "_ZTIPN6google8protobuf8internal29InternalMetadataWithArenaBaseINSt3__112basic_stringIcNS3_11char_traitsIcEENS3_9allocatorIcEEEENS1_29InternalMetadataWithArenaLiteEEE"
    }
   ],
   "return_type" : "_ZTIv",
   "source_file" : "external/protobuf/src/google/protobuf/metadata_lite.h"
  },
  {
   "function_name" : "google::protobuf::internal::InternalMetadataWithArenaBase<std::__1::basic_string<char>, google::protobuf::internal::InternalMetadataWithArenaLite>::~InternalMetadataWithArenaBase",
   "linker_set_key" : "_ZN6google8protobuf8internal29InternalMetadataWithArenaBaseINSt3__112basic_stringIcNS3_11char_traitsIcEENS3_9allocatorIcEEEENS1_29InternalMetadataWithArenaLiteEED1Ev",
   "parameters" :
   [
    {
     "is_this_ptr" : true,
     "referenced_type" : "_ZTIPN6google8protobuf8internal29InternalMetadataWithArenaBaseINSt3__112basic_stringIcNS3_11char_traitsIcEENS3_9allocatorIcEEEENS1_29InternalMetadataWithArenaLiteEEE"
    }
   ],
   "return_type" : "_ZTIv",
   "source_file" : "external/protobuf/src/google/protobuf/metadata_lite.h"
  },
  {
   "function_name" : "google::protobuf::internal::InternalMetadataWithArenaBase<std::__1::basic_string<char>, google::protobuf::internal::InternalMetadataWithArenaLite>::~InternalMetadataWithArenaBase",
   "linker_set_key" : "_ZN6google8protobuf8internal29InternalMetadataWithArenaBaseINSt3__112basic_stringIcNS3_11char_traitsIcEENS3_9allocatorIcEEEENS1_29InternalMetadataWithArenaLiteEED2Ev",
   "parameters" :
   [
    {
     "is_this_ptr" : true,
     "referenced_type" : "_ZTIPN6google8protobuf8internal29InternalMetadataWithArenaBaseINSt3__112basic_stringIcNS3_11char_traitsIcEENS3_9allocatorIcEEEENS1_29InternalMetadataWithArenaLiteEEE"
    }
   ],
   "return_type" : "_ZTIv",
   "source_file" : "external/protobuf/src/google/protobuf/metadata_lite.h"
  },
  {
   "function_name" : "google::protobuf::internal::InternalMetadataWithArenaLite::DoMergeFrom",
   "linker_set_key" : "_ZN6google8protobuf8internal29InternalMetadataWithArenaLite11DoMergeFromERKNSt3__112basic_stringIcNS3_11char_traitsIcEENS3_9allocatorIcEEEE",
   "parameters" :
   [
    {
     "is_this_ptr" : true,
     "referenced_type" : "_ZTIPN6google8protobuf8internal29InternalMetadataWithArenaLiteE"
    },
    {
     "referenced_type" : "_ZTIRKNSt3__112basic_stringIcNS_11char_traitsIcEENS_9allocatorIcEEEE"
    }
   ],
   "return_type" : "_ZTIv",
   "source_file" : "external/protobuf/src/google/protobuf/metadata_lite.h"
  },
  {
   "function_name" : "google::protobuf::internal::InternalMetadataWithArenaLite::default_instance",
   "linker_set_key" : "_ZN6google8protobuf8internal29InternalMetadataWithArenaLite16default_instanceEv",
   "return_type" : "_ZTIRKNSt3__112basic_stringIcNS_11char_traitsIcEENS_9allocatorIcEEEE",
   "source_file" : "external/protobuf/src/google/protobuf/metadata_lite.h"
  },
  {
   "function_name" : "google::protobuf::internal::InternalMetadataWithArenaLite::DoSwap",
   "linker_set_key" : "_ZN6google8protobuf8internal29InternalMetadataWithArenaLite6DoSwapEPNSt3__112basic_stringIcNS3_11char_traitsIcEENS3_9allocatorIcEEEE",
   "parameters" :
   [
    {
     "is_this_ptr" : true,
     "referenced_type" : "_ZTIPN6google8protobuf8internal29InternalMetadataWithArenaLiteE"
    },
    {
     "referenced_type" : "_ZTIPNSt3__112basic_stringIcNS_11char_traitsIcEENS_9allocatorIcEEEE"
    }
   ],
   "return_type" : "_ZTIv",
   "source_file" : "external/protobuf/src/google/protobuf/metadata_lite.h"
  },
  {
   "function_name" : "google::protobuf::internal::InternalMetadataWithArenaLite::DoClear",
   "linker_set_key" : "_ZN6google8protobuf8internal29InternalMetadataWithArenaLite7DoClearEv",
   "parameters" :
   [
    {
     "is_this_ptr" : true,
     "referenced_type" : "_ZTIPN6google8protobuf8internal29InternalMetadataWithArenaLiteE"
    }
   ],
   "return_type" : "_ZTIv",
   "source_file" : "external/protobuf/src/google/protobuf/metadata_lite.h"
  },
  {
   "function_name" : "google::protobuf::internal::InternalMetadataWithArenaLite::InternalMetadataWithArenaLite",
   "linker_set_key" : "_ZN6google8protobuf8internal29InternalMetadataWithArenaLiteC1EPNS0_5ArenaE",
   "parameters" :
   [
    {
     "is_this_ptr" : true,
     "referenced_type" : "_ZTIPN6google8protobuf8internal29InternalMetadataWithArenaLiteE"
    },
    {
     "referenced_type" : "_ZTIPN6google8protobuf5ArenaE"
    }
   ],
   "return_type" : "_ZTIv",
   "source_file" : "external/protobuf/src/google/protobuf/metadata_lite.h"
  },
  {
   "function_name" : "google::protobuf::internal::InternalMetadataWithArenaLite::InternalMetadataWithArenaLite",
   "linker_set_key" : "_ZN6google8protobuf8internal29InternalMetadataWithArenaLiteC1Ev",
   "parameters" :
   [
    {
     "is_this_ptr" : true,
     "referenced_type" : "_ZTIPN6google8protobuf8internal29InternalMetadataWithArenaLiteE"
    }
   ],
   "return_type" : "_ZTIv",
   "source_file" : "external/protobuf/src/google/protobuf/metadata_lite.h"
  },
  {
   "function_name" : "google::protobuf::internal::InternalMetadataWithArenaLite::InternalMetadataWithArenaLite",
   "linker_set_key" : "_ZN6google8protobuf8internal29InternalMetadataWithArenaLiteC2EPNS0_5ArenaE",
   "parameters" :
   [
    {
     "is_this_ptr" : true,
     "referenced_type" : "_ZTIPN6google8protobuf8internal29InternalMetadataWithArenaLiteE"
    },
    {
     "referenced_type" : "_ZTIPN6google8protobuf5ArenaE"
    }
   ],
   "return_type" : "_ZTIv",
   "source_file" : "external/protobuf/src/google/protobuf/metadata_lite.h"
  },
  {
   "function_name" : "google::protobuf::internal::InternalMetadataWithArenaLite::InternalMetadataWithArenaLite",
   "linker_set_key" : "_ZN6google8protobuf8internal29InternalMetadataWithArenaLiteC2Ev",
   "parameters" :
   [
    {
     "is_this_ptr" : true,
     "referenced_type" : "_ZTIPN6google8protobuf8internal29InternalMetadataWithArenaLiteE"
    }
   ],
   "return_type" : "_ZTIv",
   "source_file" : "external/protobuf/src/google/protobuf/metadata_lite.h"
  },
  {
   "function_name" : "google::protobuf::internal::SerializeUnknownMessageSetItems",
   "linker_set_key" : "_ZN6google8protobuf8internal31SerializeUnknownMessageSetItemsERKNSt3__112basic_stringIcNS2_11char_traitsIcEENS2_9allocatorIcEEEEPNS0_2io17CodedOutputStreamE",
   "parameters" :
   [
    {
     "referenced_type" : "_ZTIRKNSt3__112basic_stringIcNS_11char_traitsIcEENS_9allocatorIcEEEE"
    },
    {
     "referenced_type" : "_ZTIPN6google8protobuf2io17CodedOutputStreamE"
    }
   ],
   "return_type" : "_ZTIv",
   "source_file" : "external/protobuf/src/google/protobuf/wire_format_lite.h"
  },
  {
   "function_name" : "google::protobuf::internal::ComputeUnknownMessageSetItemsSize",
   "linker_set_key" : "_ZN6google8protobuf8internal33ComputeUnknownMessageSetItemsSizeERKNSt3__112basic_stringIcNS2_11char_traitsIcEENS2_9allocatorIcEEEE",
   "parameters" :
   [
    {
     "referenced_type" : "_ZTIRKNSt3__112basic_stringIcNS_11char_traitsIcEENS_9allocatorIcEEEE"
    }
   ],
   "return_type" : "_ZTIj",
   "source_file" : "external/protobuf/src/google/protobuf/wire_format_lite.h"
  },
  {
   "function_name" : "google::protobuf::internal::InlineGreedyStringParserUTF8Verify",
   "linker_set_key" : "_ZN6google8protobuf8internal34InlineGreedyStringParserUTF8VerifyEPNSt3__112basic_stringIcNS2_11char_traitsIcEENS2_9allocatorIcEEEEPKcPNS1_12ParseContextESB_",
   "parameters" :
   [
    {
     "referenced_type" : "_ZTIPNSt3__112basic_stringIcNS_11char_traitsIcEENS_9allocatorIcEEEE"
    },
    {
     "referenced_type" : "_ZTIPKc"
    },
    {
     "referenced_type" : "_ZTIPN6google8protobuf8internal12ParseContextE"
    },
    {
     "referenced_type" : "_ZTIPKc"
    }
   ],
   "return_type" : "_ZTIPKc",
   "source_file" : "external/protobuf/src/google/protobuf/parse_context.h"
  },
  {
   "function_name" : "google::protobuf::internal::IsOk",
   "linker_set_key" : "_ZN6google8protobuf8internal4IsOkIbEEbT_",
   "parameters" :
   [
    {
     "referenced_type" : "_ZTIb"
    }
   ],
   "return_type" : "_ZTIb",
   "source_file" : "external/protobuf/src/google/protobuf/stubs/logging.h",
   "template_args" : [ "_ZTIb" ]
  },
  {
   "function_name" : "google::protobuf::internal::memeq",
   "linker_set_key" : "_ZN6google8protobuf8internal5memeqEPKcS3_j",
   "parameters" :
   [
    {
     "referenced_type" : "_ZTIPKc"
    },
    {
     "referenced_type" : "_ZTIPKc"
    },
    {
     "referenced_type" : "_ZTIj"
    }
   ],
   "return_type" : "_ZTIb",
   "source_file" : "external/protobuf/src/google/protobuf/stubs/fastmem.h"
  },
  {
   "function_name" : "google::protobuf::internal::InitSCC",
   "linker_set_key" : "_ZN6google8protobuf8internal7InitSCCEPNS1_11SCCInfoBaseE",
   "parameters" :
   [
    {
     "referenced_type" : "_ZTIPN6google8protobuf8internal11SCCInfoBaseE"
    }
   ],
   "return_type" : "_ZTIv",
   "source_file" : "external/protobuf/src/google/protobuf/generated_message_util.h"
  },
  {
   "function_name" : "google::protobuf::internal::ReadTag",
   "linker_set_key" : "_ZN6google8protobuf8internal7ReadTagEPKcPj",
   "parameters" :
   [
    {
     "referenced_type" : "_ZTIPKc"
    },
    {
     "referenced_type" : "_ZTIPj"
    }
   ],
   "return_type" : "_ZTIPKc",
   "source_file" : "external/protobuf/src/google/protobuf/parse_context.h"
  },
  {
   "function_name" : "google::protobuf::internal::ReadTag",
   "linker_set_key" : "_ZN6google8protobuf8internal7ReadTagEPKcPjS4_",
   "parameters" :
   [
    {
     "referenced_type" : "_ZTIPKc"
    },
    {
     "referenced_type" : "_ZTIPj"
    },
    {
     "referenced_type" : "_ZTIPj"
    }
   ],
   "return_type" : "_ZTIPKc",
   "source_file" : "external/protobuf/src/google/protobuf/parse_context.h"
  },
  {
   "function_name" : "google::protobuf::internal::ReadSize",
   "linker_set_key" : "_ZN6google8protobuf8internal8ReadSizeEPPKc",
   "parameters" :
   [
    {
     "referenced_type" : "_ZTIPPKc"
    }
   ],
   "return_type" : "_ZTIj",
   "source_file" : "external/protobuf/src/google/protobuf/parse_context.h"
  },
  {
   "function_name" : "google::protobuf::internal::ArenaImpl::SerialArena::AddCleanup",
   "linker_set_key" : "_ZN6google8protobuf8internal9ArenaImpl11SerialArena10AddCleanupEPvPFvS4_E",
   "parameters" :
   [
    {
     "is_this_ptr" : true,
     "referenced_type" : "_ZTIPN6google8protobuf8internal9ArenaImpl11SerialArenaE"
    },
    {
     "referenced_type" : "_ZTIPv"
    },
    {
     "referenced_type" : "_ZTIPFvPvE"
    }
   ],
   "return_type" : "_ZTIv",
   "source_file" : "external/protobuf/src/google/protobuf/arena_impl.h"
  },
  {
   "function_name" : "google::protobuf::internal::ArenaImpl::SerialArena::AllocateAligned",
   "linker_set_key" : "_ZN6google8protobuf8internal9ArenaImpl11SerialArena15AllocateAlignedEj",
   "parameters" :
   [
    {
     "is_this_ptr" : true,
     "referenced_type" : "_ZTIPN6google8protobuf8internal9ArenaImpl11SerialArenaE"
    },
    {
     "referenced_type" : "_ZTIj"
    }
   ],
   "return_type" : "_ZTIPv",
   "source_file" : "external/protobuf/src/google/protobuf/arena_impl.h"
  },
  {
   "function_name" : "google::protobuf::internal::ArenaImpl::SerialArena::AllocateAlignedAndAddCleanup",
   "linker_set_key" : "_ZN6google8protobuf8internal9ArenaImpl11SerialArena28AllocateAlignedAndAddCleanupEjPFvPvE",
   "parameters" :
   [
    {
     "is_this_ptr" : true,
     "referenced_type" : "_ZTIPN6google8protobuf8internal9ArenaImpl11SerialArenaE"
    },
    {
     "referenced_type" : "_ZTIj"
    },
    {
     "referenced_type" : "_ZTIPFvPvE"
    }
   ],
   "return_type" : "_ZTIPv",
   "source_file" : "external/protobuf/src/google/protobuf/arena_impl.h"
  },
  {
   "function_name" : "google::protobuf::internal::ArenaImpl::SerialArena::set_next",
   "linker_set_key" : "_ZN6google8protobuf8internal9ArenaImpl11SerialArena8set_nextEPS3_",
   "parameters" :
   [
    {
     "is_this_ptr" : true,
     "referenced_type" : "_ZTIPN6google8protobuf8internal9ArenaImpl11SerialArenaE"
    },
    {
     "referenced_type" : "_ZTIPN6google8protobuf8internal9ArenaImpl11SerialArenaE"
    }
   ],
   "return_type" : "_ZTIv",
   "source_file" : "external/protobuf/src/google/protobuf/arena_impl.h"
  },
  {
   "function_name" : "google::protobuf::internal::ArenaImpl::ThreadCache::ThreadCache",
   "linker_set_key" : "_ZN6google8protobuf8internal9ArenaImpl11ThreadCacheC1Ev",
   "parameters" :
   [
    {
     "is_this_ptr" : true,
     "referenced_type" : "_ZTIPN6google8protobuf8internal9ArenaImpl11ThreadCacheE"
    }
   ],
   "return_type" : "_ZTIv",
   "source_file" : "external/protobuf/src/google/protobuf/arena_impl.h"
  },
  {
   "function_name" : "google::protobuf::internal::ArenaImpl::ThreadCache::ThreadCache",
   "linker_set_key" : "_ZN6google8protobuf8internal9ArenaImpl11ThreadCacheC2Ev",
   "parameters" :
   [
    {
     "is_this_ptr" : true,
     "referenced_type" : "_ZTIPN6google8protobuf8internal9ArenaImpl11ThreadCacheE"
    }
   ],
   "return_type" : "_ZTIv",
   "source_file" : "external/protobuf/src/google/protobuf/arena_impl.h"
  },
  {
   "function_name" : "google::protobuf::internal::ArenaImpl::CleanupChunk::SizeOf",
   "linker_set_key" : "_ZN6google8protobuf8internal9ArenaImpl12CleanupChunk6SizeOfEj",
   "parameters" :
   [
    {
     "referenced_type" : "_ZTIj"
    }
   ],
   "return_type" : "_ZTIj",
   "source_file" : "external/protobuf/src/google/protobuf/arena_impl.h"
  },
  {
   "access" : "private",
   "function_name" : "google::protobuf::internal::ArenaImpl::CacheSerialArena",
   "linker_set_key" : "_ZN6google8protobuf8internal9ArenaImpl16CacheSerialArenaEPNS2_11SerialArenaE",
   "parameters" :
   [
    {
     "is_this_ptr" : true,
     "referenced_type" : "_ZTIPN6google8protobuf8internal9ArenaImplE"
    },
    {
     "referenced_type" : "_ZTIPN6google8protobuf8internal9ArenaImpl11SerialArenaE"
    }
   ],
   "return_type" : "_ZTIv",
   "source_file" : "external/protobuf/src/google/protobuf/arena_impl.h"
  },
  {
   "function_name" : "google::protobuf::internal::ArenaImpl::Block::Pointer",
   "linker_set_key" : "_ZN6google8protobuf8internal9ArenaImpl5Block7PointerEj",
   "parameters" :
   [
    {
     "is_this_ptr" : true,
     "referenced_type" : "_ZTIPN6google8protobuf8internal9ArenaImpl5BlockE"
    },
    {
     "referenced_type" : "_ZTIj"
    }
   ],
   "return_type" : "_ZTIPc",
   "source_file" : "external/protobuf/src/google/protobuf/arena_impl.h"
  },
  {
   "function_name" : "google::protobuf::internal::ArenaImpl::Block::set_pos",
   "linker_set_key" : "_ZN6google8protobuf8internal9ArenaImpl5Block7set_posEj",
   "parameters" :
   [
    {
     "is_this_ptr" : true,
     "referenced_type" : "_ZTIPN6google8protobuf8internal9ArenaImpl5BlockE"
    },
    {
     "referenced_type" : "_ZTIj"
    }
   ],
   "return_type" : "_ZTIv",
   "source_file" : "external/protobuf/src/google/protobuf/arena_impl.h"
  },
  {
   "function_name" : "google::protobuf::internal::ArenaImpl::Options::Options",
   "linker_set_key" : "_ZN6google8protobuf8internal9ArenaImpl7OptionsC1INS0_12ArenaOptionsEEERKT_",
   "parameters" :
   [
    {
     "is_this_ptr" : true,
     "referenced_type" : "_ZTIPN6google8protobuf8internal9ArenaImpl7OptionsE"
    },
    {
     "referenced_type" : "_ZTIRKN6google8protobuf12ArenaOptionsE"
    }
   ],
   "return_type" : "_ZTIv",
   "source_file" : "external/protobuf/src/google/protobuf/arena_impl.h",
   "template_args" : [ "_ZTIN6google8protobuf12ArenaOptionsE" ]
  },
  {
   "function_name" : "google::protobuf::internal::ArenaImpl::Options::Options",
   "linker_set_key" : "_ZN6google8protobuf8internal9ArenaImpl7OptionsC2INS0_12ArenaOptionsEEERKT_",
   "parameters" :
   [
    {
     "is_this_ptr" : true,
     "referenced_type" : "_ZTIPN6google8protobuf8internal9ArenaImpl7OptionsE"
    },
    {
     "referenced_type" : "_ZTIRKN6google8protobuf12ArenaOptionsE"
    }
   ],
   "return_type" : "_ZTIv",
   "source_file" : "external/protobuf/src/google/protobuf/arena_impl.h",
   "template_args" : [ "_ZTIN6google8protobuf12ArenaOptionsE" ]
  },
  {
   "function_name" : "google::protobuf::internal::ArenaImpl::ArenaImpl",
   "linker_set_key" : "_ZN6google8protobuf8internal9ArenaImplC1INS0_12ArenaOptionsEEERKT_",
   "parameters" :
   [
    {
     "is_this_ptr" : true,
     "referenced_type" : "_ZTIPN6google8protobuf8internal9ArenaImplE"
    },
    {
     "referenced_type" : "_ZTIRKN6google8protobuf12ArenaOptionsE"
    }
   ],
   "return_type" : "_ZTIv",
   "source_file" : "external/protobuf/src/google/protobuf/arena_impl.h",
   "template_args" : [ "_ZTIN6google8protobuf12ArenaOptionsE" ]
  },
  {
   "function_name" : "google::protobuf::internal::ArenaImpl::ArenaImpl",
   "linker_set_key" : "_ZN6google8protobuf8internal9ArenaImplC2INS0_12ArenaOptionsEEERKT_",
   "parameters" :
   [
    {
     "is_this_ptr" : true,
     "referenced_type" : "_ZTIPN6google8protobuf8internal9ArenaImplE"
    },
    {
     "referenced_type" : "_ZTIRKN6google8protobuf12ArenaOptionsE"
    }
   ],
   "return_type" : "_ZTIv",
   "source_file" : "external/protobuf/src/google/protobuf/arena_impl.h",
   "template_args" : [ "_ZTIN6google8protobuf12ArenaOptionsE" ]
  },
  {
   "function_name" : "google::protobuf::internal::IsPresent",
   "linker_set_key" : "_ZN6google8protobuf8internal9IsPresentEPKvj",
   "parameters" :
   [
    {
     "referenced_type" : "_ZTIPKv"
    },
    {
     "referenced_type" : "_ZTIj"
    }
   ],
   "return_type" : "_ZTIb",
   "source_file" : "external/protobuf/src/google/protobuf/generated_message_util.h"
  },
  {
   "function_name" : "google::protobuf::internal::ToIntSize",
   "linker_set_key" : "_ZN6google8protobuf8internal9ToIntSizeEj",
   "parameters" :
   [
    {
     "referenced_type" : "_ZTIj"
    }
   ],
   "return_type" : "_ZTIi",
   "source_file" : "external/protobuf/src/google/protobuf/message_lite.h"
  },
  {
   "function_name" : "google::protobuf::internal::call_once",
   "linker_set_key" : "_ZN6google8protobuf8internal9call_onceIJRNSt3__19once_flagERFvvEEEEvDpOT_",
   "parameters" :
   [
    {
     "referenced_type" : "_ZTIRNSt3__19once_flagE"
    },
    {
     "referenced_type" : "_ZTIRFvvE"
    }
   ],
   "return_type" : "_ZTIv",
   "source_file" : "external/protobuf/src/google/protobuf/stubs/once.h"
  },
  {
   "function_name" : "google::protobuf::internal::operator-",
   "linker_set_key" : "_ZN6google8protobuf8internalmiENS1_19RepeatedPtrIteratorIT_EEi",
   "parameters" :
   [
    {
     "referenced_type" : "_ZTIN6google8protobuf8internal19RepeatedPtrIteratorIT_EE"
    },
    {
     "referenced_type" : "_ZTIi"
    }
   ],
   "return_type" : "_ZTIN6google8protobuf8internal19RepeatedPtrIteratorIT_EE",
   "source_file" : "external/protobuf/src/google/protobuf/repeated_field.h"
  },
  {
   "function_name" : "google::protobuf::internal::operator-",
   "linker_set_key" : "_ZN6google8protobuf8internalmiENS1_27RepeatedPtrOverPtrsIteratorIT_T0_EEi",
   "parameters" :
   [
    {
     "referenced_type" : "_ZTIN6google8protobuf8internal27RepeatedPtrOverPtrsIteratorIT_T0_EE"
    },
    {
     "referenced_type" : "_ZTIi"
    }
   ],
   "return_type" : "_ZTIN6google8protobuf8internal27RepeatedPtrOverPtrsIteratorIT_T0_EE",
   "source_file" : "external/protobuf/src/google/protobuf/repeated_field.h"
  },
  {
   "function_name" : "google::protobuf::internal::operator+",
   "linker_set_key" : "_ZN6google8protobuf8internalplENS1_19RepeatedPtrIteratorIT_EEi",
   "parameters" :
   [
    {
     "referenced_type" : "_ZTIN6google8protobuf8internal19RepeatedPtrIteratorIT_EE"
    },
    {
     "referenced_type" : "_ZTIKi"
    }
   ],
   "return_type" : "_ZTIN6google8protobuf8internal19RepeatedPtrIteratorIT_EE",
   "source_file" : "external/protobuf/src/google/protobuf/repeated_field.h"
  },
  {
   "function_name" : "google::protobuf::internal::operator+",
   "linker_set_key" : "_ZN6google8protobuf8internalplENS1_27RepeatedPtrOverPtrsIteratorIT_T0_EEi",
   "parameters" :
   [
    {
     "referenced_type" : "_ZTIN6google8protobuf8internal27RepeatedPtrOverPtrsIteratorIT_T0_EE"
    },
    {
     "referenced_type" : "_ZTIi"
    }
   ],
   "return_type" : "_ZTIN6google8protobuf8internal27RepeatedPtrOverPtrsIteratorIT_T0_EE",
   "source_file" : "external/protobuf/src/google/protobuf/repeated_field.h"
  },
  {
   "function_name" : "google::protobuf::internal::operator+",
   "linker_set_key" : "_ZN6google8protobuf8internalplEiNS1_19RepeatedPtrIteratorIT_EE",
   "parameters" :
   [
    {
     "referenced_type" : "_ZTIKi"
    },
    {
     "referenced_type" : "_ZTIN6google8protobuf8internal19RepeatedPtrIteratorIT_EE"
    }
   ],
   "return_type" : "_ZTIN6google8protobuf8internal19RepeatedPtrIteratorIT_EE",
   "source_file" : "external/protobuf/src/google/protobuf/repeated_field.h"
  },
  {
   "function_name" : "google::protobuf::internal::operator+",
   "linker_set_key" : "_ZN6google8protobuf8internalplEiNS1_27RepeatedPtrOverPtrsIteratorIT_T0_EE",
   "parameters" :
   [
    {
     "referenced_type" : "_ZTIi"
    },
    {
     "referenced_type" : "_ZTIN6google8protobuf8internal27RepeatedPtrOverPtrsIteratorIT_T0_EE"
    }
   ],
   "return_type" : "_ZTIN6google8protobuf8internal27RepeatedPtrOverPtrsIteratorIT_T0_EE",
   "source_file" : "external/protobuf/src/google/protobuf/repeated_field.h"
  },
  {
   "function_name" : "google::protobuf::strtou32",
   "linker_set_key" : "_ZN6google8protobuf8strtou32EPKcPPci",
   "parameters" :
   [
    {
     "referenced_type" : "_ZTIPKc"
    },
    {
     "referenced_type" : "_ZTIPPc"
    },
    {
     "referenced_type" : "_ZTIi"
    }
   ],
   "return_type" : "_ZTIj",
   "source_file" : "external/protobuf/src/google/protobuf/stubs/strutil.h"
  },
  {
   "function_name" : "google::protobuf::strtou64",
   "linker_set_key" : "_ZN6google8protobuf8strtou64EPKcPPci",
   "parameters" :
   [
    {
     "referenced_type" : "_ZTIPKc"
    },
    {
     "referenced_type" : "_ZTIPPc"
    },
    {
     "referenced_type" : "_ZTIi"
    }
   ],
   "return_type" : "_ZTIy",
   "source_file" : "external/protobuf/src/google/protobuf/stubs/strutil.h"
  },
  {
   "function_name" : "google::protobuf::BigEndian::FromHost16",
   "linker_set_key" : "_ZN6google8protobuf9BigEndian10FromHost16Et",
   "parameters" :
   [
    {
     "referenced_type" : "_ZTIt"
    }
   ],
   "return_type" : "_ZTIt",
   "source_file" : "external/protobuf/src/google/protobuf/stubs/port.h"
  },
  {
   "function_name" : "google::protobuf::BigEndian::FromHost32",
   "linker_set_key" : "_ZN6google8protobuf9BigEndian10FromHost32Ej",
   "parameters" :
   [
    {
     "referenced_type" : "_ZTIj"
    }
   ],
   "return_type" : "_ZTIj",
   "source_file" : "external/protobuf/src/google/protobuf/stubs/port.h"
  },
  {
   "function_name" : "google::protobuf::BigEndian::FromHost64",
   "linker_set_key" : "_ZN6google8protobuf9BigEndian10FromHost64Ey",
   "parameters" :
   [
    {
     "referenced_type" : "_ZTIy"
    }
   ],
   "return_type" : "_ZTIy",
   "source_file" : "external/protobuf/src/google/protobuf/stubs/port.h"
  },
  {
   "function_name" : "google::protobuf::BigEndian::IsLittleEndian",
   "linker_set_key" : "_ZN6google8protobuf9BigEndian14IsLittleEndianEv",
   "return_type" : "_ZTIb",
   "source_file" : "external/protobuf/src/google/protobuf/stubs/port.h"
  },
  {
   "function_name" : "google::protobuf::BigEndian::Load16",
   "linker_set_key" : "_ZN6google8protobuf9BigEndian6Load16EPKv",
   "parameters" :
   [
    {
     "referenced_type" : "_ZTIPKv"
    }
   ],
   "return_type" : "_ZTIt",
   "source_file" : "external/protobuf/src/google/protobuf/stubs/port.h"
  },
  {
   "function_name" : "google::protobuf::BigEndian::Load32",
   "linker_set_key" : "_ZN6google8protobuf9BigEndian6Load32EPKv",
   "parameters" :
   [
    {
     "referenced_type" : "_ZTIPKv"
    }
   ],
   "return_type" : "_ZTIj",
   "source_file" : "external/protobuf/src/google/protobuf/stubs/port.h"
  },
  {
   "function_name" : "google::protobuf::BigEndian::Load64",
   "linker_set_key" : "_ZN6google8protobuf9BigEndian6Load64EPKv",
   "parameters" :
   [
    {
     "referenced_type" : "_ZTIPKv"
    }
   ],
   "return_type" : "_ZTIy",
   "source_file" : "external/protobuf/src/google/protobuf/stubs/port.h"
  },
  {
   "function_name" : "google::protobuf::BigEndian::Store16",
   "linker_set_key" : "_ZN6google8protobuf9BigEndian7Store16EPvt",
   "parameters" :
   [
    {
     "referenced_type" : "_ZTIPv"
    },
    {
     "referenced_type" : "_ZTIt"
    }
   ],
   "return_type" : "_ZTIv",
   "source_file" : "external/protobuf/src/google/protobuf/stubs/port.h"
  },
  {
   "function_name" : "google::protobuf::BigEndian::Store32",
   "linker_set_key" : "_ZN6google8protobuf9BigEndian7Store32EPvj",
   "parameters" :
   [
    {
     "referenced_type" : "_ZTIPv"
    },
    {
     "referenced_type" : "_ZTIj"
    }
   ],
   "return_type" : "_ZTIv",
   "source_file" : "external/protobuf/src/google/protobuf/stubs/port.h"
  },
  {
   "function_name" : "google::protobuf::BigEndian::Store64",
   "linker_set_key" : "_ZN6google8protobuf9BigEndian7Store64EPvy",
   "parameters" :
   [
    {
     "referenced_type" : "_ZTIPv"
    },
    {
     "referenced_type" : "_ZTIy"
    }
   ],
   "return_type" : "_ZTIv",
   "source_file" : "external/protobuf/src/google/protobuf/stubs/port.h"
  },
  {
   "function_name" : "google::protobuf::BigEndian::ToHost16",
   "linker_set_key" : "_ZN6google8protobuf9BigEndian8ToHost16Et",
   "parameters" :
   [
    {
     "referenced_type" : "_ZTIt"
    }
   ],
   "return_type" : "_ZTIt",
   "source_file" : "external/protobuf/src/google/protobuf/stubs/port.h"
  },
  {
   "function_name" : "google::protobuf::BigEndian::ToHost32",
   "linker_set_key" : "_ZN6google8protobuf9BigEndian8ToHost32Ej",
   "parameters" :
   [
    {
     "referenced_type" : "_ZTIj"
    }
   ],
   "return_type" : "_ZTIj",
   "source_file" : "external/protobuf/src/google/protobuf/stubs/port.h"
  },
  {
   "function_name" : "google::protobuf::BigEndian::ToHost64",
   "linker_set_key" : "_ZN6google8protobuf9BigEndian8ToHost64Ey",
   "parameters" :
   [
    {
     "referenced_type" : "_ZTIy"
    }
   ],
   "return_type" : "_ZTIy",
   "source_file" : "external/protobuf/src/google/protobuf/stubs/port.h"
  },
  {
   "function_name" : "google::protobuf::operator==",
   "linker_set_key" : "_ZN6google8protobufeqENS0_11StringPieceES1_",
   "parameters" :
   [
    {
     "referenced_type" : "_ZTIN6google8protobuf11StringPieceE"
    },
    {
     "referenced_type" : "_ZTIN6google8protobuf11StringPieceE"
    }
   ],
   "return_type" : "_ZTIb",
   "source_file" : "external/protobuf/src/google/protobuf/stubs/stringpiece.h"
  },
  {
   "function_name" : "google::protobuf::operator>=",
   "linker_set_key" : "_ZN6google8protobufgeENS0_11StringPieceES1_",
   "parameters" :
   [
    {
     "referenced_type" : "_ZTIN6google8protobuf11StringPieceE"
    },
    {
     "referenced_type" : "_ZTIN6google8protobuf11StringPieceE"
    }
   ],
   "return_type" : "_ZTIb",
   "source_file" : "external/protobuf/src/google/protobuf/stubs/stringpiece.h"
  },
  {
   "function_name" : "google::protobuf::operator>",
   "linker_set_key" : "_ZN6google8protobufgtENS0_11StringPieceES1_",
   "parameters" :
   [
    {
     "referenced_type" : "_ZTIN6google8protobuf11StringPieceE"
    },
    {
     "referenced_type" : "_ZTIN6google8protobuf11StringPieceE"
    }
   ],
   "return_type" : "_ZTIb",
   "source_file" : "external/protobuf/src/google/protobuf/stubs/stringpiece.h"
  },
  {
   "function_name" : "google::protobuf::operator<=",
   "linker_set_key" : "_ZN6google8protobufleENS0_11StringPieceES1_",
   "parameters" :
   [
    {
     "referenced_type" : "_ZTIN6google8protobuf11StringPieceE"
    },
    {
     "referenced_type" : "_ZTIN6google8protobuf11StringPieceE"
    }
   ],
   "return_type" : "_ZTIb",
   "source_file" : "external/protobuf/src/google/protobuf/stubs/stringpiece.h"
  },
  {
   "function_name" : "google::protobuf::operator<",
   "linker_set_key" : "_ZN6google8protobufltENS0_11StringPieceES1_",
   "parameters" :
   [
    {
     "referenced_type" : "_ZTIN6google8protobuf11StringPieceE"
    },
    {
     "referenced_type" : "_ZTIN6google8protobuf11StringPieceE"
    }
   ],
   "return_type" : "_ZTIb",
   "source_file" : "external/protobuf/src/google/protobuf/stubs/stringpiece.h"
  },
  {
   "function_name" : "google::protobuf::operator!=",
   "linker_set_key" : "_ZN6google8protobufneENS0_11StringPieceES1_",
   "parameters" :
   [
    {
     "referenced_type" : "_ZTIN6google8protobuf11StringPieceE"
    },
    {
     "referenced_type" : "_ZTIN6google8protobuf11StringPieceE"
    }
   ],
   "return_type" : "_ZTIb",
   "source_file" : "external/protobuf/src/google/protobuf/stubs/stringpiece.h"
  },
  {
   "function_name" : "google::protobuf::MessageLite::Utf8DebugString",
   "linker_set_key" : "_ZNK6google8protobuf11MessageLite15Utf8DebugStringEv",
   "parameters" :
   [
    {
     "is_this_ptr" : true,
     "referenced_type" : "_ZTIPKN6google8protobuf11MessageLiteE"
    }
   ],
   "return_type" : "_ZTINSt3__112basic_stringIcNS_11char_traitsIcEENS_9allocatorIcEEEE",
   "source_file" : "external/protobuf/src/google/protobuf/message_lite.h"
  },
  {
   "access" : "private",
   "function_name" : "google::protobuf::MessageLite::InternalGetTable",
   "linker_set_key" : "_ZNK6google8protobuf11MessageLite16InternalGetTableEv",
   "parameters" :
   [
    {
     "is_this_ptr" : true,
     "referenced_type" : "_ZTIPKN6google8protobuf11MessageLiteE"
    }
   ],
   "return_type" : "_ZTIPKv",
   "source_file" : "external/protobuf/src/google/protobuf/message_lite.h"
  },
  {
   "function_name" : "google::protobuf::MessageLite::ShortDebugString",
   "linker_set_key" : "_ZNK6google8protobuf11MessageLite16ShortDebugStringEv",
   "parameters" :
   [
    {
     "is_this_ptr" : true,
     "referenced_type" : "_ZTIPKN6google8protobuf11MessageLiteE"
    }
   ],
   "return_type" : "_ZTINSt3__112basic_stringIcNS_11char_traitsIcEENS_9allocatorIcEEEE",
   "source_file" : "external/protobuf/src/google/protobuf/message_lite.h"
  },
  {
   "function_name" : "google::protobuf::MessageLite::GetMaybeArenaPointer",
   "linker_set_key" : "_ZNK6google8protobuf11MessageLite20GetMaybeArenaPointerEv",
   "parameters" :
   [
    {
     "is_this_ptr" : true,
     "referenced_type" : "_ZTIPKN6google8protobuf11MessageLiteE"
    }
   ],
   "return_type" : "_ZTIPv",
   "source_file" : "external/protobuf/src/google/protobuf/message_lite.h"
  },
  {
   "access" : "private",
   "function_name" : "google::protobuf::MessageLite::IsInitializedWithErrors",
   "linker_set_key" : "_ZNK6google8protobuf11MessageLite23IsInitializedWithErrorsEv",
   "parameters" :
   [
    {
     "is_this_ptr" : true,
     "referenced_type" : "_ZTIPKN6google8protobuf11MessageLiteE"
    }
   ],
   "return_type" : "_ZTIb",
   "source_file" : "external/protobuf/src/google/protobuf/message_lite.h"
  },
  {
   "function_name" : "google::protobuf::MessageLite::ByteSize",
   "linker_set_key" : "_ZNK6google8protobuf11MessageLite8ByteSizeEv",
   "parameters" :
   [
    {
     "is_this_ptr" : true,
     "referenced_type" : "_ZTIPKN6google8protobuf11MessageLiteE"
    }
   ],
   "return_type" : "_ZTIi",
   "source_file" : "external/protobuf/src/google/protobuf/message_lite.h"
  },
  {
   "function_name" : "google::protobuf::MessageLite::GetArena",
   "linker_set_key" : "_ZNK6google8protobuf11MessageLite8GetArenaEv",
   "parameters" :
   [
    {
     "is_this_ptr" : true,
     "referenced_type" : "_ZTIPKN6google8protobuf11MessageLiteE"
    }
   ],
   "return_type" : "_ZTIPN6google8protobuf5ArenaE",
   "source_file" : "external/protobuf/src/google/protobuf/message_lite.h"
  },
  {
   "function_name" : "google::protobuf::StringPiece::starts_with",
   "linker_set_key" : "_ZNK6google8protobuf11StringPiece11starts_withES1_",
   "parameters" :
   [
    {
     "is_this_ptr" : true,
     "referenced_type" : "_ZTIPKN6google8protobuf11StringPieceE"
    },
    {
     "referenced_type" : "_ZTIN6google8protobuf11StringPieceE"
    }
   ],
   "return_type" : "_ZTIb",
   "source_file" : "external/protobuf/src/google/protobuf/stubs/stringpiece.h"
  },
  {
   "function_name" : "google::protobuf::StringPiece::find_last_of",
   "linker_set_key" : "_ZNK6google8protobuf11StringPiece12find_last_ofEcj",
   "parameters" :
   [
    {
     "is_this_ptr" : true,
     "referenced_type" : "_ZTIPKN6google8protobuf11StringPieceE"
    },
    {
     "referenced_type" : "_ZTIc"
    },
    {
     "default_arg" : true,
     "referenced_type" : "_ZTIj"
    }
   ],
   "return_type" : "_ZTIi",
   "source_file" : "external/protobuf/src/google/protobuf/stubs/stringpiece.h"
  },
  {
   "function_name" : "google::protobuf::StringPiece::find_first_of",
   "linker_set_key" : "_ZNK6google8protobuf11StringPiece13find_first_ofEcj",
   "parameters" :
   [
    {
     "is_this_ptr" : true,
     "referenced_type" : "_ZTIPKN6google8protobuf11StringPieceE"
    },
    {
     "referenced_type" : "_ZTIc"
    },
    {
     "default_arg" : true,
     "referenced_type" : "_ZTIj"
    }
   ],
   "return_type" : "_ZTIi",
   "source_file" : "external/protobuf/src/google/protobuf/stubs/stringpiece.h"
  },
  {
   "function_name" : "google::protobuf::StringPiece::end",
   "linker_set_key" : "_ZNK6google8protobuf11StringPiece3endEv",
   "parameters" :
   [
    {
     "is_this_ptr" : true,
     "referenced_type" : "_ZTIPKN6google8protobuf11StringPieceE"
    }
   ],
   "return_type" : "_ZTIPKc",
   "source_file" : "external/protobuf/src/google/protobuf/stubs/stringpiece.h"
  },
  {
   "function_name" : "google::protobuf::StringPiece::data",
   "linker_set_key" : "_ZNK6google8protobuf11StringPiece4dataEv",
   "parameters" :
   [
    {
     "is_this_ptr" : true,
     "referenced_type" : "_ZTIPKN6google8protobuf11StringPieceE"
    }
   ],
   "return_type" : "_ZTIPKc",
   "source_file" : "external/protobuf/src/google/protobuf/stubs/stringpiece.h"
  },
  {
   "function_name" : "google::protobuf::StringPiece::rend",
   "linker_set_key" : "_ZNK6google8protobuf11StringPiece4rendEv",
   "parameters" :
   [
    {
     "is_this_ptr" : true,
     "referenced_type" : "_ZTIPKN6google8protobuf11StringPieceE"
    }
   ],
   "return_type" : "_ZTINSt3__116reverse_iteratorIPKcEE",
   "source_file" : "external/protobuf/src/google/protobuf/stubs/stringpiece.h"
  },
  {
   "function_name" : "google::protobuf::StringPiece::size",
   "linker_set_key" : "_ZNK6google8protobuf11StringPiece4sizeEv",
   "parameters" :
   [
    {
     "is_this_ptr" : true,
     "referenced_type" : "_ZTIPKN6google8protobuf11StringPieceE"
    }
   ],
   "return_type" : "_ZTIi",
   "source_file" : "external/protobuf/src/google/protobuf/stubs/stringpiece.h"
  },
  {
   "function_name" : "google::protobuf::StringPiece::begin",
   "linker_set_key" : "_ZNK6google8protobuf11StringPiece5beginEv",
   "parameters" :
   [
    {
     "is_this_ptr" : true,
     "referenced_type" : "_ZTIPKN6google8protobuf11StringPieceE"
    }
   ],
   "return_type" : "_ZTIPKc",
   "source_file" : "external/protobuf/src/google/protobuf/stubs/stringpiece.h"
  },
  {
   "function_name" : "google::protobuf::StringPiece::empty",
   "linker_set_key" : "_ZNK6google8protobuf11StringPiece5emptyEv",
   "parameters" :
   [
    {
     "is_this_ptr" : true,
     "referenced_type" : "_ZTIPKN6google8protobuf11StringPieceE"
    }
   ],
   "return_type" : "_ZTIb",
   "source_file" : "external/protobuf/src/google/protobuf/stubs/stringpiece.h"
  },
  {
   "function_name" : "google::protobuf::StringPiece::length",
   "linker_set_key" : "_ZNK6google8protobuf11StringPiece6lengthEv",
   "parameters" :
   [
    {
     "is_this_ptr" : true,
     "referenced_type" : "_ZTIPKN6google8protobuf11StringPieceE"
    }
   ],
   "return_type" : "_ZTIi",
   "source_file" : "external/protobuf/src/google/protobuf/stubs/stringpiece.h"
  },
  {
   "function_name" : "google::protobuf::StringPiece::rbegin",
   "linker_set_key" : "_ZNK6google8protobuf11StringPiece6rbeginEv",
   "parameters" :
   [
    {
     "is_this_ptr" : true,
     "referenced_type" : "_ZTIPKN6google8protobuf11StringPieceE"
    }
   ],
   "return_type" : "_ZTINSt3__116reverse_iteratorIPKcEE",
   "source_file" : "external/protobuf/src/google/protobuf/stubs/stringpiece.h"
  },
  {
   "function_name" : "google::protobuf::StringPiece::compare",
   "linker_set_key" : "_ZNK6google8protobuf11StringPiece7compareES1_",
   "parameters" :
   [
    {
     "is_this_ptr" : true,
     "referenced_type" : "_ZTIPKN6google8protobuf11StringPieceE"
    },
    {
     "referenced_type" : "_ZTIN6google8protobuf11StringPieceE"
    }
   ],
   "return_type" : "_ZTIi",
   "source_file" : "external/protobuf/src/google/protobuf/stubs/stringpiece.h"
  },
  {
   "function_name" : "google::protobuf::StringPiece::ToString",
   "linker_set_key" : "_ZNK6google8protobuf11StringPiece8ToStringEv",
   "parameters" :
   [
    {
     "is_this_ptr" : true,
     "referenced_type" : "_ZTIPKN6google8protobuf11StringPieceE"
    }
   ],
   "return_type" : "_ZTINSt3__112basic_stringIcNS_11char_traitsIcEENS_9allocatorIcEEEE",
   "source_file" : "external/protobuf/src/google/protobuf/stubs/stringpiece.h"
  },
  {
   "function_name" : "google::protobuf::StringPiece::capacity",
   "linker_set_key" : "_ZNK6google8protobuf11StringPiece8capacityEv",
   "parameters" :
   [
    {
     "is_this_ptr" : true,
     "referenced_type" : "_ZTIPKN6google8protobuf11StringPieceE"
    }
   ],
   "return_type" : "_ZTIi",
   "source_file" : "external/protobuf/src/google/protobuf/stubs/stringpiece.h"
  },
  {
   "function_name" : "google::protobuf::StringPiece::max_size",
   "linker_set_key" : "_ZNK6google8protobuf11StringPiece8max_sizeEv",
   "parameters" :
   [
    {
     "is_this_ptr" : true,
     "referenced_type" : "_ZTIPKN6google8protobuf11StringPieceE"
    }
   ],
   "return_type" : "_ZTIi",
   "source_file" : "external/protobuf/src/google/protobuf/stubs/stringpiece.h"
  },
  {
   "function_name" : "google::protobuf::StringPiece::as_string",
   "linker_set_key" : "_ZNK6google8protobuf11StringPiece9as_stringEv",
   "parameters" :
   [
    {
     "is_this_ptr" : true,
     "referenced_type" : "_ZTIPKN6google8protobuf11StringPieceE"
    }
   ],
   "return_type" : "_ZTINSt3__112basic_stringIcNS_11char_traitsIcEENS_9allocatorIcEEEE",
   "source_file" : "external/protobuf/src/google/protobuf/stubs/stringpiece.h"
  },
  {
   "function_name" : "google::protobuf::StringPiece::ends_with",
   "linker_set_key" : "_ZNK6google8protobuf11StringPiece9ends_withES1_",
   "parameters" :
   [
    {
     "is_this_ptr" : true,
     "referenced_type" : "_ZTIPKN6google8protobuf11StringPieceE"
    },
    {
     "referenced_type" : "_ZTIN6google8protobuf11StringPieceE"
    }
   ],
   "return_type" : "_ZTIb",
   "source_file" : "external/protobuf/src/google/protobuf/stubs/stringpiece.h"
  },
  {
   "function_name" : "google::protobuf::StringPiece::operator basic_string",
   "linker_set_key" : "_ZNK6google8protobuf11StringPiececvNSt3__112basic_stringIcNS2_11char_traitsIcEENS2_9allocatorIcEEEEEv",
   "parameters" :
   [
    {
     "is_this_ptr" : true,
     "referenced_type" : "_ZTIPKN6google8protobuf11StringPieceE"
    }
   ],
   "return_type" : "_ZTINSt3__112basic_stringIcNS_11char_traitsIcEENS_9allocatorIcEEEE",
   "source_file" : "external/protobuf/src/google/protobuf/stubs/stringpiece.h"
  },
  {
   "function_name" : "google::protobuf::StringPiece::operator[]",
   "linker_set_key" : "_ZNK6google8protobuf11StringPieceixEi",
   "parameters" :
   [
    {
     "is_this_ptr" : true,
     "referenced_type" : "_ZTIPKN6google8protobuf11StringPieceE"
    },
    {
     "referenced_type" : "_ZTIi"
    }
   ],
   "return_type" : "_ZTIc",
   "source_file" : "external/protobuf/src/google/protobuf/stubs/stringpiece.h"
  },
  {
   "access" : "private",
   "function_name" : "google::protobuf::RepeatedField<bool>::unsafe_elements",
   "linker_set_key" : "_ZNK6google8protobuf13RepeatedFieldIbE15unsafe_elementsEv",
   "parameters" :
   [
    {
     "is_this_ptr" : true,
     "referenced_type" : "_ZTIPKN6google8protobuf13RepeatedFieldIbEE"
    }
   ],
   "return_type" : "_ZTIPb",
   "source_file" : "external/protobuf/src/google/protobuf/repeated_field.h"
  },
  {
   "function_name" : "google::protobuf::RepeatedField<bool>::data",
   "linker_set_key" : "_ZNK6google8protobuf13RepeatedFieldIbE4dataEv",
   "parameters" :
   [
    {
     "is_this_ptr" : true,
     "referenced_type" : "_ZTIPKN6google8protobuf13RepeatedFieldIbEE"
    }
   ],
   "return_type" : "_ZTIPKb",
   "source_file" : "external/protobuf/src/google/protobuf/repeated_field.h"
  },
  {
   "function_name" : "google::protobuf::RepeatedField<bool>::size",
   "linker_set_key" : "_ZNK6google8protobuf13RepeatedFieldIbE4sizeEv",
   "parameters" :
   [
    {
     "is_this_ptr" : true,
     "referenced_type" : "_ZTIPKN6google8protobuf13RepeatedFieldIbEE"
    }
   ],
   "return_type" : "_ZTIi",
   "source_file" : "external/protobuf/src/google/protobuf/repeated_field.h"
  },
  {
   "access" : "private",
   "function_name" : "google::protobuf::RepeatedField<double>::unsafe_elements",
   "linker_set_key" : "_ZNK6google8protobuf13RepeatedFieldIdE15unsafe_elementsEv",
   "parameters" :
   [
    {
     "is_this_ptr" : true,
     "referenced_type" : "_ZTIPKN6google8protobuf13RepeatedFieldIdEE"
    }
   ],
   "return_type" : "_ZTIPd",
   "source_file" : "external/protobuf/src/google/protobuf/repeated_field.h"
  },
  {
   "function_name" : "google::protobuf::RepeatedField<double>::data",
   "linker_set_key" : "_ZNK6google8protobuf13RepeatedFieldIdE4dataEv",
   "parameters" :
   [
    {
     "is_this_ptr" : true,
     "referenced_type" : "_ZTIPKN6google8protobuf13RepeatedFieldIdEE"
    }
   ],
   "return_type" : "_ZTIPKd",
   "source_file" : "external/protobuf/src/google/protobuf/repeated_field.h"
  },
  {
   "function_name" : "google::protobuf::RepeatedField<double>::size",
   "linker_set_key" : "_ZNK6google8protobuf13RepeatedFieldIdE4sizeEv",
   "parameters" :
   [
    {
     "is_this_ptr" : true,
     "referenced_type" : "_ZTIPKN6google8protobuf13RepeatedFieldIdEE"
    }
   ],
   "return_type" : "_ZTIi",
   "source_file" : "external/protobuf/src/google/protobuf/repeated_field.h"
  },
  {
   "function_name" : "google::protobuf::RepeatedField<double>::Capacity",
   "linker_set_key" : "_ZNK6google8protobuf13RepeatedFieldIdE8CapacityEv",
   "parameters" :
   [
    {
     "is_this_ptr" : true,
     "referenced_type" : "_ZTIPKN6google8protobuf13RepeatedFieldIdEE"
    }
   ],
   "return_type" : "_ZTIi",
   "source_file" : "external/protobuf/src/google/protobuf/repeated_field.h"
  },
  {
   "access" : "private",
   "function_name" : "google::protobuf::RepeatedField<double>::elements",
   "linker_set_key" : "_ZNK6google8protobuf13RepeatedFieldIdE8elementsEv",
   "parameters" :
   [
    {
     "is_this_ptr" : true,
     "referenced_type" : "_ZTIPKN6google8protobuf13RepeatedFieldIdEE"
    }
   ],
   "return_type" : "_ZTIPd",
   "source_file" : "external/protobuf/src/google/protobuf/repeated_field.h"
  },
  {
   "access" : "private",
   "function_name" : "google::protobuf::RepeatedField<float>::unsafe_elements",
   "linker_set_key" : "_ZNK6google8protobuf13RepeatedFieldIfE15unsafe_elementsEv",
   "parameters" :
   [
    {
     "is_this_ptr" : true,
     "referenced_type" : "_ZTIPKN6google8protobuf13RepeatedFieldIfEE"
    }
   ],
   "return_type" : "_ZTIPf",
   "source_file" : "external/protobuf/src/google/protobuf/repeated_field.h"
  },
  {
   "function_name" : "google::protobuf::RepeatedField<float>::data",
   "linker_set_key" : "_ZNK6google8protobuf13RepeatedFieldIfE4dataEv",
   "parameters" :
   [
    {
     "is_this_ptr" : true,
     "referenced_type" : "_ZTIPKN6google8protobuf13RepeatedFieldIfEE"
    }
   ],
   "return_type" : "_ZTIPKf",
   "source_file" : "external/protobuf/src/google/protobuf/repeated_field.h"
  },
  {
   "function_name" : "google::protobuf::RepeatedField<float>::size",
   "linker_set_key" : "_ZNK6google8protobuf13RepeatedFieldIfE4sizeEv",
   "parameters" :
   [
    {
     "is_this_ptr" : true,
     "referenced_type" : "_ZTIPKN6google8protobuf13RepeatedFieldIfEE"
    }
   ],
   "return_type" : "_ZTIi",
   "source_file" : "external/protobuf/src/google/protobuf/repeated_field.h"
  },
  {
   "function_name" : "google::protobuf::RepeatedField<float>::Capacity",
   "linker_set_key" : "_ZNK6google8protobuf13RepeatedFieldIfE8CapacityEv",
   "parameters" :
   [
    {
     "is_this_ptr" : true,
     "referenced_type" : "_ZTIPKN6google8protobuf13RepeatedFieldIfEE"
    }
   ],
   "return_type" : "_ZTIi",
   "source_file" : "external/protobuf/src/google/protobuf/repeated_field.h"
  },
  {
   "access" : "private",
   "function_name" : "google::protobuf::RepeatedField<float>::elements",
   "linker_set_key" : "_ZNK6google8protobuf13RepeatedFieldIfE8elementsEv",
   "parameters" :
   [
    {
     "is_this_ptr" : true,
     "referenced_type" : "_ZTIPKN6google8protobuf13RepeatedFieldIfEE"
    }
   ],
   "return_type" : "_ZTIPf",
   "source_file" : "external/protobuf/src/google/protobuf/repeated_field.h"
  },
  {
   "access" : "private",
   "function_name" : "google::protobuf::RepeatedField<int>::unsafe_elements",
   "linker_set_key" : "_ZNK6google8protobuf13RepeatedFieldIiE15unsafe_elementsEv",
   "parameters" :
   [
    {
     "is_this_ptr" : true,
     "referenced_type" : "_ZTIPKN6google8protobuf13RepeatedFieldIiEE"
    }
   ],
   "return_type" : "_ZTIPi",
   "source_file" : "external/protobuf/src/google/protobuf/repeated_field.h"
  },
  {
   "function_name" : "google::protobuf::RepeatedField<int>::data",
   "linker_set_key" : "_ZNK6google8protobuf13RepeatedFieldIiE4dataEv",
   "parameters" :
   [
    {
     "is_this_ptr" : true,
     "referenced_type" : "_ZTIPKN6google8protobuf13RepeatedFieldIiEE"
    }
   ],
   "return_type" : "_ZTIPKi",
   "source_file" : "external/protobuf/src/google/protobuf/repeated_field.h"
  },
  {
   "function_name" : "google::protobuf::RepeatedField<int>::size",
   "linker_set_key" : "_ZNK6google8protobuf13RepeatedFieldIiE4sizeEv",
   "parameters" :
   [
    {
     "is_this_ptr" : true,
     "referenced_type" : "_ZTIPKN6google8protobuf13RepeatedFieldIiEE"
    }
   ],
   "return_type" : "_ZTIi",
   "source_file" : "external/protobuf/src/google/protobuf/repeated_field.h"
  },
  {
   "function_name" : "google::protobuf::RepeatedField<int>::Capacity",
   "linker_set_key" : "_ZNK6google8protobuf13RepeatedFieldIiE8CapacityEv",
   "parameters" :
   [
    {
     "is_this_ptr" : true,
     "referenced_type" : "_ZTIPKN6google8protobuf13RepeatedFieldIiEE"
    }
   ],
   "return_type" : "_ZTIi",
   "source_file" : "external/protobuf/src/google/protobuf/repeated_field.h"
  },
  {
   "access" : "private",
   "function_name" : "google::protobuf::RepeatedField<int>::elements",
   "linker_set_key" : "_ZNK6google8protobuf13RepeatedFieldIiE8elementsEv",
   "parameters" :
   [
    {
     "is_this_ptr" : true,
     "referenced_type" : "_ZTIPKN6google8protobuf13RepeatedFieldIiEE"
    }
   ],
   "return_type" : "_ZTIPi",
   "source_file" : "external/protobuf/src/google/protobuf/repeated_field.h"
  },
  {
   "access" : "private",
   "function_name" : "google::protobuf::RepeatedField<unsigned int>::unsafe_elements",
   "linker_set_key" : "_ZNK6google8protobuf13RepeatedFieldIjE15unsafe_elementsEv",
   "parameters" :
   [
    {
     "is_this_ptr" : true,
     "referenced_type" : "_ZTIPKN6google8protobuf13RepeatedFieldIjEE"
    }
   ],
   "return_type" : "_ZTIPj",
   "source_file" : "external/protobuf/src/google/protobuf/repeated_field.h"
  },
  {
   "function_name" : "google::protobuf::RepeatedField<unsigned int>::data",
   "linker_set_key" : "_ZNK6google8protobuf13RepeatedFieldIjE4dataEv",
   "parameters" :
   [
    {
     "is_this_ptr" : true,
     "referenced_type" : "_ZTIPKN6google8protobuf13RepeatedFieldIjEE"
    }
   ],
   "return_type" : "_ZTIPKj",
   "source_file" : "external/protobuf/src/google/protobuf/repeated_field.h"
  },
  {
   "function_name" : "google::protobuf::RepeatedField<unsigned int>::size",
   "linker_set_key" : "_ZNK6google8protobuf13RepeatedFieldIjE4sizeEv",
   "parameters" :
   [
    {
     "is_this_ptr" : true,
     "referenced_type" : "_ZTIPKN6google8protobuf13RepeatedFieldIjEE"
    }
   ],
   "return_type" : "_ZTIi",
   "source_file" : "external/protobuf/src/google/protobuf/repeated_field.h"
  },
  {
   "function_name" : "google::protobuf::RepeatedField<unsigned int>::Capacity",
   "linker_set_key" : "_ZNK6google8protobuf13RepeatedFieldIjE8CapacityEv",
   "parameters" :
   [
    {
     "is_this_ptr" : true,
     "referenced_type" : "_ZTIPKN6google8protobuf13RepeatedFieldIjEE"
    }
   ],
   "return_type" : "_ZTIi",
   "source_file" : "external/protobuf/src/google/protobuf/repeated_field.h"
  },
  {
   "access" : "private",
   "function_name" : "google::protobuf::RepeatedField<unsigned int>::elements",
   "linker_set_key" : "_ZNK6google8protobuf13RepeatedFieldIjE8elementsEv",
   "parameters" :
   [
    {
     "is_this_ptr" : true,
     "referenced_type" : "_ZTIPKN6google8protobuf13RepeatedFieldIjEE"
    }
   ],
   "return_type" : "_ZTIPj",
   "source_file" : "external/protobuf/src/google/protobuf/repeated_field.h"
  },
  {
   "access" : "private",
   "function_name" : "google::protobuf::RepeatedField<long long>::unsafe_elements",
   "linker_set_key" : "_ZNK6google8protobuf13RepeatedFieldIxE15unsafe_elementsEv",
   "parameters" :
   [
    {
     "is_this_ptr" : true,
     "referenced_type" : "_ZTIPKN6google8protobuf13RepeatedFieldIxEE"
    }
   ],
   "return_type" : "_ZTIPx",
   "source_file" : "external/protobuf/src/google/protobuf/repeated_field.h"
  },
  {
   "function_name" : "google::protobuf::RepeatedField<long long>::data",
   "linker_set_key" : "_ZNK6google8protobuf13RepeatedFieldIxE4dataEv",
   "parameters" :
   [
    {
     "is_this_ptr" : true,
     "referenced_type" : "_ZTIPKN6google8protobuf13RepeatedFieldIxEE"
    }
   ],
   "return_type" : "_ZTIPKx",
   "source_file" : "external/protobuf/src/google/protobuf/repeated_field.h"
  },
  {
   "function_name" : "google::protobuf::RepeatedField<long long>::size",
   "linker_set_key" : "_ZNK6google8protobuf13RepeatedFieldIxE4sizeEv",
   "parameters" :
   [
    {
     "is_this_ptr" : true,
     "referenced_type" : "_ZTIPKN6google8protobuf13RepeatedFieldIxEE"
    }
   ],
   "return_type" : "_ZTIi",
   "source_file" : "external/protobuf/src/google/protobuf/repeated_field.h"
  },
  {
   "function_name" : "google::protobuf::RepeatedField<long long>::Capacity",
   "linker_set_key" : "_ZNK6google8protobuf13RepeatedFieldIxE8CapacityEv",
   "parameters" :
   [
    {
     "is_this_ptr" : true,
     "referenced_type" : "_ZTIPKN6google8protobuf13RepeatedFieldIxEE"
    }
   ],
   "return_type" : "_ZTIi",
   "source_file" : "external/protobuf/src/google/protobuf/repeated_field.h"
  },
  {
   "access" : "private",
   "function_name" : "google::protobuf::RepeatedField<long long>::elements",
   "linker_set_key" : "_ZNK6google8protobuf13RepeatedFieldIxE8elementsEv",
   "parameters" :
   [
    {
     "is_this_ptr" : true,
     "referenced_type" : "_ZTIPKN6google8protobuf13RepeatedFieldIxEE"
    }
   ],
   "return_type" : "_ZTIPx",
   "source_file" : "external/protobuf/src/google/protobuf/repeated_field.h"
  },
  {
   "access" : "private",
   "function_name" : "google::protobuf::RepeatedField<unsigned long long>::unsafe_elements",
   "linker_set_key" : "_ZNK6google8protobuf13RepeatedFieldIyE15unsafe_elementsEv",
   "parameters" :
   [
    {
     "is_this_ptr" : true,
     "referenced_type" : "_ZTIPKN6google8protobuf13RepeatedFieldIyEE"
    }
   ],
   "return_type" : "_ZTIPy",
   "source_file" : "external/protobuf/src/google/protobuf/repeated_field.h"
  },
  {
   "function_name" : "google::protobuf::RepeatedField<unsigned long long>::data",
   "linker_set_key" : "_ZNK6google8protobuf13RepeatedFieldIyE4dataEv",
   "parameters" :
   [
    {
     "is_this_ptr" : true,
     "referenced_type" : "_ZTIPKN6google8protobuf13RepeatedFieldIyEE"
    }
   ],
   "return_type" : "_ZTIPKy",
   "source_file" : "external/protobuf/src/google/protobuf/repeated_field.h"
  },
  {
   "function_name" : "google::protobuf::RepeatedField<unsigned long long>::size",
   "linker_set_key" : "_ZNK6google8protobuf13RepeatedFieldIyE4sizeEv",
   "parameters" :
   [
    {
     "is_this_ptr" : true,
     "referenced_type" : "_ZTIPKN6google8protobuf13RepeatedFieldIyEE"
    }
   ],
   "return_type" : "_ZTIi",
   "source_file" : "external/protobuf/src/google/protobuf/repeated_field.h"
  },
  {
   "function_name" : "google::protobuf::RepeatedField<unsigned long long>::Capacity",
   "linker_set_key" : "_ZNK6google8protobuf13RepeatedFieldIyE8CapacityEv",
   "parameters" :
   [
    {
     "is_this_ptr" : true,
     "referenced_type" : "_ZTIPKN6google8protobuf13RepeatedFieldIyEE"
    }
   ],
   "return_type" : "_ZTIi",
   "source_file" : "external/protobuf/src/google/protobuf/repeated_field.h"
  },
  {
   "access" : "private",
   "function_name" : "google::protobuf::RepeatedField<unsigned long long>::elements",
   "linker_set_key" : "_ZNK6google8protobuf13RepeatedFieldIyE8elementsEv",
   "parameters" :
   [
    {
     "is_this_ptr" : true,
     "referenced_type" : "_ZTIPKN6google8protobuf13RepeatedFieldIyEE"
    }
   ],
   "return_type" : "_ZTIPy",
   "source_file" : "external/protobuf/src/google/protobuf/repeated_field.h"
  },
  {
   "access" : "private",
   "function_name" : "google::protobuf::io::CodedInputStream::BufferSize",
   "linker_set_key" : "_ZNK6google8protobuf2io16CodedInputStream10BufferSizeEv",
   "parameters" :
   [
    {
     "is_this_ptr" : true,
     "referenced_type" : "_ZTIPKN6google8protobuf2io16CodedInputStreamE"
    }
   ],
   "return_type" : "_ZTIi",
   "source_file" : "external/protobuf/src/google/protobuf/io/coded_stream.h"
  },
  {
   "function_name" : "google::protobuf::io::CodedInputStream::CurrentPosition",
   "linker_set_key" : "_ZNK6google8protobuf2io16CodedInputStream15CurrentPositionEv",
   "parameters" :
   [
    {
     "is_this_ptr" : true,
     "referenced_type" : "_ZTIPKN6google8protobuf2io16CodedInputStreamE"
    }
   ],
   "return_type" : "_ZTIi",
   "source_file" : "external/protobuf/src/google/protobuf/io/coded_stream.h"
  },
  {
   "function_name" : "google::protobuf::io::CodedInputStream::IsFlat",
   "linker_set_key" : "_ZNK6google8protobuf2io16CodedInputStream6IsFlatEv",
   "parameters" :
   [
    {
     "is_this_ptr" : true,
     "referenced_type" : "_ZTIPKN6google8protobuf2io16CodedInputStreamE"
    }
   ],
   "return_type" : "_ZTIb",
   "source_file" : "external/protobuf/src/google/protobuf/io/coded_stream.h"
  },
  {
   "function_name" : "google::protobuf::io::CodedOutputStream::IsSerializationDeterministic",
   "linker_set_key" : "_ZNK6google8protobuf2io17CodedOutputStream28IsSerializationDeterministicEv",
   "parameters" :
   [
    {
     "is_this_ptr" : true,
     "referenced_type" : "_ZTIPKN6google8protobuf2io17CodedOutputStreamE"
    }
   ],
   "return_type" : "_ZTIb",
   "source_file" : "external/protobuf/src/google/protobuf/io/coded_stream.h"
  },
  {
   "function_name" : "google::protobuf::io::CodedOutputStream::HadError",
   "linker_set_key" : "_ZNK6google8protobuf2io17CodedOutputStream8HadErrorEv",
   "parameters" :
   [
    {
     "is_this_ptr" : true,
     "referenced_type" : "_ZTIPKN6google8protobuf2io17CodedOutputStreamE"
    }
   ],
   "return_type" : "_ZTIb",
   "source_file" : "external/protobuf/src/google/protobuf/io/coded_stream.h"
  },
  {
   "function_name" : "google::protobuf::io::CodedOutputStream::ByteCount",
   "linker_set_key" : "_ZNK6google8protobuf2io17CodedOutputStream9ByteCountEv",
   "parameters" :
   [
    {
     "is_this_ptr" : true,
     "referenced_type" : "_ZTIPKN6google8protobuf2io17CodedOutputStreamE"
    }
   ],
   "return_type" : "_ZTIi",
   "source_file" : "external/protobuf/src/google/protobuf/io/coded_stream.h"
  },
  {
   "function_name" : "google::protobuf::io::ZeroCopyOutputStream::AllowsAliasing",
   "linker_set_key" : "_ZNK6google8protobuf2io20ZeroCopyOutputStream14AllowsAliasingEv",
   "parameters" :
   [
    {
     "is_this_ptr" : true,
     "referenced_type" : "_ZTIPKN6google8protobuf2io20ZeroCopyOutputStreamE"
    }
   ],
   "return_type" : "_ZTIb",
   "source_file" : "external/protobuf/src/google/protobuf/io/zero_copy_stream.h"
  },
  {
   "function_name" : "google::protobuf::hash<google::protobuf::StringPiece>::operator()",
   "linker_set_key" : "_ZNK6google8protobuf4hashINS0_11StringPieceEEclERKS2_",
   "parameters" :
   [
    {
     "is_this_ptr" : true,
     "referenced_type" : "_ZTIPKN6google8protobuf4hashINS0_11StringPieceEEE"
    },
    {
     "referenced_type" : "_ZTIRKN6google8protobuf11StringPieceE"
    }
   ],
   "return_type" : "_ZTIj",
   "source_file" : "external/protobuf/src/google/protobuf/stubs/stringpiece.h"
  },
  {
   "function_name" : "google::protobuf::hash<std::__1::basic_string<char>>::operator()",
   "linker_set_key" : "_ZNK6google8protobuf4hashINSt3__112basic_stringIcNS2_11char_traitsIcEENS2_9allocatorIcEEEEEclERKS8_",
   "parameters" :
   [
    {
     "is_this_ptr" : true,
     "referenced_type" : "_ZTIPKN6google8protobuf4hashINSt3__112basic_stringIcNS2_11char_traitsIcEENS2_9allocatorIcEEEEEE"
    },
    {
     "referenced_type" : "_ZTIRKNSt3__112basic_stringIcNS_11char_traitsIcEENS_9allocatorIcEEEE"
    }
   ],
   "return_type" : "_ZTIj",
   "source_file" : "external/protobuf/src/google/protobuf/stubs/hash.h"
  },
  {
   "function_name" : "google::protobuf::hash<std::__1::basic_string<char>>::operator()",
   "linker_set_key" : "_ZNK6google8protobuf4hashINSt3__112basic_stringIcNS2_11char_traitsIcEENS2_9allocatorIcEEEEEclERKS8_SB_",
   "parameters" :
   [
    {
     "is_this_ptr" : true,
     "referenced_type" : "_ZTIPKN6google8protobuf4hashINSt3__112basic_stringIcNS2_11char_traitsIcEENS2_9allocatorIcEEEEEE"
    },
    {
     "referenced_type" : "_ZTIRKNSt3__112basic_stringIcNS_11char_traitsIcEENS_9allocatorIcEEEE"
    },
    {
     "referenced_type" : "_ZTIRKNSt3__112basic_stringIcNS_11char_traitsIcEENS_9allocatorIcEEEE"
    }
   ],
   "return_type" : "_ZTIb",
   "source_file" : "external/protobuf/src/google/protobuf/stubs/hash.h"
  },
  {
   "function_name" : "google::protobuf::hash<const char *>::operator()",
   "linker_set_key" : "_ZNK6google8protobuf4hashIPKcEclES3_",
   "parameters" :
   [
    {
     "is_this_ptr" : true,
     "referenced_type" : "_ZTIPKN6google8protobuf4hashIPKcEE"
    },
    {
     "referenced_type" : "_ZTIPKc"
    }
   ],
   "return_type" : "_ZTIj",
   "source_file" : "external/protobuf/src/google/protobuf/stubs/hash.h"
  },
  {
   "function_name" : "google::protobuf::hash<bool>::operator()",
   "linker_set_key" : "_ZNK6google8protobuf4hashIbEclEb",
   "parameters" :
   [
    {
     "is_this_ptr" : true,
     "referenced_type" : "_ZTIPKN6google8protobuf4hashIbEE"
    },
    {
     "referenced_type" : "_ZTIb"
    }
   ],
   "return_type" : "_ZTIj",
   "source_file" : "external/protobuf/src/google/protobuf/stubs/hash.h"
  },
  {
   "function_name" : "google::protobuf::Arena::SpaceAllocated",
   "linker_set_key" : "_ZNK6google8protobuf5Arena14SpaceAllocatedEv",
   "parameters" :
   [
    {
     "is_this_ptr" : true,
     "referenced_type" : "_ZTIPKN6google8protobuf5ArenaE"
    }
   ],
   "return_type" : "_ZTIy",
   "source_file" : "external/protobuf/src/google/protobuf/arena.h"
  },
  {
   "function_name" : "google::protobuf::Arena::SpaceAllocatedAndUsed",
   "linker_set_key" : "_ZNK6google8protobuf5Arena21SpaceAllocatedAndUsedEv",
   "parameters" :
   [
    {
     "is_this_ptr" : true,
     "referenced_type" : "_ZTIPKN6google8protobuf5ArenaE"
    }
   ],
   "return_type" : "_ZTINSt3__14pairIyyEE",
   "source_file" : "external/protobuf/src/google/protobuf/arena.h"
  },
  {
   "access" : "private",
   "function_name" : "google::protobuf::Arena::AllocHook",
   "linker_set_key" : "_ZNK6google8protobuf5Arena9AllocHookEPKSt9type_infoj",
   "parameters" :
   [
    {
     "is_this_ptr" : true,
     "referenced_type" : "_ZTIPKN6google8protobuf5ArenaE"
    },
    {
     "referenced_type" : "_ZTIPKSt9type_info"
    },
    {
     "referenced_type" : "_ZTIj"
    }
   ],
   "return_type" : "_ZTIv",
   "source_file" : "external/protobuf/src/google/protobuf/arena.h"
  },
  {
   "function_name" : "google::protobuf::Arena::SpaceUsed",
   "linker_set_key" : "_ZNK6google8protobuf5Arena9SpaceUsedEv",
   "parameters" :
   [
    {
     "is_this_ptr" : true,
     "referenced_type" : "_ZTIPKN6google8protobuf5ArenaE"
    }
   ],
   "return_type" : "_ZTIy",
   "source_file" : "external/protobuf/src/google/protobuf/arena.h"
  },
  {
   "function_name" : "google::protobuf::streq::operator()",
   "linker_set_key" : "_ZNK6google8protobuf5streqclEPKcS3_",
   "parameters" :
   [
    {
     "is_this_ptr" : true,
     "referenced_type" : "_ZTIPKN6google8protobuf5streqE"
    },
    {
     "referenced_type" : "_ZTIPKc"
    },
    {
     "referenced_type" : "_ZTIPKc"
    }
   ],
   "return_type" : "_ZTIb",
   "source_file" : "external/protobuf/src/google/protobuf/stubs/hash.h"
  },
  {
   "function_name" : "google::protobuf::strings::AlphaNum::data",
   "linker_set_key" : "_ZNK6google8protobuf7strings8AlphaNum4dataEv",
   "parameters" :
   [
    {
     "is_this_ptr" : true,
     "referenced_type" : "_ZTIPKN6google8protobuf7strings8AlphaNumE"
    }
   ],
   "return_type" : "_ZTIPKc",
   "source_file" : "external/protobuf/src/google/protobuf/stubs/strutil.h"
  },
  {
   "function_name" : "google::protobuf::strings::AlphaNum::size",
   "linker_set_key" : "_ZNK6google8protobuf7strings8AlphaNum4sizeEv",
   "parameters" :
   [
    {
     "is_this_ptr" : true,
     "referenced_type" : "_ZTIPKN6google8protobuf7strings8AlphaNumE"
    }
   ],
   "return_type" : "_ZTIj",
   "source_file" : "external/protobuf/src/google/protobuf/stubs/strutil.h"
  },
  {
   "function_name" : "google::protobuf::internal::CachedSize::Get",
   "linker_set_key" : "_ZNK6google8protobuf8internal10CachedSize3GetEv",
   "parameters" :
   [
    {
     "is_this_ptr" : true,
     "referenced_type" : "_ZTIPKN6google8protobuf8internal10CachedSizeE"
    }
   ],
   "return_type" : "_ZTIi",
   "source_file" : "external/protobuf/src/google/protobuf/generated_message_util.h"
  },
  {
   "function_name" : "google::protobuf::internal::ParseContext::data",
   "linker_set_key" : "_ZNK6google8protobuf8internal12ParseContext4dataEv",
   "parameters" :
   [
    {
     "is_this_ptr" : true,
     "referenced_type" : "_ZTIPKN6google8protobuf8internal12ParseContextE"
    }
   ],
   "return_type" : "_ZTIRKN6google8protobuf8internal12ParseContext4DataE",
   "source_file" : "external/protobuf/src/google/protobuf/parse_context.h"
  },
  {
   "function_name" : "google::protobuf::internal::ParseContext::depth",
   "linker_set_key" : "_ZNK6google8protobuf8internal12ParseContext5depthEv",
   "parameters" :
   [
    {
     "is_this_ptr" : true,
     "referenced_type" : "_ZTIPKN6google8protobuf8internal12ParseContextE"
    }
   ],
   "return_type" : "_ZTIi",
   "source_file" : "external/protobuf/src/google/protobuf/parse_context.h"
  },
  {
   "function_name" : "google::protobuf::internal::ArenaStringPtr::GetNoArena",
   "linker_set_key" : "_ZNK6google8protobuf8internal14ArenaStringPtr10GetNoArenaEv",
   "parameters" :
   [
    {
     "is_this_ptr" : true,
     "referenced_type" : "_ZTIPKN6google8protobuf8internal14ArenaStringPtrE"
    }
   ],
   "return_type" : "_ZTIRKNSt3__112basic_stringIcNS_11char_traitsIcEENS_9allocatorIcEEEE",
   "source_file" : "external/protobuf/src/google/protobuf/arenastring.h"
  },
  {
   "function_name" : "google::protobuf::internal::ArenaStringPtr::Get",
   "linker_set_key" : "_ZNK6google8protobuf8internal14ArenaStringPtr3GetEv",
   "parameters" :
   [
    {
     "is_this_ptr" : true,
     "referenced_type" : "_ZTIPKN6google8protobuf8internal14ArenaStringPtrE"
    }
   ],
   "return_type" : "_ZTIRKNSt3__112basic_stringIcNS_11char_traitsIcEENS_9allocatorIcEEEE",
   "source_file" : "external/protobuf/src/google/protobuf/arenastring.h"
  },
  {
   "function_name" : "google::protobuf::internal::ArenaStringPtr::IsDefault",
   "linker_set_key" : "_ZNK6google8protobuf8internal14ArenaStringPtr9IsDefaultEPKNSt3__112basic_stringIcNS3_11char_traitsIcEENS3_9allocatorIcEEEE",
   "parameters" :
   [
    {
     "is_this_ptr" : true,
     "referenced_type" : "_ZTIPKN6google8protobuf8internal14ArenaStringPtrE"
    },
    {
     "referenced_type" : "_ZTIPKNSt3__112basic_stringIcNS_11char_traitsIcEENS_9allocatorIcEEEE"
    }
   ],
   "return_type" : "_ZTIb",
   "source_file" : "external/protobuf/src/google/protobuf/arenastring.h"
  },
  {
   "function_name" : "google::protobuf::internal::StringPiecePod::data",
   "linker_set_key" : "_ZNK6google8protobuf8internal14StringPiecePod4dataEv",
   "parameters" :
   [
    {
     "is_this_ptr" : true,
     "referenced_type" : "_ZTIPKN6google8protobuf8internal14StringPiecePodE"
    }
   ],
   "return_type" : "_ZTIPKc",
   "source_file" : "external/protobuf/src/google/protobuf/stubs/stringpiece.h"
  },
  {
   "function_name" : "google::protobuf::internal::StringPiecePod::size",
   "linker_set_key" : "_ZNK6google8protobuf8internal14StringPiecePod4sizeEv",
   "parameters" :
   [
    {
     "is_this_ptr" : true,
     "referenced_type" : "_ZTIPKN6google8protobuf8internal14StringPiecePodE"
    }
   ],
   "return_type" : "_ZTIi",
   "source_file" : "external/protobuf/src/google/protobuf/stubs/stringpiece.h"
  },
  {
   "function_name" : "google::protobuf::internal::StringPiecePod::ToString",
   "linker_set_key" : "_ZNK6google8protobuf8internal14StringPiecePod8ToStringEv",
   "parameters" :
   [
    {
     "is_this_ptr" : true,
     "referenced_type" : "_ZTIPKN6google8protobuf8internal14StringPiecePodE"
    }
   ],
   "return_type" : "_ZTINSt3__112basic_stringIcNS_11char_traitsIcEENS_9allocatorIcEEEE",
   "source_file" : "external/protobuf/src/google/protobuf/stubs/stringpiece.h"
  },
  {
   "function_name" : "google::protobuf::internal::StringPiecePod::operator StringPiece",
   "linker_set_key" : "_ZNK6google8protobuf8internal14StringPiecePodcvNS0_11StringPieceEEv",
   "parameters" :
   [
    {
     "is_this_ptr" : true,
     "referenced_type" : "_ZTIPKN6google8protobuf8internal14StringPiecePodE"
    }
   ],
   "return_type" : "_ZTIN6google8protobuf11StringPieceE",
   "source_file" : "external/protobuf/src/google/protobuf/stubs/stringpiece.h"
  },
  {
   "function_name" : "google::protobuf::internal::StringPiecePod::operator basic_string",
   "linker_set_key" : "_ZNK6google8protobuf8internal14StringPiecePodcvNSt3__112basic_stringIcNS3_11char_traitsIcEENS3_9allocatorIcEEEEEv",
   "parameters" :
   [
    {
     "is_this_ptr" : true,
     "referenced_type" : "_ZTIPKN6google8protobuf8internal14StringPiecePodE"
    }
   ],
   "return_type" : "_ZTINSt3__112basic_stringIcNS_11char_traitsIcEENS_9allocatorIcEEEE",
   "source_file" : "external/protobuf/src/google/protobuf/stubs/stringpiece.h"
  },
  {
   "function_name" : "google::protobuf::internal::StringPiecePod::operator==",
   "linker_set_key" : "_ZNK6google8protobuf8internal14StringPiecePodeqEPKc",
   "parameters" :
   [
    {
     "is_this_ptr" : true,
     "referenced_type" : "_ZTIPKN6google8protobuf8internal14StringPiecePodE"
    },
    {
     "referenced_type" : "_ZTIPKc"
    }
   ],
   "return_type" : "_ZTIb",
   "source_file" : "external/protobuf/src/google/protobuf/stubs/stringpiece.h"
  },
  {
   "function_name" : "google::protobuf::internal::StringPiecePod::operator[]",
   "linker_set_key" : "_ZNK6google8protobuf8internal14StringPiecePodixEi",
   "parameters" :
   [
    {
     "is_this_ptr" : true,
     "referenced_type" : "_ZTIPKN6google8protobuf8internal14StringPiecePodE"
    },
    {
     "referenced_type" : "_ZTIi"
    }
   ],
   "return_type" : "_ZTIc",
   "source_file" : "external/protobuf/src/google/protobuf/stubs/stringpiece.h"
  },
  {
   "function_name" : "google::protobuf::internal::EpsCopyInputStream::EndedAtLimit",
   "linker_set_key" : "_ZNK6google8protobuf8internal18EpsCopyInputStream12EndedAtLimitEv",
   "parameters" :
   [
    {
     "is_this_ptr" : true,
     "referenced_type" : "_ZTIPKN6google8protobuf8internal18EpsCopyInputStreamE"
    }
   ],
   "return_type" : "_ZTIb",
   "source_file" : "external/protobuf/src/google/protobuf/parse_context.h"
  },
  {
   "function_name" : "google::protobuf::internal::EpsCopyInputStream::EndedAtEndOfStream",
   "linker_set_key" : "_ZNK6google8protobuf8internal18EpsCopyInputStream18EndedAtEndOfStreamEv",
   "parameters" :
   [
    {
     "is_this_ptr" : true,
     "referenced_type" : "_ZTIPKN6google8protobuf8internal18EpsCopyInputStreamE"
    }
   ],
   "return_type" : "_ZTIb",
   "source_file" : "external/protobuf/src/google/protobuf/parse_context.h"
  },
  {
   "function_name" : "google::protobuf::internal::EpsCopyInputStream::LastTag",
   "linker_set_key" : "_ZNK6google8protobuf8internal18EpsCopyInputStream7LastTagEv",
   "parameters" :
   [
    {
     "is_this_ptr" : true,
     "referenced_type" : "_ZTIPKN6google8protobuf8internal18EpsCopyInputStreamE"
    }
   ],
   "return_type" : "_ZTIj",
   "source_file" : "external/protobuf/src/google/protobuf/parse_context.h"
  },
  {
   "function_name" : "google::protobuf::internal::ImplicitWeakMessage::GetTypeName",
   "linker_set_key" : "_ZNK6google8protobuf8internal19ImplicitWeakMessage11GetTypeNameEv",
   "parameters" :
   [
    {
     "is_this_ptr" : true,
     "referenced_type" : "_ZTIPKN6google8protobuf8internal19ImplicitWeakMessageE"
    }
   ],
   "return_type" : "_ZTINSt3__112basic_stringIcNS_11char_traitsIcEENS_9allocatorIcEEEE",
   "source_file" : "external/protobuf/src/google/protobuf/implicit_weak_message.h"
  },
  {
   "function_name" : "google::protobuf::internal::ImplicitWeakMessage::ByteSizeLong",
   "linker_set_key" : "_ZNK6google8protobuf8internal19ImplicitWeakMessage12ByteSizeLongEv",
   "parameters" :
   [
    {
     "is_this_ptr" : true,
     "referenced_type" : "_ZTIPKN6google8protobuf8internal19ImplicitWeakMessageE"
    }
   ],
   "return_type" : "_ZTIj",
   "source_file" : "external/protobuf/src/google/protobuf/implicit_weak_message.h"
  },
  {
   "function_name" : "google::protobuf::internal::ImplicitWeakMessage::GetCachedSize",
   "linker_set_key" : "_ZNK6google8protobuf8internal19ImplicitWeakMessage13GetCachedSizeEv",
   "parameters" :
   [
    {
     "is_this_ptr" : true,
     "referenced_type" : "_ZTIPKN6google8protobuf8internal19ImplicitWeakMessageE"
    }
   ],
   "return_type" : "_ZTIi",
   "source_file" : "external/protobuf/src/google/protobuf/implicit_weak_message.h"
  },
  {
   "function_name" : "google::protobuf::internal::ImplicitWeakMessage::IsInitialized",
   "linker_set_key" : "_ZNK6google8protobuf8internal19ImplicitWeakMessage13IsInitializedEv",
   "parameters" :
   [
    {
     "is_this_ptr" : true,
     "referenced_type" : "_ZTIPKN6google8protobuf8internal19ImplicitWeakMessageE"
    }
   ],
   "return_type" : "_ZTIb",
   "source_file" : "external/protobuf/src/google/protobuf/implicit_weak_message.h"
  },
  {
   "function_name" : "google::protobuf::internal::ImplicitWeakMessage::SerializeWithCachedSizes",
   "linker_set_key" : "_ZNK6google8protobuf8internal19ImplicitWeakMessage24SerializeWithCachedSizesEPNS0_2io17CodedOutputStreamE",
   "parameters" :
   [
    {
     "is_this_ptr" : true,
     "referenced_type" : "_ZTIPKN6google8protobuf8internal19ImplicitWeakMessageE"
    },
    {
     "referenced_type" : "_ZTIPN6google8protobuf2io17CodedOutputStreamE"
    }
   ],
   "return_type" : "_ZTIv",
   "source_file" : "external/protobuf/src/google/protobuf/implicit_weak_message.h"
  },
  {
   "function_name" : "google::protobuf::internal::ImplicitWeakMessage::New",
   "linker_set_key" : "_ZNK6google8protobuf8internal19ImplicitWeakMessage3NewEPNS0_5ArenaE",
   "parameters" :
   [
    {
     "is_this_ptr" : true,
     "referenced_type" : "_ZTIPKN6google8protobuf8internal19ImplicitWeakMessageE"
    },
    {
     "referenced_type" : "_ZTIPN6google8protobuf5ArenaE"
    }
   ],
   "return_type" : "_ZTIPN6google8protobuf11MessageLiteE",
   "source_file" : "external/protobuf/src/google/protobuf/implicit_weak_message.h"
  },
  {
   "function_name" : "google::protobuf::internal::ImplicitWeakMessage::New",
   "linker_set_key" : "_ZNK6google8protobuf8internal19ImplicitWeakMessage3NewEv",
   "parameters" :
   [
    {
     "is_this_ptr" : true,
     "referenced_type" : "_ZTIPKN6google8protobuf8internal19ImplicitWeakMessageE"
    }
   ],
   "return_type" : "_ZTIPN6google8protobuf11MessageLiteE",
   "source_file" : "external/protobuf/src/google/protobuf/implicit_weak_message.h"
  },
  {
   "function_name" : "google::protobuf::internal::ImplicitWeakMessage::GetArena",
   "linker_set_key" : "_ZNK6google8protobuf8internal19ImplicitWeakMessage8GetArenaEv",
   "parameters" :
   [
    {
     "is_this_ptr" : true,
     "referenced_type" : "_ZTIPKN6google8protobuf8internal19ImplicitWeakMessageE"
    }
   ],
   "return_type" : "_ZTIPN6google8protobuf5ArenaE",
   "source_file" : "external/protobuf/src/google/protobuf/implicit_weak_message.h"
  },
  {
   "access" : "protected",
   "function_name" : "google::protobuf::internal::RepeatedPtrFieldBase::ClearedCount",
   "linker_set_key" : "_ZNK6google8protobuf8internal20RepeatedPtrFieldBase12ClearedCountEv",
   "parameters" :
   [
    {
     "is_this_ptr" : true,
     "referenced_type" : "_ZTIPKN6google8protobuf8internal20RepeatedPtrFieldBaseE"
    }
   ],
   "return_type" : "_ZTIi",
   "source_file" : "external/protobuf/src/google/protobuf/repeated_field.h"
  },
  {
   "access" : "protected",
   "function_name" : "google::protobuf::internal::RepeatedPtrFieldBase::raw_mutable_data",
   "linker_set_key" : "_ZNK6google8protobuf8internal20RepeatedPtrFieldBase16raw_mutable_dataEv",
   "parameters" :
   [
    {
     "is_this_ptr" : true,
     "referenced_type" : "_ZTIPKN6google8protobuf8internal20RepeatedPtrFieldBaseE"
    }
   ],
   "return_type" : "_ZTIPPv",
   "source_file" : "external/protobuf/src/google/protobuf/repeated_field.h"
  },
  {
   "access" : "protected",
   "function_name" : "google::protobuf::internal::RepeatedPtrFieldBase::GetArenaNoVirtual",
   "linker_set_key" : "_ZNK6google8protobuf8internal20RepeatedPtrFieldBase17GetArenaNoVirtualEv",
   "parameters" :
   [
    {
     "is_this_ptr" : true,
     "referenced_type" : "_ZTIPKN6google8protobuf8internal20RepeatedPtrFieldBaseE"
    }
   ],
   "return_type" : "_ZTIPN6google8protobuf5ArenaE",
   "source_file" : "external/protobuf/src/google/protobuf/repeated_field.h"
  },
  {
   "access" : "protected",
   "function_name" : "google::protobuf::internal::RepeatedPtrFieldBase::size",
   "linker_set_key" : "_ZNK6google8protobuf8internal20RepeatedPtrFieldBase4sizeEv",
   "parameters" :
   [
    {
     "is_this_ptr" : true,
     "referenced_type" : "_ZTIPKN6google8protobuf8internal20RepeatedPtrFieldBaseE"
    }
   ],
   "return_type" : "_ZTIi",
   "source_file" : "external/protobuf/src/google/protobuf/repeated_field.h"
  },
  {
   "access" : "protected",
   "function_name" : "google::protobuf::internal::RepeatedPtrFieldBase::empty",
   "linker_set_key" : "_ZNK6google8protobuf8internal20RepeatedPtrFieldBase5emptyEv",
   "parameters" :
   [
    {
     "is_this_ptr" : true,
     "referenced_type" : "_ZTIPKN6google8protobuf8internal20RepeatedPtrFieldBaseE"
    }
   ],
   "return_type" : "_ZTIb",
   "source_file" : "external/protobuf/src/google/protobuf/repeated_field.h"
  },
  {
   "access" : "protected",
   "function_name" : "google::protobuf::internal::RepeatedPtrFieldBase::Capacity",
   "linker_set_key" : "_ZNK6google8protobuf8internal20RepeatedPtrFieldBase8CapacityEv",
   "parameters" :
   [
    {
     "is_this_ptr" : true,
     "referenced_type" : "_ZTIPKN6google8protobuf8internal20RepeatedPtrFieldBaseE"
    }
   ],
   "return_type" : "_ZTIi",
   "source_file" : "external/protobuf/src/google/protobuf/repeated_field.h"
  },
  {
   "access" : "protected",
   "function_name" : "google::protobuf::internal::RepeatedPtrFieldBase::raw_data",
   "linker_set_key" : "_ZNK6google8protobuf8internal20RepeatedPtrFieldBase8raw_dataEv",
   "parameters" :
   [
    {
     "is_this_ptr" : true,
     "referenced_type" : "_ZTIPKN6google8protobuf8internal20RepeatedPtrFieldBaseE"
    }
   ],
   "return_type" : "_ZTIPKPv",
   "source_file" : "external/protobuf/src/google/protobuf/repeated_field.h"
  },
  {
   "function_name" : "google::protobuf::internal::ExplicitlyConstructed<google::protobuf::internal::ImplicitWeakMessage>::get",
   "linker_set_key" : "_ZNK6google8protobuf8internal21ExplicitlyConstructedINS1_19ImplicitWeakMessageEE3getEv",
   "parameters" :
   [
    {
     "is_this_ptr" : true,
     "referenced_type" : "_ZTIPKN6google8protobuf8internal21ExplicitlyConstructedINS1_19ImplicitWeakMessageEEE"
    }
   ],
   "return_type" : "_ZTIRKN6google8protobuf8internal19ImplicitWeakMessageE",
   "source_file" : "external/protobuf/src/google/protobuf/message_lite.h"
  },
  {
   "function_name" : "google::protobuf::internal::ExplicitlyConstructed<std::__1::basic_string<char>>::get",
   "linker_set_key" : "_ZNK6google8protobuf8internal21ExplicitlyConstructedINSt3__112basic_stringIcNS3_11char_traitsIcEENS3_9allocatorIcEEEEE3getEv",
   "parameters" :
   [
    {
     "is_this_ptr" : true,
     "referenced_type" : "_ZTIPKN6google8protobuf8internal21ExplicitlyConstructedINSt3__112basic_stringIcNS3_11char_traitsIcEENS3_9allocatorIcEEEEEE"
    }
   ],
   "return_type" : "_ZTIRKNSt3__112basic_stringIcNS_11char_traitsIcEENS_9allocatorIcEEEE",
   "source_file" : "external/protobuf/src/google/protobuf/message_lite.h"
  },
  {
   "function_name" : "google::protobuf::internal::InternalMetadataWithArenaBase<std::__1::basic_string<char>, google::protobuf::internal::InternalMetadataWithArenaLite>::have_unknown_fields",
   "linker_set_key" : "_ZNK6google8protobuf8internal29InternalMetadataWithArenaBaseINSt3__112basic_stringIcNS3_11char_traitsIcEENS3_9allocatorIcEEEENS1_29InternalMetadataWithArenaLiteEE19have_unknown_fieldsEv",
   "parameters" :
   [
    {
     "is_this_ptr" : true,
     "referenced_type" : "_ZTIPKN6google8protobuf8internal29InternalMetadataWithArenaBaseINSt3__112basic_stringIcNS3_11char_traitsIcEENS3_9allocatorIcEEEENS1_29InternalMetadataWithArenaLiteEEE"
    }
   ],
   "return_type" : "_ZTIb",
   "source_file" : "external/protobuf/src/google/protobuf/metadata_lite.h"
  },
  {
   "function_name" : "google::protobuf::internal::InternalMetadataWithArenaBase<std::__1::basic_string<char>, google::protobuf::internal::InternalMetadataWithArenaLite>::arena",
   "linker_set_key" : "_ZNK6google8protobuf8internal29InternalMetadataWithArenaBaseINSt3__112basic_stringIcNS3_11char_traitsIcEENS3_9allocatorIcEEEENS1_29InternalMetadataWithArenaLiteEE5arenaEv",
   "parameters" :
   [
    {
     "is_this_ptr" : true,
     "referenced_type" : "_ZTIPKN6google8protobuf8internal29InternalMetadataWithArenaBaseINSt3__112basic_stringIcNS3_11char_traitsIcEENS3_9allocatorIcEEEENS1_29InternalMetadataWithArenaLiteEEE"
    }
   ],
   "return_type" : "_ZTIPN6google8protobuf5ArenaE",
   "source_file" : "external/protobuf/src/google/protobuf/metadata_lite.h"
  },
  {
   "access" : "private",
   "function_name" : "google::protobuf::internal::InternalMetadataWithArenaBase<std::__1::basic_string<char>, google::protobuf::internal::InternalMetadataWithArenaLite>::PtrTag",
   "linker_set_key" : "_ZNK6google8protobuf8internal29InternalMetadataWithArenaBaseINSt3__112basic_stringIcNS3_11char_traitsIcEENS3_9allocatorIcEEEENS1_29InternalMetadataWithArenaLiteEE6PtrTagEv",
   "parameters" :
   [
    {
     "is_this_ptr" : true,
     "referenced_type" : "_ZTIPKN6google8protobuf8internal29InternalMetadataWithArenaBaseINSt3__112basic_stringIcNS3_11char_traitsIcEENS3_9allocatorIcEEEENS1_29InternalMetadataWithArenaLiteEEE"
    }
   ],
   "return_type" : "_ZTIi",
   "source_file" : "external/protobuf/src/google/protobuf/metadata_lite.h"
  },
  {
   "access" : "private",
   "function_name" : "google::protobuf::internal::InternalMetadataWithArenaBase<std::__1::basic_string<char>, google::protobuf::internal::InternalMetadataWithArenaLite>::PtrValue",
   "linker_set_key" : "_ZNK6google8protobuf8internal29InternalMetadataWithArenaBaseINSt3__112basic_stringIcNS3_11char_traitsIcEENS3_9allocatorIcEEEENS1_29InternalMetadataWithArenaLiteEE8PtrValueINS0_5ArenaEEEPT_v",
   "parameters" :
   [
    {
     "is_this_ptr" : true,
     "referenced_type" : "_ZTIPKN6google8protobuf8internal29InternalMetadataWithArenaBaseINSt3__112basic_stringIcNS3_11char_traitsIcEENS3_9allocatorIcEEEENS1_29InternalMetadataWithArenaLiteEEE"
    }
   ],
   "return_type" : "_ZTIPN6google8protobuf5ArenaE",
   "source_file" : "external/protobuf/src/google/protobuf/metadata_lite.h",
   "template_args" : [ "_ZTIN6google8protobuf5ArenaE" ]
  },
  {
   "access" : "private",
   "function_name" : "google::protobuf::internal::InternalMetadataWithArenaBase<std::__1::basic_string<char>, google::protobuf::internal::InternalMetadataWithArenaLite>::PtrValue",
   "linker_set_key" : "_ZNK6google8protobuf8internal29InternalMetadataWithArenaBaseINSt3__112basic_stringIcNS3_11char_traitsIcEENS3_9allocatorIcEEEENS1_29InternalMetadataWithArenaLiteEE8PtrValueINSB_9ContainerEEEPT_v",
   "parameters" :
   [
    {
     "is_this_ptr" : true,
     "referenced_type" : "_ZTIPKN6google8protobuf8internal29InternalMetadataWithArenaBaseINSt3__112basic_stringIcNS3_11char_traitsIcEENS3_9allocatorIcEEEENS1_29InternalMetadataWithArenaLiteEEE"
    }
   ],
   "return_type" : "_ZTIPN6google8protobuf8internal29InternalMetadataWithArenaBaseINSt3__112basic_stringIcNS3_11char_traitsIcEENS3_9allocatorIcEEEENS1_29InternalMetadataWithArenaLiteEE9ContainerE",
   "source_file" : "external/protobuf/src/google/protobuf/metadata_lite.h",
   "template_args" :
   [
    "_ZTIN6google8protobuf8internal29InternalMetadataWithArenaBaseINSt3__112basic_stringIcNS3_11char_traitsIcEENS3_9allocatorIcEEEENS1_29InternalMetadataWithArenaLiteEE9ContainerE"
   ]
  },
  {
   "function_name" : "google::protobuf::internal::HasBits<1>::empty",
   "linker_set_key" : "_ZNK6google8protobuf8internal7HasBitsILj1EE5emptyEv",
   "parameters" :
   [
    {
     "is_this_ptr" : true,
     "referenced_type" : "_ZTIPKN6google8protobuf8internal7HasBitsILj1EEE"
    }
   ],
   "return_type" : "_ZTIb",
   "source_file" : "external/protobuf/src/google/protobuf/has_bits.h"
  },
  {
   "function_name" : "google::protobuf::internal::HasBits<2>::empty",
   "linker_set_key" : "_ZNK6google8protobuf8internal7HasBitsILj2EE5emptyEv",
   "parameters" :
   [
    {
     "is_this_ptr" : true,
     "referenced_type" : "_ZTIPKN6google8protobuf8internal7HasBitsILj2EEE"
    }
   ],
   "return_type" : "_ZTIb",
   "source_file" : "external/protobuf/src/google/protobuf/has_bits.h"
  },
  {
   "function_name" : "google::protobuf::internal::HasBits<3>::empty",
   "linker_set_key" : "_ZNK6google8protobuf8internal7HasBitsILj3EE5emptyEv",
   "parameters" :
   [
    {
     "is_this_ptr" : true,
     "referenced_type" : "_ZTIPKN6google8protobuf8internal7HasBitsILj3EEE"
    }
   ],
   "return_type" : "_ZTIb",
   "source_file" : "external/protobuf/src/google/protobuf/has_bits.h"
  },
  {
   "function_name" : "google::protobuf::internal::HasBits<4>::empty",
   "linker_set_key" : "_ZNK6google8protobuf8internal7HasBitsILj4EE5emptyEv",
   "parameters" :
   [
    {
     "is_this_ptr" : true,
     "referenced_type" : "_ZTIPKN6google8protobuf8internal7HasBitsILj4EEE"
    }
   ],
   "return_type" : "_ZTIb",
   "source_file" : "external/protobuf/src/google/protobuf/has_bits.h"
  },
  {
   "function_name" : "google::protobuf::internal::ArenaImpl::SerialArena::next",
   "linker_set_key" : "_ZNK6google8protobuf8internal9ArenaImpl11SerialArena4nextEv",
   "parameters" :
   [
    {
     "is_this_ptr" : true,
     "referenced_type" : "_ZTIPKN6google8protobuf8internal9ArenaImpl11SerialArenaE"
    }
   ],
   "return_type" : "_ZTIPN6google8protobuf8internal9ArenaImpl11SerialArenaE",
   "source_file" : "external/protobuf/src/google/protobuf/arena_impl.h"
  },
  {
   "function_name" : "google::protobuf::internal::ArenaImpl::SerialArena::owner",
   "linker_set_key" : "_ZNK6google8protobuf8internal9ArenaImpl11SerialArena5ownerEv",
   "parameters" :
   [
    {
     "is_this_ptr" : true,
     "referenced_type" : "_ZTIPKN6google8protobuf8internal9ArenaImpl11SerialArenaE"
    }
   ],
   "return_type" : "_ZTIPv",
   "source_file" : "external/protobuf/src/google/protobuf/arena_impl.h"
  },
  {
   "function_name" : "google::protobuf::internal::ArenaImpl::Block::pos",
   "linker_set_key" : "_ZNK6google8protobuf8internal9ArenaImpl5Block3posEv",
   "parameters" :
   [
    {
     "is_this_ptr" : true,
     "referenced_type" : "_ZTIPKN6google8protobuf8internal9ArenaImpl5BlockE"
    }
   ],
   "return_type" : "_ZTIj",
   "source_file" : "external/protobuf/src/google/protobuf/arena_impl.h"
  },
  {
   "function_name" : "google::protobuf::internal::ArenaImpl::Block::next",
   "linker_set_key" : "_ZNK6google8protobuf8internal9ArenaImpl5Block4nextEv",
   "parameters" :
   [
    {
     "is_this_ptr" : true,
     "referenced_type" : "_ZTIPKN6google8protobuf8internal9ArenaImpl5BlockE"
    }
   ],
   "return_type" : "_ZTIPN6google8protobuf8internal9ArenaImpl5BlockE",
   "source_file" : "external/protobuf/src/google/protobuf/arena_impl.h"
  },
  {
   "function_name" : "google::protobuf::internal::ArenaImpl::Block::size",
   "linker_set_key" : "_ZNK6google8protobuf8internal9ArenaImpl5Block4sizeEv",
   "parameters" :
   [
    {
     "is_this_ptr" : true,
     "referenced_type" : "_ZTIPKN6google8protobuf8internal9ArenaImpl5BlockE"
    }
   ],
   "return_type" : "_ZTIj",
   "source_file" : "external/protobuf/src/google/protobuf/arena_impl.h"
  },
  {
   "function_name" : "google::protobuf::internal::TaggedPtr<std::__1::basic_string<char>>::Get",
   "linker_set_key" : "_ZNK6google8protobuf8internal9TaggedPtrINSt3__112basic_stringIcNS3_11char_traitsIcEENS3_9allocatorIcEEEEE3GetEv",
   "parameters" :
   [
    {
     "is_this_ptr" : true,
     "referenced_type" : "_ZTIPKN6google8protobuf8internal9TaggedPtrINSt3__112basic_stringIcNS3_11char_traitsIcEENS3_9allocatorIcEEEEEE"
    }
   ],
   "return_type" : "_ZTIPNSt3__112basic_stringIcNS_11char_traitsIcEENS_9allocatorIcEEEE",
   "source_file" : "external/protobuf/src/google/protobuf/arenastring.h"
  }
 ],
 "global_vars" :
 [
  {
   "linker_set_key" : "_ZN6google8protobuf11StringPiece4nposE",
   "name" : "google::protobuf::StringPiece::npos",
   "referenced_type" : "_ZTIKj",
   "source_file" : "external/protobuf/src/google/protobuf/stubs/stringpiece.h"
  },
  {
   "access" : "private",
   "linker_set_key" : "_ZN6google8protobuf12ArenaOptions20kDefaultMaxBlockSizeE",
   "name" : "google::protobuf::ArenaOptions::kDefaultMaxBlockSize",
   "referenced_type" : "_ZTIKj",
   "source_file" : "external/protobuf/src/google/protobuf/arena.h"
  },
  {
   "access" : "private",
   "linker_set_key" : "_ZN6google8protobuf12ArenaOptions22kDefaultStartBlockSizeE",
   "name" : "google::protobuf::ArenaOptions::kDefaultStartBlockSize",
   "referenced_type" : "_ZTIKj",
   "source_file" : "external/protobuf/src/google/protobuf/arena.h"
  },
  {
   "access" : "private",
   "linker_set_key" : "_ZN6google8protobuf13RepeatedField12kInitialSizeE",
   "name" : "google::protobuf::RepeatedField::kInitialSize",
   "referenced_type" : "_ZTIKi",
   "source_file" : "external/protobuf/src/google/protobuf/repeated_field.h"
  },
  {
   "access" : "private",
   "linker_set_key" : "_ZN6google8protobuf13RepeatedField14kRepHeaderSizeE",
   "name" : "google::protobuf::RepeatedField::kRepHeaderSize",
   "referenced_type" : "_ZTIKj",
   "source_file" : "external/protobuf/src/google/protobuf/repeated_field.h"
  },
  {
   "access" : "private",
   "linker_set_key" : "_ZN6google8protobuf13RepeatedFieldIbE12kInitialSizeE",
   "name" : "google::protobuf::RepeatedField<bool>::kInitialSize",
   "referenced_type" : "_ZTIKi",
   "source_file" : "external/protobuf/src/google/protobuf/repeated_field.h"
  },
  {
   "access" : "private",
   "linker_set_key" : "_ZN6google8protobuf13RepeatedFieldIbE14kRepHeaderSizeE",
   "name" : "google::protobuf::RepeatedField<bool>::kRepHeaderSize",
   "referenced_type" : "_ZTIKj",
   "source_file" : "external/protobuf/src/google/protobuf/repeated_field.h"
  },
  {
   "access" : "private",
   "linker_set_key" : "_ZN6google8protobuf13RepeatedFieldIdE12kInitialSizeE",
   "name" : "google::protobuf::RepeatedField<double>::kInitialSize",
   "referenced_type" : "_ZTIKi",
   "source_file" : "external/protobuf/src/google/protobuf/repeated_field.h"
  },
  {
   "access" : "private",
   "linker_set_key" : "_ZN6google8protobuf13RepeatedFieldIdE14kRepHeaderSizeE",
   "name" : "google::protobuf::RepeatedField<double>::kRepHeaderSize",
   "referenced_type" : "_ZTIKj",
   "source_file" : "external/protobuf/src/google/protobuf/repeated_field.h"
  },
  {
   "access" : "private",
   "linker_set_key" : "_ZN6google8protobuf13RepeatedFieldIfE12kInitialSizeE",
   "name" : "google::protobuf::RepeatedField<float>::kInitialSize",
   "referenced_type" : "_ZTIKi",
   "source_file" : "external/protobuf/src/google/protobuf/repeated_field.h"
  },
  {
   "access" : "private",
   "linker_set_key" : "_ZN6google8protobuf13RepeatedFieldIfE14kRepHeaderSizeE",
   "name" : "google::protobuf::RepeatedField<float>::kRepHeaderSize",
   "referenced_type" : "_ZTIKj",
   "source_file" : "external/protobuf/src/google/protobuf/repeated_field.h"
  },
  {
   "access" : "private",
   "linker_set_key" : "_ZN6google8protobuf13RepeatedFieldIiE12kInitialSizeE",
   "name" : "google::protobuf::RepeatedField<int>::kInitialSize",
   "referenced_type" : "_ZTIKi",
   "source_file" : "external/protobuf/src/google/protobuf/repeated_field.h"
  },
  {
   "access" : "private",
   "linker_set_key" : "_ZN6google8protobuf13RepeatedFieldIiE14kRepHeaderSizeE",
   "name" : "google::protobuf::RepeatedField<int>::kRepHeaderSize",
   "referenced_type" : "_ZTIKj",
   "source_file" : "external/protobuf/src/google/protobuf/repeated_field.h"
  },
  {
   "access" : "private",
   "linker_set_key" : "_ZN6google8protobuf13RepeatedFieldIjE12kInitialSizeE",
   "name" : "google::protobuf::RepeatedField<unsigned int>::kInitialSize",
   "referenced_type" : "_ZTIKi",
   "source_file" : "external/protobuf/src/google/protobuf/repeated_field.h"
  },
  {
   "access" : "private",
   "linker_set_key" : "_ZN6google8protobuf13RepeatedFieldIjE14kRepHeaderSizeE",
   "name" : "google::protobuf::RepeatedField<unsigned int>::kRepHeaderSize",
   "referenced_type" : "_ZTIKj",
   "source_file" : "external/protobuf/src/google/protobuf/repeated_field.h"
  },
  {
   "access" : "private",
   "linker_set_key" : "_ZN6google8protobuf13RepeatedFieldIxE12kInitialSizeE",
   "name" : "google::protobuf::RepeatedField<long long>::kInitialSize",
   "referenced_type" : "_ZTIKi",
   "source_file" : "external/protobuf/src/google/protobuf/repeated_field.h"
  },
  {
   "access" : "private",
   "linker_set_key" : "_ZN6google8protobuf13RepeatedFieldIxE14kRepHeaderSizeE",
   "name" : "google::protobuf::RepeatedField<long long>::kRepHeaderSize",
   "referenced_type" : "_ZTIKj",
   "source_file" : "external/protobuf/src/google/protobuf/repeated_field.h"
  },
  {
   "access" : "private",
   "linker_set_key" : "_ZN6google8protobuf13RepeatedFieldIyE12kInitialSizeE",
   "name" : "google::protobuf::RepeatedField<unsigned long long>::kInitialSize",
   "referenced_type" : "_ZTIKi",
   "source_file" : "external/protobuf/src/google/protobuf/repeated_field.h"
  },
  {
   "access" : "private",
   "linker_set_key" : "_ZN6google8protobuf13RepeatedFieldIyE14kRepHeaderSizeE",
   "name" : "google::protobuf::RepeatedField<unsigned long long>::kRepHeaderSize",
   "referenced_type" : "_ZTIKj",
   "source_file" : "external/protobuf/src/google/protobuf/repeated_field.h"
  },
  {
   "access" : "private",
   "linker_set_key" : "_ZN6google8protobuf2io16CodedInputStream23kDefaultTotalBytesLimitE",
   "name" : "google::protobuf::io::CodedInputStream::kDefaultTotalBytesLimit",
   "referenced_type" : "_ZTIKi",
   "source_file" : "external/protobuf/src/google/protobuf/io/coded_stream.h"
  },
  {
   "access" : "private",
   "linker_set_key" : "_ZN6google8protobuf2io16CodedInputStream24default_recursion_limit_E",
   "name" : "google::protobuf::io::CodedInputStream::default_recursion_limit_",
   "referenced_type" : "_ZTIi",
   "source_file" : "external/protobuf/src/google/protobuf/io/coded_stream.h"
  },
  {
   "linker_set_key" : "_ZN6google8protobuf2io17CodedOutputStream18StaticVarintSize325valueE",
   "name" : "google::protobuf::io::CodedOutputStream::StaticVarintSize32::value",
   "referenced_type" : "_ZTIKj",
   "source_file" : "external/protobuf/src/google/protobuf/io/coded_stream.h"
  },
  {
   "access" : "private",
   "linker_set_key" : "_ZN6google8protobuf2io17CodedOutputStream36default_serialization_deterministic_E",
   "name" : "google::protobuf::io::CodedOutputStream::default_serialization_deterministic_",
   "referenced_type" : "_ZTINSt3__16atomicIbEE",
   "source_file" : "external/protobuf/src/google/protobuf/io/coded_stream.h"
  },
  {
   "access" : "private",
   "linker_set_key" : "_ZN6google8protobuf2io18StringOutputStream12kMinimumSizeE",
   "name" : "google::protobuf::io::StringOutputStream::kMinimumSize",
   "referenced_type" : "_ZTIKi",
   "source_file" : "external/protobuf/src/google/protobuf/io/zero_copy_stream_impl_lite.h"
  },
  {
   "linker_set_key" : "_ZN6google8protobuf4hashINSt3__112basic_stringIcNS2_11char_traitsIcEENS2_9allocatorIcEEEEE11bucket_sizeE",
   "name" : "google::protobuf::hash<std::__1::basic_string<char>>::bucket_size",
   "referenced_type" : "_ZTIKj",
   "source_file" : "external/protobuf/src/google/protobuf/stubs/hash.h"
  },
  {
   "linker_set_key" : "_ZN6google8protobuf4hashINSt3__112basic_stringIcNS2_11char_traitsIcEENS2_9allocatorIcEEEEE11min_bucketsE",
   "name" : "google::protobuf::hash<std::__1::basic_string<char>>::min_buckets",
   "referenced_type" : "_ZTIKj",
   "source_file" : "external/protobuf/src/google/protobuf/stubs/hash.h"
  },
  {
   "linker_set_key" : "_ZN6google8protobuf4hashINSt3__14pairIT_T0_EEE11bucket_sizeE",
   "name" : "google::protobuf::hash<pair<type-parameter-0-0, type-parameter-0-1>>::bucket_size",
   "referenced_type" : "_ZTIKj",
   "source_file" : "external/protobuf/src/google/protobuf/stubs/hash.h"
  },
  {
   "linker_set_key" : "_ZN6google8protobuf4hashINSt3__14pairIT_T0_EEE11min_bucketsE",
   "name" : "google::protobuf::hash<pair<type-parameter-0-0, type-parameter-0-1>>::min_buckets",
   "referenced_type" : "_ZTIKj",
   "source_file" : "external/protobuf/src/google/protobuf/stubs/hash.h"
  },
  {
   "linker_set_key" : "_ZN6google8protobuf5Arena14kBlockOverheadE",
   "name" : "google::protobuf::Arena::kBlockOverhead",
   "referenced_type" : "_ZTIKj",
   "source_file" : "external/protobuf/src/google/protobuf/arena.h"
  },
  {
   "linker_set_key" : "_ZN6google8protobuf8internal14WireFormatLite10kFloatSizeE",
   "name" : "google::protobuf::internal::WireFormatLite::kFloatSize",
   "referenced_type" : "_ZTIKj",
   "source_file" : "external/protobuf/src/google/protobuf/wire_format_lite.h"
  },
  {
   "linker_set_key" : "_ZN6google8protobuf8internal14WireFormatLite11kDoubleSizeE",
   "name" : "google::protobuf::internal::WireFormatLite::kDoubleSize",
   "referenced_type" : "_ZTIKj",
   "source_file" : "external/protobuf/src/google/protobuf/wire_format_lite.h"
  },
  {
   "linker_set_key" : "_ZN6google8protobuf8internal14WireFormatLite12kFixed32SizeE",
   "name" : "google::protobuf::internal::WireFormatLite::kFixed32Size",
   "referenced_type" : "_ZTIKj",
   "source_file" : "external/protobuf/src/google/protobuf/wire_format_lite.h"
  },
  {
   "linker_set_key" : "_ZN6google8protobuf8internal14WireFormatLite12kFixed64SizeE",
   "name" : "google::protobuf::internal::WireFormatLite::kFixed64Size",
   "referenced_type" : "_ZTIKj",
   "source_file" : "external/protobuf/src/google/protobuf/wire_format_lite.h"
  },
  {
   "linker_set_key" : "_ZN6google8protobuf8internal14WireFormatLite12kTagTypeBitsE",
   "name" : "google::protobuf::internal::WireFormatLite::kTagTypeBits",
   "referenced_type" : "_ZTIKi",
   "source_file" : "external/protobuf/src/google/protobuf/wire_format_lite.h"
  },
  {
   "linker_set_key" : "_ZN6google8protobuf8internal14WireFormatLite12kTagTypeMaskE",
   "name" : "google::protobuf::internal::WireFormatLite::kTagTypeMask",
   "referenced_type" : "_ZTIKj",
   "source_file" : "external/protobuf/src/google/protobuf/wire_format_lite.h"
  },
  {
   "linker_set_key" : "_ZN6google8protobuf8internal14WireFormatLite13kSFixed32SizeE",
   "name" : "google::protobuf::internal::WireFormatLite::kSFixed32Size",
   "referenced_type" : "_ZTIKj",
   "source_file" : "external/protobuf/src/google/protobuf/wire_format_lite.h"
  },
  {
   "linker_set_key" : "_ZN6google8protobuf8internal14WireFormatLite13kSFixed64SizeE",
   "name" : "google::protobuf::internal::WireFormatLite::kSFixed64Size",
   "referenced_type" : "_ZTIKj",
   "source_file" : "external/protobuf/src/google/protobuf/wire_format_lite.h"
  },
  {
   "linker_set_key" : "_ZN6google8protobuf8internal14WireFormatLite20kMessageSetTypeIdTagE",
   "name" : "google::protobuf::internal::WireFormatLite::kMessageSetTypeIdTag",
   "referenced_type" : "_ZTIKi",
   "source_file" : "external/protobuf/src/google/protobuf/wire_format_lite.h"
  },
  {
   "linker_set_key" : "_ZN6google8protobuf8internal14WireFormatLite21kMessageSetItemEndTagE",
   "name" : "google::protobuf::internal::WireFormatLite::kMessageSetItemEndTag",
   "referenced_type" : "_ZTIKi",
   "source_file" : "external/protobuf/src/google/protobuf/wire_format_lite.h"
  },
  {
   "linker_set_key" : "_ZN6google8protobuf8internal14WireFormatLite21kMessageSetItemNumberE",
   "name" : "google::protobuf::internal::WireFormatLite::kMessageSetItemNumber",
   "referenced_type" : "_ZTIKi",
   "source_file" : "external/protobuf/src/google/protobuf/wire_format_lite.h"
  },
  {
   "linker_set_key" : "_ZN6google8protobuf8internal14WireFormatLite21kMessageSetMessageTagE",
   "name" : "google::protobuf::internal::WireFormatLite::kMessageSetMessageTag",
   "referenced_type" : "_ZTIKi",
   "source_file" : "external/protobuf/src/google/protobuf/wire_format_lite.h"
  },
  {
   "access" : "private",
   "linker_set_key" : "_ZN6google8protobuf8internal14WireFormatLite21kWireTypeForFieldTypeE",
   "name" : "google::protobuf::internal::WireFormatLite::kWireTypeForFieldType",
   "referenced_type" : "_ZTIA_KN6google8protobuf8internal14WireFormatLite8WireTypeE",
   "source_file" : "external/protobuf/src/google/protobuf/wire_format_lite.h"
  },
  {
   "access" : "private",
   "linker_set_key" : "_ZN6google8protobuf8internal14WireFormatLite22kFieldTypeToCppTypeMapE",
   "name" : "google::protobuf::internal::WireFormatLite::kFieldTypeToCppTypeMap",
   "referenced_type" : "_ZTIA_KN6google8protobuf8internal14WireFormatLite7CppTypeE",
   "source_file" : "external/protobuf/src/google/protobuf/wire_format_lite.h"
  },
  {
   "linker_set_key" : "_ZN6google8protobuf8internal14WireFormatLite23kMessageSetItemStartTagE",
   "name" : "google::protobuf::internal::WireFormatLite::kMessageSetItemStartTag",
   "referenced_type" : "_ZTIKi",
   "source_file" : "external/protobuf/src/google/protobuf/wire_format_lite.h"
  },
  {
   "linker_set_key" : "_ZN6google8protobuf8internal14WireFormatLite23kMessageSetItemTagsSizeE",
   "name" : "google::protobuf::internal::WireFormatLite::kMessageSetItemTagsSize",
   "referenced_type" : "_ZTIKj",
   "source_file" : "external/protobuf/src/google/protobuf/wire_format_lite.h"
  },
  {
   "linker_set_key" : "_ZN6google8protobuf8internal14WireFormatLite23kMessageSetTypeIdNumberE",
   "name" : "google::protobuf::internal::WireFormatLite::kMessageSetTypeIdNumber",
   "referenced_type" : "_ZTIKi",
   "source_file" : "external/protobuf/src/google/protobuf/wire_format_lite.h"
  },
  {
   "linker_set_key" : "_ZN6google8protobuf8internal14WireFormatLite24kMessageSetMessageNumberE",
   "name" : "google::protobuf::internal::WireFormatLite::kMessageSetMessageNumber",
   "referenced_type" : "_ZTIKi",
   "source_file" : "external/protobuf/src/google/protobuf/wire_format_lite.h"
  },
  {
   "linker_set_key" : "_ZN6google8protobuf8internal14WireFormatLite9kBoolSizeE",
   "name" : "google::protobuf::internal::WireFormatLite::kBoolSize",
   "referenced_type" : "_ZTIKj",
   "source_file" : "external/protobuf/src/google/protobuf/wire_format_lite.h"
  },
  {
   "access" : "private",
   "linker_set_key" : "_ZN6google8protobuf8internal20RepeatedPtrFieldBase12kInitialSizeE",
   "name" : "google::protobuf::internal::RepeatedPtrFieldBase::kInitialSize",
   "referenced_type" : "_ZTIKi",
   "source_file" : "external/protobuf/src/google/protobuf/repeated_field.h"
  },
  {
   "access" : "private",
   "linker_set_key" : "_ZN6google8protobuf8internal20RepeatedPtrFieldBase14kRepHeaderSizeE",
   "name" : "google::protobuf::internal::RepeatedPtrFieldBase::kRepHeaderSize",
   "referenced_type" : "_ZTIKj",
   "source_file" : "external/protobuf/src/google/protobuf/repeated_field.h"
  },
  {
   "linker_set_key" : "_ZN6google8protobuf8internal23ImplicitWeakTypeHandler8MoveableE",
   "name" : "google::protobuf::internal::ImplicitWeakTypeHandler::Moveable",
   "referenced_type" : "_ZTIKb",
   "source_file" : "external/protobuf/src/google/protobuf/implicit_weak_message.h"
  },
  {
   "linker_set_key" : "_ZN6google8protobuf8internal26fixed_address_empty_stringE",
   "name" : "google::protobuf::internal::fixed_address_empty_string",
   "referenced_type" : "_ZTIN6google8protobuf8internal21ExplicitlyConstructedINSt3__112basic_stringIcNS3_11char_traitsIcEENS3_9allocatorIcEEEEEE",
   "source_file" : "external/protobuf/src/google/protobuf/message_lite.h"
  },
  {
   "access" : "private",
   "linker_set_key" : "_ZN6google8protobuf8internal29InternalMetadataWithArenaBase11kPtrTagMaskE",
   "name" : "google::protobuf::internal::InternalMetadataWithArenaBase::kPtrTagMask",
   "referenced_type" : "_ZTIKi",
   "source_file" : "external/protobuf/src/google/protobuf/metadata_lite.h"
  },
  {
   "access" : "private",
   "linker_set_key" : "_ZN6google8protobuf8internal29InternalMetadataWithArenaBase13kPtrValueMaskE",
   "name" : "google::protobuf::internal::InternalMetadataWithArenaBase::kPtrValueMask",
   "referenced_type" : "_ZTIKi",
   "source_file" : "external/protobuf/src/google/protobuf/metadata_lite.h"
  },
  {
   "access" : "private",
   "linker_set_key" : "_ZN6google8protobuf8internal29InternalMetadataWithArenaBaseINSt3__112basic_stringIcNS3_11char_traitsIcEENS3_9allocatorIcEEEENS1_29InternalMetadataWithArenaLiteEE11kPtrTagMaskE",
   "name" : "google::protobuf::internal::InternalMetadataWithArenaBase<std::__1::basic_string<char>, google::protobuf::internal::InternalMetadataWithArenaLite>::kPtrTagMask",
   "referenced_type" : "_ZTIKi",
   "source_file" : "external/protobuf/src/google/protobuf/metadata_lite.h"
  },
  {
   "access" : "private",
   "linker_set_key" : "_ZN6google8protobuf8internal29InternalMetadataWithArenaBaseINSt3__112basic_stringIcNS3_11char_traitsIcEENS3_9allocatorIcEEEENS1_29InternalMetadataWithArenaLiteEE13kPtrValueMaskE",
   "name" : "google::protobuf::internal::InternalMetadataWithArenaBase<std::__1::basic_string<char>, google::protobuf::internal::InternalMetadataWithArenaLite>::kPtrValueMask",
   "referenced_type" : "_ZTIKi",
   "source_file" : "external/protobuf/src/google/protobuf/metadata_lite.h"
  },
  {
   "linker_set_key" : "_ZN6google8protobuf8internal9ArenaImpl16kBlockHeaderSizeE",
   "name" : "google::protobuf::internal::ArenaImpl::kBlockHeaderSize",
   "referenced_type" : "_ZTIKj",
   "source_file" : "external/protobuf/src/google/protobuf/arena_impl.h"
  },
  {
   "linker_set_key" : "_ZN6google8protobuf8internal9ArenaImpl16kSerialArenaSizeE",
   "name" : "google::protobuf::internal::ArenaImpl::kSerialArenaSize",
   "referenced_type" : "_ZTIKj",
   "source_file" : "external/protobuf/src/google/protobuf/arena_impl.h"
  },
  {
   "access" : "private",
   "linker_set_key" : "_ZN6google8protobuf8internal9ArenaImpl23lifecycle_id_generator_E",
   "name" : "google::protobuf::internal::ArenaImpl::lifecycle_id_generator_",
   "referenced_type" : "_ZTINSt3__16atomicIxEE",
   "source_file" : "external/protobuf/src/google/protobuf/arena_impl.h"
  },
  {
   "linker_set_key" : "_ZN6google8protobuf8internalL26kMinHeaderVersionForProtocE",
   "name" : "google::protobuf::internal::kMinHeaderVersionForProtoc",
   "referenced_type" : "_ZTIKi",
   "source_file" : "external/protobuf/src/google/protobuf/stubs/common.h"
  },
  {
   "linker_set_key" : "_ZN6google8protobuf8internalL27kMinHeaderVersionForLibraryE",
   "name" : "google::protobuf::internal::kMinHeaderVersionForLibrary",
   "referenced_type" : "_ZTIKi",
   "source_file" : "external/protobuf/src/google/protobuf/stubs/common.h"
  },
  {
   "linker_set_key" : "_ZN6google8protobuf8internalL31kMinRepeatedFieldAllocationSizeE",
   "name" : "google::protobuf::internal::kMinRepeatedFieldAllocationSize",
   "referenced_type" : "_ZTIKi",
   "source_file" : "external/protobuf/src/google/protobuf/repeated_field.h"
  },
  {
   "linker_set_key" : "_ZN6google8protobufL10kuint32maxE",
   "name" : "google::protobuf::kuint32max",
   "referenced_type" : "_ZTIKj",
   "source_file" : "external/protobuf/src/google/protobuf/stubs/port.h"
  },
  {
   "linker_set_key" : "_ZN6google8protobufL10kuint64maxE",
   "name" : "google::protobuf::kuint64max",
   "referenced_type" : "_ZTIKy",
   "source_file" : "external/protobuf/src/google/protobuf/stubs/port.h"
  },
  {
   "linker_set_key" : "_ZN6google8protobufL17kFastToBufferSizeE",
   "name" : "google::protobuf::kFastToBufferSize",
   "referenced_type" : "_ZTIKi",
   "source_file" : "external/protobuf/src/google/protobuf/stubs/strutil.h"
  },
  {
   "linker_set_key" : "_ZN6google8protobufL18kFloatToBufferSizeE",
   "name" : "google::protobuf::kFloatToBufferSize",
   "referenced_type" : "_ZTIKi",
   "source_file" : "external/protobuf/src/google/protobuf/stubs/strutil.h"
  },
  {
   "linker_set_key" : "_ZN6google8protobufL19kDoubleToBufferSizeE",
   "name" : "google::protobuf::kDoubleToBufferSize",
   "referenced_type" : "_ZTIKi",
   "source_file" : "external/protobuf/src/google/protobuf/stubs/strutil.h"
  },
  {
   "linker_set_key" : "_ZN6google8protobufL6UTFmaxE",
   "name" : "google::protobuf::UTFmax",
   "referenced_type" : "_ZTIKi",
   "source_file" : "external/protobuf/src/google/protobuf/stubs/strutil.h"
  },
  {
   "linker_set_key" : "_ZN6google8protobufL9kint32maxE",
   "name" : "google::protobuf::kint32max",
   "referenced_type" : "_ZTIKi",
   "source_file" : "external/protobuf/src/google/protobuf/stubs/port.h"
  },
  {
   "linker_set_key" : "_ZN6google8protobufL9kint32minE",
   "name" : "google::protobuf::kint32min",
   "referenced_type" : "_ZTIKi",
   "source_file" : "external/protobuf/src/google/protobuf/stubs/port.h"
  },
  {
   "linker_set_key" : "_ZN6google8protobufL9kint64maxE",
   "name" : "google::protobuf::kint64max",
   "referenced_type" : "_ZTIKx",
   "source_file" : "external/protobuf/src/google/protobuf/stubs/port.h"
  },
  {
   "linker_set_key" : "_ZN6google8protobufL9kint64minE",
   "name" : "google::protobuf::kint64min",
   "referenced_type" : "_ZTIKx",
   "source_file" : "external/protobuf/src/google/protobuf/stubs/port.h"
  }
 ],
 "lvalue_reference_types" :
 [
  {
   "alignment" : 4,
   "linker_set_key" : "_ZTIRFvvE",
   "name" : "void (&)()",
   "referenced_type" : "_ZTIFvvE",
   "self_type" : "_ZTIRFvvE",
   "size" : 4,
   "source_file" : "external/protobuf/src/google/protobuf/stubs/once.h"
  },
  {
   "alignment" : 4,
   "linker_set_key" : "_ZTIRKN6google8protobuf11MessageLiteE",
   "name" : "const google::protobuf::MessageLite &",
   "referenced_type" : "_ZTIKN6google8protobuf11MessageLiteE",
   "self_type" : "_ZTIRKN6google8protobuf11MessageLiteE",
   "size" : 4,
   "source_file" : "external/protobuf/src/google/protobuf/implicit_weak_message.h"
  },
  {
   "alignment" : 4,
   "linker_set_key" : "_ZTIRKN6google8protobuf11StringPieceE",
   "name" : "const google::protobuf::StringPiece &",
   "referenced_type" : "_ZTIKN6google8protobuf11StringPieceE",
   "self_type" : "_ZTIRKN6google8protobuf11StringPieceE",
   "size" : 4,
   "source_file" : "external/protobuf/src/google/protobuf/stubs/stringpiece.h"
  },
  {
   "alignment" : 4,
   "linker_set_key" : "_ZTIRKN6google8protobuf12ArenaOptionsE",
   "name" : "const google::protobuf::ArenaOptions &",
   "referenced_type" : "_ZTIKN6google8protobuf12ArenaOptionsE",
   "self_type" : "_ZTIRKN6google8protobuf12ArenaOptionsE",
   "size" : 4,
   "source_file" : "external/protobuf/src/google/protobuf/arena_impl.h"
  },
  {
   "alignment" : 4,
   "linker_set_key" : "_ZTIRKN6google8protobuf13RepeatedFieldIbEE",
   "name" : "const google::protobuf::RepeatedField<bool> &",
   "referenced_type" : "_ZTIKN6google8protobuf13RepeatedFieldIbEE",
   "self_type" : "_ZTIRKN6google8protobuf13RepeatedFieldIbEE",
   "size" : 4,
   "source_file" : "external/protobuf/src/google/protobuf/wire_format_lite.h"
  },
  {
   "alignment" : 4,
   "linker_set_key" : "_ZTIRKN6google8protobuf13RepeatedFieldIdEE",
   "name" : "const google::protobuf::RepeatedField<double> &",
   "referenced_type" : "_ZTIKN6google8protobuf13RepeatedFieldIdEE",
   "self_type" : "_ZTIRKN6google8protobuf13RepeatedFieldIdEE",
   "size" : 4,
   "source_file" : "external/protobuf/src/google/protobuf/wire_format_lite.h"
  },
  {
   "alignment" : 4,
   "linker_set_key" : "_ZTIRKN6google8protobuf13RepeatedFieldIfEE",
   "name" : "const google::protobuf::RepeatedField<float> &",
   "referenced_type" : "_ZTIKN6google8protobuf13RepeatedFieldIfEE",
   "self_type" : "_ZTIRKN6google8protobuf13RepeatedFieldIfEE",
   "size" : 4,
   "source_file" : "external/protobuf/src/google/protobuf/wire_format_lite.h"
  },
  {
   "alignment" : 4,
   "linker_set_key" : "_ZTIRKN6google8protobuf13RepeatedFieldIiEE",
   "name" : "const google::protobuf::RepeatedField<int32> &",
   "referenced_type" : "_ZTIKN6google8protobuf13RepeatedFieldIiEE",
   "self_type" : "_ZTIRKN6google8protobuf13RepeatedFieldIiEE",
   "size" : 4,
   "source_file" : "external/protobuf/src/google/protobuf/wire_format_lite.h"
  },
  {
   "alignment" : 4,
   "linker_set_key" : "_ZTIRKN6google8protobuf13RepeatedFieldIjEE",
   "name" : "const google::protobuf::RepeatedField<uint32> &",
   "referenced_type" : "_ZTIKN6google8protobuf13RepeatedFieldIjEE",
   "self_type" : "_ZTIRKN6google8protobuf13RepeatedFieldIjEE",
   "size" : 4,
   "source_file" : "external/protobuf/src/google/protobuf/wire_format_lite.h"
  },
  {
   "alignment" : 4,
   "linker_set_key" : "_ZTIRKN6google8protobuf13RepeatedFieldIxEE",
   "name" : "const google::protobuf::RepeatedField<int64> &",
   "referenced_type" : "_ZTIKN6google8protobuf13RepeatedFieldIxEE",
   "self_type" : "_ZTIRKN6google8protobuf13RepeatedFieldIxEE",
   "size" : 4,
   "source_file" : "external/protobuf/src/google/protobuf/wire_format_lite.h"
  },
  {
   "alignment" : 4,
   "linker_set_key" : "_ZTIRKN6google8protobuf13RepeatedFieldIyEE",
   "name" : "const google::protobuf::RepeatedField<uint64> &",
   "referenced_type" : "_ZTIKN6google8protobuf13RepeatedFieldIyEE",
   "self_type" : "_ZTIRKN6google8protobuf13RepeatedFieldIyEE",
   "size" : 4,
   "source_file" : "external/protobuf/src/google/protobuf/wire_format_lite.h"
  },
  {
   "alignment" : 4,
   "linker_set_key" : "_ZTIRKN6google8protobuf7strings8AlphaNumE",
   "name" : "const google::protobuf::strings::AlphaNum &",
   "referenced_type" : "_ZTIKN6google8protobuf7strings8AlphaNumE",
   "self_type" : "_ZTIRKN6google8protobuf7strings8AlphaNumE",
   "size" : 4,
   "source_file" : "external/protobuf/src/google/protobuf/stubs/strutil.h"
  },
  {
   "alignment" : 4,
   "linker_set_key" : "_ZTIRKN6google8protobuf8internal12ParseContext4DataE",
   "name" : "const google::protobuf::internal::ParseContext::Data &",
   "referenced_type" : "_ZTIKN6google8protobuf8internal12ParseContext4DataE",
   "self_type" : "_ZTIRKN6google8protobuf8internal12ParseContext4DataE",
   "size" : 4,
   "source_file" : "external/protobuf/src/google/protobuf/parse_context.h"
  },
  {
   "alignment" : 4,
   "linker_set_key" : "_ZTIRKN6google8protobuf8internal19ImplicitWeakMessageE",
   "name" : "const google::protobuf::internal::ImplicitWeakMessage &",
   "referenced_type" : "_ZTIKN6google8protobuf8internal19ImplicitWeakMessageE",
   "self_type" : "_ZTIRKN6google8protobuf8internal19ImplicitWeakMessageE",
   "size" : 4,
   "source_file" : "external/protobuf/src/google/protobuf/message_lite.h"
  },
  {
   "alignment" : 4,
   "linker_set_key" : "_ZTIRKN6google8protobuf8internal20RepeatedPtrFieldBaseE",
   "name" : "const google::protobuf::internal::RepeatedPtrFieldBase &",
   "referenced_type" : "_ZTIKN6google8protobuf8internal20RepeatedPtrFieldBaseE",
   "self_type" : "_ZTIRKN6google8protobuf8internal20RepeatedPtrFieldBaseE",
   "size" : 4,
   "source_file" : "external/protobuf/src/google/protobuf/repeated_field.h"
  },
  {
   "alignment" : 4,
   "linker_set_key" : "_ZTIRKNSt3__112basic_stringIcNS_11char_traitsIcEENS_9allocatorIcEEEE",
   "name" : "const std::basic_string<char, std::char_traits<char>, std::allocator<char>> &",
   "referenced_type" : "_ZTIKNSt3__112basic_stringIcNS_11char_traitsIcEENS_9allocatorIcEEEE",
   "self_type" : "_ZTIRKNSt3__112basic_stringIcNS_11char_traitsIcEENS_9allocatorIcEEEE",
   "size" : 4,
   "source_file" : "external/protobuf/src/google/protobuf/stubs/common.h"
  },
  {
   "alignment" : 4,
   "linker_set_key" : "_ZTIRKNSt3__16vectorINS_12basic_stringIcNS_11char_traitsIcEENS_9allocatorIcEEEENS4_IS6_EEEE",
   "name" : "const std::vector<std::basic_string<char, std::char_traits<char>, std::allocator<char>>, std::allocator<std::basic_string<char, std::char_traits<char>, std::allocator<char>>>> &",
   "referenced_type" : "_ZTIKNSt3__16vectorINS_12basic_stringIcNS_11char_traitsIcEENS_9allocatorIcEEEENS4_IS6_EEEE",
   "self_type" : "_ZTIRKNSt3__16vectorINS_12basic_stringIcNS_11char_traitsIcEENS_9allocatorIcEEEENS4_IS6_EEEE",
   "size" : 4,
   "source_file" : "external/protobuf/src/google/protobuf/stubs/strutil.h"
  },
  {
   "alignment" : 4,
   "linker_set_key" : "_ZTIRKd",
   "name" : "const double &",
   "referenced_type" : "_ZTIKd",
   "self_type" : "_ZTIRKd",
   "size" : 4,
   "source_file" : "external/protobuf/src/google/protobuf/repeated_field.h"
  },
  {
   "alignment" : 4,
   "linker_set_key" : "_ZTIRKf",
   "name" : "const float &",
   "referenced_type" : "_ZTIKf",
   "self_type" : "_ZTIRKf",
   "size" : 4,
   "source_file" : "external/protobuf/src/google/protobuf/repeated_field.h"
  },
  {
   "alignment" : 4,
   "linker_set_key" : "_ZTIRKi",
   "name" : "const int &",
   "referenced_type" : "_ZTIKi",
   "self_type" : "_ZTIRKi",
   "size" : 4,
   "source_file" : "external/protobuf/src/google/protobuf/repeated_field.h"
  },
  {
   "alignment" : 4,
   "linker_set_key" : "_ZTIRKj",
   "name" : "const unsigned int &",
   "referenced_type" : "_ZTIKj",
   "self_type" : "_ZTIRKj",
   "size" : 4,
   "source_file" : "external/protobuf/src/google/protobuf/repeated_field.h"
  },
  {
   "alignment" : 4,
   "linker_set_key" : "_ZTIRKx",
   "name" : "const long long &",
   "referenced_type" : "_ZTIKx",
   "self_type" : "_ZTIRKx",
   "size" : 4,
   "source_file" : "external/protobuf/src/google/protobuf/repeated_field.h"
  },
  {
   "alignment" : 4,
   "linker_set_key" : "_ZTIRKy",
   "name" : "const unsigned long long &",
   "referenced_type" : "_ZTIKy",
   "self_type" : "_ZTIRKy",
   "size" : 4,
   "source_file" : "external/protobuf/src/google/protobuf/repeated_field.h"
  },
  {
   "alignment" : 4,
   "linker_set_key" : "_ZTIRN6google8protobuf8internal12ParseContext4DataE",
   "name" : "google::protobuf::internal::ParseContext::Data &",
   "referenced_type" : "_ZTIN6google8protobuf8internal12ParseContext4DataE",
   "self_type" : "_ZTIRN6google8protobuf8internal12ParseContext4DataE",
   "size" : 4,
   "source_file" : "external/protobuf/src/google/protobuf/parse_context.h"
  },
  {
   "alignment" : 4,
   "linker_set_key" : "_ZTIRNSt3__19once_flagE",
   "name" : "std::once_flag &",
   "referenced_type" : "_ZTINSt3__19once_flagE",
   "self_type" : "_ZTIRNSt3__19once_flagE",
   "size" : 4,
   "source_file" : "external/protobuf/src/google/protobuf/stubs/once.h"
  }
 ],
 "pointer_types" :
 [
  {
   "alignment" : 4,
   "linker_set_key" : "_ZTIPFPhbS_E",
   "name" : "unsigned char *(*)(bool, unsigned char *)",
   "referenced_type" : "_ZTIFPhbS_E",
   "self_type" : "_ZTIPFPhbS_E",
   "size" : 4,
   "source_file" : "external/protobuf/src/google/protobuf/wire_format_lite.h"
  },
  {
   "alignment" : 4,
   "linker_set_key" : "_ZTIPFPhdS_E",
   "name" : "unsigned char *(*)(double, unsigned char *)",
   "referenced_type" : "_ZTIFPhdS_E",
   "self_type" : "_ZTIPFPhdS_E",
   "size" : 4,
   "source_file" : "external/protobuf/src/google/protobuf/wire_format_lite.h"
  },
  {
   "alignment" : 4,
   "linker_set_key" : "_ZTIPFPhfS_E",
   "name" : "unsigned char *(*)(float, unsigned char *)",
   "referenced_type" : "_ZTIFPhfS_E",
   "self_type" : "_ZTIPFPhfS_E",
   "size" : 4,
   "source_file" : "external/protobuf/src/google/protobuf/wire_format_lite.h"
  },
  {
   "alignment" : 4,
   "linker_set_key" : "_ZTIPFPhiS_E",
   "name" : "unsigned char *(*)(int, unsigned char *)",
   "referenced_type" : "_ZTIFPhiS_E",
   "self_type" : "_ZTIPFPhiS_E",
   "size" : 4,
   "source_file" : "external/protobuf/src/google/protobuf/wire_format_lite.h"
  },
  {
   "alignment" : 4,
   "linker_set_key" : "_ZTIPFPhibS_E",
   "name" : "unsigned char *(*)(int, bool, unsigned char *)",
   "referenced_type" : "_ZTIFPhibS_E",
   "self_type" : "_ZTIPFPhibS_E",
   "size" : 4,
   "source_file" : "external/protobuf/src/google/protobuf/wire_format_lite.h"
  },
  {
   "alignment" : 4,
   "linker_set_key" : "_ZTIPFPhidS_E",
   "name" : "unsigned char *(*)(int, double, unsigned char *)",
   "referenced_type" : "_ZTIFPhidS_E",
   "self_type" : "_ZTIPFPhidS_E",
   "size" : 4,
   "source_file" : "external/protobuf/src/google/protobuf/wire_format_lite.h"
  },
  {
   "alignment" : 4,
   "linker_set_key" : "_ZTIPFPhifS_E",
   "name" : "unsigned char *(*)(int, float, unsigned char *)",
   "referenced_type" : "_ZTIFPhifS_E",
   "self_type" : "_ZTIPFPhifS_E",
   "size" : 4,
   "source_file" : "external/protobuf/src/google/protobuf/wire_format_lite.h"
  },
  {
   "alignment" : 4,
   "linker_set_key" : "_ZTIPFPhiiS_E",
   "name" : "unsigned char *(*)(int, int, unsigned char *)",
   "referenced_type" : "_ZTIFPhiiS_E",
   "self_type" : "_ZTIPFPhiiS_E",
   "size" : 4,
   "source_file" : "external/protobuf/src/google/protobuf/wire_format_lite.h"
  },
  {
   "alignment" : 4,
   "linker_set_key" : "_ZTIPFPhijS_E",
   "name" : "unsigned char *(*)(int, unsigned int, unsigned char *)",
   "referenced_type" : "_ZTIFPhijS_E",
   "self_type" : "_ZTIPFPhijS_E",
   "size" : 4,
   "source_file" : "external/protobuf/src/google/protobuf/wire_format_lite.h"
  },
  {
   "alignment" : 4,
   "linker_set_key" : "_ZTIPFPhixS_E",
   "name" : "unsigned char *(*)(int, long long, unsigned char *)",
   "referenced_type" : "_ZTIFPhixS_E",
   "self_type" : "_ZTIPFPhixS_E",
   "size" : 4,
   "source_file" : "external/protobuf/src/google/protobuf/wire_format_lite.h"
  },
  {
   "alignment" : 4,
   "linker_set_key" : "_ZTIPFPhiyS_E",
   "name" : "unsigned char *(*)(int, unsigned long long, unsigned char *)",
   "referenced_type" : "_ZTIFPhiyS_E",
   "self_type" : "_ZTIPFPhiyS_E",
   "size" : 4,
   "source_file" : "external/protobuf/src/google/protobuf/wire_format_lite.h"
  },
  {
   "alignment" : 4,
   "linker_set_key" : "_ZTIPFPhjS_E",
   "name" : "unsigned char *(*)(unsigned int, unsigned char *)",
   "referenced_type" : "_ZTIFPhjS_E",
   "self_type" : "_ZTIPFPhjS_E",
   "size" : 4,
   "source_file" : "external/protobuf/src/google/protobuf/wire_format_lite.h"
  },
  {
   "alignment" : 4,
   "linker_set_key" : "_ZTIPFPhxS_E",
   "name" : "unsigned char *(*)(long long, unsigned char *)",
   "referenced_type" : "_ZTIFPhxS_E",
   "self_type" : "_ZTIPFPhxS_E",
   "size" : 4,
   "source_file" : "external/protobuf/src/google/protobuf/wire_format_lite.h"
  },
  {
   "alignment" : 4,
   "linker_set_key" : "_ZTIPFPhyS_E",
   "name" : "unsigned char *(*)(unsigned long long, unsigned char *)",
   "referenced_type" : "_ZTIFPhyS_E",
   "self_type" : "_ZTIPFPhyS_E",
   "size" : 4,
   "source_file" : "external/protobuf/src/google/protobuf/wire_format_lite.h"
  },
  {
   "alignment" : 4,
   "linker_set_key" : "_ZTIPFPvPN6google8protobuf5ArenaEE",
   "name" : "void *(*)(google::protobuf::Arena *)",
   "referenced_type" : "_ZTIFPvPN6google8protobuf5ArenaEE",
   "self_type" : "_ZTIPFPvPN6google8protobuf5ArenaEE",
   "size" : 4,
   "source_file" : "external/protobuf/src/google/protobuf/arena.h"
  },
  {
   "alignment" : 4,
   "linker_set_key" : "_ZTIPFPvjE",
   "name" : "void *(*)(unsigned int)",
   "referenced_type" : "_ZTIFPvjE",
   "self_type" : "_ZTIPFPvjE",
   "size" : 4,
   "source_file" : "external/protobuf/src/google/protobuf/arena_impl.h"
  },
  {
   "alignment" : 4,
   "linker_set_key" : "_ZTIPFvPKSt9type_infoyPvE",
   "name" : "void (*)(const std::type_info *, unsigned long long, void *)",
   "referenced_type" : "_ZTIFvPKSt9type_infoyPvE",
   "self_type" : "_ZTIPFvPKSt9type_infoyPvE",
   "size" : 4,
   "source_file" : "external/protobuf/src/google/protobuf/arena.h"
  },
  {
   "alignment" : 4,
   "linker_set_key" : "_ZTIPFvPN6google8protobuf5ArenaEPvyE",
   "name" : "void (*)(google::protobuf::Arena *, void *, unsigned long long)",
   "referenced_type" : "_ZTIFvPN6google8protobuf5ArenaEPvyE",
   "self_type" : "_ZTIPFvPN6google8protobuf5ArenaEPvyE",
   "size" : 4,
   "source_file" : "external/protobuf/src/google/protobuf/arena.h"
  },
  {
   "alignment" : 4,
   "linker_set_key" : "_ZTIPFvPvE",
   "name" : "void (*)(void *)",
   "referenced_type" : "_ZTIFvPvE",
   "self_type" : "_ZTIPFvPvE",
   "size" : 4,
   "source_file" : "external/protobuf/src/google/protobuf/arena_impl.h"
  },
  {
   "alignment" : 4,
   "linker_set_key" : "_ZTIPFvPvjE",
   "name" : "void (*)(void *, unsigned int)",
   "referenced_type" : "_ZTIFvPvjE",
   "self_type" : "_ZTIPFvPvjE",
   "size" : 4,
   "source_file" : "external/protobuf/src/google/protobuf/arena_impl.h"
  },
  {
   "alignment" : 4,
   "linker_set_key" : "_ZTIPFvvE",
   "name" : "void (*)()",
   "referenced_type" : "_ZTIFvvE",
   "self_type" : "_ZTIPFvvE",
   "size" : 4,
   "source_file" : "external/protobuf/src/google/protobuf/generated_message_util.h"
  },
  {
   "alignment" : 4,
   "linker_set_key" : "_ZTIPKN6google8protobuf11MessageLiteE",
   "name" : "const google::protobuf::MessageLite *",
   "referenced_type" : "_ZTIKN6google8protobuf11MessageLiteE",
   "self_type" : "_ZTIPKN6google8protobuf11MessageLiteE",
   "size" : 4,
   "source_file" : "external/protobuf/src/google/protobuf/message_lite.h"
  },
  {
   "alignment" : 4,
   "linker_set_key" : "_ZTIPKN6google8protobuf11StringPieceE",
   "name" : "const google::protobuf::StringPiece *",
   "referenced_type" : "_ZTIKN6google8protobuf11StringPieceE",
   "self_type" : "_ZTIPKN6google8protobuf11StringPieceE",
   "size" : 4,
   "source_file" : "external/protobuf/src/google/protobuf/stubs/stringpiece.h"
  },
  {
   "alignment" : 4,
   "linker_set_key" : "_ZTIPKN6google8protobuf13RepeatedFieldIbEE",
   "name" : "const google::protobuf::RepeatedField<bool> *",
   "referenced_type" : "_ZTIKN6google8protobuf13RepeatedFieldIbEE",
   "self_type" : "_ZTIPKN6google8protobuf13RepeatedFieldIbEE",
   "size" : 4,
   "source_file" : "external/protobuf/src/google/protobuf/repeated_field.h"
  },
  {
   "alignment" : 4,
   "linker_set_key" : "_ZTIPKN6google8protobuf13RepeatedFieldIdEE",
   "name" : "const google::protobuf::RepeatedField<double> *",
   "referenced_type" : "_ZTIKN6google8protobuf13RepeatedFieldIdEE",
   "self_type" : "_ZTIPKN6google8protobuf13RepeatedFieldIdEE",
   "size" : 4,
   "source_file" : "external/protobuf/src/google/protobuf/repeated_field.h"
  },
  {
   "alignment" : 4,
   "linker_set_key" : "_ZTIPKN6google8protobuf13RepeatedFieldIfEE",
   "name" : "const google::protobuf::RepeatedField<float> *",
   "referenced_type" : "_ZTIKN6google8protobuf13RepeatedFieldIfEE",
   "self_type" : "_ZTIPKN6google8protobuf13RepeatedFieldIfEE",
   "size" : 4,
   "source_file" : "external/protobuf/src/google/protobuf/repeated_field.h"
  },
  {
   "alignment" : 4,
   "linker_set_key" : "_ZTIPKN6google8protobuf13RepeatedFieldIiEE",
   "name" : "const google::protobuf::RepeatedField<int32> *",
   "referenced_type" : "_ZTIKN6google8protobuf13RepeatedFieldIiEE",
   "self_type" : "_ZTIPKN6google8protobuf13RepeatedFieldIiEE",
   "size" : 4,
   "source_file" : "external/protobuf/src/google/protobuf/repeated_field.h"
  },
  {
   "alignment" : 4,
   "linker_set_key" : "_ZTIPKN6google8protobuf13RepeatedFieldIjEE",
   "name" : "const google::protobuf::RepeatedField<uint32> *",
   "referenced_type" : "_ZTIKN6google8protobuf13RepeatedFieldIjEE",
   "self_type" : "_ZTIPKN6google8protobuf13RepeatedFieldIjEE",
   "size" : 4,
   "source_file" : "external/protobuf/src/google/protobuf/repeated_field.h"
  },
  {
   "alignment" : 4,
   "linker_set_key" : "_ZTIPKN6google8protobuf13RepeatedFieldIxEE",
   "name" : "const google::protobuf::RepeatedField<int64> *",
   "referenced_type" : "_ZTIKN6google8protobuf13RepeatedFieldIxEE",
   "self_type" : "_ZTIPKN6google8protobuf13RepeatedFieldIxEE",
   "size" : 4,
   "source_file" : "external/protobuf/src/google/protobuf/repeated_field.h"
  },
  {
   "alignment" : 4,
   "linker_set_key" : "_ZTIPKN6google8protobuf13RepeatedFieldIyEE",
   "name" : "const google::protobuf::RepeatedField<uint64> *",
   "referenced_type" : "_ZTIKN6google8protobuf13RepeatedFieldIyEE",
   "self_type" : "_ZTIPKN6google8protobuf13RepeatedFieldIyEE",
   "size" : 4,
   "source_file" : "external/protobuf/src/google/protobuf/repeated_field.h"
  },
  {
   "alignment" : 4,
   "linker_set_key" : "_ZTIPKN6google8protobuf14DescriptorPoolE",
   "name" : "const google::protobuf::DescriptorPool *",
   "referenced_type" : "_ZTIKN6google8protobuf14DescriptorPoolE",
   "self_type" : "_ZTIPKN6google8protobuf14DescriptorPoolE",
   "size" : 4,
   "source_file" : "external/protobuf/src/google/protobuf/io/coded_stream.h"
  },
  {
   "alignment" : 4,
   "linker_set_key" : "_ZTIPKN6google8protobuf2io16CodedInputStreamE",
   "name" : "const google::protobuf::io::CodedInputStream *",
   "referenced_type" : "_ZTIKN6google8protobuf2io16CodedInputStreamE",
   "self_type" : "_ZTIPKN6google8protobuf2io16CodedInputStreamE",
   "size" : 4,
   "source_file" : "external/protobuf/src/google/protobuf/io/coded_stream.h"
  },
  {
   "alignment" : 4,
   "linker_set_key" : "_ZTIPKN6google8protobuf2io17CodedOutputStreamE",
   "name" : "const google::protobuf::io::CodedOutputStream *",
   "referenced_type" : "_ZTIKN6google8protobuf2io17CodedOutputStreamE",
   "self_type" : "_ZTIPKN6google8protobuf2io17CodedOutputStreamE",
   "size" : 4,
   "source_file" : "external/protobuf/src/google/protobuf/io/coded_stream.h"
  },
  {
   "alignment" : 4,
   "linker_set_key" : "_ZTIPKN6google8protobuf2io20ZeroCopyOutputStreamE",
   "name" : "const google::protobuf::io::ZeroCopyOutputStream *",
   "referenced_type" : "_ZTIKN6google8protobuf2io20ZeroCopyOutputStreamE",
   "self_type" : "_ZTIPKN6google8protobuf2io20ZeroCopyOutputStreamE",
   "size" : 4,
   "source_file" : "external/protobuf/src/google/protobuf/io/zero_copy_stream.h"
  },
  {
   "alignment" : 4,
   "linker_set_key" : "_ZTIPKN6google8protobuf4hashINS0_11StringPieceEEE",
   "name" : "const google::protobuf::hash<google::protobuf::StringPiece> *",
   "referenced_type" : "_ZTIKN6google8protobuf4hashINS0_11StringPieceEEE",
   "self_type" : "_ZTIPKN6google8protobuf4hashINS0_11StringPieceEEE",
   "size" : 4,
   "source_file" : "external/protobuf/src/google/protobuf/stubs/stringpiece.h"
  },
  {
   "alignment" : 4,
   "linker_set_key" : "_ZTIPKN6google8protobuf4hashINSt3__112basic_stringIcNS2_11char_traitsIcEENS2_9allocatorIcEEEEEE",
   "name" : "const google::protobuf::hash<std::basic_string<char, std::char_traits<char>, std::allocator<char>>> *",
   "referenced_type" : "_ZTIKN6google8protobuf4hashINSt3__112basic_stringIcNS2_11char_traitsIcEENS2_9allocatorIcEEEEEE",
   "self_type" : "_ZTIPKN6google8protobuf4hashINSt3__112basic_stringIcNS2_11char_traitsIcEENS2_9allocatorIcEEEEEE",
   "size" : 4,
   "source_file" : "external/protobuf/src/google/protobuf/stubs/hash.h"
  },
  {
   "alignment" : 4,
   "linker_set_key" : "_ZTIPKN6google8protobuf4hashIPKcEE",
   "name" : "const google::protobuf::hash<const char *> *",
   "referenced_type" : "_ZTIKN6google8protobuf4hashIPKcEE",
   "self_type" : "_ZTIPKN6google8protobuf4hashIPKcEE",
   "size" : 4,
   "source_file" : "external/protobuf/src/google/protobuf/stubs/hash.h"
  },
  {
   "alignment" : 4,
   "linker_set_key" : "_ZTIPKN6google8protobuf4hashIbEE",
   "name" : "const google::protobuf::hash<bool> *",
   "referenced_type" : "_ZTIKN6google8protobuf4hashIbEE",
   "self_type" : "_ZTIPKN6google8protobuf4hashIbEE",
   "size" : 4,
   "source_file" : "external/protobuf/src/google/protobuf/stubs/hash.h"
  },
  {
   "alignment" : 4,
   "linker_set_key" : "_ZTIPKN6google8protobuf5ArenaE",
   "name" : "const google::protobuf::Arena *",
   "referenced_type" : "_ZTIKN6google8protobuf5ArenaE",
   "self_type" : "_ZTIPKN6google8protobuf5ArenaE",
   "size" : 4,
   "source_file" : "external/protobuf/src/google/protobuf/arena.h"
  },
  {
   "alignment" : 4,
   "linker_set_key" : "_ZTIPKN6google8protobuf5streqE",
   "name" : "const google::protobuf::streq *",
   "referenced_type" : "_ZTIKN6google8protobuf5streqE",
   "self_type" : "_ZTIPKN6google8protobuf5streqE",
   "size" : 4,
   "source_file" : "external/protobuf/src/google/protobuf/stubs/hash.h"
  },
  {
   "alignment" : 4,
   "linker_set_key" : "_ZTIPKN6google8protobuf7strings8AlphaNumE",
   "name" : "const google::protobuf::strings::AlphaNum *",
   "referenced_type" : "_ZTIKN6google8protobuf7strings8AlphaNumE",
   "self_type" : "_ZTIPKN6google8protobuf7strings8AlphaNumE",
   "size" : 4,
   "source_file" : "external/protobuf/src/google/protobuf/stubs/strutil.h"
  },
  {
   "alignment" : 4,
   "linker_set_key" : "_ZTIPKN6google8protobuf8internal10CachedSizeE",
   "name" : "const google::protobuf::internal::CachedSize *",
   "referenced_type" : "_ZTIKN6google8protobuf8internal10CachedSizeE",
   "self_type" : "_ZTIPKN6google8protobuf8internal10CachedSizeE",
   "size" : 4,
   "source_file" : "external/protobuf/src/google/protobuf/generated_message_util.h"
  },
  {
   "alignment" : 4,
   "linker_set_key" : "_ZTIPKN6google8protobuf8internal12ParseContextE",
   "name" : "const google::protobuf::internal::ParseContext *",
   "referenced_type" : "_ZTIKN6google8protobuf8internal12ParseContextE",
   "self_type" : "_ZTIPKN6google8protobuf8internal12ParseContextE",
   "size" : 4,
   "source_file" : "external/protobuf/src/google/protobuf/parse_context.h"
  },
  {
   "alignment" : 4,
   "linker_set_key" : "_ZTIPKN6google8protobuf8internal14ArenaStringPtrE",
   "name" : "const google::protobuf::internal::ArenaStringPtr *",
   "referenced_type" : "_ZTIKN6google8protobuf8internal14ArenaStringPtrE",
   "self_type" : "_ZTIPKN6google8protobuf8internal14ArenaStringPtrE",
   "size" : 4,
   "source_file" : "external/protobuf/src/google/protobuf/arenastring.h"
  },
  {
   "alignment" : 4,
   "linker_set_key" : "_ZTIPKN6google8protobuf8internal14StringPiecePodE",
   "name" : "const google::protobuf::internal::StringPiecePod *",
   "referenced_type" : "_ZTIKN6google8protobuf8internal14StringPiecePodE",
   "self_type" : "_ZTIPKN6google8protobuf8internal14StringPiecePodE",
   "size" : 4,
   "source_file" : "external/protobuf/src/google/protobuf/stubs/stringpiece.h"
  },
  {
   "alignment" : 4,
   "linker_set_key" : "_ZTIPKN6google8protobuf8internal18EpsCopyInputStreamE",
   "name" : "const google::protobuf::internal::EpsCopyInputStream *",
   "referenced_type" : "_ZTIKN6google8protobuf8internal18EpsCopyInputStreamE",
   "self_type" : "_ZTIPKN6google8protobuf8internal18EpsCopyInputStreamE",
   "size" : 4,
   "source_file" : "external/protobuf/src/google/protobuf/parse_context.h"
  },
  {
   "alignment" : 4,
   "linker_set_key" : "_ZTIPKN6google8protobuf8internal19ImplicitWeakMessageE",
   "name" : "const google::protobuf::internal::ImplicitWeakMessage *",
   "referenced_type" : "_ZTIKN6google8protobuf8internal19ImplicitWeakMessageE",
   "self_type" : "_ZTIPKN6google8protobuf8internal19ImplicitWeakMessageE",
   "size" : 4,
   "source_file" : "external/protobuf/src/google/protobuf/implicit_weak_message.h"
  },
  {
   "alignment" : 4,
   "linker_set_key" : "_ZTIPKN6google8protobuf8internal20RepeatedPtrFieldBaseE",
   "name" : "const google::protobuf::internal::RepeatedPtrFieldBase *",
   "referenced_type" : "_ZTIKN6google8protobuf8internal20RepeatedPtrFieldBaseE",
   "self_type" : "_ZTIPKN6google8protobuf8internal20RepeatedPtrFieldBaseE",
   "size" : 4,
   "source_file" : "external/protobuf/src/google/protobuf/repeated_field.h"
  },
  {
   "alignment" : 4,
   "linker_set_key" : "_ZTIPKN6google8protobuf8internal21ExplicitlyConstructedINS1_19ImplicitWeakMessageEEE",
   "name" : "const google::protobuf::internal::ExplicitlyConstructed<google::protobuf::internal::ImplicitWeakMessage> *",
   "referenced_type" : "_ZTIKN6google8protobuf8internal21ExplicitlyConstructedINS1_19ImplicitWeakMessageEEE",
   "self_type" : "_ZTIPKN6google8protobuf8internal21ExplicitlyConstructedINS1_19ImplicitWeakMessageEEE",
   "size" : 4,
   "source_file" : "external/protobuf/src/google/protobuf/message_lite.h"
  },
  {
   "alignment" : 4,
   "linker_set_key" : "_ZTIPKN6google8protobuf8internal21ExplicitlyConstructedINSt3__112basic_stringIcNS3_11char_traitsIcEENS3_9allocatorIcEEEEEE",
   "name" : "const google::protobuf::internal::ExplicitlyConstructed<std::basic_string<char, std::char_traits<char>, std::allocator<char>>> *",
   "referenced_type" : "_ZTIKN6google8protobuf8internal21ExplicitlyConstructedINSt3__112basic_stringIcNS3_11char_traitsIcEENS3_9allocatorIcEEEEEE",
   "self_type" : "_ZTIPKN6google8protobuf8internal21ExplicitlyConstructedINSt3__112basic_stringIcNS3_11char_traitsIcEENS3_9allocatorIcEEEEEE",
   "size" : 4,
   "source_file" : "external/protobuf/src/google/protobuf/message_lite.h"
  },
  {
   "alignment" : 4,
   "linker_set_key" : "_ZTIPKN6google8protobuf8internal29InternalMetadataWithArenaBaseINSt3__112basic_stringIcNS3_11char_traitsIcEENS3_9allocatorIcEEEENS1_29InternalMetadataWithArenaLiteEEE",
   "name" : "const google::protobuf::internal::InternalMetadataWithArenaBase<std::basic_string<char, std::char_traits<char>, std::allocator<char>>, google::protobuf::internal::InternalMetadataWithArenaLite> *",
   "referenced_type" : "_ZTIKN6google8protobuf8internal29InternalMetadataWithArenaBaseINSt3__112basic_stringIcNS3_11char_traitsIcEENS3_9allocatorIcEEEENS1_29InternalMetadataWithArenaLiteEEE",
   "self_type" : "_ZTIPKN6google8protobuf8internal29InternalMetadataWithArenaBaseINSt3__112basic_stringIcNS3_11char_traitsIcEENS3_9allocatorIcEEEENS1_29InternalMetadataWithArenaLiteEEE",
   "size" : 4,
   "source_file" : "external/protobuf/src/google/protobuf/metadata_lite.h"
  },
  {
   "alignment" : 4,
   "linker_set_key" : "_ZTIPKN6google8protobuf8internal7HasBitsILj1EEE",
   "name" : "const google::protobuf::internal::HasBits<1> *",
   "referenced_type" : "_ZTIKN6google8protobuf8internal7HasBitsILj1EEE",
   "self_type" : "_ZTIPKN6google8protobuf8internal7HasBitsILj1EEE",
   "size" : 4,
   "source_file" : "external/protobuf/src/google/protobuf/has_bits.h"
  },
  {
   "alignment" : 4,
   "linker_set_key" : "_ZTIPKN6google8protobuf8internal7HasBitsILj2EEE",
   "name" : "const google::protobuf::internal::HasBits<2> *",
   "referenced_type" : "_ZTIKN6google8protobuf8internal7HasBitsILj2EEE",
   "self_type" : "_ZTIPKN6google8protobuf8internal7HasBitsILj2EEE",
   "size" : 4,
   "source_file" : "external/protobuf/src/google/protobuf/has_bits.h"
  },
  {
   "alignment" : 4,
   "linker_set_key" : "_ZTIPKN6google8protobuf8internal7HasBitsILj3EEE",
   "name" : "const google::protobuf::internal::HasBits<3> *",
   "referenced_type" : "_ZTIKN6google8protobuf8internal7HasBitsILj3EEE",
   "self_type" : "_ZTIPKN6google8protobuf8internal7HasBitsILj3EEE",
   "size" : 4,
   "source_file" : "external/protobuf/src/google/protobuf/has_bits.h"
  },
  {
   "alignment" : 4,
   "linker_set_key" : "_ZTIPKN6google8protobuf8internal7HasBitsILj4EEE",
   "name" : "const google::protobuf::internal::HasBits<4> *",
   "referenced_type" : "_ZTIKN6google8protobuf8internal7HasBitsILj4EEE",
   "self_type" : "_ZTIPKN6google8protobuf8internal7HasBitsILj4EEE",
   "size" : 4,
   "source_file" : "external/protobuf/src/google/protobuf/has_bits.h"
  },
  {
   "alignment" : 4,
   "linker_set_key" : "_ZTIPKN6google8protobuf8internal9ArenaImpl11SerialArenaE",
   "name" : "const google::protobuf::internal::ArenaImpl::SerialArena *",
   "referenced_type" : "_ZTIKN6google8protobuf8internal9ArenaImpl11SerialArenaE",
   "self_type" : "_ZTIPKN6google8protobuf8internal9ArenaImpl11SerialArenaE",
   "size" : 4,
   "source_file" : "external/protobuf/src/google/protobuf/arena_impl.h"
  },
  {
   "alignment" : 4,
   "linker_set_key" : "_ZTIPKN6google8protobuf8internal9ArenaImpl5BlockE",
   "name" : "const google::protobuf::internal::ArenaImpl::Block *",
   "referenced_type" : "_ZTIKN6google8protobuf8internal9ArenaImpl5BlockE",
   "self_type" : "_ZTIPKN6google8protobuf8internal9ArenaImpl5BlockE",
   "size" : 4,
   "source_file" : "external/protobuf/src/google/protobuf/arena_impl.h"
  },
  {
   "alignment" : 4,
   "linker_set_key" : "_ZTIPKN6google8protobuf8internal9TaggedPtrINSt3__112basic_stringIcNS3_11char_traitsIcEENS3_9allocatorIcEEEEEE",
   "name" : "const google::protobuf::internal::TaggedPtr<std::basic_string<char, std::char_traits<char>, std::allocator<char>>> *",
   "referenced_type" : "_ZTIKN6google8protobuf8internal9TaggedPtrINSt3__112basic_stringIcNS3_11char_traitsIcEENS3_9allocatorIcEEEEEE",
   "self_type" : "_ZTIPKN6google8protobuf8internal9TaggedPtrINSt3__112basic_stringIcNS3_11char_traitsIcEENS3_9allocatorIcEEEEEE",
   "size" : 4,
   "source_file" : "external/protobuf/src/google/protobuf/arenastring.h"
  },
  {
   "alignment" : 4,
   "linker_set_key" : "_ZTIPKNSt3__112basic_stringIcNS_11char_traitsIcEENS_9allocatorIcEEEE",
   "name" : "const std::basic_string<char, std::char_traits<char>, std::allocator<char>> *",
   "referenced_type" : "_ZTIKNSt3__112basic_stringIcNS_11char_traitsIcEENS_9allocatorIcEEEE",
   "self_type" : "_ZTIPKNSt3__112basic_stringIcNS_11char_traitsIcEENS_9allocatorIcEEEE",
   "size" : 4,
   "source_file" : "external/protobuf/src/google/protobuf/arenastring.h"
  },
  {
   "alignment" : 4,
   "linker_set_key" : "_ZTIPKPv",
   "name" : "void *const *",
   "referenced_type" : "_ZTIKPv",
   "self_type" : "_ZTIPKPv",
   "size" : 4,
   "source_file" : "external/protobuf/src/google/protobuf/repeated_field.h"
  },
  {
   "alignment" : 4,
   "linker_set_key" : "_ZTIPKSt9type_info",
   "name" : "const std::type_info *",
   "referenced_type" : "_ZTIKSt9type_info",
   "self_type" : "_ZTIPKSt9type_info",
   "size" : 4,
   "source_file" : "external/protobuf/src/google/protobuf/arena.h"
  },
  {
   "alignment" : 4,
   "linker_set_key" : "_ZTIPKb",
   "name" : "const bool *",
   "referenced_type" : "_ZTIKb",
   "self_type" : "_ZTIPKb",
   "size" : 4,
   "source_file" : "external/protobuf/src/google/protobuf/repeated_field.h"
  },
  {
   "alignment" : 4,
   "linker_set_key" : "_ZTIPKc",
   "name" : "const char *",
   "referenced_type" : "_ZTIKc",
   "self_type" : "_ZTIPKc",
   "size" : 4,
   "source_file" : "external/protobuf/src/google/protobuf/stubs/logging.h"
  },
  {
   "alignment" : 4,
   "linker_set_key" : "_ZTIPKd",
   "name" : "const double *",
   "referenced_type" : "_ZTIKd",
   "self_type" : "_ZTIPKd",
   "size" : 4,
   "source_file" : "external/protobuf/src/google/protobuf/repeated_field.h"
  },
  {
   "alignment" : 4,
   "linker_set_key" : "_ZTIPKf",
   "name" : "const float *",
   "referenced_type" : "_ZTIKf",
   "self_type" : "_ZTIPKf",
   "size" : 4,
   "source_file" : "external/protobuf/src/google/protobuf/repeated_field.h"
  },
  {
   "alignment" : 4,
   "linker_set_key" : "_ZTIPKh",
   "name" : "const unsigned char *",
   "referenced_type" : "_ZTIKh",
   "self_type" : "_ZTIPKh",
   "size" : 4,
   "source_file" : "external/protobuf/src/google/protobuf/io/coded_stream.h"
  },
  {
   "alignment" : 4,
   "linker_set_key" : "_ZTIPKi",
   "name" : "const int *",
   "referenced_type" : "_ZTIKi",
   "self_type" : "_ZTIPKi",
   "size" : 4,
   "source_file" : "external/protobuf/src/google/protobuf/repeated_field.h"
  },
  {
   "alignment" : 4,
   "linker_set_key" : "_ZTIPKj",
   "name" : "const unsigned int *",
   "referenced_type" : "_ZTIKj",
   "self_type" : "_ZTIPKj",
   "size" : 4,
   "source_file" : "external/protobuf/src/google/protobuf/repeated_field.h"
  },
  {
   "alignment" : 4,
   "linker_set_key" : "_ZTIPKv",
   "name" : "const void *",
   "referenced_type" : "_ZTIKv",
   "self_type" : "_ZTIPKv",
   "size" : 4,
   "source_file" : "external/protobuf/src/google/protobuf/stubs/port.h"
  },
  {
   "alignment" : 4,
   "linker_set_key" : "_ZTIPKx",
   "name" : "const long long *",
   "referenced_type" : "_ZTIKx",
   "self_type" : "_ZTIPKx",
   "size" : 4,
   "source_file" : "external/protobuf/src/google/protobuf/repeated_field.h"
  },
  {
   "alignment" : 4,
   "linker_set_key" : "_ZTIPKy",
   "name" : "const unsigned long long *",
   "referenced_type" : "_ZTIKy",
   "self_type" : "_ZTIPKy",
   "size" : 4,
   "source_file" : "external/protobuf/src/google/protobuf/repeated_field.h"
  },
  {
   "alignment" : 4,
   "linker_set_key" : "_ZTIPN6google8protobuf11MessageLiteE",
   "name" : "google::protobuf::MessageLite *",
   "referenced_type" : "_ZTIN6google8protobuf11MessageLiteE",
   "self_type" : "_ZTIPN6google8protobuf11MessageLiteE",
   "size" : 4,
   "source_file" : "external/protobuf/src/google/protobuf/repeated_field.h"
  },
  {
   "alignment" : 4,
   "linker_set_key" : "_ZTIPN6google8protobuf11StringPieceE",
   "name" : "google::protobuf::StringPiece *",
   "referenced_type" : "_ZTIN6google8protobuf11StringPieceE",
   "self_type" : "_ZTIPN6google8protobuf11StringPieceE",
   "size" : 4,
   "source_file" : "external/protobuf/src/google/protobuf/stubs/stringpiece.h"
  },
  {
   "alignment" : 4,
   "linker_set_key" : "_ZTIPN6google8protobuf12ArenaOptionsE",
   "name" : "google::protobuf::ArenaOptions *",
   "referenced_type" : "_ZTIN6google8protobuf12ArenaOptionsE",
   "self_type" : "_ZTIPN6google8protobuf12ArenaOptionsE",
   "size" : 4,
   "source_file" : "external/protobuf/src/google/protobuf/arena.h"
  },
  {
   "alignment" : 4,
   "linker_set_key" : "_ZTIPN6google8protobuf13RepeatedFieldIdEE",
   "name" : "google::protobuf::RepeatedField<double> *",
   "referenced_type" : "_ZTIN6google8protobuf13RepeatedFieldIdEE",
   "self_type" : "_ZTIPN6google8protobuf13RepeatedFieldIdEE",
   "size" : 4,
   "source_file" : "external/protobuf/src/google/protobuf/repeated_field.h"
  },
  {
   "alignment" : 4,
   "linker_set_key" : "_ZTIPN6google8protobuf13RepeatedFieldIfEE",
   "name" : "google::protobuf::RepeatedField<float> *",
   "referenced_type" : "_ZTIN6google8protobuf13RepeatedFieldIfEE",
   "self_type" : "_ZTIPN6google8protobuf13RepeatedFieldIfEE",
   "size" : 4,
   "source_file" : "external/protobuf/src/google/protobuf/repeated_field.h"
  },
  {
   "alignment" : 4,
   "linker_set_key" : "_ZTIPN6google8protobuf13RepeatedFieldIiEE",
   "name" : "google::protobuf::RepeatedField<int32> *",
   "referenced_type" : "_ZTIN6google8protobuf13RepeatedFieldIiEE",
   "self_type" : "_ZTIPN6google8protobuf13RepeatedFieldIiEE",
   "size" : 4,
   "source_file" : "external/protobuf/src/google/protobuf/repeated_field.h"
  },
  {
   "alignment" : 4,
   "linker_set_key" : "_ZTIPN6google8protobuf13RepeatedFieldIjEE",
   "name" : "google::protobuf::RepeatedField<uint32> *",
   "referenced_type" : "_ZTIN6google8protobuf13RepeatedFieldIjEE",
   "self_type" : "_ZTIPN6google8protobuf13RepeatedFieldIjEE",
   "size" : 4,
   "source_file" : "external/protobuf/src/google/protobuf/repeated_field.h"
  },
  {
   "alignment" : 4,
   "linker_set_key" : "_ZTIPN6google8protobuf13RepeatedFieldIxEE",
   "name" : "google::protobuf::RepeatedField<int64> *",
   "referenced_type" : "_ZTIN6google8protobuf13RepeatedFieldIxEE",
   "self_type" : "_ZTIPN6google8protobuf13RepeatedFieldIxEE",
   "size" : 4,
   "source_file" : "external/protobuf/src/google/protobuf/repeated_field.h"
  },
  {
   "alignment" : 4,
   "linker_set_key" : "_ZTIPN6google8protobuf13RepeatedFieldIyEE",
   "name" : "google::protobuf::RepeatedField<uint64> *",
   "referenced_type" : "_ZTIN6google8protobuf13RepeatedFieldIyEE",
   "self_type" : "_ZTIPN6google8protobuf13RepeatedFieldIyEE",
   "size" : 4,
   "source_file" : "external/protobuf/src/google/protobuf/repeated_field.h"
  },
  {
   "alignment" : 4,
   "linker_set_key" : "_ZTIPN6google8protobuf14MessageFactoryE",
   "name" : "google::protobuf::MessageFactory *",
   "referenced_type" : "_ZTIN6google8protobuf14MessageFactoryE",
   "self_type" : "_ZTIPN6google8protobuf14MessageFactoryE",
   "size" : 4,
   "source_file" : "external/protobuf/src/google/protobuf/io/coded_stream.h"
  },
  {
   "alignment" : 4,
   "linker_set_key" : "_ZTIPN6google8protobuf2io16ArrayInputStreamE",
   "name" : "google::protobuf::io::ArrayInputStream *",
   "referenced_type" : "_ZTIN6google8protobuf2io16ArrayInputStreamE",
   "self_type" : "_ZTIPN6google8protobuf2io16ArrayInputStreamE",
   "size" : 4,
   "source_file" : "external/protobuf/src/google/protobuf/io/zero_copy_stream_impl_lite.h"
  },
  {
   "alignment" : 4,
   "linker_set_key" : "_ZTIPN6google8protobuf2io16CodedInputStreamE",
   "name" : "google::protobuf::io::CodedInputStream *",
   "referenced_type" : "_ZTIN6google8protobuf2io16CodedInputStreamE",
   "self_type" : "_ZTIPN6google8protobuf2io16CodedInputStreamE",
   "size" : 4,
   "source_file" : "external/protobuf/src/google/protobuf/io/coded_stream.h"
  },
  {
   "alignment" : 4,
   "linker_set_key" : "_ZTIPN6google8protobuf2io17ArrayOutputStreamE",
   "name" : "google::protobuf::io::ArrayOutputStream *",
   "referenced_type" : "_ZTIN6google8protobuf2io17ArrayOutputStreamE",
   "self_type" : "_ZTIPN6google8protobuf2io17ArrayOutputStreamE",
   "size" : 4,
   "source_file" : "external/protobuf/src/google/protobuf/io/zero_copy_stream_impl_lite.h"
  },
  {
   "alignment" : 4,
   "linker_set_key" : "_ZTIPN6google8protobuf2io17CodedOutputStreamE",
   "name" : "google::protobuf::io::CodedOutputStream *",
   "referenced_type" : "_ZTIN6google8protobuf2io17CodedOutputStreamE",
   "self_type" : "_ZTIPN6google8protobuf2io17CodedOutputStreamE",
   "size" : 4,
   "source_file" : "external/protobuf/src/google/protobuf/io/coded_stream.h"
  },
  {
   "alignment" : 4,
   "linker_set_key" : "_ZTIPN6google8protobuf2io18CopyingInputStreamE",
   "name" : "google::protobuf::io::CopyingInputStream *",
   "referenced_type" : "_ZTIN6google8protobuf2io18CopyingInputStreamE",
   "self_type" : "_ZTIPN6google8protobuf2io18CopyingInputStreamE",
   "size" : 4,
   "source_file" : "external/protobuf/src/google/protobuf/io/zero_copy_stream_impl_lite.h"
  },
  {
   "alignment" : 4,
   "linker_set_key" : "_ZTIPN6google8protobuf2io18StringOutputStreamE",
   "name" : "google::protobuf::io::StringOutputStream *",
   "referenced_type" : "_ZTIN6google8protobuf2io18StringOutputStreamE",
   "self_type" : "_ZTIPN6google8protobuf2io18StringOutputStreamE",
   "size" : 4,
   "source_file" : "external/protobuf/src/google/protobuf/io/zero_copy_stream_impl_lite.h"
  },
  {
   "alignment" : 4,
   "linker_set_key" : "_ZTIPN6google8protobuf2io19CopyingOutputStreamE",
   "name" : "google::protobuf::io::CopyingOutputStream *",
   "referenced_type" : "_ZTIN6google8protobuf2io19CopyingOutputStreamE",
   "self_type" : "_ZTIPN6google8protobuf2io19CopyingOutputStreamE",
   "size" : 4,
   "source_file" : "external/protobuf/src/google/protobuf/io/zero_copy_stream_impl_lite.h"
  },
  {
   "alignment" : 4,
   "linker_set_key" : "_ZTIPN6google8protobuf2io19ZeroCopyInputStreamE",
   "name" : "google::protobuf::io::ZeroCopyInputStream *",
   "referenced_type" : "_ZTIN6google8protobuf2io19ZeroCopyInputStreamE",
   "self_type" : "_ZTIPN6google8protobuf2io19ZeroCopyInputStreamE",
   "size" : 4,
   "source_file" : "external/protobuf/src/google/protobuf/io/coded_stream.h"
  },
  {
   "alignment" : 4,
   "linker_set_key" : "_ZTIPN6google8protobuf2io20ZeroCopyOutputStreamE",
   "name" : "google::protobuf::io::ZeroCopyOutputStream *",
   "referenced_type" : "_ZTIN6google8protobuf2io20ZeroCopyOutputStreamE",
   "self_type" : "_ZTIPN6google8protobuf2io20ZeroCopyOutputStreamE",
   "size" : 4,
   "source_file" : "external/protobuf/src/google/protobuf/io/coded_stream.h"
  },
  {
   "alignment" : 4,
   "linker_set_key" : "_ZTIPN6google8protobuf2io25CopyingInputStreamAdaptorE",
   "name" : "google::protobuf::io::CopyingInputStreamAdaptor *",
   "referenced_type" : "_ZTIN6google8protobuf2io25CopyingInputStreamAdaptorE",
   "self_type" : "_ZTIPN6google8protobuf2io25CopyingInputStreamAdaptorE",
   "size" : 4,
   "source_file" : "external/protobuf/src/google/protobuf/io/zero_copy_stream_impl_lite.h"
  },
  {
   "alignment" : 4,
   "linker_set_key" : "_ZTIPN6google8protobuf2io26CopyingOutputStreamAdaptorE",
   "name" : "google::protobuf::io::CopyingOutputStreamAdaptor *",
   "referenced_type" : "_ZTIN6google8protobuf2io26CopyingOutputStreamAdaptorE",
   "self_type" : "_ZTIPN6google8protobuf2io26CopyingOutputStreamAdaptorE",
   "size" : 4,
   "source_file" : "external/protobuf/src/google/protobuf/io/zero_copy_stream_impl_lite.h"
  },
  {
   "alignment" : 4,
   "linker_set_key" : "_ZTIPN6google8protobuf5ArenaE",
   "name" : "google::protobuf::Arena *",
   "referenced_type" : "_ZTIN6google8protobuf5ArenaE",
   "self_type" : "_ZTIPN6google8protobuf5ArenaE",
   "size" : 4,
   "source_file" : "external/protobuf/src/google/protobuf/repeated_field.h"
  },
  {
   "alignment" : 4,
   "linker_set_key" : "_ZTIPN6google8protobuf7ClosureE",
   "name" : "google::protobuf::Closure *",
   "referenced_type" : "_ZTIN6google8protobuf7ClosureE",
   "self_type" : "_ZTIPN6google8protobuf7ClosureE",
   "size" : 4,
   "source_file" : "external/protobuf/src/google/protobuf/stubs/callback.h"
  },
  {
   "alignment" : 4,
   "linker_set_key" : "_ZTIPN6google8protobuf7strings8AlphaNumE",
   "name" : "google::protobuf::strings::AlphaNum *",
   "referenced_type" : "_ZTIN6google8protobuf7strings8AlphaNumE",
   "self_type" : "_ZTIPN6google8protobuf7strings8AlphaNumE",
   "size" : 4,
   "source_file" : "external/protobuf/src/google/protobuf/stubs/strutil.h"
  },
  {
   "alignment" : 4,
   "linker_set_key" : "_ZTIPN6google8protobuf8internal10CachedSizeE",
   "name" : "google::protobuf::internal::CachedSize *",
   "referenced_type" : "_ZTIN6google8protobuf8internal10CachedSizeE",
   "self_type" : "_ZTIPN6google8protobuf8internal10CachedSizeE",
   "size" : 4,
   "source_file" : "external/protobuf/src/google/protobuf/generated_message_util.h"
  },
  {
   "alignment" : 4,
   "linker_set_key" : "_ZTIPN6google8protobuf8internal11SCCInfoBaseE",
   "name" : "google::protobuf::internal::SCCInfoBase *",
   "referenced_type" : "_ZTIN6google8protobuf8internal11SCCInfoBaseE",
   "self_type" : "_ZTIPN6google8protobuf8internal11SCCInfoBaseE",
   "size" : 4,
   "source_file" : "external/protobuf/src/google/protobuf/generated_message_util.h"
  },
  {
   "alignment" : 4,
   "linker_set_key" : "_ZTIPN6google8protobuf8internal12FieldSkipperE",
   "name" : "google::protobuf::internal::FieldSkipper *",
   "referenced_type" : "_ZTIN6google8protobuf8internal12FieldSkipperE",
   "self_type" : "_ZTIPN6google8protobuf8internal12FieldSkipperE",
   "size" : 4,
   "source_file" : "external/protobuf/src/google/protobuf/wire_format_lite.h"
  },
  {
   "alignment" : 4,
   "linker_set_key" : "_ZTIPN6google8protobuf8internal12ParseContextE",
   "name" : "google::protobuf::internal::ParseContext *",
   "referenced_type" : "_ZTIN6google8protobuf8internal12ParseContextE",
   "self_type" : "_ZTIPN6google8protobuf8internal12ParseContextE",
   "size" : 4,
   "source_file" : "external/protobuf/src/google/protobuf/parse_context.h"
  },
  {
   "alignment" : 4,
   "linker_set_key" : "_ZTIPN6google8protobuf8internal14ArenaStringPtrE",
   "name" : "google::protobuf::internal::ArenaStringPtr *",
   "referenced_type" : "_ZTIN6google8protobuf8internal14ArenaStringPtrE",
   "self_type" : "_ZTIPN6google8protobuf8internal14ArenaStringPtrE",
   "size" : 4,
   "source_file" : "external/protobuf/src/google/protobuf/arenastring.h"
  },
  {
   "alignment" : 4,
   "linker_set_key" : "_ZTIPN6google8protobuf8internal16FunctionClosure0E",
   "name" : "google::protobuf::internal::FunctionClosure0 *",
   "referenced_type" : "_ZTIN6google8protobuf8internal16FunctionClosure0E",
   "self_type" : "_ZTIPN6google8protobuf8internal16FunctionClosure0E",
   "size" : 4,
   "source_file" : "external/protobuf/src/google/protobuf/stubs/callback.h"
  },
  {
   "alignment" : 4,
   "linker_set_key" : "_ZTIPN6google8protobuf8internal18EpsCopyInputStreamE",
   "name" : "google::protobuf::internal::EpsCopyInputStream *",
   "referenced_type" : "_ZTIN6google8protobuf8internal18EpsCopyInputStreamE",
   "self_type" : "_ZTIPN6google8protobuf8internal18EpsCopyInputStreamE",
   "size" : 4,
   "source_file" : "external/protobuf/src/google/protobuf/parse_context.h"
  },
  {
   "alignment" : 4,
   "linker_set_key" : "_ZTIPN6google8protobuf8internal19ImplicitWeakMessageE",
   "name" : "google::protobuf::internal::ImplicitWeakMessage *",
   "referenced_type" : "_ZTIN6google8protobuf8internal19ImplicitWeakMessageE",
   "self_type" : "_ZTIPN6google8protobuf8internal19ImplicitWeakMessageE",
   "size" : 4,
   "source_file" : "external/protobuf/src/google/protobuf/arena.h"
  },
  {
   "alignment" : 4,
   "linker_set_key" : "_ZTIPN6google8protobuf8internal20RepeatedPtrFieldBase3RepE",
   "name" : "google::protobuf::internal::RepeatedPtrFieldBase::Rep *",
   "referenced_type" : "_ZTIN6google8protobuf8internal20RepeatedPtrFieldBase3RepE",
   "self_type" : "_ZTIPN6google8protobuf8internal20RepeatedPtrFieldBase3RepE",
   "size" : 4,
   "source_file" : "external/protobuf/src/google/protobuf/repeated_field.h"
  },
  {
   "alignment" : 4,
   "linker_set_key" : "_ZTIPN6google8protobuf8internal20RepeatedPtrFieldBaseE",
   "name" : "google::protobuf::internal::RepeatedPtrFieldBase *",
   "referenced_type" : "_ZTIN6google8protobuf8internal20RepeatedPtrFieldBaseE",
   "self_type" : "_ZTIPN6google8protobuf8internal20RepeatedPtrFieldBaseE",
   "size" : 4,
   "source_file" : "external/protobuf/src/google/protobuf/repeated_field.h"
  },
  {
   "alignment" : 4,
   "linker_set_key" : "_ZTIPN6google8protobuf8internal21ExplicitlyConstructedINS1_19ImplicitWeakMessageEEE",
   "name" : "google::protobuf::internal::ExplicitlyConstructed<google::protobuf::internal::ImplicitWeakMessage> *",
   "referenced_type" : "_ZTIN6google8protobuf8internal21ExplicitlyConstructedINS1_19ImplicitWeakMessageEEE",
   "self_type" : "_ZTIPN6google8protobuf8internal21ExplicitlyConstructedINS1_19ImplicitWeakMessageEEE",
   "size" : 4,
   "source_file" : "external/protobuf/src/google/protobuf/message_lite.h"
  },
  {
   "alignment" : 4,
   "linker_set_key" : "_ZTIPN6google8protobuf8internal22LiteUnknownFieldSetterE",
   "name" : "google::protobuf::internal::LiteUnknownFieldSetter *",
   "referenced_type" : "_ZTIN6google8protobuf8internal22LiteUnknownFieldSetterE",
   "self_type" : "_ZTIPN6google8protobuf8internal22LiteUnknownFieldSetterE",
   "size" : 4,
   "source_file" : "external/protobuf/src/google/protobuf/metadata_lite.h"
  },
  {
   "alignment" : 4,
   "linker_set_key" : "_ZTIPN6google8protobuf8internal29CodedOutputStreamFieldSkipperE",
   "name" : "google::protobuf::internal::CodedOutputStreamFieldSkipper *",
   "referenced_type" : "_ZTIN6google8protobuf8internal29CodedOutputStreamFieldSkipperE",
   "self_type" : "_ZTIPN6google8protobuf8internal29CodedOutputStreamFieldSkipperE",
   "size" : 4,
   "source_file" : "external/protobuf/src/google/protobuf/wire_format_lite.h"
  },
  {
   "alignment" : 4,
   "linker_set_key" : "_ZTIPN6google8protobuf8internal29InternalMetadataWithArenaBaseINSt3__112basic_stringIcNS3_11char_traitsIcEENS3_9allocatorIcEEEENS1_29InternalMetadataWithArenaLiteEE9ContainerE",
   "name" : "google::protobuf::internal::InternalMetadataWithArenaBase<basic_string<char>, InternalMetadataWithArenaLite>::Container *",
   "referenced_type" : "_ZTIN6google8protobuf8internal29InternalMetadataWithArenaBaseINSt3__112basic_stringIcNS3_11char_traitsIcEENS3_9allocatorIcEEEENS1_29InternalMetadataWithArenaLiteEE9ContainerE",
   "self_type" : "_ZTIPN6google8protobuf8internal29InternalMetadataWithArenaBaseINSt3__112basic_stringIcNS3_11char_traitsIcEENS3_9allocatorIcEEEENS1_29InternalMetadataWithArenaLiteEE9ContainerE",
   "size" : 4,
   "source_file" : "external/protobuf/src/google/protobuf/arena.h"
  },
  {
   "alignment" : 4,
   "linker_set_key" : "_ZTIPN6google8protobuf8internal29InternalMetadataWithArenaBaseINSt3__112basic_stringIcNS3_11char_traitsIcEENS3_9allocatorIcEEEENS1_29InternalMetadataWithArenaLiteEEE",
   "name" : "google::protobuf::internal::InternalMetadataWithArenaBase<std::basic_string<char, std::char_traits<char>, std::allocator<char>>, google::protobuf::internal::InternalMetadataWithArenaLite> *",
   "referenced_type" : "_ZTIN6google8protobuf8internal29InternalMetadataWithArenaBaseINSt3__112basic_stringIcNS3_11char_traitsIcEENS3_9allocatorIcEEEENS1_29InternalMetadataWithArenaLiteEEE",
   "self_type" : "_ZTIPN6google8protobuf8internal29InternalMetadataWithArenaBaseINSt3__112basic_stringIcNS3_11char_traitsIcEENS3_9allocatorIcEEEENS1_29InternalMetadataWithArenaLiteEEE",
   "size" : 4,
   "source_file" : "external/protobuf/src/google/protobuf/metadata_lite.h"
  },
  {
   "alignment" : 4,
   "linker_set_key" : "_ZTIPN6google8protobuf8internal29InternalMetadataWithArenaLiteE",
   "name" : "google::protobuf::internal::InternalMetadataWithArenaLite *",
   "referenced_type" : "_ZTIN6google8protobuf8internal29InternalMetadataWithArenaLiteE",
   "self_type" : "_ZTIPN6google8protobuf8internal29InternalMetadataWithArenaLiteE",
   "size" : 4,
   "source_file" : "external/protobuf/src/google/protobuf/metadata_lite.h"
  },
  {
   "alignment" : 4,
   "linker_set_key" : "_ZTIPN6google8protobuf8internal9ArenaImpl11CleanupNodeE",
   "name" : "google::protobuf::internal::ArenaImpl::CleanupNode *",
   "referenced_type" : "_ZTIN6google8protobuf8internal9ArenaImpl11CleanupNodeE",
   "self_type" : "_ZTIPN6google8protobuf8internal9ArenaImpl11CleanupNodeE",
   "size" : 4,
   "source_file" : "external/protobuf/src/google/protobuf/arena_impl.h"
  },
  {
   "alignment" : 4,
   "linker_set_key" : "_ZTIPN6google8protobuf8internal9ArenaImpl11SerialArenaE",
   "name" : "google::protobuf::internal::ArenaImpl::SerialArena *",
   "referenced_type" : "_ZTIN6google8protobuf8internal9ArenaImpl11SerialArenaE",
   "self_type" : "_ZTIPN6google8protobuf8internal9ArenaImpl11SerialArenaE",
   "size" : 4,
   "source_file" : "external/protobuf/src/google/protobuf/arena_impl.h"
  },
  {
   "alignment" : 4,
   "linker_set_key" : "_ZTIPN6google8protobuf8internal9ArenaImpl11ThreadCacheE",
   "name" : "google::protobuf::internal::ArenaImpl::ThreadCache *",
   "referenced_type" : "_ZTIN6google8protobuf8internal9ArenaImpl11ThreadCacheE",
   "self_type" : "_ZTIPN6google8protobuf8internal9ArenaImpl11ThreadCacheE",
   "size" : 4,
   "source_file" : "external/protobuf/src/google/protobuf/arena_impl.h"
  },
  {
   "alignment" : 4,
   "linker_set_key" : "_ZTIPN6google8protobuf8internal9ArenaImpl12CleanupChunkE",
   "name" : "google::protobuf::internal::ArenaImpl::CleanupChunk *",
   "referenced_type" : "_ZTIN6google8protobuf8internal9ArenaImpl12CleanupChunkE",
   "self_type" : "_ZTIPN6google8protobuf8internal9ArenaImpl12CleanupChunkE",
   "size" : 4,
   "source_file" : "external/protobuf/src/google/protobuf/arena_impl.h"
  },
  {
   "alignment" : 4,
   "linker_set_key" : "_ZTIPN6google8protobuf8internal9ArenaImpl5BlockE",
   "name" : "google::protobuf::internal::ArenaImpl::Block *",
   "referenced_type" : "_ZTIN6google8protobuf8internal9ArenaImpl5BlockE",
   "self_type" : "_ZTIPN6google8protobuf8internal9ArenaImpl5BlockE",
   "size" : 4,
   "source_file" : "external/protobuf/src/google/protobuf/arena_impl.h"
  },
  {
   "alignment" : 4,
   "linker_set_key" : "_ZTIPN6google8protobuf8internal9ArenaImpl7OptionsE",
   "name" : "google::protobuf::internal::ArenaImpl::Options *",
   "referenced_type" : "_ZTIN6google8protobuf8internal9ArenaImpl7OptionsE",
   "self_type" : "_ZTIPN6google8protobuf8internal9ArenaImpl7OptionsE",
   "size" : 4,
   "source_file" : "external/protobuf/src/google/protobuf/arena_impl.h"
  },
  {
   "alignment" : 4,
   "linker_set_key" : "_ZTIPN6google8protobuf8internal9ArenaImplE",
   "name" : "google::protobuf::internal::ArenaImpl *",
   "referenced_type" : "_ZTIN6google8protobuf8internal9ArenaImplE",
   "self_type" : "_ZTIPN6google8protobuf8internal9ArenaImplE",
   "size" : 4,
   "source_file" : "external/protobuf/src/google/protobuf/arena_impl.h"
  },
  {
   "alignment" : 4,
   "linker_set_key" : "_ZTIPNSt3__112basic_stringIcNS_11char_traitsIcEENS_9allocatorIcEEEE",
   "name" : "std::basic_string<char, std::char_traits<char>, std::allocator<char>> *",
   "referenced_type" : "_ZTINSt3__112basic_stringIcNS_11char_traitsIcEENS_9allocatorIcEEEE",
   "self_type" : "_ZTIPNSt3__112basic_stringIcNS_11char_traitsIcEENS_9allocatorIcEEEE",
   "size" : 4,
   "source_file" : "external/protobuf/src/google/protobuf/repeated_field.h"
  },
  {
   "alignment" : 4,
   "linker_set_key" : "_ZTIPPKc",
   "name" : "const char **",
   "referenced_type" : "_ZTIPKc",
   "self_type" : "_ZTIPPKc",
   "size" : 4,
   "source_file" : "external/protobuf/src/google/protobuf/parse_context.h"
  },
  {
   "alignment" : 4,
   "linker_set_key" : "_ZTIPPKv",
   "name" : "const void **",
   "referenced_type" : "_ZTIPKv",
   "self_type" : "_ZTIPPKv",
   "size" : 4,
   "source_file" : "external/protobuf/src/google/protobuf/io/coded_stream.h"
  },
  {
   "alignment" : 4,
   "linker_set_key" : "_ZTIPPNSt3__112basic_stringIcNS_11char_traitsIcEENS_9allocatorIcEEEE",
   "name" : "std::basic_string<char, std::char_traits<char>, std::allocator<char>> **",
   "referenced_type" : "_ZTIPNSt3__112basic_stringIcNS_11char_traitsIcEENS_9allocatorIcEEEE",
   "self_type" : "_ZTIPPNSt3__112basic_stringIcNS_11char_traitsIcEENS_9allocatorIcEEEE",
   "size" : 4,
   "source_file" : "external/protobuf/src/google/protobuf/arenastring.h"
  },
  {
   "alignment" : 4,
   "linker_set_key" : "_ZTIPPc",
   "name" : "char **",
   "referenced_type" : "_ZTIPc",
   "self_type" : "_ZTIPPc",
   "size" : 4,
   "source_file" : "external/protobuf/src/google/protobuf/stubs/strutil.h"
  },
  {
   "alignment" : 4,
   "linker_set_key" : "_ZTIPPv",
   "name" : "void **",
   "referenced_type" : "_ZTIPv",
   "self_type" : "_ZTIPPv",
   "size" : 4,
   "source_file" : "external/protobuf/src/google/protobuf/repeated_field.h"
  },
  {
   "alignment" : 4,
   "linker_set_key" : "_ZTIPb",
   "name" : "bool *",
   "referenced_type" : "_ZTIb",
   "self_type" : "_ZTIPb",
   "size" : 4,
   "source_file" : "external/protobuf/src/google/protobuf/repeated_field.h"
  },
  {
   "alignment" : 4,
   "linker_set_key" : "_ZTIPc",
   "name" : "char *",
   "referenced_type" : "_ZTIc",
   "self_type" : "_ZTIPc",
   "size" : 4,
   "source_file" : "external/protobuf/src/google/protobuf/arena_impl.h"
  },
  {
   "alignment" : 4,
   "linker_set_key" : "_ZTIPd",
   "name" : "double *",
   "referenced_type" : "_ZTId",
   "self_type" : "_ZTIPd",
   "size" : 4,
   "source_file" : "external/protobuf/src/google/protobuf/stubs/strutil.h"
  },
  {
   "alignment" : 4,
   "linker_set_key" : "_ZTIPf",
   "name" : "float *",
   "referenced_type" : "_ZTIf",
   "self_type" : "_ZTIPf",
   "size" : 4,
   "source_file" : "external/protobuf/src/google/protobuf/stubs/strutil.h"
  },
  {
   "alignment" : 4,
   "linker_set_key" : "_ZTIPh",
   "name" : "unsigned char *",
   "referenced_type" : "_ZTIh",
   "self_type" : "_ZTIPh",
   "size" : 4,
   "source_file" : "external/protobuf/src/google/protobuf/io/coded_stream.h"
  },
  {
   "alignment" : 4,
   "linker_set_key" : "_ZTIPi",
   "name" : "int *",
   "referenced_type" : "_ZTIi",
   "self_type" : "_ZTIPi",
   "size" : 4,
   "source_file" : "external/protobuf/src/google/protobuf/io/coded_stream.h"
  },
  {
   "alignment" : 4,
   "linker_set_key" : "_ZTIPj",
   "name" : "unsigned int *",
   "referenced_type" : "_ZTIj",
   "self_type" : "_ZTIPj",
   "size" : 4,
   "source_file" : "external/protobuf/src/google/protobuf/io/coded_stream.h"
  },
  {
   "alignment" : 4,
   "linker_set_key" : "_ZTIPv",
   "name" : "void *",
   "referenced_type" : "_ZTIv",
   "self_type" : "_ZTIPv",
   "size" : 4,
   "source_file" : "external/protobuf/src/google/protobuf/stubs/port.h"
  },
  {
   "alignment" : 4,
   "linker_set_key" : "_ZTIPx",
   "name" : "long long *",
   "referenced_type" : "_ZTIx",
   "self_type" : "_ZTIPx",
   "size" : 4,
   "source_file" : "external/protobuf/src/google/protobuf/stubs/strutil.h"
  },
  {
   "alignment" : 4,
   "linker_set_key" : "_ZTIPy",
   "name" : "unsigned long long *",
   "referenced_type" : "_ZTIy",
   "self_type" : "_ZTIPy",
   "size" : 4,
   "source_file" : "external/protobuf/src/google/protobuf/io/coded_stream.h"
  }
 ],
 "qualified_types" :
 [
  {
   "is_const" : true,
   "linker_set_key" : "_ZTIA_KN6google8protobuf8internal14WireFormatLite7CppTypeE",
   "name" : "google::protobuf::internal::WireFormatLite::CppType const[]",
   "referenced_type" : "_ZTIA_N6google8protobuf8internal14WireFormatLite7CppTypeE",
   "self_type" : "_ZTIA_KN6google8protobuf8internal14WireFormatLite7CppTypeE",
   "source_file" : "external/protobuf/src/google/protobuf/wire_format_lite.h"
  },
  {
   "is_const" : true,
   "linker_set_key" : "_ZTIA_KN6google8protobuf8internal14WireFormatLite8WireTypeE",
   "name" : "google::protobuf::internal::WireFormatLite::WireType const[]",
   "referenced_type" : "_ZTIA_N6google8protobuf8internal14WireFormatLite8WireTypeE",
   "self_type" : "_ZTIA_KN6google8protobuf8internal14WireFormatLite8WireTypeE",
   "source_file" : "external/protobuf/src/google/protobuf/wire_format_lite.h"
  },
  {
   "alignment" : 4,
   "is_const" : true,
   "linker_set_key" : "_ZTIKN6google8protobuf11MessageLiteE",
   "name" : "const google::protobuf::MessageLite",
   "referenced_type" : "_ZTIN6google8protobuf11MessageLiteE",
   "self_type" : "_ZTIKN6google8protobuf11MessageLiteE",
   "size" : 4,
   "source_file" : "external/protobuf/src/google/protobuf/message_lite.h"
  },
  {
   "alignment" : 4,
   "is_const" : true,
   "linker_set_key" : "_ZTIKN6google8protobuf11StringPieceE",
   "name" : "const google::protobuf::StringPiece",
   "referenced_type" : "_ZTIN6google8protobuf11StringPieceE",
   "self_type" : "_ZTIKN6google8protobuf11StringPieceE",
   "size" : 8,
   "source_file" : "external/protobuf/src/google/protobuf/stubs/stringpiece.h"
  },
  {
   "alignment" : 4,
   "is_const" : true,
   "linker_set_key" : "_ZTIKN6google8protobuf12ArenaOptionsE",
   "name" : "const google::protobuf::ArenaOptions",
   "referenced_type" : "_ZTIN6google8protobuf12ArenaOptionsE",
   "self_type" : "_ZTIKN6google8protobuf12ArenaOptionsE",
   "size" : 40,
   "source_file" : "external/protobuf/src/google/protobuf/arena_impl.h"
  },
  {
   "alignment" : 4,
   "is_const" : true,
   "linker_set_key" : "_ZTIKN6google8protobuf13RepeatedFieldIbEE",
   "name" : "const google::protobuf::RepeatedField<bool>",
   "referenced_type" : "_ZTIN6google8protobuf13RepeatedFieldIbEE",
   "self_type" : "_ZTIKN6google8protobuf13RepeatedFieldIbEE",
   "size" : 12,
   "source_file" : "external/protobuf/src/google/protobuf/repeated_field.h"
  },
  {
   "alignment" : 4,
   "is_const" : true,
   "linker_set_key" : "_ZTIKN6google8protobuf13RepeatedFieldIdEE",
   "name" : "const google::protobuf::RepeatedField<double>",
   "referenced_type" : "_ZTIN6google8protobuf13RepeatedFieldIdEE",
   "self_type" : "_ZTIKN6google8protobuf13RepeatedFieldIdEE",
   "size" : 12,
   "source_file" : "external/protobuf/src/google/protobuf/repeated_field.h"
  },
  {
   "alignment" : 4,
   "is_const" : true,
   "linker_set_key" : "_ZTIKN6google8protobuf13RepeatedFieldIfEE",
   "name" : "const google::protobuf::RepeatedField<float>",
   "referenced_type" : "_ZTIN6google8protobuf13RepeatedFieldIfEE",
   "self_type" : "_ZTIKN6google8protobuf13RepeatedFieldIfEE",
   "size" : 12,
   "source_file" : "external/protobuf/src/google/protobuf/repeated_field.h"
  },
  {
   "alignment" : 4,
   "is_const" : true,
   "linker_set_key" : "_ZTIKN6google8protobuf13RepeatedFieldIiEE",
   "name" : "const google::protobuf::RepeatedField<int32>",
   "referenced_type" : "_ZTIN6google8protobuf13RepeatedFieldIiEE",
   "self_type" : "_ZTIKN6google8protobuf13RepeatedFieldIiEE",
   "size" : 12,
   "source_file" : "external/protobuf/src/google/protobuf/repeated_field.h"
  },
  {
   "alignment" : 4,
   "is_const" : true,
   "linker_set_key" : "_ZTIKN6google8protobuf13RepeatedFieldIjEE",
   "name" : "const google::protobuf::RepeatedField<uint32>",
   "referenced_type" : "_ZTIN6google8protobuf13RepeatedFieldIjEE",
   "self_type" : "_ZTIKN6google8protobuf13RepeatedFieldIjEE",
   "size" : 12,
   "source_file" : "external/protobuf/src/google/protobuf/repeated_field.h"
  },
  {
   "alignment" : 4,
   "is_const" : true,
   "linker_set_key" : "_ZTIKN6google8protobuf13RepeatedFieldIxEE",
   "name" : "const google::protobuf::RepeatedField<int64>",
   "referenced_type" : "_ZTIN6google8protobuf13RepeatedFieldIxEE",
   "self_type" : "_ZTIKN6google8protobuf13RepeatedFieldIxEE",
   "size" : 12,
   "source_file" : "external/protobuf/src/google/protobuf/repeated_field.h"
  },
  {
   "alignment" : 4,
   "is_const" : true,
   "linker_set_key" : "_ZTIKN6google8protobuf13RepeatedFieldIyEE",
   "name" : "const google::protobuf::RepeatedField<uint64>",
   "referenced_type" : "_ZTIN6google8protobuf13RepeatedFieldIyEE",
   "self_type" : "_ZTIKN6google8protobuf13RepeatedFieldIyEE",
   "size" : 12,
   "source_file" : "external/protobuf/src/google/protobuf/repeated_field.h"
  },
  {
   "is_const" : true,
   "linker_set_key" : "_ZTIKN6google8protobuf14DescriptorPoolE",
   "name" : "const google::protobuf::DescriptorPool",
   "referenced_type" : "_ZTIN6google8protobuf14DescriptorPoolE",
   "self_type" : "_ZTIKN6google8protobuf14DescriptorPoolE",
   "source_file" : "external/protobuf/src/google/protobuf/io/coded_stream.h"
  },
  {
   "alignment" : 4,
   "is_const" : true,
   "linker_set_key" : "_ZTIKN6google8protobuf2io16CodedInputStreamE",
   "name" : "const google::protobuf::io::CodedInputStream",
   "referenced_type" : "_ZTIN6google8protobuf2io16CodedInputStreamE",
   "self_type" : "_ZTIKN6google8protobuf2io16CodedInputStreamE",
   "size" : 56,
   "source_file" : "external/protobuf/src/google/protobuf/io/coded_stream.h"
  },
  {
   "alignment" : 4,
   "is_const" : true,
   "linker_set_key" : "_ZTIKN6google8protobuf2io17CodedOutputStreamE",
   "name" : "const google::protobuf::io::CodedOutputStream",
   "referenced_type" : "_ZTIN6google8protobuf2io17CodedOutputStreamE",
   "self_type" : "_ZTIKN6google8protobuf2io17CodedOutputStreamE",
   "size" : 20,
   "source_file" : "external/protobuf/src/google/protobuf/io/coded_stream.h"
  },
  {
   "alignment" : 4,
   "is_const" : true,
   "linker_set_key" : "_ZTIKN6google8protobuf2io20ZeroCopyOutputStreamE",
   "name" : "const google::protobuf::io::ZeroCopyOutputStream",
   "referenced_type" : "_ZTIN6google8protobuf2io20ZeroCopyOutputStreamE",
   "self_type" : "_ZTIKN6google8protobuf2io20ZeroCopyOutputStreamE",
   "size" : 4,
   "source_file" : "external/protobuf/src/google/protobuf/io/zero_copy_stream.h"
  },
  {
   "alignment" : 1,
   "is_const" : true,
   "linker_set_key" : "_ZTIKN6google8protobuf4hashINS0_11StringPieceEEE",
   "name" : "const google::protobuf::hash<google::protobuf::StringPiece>",
   "referenced_type" : "_ZTIN6google8protobuf4hashINS0_11StringPieceEEE",
   "self_type" : "_ZTIKN6google8protobuf4hashINS0_11StringPieceEEE",
   "size" : 1,
   "source_file" : "external/protobuf/src/google/protobuf/stubs/stringpiece.h"
  },
  {
   "alignment" : 1,
   "is_const" : true,
   "linker_set_key" : "_ZTIKN6google8protobuf4hashINSt3__112basic_stringIcNS2_11char_traitsIcEENS2_9allocatorIcEEEEEE",
   "name" : "const google::protobuf::hash<std::basic_string<char, std::char_traits<char>, std::allocator<char>>>",
   "referenced_type" : "_ZTIN6google8protobuf4hashINSt3__112basic_stringIcNS2_11char_traitsIcEENS2_9allocatorIcEEEEEE",
   "self_type" : "_ZTIKN6google8protobuf4hashINSt3__112basic_stringIcNS2_11char_traitsIcEENS2_9allocatorIcEEEEEE",
   "size" : 1,
   "source_file" : "external/protobuf/src/google/protobuf/stubs/hash.h"
  },
  {
   "alignment" : 1,
   "is_const" : true,
   "linker_set_key" : "_ZTIKN6google8protobuf4hashIPKcEE",
   "name" : "const google::protobuf::hash<const char *>",
   "referenced_type" : "_ZTIN6google8protobuf4hashIPKcEE",
   "self_type" : "_ZTIKN6google8protobuf4hashIPKcEE",
   "size" : 1,
   "source_file" : "external/protobuf/src/google/protobuf/stubs/hash.h"
  },
  {
   "alignment" : 1,
   "is_const" : true,
   "linker_set_key" : "_ZTIKN6google8protobuf4hashIbEE",
   "name" : "const google::protobuf::hash<bool>",
   "referenced_type" : "_ZTIN6google8protobuf4hashIbEE",
   "self_type" : "_ZTIKN6google8protobuf4hashIbEE",
   "size" : 1,
   "source_file" : "external/protobuf/src/google/protobuf/stubs/hash.h"
  },
  {
   "alignment" : 8,
   "is_const" : true,
   "linker_set_key" : "_ZTIKN6google8protobuf5ArenaE",
   "name" : "const google::protobuf::Arena",
   "referenced_type" : "_ZTIN6google8protobuf5ArenaE",
   "self_type" : "_ZTIKN6google8protobuf5ArenaE",
   "size" : 64,
   "source_file" : "external/protobuf/src/google/protobuf/arena.h"
  },
  {
   "alignment" : 1,
   "is_const" : true,
   "linker_set_key" : "_ZTIKN6google8protobuf5streqE",
   "name" : "const google::protobuf::streq",
   "referenced_type" : "_ZTIN6google8protobuf5streqE",
   "self_type" : "_ZTIKN6google8protobuf5streqE",
   "size" : 1,
   "source_file" : "external/protobuf/src/google/protobuf/stubs/hash.h"
  },
  {
   "alignment" : 4,
   "is_const" : true,
   "linker_set_key" : "_ZTIKN6google8protobuf7strings8AlphaNumE",
   "name" : "const google::protobuf::strings::AlphaNum",
   "referenced_type" : "_ZTIN6google8protobuf7strings8AlphaNumE",
   "self_type" : "_ZTIKN6google8protobuf7strings8AlphaNumE",
   "size" : 40,
   "source_file" : "external/protobuf/src/google/protobuf/stubs/strutil.h"
  },
  {
   "alignment" : 4,
   "is_const" : true,
   "linker_set_key" : "_ZTIKN6google8protobuf8internal10CachedSizeE",
   "name" : "const google::protobuf::internal::CachedSize",
   "referenced_type" : "_ZTIN6google8protobuf8internal10CachedSizeE",
   "self_type" : "_ZTIKN6google8protobuf8internal10CachedSizeE",
   "size" : 4,
   "source_file" : "external/protobuf/src/google/protobuf/generated_message_util.h"
  },
  {
   "alignment" : 4,
   "is_const" : true,
   "linker_set_key" : "_ZTIKN6google8protobuf8internal12ParseContext4DataE",
   "name" : "const google::protobuf::internal::ParseContext::Data",
   "referenced_type" : "_ZTIN6google8protobuf8internal12ParseContext4DataE",
   "self_type" : "_ZTIKN6google8protobuf8internal12ParseContext4DataE",
   "size" : 8,
   "source_file" : "external/protobuf/src/google/protobuf/parse_context.h"
  },
  {
   "alignment" : 4,
   "is_const" : true,
   "linker_set_key" : "_ZTIKN6google8protobuf8internal12ParseContextE",
   "name" : "const google::protobuf::internal::ParseContext",
   "referenced_type" : "_ZTIN6google8protobuf8internal12ParseContextE",
   "self_type" : "_ZTIKN6google8protobuf8internal12ParseContextE",
   "size" : 84,
   "source_file" : "external/protobuf/src/google/protobuf/parse_context.h"
  },
  {
   "alignment" : 4,
   "is_const" : true,
   "linker_set_key" : "_ZTIKN6google8protobuf8internal14ArenaStringPtrE",
   "name" : "const google::protobuf::internal::ArenaStringPtr",
   "referenced_type" : "_ZTIN6google8protobuf8internal14ArenaStringPtrE",
   "self_type" : "_ZTIKN6google8protobuf8internal14ArenaStringPtrE",
   "size" : 4,
   "source_file" : "external/protobuf/src/google/protobuf/arenastring.h"
  },
  {
   "alignment" : 4,
   "is_const" : true,
   "linker_set_key" : "_ZTIKN6google8protobuf8internal14StringPiecePodE",
   "name" : "const google::protobuf::internal::StringPiecePod",
   "referenced_type" : "_ZTIN6google8protobuf8internal14StringPiecePodE",
   "self_type" : "_ZTIKN6google8protobuf8internal14StringPiecePodE",
   "size" : 8,
   "source_file" : "external/protobuf/src/google/protobuf/stubs/stringpiece.h"
  },
  {
   "alignment" : 4,
   "is_const" : true,
   "linker_set_key" : "_ZTIKN6google8protobuf8internal18EpsCopyInputStreamE",
   "name" : "const google::protobuf::internal::EpsCopyInputStream",
   "referenced_type" : "_ZTIN6google8protobuf8internal18EpsCopyInputStreamE",
   "self_type" : "_ZTIKN6google8protobuf8internal18EpsCopyInputStreamE",
   "size" : 68,
   "source_file" : "external/protobuf/src/google/protobuf/parse_context.h"
  },
  {
   "alignment" : 4,
   "is_const" : true,
   "linker_set_key" : "_ZTIKN6google8protobuf8internal19ImplicitWeakMessageE",
   "name" : "const google::protobuf::internal::ImplicitWeakMessage",
   "referenced_type" : "_ZTIN6google8protobuf8internal19ImplicitWeakMessageE",
   "self_type" : "_ZTIKN6google8protobuf8internal19ImplicitWeakMessageE",
   "size" : 20,
   "source_file" : "external/protobuf/src/google/protobuf/message_lite.h"
  },
  {
   "alignment" : 4,
   "is_const" : true,
   "linker_set_key" : "_ZTIKN6google8protobuf8internal20RepeatedPtrFieldBaseE",
   "name" : "const google::protobuf::internal::RepeatedPtrFieldBase",
   "referenced_type" : "_ZTIN6google8protobuf8internal20RepeatedPtrFieldBaseE",
   "self_type" : "_ZTIKN6google8protobuf8internal20RepeatedPtrFieldBaseE",
   "size" : 16,
   "source_file" : "external/protobuf/src/google/protobuf/repeated_field.h"
  },
  {
   "alignment" : 8,
   "is_const" : true,
   "linker_set_key" : "_ZTIKN6google8protobuf8internal21ExplicitlyConstructedINS1_19ImplicitWeakMessageEEE",
   "name" : "const google::protobuf::internal::ExplicitlyConstructed<google::protobuf::internal::ImplicitWeakMessage>",
   "referenced_type" : "_ZTIN6google8protobuf8internal21ExplicitlyConstructedINS1_19ImplicitWeakMessageEEE",
   "self_type" : "_ZTIKN6google8protobuf8internal21ExplicitlyConstructedINS1_19ImplicitWeakMessageEEE",
   "size" : 24,
   "source_file" : "external/protobuf/src/google/protobuf/message_lite.h"
  },
  {
   "alignment" : 8,
   "is_const" : true,
   "linker_set_key" : "_ZTIKN6google8protobuf8internal21ExplicitlyConstructedINSt3__112basic_stringIcNS3_11char_traitsIcEENS3_9allocatorIcEEEEEE",
   "name" : "const google::protobuf::internal::ExplicitlyConstructed<std::basic_string<char, std::char_traits<char>, std::allocator<char>>>",
   "referenced_type" : "_ZTIN6google8protobuf8internal21ExplicitlyConstructedINSt3__112basic_stringIcNS3_11char_traitsIcEENS3_9allocatorIcEEEEEE",
   "self_type" : "_ZTIKN6google8protobuf8internal21ExplicitlyConstructedINSt3__112basic_stringIcNS3_11char_traitsIcEENS3_9allocatorIcEEEEEE",
   "size" : 16,
   "source_file" : "external/protobuf/src/google/protobuf/message_lite.h"
  },
  {
   "alignment" : 4,
   "is_const" : true,
   "linker_set_key" : "_ZTIKN6google8protobuf8internal29InternalMetadataWithArenaBaseINSt3__112basic_stringIcNS3_11char_traitsIcEENS3_9allocatorIcEEEENS1_29InternalMetadataWithArenaLiteEEE",
   "name" : "const google::protobuf::internal::InternalMetadataWithArenaBase<std::basic_string<char, std::char_traits<char>, std::allocator<char>>, google::protobuf::internal::InternalMetadataWithArenaLite>",
   "referenced_type" : "_ZTIN6google8protobuf8internal29InternalMetadataWithArenaBaseINSt3__112basic_stringIcNS3_11char_traitsIcEENS3_9allocatorIcEEEENS1_29InternalMetadataWithArenaLiteEEE",
   "self_type" : "_ZTIKN6google8protobuf8internal29InternalMetadataWithArenaBaseINSt3__112basic_stringIcNS3_11char_traitsIcEENS3_9allocatorIcEEEENS1_29InternalMetadataWithArenaLiteEEE",
   "size" : 4,
   "source_file" : "external/protobuf/src/google/protobuf/metadata_lite.h"
  },
  {
   "alignment" : 4,
   "is_const" : true,
   "linker_set_key" : "_ZTIKN6google8protobuf8internal7HasBitsILj1EEE",
   "name" : "const google::protobuf::internal::HasBits<1>",
   "referenced_type" : "_ZTIN6google8protobuf8internal7HasBitsILj1EEE",
   "self_type" : "_ZTIKN6google8protobuf8internal7HasBitsILj1EEE",
   "size" : 4,
   "source_file" : "external/protobuf/src/google/protobuf/has_bits.h"
  },
  {
   "alignment" : 4,
   "is_const" : true,
   "linker_set_key" : "_ZTIKN6google8protobuf8internal7HasBitsILj2EEE",
   "name" : "const google::protobuf::internal::HasBits<2>",
   "referenced_type" : "_ZTIN6google8protobuf8internal7HasBitsILj2EEE",
   "self_type" : "_ZTIKN6google8protobuf8internal7HasBitsILj2EEE",
   "size" : 8,
   "source_file" : "external/protobuf/src/google/protobuf/has_bits.h"
  },
  {
   "alignment" : 4,
   "is_const" : true,
   "linker_set_key" : "_ZTIKN6google8protobuf8internal7HasBitsILj3EEE",
   "name" : "const google::protobuf::internal::HasBits<3>",
   "referenced_type" : "_ZTIN6google8protobuf8internal7HasBitsILj3EEE",
   "self_type" : "_ZTIKN6google8protobuf8internal7HasBitsILj3EEE",
   "size" : 12,
   "source_file" : "external/protobuf/src/google/protobuf/has_bits.h"
  },
  {
   "alignment" : 4,
   "is_const" : true,
   "linker_set_key" : "_ZTIKN6google8protobuf8internal7HasBitsILj4EEE",
   "name" : "const google::protobuf::internal::HasBits<4>",
   "referenced_type" : "_ZTIN6google8protobuf8internal7HasBitsILj4EEE",
   "self_type" : "_ZTIKN6google8protobuf8internal7HasBitsILj4EEE",
   "size" : 16,
   "source_file" : "external/protobuf/src/google/protobuf/has_bits.h"
  },
  {
   "alignment" : 4,
   "is_const" : true,
   "linker_set_key" : "_ZTIKN6google8protobuf8internal9ArenaImpl11SerialArenaE",
   "name" : "const google::protobuf::internal::ArenaImpl::SerialArena",
   "referenced_type" : "_ZTIN6google8protobuf8internal9ArenaImpl11SerialArenaE",
   "self_type" : "_ZTIKN6google8protobuf8internal9ArenaImpl11SerialArenaE",
   "size" : 36,
   "source_file" : "external/protobuf/src/google/protobuf/arena_impl.h"
  },
  {
   "alignment" : 4,
   "is_const" : true,
   "linker_set_key" : "_ZTIKN6google8protobuf8internal9ArenaImpl5BlockE",
   "name" : "const google::protobuf::internal::ArenaImpl::Block",
   "referenced_type" : "_ZTIN6google8protobuf8internal9ArenaImpl5BlockE",
   "self_type" : "_ZTIKN6google8protobuf8internal9ArenaImpl5BlockE",
   "size" : 12,
   "source_file" : "external/protobuf/src/google/protobuf/arena_impl.h"
  },
  {
   "alignment" : 4,
   "is_const" : true,
   "linker_set_key" : "_ZTIKN6google8protobuf8internal9TaggedPtrINSt3__112basic_stringIcNS3_11char_traitsIcEENS3_9allocatorIcEEEEEE",
   "name" : "const google::protobuf::internal::TaggedPtr<std::basic_string<char, std::char_traits<char>, std::allocator<char>>>",
   "referenced_type" : "_ZTIN6google8protobuf8internal9TaggedPtrINSt3__112basic_stringIcNS3_11char_traitsIcEENS3_9allocatorIcEEEEEE",
   "self_type" : "_ZTIKN6google8protobuf8internal9TaggedPtrINSt3__112basic_stringIcNS3_11char_traitsIcEENS3_9allocatorIcEEEEEE",
   "size" : 4,
   "source_file" : "external/protobuf/src/google/protobuf/arenastring.h"
  },
  {
   "alignment" : 4,
   "is_const" : true,
   "linker_set_key" : "_ZTIKNSt3__112basic_stringIcNS_11char_traitsIcEENS_9allocatorIcEEEE",
   "name" : "const std::basic_string<char, std::char_traits<char>, std::allocator<char>>",
   "referenced_type" : "_ZTINSt3__112basic_stringIcNS_11char_traitsIcEENS_9allocatorIcEEEE",
   "self_type" : "_ZTIKNSt3__112basic_stringIcNS_11char_traitsIcEENS_9allocatorIcEEEE",
   "size" : 12,
   "source_file" : "external/protobuf/src/google/protobuf/stubs/common.h"
  },
  {
   "alignment" : 4,
   "is_const" : true,
   "linker_set_key" : "_ZTIKNSt3__16vectorINS_12basic_stringIcNS_11char_traitsIcEENS_9allocatorIcEEEENS4_IS6_EEEE",
   "name" : "const std::vector<std::basic_string<char, std::char_traits<char>, std::allocator<char>>, std::allocator<std::basic_string<char, std::char_traits<char>, std::allocator<char>>>>",
   "referenced_type" : "_ZTINSt3__16vectorINS_12basic_stringIcNS_11char_traitsIcEENS_9allocatorIcEEEENS4_IS6_EEEE",
   "self_type" : "_ZTIKNSt3__16vectorINS_12basic_stringIcNS_11char_traitsIcEENS_9allocatorIcEEEENS4_IS6_EEEE",
   "size" : 12,
   "source_file" : "external/protobuf/src/google/protobuf/stubs/strutil.h"
  },
  {
   "alignment" : 4,
   "is_const" : true,
   "linker_set_key" : "_ZTIKPKh",
   "name" : "const unsigned char *const",
   "referenced_type" : "_ZTIPKh",
   "self_type" : "_ZTIKPKh",
   "size" : 4,
   "source_file" : "external/protobuf/src/google/protobuf/io/zero_copy_stream_impl_lite.h"
  },
  {
   "alignment" : 4,
   "is_const" : true,
   "linker_set_key" : "_ZTIKPN6google8protobuf5ArenaE",
   "name" : "google::protobuf::Arena *const",
   "referenced_type" : "_ZTIPN6google8protobuf5ArenaE",
   "self_type" : "_ZTIKPN6google8protobuf5ArenaE",
   "size" : 4,
   "source_file" : "external/protobuf/src/google/protobuf/implicit_weak_message.h"
  },
  {
   "alignment" : 4,
   "is_const" : true,
   "linker_set_key" : "_ZTIKPh",
   "name" : "unsigned char *const",
   "referenced_type" : "_ZTIPh",
   "self_type" : "_ZTIKPh",
   "size" : 4,
   "source_file" : "external/protobuf/src/google/protobuf/io/zero_copy_stream_impl_lite.h"
  },
  {
   "alignment" : 4,
   "is_const" : true,
   "linker_set_key" : "_ZTIKPv",
   "name" : "void *const",
   "referenced_type" : "_ZTIPv",
   "self_type" : "_ZTIKPv",
   "size" : 4,
   "source_file" : "external/protobuf/src/google/protobuf/repeated_field.h"
  },
  {
   "alignment" : 4,
   "is_const" : true,
   "linker_set_key" : "_ZTIKSt9type_info",
   "name" : "const std::type_info",
   "referenced_type" : "_ZTISt9type_info",
   "self_type" : "_ZTIKSt9type_info",
   "size" : 8,
   "source_file" : "external/protobuf/src/google/protobuf/arena.h"
  },
  {
   "alignment" : 1,
   "is_const" : true,
   "linker_set_key" : "_ZTIKb",
   "name" : "const bool",
   "referenced_type" : "_ZTIb",
   "self_type" : "_ZTIKb",
   "size" : 1,
   "source_file" : "external/protobuf/src/google/protobuf/implicit_weak_message.h"
  },
  {
   "alignment" : 1,
   "is_const" : true,
   "linker_set_key" : "_ZTIKc",
   "name" : "const char",
   "referenced_type" : "_ZTIc",
   "self_type" : "_ZTIKc",
   "size" : 1,
   "source_file" : "external/protobuf/src/google/protobuf/stubs/logging.h"
  },
  {
   "alignment" : 8,
   "is_const" : true,
   "linker_set_key" : "_ZTIKd",
   "name" : "const double",
   "referenced_type" : "_ZTId",
   "self_type" : "_ZTIKd",
   "size" : 8,
   "source_file" : "external/protobuf/src/google/protobuf/repeated_field.h"
  },
  {
   "alignment" : 4,
   "is_const" : true,
   "linker_set_key" : "_ZTIKf",
   "name" : "const float",
   "referenced_type" : "_ZTIf",
   "self_type" : "_ZTIKf",
   "size" : 4,
   "source_file" : "external/protobuf/src/google/protobuf/repeated_field.h"
  },
  {
   "alignment" : 1,
   "is_const" : true,
   "linker_set_key" : "_ZTIKh",
   "name" : "const unsigned char",
   "referenced_type" : "_ZTIh",
   "self_type" : "_ZTIKh",
   "size" : 1,
   "source_file" : "external/protobuf/src/google/protobuf/io/coded_stream.h"
  },
  {
   "alignment" : 4,
   "is_const" : true,
   "linker_set_key" : "_ZTIKi",
   "name" : "const int",
   "referenced_type" : "_ZTIi",
   "self_type" : "_ZTIKi",
   "size" : 4,
   "source_file" : "external/protobuf/src/google/protobuf/stubs/port.h"
  },
  {
   "alignment" : 4,
   "is_const" : true,
   "linker_set_key" : "_ZTIKj",
   "name" : "const unsigned int",
   "referenced_type" : "_ZTIj",
   "self_type" : "_ZTIKj",
   "size" : 4,
   "source_file" : "external/protobuf/src/google/protobuf/stubs/port.h"
  },
  {
   "is_const" : true,
   "linker_set_key" : "_ZTIKv",
   "name" : "const void",
   "referenced_type" : "_ZTIv",
   "self_type" : "_ZTIKv",
   "source_file" : "external/protobuf/src/google/protobuf/stubs/port.h"
  },
  {
   "alignment" : 8,
   "is_const" : true,
   "linker_set_key" : "_ZTIKx",
   "name" : "const long long",
   "referenced_type" : "_ZTIx",
   "self_type" : "_ZTIKx",
   "size" : 8,
   "source_file" : "external/protobuf/src/google/protobuf/stubs/port.h"
  },
  {
   "alignment" : 8,
   "is_const" : true,
   "linker_set_key" : "_ZTIKy",
   "name" : "const unsigned long long",
   "referenced_type" : "_ZTIy",
   "self_type" : "_ZTIKy",
   "size" : 8,
   "source_file" : "external/protobuf/src/google/protobuf/stubs/port.h"
  }
 ],
 "record_types" :
 [
  {
   "alignment" : 1,
   "linker_set_key" : "_ZTIN6google8protobuf11LogSilencerE",
   "name" : "google::protobuf::LogSilencer",
   "record_kind" : "class",
   "referenced_type" : "_ZTIN6google8protobuf11LogSilencerE",
   "self_type" : "_ZTIN6google8protobuf11LogSilencerE",
   "size" : 1,
   "source_file" : "external/protobuf/src/google/protobuf/stubs/logging.h"
  },
  {
   "alignment" : 4,
   "linker_set_key" : "_ZTIN6google8protobuf11MessageLiteE",
   "name" : "google::protobuf::MessageLite",
   "record_kind" : "class",
   "referenced_type" : "_ZTIN6google8protobuf11MessageLiteE",
   "self_type" : "_ZTIN6google8protobuf11MessageLiteE",
   "size" : 4,
   "source_file" : "external/protobuf/src/google/protobuf/message_lite.h",
   "vtable_components" :
   [
    {
     "kind" : "offset_to_top"
    },
    {
     "kind" : "rtti",
     "mangled_component_name" : "_ZTIN6google8protobuf11MessageLiteE"
    },
    {
     "kind" : "complete_dtor_pointer",
