{
 "array_types" :
 [
  {
   "alignment" : 4,
   "linker_set_key" : "_ZTIA10_i",
   "name" : "int [10]",
   "referenced_type" : "_ZTIi",
   "self_type" : "_ZTIA10_i",
   "size" : 40,
   "source_file" : "bionic/libc/include/bits/pthread_types.h"
  },
  {
   "alignment" : 1,
   "linker_set_key" : "_ZTIA120_c",
   "name" : "char [120]",
   "referenced_type" : "_ZTIc",
   "self_type" : "_ZTIA120_c",
   "size" : 120,
   "source_file" : "bionic/libc/include/sys/ucontext.h"
  },
  {
   "alignment" : 4,
   "linker_set_key" : "_ZTIA128_m",
   "name" : "unsigned long [128]",
   "referenced_type" : "_ZTIm",
   "self_type" : "_ZTIA128_m",
   "size" : 512,
   "source_file" : "bionic/libc/include/sys/ucontext.h"
  },
  {
   "alignment" : 4,
   "linker_set_key" : "_ZTIA13_i",
   "name" : "int [13]",
   "referenced_type" : "_ZTIi",
   "self_type" : "_ZTIA13_i",
   "size" : 52,
   "source_file" : "bionic/libc/kernel/uapi/asm-generic/siginfo.h"
  },
  {
   "alignment" : 4,
   "linker_set_key" : "_ZTIA18_m",
   "name" : "unsigned long [18]",
   "referenced_type" : "_ZTIm",
   "self_type" : "_ZTIA18_m",
   "size" : 72,
   "source_file" : "bionic/libc/include/sys/user.h"
  },
  {
   "alignment" : 4,
   "linker_set_key" : "_ZTIA1_i",
   "name" : "int [1]",
   "referenced_type" : "_ZTIi",
   "self_type" : "_ZTIA1_i",
   "size" : 4,
   "source_file" : "bionic/libc/include/bits/pthread_types.h"
  },
  {
   "alignment" : 1,
   "linker_set_key" : "_ZTIA2_c",
   "name" : "char [2]",
   "referenced_type" : "_ZTIc",
   "self_type" : "_ZTIA2_c",
   "size" : 2,
   "source_file" : "external/libcxx/include/type_traits"
  },
  {
   "alignment" : 4,
   "linker_set_key" : "_ZTIA2_i",
   "name" : "int [2]",
   "referenced_type" : "_ZTIi",
   "self_type" : "_ZTIA2_i",
   "size" : 8,
   "source_file" : "bionic/libc/kernel/uapi/asm-generic/posix_types.h"
  },
  {
   "alignment" : 4,
   "linker_set_key" : "_ZTIA2_m",
   "name" : "unsigned long [2]",
   "referenced_type" : "_ZTIm",
   "self_type" : "_ZTIA2_m",
   "size" : 8,
   "source_file" : "bionic/libc/include/bits/signal_types.h"
  },
  {
   "alignment" : 1,
   "linker_set_key" : "_ZTIA32_c",
   "name" : "char [32]",
   "referenced_type" : "_ZTIc",
   "self_type" : "_ZTIA32_c",
   "size" : 32,
   "source_file" : "bionic/libc/include/sys/user.h"
  },
  {
   "alignment" : 4,
   "linker_set_key" : "_ZTIA32_i",
   "name" : "int [32]",
   "referenced_type" : "_ZTIi",
   "self_type" : "_ZTIA32_i",
   "size" : 128,
   "source_file" : "bionic/libc/kernel/uapi/asm-generic/siginfo.h"
  },
  {
   "alignment" : 4,
   "linker_set_key" : "_ZTIA32_m",
   "name" : "unsigned long [32]",
   "referenced_type" : "_ZTIm",
   "self_type" : "_ZTIA32_m",
   "size" : 128,
   "source_file" : "bionic/libc/kernel/uapi/linux/posix_types.h"
  },
  {
   "alignment" : 8,
   "linker_set_key" : "_ZTIA32_y",
   "name" : "unsigned long long [32]",
   "referenced_type" : "_ZTIy",
   "self_type" : "_ZTIA32_y",
   "size" : 256,
   "source_file" : "bionic/libc/include/sys/user.h"
  },
  {
   "alignment" : 1,
   "linker_set_key" : "_ZTIA4_c",
   "name" : "char [4]",
   "referenced_type" : "_ZTIc",
   "self_type" : "_ZTIA4_c",
   "size" : 4,
   "source_file" : "bionic/libc/kernel/uapi/asm-generic/siginfo.h"
  },
  {
   "alignment" : 8,
   "linker_set_key" : "_ZTIA4_d",
   "name" : "double [4]",
   "referenced_type" : "_ZTId",
   "self_type" : "_ZTIA4_d",
   "size" : 32,
   "source_file" : "external/libcxx/include/type_traits"
  },
  {
   "alignment" : 4,
   "linker_set_key" : "_ZTIA65_PKc",
   "name" : "const char *[65]",
   "referenced_type" : "_ZTIPKc",
   "self_type" : "_ZTIA65_PKc",
   "size" : 260,
   "source_file" : "bionic/libc/include/signal.h"
  },
  {
   "alignment" : 4,
   "linker_set_key" : "_ZTIA8_N11user_fpregs6fp_regE",
   "name" : "user_fpregs::fp_reg [8]",
   "referenced_type" : "_ZTIN11user_fpregs6fp_regE",
   "self_type" : "_ZTIA8_N11user_fpregs6fp_regE",
   "size" : 96,
   "source_file" : "bionic/libc/include/sys/user.h"
  },
  {
   "alignment" : 1,
   "linker_set_key" : "_ZTIA8_h",
   "name" : "unsigned char [8]",
   "referenced_type" : "_ZTIh",
   "self_type" : "_ZTIA8_h",
   "size" : 8,
   "source_file" : "bionic/libc/include/sys/user.h"
  },
  {
   "alignment" : 4,
   "linker_set_key" : "_ZTIA8_i",
   "name" : "int [8]",
   "referenced_type" : "_ZTIi",
   "self_type" : "_ZTIA8_i",
   "size" : 32,
   "source_file" : "bionic/libc/include/bits/pthread_types.h"
  }
 ],
 "builtin_types" :
 [
  {
   "alignment" : 4,
   "is_integral" : true,
   "is_unsigned" : true,
   "linker_set_key" : "_ZTIDi",
   "name" : "char32_t",
   "referenced_type" : "_ZTIDi",
   "self_type" : "_ZTIDi",
   "size" : 4
  },
  {
   "alignment" : 4,
   "linker_set_key" : "_ZTIDn",
   "name" : "nullptr_t",
   "referenced_type" : "_ZTIDn",
   "self_type" : "_ZTIDn",
   "size" : 4
  },
  {
   "alignment" : 2,
   "is_integral" : true,
   "is_unsigned" : true,
   "linker_set_key" : "_ZTIDs",
   "name" : "char16_t",
   "referenced_type" : "_ZTIDs",
   "self_type" : "_ZTIDs",
   "size" : 2
  },
  {
   "alignment" : 1,
   "is_integral" : true,
   "is_unsigned" : true,
   "linker_set_key" : "_ZTIDu",
   "name" : "char8_t",
   "referenced_type" : "_ZTIDu",
   "self_type" : "_ZTIDu",
   "size" : 1
  },
  {
   "alignment" : 1,
   "is_integral" : true,
   "linker_set_key" : "_ZTIa",
   "name" : "signed char",
   "referenced_type" : "_ZTIa",
   "self_type" : "_ZTIa",
   "size" : 1
  },
  {
   "alignment" : 1,
   "is_integral" : true,
   "is_unsigned" : true,
   "linker_set_key" : "_ZTIb",
   "name" : "bool",
   "referenced_type" : "_ZTIb",
   "self_type" : "_ZTIb",
   "size" : 1
  },
  {
   "alignment" : 1,
   "is_integral" : true,
   "is_unsigned" : true,
   "linker_set_key" : "_ZTIc",
   "name" : "char",
   "referenced_type" : "_ZTIc",
   "self_type" : "_ZTIc",
   "size" : 1
  },
  {
   "alignment" : 8,
   "linker_set_key" : "_ZTId",
   "name" : "double",
   "referenced_type" : "_ZTId",
   "self_type" : "_ZTId",
   "size" : 8
  },
  {
   "alignment" : 8,
   "linker_set_key" : "_ZTIe",
   "name" : "long double",
   "referenced_type" : "_ZTIe",
   "self_type" : "_ZTIe",
   "size" : 8
  },
  {
   "alignment" : 4,
   "linker_set_key" : "_ZTIf",
   "name" : "float",
   "referenced_type" : "_ZTIf",
   "self_type" : "_ZTIf",
   "size" : 4
  },
  {
   "alignment" : 1,
   "is_integral" : true,
   "is_unsigned" : true,
   "linker_set_key" : "_ZTIh",
   "name" : "unsigned char",
   "referenced_type" : "_ZTIh",
   "self_type" : "_ZTIh",
   "size" : 1
  },
  {
   "alignment" : 4,
   "is_integral" : true,
   "linker_set_key" : "_ZTIi",
   "name" : "int",
   "referenced_type" : "_ZTIi",
   "self_type" : "_ZTIi",
   "size" : 4
  },
  {
   "alignment" : 4,
   "is_integral" : true,
   "is_unsigned" : true,
   "linker_set_key" : "_ZTIj",
   "name" : "unsigned int",
   "referenced_type" : "_ZTIj",
   "self_type" : "_ZTIj",
   "size" : 4
  },
  {
   "alignment" : 4,
   "is_integral" : true,
   "linker_set_key" : "_ZTIl",
   "name" : "long",
   "referenced_type" : "_ZTIl",
   "self_type" : "_ZTIl",
   "size" : 4
  },
  {
   "alignment" : 4,
   "is_integral" : true,
   "is_unsigned" : true,
   "linker_set_key" : "_ZTIm",
   "name" : "unsigned long",
   "referenced_type" : "_ZTIm",
   "self_type" : "_ZTIm",
   "size" : 4
  },
  {
   "alignment" : 2,
   "is_integral" : true,
   "linker_set_key" : "_ZTIs",
   "name" : "short",
   "referenced_type" : "_ZTIs",
   "self_type" : "_ZTIs",
   "size" : 2
  },
  {
   "alignment" : 2,
   "is_integral" : true,
   "is_unsigned" : true,
   "linker_set_key" : "_ZTIt",
   "name" : "unsigned short",
   "referenced_type" : "_ZTIt",
   "self_type" : "_ZTIt",
   "size" : 2
  },
  {
   "linker_set_key" : "_ZTIv",
   "name" : "void",
   "referenced_type" : "_ZTIv",
   "self_type" : "_ZTIv"
  },
  {
   "alignment" : 4,
   "is_integral" : true,
   "is_unsigned" : true,
   "linker_set_key" : "_ZTIw",
   "name" : "wchar_t",
   "referenced_type" : "_ZTIw",
   "self_type" : "_ZTIw",
   "size" : 4
  },
  {
   "alignment" : 8,
   "is_integral" : true,
   "linker_set_key" : "_ZTIx",
   "name" : "long long",
   "referenced_type" : "_ZTIx",
   "self_type" : "_ZTIx",
   "size" : 8
  },
  {
   "alignment" : 8,
   "is_integral" : true,
   "is_unsigned" : true,
   "linker_set_key" : "_ZTIy",
   "name" : "unsigned long long",
   "referenced_type" : "_ZTIy",
   "self_type" : "_ZTIy",
   "size" : 8
  }
 ],
 "elf_functions" : [],
 "elf_objects" : [],
 "enum_types" :
 [
  {
   "alignment" : 4,
   "enum_fields" :
   [
    {
     "enum_field_value" : 0,
     "name" : "JNIInvalidRefType"
    },
    {
     "enum_field_value" : 1,
     "name" : "JNILocalRefType"
    },
    {
     "enum_field_value" : 2,
     "name" : "JNIGlobalRefType"
    },
    {
     "enum_field_value" : 3,
     "name" : "JNIWeakGlobalRefType"
    }
   ],
   "linker_set_key" : "_ZTI14jobjectRefType",
   "name" : "jobjectRefType",
   "referenced_type" : "_ZTI14jobjectRefType",
   "self_type" : "_ZTI14jobjectRefType",
   "size" : 4,
   "source_file" : "libnativehelper/include_jni/jni.h",
   "underlying_type" : "_ZTIj"
  },
  {
   "alignment" : 4,
   "enum_fields" :
   [
    {
     "enum_field_value" : 0,
     "name" : "REG_R0"
    },
    {
     "enum_field_value" : 1,
     "name" : "REG_R1"
    },
    {
     "enum_field_value" : 2,
     "name" : "REG_R2"
    },
    {
     "enum_field_value" : 3,
     "name" : "REG_R3"
    },
    {
     "enum_field_value" : 4,
     "name" : "REG_R4"
    },
    {
     "enum_field_value" : 5,
     "name" : "REG_R5"
    },
    {
     "enum_field_value" : 6,
     "name" : "REG_R6"
    },
    {
     "enum_field_value" : 7,
     "name" : "REG_R7"
    },
    {
     "enum_field_value" : 8,
     "name" : "REG_R8"
    },
    {
     "enum_field_value" : 9,
     "name" : "REG_R9"
    },
    {
     "enum_field_value" : 10,
     "name" : "REG_R10"
    },
    {
     "enum_field_value" : 11,
     "name" : "REG_R11"
    },
    {
     "enum_field_value" : 12,
     "name" : "REG_R12"
    },
    {
     "enum_field_value" : 13,
     "name" : "REG_R13"
    },
    {
     "enum_field_value" : 14,
     "name" : "REG_R14"
    },
    {
     "enum_field_value" : 15,
     "name" : "REG_R15"
    }
   ],
   "linker_set_key" : "_ZTI7$REG_R0",
   "name" : "(anonymous enum at bionic/libc/include/sys/ucontext.h:41:1)",
   "referenced_type" : "_ZTI7$REG_R0",
   "self_type" : "_ZTI7$REG_R0",
   "size" : 4,
   "source_file" : "bionic/libc/include/sys/ucontext.h",
   "underlying_type" : "_ZTIj"
  },
  {
   "alignment" : 4,
   "enum_fields" :
   [
    {
     "enum_field_value" : 57005,
     "name" : "std::__1::endian::little"
    },
    {
     "enum_field_value" : 64206,
     "name" : "std::__1::endian::big"
    },
    {
     "enum_field_value" : 57005,
     "name" : "std::__1::endian::native"
    }
   ],
   "linker_set_key" : "_ZTINSt3__16endianE",
   "name" : "std::endian",
   "referenced_type" : "_ZTINSt3__16endianE",
   "self_type" : "_ZTINSt3__16endianE",
   "size" : 4,
   "source_file" : "external/libcxx/include/type_traits",
   "underlying_type" : "_ZTIi"
  },
  {
   "alignment" : 1,
   "linker_set_key" : "_ZTISt4byte",
   "name" : "std::byte",
   "referenced_type" : "_ZTISt4byte",
   "self_type" : "_ZTISt4byte",
   "size" : 1,
   "source_file" : "external/libcxx/include/cstddef",
   "underlying_type" : "_ZTIh"
  }
 ],
 "function_types" :
 [
  {
   "alignment" : 4,
   "linker_set_key" : "_ZTIF14jobjectRefTypeP7_JNIEnvP8_jobjectE",
   "name" : "jobjectRefType (_JNIEnv *, _jobject *)",
   "parameters" :
   [
    {
     "referenced_type" : "_ZTIP7_JNIEnv"
    },
    {
     "referenced_type" : "_ZTIP8_jobject"
    }
   ],
   "referenced_type" : "_ZTIF14jobjectRefTypeP7_JNIEnvP8_jobjectE",
   "return_type" : "_ZTI14jobjectRefType",
   "self_type" : "_ZTIF14jobjectRefTypeP7_JNIEnvP8_jobjectE",
   "source_file" : "libnativehelper/include_jni/jni.h"
  },
  {
   "alignment" : 4,
   "linker_set_key" : "_ZTIFP10_jintArrayP7_JNIEnviE",
   "name" : "_jintArray *(_JNIEnv *, int)",
   "parameters" :
   [
    {
     "referenced_type" : "_ZTIP7_JNIEnv"
    },
    {
     "referenced_type" : "_ZTIi"
    }
   ],
   "referenced_type" : "_ZTIFP10_jintArrayP7_JNIEnviE",
   "return_type" : "_ZTIP10_jintArray",
   "self_type" : "_ZTIFP10_jintArrayP7_JNIEnviE",
   "source_file" : "libnativehelper/include_jni/jni.h"
  },
  {
   "alignment" : 4,
   "linker_set_key" : "_ZTIFP10_jmethodIDP7_JNIEnvP7_jclassPKcS6_E",
   "name" : "_jmethodID *(_JNIEnv *, _jclass *, const char *, const char *)",
   "parameters" :
   [
    {
     "referenced_type" : "_ZTIP7_JNIEnv"
    },
    {
     "referenced_type" : "_ZTIP7_jclass"
    },
    {
     "referenced_type" : "_ZTIPKc"
    },
    {
     "referenced_type" : "_ZTIPKc"
    }
   ],
   "referenced_type" : "_ZTIFP10_jmethodIDP7_JNIEnvP7_jclassPKcS6_E",
   "return_type" : "_ZTIP10_jmethodID",
   "self_type" : "_ZTIFP10_jmethodIDP7_JNIEnvP7_jclassPKcS6_E",
   "source_file" : "libnativehelper/include_jni/jni.h"
  },
  {
   "alignment" : 4,
   "linker_set_key" : "_ZTIFP10_jmethodIDP7_JNIEnvP8_jobjectE",
   "name" : "_jmethodID *(_JNIEnv *, _jobject *)",
   "parameters" :
   [
    {
     "referenced_type" : "_ZTIP7_JNIEnv"
    },
    {
     "referenced_type" : "_ZTIP8_jobject"
    }
   ],
   "referenced_type" : "_ZTIFP10_jmethodIDP7_JNIEnvP8_jobjectE",
   "return_type" : "_ZTIP10_jmethodID",
   "self_type" : "_ZTIFP10_jmethodIDP7_JNIEnvP8_jobjectE",
   "source_file" : "libnativehelper/include_jni/jni.h"
  },
  {
   "alignment" : 4,
   "linker_set_key" : "_ZTIFP11_jbyteArrayP7_JNIEnviE",
   "name" : "_jbyteArray *(_JNIEnv *, int)",
   "parameters" :
   [
    {
     "referenced_type" : "_ZTIP7_JNIEnv"
    },
    {
     "referenced_type" : "_ZTIi"
    }
   ],
   "referenced_type" : "_ZTIFP11_jbyteArrayP7_JNIEnviE",
   "return_type" : "_ZTIP11_jbyteArray",
   "self_type" : "_ZTIFP11_jbyteArrayP7_JNIEnviE",
   "source_file" : "libnativehelper/include_jni/jni.h"
  },
  {
   "alignment" : 4,
   "linker_set_key" : "_ZTIFP11_jcharArrayP7_JNIEnviE",
   "name" : "_jcharArray *(_JNIEnv *, int)",
   "parameters" :
   [
    {
     "referenced_type" : "_ZTIP7_JNIEnv"
    },
    {
     "referenced_type" : "_ZTIi"
    }
   ],
   "referenced_type" : "_ZTIFP11_jcharArrayP7_JNIEnviE",
   "return_type" : "_ZTIP11_jcharArray",
   "self_type" : "_ZTIFP11_jcharArrayP7_JNIEnviE",
   "source_file" : "libnativehelper/include_jni/jni.h"
  },
  {
   "alignment" : 4,
   "linker_set_key" : "_ZTIFP11_jlongArrayP7_JNIEnviE",
   "name" : "_jlongArray *(_JNIEnv *, int)",
   "parameters" :
   [
    {
     "referenced_type" : "_ZTIP7_JNIEnv"
    },
    {
     "referenced_type" : "_ZTIi"
    }
   ],
   "referenced_type" : "_ZTIFP11_jlongArrayP7_JNIEnviE",
   "return_type" : "_ZTIP11_jlongArray",
   "self_type" : "_ZTIFP11_jlongArrayP7_JNIEnviE",
   "source_file" : "libnativehelper/include_jni/jni.h"
  },
  {
   "alignment" : 4,
   "linker_set_key" : "_ZTIFP11_jthrowableP7_JNIEnvE",
   "name" : "_jthrowable *(_JNIEnv *)",
   "parameters" :
   [
    {
     "referenced_type" : "_ZTIP7_JNIEnv"
    }
   ],
   "referenced_type" : "_ZTIFP11_jthrowableP7_JNIEnvE",
   "return_type" : "_ZTIP11_jthrowable",
   "self_type" : "_ZTIFP11_jthrowableP7_JNIEnvE",
   "source_file" : "libnativehelper/include_jni/jni.h"
  },
  {
   "alignment" : 4,
   "linker_set_key" : "_ZTIFP12_jfloatArrayP7_JNIEnviE",
   "name" : "_jfloatArray *(_JNIEnv *, int)",
   "parameters" :
   [
    {
     "referenced_type" : "_ZTIP7_JNIEnv"
    },
    {
     "referenced_type" : "_ZTIi"
    }
   ],
   "referenced_type" : "_ZTIFP12_jfloatArrayP7_JNIEnviE",
   "return_type" : "_ZTIP12_jfloatArray",
   "self_type" : "_ZTIFP12_jfloatArrayP7_JNIEnviE",
   "source_file" : "libnativehelper/include_jni/jni.h"
  },
  {
   "alignment" : 4,
   "linker_set_key" : "_ZTIFP12_jshortArrayP7_JNIEnviE",
   "name" : "_jshortArray *(_JNIEnv *, int)",
   "parameters" :
   [
    {
     "referenced_type" : "_ZTIP7_JNIEnv"
    },
    {
     "referenced_type" : "_ZTIi"
    }
   ],
   "referenced_type" : "_ZTIFP12_jshortArrayP7_JNIEnviE",
   "return_type" : "_ZTIP12_jshortArray",
   "self_type" : "_ZTIFP12_jshortArrayP7_JNIEnviE",
   "source_file" : "libnativehelper/include_jni/jni.h"
  },
  {
   "alignment" : 4,
   "linker_set_key" : "_ZTIFP13_jdoubleArrayP7_JNIEnviE",
   "name" : "_jdoubleArray *(_JNIEnv *, int)",
   "parameters" :
   [
    {
     "referenced_type" : "_ZTIP7_JNIEnv"
    },
    {
     "referenced_type" : "_ZTIi"
    }
   ],
   "referenced_type" : "_ZTIFP13_jdoubleArrayP7_JNIEnviE",
   "return_type" : "_ZTIP13_jdoubleArray",
   "self_type" : "_ZTIFP13_jdoubleArrayP7_JNIEnviE",
   "source_file" : "libnativehelper/include_jni/jni.h"
  },
  {
   "alignment" : 4,
   "linker_set_key" : "_ZTIFP13_jobjectArrayP7_JNIEnviP7_jclassP8_jobjectE",
   "name" : "_jobjectArray *(_JNIEnv *, int, _jclass *, _jobject *)",
   "parameters" :
   [
    {
     "referenced_type" : "_ZTIP7_JNIEnv"
    },
    {
     "referenced_type" : "_ZTIi"
    },
    {
     "referenced_type" : "_ZTIP7_jclass"
    },
    {
     "referenced_type" : "_ZTIP8_jobject"
    }
   ],
   "referenced_type" : "_ZTIFP13_jobjectArrayP7_JNIEnviP7_jclassP8_jobjectE",
   "return_type" : "_ZTIP13_jobjectArray",
   "self_type" : "_ZTIFP13_jobjectArrayP7_JNIEnviP7_jclassP8_jobjectE",
   "source_file" : "libnativehelper/include_jni/jni.h"
  },
  {
   "alignment" : 4,
   "linker_set_key" : "_ZTIFP14_jbooleanArrayP7_JNIEnviE",
   "name" : "_jbooleanArray *(_JNIEnv *, int)",
   "parameters" :
   [
    {
     "referenced_type" : "_ZTIP7_JNIEnv"
    },
    {
     "referenced_type" : "_ZTIi"
    }
   ],
   "referenced_type" : "_ZTIFP14_jbooleanArrayP7_JNIEnviE",
   "return_type" : "_ZTIP14_jbooleanArray",
   "self_type" : "_ZTIFP14_jbooleanArrayP7_JNIEnviE",
   "source_file" : "libnativehelper/include_jni/jni.h"
  },
  {
   "alignment" : 4,
   "linker_set_key" : "_ZTIFP7_jclassP7_JNIEnvP8_jobjectE",
   "name" : "_jclass *(_JNIEnv *, _jobject *)",
   "parameters" :
   [
    {
     "referenced_type" : "_ZTIP7_JNIEnv"
    },
    {
     "referenced_type" : "_ZTIP8_jobject"
    }
   ],
   "referenced_type" : "_ZTIFP7_jclassP7_JNIEnvP8_jobjectE",
   "return_type" : "_ZTIP7_jclass",
   "self_type" : "_ZTIFP7_jclassP7_JNIEnvP8_jobjectE",
   "source_file" : "libnativehelper/include_jni/jni.h"
  },
  {
   "alignment" : 4,
   "linker_set_key" : "_ZTIFP7_jclassP7_JNIEnvPKcE",
   "name" : "_jclass *(_JNIEnv *, const char *)",
   "parameters" :
   [
    {
     "referenced_type" : "_ZTIP7_JNIEnv"
    },
    {
     "referenced_type" : "_ZTIPKc"
    }
   ],
   "referenced_type" : "_ZTIFP7_jclassP7_JNIEnvPKcE",
   "return_type" : "_ZTIP7_jclass",
   "self_type" : "_ZTIFP7_jclassP7_JNIEnvPKcE",
   "source_file" : "libnativehelper/include_jni/jni.h"
  },
  {
   "alignment" : 4,
   "linker_set_key" : "_ZTIFP7_jclassP7_JNIEnvPKcP8_jobjectPKaiE",
   "name" : "_jclass *(_JNIEnv *, const char *, _jobject *, const signed char *, int)",
   "parameters" :
   [
    {
     "referenced_type" : "_ZTIP7_JNIEnv"
    },
    {
     "referenced_type" : "_ZTIPKc"
    },
    {
     "referenced_type" : "_ZTIP8_jobject"
    },
    {
     "referenced_type" : "_ZTIPKa"
    },
    {
     "referenced_type" : "_ZTIi"
    }
   ],
   "referenced_type" : "_ZTIFP7_jclassP7_JNIEnvPKcP8_jobjectPKaiE",
   "return_type" : "_ZTIP7_jclass",
   "self_type" : "_ZTIFP7_jclassP7_JNIEnvPKcP8_jobjectPKaiE",
   "source_file" : "libnativehelper/include_jni/jni.h"
  },
  {
   "alignment" : 4,
   "linker_set_key" : "_ZTIFP7_jclassP7_JNIEnvS0_E",
   "name" : "_jclass *(_JNIEnv *, _jclass *)",
   "parameters" :
   [
    {
     "referenced_type" : "_ZTIP7_JNIEnv"
    },
    {
     "referenced_type" : "_ZTIP7_jclass"
    }
   ],
   "referenced_type" : "_ZTIFP7_jclassP7_JNIEnvS0_E",
   "return_type" : "_ZTIP7_jclass",
   "self_type" : "_ZTIFP7_jclassP7_JNIEnvS0_E",
   "source_file" : "libnativehelper/include_jni/jni.h"
  },
  {
   "alignment" : 4,
   "linker_set_key" : "_ZTIFP8_jobjectP7_JNIEnvP13_jobjectArrayiE",
   "name" : "_jobject *(_JNIEnv *, _jobjectArray *, int)",
   "parameters" :
   [
    {
     "referenced_type" : "_ZTIP7_JNIEnv"
    },
    {
     "referenced_type" : "_ZTIP13_jobjectArray"
    },
    {
     "referenced_type" : "_ZTIi"
    }
   ],
   "referenced_type" : "_ZTIFP8_jobjectP7_JNIEnvP13_jobjectArrayiE",
   "return_type" : "_ZTIP8_jobject",
   "self_type" : "_ZTIFP8_jobjectP7_JNIEnvP13_jobjectArrayiE",
   "source_file" : "libnativehelper/include_jni/jni.h"
  },
  {
   "alignment" : 4,
   "linker_set_key" : "_ZTIFP8_jobjectP7_JNIEnvP7_jclassE",
   "name" : "_jobject *(_JNIEnv *, _jclass *)",
   "parameters" :
   [
    {
     "referenced_type" : "_ZTIP7_JNIEnv"
    },
    {
     "referenced_type" : "_ZTIP7_jclass"
    }
   ],
   "referenced_type" : "_ZTIFP8_jobjectP7_JNIEnvP7_jclassE",
   "return_type" : "_ZTIP8_jobject",
   "self_type" : "_ZTIFP8_jobjectP7_JNIEnvP7_jclassE",
   "source_file" : "libnativehelper/include_jni/jni.h"
  },
  {
   "alignment" : 4,
   "linker_set_key" : "_ZTIFP8_jobjectP7_JNIEnvP7_jclassP10_jmethodIDPK6jvalueE",
   "name" : "_jobject *(_JNIEnv *, _jclass *, _jmethodID *, const jvalue *)",
   "parameters" :
   [
    {
     "referenced_type" : "_ZTIP7_JNIEnv"
    },
    {
     "referenced_type" : "_ZTIP7_jclass"
    },
    {
     "referenced_type" : "_ZTIP10_jmethodID"
    },
    {
     "referenced_type" : "_ZTIPK6jvalue"
    }
   ],
   "referenced_type" : "_ZTIFP8_jobjectP7_JNIEnvP7_jclassP10_jmethodIDPK6jvalueE",
   "return_type" : "_ZTIP8_jobject",
   "self_type" : "_ZTIFP8_jobjectP7_JNIEnvP7_jclassP10_jmethodIDPK6jvalueE",
   "source_file" : "libnativehelper/include_jni/jni.h"
  },
  {
   "alignment" : 4,
   "linker_set_key" : "_ZTIFP8_jobjectP7_JNIEnvP7_jclassP10_jmethodIDSt9__va_listE",
   "name" : "_jobject *(_JNIEnv *, _jclass *, _jmethodID *, std::__va_list)",
   "parameters" :
   [
    {
     "referenced_type" : "_ZTIP7_JNIEnv"
    },
    {
     "referenced_type" : "_ZTIP7_jclass"
    },
    {
     "referenced_type" : "_ZTIP10_jmethodID"
    },
    {
     "referenced_type" : "_ZTISt9__va_list"
    }
   ],
   "referenced_type" : "_ZTIFP8_jobjectP7_JNIEnvP7_jclassP10_jmethodIDSt9__va_listE",
   "return_type" : "_ZTIP8_jobject",
   "self_type" : "_ZTIFP8_jobjectP7_JNIEnvP7_jclassP10_jmethodIDSt9__va_listE",
   "source_file" : "libnativehelper/include_jni/jni.h"
  },
  {
   "alignment" : 4,
   "linker_set_key" : "_ZTIFP8_jobjectP7_JNIEnvP7_jclassP10_jmethodIDhE",
   "name" : "_jobject *(_JNIEnv *, _jclass *, _jmethodID *, unsigned char)",
   "parameters" :
   [
    {
     "referenced_type" : "_ZTIP7_JNIEnv"
    },
    {
     "referenced_type" : "_ZTIP7_jclass"
    },
    {
     "referenced_type" : "_ZTIP10_jmethodID"
    },
    {
     "referenced_type" : "_ZTIh"
    }
   ],
   "referenced_type" : "_ZTIFP8_jobjectP7_JNIEnvP7_jclassP10_jmethodIDhE",
   "return_type" : "_ZTIP8_jobject",
   "self_type" : "_ZTIFP8_jobjectP7_JNIEnvP7_jclassP10_jmethodIDhE",
   "source_file" : "libnativehelper/include_jni/jni.h"
  },
  {
   "alignment" : 4,
   "linker_set_key" : "_ZTIFP8_jobjectP7_JNIEnvP7_jclassP10_jmethodIDzE",
   "name" : "_jobject *(_JNIEnv *, _jclass *, _jmethodID *, ...)",
   "parameters" :
   [
    {
     "referenced_type" : "_ZTIP7_JNIEnv"
    },
    {
     "referenced_type" : "_ZTIP7_jclass"
    },
    {
     "referenced_type" : "_ZTIP10_jmethodID"
    }
   ],
   "referenced_type" : "_ZTIFP8_jobjectP7_JNIEnvP7_jclassP10_jmethodIDzE",
   "return_type" : "_ZTIP8_jobject",
   "self_type" : "_ZTIFP8_jobjectP7_JNIEnvP7_jclassP10_jmethodIDzE",
   "source_file" : "libnativehelper/include_jni/jni.h"
  },
  {
   "alignment" : 4,
   "linker_set_key" : "_ZTIFP8_jobjectP7_JNIEnvP7_jclassP9_jfieldIDE",
   "name" : "_jobject *(_JNIEnv *, _jclass *, _jfieldID *)",
   "parameters" :
   [
    {
     "referenced_type" : "_ZTIP7_JNIEnv"
    },
    {
     "referenced_type" : "_ZTIP7_jclass"
    },
    {
     "referenced_type" : "_ZTIP9_jfieldID"
    }
   ],
   "referenced_type" : "_ZTIFP8_jobjectP7_JNIEnvP7_jclassP9_jfieldIDE",
   "return_type" : "_ZTIP8_jobject",
   "self_type" : "_ZTIFP8_jobjectP7_JNIEnvP7_jclassP9_jfieldIDE",
   "source_file" : "libnativehelper/include_jni/jni.h"
  },
  {
   "alignment" : 4,
   "linker_set_key" : "_ZTIFP8_jobjectP7_JNIEnvP7_jclassP9_jfieldIDhE",
   "name" : "_jobject *(_JNIEnv *, _jclass *, _jfieldID *, unsigned char)",
   "parameters" :
   [
    {
     "referenced_type" : "_ZTIP7_JNIEnv"
    },
    {
     "referenced_type" : "_ZTIP7_jclass"
    },
    {
     "referenced_type" : "_ZTIP9_jfieldID"
    },
    {
     "referenced_type" : "_ZTIh"
    }
   ],
   "referenced_type" : "_ZTIFP8_jobjectP7_JNIEnvP7_jclassP9_jfieldIDhE",
   "return_type" : "_ZTIP8_jobject",
   "self_type" : "_ZTIFP8_jobjectP7_JNIEnvP7_jclassP9_jfieldIDhE",
   "source_file" : "libnativehelper/include_jni/jni.h"
  },
  {
   "alignment" : 4,
   "linker_set_key" : "_ZTIFP8_jobjectP7_JNIEnvPvxE",
   "name" : "_jobject *(_JNIEnv *, void *, long long)",
   "parameters" :
   [
    {
     "referenced_type" : "_ZTIP7_JNIEnv"
    },
    {
     "referenced_type" : "_ZTIPv"
    },
    {
     "referenced_type" : "_ZTIx"
    }
   ],
   "referenced_type" : "_ZTIFP8_jobjectP7_JNIEnvPvxE",
   "return_type" : "_ZTIP8_jobject",
   "self_type" : "_ZTIFP8_jobjectP7_JNIEnvPvxE",
   "source_file" : "libnativehelper/include_jni/jni.h"
  },
  {
   "alignment" : 4,
   "linker_set_key" : "_ZTIFP8_jobjectP7_JNIEnvS0_E",
   "name" : "_jobject *(_JNIEnv *, _jobject *)",
   "parameters" :
   [
    {
     "referenced_type" : "_ZTIP7_JNIEnv"
    },
    {
     "referenced_type" : "_ZTIP8_jobject"
    }
   ],
   "referenced_type" : "_ZTIFP8_jobjectP7_JNIEnvS0_E",
   "return_type" : "_ZTIP8_jobject",
   "self_type" : "_ZTIFP8_jobjectP7_JNIEnvS0_E",
   "source_file" : "libnativehelper/include_jni/jni.h"
  },
  {
   "alignment" : 4,
   "linker_set_key" : "_ZTIFP8_jobjectP7_JNIEnvS0_P10_jmethodIDPK6jvalueE",
   "name" : "_jobject *(_JNIEnv *, _jobject *, _jmethodID *, const jvalue *)",
   "parameters" :
   [
    {
     "referenced_type" : "_ZTIP7_JNIEnv"
    },
    {
     "referenced_type" : "_ZTIP8_jobject"
    },
    {
     "referenced_type" : "_ZTIP10_jmethodID"
    },
    {
     "referenced_type" : "_ZTIPK6jvalue"
    }
   ],
   "referenced_type" : "_ZTIFP8_jobjectP7_JNIEnvS0_P10_jmethodIDPK6jvalueE",
   "return_type" : "_ZTIP8_jobject",
   "self_type" : "_ZTIFP8_jobjectP7_JNIEnvS0_P10_jmethodIDPK6jvalueE",
   "source_file" : "libnativehelper/include_jni/jni.h"
  },
  {
   "alignment" : 4,
   "linker_set_key" : "_ZTIFP8_jobjectP7_JNIEnvS0_P10_jmethodIDSt9__va_listE",
   "name" : "_jobject *(_JNIEnv *, _jobject *, _jmethodID *, std::__va_list)",
   "parameters" :
   [
    {
     "referenced_type" : "_ZTIP7_JNIEnv"
    },
    {
     "referenced_type" : "_ZTIP8_jobject"
    },
    {
     "referenced_type" : "_ZTIP10_jmethodID"
    },
    {
     "referenced_type" : "_ZTISt9__va_list"
    }
   ],
   "referenced_type" : "_ZTIFP8_jobjectP7_JNIEnvS0_P10_jmethodIDSt9__va_listE",
   "return_type" : "_ZTIP8_jobject",
   "self_type" : "_ZTIFP8_jobjectP7_JNIEnvS0_P10_jmethodIDSt9__va_listE",
   "source_file" : "libnativehelper/include_jni/jni.h"
  },
  {
   "alignment" : 4,
   "linker_set_key" : "_ZTIFP8_jobjectP7_JNIEnvS0_P10_jmethodIDzE",
   "name" : "_jobject *(_JNIEnv *, _jobject *, _jmethodID *, ...)",
   "parameters" :
   [
    {
     "referenced_type" : "_ZTIP7_JNIEnv"
    },
    {
     "referenced_type" : "_ZTIP8_jobject"
    },
    {
     "referenced_type" : "_ZTIP10_jmethodID"
    }
   ],
   "referenced_type" : "_ZTIFP8_jobjectP7_JNIEnvS0_P10_jmethodIDzE",
   "return_type" : "_ZTIP8_jobject",
   "self_type" : "_ZTIFP8_jobjectP7_JNIEnvS0_P10_jmethodIDzE",
   "source_file" : "libnativehelper/include_jni/jni.h"
  },
  {
   "alignment" : 4,
   "linker_set_key" : "_ZTIFP8_jobjectP7_JNIEnvS0_P7_jclassP10_jmethodIDPK6jvalueE",
   "name" : "_jobject *(_JNIEnv *, _jobject *, _jclass *, _jmethodID *, const jvalue *)",
   "parameters" :
   [
    {
     "referenced_type" : "_ZTIP7_JNIEnv"
    },
    {
     "referenced_type" : "_ZTIP8_jobject"
    },
    {
     "referenced_type" : "_ZTIP7_jclass"
    },
    {
     "referenced_type" : "_ZTIP10_jmethodID"
    },
    {
     "referenced_type" : "_ZTIPK6jvalue"
    }
   ],
   "referenced_type" : "_ZTIFP8_jobjectP7_JNIEnvS0_P7_jclassP10_jmethodIDPK6jvalueE",
   "return_type" : "_ZTIP8_jobject",
   "self_type" : "_ZTIFP8_jobjectP7_JNIEnvS0_P7_jclassP10_jmethodIDPK6jvalueE",
   "source_file" : "libnativehelper/include_jni/jni.h"
  },
  {
   "alignment" : 4,
   "linker_set_key" : "_ZTIFP8_jobjectP7_JNIEnvS0_P7_jclassP10_jmethodIDSt9__va_listE",
   "name" : "_jobject *(_JNIEnv *, _jobject *, _jclass *, _jmethodID *, std::__va_list)",
   "parameters" :
   [
    {
     "referenced_type" : "_ZTIP7_JNIEnv"
    },
    {
     "referenced_type" : "_ZTIP8_jobject"
    },
    {
     "referenced_type" : "_ZTIP7_jclass"
    },
    {
     "referenced_type" : "_ZTIP10_jmethodID"
    },
    {
     "referenced_type" : "_ZTISt9__va_list"
    }
   ],
   "referenced_type" : "_ZTIFP8_jobjectP7_JNIEnvS0_P7_jclassP10_jmethodIDSt9__va_listE",
   "return_type" : "_ZTIP8_jobject",
   "self_type" : "_ZTIFP8_jobjectP7_JNIEnvS0_P7_jclassP10_jmethodIDSt9__va_listE",
   "source_file" : "libnativehelper/include_jni/jni.h"
  },
  {
   "alignment" : 4,
   "linker_set_key" : "_ZTIFP8_jobjectP7_JNIEnvS0_P7_jclassP10_jmethodIDzE",
   "name" : "_jobject *(_JNIEnv *, _jobject *, _jclass *, _jmethodID *, ...)",
   "parameters" :
   [
    {
     "referenced_type" : "_ZTIP7_JNIEnv"
    },
    {
     "referenced_type" : "_ZTIP8_jobject"
    },
    {
     "referenced_type" : "_ZTIP7_jclass"
    },
    {
     "referenced_type" : "_ZTIP10_jmethodID"
    }
   ],
   "referenced_type" : "_ZTIFP8_jobjectP7_JNIEnvS0_P7_jclassP10_jmethodIDzE",
   "return_type" : "_ZTIP8_jobject",
   "self_type" : "_ZTIFP8_jobjectP7_JNIEnvS0_P7_jclassP10_jmethodIDzE",
   "source_file" : "libnativehelper/include_jni/jni.h"
  },
  {
   "alignment" : 4,
   "linker_set_key" : "_ZTIFP8_jobjectP7_JNIEnvS0_P9_jfieldIDE",
   "name" : "_jobject *(_JNIEnv *, _jobject *, _jfieldID *)",
   "parameters" :
   [
    {
     "referenced_type" : "_ZTIP7_JNIEnv"
    },
    {
     "referenced_type" : "_ZTIP8_jobject"
    },
    {
     "referenced_type" : "_ZTIP9_jfieldID"
    }
   ],
   "referenced_type" : "_ZTIFP8_jobjectP7_JNIEnvS0_P9_jfieldIDE",
   "return_type" : "_ZTIP8_jobject",
   "self_type" : "_ZTIFP8_jobjectP7_JNIEnvS0_P9_jfieldIDE",
   "source_file" : "libnativehelper/include_jni/jni.h"
  },
  {
   "alignment" : 4,
   "linker_set_key" : "_ZTIFP8_jstringP7_JNIEnvPKcE",
   "name" : "_jstring *(_JNIEnv *, const char *)",
   "parameters" :
   [
    {
     "referenced_type" : "_ZTIP7_JNIEnv"
    },
    {
     "referenced_type" : "_ZTIPKc"
    }
   ],
   "referenced_type" : "_ZTIFP8_jstringP7_JNIEnvPKcE",
   "return_type" : "_ZTIP8_jstring",
   "self_type" : "_ZTIFP8_jstringP7_JNIEnvPKcE",
   "source_file" : "libnativehelper/include_jni/jni.h"
  },
  {
   "alignment" : 4,
   "linker_set_key" : "_ZTIFP8_jstringP7_JNIEnvPKtiE",
   "name" : "_jstring *(_JNIEnv *, const unsigned short *, int)",
   "parameters" :
   [
    {
     "referenced_type" : "_ZTIP7_JNIEnv"
    },
    {
     "referenced_type" : "_ZTIPKt"
    },
    {
     "referenced_type" : "_ZTIi"
    }
   ],
   "referenced_type" : "_ZTIFP8_jstringP7_JNIEnvPKtiE",
   "return_type" : "_ZTIP8_jstring",
   "self_type" : "_ZTIFP8_jstringP7_JNIEnvPKtiE",
   "source_file" : "libnativehelper/include_jni/jni.h"
  },
  {
   "alignment" : 4,
   "linker_set_key" : "_ZTIFP9_jfieldIDP7_JNIEnvP7_jclassPKcS6_E",
   "name" : "_jfieldID *(_JNIEnv *, _jclass *, const char *, const char *)",
   "parameters" :
   [
    {
     "referenced_type" : "_ZTIP7_JNIEnv"
    },
    {
     "referenced_type" : "_ZTIP7_jclass"
    },
    {
     "referenced_type" : "_ZTIPKc"
    },
    {
     "referenced_type" : "_ZTIPKc"
    }
   ],
   "referenced_type" : "_ZTIFP9_jfieldIDP7_JNIEnvP7_jclassPKcS6_E",
   "return_type" : "_ZTIP9_jfieldID",
   "self_type" : "_ZTIFP9_jfieldIDP7_JNIEnvP7_jclassPKcS6_E",
   "source_file" : "libnativehelper/include_jni/jni.h"
  },
  {
   "alignment" : 4,
   "linker_set_key" : "_ZTIFP9_jfieldIDP7_JNIEnvP8_jobjectE",
   "name" : "_jfieldID *(_JNIEnv *, _jobject *)",
   "parameters" :
   [
    {
     "referenced_type" : "_ZTIP7_JNIEnv"
    },
    {
     "referenced_type" : "_ZTIP8_jobject"
    }
   ],
   "referenced_type" : "_ZTIFP9_jfieldIDP7_JNIEnvP8_jobjectE",
   "return_type" : "_ZTIP9_jfieldID",
   "self_type" : "_ZTIFP9_jfieldIDP7_JNIEnvP8_jobjectE",
   "source_file" : "libnativehelper/include_jni/jni.h"
  },
  {
   "alignment" : 4,
   "linker_set_key" : "_ZTIFPKcP7_JNIEnvP8_jstringPhE",
   "name" : "const char *(_JNIEnv *, _jstring *, unsigned char *)",
   "parameters" :
   [
    {
     "referenced_type" : "_ZTIP7_JNIEnv"
    },
    {
     "referenced_type" : "_ZTIP8_jstring"
    },
    {
     "referenced_type" : "_ZTIPh"
    }
   ],
   "referenced_type" : "_ZTIFPKcP7_JNIEnvP8_jstringPhE",
   "return_type" : "_ZTIPKc",
   "self_type" : "_ZTIFPKcP7_JNIEnvP8_jstringPhE",
   "source_file" : "libnativehelper/include_jni/jni.h"
  },
  {
   "alignment" : 4,
   "linker_set_key" : "_ZTIFPKtP7_JNIEnvP8_jstringPhE",
   "name" : "const unsigned short *(_JNIEnv *, _jstring *, unsigned char *)",
   "parameters" :
   [
    {
     "referenced_type" : "_ZTIP7_JNIEnv"
    },
    {
     "referenced_type" : "_ZTIP8_jstring"
    },
    {
     "referenced_type" : "_ZTIPh"
    }
   ],
   "referenced_type" : "_ZTIFPKtP7_JNIEnvP8_jstringPhE",
   "return_type" : "_ZTIPKt",
   "self_type" : "_ZTIFPKtP7_JNIEnvP8_jstringPhE",
   "source_file" : "libnativehelper/include_jni/jni.h"
  },
  {
   "alignment" : 4,
   "linker_set_key" : "_ZTIFPaP7_JNIEnvP11_jbyteArrayPhE",
   "name" : "signed char *(_JNIEnv *, _jbyteArray *, unsigned char *)",
   "parameters" :
   [
    {
     "referenced_type" : "_ZTIP7_JNIEnv"
    },
    {
     "referenced_type" : "_ZTIP11_jbyteArray"
    },
    {
     "referenced_type" : "_ZTIPh"
    }
   ],
   "referenced_type" : "_ZTIFPaP7_JNIEnvP11_jbyteArrayPhE",
   "return_type" : "_ZTIPa",
   "self_type" : "_ZTIFPaP7_JNIEnvP11_jbyteArrayPhE",
   "source_file" : "libnativehelper/include_jni/jni.h"
  },
  {
   "alignment" : 4,
   "linker_set_key" : "_ZTIFPdP7_JNIEnvP13_jdoubleArrayPhE",
   "name" : "double *(_JNIEnv *, _jdoubleArray *, unsigned char *)",
   "parameters" :
   [
    {
     "referenced_type" : "_ZTIP7_JNIEnv"
    },
    {
     "referenced_type" : "_ZTIP13_jdoubleArray"
    },
    {
     "referenced_type" : "_ZTIPh"
    }
   ],
   "referenced_type" : "_ZTIFPdP7_JNIEnvP13_jdoubleArrayPhE",
   "return_type" : "_ZTIPd",
   "self_type" : "_ZTIFPdP7_JNIEnvP13_jdoubleArrayPhE",
   "source_file" : "libnativehelper/include_jni/jni.h"
  },
  {
   "alignment" : 4,
   "linker_set_key" : "_ZTIFPfP7_JNIEnvP12_jfloatArrayPhE",
   "name" : "float *(_JNIEnv *, _jfloatArray *, unsigned char *)",
   "parameters" :
   [
    {
     "referenced_type" : "_ZTIP7_JNIEnv"
    },
    {
     "referenced_type" : "_ZTIP12_jfloatArray"
    },
    {
     "referenced_type" : "_ZTIPh"
    }
   ],
   "referenced_type" : "_ZTIFPfP7_JNIEnvP12_jfloatArrayPhE",
   "return_type" : "_ZTIPf",
   "self_type" : "_ZTIFPfP7_JNIEnvP12_jfloatArrayPhE",
   "source_file" : "libnativehelper/include_jni/jni.h"
  },
  {
   "alignment" : 4,
   "linker_set_key" : "_ZTIFPhP7_JNIEnvP14_jbooleanArrayS_E",
   "name" : "unsigned char *(_JNIEnv *, _jbooleanArray *, unsigned char *)",
   "parameters" :
   [
    {
     "referenced_type" : "_ZTIP7_JNIEnv"
    },
    {
     "referenced_type" : "_ZTIP14_jbooleanArray"
    },
    {
     "referenced_type" : "_ZTIPh"
    }
   ],
   "referenced_type" : "_ZTIFPhP7_JNIEnvP14_jbooleanArrayS_E",
   "return_type" : "_ZTIPh",
   "self_type" : "_ZTIFPhP7_JNIEnvP14_jbooleanArrayS_E",
   "source_file" : "libnativehelper/include_jni/jni.h"
  },
  {
   "alignment" : 4,
   "linker_set_key" : "_ZTIFPiP7_JNIEnvP10_jintArrayPhE",
   "name" : "int *(_JNIEnv *, _jintArray *, unsigned char *)",
   "parameters" :
   [
    {
     "referenced_type" : "_ZTIP7_JNIEnv"
    },
    {
     "referenced_type" : "_ZTIP10_jintArray"
    },
    {
     "referenced_type" : "_ZTIPh"
    }
   ],
   "referenced_type" : "_ZTIFPiP7_JNIEnvP10_jintArrayPhE",
   "return_type" : "_ZTIPi",
   "self_type" : "_ZTIFPiP7_JNIEnvP10_jintArrayPhE",
   "source_file" : "libnativehelper/include_jni/jni.h"
  },
  {
   "alignment" : 4,
   "linker_set_key" : "_ZTIFPsP7_JNIEnvP12_jshortArrayPhE",
   "name" : "short *(_JNIEnv *, _jshortArray *, unsigned char *)",
   "parameters" :
   [
    {
     "referenced_type" : "_ZTIP7_JNIEnv"
    },
    {
     "referenced_type" : "_ZTIP12_jshortArray"
    },
    {
     "referenced_type" : "_ZTIPh"
    }
   ],
   "referenced_type" : "_ZTIFPsP7_JNIEnvP12_jshortArrayPhE",
   "return_type" : "_ZTIPs",
   "self_type" : "_ZTIFPsP7_JNIEnvP12_jshortArrayPhE",
   "source_file" : "libnativehelper/include_jni/jni.h"
  },
  {
   "alignment" : 4,
   "linker_set_key" : "_ZTIFPtP7_JNIEnvP11_jcharArrayPhE",
   "name" : "unsigned short *(_JNIEnv *, _jcharArray *, unsigned char *)",
   "parameters" :
   [
    {
     "referenced_type" : "_ZTIP7_JNIEnv"
    },
    {
     "referenced_type" : "_ZTIP11_jcharArray"
    },
    {
     "referenced_type" : "_ZTIPh"
    }
   ],
   "referenced_type" : "_ZTIFPtP7_JNIEnvP11_jcharArrayPhE",
   "return_type" : "_ZTIPt",
   "self_type" : "_ZTIFPtP7_JNIEnvP11_jcharArrayPhE",
   "source_file" : "libnativehelper/include_jni/jni.h"
  },
  {
   "alignment" : 4,
   "linker_set_key" : "_ZTIFPvP7_JNIEnvP7_jarrayPhE",
   "name" : "void *(_JNIEnv *, _jarray *, unsigned char *)",
   "parameters" :
   [
    {
     "referenced_type" : "_ZTIP7_JNIEnv"
    },
    {
     "referenced_type" : "_ZTIP7_jarray"
    },
    {
     "referenced_type" : "_ZTIPh"
    }
   ],
   "referenced_type" : "_ZTIFPvP7_JNIEnvP7_jarrayPhE",
   "return_type" : "_ZTIPv",
   "self_type" : "_ZTIFPvP7_JNIEnvP7_jarrayPhE",
   "source_file" : "libnativehelper/include_jni/jni.h"
  },
  {
   "alignment" : 4,
   "linker_set_key" : "_ZTIFPvP7_JNIEnvP8_jobjectE",
   "name" : "void *(_JNIEnv *, _jobject *)",
   "parameters" :
   [
    {
     "referenced_type" : "_ZTIP7_JNIEnv"
    },
    {
     "referenced_type" : "_ZTIP8_jobject"
    }
   ],
   "referenced_type" : "_ZTIFPvP7_JNIEnvP8_jobjectE",
   "return_type" : "_ZTIPv",
   "self_type" : "_ZTIFPvP7_JNIEnvP8_jobjectE",
   "source_file" : "libnativehelper/include_jni/jni.h"
  },
  {
   "alignment" : 4,
   "linker_set_key" : "_ZTIFPxP7_JNIEnvP11_jlongArrayPhE",
   "name" : "long long *(_JNIEnv *, _jlongArray *, unsigned char *)",
   "parameters" :
   [
    {
     "referenced_type" : "_ZTIP7_JNIEnv"
    },
    {
     "referenced_type" : "_ZTIP11_jlongArray"
    },
    {
     "referenced_type" : "_ZTIPh"
    }
   ],
   "referenced_type" : "_ZTIFPxP7_JNIEnvP11_jlongArrayPhE",
   "return_type" : "_ZTIPx",
   "self_type" : "_ZTIFPxP7_JNIEnvP11_jlongArrayPhE",
   "source_file" : "libnativehelper/include_jni/jni.h"
  },
  {
   "alignment" : 4,
   "linker_set_key" : "_ZTIFaP7_JNIEnvP7_jclassP10_jmethodIDPK6jvalueE",
   "name" : "signed char (_JNIEnv *, _jclass *, _jmethodID *, const jvalue *)",
   "parameters" :
   [
    {
     "referenced_type" : "_ZTIP7_JNIEnv"
    },
    {
     "referenced_type" : "_ZTIP7_jclass"
    },
    {
     "referenced_type" : "_ZTIP10_jmethodID"
    },
    {
     "referenced_type" : "_ZTIPK6jvalue"
    }
   ],
   "referenced_type" : "_ZTIFaP7_JNIEnvP7_jclassP10_jmethodIDPK6jvalueE",
   "return_type" : "_ZTIa",
   "self_type" : "_ZTIFaP7_JNIEnvP7_jclassP10_jmethodIDPK6jvalueE",
   "source_file" : "libnativehelper/include_jni/jni.h"
  },
  {
   "alignment" : 4,
   "linker_set_key" : "_ZTIFaP7_JNIEnvP7_jclassP10_jmethodIDSt9__va_listE",
   "name" : "signed char (_JNIEnv *, _jclass *, _jmethodID *, std::__va_list)",
   "parameters" :
   [
    {
     "referenced_type" : "_ZTIP7_JNIEnv"
    },
    {
     "referenced_type" : "_ZTIP7_jclass"
    },
    {
     "referenced_type" : "_ZTIP10_jmethodID"
    },
    {
     "referenced_type" : "_ZTISt9__va_list"
    }
   ],
   "referenced_type" : "_ZTIFaP7_JNIEnvP7_jclassP10_jmethodIDSt9__va_listE",
   "return_type" : "_ZTIa",
   "self_type" : "_ZTIFaP7_JNIEnvP7_jclassP10_jmethodIDSt9__va_listE",
   "source_file" : "libnativehelper/include_jni/jni.h"
  },
  {
   "alignment" : 4,
   "linker_set_key" : "_ZTIFaP7_JNIEnvP7_jclassP10_jmethodIDzE",
   "name" : "signed char (_JNIEnv *, _jclass *, _jmethodID *, ...)",
   "parameters" :
   [
    {
     "referenced_type" : "_ZTIP7_JNIEnv"
    },
    {
     "referenced_type" : "_ZTIP7_jclass"
    },
    {
     "referenced_type" : "_ZTIP10_jmethodID"
    }
   ],
   "referenced_type" : "_ZTIFaP7_JNIEnvP7_jclassP10_jmethodIDzE",
   "return_type" : "_ZTIa",
   "self_type" : "_ZTIFaP7_JNIEnvP7_jclassP10_jmethodIDzE",
   "source_file" : "libnativehelper/include_jni/jni.h"
  },
  {
   "alignment" : 4,
   "linker_set_key" : "_ZTIFaP7_JNIEnvP7_jclassP9_jfieldIDE",
   "name" : "signed char (_JNIEnv *, _jclass *, _jfieldID *)",
   "parameters" :
   [
    {
     "referenced_type" : "_ZTIP7_JNIEnv"
    },
    {
     "referenced_type" : "_ZTIP7_jclass"
    },
    {
     "referenced_type" : "_ZTIP9_jfieldID"
    }
   ],
   "referenced_type" : "_ZTIFaP7_JNIEnvP7_jclassP9_jfieldIDE",
   "return_type" : "_ZTIa",
   "self_type" : "_ZTIFaP7_JNIEnvP7_jclassP9_jfieldIDE",
   "source_file" : "libnativehelper/include_jni/jni.h"
  },
  {
   "alignment" : 4,
   "linker_set_key" : "_ZTIFaP7_JNIEnvP8_jobjectP10_jmethodIDPK6jvalueE",
   "name" : "signed char (_JNIEnv *, _jobject *, _jmethodID *, const jvalue *)",
   "parameters" :
   [
    {
     "referenced_type" : "_ZTIP7_JNIEnv"
    },
    {
     "referenced_type" : "_ZTIP8_jobject"
    },
    {
     "referenced_type" : "_ZTIP10_jmethodID"
    },
    {
     "referenced_type" : "_ZTIPK6jvalue"
    }
   ],
   "referenced_type" : "_ZTIFaP7_JNIEnvP8_jobjectP10_jmethodIDPK6jvalueE",
   "return_type" : "_ZTIa",
   "self_type" : "_ZTIFaP7_JNIEnvP8_jobjectP10_jmethodIDPK6jvalueE",
   "source_file" : "libnativehelper/include_jni/jni.h"
  },
  {
   "alignment" : 4,
   "linker_set_key" : "_ZTIFaP7_JNIEnvP8_jobjectP10_jmethodIDSt9__va_listE",
   "name" : "signed char (_JNIEnv *, _jobject *, _jmethodID *, std::__va_list)",
   "parameters" :
   [
    {
     "referenced_type" : "_ZTIP7_JNIEnv"
    },
    {
     "referenced_type" : "_ZTIP8_jobject"
    },
    {
     "referenced_type" : "_ZTIP10_jmethodID"
    },
    {
     "referenced_type" : "_ZTISt9__va_list"
    }
   ],
   "referenced_type" : "_ZTIFaP7_JNIEnvP8_jobjectP10_jmethodIDSt9__va_listE",
   "return_type" : "_ZTIa",
   "self_type" : "_ZTIFaP7_JNIEnvP8_jobjectP10_jmethodIDSt9__va_listE",
   "source_file" : "libnativehelper/include_jni/jni.h"
  },
  {
   "alignment" : 4,
   "linker_set_key" : "_ZTIFaP7_JNIEnvP8_jobjectP10_jmethodIDzE",
   "name" : "signed char (_JNIEnv *, _jobject *, _jmethodID *, ...)",
   "parameters" :
   [
    {
     "referenced_type" : "_ZTIP7_JNIEnv"
    },
    {
     "referenced_type" : "_ZTIP8_jobject"
    },
    {
     "referenced_type" : "_ZTIP10_jmethodID"
    }
   ],
   "referenced_type" : "_ZTIFaP7_JNIEnvP8_jobjectP10_jmethodIDzE",
   "return_type" : "_ZTIa",
   "self_type" : "_ZTIFaP7_JNIEnvP8_jobjectP10_jmethodIDzE",
   "source_file" : "libnativehelper/include_jni/jni.h"
  },
  {
   "alignment" : 4,
   "linker_set_key" : "_ZTIFaP7_JNIEnvP8_jobjectP7_jclassP10_jmethodIDPK6jvalueE",
   "name" : "signed char (_JNIEnv *, _jobject *, _jclass *, _jmethodID *, const jvalue *)",
   "parameters" :
   [
    {
     "referenced_type" : "_ZTIP7_JNIEnv"
    },
    {
     "referenced_type" : "_ZTIP8_jobject"
    },
    {
     "referenced_type" : "_ZTIP7_jclass"
    },
    {
     "referenced_type" : "_ZTIP10_jmethodID"
    },
    {
     "referenced_type" : "_ZTIPK6jvalue"
    }
   ],
   "referenced_type" : "_ZTIFaP7_JNIEnvP8_jobjectP7_jclassP10_jmethodIDPK6jvalueE",
   "return_type" : "_ZTIa",
   "self_type" : "_ZTIFaP7_JNIEnvP8_jobjectP7_jclassP10_jmethodIDPK6jvalueE",
   "source_file" : "libnativehelper/include_jni/jni.h"
  },
  {
   "alignment" : 4,
   "linker_set_key" : "_ZTIFaP7_JNIEnvP8_jobjectP7_jclassP10_jmethodIDSt9__va_listE",
   "name" : "signed char (_JNIEnv *, _jobject *, _jclass *, _jmethodID *, std::__va_list)",
   "parameters" :
   [
    {
     "referenced_type" : "_ZTIP7_JNIEnv"
    },
    {
     "referenced_type" : "_ZTIP8_jobject"
    },
    {
     "referenced_type" : "_ZTIP7_jclass"
    },
    {
     "referenced_type" : "_ZTIP10_jmethodID"
    },
    {
     "referenced_type" : "_ZTISt9__va_list"
    }
   ],
   "referenced_type" : "_ZTIFaP7_JNIEnvP8_jobjectP7_jclassP10_jmethodIDSt9__va_listE",
   "return_type" : "_ZTIa",
   "self_type" : "_ZTIFaP7_JNIEnvP8_jobjectP7_jclassP10_jmethodIDSt9__va_listE",
   "source_file" : "libnativehelper/include_jni/jni.h"
  },
  {
   "alignment" : 4,
   "linker_set_key" : "_ZTIFaP7_JNIEnvP8_jobjectP7_jclassP10_jmethodIDzE",
   "name" : "signed char (_JNIEnv *, _jobject *, _jclass *, _jmethodID *, ...)",
   "parameters" :
   [
    {
     "referenced_type" : "_ZTIP7_JNIEnv"
    },
    {
     "referenced_type" : "_ZTIP8_jobject"
    },
    {
     "referenced_type" : "_ZTIP7_jclass"
    },
    {
     "referenced_type" : "_ZTIP10_jmethodID"
    }
   ],
   "referenced_type" : "_ZTIFaP7_JNIEnvP8_jobjectP7_jclassP10_jmethodIDzE",
   "return_type" : "_ZTIa",
   "self_type" : "_ZTIFaP7_JNIEnvP8_jobjectP7_jclassP10_jmethodIDzE",
   "source_file" : "libnativehelper/include_jni/jni.h"
  },
  {
   "alignment" : 4,
   "linker_set_key" : "_ZTIFaP7_JNIEnvP8_jobjectP9_jfieldIDE",
   "name" : "signed char (_JNIEnv *, _jobject *, _jfieldID *)",
   "parameters" :
   [
    {
     "referenced_type" : "_ZTIP7_JNIEnv"
    },
    {
     "referenced_type" : "_ZTIP8_jobject"
    },
    {
     "referenced_type" : "_ZTIP9_jfieldID"
    }
   ],
   "referenced_type" : "_ZTIFaP7_JNIEnvP8_jobjectP9_jfieldIDE",
   "return_type" : "_ZTIa",
   "self_type" : "_ZTIFaP7_JNIEnvP8_jobjectP9_jfieldIDE",
   "source_file" : "libnativehelper/include_jni/jni.h"
  },
  {
   "alignment" : 4,
   "linker_set_key" : "_ZTIFdP7_JNIEnvP7_jclassP10_jmethodIDPK6jvalueE",
   "name" : "double (_JNIEnv *, _jclass *, _jmethodID *, const jvalue *)",
   "parameters" :
   [
    {
     "referenced_type" : "_ZTIP7_JNIEnv"
    },
    {
     "referenced_type" : "_ZTIP7_jclass"
    },
    {
     "referenced_type" : "_ZTIP10_jmethodID"
    },
    {
     "referenced_type" : "_ZTIPK6jvalue"
    }
   ],
   "referenced_type" : "_ZTIFdP7_JNIEnvP7_jclassP10_jmethodIDPK6jvalueE",
   "return_type" : "_ZTId",
   "self_type" : "_ZTIFdP7_JNIEnvP7_jclassP10_jmethodIDPK6jvalueE",
   "source_file" : "libnativehelper/include_jni/jni.h"
  },
  {
   "alignment" : 4,
   "linker_set_key" : "_ZTIFdP7_JNIEnvP7_jclassP10_jmethodIDSt9__va_listE",
   "name" : "double (_JNIEnv *, _jclass *, _jmethodID *, std::__va_list)",
   "parameters" :
   [
    {
     "referenced_type" : "_ZTIP7_JNIEnv"
    },
    {
     "referenced_type" : "_ZTIP7_jclass"
    },
    {
     "referenced_type" : "_ZTIP10_jmethodID"
    },
    {
     "referenced_type" : "_ZTISt9__va_list"
    }
   ],
   "referenced_type" : "_ZTIFdP7_JNIEnvP7_jclassP10_jmethodIDSt9__va_listE",
   "return_type" : "_ZTId",
   "self_type" : "_ZTIFdP7_JNIEnvP7_jclassP10_jmethodIDSt9__va_listE",
   "source_file" : "libnativehelper/include_jni/jni.h"
  },
  {
   "alignment" : 4,
   "linker_set_key" : "_ZTIFdP7_JNIEnvP7_jclassP10_jmethodIDzE",
   "name" : "double (_JNIEnv *, _jclass *, _jmethodID *, ...)",
   "parameters" :
   [
    {
     "referenced_type" : "_ZTIP7_JNIEnv"
    },
    {
     "referenced_type" : "_ZTIP7_jclass"
    },
    {
     "referenced_type" : "_ZTIP10_jmethodID"
    }
   ],
   "referenced_type" : "_ZTIFdP7_JNIEnvP7_jclassP10_jmethodIDzE",
   "return_type" : "_ZTId",
   "self_type" : "_ZTIFdP7_JNIEnvP7_jclassP10_jmethodIDzE",
   "source_file" : "libnativehelper/include_jni/jni.h"
  },
  {
   "alignment" : 4,
   "linker_set_key" : "_ZTIFdP7_JNIEnvP7_jclassP9_jfieldIDE",
   "name" : "double (_JNIEnv *, _jclass *, _jfieldID *)",
   "parameters" :
   [
    {
     "referenced_type" : "_ZTIP7_JNIEnv"
    },
    {
     "referenced_type" : "_ZTIP7_jclass"
    },
    {
     "referenced_type" : "_ZTIP9_jfieldID"
    }
   ],
   "referenced_type" : "_ZTIFdP7_JNIEnvP7_jclassP9_jfieldIDE",
   "return_type" : "_ZTId",
   "self_type" : "_ZTIFdP7_JNIEnvP7_jclassP9_jfieldIDE",
   "source_file" : "libnativehelper/include_jni/jni.h"
  },
  {
   "alignment" : 4,
   "linker_set_key" : "_ZTIFdP7_JNIEnvP8_jobjectP10_jmethodIDPK6jvalueE",
   "name" : "double (_JNIEnv *, _jobject *, _jmethodID *, const jvalue *)",
   "parameters" :
   [
    {
     "referenced_type" : "_ZTIP7_JNIEnv"
    },
    {
     "referenced_type" : "_ZTIP8_jobject"
    },
    {
     "referenced_type" : "_ZTIP10_jmethodID"
    },
    {
     "referenced_type" : "_ZTIPK6jvalue"
    }
   ],
   "referenced_type" : "_ZTIFdP7_JNIEnvP8_jobjectP10_jmethodIDPK6jvalueE",
   "return_type" : "_ZTId",
   "self_type" : "_ZTIFdP7_JNIEnvP8_jobjectP10_jmethodIDPK6jvalueE",
   "source_file" : "libnativehelper/include_jni/jni.h"
  },
  {
   "alignment" : 4,
   "linker_set_key" : "_ZTIFdP7_JNIEnvP8_jobjectP10_jmethodIDSt9__va_listE",
   "name" : "double (_JNIEnv *, _jobject *, _jmethodID *, std::__va_list)",
   "parameters" :
   [
    {
     "referenced_type" : "_ZTIP7_JNIEnv"
    },
    {
     "referenced_type" : "_ZTIP8_jobject"
    },
    {
     "referenced_type" : "_ZTIP10_jmethodID"
    },
    {
     "referenced_type" : "_ZTISt9__va_list"
    }
   ],
   "referenced_type" : "_ZTIFdP7_JNIEnvP8_jobjectP10_jmethodIDSt9__va_listE",
   "return_type" : "_ZTId",
   "self_type" : "_ZTIFdP7_JNIEnvP8_jobjectP10_jmethodIDSt9__va_listE",
   "source_file" : "libnativehelper/include_jni/jni.h"
  },
  {
   "alignment" : 4,
   "linker_set_key" : "_ZTIFdP7_JNIEnvP8_jobjectP10_jmethodIDzE",
   "name" : "double (_JNIEnv *, _jobject *, _jmethodID *, ...)",
   "parameters" :
   [
    {
     "referenced_type" : "_ZTIP7_JNIEnv"
    },
    {
     "referenced_type" : "_ZTIP8_jobject"
    },
    {
     "referenced_type" : "_ZTIP10_jmethodID"
    }
   ],
   "referenced_type" : "_ZTIFdP7_JNIEnvP8_jobjectP10_jmethodIDzE",
   "return_type" : "_ZTId",
   "self_type" : "_ZTIFdP7_JNIEnvP8_jobjectP10_jmethodIDzE",
   "source_file" : "libnativehelper/include_jni/jni.h"
  },
  {
   "alignment" : 4,
   "linker_set_key" : "_ZTIFdP7_JNIEnvP8_jobjectP7_jclassP10_jmethodIDPK6jvalueE",
   "name" : "double (_JNIEnv *, _jobject *, _jclass *, _jmethodID *, const jvalue *)",
   "parameters" :
   [
    {
     "referenced_type" : "_ZTIP7_JNIEnv"
    },
    {
     "referenced_type" : "_ZTIP8_jobject"
    },
    {
     "referenced_type" : "_ZTIP7_jclass"
    },
    {
     "referenced_type" : "_ZTIP10_jmethodID"
    },
    {
     "referenced_type" : "_ZTIPK6jvalue"
    }
   ],
   "referenced_type" : "_ZTIFdP7_JNIEnvP8_jobjectP7_jclassP10_jmethodIDPK6jvalueE",
   "return_type" : "_ZTId",
   "self_type" : "_ZTIFdP7_JNIEnvP8_jobjectP7_jclassP10_jmethodIDPK6jvalueE",
   "source_file" : "libnativehelper/include_jni/jni.h"
  },
  {
   "alignment" : 4,
   "linker_set_key" : "_ZTIFdP7_JNIEnvP8_jobjectP7_jclassP10_jmethodIDSt9__va_listE",
   "name" : "double (_JNIEnv *, _jobject *, _jclass *, _jmethodID *, std::__va_list)",
   "parameters" :
   [
    {
     "referenced_type" : "_ZTIP7_JNIEnv"
    },
    {
     "referenced_type" : "_ZTIP8_jobject"
    },
    {
     "referenced_type" : "_ZTIP7_jclass"
    },
    {
     "referenced_type" : "_ZTIP10_jmethodID"
    },
    {
     "referenced_type" : "_ZTISt9__va_list"
    }
   ],
   "referenced_type" : "_ZTIFdP7_JNIEnvP8_jobjectP7_jclassP10_jmethodIDSt9__va_listE",
   "return_type" : "_ZTId",
   "self_type" : "_ZTIFdP7_JNIEnvP8_jobjectP7_jclassP10_jmethodIDSt9__va_listE",
   "source_file" : "libnativehelper/include_jni/jni.h"
  },
  {
   "alignment" : 4,
   "linker_set_key" : "_ZTIFdP7_JNIEnvP8_jobjectP7_jclassP10_jmethodIDzE",
   "name" : "double (_JNIEnv *, _jobject *, _jclass *, _jmethodID *, ...)",
   "parameters" :
   [
    {
     "referenced_type" : "_ZTIP7_JNIEnv"
    },
    {
     "referenced_type" : "_ZTIP8_jobject"
    },
    {
     "referenced_type" : "_ZTIP7_jclass"
    },
    {
     "referenced_type" : "_ZTIP10_jmethodID"
    }
   ],
   "referenced_type" : "_ZTIFdP7_JNIEnvP8_jobjectP7_jclassP10_jmethodIDzE",
   "return_type" : "_ZTId",
   "self_type" : "_ZTIFdP7_JNIEnvP8_jobjectP7_jclassP10_jmethodIDzE",
   "source_file" : "libnativehelper/include_jni/jni.h"
  },
  {
   "alignment" : 4,
   "linker_set_key" : "_ZTIFdP7_JNIEnvP8_jobjectP9_jfieldIDE",
   "name" : "double (_JNIEnv *, _jobject *, _jfieldID *)",
   "parameters" :
   [
    {
     "referenced_type" : "_ZTIP7_JNIEnv"
    },
    {
     "referenced_type" : "_ZTIP8_jobject"
    },
    {
     "referenced_type" : "_ZTIP9_jfieldID"
    }
   ],
   "referenced_type" : "_ZTIFdP7_JNIEnvP8_jobjectP9_jfieldIDE",
   "return_type" : "_ZTId",
   "self_type" : "_ZTIFdP7_JNIEnvP8_jobjectP9_jfieldIDE",
   "source_file" : "libnativehelper/include_jni/jni.h"
  },
  {
   "alignment" : 4,
   "linker_set_key" : "_ZTIFfP7_JNIEnvP7_jclassP10_jmethodIDPK6jvalueE",
   "name" : "float (_JNIEnv *, _jclass *, _jmethodID *, const jvalue *)",
   "parameters" :
   [
    {
     "referenced_type" : "_ZTIP7_JNIEnv"
    },
    {
     "referenced_type" : "_ZTIP7_jclass"
    },
    {
     "referenced_type" : "_ZTIP10_jmethodID"
    },
    {
     "referenced_type" : "_ZTIPK6jvalue"
    }
   ],
   "referenced_type" : "_ZTIFfP7_JNIEnvP7_jclassP10_jmethodIDPK6jvalueE",
   "return_type" : "_ZTIf",
   "self_type" : "_ZTIFfP7_JNIEnvP7_jclassP10_jmethodIDPK6jvalueE",
   "source_file" : "libnativehelper/include_jni/jni.h"
  },
  {
   "alignment" : 4,
   "linker_set_key" : "_ZTIFfP7_JNIEnvP7_jclassP10_jmethodIDSt9__va_listE",
   "name" : "float (_JNIEnv *, _jclass *, _jmethodID *, std::__va_list)",
   "parameters" :
   [
    {
     "referenced_type" : "_ZTIP7_JNIEnv"
    },
    {
     "referenced_type" : "_ZTIP7_jclass"
    },
    {
     "referenced_type" : "_ZTIP10_jmethodID"
    },
    {
     "referenced_type" : "_ZTISt9__va_list"
    }
   ],
   "referenced_type" : "_ZTIFfP7_JNIEnvP7_jclassP10_jmethodIDSt9__va_listE",
   "return_type" : "_ZTIf",
   "self_type" : "_ZTIFfP7_JNIEnvP7_jclassP10_jmethodIDSt9__va_listE",
   "source_file" : "libnativehelper/include_jni/jni.h"
  },
  {
   "alignment" : 4,
   "linker_set_key" : "_ZTIFfP7_JNIEnvP7_jclassP10_jmethodIDzE",
   "name" : "float (_JNIEnv *, _jclass *, _jmethodID *, ...)",
   "parameters" :
   [
    {
     "referenced_type" : "_ZTIP7_JNIEnv"
    },
    {
     "referenced_type" : "_ZTIP7_jclass"
    },
    {
     "referenced_type" : "_ZTIP10_jmethodID"
    }
   ],
   "referenced_type" : "_ZTIFfP7_JNIEnvP7_jclassP10_jmethodIDzE",
   "return_type" : "_ZTIf",
   "self_type" : "_ZTIFfP7_JNIEnvP7_jclassP10_jmethodIDzE",
   "source_file" : "libnativehelper/include_jni/jni.h"
  },
  {
   "alignment" : 4,
   "linker_set_key" : "_ZTIFfP7_JNIEnvP7_jclassP9_jfieldIDE",
   "name" : "float (_JNIEnv *, _jclass *, _jfieldID *)",
   "parameters" :
   [
    {
     "referenced_type" : "_ZTIP7_JNIEnv"
    },
    {
     "referenced_type" : "_ZTIP7_jclass"
    },
    {
     "referenced_type" : "_ZTIP9_jfieldID"
    }
   ],
   "referenced_type" : "_ZTIFfP7_JNIEnvP7_jclassP9_jfieldIDE",
   "return_type" : "_ZTIf",
   "self_type" : "_ZTIFfP7_JNIEnvP7_jclassP9_jfieldIDE",
   "source_file" : "libnativehelper/include_jni/jni.h"
  },
  {
   "alignment" : 4,
   "linker_set_key" : "_ZTIFfP7_JNIEnvP8_jobjectP10_jmethodIDPK6jvalueE",
   "name" : "float (_JNIEnv *, _jobject *, _jmethodID *, const jvalue *)",
   "parameters" :
   [
    {
     "referenced_type" : "_ZTIP7_JNIEnv"
    },
    {
     "referenced_type" : "_ZTIP8_jobject"
    },
    {
     "referenced_type" : "_ZTIP10_jmethodID"
    },
    {
     "referenced_type" : "_ZTIPK6jvalue"
    }
   ],
   "referenced_type" : "_ZTIFfP7_JNIEnvP8_jobjectP10_jmethodIDPK6jvalueE",
   "return_type" : "_ZTIf",
   "self_type" : "_ZTIFfP7_JNIEnvP8_jobjectP10_jmethodIDPK6jvalueE",
   "source_file" : "libnativehelper/include_jni/jni.h"
  },
  {
   "alignment" : 4,
   "linker_set_key" : "_ZTIFfP7_JNIEnvP8_jobjectP10_jmethodIDSt9__va_listE",
   "name" : "float (_JNIEnv *, _jobject *, _jmethodID *, std::__va_list)",
   "parameters" :
   [
    {
     "referenced_type" : "_ZTIP7_JNIEnv"
    },
    {
     "referenced_type" : "_ZTIP8_jobject"
    },
    {
     "referenced_type" : "_ZTIP10_jmethodID"
    },
    {
     "referenced_type" : "_ZTISt9__va_list"
    }
   ],
   "referenced_type" : "_ZTIFfP7_JNIEnvP8_jobjectP10_jmethodIDSt9__va_listE",
   "return_type" : "_ZTIf",
   "self_type" : "_ZTIFfP7_JNIEnvP8_jobjectP10_jmethodIDSt9__va_listE",
   "source_file" : "libnativehelper/include_jni/jni.h"
  },
  {
   "alignment" : 4,
   "linker_set_key" : "_ZTIFfP7_JNIEnvP8_jobjectP10_jmethodIDzE",
   "name" : "float (_JNIEnv *, _jobject *, _jmethodID *, ...)",
   "parameters" :
   [
    {
     "referenced_type" : "_ZTIP7_JNIEnv"
    },
    {
     "referenced_type" : "_ZTIP8_jobject"
    },
    {
     "referenced_type" : "_ZTIP10_jmethodID"
    }
   ],
   "referenced_type" : "_ZTIFfP7_JNIEnvP8_jobjectP10_jmethodIDzE",
   "return_type" : "_ZTIf",
   "self_type" : "_ZTIFfP7_JNIEnvP8_jobjectP10_jmethodIDzE",
   "source_file" : "libnativehelper/include_jni/jni.h"
  },
  {
   "alignment" : 4,
   "linker_set_key" : "_ZTIFfP7_JNIEnvP8_jobjectP7_jclassP10_jmethodIDPK6jvalueE",
   "name" : "float (_JNIEnv *, _jobject *, _jclass *, _jmethodID *, const jvalue *)",
   "parameters" :
   [
    {
     "referenced_type" : "_ZTIP7_JNIEnv"
    },
    {
     "referenced_type" : "_ZTIP8_jobject"
    },
    {
     "referenced_type" : "_ZTIP7_jclass"
    },
    {
     "referenced_type" : "_ZTIP10_jmethodID"
    },
    {
     "referenced_type" : "_ZTIPK6jvalue"
    }
   ],
   "referenced_type" : "_ZTIFfP7_JNIEnvP8_jobjectP7_jclassP10_jmethodIDPK6jvalueE",
   "return_type" : "_ZTIf",
   "self_type" : "_ZTIFfP7_JNIEnvP8_jobjectP7_jclassP10_jmethodIDPK6jvalueE",
   "source_file" : "libnativehelper/include_jni/jni.h"
  },
  {
   "alignment" : 4,
   "linker_set_key" : "_ZTIFfP7_JNIEnvP8_jobjectP7_jclassP10_jmethodIDSt9__va_listE",
   "name" : "float (_JNIEnv *, _jobject *, _jclass *, _jmethodID *, std::__va_list)",
   "parameters" :
   [
    {
     "referenced_type" : "_ZTIP7_JNIEnv"
    },
    {
     "referenced_type" : "_ZTIP8_jobject"
    },
    {
     "referenced_type" : "_ZTIP7_jclass"
    },
    {
     "referenced_type" : "_ZTIP10_jmethodID"
    },
    {
     "referenced_type" : "_ZTISt9__va_list"
    }
   ],
   "referenced_type" : "_ZTIFfP7_JNIEnvP8_jobjectP7_jclassP10_jmethodIDSt9__va_listE",
   "return_type" : "_ZTIf",
   "self_type" : "_ZTIFfP7_JNIEnvP8_jobjectP7_jclassP10_jmethodIDSt9__va_listE",
   "source_file" : "libnativehelper/include_jni/jni.h"
  },
  {
   "alignment" : 4,
   "linker_set_key" : "_ZTIFfP7_JNIEnvP8_jobjectP7_jclassP10_jmethodIDzE",
   "name" : "float (_JNIEnv *, _jobject *, _jclass *, _jmethodID *, ...)",
   "parameters" :
   [
    {
     "referenced_type" : "_ZTIP7_JNIEnv"
    },
    {
     "referenced_type" : "_ZTIP8_jobject"
    },
    {
     "referenced_type" : "_ZTIP7_jclass"
    },
    {
     "referenced_type" : "_ZTIP10_jmethodID"
    }
   ],
   "referenced_type" : "_ZTIFfP7_JNIEnvP8_jobjectP7_jclassP10_jmethodIDzE",
   "return_type" : "_ZTIf",
   "self_type" : "_ZTIFfP7_JNIEnvP8_jobjectP7_jclassP10_jmethodIDzE",
   "source_file" : "libnativehelper/include_jni/jni.h"
  },
  {
   "alignment" : 4,
   "linker_set_key" : "_ZTIFfP7_JNIEnvP8_jobjectP9_jfieldIDE",
   "name" : "float (_JNIEnv *, _jobject *, _jfieldID *)",
   "parameters" :
   [
    {
     "referenced_type" : "_ZTIP7_JNIEnv"
    },
    {
     "referenced_type" : "_ZTIP8_jobject"
    },
    {
     "referenced_type" : "_ZTIP9_jfieldID"
    }
   ],
   "referenced_type" : "_ZTIFfP7_JNIEnvP8_jobjectP9_jfieldIDE",
   "return_type" : "_ZTIf",
   "self_type" : "_ZTIFfP7_JNIEnvP8_jobjectP9_jfieldIDE",
   "source_file" : "libnativehelper/include_jni/jni.h"
  },
  {
   "alignment" : 4,
   "linker_set_key" : "_ZTIFhP7_JNIEnvE",
   "name" : "unsigned char (_JNIEnv *)",
   "parameters" :
   [
    {
     "referenced_type" : "_ZTIP7_JNIEnv"
    }
   ],
   "referenced_type" : "_ZTIFhP7_JNIEnvE",
   "return_type" : "_ZTIh",
   "self_type" : "_ZTIFhP7_JNIEnvE",
   "source_file" : "libnativehelper/include_jni/jni.h"
  },
  {
   "alignment" : 4,
   "linker_set_key" : "_ZTIFhP7_JNIEnvP7_jclassP10_jmethodIDPK6jvalueE",
   "name" : "unsigned char (_JNIEnv *, _jclass *, _jmethodID *, const jvalue *)",
   "parameters" :
   [
    {
     "referenced_type" : "_ZTIP7_JNIEnv"
    },
    {
     "referenced_type" : "_ZTIP7_jclass"
    },
    {
     "referenced_type" : "_ZTIP10_jmethodID"
    },
    {
     "referenced_type" : "_ZTIPK6jvalue"
    }
   ],
   "referenced_type" : "_ZTIFhP7_JNIEnvP7_jclassP10_jmethodIDPK6jvalueE",
   "return_type" : "_ZTIh",
   "self_type" : "_ZTIFhP7_JNIEnvP7_jclassP10_jmethodIDPK6jvalueE",
   "source_file" : "libnativehelper/include_jni/jni.h"
  },
  {
   "alignment" : 4,
   "linker_set_key" : "_ZTIFhP7_JNIEnvP7_jclassP10_jmethodIDSt9__va_listE",
   "name" : "unsigned char (_JNIEnv *, _jclass *, _jmethodID *, std::__va_list)",
   "parameters" :
   [
    {
     "referenced_type" : "_ZTIP7_JNIEnv"
    },
    {
     "referenced_type" : "_ZTIP7_jclass"
    },
    {
     "referenced_type" : "_ZTIP10_jmethodID"
    },
    {
     "referenced_type" : "_ZTISt9__va_list"
    }
   ],
   "referenced_type" : "_ZTIFhP7_JNIEnvP7_jclassP10_jmethodIDSt9__va_listE",
   "return_type" : "_ZTIh",
   "self_type" : "_ZTIFhP7_JNIEnvP7_jclassP10_jmethodIDSt9__va_listE",
   "source_file" : "libnativehelper/include_jni/jni.h"
  },
  {
   "alignment" : 4,
   "linker_set_key" : "_ZTIFhP7_JNIEnvP7_jclassP10_jmethodIDzE",
   "name" : "unsigned char (_JNIEnv *, _jclass *, _jmethodID *, ...)",
   "parameters" :
   [
    {
     "referenced_type" : "_ZTIP7_JNIEnv"
    },
    {
     "referenced_type" : "_ZTIP7_jclass"
    },
    {
     "referenced_type" : "_ZTIP10_jmethodID"
    }
   ],
   "referenced_type" : "_ZTIFhP7_JNIEnvP7_jclassP10_jmethodIDzE",
   "return_type" : "_ZTIh",
   "self_type" : "_ZTIFhP7_JNIEnvP7_jclassP10_jmethodIDzE",
   "source_file" : "libnativehelper/include_jni/jni.h"
  },
  {
   "alignment" : 4,
   "linker_set_key" : "_ZTIFhP7_JNIEnvP7_jclassP9_jfieldIDE",
   "name" : "unsigned char (_JNIEnv *, _jclass *, _jfieldID *)",
   "parameters" :
   [
    {
     "referenced_type" : "_ZTIP7_JNIEnv"
    },
    {
     "referenced_type" : "_ZTIP7_jclass"
    },
    {
     "referenced_type" : "_ZTIP9_jfieldID"
    }
   ],
   "referenced_type" : "_ZTIFhP7_JNIEnvP7_jclassP9_jfieldIDE",
   "return_type" : "_ZTIh",
   "self_type" : "_ZTIFhP7_JNIEnvP7_jclassP9_jfieldIDE",
   "source_file" : "libnativehelper/include_jni/jni.h"
  },
  {
   "alignment" : 4,
   "linker_set_key" : "_ZTIFhP7_JNIEnvP7_jclassS2_E",
   "name" : "unsigned char (_JNIEnv *, _jclass *, _jclass *)",
   "parameters" :
   [
    {
     "referenced_type" : "_ZTIP7_JNIEnv"
    },
    {
     "referenced_type" : "_ZTIP7_jclass"
    },
    {
     "referenced_type" : "_ZTIP7_jclass"
    }
   ],
   "referenced_type" : "_ZTIFhP7_JNIEnvP7_jclassS2_E",
   "return_type" : "_ZTIh",
   "self_type" : "_ZTIFhP7_JNIEnvP7_jclassS2_E",
   "source_file" : "libnativehelper/include_jni/jni.h"
  },
  {
   "alignment" : 4,
   "linker_set_key" : "_ZTIFhP7_JNIEnvP8_jobjectP10_jmethodIDPK6jvalueE",
   "name" : "unsigned char (_JNIEnv *, _jobject *, _jmethodID *, const jvalue *)",
   "parameters" :
   [
    {
     "referenced_type" : "_ZTIP7_JNIEnv"
    },
    {
     "referenced_type" : "_ZTIP8_jobject"
    },
    {
     "referenced_type" : "_ZTIP10_jmethodID"
    },
    {
     "referenced_type" : "_ZTIPK6jvalue"
    }
   ],
   "referenced_type" : "_ZTIFhP7_JNIEnvP8_jobjectP10_jmethodIDPK6jvalueE",
   "return_type" : "_ZTIh",
   "self_type" : "_ZTIFhP7_JNIEnvP8_jobjectP10_jmethodIDPK6jvalueE",
   "source_file" : "libnativehelper/include_jni/jni.h"
  },
  {
   "alignment" : 4,
   "linker_set_key" : "_ZTIFhP7_JNIEnvP8_jobjectP10_jmethodIDSt9__va_listE",
   "name" : "unsigned char (_JNIEnv *, _jobject *, _jmethodID *, std::__va_list)",
   "parameters" :
   [
    {
     "referenced_type" : "_ZTIP7_JNIEnv"
    },
    {
     "referenced_type" : "_ZTIP8_jobject"
    },
    {
     "referenced_type" : "_ZTIP10_jmethodID"
    },
    {
     "referenced_type" : "_ZTISt9__va_list"
    }
   ],
   "referenced_type" : "_ZTIFhP7_JNIEnvP8_jobjectP10_jmethodIDSt9__va_listE",
   "return_type" : "_ZTIh",
   "self_type" : "_ZTIFhP7_JNIEnvP8_jobjectP10_jmethodIDSt9__va_listE",
   "source_file" : "libnativehelper/include_jni/jni.h"
  },
  {
   "alignment" : 4,
   "linker_set_key" : "_ZTIFhP7_JNIEnvP8_jobjectP10_jmethodIDzE",
   "name" : "unsigned char (_JNIEnv *, _jobject *, _jmethodID *, ...)",
   "parameters" :
   [
    {
     "referenced_type" : "_ZTIP7_JNIEnv"
    },
    {
     "referenced_type" : "_ZTIP8_jobject"
    },
    {
     "referenced_type" : "_ZTIP10_jmethodID"
    }
   ],
   "referenced_type" : "_ZTIFhP7_JNIEnvP8_jobjectP10_jmethodIDzE",
   "return_type" : "_ZTIh",
   "self_type" : "_ZTIFhP7_JNIEnvP8_jobjectP10_jmethodIDzE",
   "source_file" : "libnativehelper/include_jni/jni.h"
  },
  {
   "alignment" : 4,
   "linker_set_key" : "_ZTIFhP7_JNIEnvP8_jobjectP7_jclassE",
   "name" : "unsigned char (_JNIEnv *, _jobject *, _jclass *)",
   "parameters" :
   [
    {
     "referenced_type" : "_ZTIP7_JNIEnv"
    },
    {
     "referenced_type" : "_ZTIP8_jobject"
    },
    {
     "referenced_type" : "_ZTIP7_jclass"
    }
   ],
   "referenced_type" : "_ZTIFhP7_JNIEnvP8_jobjectP7_jclassE",
   "return_type" : "_ZTIh",
   "self_type" : "_ZTIFhP7_JNIEnvP8_jobjectP7_jclassE",
   "source_file" : "libnativehelper/include_jni/jni.h"
  },
  {
   "alignment" : 4,
   "linker_set_key" : "_ZTIFhP7_JNIEnvP8_jobjectP7_jclassP10_jmethodIDPK6jvalueE",
   "name" : "unsigned char (_JNIEnv *, _jobject *, _jclass *, _jmethodID *, const jvalue *)",
   "parameters" :
   [
    {
     "referenced_type" : "_ZTIP7_JNIEnv"
    },
    {
     "referenced_type" : "_ZTIP8_jobject"
    },
    {
     "referenced_type" : "_ZTIP7_jclass"
    },
    {
     "referenced_type" : "_ZTIP10_jmethodID"
    },
    {
     "referenced_type" : "_ZTIPK6jvalue"
    }
   ],
   "referenced_type" : "_ZTIFhP7_JNIEnvP8_jobjectP7_jclassP10_jmethodIDPK6jvalueE",
   "return_type" : "_ZTIh",
   "self_type" : "_ZTIFhP7_JNIEnvP8_jobjectP7_jclassP10_jmethodIDPK6jvalueE",
   "source_file" : "libnativehelper/include_jni/jni.h"
  },
  {
   "alignment" : 4,
   "linker_set_key" : "_ZTIFhP7_JNIEnvP8_jobjectP7_jclassP10_jmethodIDSt9__va_listE",
   "name" : "unsigned char (_JNIEnv *, _jobject *, _jclass *, _jmethodID *, std::__va_list)",
   "parameters" :
   [
    {
     "referenced_type" : "_ZTIP7_JNIEnv"
    },
    {
     "referenced_type" : "_ZTIP8_jobject"
    },
    {
     "referenced_type" : "_ZTIP7_jclass"
    },
    {
     "referenced_type" : "_ZTIP10_jmethodID"
    },
    {
     "referenced_type" : "_ZTISt9__va_list"
    }
   ],
   "referenced_type" : "_ZTIFhP7_JNIEnvP8_jobjectP7_jclassP10_jmethodIDSt9__va_listE",
   "return_type" : "_ZTIh",
   "self_type" : "_ZTIFhP7_JNIEnvP8_jobjectP7_jclassP10_jmethodIDSt9__va_listE",
   "source_file" : "libnativehelper/include_jni/jni.h"
  },
  {
   "alignment" : 4,
   "linker_set_key" : "_ZTIFhP7_JNIEnvP8_jobjectP7_jclassP10_jmethodIDzE",
   "name" : "unsigned char (_JNIEnv *, _jobject *, _jclass *, _jmethodID *, ...)",
   "parameters" :
   [
    {
     "referenced_type" : "_ZTIP7_JNIEnv"
    },
    {
     "referenced_type" : "_ZTIP8_jobject"
    },
    {
     "referenced_type" : "_ZTIP7_jclass"
    },
    {
     "referenced_type" : "_ZTIP10_jmethodID"
    }
   ],
   "referenced_type" : "_ZTIFhP7_JNIEnvP8_jobjectP7_jclassP10_jmethodIDzE",
   "return_type" : "_ZTIh",
   "self_type" : "_ZTIFhP7_JNIEnvP8_jobjectP7_jclassP10_jmethodIDzE",
   "source_file" : "libnativehelper/include_jni/jni.h"
  },
  {
   "alignment" : 4,
   "linker_set_key" : "_ZTIFhP7_JNIEnvP8_jobjectP9_jfieldIDE",
   "name" : "unsigned char (_JNIEnv *, _jobject *, _jfieldID *)",
   "parameters" :
   [
    {
     "referenced_type" : "_ZTIP7_JNIEnv"
    },
    {
     "referenced_type" : "_ZTIP8_jobject"
    },
    {
     "referenced_type" : "_ZTIP9_jfieldID"
    }
   ],
   "referenced_type" : "_ZTIFhP7_JNIEnvP8_jobjectP9_jfieldIDE",
   "return_type" : "_ZTIh",
   "self_type" : "_ZTIFhP7_JNIEnvP8_jobjectP9_jfieldIDE",
   "source_file" : "libnativehelper/include_jni/jni.h"
  },
  {
   "alignment" : 4,
   "linker_set_key" : "_ZTIFhP7_JNIEnvP8_jobjectS2_E",
   "name" : "unsigned char (_JNIEnv *, _jobject *, _jobject *)",
   "parameters" :
   [
    {
     "referenced_type" : "_ZTIP7_JNIEnv"
    },
    {
     "referenced_type" : "_ZTIP8_jobject"
    },
    {
     "referenced_type" : "_ZTIP8_jobject"
    }
   ],
   "referenced_type" : "_ZTIFhP7_JNIEnvP8_jobjectS2_E",
   "return_type" : "_ZTIh",
   "self_type" : "_ZTIFhP7_JNIEnvP8_jobjectS2_E",
   "source_file" : "libnativehelper/include_jni/jni.h"
  },
  {
   "alignment" : 4,
   "linker_set_key" : "_ZTIFiP7_JNIEnvE",
   "name" : "int (_JNIEnv *)",
   "parameters" :
   [
    {
     "referenced_type" : "_ZTIP7_JNIEnv"
    }
   ],
   "referenced_type" : "_ZTIFiP7_JNIEnvE",
   "return_type" : "_ZTIi",
   "self_type" : "_ZTIFiP7_JNIEnvE",
   "source_file" : "libnativehelper/include_jni/jni.h"
  },
  {
   "alignment" : 4,
   "linker_set_key" : "_ZTIFiP7_JNIEnvP11_jthrowableE",
   "name" : "int (_JNIEnv *, _jthrowable *)",
   "parameters" :
   [
    {
     "referenced_type" : "_ZTIP7_JNIEnv"
    },
    {
     "referenced_type" : "_ZTIP11_jthrowable"
    }
   ],
   "referenced_type" : "_ZTIFiP7_JNIEnvP11_jthrowableE",
   "return_type" : "_ZTIi",
   "self_type" : "_ZTIFiP7_JNIEnvP11_jthrowableE",
   "source_file" : "libnativehelper/include_jni/jni.h"
  },
  {
   "alignment" : 4,
   "linker_set_key" : "_ZTIFiP7_JNIEnvP7_jarrayE",
   "name" : "int (_JNIEnv *, _jarray *)",
   "parameters" :
   [
    {
     "referenced_type" : "_ZTIP7_JNIEnv"
    },
    {
     "referenced_type" : "_ZTIP7_jarray"
    }
   ],
   "referenced_type" : "_ZTIFiP7_JNIEnvP7_jarrayE",
   "return_type" : "_ZTIi",
   "self_type" : "_ZTIFiP7_JNIEnvP7_jarrayE",
   "source_file" : "libnativehelper/include_jni/jni.h"
  },
  {
   "alignment" : 4,
   "linker_set_key" : "_ZTIFiP7_JNIEnvP7_jclassE",
   "name" : "int (_JNIEnv *, _jclass *)",
   "parameters" :
   [
    {
     "referenced_type" : "_ZTIP7_JNIEnv"
    },
    {
     "referenced_type" : "_ZTIP7_jclass"
    }
   ],
   "referenced_type" : "_ZTIFiP7_JNIEnvP7_jclassE",
   "return_type" : "_ZTIi",
   "self_type" : "_ZTIFiP7_JNIEnvP7_jclassE",
   "source_file" : "libnativehelper/include_jni/jni.h"
  },
  {
   "alignment" : 4,
   "linker_set_key" : "_ZTIFiP7_JNIEnvP7_jclassP10_jmethodIDPK6jvalueE",
   "name" : "int (_JNIEnv *, _jclass *, _jmethodID *, const jvalue *)",
   "parameters" :
   [
    {
     "referenced_type" : "_ZTIP7_JNIEnv"
    },
    {
     "referenced_type" : "_ZTIP7_jclass"
    },
    {
     "referenced_type" : "_ZTIP10_jmethodID"
    },
    {
     "referenced_type" : "_ZTIPK6jvalue"
    }
   ],
   "referenced_type" : "_ZTIFiP7_JNIEnvP7_jclassP10_jmethodIDPK6jvalueE",
   "return_type" : "_ZTIi",
   "self_type" : "_ZTIFiP7_JNIEnvP7_jclassP10_jmethodIDPK6jvalueE",
   "source_file" : "libnativehelper/include_jni/jni.h"
  },
  {
   "alignment" : 4,
   "linker_set_key" : "_ZTIFiP7_JNIEnvP7_jclassP10_jmethodIDSt9__va_listE",
   "name" : "int (_JNIEnv *, _jclass *, _jmethodID *, std::__va_list)",
   "parameters" :
   [
    {
     "referenced_type" : "_ZTIP7_JNIEnv"
    },
    {
     "referenced_type" : "_ZTIP7_jclass"
    },
    {
     "referenced_type" : "_ZTIP10_jmethodID"
    },
    {
     "referenced_type" : "_ZTISt9__va_list"
    }
   ],
   "referenced_type" : "_ZTIFiP7_JNIEnvP7_jclassP10_jmethodIDSt9__va_listE",
   "return_type" : "_ZTIi",
   "self_type" : "_ZTIFiP7_JNIEnvP7_jclassP10_jmethodIDSt9__va_listE",
   "source_file" : "libnativehelper/include_jni/jni.h"
  },
  {
   "alignment" : 4,
   "linker_set_key" : "_ZTIFiP7_JNIEnvP7_jclassP10_jmethodIDzE",
   "name" : "int (_JNIEnv *, _jclass *, _jmethodID *, ...)",
   "parameters" :
   [
    {
     "referenced_type" : "_ZTIP7_JNIEnv"
    },
    {
     "referenced_type" : "_ZTIP7_jclass"
    },
    {
     "referenced_type" : "_ZTIP10_jmethodID"
    }
   ],
   "referenced_type" : "_ZTIFiP7_JNIEnvP7_jclassP10_jmethodIDzE",
   "return_type" : "_ZTIi",
   "self_type" : "_ZTIFiP7_JNIEnvP7_jclassP10_jmethodIDzE",
   "source_file" : "libnativehelper/include_jni/jni.h"
  },
  {
   "alignment" : 4,
   "linker_set_key" : "_ZTIFiP7_JNIEnvP7_jclassP9_jfieldIDE",
   "name" : "int (_JNIEnv *, _jclass *, _jfieldID *)",
   "parameters" :
   [
    {
     "referenced_type" : "_ZTIP7_JNIEnv"
    },
    {
     "referenced_type" : "_ZTIP7_jclass"
    },
    {
     "referenced_type" : "_ZTIP9_jfieldID"
    }
   ],
   "referenced_type" : "_ZTIFiP7_JNIEnvP7_jclassP9_jfieldIDE",
   "return_type" : "_ZTIi",
   "self_type" : "_ZTIFiP7_JNIEnvP7_jclassP9_jfieldIDE",
   "source_file" : "libnativehelper/include_jni/jni.h"
  },
  {
   "alignment" : 4,
   "linker_set_key" : "_ZTIFiP7_JNIEnvP7_jclassPK15JNINativeMethodiE",
   "name" : "int (_JNIEnv *, _jclass *, const JNINativeMethod *, int)",
   "parameters" :
   [
    {
     "referenced_type" : "_ZTIP7_JNIEnv"
    },
    {
     "referenced_type" : "_ZTIP7_jclass"
    },
    {
     "referenced_type" : "_ZTIPK15JNINativeMethod"
    },
    {
     "referenced_type" : "_ZTIi"
    }
   ],
   "referenced_type" : "_ZTIFiP7_JNIEnvP7_jclassPK15JNINativeMethodiE",
   "return_type" : "_ZTIi",
   "self_type" : "_ZTIFiP7_JNIEnvP7_jclassPK15JNINativeMethodiE",
   "source_file" : "libnativehelper/include_jni/jni.h"
  },
  {
   "alignment" : 4,
   "linker_set_key" : "_ZTIFiP7_JNIEnvP7_jclassPKcE",
   "name" : "int (_JNIEnv *, _jclass *, const char *)",
   "parameters" :
   [
    {
     "referenced_type" : "_ZTIP7_JNIEnv"
    },
    {
     "referenced_type" : "_ZTIP7_jclass"
    },
    {
     "referenced_type" : "_ZTIPKc"
    }
   ],
   "referenced_type" : "_ZTIFiP7_JNIEnvP7_jclassPKcE",
   "return_type" : "_ZTIi",
   "self_type" : "_ZTIFiP7_JNIEnvP7_jclassPKcE",
   "source_file" : "libnativehelper/include_jni/jni.h"
  },
  {
   "alignment" : 4,
   "linker_set_key" : "_ZTIFiP7_JNIEnvP8_jobjectE",
   "name" : "int (_JNIEnv *, _jobject *)",
   "parameters" :
   [
    {
     "referenced_type" : "_ZTIP7_JNIEnv"
    },
    {
     "referenced_type" : "_ZTIP8_jobject"
    }
   ],
   "referenced_type" : "_ZTIFiP7_JNIEnvP8_jobjectE",
   "return_type" : "_ZTIi",
   "self_type" : "_ZTIFiP7_JNIEnvP8_jobjectE",
   "source_file" : "libnativehelper/include_jni/jni.h"
  },
  {
   "alignment" : 4,
   "linker_set_key" : "_ZTIFiP7_JNIEnvP8_jobjectP10_jmethodIDPK6jvalueE",
   "name" : "int (_JNIEnv *, _jobject *, _jmethodID *, const jvalue *)",
   "parameters" :
   [
    {
     "referenced_type" : "_ZTIP7_JNIEnv"
    },
    {
     "referenced_type" : "_ZTIP8_jobject"
    },
    {
     "referenced_type" : "_ZTIP10_jmethodID"
    },
    {
     "referenced_type" : "_ZTIPK6jvalue"
    }
   ],
   "referenced_type" : "_ZTIFiP7_JNIEnvP8_jobjectP10_jmethodIDPK6jvalueE",
   "return_type" : "_ZTIi",
   "self_type" : "_ZTIFiP7_JNIEnvP8_jobjectP10_jmethodIDPK6jvalueE",
   "source_file" : "libnativehelper/include_jni/jni.h"
  },
  {
   "alignment" : 4,
   "linker_set_key" : "_ZTIFiP7_JNIEnvP8_jobjectP10_jmethodIDSt9__va_listE",
   "name" : "int (_JNIEnv *, _jobject *, _jmethodID *, std::__va_list)",
   "parameters" :
   [
    {
     "referenced_type" : "_ZTIP7_JNIEnv"
    },
    {
     "referenced_type" : "_ZTIP8_jobject"
    },
    {
     "referenced_type" : "_ZTIP10_jmethodID"
    },
    {
     "referenced_type" : "_ZTISt9__va_list"
    }
   ],
   "referenced_type" : "_ZTIFiP7_JNIEnvP8_jobjectP10_jmethodIDSt9__va_listE",
   "return_type" : "_ZTIi",
   "self_type" : "_ZTIFiP7_JNIEnvP8_jobjectP10_jmethodIDSt9__va_listE",
   "source_file" : "libnativehelper/include_jni/jni.h"
  },
  {
   "alignment" : 4,
   "linker_set_key" : "_ZTIFiP7_JNIEnvP8_jobjectP10_jmethodIDzE",
   "name" : "int (_JNIEnv *, _jobject *, _jmethodID *, ...)",
   "parameters" :
   [
    {
     "referenced_type" : "_ZTIP7_JNIEnv"
    },
    {
     "referenced_type" : "_ZTIP8_jobject"
    },
    {
     "referenced_type" : "_ZTIP10_jmethodID"
    }
   ],
   "referenced_type" : "_ZTIFiP7_JNIEnvP8_jobjectP10_jmethodIDzE",
   "return_type" : "_ZTIi",
   "self_type" : "_ZTIFiP7_JNIEnvP8_jobjectP10_jmethodIDzE",
   "source_file" : "libnativehelper/include_jni/jni.h"
  },
  {
   "alignment" : 4,
   "linker_set_key" : "_ZTIFiP7_JNIEnvP8_jobjectP7_jclassP10_jmethodIDPK6jvalueE",
   "name" : "int (_JNIEnv *, _jobject *, _jclass *, _jmethodID *, const jvalue *)",
   "parameters" :
   [
    {
     "referenced_type" : "_ZTIP7_JNIEnv"
    },
    {
     "referenced_type" : "_ZTIP8_jobject"
    },
    {
     "referenced_type" : "_ZTIP7_jclass"
    },
    {
     "referenced_type" : "_ZTIP10_jmethodID"
    },
    {
     "referenced_type" : "_ZTIPK6jvalue"
    }
   ],
   "referenced_type" : "_ZTIFiP7_JNIEnvP8_jobjectP7_jclassP10_jmethodIDPK6jvalueE",
   "return_type" : "_ZTIi",
   "self_type" : "_ZTIFiP7_JNIEnvP8_jobjectP7_jclassP10_jmethodIDPK6jvalueE",
   "source_file" : "libnativehelper/include_jni/jni.h"
  },
  {
   "alignment" : 4,
   "linker_set_key" : "_ZTIFiP7_JNIEnvP8_jobjectP7_jclassP10_jmethodIDSt9__va_listE",
   "name" : "int (_JNIEnv *, _jobject *, _jclass *, _jmethodID *, std::__va_list)",
   "parameters" :
   [
    {
     "referenced_type" : "_ZTIP7_JNIEnv"
    },
    {
     "referenced_type" : "_ZTIP8_jobject"
    },
    {
     "referenced_type" : "_ZTIP7_jclass"
    },
    {
     "referenced_type" : "_ZTIP10_jmethodID"
    },
    {
     "referenced_type" : "_ZTISt9__va_list"
    }
   ],
   "referenced_type" : "_ZTIFiP7_JNIEnvP8_jobjectP7_jclassP10_jmethodIDSt9__va_listE",
   "return_type" : "_ZTIi",
   "self_type" : "_ZTIFiP7_JNIEnvP8_jobjectP7_jclassP10_jmethodIDSt9__va_listE",
   "source_file" : "libnativehelper/include_jni/jni.h"
  },
  {
   "alignment" : 4,
   "linker_set_key" : "_ZTIFiP7_JNIEnvP8_jobjectP7_jclassP10_jmethodIDzE",
   "name" : "int (_JNIEnv *, _jobject *, _jclass *, _jmethodID *, ...)",
   "parameters" :
   [
    {
     "referenced_type" : "_ZTIP7_JNIEnv"
    },
    {
     "referenced_type" : "_ZTIP8_jobject"
    },
    {
     "referenced_type" : "_ZTIP7_jclass"
    },
    {
     "referenced_type" : "_ZTIP10_jmethodID"
    }
   ],
   "referenced_type" : "_ZTIFiP7_JNIEnvP8_jobjectP7_jclassP10_jmethodIDzE",
   "return_type" : "_ZTIi",
   "self_type" : "_ZTIFiP7_JNIEnvP8_jobjectP7_jclassP10_jmethodIDzE",
   "source_file" : "libnativehelper/include_jni/jni.h"
  },
  {
   "alignment" : 4,
   "linker_set_key" : "_ZTIFiP7_JNIEnvP8_jobjectP9_jfieldIDE",
   "name" : "int (_JNIEnv *, _jobject *, _jfieldID *)",
   "parameters" :
   [
    {
     "referenced_type" : "_ZTIP7_JNIEnv"
    },
    {
     "referenced_type" : "_ZTIP8_jobject"
    },
    {
     "referenced_type" : "_ZTIP9_jfieldID"
    }
   ],
   "referenced_type" : "_ZTIFiP7_JNIEnvP8_jobjectP9_jfieldIDE",
   "return_type" : "_ZTIi",
   "self_type" : "_ZTIFiP7_JNIEnvP8_jobjectP9_jfieldIDE",
   "source_file" : "libnativehelper/include_jni/jni.h"
  },
  {
   "alignment" : 4,
   "linker_set_key" : "_ZTIFiP7_JNIEnvP8_jstringE",
   "name" : "int (_JNIEnv *, _jstring *)",
   "parameters" :
   [
    {
     "referenced_type" : "_ZTIP7_JNIEnv"
    },
    {
     "referenced_type" : "_ZTIP8_jstring"
    }
   ],
   "referenced_type" : "_ZTIFiP7_JNIEnvP8_jstringE",
   "return_type" : "_ZTIi",
   "self_type" : "_ZTIFiP7_JNIEnvP8_jstringE",
   "source_file" : "libnativehelper/include_jni/jni.h"
  },
  {
   "alignment" : 4,
   "linker_set_key" : "_ZTIFiP7_JNIEnvPP7_JavaVME",
   "name" : "int (_JNIEnv *, _JavaVM **)",
   "parameters" :
   [
    {
     "referenced_type" : "_ZTIP7_JNIEnv"
    },
    {
     "referenced_type" : "_ZTIPP7_JavaVM"
    }
   ],
   "referenced_type" : "_ZTIFiP7_JNIEnvPP7_JavaVME",
   "return_type" : "_ZTIi",
   "self_type" : "_ZTIFiP7_JNIEnvPP7_JavaVME",
   "source_file" : "libnativehelper/include_jni/jni.h"
  },
  {
   "alignment" : 4,
   "linker_set_key" : "_ZTIFiP7_JNIEnviE",
   "name" : "int (_JNIEnv *, int)",
   "parameters" :
   [
    {
     "referenced_type" : "_ZTIP7_JNIEnv"
    },
    {
     "referenced_type" : "_ZTIi"
    }
   ],
   "referenced_type" : "_ZTIFiP7_JNIEnviE",
   "return_type" : "_ZTIi",
   "self_type" : "_ZTIFiP7_JNIEnviE",
   "source_file" : "libnativehelper/include_jni/jni.h"
  },
  {
   "alignment" : 4,
   "linker_set_key" : "_ZTIFiP7_JavaVME",
   "name" : "int (_JavaVM *)",
   "parameters" :
   [
    {
     "referenced_type" : "_ZTIP7_JavaVM"
    }
   ],
   "referenced_type" : "_ZTIFiP7_JavaVME",
   "return_type" : "_ZTIi",
   "self_type" : "_ZTIFiP7_JavaVME",
   "source_file" : "libnativehelper/include_jni/jni.h"
  },
  {
   "alignment" : 4,
   "linker_set_key" : "_ZTIFiP7_JavaVMPP7_JNIEnvPvE",
   "name" : "int (_JavaVM *, _JNIEnv **, void *)",
   "parameters" :
   [
    {
     "referenced_type" : "_ZTIP7_JavaVM"
    },
    {
     "referenced_type" : "_ZTIPP7_JNIEnv"
    },
    {
     "referenced_type" : "_ZTIPv"
    }
   ],
   "referenced_type" : "_ZTIFiP7_JavaVMPP7_JNIEnvPvE",
   "return_type" : "_ZTIi",
   "self_type" : "_ZTIFiP7_JavaVMPP7_JNIEnvPvE",
   "source_file" : "libnativehelper/include_jni/jni.h"
  },
  {
   "alignment" : 4,
   "linker_set_key" : "_ZTIFiP7_JavaVMPPviE",
   "name" : "int (_JavaVM *, void **, int)",
   "parameters" :
   [
    {
     "referenced_type" : "_ZTIP7_JavaVM"
    },
    {
     "referenced_type" : "_ZTIPPv"
    },
    {
     "referenced_type" : "_ZTIi"
    }
   ],
   "referenced_type" : "_ZTIFiP7_JavaVMPPviE",
   "return_type" : "_ZTIi",
   "self_type" : "_ZTIFiP7_JavaVMPPviE",
   "source_file" : "libnativehelper/include_jni/jni.h"
  },
  {
   "alignment" : 4,
   "linker_set_key" : "_ZTIFsP7_JNIEnvP7_jclassP10_jmethodIDPK6jvalueE",
   "name" : "short (_JNIEnv *, _jclass *, _jmethodID *, const jvalue *)",
   "parameters" :
   [
    {
     "referenced_type" : "_ZTIP7_JNIEnv"
    },
    {
     "referenced_type" : "_ZTIP7_jclass"
    },
    {
     "referenced_type" : "_ZTIP10_jmethodID"
    },
    {
     "referenced_type" : "_ZTIPK6jvalue"
    }
   ],
   "referenced_type" : "_ZTIFsP7_JNIEnvP7_jclassP10_jmethodIDPK6jvalueE",
   "return_type" : "_ZTIs",
   "self_type" : "_ZTIFsP7_JNIEnvP7_jclassP10_jmethodIDPK6jvalueE",
   "source_file" : "libnativehelper/include_jni/jni.h"
  },
  {
   "alignment" : 4,
   "linker_set_key" : "_ZTIFsP7_JNIEnvP7_jclassP10_jmethodIDSt9__va_listE",
   "name" : "short (_JNIEnv *, _jclass *, _jmethodID *, std::__va_list)",
   "parameters" :
   [
    {
     "referenced_type" : "_ZTIP7_JNIEnv"
    },
    {
     "referenced_type" : "_ZTIP7_jclass"
    },
    {
     "referenced_type" : "_ZTIP10_jmethodID"
    },
    {
     "referenced_type" : "_ZTISt9__va_list"
    }
   ],
   "referenced_type" : "_ZTIFsP7_JNIEnvP7_jclassP10_jmethodIDSt9__va_listE",
   "return_type" : "_ZTIs",
   "self_type" : "_ZTIFsP7_JNIEnvP7_jclassP10_jmethodIDSt9__va_listE",
   "source_file" : "libnativehelper/include_jni/jni.h"
  },
  {
   "alignment" : 4,
   "linker_set_key" : "_ZTIFsP7_JNIEnvP7_jclassP10_jmethodIDzE",
   "name" : "short (_JNIEnv *, _jclass *, _jmethodID *, ...)",
   "parameters" :
   [
    {
     "referenced_type" : "_ZTIP7_JNIEnv"
    },
    {
     "referenced_type" : "_ZTIP7_jclass"
    },
    {
     "referenced_type" : "_ZTIP10_jmethodID"
    }
   ],
   "referenced_type" : "_ZTIFsP7_JNIEnvP7_jclassP10_jmethodIDzE",
   "return_type" : "_ZTIs",
   "self_type" : "_ZTIFsP7_JNIEnvP7_jclassP10_jmethodIDzE",
   "source_file" : "libnativehelper/include_jni/jni.h"
  },
  {
   "alignment" : 4,
   "linker_set_key" : "_ZTIFsP7_JNIEnvP7_jclassP9_jfieldIDE",
   "name" : "short (_JNIEnv *, _jclass *, _jfieldID *)",
   "parameters" :
   [
    {
     "referenced_type" : "_ZTIP7_JNIEnv"
    },
    {
     "referenced_type" : "_ZTIP7_jclass"
    },
    {
     "referenced_type" : "_ZTIP9_jfieldID"
    }
   ],
   "referenced_type" : "_ZTIFsP7_JNIEnvP7_jclassP9_jfieldIDE",
   "return_type" : "_ZTIs",
   "self_type" : "_ZTIFsP7_JNIEnvP7_jclassP9_jfieldIDE",
   "source_file" : "libnativehelper/include_jni/jni.h"
  },
  {
   "alignment" : 4,
   "linker_set_key" : "_ZTIFsP7_JNIEnvP8_jobjectP10_jmethodIDPK6jvalueE",
   "name" : "short (_JNIEnv *, _jobject *, _jmethodID *, const jvalue *)",
   "parameters" :
   [
    {
     "referenced_type" : "_ZTIP7_JNIEnv"
    },
    {
     "referenced_type" : "_ZTIP8_jobject"
    },
    {
     "referenced_type" : "_ZTIP10_jmethodID"
    },
    {
     "referenced_type" : "_ZTIPK6jvalue"
    }
   ],
   "referenced_type" : "_ZTIFsP7_JNIEnvP8_jobjectP10_jmethodIDPK6jvalueE",
   "return_type" : "_ZTIs",
   "self_type" : "_ZTIFsP7_JNIEnvP8_jobjectP10_jmethodIDPK6jvalueE",
   "source_file" : "libnativehelper/include_jni/jni.h"
  },
  {
   "alignment" : 4,
   "linker_set_key" : "_ZTIFsP7_JNIEnvP8_jobjectP10_jmethodIDSt9__va_listE",
   "name" : "short (_JNIEnv *, _jobject *, _jmethodID *, std::__va_list)",
   "parameters" :
   [
    {
     "referenced_type" : "_ZTIP7_JNIEnv"
    },
    {
     "referenced_type" : "_ZTIP8_jobject"
    },
    {
     "referenced_type" : "_ZTIP10_jmethodID"
    },
    {
     "referenced_type" : "_ZTISt9__va_list"
    }
   ],
   "referenced_type" : "_ZTIFsP7_JNIEnvP8_jobjectP10_jmethodIDSt9__va_listE",
   "return_type" : "_ZTIs",
   "self_type" : "_ZTIFsP7_JNIEnvP8_jobjectP10_jmethodIDSt9__va_listE",
   "source_file" : "libnativehelper/include_jni/jni.h"
  },
  {
   "alignment" : 4,
   "linker_set_key" : "_ZTIFsP7_JNIEnvP8_jobjectP10_jmethodIDzE",
   "name" : "short (_JNIEnv *, _jobject *, _jmethodID *, ...)",
   "parameters" :
   [
    {
     "referenced_type" : "_ZTIP7_JNIEnv"
    },
    {
     "referenced_type" : "_ZTIP8_jobject"
    },
    {
     "referenced_type" : "_ZTIP10_jmethodID"
    }
   ],
   "referenced_type" : "_ZTIFsP7_JNIEnvP8_jobjectP10_jmethodIDzE",
   "return_type" : "_ZTIs",
   "self_type" : "_ZTIFsP7_JNIEnvP8_jobjectP10_jmethodIDzE",
   "source_file" : "libnativehelper/include_jni/jni.h"
  },
  {
   "alignment" : 4,
   "linker_set_key" : "_ZTIFsP7_JNIEnvP8_jobjectP7_jclassP10_jmethodIDPK6jvalueE",
   "name" : "short (_JNIEnv *, _jobject *, _jclass *, _jmethodID *, const jvalue *)",
   "parameters" :
   [
    {
     "referenced_type" : "_ZTIP7_JNIEnv"
    },
    {
     "referenced_type" : "_ZTIP8_jobject"
    },
    {
     "referenced_type" : "_ZTIP7_jclass"
    },
    {
     "referenced_type" : "_ZTIP10_jmethodID"
    },
    {
     "referenced_type" : "_ZTIPK6jvalue"
    }
   ],
   "referenced_type" : "_ZTIFsP7_JNIEnvP8_jobjectP7_jclassP10_jmethodIDPK6jvalueE",
   "return_type" : "_ZTIs",
   "self_type" : "_ZTIFsP7_JNIEnvP8_jobjectP7_jclassP10_jmethodIDPK6jvalueE",
   "source_file" : "libnativehelper/include_jni/jni.h"
  },
  {
   "alignment" : 4,
   "linker_set_key" : "_ZTIFsP7_JNIEnvP8_jobjectP7_jclassP10_jmethodIDSt9__va_listE",
   "name" : "short (_JNIEnv *, _jobject *, _jclass *, _jmethodID *, std::__va_list)",
   "parameters" :
   [
    {
     "referenced_type" : "_ZTIP7_JNIEnv"
    },
    {
     "referenced_type" : "_ZTIP8_jobject"
    },
    {
     "referenced_type" : "_ZTIP7_jclass"
    },
    {
     "referenced_type" : "_ZTIP10_jmethodID"
    },
    {
     "referenced_type" : "_ZTISt9__va_list"
    }
   ],
   "referenced_type" : "_ZTIFsP7_JNIEnvP8_jobjectP7_jclassP10_jmethodIDSt9__va_listE",
   "return_type" : "_ZTIs",
   "self_type" : "_ZTIFsP7_JNIEnvP8_jobjectP7_jclassP10_jmethodIDSt9__va_listE",
   "source_file" : "libnativehelper/include_jni/jni.h"
  },
  {
   "alignment" : 4,
   "linker_set_key" : "_ZTIFsP7_JNIEnvP8_jobjectP7_jclassP10_jmethodIDzE",
   "name" : "short (_JNIEnv *, _jobject *, _jclass *, _jmethodID *, ...)",
   "parameters" :
   [
    {
     "referenced_type" : "_ZTIP7_JNIEnv"
    },
    {
     "referenced_type" : "_ZTIP8_jobject"
    },
    {
     "referenced_type" : "_ZTIP7_jclass"
    },
    {
     "referenced_type" : "_ZTIP10_jmethodID"
    }
   ],
   "referenced_type" : "_ZTIFsP7_JNIEnvP8_jobjectP7_jclassP10_jmethodIDzE",
   "return_type" : "_ZTIs",
   "self_type" : "_ZTIFsP7_JNIEnvP8_jobjectP7_jclassP10_jmethodIDzE",
   "source_file" : "libnativehelper/include_jni/jni.h"
  },
  {
   "alignment" : 4,
   "linker_set_key" : "_ZTIFsP7_JNIEnvP8_jobjectP9_jfieldIDE",
   "name" : "short (_JNIEnv *, _jobject *, _jfieldID *)",
   "parameters" :
   [
    {
     "referenced_type" : "_ZTIP7_JNIEnv"
    },
    {
     "referenced_type" : "_ZTIP8_jobject"
    },
    {
     "referenced_type" : "_ZTIP9_jfieldID"
    }
   ],
   "referenced_type" : "_ZTIFsP7_JNIEnvP8_jobjectP9_jfieldIDE",
   "return_type" : "_ZTIs",
   "self_type" : "_ZTIFsP7_JNIEnvP8_jobjectP9_jfieldIDE",
   "source_file" : "libnativehelper/include_jni/jni.h"
  },
  {
   "alignment" : 4,
   "linker_set_key" : "_ZTIFtP7_JNIEnvP7_jclassP10_jmethodIDPK6jvalueE",
   "name" : "unsigned short (_JNIEnv *, _jclass *, _jmethodID *, const jvalue *)",
   "parameters" :
   [
    {
     "referenced_type" : "_ZTIP7_JNIEnv"
    },
    {
     "referenced_type" : "_ZTIP7_jclass"
    },
    {
     "referenced_type" : "_ZTIP10_jmethodID"
    },
    {
     "referenced_type" : "_ZTIPK6jvalue"
    }
   ],
   "referenced_type" : "_ZTIFtP7_JNIEnvP7_jclassP10_jmethodIDPK6jvalueE",
   "return_type" : "_ZTIt",
   "self_type" : "_ZTIFtP7_JNIEnvP7_jclassP10_jmethodIDPK6jvalueE",
   "source_file" : "libnativehelper/include_jni/jni.h"
  },
  {
   "alignment" : 4,
   "linker_set_key" : "_ZTIFtP7_JNIEnvP7_jclassP10_jmethodIDSt9__va_listE",
   "name" : "unsigned short (_JNIEnv *, _jclass *, _jmethodID *, std::__va_list)",
   "parameters" :
   [
    {
     "referenced_type" : "_ZTIP7_JNIEnv"
    },
    {
     "referenced_type" : "_ZTIP7_jclass"
    },
    {
     "referenced_type" : "_ZTIP10_jmethodID"
    },
    {
     "referenced_type" : "_ZTISt9__va_list"
    }
   ],
   "referenced_type" : "_ZTIFtP7_JNIEnvP7_jclassP10_jmethodIDSt9__va_listE",
   "return_type" : "_ZTIt",
   "self_type" : "_ZTIFtP7_JNIEnvP7_jclassP10_jmethodIDSt9__va_listE",
   "source_file" : "libnativehelper/include_jni/jni.h"
  },
  {
   "alignment" : 4,
   "linker_set_key" : "_ZTIFtP7_JNIEnvP7_jclassP10_jmethodIDzE",
   "name" : "unsigned short (_JNIEnv *, _jclass *, _jmethodID *, ...)",
   "parameters" :
   [
    {
     "referenced_type" : "_ZTIP7_JNIEnv"
    },
    {
     "referenced_type" : "_ZTIP7_jclass"
    },
    {
     "referenced_type" : "_ZTIP10_jmethodID"
    }
   ],
   "referenced_type" : "_ZTIFtP7_JNIEnvP7_jclassP10_jmethodIDzE",
   "return_type" : "_ZTIt",
   "self_type" : "_ZTIFtP7_JNIEnvP7_jclassP10_jmethodIDzE",
   "source_file" : "libnativehelper/include_jni/jni.h"
  },
  {
   "alignment" : 4,
   "linker_set_key" : "_ZTIFtP7_JNIEnvP7_jclassP9_jfieldIDE",
   "name" : "unsigned short (_JNIEnv *, _jclass *, _jfieldID *)",
   "parameters" :
   [
    {
     "referenced_type" : "_ZTIP7_JNIEnv"
    },
    {
     "referenced_type" : "_ZTIP7_jclass"
    },
    {
     "referenced_type" : "_ZTIP9_jfieldID"
    }
   ],
   "referenced_type" : "_ZTIFtP7_JNIEnvP7_jclassP9_jfieldIDE",
   "return_type" : "_ZTIt",
   "self_type" : "_ZTIFtP7_JNIEnvP7_jclassP9_jfieldIDE",
   "source_file" : "libnativehelper/include_jni/jni.h"
  },
  {
   "alignment" : 4,
   "linker_set_key" : "_ZTIFtP7_JNIEnvP8_jobjectP10_jmethodIDPK6jvalueE",
   "name" : "unsigned short (_JNIEnv *, _jobject *, _jmethodID *, const jvalue *)",
   "parameters" :
   [
    {
     "referenced_type" : "_ZTIP7_JNIEnv"
    },
    {
     "referenced_type" : "_ZTIP8_jobject"
    },
    {
     "referenced_type" : "_ZTIP10_jmethodID"
    },
    {
     "referenced_type" : "_ZTIPK6jvalue"
    }
   ],
   "referenced_type" : "_ZTIFtP7_JNIEnvP8_jobjectP10_jmethodIDPK6jvalueE",
   "return_type" : "_ZTIt",
   "self_type" : "_ZTIFtP7_JNIEnvP8_jobjectP10_jmethodIDPK6jvalueE",
   "source_file" : "libnativehelper/include_jni/jni.h"
  },
  {
   "alignment" : 4,
   "linker_set_key" : "_ZTIFtP7_JNIEnvP8_jobjectP10_jmethodIDSt9__va_listE",
   "name" : "unsigned short (_JNIEnv *, _jobject *, _jmethodID *, std::__va_list)",
   "parameters" :
   [
    {
     "referenced_type" : "_ZTIP7_JNIEnv"
    },
    {
     "referenced_type" : "_ZTIP8_jobject"
    },
    {
     "referenced_type" : "_ZTIP10_jmethodID"
    },
    {
     "referenced_type" : "_ZTISt9__va_list"
    }
   ],
   "referenced_type" : "_ZTIFtP7_JNIEnvP8_jobjectP10_jmethodIDSt9__va_listE",
   "return_type" : "_ZTIt",
   "self_type" : "_ZTIFtP7_JNIEnvP8_jobjectP10_jmethodIDSt9__va_listE",
   "source_file" : "libnativehelper/include_jni/jni.h"
  },
  {
   "alignment" : 4,
   "linker_set_key" : "_ZTIFtP7_JNIEnvP8_jobjectP10_jmethodIDzE",
   "name" : "unsigned short (_JNIEnv *, _jobject *, _jmethodID *, ...)",
   "parameters" :
   [
    {
     "referenced_type" : "_ZTIP7_JNIEnv"
    },
    {
     "referenced_type" : "_ZTIP8_jobject"
    },
    {
     "referenced_type" : "_ZTIP10_jmethodID"
    }
   ],
   "referenced_type" : "_ZTIFtP7_JNIEnvP8_jobjectP10_jmethodIDzE",
   "return_type" : "_ZTIt",
   "self_type" : "_ZTIFtP7_JNIEnvP8_jobjectP10_jmethodIDzE",
   "source_file" : "libnativehelper/include_jni/jni.h"
  },
  {
   "alignment" : 4,
   "linker_set_key" : "_ZTIFtP7_JNIEnvP8_jobjectP7_jclassP10_jmethodIDPK6jvalueE",
   "name" : "unsigned short (_JNIEnv *, _jobject *, _jclass *, _jmethodID *, const jvalue *)",
   "parameters" :
   [
    {
     "referenced_type" : "_ZTIP7_JNIEnv"
    },
    {
     "referenced_type" : "_ZTIP8_jobject"
    },
    {
     "referenced_type" : "_ZTIP7_jclass"
    },
    {
     "referenced_type" : "_ZTIP10_jmethodID"
    },
    {
     "referenced_type" : "_ZTIPK6jvalue"
    }
   ],
   "referenced_type" : "_ZTIFtP7_JNIEnvP8_jobjectP7_jclassP10_jmethodIDPK6jvalueE",
   "return_type" : "_ZTIt",
   "self_type" : "_ZTIFtP7_JNIEnvP8_jobjectP7_jclassP10_jmethodIDPK6jvalueE",
   "source_file" : "libnativehelper/include_jni/jni.h"
  },
  {
   "alignment" : 4,
   "linker_set_key" : "_ZTIFtP7_JNIEnvP8_jobjectP7_jclassP10_jmethodIDSt9__va_listE",
   "name" : "unsigned short (_JNIEnv *, _jobject *, _jclass *, _jmethodID *, std::__va_list)",
   "parameters" :
   [
    {
     "referenced_type" : "_ZTIP7_JNIEnv"
    },
    {
     "referenced_type" : "_ZTIP8_jobject"
    },
    {
     "referenced_type" : "_ZTIP7_jclass"
    },
    {
     "referenced_type" : "_ZTIP10_jmethodID"
    },
    {
     "referenced_type" : "_ZTISt9__va_list"
    }
   ],
   "referenced_type" : "_ZTIFtP7_JNIEnvP8_jobjectP7_jclassP10_jmethodIDSt9__va_listE",
   "return_type" : "_ZTIt",
   "self_type" : "_ZTIFtP7_JNIEnvP8_jobjectP7_jclassP10_jmethodIDSt9__va_listE",
   "source_file" : "libnativehelper/include_jni/jni.h"
  },
  {
   "alignment" : 4,
   "linker_set_key" : "_ZTIFtP7_JNIEnvP8_jobjectP7_jclassP10_jmethodIDzE",
   "name" : "unsigned short (_JNIEnv *, _jobject *, _jclass *, _jmethodID *, ...)",
   "parameters" :
   [
    {
     "referenced_type" : "_ZTIP7_JNIEnv"
    },
    {
     "referenced_type" : "_ZTIP8_jobject"
    },
    {
     "referenced_type" : "_ZTIP7_jclass"
    },
    {
     "referenced_type" : "_ZTIP10_jmethodID"
    }
   ],
   "referenced_type" : "_ZTIFtP7_JNIEnvP8_jobjectP7_jclassP10_jmethodIDzE",
   "return_type" : "_ZTIt",
   "self_type" : "_ZTIFtP7_JNIEnvP8_jobjectP7_jclassP10_jmethodIDzE",
   "source_file" : "libnativehelper/include_jni/jni.h"
  },
  {
   "alignment" : 4,
   "linker_set_key" : "_ZTIFtP7_JNIEnvP8_jobjectP9_jfieldIDE",
   "name" : "unsigned short (_JNIEnv *, _jobject *, _jfieldID *)",
   "parameters" :
   [
    {
     "referenced_type" : "_ZTIP7_JNIEnv"
    },
    {
     "referenced_type" : "_ZTIP8_jobject"
    },
    {
     "referenced_type" : "_ZTIP9_jfieldID"
    }
   ],
   "referenced_type" : "_ZTIFtP7_JNIEnvP8_jobjectP9_jfieldIDE",
   "return_type" : "_ZTIt",
   "self_type" : "_ZTIFtP7_JNIEnvP8_jobjectP9_jfieldIDE",
   "source_file" : "libnativehelper/include_jni/jni.h"
  },
  {
   "alignment" : 4,
   "linker_set_key" : "_ZTIFv6sigvalE",
   "name" : "void (sigval)",
   "parameters" :
   [
    {
     "referenced_type" : "_ZTI6sigval"
    }
   ],
   "referenced_type" : "_ZTIFv6sigvalE",
   "return_type" : "_ZTIv",
   "self_type" : "_ZTIFv6sigvalE",
   "source_file" : "bionic/libc/kernel/uapi/asm-generic/siginfo.h"
  },
  {
   "alignment" : 4,
   "linker_set_key" : "_ZTIFvP7_JNIEnvE",
   "name" : "void (_JNIEnv *)",
   "parameters" :
   [
    {
     "referenced_type" : "_ZTIP7_JNIEnv"
    }
   ],
   "referenced_type" : "_ZTIFvP7_JNIEnvE",
   "return_type" : "_ZTIv",
   "self_type" : "_ZTIFvP7_JNIEnvE",
   "source_file" : "libnativehelper/include_jni/jni.h"
  },
  {
   "alignment" : 4,
   "linker_set_key" : "_ZTIFvP7_JNIEnvP10_jintArrayPiiE",
   "name" : "void (_JNIEnv *, _jintArray *, int *, int)",
   "parameters" :
   [
    {
     "referenced_type" : "_ZTIP7_JNIEnv"
    },
    {
     "referenced_type" : "_ZTIP10_jintArray"
    },
    {
     "referenced_type" : "_ZTIPi"
    },
    {
     "referenced_type" : "_ZTIi"
    }
   ],
   "referenced_type" : "_ZTIFvP7_JNIEnvP10_jintArrayPiiE",
   "return_type" : "_ZTIv",
   "self_type" : "_ZTIFvP7_JNIEnvP10_jintArrayPiiE",
   "source_file" : "libnativehelper/include_jni/jni.h"
  },
  {
   "alignment" : 4,
   "linker_set_key" : "_ZTIFvP7_JNIEnvP10_jintArrayiiPKiE",
   "name" : "void (_JNIEnv *, _jintArray *, int, int, const int *)",
   "parameters" :
   [
    {
     "referenced_type" : "_ZTIP7_JNIEnv"
    },
    {
     "referenced_type" : "_ZTIP10_jintArray"
    },
    {
     "referenced_type" : "_ZTIi"
    },
    {
     "referenced_type" : "_ZTIi"
    },
    {
     "referenced_type" : "_ZTIPKi"
    }
   ],
   "referenced_type" : "_ZTIFvP7_JNIEnvP10_jintArrayiiPKiE",
   "return_type" : "_ZTIv",
   "self_type" : "_ZTIFvP7_JNIEnvP10_jintArrayiiPKiE",
   "source_file" : "libnativehelper/include_jni/jni.h"
  },
  {
   "alignment" : 4,
   "linker_set_key" : "_ZTIFvP7_JNIEnvP10_jintArrayiiPiE",
   "name" : "void (_JNIEnv *, _jintArray *, int, int, int *)",
   "parameters" :
   [
    {
     "referenced_type" : "_ZTIP7_JNIEnv"
    },
    {
     "referenced_type" : "_ZTIP10_jintArray"
    },
    {
     "referenced_type" : "_ZTIi"
    },
    {
     "referenced_type" : "_ZTIi"
    },
    {
     "referenced_type" : "_ZTIPi"
    }
   ],
   "referenced_type" : "_ZTIFvP7_JNIEnvP10_jintArrayiiPiE",
   "return_type" : "_ZTIv",
   "self_type" : "_ZTIFvP7_JNIEnvP10_jintArrayiiPiE",
   "source_file" : "libnativehelper/include_jni/jni.h"
  },
  {
   "alignment" : 4,
   "linker_set_key" : "_ZTIFvP7_JNIEnvP11_jbyteArrayPaiE",
   "name" : "void (_JNIEnv *, _jbyteArray *, signed char *, int)",
   "parameters" :
   [
    {
     "referenced_type" : "_ZTIP7_JNIEnv"
    },
    {
     "referenced_type" : "_ZTIP11_jbyteArray"
    },
    {
     "referenced_type" : "_ZTIPa"
    },
    {
     "referenced_type" : "_ZTIi"
    }
   ],
   "referenced_type" : "_ZTIFvP7_JNIEnvP11_jbyteArrayPaiE",
   "return_type" : "_ZTIv",
   "self_type" : "_ZTIFvP7_JNIEnvP11_jbyteArrayPaiE",
   "source_file" : "libnativehelper/include_jni/jni.h"
  },
  {
   "alignment" : 4,
   "linker_set_key" : "_ZTIFvP7_JNIEnvP11_jbyteArrayiiPKaE",
   "name" : "void (_JNIEnv *, _jbyteArray *, int, int, const signed char *)",
   "parameters" :
   [
    {
     "referenced_type" : "_ZTIP7_JNIEnv"
    },
    {
     "referenced_type" : "_ZTIP11_jbyteArray"
    },
    {
     "referenced_type" : "_ZTIi"
    },
    {
     "referenced_type" : "_ZTIi"
    },
    {
     "referenced_type" : "_ZTIPKa"
    }
   ],
   "referenced_type" : "_ZTIFvP7_JNIEnvP11_jbyteArrayiiPKaE",
   "return_type" : "_ZTIv",
   "self_type" : "_ZTIFvP7_JNIEnvP11_jbyteArrayiiPKaE",
   "source_file" : "libnativehelper/include_jni/jni.h"
  },
  {
   "alignment" : 4,
   "linker_set_key" : "_ZTIFvP7_JNIEnvP11_jbyteArrayiiPaE",
   "name" : "void (_JNIEnv *, _jbyteArray *, int, int, signed char *)",
   "parameters" :
   [
    {
     "referenced_type" : "_ZTIP7_JNIEnv"
    },
    {
     "referenced_type" : "_ZTIP11_jbyteArray"
    },
    {
     "referenced_type" : "_ZTIi"
    },
    {
     "referenced_type" : "_ZTIi"
    },
    {
     "referenced_type" : "_ZTIPa"
    }
   ],
   "referenced_type" : "_ZTIFvP7_JNIEnvP11_jbyteArrayiiPaE",
   "return_type" : "_ZTIv",
   "self_type" : "_ZTIFvP7_JNIEnvP11_jbyteArrayiiPaE",
   "source_file" : "libnativehelper/include_jni/jni.h"
  },
  {
   "alignment" : 4,
   "linker_set_key" : "_ZTIFvP7_JNIEnvP11_jcharArrayPtiE",
   "name" : "void (_JNIEnv *, _jcharArray *, unsigned short *, int)",
   "parameters" :
   [
    {
     "referenced_type" : "_ZTIP7_JNIEnv"
    },
    {
     "referenced_type" : "_ZTIP11_jcharArray"
    },
    {
     "referenced_type" : "_ZTIPt"
    },
    {
     "referenced_type" : "_ZTIi"
    }
   ],
   "referenced_type" : "_ZTIFvP7_JNIEnvP11_jcharArrayPtiE",
   "return_type" : "_ZTIv",
   "self_type" : "_ZTIFvP7_JNIEnvP11_jcharArrayPtiE",
   "source_file" : "libnativehelper/include_jni/jni.h"
  },
  {
   "alignment" : 4,
   "linker_set_key" : "_ZTIFvP7_JNIEnvP11_jcharArrayiiPKtE",
   "name" : "void (_JNIEnv *, _jcharArray *, int, int, const unsigned short *)",
   "parameters" :
   [
    {
     "referenced_type" : "_ZTIP7_JNIEnv"
    },
    {
     "referenced_type" : "_ZTIP11_jcharArray"
    },
    {
     "referenced_type" : "_ZTIi"
    },
    {
     "referenced_type" : "_ZTIi"
    },
    {
     "referenced_type" : "_ZTIPKt"
    }
   ],
   "referenced_type" : "_ZTIFvP7_JNIEnvP11_jcharArrayiiPKtE",
   "return_type" : "_ZTIv",
   "self_type" : "_ZTIFvP7_JNIEnvP11_jcharArrayiiPKtE",
   "source_file" : "libnativehelper/include_jni/jni.h"
  },
  {
   "alignment" : 4,
   "linker_set_key" : "_ZTIFvP7_JNIEnvP11_jcharArrayiiPtE",
   "name" : "void (_JNIEnv *, _jcharArray *, int, int, unsigned short *)",
   "parameters" :
   [
    {
     "referenced_type" : "_ZTIP7_JNIEnv"
    },
    {
     "referenced_type" : "_ZTIP11_jcharArray"
    },
    {
     "referenced_type" : "_ZTIi"
    },
    {
     "referenced_type" : "_ZTIi"
    },
    {
     "referenced_type" : "_ZTIPt"
    }
   ],
   "referenced_type" : "_ZTIFvP7_JNIEnvP11_jcharArrayiiPtE",
   "return_type" : "_ZTIv",
   "self_type" : "_ZTIFvP7_JNIEnvP11_jcharArrayiiPtE",
   "source_file" : "libnativehelper/include_jni/jni.h"
  },
  {
   "alignment" : 4,
   "linker_set_key" : "_ZTIFvP7_JNIEnvP11_jlongArrayPxiE",
   "name" : "void (_JNIEnv *, _jlongArray *, long long *, int)",
   "parameters" :
   [
    {
     "referenced_type" : "_ZTIP7_JNIEnv"
    },
    {
     "referenced_type" : "_ZTIP11_jlongArray"
    },
    {
     "referenced_type" : "_ZTIPx"
    },
    {
     "referenced_type" : "_ZTIi"
    }
   ],
   "referenced_type" : "_ZTIFvP7_JNIEnvP11_jlongArrayPxiE",
   "return_type" : "_ZTIv",
   "self_type" : "_ZTIFvP7_JNIEnvP11_jlongArrayPxiE",
   "source_file" : "libnativehelper/include_jni/jni.h"
  },
  {
   "alignment" : 4,
   "linker_set_key" : "_ZTIFvP7_JNIEnvP11_jlongArrayiiPKxE",
   "name" : "void (_JNIEnv *, _jlongArray *, int, int, const long long *)",
   "parameters" :
   [
    {
     "referenced_type" : "_ZTIP7_JNIEnv"
    },
    {
     "referenced_type" : "_ZTIP11_jlongArray"
    },
    {
     "referenced_type" : "_ZTIi"
    },
    {
     "referenced_type" : "_ZTIi"
    },
    {
     "referenced_type" : "_ZTIPKx"
    }
   ],
   "referenced_type" : "_ZTIFvP7_JNIEnvP11_jlongArrayiiPKxE",
   "return_type" : "_ZTIv",
   "self_type" : "_ZTIFvP7_JNIEnvP11_jlongArrayiiPKxE",
   "source_file" : "libnativehelper/include_jni/jni.h"
  },
  {
   "alignment" : 4,
   "linker_set_key" : "_ZTIFvP7_JNIEnvP11_jlongArrayiiPxE",
   "name" : "void (_JNIEnv *, _jlongArray *, int, int, long long *)",
   "parameters" :
   [
    {
     "referenced_type" : "_ZTIP7_JNIEnv"
    },
    {
     "referenced_type" : "_ZTIP11_jlongArray"
    },
    {
     "referenced_type" : "_ZTIi"
    },
    {
     "referenced_type" : "_ZTIi"
    },
    {
     "referenced_type" : "_ZTIPx"
    }
   ],
   "referenced_type" : "_ZTIFvP7_JNIEnvP11_jlongArrayiiPxE",
   "return_type" : "_ZTIv",
   "self_type" : "_ZTIFvP7_JNIEnvP11_jlongArrayiiPxE",
   "source_file" : "libnativehelper/include_jni/jni.h"
  },
  {
   "alignment" : 4,
   "linker_set_key" : "_ZTIFvP7_JNIEnvP12_jfloatArrayPfiE",
   "name" : "void (_JNIEnv *, _jfloatArray *, float *, int)",
   "parameters" :
   [
    {
     "referenced_type" : "_ZTIP7_JNIEnv"
    },
    {
     "referenced_type" : "_ZTIP12_jfloatArray"
    },
    {
     "referenced_type" : "_ZTIPf"
    },
    {
     "referenced_type" : "_ZTIi"
    }
   ],
   "referenced_type" : "_ZTIFvP7_JNIEnvP12_jfloatArrayPfiE",
   "return_type" : "_ZTIv",
   "self_type" : "_ZTIFvP7_JNIEnvP12_jfloatArrayPfiE",
   "source_file" : "libnativehelper/include_jni/jni.h"
  },
  {
   "alignment" : 4,
   "linker_set_key" : "_ZTIFvP7_JNIEnvP12_jfloatArrayiiPKfE",
   "name" : "void (_JNIEnv *, _jfloatArray *, int, int, const float *)",
   "parameters" :
   [
    {
     "referenced_type" : "_ZTIP7_JNIEnv"
    },
    {
     "referenced_type" : "_ZTIP12_jfloatArray"
    },
    {
     "referenced_type" : "_ZTIi"
    },
    {
     "referenced_type" : "_ZTIi"
    },
    {
     "referenced_type" : "_ZTIPKf"
    }
   ],
   "referenced_type" : "_ZTIFvP7_JNIEnvP12_jfloatArrayiiPKfE",
   "return_type" : "_ZTIv",
   "self_type" : "_ZTIFvP7_JNIEnvP12_jfloatArrayiiPKfE",
   "source_file" : "libnativehelper/include_jni/jni.h"
  },
  {
   "alignment" : 4,
   "linker_set_key" : "_ZTIFvP7_JNIEnvP12_jfloatArrayiiPfE",
   "name" : "void (_JNIEnv *, _jfloatArray *, int, int, float *)",
   "parameters" :
   [
    {
     "referenced_type" : "_ZTIP7_JNIEnv"
    },
    {
     "referenced_type" : "_ZTIP12_jfloatArray"
    },
    {
     "referenced_type" : "_ZTIi"
    },
    {
     "referenced_type" : "_ZTIi"
    },
    {
     "referenced_type" : "_ZTIPf"
    }
   ],
   "referenced_type" : "_ZTIFvP7_JNIEnvP12_jfloatArrayiiPfE",
   "return_type" : "_ZTIv",
   "self_type" : "_ZTIFvP7_JNIEnvP12_jfloatArrayiiPfE",
   "source_file" : "libnativehelper/include_jni/jni.h"
  },
  {
   "alignment" : 4,
   "linker_set_key" : "_ZTIFvP7_JNIEnvP12_jshortArrayPsiE",
   "name" : "void (_JNIEnv *, _jshortArray *, short *, int)",
   "parameters" :
   [
    {
     "referenced_type" : "_ZTIP7_JNIEnv"
    },
    {
     "referenced_type" : "_ZTIP12_jshortArray"
    },
    {
     "referenced_type" : "_ZTIPs"
    },
    {
     "referenced_type" : "_ZTIi"
    }
   ],
   "referenced_type" : "_ZTIFvP7_JNIEnvP12_jshortArrayPsiE",
   "return_type" : "_ZTIv",
   "self_type" : "_ZTIFvP7_JNIEnvP12_jshortArrayPsiE",
   "source_file" : "libnativehelper/include_jni/jni.h"
  },
  {
   "alignment" : 4,
   "linker_set_key" : "_ZTIFvP7_JNIEnvP12_jshortArrayiiPKsE",
   "name" : "void (_JNIEnv *, _jshortArray *, int, int, const short *)",
   "parameters" :
   [
    {
     "referenced_type" : "_ZTIP7_JNIEnv"
    },
    {
     "referenced_type" : "_ZTIP12_jshortArray"
    },
    {
     "referenced_type" : "_ZTIi"
    },
    {
     "referenced_type" : "_ZTIi"
    },
    {
     "referenced_type" : "_ZTIPKs"
    }
   ],
   "referenced_type" : "_ZTIFvP7_JNIEnvP12_jshortArrayiiPKsE",
   "return_type" : "_ZTIv",
   "self_type" : "_ZTIFvP7_JNIEnvP12_jshortArrayiiPKsE",
   "source_file" : "libnativehelper/include_jni/jni.h"
  },
  {
   "alignment" : 4,
   "linker_set_key" : "_ZTIFvP7_JNIEnvP12_jshortArrayiiPsE",
   "name" : "void (_JNIEnv *, _jshortArray *, int, int, short *)",
   "parameters" :
   [
    {
     "referenced_type" : "_ZTIP7_JNIEnv"
    },
    {
     "referenced_type" : "_ZTIP12_jshortArray"
    },
    {
     "referenced_type" : "_ZTIi"
    },
    {
     "referenced_type" : "_ZTIi"
    },
    {
     "referenced_type" : "_ZTIPs"
    }
   ],
   "referenced_type" : "_ZTIFvP7_JNIEnvP12_jshortArrayiiPsE",
   "return_type" : "_ZTIv",
   "self_type" : "_ZTIFvP7_JNIEnvP12_jshortArrayiiPsE",
   "source_file" : "libnativehelper/include_jni/jni.h"
  },
  {
   "alignment" : 4,
   "linker_set_key" : "_ZTIFvP7_JNIEnvP13_jdoubleArrayPdiE",
   "name" : "void (_JNIEnv *, _jdoubleArray *, double *, int)",
   "parameters" :
   [
    {
     "referenced_type" : "_ZTIP7_JNIEnv"
    },
    {
     "referenced_type" : "_ZTIP13_jdoubleArray"
    },
    {
     "referenced_type" : "_ZTIPd"
    },
    {
     "referenced_type" : "_ZTIi"
    }
   ],
   "referenced_type" : "_ZTIFvP7_JNIEnvP13_jdoubleArrayPdiE",
   "return_type" : "_ZTIv",
   "self_type" : "_ZTIFvP7_JNIEnvP13_jdoubleArrayPdiE",
   "source_file" : "libnativehelper/include_jni/jni.h"
  },
  {
   "alignment" : 4,
   "linker_set_key" : "_ZTIFvP7_JNIEnvP13_jdoubleArrayiiPKdE",
   "name" : "void (_JNIEnv *, _jdoubleArray *, int, int, const double *)",
   "parameters" :
   [
    {
     "referenced_type" : "_ZTIP7_JNIEnv"
    },
    {
     "referenced_type" : "_ZTIP13_jdoubleArray"
    },
    {
     "referenced_type" : "_ZTIi"
    },
    {
     "referenced_type" : "_ZTIi"
    },
    {
     "referenced_type" : "_ZTIPKd"
    }
   ],
   "referenced_type" : "_ZTIFvP7_JNIEnvP13_jdoubleArrayiiPKdE",
   "return_type" : "_ZTIv",
   "self_type" : "_ZTIFvP7_JNIEnvP13_jdoubleArrayiiPKdE",
   "source_file" : "libnativehelper/include_jni/jni.h"
  },
  {
   "alignment" : 4,
   "linker_set_key" : "_ZTIFvP7_JNIEnvP13_jdoubleArrayiiPdE",
   "name" : "void (_JNIEnv *, _jdoubleArray *, int, int, double *)",
   "parameters" :
   [
    {
     "referenced_type" : "_ZTIP7_JNIEnv"
    },
    {
     "referenced_type" : "_ZTIP13_jdoubleArray"
    },
    {
     "referenced_type" : "_ZTIi"
    },
    {
     "referenced_type" : "_ZTIi"
    },
    {
     "referenced_type" : "_ZTIPd"
    }
   ],
   "referenced_type" : "_ZTIFvP7_JNIEnvP13_jdoubleArrayiiPdE",
   "return_type" : "_ZTIv",
   "self_type" : "_ZTIFvP7_JNIEnvP13_jdoubleArrayiiPdE",
   "source_file" : "libnativehelper/include_jni/jni.h"
  },
  {
   "alignment" : 4,
   "linker_set_key" : "_ZTIFvP7_JNIEnvP13_jobjectArrayiP8_jobjectE",
   "name" : "void (_JNIEnv *, _jobjectArray *, int, _jobject *)",
   "parameters" :
   [
    {
     "referenced_type" : "_ZTIP7_JNIEnv"
    },
    {
     "referenced_type" : "_ZTIP13_jobjectArray"
    },
    {
     "referenced_type" : "_ZTIi"
    },
    {
     "referenced_type" : "_ZTIP8_jobject"
    }
   ],
   "referenced_type" : "_ZTIFvP7_JNIEnvP13_jobjectArrayiP8_jobjectE",
   "return_type" : "_ZTIv",
   "self_type" : "_ZTIFvP7_JNIEnvP13_jobjectArrayiP8_jobjectE",
   "source_file" : "libnativehelper/include_jni/jni.h"
  },
  {
   "alignment" : 4,
   "linker_set_key" : "_ZTIFvP7_JNIEnvP14_jbooleanArrayPhiE",
   "name" : "void (_JNIEnv *, _jbooleanArray *, unsigned char *, int)",
   "parameters" :
   [
    {
     "referenced_type" : "_ZTIP7_JNIEnv"
    },
    {
     "referenced_type" : "_ZTIP14_jbooleanArray"
    },
    {
     "referenced_type" : "_ZTIPh"
    },
    {
     "referenced_type" : "_ZTIi"
    }
   ],
   "referenced_type" : "_ZTIFvP7_JNIEnvP14_jbooleanArrayPhiE",
   "return_type" : "_ZTIv",
   "self_type" : "_ZTIFvP7_JNIEnvP14_jbooleanArrayPhiE",
   "source_file" : "libnativehelper/include_jni/jni.h"
  },
  {
   "alignment" : 4,
   "linker_set_key" : "_ZTIFvP7_JNIEnvP14_jbooleanArrayiiPKhE",
   "name" : "void (_JNIEnv *, _jbooleanArray *, int, int, const unsigned char *)",
   "parameters" :
   [
    {
     "referenced_type" : "_ZTIP7_JNIEnv"
    },
    {
     "referenced_type" : "_ZTIP14_jbooleanArray"
    },
    {
     "referenced_type" : "_ZTIi"
    },
    {
     "referenced_type" : "_ZTIi"
    },
    {
     "referenced_type" : "_ZTIPKh"
    }
   ],
   "referenced_type" : "_ZTIFvP7_JNIEnvP14_jbooleanArrayiiPKhE",
   "return_type" : "_ZTIv",
   "self_type" : "_ZTIFvP7_JNIEnvP14_jbooleanArrayiiPKhE",
   "source_file" : "libnativehelper/include_jni/jni.h"
  },
  {
   "alignment" : 4,
   "linker_set_key" : "_ZTIFvP7_JNIEnvP14_jbooleanArrayiiPhE",
   "name" : "void (_JNIEnv *, _jbooleanArray *, int, int, unsigned char *)",
   "parameters" :
   [
    {
     "referenced_type" : "_ZTIP7_JNIEnv"
    },
    {
     "referenced_type" : "_ZTIP14_jbooleanArray"
    },
    {
     "referenced_type" : "_ZTIi"
    },
    {
     "referenced_type" : "_ZTIi"
    },
    {
     "referenced_type" : "_ZTIPh"
    }
   ],
   "referenced_type" : "_ZTIFvP7_JNIEnvP14_jbooleanArrayiiPhE",
   "return_type" : "_ZTIv",
   "self_type" : "_ZTIFvP7_JNIEnvP14_jbooleanArrayiiPhE",
   "source_file" : "libnativehelper/include_jni/jni.h"
  },
  {
   "alignment" : 4,
   "linker_set_key" : "_ZTIFvP7_JNIEnvP7_jarrayPviE",
   "name" : "void (_JNIEnv *, _jarray *, void *, int)",
   "parameters" :
   [
    {
     "referenced_type" : "_ZTIP7_JNIEnv"
    },
    {
     "referenced_type" : "_ZTIP7_jarray"
    },
    {
     "referenced_type" : "_ZTIPv"
    },
    {
     "referenced_type" : "_ZTIi"
    }
   ],
   "referenced_type" : "_ZTIFvP7_JNIEnvP7_jarrayPviE",
   "return_type" : "_ZTIv",
   "self_type" : "_ZTIFvP7_JNIEnvP7_jarrayPviE",
   "source_file" : "libnativehelper/include_jni/jni.h"
  },
  {
   "alignment" : 4,
   "linker_set_key" : "_ZTIFvP7_JNIEnvP7_jclassP10_jmethodIDPK6jvalueE",
   "name" : "void (_JNIEnv *, _jclass *, _jmethodID *, const jvalue *)",
   "parameters" :
   [
    {
     "referenced_type" : "_ZTIP7_JNIEnv"
    },
    {
     "referenced_type" : "_ZTIP7_jclass"
    },
    {
     "referenced_type" : "_ZTIP10_jmethodID"
    },
    {
     "referenced_type" : "_ZTIPK6jvalue"
    }
   ],
   "referenced_type" : "_ZTIFvP7_JNIEnvP7_jclassP10_jmethodIDPK6jvalueE",
   "return_type" : "_ZTIv",
   "self_type" : "_ZTIFvP7_JNIEnvP7_jclassP10_jmethodIDPK6jvalueE",
   "source_file" : "libnativehelper/include_jni/jni.h"
  },
  {
   "alignment" : 4,
   "linker_set_key" : "_ZTIFvP7_JNIEnvP7_jclassP10_jmethodIDSt9__va_listE",
   "name" : "void (_JNIEnv *, _jclass *, _jmethodID *, std::__va_list)",
   "parameters" :
   [
    {
     "referenced_type" : "_ZTIP7_JNIEnv"
    },
    {
     "referenced_type" : "_ZTIP7_jclass"
    },
    {
     "referenced_type" : "_ZTIP10_jmethodID"
    },
    {
     "referenced_type" : "_ZTISt9__va_list"
    }
   ],
   "referenced_type" : "_ZTIFvP7_JNIEnvP7_jclassP10_jmethodIDSt9__va_listE",
   "return_type" : "_ZTIv",
   "self_type" : "_ZTIFvP7_JNIEnvP7_jclassP10_jmethodIDSt9__va_listE",
   "source_file" : "libnativehelper/include_jni/jni.h"
  },
  {
   "alignment" : 4,
   "linker_set_key" : "_ZTIFvP7_JNIEnvP7_jclassP10_jmethodIDzE",
   "name" : "void (_JNIEnv *, _jclass *, _jmethodID *, ...)",
   "parameters" :
   [
    {
     "referenced_type" : "_ZTIP7_JNIEnv"
    },
    {
     "referenced_type" : "_ZTIP7_jclass"
    },
    {
     "referenced_type" : "_ZTIP10_jmethodID"
    }
   ],
   "referenced_type" : "_ZTIFvP7_JNIEnvP7_jclassP10_jmethodIDzE",
   "return_type" : "_ZTIv",
   "self_type" : "_ZTIFvP7_JNIEnvP7_jclassP10_jmethodIDzE",
   "source_file" : "libnativehelper/include_jni/jni.h"
  },
  {
   "alignment" : 4,
   "linker_set_key" : "_ZTIFvP7_JNIEnvP7_jclassP9_jfieldIDP8_jobjectE",
   "name" : "void (_JNIEnv *, _jclass *, _jfieldID *, _jobject *)",
   "parameters" :
   [
    {
     "referenced_type" : "_ZTIP7_JNIEnv"
    },
    {
     "referenced_type" : "_ZTIP7_jclass"
    },
    {
     "referenced_type" : "_ZTIP9_jfieldID"
    },
    {
     "referenced_type" : "_ZTIP8_jobject"
    }
   ],
   "referenced_type" : "_ZTIFvP7_JNIEnvP7_jclassP9_jfieldIDP8_jobjectE",
   "return_type" : "_ZTIv",
   "self_type" : "_ZTIFvP7_JNIEnvP7_jclassP9_jfieldIDP8_jobjectE",
   "source_file" : "libnativehelper/include_jni/jni.h"
  },
  {
   "alignment" : 4,
   "linker_set_key" : "_ZTIFvP7_JNIEnvP7_jclassP9_jfieldIDaE",
   "name" : "void (_JNIEnv *, _jclass *, _jfieldID *, signed char)",
   "parameters" :
   [
    {
     "referenced_type" : "_ZTIP7_JNIEnv"
    },
    {
     "referenced_type" : "_ZTIP7_jclass"
    },
    {
     "referenced_type" : "_ZTIP9_jfieldID"
    },
    {
     "referenced_type" : "_ZTIa"
    }
   ],
   "referenced_type" : "_ZTIFvP7_JNIEnvP7_jclassP9_jfieldIDaE",
   "return_type" : "_ZTIv",
   "self_type" : "_ZTIFvP7_JNIEnvP7_jclassP9_jfieldIDaE",
   "source_file" : "libnativehelper/include_jni/jni.h"
  },
  {
   "alignment" : 4,
   "linker_set_key" : "_ZTIFvP7_JNIEnvP7_jclassP9_jfieldIDdE",
   "name" : "void (_JNIEnv *, _jclass *, _jfieldID *, double)",
   "parameters" :
   [
    {
     "referenced_type" : "_ZTIP7_JNIEnv"
    },
    {
     "referenced_type" : "_ZTIP7_jclass"
    },
    {
     "referenced_type" : "_ZTIP9_jfieldID"
    },
    {
     "referenced_type" : "_ZTId"
    }
   ],
   "referenced_type" : "_ZTIFvP7_JNIEnvP7_jclassP9_jfieldIDdE",
   "return_type" : "_ZTIv",
   "self_type" : "_ZTIFvP7_JNIEnvP7_jclassP9_jfieldIDdE",
   "source_file" : "libnativehelper/include_jni/jni.h"
  },
  {
   "alignment" : 4,
   "linker_set_key" : "_ZTIFvP7_JNIEnvP7_jclassP9_jfieldIDfE",
   "name" : "void (_JNIEnv *, _jclass *, _jfieldID *, float)",
   "parameters" :
   [
    {
     "referenced_type" : "_ZTIP7_JNIEnv"
    },
    {
     "referenced_type" : "_ZTIP7_jclass"
    },
    {
     "referenced_type" : "_ZTIP9_jfieldID"
    },
    {
     "referenced_type" : "_ZTIf"
    }
   ],
   "referenced_type" : "_ZTIFvP7_JNIEnvP7_jclassP9_jfieldIDfE",
   "return_type" : "_ZTIv",
   "self_type" : "_ZTIFvP7_JNIEnvP7_jclassP9_jfieldIDfE",
   "source_file" : "libnativehelper/include_jni/jni.h"
  },
  {
   "alignment" : 4,
   "linker_set_key" : "_ZTIFvP7_JNIEnvP7_jclassP9_jfieldIDhE",
   "name" : "void (_JNIEnv *, _jclass *, _jfieldID *, unsigned char)",
   "parameters" :
   [
    {
     "referenced_type" : "_ZTIP7_JNIEnv"
    },
    {
     "referenced_type" : "_ZTIP7_jclass"
    },
    {
     "referenced_type" : "_ZTIP9_jfieldID"
    },
    {
     "referenced_type" : "_ZTIh"
    }
   ],
   "referenced_type" : "_ZTIFvP7_JNIEnvP7_jclassP9_jfieldIDhE",
   "return_type" : "_ZTIv",
   "self_type" : "_ZTIFvP7_JNIEnvP7_jclassP9_jfieldIDhE",
   "source_file" : "libnativehelper/include_jni/jni.h"
  },
  {
   "alignment" : 4,
   "linker_set_key" : "_ZTIFvP7_JNIEnvP7_jclassP9_jfieldIDiE",
   "name" : "void (_JNIEnv *, _jclass *, _jfieldID *, int)",
   "parameters" :
   [
    {
     "referenced_type" : "_ZTIP7_JNIEnv"
    },
    {
     "referenced_type" : "_ZTIP7_jclass"
    },
    {
     "referenced_type" : "_ZTIP9_jfieldID"
    },
    {
     "referenced_type" : "_ZTIi"
    }
   ],
   "referenced_type" : "_ZTIFvP7_JNIEnvP7_jclassP9_jfieldIDiE",
   "return_type" : "_ZTIv",
   "self_type" : "_ZTIFvP7_JNIEnvP7_jclassP9_jfieldIDiE",
   "source_file" : "libnativehelper/include_jni/jni.h"
  },
  {
   "alignment" : 4,
   "linker_set_key" : "_ZTIFvP7_JNIEnvP7_jclassP9_jfieldIDsE",
   "name" : "void (_JNIEnv *, _jclass *, _jfieldID *, short)",
   "parameters" :
   [
    {
     "referenced_type" : "_ZTIP7_JNIEnv"
    },
    {
     "referenced_type" : "_ZTIP7_jclass"
    },
    {
     "referenced_type" : "_ZTIP9_jfieldID"
    },
    {
     "referenced_type" : "_ZTIs"
    }
   ],
   "referenced_type" : "_ZTIFvP7_JNIEnvP7_jclassP9_jfieldIDsE",
   "return_type" : "_ZTIv",
   "self_type" : "_ZTIFvP7_JNIEnvP7_jclassP9_jfieldIDsE",
   "source_file" : "libnativehelper/include_jni/jni.h"
  },
  {
   "alignment" : 4,
   "linker_set_key" : "_ZTIFvP7_JNIEnvP7_jclassP9_jfieldIDtE",
   "name" : "void (_JNIEnv *, _jclass *, _jfieldID *, unsigned short)",
   "parameters" :
   [
    {
     "referenced_type" : "_ZTIP7_JNIEnv"
    },
    {
     "referenced_type" : "_ZTIP7_jclass"
    },
    {
     "referenced_type" : "_ZTIP9_jfieldID"
    },
    {
     "referenced_type" : "_ZTIt"
    }
   ],
   "referenced_type" : "_ZTIFvP7_JNIEnvP7_jclassP9_jfieldIDtE",
   "return_type" : "_ZTIv",
   "self_type" : "_ZTIFvP7_JNIEnvP7_jclassP9_jfieldIDtE",
   "source_file" : "libnativehelper/include_jni/jni.h"
  },
  {
   "alignment" : 4,
   "linker_set_key" : "_ZTIFvP7_JNIEnvP7_jclassP9_jfieldIDxE",
   "name" : "void (_JNIEnv *, _jclass *, _jfieldID *, long long)",
   "parameters" :
   [
    {
     "referenced_type" : "_ZTIP7_JNIEnv"
    },
    {
     "referenced_type" : "_ZTIP7_jclass"
    },
    {
     "referenced_type" : "_ZTIP9_jfieldID"
    },
    {
     "referenced_type" : "_ZTIx"
    }
   ],
   "referenced_type" : "_ZTIFvP7_JNIEnvP7_jclassP9_jfieldIDxE",
   "return_type" : "_ZTIv",
   "self_type" : "_ZTIFvP7_JNIEnvP7_jclassP9_jfieldIDxE",
   "source_file" : "libnativehelper/include_jni/jni.h"
  },
  {
   "alignment" : 4,
   "linker_set_key" : "_ZTIFvP7_JNIEnvP8_jobjectE",
   "name" : "void (_JNIEnv *, _jobject *)",
   "parameters" :
   [
    {
     "referenced_type" : "_ZTIP7_JNIEnv"
    },
    {
     "referenced_type" : "_ZTIP8_jobject"
    }
   ],
   "referenced_type" : "_ZTIFvP7_JNIEnvP8_jobjectE",
   "return_type" : "_ZTIv",
   "self_type" : "_ZTIFvP7_JNIEnvP8_jobjectE",
   "source_file" : "libnativehelper/include_jni/jni.h"
  },
  {
   "alignment" : 4,
   "linker_set_key" : "_ZTIFvP7_JNIEnvP8_jobjectP10_jmethodIDPK6jvalueE",
   "name" : "void (_JNIEnv *, _jobject *, _jmethodID *, const jvalue *)",
   "parameters" :
   [
    {
     "referenced_type" : "_ZTIP7_JNIEnv"
    },
    {
     "referenced_type" : "_ZTIP8_jobject"
    },
    {
     "referenced_type" : "_ZTIP10_jmethodID"
    },
    {
     "referenced_type" : "_ZTIPK6jvalue"
    }
   ],
   "referenced_type" : "_ZTIFvP7_JNIEnvP8_jobjectP10_jmethodIDPK6jvalueE",
   "return_type" : "_ZTIv",
   "self_type" : "_ZTIFvP7_JNIEnvP8_jobjectP10_jmethodIDPK6jvalueE",
   "source_file" : "libnativehelper/include_jni/jni.h"
  },
  {
   "alignment" : 4,
   "linker_set_key" : "_ZTIFvP7_JNIEnvP8_jobjectP10_jmethodIDSt9__va_listE",
   "name" : "void (_JNIEnv *, _jobject *, _jmethodID *, std::__va_list)",
   "parameters" :
   [
    {
     "referenced_type" : "_ZTIP7_JNIEnv"
    },
    {
     "referenced_type" : "_ZTIP8_jobject"
    },
    {
     "referenced_type" : "_ZTIP10_jmethodID"
    },
    {
     "referenced_type" : "_ZTISt9__va_list"
    }
   ],
   "referenced_type" : "_ZTIFvP7_JNIEnvP8_jobjectP10_jmethodIDSt9__va_listE",
   "return_type" : "_ZTIv",
   "self_type" : "_ZTIFvP7_JNIEnvP8_jobjectP10_jmethodIDSt9__va_listE",
   "source_file" : "libnativehelper/include_jni/jni.h"
  },
  {
   "alignment" : 4,
   "linker_set_key" : "_ZTIFvP7_JNIEnvP8_jobjectP10_jmethodIDzE",
   "name" : "void (_JNIEnv *, _jobject *, _jmethodID *, ...)",
   "parameters" :
   [
    {
     "referenced_type" : "_ZTIP7_JNIEnv"
    },
    {
     "referenced_type" : "_ZTIP8_jobject"
    },
    {
     "referenced_type" : "_ZTIP10_jmethodID"
    }
   ],
   "referenced_type" : "_ZTIFvP7_JNIEnvP8_jobjectP10_jmethodIDzE",
   "return_type" : "_ZTIv",
   "self_type" : "_ZTIFvP7_JNIEnvP8_jobjectP10_jmethodIDzE",
   "source_file" : "libnativehelper/include_jni/jni.h"
  },
  {
   "alignment" : 4,
   "linker_set_key" : "_ZTIFvP7_JNIEnvP8_jobjectP7_jclassP10_jmethodIDPK6jvalueE",
   "name" : "void (_JNIEnv *, _jobject *, _jclass *, _jmethodID *, const jvalue *)",
   "parameters" :
   [
    {
     "referenced_type" : "_ZTIP7_JNIEnv"
    },
    {
     "referenced_type" : "_ZTIP8_jobject"
    },
    {
     "referenced_type" : "_ZTIP7_jclass"
    },
    {
     "referenced_type" : "_ZTIP10_jmethodID"
    },
    {
     "referenced_type" : "_ZTIPK6jvalue"
    }
   ],
   "referenced_type" : "_ZTIFvP7_JNIEnvP8_jobjectP7_jclassP10_jmethodIDPK6jvalueE",
   "return_type" : "_ZTIv",
   "self_type" : "_ZTIFvP7_JNIEnvP8_jobjectP7_jclassP10_jmethodIDPK6jvalueE",
   "source_file" : "libnativehelper/include_jni/jni.h"
  },
  {
   "alignment" : 4,
   "linker_set_key" : "_ZTIFvP7_JNIEnvP8_jobjectP7_jclassP10_jmethodIDSt9__va_listE",
   "name" : "void (_JNIEnv *, _jobject *, _jclass *, _jmethodID *, std::__va_list)",
   "parameters" :
   [
    {
     "referenced_type" : "_ZTIP7_JNIEnv"
    },
    {
     "referenced_type" : "_ZTIP8_jobject"
    },
    {
     "referenced_type" : "_ZTIP7_jclass"
    },
    {
     "referenced_type" : "_ZTIP10_jmethodID"
    },
    {
     "referenced_type" : "_ZTISt9__va_list"
    }
   ],
   "referenced_type" : "_ZTIFvP7_JNIEnvP8_jobjectP7_jclassP10_jmethodIDSt9__va_listE",
   "return_type" : "_ZTIv",
   "self_type" : "_ZTIFvP7_JNIEnvP8_jobjectP7_jclassP10_jmethodIDSt9__va_listE",
   "source_file" : "libnativehelper/include_jni/jni.h"
  },
  {
   "alignment" : 4,
   "linker_set_key" : "_ZTIFvP7_JNIEnvP8_jobjectP7_jclassP10_jmethodIDzE",
   "name" : "void (_JNIEnv *, _jobject *, _jclass *, _jmethodID *, ...)",
   "parameters" :
   [
    {
     "referenced_type" : "_ZTIP7_JNIEnv"
    },
    {
     "referenced_type" : "_ZTIP8_jobject"
    },
    {
     "referenced_type" : "_ZTIP7_jclass"
    },
    {
     "referenced_type" : "_ZTIP10_jmethodID"
    }
   ],
   "referenced_type" : "_ZTIFvP7_JNIEnvP8_jobjectP7_jclassP10_jmethodIDzE",
   "return_type" : "_ZTIv",
   "self_type" : "_ZTIFvP7_JNIEnvP8_jobjectP7_jclassP10_jmethodIDzE",
   "source_file" : "libnativehelper/include_jni/jni.h"
  },
  {
   "alignment" : 4,
   "linker_set_key" : "_ZTIFvP7_JNIEnvP8_jobjectP9_jfieldIDS2_E",
   "name" : "void (_JNIEnv *, _jobject *, _jfieldID *, _jobject *)",
   "parameters" :
   [
    {
     "referenced_type" : "_ZTIP7_JNIEnv"
    },
    {
     "referenced_type" : "_ZTIP8_jobject"
    },
    {
     "referenced_type" : "_ZTIP9_jfieldID"
    },
    {
     "referenced_type" : "_ZTIP8_jobject"
    }
   ],
   "referenced_type" : "_ZTIFvP7_JNIEnvP8_jobjectP9_jfieldIDS2_E",
   "return_type" : "_ZTIv",
   "self_type" : "_ZTIFvP7_JNIEnvP8_jobjectP9_jfieldIDS2_E",
   "source_file" : "libnativehelper/include_jni/jni.h"
  },
  {
   "alignment" : 4,
   "linker_set_key" : "_ZTIFvP7_JNIEnvP8_jobjectP9_jfieldIDaE",
   "name" : "void (_JNIEnv *, _jobject *, _jfieldID *, signed char)",
   "parameters" :
   [
    {
     "referenced_type" : "_ZTIP7_JNIEnv"
    },
    {
     "referenced_type" : "_ZTIP8_jobject"
    },
    {
     "referenced_type" : "_ZTIP9_jfieldID"
    },
    {
     "referenced_type" : "_ZTIa"
    }
   ],
   "referenced_type" : "_ZTIFvP7_JNIEnvP8_jobjectP9_jfieldIDaE",
   "return_type" : "_ZTIv",
   "self_type" : "_ZTIFvP7_JNIEnvP8_jobjectP9_jfieldIDaE",
   "source_file" : "libnativehelper/include_jni/jni.h"
  },
  {
   "alignment" : 4,
   "linker_set_key" : "_ZTIFvP7_JNIEnvP8_jobjectP9_jfieldIDdE",
   "name" : "void (_JNIEnv *, _jobject *, _jfieldID *, double)",
   "parameters" :
   [
    {
     "referenced_type" : "_ZTIP7_JNIEnv"
    },
    {
     "referenced_type" : "_ZTIP8_jobject"
    },
    {
     "referenced_type" : "_ZTIP9_jfieldID"
    },
    {
     "referenced_type" : "_ZTId"
    }
   ],
   "referenced_type" : "_ZTIFvP7_JNIEnvP8_jobjectP9_jfieldIDdE",
   "return_type" : "_ZTIv",
   "self_type" : "_ZTIFvP7_JNIEnvP8_jobjectP9_jfieldIDdE",
   "source_file" : "libnativehelper/include_jni/jni.h"
  },
  {
   "alignment" : 4,
   "linker_set_key" : "_ZTIFvP7_JNIEnvP8_jobjectP9_jfieldIDfE",
   "name" : "void (_JNIEnv *, _jobject *, _jfieldID *, float)",
   "parameters" :
   [
    {
     "referenced_type" : "_ZTIP7_JNIEnv"
    },
    {
     "referenced_type" : "_ZTIP8_jobject"
    },
    {
     "referenced_type" : "_ZTIP9_jfieldID"
    },
    {
     "referenced_type" : "_ZTIf"
    }
   ],
   "referenced_type" : "_ZTIFvP7_JNIEnvP8_jobjectP9_jfieldIDfE",
   "return_type" : "_ZTIv",
   "self_type" : "_ZTIFvP7_JNIEnvP8_jobjectP9_jfieldIDfE",
   "source_file" : "libnativehelper/include_jni/jni.h"
  },
  {
   "alignment" : 4,
   "linker_set_key" : "_ZTIFvP7_JNIEnvP8_jobjectP9_jfieldIDhE",
   "name" : "void (_JNIEnv *, _jobject *, _jfieldID *, unsigned char)",
   "parameters" :
   [
    {
     "referenced_type" : "_ZTIP7_JNIEnv"
    },
    {
     "referenced_type" : "_ZTIP8_jobject"
    },
    {
     "referenced_type" : "_ZTIP9_jfieldID"
    },
    {
     "referenced_type" : "_ZTIh"
    }
   ],
   "referenced_type" : "_ZTIFvP7_JNIEnvP8_jobjectP9_jfieldIDhE",
   "return_type" : "_ZTIv",
   "self_type" : "_ZTIFvP7_JNIEnvP8_jobjectP9_jfieldIDhE",
   "source_file" : "libnativehelper/include_jni/jni.h"
  },
  {
   "alignment" : 4,
   "linker_set_key" : "_ZTIFvP7_JNIEnvP8_jobjectP9_jfieldIDiE",
   "name" : "void (_JNIEnv *, _jobject *, _jfieldID *, int)",
   "parameters" :
   [
    {
     "referenced_type" : "_ZTIP7_JNIEnv"
    },
    {
     "referenced_type" : "_ZTIP8_jobject"
    },
    {
     "referenced_type" : "_ZTIP9_jfieldID"
    },
    {
     "referenced_type" : "_ZTIi"
    }
   ],
   "referenced_type" : "_ZTIFvP7_JNIEnvP8_jobjectP9_jfieldIDiE",
   "return_type" : "_ZTIv",
   "self_type" : "_ZTIFvP7_JNIEnvP8_jobjectP9_jfieldIDiE",
   "source_file" : "libnativehelper/include_jni/jni.h"
  },
  {
   "alignment" : 4,
   "linker_set_key" : "_ZTIFvP7_JNIEnvP8_jobjectP9_jfieldIDsE",
   "name" : "void (_JNIEnv *, _jobject *, _jfieldID *, short)",
   "parameters" :
   [
    {
     "referenced_type" : "_ZTIP7_JNIEnv"
    },
    {
     "referenced_type" : "_ZTIP8_jobject"
    },
    {
     "referenced_type" : "_ZTIP9_jfieldID"
    },
    {
     "referenced_type" : "_ZTIs"
    }
   ],
   "referenced_type" : "_ZTIFvP7_JNIEnvP8_jobjectP9_jfieldIDsE",
   "return_type" : "_ZTIv",
   "self_type" : "_ZTIFvP7_JNIEnvP8_jobjectP9_jfieldIDsE",
   "source_file" : "libnativehelper/include_jni/jni.h"
  },
  {
   "alignment" : 4,
   "linker_set_key" : "_ZTIFvP7_JNIEnvP8_jobjectP9_jfieldIDtE",
   "name" : "void (_JNIEnv *, _jobject *, _jfieldID *, unsigned short)",
   "parameters" :
   [
    {
     "referenced_type" : "_ZTIP7_JNIEnv"
    },
    {
     "referenced_type" : "_ZTIP8_jobject"
    },
    {
     "referenced_type" : "_ZTIP9_jfieldID"
    },
    {
     "referenced_type" : "_ZTIt"
    }
   ],
   "referenced_type" : "_ZTIFvP7_JNIEnvP8_jobjectP9_jfieldIDtE",
   "return_type" : "_ZTIv",
   "self_type" : "_ZTIFvP7_JNIEnvP8_jobjectP9_jfieldIDtE",
   "source_file" : "libnativehelper/include_jni/jni.h"
  },
  {
   "alignment" : 4,
   "linker_set_key" : "_ZTIFvP7_JNIEnvP8_jobjectP9_jfieldIDxE",
   "name" : "void (_JNIEnv *, _jobject *, _jfieldID *, long long)",
   "parameters" :
   [
    {
     "referenced_type" : "_ZTIP7_JNIEnv"
    },
    {
     "referenced_type" : "_ZTIP8_jobject"
    },
    {
     "referenced_type" : "_ZTIP9_jfieldID"
    },
    {
     "referenced_type" : "_ZTIx"
    }
   ],
   "referenced_type" : "_ZTIFvP7_JNIEnvP8_jobjectP9_jfieldIDxE",
   "return_type" : "_ZTIv",
   "self_type" : "_ZTIFvP7_JNIEnvP8_jobjectP9_jfieldIDxE",
   "source_file" : "libnativehelper/include_jni/jni.h"
  },
  {
   "alignment" : 4,
   "linker_set_key" : "_ZTIFvP7_JNIEnvP8_jstringPKcE",
   "name" : "void (_JNIEnv *, _jstring *, const char *)",
   "parameters" :
   [
    {
     "referenced_type" : "_ZTIP7_JNIEnv"
    },
    {
     "referenced_type" : "_ZTIP8_jstring"
    },
    {
     "referenced_type" : "_ZTIPKc"
    }
   ],
   "referenced_type" : "_ZTIFvP7_JNIEnvP8_jstringPKcE",
   "return_type" : "_ZTIv",
   "self_type" : "_ZTIFvP7_JNIEnvP8_jstringPKcE",
   "source_file" : "libnativehelper/include_jni/jni.h"
  },
  {
   "alignment" : 4,
   "linker_set_key" : "_ZTIFvP7_JNIEnvP8_jstringPKtE",
   "name" : "void (_JNIEnv *, _jstring *, const unsigned short *)",
   "parameters" :
   [
    {
     "referenced_type" : "_ZTIP7_JNIEnv"
    },
    {
     "referenced_type" : "_ZTIP8_jstring"
    },
    {
     "referenced_type" : "_ZTIPKt"
    }
   ],
   "referenced_type" : "_ZTIFvP7_JNIEnvP8_jstringPKtE",
   "return_type" : "_ZTIv",
   "self_type" : "_ZTIFvP7_JNIEnvP8_jstringPKtE",
   "source_file" : "libnativehelper/include_jni/jni.h"
  },
  {
   "alignment" : 4,
   "linker_set_key" : "_ZTIFvP7_JNIEnvP8_jstringiiPcE",
   "name" : "void (_JNIEnv *, _jstring *, int, int, char *)",
   "parameters" :
   [
    {
     "referenced_type" : "_ZTIP7_JNIEnv"
    },
    {
     "referenced_type" : "_ZTIP8_jstring"
    },
    {
     "referenced_type" : "_ZTIi"
    },
    {
     "referenced_type" : "_ZTIi"
    },
    {
     "referenced_type" : "_ZTIPc"
    }
   ],
   "referenced_type" : "_ZTIFvP7_JNIEnvP8_jstringiiPcE",
   "return_type" : "_ZTIv",
   "self_type" : "_ZTIFvP7_JNIEnvP8_jstringiiPcE",
   "source_file" : "libnativehelper/include_jni/jni.h"
  },
  {
   "alignment" : 4,
   "linker_set_key" : "_ZTIFvP7_JNIEnvP8_jstringiiPtE",
   "name" : "void (_JNIEnv *, _jstring *, int, int, unsigned short *)",
   "parameters" :
   [
    {
     "referenced_type" : "_ZTIP7_JNIEnv"
    },
    {
     "referenced_type" : "_ZTIP8_jstring"
    },
    {
     "referenced_type" : "_ZTIi"
    },
    {
     "referenced_type" : "_ZTIi"
    },
    {
     "referenced_type" : "_ZTIPt"
    }
   ],
   "referenced_type" : "_ZTIFvP7_JNIEnvP8_jstringiiPtE",
   "return_type" : "_ZTIv",
   "self_type" : "_ZTIFvP7_JNIEnvP8_jstringiiPtE",
   "source_file" : "libnativehelper/include_jni/jni.h"
  },
  {
   "alignment" : 4,
   "linker_set_key" : "_ZTIFvP7_JNIEnvPKcE",
   "name" : "void (_JNIEnv *, const char *)",
   "parameters" :
   [
    {
     "referenced_type" : "_ZTIP7_JNIEnv"
    },
    {
     "referenced_type" : "_ZTIPKc"
    }
   ],
   "referenced_type" : "_ZTIFvP7_JNIEnvPKcE",
   "return_type" : "_ZTIv",
   "self_type" : "_ZTIFvP7_JNIEnvPKcE",
   "source_file" : "libnativehelper/include_jni/jni.h"
  },
  {
   "alignment" : 4,
   "linker_set_key" : "_ZTIFvRKNSt3__119__libcpp_debug_infoEE",
   "name" : "void (const std::__1::__libcpp_debug_info &)",
   "parameters" :
   [
    {
     "referenced_type" : "_ZTIRKNSt3__119__libcpp_debug_infoE"
    }
   ],
   "referenced_type" : "_ZTIFvRKNSt3__119__libcpp_debug_infoEE",
   "return_type" : "_ZTIv",
   "self_type" : "_ZTIFvRKNSt3__119__libcpp_debug_infoEE",
   "source_file" : "external/libcxx/include/__debug"
  },
  {
   "alignment" : 4,
   "linker_set_key" : "_ZTIFviE",
   "name" : "void (int)",
   "parameters" :
   [
    {
     "referenced_type" : "_ZTIi"
    }
   ],
   "referenced_type" : "_ZTIFviE",
   "return_type" : "_ZTIv",
   "self_type" : "_ZTIFviE",
   "source_file" : "bionic/libc/kernel/uapi/asm-arm/asm/signal.h"
  },
  {
   "alignment" : 4,
   "linker_set_key" : "_ZTIFviP7siginfoPvE",
   "name" : "void (int, siginfo *, void *)",
   "parameters" :
   [
    {
     "referenced_type" : "_ZTIi"
    },
    {
     "referenced_type" : "_ZTIP7siginfo"
    },
    {
     "referenced_type" : "_ZTIPv"
    }
   ],
   "referenced_type" : "_ZTIFviP7siginfoPvE",
   "return_type" : "_ZTIv",
   "self_type" : "_ZTIFviP7siginfoPvE",
   "source_file" : "bionic/libc/kernel/uapi/asm-arm/asm/signal.h"
  },
  {
   "alignment" : 4,
   "linker_set_key" : "_ZTIFvvE",
   "name" : "void ()",
   "referenced_type" : "_ZTIFvvE",
   "return_type" : "_ZTIv",
   "self_type" : "_ZTIFvvE",
   "source_file" : "bionic/libc/kernel/uapi/asm-arm/asm/signal.h"
  },
  {
   "alignment" : 4,
   "linker_set_key" : "_ZTIFxP7_JNIEnvP7_jclassP10_jmethodIDPK6jvalueE",
   "name" : "long long (_JNIEnv *, _jclass *, _jmethodID *, const jvalue *)",
   "parameters" :
   [
    {
     "referenced_type" : "_ZTIP7_JNIEnv"
    },
    {
     "referenced_type" : "_ZTIP7_jclass"
    },
    {
     "referenced_type" : "_ZTIP10_jmethodID"
    },
    {
     "referenced_type" : "_ZTIPK6jvalue"
    }
   ],
   "referenced_type" : "_ZTIFxP7_JNIEnvP7_jclassP10_jmethodIDPK6jvalueE",
   "return_type" : "_ZTIx",
   "self_type" : "_ZTIFxP7_JNIEnvP7_jclassP10_jmethodIDPK6jvalueE",
   "source_file" : "libnativehelper/include_jni/jni.h"
  },
  {
   "alignment" : 4,
   "linker_set_key" : "_ZTIFxP7_JNIEnvP7_jclassP10_jmethodIDSt9__va_listE",
   "name" : "long long (_JNIEnv *, _jclass *, _jmethodID *, std::__va_list)",
   "parameters" :
   [
    {
     "referenced_type" : "_ZTIP7_JNIEnv"
    },
    {
     "referenced_type" : "_ZTIP7_jclass"
    },
    {
     "referenced_type" : "_ZTIP10_jmethodID"
    },
    {
     "referenced_type" : "_ZTISt9__va_list"
    }
   ],
   "referenced_type" : "_ZTIFxP7_JNIEnvP7_jclassP10_jmethodIDSt9__va_listE",
   "return_type" : "_ZTIx",
   "self_type" : "_ZTIFxP7_JNIEnvP7_jclassP10_jmethodIDSt9__va_listE",
   "source_file" : "libnativehelper/include_jni/jni.h"
  },
  {
   "alignment" : 4,
   "linker_set_key" : "_ZTIFxP7_JNIEnvP7_jclassP10_jmethodIDzE",
   "name" : "long long (_JNIEnv *, _jclass *, _jmethodID *, ...)",
   "parameters" :
   [
    {
     "referenced_type" : "_ZTIP7_JNIEnv"
    },
    {
     "referenced_type" : "_ZTIP7_jclass"
    },
    {
     "referenced_type" : "_ZTIP10_jmethodID"
    }
   ],
   "referenced_type" : "_ZTIFxP7_JNIEnvP7_jclassP10_jmethodIDzE",
   "return_type" : "_ZTIx",
   "self_type" : "_ZTIFxP7_JNIEnvP7_jclassP10_jmethodIDzE",
   "source_file" : "libnativehelper/include_jni/jni.h"
  },
  {
   "alignment" : 4,
   "linker_set_key" : "_ZTIFxP7_JNIEnvP7_jclassP9_jfieldIDE",
   "name" : "long long (_JNIEnv *, _jclass *, _jfieldID *)",
   "parameters" :
   [
    {
     "referenced_type" : "_ZTIP7_JNIEnv"
    },
    {
     "referenced_type" : "_ZTIP7_jclass"
    },
    {
     "referenced_type" : "_ZTIP9_jfieldID"
    }
   ],
   "referenced_type" : "_ZTIFxP7_JNIEnvP7_jclassP9_jfieldIDE",
   "return_type" : "_ZTIx",
   "self_type" : "_ZTIFxP7_JNIEnvP7_jclassP9_jfieldIDE",
   "source_file" : "libnativehelper/include_jni/jni.h"
  },
  {
   "alignment" : 4,
   "linker_set_key" : "_ZTIFxP7_JNIEnvP8_jobjectE",
   "name" : "long long (_JNIEnv *, _jobject *)",
   "parameters" :
   [
    {
     "referenced_type" : "_ZTIP7_JNIEnv"
    },
    {
     "referenced_type" : "_ZTIP8_jobject"
    }
   ],
   "referenced_type" : "_ZTIFxP7_JNIEnvP8_jobjectE",
   "return_type" : "_ZTIx",
   "self_type" : "_ZTIFxP7_JNIEnvP8_jobjectE",
   "source_file" : "libnativehelper/include_jni/jni.h"
  },
  {
   "alignment" : 4,
   "linker_set_key" : "_ZTIFxP7_JNIEnvP8_jobjectP10_jmethodIDPK6jvalueE",
   "name" : "long long (_JNIEnv *, _jobject *, _jmethodID *, const jvalue *)",
   "parameters" :
   [
    {
     "referenced_type" : "_ZTIP7_JNIEnv"
    },
    {
     "referenced_type" : "_ZTIP8_jobject"
    },
    {
     "referenced_type" : "_ZTIP10_jmethodID"
    },
    {
     "referenced_type" : "_ZTIPK6jvalue"
    }
   ],
   "referenced_type" : "_ZTIFxP7_JNIEnvP8_jobjectP10_jmethodIDPK6jvalueE",
   "return_type" : "_ZTIx",
   "self_type" : "_ZTIFxP7_JNIEnvP8_jobjectP10_jmethodIDPK6jvalueE",
   "source_file" : "libnativehelper/include_jni/jni.h"
  },
  {
   "alignment" : 4,
   "linker_set_key" : "_ZTIFxP7_JNIEnvP8_jobjectP10_jmethodIDSt9__va_listE",
   "name" : "long long (_JNIEnv *, _jobject *, _jmethodID *, std::__va_list)",
   "parameters" :
   [
    {
     "referenced_type" : "_ZTIP7_JNIEnv"
    },
    {
     "referenced_type" : "_ZTIP8_jobject"
    },
    {
     "referenced_type" : "_ZTIP10_jmethodID"
    },
    {
     "referenced_type" : "_ZTISt9__va_list"
    }
   ],
   "referenced_type" : "_ZTIFxP7_JNIEnvP8_jobjectP10_jmethodIDSt9__va_listE",
   "return_type" : "_ZTIx",
   "self_type" : "_ZTIFxP7_JNIEnvP8_jobjectP10_jmethodIDSt9__va_listE",
   "source_file" : "libnativehelper/include_jni/jni.h"
  },
  {
   "alignment" : 4,
   "linker_set_key" : "_ZTIFxP7_JNIEnvP8_jobjectP10_jmethodIDzE",
   "name" : "long long (_JNIEnv *, _jobject *, _jmethodID *, ...)",
   "parameters" :
   [
    {
     "referenced_type" : "_ZTIP7_JNIEnv"
    },
    {
     "referenced_type" : "_ZTIP8_jobject"
    },
    {
     "referenced_type" : "_ZTIP10_jmethodID"
    }
   ],
   "referenced_type" : "_ZTIFxP7_JNIEnvP8_jobjectP10_jmethodIDzE",
   "return_type" : "_ZTIx",
   "self_type" : "_ZTIFxP7_JNIEnvP8_jobjectP10_jmethodIDzE",
   "source_file" : "libnativehelper/include_jni/jni.h"
  },
  {
   "alignment" : 4,
   "linker_set_key" : "_ZTIFxP7_JNIEnvP8_jobjectP7_jclassP10_jmethodIDPK6jvalueE",
   "name" : "long long (_JNIEnv *, _jobject *, _jclass *, _jmethodID *, const jvalue *)",
   "parameters" :
   [
    {
     "referenced_type" : "_ZTIP7_JNIEnv"
    },
    {
     "referenced_type" : "_ZTIP8_jobject"
    },
    {
     "referenced_type" : "_ZTIP7_jclass"
    },
    {
     "referenced_type" : "_ZTIP10_jmethodID"
    },
    {
     "referenced_type" : "_ZTIPK6jvalue"
    }
   ],
   "referenced_type" : "_ZTIFxP7_JNIEnvP8_jobjectP7_jclassP10_jmethodIDPK6jvalueE",
   "return_type" : "_ZTIx",
   "self_type" : "_ZTIFxP7_JNIEnvP8_jobjectP7_jclassP10_jmethodIDPK6jvalueE",
   "source_file" : "libnativehelper/include_jni/jni.h"
  },
  {
   "alignment" : 4,
   "linker_set_key" : "_ZTIFxP7_JNIEnvP8_jobjectP7_jclassP10_jmethodIDSt9__va_listE",
   "name" : "long long (_JNIEnv *, _jobject *, _jclass *, _jmethodID *, std::__va_list)",
   "parameters" :
   [
    {
     "referenced_type" : "_ZTIP7_JNIEnv"
    },
    {
     "referenced_type" : "_ZTIP8_jobject"
    },
    {
     "referenced_type" : "_ZTIP7_jclass"
    },
    {
     "referenced_type" : "_ZTIP10_jmethodID"
    },
    {
     "referenced_type" : "_ZTISt9__va_list"
    }
   ],
   "referenced_type" : "_ZTIFxP7_JNIEnvP8_jobjectP7_jclassP10_jmethodIDSt9__va_listE",
   "return_type" : "_ZTIx",
   "self_type" : "_ZTIFxP7_JNIEnvP8_jobjectP7_jclassP10_jmethodIDSt9__va_listE",
   "source_file" : "libnativehelper/include_jni/jni.h"
  },
  {
   "alignment" : 4,
   "linker_set_key" : "_ZTIFxP7_JNIEnvP8_jobjectP7_jclassP10_jmethodIDzE",
   "name" : "long long (_JNIEnv *, _jobject *, _jclass *, _jmethodID *, ...)",
   "parameters" :
   [
    {
     "referenced_type" : "_ZTIP7_JNIEnv"
    },
    {
     "referenced_type" : "_ZTIP8_jobject"
    },
    {
     "referenced_type" : "_ZTIP7_jclass"
    },
    {
     "referenced_type" : "_ZTIP10_jmethodID"
    }
   ],
   "referenced_type" : "_ZTIFxP7_JNIEnvP8_jobjectP7_jclassP10_jmethodIDzE",
   "return_type" : "_ZTIx",
   "self_type" : "_ZTIFxP7_JNIEnvP8_jobjectP7_jclassP10_jmethodIDzE",
   "source_file" : "libnativehelper/include_jni/jni.h"
  },
  {
   "alignment" : 4,
   "linker_set_key" : "_ZTIFxP7_JNIEnvP8_jobjectP9_jfieldIDE",
   "name" : "long long (_JNIEnv *, _jobject *, _jfieldID *)",
   "parameters" :
   [
    {
     "referenced_type" : "_ZTIP7_JNIEnv"
    },
    {
     "referenced_type" : "_ZTIP8_jobject"
    },
    {
     "referenced_type" : "_ZTIP9_jfieldID"
    }
   ],
   "referenced_type" : "_ZTIFxP7_JNIEnvP8_jobjectP9_jfieldIDE",
   "return_type" : "_ZTIx",
   "self_type" : "_ZTIFxP7_JNIEnvP8_jobjectP9_jfieldIDE",
   "source_file" : "libnativehelper/include_jni/jni.h"
  }
 ],
 "functions" :
 [
  {
   "function_name" : "PaletteNotifyBeginJniInvocation",
   "linker_set_key" : "PaletteNotifyBeginJniInvocation",
   "parameters" :
   [
    {
     "referenced_type" : "_ZTIP7_JNIEnv"
    }
   ],
   "return_type" : "_ZTIi",
   "source_file" : "art/libartpalette/include/palette/palette.h"
  },
  {
   "function_name" : "PaletteNotifyDexFileLoaded",
   "linker_set_key" : "PaletteNotifyDexFileLoaded",
   "parameters" :
   [
    {
     "referenced_type" : "_ZTIPKc"
    }
   ],
   "return_type" : "_ZTIi",
   "source_file" : "art/libartpalette/include/palette/palette.h"
  },
  {
   "function_name" : "PaletteNotifyEndDex2oatCompilation",
   "linker_set_key" : "PaletteNotifyEndDex2oatCompilation",
   "parameters" :
   [
    {
     "referenced_type" : "_ZTIi"
    },
    {
     "referenced_type" : "_ZTIi"
    },
    {
     "referenced_type" : "_ZTIi"
    },
    {
     "referenced_type" : "_ZTIi"
    }
   ],
   "return_type" : "_ZTIi",
   "source_file" : "art/libartpalette/include/palette/palette.h"
  },
  {
   "function_name" : "PaletteNotifyEndJniInvocation",
   "linker_set_key" : "PaletteNotifyEndJniInvocation",
   "parameters" :
   [
    {
     "referenced_type" : "_ZTIP7_JNIEnv"
    }
   ],
   "return_type" : "_ZTIi",
   "source_file" : "art/libartpalette/include/palette/palette.h"
  },
  {
   "function_name" : "PaletteNotifyOatFileLoaded",
   "linker_set_key" : "PaletteNotifyOatFileLoaded",
   "parameters" :
   [
    {
     "referenced_type" : "_ZTIPKc"
    }
   ],
   "return_type" : "_ZTIi",
   "source_file" : "art/libartpalette/include/palette/palette.h"
  },
  {
   "function_name" : "PaletteNotifyStartDex2oatCompilation",
   "linker_set_key" : "PaletteNotifyStartDex2oatCompilation",
   "parameters" :
   [
    {
     "referenced_type" : "_ZTIi"
    },
    {
     "referenced_type" : "_ZTIi"
    },
    {
     "referenced_type" : "_ZTIi"
    },
    {
     "referenced_type" : "_ZTIi"
    }
   ],
   "return_type" : "_ZTIi",
   "source_file" : "art/libartpalette/include/palette/palette.h"
  },
  {
   "function_name" : "PaletteShouldReportDex2oatCompilation",
   "linker_set_key" : "PaletteShouldReportDex2oatCompilation",
   "parameters" :
   [
    {
     "referenced_type" : "_ZTIPb"
    }
   ],
   "return_type" : "_ZTIi",
   "source_file" : "art/libartpalette/include/palette/palette.h"
  },
  {
   "function_name" : "PaletteShouldReportJniInvocations",
   "linker_set_key" : "PaletteShouldReportJniInvocations",
   "parameters" :
   [
    {
     "referenced_type" : "_ZTIPb"
    }
   ],
   "return_type" : "_ZTIi",
   "source_file" : "art/libartpalette/include/palette/palette.h"
  },
  {
   "function_name" : "__bionic_memchr",
   "linker_set_key" : "_Z15__bionic_memchrPKvU17pass_object_size1ij",
   "parameters" :
   [
    {
     "referenced_type" : "_ZTIKPKv"
    },
    {
     "referenced_type" : "_ZTIi"
    },
    {
     "referenced_type" : "_ZTIj"
    }
   ],
   "return_type" : "_ZTIPv",
   "source_file" : "bionic/libc/include/string.h"
  },
  {
   "function_name" : "__bionic_strchr",
   "linker_set_key" : "_Z15__bionic_strchrPKcU17pass_object_size1i",
   "parameters" :
   [
    {
     "referenced_type" : "_ZTIKPKc"
    },
    {
     "referenced_type" : "_ZTIi"
    }
   ],
   "return_type" : "_ZTIPc",
   "source_file" : "bionic/libc/include/string.h"
  },
  {
   "function_name" : "__bionic_strstr",
   "linker_set_key" : "_Z15__bionic_strstrPKcS0_",
   "parameters" :
   [
    {
     "referenced_type" : "_ZTIPKc"
    },
    {
     "referenced_type" : "_ZTIPKc"
    }
   ],
   "return_type" : "_ZTIPc",
   "source_file" : "bionic/libc/include/string.h"
  },
  {
   "function_name" : "__libcpp_memchr",
   "linker_set_key" : "_Z15__libcpp_memchrPKvij",
   "parameters" :
   [
    {
     "referenced_type" : "_ZTIPKv"
    },
    {
     "referenced_type" : "_ZTIi"
    },
    {
     "referenced_type" : "_ZTIj"
    }
   ],
   "return_type" : "_ZTIPv",
   "source_file" : "external/libcxx/include/string.h"
  },
  {
   "function_name" : "__libcpp_strchr",
   "linker_set_key" : "_Z15__libcpp_strchrPKci",
   "parameters" :
   [
    {
     "referenced_type" : "_ZTIPKc"
    },
    {
     "referenced_type" : "_ZTIi"
    }
   ],
   "return_type" : "_ZTIPc",
   "source_file" : "external/libcxx/include/string.h"
  },
  {
   "function_name" : "__libcpp_strstr",
   "linker_set_key" : "_Z15__libcpp_strstrPKcS0_",
   "parameters" :
   [
    {
     "referenced_type" : "_ZTIPKc"
    },
    {
     "referenced_type" : "_ZTIPKc"
    }
   ],
   "return_type" : "_ZTIPc",
   "source_file" : "external/libcxx/include/string.h"
  },
  {
   "function_name" : "__bionic_strpbrk",
   "linker_set_key" : "_Z16__bionic_strpbrkPKcS0_",
   "parameters" :
   [
    {
     "referenced_type" : "_ZTIPKc"
    },
    {
     "referenced_type" : "_ZTIPKc"
    }
   ],
   "return_type" : "_ZTIPc",
   "source_file" : "bionic/libc/include/string.h"
  },
  {
   "function_name" : "__bionic_strrchr",
   "linker_set_key" : "_Z16__bionic_strrchrPKcU17pass_object_size1i",
   "parameters" :
   [
    {
     "referenced_type" : "_ZTIKPKc"
    },
    {
     "referenced_type" : "_ZTIi"
    }
   ],
   "return_type" : "_ZTIPc",
   "source_file" : "bionic/libc/include/string.h"
  },
  {
   "function_name" : "__libcpp_strpbrk",
   "linker_set_key" : "_Z16__libcpp_strpbrkPKcS0_",
   "parameters" :
   [
    {
     "referenced_type" : "_ZTIPKc"
    },
    {
     "referenced_type" : "_ZTIPKc"
    }
   ],
   "return_type" : "_ZTIPc",
   "source_file" : "external/libcxx/include/string.h"
  },
  {
   "function_name" : "__libcpp_strrchr",
   "linker_set_key" : "_Z16__libcpp_strrchrPKci",
   "parameters" :
   [
    {
     "referenced_type" : "_ZTIPKc"
    },
    {
     "referenced_type" : "_ZTIi"
    }
   ],
   "return_type" : "_ZTIPc",
   "source_file" : "external/libcxx/include/string.h"
  },
  {
   "function_name" : "memchr",
   "linker_set_key" : "_Z6memchrUa9enable_ifIXLb1EEEPKvij",
   "parameters" :
   [
    {
     "referenced_type" : "_ZTIPKv"
    },
    {
     "referenced_type" : "_ZTIi"
    },
    {
     "referenced_type" : "_ZTIj"
    }
   ],
   "return_type" : "_ZTIPKv",
   "source_file" : "external/libcxx/include/string.h"
  },
  {
   "function_name" : "memchr",
   "linker_set_key" : "_Z6memchrUa9enable_ifIXLb1EEEPvij",
   "parameters" :
   [
    {
     "referenced_type" : "_ZTIPv"
    },
    {
     "referenced_type" : "_ZTIi"
    },
    {
     "referenced_type" : "_ZTIj"
    }
   ],
   "return_type" : "_ZTIPv",
   "source_file" : "external/libcxx/include/string.h"
  },
  {
   "function_name" : "memchr",
   "linker_set_key" : "_Z6memchrUa9enable_ifIXLb1EEXLb1EEEPKvU17pass_object_size1ij",
   "parameters" :
   [
    {
     "referenced_type" : "_ZTIKPKv"
    },
    {
     "referenced_type" : "_ZTIi"
    },
    {
     "referenced_type" : "_ZTIj"
    }
   ],
   "return_type" : "_ZTIPKv",
   "source_file" : "bionic/libc/include/string.h"
  },
  {
   "function_name" : "memchr",
   "linker_set_key" : "_Z6memchrUa9enable_ifIXLb1EEXLb1EEEPvU17pass_object_size1ij",
   "parameters" :
   [
    {
     "referenced_type" : "_ZTIKPv"
    },
    {
     "referenced_type" : "_ZTIi"
    },
    {
     "referenced_type" : "_ZTIj"
    }
   ],
   "return_type" : "_ZTIPv",
   "source_file" : "bionic/libc/include/string.h"
  },
  {
   "function_name" : "strchr",
   "linker_set_key" : "_Z6strchrUa9enable_ifIXLb1EEEPKci",
   "parameters" :
   [
    {
     "referenced_type" : "_ZTIPKc"
    },
    {
     "referenced_type" : "_ZTIi"
    }
   ],
   "return_type" : "_ZTIPKc",
   "source_file" : "external/libcxx/include/string.h"
  },
  {
   "function_name" : "strchr",
   "linker_set_key" : "_Z6strchrUa9enable_ifIXLb1EEEPci",
   "parameters" :
   [
    {
     "referenced_type" : "_ZTIPc"
    },
    {
     "referenced_type" : "_ZTIi"
    }
   ],
   "return_type" : "_ZTIPc",
   "source_file" : "external/libcxx/include/string.h"
  },
  {
   "function_name" : "strchr",
   "linker_set_key" : "_Z6strchrUa9enable_ifIXLb1EEXLb1EEEPKcU17pass_object_size1i",
   "parameters" :
   [
    {
     "referenced_type" : "_ZTIKPKc"
    },
    {
     "referenced_type" : "_ZTIi"
    }
   ],
   "return_type" : "_ZTIPKc",
   "source_file" : "bionic/libc/include/string.h"
  },
  {
   "function_name" : "strchr",
   "linker_set_key" : "_Z6strchrUa9enable_ifIXLb1EEXLb1EEEPcU17pass_object_size1i",
   "parameters" :
   [
    {
     "referenced_type" : "_ZTIKPc"
    },
    {
     "referenced_type" : "_ZTIi"
    }
   ],
   "return_type" : "_ZTIPc",
   "source_file" : "bionic/libc/include/string.h"
  },
  {
   "function_name" : "strstr",
   "linker_set_key" : "_Z6strstrUa9enable_ifIXLb1EEEPKcS0_",
   "parameters" :
   [
    {
     "referenced_type" : "_ZTIPKc"
    },
    {
     "referenced_type" : "_ZTIPKc"
    }
   ],
   "return_type" : "_ZTIPKc",
   "source_file" : "external/libcxx/include/string.h"
  },
  {
   "function_name" : "strstr",
   "linker_set_key" : "_Z6strstrUa9enable_ifIXLb1EEEPcPKc",
   "parameters" :
   [
    {
     "referenced_type" : "_ZTIPc"
    },
    {
     "referenced_type" : "_ZTIPKc"
    }
   ],
   "return_type" : "_ZTIPc",
   "source_file" : "external/libcxx/include/string.h"
  },
  {
   "function_name" : "strstr",
   "linker_set_key" : "_Z6strstrUa9enable_ifIXLb1EEXLb1EEEPKcS0_",
   "parameters" :
   [
    {
     "referenced_type" : "_ZTIPKc"
    },
    {
     "referenced_type" : "_ZTIPKc"
    }
   ],
   "return_type" : "_ZTIPKc",
   "source_file" : "bionic/libc/include/string.h"
  },
  {
   "function_name" : "strstr",
   "linker_set_key" : "_Z6strstrUa9enable_ifIXLb1EEXLb1EEEPcPKc",
   "parameters" :
   [
    {
     "referenced_type" : "_ZTIPc"
    },
    {
     "referenced_type" : "_ZTIPKc"
    }
   ],
   "return_type" : "_ZTIPc",
   "source_file" : "bionic/libc/include/string.h"
  },
  {
   "function_name" : "strpbrk",
   "linker_set_key" : "_Z7strpbrkUa9enable_ifIXLb1EEEPKcS0_",
   "parameters" :
   [
    {
     "referenced_type" : "_ZTIPKc"
    },
    {
     "referenced_type" : "_ZTIPKc"
    }
   ],
   "return_type" : "_ZTIPKc",
   "source_file" : "external/libcxx/include/string.h"
  },
  {
   "function_name" : "strpbrk",
   "linker_set_key" : "_Z7strpbrkUa9enable_ifIXLb1EEEPcPKc",
   "parameters" :
   [
    {
     "referenced_type" : "_ZTIPc"
    },
    {
     "referenced_type" : "_ZTIPKc"
    }
   ],
   "return_type" : "_ZTIPc",
   "source_file" : "external/libcxx/include/string.h"
  },
  {
   "function_name" : "strpbrk",
   "linker_set_key" : "_Z7strpbrkUa9enable_ifIXLb1EEXLb1EEEPKcS0_",
   "parameters" :
   [
    {
     "referenced_type" : "_ZTIPKc"
    },
    {
     "referenced_type" : "_ZTIPKc"
    }
   ],
   "return_type" : "_ZTIPKc",
   "source_file" : "bionic/libc/include/string.h"
  },
  {
   "function_name" : "strpbrk",
   "linker_set_key" : "_Z7strpbrkUa9enable_ifIXLb1EEXLb1EEEPcPKc",
   "parameters" :
   [
    {
     "referenced_type" : "_ZTIPc"
    },
    {
     "referenced_type" : "_ZTIPKc"
    }
   ],
   "return_type" : "_ZTIPc",
   "source_file" : "bionic/libc/include/string.h"
  },
  {
   "function_name" : "strrchr",
   "linker_set_key" : "_Z7strrchrUa9enable_ifIXLb1EEEPKci",
   "parameters" :
   [
    {
     "referenced_type" : "_ZTIPKc"
    },
    {
     "referenced_type" : "_ZTIi"
    }
   ],
   "return_type" : "_ZTIPKc",
   "source_file" : "external/libcxx/include/string.h"
  },
  {
   "function_name" : "strrchr",
   "linker_set_key" : "_Z7strrchrUa9enable_ifIXLb1EEEPci",
   "parameters" :
   [
    {
     "referenced_type" : "_ZTIPc"
    },
    {
     "referenced_type" : "_ZTIi"
    }
   ],
   "return_type" : "_ZTIPc",
   "source_file" : "external/libcxx/include/string.h"
  },
  {
   "function_name" : "strrchr",
   "linker_set_key" : "_Z7strrchrUa9enable_ifIXLb1EEXLb1EEEPKcU17pass_object_size1i",
   "parameters" :
   [
    {
     "referenced_type" : "_ZTIKPKc"
    },
    {
     "referenced_type" : "_ZTIi"
    }
   ],
   "return_type" : "_ZTIPKc",
   "source_file" : "bionic/libc/include/string.h"
  },
  {
   "function_name" : "strrchr",
   "linker_set_key" : "_Z7strrchrUa9enable_ifIXLb1EEXLb1EEEPcU17pass_object_size1i",
   "parameters" :
   [
    {
     "referenced_type" : "_ZTIKPc"
    },
    {
     "referenced_type" : "_ZTIi"
    }
   ],
   "return_type" : "_ZTIPc",
   "source_file" : "bionic/libc/include/string.h"
  },
  {
   "function_name" : "_JNIEnv::FatalError",
   "linker_set_key" : "_ZN7_JNIEnv10FatalErrorEPKc",
   "parameters" :
   [
    {
     "is_this_ptr" : true,
     "referenced_type" : "_ZTIP7_JNIEnv"
    },
    {
     "referenced_type" : "_ZTIPKc"
    }
   ],
   "return_type" : "_ZTIv",
   "source_file" : "libnativehelper/include_jni/jni.h"
  },
  {
   "function_name" : "_JNIEnv::GetFieldID",
   "linker_set_key" : "_ZN7_JNIEnv10GetFieldIDEP7_jclassPKcS3_",
   "parameters" :
   [
    {
     "is_this_ptr" : true,
     "referenced_type" : "_ZTIP7_JNIEnv"
    },
    {
     "referenced_type" : "_ZTIP7_jclass"
    },
    {
     "referenced_type" : "_ZTIPKc"
    },
    {
     "referenced_type" : "_ZTIPKc"
    }
   ],
   "return_type" : "_ZTIP9_jfieldID",
   "source_file" : "libnativehelper/include_jni/jni.h"
  },
  {
   "function_name" : "_JNIEnv::GetVersion",
   "linker_set_key" : "_ZN7_JNIEnv10GetVersionEv",
   "parameters" :
   [
    {
     "is_this_ptr" : true,
     "referenced_type" : "_ZTIP7_JNIEnv"
    }
   ],
   "return_type" : "_ZTIi",
   "source_file" : "libnativehelper/include_jni/jni.h"
  },
  {
   "function_name" : "_JNIEnv::NewObjectA",
   "linker_set_key" : "_ZN7_JNIEnv10NewObjectAEP7_jclassP10_jmethodIDPK6jvalue",
   "parameters" :
   [
    {
     "is_this_ptr" : true,
     "referenced_type" : "_ZTIP7_JNIEnv"
    },
    {
     "referenced_type" : "_ZTIP7_jclass"
    },
    {
     "referenced_type" : "_ZTIP10_jmethodID"
    },
    {
     "referenced_type" : "_ZTIPK6jvalue"
    }
   ],
   "return_type" : "_ZTIP8_jobject",
   "source_file" : "libnativehelper/include_jni/jni.h"
  },
  {
   "function_name" : "_JNIEnv::NewObjectV",
   "linker_set_key" : "_ZN7_JNIEnv10NewObjectVEP7_jclassP10_jmethodIDSt9__va_list",
   "parameters" :
   [
    {
     "is_this_ptr" : true,
     "referenced_type" : "_ZTIP7_JNIEnv"
    },
    {
     "referenced_type" : "_ZTIP7_jclass"
    },
    {
     "referenced_type" : "_ZTIP10_jmethodID"
    },
    {
     "referenced_type" : "_ZTISt9__va_list"
    }
   ],
   "return_type" : "_ZTIP8_jobject",
   "source_file" : "libnativehelper/include_jni/jni.h"
  },
  {
   "function_name" : "_JNIEnv::AllocObject",
   "linker_set_key" : "_ZN7_JNIEnv11AllocObjectEP7_jclass",
   "parameters" :
   [
    {
     "is_this_ptr" : true,
     "referenced_type" : "_ZTIP7_JNIEnv"
    },
    {
     "referenced_type" : "_ZTIP7_jclass"
    }
   ],
   "return_type" : "_ZTIP8_jobject",
   "source_file" : "libnativehelper/include_jni/jni.h"
  },
  {
   "function_name" : "_JNIEnv::DefineClass",
   "linker_set_key" : "_ZN7_JNIEnv11DefineClassEPKcP8_jobjectPKai",
   "parameters" :
   [
    {
     "is_this_ptr" : true,
     "referenced_type" : "_ZTIP7_JNIEnv"
    },
    {
     "referenced_type" : "_ZTIPKc"
    },
    {
     "referenced_type" : "_ZTIP8_jobject"
    },
    {
     "referenced_type" : "_ZTIPKa"
    },
    {
     "referenced_type" : "_ZTIi"
    }
   ],
   "return_type" : "_ZTIP7_jclass",
   "source_file" : "libnativehelper/include_jni/jni.h"
  },
  {
   "function_name" : "_JNIEnv::GetIntField",
   "linker_set_key" : "_ZN7_JNIEnv11GetIntFieldEP8_jobjectP9_jfieldID",
   "parameters" :
   [
    {
     "is_this_ptr" : true,
     "referenced_type" : "_ZTIP7_JNIEnv"
    },
    {
     "referenced_type" : "_ZTIP8_jobject"
    },
    {
     "referenced_type" : "_ZTIP9_jfieldID"
    }
   ],
   "return_type" : "_ZTIi",
   "source_file" : "libnativehelper/include_jni/jni.h"
  },
  {
   "function_name" : "_JNIEnv::GetMethodID",
   "linker_set_key" : "_ZN7_JNIEnv11GetMethodIDEP7_jclassPKcS3_",
   "parameters" :
   [
    {
     "is_this_ptr" : true,
     "referenced_type" : "_ZTIP7_JNIEnv"
    },
    {
     "referenced_type" : "_ZTIP7_jclass"
    },
    {
     "referenced_type" : "_ZTIPKc"
    },
    {
     "referenced_type" : "_ZTIPKc"
    }
   ],
   "return_type" : "_ZTIP10_jmethodID",
   "source_file" : "libnativehelper/include_jni/jni.h"
  },
  {
   "function_name" : "_JNIEnv::MonitorExit",
   "linker_set_key" : "_ZN7_JNIEnv11MonitorExitEP8_jobject",
   "parameters" :
   [
    {
     "is_this_ptr" : true,
     "referenced_type" : "_ZTIP7_JNIEnv"
    },
    {
     "referenced_type" : "_ZTIP8_jobject"
    }
   ],
   "return_type" : "_ZTIi",
   "source_file" : "libnativehelper/include_jni/jni.h"
  },
  {
   "function_name" : "_JNIEnv::NewIntArray",
   "linker_set_key" : "_ZN7_JNIEnv11NewIntArrayEi",
   "parameters" :
   [
    {
     "is_this_ptr" : true,
     "referenced_type" : "_ZTIP7_JNIEnv"
    },
    {
     "referenced_type" : "_ZTIi"
    }
   ],
   "return_type" : "_ZTIP10_jintArray",
   "source_file" : "libnativehelper/include_jni/jni.h"
  },
  {
   "function_name" : "_JNIEnv::NewLocalRef",
   "linker_set_key" : "_ZN7_JNIEnv11NewLocalRefEP8_jobject",
   "parameters" :
   [
    {
     "is_this_ptr" : true,
     "referenced_type" : "_ZTIP7_JNIEnv"
    },
    {
     "referenced_type" : "_ZTIP8_jobject"
    }
   ],
   "return_type" : "_ZTIP8_jobject",
   "source_file" : "libnativehelper/include_jni/jni.h"
  },
  {
   "function_name" : "_JNIEnv::SetIntField",
   "linker_set_key" : "_ZN7_JNIEnv11SetIntFieldEP8_jobjectP9_jfieldIDi",
   "parameters" :
   [
    {
     "is_this_ptr" : true,
     "referenced_type" : "_ZTIP7_JNIEnv"
    },
    {
     "referenced_type" : "_ZTIP8_jobject"
    },
    {
     "referenced_type" : "_ZTIP9_jfieldID"
    },
    {
     "referenced_type" : "_ZTIi"
    }
   ],
   "return_type" : "_ZTIv",
   "source_file" : "libnativehelper/include_jni/jni.h"
  },
  {
   "function_name" : "_JNIEnv::GetByteField",
   "linker_set_key" : "_ZN7_JNIEnv12GetByteFieldEP8_jobjectP9_jfieldID",
   "parameters" :
   [
    {
     "is_this_ptr" : true,
     "referenced_type" : "_ZTIP7_JNIEnv"
    },
    {
     "referenced_type" : "_ZTIP8_jobject"
    },
    {
     "referenced_type" : "_ZTIP9_jfieldID"
    }
   ],
   "return_type" : "_ZTIa",
   "source_file" : "libnativehelper/include_jni/jni.h"
  },
  {
   "function_name" : "_JNIEnv::GetCharField",
   "linker_set_key" : "_ZN7_JNIEnv12GetCharFieldEP8_jobjectP9_jfieldID",
   "parameters" :
   [
    {
     "is_this_ptr" : true,
     "referenced_type" : "_ZTIP7_JNIEnv"
    },
    {
     "referenced_type" : "_ZTIP8_jobject"
    },
    {
     "referenced_type" : "_ZTIP9_jfieldID"
    }
   ],
   "return_type" : "_ZTIt",
   "source_file" : "libnativehelper/include_jni/jni.h"
  },
  {
   "function_name" : "_JNIEnv::GetLongField",
   "linker_set_key" : "_ZN7_JNIEnv12GetLongFieldEP8_jobjectP9_jfieldID",
   "parameters" :
   [
    {
     "is_this_ptr" : true,
     "referenced_type" : "_ZTIP7_JNIEnv"
    },
    {
     "referenced_type" : "_ZTIP8_jobject"
    },
    {
     "referenced_type" : "_ZTIP9_jfieldID"
    }
   ],
   "return_type" : "_ZTIx",
   "source_file" : "libnativehelper/include_jni/jni.h"
  },
  {
   "function_name" : "_JNIEnv::IsInstanceOf",
   "linker_set_key" : "_ZN7_JNIEnv12IsInstanceOfEP8_jobjectP7_jclass",
   "parameters" :
   [
    {
     "is_this_ptr" : true,
     "referenced_type" : "_ZTIP7_JNIEnv"
    },
    {
     "referenced_type" : "_ZTIP8_jobject"
    },
    {
     "referenced_type" : "_ZTIP7_jclass"
    }
   ],
   "return_type" : "_ZTIh",
   "source_file" : "libnativehelper/include_jni/jni.h"
  },
  {
   "function_name" : "_JNIEnv::IsSameObject",
   "linker_set_key" : "_ZN7_JNIEnv12IsSameObjectEP8_jobjectS1_",
   "parameters" :
   [
    {
     "is_this_ptr" : true,
     "referenced_type" : "_ZTIP7_JNIEnv"
    },
    {
     "referenced_type" : "_ZTIP8_jobject"
    },
    {
     "referenced_type" : "_ZTIP8_jobject"
    }
   ],
   "return_type" : "_ZTIh",
   "source_file" : "libnativehelper/include_jni/jni.h"
  },
  {
   "function_name" : "_JNIEnv::MonitorEnter",
   "linker_set_key" : "_ZN7_JNIEnv12MonitorEnterEP8_jobject",
   "parameters" :
   [
    {
     "is_this_ptr" : true,
     "referenced_type" : "_ZTIP7_JNIEnv"
    },
    {
     "referenced_type" : "_ZTIP8_jobject"
    }
   ],
   "return_type" : "_ZTIi",
   "source_file" : "libnativehelper/include_jni/jni.h"
  },
  {
   "function_name" : "_JNIEnv::NewByteArray",
   "linker_set_key" : "_ZN7_JNIEnv12NewByteArrayEi",
   "parameters" :
   [
    {
     "is_this_ptr" : true,
     "referenced_type" : "_ZTIP7_JNIEnv"
    },
    {
     "referenced_type" : "_ZTIi"
    }
   ],
   "return_type" : "_ZTIP11_jbyteArray",
   "source_file" : "libnativehelper/include_jni/jni.h"
  },
  {
   "function_name" : "_JNIEnv::NewCharArray",
   "linker_set_key" : "_ZN7_JNIEnv12NewCharArrayEi",
   "parameters" :
   [
    {
     "is_this_ptr" : true,
     "referenced_type" : "_ZTIP7_JNIEnv"
    },
    {
     "referenced_type" : "_ZTIi"
    }
   ],
   "return_type" : "_ZTIP11_jcharArray",
   "source_file" : "libnativehelper/include_jni/jni.h"
  },
  {
   "function_name" : "_JNIEnv::NewGlobalRef",
   "linker_set_key" : "_ZN7_JNIEnv12NewGlobalRefEP8_jobject",
   "parameters" :
   [
    {
     "is_this_ptr" : true,
     "referenced_type" : "_ZTIP7_JNIEnv"
    },
    {
     "referenced_type" : "_ZTIP8_jobject"
    }
   ],
   "return_type" : "_ZTIP8_jobject",
   "source_file" : "libnativehelper/include_jni/jni.h"
  },
  {
   "function_name" : "_JNIEnv::NewLongArray",
   "linker_set_key" : "_ZN7_JNIEnv12NewLongArrayEi",
   "parameters" :
   [
    {
     "is_this_ptr" : true,
     "referenced_type" : "_ZTIP7_JNIEnv"
    },
    {
     "referenced_type" : "_ZTIi"
    }
   ],
   "return_type" : "_ZTIP11_jlongArray",
   "source_file" : "libnativehelper/include_jni/jni.h"
  },
  {
   "function_name" : "_JNIEnv::NewStringUTF",
   "linker_set_key" : "_ZN7_JNIEnv12NewStringUTFEPKc",
   "parameters" :
   [
    {
     "is_this_ptr" : true,
     "referenced_type" : "_ZTIP7_JNIEnv"
    },
    {
     "referenced_type" : "_ZTIPKc"
    }
   ],
   "return_type" : "_ZTIP8_jstring",
   "source_file" : "libnativehelper/include_jni/jni.h"
  },
  {
   "function_name" : "_JNIEnv::SetByteField",
   "linker_set_key" : "_ZN7_JNIEnv12SetByteFieldEP8_jobjectP9_jfieldIDa",
   "parameters" :
   [
    {
     "is_this_ptr" : true,
     "referenced_type" : "_ZTIP7_JNIEnv"
    },
    {
     "referenced_type" : "_ZTIP8_jobject"
    },
    {
     "referenced_type" : "_ZTIP9_jfieldID"
    },
    {
     "referenced_type" : "_ZTIa"
    }
   ],
   "return_type" : "_ZTIv",
   "source_file" : "libnativehelper/include_jni/jni.h"
  },
  {
   "function_name" : "_JNIEnv::SetCharField",
   "linker_set_key" : "_ZN7_JNIEnv12SetCharFieldEP8_jobjectP9_jfieldIDt",
   "parameters" :
   [
    {
     "is_this_ptr" : true,
     "referenced_type" : "_ZTIP7_JNIEnv"
    },
    {
     "referenced_type" : "_ZTIP8_jobject"
    },
    {
     "referenced_type" : "_ZTIP9_jfieldID"
    },
    {
     "referenced_type" : "_ZTIt"
    }
   ],
   "return_type" : "_ZTIv",
   "source_file" : "libnativehelper/include_jni/jni.h"
  },
  {
   "function_name" : "_JNIEnv::SetLongField",
   "linker_set_key" : "_ZN7_JNIEnv12SetLongFieldEP8_jobjectP9_jfieldIDx",
   "parameters" :
   [
    {
     "is_this_ptr" : true,
     "referenced_type" : "_ZTIP7_JNIEnv"
    },
    {
     "referenced_type" : "_ZTIP8_jobject"
    },
    {
     "referenced_type" : "_ZTIP9_jfieldID"
    },
    {
     "referenced_type" : "_ZTIx"
    }
   ],
   "return_type" : "_ZTIv",
   "source_file" : "libnativehelper/include_jni/jni.h"
  },
  {
   "function_name" : "_JNIEnv::CallIntMethod",
   "linker_set_key" : "_ZN7_JNIEnv13CallIntMethodEP8_jobjectP10_jmethodIDz",
   "parameters" :
   [
    {
     "is_this_ptr" : true,
     "referenced_type" : "_ZTIP7_JNIEnv"
    },
    {
     "referenced_type" : "_ZTIP8_jobject"
    },
    {
     "referenced_type" : "_ZTIP10_jmethodID"
    }
   ],
   "return_type" : "_ZTIi",
   "source_file" : "libnativehelper/include_jni/jni.h"
  },
  {
   "function_name" : "_JNIEnv::GetFloatField",
   "linker_set_key" : "_ZN7_JNIEnv13GetFloatFieldEP8_jobjectP9_jfieldID",
   "parameters" :
   [
    {
     "is_this_ptr" : true,
     "referenced_type" : "_ZTIP7_JNIEnv"
    },
    {
     "referenced_type" : "_ZTIP8_jobject"
    },
    {
     "referenced_type" : "_ZTIP9_jfieldID"
    }
   ],
   "return_type" : "_ZTIf",
   "source_file" : "libnativehelper/include_jni/jni.h"
  },
  {
   "function_name" : "_JNIEnv::GetShortField",
   "linker_set_key" : "_ZN7_JNIEnv13GetShortFieldEP8_jobjectP9_jfieldID",
   "parameters" :
   [
    {
     "is_this_ptr" : true,
     "referenced_type" : "_ZTIP7_JNIEnv"
    },
    {
     "referenced_type" : "_ZTIP8_jobject"
    },
    {
     "referenced_type" : "_ZTIP9_jfieldID"
    }
   ],
   "return_type" : "_ZTIs",
   "source_file" : "libnativehelper/include_jni/jni.h"
  },
  {
   "function_name" : "_JNIEnv::GetSuperclass",
   "linker_set_key" : "_ZN7_JNIEnv13GetSuperclassEP7_jclass",
   "parameters" :
   [
    {
     "is_this_ptr" : true,
     "referenced_type" : "_ZTIP7_JNIEnv"
    },
    {
     "referenced_type" : "_ZTIP7_jclass"
    }
   ],
   "return_type" : "_ZTIP7_jclass",
   "source_file" : "libnativehelper/include_jni/jni.h"
  },
  {
   "function_name" : "_JNIEnv::NewFloatArray",
   "linker_set_key" : "_ZN7_JNIEnv13NewFloatArrayEi",
   "parameters" :
   [
    {
     "is_this_ptr" : true,
     "referenced_type" : "_ZTIP7_JNIEnv"
    },
    {
     "referenced_type" : "_ZTIi"
    }
   ],
   "return_type" : "_ZTIP12_jfloatArray",
   "source_file" : "libnativehelper/include_jni/jni.h"
  },
  {
   "function_name" : "_JNIEnv::NewShortArray",
   "linker_set_key" : "_ZN7_JNIEnv13NewShortArrayEi",
   "parameters" :
   [
    {
     "is_this_ptr" : true,
     "referenced_type" : "_ZTIP7_JNIEnv"
    },
    {
     "referenced_type" : "_ZTIi"
    }
   ],
   "return_type" : "_ZTIP12_jshortArray",
   "source_file" : "libnativehelper/include_jni/jni.h"
  },
  {
   "function_name" : "_JNIEnv::PopLocalFrame",
   "linker_set_key" : "_ZN7_JNIEnv13PopLocalFrameEP8_jobject",
   "parameters" :
   [
    {
     "is_this_ptr" : true,
     "referenced_type" : "_ZTIP7_JNIEnv"
    },
    {
     "referenced_type" : "_ZTIP8_jobject"
    }
   ],
   "return_type" : "_ZTIP8_jobject",
   "source_file" : "libnativehelper/include_jni/jni.h"
  },
  {
   "function_name" : "_JNIEnv::SetFloatField",
   "linker_set_key" : "_ZN7_JNIEnv13SetFloatFieldEP8_jobjectP9_jfieldIDf",
   "parameters" :
   [
    {
     "is_this_ptr" : true,
     "referenced_type" : "_ZTIP7_JNIEnv"
    },
    {
     "referenced_type" : "_ZTIP8_jobject"
    },
    {
     "referenced_type" : "_ZTIP9_jfieldID"
    },
    {
     "referenced_type" : "_ZTIf"
    }
   ],
   "return_type" : "_ZTIv",
   "source_file" : "libnativehelper/include_jni/jni.h"
  },
  {
   "function_name" : "_JNIEnv::SetShortField",
   "linker_set_key" : "_ZN7_JNIEnv13SetShortFieldEP8_jobjectP9_jfieldIDs",
   "parameters" :
   [
    {
     "is_this_ptr" : true,
     "referenced_type" : "_ZTIP7_JNIEnv"
    },
    {
     "referenced_type" : "_ZTIP8_jobject"
    },
    {
     "referenced_type" : "_ZTIP9_jfieldID"
    },
    {
     "referenced_type" : "_ZTIs"
    }
   ],
   "return_type" : "_ZTIv",
   "source_file" : "libnativehelper/include_jni/jni.h"
  },
  {
   "function_name" : "_JNIEnv::CallByteMethod",
   "linker_set_key" : "_ZN7_JNIEnv14CallByteMethodEP8_jobjectP10_jmethodIDz",
   "parameters" :
   [
    {
     "is_this_ptr" : true,
     "referenced_type" : "_ZTIP7_JNIEnv"
    },
    {
     "referenced_type" : "_ZTIP8_jobject"
    },
    {
     "referenced_type" : "_ZTIP10_jmethodID"
    }
   ],
   "return_type" : "_ZTIa",
   "source_file" : "libnativehelper/include_jni/jni.h"
  },
  {
   "function_name" : "_JNIEnv::CallCharMethod",
   "linker_set_key" : "_ZN7_JNIEnv14CallCharMethodEP8_jobjectP10_jmethodIDz",
   "parameters" :
   [
    {
     "is_this_ptr" : true,
     "referenced_type" : "_ZTIP7_JNIEnv"
    },
    {
     "referenced_type" : "_ZTIP8_jobject"
    },
    {
     "referenced_type" : "_ZTIP10_jmethodID"
    }
   ],
   "return_type" : "_ZTIt",
   "source_file" : "libnativehelper/include_jni/jni.h"
  },
  {
   "function_name" : "_JNIEnv::CallIntMethodA",
   "linker_set_key" : "_ZN7_JNIEnv14CallIntMethodAEP8_jobjectP10_jmethodIDPK6jvalue",
   "parameters" :
   [
    {
     "is_this_ptr" : true,
     "referenced_type" : "_ZTIP7_JNIEnv"
    },
    {
     "referenced_type" : "_ZTIP8_jobject"
    },
    {
     "referenced_type" : "_ZTIP10_jmethodID"
    },
    {
     "referenced_type" : "_ZTIPK6jvalue"
    }
   ],
   "return_type" : "_ZTIi",
   "source_file" : "libnativehelper/include_jni/jni.h"
  },
  {
   "function_name" : "_JNIEnv::CallIntMethodV",
   "linker_set_key" : "_ZN7_JNIEnv14CallIntMethodVEP8_jobjectP10_jmethodIDSt9__va_list",
   "parameters" :
   [
    {
     "is_this_ptr" : true,
     "referenced_type" : "_ZTIP7_JNIEnv"
    },
    {
     "referenced_type" : "_ZTIP8_jobject"
    },
    {
     "referenced_type" : "_ZTIP10_jmethodID"
    },
    {
     "referenced_type" : "_ZTISt9__va_list"
    }
   ],
   "return_type" : "_ZTIi",
   "source_file" : "libnativehelper/include_jni/jni.h"
  },
  {
   "function_name" : "_JNIEnv::CallLongMethod",
   "linker_set_key" : "_ZN7_JNIEnv14CallLongMethodEP8_jobjectP10_jmethodIDz",
   "parameters" :
   [
    {
     "is_this_ptr" : true,
     "referenced_type" : "_ZTIP7_JNIEnv"
    },
    {
     "referenced_type" : "_ZTIP8_jobject"
    },
    {
     "referenced_type" : "_ZTIP10_jmethodID"
    }
   ],
   "return_type" : "_ZTIx",
   "source_file" : "libnativehelper/include_jni/jni.h"
  },
  {
   "function_name" : "_JNIEnv::CallVoidMethod",
   "linker_set_key" : "_ZN7_JNIEnv14CallVoidMethodEP8_jobjectP10_jmethodIDz",
   "parameters" :
   [
    {
     "is_this_ptr" : true,
     "referenced_type" : "_ZTIP7_JNIEnv"
    },
    {
     "referenced_type" : "_ZTIP8_jobject"
    },
    {
     "referenced_type" : "_ZTIP10_jmethodID"
    }
   ],
   "return_type" : "_ZTIv",
   "source_file" : "libnativehelper/include_jni/jni.h"
  },
  {
   "function_name" : "_JNIEnv::DeleteLocalRef",
   "linker_set_key" : "_ZN7_JNIEnv14DeleteLocalRefEP8_jobject",
   "parameters" :
   [
    {
     "is_this_ptr" : true,
     "referenced_type" : "_ZTIP7_JNIEnv"
    },
    {
     "referenced_type" : "_ZTIP8_jobject"
    }
   ],
   "return_type" : "_ZTIv",
   "source_file" : "libnativehelper/include_jni/jni.h"
  },
  {
   "function_name" : "_JNIEnv::ExceptionCheck",
   "linker_set_key" : "_ZN7_JNIEnv14ExceptionCheckEv",
   "parameters" :
   [
    {
     "is_this_ptr" : true,
     "referenced_type" : "_ZTIP7_JNIEnv"
    }
   ],
   "return_type" : "_ZTIh",
   "source_file" : "libnativehelper/include_jni/jni.h"
  },
  {
   "function_name" : "_JNIEnv::ExceptionClear",
   "linker_set_key" : "_ZN7_JNIEnv14ExceptionClearEv",
   "parameters" :
   [
    {
     "is_this_ptr" : true,
     "referenced_type" : "_ZTIP7_JNIEnv"
    }
   ],
   "return_type" : "_ZTIv",
   "source_file" : "libnativehelper/include_jni/jni.h"
  },
  {
   "function_name" : "_JNIEnv::GetArrayLength",
   "linker_set_key" : "_ZN7_JNIEnv14GetArrayLengthEP7_jarray",
   "parameters" :
   [
    {
     "is_this_ptr" : true,
     "referenced_type" : "_ZTIP7_JNIEnv"
    },
    {
     "referenced_type" : "_ZTIP7_jarray"
    }
   ],
   "return_type" : "_ZTIi",
   "source_file" : "libnativehelper/include_jni/jni.h"
  },
  {
   "function_name" : "_JNIEnv::GetDoubleField",
   "linker_set_key" : "_ZN7_JNIEnv14GetDoubleFieldEP8_jobjectP9_jfieldID",
   "parameters" :
   [
    {
     "is_this_ptr" : true,
     "referenced_type" : "_ZTIP7_JNIEnv"
    },
    {
     "referenced_type" : "_ZTIP8_jobject"
    },
    {
     "referenced_type" : "_ZTIP9_jfieldID"
    }
   ],
   "return_type" : "_ZTId",
   "source_file" : "libnativehelper/include_jni/jni.h"
  },
  {
   "function_name" : "_JNIEnv::GetObjectClass",
   "linker_set_key" : "_ZN7_JNIEnv14GetObjectClassEP8_jobject",
   "parameters" :
   [
    {
     "is_this_ptr" : true,
     "referenced_type" : "_ZTIP7_JNIEnv"
    },
    {
     "referenced_type" : "_ZTIP8_jobject"
    }
   ],
   "return_type" : "_ZTIP7_jclass",
   "source_file" : "libnativehelper/include_jni/jni.h"
  },
  {
   "function_name" : "_JNIEnv::GetObjectField",
   "linker_set_key" : "_ZN7_JNIEnv14GetObjectFieldEP8_jobjectP9_jfieldID",
   "parameters" :
   [
    {
     "is_this_ptr" : true,
     "referenced_type" : "_ZTIP7_JNIEnv"
    },
    {
     "referenced_type" : "_ZTIP8_jobject"
    },
    {
     "referenced_type" : "_ZTIP9_jfieldID"
    }
   ],
   "return_type" : "_ZTIP8_jobject",
   "source_file" : "libnativehelper/include_jni/jni.h"
  },
  {
   "function_name" : "_JNIEnv::GetStringChars",
   "linker_set_key" : "_ZN7_JNIEnv14GetStringCharsEP8_jstringPh",
   "parameters" :
   [
    {
     "is_this_ptr" : true,
     "referenced_type" : "_ZTIP7_JNIEnv"
    },
    {
     "referenced_type" : "_ZTIP8_jstring"
    },
    {
     "referenced_type" : "_ZTIPh"
    }
   ],
   "return_type" : "_ZTIPKt",
   "source_file" : "libnativehelper/include_jni/jni.h"
  },
  {
   "function_name" : "_JNIEnv::NewDoubleArray",
   "linker_set_key" : "_ZN7_JNIEnv14NewDoubleArrayEi",
   "parameters" :
   [
    {
     "is_this_ptr" : true,
     "referenced_type" : "_ZTIP7_JNIEnv"
    },
    {
     "referenced_type" : "_ZTIi"
    }
   ],
   "return_type" : "_ZTIP13_jdoubleArray",
   "source_file" : "libnativehelper/include_jni/jni.h"
  },
  {
   "function_name" : "_JNIEnv::NewObjectArray",
   "linker_set_key" : "_ZN7_JNIEnv14NewObjectArrayEiP7_jclassP8_jobject",
   "parameters" :
   [
    {
     "is_this_ptr" : true,
     "referenced_type" : "_ZTIP7_JNIEnv"
    },
    {
     "referenced_type" : "_ZTIi"
    },
    {
     "referenced_type" : "_ZTIP7_jclass"
    },
    {
     "referenced_type" : "_ZTIP8_jobject"
    }
   ],
   "return_type" : "_ZTIP13_jobjectArray",
   "source_file" : "libnativehelper/include_jni/jni.h"
  },
  {
   "function_name" : "_JNIEnv::PushLocalFrame",
   "linker_set_key" : "_ZN7_JNIEnv14PushLocalFrameEi",
   "parameters" :
   [
    {
     "is_this_ptr" : true,
     "referenced_type" : "_ZTIP7_JNIEnv"
    },
    {
     "referenced_type" : "_ZTIi"
    }
   ],
   "return_type" : "_ZTIi",
   "source_file" : "libnativehelper/include_jni/jni.h"
  },
  {
   "function_name" : "_JNIEnv::SetDoubleField",
   "linker_set_key" : "_ZN7_JNIEnv14SetDoubleFieldEP8_jobjectP9_jfieldIDd",
   "parameters" :
   [
    {
     "is_this_ptr" : true,
     "referenced_type" : "_ZTIP7_JNIEnv"
    },
    {
     "referenced_type" : "_ZTIP8_jobject"
    },
    {
     "referenced_type" : "_ZTIP9_jfieldID"
    },
    {
     "referenced_type" : "_ZTId"
    }
   ],
   "return_type" : "_ZTIv",
   "source_file" : "libnativehelper/include_jni/jni.h"
  },
  {
   "function_name" : "_JNIEnv::SetObjectField",
   "linker_set_key" : "_ZN7_JNIEnv14SetObjectFieldEP8_jobjectP9_jfieldIDS1_",
   "parameters" :
   [
    {
     "is_this_ptr" : true,
     "referenced_type" : "_ZTIP7_JNIEnv"
    },
    {
     "referenced_type" : "_ZTIP8_jobject"
    },
    {
     "referenced_type" : "_ZTIP9_jfieldID"
    },
    {
     "referenced_type" : "_ZTIP8_jobject"
    }
   ],
   "return_type" : "_ZTIv",
   "source_file" : "libnativehelper/include_jni/jni.h"
  },
  {
   "function_name" : "_JNIEnv::CallByteMethodA",
   "linker_set_key" : "_ZN7_JNIEnv15CallByteMethodAEP8_jobjectP10_jmethodIDPK6jvalue",
   "parameters" :
   [
    {
     "is_this_ptr" : true,
     "referenced_type" : "_ZTIP7_JNIEnv"
    },
    {
     "referenced_type" : "_ZTIP8_jobject"
    },
    {
     "referenced_type" : "_ZTIP10_jmethodID"
    },
    {
     "referenced_type" : "_ZTIPK6jvalue"
    }
   ],
   "return_type" : "_ZTIa",
   "source_file" : "libnativehelper/include_jni/jni.h"
  },
  {
   "function_name" : "_JNIEnv::CallByteMethodV",
   "linker_set_key" : "_ZN7_JNIEnv15CallByteMethodVEP8_jobjectP10_jmethodIDSt9__va_list",
   "parameters" :
   [
    {
     "is_this_ptr" : true,
     "referenced_type" : "_ZTIP7_JNIEnv"
    },
    {
     "referenced_type" : "_ZTIP8_jobject"
    },
    {
     "referenced_type" : "_ZTIP10_jmethodID"
    },
    {
     "referenced_type" : "_ZTISt9__va_list"
    }
   ],
   "return_type" : "_ZTIa",
   "source_file" : "libnativehelper/include_jni/jni.h"
  },
  {
   "function_name" : "_JNIEnv::CallCharMethodA",
   "linker_set_key" : "_ZN7_JNIEnv15CallCharMethodAEP8_jobjectP10_jmethodIDPK6jvalue",
   "parameters" :
   [
    {
     "is_this_ptr" : true,
     "referenced_type" : "_ZTIP7_JNIEnv"
    },
    {
     "referenced_type" : "_ZTIP8_jobject"
    },
    {
     "referenced_type" : "_ZTIP10_jmethodID"
    },
    {
     "referenced_type" : "_ZTIPK6jvalue"
    }
   ],
   "return_type" : "_ZTIt",
   "source_file" : "libnativehelper/include_jni/jni.h"
  },
  {
   "function_name" : "_JNIEnv::CallCharMethodV",
   "linker_set_key" : "_ZN7_JNIEnv15CallCharMethodVEP8_jobjectP10_jmethodIDSt9__va_list",
   "parameters" :
   [
    {
     "is_this_ptr" : true,
     "referenced_type" : "_ZTIP7_JNIEnv"
    },
    {
     "referenced_type" : "_ZTIP8_jobject"
    },
    {
     "referenced_type" : "_ZTIP10_jmethodID"
    },
    {
     "referenced_type" : "_ZTISt9__va_list"
    }
   ],
   "return_type" : "_ZTIt",
   "source_file" : "libnativehelper/include_jni/jni.h"
  },
  {
   "function_name" : "_JNIEnv::CallFloatMethod",
   "linker_set_key" : "_ZN7_JNIEnv15CallFloatMethodEP8_jobjectP10_jmethodIDz",
   "parameters" :
   [
    {
     "is_this_ptr" : true,
     "referenced_type" : "_ZTIP7_JNIEnv"
    },
    {
     "referenced_type" : "_ZTIP8_jobject"
    },
    {
     "referenced_type" : "_ZTIP10_jmethodID"
    }
   ],
   "return_type" : "_ZTIf",
   "source_file" : "libnativehelper/include_jni/jni.h"
  },
  {
   "function_name" : "_JNIEnv::CallLongMethodA",
   "linker_set_key" : "_ZN7_JNIEnv15CallLongMethodAEP8_jobjectP10_jmethodIDPK6jvalue",
   "parameters" :
   [
    {
     "is_this_ptr" : true,
     "referenced_type" : "_ZTIP7_JNIEnv"
    },
    {
     "referenced_type" : "_ZTIP8_jobject"
    },
    {
     "referenced_type" : "_ZTIP10_jmethodID"
    },
    {
     "referenced_type" : "_ZTIPK6jvalue"
    }
   ],
   "return_type" : "_ZTIx",
   "source_file" : "libnativehelper/include_jni/jni.h"
  },
  {
   "function_name" : "_JNIEnv::CallLongMethodV",
   "linker_set_key" : "_ZN7_JNIEnv15CallLongMethodVEP8_jobjectP10_jmethodIDSt9__va_list",
   "parameters" :
   [
    {
     "is_this_ptr" : true,
     "referenced_type" : "_ZTIP7_JNIEnv"
    },
    {
     "referenced_type" : "_ZTIP8_jobject"
    },
    {
     "referenced_type" : "_ZTIP10_jmethodID"
    },
    {
     "referenced_type" : "_ZTISt9__va_list"
    }
   ],
   "return_type" : "_ZTIx",
   "source_file" : "libnativehelper/include_jni/jni.h"
  },
  {
   "function_name" : "_JNIEnv::CallShortMethod",
   "linker_set_key" : "_ZN7_JNIEnv15CallShortMethodEP8_jobjectP10_jmethodIDz",
   "parameters" :
   [
    {
     "is_this_ptr" : true,
     "referenced_type" : "_ZTIP7_JNIEnv"
    },
    {
     "referenced_type" : "_ZTIP8_jobject"
    },
    {
     "referenced_type" : "_ZTIP10_jmethodID"
    }
   ],
   "return_type" : "_ZTIs",
   "source_file" : "libnativehelper/include_jni/jni.h"
  },
  {
   "function_name" : "_JNIEnv::CallVoidMethodA",
   "linker_set_key" : "_ZN7_JNIEnv15CallVoidMethodAEP8_jobjectP10_jmethodIDPK6jvalue",
   "parameters" :
   [
    {
     "is_this_ptr" : true,
     "referenced_type" : "_ZTIP7_JNIEnv"
    },
    {
     "referenced_type" : "_ZTIP8_jobject"
    },
    {
     "referenced_type" : "_ZTIP10_jmethodID"
    },
    {
     "referenced_type" : "_ZTIPK6jvalue"
    }
   ],
   "return_type" : "_ZTIv",
   "source_file" : "libnativehelper/include_jni/jni.h"
  },
  {
   "function_name" : "_JNIEnv::CallVoidMethodV",
   "linker_set_key" : "_ZN7_JNIEnv15CallVoidMethodVEP8_jobjectP10_jmethodIDSt9__va_list",
   "parameters" :
   [
    {
     "is_this_ptr" : true,
     "referenced_type" : "_ZTIP7_JNIEnv"
    },
    {
     "referenced_type" : "_ZTIP8_jobject"
    },
    {
     "referenced_type" : "_ZTIP10_jmethodID"
    },
    {
     "referenced_type" : "_ZTISt9__va_list"
    }
   ],
   "return_type" : "_ZTIv",
   "source_file" : "libnativehelper/include_jni/jni.h"
  },
  {
   "function_name" : "_JNIEnv::DeleteGlobalRef",
   "linker_set_key" : "_ZN7_JNIEnv15DeleteGlobalRefEP8_jobject",
   "parameters" :
   [
    {
     "is_this_ptr" : true,
     "referenced_type" : "_ZTIP7_JNIEnv"
    },
    {
     "referenced_type" : "_ZTIP8_jobject"
    }
   ],
   "return_type" : "_ZTIv",
   "source_file" : "libnativehelper/include_jni/jni.h"
  },
  {
   "function_name" : "_JNIEnv::GetBooleanField",
   "linker_set_key" : "_ZN7_JNIEnv15GetBooleanFieldEP8_jobjectP9_jfieldID",
   "parameters" :
   [
    {
     "is_this_ptr" : true,
     "referenced_type" : "_ZTIP7_JNIEnv"
    },
    {
     "referenced_type" : "_ZTIP8_jobject"
    },
    {
     "referenced_type" : "_ZTIP9_jfieldID"
    }
   ],
   "return_type" : "_ZTIh",
   "source_file" : "libnativehelper/include_jni/jni.h"
  },
  {
   "function_name" : "_JNIEnv::GetStringLength",
   "linker_set_key" : "_ZN7_JNIEnv15GetStringLengthEP8_jstring",
   "parameters" :
   [
    {
     "is_this_ptr" : true,
     "referenced_type" : "_ZTIP7_JNIEnv"
    },
    {
     "referenced_type" : "_ZTIP8_jstring"
    }
   ],
   "return_type" : "_ZTIi",
   "source_file" : "libnativehelper/include_jni/jni.h"
  },
  {
   "function_name" : "_JNIEnv::GetStringRegion",
   "linker_set_key" : "_ZN7_JNIEnv15GetStringRegionEP8_jstringiiPt",
   "parameters" :
   [
    {
     "is_this_ptr" : true,
     "referenced_type" : "_ZTIP7_JNIEnv"
    },
    {
     "referenced_type" : "_ZTIP8_jstring"
    },
    {
     "referenced_type" : "_ZTIi"
    },
    {
     "referenced_type" : "_ZTIi"
    },
    {
     "referenced_type" : "_ZTIPt"
    }
   ],
   "return_type" : "_ZTIv",
   "source_file" : "libnativehelper/include_jni/jni.h"
  },
  {
   "function_name" : "_JNIEnv::NewBooleanArray",
   "linker_set_key" : "_ZN7_JNIEnv15NewBooleanArrayEi",
   "parameters" :
   [
    {
     "is_this_ptr" : true,
     "referenced_type" : "_ZTIP7_JNIEnv"
    },
    {
     "referenced_type" : "_ZTIi"
    }
   ],
   "return_type" : "_ZTIP14_jbooleanArray",
   "source_file" : "libnativehelper/include_jni/jni.h"
  },
  {
   "function_name" : "_JNIEnv::RegisterNatives",
   "linker_set_key" : "_ZN7_JNIEnv15RegisterNativesEP7_jclassPK15JNINativeMethodi",
   "parameters" :
   [
    {
     "is_this_ptr" : true,
     "referenced_type" : "_ZTIP7_JNIEnv"
    },
    {
     "referenced_type" : "_ZTIP7_jclass"
    },
    {
     "referenced_type" : "_ZTIPK15JNINativeMethod"
    },
    {
     "referenced_type" : "_ZTIi"
    }
   ],
   "return_type" : "_ZTIi",
   "source_file" : "libnativehelper/include_jni/jni.h"
  },
  {
   "function_name" : "_JNIEnv::SetBooleanField",
   "linker_set_key" : "_ZN7_JNIEnv15SetBooleanFieldEP8_jobjectP9_jfieldIDh",
   "parameters" :
   [
    {
     "is_this_ptr" : true,
     "referenced_type" : "_ZTIP7_JNIEnv"
    },
    {
     "referenced_type" : "_ZTIP8_jobject"
    },
    {
     "referenced_type" : "_ZTIP9_jfieldID"
    },
    {
     "referenced_type" : "_ZTIh"
    }
   ],
   "return_type" : "_ZTIv",
   "source_file" : "libnativehelper/include_jni/jni.h"
  },
  {
   "function_name" : "_JNIEnv::CallDoubleMethod",
   "linker_set_key" : "_ZN7_JNIEnv16CallDoubleMethodEP8_jobjectP10_jmethodIDz",
   "parameters" :
   [
    {
     "is_this_ptr" : true,
     "referenced_type" : "_ZTIP7_JNIEnv"
    },
    {
     "referenced_type" : "_ZTIP8_jobject"
    },
    {
     "referenced_type" : "_ZTIP10_jmethodID"
    }
   ],
   "return_type" : "_ZTId",
   "source_file" : "libnativehelper/include_jni/jni.h"
  },
  {
   "function_name" : "_JNIEnv::CallFloatMethodA",
   "linker_set_key" : "_ZN7_JNIEnv16CallFloatMethodAEP8_jobjectP10_jmethodIDPK6jvalue",
   "parameters" :
   [
    {
     "is_this_ptr" : true,
     "referenced_type" : "_ZTIP7_JNIEnv"
    },
    {
     "referenced_type" : "_ZTIP8_jobject"
    },
    {
     "referenced_type" : "_ZTIP10_jmethodID"
    },
    {
     "referenced_type" : "_ZTIPK6jvalue"
    }
   ],
   "return_type" : "_ZTIf",
   "source_file" : "libnativehelper/include_jni/jni.h"
  },
  {
   "function_name" : "_JNIEnv::CallFloatMethodV",
   "linker_set_key" : "_ZN7_JNIEnv16CallFloatMethodVEP8_jobjectP10_jmethodIDSt9__va_list",
   "parameters" :
   [
    {
     "is_this_ptr" : true,
     "referenced_type" : "_ZTIP7_JNIEnv"
    },
    {
     "referenced_type" : "_ZTIP8_jobject"
    },
    {
     "referenced_type" : "_ZTIP10_jmethodID"
    },
    {
     "referenced_type" : "_ZTISt9__va_list"
    }
   ],
   "return_type" : "_ZTIf",
   "source_file" : "libnativehelper/include_jni/jni.h"
  },
  {
   "function_name" : "_JNIEnv::CallObjectMethod",
   "linker_set_key" : "_ZN7_JNIEnv16CallObjectMethodEP8_jobjectP10_jmethodIDz",
   "parameters" :
   [
    {
     "is_this_ptr" : true,
     "referenced_type" : "_ZTIP7_JNIEnv"
    },
    {
     "referenced_type" : "_ZTIP8_jobject"
    },
    {
     "referenced_type" : "_ZTIP10_jmethodID"
    }
   ],
   "return_type" : "_ZTIP8_jobject",
   "source_file" : "libnativehelper/include_jni/jni.h"
  },
  {
   "function_name" : "_JNIEnv::CallShortMethodA",
   "linker_set_key" : "_ZN7_JNIEnv16CallShortMethodAEP8_jobjectP10_jmethodIDPK6jvalue",
   "parameters" :
   [
    {
     "is_this_ptr" : true,
     "referenced_type" : "_ZTIP7_JNIEnv"
    },
    {
     "referenced_type" : "_ZTIP8_jobject"
    },
    {
     "referenced_type" : "_ZTIP10_jmethodID"
    },
    {
     "referenced_type" : "_ZTIPK6jvalue"
    }
   ],
   "return_type" : "_ZTIs",
   "source_file" : "libnativehelper/include_jni/jni.h"
  },
  {
   "function_name" : "_JNIEnv::CallShortMethodV",
   "linker_set_key" : "_ZN7_JNIEnv16CallShortMethodVEP8_jobjectP10_jmethodIDSt9__va_list",
   "parameters" :
   [
    {
     "is_this_ptr" : true,
     "referenced_type" : "_ZTIP7_JNIEnv"
    },
    {
     "referenced_type" : "_ZTIP8_jobject"
    },
    {
     "referenced_type" : "_ZTIP10_jmethodID"
    },
    {
     "referenced_type" : "_ZTISt9__va_list"
    }
   ],
   "return_type" : "_ZTIs",
   "source_file" : "libnativehelper/include_jni/jni.h"
  },
  {
   "function_name" : "_JNIEnv::GetObjectRefType",
   "linker_set_key" : "_ZN7_JNIEnv16GetObjectRefTypeEP8_jobject",
   "parameters" :
   [
    {
     "is_this_ptr" : true,
     "referenced_type" : "_ZTIP7_JNIEnv"
    },
    {
     "referenced_type" : "_ZTIP8_jobject"
    }
   ],
   "return_type" : "_ZTI14jobjectRefType",
   "source_file" : "libnativehelper/include_jni/jni.h"
  },
  {
   "function_name" : "_JNIEnv::GetStaticFieldID",
   "linker_set_key" : "_ZN7_JNIEnv16GetStaticFieldIDEP7_jclassPKcS3_",
   "parameters" :
   [
    {
     "is_this_ptr" : true,
     "referenced_type" : "_ZTIP7_JNIEnv"
    },
    {
     "referenced_type" : "_ZTIP7_jclass"
    },
    {
     "referenced_type" : "_ZTIPKc"
    },
    {
     "referenced_type" : "_ZTIPKc"
    }
   ],
   "return_type" : "_ZTIP9_jfieldID",
   "source_file" : "libnativehelper/include_jni/jni.h"
  },
  {
   "function_name" : "_JNIEnv::IsAssignableFrom",
   "linker_set_key" : "_ZN7_JNIEnv16IsAssignableFromEP7_jclassS1_",
   "parameters" :
   [
    {
     "is_this_ptr" : true,
     "referenced_type" : "_ZTIP7_JNIEnv"
    },
    {
     "referenced_type" : "_ZTIP7_jclass"
    },
    {
     "referenced_type" : "_ZTIP7_jclass"
    }
   ],
   "return_type" : "_ZTIh",
   "source_file" : "libnativehelper/include_jni/jni.h"
  },
  {
   "function_name" : "_JNIEnv::NewWeakGlobalRef",
   "linker_set_key" : "_ZN7_JNIEnv16NewWeakGlobalRefEP8_jobject",
   "parameters" :
   [
    {
     "is_this_ptr" : true,
     "referenced_type" : "_ZTIP7_JNIEnv"
    },
    {
     "referenced_type" : "_ZTIP8_jobject"
    }
   ],
   "return_type" : "_ZTIP8_jobject",
   "source_file" : "libnativehelper/include_jni/jni.h"
  },
  {
   "function_name" : "_JNIEnv::ToReflectedField",
   "linker_set_key" : "_ZN7_JNIEnv16ToReflectedFieldEP7_jclassP9_jfieldIDh",
   "parameters" :
   [
    {
     "is_this_ptr" : true,
     "referenced_type" : "_ZTIP7_JNIEnv"
    },
    {
     "referenced_type" : "_ZTIP7_jclass"
    },
    {
     "referenced_type" : "_ZTIP9_jfieldID"
    },
    {
     "referenced_type" : "_ZTIh"
    }
   ],
   "return_type" : "_ZTIP8_jobject",
   "source_file" : "libnativehelper/include_jni/jni.h"
  },
  {
   "function_name" : "_JNIEnv::CallBooleanMethod",
   "linker_set_key" : "_ZN7_JNIEnv17CallBooleanMethodEP8_jobjectP10_jmethodIDz",
   "parameters" :
   [
    {
     "is_this_ptr" : true,
     "referenced_type" : "_ZTIP7_JNIEnv"
    },
    {
     "referenced_type" : "_ZTIP8_jobject"
    },
    {
     "referenced_type" : "_ZTIP10_jmethodID"
    }
   ],
   "return_type" : "_ZTIh",
   "source_file" : "libnativehelper/include_jni/jni.h"
  },
  {
   "function_name" : "_JNIEnv::CallDoubleMethodA",
   "linker_set_key" : "_ZN7_JNIEnv17CallDoubleMethodAEP8_jobjectP10_jmethodIDPK6jvalue",
   "parameters" :
   [
    {
     "is_this_ptr" : true,
     "referenced_type" : "_ZTIP7_JNIEnv"
    },
    {
     "referenced_type" : "_ZTIP8_jobject"
    },
    {
     "referenced_type" : "_ZTIP10_jmethodID"
    },
    {
     "referenced_type" : "_ZTIPK6jvalue"
    }
   ],
   "return_type" : "_ZTId",
   "source_file" : "libnativehelper/include_jni/jni.h"
  },
  {
   "function_name" : "_JNIEnv::CallDoubleMethodV",
   "linker_set_key" : "_ZN7_JNIEnv17CallDoubleMethodVEP8_jobjectP10_jmethodIDSt9__va_list",
   "parameters" :
   [
    {
     "is_this_ptr" : true,
     "referenced_type" : "_ZTIP7_JNIEnv"
    },
    {
     "referenced_type" : "_ZTIP8_jobject"
    },
    {
     "referenced_type" : "_ZTIP10_jmethodID"
    },
    {
     "referenced_type" : "_ZTISt9__va_list"
    }
   ],
   "return_type" : "_ZTId",
   "source_file" : "libnativehelper/include_jni/jni.h"
  },
  {
   "function_name" : "_JNIEnv::CallObjectMethodA",
   "linker_set_key" : "_ZN7_JNIEnv17CallObjectMethodAEP8_jobjectP10_jmethodIDPK6jvalue",
   "parameters" :
   [
    {
     "is_this_ptr" : true,
     "referenced_type" : "_ZTIP7_JNIEnv"
    },
    {
     "referenced_type" : "_ZTIP8_jobject"
    },
    {
     "referenced_type" : "_ZTIP10_jmethodID"
    },
    {
     "referenced_type" : "_ZTIPK6jvalue"
    }
   ],
   "return_type" : "_ZTIP8_jobject",
   "source_file" : "libnativehelper/include_jni/jni.h"
  },
  {
   "function_name" : "_JNIEnv::CallObjectMethodV",
   "linker_set_key" : "_ZN7_JNIEnv17CallObjectMethodVEP8_jobjectP10_jmethodIDSt9__va_list",
   "parameters" :
   [
    {
     "is_this_ptr" : true,
     "referenced_type" : "_ZTIP7_JNIEnv"
    },
    {
     "referenced_type" : "_ZTIP8_jobject"
    },
    {
     "referenced_type" : "_ZTIP10_jmethodID"
    },
    {
     "referenced_type" : "_ZTISt9__va_list"
    }
   ],
   "return_type" : "_ZTIP8_jobject",
   "source_file" : "libnativehelper/include_jni/jni.h"
  },
  {
   "function_name" : "_JNIEnv::ExceptionDescribe",
   "linker_set_key" : "_ZN7_JNIEnv17ExceptionDescribeEv",
   "parameters" :
   [
    {
     "is_this_ptr" : true,
     "referenced_type" : "_ZTIP7_JNIEnv"
    }
   ],
   "return_type" : "_ZTIv",
   "source_file" : "libnativehelper/include_jni/jni.h"
  },
  {
   "function_name" : "_JNIEnv::ExceptionOccurred",
   "linker_set_key" : "_ZN7_JNIEnv17ExceptionOccurredEv",
   "parameters" :
   [
    {
     "is_this_ptr" : true,
     "referenced_type" : "_ZTIP7_JNIEnv"
    }
   ],
   "return_type" : "_ZTIP11_jthrowable",
   "source_file" : "libnativehelper/include_jni/jni.h"
  },
  {
   "function_name" : "_JNIEnv::GetIntArrayRegion",
   "linker_set_key" : "_ZN7_JNIEnv17GetIntArrayRegionEP10_jintArrayiiPi",
   "parameters" :
   [
    {
     "is_this_ptr" : true,
     "referenced_type" : "_ZTIP7_JNIEnv"
    },
    {
     "referenced_type" : "_ZTIP10_jintArray"
    },
    {
     "referenced_type" : "_ZTIi"
    },
    {
     "referenced_type" : "_ZTIi"
    },
    {
     "referenced_type" : "_ZTIPi"
    }
   ],
   "return_type" : "_ZTIv",
   "source_file" : "libnativehelper/include_jni/jni.h"
  },
  {
   "function_name" : "_JNIEnv::GetStaticIntField",
   "linker_set_key" : "_ZN7_JNIEnv17GetStaticIntFieldEP7_jclassP9_jfieldID",
   "parameters" :
   [
    {
     "is_this_ptr" : true,
     "referenced_type" : "_ZTIP7_JNIEnv"
    },
    {
     "referenced_type" : "_ZTIP7_jclass"
    },
    {
     "referenced_type" : "_ZTIP9_jfieldID"
    }
   ],
   "return_type" : "_ZTIi",
   "source_file" : "libnativehelper/include_jni/jni.h"
  },
  {
   "function_name" : "_JNIEnv::GetStaticMethodID",
   "linker_set_key" : "_ZN7_JNIEnv17GetStaticMethodIDEP7_jclassPKcS3_",
   "parameters" :
   [
    {
     "is_this_ptr" : true,
     "referenced_type" : "_ZTIP7_JNIEnv"
    },
    {
     "referenced_type" : "_ZTIP7_jclass"
    },
    {
     "referenced_type" : "_ZTIPKc"
    },
    {
     "referenced_type" : "_ZTIPKc"
    }
   ],
   "return_type" : "_ZTIP10_jmethodID",
   "source_file" : "libnativehelper/include_jni/jni.h"
  },
  {
   "function_name" : "_JNIEnv::GetStringCritical",
   "linker_set_key" : "_ZN7_JNIEnv17GetStringCriticalEP8_jstringPh",
   "parameters" :
   [
    {
     "is_this_ptr" : true,
     "referenced_type" : "_ZTIP7_JNIEnv"
    },
    {
     "referenced_type" : "_ZTIP8_jstring"
    },
    {
     "referenced_type" : "_ZTIPh"
    }
   ],
   "return_type" : "_ZTIPKt",
   "source_file" : "libnativehelper/include_jni/jni.h"
  },
  {
   "function_name" : "_JNIEnv::GetStringUTFChars",
   "linker_set_key" : "_ZN7_JNIEnv17GetStringUTFCharsEP8_jstringPh",
   "parameters" :
   [
    {
     "is_this_ptr" : true,
     "referenced_type" : "_ZTIP7_JNIEnv"
    },
    {
     "referenced_type" : "_ZTIP8_jstring"
    },
    {
     "referenced_type" : "_ZTIPh"
    }
   ],
   "return_type" : "_ZTIPKc",
   "source_file" : "libnativehelper/include_jni/jni.h"
  },
  {
   "function_name" : "_JNIEnv::SetIntArrayRegion",
   "linker_set_key" : "_ZN7_JNIEnv17SetIntArrayRegionEP10_jintArrayiiPKi",
   "parameters" :
   [
    {
     "is_this_ptr" : true,
     "referenced_type" : "_ZTIP7_JNIEnv"
    },
    {
     "referenced_type" : "_ZTIP10_jintArray"
    },
    {
     "referenced_type" : "_ZTIi"
    },
    {
     "referenced_type" : "_ZTIi"
    },
    {
     "referenced_type" : "_ZTIPKi"
    }
   ],
   "return_type" : "_ZTIv",
   "source_file" : "libnativehelper/include_jni/jni.h"
  },
  {
   "function_name" : "_JNIEnv::SetStaticIntField",
   "linker_set_key" : "_ZN7_JNIEnv17SetStaticIntFieldEP7_jclassP9_jfieldIDi",
   "parameters" :
   [
    {
     "is_this_ptr" : true,
     "referenced_type" : "_ZTIP7_JNIEnv"
    },
    {
     "referenced_type" : "_ZTIP7_jclass"
    },
    {
     "referenced_type" : "_ZTIP9_jfieldID"
    },
    {
     "referenced_type" : "_ZTIi"
    }
   ],
   "return_type" : "_ZTIv",
   "source_file" : "libnativehelper/include_jni/jni.h"
  },
  {
   "function_name" : "_JNIEnv::ToReflectedMethod",
   "linker_set_key" : "_ZN7_JNIEnv17ToReflectedMethodEP7_jclassP10_jmethodIDh",
   "parameters" :
   [
    {
     "is_this_ptr" : true,
     "referenced_type" : "_ZTIP7_JNIEnv"
    },
    {
     "referenced_type" : "_ZTIP7_jclass"
    },
    {
     "referenced_type" : "_ZTIP10_jmethodID"
    },
    {
     "referenced_type" : "_ZTIh"
    }
   ],
   "return_type" : "_ZTIP8_jobject",
   "source_file" : "libnativehelper/include_jni/jni.h"
  },
  {
   "function_name" : "_JNIEnv::UnregisterNatives",
   "linker_set_key" : "_ZN7_JNIEnv17UnregisterNativesEP7_jclass",
   "parameters" :
   [
    {
     "is_this_ptr" : true,
     "referenced_type" : "_ZTIP7_JNIEnv"
    },
    {
     "referenced_type" : "_ZTIP7_jclass"
    }
   ],
   "return_type" : "_ZTIi",
   "source_file" : "libnativehelper/include_jni/jni.h"
  },
  {
   "function_name" : "_JNIEnv::CallBooleanMethodA",
   "linker_set_key" : "_ZN7_JNIEnv18CallBooleanMethodAEP8_jobjectP10_jmethodIDPK6jvalue",
   "parameters" :
   [
    {
     "is_this_ptr" : true,
     "referenced_type" : "_ZTIP7_JNIEnv"
    },
    {
     "referenced_type" : "_ZTIP8_jobject"
    },
    {
     "referenced_type" : "_ZTIP10_jmethodID"
    },
    {
     "referenced_type" : "_ZTIPK6jvalue"
    }
   ],
   "return_type" : "_ZTIh",
   "source_file" : "libnativehelper/include_jni/jni.h"
  },
  {
   "function_name" : "_JNIEnv::CallBooleanMethodV",
   "linker_set_key" : "_ZN7_JNIEnv18CallBooleanMethodVEP8_jobjectP10_jmethodIDSt9__va_list",
   "parameters" :
   [
    {
     "is_this_ptr" : true,
     "referenced_type" : "_ZTIP7_JNIEnv"
    },
    {
     "referenced_type" : "_ZTIP8_jobject"
    },
    {
     "referenced_type" : "_ZTIP10_jmethodID"
    },
    {
     "referenced_type" : "_ZTISt9__va_list"
    }
   ],
   "return_type" : "_ZTIh",
   "source_file" : "libnativehelper/include_jni/jni.h"
  },
  {
   "function_name" : "_JNIEnv::FromReflectedField",
   "linker_set_key" : "_ZN7_JNIEnv18FromReflectedFieldEP8_jobject",
   "parameters" :
   [
    {
     "is_this_ptr" : true,
     "referenced_type" : "_ZTIP7_JNIEnv"
    },
    {
     "referenced_type" : "_ZTIP8_jobject"
    }
   ],
   "return_type" : "_ZTIP9_jfieldID",
   "source_file" : "libnativehelper/include_jni/jni.h"
  },
  {
   "function_name" : "_JNIEnv::GetByteArrayRegion",
   "linker_set_key" : "_ZN7_JNIEnv18GetByteArrayRegionEP11_jbyteArrayiiPa",
   "parameters" :
   [
    {
     "is_this_ptr" : true,
     "referenced_type" : "_ZTIP7_JNIEnv"
    },
    {
     "referenced_type" : "_ZTIP11_jbyteArray"
    },
    {
     "referenced_type" : "_ZTIi"
    },
    {
     "referenced_type" : "_ZTIi"
    },
    {
     "referenced_type" : "_ZTIPa"
    }
   ],
   "return_type" : "_ZTIv",
   "source_file" : "libnativehelper/include_jni/jni.h"
  },
  {
   "function_name" : "_JNIEnv::GetCharArrayRegion",
   "linker_set_key" : "_ZN7_JNIEnv18GetCharArrayRegionEP11_jcharArrayiiPt",
   "parameters" :
   [
    {
     "is_this_ptr" : true,
     "referenced_type" : "_ZTIP7_JNIEnv"
    },
    {
     "referenced_type" : "_ZTIP11_jcharArray"
    },
    {
     "referenced_type" : "_ZTIi"
    },
    {
     "referenced_type" : "_ZTIi"
    },
    {
     "referenced_type" : "_ZTIPt"
    }
   ],
   "return_type" : "_ZTIv",
   "source_file" : "libnativehelper/include_jni/jni.h"
  },
  {
   "function_name" : "_JNIEnv::GetLongArrayRegion",
   "linker_set_key" : "_ZN7_JNIEnv18GetLongArrayRegionEP11_jlongArrayiiPx",
   "parameters" :
   [
    {
     "is_this_ptr" : true,
     "referenced_type" : "_ZTIP7_JNIEnv"
    },
    {
     "referenced_type" : "_ZTIP11_jlongArray"
    },
    {
     "referenced_type" : "_ZTIi"
    },
    {
     "referenced_type" : "_ZTIi"
    },
    {
     "referenced_type" : "_ZTIPx"
    }
   ],
   "return_type" : "_ZTIv",
   "source_file" : "libnativehelper/include_jni/jni.h"
  },
  {
   "function_name" : "_JNIEnv::GetStaticByteField",
   "linker_set_key" : "_ZN7_JNIEnv18GetStaticByteFieldEP7_jclassP9_jfieldID",
   "parameters" :
   [
    {
     "is_this_ptr" : true,
     "referenced_type" : "_ZTIP7_JNIEnv"
    },
    {
     "referenced_type" : "_ZTIP7_jclass"
    },
    {
     "referenced_type" : "_ZTIP9_jfieldID"
    }
   ],
   "return_type" : "_ZTIa",
   "source_file" : "libnativehelper/include_jni/jni.h"
  },
  {
   "function_name" : "_JNIEnv::GetStaticCharField",
   "linker_set_key" : "_ZN7_JNIEnv18GetStaticCharFieldEP7_jclassP9_jfieldID",
   "parameters" :
   [
    {
     "is_this_ptr" : true,
     "referenced_type" : "_ZTIP7_JNIEnv"
    },
    {
     "referenced_type" : "_ZTIP7_jclass"
    },
    {
     "referenced_type" : "_ZTIP9_jfieldID"
    }
   ],
   "return_type" : "_ZTIt",
   "source_file" : "libnativehelper/include_jni/jni.h"
  },
  {
   "function_name" : "_JNIEnv::GetStaticLongField",
   "linker_set_key" : "_ZN7_JNIEnv18GetStaticLongFieldEP7_jclassP9_jfieldID",
   "parameters" :
   [
    {
     "is_this_ptr" : true,
     "referenced_type" : "_ZTIP7_JNIEnv"
    },
    {
     "referenced_type" : "_ZTIP7_jclass"
    },
    {
     "referenced_type" : "_ZTIP9_jfieldID"
    }
   ],
   "return_type" : "_ZTIx",
   "source_file" : "libnativehelper/include_jni/jni.h"
  },
  {
   "function_name" : "_JNIEnv::GetStringUTFLength",
   "linker_set_key" : "_ZN7_JNIEnv18GetStringUTFLengthEP8_jstring",
   "parameters" :
   [
    {
     "is_this_ptr" : true,
     "referenced_type" : "_ZTIP7_JNIEnv"
    },
    {
     "referenced_type" : "_ZTIP8_jstring"
    }
   ],
   "return_type" : "_ZTIi",
   "source_file" : "libnativehelper/include_jni/jni.h"
  },
  {
   "function_name" : "_JNIEnv::GetStringUTFRegion",
   "linker_set_key" : "_ZN7_JNIEnv18GetStringUTFRegionEP8_jstringiiPc",
   "parameters" :
   [
    {
     "is_this_ptr" : true,
     "referenced_type" : "_ZTIP7_JNIEnv"
    },
    {
     "referenced_type" : "_ZTIP8_jstring"
    },
    {
     "referenced_type" : "_ZTIi"
    },
    {
     "referenced_type" : "_ZTIi"
    },
    {
     "referenced_type" : "_ZTIPc"
    }
   ],
   "return_type" : "_ZTIv",
   "source_file" : "libnativehelper/include_jni/jni.h"
  },
  {
   "function_name" : "_JNIEnv::ReleaseStringChars",
   "linker_set_key" : "_ZN7_JNIEnv18ReleaseStringCharsEP8_jstringPKt",
   "parameters" :
   [
    {
     "is_this_ptr" : true,
     "referenced_type" : "_ZTIP7_JNIEnv"
    },
    {
     "referenced_type" : "_ZTIP8_jstring"
    },
    {
     "referenced_type" : "_ZTIPKt"
    }
   ],
   "return_type" : "_ZTIv",
   "source_file" : "libnativehelper/include_jni/jni.h"
  },
  {
   "function_name" : "_JNIEnv::SetByteArrayRegion",
   "linker_set_key" : "_ZN7_JNIEnv18SetByteArrayRegionEP11_jbyteArrayiiPKa",
   "parameters" :
   [
    {
     "is_this_ptr" : true,
     "referenced_type" : "_ZTIP7_JNIEnv"
    },
    {
     "referenced_type" : "_ZTIP11_jbyteArray"
    },
    {
     "referenced_type" : "_ZTIi"
    },
    {
     "referenced_type" : "_ZTIi"
    },
    {
     "referenced_type" : "_ZTIPKa"
    }
   ],
   "return_type" : "_ZTIv",
   "source_file" : "libnativehelper/include_jni/jni.h"
  },
  {
   "function_name" : "_JNIEnv::SetCharArrayRegion",
   "linker_set_key" : "_ZN7_JNIEnv18SetCharArrayRegionEP11_jcharArrayiiPKt",
   "parameters" :
   [
    {
     "is_this_ptr" : true,
     "referenced_type" : "_ZTIP7_JNIEnv"
    },
    {
     "referenced_type" : "_ZTIP11_jcharArray"
    },
    {
     "referenced_type" : "_ZTIi"
    },
    {
     "referenced_type" : "_ZTIi"
    },
    {
     "referenced_type" : "_ZTIPKt"
    }
   ],
   "return_type" : "_ZTIv",
   "source_file" : "libnativehelper/include_jni/jni.h"
  },
  {
   "function_name" : "_JNIEnv::SetLongArrayRegion",
   "linker_set_key" : "_ZN7_JNIEnv18SetLongArrayRegionEP11_jlongArrayiiPKx",
   "parameters" :
   [
    {
     "is_this_ptr" : true,
     "referenced_type" : "_ZTIP7_JNIEnv"
    },
    {
     "referenced_type" : "_ZTIP11_jlongArray"
    },
    {
     "referenced_type" : "_ZTIi"
    },
    {
     "referenced_type" : "_ZTIi"
    },
    {
     "referenced_type" : "_ZTIPKx"
    }
   ],
   "return_type" : "_ZTIv",
   "source_file" : "libnativehelper/include_jni/jni.h"
  },
  {
   "function_name" : "_JNIEnv::SetStaticByteField",
   "linker_set_key" : "_ZN7_JNIEnv18SetStaticByteFieldEP7_jclassP9_jfieldIDa",
   "parameters" :
   [
    {
     "is_this_ptr" : true,
     "referenced_type" : "_ZTIP7_JNIEnv"
    },
    {
     "referenced_type" : "_ZTIP7_jclass"
    },
    {
     "referenced_type" : "_ZTIP9_jfieldID"
    },
    {
     "referenced_type" : "_ZTIa"
    }
   ],
   "return_type" : "_ZTIv",
   "source_file" : "libnativehelper/include_jni/jni.h"
  },
  {
   "function_name" : "_JNIEnv::SetStaticCharField",
   "linker_set_key" : "_ZN7_JNIEnv18SetStaticCharFieldEP7_jclassP9_jfieldIDt",
   "parameters" :
   [
    {
     "is_this_ptr" : true,
     "referenced_type" : "_ZTIP7_JNIEnv"
    },
    {
     "referenced_type" : "_ZTIP7_jclass"
    },
    {
     "referenced_type" : "_ZTIP9_jfieldID"
    },
    {
     "referenced_type" : "_ZTIt"
    }
   ],
   "return_type" : "_ZTIv",
   "source_file" : "libnativehelper/include_jni/jni.h"
  },
  {
   "function_name" : "_JNIEnv::SetStaticLongField",
   "linker_set_key" : "_ZN7_JNIEnv18SetStaticLongFieldEP7_jclassP9_jfieldIDx",
   "parameters" :
   [
    {
     "is_this_ptr" : true,
     "referenced_type" : "_ZTIP7_JNIEnv"
    },
    {
     "referenced_type" : "_ZTIP7_jclass"
    },
    {
     "referenced_type" : "_ZTIP9_jfieldID"
    },
    {
     "referenced_type" : "_ZTIx"
    }
   ],
   "return_type" : "_ZTIv",
   "source_file" : "libnativehelper/include_jni/jni.h"
  },
  {
   "function_name" : "_JNIEnv::CallStaticIntMethod",
   "linker_set_key" : "_ZN7_JNIEnv19CallStaticIntMethodEP7_jclassP10_jmethodIDz",
   "parameters" :
   [
    {
     "is_this_ptr" : true,
     "referenced_type" : "_ZTIP7_JNIEnv"
    },
    {
     "referenced_type" : "_ZTIP7_jclass"
    },
    {
     "referenced_type" : "_ZTIP10_jmethodID"
    }
   ],
   "return_type" : "_ZTIi",
   "source_file" : "libnativehelper/include_jni/jni.h"
  },
  {
   "function_name" : "_JNIEnv::DeleteWeakGlobalRef",
   "linker_set_key" : "_ZN7_JNIEnv19DeleteWeakGlobalRefEP8_jobject",
   "parameters" :
   [
    {
     "is_this_ptr" : true,
     "referenced_type" : "_ZTIP7_JNIEnv"
    },
    {
     "referenced_type" : "_ZTIP8_jobject"
    }
   ],
   "return_type" : "_ZTIv",
   "source_file" : "libnativehelper/include_jni/jni.h"
  },
  {
   "function_name" : "_JNIEnv::EnsureLocalCapacity",
   "linker_set_key" : "_ZN7_JNIEnv19EnsureLocalCapacityEi",
   "parameters" :
   [
    {
     "is_this_ptr" : true,
     "referenced_type" : "_ZTIP7_JNIEnv"
    },
    {
     "referenced_type" : "_ZTIi"
    }
   ],
   "return_type" : "_ZTIi",
   "source_file" : "libnativehelper/include_jni/jni.h"
  },
  {
   "function_name" : "_JNIEnv::FromReflectedMethod",
   "linker_set_key" : "_ZN7_JNIEnv19FromReflectedMethodEP8_jobject",
   "parameters" :
   [
    {
     "is_this_ptr" : true,
     "referenced_type" : "_ZTIP7_JNIEnv"
    },
    {
     "referenced_type" : "_ZTIP8_jobject"
    }
   ],
   "return_type" : "_ZTIP10_jmethodID",
   "source_file" : "libnativehelper/include_jni/jni.h"
  },
  {
   "function_name" : "_JNIEnv::GetFloatArrayRegion",
   "linker_set_key" : "_ZN7_JNIEnv19GetFloatArrayRegionEP12_jfloatArrayiiPf",
   "parameters" :
   [
    {
     "is_this_ptr" : true,
     "referenced_type" : "_ZTIP7_JNIEnv"
    },
    {
     "referenced_type" : "_ZTIP12_jfloatArray"
    },
    {
     "referenced_type" : "_ZTIi"
    },
    {
     "referenced_type" : "_ZTIi"
    },
    {
     "referenced_type" : "_ZTIPf"
    }
   ],
   "return_type" : "_ZTIv",
   "source_file" : "libnativehelper/include_jni/jni.h"
  },
  {
   "function_name" : "_JNIEnv::GetIntArrayElements",
   "linker_set_key" : "_ZN7_JNIEnv19GetIntArrayElementsEP10_jintArrayPh",
   "parameters" :
   [
    {
     "is_this_ptr" : true,
     "referenced_type" : "_ZTIP7_JNIEnv"
    },
    {
     "referenced_type" : "_ZTIP10_jintArray"
    },
    {
     "referenced_type" : "_ZTIPh"
    }
   ],
   "return_type" : "_ZTIPi",
   "source_file" : "libnativehelper/include_jni/jni.h"
  },
  {
   "function_name" : "_JNIEnv::GetShortArrayRegion",
   "linker_set_key" : "_ZN7_JNIEnv19GetShortArrayRegionEP12_jshortArrayiiPs",
   "parameters" :
   [
    {
     "is_this_ptr" : true,
     "referenced_type" : "_ZTIP7_JNIEnv"
    },
    {
     "referenced_type" : "_ZTIP12_jshortArray"
    },
    {
     "referenced_type" : "_ZTIi"
    },
    {
     "referenced_type" : "_ZTIi"
    },
    {
     "referenced_type" : "_ZTIPs"
    }
   ],
   "return_type" : "_ZTIv",
   "source_file" : "libnativehelper/include_jni/jni.h"
  },
  {
   "function_name" : "_JNIEnv::GetStaticFloatField",
   "linker_set_key" : "_ZN7_JNIEnv19GetStaticFloatFieldEP7_jclassP9_jfieldID",
   "parameters" :
   [
    {
     "is_this_ptr" : true,
     "referenced_type" : "_ZTIP7_JNIEnv"
    },
    {
     "referenced_type" : "_ZTIP7_jclass"
    },
    {
     "referenced_type" : "_ZTIP9_jfieldID"
    }
   ],
   "return_type" : "_ZTIf",
   "source_file" : "libnativehelper/include_jni/jni.h"
  },
  {
   "function_name" : "_JNIEnv::GetStaticShortField",
   "linker_set_key" : "_ZN7_JNIEnv19GetStaticShortFieldEP7_jclassP9_jfieldID",
   "parameters" :
   [
    {
     "is_this_ptr" : true,
     "referenced_type" : "_ZTIP7_JNIEnv"
    },
    {
     "referenced_type" : "_ZTIP7_jclass"
    },
    {
     "referenced_type" : "_ZTIP9_jfieldID"
    }
   ],
   "return_type" : "_ZTIs",
   "source_file" : "libnativehelper/include_jni/jni.h"
  },
  {
   "function_name" : "_JNIEnv::NewDirectByteBuffer",
   "linker_set_key" : "_ZN7_JNIEnv19NewDirectByteBufferEPvx",
   "parameters" :
   [
    {
     "is_this_ptr" : true,
     "referenced_type" : "_ZTIP7_JNIEnv"
    },
    {
     "referenced_type" : "_ZTIPv"
    },
    {
     "referenced_type" : "_ZTIx"
    }
   ],
   "return_type" : "_ZTIP8_jobject",
   "source_file" : "libnativehelper/include_jni/jni.h"
  },
  {
   "function_name" : "_JNIEnv::SetFloatArrayRegion",
   "linker_set_key" : "_ZN7_JNIEnv19SetFloatArrayRegionEP12_jfloatArrayiiPKf",
   "parameters" :
   [
    {
     "is_this_ptr" : true,
     "referenced_type" : "_ZTIP7_JNIEnv"
    },
    {
     "referenced_type" : "_ZTIP12_jfloatArray"
    },
    {
     "referenced_type" : "_ZTIi"
    },
    {
     "referenced_type" : "_ZTIi"
    },
    {
     "referenced_type" : "_ZTIPKf"
    }
   ],
   "return_type" : "_ZTIv",
   "source_file" : "libnativehelper/include_jni/jni.h"
  },
  {
   "function_name" : "_JNIEnv::SetShortArrayRegion",
   "linker_set_key" : "_ZN7_JNIEnv19SetShortArrayRegionEP12_jshortArrayiiPKs",
   "parameters" :
   [
    {
     "is_this_ptr" : true,
     "referenced_type" : "_ZTIP7_JNIEnv"
    },
    {
     "referenced_type" : "_ZTIP12_jshortArray"
    },
    {
     "referenced_type" : "_ZTIi"
    },
    {
     "referenced_type" : "_ZTIi"
    },
    {
     "referenced_type" : "_ZTIPKs"
    }
   ],
   "return_type" : "_ZTIv",
   "source_file" : "libnativehelper/include_jni/jni.h"
  },
  {
   "function_name" : "_JNIEnv::SetStaticFloatField",
   "linker_set_key" : "_ZN7_JNIEnv19SetStaticFloatFieldEP7_jclassP9_jfieldIDf",
   "parameters" :
   [
    {
     "is_this_ptr" : true,
     "referenced_type" : "_ZTIP7_JNIEnv"
    },
    {
     "referenced_type" : "_ZTIP7_jclass"
    },
    {
     "referenced_type" : "_ZTIP9_jfieldID"
    },
    {
     "referenced_type" : "_ZTIf"
    }
   ],
   "return_type" : "_ZTIv",
   "source_file" : "libnativehelper/include_jni/jni.h"
  },
  {
   "function_name" : "_JNIEnv::SetStaticShortField",
   "linker_set_key" : "_ZN7_JNIEnv19SetStaticShortFieldEP7_jclassP9_jfieldIDs",
   "parameters" :
   [
    {
     "is_this_ptr" : true,
     "referenced_type" : "_ZTIP7_JNIEnv"
    },
    {
     "referenced_type" : "_ZTIP7_jclass"
    },
    {
     "referenced_type" : "_ZTIP9_jfieldID"
    },
    {
     "referenced_type" : "_ZTIs"
    }
   ],
   "return_type" : "_ZTIv",
   "source_file" : "libnativehelper/include_jni/jni.h"
  },
  {
   "function_name" : "_JNIEnv::CallStaticByteMethod",
   "linker_set_key" : "_ZN7_JNIEnv20CallStaticByteMethodEP7_jclassP10_jmethodIDz",
   "parameters" :
   [
    {
     "is_this_ptr" : true,
     "referenced_type" : "_ZTIP7_JNIEnv"
    },
    {
     "referenced_type" : "_ZTIP7_jclass"
    },
    {
     "referenced_type" : "_ZTIP10_jmethodID"
    }
   ],
   "return_type" : "_ZTIa",
   "source_file" : "libnativehelper/include_jni/jni.h"
  },
  {
   "function_name" : "_JNIEnv::CallStaticCharMethod",
   "linker_set_key" : "_ZN7_JNIEnv20CallStaticCharMethodEP7_jclassP10_jmethodIDz",
   "parameters" :
   [
    {
     "is_this_ptr" : true,
     "referenced_type" : "_ZTIP7_JNIEnv"
    },
    {
     "referenced_type" : "_ZTIP7_jclass"
    },
    {
     "referenced_type" : "_ZTIP10_jmethodID"
    }
   ],
   "return_type" : "_ZTIt",
   "source_file" : "libnativehelper/include_jni/jni.h"
  },
  {
   "function_name" : "_JNIEnv::CallStaticIntMethodA",
   "linker_set_key" : "_ZN7_JNIEnv20CallStaticIntMethodAEP7_jclassP10_jmethodIDPK6jvalue",
   "parameters" :
   [
    {
     "is_this_ptr" : true,
     "referenced_type" : "_ZTIP7_JNIEnv"
    },
    {
     "referenced_type" : "_ZTIP7_jclass"
    },
    {
     "referenced_type" : "_ZTIP10_jmethodID"
    },
    {
     "referenced_type" : "_ZTIPK6jvalue"
    }
   ],
   "return_type" : "_ZTIi",
   "source_file" : "libnativehelper/include_jni/jni.h"
  },
  {
   "function_name" : "_JNIEnv::CallStaticIntMethodV",
   "linker_set_key" : "_ZN7_JNIEnv20CallStaticIntMethodVEP7_jclassP10_jmethodIDSt9__va_list",
   "parameters" :
   [
    {
     "is_this_ptr" : true,
     "referenced_type" : "_ZTIP7_JNIEnv"
    },
    {
     "referenced_type" : "_ZTIP7_jclass"
    },
    {
     "referenced_type" : "_ZTIP10_jmethodID"
    },
    {
     "referenced_type" : "_ZTISt9__va_list"
    }
   ],
   "return_type" : "_ZTIi",
   "source_file" : "libnativehelper/include_jni/jni.h"
  },
  {
   "function_name" : "_JNIEnv::CallStaticLongMethod",
   "linker_set_key" : "_ZN7_JNIEnv20CallStaticLongMethodEP7_jclassP10_jmethodIDz",
   "parameters" :
   [
    {
     "is_this_ptr" : true,
     "referenced_type" : "_ZTIP7_JNIEnv"
    },
    {
     "referenced_type" : "_ZTIP7_jclass"
    },
    {
     "referenced_type" : "_ZTIP10_jmethodID"
    }
   ],
   "return_type" : "_ZTIx",
   "source_file" : "libnativehelper/include_jni/jni.h"
  },
  {
   "function_name" : "_JNIEnv::CallStaticVoidMethod",
   "linker_set_key" : "_ZN7_JNIEnv20CallStaticVoidMethodEP7_jclassP10_jmethodIDz",
   "parameters" :
   [
    {
     "is_this_ptr" : true,
     "referenced_type" : "_ZTIP7_JNIEnv"
    },
    {
     "referenced_type" : "_ZTIP7_jclass"
    },
    {
     "referenced_type" : "_ZTIP10_jmethodID"
    }
   ],
   "return_type" : "_ZTIv",
   "source_file" : "libnativehelper/include_jni/jni.h"
  },
  {
   "function_name" : "_JNIEnv::GetByteArrayElements",
   "linker_set_key" : "_ZN7_JNIEnv20GetByteArrayElementsEP11_jbyteArrayPh",
   "parameters" :
   [
    {
     "is_this_ptr" : true,
     "referenced_type" : "_ZTIP7_JNIEnv"
    },
    {
     "referenced_type" : "_ZTIP11_jbyteArray"
    },
    {
     "referenced_type" : "_ZTIPh"
    }
   ],
   "return_type" : "_ZTIPa",
   "source_file" : "libnativehelper/include_jni/jni.h"
  },
  {
   "function_name" : "_JNIEnv::GetCharArrayElements",
   "linker_set_key" : "_ZN7_JNIEnv20GetCharArrayElementsEP11_jcharArrayPh",
   "parameters" :
   [
    {
     "is_this_ptr" : true,
     "referenced_type" : "_ZTIP7_JNIEnv"
    },
    {
     "referenced_type" : "_ZTIP11_jcharArray"
    },
    {
     "referenced_type" : "_ZTIPh"
    }
   ],
   "return_type" : "_ZTIPt",
   "source_file" : "libnativehelper/include_jni/jni.h"
  },
  {
   "function_name" : "_JNIEnv::GetDoubleArrayRegion",
   "linker_set_key" : "_ZN7_JNIEnv20GetDoubleArrayRegionEP13_jdoubleArrayiiPd",
   "parameters" :
   [
    {
     "is_this_ptr" : true,
     "referenced_type" : "_ZTIP7_JNIEnv"
    },
    {
     "referenced_type" : "_ZTIP13_jdoubleArray"
    },
    {
     "referenced_type" : "_ZTIi"
    },
    {
     "referenced_type" : "_ZTIi"
    },
    {
     "referenced_type" : "_ZTIPd"
    }
   ],
   "return_type" : "_ZTIv",
   "source_file" : "libnativehelper/include_jni/jni.h"
  },
  {
   "function_name" : "_JNIEnv::GetLongArrayElements",
   "linker_set_key" : "_ZN7_JNIEnv20GetLongArrayElementsEP11_jlongArrayPh",
   "parameters" :
   [
    {
     "is_this_ptr" : true,
     "referenced_type" : "_ZTIP7_JNIEnv"
    },
    {
     "referenced_type" : "_ZTIP11_jlongArray"
    },
    {
     "referenced_type" : "_ZTIPh"
    }
   ],
   "return_type" : "_ZTIPx",
   "source_file" : "libnativehelper/include_jni/jni.h"
  },
  {
   "function_name" : "_JNIEnv::GetStaticDoubleField",
   "linker_set_key" : "_ZN7_JNIEnv20GetStaticDoubleFieldEP7_jclassP9_jfieldID",
   "parameters" :
   [
    {
     "is_this_ptr" : true,
     "referenced_type" : "_ZTIP7_JNIEnv"
    },
    {
     "referenced_type" : "_ZTIP7_jclass"
    },
    {
     "referenced_type" : "_ZTIP9_jfieldID"
    }
   ],
   "return_type" : "_ZTId",
   "source_file" : "libnativehelper/include_jni/jni.h"
  },
  {
   "function_name" : "_JNIEnv::GetStaticObjectField",
   "linker_set_key" : "_ZN7_JNIEnv20GetStaticObjectFieldEP7_jclassP9_jfieldID",
   "parameters" :
   [
    {
     "is_this_ptr" : true,
     "referenced_type" : "_ZTIP7_JNIEnv"
    },
    {
     "referenced_type" : "_ZTIP7_jclass"
    },
    {
     "referenced_type" : "_ZTIP9_jfieldID"
    }
   ],
   "return_type" : "_ZTIP8_jobject",
   "source_file" : "libnativehelper/include_jni/jni.h"
  },
  {
   "function_name" : "_JNIEnv::SetDoubleArrayRegion",
   "linker_set_key" : "_ZN7_JNIEnv20SetDoubleArrayRegionEP13_jdoubleArrayiiPKd",
   "parameters" :
   [
    {
     "is_this_ptr" : true,
     "referenced_type" : "_ZTIP7_JNIEnv"
    },
    {
     "referenced_type" : "_ZTIP13_jdoubleArray"
    },
    {
     "referenced_type" : "_ZTIi"
    },
    {
     "referenced_type" : "_ZTIi"
    },
    {
     "referenced_type" : "_ZTIPKd"
    }
   ],
   "return_type" : "_ZTIv",
   "source_file" : "libnativehelper/include_jni/jni.h"
  },
  {
   "function_name" : "_JNIEnv::SetStaticDoubleField",
   "linker_set_key" : "_ZN7_JNIEnv20SetStaticDoubleFieldEP7_jclassP9_jfieldIDd",
   "parameters" :
   [
    {
     "is_this_ptr" : true,
     "referenced_type" : "_ZTIP7_JNIEnv"
    },
    {
     "referenced_type" : "_ZTIP7_jclass"
    },
    {
     "referenced_type" : "_ZTIP9_jfieldID"
    },
    {
     "referenced_type" : "_ZTId"
    }
   ],
   "return_type" : "_ZTIv",
   "source_file" : "libnativehelper/include_jni/jni.h"
  },
  {
   "function_name" : "_JNIEnv::SetStaticObjectField",
   "linker_set_key" : "_ZN7_JNIEnv20SetStaticObjectFieldEP7_jclassP9_jfieldIDP8_jobject",
   "parameters" :
   [
    {
     "is_this_ptr" : true,
     "referenced_type" : "_ZTIP7_JNIEnv"
    },
    {
     "referenced_type" : "_ZTIP7_jclass"
    },
    {
     "referenced_type" : "_ZTIP9_jfieldID"
    },
    {
     "referenced_type" : "_ZTIP8_jobject"
    }
   ],
   "return_type" : "_ZTIv",
   "source_file" : "libnativehelper/include_jni/jni.h"
  },
  {
   "function_name" : "_JNIEnv::CallStaticByteMethodA",
   "linker_set_key" : "_ZN7_JNIEnv21CallStaticByteMethodAEP7_jclassP10_jmethodIDPK6jvalue",
   "parameters" :
   [
    {
     "is_this_ptr" : true,
     "referenced_type" : "_ZTIP7_JNIEnv"
    },
    {
     "referenced_type" : "_ZTIP7_jclass"
    },
    {
     "referenced_type" : "_ZTIP10_jmethodID"
    },
    {
     "referenced_type" : "_ZTIPK6jvalue"
    }
   ],
   "return_type" : "_ZTIa",
   "source_file" : "libnativehelper/include_jni/jni.h"
  },
  {
   "function_name" : "_JNIEnv::CallStaticByteMethodV",
   "linker_set_key" : "_ZN7_JNIEnv21CallStaticByteMethodVEP7_jclassP10_jmethodIDSt9__va_list",
   "parameters" :
   [
    {
     "is_this_ptr" : true,
     "referenced_type" : "_ZTIP7_JNIEnv"
    },
    {
     "referenced_type" : "_ZTIP7_jclass"
    },
    {
     "referenced_type" : "_ZTIP10_jmethodID"
    },
    {
     "referenced_type" : "_ZTISt9__va_list"
    }
   ],
   "return_type" : "_ZTIa",
   "source_file" : "libnativehelper/include_jni/jni.h"
  },
  {
   "function_name" : "_JNIEnv::CallStaticCharMethodA",
   "linker_set_key" : "_ZN7_JNIEnv21CallStaticCharMethodAEP7_jclassP10_jmethodIDPK6jvalue",
   "parameters" :
   [
    {
     "is_this_ptr" : true,
     "referenced_type" : "_ZTIP7_JNIEnv"
    },
    {
     "referenced_type" : "_ZTIP7_jclass"
    },
    {
     "referenced_type" : "_ZTIP10_jmethodID"
    },
    {
     "referenced_type" : "_ZTIPK6jvalue"
    }
   ],
   "return_type" : "_ZTIt",
   "source_file" : "libnativehelper/include_jni/jni.h"
  },
  {
   "function_name" : "_JNIEnv::CallStaticCharMethodV",
   "linker_set_key" : "_ZN7_JNIEnv21CallStaticCharMethodVEP7_jclassP10_jmethodIDSt9__va_list",
   "parameters" :
   [
    {
     "is_this_ptr" : true,
     "referenced_type" : "_ZTIP7_JNIEnv"
    },
    {
     "referenced_type" : "_ZTIP7_jclass"
    },
    {
     "referenced_type" : "_ZTIP10_jmethodID"
    },
    {
     "referenced_type" : "_ZTISt9__va_list"
    }
   ],
   "return_type" : "_ZTIt",
   "source_file" : "libnativehelper/include_jni/jni.h"
  },
  {
   "function_name" : "_JNIEnv::CallStaticFloatMethod",
   "linker_set_key" : "_ZN7_JNIEnv21CallStaticFloatMethodEP7_jclassP10_jmethodIDz",
   "parameters" :
   [
    {
     "is_this_ptr" : true,
     "referenced_type" : "_ZTIP7_JNIEnv"
    },
    {
     "referenced_type" : "_ZTIP7_jclass"
    },
    {
     "referenced_type" : "_ZTIP10_jmethodID"
    }
   ],
   "return_type" : "_ZTIf",
   "source_file" : "libnativehelper/include_jni/jni.h"
  },
  {
   "function_name" : "_JNIEnv::CallStaticLongMethodA",
   "linker_set_key" : "_ZN7_JNIEnv21CallStaticLongMethodAEP7_jclassP10_jmethodIDPK6jvalue",
   "parameters" :
   [
    {
     "is_this_ptr" : true,
     "referenced_type" : "_ZTIP7_JNIEnv"
    },
    {
     "referenced_type" : "_ZTIP7_jclass"
    },
    {
     "referenced_type" : "_ZTIP10_jmethodID"
    },
    {
     "referenced_type" : "_ZTIPK6jvalue"
    }
   ],
   "return_type" : "_ZTIx",
   "source_file" : "libnativehelper/include_jni/jni.h"
  },
  {
   "function_name" : "_JNIEnv::CallStaticLongMethodV",
   "linker_set_key" : "_ZN7_JNIEnv21CallStaticLongMethodVEP7_jclassP10_jmethodIDSt9__va_list",
   "parameters" :
   [
    {
     "is_this_ptr" : true,
     "referenced_type" : "_ZTIP7_JNIEnv"
    },
    {
     "referenced_type" : "_ZTIP7_jclass"
    },
    {
     "referenced_type" : "_ZTIP10_jmethodID"
    },
    {
     "referenced_type" : "_ZTISt9__va_list"
    }
   ],
   "return_type" : "_ZTIx",
   "source_file" : "libnativehelper/include_jni/jni.h"
  },
  {
   "function_name" : "_JNIEnv::CallStaticShortMethod",
   "linker_set_key" : "_ZN7_JNIEnv21CallStaticShortMethodEP7_jclassP10_jmethodIDz",
   "parameters" :
   [
    {
     "is_this_ptr" : true,
     "referenced_type" : "_ZTIP7_JNIEnv"
    },
    {
     "referenced_type" : "_ZTIP7_jclass"
    },
    {
     "referenced_type" : "_ZTIP10_jmethodID"
    }
   ],
   "return_type" : "_ZTIs",
   "source_file" : "libnativehelper/include_jni/jni.h"
  },
  {
   "function_name" : "_JNIEnv::CallStaticVoidMethodA",
   "linker_set_key" : "_ZN7_JNIEnv21CallStaticVoidMethodAEP7_jclassP10_jmethodIDPK6jvalue",
   "parameters" :
   [
    {
     "is_this_ptr" : true,
     "referenced_type" : "_ZTIP7_JNIEnv"
    },
    {
     "referenced_type" : "_ZTIP7_jclass"
    },
    {
     "referenced_type" : "_ZTIP10_jmethodID"
    },
    {
     "referenced_type" : "_ZTIPK6jvalue"
    }
   ],
   "return_type" : "_ZTIv",
   "source_file" : "libnativehelper/include_jni/jni.h"
  },
  {
   "function_name" : "_JNIEnv::CallStaticVoidMethodV",
   "linker_set_key" : "_ZN7_JNIEnv21CallStaticVoidMethodVEP7_jclassP10_jmethodIDSt9__va_list",
   "parameters" :
   [
    {
     "is_this_ptr" : true,
     "referenced_type" : "_ZTIP7_JNIEnv"
    },
    {
     "referenced_type" : "_ZTIP7_jclass"
    },
    {
     "referenced_type" : "_ZTIP10_jmethodID"
    },
    {
     "referenced_type" : "_ZTISt9__va_list"
    }
   ],
   "return_type" : "_ZTIv",
   "source_file" : "libnativehelper/include_jni/jni.h"
  },
  {
   "function_name" : "_JNIEnv::GetBooleanArrayRegion",
   "linker_set_key" : "_ZN7_JNIEnv21GetBooleanArrayRegionEP14_jbooleanArrayiiPh",
   "parameters" :
   [
    {
     "is_this_ptr" : true,
     "referenced_type" : "_ZTIP7_JNIEnv"
    },
    {
     "referenced_type" : "_ZTIP14_jbooleanArray"
    },
    {
     "referenced_type" : "_ZTIi"
    },
    {
     "referenced_type" : "_ZTIi"
    },
    {
     "referenced_type" : "_ZTIPh"
    }
   ],
   "return_type" : "_ZTIv",
   "source_file" : "libnativehelper/include_jni/jni.h"
  },
  {
   "function_name" : "_JNIEnv::GetFloatArrayElements",
   "linker_set_key" : "_ZN7_JNIEnv21GetFloatArrayElementsEP12_jfloatArrayPh",
   "parameters" :
   [
    {
     "is_this_ptr" : true,
     "referenced_type" : "_ZTIP7_JNIEnv"
    },
    {
     "referenced_type" : "_ZTIP12_jfloatArray"
    },
    {
     "referenced_type" : "_ZTIPh"
    }
   ],
   "return_type" : "_ZTIPf",
   "source_file" : "libnativehelper/include_jni/jni.h"
  },
  {
   "function_name" : "_JNIEnv::GetObjectArrayElement",
   "linker_set_key" : "_ZN7_JNIEnv21GetObjectArrayElementEP13_jobjectArrayi",
   "parameters" :
   [
    {
     "is_this_ptr" : true,
     "referenced_type" : "_ZTIP7_JNIEnv"
    },
    {
     "referenced_type" : "_ZTIP13_jobjectArray"
    },
    {
     "referenced_type" : "_ZTIi"
    }
   ],
   "return_type" : "_ZTIP8_jobject",
   "source_file" : "libnativehelper/include_jni/jni.h"
  },
  {
   "function_name" : "_JNIEnv::GetShortArrayElements",
   "linker_set_key" : "_ZN7_JNIEnv21GetShortArrayElementsEP12_jshortArrayPh",
   "parameters" :
   [
    {
     "is_this_ptr" : true,
     "referenced_type" : "_ZTIP7_JNIEnv"
    },
    {
     "referenced_type" : "_ZTIP12_jshortArray"
    },
    {
     "referenced_type" : "_ZTIPh"
    }
   ],
   "return_type" : "_ZTIPs",
   "source_file" : "libnativehelper/include_jni/jni.h"
  },
  {
   "function_name" : "_JNIEnv::GetStaticBooleanField",
   "linker_set_key" : "_ZN7_JNIEnv21GetStaticBooleanFieldEP7_jclassP9_jfieldID",
   "parameters" :
   [
    {
     "is_this_ptr" : true,
     "referenced_type" : "_ZTIP7_JNIEnv"
    },
    {
     "referenced_type" : "_ZTIP7_jclass"
    },
    {
     "referenced_type" : "_ZTIP9_jfieldID"
    }
   ],
   "return_type" : "_ZTIh",
   "source_file" : "libnativehelper/include_jni/jni.h"
  },
  {
   "function_name" : "_JNIEnv::ReleaseStringCritical",
   "linker_set_key" : "_ZN7_JNIEnv21ReleaseStringCriticalEP8_jstringPKt",
   "parameters" :
   [
    {
     "is_this_ptr" : true,
     "referenced_type" : "_ZTIP7_JNIEnv"
    },
    {
     "referenced_type" : "_ZTIP8_jstring"
    },
    {
     "referenced_type" : "_ZTIPKt"
    }
   ],
   "return_type" : "_ZTIv",
   "source_file" : "libnativehelper/include_jni/jni.h"
  },
  {
   "function_name" : "_JNIEnv::ReleaseStringUTFChars",
   "linker_set_key" : "_ZN7_JNIEnv21ReleaseStringUTFCharsEP8_jstringPKc",
   "parameters" :
   [
    {
     "is_this_ptr" : true,
     "referenced_type" : "_ZTIP7_JNIEnv"
    },
    {
     "referenced_type" : "_ZTIP8_jstring"
    },
    {
     "referenced_type" : "_ZTIPKc"
    }
   ],
   "return_type" : "_ZTIv",
   "source_file" : "libnativehelper/include_jni/jni.h"
  },
  {
   "function_name" : "_JNIEnv::SetBooleanArrayRegion",
   "linker_set_key" : "_ZN7_JNIEnv21SetBooleanArrayRegionEP14_jbooleanArrayiiPKh",
   "parameters" :
   [
    {
     "is_this_ptr" : true,
     "referenced_type" : "_ZTIP7_JNIEnv"
    },
    {
     "referenced_type" : "_ZTIP14_jbooleanArray"
    },
    {
     "referenced_type" : "_ZTIi"
    },
    {
     "referenced_type" : "_ZTIi"
    },
    {
     "referenced_type" : "_ZTIPKh"
    }
   ],
   "return_type" : "_ZTIv",
   "source_file" : "libnativehelper/include_jni/jni.h"
  },
  {
   "function_name" : "_JNIEnv::SetObjectArrayElement",
   "linker_set_key" : "_ZN7_JNIEnv21SetObjectArrayElementEP13_jobjectArrayiP8_jobject",
   "parameters" :
   [
    {
     "is_this_ptr" : true,
     "referenced_type" : "_ZTIP7_JNIEnv"
    },
    {
     "referenced_type" : "_ZTIP13_jobjectArray"
    },
    {
     "referenced_type" : "_ZTIi"
    },
    {
     "referenced_type" : "_ZTIP8_jobject"
    }
   ],
   "return_type" : "_ZTIv",
   "source_file" : "libnativehelper/include_jni/jni.h"
  },
  {
   "function_name" : "_JNIEnv::SetStaticBooleanField",
   "linker_set_key" : "_ZN7_JNIEnv21SetStaticBooleanFieldEP7_jclassP9_jfieldIDh",
   "parameters" :
   [
    {
     "is_this_ptr" : true,
     "referenced_type" : "_ZTIP7_JNIEnv"
    },
    {
     "referenced_type" : "_ZTIP7_jclass"
    },
    {
     "referenced_type" : "_ZTIP9_jfieldID"
    },
    {
     "referenced_type" : "_ZTIh"
    }
   ],
   "return_type" : "_ZTIv",
   "source_file" : "libnativehelper/include_jni/jni.h"
  },
  {
   "function_name" : "_JNIEnv::CallStaticDoubleMethod",
   "linker_set_key" : "_ZN7_JNIEnv22CallStaticDoubleMethodEP7_jclassP10_jmethodIDz",
   "parameters" :
   [
    {
     "is_this_ptr" : true,
     "referenced_type" : "_ZTIP7_JNIEnv"
    },
    {
     "referenced_type" : "_ZTIP7_jclass"
    },
    {
     "referenced_type" : "_ZTIP10_jmethodID"
    }
   ],
   "return_type" : "_ZTId",
   "source_file" : "libnativehelper/include_jni/jni.h"
  },
  {
   "function_name" : "_JNIEnv::CallStaticFloatMethodA",
   "linker_set_key" : "_ZN7_JNIEnv22CallStaticFloatMethodAEP7_jclassP10_jmethodIDPK6jvalue",
   "parameters" :
   [
    {
     "is_this_ptr" : true,
     "referenced_type" : "_ZTIP7_JNIEnv"
    },
    {
     "referenced_type" : "_ZTIP7_jclass"
    },
    {
     "referenced_type" : "_ZTIP10_jmethodID"
    },
    {
     "referenced_type" : "_ZTIPK6jvalue"
    }
   ],
   "return_type" : "_ZTIf",
   "source_file" : "libnativehelper/include_jni/jni.h"
  },
  {
   "function_name" : "_JNIEnv::CallStaticFloatMethodV",
   "linker_set_key" : "_ZN7_JNIEnv22CallStaticFloatMethodVEP7_jclassP10_jmethodIDSt9__va_list",
   "parameters" :
   [
    {
     "is_this_ptr" : true,
     "referenced_type" : "_ZTIP7_JNIEnv"
    },
    {
     "referenced_type" : "_ZTIP7_jclass"
    },
    {
     "referenced_type" : "_ZTIP10_jmethodID"
    },
    {
     "referenced_type" : "_ZTISt9__va_list"
    }
   ],
   "return_type" : "_ZTIf",
   "source_file" : "libnativehelper/include_jni/jni.h"
  },
  {
   "function_name" : "_JNIEnv::CallStaticObjectMethod",
   "linker_set_key" : "_ZN7_JNIEnv22CallStaticObjectMethodEP7_jclassP10_jmethodIDz",
   "parameters" :
   [
    {
     "is_this_ptr" : true,
     "referenced_type" : "_ZTIP7_JNIEnv"
    },
    {
     "referenced_type" : "_ZTIP7_jclass"
    },
    {
     "referenced_type" : "_ZTIP10_jmethodID"
    }
   ],
   "return_type" : "_ZTIP8_jobject",
   "source_file" : "libnativehelper/include_jni/jni.h"
  },
  {
   "function_name" : "_JNIEnv::CallStaticShortMethodA",
   "linker_set_key" : "_ZN7_JNIEnv22CallStaticShortMethodAEP7_jclassP10_jmethodIDPK6jvalue",
   "parameters" :
   [
    {
     "is_this_ptr" : true,
     "referenced_type" : "_ZTIP7_JNIEnv"
    },
    {
     "referenced_type" : "_ZTIP7_jclass"
    },
    {
     "referenced_type" : "_ZTIP10_jmethodID"
    },
    {
     "referenced_type" : "_ZTIPK6jvalue"
    }
   ],
   "return_type" : "_ZTIs",
   "source_file" : "libnativehelper/include_jni/jni.h"
  },
  {
   "function_name" : "_JNIEnv::CallStaticShortMethodV",
   "linker_set_key" : "_ZN7_JNIEnv22CallStaticShortMethodVEP7_jclassP10_jmethodIDSt9__va_list",
   "parameters" :
   [
    {
     "is_this_ptr" : true,
     "referenced_type" : "_ZTIP7_JNIEnv"
    },
    {
     "referenced_type" : "_ZTIP7_jclass"
    },
    {
     "referenced_type" : "_ZTIP10_jmethodID"
    },
    {
     "referenced_type" : "_ZTISt9__va_list"
    }
   ],
   "return_type" : "_ZTIs",
   "source_file" : "libnativehelper/include_jni/jni.h"
  },
  {
   "function_name" : "_JNIEnv::GetDirectBufferAddress",
   "linker_set_key" : "_ZN7_JNIEnv22GetDirectBufferAddressEP8_jobject",
   "parameters" :
   [
    {
     "is_this_ptr" : true,
     "referenced_type" : "_ZTIP7_JNIEnv"
    },
    {
     "referenced_type" : "_ZTIP8_jobject"
    }
   ],
   "return_type" : "_ZTIPv",
   "source_file" : "libnativehelper/include_jni/jni.h"
  },
  {
   "function_name" : "_JNIEnv::GetDoubleArrayElements",
   "linker_set_key" : "_ZN7_JNIEnv22GetDoubleArrayElementsEP13_jdoubleArrayPh",
   "parameters" :
   [
    {
     "is_this_ptr" : true,
     "referenced_type" : "_ZTIP7_JNIEnv"
    },
    {
     "referenced_type" : "_ZTIP13_jdoubleArray"
    },
    {
     "referenced_type" : "_ZTIPh"
    }
   ],
   "return_type" : "_ZTIPd",
   "source_file" : "libnativehelper/include_jni/jni.h"
  },
  {
   "function_name" : "_JNIEnv::CallNonvirtualIntMethod",
   "linker_set_key" : "_ZN7_JNIEnv23CallNonvirtualIntMethodEP8_jobjectP7_jclassP10_jmethodIDz",
   "parameters" :
   [
    {
     "is_this_ptr" : true,
     "referenced_type" : "_ZTIP7_JNIEnv"
    },
    {
     "referenced_type" : "_ZTIP8_jobject"
    },
    {
     "referenced_type" : "_ZTIP7_jclass"
    },
    {
     "referenced_type" : "_ZTIP10_jmethodID"
    }
   ],
   "return_type" : "_ZTIi",
   "source_file" : "libnativehelper/include_jni/jni.h"
  },
  {
   "function_name" : "_JNIEnv::CallStaticBooleanMethod",
   "linker_set_key" : "_ZN7_JNIEnv23CallStaticBooleanMethodEP7_jclassP10_jmethodIDz",
   "parameters" :
   [
    {
     "is_this_ptr" : true,
     "referenced_type" : "_ZTIP7_JNIEnv"
    },
    {
     "referenced_type" : "_ZTIP7_jclass"
    },
    {
     "referenced_type" : "_ZTIP10_jmethodID"
    }
   ],
   "return_type" : "_ZTIh",
   "source_file" : "libnativehelper/include_jni/jni.h"
  },
  {
   "function_name" : "_JNIEnv::CallStaticDoubleMethodA",
   "linker_set_key" : "_ZN7_JNIEnv23CallStaticDoubleMethodAEP7_jclassP10_jmethodIDPK6jvalue",
   "parameters" :
   [
    {
     "is_this_ptr" : true,
     "referenced_type" : "_ZTIP7_JNIEnv"
    },
    {
     "referenced_type" : "_ZTIP7_jclass"
    },
    {
     "referenced_type" : "_ZTIP10_jmethodID"
    },
    {
     "referenced_type" : "_ZTIPK6jvalue"
    }
   ],
   "return_type" : "_ZTId",
   "source_file" : "libnativehelper/include_jni/jni.h"
  },
  {
   "function_name" : "_JNIEnv::CallStaticDoubleMethodV",
   "linker_set_key" : "_ZN7_JNIEnv23CallStaticDoubleMethodVEP7_jclassP10_jmethodIDSt9__va_list",
   "parameters" :
   [
    {
     "is_this_ptr" : true,
     "referenced_type" : "_ZTIP7_JNIEnv"
    },
    {
     "referenced_type" : "_ZTIP7_jclass"
    },
    {
     "referenced_type" : "_ZTIP10_jmethodID"
    },
    {
     "referenced_type" : "_ZTISt9__va_list"
    }
   ],
   "return_type" : "_ZTId",
   "source_file" : "libnativehelper/include_jni/jni.h"
  },
  {
   "function_name" : "_JNIEnv::CallStaticObjectMethodA",
   "linker_set_key" : "_ZN7_JNIEnv23CallStaticObjectMethodAEP7_jclassP10_jmethodIDPK6jvalue",
   "parameters" :
   [
    {
     "is_this_ptr" : true,
     "referenced_type" : "_ZTIP7_JNIEnv"
    },
    {
     "referenced_type" : "_ZTIP7_jclass"
    },
    {
     "referenced_type" : "_ZTIP10_jmethodID"
    },
    {
     "referenced_type" : "_ZTIPK6jvalue"
    }
   ],
   "return_type" : "_ZTIP8_jobject",
   "source_file" : "libnativehelper/include_jni/jni.h"
  },
  {
   "function_name" : "_JNIEnv::CallStaticObjectMethodV",
   "linker_set_key" : "_ZN7_JNIEnv23CallStaticObjectMethodVEP7_jclassP10_jmethodIDSt9__va_list",
   "parameters" :
   [
    {
     "is_this_ptr" : true,
     "referenced_type" : "_ZTIP7_JNIEnv"
    },
    {
     "referenced_type" : "_ZTIP7_jclass"
    },
    {
     "referenced_type" : "_ZTIP10_jmethodID"
    },
    {
     "referenced_type" : "_ZTISt9__va_list"
    }
   ],
   "return_type" : "_ZTIP8_jobject",
   "source_file" : "libnativehelper/include_jni/jni.h"
  },
  {
   "function_name" : "_JNIEnv::GetBooleanArrayElements",
   "linker_set_key" : "_ZN7_JNIEnv23GetBooleanArrayElementsEP14_jbooleanArrayPh",
   "parameters" :
   [
    {
     "is_this_ptr" : true,
     "referenced_type" : "_ZTIP7_JNIEnv"
    },
    {
     "referenced_type" : "_ZTIP14_jbooleanArray"
    },
    {
     "referenced_type" : "_ZTIPh"
    }
   ],
   "return_type" : "_ZTIPh",
   "source_file" : "libnativehelper/include_jni/jni.h"
  },
  {
   "function_name" : "_JNIEnv::GetDirectBufferCapacity",
   "linker_set_key" : "_ZN7_JNIEnv23GetDirectBufferCapacityEP8_jobject",
   "parameters" :
   [
    {
     "is_this_ptr" : true,
     "referenced_type" : "_ZTIP7_JNIEnv"
    },
    {
     "referenced_type" : "_ZTIP8_jobject"
    }
   ],
   "return_type" : "_ZTIx",
   "source_file" : "libnativehelper/include_jni/jni.h"
  },
  {
   "function_name" : "_JNIEnv::ReleaseIntArrayElements",
   "linker_set_key" : "_ZN7_JNIEnv23ReleaseIntArrayElementsEP10_jintArrayPii",
   "parameters" :
   [
    {
     "is_this_ptr" : true,
     "referenced_type" : "_ZTIP7_JNIEnv"
    },
    {
     "referenced_type" : "_ZTIP10_jintArray"
    },
    {
     "referenced_type" : "_ZTIPi"
    },
    {
     "referenced_type" : "_ZTIi"
    }
   ],
   "return_type" : "_ZTIv",
   "source_file" : "libnativehelper/include_jni/jni.h"
  },
  {
   "function_name" : "_JNIEnv::CallNonvirtualByteMethod",
   "linker_set_key" : "_ZN7_JNIEnv24CallNonvirtualByteMethodEP8_jobjectP7_jclassP10_jmethodIDz",
   "parameters" :
   [
    {
     "is_this_ptr" : true,
     "referenced_type" : "_ZTIP7_JNIEnv"
    },
    {
     "referenced_type" : "_ZTIP8_jobject"
    },
    {
     "referenced_type" : "_ZTIP7_jclass"
    },
    {
     "referenced_type" : "_ZTIP10_jmethodID"
    }
   ],
   "return_type" : "_ZTIa",
   "source_file" : "libnativehelper/include_jni/jni.h"
  },
  {
   "function_name" : "_JNIEnv::CallNonvirtualCharMethod",
   "linker_set_key" : "_ZN7_JNIEnv24CallNonvirtualCharMethodEP8_jobjectP7_jclassP10_jmethodIDz",
   "parameters" :
   [
    {
     "is_this_ptr" : true,
     "referenced_type" : "_ZTIP7_JNIEnv"
    },
    {
     "referenced_type" : "_ZTIP8_jobject"
    },
    {
     "referenced_type" : "_ZTIP7_jclass"
    },
    {
     "referenced_type" : "_ZTIP10_jmethodID"
    }
   ],
   "return_type" : "_ZTIt",
   "source_file" : "libnativehelper/include_jni/jni.h"
  },
  {
   "function_name" : "_JNIEnv::CallNonvirtualIntMethodA",
   "linker_set_key" : "_ZN7_JNIEnv24CallNonvirtualIntMethodAEP8_jobjectP7_jclassP10_jmethodIDPK6jvalue",
   "parameters" :
   [
    {
     "is_this_ptr" : true,
     "referenced_type" : "_ZTIP7_JNIEnv"
    },
    {
     "referenced_type" : "_ZTIP8_jobject"
    },
    {
     "referenced_type" : "_ZTIP7_jclass"
    },
    {
     "referenced_type" : "_ZTIP10_jmethodID"
    },
    {
     "referenced_type" : "_ZTIPK6jvalue"
    }
   ],
   "return_type" : "_ZTIi",
   "source_file" : "libnativehelper/include_jni/jni.h"
  },
  {
   "function_name" : "_JNIEnv::CallNonvirtualIntMethodV",
   "linker_set_key" : "_ZN7_JNIEnv24CallNonvirtualIntMethodVEP8_jobjectP7_jclassP10_jmethodIDSt9__va_list",
   "parameters" :
   [
    {
     "is_this_ptr" : true,
     "referenced_type" : "_ZTIP7_JNIEnv"
    },
    {
     "referenced_type" : "_ZTIP8_jobject"
    },
    {
     "referenced_type" : "_ZTIP7_jclass"
    },
    {
     "referenced_type" : "_ZTIP10_jmethodID"
    },
    {
     "referenced_type" : "_ZTISt9__va_list"
    }
   ],
   "return_type" : "_ZTIi",
   "source_file" : "libnativehelper/include_jni/jni.h"
  },
  {
   "function_name" : "_JNIEnv::CallNonvirtualLongMethod",
   "linker_set_key" : "_ZN7_JNIEnv24CallNonvirtualLongMethodEP8_jobjectP7_jclassP10_jmethodIDz",
   "parameters" :
   [
    {
     "is_this_ptr" : true,
     "referenced_type" : "_ZTIP7_JNIEnv"
    },
    {
     "referenced_type" : "_ZTIP8_jobject"
    },
    {
     "referenced_type" : "_ZTIP7_jclass"
    },
    {
     "referenced_type" : "_ZTIP10_jmethodID"
    }
   ],
   "return_type" : "_ZTIx",
   "source_file" : "libnativehelper/include_jni/jni.h"
  },
  {
   "function_name" : "_JNIEnv::CallNonvirtualVoidMethod",
   "linker_set_key" : "_ZN7_JNIEnv24CallNonvirtualVoidMethodEP8_jobjectP7_jclassP10_jmethodIDz",
   "parameters" :
   [
    {
     "is_this_ptr" : true,
     "referenced_type" : "_ZTIP7_JNIEnv"
    },
    {
     "referenced_type" : "_ZTIP8_jobject"
    },
    {
     "referenced_type" : "_ZTIP7_jclass"
    },
    {
     "referenced_type" : "_ZTIP10_jmethodID"
    }
   ],
   "return_type" : "_ZTIv",
   "source_file" : "libnativehelper/include_jni/jni.h"
  },
  {
   "function_name" : "_JNIEnv::CallStaticBooleanMethodA",
   "linker_set_key" : "_ZN7_JNIEnv24CallStaticBooleanMethodAEP7_jclassP10_jmethodIDPK6jvalue",
   "parameters" :
   [
    {
     "is_this_ptr" : true,
     "referenced_type" : "_ZTIP7_JNIEnv"
    },
    {
     "referenced_type" : "_ZTIP7_jclass"
    },
    {
     "referenced_type" : "_ZTIP10_jmethodID"
    },
    {
     "referenced_type" : "_ZTIPK6jvalue"
    }
   ],
   "return_type" : "_ZTIh",
   "source_file" : "libnativehelper/include_jni/jni.h"
  },
  {
   "function_name" : "_JNIEnv::CallStaticBooleanMethodV",
   "linker_set_key" : "_ZN7_JNIEnv24CallStaticBooleanMethodVEP7_jclassP10_jmethodIDSt9__va_list",
   "parameters" :
   [
    {
     "is_this_ptr" : true,
     "referenced_type" : "_ZTIP7_JNIEnv"
    },
    {
     "referenced_type" : "_ZTIP7_jclass"
    },
    {
     "referenced_type" : "_ZTIP10_jmethodID"
    },
    {
     "referenced_type" : "_ZTISt9__va_list"
    }
   ],
   "return_type" : "_ZTIh",
   "source_file" : "libnativehelper/include_jni/jni.h"
  },
  {
   "function_name" : "_JNIEnv::ReleaseByteArrayElements",
   "linker_set_key" : "_ZN7_JNIEnv24ReleaseByteArrayElementsEP11_jbyteArrayPai",
   "parameters" :
   [
    {
     "is_this_ptr" : true,
     "referenced_type" : "_ZTIP7_JNIEnv"
    },
    {
     "referenced_type" : "_ZTIP11_jbyteArray"
    },
    {
     "referenced_type" : "_ZTIPa"
    },
    {
     "referenced_type" : "_ZTIi"
    }
   ],
   "return_type" : "_ZTIv",
   "source_file" : "libnativehelper/include_jni/jni.h"
  },
  {
   "function_name" : "_JNIEnv::ReleaseCharArrayElements",
   "linker_set_key" : "_ZN7_JNIEnv24ReleaseCharArrayElementsEP11_jcharArrayPti",
   "parameters" :
   [
    {
     "is_this_ptr" : true,
     "referenced_type" : "_ZTIP7_JNIEnv"
    },
    {
     "referenced_type" : "_ZTIP11_jcharArray"
    },
    {
     "referenced_type" : "_ZTIPt"
    },
    {
     "referenced_type" : "_ZTIi"
    }
   ],
   "return_type" : "_ZTIv",
   "source_file" : "libnativehelper/include_jni/jni.h"
  },
  {
   "function_name" : "_JNIEnv::ReleaseLongArrayElements",
   "linker_set_key" : "_ZN7_JNIEnv24ReleaseLongArrayElementsEP11_jlongArrayPxi",
   "parameters" :
   [
    {
     "is_this_ptr" : true,
     "referenced_type" : "_ZTIP7_JNIEnv"
    },
    {
     "referenced_type" : "_ZTIP11_jlongArray"
    },
    {
     "referenced_type" : "_ZTIPx"
    },
    {
     "referenced_type" : "_ZTIi"
    }
   ],
   "return_type" : "_ZTIv",
   "source_file" : "libnativehelper/include_jni/jni.h"
  },
  {
   "function_name" : "_JNIEnv::CallNonvirtualByteMethodA",
   "linker_set_key" : "_ZN7_JNIEnv25CallNonvirtualByteMethodAEP8_jobjectP7_jclassP10_jmethodIDPK6jvalue",
   "parameters" :
   [
    {
     "is_this_ptr" : true,
     "referenced_type" : "_ZTIP7_JNIEnv"
    },
    {
     "referenced_type" : "_ZTIP8_jobject"
    },
    {
     "referenced_type" : "_ZTIP7_jclass"
    },
    {
     "referenced_type" : "_ZTIP10_jmethodID"
    },
    {
     "referenced_type" : "_ZTIPK6jvalue"
    }
   ],
   "return_type" : "_ZTIa",
   "source_file" : "libnativehelper/include_jni/jni.h"
  },
  {
   "function_name" : "_JNIEnv::CallNonvirtualByteMethodV",
   "linker_set_key" : "_ZN7_JNIEnv25CallNonvirtualByteMethodVEP8_jobjectP7_jclassP10_jmethodIDSt9__va_list",
   "parameters" :
   [
    {
     "is_this_ptr" : true,
     "referenced_type" : "_ZTIP7_JNIEnv"
    },
    {
     "referenced_type" : "_ZTIP8_jobject"
    },
    {
     "referenced_type" : "_ZTIP7_jclass"
    },
    {
     "referenced_type" : "_ZTIP10_jmethodID"
    },
    {
     "referenced_type" : "_ZTISt9__va_list"
    }
   ],
   "return_type" : "_ZTIa",
   "source_file" : "libnativehelper/include_jni/jni.h"
  },
  {
   "function_name" : "_JNIEnv::CallNonvirtualCharMethodA",
   "linker_set_key" : "_ZN7_JNIEnv25CallNonvirtualCharMethodAEP8_jobjectP7_jclassP10_jmethodIDPK6jvalue",
   "parameters" :
   [
    {
     "is_this_ptr" : true,
     "referenced_type" : "_ZTIP7_JNIEnv"
    },
    {
     "referenced_type" : "_ZTIP8_jobject"
    },
    {
     "referenced_type" : "_ZTIP7_jclass"
    },
    {
     "referenced_type" : "_ZTIP10_jmethodID"
    },
    {
     "referenced_type" : "_ZTIPK6jvalue"
    }
   ],
   "return_type" : "_ZTIt",
   "source_file" : "libnativehelper/include_jni/jni.h"
  },
  {
   "function_name" : "_JNIEnv::CallNonvirtualCharMethodV",
   "linker_set_key" : "_ZN7_JNIEnv25CallNonvirtualCharMethodVEP8_jobjectP7_jclassP10_jmethodIDSt9__va_list",
   "parameters" :
   [
    {
     "is_this_ptr" : true,
     "referenced_type" : "_ZTIP7_JNIEnv"
    },
    {
     "referenced_type" : "_ZTIP8_jobject"
    },
    {
     "referenced_type" : "_ZTIP7_jclass"
    },
    {
     "referenced_type" : "_ZTIP10_jmethodID"
    },
    {
     "referenced_type" : "_ZTISt9__va_list"
    }
   ],
   "return_type" : "_ZTIt",
   "source_file" : "libnativehelper/include_jni/jni.h"
  },
  {
   "function_name" : "_JNIEnv::CallNonvirtualFloatMethod",
   "linker_set_key" : "_ZN7_JNIEnv25CallNonvirtualFloatMethodEP8_jobjectP7_jclassP10_jmethodIDz",
   "parameters" :
   [
    {
     "is_this_ptr" : true,
     "referenced_type" : "_ZTIP7_JNIEnv"
    },
    {
     "referenced_type" : "_ZTIP8_jobject"
    },
    {
     "referenced_type" : "_ZTIP7_jclass"
    },
    {
     "referenced_type" : "_ZTIP10_jmethodID"
    }
   ],
   "return_type" : "_ZTIf",
   "source_file" : "libnativehelper/include_jni/jni.h"
  },
  {
   "function_name" : "_JNIEnv::CallNonvirtualLongMethodA",
   "linker_set_key" : "_ZN7_JNIEnv25CallNonvirtualLongMethodAEP8_jobjectP7_jclassP10_jmethodIDPK6jvalue",
   "parameters" :
   [
    {
     "is_this_ptr" : true,
     "referenced_type" : "_ZTIP7_JNIEnv"
    },
    {
     "referenced_type" : "_ZTIP8_jobject"
    },
    {
     "referenced_type" : "_ZTIP7_jclass"
    },
    {
     "referenced_type" : "_ZTIP10_jmethodID"
    },
    {
     "referenced_type" : "_ZTIPK6jvalue"
    }
   ],
   "return_type" : "_ZTIx",
   "source_file" : "libnativehelper/include_jni/jni.h"
  },
  {
   "function_name" : "_JNIEnv::CallNonvirtualLongMethodV",
   "linker_set_key" : "_ZN7_JNIEnv25CallNonvirtualLongMethodVEP8_jobjectP7_jclassP10_jmethodIDSt9__va_list",
   "parameters" :
   [
    {
     "is_this_ptr" : true,
     "referenced_type" : "_ZTIP7_JNIEnv"
    },
    {
     "referenced_type" : "_ZTIP8_jobject"
    },
    {
     "referenced_type" : "_ZTIP7_jclass"
    },
    {
     "referenced_type" : "_ZTIP10_jmethodID"
    },
    {
     "referenced_type" : "_ZTISt9__va_list"
    }
   ],
   "return_type" : "_ZTIx",
   "source_file" : "libnativehelper/include_jni/jni.h"
  },
  {
   "function_name" : "_JNIEnv::CallNonvirtualShortMethod",
   "linker_set_key" : "_ZN7_JNIEnv25CallNonvirtualShortMethodEP8_jobjectP7_jclassP10_jmethodIDz",
   "parameters" :
   [
    {
     "is_this_ptr" : true,
     "referenced_type" : "_ZTIP7_JNIEnv"
    },
    {
     "referenced_type" : "_ZTIP8_jobject"
    },
    {
     "referenced_type" : "_ZTIP7_jclass"
    },
    {
     "referenced_type" : "_ZTIP10_jmethodID"
    }
   ],
   "return_type" : "_ZTIs",
   "source_file" : "libnativehelper/include_jni/jni.h"
  },
  {
   "function_name" : "_JNIEnv::CallNonvirtualVoidMethodA",
   "linker_set_key" : "_ZN7_JNIEnv25CallNonvirtualVoidMethodAEP8_jobjectP7_jclassP10_jmethodIDPK6jvalue",
   "parameters" :
   [
    {
     "is_this_ptr" : true,
     "referenced_type" : "_ZTIP7_JNIEnv"
    },
    {
     "referenced_type" : "_ZTIP8_jobject"
    },
    {
     "referenced_type" : "_ZTIP7_jclass"
    },
    {
     "referenced_type" : "_ZTIP10_jmethodID"
    },
    {
     "referenced_type" : "_ZTIPK6jvalue"
    }
   ],
   "return_type" : "_ZTIv",
   "source_file" : "libnativehelper/include_jni/jni.h"
  },
  {
   "function_name" : "_JNIEnv::CallNonvirtualVoidMethodV",
   "linker_set_key" : "_ZN7_JNIEnv25CallNonvirtualVoidMethodVEP8_jobjectP7_jclassP10_jmethodIDSt9__va_list",
   "parameters" :
   [
    {
     "is_this_ptr" : true,
     "referenced_type" : "_ZTIP7_JNIEnv"
    },
    {
     "referenced_type" : "_ZTIP8_jobject"
    },
    {
     "referenced_type" : "_ZTIP7_jclass"
    },
    {
     "referenced_type" : "_ZTIP10_jmethodID"
    },
    {
     "referenced_type" : "_ZTISt9__va_list"
    }
   ],
   "return_type" : "_ZTIv",
   "source_file" : "libnativehelper/include_jni/jni.h"
  },
  {
   "function_name" : "_JNIEnv::GetPrimitiveArrayCritical",
   "linker_set_key" : "_ZN7_JNIEnv25GetPrimitiveArrayCriticalEP7_jarrayPh",
   "parameters" :
   [
    {
     "is_this_ptr" : true,
     "referenced_type" : "_ZTIP7_JNIEnv"
    },
    {
     "referenced_type" : "_ZTIP7_jarray"
    },
    {
     "referenced_type" : "_ZTIPh"
    }
   ],
   "return_type" : "_ZTIPv",
   "source_file" : "libnativehelper/include_jni/jni.h"
  },
  {
   "function_name" : "_JNIEnv::ReleaseFloatArrayElements",
   "linker_set_key" : "_ZN7_JNIEnv25ReleaseFloatArrayElementsEP12_jfloatArrayPfi",
   "parameters" :
   [
    {
     "is_this_ptr" : true,
     "referenced_type" : "_ZTIP7_JNIEnv"
    },
    {
     "referenced_type" : "_ZTIP12_jfloatArray"
    },
    {
     "referenced_type" : "_ZTIPf"
    },
    {
     "referenced_type" : "_ZTIi"
    }
   ],
   "return_type" : "_ZTIv",
   "source_file" : "libnativehelper/include_jni/jni.h"
  },
  {
   "function_name" : "_JNIEnv::ReleaseShortArrayElements",
   "linker_set_key" : "_ZN7_JNIEnv25ReleaseShortArrayElementsEP12_jshortArrayPsi",
   "parameters" :
   [
    {
     "is_this_ptr" : true,
     "referenced_type" : "_ZTIP7_JNIEnv"
    },
    {
     "referenced_type" : "_ZTIP12_jshortArray"
    },
    {
     "referenced_type" : "_ZTIPs"
    },
    {
     "referenced_type" : "_ZTIi"
    }
   ],
   "return_type" : "_ZTIv",
   "source_file" : "libnativehelper/include_jni/jni.h"
  },
  {
   "function_name" : "_JNIEnv::CallNonvirtualDoubleMethod",
   "linker_set_key" : "_ZN7_JNIEnv26CallNonvirtualDoubleMethodEP8_jobjectP7_jclassP10_jmethodIDz",
   "parameters" :
   [
    {
     "is_this_ptr" : true,
     "referenced_type" : "_ZTIP7_JNIEnv"
    },
    {
     "referenced_type" : "_ZTIP8_jobject"
    },
    {
     "referenced_type" : "_ZTIP7_jclass"
    },
    {
     "referenced_type" : "_ZTIP10_jmethodID"
    }
   ],
   "return_type" : "_ZTId",
   "source_file" : "libnativehelper/include_jni/jni.h"
  },
  {
   "function_name" : "_JNIEnv::CallNonvirtualFloatMethodA",
   "linker_set_key" : "_ZN7_JNIEnv26CallNonvirtualFloatMethodAEP8_jobjectP7_jclassP10_jmethodIDPK6jvalue",
   "parameters" :
   [
    {
     "is_this_ptr" : true,
     "referenced_type" : "_ZTIP7_JNIEnv"
    },
    {
     "referenced_type" : "_ZTIP8_jobject"
    },
    {
     "referenced_type" : "_ZTIP7_jclass"
    },
    {
     "referenced_type" : "_ZTIP10_jmethodID"
    },
    {
     "referenced_type" : "_ZTIPK6jvalue"
    }
   ],
   "return_type" : "_ZTIf",
   "source_file" : "libnativehelper/include_jni/jni.h"
  },
  {
   "function_name" : "_JNIEnv::CallNonvirtualFloatMethodV",
   "linker_set_key" : "_ZN7_JNIEnv26CallNonvirtualFloatMethodVEP8_jobjectP7_jclassP10_jmethodIDSt9__va_list",
   "parameters" :
   [
    {
     "is_this_ptr" : true,
     "referenced_type" : "_ZTIP7_JNIEnv"
    },
    {
     "referenced_type" : "_ZTIP8_jobject"
    },
    {
     "referenced_type" : "_ZTIP7_jclass"
    },
    {
     "referenced_type" : "_ZTIP10_jmethodID"
    },
    {
     "referenced_type" : "_ZTISt9__va_list"
    }
   ],
   "return_type" : "_ZTIf",
   "source_file" : "libnativehelper/include_jni/jni.h"
  },
  {
   "function_name" : "_JNIEnv::CallNonvirtualObjectMethod",
   "linker_set_key" : "_ZN7_JNIEnv26CallNonvirtualObjectMethodEP8_jobjectP7_jclassP10_jmethodIDz",
   "parameters" :
   [
    {
     "is_this_ptr" : true,
     "referenced_type" : "_ZTIP7_JNIEnv"
    },
    {
     "referenced_type" : "_ZTIP8_jobject"
    },
    {
     "referenced_type" : "_ZTIP7_jclass"
    },
    {
     "referenced_type" : "_ZTIP10_jmethodID"
    }
   ],
   "return_type" : "_ZTIP8_jobject",
   "source_file" : "libnativehelper/include_jni/jni.h"
  },
  {
   "function_name" : "_JNIEnv::CallNonvirtualShortMethodA",
   "linker_set_key" : "_ZN7_JNIEnv26CallNonvirtualShortMethodAEP8_jobjectP7_jclassP10_jmethodIDPK6jvalue",
   "parameters" :
   [
    {
     "is_this_ptr" : true,
     "referenced_type" : "_ZTIP7_JNIEnv"
    },
    {
     "referenced_type" : "_ZTIP8_jobject"
    },
    {
     "referenced_type" : "_ZTIP7_jclass"
    },
    {
     "referenced_type" : "_ZTIP10_jmethodID"
    },
    {
     "referenced_type" : "_ZTIPK6jvalue"
    }
   ],
   "return_type" : "_ZTIs",
   "source_file" : "libnativehelper/include_jni/jni.h"
  },
  {
   "function_name" : "_JNIEnv::CallNonvirtualShortMethodV",
   "linker_set_key" : "_ZN7_JNIEnv26CallNonvirtualShortMethodVEP8_jobjectP7_jclassP10_jmethodIDSt9__va_list",
   "parameters" :
   [
    {
     "is_this_ptr" : true,
     "referenced_type" : "_ZTIP7_JNIEnv"
    },
    {
     "referenced_type" : "_ZTIP8_jobject"
    },
    {
     "referenced_type" : "_ZTIP7_jclass"
    },
    {
     "referenced_type" : "_ZTIP10_jmethodID"
    },
    {
     "referenced_type" : "_ZTISt9__va_list"
    }
   ],
   "return_type" : "_ZTIs",
   "source_file" : "libnativehelper/include_jni/jni.h"
  },
  {
   "function_name" : "_JNIEnv::ReleaseDoubleArrayElements",
   "linker_set_key" : "_ZN7_JNIEnv26ReleaseDoubleArrayElementsEP13_jdoubleArrayPdi",
   "parameters" :
   [
    {
     "is_this_ptr" : true,
     "referenced_type" : "_ZTIP7_JNIEnv"
    },
    {
     "referenced_type" : "_ZTIP13_jdoubleArray"
    },
    {
     "referenced_type" : "_ZTIPd"
    },
    {
     "referenced_type" : "_ZTIi"
    }
   ],
   "return_type" : "_ZTIv",
   "source_file" : "libnativehelper/include_jni/jni.h"
  },
  {
   "function_name" : "_JNIEnv::CallNonvirtualBooleanMethod",
   "linker_set_key" : "_ZN7_JNIEnv27CallNonvirtualBooleanMethodEP8_jobjectP7_jclassP10_jmethodIDz",
   "parameters" :
   [
    {
     "is_this_ptr" : true,
     "referenced_type" : "_ZTIP7_JNIEnv"
    },
    {
     "referenced_type" : "_ZTIP8_jobject"
    },
    {
     "referenced_type" : "_ZTIP7_jclass"
    },
    {
     "referenced_type" : "_ZTIP10_jmethodID"
    }
   ],
   "return_type" : "_ZTIh",
   "source_file" : "libnativehelper/include_jni/jni.h"
  },
  {
   "function_name" : "_JNIEnv::CallNonvirtualDoubleMethodA",
   "linker_set_key" : "_ZN7_JNIEnv27CallNonvirtualDoubleMethodAEP8_jobjectP7_jclassP10_jmethodIDPK6jvalue",
   "parameters" :
   [
    {
     "is_this_ptr" : true,
     "referenced_type" : "_ZTIP7_JNIEnv"
    },
    {
     "referenced_type" : "_ZTIP8_jobject"
    },
    {
     "referenced_type" : "_ZTIP7_jclass"
    },
    {
     "referenced_type" : "_ZTIP10_jmethodID"
    },
    {
     "referenced_type" : "_ZTIPK6jvalue"
    }
   ],
   "return_type" : "_ZTId",
   "source_file" : "libnativehelper/include_jni/jni.h"
  },
  {
   "function_name" : "_JNIEnv::CallNonvirtualDoubleMethodV",
   "linker_set_key" : "_ZN7_JNIEnv27CallNonvirtualDoubleMethodVEP8_jobjectP7_jclassP10_jmethodIDSt9__va_list",
   "parameters" :
   [
    {
     "is_this_ptr" : true,
     "referenced_type" : "_ZTIP7_JNIEnv"
    },
    {
     "referenced_type" : "_ZTIP8_jobject"
    },
    {
     "referenced_type" : "_ZTIP7_jclass"
    },
    {
     "referenced_type" : "_ZTIP10_jmethodID"
    },
    {
     "referenced_type" : "_ZTISt9__va_list"
    }
   ],
   "return_type" : "_ZTId",
   "source_file" : "libnativehelper/include_jni/jni.h"
  },
  {
   "function_name" : "_JNIEnv::CallNonvirtualObjectMethodA",
   "linker_set_key" : "_ZN7_JNIEnv27CallNonvirtualObjectMethodAEP8_jobjectP7_jclassP10_jmethodIDPK6jvalue",
   "parameters" :
   [
    {
     "is_this_ptr" : true,
     "referenced_type" : "_ZTIP7_JNIEnv"
    },
    {
     "referenced_type" : "_ZTIP8_jobject"
    },
    {
     "referenced_type" : "_ZTIP7_jclass"
    },
    {
     "referenced_type" : "_ZTIP10_jmethodID"
    },
    {
     "referenced_type" : "_ZTIPK6jvalue"
    }
   ],
   "return_type" : "_ZTIP8_jobject",
   "source_file" : "libnativehelper/include_jni/jni.h"
  },
  {
   "function_name" : "_JNIEnv::CallNonvirtualObjectMethodV",
   "linker_set_key" : "_ZN7_JNIEnv27CallNonvirtualObjectMethodVEP8_jobjectP7_jclassP10_jmethodIDSt9__va_list",
   "parameters" :
   [
    {
     "is_this_ptr" : true,
     "referenced_type" : "_ZTIP7_JNIEnv"
    },
    {
     "referenced_type" : "_ZTIP8_jobject"
    },
    {
     "referenced_type" : "_ZTIP7_jclass"
    },
    {
     "referenced_type" : "_ZTIP10_jmethodID"
    },
    {
     "referenced_type" : "_ZTISt9__va_list"
    }
   ],
   "return_type" : "_ZTIP8_jobject",
   "source_file" : "libnativehelper/include_jni/jni.h"
  },
  {
   "function_name" : "_JNIEnv::ReleaseBooleanArrayElements",
   "linker_set_key" : "_ZN7_JNIEnv27ReleaseBooleanArrayElementsEP14_jbooleanArrayPhi",
   "parameters" :
   [
    {
     "is_this_ptr" : true,
     "referenced_type" : "_ZTIP7_JNIEnv"
    },
    {
     "referenced_type" : "_ZTIP14_jbooleanArray"
    },
    {
     "referenced_type" : "_ZTIPh"
    },
    {
     "referenced_type" : "_ZTIi"
    }
   ],
   "return_type" : "_ZTIv",
   "source_file" : "libnativehelper/include_jni/jni.h"
  },
  {
   "function_name" : "_JNIEnv::CallNonvirtualBooleanMethodA",
   "linker_set_key" : "_ZN7_JNIEnv28CallNonvirtualBooleanMethodAEP8_jobjectP7_jclassP10_jmethodIDPK6jvalue",
   "parameters" :
   [
    {
     "is_this_ptr" : true,
     "referenced_type" : "_ZTIP7_JNIEnv"
    },
    {
     "referenced_type" : "_ZTIP8_jobject"
    },
    {
     "referenced_type" : "_ZTIP7_jclass"
    },
    {
     "referenced_type" : "_ZTIP10_jmethodID"
    },
    {
     "referenced_type" : "_ZTIPK6jvalue"
    }
   ],
   "return_type" : "_ZTIh",
   "source_file" : "libnativehelper/include_jni/jni.h"
  },
  {
   "function_name" : "_JNIEnv::CallNonvirtualBooleanMethodV",
   "linker_set_key" : "_ZN7_JNIEnv28CallNonvirtualBooleanMethodVEP8_jobjectP7_jclassP10_jmethodIDSt9__va_list",
   "parameters" :
   [
    {
     "is_this_ptr" : true,
     "referenced_type" : "_ZTIP7_JNIEnv"
    },
    {
     "referenced_type" : "_ZTIP8_jobject"
    },
    {
     "referenced_type" : "_ZTIP7_jclass"
    },
    {
     "referenced_type" : "_ZTIP10_jmethodID"
    },
    {
     "referenced_type" : "_ZTISt9__va_list"
    }
   ],
   "return_type" : "_ZTIh",
   "source_file" : "libnativehelper/include_jni/jni.h"
  },
  {
   "function_name" : "_JNIEnv::ReleasePrimitiveArrayCritical",
   "linker_set_key" : "_ZN7_JNIEnv29ReleasePrimitiveArrayCriticalEP7_jarrayPvi",
   "parameters" :
   [
    {
     "is_this_ptr" : true,
     "referenced_type" : "_ZTIP7_JNIEnv"
    },
    {
     "referenced_type" : "_ZTIP7_jarray"
    },
    {
     "referenced_type" : "_ZTIPv"
    },
    {
     "referenced_type" : "_ZTIi"
    }
   ],
   "return_type" : "_ZTIv",
   "source_file" : "libnativehelper/include_jni/jni.h"
  },
  {
   "function_name" : "_JNIEnv::Throw",
   "linker_set_key" : "_ZN7_JNIEnv5ThrowEP11_jthrowable",
   "parameters" :
   [
    {
     "is_this_ptr" : true,
     "referenced_type" : "_ZTIP7_JNIEnv"
    },
    {
     "referenced_type" : "_ZTIP11_jthrowable"
    }
   ],
   "return_type" : "_ZTIi",
   "source_file" : "libnativehelper/include_jni/jni.h"
  },
  {
   "function_name" : "_JNIEnv::ThrowNew",
   "linker_set_key" : "_ZN7_JNIEnv8ThrowNewEP7_jclassPKc",
   "parameters" :
   [
    {
     "is_this_ptr" : true,
     "referenced_type" : "_ZTIP7_JNIEnv"
    },
    {
     "referenced_type" : "_ZTIP7_jclass"
    },
    {
     "referenced_type" : "_ZTIPKc"
    }
   ],
   "return_type" : "_ZTIi",
   "source_file" : "libnativehelper/include_jni/jni.h"
  },
  {
   "function_name" : "_JNIEnv::FindClass",
   "linker_set_key" : "_ZN7_JNIEnv9FindClassEPKc",
   "parameters" :
   [
    {
     "is_this_ptr" : true,
     "referenced_type" : "_ZTIP7_JNIEnv"
    },
    {
     "referenced_type" : "_ZTIPKc"
    }
   ],
   "return_type" : "_ZTIP7_jclass",
   "source_file" : "libnativehelper/include_jni/jni.h"
  },
  {
   "function_name" : "_JNIEnv::GetJavaVM",
   "linker_set_key" : "_ZN7_JNIEnv9GetJavaVMEPP7_JavaVM",
   "parameters" :
   [
    {
     "is_this_ptr" : true,
     "referenced_type" : "_ZTIP7_JNIEnv"
    },
    {
     "referenced_type" : "_ZTIPP7_JavaVM"
    }
   ],
   "return_type" : "_ZTIi",
   "source_file" : "libnativehelper/include_jni/jni.h"
  },
  {
   "function_name" : "_JNIEnv::NewObject",
   "linker_set_key" : "_ZN7_JNIEnv9NewObjectEP7_jclassP10_jmethodIDz",
   "parameters" :
   [
    {
     "is_this_ptr" : true,
     "referenced_type" : "_ZTIP7_JNIEnv"
    },
    {
     "referenced_type" : "_ZTIP7_jclass"
    },
    {
     "referenced_type" : "_ZTIP10_jmethodID"
    }
   ],
   "return_type" : "_ZTIP8_jobject",
   "source_file" : "libnativehelper/include_jni/jni.h"
  },
  {
   "function_name" : "_JNIEnv::NewString",
   "linker_set_key" : "_ZN7_JNIEnv9NewStringEPKti",
   "parameters" :
   [
    {
     "is_this_ptr" : true,
     "referenced_type" : "_ZTIP7_JNIEnv"
    },
    {
     "referenced_type" : "_ZTIPKt"
    },
    {
     "referenced_type" : "_ZTIi"
    }
   ],
   "return_type" : "_ZTIP8_jstring",
   "source_file" : "libnativehelper/include_jni/jni.h"
  },
  {
   "function_name" : "_JavaVM::DestroyJavaVM",
   "linker_set_key" : "_ZN7_JavaVM13DestroyJavaVMEv",
   "parameters" :
   [
    {
     "is_this_ptr" : true,
     "referenced_type" : "_ZTIP7_JavaVM"
    }
   ],
   "return_type" : "_ZTIi",
   "source_file" : "libnativehelper/include_jni/jni.h"
  },
  {
   "function_name" : "_JavaVM::AttachCurrentThread",
   "linker_set_key" : "_ZN7_JavaVM19AttachCurrentThreadEPP7_JNIEnvPv",
   "parameters" :
   [
    {
     "is_this_ptr" : true,
     "referenced_type" : "_ZTIP7_JavaVM"
    },
    {
     "referenced_type" : "_ZTIPP7_JNIEnv"
    },
    {
     "referenced_type" : "_ZTIPv"
    }
   ],
   "return_type" : "_ZTIi",
   "source_file" : "libnativehelper/include_jni/jni.h"
  },
  {
   "function_name" : "_JavaVM::DetachCurrentThread",
   "linker_set_key" : "_ZN7_JavaVM19DetachCurrentThreadEv",
   "parameters" :
   [
    {
     "is_this_ptr" : true,
     "referenced_type" : "_ZTIP7_JavaVM"
    }
   ],
   "return_type" : "_ZTIi",
   "source_file" : "libnativehelper/include_jni/jni.h"
  },
  {
   "function_name" : "_JavaVM::AttachCurrentThreadAsDaemon",
   "linker_set_key" : "_ZN7_JavaVM27AttachCurrentThreadAsDaemonEPP7_JNIEnvPv",
   "parameters" :
   [
    {
     "is_this_ptr" : true,
     "referenced_type" : "_ZTIP7_JavaVM"
    },
    {
     "referenced_type" : "_ZTIPP7_JNIEnv"
    },
    {
     "referenced_type" : "_ZTIPv"
    }
   ],
   "return_type" : "_ZTIi",
   "source_file" : "libnativehelper/include_jni/jni.h"
  },
  {
   "function_name" : "_JavaVM::GetEnv",
   "linker_set_key" : "_ZN7_JavaVM6GetEnvEPPvi",
   "parameters" :
   [
    {
     "is_this_ptr" : true,
     "referenced_type" : "_ZTIP7_JavaVM"
    },
    {
     "referenced_type" : "_ZTIPPv"
    },
    {
     "referenced_type" : "_ZTIi"
    }
   ],
   "return_type" : "_ZTIi",
   "source_file" : "libnativehelper/include_jni/jni.h"
  },
  {
   "function_name" : "std::__1::__scalar_hash<std::__1::_PairT, 2>::operator()",
   "linker_set_key" : "_ZNKSt3__113__scalar_hashINS_6_PairTELj2EEclES1_",
   "parameters" :
   [
    {
     "is_this_ptr" : true,
     "referenced_type" : "_ZTIPKNSt3__113__scalar_hashINS_6_PairTELj2EEE"
    },
    {
     "referenced_type" : "_ZTINSt3__16_PairTE"
    }
   ],
   "return_type" : "_ZTIj",
   "source_file" : "external/libcxx/include/utility"
  },
  {
   "function_name" : "std::__1::__scalar_hash<double, 2>::operator()",
   "linker_set_key" : "_ZNKSt3__113__scalar_hashIdLj2EEclEd",
   "parameters" :
   [
    {
     "is_this_ptr" : true,
     "referenced_type" : "_ZTIPKNSt3__113__scalar_hashIdLj2EEE"
    },
    {
     "referenced_type" : "_ZTId"
    }
   ],
   "return_type" : "_ZTIj",
   "source_file" : "external/libcxx/include/utility"
  },
  {
   "function_name" : "std::__1::__scalar_hash<long double, 2>::operator()",
   "linker_set_key" : "_ZNKSt3__113__scalar_hashIeLj2EEclEe",
   "parameters" :
   [
    {
     "is_this_ptr" : true,
     "referenced_type" : "_ZTIPKNSt3__113__scalar_hashIeLj2EEE"
    },
    {
     "referenced_type" : "_ZTIe"
    }
   ],
   "return_type" : "_ZTIj",
   "source_file" : "external/libcxx/include/utility"
  },
  {
   "function_name" : "std::__1::__scalar_hash<float, 1>::operator()",
   "linker_set_key" : "_ZNKSt3__113__scalar_hashIfLj1EEclEf",
   "parameters" :
   [
    {
     "is_this_ptr" : true,
     "referenced_type" : "_ZTIPKNSt3__113__scalar_hashIfLj1EEE"
    },
    {
     "referenced_type" : "_ZTIf"
    }
   ],
   "return_type" : "_ZTIj",
   "source_file" : "external/libcxx/include/utility"
  },
  {
   "function_name" : "std::__1::hash<char32_t>::operator()",
   "linker_set_key" : "_ZNKSt3__14hashIDiEclEDi",
   "parameters" :
   [
    {
     "is_this_ptr" : true,
     "referenced_type" : "_ZTIPKNSt3__14hashIDiEE"
    },
    {
     "referenced_type" : "_ZTIDi"
    }
   ],
   "return_type" : "_ZTIj",
   "source_file" : "external/libcxx/include/utility"
  },
  {
   "function_name" : "std::__1::hash<nullptr_t>::operator()",
   "linker_set_key" : "_ZNKSt3__14hashIDnEclEDn",
   "parameters" :
   [
    {
     "is_this_ptr" : true,
     "referenced_type" : "_ZTIPKNSt3__14hashIDnEE"
    },
    {
     "referenced_type" : "_ZTIDn"
    }
   ],
   "return_type" : "_ZTIj",
   "source_file" : "external/libcxx/include/utility"
  },
  {
   "function_name" : "std::__1::hash<char16_t>::operator()",
   "linker_set_key" : "_ZNKSt3__14hashIDsEclEDs",
   "parameters" :
   [
    {
     "is_this_ptr" : true,
     "referenced_type" : "_ZTIPKNSt3__14hashIDsEE"
    },
    {
     "referenced_type" : "_ZTIDs"
    }
   ],
   "return_type" : "_ZTIj",
   "source_file" : "external/libcxx/include/utility"
  },
  {
   "function_name" : "std::__1::hash<signed char>::operator()",
   "linker_set_key" : "_ZNKSt3__14hashIaEclEa",
   "parameters" :
   [
    {
     "is_this_ptr" : true,
     "referenced_type" : "_ZTIPKNSt3__14hashIaEE"
    },
    {
     "referenced_type" : "_ZTIa"
    }
   ],
   "return_type" : "_ZTIj",
   "source_file" : "external/libcxx/include/utility"
  },
  {
   "function_name" : "std::__1::hash<bool>::operator()",
   "linker_set_key" : "_ZNKSt3__14hashIbEclEb",
   "parameters" :
   [
    {
     "is_this_ptr" : true,
     "referenced_type" : "_ZTIPKNSt3__14hashIbEE"
    },
    {
     "referenced_type" : "_ZTIb"
    }
   ],
   "return_type" : "_ZTIj",
   "source_file" : "external/libcxx/include/utility"
  },
  {
   "function_name" : "std::__1::hash<char>::operator()",
   "linker_set_key" : "_ZNKSt3__14hashIcEclEc",
   "parameters" :
   [
    {
     "is_this_ptr" : true,
     "referenced_type" : "_ZTIPKNSt3__14hashIcEE"
    },
    {
     "referenced_type" : "_ZTIc"
    }
   ],
   "return_type" : "_ZTIj",
   "source_file" : "external/libcxx/include/utility"
  },
  {
   "function_name" : "std::__1::hash<double>::operator()",
   "linker_set_key" : "_ZNKSt3__14hashIdEclEd",
   "parameters" :
   [
    {
     "is_this_ptr" : true,
     "referenced_type" : "_ZTIPKNSt3__14hashIdEE"
    },
    {
     "referenced_type" : "_ZTId"
    }
   ],
   "return_type" : "_ZTIj",
   "source_file" : "external/libcxx/include/utility"
  },
  {
   "function_name" : "std::__1::hash<long double>::operator()",
   "linker_set_key" : "_ZNKSt3__14hashIeEclEe",
   "parameters" :
   [
    {
     "is_this_ptr" : true,
     "referenced_type" : "_ZTIPKNSt3__14hashIeEE"
    },
    {
     "referenced_type" : "_ZTIe"
    }
   ],
   "return_type" : "_ZTIj",
   "source_file" : "external/libcxx/include/utility"
  },
  {
   "function_name" : "std::__1::hash<float>::operator()",
   "linker_set_key" : "_ZNKSt3__14hashIfEclEf",
   "parameters" :
   [
    {
     "is_this_ptr" : true,
     "referenced_type" : "_ZTIPKNSt3__14hashIfEE"
    },
    {
     "referenced_type" : "_ZTIf"
    }
   ],
   "return_type" : "_ZTIj",
   "source_file" : "external/libcxx/include/utility"
  },
  {
   "function_name" : "std::__1::hash<unsigned char>::operator()",
   "linker_set_key" : "_ZNKSt3__14hashIhEclEh",
   "parameters" :
   [
    {
     "is_this_ptr" : true,
     "referenced_type" : "_ZTIPKNSt3__14hashIhEE"
    },
    {
     "referenced_type" : "_ZTIh"
    }
   ],
   "return_type" : "_ZTIj",
   "source_file" : "external/libcxx/include/utility"
  },
  {
   "function_name" : "std::__1::hash<int>::operator()",
   "linker_set_key" : "_ZNKSt3__14hashIiEclEi",
   "parameters" :
   [
    {
     "is_this_ptr" : true,
     "referenced_type" : "_ZTIPKNSt3__14hashIiEE"
    },
    {
     "referenced_type" : "_ZTIi"
    }
   ],
   "return_type" : "_ZTIj",
   "source_file" : "external/libcxx/include/utility"
  },
  {
   "function_name" : "std::__1::hash<unsigned int>::operator()",
   "linker_set_key" : "_ZNKSt3__14hashIjEclEj",
   "parameters" :
   [
    {
     "is_this_ptr" : true,
     "referenced_type" : "_ZTIPKNSt3__14hashIjEE"
    },
    {
     "referenced_type" : "_ZTIj"
    }
   ],
   "return_type" : "_ZTIj",
   "source_file" : "external/libcxx/include/utility"
  },
  {
   "function_name" : "std::__1::hash<long>::operator()",
   "linker_set_key" : "_ZNKSt3__14hashIlEclEl",
   "parameters" :
   [
    {
     "is_this_ptr" : true,
     "referenced_type" : "_ZTIPKNSt3__14hashIlEE"
    },
    {
     "referenced_type" : "_ZTIl"
    }
   ],
   "return_type" : "_ZTIj",
   "source_file" : "external/libcxx/include/utility"
  },
  {
   "function_name" : "std::__1::hash<unsigned long>::operator()",
   "linker_set_key" : "_ZNKSt3__14hashImEclEm",
   "parameters" :
   [
    {
     "is_this_ptr" : true,
     "referenced_type" : "_ZTIPKNSt3__14hashImEE"
    },
    {
     "referenced_type" : "_ZTIm"
    }
   ],
   "return_type" : "_ZTIj",
   "source_file" : "external/libcxx/include/utility"
  },
  {
   "function_name" : "std::__1::hash<short>::operator()",
   "linker_set_key" : "_ZNKSt3__14hashIsEclEs",
   "parameters" :
   [
    {
     "is_this_ptr" : true,
     "referenced_type" : "_ZTIPKNSt3__14hashIsEE"
    },
    {
     "referenced_type" : "_ZTIs"
    }
   ],
   "return_type" : "_ZTIj",
   "source_file" : "external/libcxx/include/utility"
  },
  {
   "function_name" : "std::__1::hash<unsigned short>::operator()",
   "linker_set_key" : "_ZNKSt3__14hashItEclEt",
   "parameters" :
   [
    {
     "is_this_ptr" : true,
     "referenced_type" : "_ZTIPKNSt3__14hashItEE"
    },
    {
     "referenced_type" : "_ZTIt"
    }
   ],
   "return_type" : "_ZTIj",
   "source_file" : "external/libcxx/include/utility"
  },
  {
   "function_name" : "std::__1::hash<wchar_t>::operator()",
   "linker_set_key" : "_ZNKSt3__14hashIwEclEw",
   "parameters" :
   [
    {
     "is_this_ptr" : true,
     "referenced_type" : "_ZTIPKNSt3__14hashIwEE"
    },
    {
     "referenced_type" : "_ZTIw"
    }
   ],
   "return_type" : "_ZTIj",
   "source_file" : "external/libcxx/include/utility"
  },
  {
   "function_name" : "std::__1::__loadword",
   "linker_set_key" : "_ZNSt3__110__loadwordIjEET_PKv",
   "parameters" :
   [
    {
     "referenced_type" : "_ZTIPKv"
    }
   ],
   "return_type" : "_ZTIj",
   "source_file" : "external/libcxx/include/utility",
   "template_args" : [ "_ZTIj" ]
  },
  {
   "function_name" : "std::__1::in_place_t::in_place_t",
   "linker_set_key" : "_ZNSt3__110in_place_tC1Ev",
   "parameters" :
   [
    {
     "is_this_ptr" : true,
     "referenced_type" : "_ZTIPNSt3__110in_place_tE"
    }
   ],
   "return_type" : "_ZTIv",
   "source_file" : "external/libcxx/include/utility"
  },
  {
   "function_name" : "std::__1::in_place_t::in_place_t",
   "linker_set_key" : "_ZNSt3__110in_place_tC2Ev",
   "parameters" :
   [
    {
     "is_this_ptr" : true,
     "referenced_type" : "_ZTIPNSt3__110in_place_tE"
    }
   ],
   "return_type" : "_ZTIv",
   "source_file" : "external/libcxx/include/utility"
  },
  {
   "function_name" : "std::__1::__hash_combine",
   "linker_set_key" : "_ZNSt3__114__hash_combineEjj",
   "parameters" :
   [
    {
     "referenced_type" : "_ZTIj"
    },
    {
     "referenced_type" : "_ZTIj"
    }
   ],
   "return_type" : "_ZTIj",
   "source_file" : "external/libcxx/include/utility"
  },
  {
   "function_name" : "std::__1::__sfinae_ctor_base<false, false>::__sfinae_ctor_base",
   "linker_set_key" : "_ZNSt3__118__sfinae_ctor_baseILb0ELb0EEC1Ev",
   "parameters" :
   [
    {
     "is_this_ptr" : true,
     "referenced_type" : "_ZTIPNSt3__118__sfinae_ctor_baseILb0ELb0EEE"
    }
   ],
   "return_type" : "_ZTIv",
   "source_file" : "external/libcxx/include/__tuple"
  },
  {
   "function_name" : "std::__1::__sfinae_ctor_base<false, false>::__sfinae_ctor_base",
   "linker_set_key" : "_ZNSt3__118__sfinae_ctor_baseILb0ELb0EEC2Ev",
   "parameters" :
   [
    {
     "is_this_ptr" : true,
     "referenced_type" : "_ZTIPNSt3__118__sfinae_ctor_baseILb0ELb0EEE"
    }
   ],
   "return_type" : "_ZTIv",
   "source_file" : "external/libcxx/include/__tuple"
  },
  {
   "function_name" : "std::__1::__sfinae_ctor_base<false, false>::operator=",
   "linker_set_key" : "_ZNSt3__118__sfinae_ctor_baseILb0ELb0EEaSEOS1_",
   "parameters" :
   [
    {
     "is_this_ptr" : true,
     "referenced_type" : "_ZTIPNSt3__118__sfinae_ctor_baseILb0ELb0EEE"
    },
    {
     "referenced_type" : "_ZTIONSt3__118__sfinae_ctor_baseILb0ELb0EEE"
    }
   ],
   "return_type" : "_ZTIRNSt3__118__sfinae_ctor_baseILb0ELb0EEE",
   "source_file" : "external/libcxx/include/__tuple"
  },
  {
   "function_name" : "std::__1::__sfinae_ctor_base<false, false>::operator=",
   "linker_set_key" : "_ZNSt3__118__sfinae_ctor_baseILb0ELb0EEaSERKS1_",
   "parameters" :
   [
    {
     "is_this_ptr" : true,
     "referenced_type" : "_ZTIPNSt3__118__sfinae_ctor_baseILb0ELb0EEE"
    },
    {
     "referenced_type" : "_ZTIRKNSt3__118__sfinae_ctor_baseILb0ELb0EEE"
    }
   ],
   "return_type" : "_ZTIRNSt3__118__sfinae_ctor_baseILb0ELb0EEE",
   "source_file" : "external/libcxx/include/__tuple"
  },
  {
   "function_name" : "std::__1::__sfinae_ctor_base<false, true>::__sfinae_ctor_base",
   "linker_set_key" : "_ZNSt3__118__sfinae_ctor_baseILb0ELb1EEC1EOS1_",
   "parameters" :
   [
    {
     "is_this_ptr" : true,
     "referenced_type" : "_ZTIPNSt3__118__sfinae_ctor_baseILb0ELb1EEE"
    },
    {
     "referenced_type" : "_ZTIONSt3__118__sfinae_ctor_baseILb0ELb1EEE"
    }
   ],
   "return_type" : "_ZTIv",
   "source_file" : "external/libcxx/include/__tuple"
  },
  {
   "function_name" : "std::__1::__sfinae_ctor_base<false, true>::__sfinae_ctor_base",
   "linker_set_key" : "_ZNSt3__118__sfinae_ctor_baseILb0ELb1EEC1Ev",
   "parameters" :
   [
    {
     "is_this_ptr" : true,
     "referenced_type" : "_ZTIPNSt3__118__sfinae_ctor_baseILb0ELb1EEE"
    }
   ],
   "return_type" : "_ZTIv",
   "source_file" : "external/libcxx/include/__tuple"
  },
  {
   "function_name" : "std::__1::__sfinae_ctor_base<false, true>::__sfinae_ctor_base",
   "linker_set_key" : "_ZNSt3__118__sfinae_ctor_baseILb0ELb1EEC2EOS1_",
   "parameters" :
   [
    {
     "is_this_ptr" : true,
     "referenced_type" : "_ZTIPNSt3__118__sfinae_ctor_baseILb0ELb1EEE"
    },
    {
     "referenced_type" : "_ZTIONSt3__118__sfinae_ctor_baseILb0ELb1EEE"
    }
   ],
   "return_type" : "_ZTIv",
   "source_file" : "external/libcxx/include/__tuple"
  },
  {
   "function_name" : "std::__1::__sfinae_ctor_base<false, true>::__sfinae_ctor_base",
   "linker_set_key" : "_ZNSt3__118__sfinae_ctor_baseILb0ELb1EEC2Ev",
   "parameters" :
   [
    {
     "is_this_ptr" : true,
     "referenced_type" : "_ZTIPNSt3__118__sfinae_ctor_baseILb0ELb1EEE"
    }
   ],
   "return_type" : "_ZTIv",
   "source_file" : "external/libcxx/include/__tuple"
  },
  {
   "function_name" : "std::__1::__sfinae_ctor_base<false, true>::operator=",
   "linker_set_key" : "_ZNSt3__118__sfinae_ctor_baseILb0ELb1EEaSEOS1_",
   "parameters" :
   [
    {
     "is_this_ptr" : true,
     "referenced_type" : "_ZTIPNSt3__118__sfinae_ctor_baseILb0ELb1EEE"
    },
    {
     "referenced_type" : "_ZTIONSt3__118__sfinae_ctor_baseILb0ELb1EEE"
    }
   ],
   "return_type" : "_ZTIRNSt3__118__sfinae_ctor_baseILb0ELb1EEE",
   "source_file" : "external/libcxx/include/__tuple"
  },
  {
   "function_name" : "std::__1::__sfinae_ctor_base<false, true>::operator=",
   "linker_set_key" : "_ZNSt3__118__sfinae_ctor_baseILb0ELb1EEaSERKS1_",
   "parameters" :
   [
    {
     "is_this_ptr" : true,
     "referenced_type" : "_ZTIPNSt3__118__sfinae_ctor_baseILb0ELb1EEE"
    },
    {
     "referenced_type" : "_ZTIRKNSt3__118__sfinae_ctor_baseILb0ELb1EEE"
    }
   ],
   "return_type" : "_ZTIRNSt3__118__sfinae_ctor_baseILb0ELb1EEE",
   "source_file" : "external/libcxx/include/__tuple"
  },
  {
   "function_name" : "std::__1::__sfinae_ctor_base<true, false>::__sfinae_ctor_base",
   "linker_set_key" : "_ZNSt3__118__sfinae_ctor_baseILb1ELb0EEC1ERKS1_",
   "parameters" :
   [
    {
     "is_this_ptr" : true,
     "referenced_type" : "_ZTIPNSt3__118__sfinae_ctor_baseILb1ELb0EEE"
    },
    {
     "referenced_type" : "_ZTIRKNSt3__118__sfinae_ctor_baseILb1ELb0EEE"
    }
   ],
   "return_type" : "_ZTIv",
   "source_file" : "external/libcxx/include/__tuple"
  },
  {
   "function_name" : "std::__1::__sfinae_ctor_base<true, false>::__sfinae_ctor_base",
   "linker_set_key" : "_ZNSt3__118__sfinae_ctor_baseILb1ELb0EEC1Ev",
   "parameters" :
   [
    {
     "is_this_ptr" : true,
     "referenced_type" : "_ZTIPNSt3__118__sfinae_ctor_baseILb1ELb0EEE"
    }
   ],
   "return_type" : "_ZTIv",
   "source_file" : "external/libcxx/include/__tuple"
  },
  {
   "function_name" : "std::__1::__sfinae_ctor_base<true, false>::__sfinae_ctor_base",
   "linker_set_key" : "_ZNSt3__118__sfinae_ctor_baseILb1ELb0EEC2ERKS1_",
   "parameters" :
   [
    {
     "is_this_ptr" : true,
     "referenced_type" : "_ZTIPNSt3__118__sfinae_ctor_baseILb1ELb0EEE"
    },
    {
     "referenced_type" : "_ZTIRKNSt3__118__sfinae_ctor_baseILb1ELb0EEE"
    }
   ],
   "return_type" : "_ZTIv",
   "source_file" : "external/libcxx/include/__tuple"
  },
  {
   "function_name" : "std::__1::__sfinae_ctor_base<true, false>::__sfinae_ctor_base",
   "linker_set_key" : "_ZNSt3__118__sfinae_ctor_baseILb1ELb0EEC2Ev",
   "parameters" :
   [
    {
     "is_this_ptr" : true,
     "referenced_type" : "_ZTIPNSt3__118__sfinae_ctor_baseILb1ELb0EEE"
    }
   ],
   "return_type" : "_ZTIv",
   "source_file" : "external/libcxx/include/__tuple"
  },
  {
   "function_name" : "std::__1::__sfinae_ctor_base<true, false>::operator=",
   "linker_set_key" : "_ZNSt3__118__sfinae_ctor_baseILb1ELb0EEaSEOS1_",
   "parameters" :
   [
    {
     "is_this_ptr" : true,
     "referenced_type" : "_ZTIPNSt3__118__sfinae_ctor_baseILb1ELb0EEE"
    },
    {
     "referenced_type" : "_ZTIONSt3__118__sfinae_ctor_baseILb1ELb0EEE"
    }
   ],
   "return_type" : "_ZTIRNSt3__118__sfinae_ctor_baseILb1ELb0EEE",
   "source_file" : "external/libcxx/include/__tuple"
  },
  {
   "function_name" : "std::__1::__sfinae_ctor_base<true, false>::operator=",
   "linker_set_key" : "_ZNSt3__118__sfinae_ctor_baseILb1ELb0EEaSERKS1_",
   "parameters" :
   [
    {
     "is_this_ptr" : true,
     "referenced_type" : "_ZTIPNSt3__118__sfinae_ctor_baseILb1ELb0EEE"
    },
    {
     "referenced_type" : "_ZTIRKNSt3__118__sfinae_ctor_baseILb1ELb0EEE"
    }
   ],
   "return_type" : "_ZTIRNSt3__118__sfinae_ctor_baseILb1ELb0EEE",
   "source_file" : "external/libcxx/include/__tuple"
  },
  {
   "function_name" : "std::__1::__libcpp_debug_info::__libcpp_debug_info",
   "linker_set_key" : "_ZNSt3__119__libcpp_debug_infoC1EPKciS2_S2_",
   "parameters" :
   [
    {
     "is_this_ptr" : true,
     "referenced_type" : "_ZTIPNSt3__119__libcpp_debug_infoE"
    },
    {
     "referenced_type" : "_ZTIPKc"
    },
    {
     "referenced_type" : "_ZTIi"
    },
    {
     "referenced_type" : "_ZTIPKc"
    },
    {
     "referenced_type" : "_ZTIPKc"
    }
   ],
   "return_type" : "_ZTIv",
   "source_file" : "external/libcxx/include/__debug"
  },
  {
   "function_name" : "std::__1::__libcpp_debug_info::__libcpp_debug_info",
   "linker_set_key" : "_ZNSt3__119__libcpp_debug_infoC1Ev",
   "parameters" :
   [
    {
     "is_this_ptr" : true,
     "referenced_type" : "_ZTIPNSt3__119__libcpp_debug_infoE"
    }
   ],
   "return_type" : "_ZTIv",
   "source_file" : "external/libcxx/include/__debug"
  },
  {
   "function_name" : "std::__1::__libcpp_debug_info::__libcpp_debug_info",
   "linker_set_key" : "_ZNSt3__119__libcpp_debug_infoC2EPKciS2_S2_",
   "parameters" :
   [
    {
     "is_this_ptr" : true,
     "referenced_type" : "_ZTIPNSt3__119__libcpp_debug_infoE"
    },
    {
     "referenced_type" : "_ZTIPKc"
    },
    {
     "referenced_type" : "_ZTIi"
    },
    {
     "referenced_type" : "_ZTIPKc"
    },
    {
     "referenced_type" : "_ZTIPKc"
    }
   ],
   "return_type" : "_ZTIv",
   "source_file" : "external/libcxx/include/__debug"
  },
  {
   "function_name" : "std::__1::__libcpp_debug_info::__libcpp_debug_info",
   "linker_set_key" : "_ZNSt3__119__libcpp_debug_infoC2Ev",
   "parameters" :
   [
    {
     "is_this_ptr" : true,
     "referenced_type" : "_ZTIPNSt3__119__libcpp_debug_infoE"
    }
   ],
   "return_type" : "_ZTIv",
   "source_file" : "external/libcxx/include/__debug"
  },
  {
   "function_name" : "std::__1::__sfinae_assign_base<false, false>::__sfinae_assign_base",
   "linker_set_key" : "_ZNSt3__120__sfinae_assign_baseILb0ELb0EEC1EOS1_",
   "parameters" :
   [
    {
     "is_this_ptr" : true,
     "referenced_type" : "_ZTIPNSt3__120__sfinae_assign_baseILb0ELb0EEE"
    },
    {
     "referenced_type" : "_ZTIONSt3__120__sfinae_assign_baseILb0ELb0EEE"
    }
   ],
   "return_type" : "_ZTIv",
   "source_file" : "external/libcxx/include/__tuple"
  },
  {
   "function_name" : "std::__1::__sfinae_assign_base<false, false>::__sfinae_assign_base",
   "linker_set_key" : "_ZNSt3__120__sfinae_assign_baseILb0ELb0EEC1ERKS1_",
   "parameters" :
   [
    {
     "is_this_ptr" : true,
     "referenced_type" : "_ZTIPNSt3__120__sfinae_assign_baseILb0ELb0EEE"
    },
    {
     "referenced_type" : "_ZTIRKNSt3__120__sfinae_assign_baseILb0ELb0EEE"
    }
   ],
   "return_type" : "_ZTIv",
   "source_file" : "external/libcxx/include/__tuple"
  },
  {
   "function_name" : "std::__1::__sfinae_assign_base<false, false>::__sfinae_assign_base",
   "linker_set_key" : "_ZNSt3__120__sfinae_assign_baseILb0ELb0EEC1Ev",
   "parameters" :
   [
    {
     "is_this_ptr" : true,
     "referenced_type" : "_ZTIPNSt3__120__sfinae_assign_baseILb0ELb0EEE"
    }
   ],
   "return_type" : "_ZTIv",
   "source_file" : "external/libcxx/include/__tuple"
  },
  {
   "function_name" : "std::__1::__sfinae_assign_base<false, false>::__sfinae_assign_base",
   "linker_set_key" : "_ZNSt3__120__sfinae_assign_baseILb0ELb0EEC2EOS1_",
   "parameters" :
   [
    {
     "is_this_ptr" : true,
     "referenced_type" : "_ZTIPNSt3__120__sfinae_assign_baseILb0ELb0EEE"
    },
    {
     "referenced_type" : "_ZTIONSt3__120__sfinae_assign_baseILb0ELb0EEE"
    }
   ],
   "return_type" : "_ZTIv",
   "source_file" : "external/libcxx/include/__tuple"
  },
  {
   "function_name" : "std::__1::__sfinae_assign_base<false, false>::__sfinae_assign_base",
   "linker_set_key" : "_ZNSt3__120__sfinae_assign_baseILb0ELb0EEC2ERKS1_",
   "parameters" :
   [
    {
     "is_this_ptr" : true,
     "referenced_type" : "_ZTIPNSt3__120__sfinae_assign_baseILb0ELb0EEE"
    },
    {
     "referenced_type" : "_ZTIRKNSt3__120__sfinae_assign_baseILb0ELb0EEE"
    }
   ],
   "return_type" : "_ZTIv",
   "source_file" : "external/libcxx/include/__tuple"
  },
  {
   "function_name" : "std::__1::__sfinae_assign_base<false, false>::__sfinae_assign_base",
   "linker_set_key" : "_ZNSt3__120__sfinae_assign_baseILb0ELb0EEC2Ev",
   "parameters" :
   [
    {
     "is_this_ptr" : true,
     "referenced_type" : "_ZTIPNSt3__120__sfinae_assign_baseILb0ELb0EEE"
    }
   ],
   "return_type" : "_ZTIv",
   "source_file" : "external/libcxx/include/__tuple"
  },
  {
   "function_name" : "std::__1::__sfinae_assign_base<false, true>::__sfinae_assign_base",
   "linker_set_key" : "_ZNSt3__120__sfinae_assign_baseILb0ELb1EEC1EOS1_",
   "parameters" :
   [
    {
     "is_this_ptr" : true,
     "referenced_type" : "_ZTIPNSt3__120__sfinae_assign_baseILb0ELb1EEE"
    },
    {
     "referenced_type" : "_ZTIONSt3__120__sfinae_assign_baseILb0ELb1EEE"
    }
   ],
   "return_type" : "_ZTIv",
   "source_file" : "external/libcxx/include/__tuple"
  },
  {
   "function_name" : "std::__1::__sfinae_assign_base<false, true>::__sfinae_assign_base",
   "linker_set_key" : "_ZNSt3__120__sfinae_assign_baseILb0ELb1EEC1ERKS1_",
   "parameters" :
   [
    {
     "is_this_ptr" : true,
     "referenced_type" : "_ZTIPNSt3__120__sfinae_assign_baseILb0ELb1EEE"
    },
    {
     "referenced_type" : "_ZTIRKNSt3__120__sfinae_assign_baseILb0ELb1EEE"
    }
   ],
   "return_type" : "_ZTIv",
   "source_file" : "external/libcxx/include/__tuple"
  },
  {
   "function_name" : "std::__1::__sfinae_assign_base<false, true>::__sfinae_assign_base",
   "linker_set_key" : "_ZNSt3__120__sfinae_assign_baseILb0ELb1EEC1Ev",
   "parameters" :
   [
    {
     "is_this_ptr" : true,
     "referenced_type" : "_ZTIPNSt3__120__sfinae_assign_baseILb0ELb1EEE"
    }
   ],
   "return_type" : "_ZTIv",
   "source_file" : "external/libcxx/include/__tuple"
  },
  {
   "function_name" : "std::__1::__sfinae_assign_base<false, true>::__sfinae_assign_base",
   "linker_set_key" : "_ZNSt3__120__sfinae_assign_baseILb0ELb1EEC2EOS1_",
   "parameters" :
   [
    {
     "is_this_ptr" : true,
     "referenced_type" : "_ZTIPNSt3__120__sfinae_assign_baseILb0ELb1EEE"
    },
    {
     "referenced_type" : "_ZTIONSt3__120__sfinae_assign_baseILb0ELb1EEE"
    }
   ],
   "return_type" : "_ZTIv",
   "source_file" : "external/libcxx/include/__tuple"
  },
  {
   "function_name" : "std::__1::__sfinae_assign_base<false, true>::__sfinae_assign_base",
   "linker_set_key" : "_ZNSt3__120__sfinae_assign_baseILb0ELb1EEC2ERKS1_",
   "parameters" :
   [
    {
     "is_this_ptr" : true,
     "referenced_type" : "_ZTIPNSt3__120__sfinae_assign_baseILb0ELb1EEE"
    },
    {
     "referenced_type" : "_ZTIRKNSt3__120__sfinae_assign_baseILb0ELb1EEE"
    }
   ],
   "return_type" : "_ZTIv",
   "source_file" : "external/libcxx/include/__tuple"
  },
  {
   "function_name" : "std::__1::__sfinae_assign_base<false, true>::__sfinae_assign_base",
   "linker_set_key" : "_ZNSt3__120__sfinae_assign_baseILb0ELb1EEC2Ev",
   "parameters" :
   [
    {
     "is_this_ptr" : true,
     "referenced_type" : "_ZTIPNSt3__120__sfinae_assign_baseILb0ELb1EEE"
    }
   ],
   "return_type" : "_ZTIv",
   "source_file" : "external/libcxx/include/__tuple"
  },
  {
   "function_name" : "std::__1::__sfinae_assign_base<false, true>::operator=",
   "linker_set_key" : "_ZNSt3__120__sfinae_assign_baseILb0ELb1EEaSEOS1_",
   "parameters" :
   [
    {
     "is_this_ptr" : true,
     "referenced_type" : "_ZTIPNSt3__120__sfinae_assign_baseILb0ELb1EEE"
    },
    {
     "referenced_type" : "_ZTIONSt3__120__sfinae_assign_baseILb0ELb1EEE"
    }
   ],
   "return_type" : "_ZTIRNSt3__120__sfinae_assign_baseILb0ELb1EEE",
   "source_file" : "external/libcxx/include/__tuple"
  },
  {
   "function_name" : "std::__1::__sfinae_assign_base<true, false>::__sfinae_assign_base",
   "linker_set_key" : "_ZNSt3__120__sfinae_assign_baseILb1ELb0EEC1EOS1_",
   "parameters" :
   [
    {
     "is_this_ptr" : true,
     "referenced_type" : "_ZTIPNSt3__120__sfinae_assign_baseILb1ELb0EEE"
    },
    {
     "referenced_type" : "_ZTIONSt3__120__sfinae_assign_baseILb1ELb0EEE"
    }
   ],
   "return_type" : "_ZTIv",
   "source_file" : "external/libcxx/include/__tuple"
  },
  {
   "function_name" : "std::__1::__sfinae_assign_base<true, false>::__sfinae_assign_base",
   "linker_set_key" : "_ZNSt3__120__sfinae_assign_baseILb1ELb0EEC1ERKS1_",
   "parameters" :
   [
    {
     "is_this_ptr" : true,
     "referenced_type" : "_ZTIPNSt3__120__sfinae_assign_baseILb1ELb0EEE"
    },
    {
     "referenced_type" : "_ZTIRKNSt3__120__sfinae_assign_baseILb1ELb0EEE"
    }
   ],
   "return_type" : "_ZTIv",
   "source_file" : "external/libcxx/include/__tuple"
  },
  {
   "function_name" : "std::__1::__sfinae_assign_base<true, false>::__sfinae_assign_base",
   "linker_set_key" : "_ZNSt3__120__sfinae_assign_baseILb1ELb0EEC1Ev",
   "parameters" :
   [
    {
     "is_this_ptr" : true,
     "referenced_type" : "_ZTIPNSt3__120__sfinae_assign_baseILb1ELb0EEE"
    }
   ],
   "return_type" : "_ZTIv",
   "source_file" : "external/libcxx/include/__tuple"
  },
  {
   "function_name" : "std::__1::__sfinae_assign_base<true, false>::__sfinae_assign_base",
   "linker_set_key" : "_ZNSt3__120__sfinae_assign_baseILb1ELb0EEC2EOS1_",
   "parameters" :
   [
    {
     "is_this_ptr" : true,
     "referenced_type" : "_ZTIPNSt3__120__sfinae_assign_baseILb1ELb0EEE"
    },
    {
     "referenced_type" : "_ZTIONSt3__120__sfinae_assign_baseILb1ELb0EEE"
    }
   ],
   "return_type" : "_ZTIv",
   "source_file" : "external/libcxx/include/__tuple"
  },
  {
   "function_name" : "std::__1::__sfinae_assign_base<true, false>::__sfinae_assign_base",
   "linker_set_key" : "_ZNSt3__120__sfinae_assign_baseILb1ELb0EEC2ERKS1_",
   "parameters" :
   [
    {
     "is_this_ptr" : true,
     "referenced_type" : "_ZTIPNSt3__120__sfinae_assign_baseILb1ELb0EEE"
    },
    {
     "referenced_type" : "_ZTIRKNSt3__120__sfinae_assign_baseILb1ELb0EEE"
    }
   ],
   "return_type" : "_ZTIv",
   "source_file" : "external/libcxx/include/__tuple"
  },
  {
   "function_name" : "std::__1::__sfinae_assign_base<true, false>::__sfinae_assign_base",
   "linker_set_key" : "_ZNSt3__120__sfinae_assign_baseILb1ELb0EEC2Ev",
   "parameters" :
   [
    {
     "is_this_ptr" : true,
     "referenced_type" : "_ZTIPNSt3__120__sfinae_assign_baseILb1ELb0EEE"
    }
   ],
   "return_type" : "_ZTIv",
   "source_file" : "external/libcxx/include/__tuple"
  },
  {
   "function_name" : "std::__1::__sfinae_assign_base<true, false>::operator=",
   "linker_set_key" : "_ZNSt3__120__sfinae_assign_baseILb1ELb0EEaSERKS1_",
   "parameters" :
   [
    {
     "is_this_ptr" : true,
     "referenced_type" : "_ZTIPNSt3__120__sfinae_assign_baseILb1ELb0EEE"
    },
    {
     "referenced_type" : "_ZTIRKNSt3__120__sfinae_assign_baseILb1ELb0EEE"
    }
   ],
   "return_type" : "_ZTIRNSt3__120__sfinae_assign_baseILb1ELb0EEE",
   "source_file" : "external/libcxx/include/__tuple"
  },
  {
   "function_name" : "std::__1::__convert_to_integral",
   "linker_set_key" : "_ZNSt3__121__convert_to_integralEi",
   "parameters" :
   [
    {
     "referenced_type" : "_ZTIi"
    }
   ],
   "return_type" : "_ZTIi",
   "source_file" : "external/libcxx/include/type_traits"
  },
  {
   "function_name" : "std::__1::__convert_to_integral",
   "linker_set_key" : "_ZNSt3__121__convert_to_integralEj",
   "parameters" :
   [
    {
     "referenced_type" : "_ZTIj"
    }
   ],
   "return_type" : "_ZTIj",
   "source_file" : "external/libcxx/include/type_traits"
  },
  {
   "function_name" : "std::__1::__convert_to_integral",
   "linker_set_key" : "_ZNSt3__121__convert_to_integralEl",
   "parameters" :
   [
    {
     "referenced_type" : "_ZTIl"
    }
   ],
   "return_type" : "_ZTIl",
   "source_file" : "external/libcxx/include/type_traits"
  },
  {
   "function_name" : "std::__1::__convert_to_integral",
   "linker_set_key" : "_ZNSt3__121__convert_to_integralEm",
   "parameters" :
   [
    {
     "referenced_type" : "_ZTIm"
    }
   ],
   "return_type" : "_ZTIm",
   "source_file" : "external/libcxx/include/type_traits"
  },
  {
   "function_name" : "std::__1::__convert_to_integral",
   "linker_set_key" : "_ZNSt3__121__convert_to_integralEx",
   "parameters" :
   [
    {
     "referenced_type" : "_ZTIx"
    }
   ],
   "return_type" : "_ZTIx",
   "source_file" : "external/libcxx/include/type_traits"
  },
  {
   "function_name" : "std::__1::__convert_to_integral",
   "linker_set_key" : "_ZNSt3__121__convert_to_integralEy",
   "parameters" :
   [
    {
     "referenced_type" : "_ZTIy"
    }
   ],
   "return_type" : "_ZTIy",
   "source_file" : "external/libcxx/include/type_traits"
  },
  {
   "function_name" : "std::__1::__murmur2_or_cityhash<unsigned int, 32>::operator()",
   "linker_set_key" : "_ZNSt3__121__murmur2_or_cityhashIjLj32EEclEPKvj",
   "parameters" :
   [
    {
     "is_this_ptr" : true,
     "referenced_type" : "_ZTIPNSt3__121__murmur2_or_cityhashIjLj32EEE"
    },
    {
     "referenced_type" : "_ZTIPKv"
    },
    {
     "referenced_type" : "_ZTIj"
    }
   ],
   "return_type" : "_ZTIj",
   "source_file" : "external/libcxx/include/utility"
  },
  {
   "function_name" : "std::operator&=",
   "linker_set_key" : "_ZStaNRSt4byteS_",
   "parameters" :
   [
    {
     "referenced_type" : "_ZTIRSt4byte"
    },
    {
     "referenced_type" : "_ZTISt4byte"
    }
   ],
   "return_type" : "_ZTIRSt4byte",
   "source_file" : "external/libcxx/include/cstddef"
  },
  {
   "function_name" : "std::operator&",
   "linker_set_key" : "_ZStanSt4byteS_",
   "parameters" :
   [
    {
     "referenced_type" : "_ZTISt4byte"
    },
    {
     "referenced_type" : "_ZTISt4byte"
    }
   ],
   "return_type" : "_ZTISt4byte",
   "source_file" : "external/libcxx/include/cstddef"
  },
  {
   "function_name" : "std::operator~",
   "linker_set_key" : "_ZStcoSt4byte",
   "parameters" :
   [
    {
     "referenced_type" : "_ZTISt4byte"
    }
   ],
   "return_type" : "_ZTISt4byte",
   "source_file" : "external/libcxx/include/cstddef"
  },
  {
   "function_name" : "std::operator^=",
   "linker_set_key" : "_ZSteORSt4byteS_",
   "parameters" :
   [
    {
     "referenced_type" : "_ZTIRSt4byte"
    },
    {
     "referenced_type" : "_ZTISt4byte"
    }
   ],
   "return_type" : "_ZTIRSt4byte",
   "source_file" : "external/libcxx/include/cstddef"
  },
  {
   "function_name" : "std::operator^",
   "linker_set_key" : "_ZSteoSt4byteS_",
   "parameters" :
   [
    {
     "referenced_type" : "_ZTISt4byte"
    },
    {
     "referenced_type" : "_ZTISt4byte"
    }
   ],
   "return_type" : "_ZTISt4byte",
   "source_file" : "external/libcxx/include/cstddef"
  },
  {
   "function_name" : "std::operator|=",
   "linker_set_key" : "_ZStoRRSt4byteS_",
   "parameters" :
   [
    {
     "referenced_type" : "_ZTIRSt4byte"
    },
    {
     "referenced_type" : "_ZTISt4byte"
    }
   ],
   "return_type" : "_ZTIRSt4byte",
   "source_file" : "external/libcxx/include/cstddef"
  },
  {
   "function_name" : "std::operator|",
   "linker_set_key" : "_ZStorSt4byteS_",
   "parameters" :
   [
    {
     "referenced_type" : "_ZTISt4byte"
    },
    {
     "referenced_type" : "_ZTISt4byte"
    }
   ],
   "return_type" : "_ZTISt4byte",
   "source_file" : "external/libcxx/include/cstddef"
  }
 ],
 "global_vars" :
 [
  {
   "linker_set_key" : "_ZNSt3__110is_array_vE",
   "name" : "std::__1::is_array_v",
   "referenced_type" : "_ZTIKb",
   "source_file" : "external/libcxx/include/type_traits"
  },
  {
   "linker_set_key" : "_ZNSt3__110is_class_vE",
   "name" : "std::__1::is_class_v",
   "referenced_type" : "_ZTIKb",
   "source_file" : "external/libcxx/include/type_traits"
  },
  {
   "linker_set_key" : "_ZNSt3__110is_const_vE",
   "name" : "std::__1::is_const_v",
   "referenced_type" : "_ZTIKb",
   "source_file" : "external/libcxx/include/type_traits"
  },
  {
   "linker_set_key" : "_ZNSt3__110is_empty_vE",
   "name" : "std::__1::is_empty_v",
   "referenced_type" : "_ZTIKb",
   "source_file" : "external/libcxx/include/type_traits"
  },
  {
   "linker_set_key" : "_ZNSt3__110is_final_vE",
   "name" : "std::__1::is_final_v",
   "referenced_type" : "_ZTIKb",
   "source_file" : "external/libcxx/include/type_traits"
  },
  {
   "linker_set_key" : "_ZNSt3__110is_union_vE",
   "name" : "std::__1::is_union_v",
   "referenced_type" : "_ZTIKb",
   "source_file" : "external/libcxx/include/type_traits"
  },
  {
   "linker_set_key" : "_ZNSt3__110negation_vE",
   "name" : "std::__1::negation_v",
   "referenced_type" : "_ZTIKb",
   "source_file" : "external/libcxx/include/type_traits"
  },
  {
   "linker_set_key" : "_ZNSt3__111is_object_vE",
   "name" : "std::__1::is_object_v",
   "referenced_type" : "_ZTIKb",
   "source_file" : "external/libcxx/include/type_traits"
  },
  {
   "linker_set_key" : "_ZNSt3__111is_scalar_vE",
   "name" : "std::__1::is_scalar_v",
   "referenced_type" : "_ZTIKb",
   "source_file" : "external/libcxx/include/type_traits"
  },
  {
   "linker_set_key" : "_ZNSt3__111is_signed_vE",
   "name" : "std::__1::is_signed_v",
   "referenced_type" : "_ZTIKb",
   "source_file" : "external/libcxx/include/type_traits"
  },
  {
   "linker_set_key" : "_ZNSt3__112__align_type5valueE",
   "name" : "std::__1::__align_type::value",
   "referenced_type" : "_ZTIKj",
   "source_file" : "external/libcxx/include/type_traits"
  },
  {
   "linker_set_key" : "_ZNSt3__112__static_maxIXT_EJEE5valueE",
   "name" : "std::__1::__static_max<_I0>::value",
   "referenced_type" : "_ZTIKj",
   "source_file" : "external/libcxx/include/type_traits"
  },
  {
   "linker_set_key" : "_ZNSt3__112__static_maxIXT_EJXT0_EXspT1_EEE5valueE",
   "name" : "std::__1::__static_max<_I0, _I1, _In...>::value",
   "referenced_type" : "_ZTIKj",
   "source_file" : "external/libcxx/include/type_traits"
  },
  {
   "linker_set_key" : "_ZNSt3__112is_base_of_vE",
   "name" : "std::__1::is_base_of_v",
   "referenced_type" : "_ZTIKb",
   "source_file" : "external/libcxx/include/type_traits"
  },
  {
   "linker_set_key" : "_ZNSt3__112is_pointer_vE",
   "name" : "std::__1::is_pointer_v",
   "referenced_type" : "_ZTIKb",
   "source_file" : "external/libcxx/include/type_traits"
  },
  {
   "linker_set_key" : "_ZNSt3__112is_trivial_vE",
   "name" : "std::__1::is_trivial_v",
   "referenced_type" : "_ZTIKb",
   "source_file" : "external/libcxx/include/type_traits"
  },
  {
   "linker_set_key" : "_ZNSt3__113__invokable_r5valueE",
   "name" : "std::__1::__invokable_r::value",
   "referenced_type" : "_ZTIKb",
   "source_file" : "external/libcxx/include/type_traits"
  },
  {
   "linker_set_key" : "_ZNSt3__113__promote_imp5valueE",
   "name" : "std::__1::__promote_imp::value",
   "referenced_type" : "_ZTIKb",
   "source_file" : "external/libcxx/include/type_traits"
  },
  {
   "linker_set_key" : "_ZNSt3__113__promote_impIT_T0_T1_Lb1EE5valueE",
   "name" : "std::__1::__promote_imp<type-parameter-0-0, type-parameter-0-1, type-parameter-0-2, true>::value",
   "referenced_type" : "_ZTIKb",
   "source_file" : "external/libcxx/include/type_traits"
  },
  {
   "linker_set_key" : "_ZNSt3__113__promote_impIT_T0_vLb1EE5valueE",
   "name" : "std::__1::__promote_imp<type-parameter-0-0, type-parameter-0-1, void, true>::value",
   "referenced_type" : "_ZTIKb",
   "source_file" : "external/libcxx/include/type_traits"
  },
  {
   "linker_set_key" : "_ZNSt3__113__promote_impIT_vvLb1EE5valueE",
   "name" : "std::__1::__promote_imp<type-parameter-0-0, void, void, true>::value",
   "referenced_type" : "_ZTIKb",
   "source_file" : "external/libcxx/include/type_traits"
  },
  {
   "linker_set_key" : "_ZNSt3__113aligned_union15alignment_valueE",
   "name" : "std::__1::aligned_union::alignment_value",
   "referenced_type" : "_ZTIKj",
   "source_file" : "external/libcxx/include/type_traits"
  },
  {
   "linker_set_key" : "_ZNSt3__113aligned_union5__lenE",
   "name" : "std::__1::aligned_union::__len",
   "referenced_type" : "_ZTIKj",
   "source_file" : "external/libcxx/include/type_traits"
  },
  {
   "linker_set_key" : "_ZNSt3__113conjunction_vE",
   "name" : "std::__1::conjunction_v",
   "referenced_type" : "_ZTIKb",
   "source_file" : "external/libcxx/include/type_traits"
  },
  {
   "linker_set_key" : "_ZNSt3__113disjunction_vE",
   "name" : "std::__1::disjunction_v",
   "referenced_type" : "_ZTIKb",
   "source_file" : "external/libcxx/include/type_traits"
  },
  {
   "linker_set_key" : "_ZNSt3__113is_abstract_vE",
   "name" : "std::__1::is_abstract_v",
   "referenced_type" : "_ZTIKb",
   "source_file" : "external/libcxx/include/type_traits"
  },
  {
   "linker_set_key" : "_ZNSt3__113is_compound_vE",
   "name" : "std::__1::is_compound_v",
   "referenced_type" : "_ZTIKb",
   "source_file" : "external/libcxx/include/type_traits"
  },
  {
   "linker_set_key" : "_ZNSt3__113is_function_vE",
   "name" : "std::__1::is_function_v",
   "referenced_type" : "_ZTIKb",
   "source_file" : "external/libcxx/include/type_traits"
  },
  {
   "linker_set_key" : "_ZNSt3__113is_integral_vE",
   "name" : "std::__1::is_integral_v",
   "referenced_type" : "_ZTIKb",
   "source_file" : "external/libcxx/include/type_traits"
  },
  {
   "linker_set_key" : "_ZNSt3__113is_unsigned_vE",
   "name" : "std::__1::is_unsigned_v",
   "referenced_type" : "_ZTIKb",
   "source_file" : "external/libcxx/include/type_traits"
  },
  {
   "linker_set_key" : "_ZNSt3__113is_volatile_vE",
   "name" : "std::__1::is_volatile_v",
   "referenced_type" : "_ZTIKb",
   "source_file" : "external/libcxx/include/type_traits"
  },
  {
   "linker_set_key" : "_ZNSt3__114__numeric_type5valueE",
   "name" : "std::__1::__numeric_type::value",
   "referenced_type" : "_ZTIKb",
   "source_file" : "external/libcxx/include/type_traits"
  },
  {
   "linker_set_key" : "_ZNSt3__114__numeric_typeIvE5valueE",
   "name" : "std::__1::__numeric_type<void>::value",
   "referenced_type" : "_ZTIKb",
   "source_file" : "external/libcxx/include/type_traits"
  },
  {
   "access" : "private",
   "linker_set_key" : "_ZNSt3__114__select_align5__maxE",
   "name" : "std::__1::__select_align::__max",
   "referenced_type" : "_ZTIKj",
   "source_file" : "external/libcxx/include/type_traits"
  },
  {
   "access" : "private",
   "linker_set_key" : "_ZNSt3__114__select_align5__minE",
   "name" : "std::__1::__select_align::__min",
   "referenced_type" : "_ZTIKj",
   "source_file" : "external/libcxx/include/type_traits"
  },
  {
   "linker_set_key" : "_ZNSt3__114__select_align5valueE",
   "name" : "std::__1::__select_align::value",
   "referenced_type" : "_ZTIKj",
   "source_file" : "external/libcxx/include/type_traits"
  },
  {
   "linker_set_key" : "_ZNSt3__114alignment_of_vE",
   "name" : "std::__1::alignment_of_v",
   "referenced_type" : "_ZTIKj",
   "source_file" : "external/libcxx/include/type_traits"
  },
  {
   "linker_set_key" : "_ZNSt3__114is_aggregate_vE",
   "name" : "std::__1::is_aggregate_v",
   "referenced_type" : "_ZTIKb",
   "source_file" : "external/libcxx/include/type_traits"
  },
  {
   "linker_set_key" : "_ZNSt3__114is_invocable_vE",
   "name" : "std::__1::is_invocable_v",
   "referenced_type" : "_ZTIKb",
   "source_file" : "external/libcxx/include/type_traits"
  },
  {
   "linker_set_key" : "_ZNSt3__114is_reference_vE",
   "name" : "std::__1::is_reference_v",
   "referenced_type" : "_ZTIKb",
   "source_file" : "external/libcxx/include/type_traits"
  },
  {
   "linker_set_key" : "_ZNSt3__114is_swappable_vE",
   "name" : "std::__1::is_swappable_v",
   "referenced_type" : "_ZTIKb",
   "source_file" : "external/libcxx/include/type_traits"
  },
  {
   "linker_set_key" : "_ZNSt3__115is_arithmetic_vE",
   "name" : "std::__1::is_arithmetic_v",
   "referenced_type" : "_ZTIKb",
   "source_file" : "external/libcxx/include/type_traits"
  },
  {
   "linker_set_key" : "_ZNSt3__115is_assignable_vE",
   "name" : "std::__1::is_assignable_v",
   "referenced_type" : "_ZTIKb",
   "source_file" : "external/libcxx/include/type_traits"
  },
  {
   "linker_set_key" : "_ZNSt3__116is_convertible_vE",
   "name" : "std::__1::is_convertible_v",
   "referenced_type" : "_ZTIKb",
   "source_file" : "external/libcxx/include/type_traits"
  },
  {
   "linker_set_key" : "_ZNSt3__116is_fundamental_vE",
   "name" : "std::__1::is_fundamental_v",
   "referenced_type" : "_ZTIKb",
   "source_file" : "external/libcxx/include/type_traits"
  },
  {
   "linker_set_key" : "_ZNSt3__116is_invocable_r_vE",
   "name" : "std::__1::is_invocable_r_v",
   "referenced_type" : "_ZTIKb",
   "source_file" : "external/libcxx/include/type_traits"
  },
  {
   "linker_set_key" : "_ZNSt3__116is_polymorphic_vE",
   "name" : "std::__1::is_polymorphic_v",
   "referenced_type" : "_ZTIKb",
   "source_file" : "external/libcxx/include/type_traits"
  },
  {
   "linker_set_key" : "_ZNSt3__117integral_constantIbLb0EE5valueE",
   "name" : "std::__1::integral_constant<bool, false>::value",
   "referenced_type" : "_ZTIKb",
   "source_file" : "external/libcxx/include/type_traits"
  },
  {
   "linker_set_key" : "_ZNSt3__117integral_constantIbLb1EE5valueE",
   "name" : "std::__1::integral_constant<bool, true>::value",
   "referenced_type" : "_ZTIKb",
   "source_file" : "external/libcxx/include/type_traits"
  },
  {
   "linker_set_key" : "_ZNSt3__117integral_constantIjLj0EE5valueE",
   "name" : "std::__1::integral_constant<unsigned int, 0>::value",
   "referenced_type" : "_ZTIKj",
   "source_file" : "external/libcxx/include/type_traits"
  },
  {
   "linker_set_key" : "_ZNSt3__117integral_constantIjLj2EE5valueE",
   "name" : "std::__1::integral_constant<unsigned int, 2>::value",
   "referenced_type" : "_ZTIKj",
   "source_file" : "external/libcxx/include/type_traits"
  },
  {
   "linker_set_key" : "_ZNSt3__117is_destructible_vE",
   "name" : "std::__1::is_destructible_v",
   "referenced_type" : "_ZTIKb",
   "source_file" : "external/libcxx/include/type_traits"
  },
  {
   "linker_set_key" : "_ZNSt3__117is_literal_type_vE",
   "name" : "std::__1::is_literal_type_v",
   "referenced_type" : "_ZTIKb",
   "source_file" : "external/libcxx/include/type_traits"
  },
  {
   "linker_set_key" : "_ZNSt3__117is_null_pointer_vE",
   "name" : "std::__1::is_null_pointer_v",
   "referenced_type" : "_ZTIKb",
   "source_file" : "external/libcxx/include/type_traits"
  },
  {
   "linker_set_key" : "_ZNSt3__118is_constructible_vE",
   "name" : "std::__1::is_constructible_v",
   "referenced_type" : "_ZTIKb",
   "source_file" : "external/libcxx/include/type_traits"
  },
  {
   "linker_set_key" : "_ZNSt3__119is_floating_point_vE",
   "name" : "std::__1::is_floating_point_v",
   "referenced_type" : "_ZTIKb",
   "source_file" : "external/libcxx/include/type_traits"
  },
  {
   "linker_set_key" : "_ZNSt3__119is_member_pointer_vE",
   "name" : "std::__1::is_member_pointer_v",
   "referenced_type" : "_ZTIKb",
   "source_file" : "external/libcxx/include/type_traits"
  },
  {
   "linker_set_key" : "_ZNSt3__119is_swappable_with_vE",
   "name" : "std::__1::is_swappable_with_v",
   "referenced_type" : "_ZTIKb",
   "source_file" : "external/libcxx/include/type_traits"
  },
  {
   "linker_set_key" : "_ZNSt3__120is_copy_assignable_vE",
   "name" : "std::__1::is_copy_assignable_v",
   "referenced_type" : "_ZTIKb",
   "source_file" : "external/libcxx/include/type_traits"
  },
  {
   "linker_set_key" : "_ZNSt3__120is_move_assignable_vE",
   "name" : "std::__1::is_move_assignable_v",
   "referenced_type" : "_ZTIKb",
   "source_file" : "external/libcxx/include/type_traits"
  },
  {
   "linker_set_key" : "_ZNSt3__120is_standard_layout_vE",
   "name" : "std::__1::is_standard_layout_v",
   "referenced_type" : "_ZTIKb",
   "source_file" : "external/libcxx/include/type_traits"
  },
  {
   "linker_set_key" : "_ZNSt3__121is_lvalue_reference_vE",
   "name" : "std::__1::is_lvalue_reference_v",
   "referenced_type" : "_ZTIKb",
   "source_file" : "external/libcxx/include/type_traits"
  },
  {
   "linker_set_key" : "_ZNSt3__121is_rvalue_reference_vE",
   "name" : "std::__1::is_rvalue_reference_v",
   "referenced_type" : "_ZTIKb",
   "source_file" : "external/libcxx/include/type_traits"
  },
  {
   "linker_set_key" : "_ZNSt3__122is_nothrow_invocable_vE",
   "name" : "std::__1::is_nothrow_invocable_v",
   "referenced_type" : "_ZTIKb",
   "source_file" : "external/libcxx/include/type_traits"
  },
  {
   "linker_set_key" : "_ZNSt3__122is_nothrow_swappable_vE",
   "name" : "std::__1::is_nothrow_swappable_v",
   "referenced_type" : "_ZTIKb",
   "source_file" : "external/libcxx/include/type_traits"
  },
  {
   "linker_set_key" : "_ZNSt3__123__libcpp_debug_functionE",
   "name" : "std::__1::__libcpp_debug_function",
   "referenced_type" : "_ZTIPFvRKNSt3__119__libcpp_debug_infoEE",
   "source_file" : "external/libcxx/include/__debug"
  },
  {
   "linker_set_key" : "_ZNSt3__123is_copy_constructible_vE",
   "name" : "std::__1::is_copy_constructible_v",
   "referenced_type" : "_ZTIKb",
   "source_file" : "external/libcxx/include/type_traits"
  },
  {
   "linker_set_key" : "_ZNSt3__123is_move_constructible_vE",
   "name" : "std::__1::is_move_constructible_v",
   "referenced_type" : "_ZTIKb",
   "source_file" : "external/libcxx/include/type_traits"
  },
  {
   "linker_set_key" : "_ZNSt3__123is_nothrow_assignable_vE",
   "name" : "std::__1::is_nothrow_assignable_v",
   "referenced_type" : "_ZTIKb",
   "source_file" : "external/libcxx/include/type_traits"
  },
  {
   "linker_set_key" : "_ZNSt3__123is_trivially_copyable_vE",
   "name" : "std::__1::is_trivially_copyable_v",
   "referenced_type" : "_ZTIKb",
   "source_file" : "external/libcxx/include/type_traits"
  },
  {
   "linker_set_key" : "_ZNSt3__124has_virtual_destructor_vE",
   "name" : "std::__1::has_virtual_destructor_v",
   "referenced_type" : "_ZTIKb",
   "source_file" : "external/libcxx/include/type_traits"
  },
  {
   "linker_set_key" : "_ZNSt3__124is_nothrow_invocable_r_vE",
   "name" : "std::__1::is_nothrow_invocable_r_v",
   "referenced_type" : "_ZTIKb",
   "source_file" : "external/libcxx/include/type_traits"
  },
  {
   "linker_set_key" : "_ZNSt3__125__nothrow_invokable_r_imp5valueE",
   "name" : "std::__1::__nothrow_invokable_r_imp::value",
   "referenced_type" : "_ZTIKb",
   "source_file" : "external/libcxx/include/type_traits"
  },
  {
   "linker_set_key" : "_ZNSt3__125__nothrow_invokable_r_impILb1ELb0ET_T0_JDpT1_EE5valueE",
   "name" : "std::__1::__nothrow_invokable_r_imp<true, false, type-parameter-0-0, type-parameter-0-1, type-parameter-0-2...>::value",
   "referenced_type" : "_ZTIKb",
   "source_file" : "external/libcxx/include/type_traits"
  },
  {
   "linker_set_key" : "_ZNSt3__125__nothrow_invokable_r_impILb1ELb1ET_T0_JDpT1_EE5valueE",
   "name" : "std::__1::__nothrow_invokable_r_imp<true, true, type-parameter-0-0, type-parameter-0-1, type-parameter-0-2...>::value",
   "referenced_type" : "_ZTIKb",
   "source_file" : "external/libcxx/include/type_traits"
  },
  {
   "linker_set_key" : "_ZNSt3__125is_nothrow_destructible_vE",
   "name" : "std::__1::is_nothrow_destructible_v",
   "referenced_type" : "_ZTIKb",
   "source_file" : "external/libcxx/include/type_traits"
  },
  {
   "linker_set_key" : "_ZNSt3__125is_trivially_assignable_vE",
   "name" : "std::__1::is_trivially_assignable_v",
   "referenced_type" : "_ZTIKb",
   "source_file" : "external/libcxx/include/type_traits"
  },
  {
   "linker_set_key" : "_ZNSt3__126__is_destructor_wellformed5valueE",
   "name" : "std::__1::__is_destructor_wellformed::value",
   "referenced_type" : "_ZTIKb",
   "source_file" : "external/libcxx/include/type_traits"
  },
  {
   "linker_set_key" : "_ZNSt3__126is_default_constructible_vE",
   "name" : "std::__1::is_default_constructible_v",
   "referenced_type" : "_ZTIKb",
   "source_file" : "external/libcxx/include/type_traits"
  },
  {
   "linker_set_key" : "_ZNSt3__126is_member_object_pointer_vE",
   "name" : "std::__1::is_member_object_pointer_v",
   "referenced_type" : "_ZTIKb",
   "source_file" : "external/libcxx/include/type_traits"
  },
  {
   "linker_set_key" : "_ZNSt3__126is_nothrow_constructible_vE",
   "name" : "std::__1::is_nothrow_constructible_v",
   "referenced_type" : "_ZTIKb",
   "source_file" : "external/libcxx/include/type_traits"
  },
  {
   "linker_set_key" : "_ZNSt3__127is_nothrow_swappable_with_vE",
   "name" : "std::__1::is_nothrow_swappable_with_v",
   "referenced_type" : "_ZTIKb",
   "source_file" : "external/libcxx/include/type_traits"
  },
  {
   "linker_set_key" : "_ZNSt3__127is_trivially_destructible_vE",
   "name" : "std::__1::is_trivially_destructible_v",
   "referenced_type" : "_ZTIKb",
   "source_file" : "external/libcxx/include/type_traits"
  },
  {
   "linker_set_key" : "_ZNSt3__128is_member_function_pointer_vE",
   "name" : "std::__1::is_member_function_pointer_v",
   "referenced_type" : "_ZTIKb",
   "source_file" : "external/libcxx/include/type_traits"
  },
  {
   "linker_set_key" : "_ZNSt3__128is_nothrow_copy_assignable_vE",
   "name" : "std::__1::is_nothrow_copy_assignable_v",
   "referenced_type" : "_ZTIKb",
   "source_file" : "external/libcxx/include/type_traits"
  },
  {
   "linker_set_key" : "_ZNSt3__128is_nothrow_move_assignable_vE",
   "name" : "std::__1::is_nothrow_move_assignable_v",
   "referenced_type" : "_ZTIKb",
   "source_file" : "external/libcxx/include/type_traits"
  },
  {
   "linker_set_key" : "_ZNSt3__128is_trivially_constructible_vE",
   "name" : "std::__1::is_trivially_constructible_v",
   "referenced_type" : "_ZTIKb",
   "source_file" : "external/libcxx/include/type_traits"
  },
  {
   "linker_set_key" : "_ZNSt3__130is_trivially_copy_assignable_vE",
   "name" : "std::__1::is_trivially_copy_assignable_v",
   "referenced_type" : "_ZTIKb",
   "source_file" : "external/libcxx/include/type_traits"
  },
  {
   "linker_set_key" : "_ZNSt3__130is_trivially_move_assignable_vE",
   "name" : "std::__1::is_trivially_move_assignable_v",
   "referenced_type" : "_ZTIKb",
   "source_file" : "external/libcxx/include/type_traits"
  },
  {
   "linker_set_key" : "_ZNSt3__131is_nothrow_copy_constructible_vE",
   "name" : "std::__1::is_nothrow_copy_constructible_v",
   "referenced_type" : "_ZTIKb",
   "source_file" : "external/libcxx/include/type_traits"
  },
  {
   "linker_set_key" : "_ZNSt3__131is_nothrow_move_constructible_vE",
   "name" : "std::__1::is_nothrow_move_constructible_v",
   "referenced_type" : "_ZTIKb",
   "source_file" : "external/libcxx/include/type_traits"
  },
  {
   "linker_set_key" : "_ZNSt3__133__has_operator_addressof_free_imp5valueE",
   "name" : "std::__1::__has_operator_addressof_free_imp::value",
   "referenced_type" : "_ZTIKb",
   "source_file" : "external/libcxx/include/type_traits"
  },
  {
   "linker_set_key" : "_ZNSt3__133is_trivially_copy_constructible_vE",
   "name" : "std::__1::is_trivially_copy_constructible_v",
   "referenced_type" : "_ZTIKb",
   "source_file" : "external/libcxx/include/type_traits"
  },
  {
   "linker_set_key" : "_ZNSt3__133is_trivially_move_constructible_vE",
   "name" : "std::__1::is_trivially_move_constructible_v",
   "referenced_type" : "_ZTIKb",
   "source_file" : "external/libcxx/include/type_traits"
  },
  {
   "linker_set_key" : "_ZNSt3__134is_nothrow_default_constructible_vE",
   "name" : "std::__1::is_nothrow_default_constructible_v",
   "referenced_type" : "_ZTIKb",
   "source_file" : "external/libcxx/include/type_traits"
  },
  {
   "linker_set_key" : "_ZNSt3__135__has_operator_addressof_member_imp5valueE",
   "name" : "std::__1::__has_operator_addressof_member_imp::value",
   "referenced_type" : "_ZTIKb",
   "source_file" : "external/libcxx/include/type_traits"
  },
  {
   "linker_set_key" : "_ZNSt3__135has_unique_object_representations_vE",
   "name" : "std::__1::has_unique_object_representations_v",
   "referenced_type" : "_ZTIKb",
   "source_file" : "external/libcxx/include/type_traits"
  },
  {
   "linker_set_key" : "_ZNSt3__136is_trivially_default_constructible_vE",
   "name" : "std::__1::is_trivially_default_constructible_v",
   "referenced_type" : "_ZTIKb",
   "source_file" : "external/libcxx/include/type_traits"
  },
  {
   "linker_set_key" : "_ZNSt3__16rank_vE",
   "name" : "std::__1::rank_v",
   "referenced_type" : "_ZTIKj",
   "source_file" : "external/libcxx/include/type_traits"
  },
  {
   "linker_set_key" : "_ZNSt3__18__detail16__swappable_with5valueE",
   "name" : "std::__1::__detail::__swappable_with::value",
   "referenced_type" : "_ZTIKb",
   "source_file" : "external/libcxx/include/type_traits"
  },
  {
   "linker_set_key" : "_ZNSt3__18__detail24__nothrow_swappable_with5valueE",
   "name" : "std::__1::__detail::__nothrow_swappable_with::value",
   "referenced_type" : "_ZTIKb",
   "source_file" : "external/libcxx/include/type_traits"
  },
  {
   "linker_set_key" : "_ZNSt3__18extent_vE",
   "name" : "std::__1::extent_v",
   "referenced_type" : "_ZTIKj",
   "source_file" : "external/libcxx/include/type_traits"
  },
  {
   "linker_set_key" : "_ZNSt3__18in_placeE",
   "name" : "std::__1::in_place",
   "referenced_type" : "_ZTIKNSt3__110in_place_tE",
   "source_file" : "external/libcxx/include/utility"
  },
  {
   "linker_set_key" : "_ZNSt3__18is_pod_vE",
   "name" : "std::__1::is_pod_v",
   "referenced_type" : "_ZTIKb",
   "source_file" : "external/libcxx/include/type_traits"
  },
  {
   "linker_set_key" : "_ZNSt3__19is_enum_vE",
   "name" : "std::__1::is_enum_v",
   "referenced_type" : "_ZTIKb",
   "source_file" : "external/libcxx/include/type_traits"
  },
  {
   "linker_set_key" : "_ZNSt3__19is_same_vE",
   "name" : "std::__1::is_same_v",
   "referenced_type" : "_ZTIKb",
   "source_file" : "external/libcxx/include/type_traits"
  },
  {
   "linker_set_key" : "_ZNSt3__19is_void_vE",
   "name" : "std::__1::is_void_v",
   "referenced_type" : "_ZTIKb",
   "source_file" : "external/libcxx/include/type_traits"
  },
  {
   "linker_set_key" : "_ZNSt3__1L19piecewise_constructE",
   "name" : "std::__1::piecewise_construct",
   "referenced_type" : "_ZTIKNSt3__121piecewise_construct_tE",
   "source_file" : "external/libcxx/include/utility"
  },
  {
   "linker_set_key" : "environ",
   "name" : "environ",
   "referenced_type" : "_ZTIPPc",
   "source_file" : "bionic/libc/include/unistd.h"
  },
  {
   "linker_set_key" : "optarg",
   "name" : "optarg",
   "referenced_type" : "_ZTIPc",
   "source_file" : "bionic/libc/include/bits/getopt.h"
  },
  {
   "linker_set_key" : "opterr",
   "name" : "opterr",
   "referenced_type" : "_ZTIi",
   "source_file" : "bionic/libc/include/bits/getopt.h"
  },
  {
   "linker_set_key" : "optind",
   "name" : "optind",
   "referenced_type" : "_ZTIi",
   "source_file" : "bionic/libc/include/bits/getopt.h"
  },
  {
   "linker_set_key" : "optopt",
   "name" : "optopt",
   "referenced_type" : "_ZTIi",
   "source_file" : "bionic/libc/include/bits/getopt.h"
  },
  {
   "linker_set_key" : "sys_siglist",
   "name" : "sys_siglist",
   "referenced_type" : "_ZTIA65_KPKc",
   "source_file" : "bionic/libc/include/signal.h"
  },
  {
   "linker_set_key" : "sys_signame",
   "name" : "sys_signame",
   "referenced_type" : "_ZTIA65_KPKc",
   "source_file" : "bionic/libc/include/signal.h"
  }
 ],
 "lvalue_reference_types" :
 [
  {
   "alignment" : 4,
   "linker_set_key" : "_ZTIRKNSt3__118__sfinae_ctor_baseILb0ELb0EEE",
   "name" : "const std::__sfinae_ctor_base<false, false> &",
   "referenced_type" : "_ZTIKNSt3__118__sfinae_ctor_baseILb0ELb0EEE",
   "self_type" : "_ZTIRKNSt3__118__sfinae_ctor_baseILb0ELb0EEE",
   "size" : 4,
   "source_file" : "external/libcxx/include/__tuple"
  },
  {
   "alignment" : 4,
   "linker_set_key" : "_ZTIRKNSt3__118__sfinae_ctor_baseILb0ELb1EEE",
   "name" : "const std::__sfinae_ctor_base<false, true> &",
   "referenced_type" : "_ZTIKNSt3__118__sfinae_ctor_baseILb0ELb1EEE",
   "self_type" : "_ZTIRKNSt3__118__sfinae_ctor_baseILb0ELb1EEE",
   "size" : 4,
   "source_file" : "external/libcxx/include/__tuple"
  },
  {
   "alignment" : 4,
   "linker_set_key" : "_ZTIRKNSt3__118__sfinae_ctor_baseILb1ELb0EEE",
   "name" : "const std::__sfinae_ctor_base<true, false> &",
   "referenced_type" : "_ZTIKNSt3__118__sfinae_ctor_baseILb1ELb0EEE",
   "self_type" : "_ZTIRKNSt3__118__sfinae_ctor_baseILb1ELb0EEE",
   "size" : 4,
   "source_file" : "external/libcxx/include/__tuple"
  },
  {
   "alignment" : 4,
   "linker_set_key" : "_ZTIRKNSt3__119__libcpp_debug_infoE",
   "name" : "const std::__libcpp_debug_info &",
   "referenced_type" : "_ZTIKNSt3__119__libcpp_debug_infoE",
   "self_type" : "_ZTIRKNSt3__119__libcpp_debug_infoE",
   "size" : 4,
   "source_file" : "external/libcxx/include/__debug"
  },
  {
   "alignment" : 4,
   "linker_set_key" : "_ZTIRKNSt3__120__sfinae_assign_baseILb0ELb0EEE",
   "name" : "const std::__sfinae_assign_base<false, false> &",
   "referenced_type" : "_ZTIKNSt3__120__sfinae_assign_baseILb0ELb0EEE",
   "self_type" : "_ZTIRKNSt3__120__sfinae_assign_baseILb0ELb0EEE",
   "size" : 4,
   "source_file" : "external/libcxx/include/__tuple"
  },
  {
   "alignment" : 4,
   "linker_set_key" : "_ZTIRKNSt3__120__sfinae_assign_baseILb0ELb1EEE",
   "name" : "const std::__sfinae_assign_base<false, true> &",
   "referenced_type" : "_ZTIKNSt3__120__sfinae_assign_baseILb0ELb1EEE",
   "self_type" : "_ZTIRKNSt3__120__sfinae_assign_baseILb0ELb1EEE",
   "size" : 4,
   "source_file" : "external/libcxx/include/__tuple"
  },
  {
   "alignment" : 4,
   "linker_set_key" : "_ZTIRKNSt3__120__sfinae_assign_baseILb1ELb0EEE",
   "name" : "const std::__sfinae_assign_base<true, false> &",
   "referenced_type" : "_ZTIKNSt3__120__sfinae_assign_baseILb1ELb0EEE",
   "self_type" : "_ZTIRKNSt3__120__sfinae_assign_baseILb1ELb0EEE",
   "size" : 4,
   "source_file" : "external/libcxx/include/__tuple"
  },
  {
   "alignment" : 4,
   "linker_set_key" : "_ZTIRNSt3__118__sfinae_ctor_baseILb0ELb0EEE",
   "name" : "std::__sfinae_ctor_base<false, false> &",
   "referenced_type" : "_ZTINSt3__118__sfinae_ctor_baseILb0ELb0EEE",
   "self_type" : "_ZTIRNSt3__118__sfinae_ctor_baseILb0ELb0EEE",
   "size" : 4,
   "source_file" : "external/libcxx/include/__tuple"
  },
  {
   "alignment" : 4,
   "linker_set_key" : "_ZTIRNSt3__118__sfinae_ctor_baseILb0ELb1EEE",
   "name" : "std::__sfinae_ctor_base<false, true> &",
   "referenced_type" : "_ZTINSt3__118__sfinae_ctor_baseILb0ELb1EEE",
   "self_type" : "_ZTIRNSt3__118__sfinae_ctor_baseILb0ELb1EEE",
   "size" : 4,
   "source_file" : "external/libcxx/include/__tuple"
  },
  {
   "alignment" : 4,
   "linker_set_key" : "_ZTIRNSt3__118__sfinae_ctor_baseILb1ELb0EEE",
   "name" : "std::__sfinae_ctor_base<true, false> &",
   "referenced_type" : "_ZTINSt3__118__sfinae_ctor_baseILb1ELb0EEE",
   "self_type" : "_ZTIRNSt3__118__sfinae_ctor_baseILb1ELb0EEE",
   "size" : 4,
   "source_file" : "external/libcxx/include/__tuple"
  },
  {
   "alignment" : 4,
   "linker_set_key" : "_ZTIRNSt3__120__sfinae_assign_baseILb0ELb1EEE",
   "name" : "std::__sfinae_assign_base<false, true> &",
   "referenced_type" : "_ZTINSt3__120__sfinae_assign_baseILb0ELb1EEE",
   "self_type" : "_ZTIRNSt3__120__sfinae_assign_baseILb0ELb1EEE",
   "size" : 4,
   "source_file" : "external/libcxx/include/__tuple"
  },
  {
   "alignment" : 4,
   "linker_set_key" : "_ZTIRNSt3__120__sfinae_assign_baseILb1ELb0EEE",
   "name" : "std::__sfinae_assign_base<true, false> &",
   "referenced_type" : "_ZTINSt3__120__sfinae_assign_baseILb1ELb0EEE",
   "self_type" : "_ZTIRNSt3__120__sfinae_assign_baseILb1ELb0EEE",
   "size" : 4,
   "source_file" : "external/libcxx/include/__tuple"
  },
  {
   "alignment" : 4,
   "linker_set_key" : "_ZTIRSt4byte",
   "name" : "std::byte &",
   "referenced_type" : "_ZTISt4byte",
   "self_type" : "_ZTIRSt4byte",
   "size" : 4,
   "source_file" : "external/libcxx/include/cstddef"
  }
 ],
 "pointer_types" :
 [
  {
   "alignment" : 4,
   "linker_set_key" : "_ZTIP10_jintArray",
   "name" : "_jintArray *",
   "referenced_type" : "_ZTI10_jintArray",
   "self_type" : "_ZTIP10_jintArray",
   "size" : 4,
   "source_file" : "libnativehelper/include_jni/jni.h"
  },
  {
   "alignment" : 4,
   "linker_set_key" : "_ZTIP10_jmethodID",
   "name" : "_jmethodID *",
   "referenced_type" : "_ZTI10_jmethodID",
   "self_type" : "_ZTIP10_jmethodID",
   "size" : 4,
   "source_file" : "libnativehelper/include_jni/jni.h"
  },
  {
   "alignment" : 4,
   "linker_set_key" : "_ZTIP11_jbyteArray",
   "name" : "_jbyteArray *",
   "referenced_type" : "_ZTI11_jbyteArray",
   "self_type" : "_ZTIP11_jbyteArray",
   "size" : 4,
   "source_file" : "libnativehelper/include_jni/jni.h"
  },
  {
   "alignment" : 4,
   "linker_set_key" : "_ZTIP11_jcharArray",
   "name" : "_jcharArray *",
   "referenced_type" : "_ZTI11_jcharArray",
   "self_type" : "_ZTIP11_jcharArray",
   "size" : 4,
   "source_file" : "libnativehelper/include_jni/jni.h"
  },
  {
   "alignment" : 4,
   "linker_set_key" : "_ZTIP11_jlongArray",
   "name" : "_jlongArray *",
   "referenced_type" : "_ZTI11_jlongArray",
   "self_type" : "_ZTIP11_jlongArray",
   "size" : 4,
   "source_file" : "libnativehelper/include_jni/jni.h"
  },
  {
   "alignment" : 4,
   "linker_set_key" : "_ZTIP11_jthrowable",
   "name" : "_jthrowable *",
   "referenced_type" : "_ZTI11_jthrowable",
   "self_type" : "_ZTIP11_jthrowable",
   "size" : 4,
   "source_file" : "libnativehelper/include_jni/jni.h"
  },
  {
   "alignment" : 4,
   "linker_set_key" : "_ZTIP11user_fpregs",
   "name" : "user_fpregs *",
   "referenced_type" : "_ZTI11user_fpregs",
   "self_type" : "_ZTIP11user_fpregs",
   "size" : 4,
   "source_file" : "bionic/libc/include/sys/user.h"
  },
  {
   "alignment" : 4,
   "linker_set_key" : "_ZTIP12JavaVMOption",
   "name" : "JavaVMOption *",
   "referenced_type" : "_ZTI12JavaVMOption",
   "self_type" : "_ZTIP12JavaVMOption",
   "size" : 4,
   "source_file" : "libnativehelper/include_jni/jni.h"
  },
  {
   "alignment" : 4,
   "linker_set_key" : "_ZTIP12_jfloatArray",
   "name" : "_jfloatArray *",
   "referenced_type" : "_ZTI12_jfloatArray",
   "self_type" : "_ZTIP12_jfloatArray",
   "size" : 4,
   "source_file" : "libnativehelper/include_jni/jni.h"
  },
  {
   "alignment" : 4,
   "linker_set_key" : "_ZTIP12_jshortArray",
   "name" : "_jshortArray *",
   "referenced_type" : "_ZTI12_jshortArray",
   "self_type" : "_ZTIP12_jshortArray",
   "size" : 4,
   "source_file" : "libnativehelper/include_jni/jni.h"
  },
  {
   "alignment" : 4,
   "linker_set_key" : "_ZTIP13_jdoubleArray",
   "name" : "_jdoubleArray *",
   "referenced_type" : "_ZTI13_jdoubleArray",
   "self_type" : "_ZTIP13_jdoubleArray",
   "size" : 4,
   "source_file" : "libnativehelper/include_jni/jni.h"
  },
  {
   "alignment" : 4,
   "linker_set_key" : "_ZTIP13_jobjectArray",
   "name" : "_jobjectArray *",
   "referenced_type" : "_ZTI13_jobjectArray",
   "self_type" : "_ZTIP13_jobjectArray",
   "size" : 4,
   "source_file" : "libnativehelper/include_jni/jni.h"
  },
  {
   "alignment" : 4,
   "linker_set_key" : "_ZTIP14_jbooleanArray",
   "name" : "_jbooleanArray *",
   "referenced_type" : "_ZTI14_jbooleanArray",
   "self_type" : "_ZTIP14_jbooleanArray",
   "size" : 4,
   "source_file" : "libnativehelper/include_jni/jni.h"
  },
  {
   "alignment" : 4,
   "linker_set_key" : "_ZTIP7_JNIEnv",
   "name" : "_JNIEnv *",
   "referenced_type" : "_ZTI7_JNIEnv",
   "self_type" : "_ZTIP7_JNIEnv",
   "size" : 4,
   "source_file" : "libnativehelper/include_jni/jni.h"
  },
  {
   "alignment" : 4,
   "linker_set_key" : "_ZTIP7_JavaVM",
   "name" : "_JavaVM *",
   "referenced_type" : "_ZTI7_JavaVM",
   "self_type" : "_ZTIP7_JavaVM",
   "size" : 4,
   "source_file" : "libnativehelper/include_jni/jni.h"
  },
  {
   "alignment" : 4,
   "linker_set_key" : "_ZTIP7_jarray",
   "name" : "_jarray *",
   "referenced_type" : "_ZTI7_jarray",
   "self_type" : "_ZTIP7_jarray",
   "size" : 4,
   "source_file" : "libnativehelper/include_jni/jni.h"
  },
  {
   "alignment" : 4,
   "linker_set_key" : "_ZTIP7_jclass",
   "name" : "_jclass *",
   "referenced_type" : "_ZTI7_jclass",
   "self_type" : "_ZTIP7_jclass",
   "size" : 4,
   "source_file" : "libnativehelper/include_jni/jni.h"
  },
  {
   "alignment" : 4,
   "linker_set_key" : "_ZTIP7siginfo",
   "name" : "siginfo *",
   "referenced_type" : "_ZTI7siginfo",
   "self_type" : "_ZTIP7siginfo",
   "size" : 4,
   "source_file" : "bionic/libc/kernel/uapi/asm-arm/asm/signal.h"
  },
  {
   "alignment" : 4,
   "linker_set_key" : "_ZTIP8_jobject",
   "name" : "_jobject *",
   "referenced_type" : "_ZTI8_jobject",
   "self_type" : "_ZTIP8_jobject",
   "size" : 4,
   "source_file" : "libnativehelper/include_jni/jni.h"
  },
  {
   "alignment" : 4,
   "linker_set_key" : "_ZTIP8_jstring",
   "name" : "_jstring *",
   "referenced_type" : "_ZTI8_jstring",
   "self_type" : "_ZTIP8_jstring",
   "size" : 4,
   "source_file" : "libnativehelper/include_jni/jni.h"
  },
  {
   "alignment" : 4,
   "linker_set_key" : "_ZTIP8ucontext",
   "name" : "ucontext *",
   "referenced_type" : "_ZTI8ucontext",
   "self_type" : "_ZTIP8ucontext",
   "size" : 4,
   "source_file" : "bionic/libc/include/sys/ucontext.h"
  },
  {
   "alignment" : 4,
   "linker_set_key" : "_ZTIP9_jfieldID",
   "name" : "_jfieldID *",
   "referenced_type" : "_ZTI9_jfieldID",
   "self_type" : "_ZTIP9_jfieldID",
   "size" : 4,
   "source_file" : "libnativehelper/include_jni/jni.h"
  },
  {
   "alignment" : 4,
   "linker_set_key" : "_ZTIP9user_regs",
   "name" : "user_regs *",
   "referenced_type" : "_ZTI9user_regs",
   "self_type" : "_ZTIP9user_regs",
   "size" : 4,
   "source_file" : "bionic/libc/include/sys/user.h"
  },
  {
   "alignment" : 4,
   "linker_set_key" : "_ZTIPF14jobjectRefTypeP7_JNIEnvP8_jobjectE",
   "name" : "jobjectRefType (*)(_JNIEnv *, _jobject *)",
   "referenced_type" : "_ZTIF14jobjectRefTypeP7_JNIEnvP8_jobjectE",
   "self_type" : "_ZTIPF14jobjectRefTypeP7_JNIEnvP8_jobjectE",
   "size" : 4,
   "source_file" : "libnativehelper/include_jni/jni.h"
  },
  {
   "alignment" : 4,
   "linker_set_key" : "_ZTIPFP10_jintArrayP7_JNIEnviE",
   "name" : "_jintArray *(*)(_JNIEnv *, int)",
   "referenced_type" : "_ZTIFP10_jintArrayP7_JNIEnviE",
   "self_type" : "_ZTIPFP10_jintArrayP7_JNIEnviE",
   "size" : 4,
   "source_file" : "libnativehelper/include_jni/jni.h"
  },
  {
   "alignment" : 4,
   "linker_set_key" : "_ZTIPFP10_jmethodIDP7_JNIEnvP7_jclassPKcS6_E",
   "name" : "_jmethodID *(*)(_JNIEnv *, _jclass *, const char *, const char *)",
   "referenced_type" : "_ZTIFP10_jmethodIDP7_JNIEnvP7_jclassPKcS6_E",
   "self_type" : "_ZTIPFP10_jmethodIDP7_JNIEnvP7_jclassPKcS6_E",
   "size" : 4,
   "source_file" : "libnativehelper/include_jni/jni.h"
  },
  {
   "alignment" : 4,
   "linker_set_key" : "_ZTIPFP10_jmethodIDP7_JNIEnvP8_jobjectE",
   "name" : "_jmethodID *(*)(_JNIEnv *, _jobject *)",
   "referenced_type" : "_ZTIFP10_jmethodIDP7_JNIEnvP8_jobjectE",
   "self_type" : "_ZTIPFP10_jmethodIDP7_JNIEnvP8_jobjectE",
   "size" : 4,
   "source_file" : "libnativehelper/include_jni/jni.h"
  },
  {
   "alignment" : 4,
   "linker_set_key" : "_ZTIPFP11_jbyteArrayP7_JNIEnviE",
   "name" : "_jbyteArray *(*)(_JNIEnv *, int)",
   "referenced_type" : "_ZTIFP11_jbyteArrayP7_JNIEnviE",
   "self_type" : "_ZTIPFP11_jbyteArrayP7_JNIEnviE",
   "size" : 4,
   "source_file" : "libnativehelper/include_jni/jni.h"
  },
  {
   "alignment" : 4,
   "linker_set_key" : "_ZTIPFP11_jcharArrayP7_JNIEnviE",
   "name" : "_jcharArray *(*)(_JNIEnv *, int)",
   "referenced_type" : "_ZTIFP11_jcharArrayP7_JNIEnviE",
   "self_type" : "_ZTIPFP11_jcharArrayP7_JNIEnviE",
   "size" : 4,
   "source_file" : "libnativehelper/include_jni/jni.h"
  },
  {
   "alignment" : 4,
   "linker_set_key" : "_ZTIPFP11_jlongArrayP7_JNIEnviE",
   "name" : "_jlongArray *(*)(_JNIEnv *, int)",
   "referenced_type" : "_ZTIFP11_jlongArrayP7_JNIEnviE",
   "self_type" : "_ZTIPFP11_jlongArrayP7_JNIEnviE",
   "size" : 4,
   "source_file" : "libnativehelper/include_jni/jni.h"
  },
  {
   "alignment" : 4,
   "linker_set_key" : "_ZTIPFP11_jthrowableP7_JNIEnvE",
   "name" : "_jthrowable *(*)(_JNIEnv *)",
   "referenced_type" : "_ZTIFP11_jthrowableP7_JNIEnvE",
   "self_type" : "_ZTIPFP11_jthrowableP7_JNIEnvE",
   "size" : 4,
   "source_file" : "libnativehelper/include_jni/jni.h"
  },
  {
   "alignment" : 4,
   "linker_set_key" : "_ZTIPFP12_jfloatArrayP7_JNIEnviE",
   "name" : "_jfloatArray *(*)(_JNIEnv *, int)",
   "referenced_type" : "_ZTIFP12_jfloatArrayP7_JNIEnviE",
   "self_type" : "_ZTIPFP12_jfloatArrayP7_JNIEnviE",
   "size" : 4,
   "source_file" : "libnativehelper/include_jni/jni.h"
  },
  {
   "alignment" : 4,
   "linker_set_key" : "_ZTIPFP12_jshortArrayP7_JNIEnviE",
   "name" : "_jshortArray *(*)(_JNIEnv *, int)",
   "referenced_type" : "_ZTIFP12_jshortArrayP7_JNIEnviE",
   "self_type" : "_ZTIPFP12_jshortArrayP7_JNIEnviE",
   "size" : 4,
   "source_file" : "libnativehelper/include_jni/jni.h"
  },
  {
   "alignment" : 4,
   "linker_set_key" : "_ZTIPFP13_jdoubleArrayP7_JNIEnviE",
   "name" : "_jdoubleArray *(*)(_JNIEnv *, int)",
   "referenced_type" : "_ZTIFP13_jdoubleArrayP7_JNIEnviE",
   "self_type" : "_ZTIPFP13_jdoubleArrayP7_JNIEnviE",
   "size" : 4,
   "source_file" : "libnativehelper/include_jni/jni.h"
  },
  {
   "alignment" : 4,
   "linker_set_key" : "_ZTIPFP13_jobjectArrayP7_JNIEnviP7_jclassP8_jobjectE",
   "name" : "_jobjectArray *(*)(_JNIEnv *, int, _jclass *, _jobject *)",
   "referenced_type" : "_ZTIFP13_jobjectArrayP7_JNIEnviP7_jclassP8_jobjectE",
   "self_type" : "_ZTIPFP13_jobjectArrayP7_JNIEnviP7_jclassP8_jobjectE",
   "size" : 4,
   "source_file" : "libnativehelper/include_jni/jni.h"
  },
  {
   "alignment" : 4,
   "linker_set_key" : "_ZTIPFP14_jbooleanArrayP7_JNIEnviE",
   "name" : "_jbooleanArray *(*)(_JNIEnv *, int)",
   "referenced_type" : "_ZTIFP14_jbooleanArrayP7_JNIEnviE",
   "self_type" : "_ZTIPFP14_jbooleanArrayP7_JNIEnviE",
   "size" : 4,
   "source_file" : "libnativehelper/include_jni/jni.h"
  },
  {
   "alignment" : 4,
   "linker_set_key" : "_ZTIPFP7_jclassP7_JNIEnvP8_jobjectE",
   "name" : "_jclass *(*)(_JNIEnv *, _jobject *)",
   "referenced_type" : "_ZTIFP7_jclassP7_JNIEnvP8_jobjectE",
   "self_type" : "_ZTIPFP7_jclassP7_JNIEnvP8_jobjectE",
   "size" : 4,
   "source_file" : "libnativehelper/include_jni/jni.h"
  },
  {
   "alignment" : 4,
   "linker_set_key" : "_ZTIPFP7_jclassP7_JNIEnvPKcE",
   "name" : "_jclass *(*)(_JNIEnv *, const char *)",
   "referenced_type" : "_ZTIFP7_jclassP7_JNIEnvPKcE",
   "self_type" : "_ZTIPFP7_jclassP7_JNIEnvPKcE",
   "size" : 4,
   "source_file" : "libnativehelper/include_jni/jni.h"
  },
  {
   "alignment" : 4,
   "linker_set_key" : "_ZTIPFP7_jclassP7_JNIEnvPKcP8_jobjectPKaiE",
   "name" : "_jclass *(*)(_JNIEnv *, const char *, _jobject *, const signed char *, int)",
   "referenced_type" : "_ZTIFP7_jclassP7_JNIEnvPKcP8_jobjectPKaiE",
   "self_type" : "_ZTIPFP7_jclassP7_JNIEnvPKcP8_jobjectPKaiE",
   "size" : 4,
   "source_file" : "libnativehelper/include_jni/jni.h"
  },
  {
   "alignment" : 4,
   "linker_set_key" : "_ZTIPFP7_jclassP7_JNIEnvS0_E",
   "name" : "_jclass *(*)(_JNIEnv *, _jclass *)",
   "referenced_type" : "_ZTIFP7_jclassP7_JNIEnvS0_E",
   "self_type" : "_ZTIPFP7_jclassP7_JNIEnvS0_E",
   "size" : 4,
   "source_file" : "libnativehelper/include_jni/jni.h"
  },
  {
   "alignment" : 4,
   "linker_set_key" : "_ZTIPFP8_jobjectP7_JNIEnvP13_jobjectArrayiE",
   "name" : "_jobject *(*)(_JNIEnv *, _jobjectArray *, int)",
   "referenced_type" : "_ZTIFP8_jobjectP7_JNIEnvP13_jobjectArrayiE",
   "self_type" : "_ZTIPFP8_jobjectP7_JNIEnvP13_jobjectArrayiE",
   "size" : 4,
   "source_file" : "libnativehelper/include_jni/jni.h"
  },
  {
   "alignment" : 4,
   "linker_set_key" : "_ZTIPFP8_jobjectP7_JNIEnvP7_jclassE",
   "name" : "_jobject *(*)(_JNIEnv *, _jclass *)",
   "referenced_type" : "_ZTIFP8_jobjectP7_JNIEnvP7_jclassE",
   "self_type" : "_ZTIPFP8_jobjectP7_JNIEnvP7_jclassE",
   "size" : 4,
   "source_file" : "libnativehelper/include_jni/jni.h"
  },
  {
   "alignment" : 4,
   "linker_set_key" : "_ZTIPFP8_jobjectP7_JNIEnvP7_jclassP10_jmethodIDPK6jvalueE",
   "name" : "_jobject *(*)(_JNIEnv *, _jclass *, _jmethodID *, const jvalue *)",
   "referenced_type" : "_ZTIFP8_jobjectP7_JNIEnvP7_jclassP10_jmethodIDPK6jvalueE",
   "self_type" : "_ZTIPFP8_jobjectP7_JNIEnvP7_jclassP10_jmethodIDPK6jvalueE",
   "size" : 4,
   "source_file" : "libnativehelper/include_jni/jni.h"
  },
  {
   "alignment" : 4,
   "linker_set_key" : "_ZTIPFP8_jobjectP7_JNIEnvP7_jclassP10_jmethodIDSt9__va_listE",
   "name" : "_jobject *(*)(_JNIEnv *, _jclass *, _jmethodID *, std::__va_list)",
   "referenced_type" : "_ZTIFP8_jobjectP7_JNIEnvP7_jclassP10_jmethodIDSt9__va_listE",
   "self_type" : "_ZTIPFP8_jobjectP7_JNIEnvP7_jclassP10_jmethodIDSt9__va_listE",
   "size" : 4,
   "source_file" : "libnativehelper/include_jni/jni.h"
  },
  {
   "alignment" : 4,
   "linker_set_key" : "_ZTIPFP8_jobjectP7_JNIEnvP7_jclassP10_jmethodIDhE",
   "name" : "_jobject *(*)(_JNIEnv *, _jclass *, _jmethodID *, unsigned char)",
   "referenced_type" : "_ZTIFP8_jobjectP7_JNIEnvP7_jclassP10_jmethodIDhE",
   "self_type" : "_ZTIPFP8_jobjectP7_JNIEnvP7_jclassP10_jmethodIDhE",
   "size" : 4,
   "source_file" : "libnativehelper/include_jni/jni.h"
  },
  {
   "alignment" : 4,
   "linker_set_key" : "_ZTIPFP8_jobjectP7_JNIEnvP7_jclassP10_jmethodIDzE",
   "name" : "_jobject *(*)(_JNIEnv *, _jclass *, _jmethodID *, ...)",
   "referenced_type" : "_ZTIFP8_jobjectP7_JNIEnvP7_jclassP10_jmethodIDzE",
   "self_type" : "_ZTIPFP8_jobjectP7_JNIEnvP7_jclassP10_jmethodIDzE",
   "size" : 4,
   "source_file" : "libnativehelper/include_jni/jni.h"
  },
  {
   "alignment" : 4,
   "linker_set_key" : "_ZTIPFP8_jobjectP7_JNIEnvP7_jclassP9_jfieldIDE",
   "name" : "_jobject *(*)(_JNIEnv *, _jclass *, _jfieldID *)",
   "referenced_type" : "_ZTIFP8_jobjectP7_JNIEnvP7_jclassP9_jfieldIDE",
   "self_type" : "_ZTIPFP8_jobjectP7_JNIEnvP7_jclassP9_jfieldIDE",
   "size" : 4,
   "source_file" : "libnativehelper/include_jni/jni.h"
  },
  {
   "alignment" : 4,
   "linker_set_key" : "_ZTIPFP8_jobjectP7_JNIEnvP7_jclassP9_jfieldIDhE",
   "name" : "_jobject *(*)(_JNIEnv *, _jclass *, _jfieldID *, unsigned char)",
   "referenced_type" : "_ZTIFP8_jobjectP7_JNIEnvP7_jclassP9_jfieldIDhE",
   "self_type" : "_ZTIPFP8_jobjectP7_JNIEnvP7_jclassP9_jfieldIDhE",
   "size" : 4,
   "source_file" : "libnativehelper/include_jni/jni.h"
  },
  {
   "alignment" : 4,
   "linker_set_key" : "_ZTIPFP8_jobjectP7_JNIEnvPvxE",
   "name" : "_jobject *(*)(_JNIEnv *, void *, long long)",
   "referenced_type" : "_ZTIFP8_jobjectP7_JNIEnvPvxE",
   "self_type" : "_ZTIPFP8_jobjectP7_JNIEnvPvxE",
   "size" : 4,
   "source_file" : "libnativehelper/include_jni/jni.h"
  },
  {
   "alignment" : 4,
   "linker_set_key" : "_ZTIPFP8_jobjectP7_JNIEnvS0_E",
   "name" : "_jobject *(*)(_JNIEnv *, _jobject *)",
   "referenced_type" : "_ZTIFP8_jobjectP7_JNIEnvS0_E",
   "self_type" : "_ZTIPFP8_jobjectP7_JNIEnvS0_E",
   "size" : 4,
   "source_file" : "libnativehelper/include_jni/jni.h"
  },
  {
   "alignment" : 4,
   "linker_set_key" : "_ZTIPFP8_jobjectP7_JNIEnvS0_P10_jmethodIDPK6jvalueE",
   "name" : "_jobject *(*)(_JNIEnv *, _jobject *, _jmethodID *, const jvalue *)",
   "referenced_type" : "_ZTIFP8_jobjectP7_JNIEnvS0_P10_jmethodIDPK6jvalueE",
   "self_type" : "_ZTIPFP8_jobjectP7_JNIEnvS0_P10_jmethodIDPK6jvalueE",
   "size" : 4,
   "source_file" : "libnativehelper/include_jni/jni.h"
  },
  {
   "alignment" : 4,
   "linker_set_key" : "_ZTIPFP8_jobjectP7_JNIEnvS0_P10_jmethodIDSt9__va_listE",
   "name" : "_jobject *(*)(_JNIEnv *, _jobject *, _jmethodID *, std::__va_list)",
   "referenced_type" : "_ZTIFP8_jobjectP7_JNIEnvS0_P10_jmethodIDSt9__va_listE",
   "self_type" : "_ZTIPFP8_jobjectP7_JNIEnvS0_P10_jmethodIDSt9__va_listE",
   "size" : 4,
   "source_file" : "libnativehelper/include_jni/jni.h"
  },
  {
   "alignment" : 4,
   "linker_set_key" : "_ZTIPFP8_jobjectP7_JNIEnvS0_P10_jmethodIDzE",
   "name" : "_jobject *(*)(_JNIEnv *, _jobject *, _jmethodID *, ...)",
   "referenced_type" : "_ZTIFP8_jobjectP7_JNIEnvS0_P10_jmethodIDzE",
   "self_type" : "_ZTIPFP8_jobjectP7_JNIEnvS0_P10_jmethodIDzE",
   "size" : 4,
   "source_file" : "libnativehelper/include_jni/jni.h"
  },
  {
   "alignment" : 4,
   "linker_set_key" : "_ZTIPFP8_jobjectP7_JNIEnvS0_P7_jclassP10_jmethodIDPK6jvalueE",
   "name" : "_jobject *(*)(_JNIEnv *, _jobject *, _jclass *, _jmethodID *, const jvalue *)",
   "referenced_type" : "_ZTIFP8_jobjectP7_JNIEnvS0_P7_jclassP10_jmethodIDPK6jvalueE",
   "self_type" : "_ZTIPFP8_jobjectP7_JNIEnvS0_P7_jclassP10_jmethodIDPK6jvalueE",
   "size" : 4,
   "source_file" : "libnativehelper/include_jni/jni.h"
  },
  {
   "alignment" : 4,
   "linker_set_key" : "_ZTIPFP8_jobjectP7_JNIEnvS0_P7_jclassP10_jmethodIDSt9__va_listE",
   "name" : "_jobject *(*)(_JNIEnv *, _jobject *, _jclass *, _jmethodID *, std::__va_list)",
   "referenced_type" : "_ZTIFP8_jobjectP7_JNIEnvS0_P7_jclassP10_jmethodIDSt9__va_listE",
   "self_type" : "_ZTIPFP8_jobjectP7_JNIEnvS0_P7_jclassP10_jmethodIDSt9__va_listE",
   "size" : 4,
   "source_file" : "libnativehelper/include_jni/jni.h"
  },
  {
   "alignment" : 4,
   "linker_set_key" : "_ZTIPFP8_jobjectP7_JNIEnvS0_P7_jclassP10_jmethodIDzE",
   "name" : "_jobject *(*)(_JNIEnv *, _jobject *, _jclass *, _jmethodID *, ...)",
   "referenced_type" : "_ZTIFP8_jobjectP7_JNIEnvS0_P7_jclassP10_jmethodIDzE",
   "self_type" : "_ZTIPFP8_jobjectP7_JNIEnvS0_P7_jclassP10_jmethodIDzE",
   "size" : 4,
   "source_file" : "libnativehelper/include_jni/jni.h"
  },
  {
   "alignment" : 4,
   "linker_set_key" : "_ZTIPFP8_jobjectP7_JNIEnvS0_P9_jfieldIDE",
   "name" : "_jobject *(*)(_JNIEnv *, _jobject *, _jfieldID *)",
   "referenced_type" : "_ZTIFP8_jobjectP7_JNIEnvS0_P9_jfieldIDE",
   "self_type" : "_ZTIPFP8_jobjectP7_JNIEnvS0_P9_jfieldIDE",
   "size" : 4,
   "source_file" : "libnativehelper/include_jni/jni.h"
  },
  {
   "alignment" : 4,
   "linker_set_key" : "_ZTIPFP8_jstringP7_JNIEnvPKcE",
   "name" : "_jstring *(*)(_JNIEnv *, const char *)",
   "referenced_type" : "_ZTIFP8_jstringP7_JNIEnvPKcE",
   "self_type" : "_ZTIPFP8_jstringP7_JNIEnvPKcE",
   "size" : 4,
   "source_file" : "libnativehelper/include_jni/jni.h"
  },
  {
   "alignment" : 4,
   "linker_set_key" : "_ZTIPFP8_jstringP7_JNIEnvPKtiE",
   "name" : "_jstring *(*)(_JNIEnv *, const unsigned short *, int)",
   "referenced_type" : "_ZTIFP8_jstringP7_JNIEnvPKtiE",
   "self_type" : "_ZTIPFP8_jstringP7_JNIEnvPKtiE",
   "size" : 4,
   "source_file" : "libnativehelper/include_jni/jni.h"
  },
  {
   "alignment" : 4,
   "linker_set_key" : "_ZTIPFP9_jfieldIDP7_JNIEnvP7_jclassPKcS6_E",
   "name" : "_jfieldID *(*)(_JNIEnv *, _jclass *, const char *, const char *)",
   "referenced_type" : "_ZTIFP9_jfieldIDP7_JNIEnvP7_jclassPKcS6_E",
   "self_type" : "_ZTIPFP9_jfieldIDP7_JNIEnvP7_jclassPKcS6_E",
   "size" : 4,
   "source_file" : "libnativehelper/include_jni/jni.h"
  },
  {
   "alignment" : 4,
   "linker_set_key" : "_ZTIPFP9_jfieldIDP7_JNIEnvP8_jobjectE",
   "name" : "_jfieldID *(*)(_JNIEnv *, _jobject *)",
   "referenced_type" : "_ZTIFP9_jfieldIDP7_JNIEnvP8_jobjectE",
   "self_type" : "_ZTIPFP9_jfieldIDP7_JNIEnvP8_jobjectE",
   "size" : 4,
   "source_file" : "libnativehelper/include_jni/jni.h"
  },
  {
   "alignment" : 4,
   "linker_set_key" : "_ZTIPFPKcP7_JNIEnvP8_jstringPhE",
   "name" : "const char *(*)(_JNIEnv *, _jstring *, unsigned char *)",
   "referenced_type" : "_ZTIFPKcP7_JNIEnvP8_jstringPhE",
   "self_type" : "_ZTIPFPKcP7_JNIEnvP8_jstringPhE",
   "size" : 4,
   "source_file" : "libnativehelper/include_jni/jni.h"
  },
  {
   "alignment" : 4,
   "linker_set_key" : "_ZTIPFPKtP7_JNIEnvP8_jstringPhE",
   "name" : "const unsigned short *(*)(_JNIEnv *, _jstring *, unsigned char *)",
   "referenced_type" : "_ZTIFPKtP7_JNIEnvP8_jstringPhE",
   "self_type" : "_ZTIPFPKtP7_JNIEnvP8_jstringPhE",
   "size" : 4,
   "source_file" : "libnativehelper/include_jni/jni.h"
  },
  {
   "alignment" : 4,
   "linker_set_key" : "_ZTIPFPaP7_JNIEnvP11_jbyteArrayPhE",
   "name" : "signed char *(*)(_JNIEnv *, _jbyteArray *, unsigned char *)",
   "referenced_type" : "_ZTIFPaP7_JNIEnvP11_jbyteArrayPhE",
   "self_type" : "_ZTIPFPaP7_JNIEnvP11_jbyteArrayPhE",
   "size" : 4,
   "source_file" : "libnativehelper/include_jni/jni.h"
  },
  {
   "alignment" : 4,
   "linker_set_key" : "_ZTIPFPdP7_JNIEnvP13_jdoubleArrayPhE",
   "name" : "double *(*)(_JNIEnv *, _jdoubleArray *, unsigned char *)",
   "referenced_type" : "_ZTIFPdP7_JNIEnvP13_jdoubleArrayPhE",
   "self_type" : "_ZTIPFPdP7_JNIEnvP13_jdoubleArrayPhE",
   "size" : 4,
   "source_file" : "libnativehelper/include_jni/jni.h"
  },
  {
   "alignment" : 4,
   "linker_set_key" : "_ZTIPFPfP7_JNIEnvP12_jfloatArrayPhE",
   "name" : "float *(*)(_JNIEnv *, _jfloatArray *, unsigned char *)",
   "referenced_type" : "_ZTIFPfP7_JNIEnvP12_jfloatArrayPhE",
   "self_type" : "_ZTIPFPfP7_JNIEnvP12_jfloatArrayPhE",
   "size" : 4,
   "source_file" : "libnativehelper/include_jni/jni.h"
  },
  {
   "alignment" : 4,
   "linker_set_key" : "_ZTIPFPhP7_JNIEnvP14_jbooleanArrayS_E",
   "name" : "unsigned char *(*)(_JNIEnv *, _jbooleanArray *, unsigned char *)",
   "referenced_type" : "_ZTIFPhP7_JNIEnvP14_jbooleanArrayS_E",
   "self_type" : "_ZTIPFPhP7_JNIEnvP14_jbooleanArrayS_E",
   "size" : 4,
   "source_file" : "libnativehelper/include_jni/jni.h"
  },
  {
   "alignment" : 4,
   "linker_set_key" : "_ZTIPFPiP7_JNIEnvP10_jintArrayPhE",
   "name" : "int *(*)(_JNIEnv *, _jintArray *, unsigned char *)",
   "referenced_type" : "_ZTIFPiP7_JNIEnvP10_jintArrayPhE",
   "self_type" : "_ZTIPFPiP7_JNIEnvP10_jintArrayPhE",
   "size" : 4,
   "source_file" : "libnativehelper/include_jni/jni.h"
  },
  {
   "alignment" : 4,
   "linker_set_key" : "_ZTIPFPsP7_JNIEnvP12_jshortArrayPhE",
   "name" : "short *(*)(_JNIEnv *, _jshortArray *, unsigned char *)",
   "referenced_type" : "_ZTIFPsP7_JNIEnvP12_jshortArrayPhE",
   "self_type" : "_ZTIPFPsP7_JNIEnvP12_jshortArrayPhE",
   "size" : 4,
   "source_file" : "libnativehelper/include_jni/jni.h"
  },
  {
   "alignment" : 4,
   "linker_set_key" : "_ZTIPFPtP7_JNIEnvP11_jcharArrayPhE",
   "name" : "unsigned short *(*)(_JNIEnv *, _jcharArray *, unsigned char *)",
   "referenced_type" : "_ZTIFPtP7_JNIEnvP11_jcharArrayPhE",
   "self_type" : "_ZTIPFPtP7_JNIEnvP11_jcharArrayPhE",
   "size" : 4,
   "source_file" : "libnativehelper/include_jni/jni.h"
  },
  {
   "alignment" : 4,
   "linker_set_key" : "_ZTIPFPvP7_JNIEnvP7_jarrayPhE",
   "name" : "void *(*)(_JNIEnv *, _jarray *, unsigned char *)",
   "referenced_type" : "_ZTIFPvP7_JNIEnvP7_jarrayPhE",
   "self_type" : "_ZTIPFPvP7_JNIEnvP7_jarrayPhE",
   "size" : 4,
   "source_file" : "libnativehelper/include_jni/jni.h"
  },
  {
   "alignment" : 4,
   "linker_set_key" : "_ZTIPFPvP7_JNIEnvP8_jobjectE",
   "name" : "void *(*)(_JNIEnv *, _jobject *)",
   "referenced_type" : "_ZTIFPvP7_JNIEnvP8_jobjectE",
   "self_type" : "_ZTIPFPvP7_JNIEnvP8_jobjectE",
   "size" : 4,
   "source_file" : "libnativehelper/include_jni/jni.h"
  },
  {
   "alignment" : 4,
   "linker_set_key" : "_ZTIPFPxP7_JNIEnvP11_jlongArrayPhE",
   "name" : "long long *(*)(_JNIEnv *, _jlongArray *, unsigned char *)",
   "referenced_type" : "_ZTIFPxP7_JNIEnvP11_jlongArrayPhE",
   "self_type" : "_ZTIPFPxP7_JNIEnvP11_jlongArrayPhE",
   "size" : 4,
   "source_file" : "libnativehelper/include_jni/jni.h"
  },
  {
   "alignment" : 4,
   "linker_set_key" : "_ZTIPFaP7_JNIEnvP7_jclassP10_jmethodIDPK6jvalueE",
   "name" : "signed char (*)(_JNIEnv *, _jclass *, _jmethodID *, const jvalue *)",
   "referenced_type" : "_ZTIFaP7_JNIEnvP7_jclassP10_jmethodIDPK6jvalueE",
   "self_type" : "_ZTIPFaP7_JNIEnvP7_jclassP10_jmethodIDPK6jvalueE",
   "size" : 4,
   "source_file" : "libnativehelper/include_jni/jni.h"
  },
  {
   "alignment" : 4,
   "linker_set_key" : "_ZTIPFaP7_JNIEnvP7_jclassP10_jmethodIDSt9__va_listE",
   "name" : "signed char (*)(_JNIEnv *, _jclass *, _jmethodID *, std::__va_list)",
   "referenced_type" : "_ZTIFaP7_JNIEnvP7_jclassP10_jmethodIDSt9__va_listE",
   "self_type" : "_ZTIPFaP7_JNIEnvP7_jclassP10_jmethodIDSt9__va_listE",
   "size" : 4,
   "source_file" : "libnativehelper/include_jni/jni.h"
  },
  {
   "alignment" : 4,
   "linker_set_key" : "_ZTIPFaP7_JNIEnvP7_jclassP10_jmethodIDzE",
   "name" : "signed char (*)(_JNIEnv *, _jclass *, _jmethodID *, ...)",
   "referenced_type" : "_ZTIFaP7_JNIEnvP7_jclassP10_jmethodIDzE",
   "self_type" : "_ZTIPFaP7_JNIEnvP7_jclassP10_jmethodIDzE",
   "size" : 4,
   "source_file" : "libnativehelper/include_jni/jni.h"
  },
  {
   "alignment" : 4,
   "linker_set_key" : "_ZTIPFaP7_JNIEnvP7_jclassP9_jfieldIDE",
   "name" : "signed char (*)(_JNIEnv *, _jclass *, _jfieldID *)",
   "referenced_type" : "_ZTIFaP7_JNIEnvP7_jclassP9_jfieldIDE",
   "self_type" : "_ZTIPFaP7_JNIEnvP7_jclassP9_jfieldIDE",
   "size" : 4,
   "source_file" : "libnativehelper/include_jni/jni.h"
  },
  {
   "alignment" : 4,
   "linker_set_key" : "_ZTIPFaP7_JNIEnvP8_jobjectP10_jmethodIDPK6jvalueE",
   "name" : "signed char (*)(_JNIEnv *, _jobject *, _jmethodID *, const jvalue *)",
   "referenced_type" : "_ZTIFaP7_JNIEnvP8_jobjectP10_jmethodIDPK6jvalueE",
   "self_type" : "_ZTIPFaP7_JNIEnvP8_jobjectP10_jmethodIDPK6jvalueE",
   "size" : 4,
   "source_file" : "libnativehelper/include_jni/jni.h"
  },
  {
   "alignment" : 4,
   "linker_set_key" : "_ZTIPFaP7_JNIEnvP8_jobjectP10_jmethodIDSt9__va_listE",
   "name" : "signed char (*)(_JNIEnv *, _jobject *, _jmethodID *, std::__va_list)",
   "referenced_type" : "_ZTIFaP7_JNIEnvP8_jobjectP10_jmethodIDSt9__va_listE",
   "self_type" : "_ZTIPFaP7_JNIEnvP8_jobjectP10_jmethodIDSt9__va_listE",
   "size" : 4,
   "source_file" : "libnativehelper/include_jni/jni.h"
  },
  {
   "alignment" : 4,
   "linker_set_key" : "_ZTIPFaP7_JNIEnvP8_jobjectP10_jmethodIDzE",
   "name" : "signed char (*)(_JNIEnv *, _jobject *, _jmethodID *, ...)",
   "referenced_type" : "_ZTIFaP7_JNIEnvP8_jobjectP10_jmethodIDzE",
   "self_type" : "_ZTIPFaP7_JNIEnvP8_jobjectP10_jmethodIDzE",
   "size" : 4,
   "source_file" : "libnativehelper/include_jni/jni.h"
  },
  {
   "alignment" : 4,
   "linker_set_key" : "_ZTIPFaP7_JNIEnvP8_jobjectP7_jclassP10_jmethodIDPK6jvalueE",
   "name" : "signed char (*)(_JNIEnv *, _jobject *, _jclass *, _jmethodID *, const jvalue *)",
   "referenced_type" : "_ZTIFaP7_JNIEnvP8_jobjectP7_jclassP10_jmethodIDPK6jvalueE",
   "self_type" : "_ZTIPFaP7_JNIEnvP8_jobjectP7_jclassP10_jmethodIDPK6jvalueE",
   "size" : 4,
   "source_file" : "libnativehelper/include_jni/jni.h"
  },
  {
   "alignment" : 4,
   "linker_set_key" : "_ZTIPFaP7_JNIEnvP8_jobjectP7_jclassP10_jmethodIDSt9__va_listE",
   "name" : "signed char (*)(_JNIEnv *, _jobject *, _jclass *, _jmethodID *, std::__va_list)",
   "referenced_type" : "_ZTIFaP7_JNIEnvP8_jobjectP7_jclassP10_jmethodIDSt9__va_listE",
   "self_type" : "_ZTIPFaP7_JNIEnvP8_jobjectP7_jclassP10_jmethodIDSt9__va_listE",
   "size" : 4,
   "source_file" : "libnativehelper/include_jni/jni.h"
  },
  {
   "alignment" : 4,
   "linker_set_key" : "_ZTIPFaP7_JNIEnvP8_jobjectP7_jclassP10_jmethodIDzE",
   "name" : "signed char (*)(_JNIEnv *, _jobject *, _jclass *, _jmethodID *, ...)",
   "referenced_type" : "_ZTIFaP7_JNIEnvP8_jobjectP7_jclassP10_jmethodIDzE",
   "self_type" : "_ZTIPFaP7_JNIEnvP8_jobjectP7_jclassP10_jmethodIDzE",
   "size" : 4,
   "source_file" : "libnativehelper/include_jni/jni.h"
  },
  {
   "alignment" : 4,
   "linker_set_key" : "_ZTIPFaP7_JNIEnvP8_jobjectP9_jfieldIDE",
   "name" : "signed char (*)(_JNIEnv *, _jobject *, _jfieldID *)",
   "referenced_type" : "_ZTIFaP7_JNIEnvP8_jobjectP9_jfieldIDE",
   "self_type" : "_ZTIPFaP7_JNIEnvP8_jobjectP9_jfieldIDE",
   "size" : 4,
   "source_file" : "libnativehelper/include_jni/jni.h"
  },
  {
   "alignment" : 4,
   "linker_set_key" : "_ZTIPFdP7_JNIEnvP7_jclassP10_jmethodIDPK6jvalueE",
   "name" : "double (*)(_JNIEnv *, _jclass *, _jmethodID *, const jvalue *)",
   "referenced_type" : "_ZTIFdP7_JNIEnvP7_jclassP10_jmethodIDPK6jvalueE",
   "self_type" : "_ZTIPFdP7_JNIEnvP7_jclassP10_jmethodIDPK6jvalueE",
   "size" : 4,
   "source_file" : "libnativehelper/include_jni/jni.h"
  },
  {
   "alignment" : 4,
   "linker_set_key" : "_ZTIPFdP7_JNIEnvP7_jclassP10_jmethodIDSt9__va_listE",
   "name" : "double (*)(_JNIEnv *, _jclass *, _jmethodID *, std::__va_list)",
   "referenced_type" : "_ZTIFdP7_JNIEnvP7_jclassP10_jmethodIDSt9__va_listE",
   "self_type" : "_ZTIPFdP7_JNIEnvP7_jclassP10_jmethodIDSt9__va_listE",
   "size" : 4,
   "source_file" : "libnativehelper/include_jni/jni.h"
  },
  {
   "alignment" : 4,
   "linker_set_key" : "_ZTIPFdP7_JNIEnvP7_jclassP10_jmethodIDzE",
   "name" : "double (*)(_JNIEnv *, _jclass *, _jmethodID *, ...)",
   "referenced_type" : "_ZTIFdP7_JNIEnvP7_jclassP10_jmethodIDzE",
   "self_type" : "_ZTIPFdP7_JNIEnvP7_jclassP10_jmethodIDzE",
   "size" : 4,
   "source_file" : "libnativehelper/include_jni/jni.h"
  },
  {
   "alignment" : 4,
   "linker_set_key" : "_ZTIPFdP7_JNIEnvP7_jclassP9_jfieldIDE",
   "name" : "double (*)(_JNIEnv *, _jclass *, _jfieldID *)",
   "referenced_type" : "_ZTIFdP7_JNIEnvP7_jclassP9_jfieldIDE",
   "self_type" : "_ZTIPFdP7_JNIEnvP7_jclassP9_jfieldIDE",
   "size" : 4,
   "source_file" : "libnativehelper/include_jni/jni.h"
  },
  {
   "alignment" : 4,
   "linker_set_key" : "_ZTIPFdP7_JNIEnvP8_jobjectP10_jmethodIDPK6jvalueE",
   "name" : "double (*)(_JNIEnv *, _jobject *, _jmethodID *, const jvalue *)",
   "referenced_type" : "_ZTIFdP7_JNIEnvP8_jobjectP10_jmethodIDPK6jvalueE",
   "self_type" : "_ZTIPFdP7_JNIEnvP8_jobjectP10_jmethodIDPK6jvalueE",
   "size" : 4,
   "source_file" : "libnativehelper/include_jni/jni.h"
  },
  {
   "alignment" : 4,
   "linker_set_key" : "_ZTIPFdP7_JNIEnvP8_jobjectP10_jmethodIDSt9__va_listE",
   "name" : "double (*)(_JNIEnv *, _jobject *, _jmethodID *, std::__va_list)",
   "referenced_type" : "_ZTIFdP7_JNIEnvP8_jobjectP10_jmethodIDSt9__va_listE",
   "self_type" : "_ZTIPFdP7_JNIEnvP8_jobjectP10_jmethodIDSt9__va_listE",
   "size" : 4,
   "source_file" : "libnativehelper/include_jni/jni.h"
  },
  {
   "alignment" : 4,
   "linker_set_key" : "_ZTIPFdP7_JNIEnvP8_jobjectP10_jmethodIDzE",
   "name" : "double (*)(_JNIEnv *, _jobject *, _jmethodID *, ...)",
   "referenced_type" : "_ZTIFdP7_JNIEnvP8_jobjectP10_jmethodIDzE",
   "self_type" : "_ZTIPFdP7_JNIEnvP8_jobjectP10_jmethodIDzE",
   "size" : 4,
   "source_file" : "libnativehelper/include_jni/jni.h"
  },
  {
   "alignment" : 4,
   "linker_set_key" : "_ZTIPFdP7_JNIEnvP8_jobjectP7_jclassP10_jmethodIDPK6jvalueE",
   "name" : "double (*)(_JNIEnv *, _jobject *, _jclass *, _jmethodID *, const jvalue *)",
   "referenced_type" : "_ZTIFdP7_JNIEnvP8_jobjectP7_jclassP10_jmethodIDPK6jvalueE",
   "self_type" : "_ZTIPFdP7_JNIEnvP8_jobjectP7_jclassP10_jmethodIDPK6jvalueE",
   "size" : 4,
   "source_file" : "libnativehelper/include_jni/jni.h"
  },
  {
   "alignment" : 4,
   "linker_set_key" : "_ZTIPFdP7_JNIEnvP8_jobjectP7_jclassP10_jmethodIDSt9__va_listE",
   "name" : "double (*)(_JNIEnv *, _jobject *, _jclass *, _jmethodID *, std::__va_list)",
   "referenced_type" : "_ZTIFdP7_JNIEnvP8_jobjectP7_jclassP10_jmethodIDSt9__va_listE",
   "self_type" : "_ZTIPFdP7_JNIEnvP8_jobjectP7_jclassP10_jmethodIDSt9__va_listE",
   "size" : 4,
   "source_file" : "libnativehelper/include_jni/jni.h"
  },
  {
   "alignment" : 4,
   "linker_set_key" : "_ZTIPFdP7_JNIEnvP8_jobjectP7_jclassP10_jmethodIDzE",
   "name" : "double (*)(_JNIEnv *, _jobject *, _jclass *, _jmethodID *, ...)",
   "referenced_type" : "_ZTIFdP7_JNIEnvP8_jobjectP7_jclassP10_jmethodIDzE",
   "self_type" : "_ZTIPFdP7_JNIEnvP8_jobjectP7_jclassP10_jmethodIDzE",
   "size" : 4,
   "source_file" : "libnativehelper/include_jni/jni.h"
  },
  {
   "alignment" : 4,
   "linker_set_key" : "_ZTIPFdP7_JNIEnvP8_jobjectP9_jfieldIDE",
   "name" : "double (*)(_JNIEnv *, _jobject *, _jfieldID *)",
   "referenced_type" : "_ZTIFdP7_JNIEnvP8_jobjectP9_jfieldIDE",
   "self_type" : "_ZTIPFdP7_JNIEnvP8_jobjectP9_jfieldIDE",
   "size" : 4,
   "source_file" : "libnativehelper/include_jni/jni.h"
  },
  {
   "alignment" : 4,
   "linker_set_key" : "_ZTIPFfP7_JNIEnvP7_jclassP10_jmethodIDPK6jvalueE",
   "name" : "float (*)(_JNIEnv *, _jclass *, _jmethodID *, const jvalue *)",
   "referenced_type" : "_ZTIFfP7_JNIEnvP7_jclassP10_jmethodIDPK6jvalueE",
   "self_type" : "_ZTIPFfP7_JNIEnvP7_jclassP10_jmethodIDPK6jvalueE",
   "size" : 4,
   "source_file" : "libnativehelper/include_jni/jni.h"
  },
  {
   "alignment" : 4,
   "linker_set_key" : "_ZTIPFfP7_JNIEnvP7_jclassP10_jmethodIDSt9__va_listE",
   "name" : "float (*)(_JNIEnv *, _jclass *, _jmethodID *, std::__va_list)",
   "referenced_type" : "_ZTIFfP7_JNIEnvP7_jclassP10_jmethodIDSt9__va_listE",
   "self_type" : "_ZTIPFfP7_JNIEnvP7_jclassP10_jmethodIDSt9__va_listE",
   "size" : 4,
   "source_file" : "libnativehelper/include_jni/jni.h"
  },
  {
   "alignment" : 4,
   "linker_set_key" : "_ZTIPFfP7_JNIEnvP7_jclassP10_jmethodIDzE",
   "name" : "float (*)(_JNIEnv *, _jclass *, _jmethodID *, ...)",
   "referenced_type" : "_ZTIFfP7_JNIEnvP7_jclassP10_jmethodIDzE",
   "self_type" : "_ZTIPFfP7_JNIEnvP7_jclassP10_jmethodIDzE",
   "size" : 4,
   "source_file" : "libnativehelper/include_jni/jni.h"
  },
  {
   "alignment" : 4,
   "linker_set_key" : "_ZTIPFfP7_JNIEnvP7_jclassP9_jfieldIDE",
   "name" : "float (*)(_JNIEnv *, _jclass *, _jfieldID *)",
   "referenced_type" : "_ZTIFfP7_JNIEnvP7_jclassP9_jfieldIDE",
   "self_type" : "_ZTIPFfP7_JNIEnvP7_jclassP9_jfieldIDE",
   "size" : 4,
   "source_file" : "libnativehelper/include_jni/jni.h"
  },
  {
   "alignment" : 4,
   "linker_set_key" : "_ZTIPFfP7_JNIEnvP8_jobjectP10_jmethodIDPK6jvalueE",
   "name" : "float (*)(_JNIEnv *, _jobject *, _jmethodID *, const jvalue *)",
   "referenced_type" : "_ZTIFfP7_JNIEnvP8_jobjectP10_jmethodIDPK6jvalueE",
   "self_type" : "_ZTIPFfP7_JNIEnvP8_jobjectP10_jmethodIDPK6jvalueE",
   "size" : 4,
   "source_file" : "libnativehelper/include_jni/jni.h"
  },
  {
   "alignment" : 4,
   "linker_set_key" : "_ZTIPFfP7_JNIEnvP8_jobjectP10_jmethodIDSt9__va_listE",
   "name" : "float (*)(_JNIEnv *, _jobject *, _jmethodID *, std::__va_list)",
   "referenced_type" : "_ZTIFfP7_JNIEnvP8_jobjectP10_jmethodIDSt9__va_listE",
   "self_type" : "_ZTIPFfP7_JNIEnvP8_jobjectP10_jmethodIDSt9__va_listE",
   "size" : 4,
   "source_file" : "libnativehelper/include_jni/jni.h"
  },
  {
   "alignment" : 4,
   "linker_set_key" : "_ZTIPFfP7_JNIEnvP8_jobjectP10_jmethodIDzE",
   "name" : "float (*)(_JNIEnv *, _jobject *, _jmethodID *, ...)",
   "referenced_type" : "_ZTIFfP7_JNIEnvP8_jobjectP10_jmethodIDzE",
   "self_type" : "_ZTIPFfP7_JNIEnvP8_jobjectP10_jmethodIDzE",
   "size" : 4,
   "source_file" : "libnativehelper/include_jni/jni.h"
  },
  {
   "alignment" : 4,
   "linker_set_key" : "_ZTIPFfP7_JNIEnvP8_jobjectP7_jclassP10_jmethodIDPK6jvalueE",
   "name" : "float (*)(_JNIEnv *, _jobject *, _jclass *, _jmethodID *, const jvalue *)",
   "referenced_type" : "_ZTIFfP7_JNIEnvP8_jobjectP7_jclassP10_jmethodIDPK6jvalueE",
   "self_type" : "_ZTIPFfP7_JNIEnvP8_jobjectP7_jclassP10_jmethodIDPK6jvalueE",
   "size" : 4,
   "source_file" : "libnativehelper/include_jni/jni.h"
  },
  {
   "alignment" : 4,
   "linker_set_key" : "_ZTIPFfP7_JNIEnvP8_jobjectP7_jclassP10_jmethodIDSt9__va_listE",
   "name" : "float (*)(_JNIEnv *, _jobject *, _jclass *, _jmethodID *, std::__va_list)",
   "referenced_type" : "_ZTIFfP7_JNIEnvP8_jobjectP7_jclassP10_jmethodIDSt9__va_listE",
   "self_type" : "_ZTIPFfP7_JNIEnvP8_jobjectP7_jclassP10_jmethodIDSt9__va_listE",
   "size" : 4,
   "source_file" : "libnativehelper/include_jni/jni.h"
  },
  {
   "alignment" : 4,
   "linker_set_key" : "_ZTIPFfP7_JNIEnvP8_jobjectP7_jclassP10_jmethodIDzE",
   "name" : "float (*)(_JNIEnv *, _jobject *, _jclass *, _jmethodID *, ...)",
   "referenced_type" : "_ZTIFfP7_JNIEnvP8_jobjectP7_jclassP10_jmethodIDzE",
   "self_type" : "_ZTIPFfP7_JNIEnvP8_jobjectP7_jclassP10_jmethodIDzE",
   "size" : 4,
   "source_file" : "libnativehelper/include_jni/jni.h"
  },
  {
   "alignment" : 4,
   "linker_set_key" : "_ZTIPFfP7_JNIEnvP8_jobjectP9_jfieldIDE",
   "name" : "float (*)(_JNIEnv *, _jobject *, _jfieldID *)",
   "referenced_type" : "_ZTIFfP7_JNIEnvP8_jobjectP9_jfieldIDE",
   "self_type" : "_ZTIPFfP7_JNIEnvP8_jobjectP9_jfieldIDE",
   "size" : 4,
   "source_file" : "libnativehelper/include_jni/jni.h"
  },
  {
   "alignment" : 4,
   "linker_set_key" : "_ZTIPFhP7_JNIEnvE",
   "name" : "unsigned char (*)(_JNIEnv *)",
   "referenced_type" : "_ZTIFhP7_JNIEnvE",
   "self_type" : "_ZTIPFhP7_JNIEnvE",
   "size" : 4,
   "source_file" : "libnativehelper/include_jni/jni.h"
  },
  {
   "alignment" : 4,
   "linker_set_key" : "_ZTIPFhP7_JNIEnvP7_jclassP10_jmethodIDPK6jvalueE",
   "name" : "unsigned char (*)(_JNIEnv *, _jclass *, _jmethodID *, const jvalue *)",
   "referenced_type" : "_ZTIFhP7_JNIEnvP7_jclassP10_jmethodIDPK6jvalueE",
   "self_type" : "_ZTIPFhP7_JNIEnvP7_jclassP10_jmethodIDPK6jvalueE",
   "size" : 4,
   "source_file" : "libnativehelper/include_jni/jni.h"
  },
  {
   "alignment" : 4,
   "linker_set_key" : "_ZTIPFhP7_JNIEnvP7_jclassP10_jmethodIDSt9__va_listE",
   "name" : "unsigned char (*)(_JNIEnv *, _jclass *, _jmethodID *, std::__va_list)",
   "referenced_type" : "_ZTIFhP7_JNIEnvP7_jclassP10_jmethodIDSt9__va_listE",
   "self_type" : "_ZTIPFhP7_JNIEnvP7_jclassP10_jmethodIDSt9__va_listE",
   "size" : 4,
   "source_file" : "libnativehelper/include_jni/jni.h"
  },
  {
   "alignment" : 4,
   "linker_set_key" : "_ZTIPFhP7_JNIEnvP7_jclassP10_jmethodIDzE",
   "name" : "unsigned char (*)(_JNIEnv *, _jclass *, _jmethodID *, ...)",
   "referenced_type" : "_ZTIFhP7_JNIEnvP7_jclassP10_jmethodIDzE",
   "self_type" : "_ZTIPFhP7_JNIEnvP7_jclassP10_jmethodIDzE",
   "size" : 4,
   "source_file" : "libnativehelper/include_jni/jni.h"
  },
  {
   "alignment" : 4,
   "linker_set_key" : "_ZTIPFhP7_JNIEnvP7_jclassP9_jfieldIDE",
   "name" : "unsigned char (*)(_JNIEnv *, _jclass *, _jfieldID *)",
   "referenced_type" : "_ZTIFhP7_JNIEnvP7_jclassP9_jfieldIDE",
   "self_type" : "_ZTIPFhP7_JNIEnvP7_jclassP9_jfieldIDE",
   "size" : 4,
   "source_file" : "libnativehelper/include_jni/jni.h"
  },
  {
   "alignment" : 4,
   "linker_set_key" : "_ZTIPFhP7_JNIEnvP7_jclassS2_E",
   "name" : "unsigned char (*)(_JNIEnv *, _jclass *, _jclass *)",
   "referenced_type" : "_ZTIFhP7_JNIEnvP7_jclassS2_E",
   "self_type" : "_ZTIPFhP7_JNIEnvP7_jclassS2_E",
   "size" : 4,
   "source_file" : "libnativehelper/include_jni/jni.h"
  },
  {
   "alignment" : 4,
   "linker_set_key" : "_ZTIPFhP7_JNIEnvP8_jobjectP10_jmethodIDPK6jvalueE",
   "name" : "unsigned char (*)(_JNIEnv *, _jobject *, _jmethodID *, const jvalue *)",
   "referenced_type" : "_ZTIFhP7_JNIEnvP8_jobjectP10_jmethodIDPK6jvalueE",
   "self_type" : "_ZTIPFhP7_JNIEnvP8_jobjectP10_jmethodIDPK6jvalueE",
   "size" : 4,
   "source_file" : "libnativehelper/include_jni/jni.h"
  },
  {
   "alignment" : 4,
   "linker_set_key" : "_ZTIPFhP7_JNIEnvP8_jobjectP10_jmethodIDSt9__va_listE",
   "name" : "unsigned char (*)(_JNIEnv *, _jobject *, _jmethodID *, std::__va_list)",
   "referenced_type" : "_ZTIFhP7_JNIEnvP8_jobjectP10_jmethodIDSt9__va_listE",
   "self_type" : "_ZTIPFhP7_JNIEnvP8_jobjectP10_jmethodIDSt9__va_listE",
   "size" : 4,
   "source_file" : "libnativehelper/include_jni/jni.h"
  },
  {
   "alignment" : 4,
   "linker_set_key" : "_ZTIPFhP7_JNIEnvP8_jobjectP10_jmethodIDzE",
   "name" : "unsigned char (*)(_JNIEnv *, _jobject *, _jmethodID *, ...)",
   "referenced_type" : "_ZTIFhP7_JNIEnvP8_jobjectP10_jmethodIDzE",
   "self_type" : "_ZTIPFhP7_JNIEnvP8_jobjectP10_jmethodIDzE",
   "size" : 4,
   "source_file" : "libnativehelper/include_jni/jni.h"
  },
  {
   "alignment" : 4,
   "linker_set_key" : "_ZTIPFhP7_JNIEnvP8_jobjectP7_jclassE",
   "name" : "unsigned char (*)(_JNIEnv *, _jobject *, _jclass *)",
   "referenced_type" : "_ZTIFhP7_JNIEnvP8_jobjectP7_jclassE",
   "self_type" : "_ZTIPFhP7_JNIEnvP8_jobjectP7_jclassE",
   "size" : 4,
   "source_file" : "libnativehelper/include_jni/jni.h"
  },
  {
   "alignment" : 4,
   "linker_set_key" : "_ZTIPFhP7_JNIEnvP8_jobjectP7_jclassP10_jmethodIDPK6jvalueE",
   "name" : "unsigned char (*)(_JNIEnv *, _jobject *, _jclass *, _jmethodID *, const jvalue *)",
   "referenced_type" : "_ZTIFhP7_JNIEnvP8_jobjectP7_jclassP10_jmethodIDPK6jvalueE",
   "self_type" : "_ZTIPFhP7_JNIEnvP8_jobjectP7_jclassP10_jmethodIDPK6jvalueE",
   "size" : 4,
   "source_file" : "libnativehelper/include_jni/jni.h"
  },
  {
   "alignment" : 4,
   "linker_set_key" : "_ZTIPFhP7_JNIEnvP8_jobjectP7_jclassP10_jmethodIDSt9__va_listE",
   "name" : "unsigned char (*)(_JNIEnv *, _jobject *, _jclass *, _jmethodID *, std::__va_list)",
   "referenced_type" : "_ZTIFhP7_JNIEnvP8_jobjectP7_jclassP10_jmethodIDSt9__va_listE",
   "self_type" : "_ZTIPFhP7_JNIEnvP8_jobjectP7_jclassP10_jmethodIDSt9__va_listE",
   "size" : 4,
   "source_file" : "libnativehelper/include_jni/jni.h"
  },
  {
   "alignment" : 4,
   "linker_set_key" : "_ZTIPFhP7_JNIEnvP8_jobjectP7_jclassP10_jmethodIDzE",
   "name" : "unsigned char (*)(_JNIEnv *, _jobject *, _jclass *, _jmethodID *, ...)",
   "referenced_type" : "_ZTIFhP7_JNIEnvP8_jobjectP7_jclassP10_jmethodIDzE",
   "self_type" : "_ZTIPFhP7_JNIEnvP8_jobjectP7_jclassP10_jmethodIDzE",
   "size" : 4,
   "source_file" : "libnativehelper/include_jni/jni.h"
  },
  {
   "alignment" : 4,
   "linker_set_key" : "_ZTIPFhP7_JNIEnvP8_jobjectP9_jfieldIDE",
   "name" : "unsigned char (*)(_JNIEnv *, _jobject *, _jfieldID *)",
   "referenced_type" : "_ZTIFhP7_JNIEnvP8_jobjectP9_jfieldIDE",
   "self_type" : "_ZTIPFhP7_JNIEnvP8_jobjectP9_jfieldIDE",
   "size" : 4,
   "source_file" : "libnativehelper/include_jni/jni.h"
  },
  {
   "alignment" : 4,
   "linker_set_key" : "_ZTIPFhP7_JNIEnvP8_jobjectS2_E",
   "name" : "unsigned char (*)(_JNIEnv *, _jobject *, _jobject *)",
   "referenced_type" : "_ZTIFhP7_JNIEnvP8_jobjectS2_E",
   "self_type" : "_ZTIPFhP7_JNIEnvP8_jobjectS2_E",
   "size" : 4,
   "source_file" : "libnativehelper/include_jni/jni.h"
  },
  {
   "alignment" : 4,
   "linker_set_key" : "_ZTIPFiP7_JNIEnvE",
   "name" : "int (*)(_JNIEnv *)",
   "referenced_type" : "_ZTIFiP7_JNIEnvE",
   "self_type" : "_ZTIPFiP7_JNIEnvE",
   "size" : 4,
   "source_file" : "libnativehelper/include_jni/jni.h"
  },
  {
   "alignment" : 4,
   "linker_set_key" : "_ZTIPFiP7_JNIEnvP11_jthrowableE",
   "name" : "int (*)(_JNIEnv *, _jthrowable *)",
   "referenced_type" : "_ZTIFiP7_JNIEnvP11_jthrowableE",
   "self_type" : "_ZTIPFiP7_JNIEnvP11_jthrowableE",
   "size" : 4,
   "source_file" : "libnativehelper/include_jni/jni.h"
  },
  {
   "alignment" : 4,
   "linker_set_key" : "_ZTIPFiP7_JNIEnvP7_jarrayE",
   "name" : "int (*)(_JNIEnv *, _jarray *)",
   "referenced_type" : "_ZTIFiP7_JNIEnvP7_jarrayE",
   "self_type" : "_ZTIPFiP7_JNIEnvP7_jarrayE",
   "size" : 4,
   "source_file" : "libnativehelper/include_jni/jni.h"
  },
  {
   "alignment" : 4,
   "linker_set_key" : "_ZTIPFiP7_JNIEnvP7_jclassE",
   "name" : "int (*)(_JNIEnv *, _jclass *)",
   "referenced_type" : "_ZTIFiP7_JNIEnvP7_jclassE",
   "self_type" : "_ZTIPFiP7_JNIEnvP7_jclassE",
   "size" : 4,
   "source_file" : "libnativehelper/include_jni/jni.h"
  },
  {
   "alignment" : 4,
   "linker_set_key" : "_ZTIPFiP7_JNIEnvP7_jclassP10_jmethodIDPK6jvalueE",
   "name" : "int (*)(_JNIEnv *, _jclass *, _jmethodID *, const jvalue *)",
   "referenced_type" : "_ZTIFiP7_JNIEnvP7_jclassP10_jmethodIDPK6jvalueE",
   "self_type" : "_ZTIPFiP7_JNIEnvP7_jclassP10_jmethodIDPK6jvalueE",
   "size" : 4,
   "source_file" : "libnativehelper/include_jni/jni.h"
  },
  {
   "alignment" : 4,
   "linker_set_key" : "_ZTIPFiP7_JNIEnvP7_jclassP10_jmethodIDSt9__va_listE",
   "name" : "int (*)(_JNIEnv *, _jclass *, _jmethodID *, std::__va_list)",
   "referenced_type" : "_ZTIFiP7_JNIEnvP7_jclassP10_jmethodIDSt9__va_listE",
   "self_type" : "_ZTIPFiP7_JNIEnvP7_jclassP10_jmethodIDSt9__va_listE",
   "size" : 4,
   "source_file" : "libnativehelper/include_jni/jni.h"
  },
  {
   "alignment" : 4,
   "linker_set_key" : "_ZTIPFiP7_JNIEnvP7_jclassP10_jmethodIDzE",
   "name" : "int (*)(_JNIEnv *, _jclass *, _jmethodID *, ...)",
   "referenced_type" : "_ZTIFiP7_JNIEnvP7_jclassP10_jmethodIDzE",
   "self_type" : "_ZTIPFiP7_JNIEnvP7_jclassP10_jmethodIDzE",
   "size" : 4,
   "source_file" : "libnativehelper/include_jni/jni.h"
  },
  {
   "alignment" : 4,
   "linker_set_key" : "_ZTIPFiP7_JNIEnvP7_jclassP9_jfieldIDE",
   "name" : "int (*)(_JNIEnv *, _jclass *, _jfieldID *)",
   "referenced_type" : "_ZTIFiP7_JNIEnvP7_jclassP9_jfieldIDE",
   "self_type" : "_ZTIPFiP7_JNIEnvP7_jclassP9_jfieldIDE",
   "size" : 4,
   "source_file" : "libnativehelper/include_jni/jni.h"
  },
  {
   "alignment" : 4,
   "linker_set_key" : "_ZTIPFiP7_JNIEnvP7_jclassPK15JNINativeMethodiE",
   "name" : "int (*)(_JNIEnv *, _jclass *, const JNINativeMethod *, int)",
   "referenced_type" : "_ZTIFiP7_JNIEnvP7_jclassPK15JNINativeMethodiE",
   "self_type" : "_ZTIPFiP7_JNIEnvP7_jclassPK15JNINativeMethodiE",
   "size" : 4,
   "source_file" : "libnativehelper/include_jni/jni.h"
  },
  {
   "alignment" : 4,
   "linker_set_key" : "_ZTIPFiP7_JNIEnvP7_jclassPKcE",
   "name" : "int (*)(_JNIEnv *, _jclass *, const char *)",
   "referenced_type" : "_ZTIFiP7_JNIEnvP7_jclassPKcE",
   "self_type" : "_ZTIPFiP7_JNIEnvP7_jclassPKcE",
   "size" : 4,
   "source_file" : "libnativehelper/include_jni/jni.h"
  },
  {
   "alignment" : 4,
   "linker_set_key" : "_ZTIPFiP7_JNIEnvP8_jobjectE",
   "name" : "int (*)(_JNIEnv *, _jobject *)",
   "referenced_type" : "_ZTIFiP7_JNIEnvP8_jobjectE",
   "self_type" : "_ZTIPFiP7_JNIEnvP8_jobjectE",
   "size" : 4,
   "source_file" : "libnativehelper/include_jni/jni.h"
  },
  {
   "alignment" : 4,
   "linker_set_key" : "_ZTIPFiP7_JNIEnvP8_jobjectP10_jmethodIDPK6jvalueE",
   "name" : "int (*)(_JNIEnv *, _jobject *, _jmethodID *, const jvalue *)",
   "referenced_type" : "_ZTIFiP7_JNIEnvP8_jobjectP10_jmethodIDPK6jvalueE",
   "self_type" : "_ZTIPFiP7_JNIEnvP8_jobjectP10_jmethodIDPK6jvalueE",
   "size" : 4,
   "source_file" : "libnativehelper/include_jni/jni.h"
  },
  {
   "alignment" : 4,
   "linker_set_key" : "_ZTIPFiP7_JNIEnvP8_jobjectP10_jmethodIDSt9__va_listE",
   "name" : "int (*)(_JNIEnv *, _jobject *, _jmethodID *, std::__va_list)",
   "referenced_type" : "_ZTIFiP7_JNIEnvP8_jobjectP10_jmethodIDSt9__va_listE",
   "self_type" : "_ZTIPFiP7_JNIEnvP8_jobjectP10_jmethodIDSt9__va_listE",
   "size" : 4,
   "source_file" : "libnativehelper/include_jni/jni.h"
  },
  {
   "alignment" : 4,
   "linker_set_key" : "_ZTIPFiP7_JNIEnvP8_jobjectP10_jmethodIDzE",
   "name" : "int (*)(_JNIEnv *, _jobject *, _jmethodID *, ...)",
   "referenced_type" : "_ZTIFiP7_JNIEnvP8_jobjectP10_jmethodIDzE",
   "self_type" : "_ZTIPFiP7_JNIEnvP8_jobjectP10_jmethodIDzE",
   "size" : 4,
   "source_file" : "libnativehelper/include_jni/jni.h"
  },
  {
   "alignment" : 4,
   "linker_set_key" : "_ZTIPFiP7_JNIEnvP8_jobjectP7_jclassP10_jmethodIDPK6jvalueE",
   "name" : "int (*)(_JNIEnv *, _jobject *, _jclass *, _jmethodID *, const jvalue *)",
   "referenced_type" : "_ZTIFiP7_JNIEnvP8_jobjectP7_jclassP10_jmethodIDPK6jvalueE",
   "self_type" : "_ZTIPFiP7_JNIEnvP8_jobjectP7_jclassP10_jmethodIDPK6jvalueE",
   "size" : 4,
   "source_file" : "libnativehelper/include_jni/jni.h"
  },
  {
   "alignment" : 4,
   "linker_set_key" : "_ZTIPFiP7_JNIEnvP8_jobjectP7_jclassP10_jmethodIDSt9__va_listE",
   "name" : "int (*)(_JNIEnv *, _jobject *, _jclass *, _jmethodID *, std::__va_list)",
   "referenced_type" : "_ZTIFiP7_JNIEnvP8_jobjectP7_jclassP10_jmethodIDSt9__va_listE",
   "self_type" : "_ZTIPFiP7_JNIEnvP8_jobjectP7_jclassP10_jmethodIDSt9__va_listE",
   "size" : 4,
   "source_file" : "libnativehelper/include_jni/jni.h"
  },
  {
   "alignment" : 4,
   "linker_set_key" : "_ZTIPFiP7_JNIEnvP8_jobjectP7_jclassP10_jmethodIDzE",
   "name" : "int (*)(_JNIEnv *, _jobject *, _jclass *, _jmethodID *, ...)",
   "referenced_type" : "_ZTIFiP7_JNIEnvP8_jobjectP7_jclassP10_jmethodIDzE",
   "self_type" : "_ZTIPFiP7_JNIEnvP8_jobjectP7_jclassP10_jmethodIDzE",
   "size" : 4,
   "source_file" : "libnativehelper/include_jni/jni.h"
  },
  {
   "alignment" : 4,
   "linker_set_key" : "_ZTIPFiP7_JNIEnvP8_jobjectP9_jfieldIDE",
   "name" : "int (*)(_JNIEnv *, _jobject *, _jfieldID *)",
   "referenced_type" : "_ZTIFiP7_JNIEnvP8_jobjectP9_jfieldIDE",
   "self_type" : "_ZTIPFiP7_JNIEnvP8_jobjectP9_jfieldIDE",
   "size" : 4,
   "source_file" : "libnativehelper/include_jni/jni.h"
  },
  {
   "alignment" : 4,
   "linker_set_key" : "_ZTIPFiP7_JNIEnvP8_jstringE",
   "name" : "int (*)(_JNIEnv *, _jstring *)",
   "referenced_type" : "_ZTIFiP7_JNIEnvP8_jstringE",
   "self_type" : "_ZTIPFiP7_JNIEnvP8_jstringE",
   "size" : 4,
   "source_file" : "libnativehelper/include_jni/jni.h"
  },
  {
   "alignment" : 4,
   "linker_set_key" : "_ZTIPFiP7_JNIEnvPP7_JavaVME",
   "name" : "int (*)(_JNIEnv *, _JavaVM **)",
   "referenced_type" : "_ZTIFiP7_JNIEnvPP7_JavaVME",
   "self_type" : "_ZTIPFiP7_JNIEnvPP7_JavaVME",
   "size" : 4,
   "source_file" : "libnativehelper/include_jni/jni.h"
  },
  {
   "alignment" : 4,
   "linker_set_key" : "_ZTIPFiP7_JNIEnviE",
   "name" : "int (*)(_JNIEnv *, int)",
   "referenced_type" : "_ZTIFiP7_JNIEnviE",
   "self_type" : "_ZTIPFiP7_JNIEnviE",
   "size" : 4,
   "source_file" : "libnativehelper/include_jni/jni.h"
  },
  {
   "alignment" : 4,
   "linker_set_key" : "_ZTIPFiP7_JavaVME",
   "name" : "int (*)(_JavaVM *)",
   "referenced_type" : "_ZTIFiP7_JavaVME",
   "self_type" : "_ZTIPFiP7_JavaVME",
   "size" : 4,
   "source_file" : "libnativehelper/include_jni/jni.h"
  },
  {
   "alignment" : 4,
   "linker_set_key" : "_ZTIPFiP7_JavaVMPP7_JNIEnvPvE",
   "name" : "int (*)(_JavaVM *, _JNIEnv **, void *)",
   "referenced_type" : "_ZTIFiP7_JavaVMPP7_JNIEnvPvE",
   "self_type" : "_ZTIPFiP7_JavaVMPP7_JNIEnvPvE",
   "size" : 4,
   "source_file" : "libnativehelper/include_jni/jni.h"
  },
  {
   "alignment" : 4,
   "linker_set_key" : "_ZTIPFiP7_JavaVMPPviE",
   "name" : "int (*)(_JavaVM *, void **, int)",
   "referenced_type" : "_ZTIFiP7_JavaVMPPviE",
   "self_type" : "_ZTIPFiP7_JavaVMPPviE",
   "size" : 4,
   "source_file" : "libnativehelper/include_jni/jni.h"
  },
  {
   "alignment" : 4,
   "linker_set_key" : "_ZTIPFsP7_JNIEnvP7_jclassP10_jmethodIDPK6jvalueE",
   "name" : "short (*)(_JNIEnv *, _jclass *, _jmethodID *, const jvalue *)",
   "referenced_type" : "_ZTIFsP7_JNIEnvP7_jclassP10_jmethodIDPK6jvalueE",
   "self_type" : "_ZTIPFsP7_JNIEnvP7_jclassP10_jmethodIDPK6jvalueE",
   "size" : 4,
   "source_file" : "libnativehelper/include_jni/jni.h"
  },
  {
   "alignment" : 4,
   "linker_set_key" : "_ZTIPFsP7_JNIEnvP7_jclassP10_jmethodIDSt9__va_listE",
   "name" : "short (*)(_JNIEnv *, _jclass *, _jmethodID *, std::__va_list)",
   "referenced_type" : "_ZTIFsP7_JNIEnvP7_jclassP10_jmethodIDSt9__va_listE",
   "self_type" : "_ZTIPFsP7_JNIEnvP7_jclassP10_jmethodIDSt9__va_listE",
   "size" : 4,
   "source_file" : "libnativehelper/include_jni/jni.h"
  },
  {
   "alignment" : 4,
   "linker_set_key" : "_ZTIPFsP7_JNIEnvP7_jclassP10_jmethodIDzE",
   "name" : "short (*)(_JNIEnv *, _jclass *, _jmethodID *, ...)",
   "referenced_type" : "_ZTIFsP7_JNIEnvP7_jclassP10_jmethodIDzE",
   "self_type" : "_ZTIPFsP7_JNIEnvP7_jclassP10_jmethodIDzE",
   "size" : 4,
   "source_file" : "libnativehelper/include_jni/jni.h"
  },
  {
   "alignment" : 4,
   "linker_set_key" : "_ZTIPFsP7_JNIEnvP7_jclassP9_jfieldIDE",
   "name" : "short (*)(_JNIEnv *, _jclass *, _jfieldID *)",
   "referenced_type" : "_ZTIFsP7_JNIEnvP7_jclassP9_jfieldIDE",
   "self_type" : "_ZTIPFsP7_JNIEnvP7_jclassP9_jfieldIDE",
   "size" : 4,
   "source_file" : "libnativehelper/include_jni/jni.h"
  },
  {
   "alignment" : 4,
   "linker_set_key" : "_ZTIPFsP7_JNIEnvP8_jobjectP10_jmethodIDPK6jvalueE",
   "name" : "short (*)(_JNIEnv *, _jobject *, _jmethodID *, const jvalue *)",
   "referenced_type" : "_ZTIFsP7_JNIEnvP8_jobjectP10_jmethodIDPK6jvalueE",
   "self_type" : "_ZTIPFsP7_JNIEnvP8_jobjectP10_jmethodIDPK6jvalueE",
   "size" : 4,
   "source_file" : "libnativehelper/include_jni/jni.h"
  },
  {
   "alignment" : 4,
   "linker_set_key" : "_ZTIPFsP7_JNIEnvP8_jobjectP10_jmethodIDSt9__va_listE",
   "name" : "short (*)(_JNIEnv *, _jobject *, _jmethodID *, std::__va_list)",
   "referenced_type" : "_ZTIFsP7_JNIEnvP8_jobjectP10_jmethodIDSt9__va_listE",
   "self_type" : "_ZTIPFsP7_JNIEnvP8_jobjectP10_jmethodIDSt9__va_listE",
   "size" : 4,
   "source_file" : "libnativehelper/include_jni/jni.h"
  },
  {
   "alignment" : 4,
   "linker_set_key" : "_ZTIPFsP7_JNIEnvP8_jobjectP10_jmethodIDzE",
   "name" : "short (*)(_JNIEnv *, _jobject *, _jmethodID *, ...)",
   "referenced_type" : "_ZTIFsP7_JNIEnvP8_jobjectP10_jmethodIDzE",
   "self_type" : "_ZTIPFsP7_JNIEnvP8_jobjectP10_jmethodIDzE",
   "size" : 4,
   "source_file" : "libnativehelper/include_jni/jni.h"
  },
  {
   "alignment" : 4,
   "linker_set_key" : "_ZTIPFsP7_JNIEnvP8_jobjectP7_jclassP10_jmethodIDPK6jvalueE",
   "name" : "short (*)(_JNIEnv *, _jobject *, _jclass *, _jmethodID *, const jvalue *)",
   "referenced_type" : "_ZTIFsP7_JNIEnvP8_jobjectP7_jclassP10_jmethodIDPK6jvalueE",
   "self_type" : "_ZTIPFsP7_JNIEnvP8_jobjectP7_jclassP10_jmethodIDPK6jvalueE",
   "size" : 4,
   "source_file" : "libnativehelper/include_jni/jni.h"
  },
  {
   "alignment" : 4,
   "linker_set_key" : "_ZTIPFsP7_JNIEnvP8_jobjectP7_jclassP10_jmethodIDSt9__va_listE",
   "name" : "short (*)(_JNIEnv *, _jobject *, _jclass *, _jmethodID *, std::__va_list)",
   "referenced_type" : "_ZTIFsP7_JNIEnvP8_jobjectP7_jclassP10_jmethodIDSt9__va_listE",
   "self_type" : "_ZTIPFsP7_JNIEnvP8_jobjectP7_jclassP10_jmethodIDSt9__va_listE",
   "size" : 4,
   "source_file" : "libnativehelper/include_jni/jni.h"
  },
  {
   "alignment" : 4,
   "linker_set_key" : "_ZTIPFsP7_JNIEnvP8_jobjectP7_jclassP10_jmethodIDzE",
   "name" : "short (*)(_JNIEnv *, _jobject *, _jclass *, _jmethodID *, ...)",
   "referenced_type" : "_ZTIFsP7_JNIEnvP8_jobjectP7_jclassP10_jmethodIDzE",
   "self_type" : "_ZTIPFsP7_JNIEnvP8_jobjectP7_jclassP10_jmethodIDzE",
   "size" : 4,
   "source_file" : "libnativehelper/include_jni/jni.h"
  },
  {
   "alignment" : 4,
   "linker_set_key" : "_ZTIPFsP7_JNIEnvP8_jobjectP9_jfieldIDE",
   "name" : "short (*)(_JNIEnv *, _jobject *, _jfieldID *)",
   "referenced_type" : "_ZTIFsP7_JNIEnvP8_jobjectP9_jfieldIDE",
   "self_type" : "_ZTIPFsP7_JNIEnvP8_jobjectP9_jfieldIDE",
   "size" : 4,
   "source_file" : "libnativehelper/include_jni/jni.h"
  },
  {
   "alignment" : 4,
   "linker_set_key" : "_ZTIPFtP7_JNIEnvP7_jclassP10_jmethodIDPK6jvalueE",
   "name" : "unsigned short (*)(_JNIEnv *, _jclass *, _jmethodID *, const jvalue *)",
   "referenced_type" : "_ZTIFtP7_JNIEnvP7_jclassP10_jmethodIDPK6jvalueE",
   "self_type" : "_ZTIPFtP7_JNIEnvP7_jclassP10_jmethodIDPK6jvalueE",
   "size" : 4,
   "source_file" : "libnativehelper/include_jni/jni.h"
  },
  {
   "alignment" : 4,
   "linker_set_key" : "_ZTIPFtP7_JNIEnvP7_jclassP10_jmethodIDSt9__va_listE",
   "name" : "unsigned short (*)(_JNIEnv *, _jclass *, _jmethodID *, std::__va_list)",
   "referenced_type" : "_ZTIFtP7_JNIEnvP7_jclassP10_jmethodIDSt9__va_listE",
   "self_type" : "_ZTIPFtP7_JNIEnvP7_jclassP10_jmethodIDSt9__va_listE",
   "size" : 4,
   "source_file" : "libnativehelper/include_jni/jni.h"
  },
  {
   "alignment" : 4,
   "linker_set_key" : "_ZTIPFtP7_JNIEnvP7_jclassP10_jmethodIDzE",
   "name" : "unsigned short (*)(_JNIEnv *, _jclass *, _jmethodID *, ...)",
   "referenced_type" : "_ZTIFtP7_JNIEnvP7_jclassP10_jmethodIDzE",
   "self_type" : "_ZTIPFtP7_JNIEnvP7_jclassP10_jmethodIDzE",
   "size" : 4,
   "source_file" : "libnativehelper/include_jni/jni.h"
  },
  {
   "alignment" : 4,
   "linker_set_key" : "_ZTIPFtP7_JNIEnvP7_jclassP9_jfieldIDE",
   "name" : "unsigned short (*)(_JNIEnv *, _jclass *, _jfieldID *)",
   "referenced_type" : "_ZTIFtP7_JNIEnvP7_jclassP9_jfieldIDE",
   "self_type" : "_ZTIPFtP7_JNIEnvP7_jclassP9_jfieldIDE",
   "size" : 4,
   "source_file" : "libnativehelper/include_jni/jni.h"
  },
  {
   "alignment" : 4,
   "linker_set_key" : "_ZTIPFtP7_JNIEnvP8_jobjectP10_jmethodIDPK6jvalueE",
   "name" : "unsigned short (*)(_JNIEnv *, _jobject *, _jmethodID *, const jvalue *)",
   "referenced_type" : "_ZTIFtP7_JNIEnvP8_jobjectP10_jmethodIDPK6jvalueE",
   "self_type" : "_ZTIPFtP7_JNIEnvP8_jobjectP10_jmethodIDPK6jvalueE",
   "size" : 4,
   "source_file" : "libnativehelper/include_jni/jni.h"
  },
  {
   "alignment" : 4,
   "linker_set_key" : "_ZTIPFtP7_JNIEnvP8_jobjectP10_jmethodIDSt9__va_listE",
   "name" : "unsigned short (*)(_JNIEnv *, _jobject *, _jmethodID *, std::__va_list)",
   "referenced_type" : "_ZTIFtP7_JNIEnvP8_jobjectP10_jmethodIDSt9__va_listE",
   "self_type" : "_ZTIPFtP7_JNIEnvP8_jobjectP10_jmethodIDSt9__va_listE",
   "size" : 4,
   "source_file" : "libnativehelper/include_jni/jni.h"
  },
  {
   "alignment" : 4,
   "linker_set_key" : "_ZTIPFtP7_JNIEnvP8_jobjectP10_jmethodIDzE",
   "name" : "unsigned short (*)(_JNIEnv *, _jobject *, _jmethodID *, ...)",
   "referenced_type" : "_ZTIFtP7_JNIEnvP8_jobjectP10_jmethodIDzE",
   "self_type" : "_ZTIPFtP7_JNIEnvP8_jobjectP10_jmethodIDzE",
   "size" : 4,
   "source_file" : "libnativehelper/include_jni/jni.h"
  },
  {
   "alignment" : 4,
   "linker_set_key" : "_ZTIPFtP7_JNIEnvP8_jobjectP7_jclassP10_jmethodIDPK6jvalueE",
   "name" : "unsigned short (*)(_JNIEnv *, _jobject *, _jclass *, _jmethodID *, const jvalue *)",
   "referenced_type" : "_ZTIFtP7_JNIEnvP8_jobjectP7_jclassP10_jmethodIDPK6jvalueE",
   "self_type" : "_ZTIPFtP7_JNIEnvP8_jobjectP7_jclassP10_jmethodIDPK6jvalueE",
   "size" : 4,
   "source_file" : "libnativehelper/include_jni/jni.h"
  },
  {
   "alignment" : 4,
   "linker_set_key" : "_ZTIPFtP7_JNIEnvP8_jobjectP7_jclassP10_jmethodIDSt9__va_listE",
   "name" : "unsigned short (*)(_JNIEnv *, _jobject *, _jclass *, _jmethodID *, std::__va_list)",
   "referenced_type" : "_ZTIFtP7_JNIEnvP8_jobjectP7_jclassP10_jmethodIDSt9__va_listE",
   "self_type" : "_ZTIPFtP7_JNIEnvP8_jobjectP7_jclassP10_jmethodIDSt9__va_listE",
   "size" : 4,
   "source_file" : "libnativehelper/include_jni/jni.h"
  },
  {
   "alignment" : 4,
   "linker_set_key" : "_ZTIPFtP7_JNIEnvP8_jobjectP7_jclassP10_jmethodIDzE",
   "name" : "unsigned short (*)(_JNIEnv *, _jobject *, _jclass *, _jmethodID *, ...)",
   "referenced_type" : "_ZTIFtP7_JNIEnvP8_jobjectP7_jclassP10_jmethodIDzE",
   "self_type" : "_ZTIPFtP7_JNIEnvP8_jobjectP7_jclassP10_jmethodIDzE",
   "size" : 4,
   "source_file" : "libnativehelper/include_jni/jni.h"
  },
  {
   "alignment" : 4,
   "linker_set_key" : "_ZTIPFtP7_JNIEnvP8_jobjectP9_jfieldIDE",
   "name" : "unsigned short (*)(_JNIEnv *, _jobject *, _jfieldID *)",
   "referenced_type" : "_ZTIFtP7_JNIEnvP8_jobjectP9_jfieldIDE",
   "self_type" : "_ZTIPFtP7_JNIEnvP8_jobjectP9_jfieldIDE",
   "size" : 4,
   "source_file" : "libnativehelper/include_jni/jni.h"
  },
  {
   "alignment" : 4,
   "linker_set_key" : "_ZTIPFv6sigvalE",
   "name" : "void (*)(sigval)",
   "referenced_type" : "_ZTIFv6sigvalE",
   "self_type" : "_ZTIPFv6sigvalE",
   "size" : 4,
   "source_file" : "bionic/libc/kernel/uapi/asm-generic/siginfo.h"
  },
  {
   "alignment" : 4,
   "linker_set_key" : "_ZTIPFvP7_JNIEnvE",
   "name" : "void (*)(_JNIEnv *)",
   "referenced_type" : "_ZTIFvP7_JNIEnvE",
   "self_type" : "_ZTIPFvP7_JNIEnvE",
   "size" : 4,
   "source_file" : "libnativehelper/include_jni/jni.h"
  },
  {
   "alignment" : 4,
   "linker_set_key" : "_ZTIPFvP7_JNIEnvP10_jintArrayPiiE",
   "name" : "void (*)(_JNIEnv *, _jintArray *, int *, int)",
   "referenced_type" : "_ZTIFvP7_JNIEnvP10_jintArrayPiiE",
   "self_type" : "_ZTIPFvP7_JNIEnvP10_jintArrayPiiE",
   "size" : 4,
   "source_file" : "libnativehelper/include_jni/jni.h"
  },
  {
   "alignment" : 4,
   "linker_set_key" : "_ZTIPFvP7_JNIEnvP10_jintArrayiiPKiE",
   "name" : "void (*)(_JNIEnv *, _jintArray *, int, int, const int *)",
   "referenced_type" : "_ZTIFvP7_JNIEnvP10_jintArrayiiPKiE",
   "self_type" : "_ZTIPFvP7_JNIEnvP10_jintArrayiiPKiE",
   "size" : 4,
   "source_file" : "libnativehelper/include_jni/jni.h"
  },
  {
   "alignment" : 4,
   "linker_set_key" : "_ZTIPFvP7_JNIEnvP10_jintArrayiiPiE",
   "name" : "void (*)(_JNIEnv *, _jintArray *, int, int, int *)",
   "referenced_type" : "_ZTIFvP7_JNIEnvP10_jintArrayiiPiE",
   "self_type" : "_ZTIPFvP7_JNIEnvP10_jintArrayiiPiE",
   "size" : 4,
   "source_file" : "libnativehelper/include_jni/jni.h"
  },
  {
   "alignment" : 4,
   "linker_set_key" : "_ZTIPFvP7_JNIEnvP11_jbyteArrayPaiE",
   "name" : "void (*)(_JNIEnv *, _jbyteArray *, signed char *, int)",
   "referenced_type" : "_ZTIFvP7_JNIEnvP11_jbyteArrayPaiE",
   "self_type" : "_ZTIPFvP7_JNIEnvP11_jbyteArrayPaiE",
   "size" : 4,
   "source_file" : "libnativehelper/include_jni/jni.h"
  },
  {
   "alignment" : 4,
   "linker_set_key" : "_ZTIPFvP7_JNIEnvP11_jbyteArrayiiPKaE",
   "name" : "void (*)(_JNIEnv *, _jbyteArray *, int, int, const signed char *)",
   "referenced_type" : "_ZTIFvP7_JNIEnvP11_jbyteArrayiiPKaE",
   "self_type" : "_ZTIPFvP7_JNIEnvP11_jbyteArrayiiPKaE",
   "size" : 4,
   "source_file" : "libnativehelper/include_jni/jni.h"
  },
  {
   "alignment" : 4,
   "linker_set_key" : "_ZTIPFvP7_JNIEnvP11_jbyteArrayiiPaE",
   "name" : "void (*)(_JNIEnv *, _jbyteArray *, int, int, signed char *)",
   "referenced_type" : "_ZTIFvP7_JNIEnvP11_jbyteArrayiiPaE",
   "self_type" : "_ZTIPFvP7_JNIEnvP11_jbyteArrayiiPaE",
   "size" : 4,
   "source_file" : "libnativehelper/include_jni/jni.h"
  },
  {
   "alignment" : 4,
   "linker_set_key" : "_ZTIPFvP7_JNIEnvP11_jcharArrayPtiE",
   "name" : "void (*)(_JNIEnv *, _jcharArray *, unsigned short *, int)",
   "referenced_type" : "_ZTIFvP7_JNIEnvP11_jcharArrayPtiE",
   "self_type" : "_ZTIPFvP7_JNIEnvP11_jcharArrayPtiE",
   "size" : 4,
   "source_file" : "libnativehelper/include_jni/jni.h"
  },
  {
   "alignment" : 4,
   "linker_set_key" : "_ZTIPFvP7_JNIEnvP11_jcharArrayiiPKtE",
   "name" : "void (*)(_JNIEnv *, _jcharArray *, int, int, const unsigned short *)",
   "referenced_type" : "_ZTIFvP7_JNIEnvP11_jcharArrayiiPKtE",
   "self_type" : "_ZTIPFvP7_JNIEnvP11_jcharArrayiiPKtE",
   "size" : 4,
   "source_file" : "libnativehelper/include_jni/jni.h"
  },
  {
   "alignment" : 4,
   "linker_set_key" : "_ZTIPFvP7_JNIEnvP11_jcharArrayiiPtE",
   "name" : "void (*)(_JNIEnv *, _jcharArray *, int, int, unsigned short *)",
   "referenced_type" : "_ZTIFvP7_JNIEnvP11_jcharArrayiiPtE",
   "self_type" : "_ZTIPFvP7_JNIEnvP11_jcharArrayiiPtE",
   "size" : 4,
   "source_file" : "libnativehelper/include_jni/jni.h"
  },
  {
   "alignment" : 4,
   "linker_set_key" : "_ZTIPFvP7_JNIEnvP11_jlongArrayPxiE",
   "name" : "void (*)(_JNIEnv *, _jlongArray *, long long *, int)",
   "referenced_type" : "_ZTIFvP7_JNIEnvP11_jlongArrayPxiE",
   "self_type" : "_ZTIPFvP7_JNIEnvP11_jlongArrayPxiE",
   "size" : 4,
   "source_file" : "libnativehelper/include_jni/jni.h"
  },
  {
   "alignment" : 4,
   "linker_set_key" : "_ZTIPFvP7_JNIEnvP11_jlongArrayiiPKxE",
   "name" : "void (*)(_JNIEnv *, _jlongArray *, int, int, const long long *)",
   "referenced_type" : "_ZTIFvP7_JNIEnvP11_jlongArrayiiPKxE",
   "self_type" : "_ZTIPFvP7_JNIEnvP11_jlongArrayiiPKxE",
   "size" : 4,
   "source_file" : "libnativehelper/include_jni/jni.h"
  },
  {
   "alignment" : 4,
   "linker_set_key" : "_ZTIPFvP7_JNIEnvP11_jlongArrayiiPxE",
   "name" : "void (*)(_JNIEnv *, _jlongArray *, int, int, long long *)",
   "referenced_type" : "_ZTIFvP7_JNIEnvP11_jlongArrayiiPxE",
   "self_type" : "_ZTIPFvP7_JNIEnvP11_jlongArrayiiPxE",
   "size" : 4,
   "source_file" : "libnativehelper/include_jni/jni.h"
  },
  {
   "alignment" : 4,
   "linker_set_key" : "_ZTIPFvP7_JNIEnvP12_jfloatArrayPfiE",
   "name" : "void (*)(_JNIEnv *, _jfloatArray *, float *, int)",
   "referenced_type" : "_ZTIFvP7_JNIEnvP12_jfloatArrayPfiE",
   "self_type" : "_ZTIPFvP7_JNIEnvP12_jfloatArrayPfiE",
   "size" : 4,
   "source_file" : "libnativehelper/include_jni/jni.h"
  },
  {
   "alignment" : 4,
   "linker_set_key" : "_ZTIPFvP7_JNIEnvP12_jfloatArrayiiPKfE",
   "name" : "void (*)(_JNIEnv *, _jfloatArray *, int, int, const float *)",
   "referenced_type" : "_ZTIFvP7_JNIEnvP12_jfloatArrayiiPKfE",
   "self_type" : "_ZTIPFvP7_JNIEnvP12_jfloatArrayiiPKfE",
   "size" : 4,
   "source_file" : "libnativehelper/include_jni/jni.h"
  },
  {
   "alignment" : 4,
   "linker_set_key" : "_ZTIPFvP7_JNIEnvP12_jfloatArrayiiPfE",
   "name" : "void (*)(_JNIEnv *, _jfloatArray *, int, int, float *)",
   "referenced_type" : "_ZTIFvP7_JNIEnvP12_jfloatArrayiiPfE",
   "self_type" : "_ZTIPFvP7_JNIEnvP12_jfloatArrayiiPfE",
   "size" : 4,
   "source_file" : "libnativehelper/include_jni/jni.h"
  },
  {
   "alignment" : 4,
   "linker_set_key" : "_ZTIPFvP7_JNIEnvP12_jshortArrayPsiE",
   "name" : "void (*)(_JNIEnv *, _jshortArray *, short *, int)",
   "referenced_type" : "_ZTIFvP7_JNIEnvP12_jshortArrayPsiE",
   "self_type" : "_ZTIPFvP7_JNIEnvP12_jshortArrayPsiE",
   "size" : 4,
   "source_file" : "libnativehelper/include_jni/jni.h"
  },
  {
   "alignment" : 4,
   "linker_set_key" : "_ZTIPFvP7_JNIEnvP12_jshortArrayiiPKsE",
   "name" : "void (*)(_JNIEnv *, _jshortArray *, int, int, const short *)",
   "referenced_type" : "_ZTIFvP7_JNIEnvP12_jshortArrayiiPKsE",
   "self_type" : "_ZTIPFvP7_JNIEnvP12_jshortArrayiiPKsE",
   "size" : 4,
   "source_file" : "libnativehelper/include_jni/jni.h"
  },
  {
   "alignment" : 4,
   "linker_set_key" : "_ZTIPFvP7_JNIEnvP12_jshortArrayiiPsE",
   "name" : "void (*)(_JNIEnv *, _jshortArray *, int, int, short *)",
   "referenced_type" : "_ZTIFvP7_JNIEnvP12_jshortArrayiiPsE",
   "self_type" : "_ZTIPFvP7_JNIEnvP12_jshortArrayiiPsE",
   "size" : 4,
   "source_file" : "libnativehelper/include_jni/jni.h"
  },
  {
   "alignment" : 4,
   "linker_set_key" : "_ZTIPFvP7_JNIEnvP13_jdoubleArrayPdiE",
   "name" : "void (*)(_JNIEnv *, _jdoubleArray *, double *, int)",
   "referenced_type" : "_ZTIFvP7_JNIEnvP13_jdoubleArrayPdiE",
   "self_type" : "_ZTIPFvP7_JNIEnvP13_jdoubleArrayPdiE",
   "size" : 4,
   "source_file" : "libnativehelper/include_jni/jni.h"
  },
  {
   "alignment" : 4,
   "linker_set_key" : "_ZTIPFvP7_JNIEnvP13_jdoubleArrayiiPKdE",
   "name" : "void (*)(_JNIEnv *, _jdoubleArray *, int, int, const double *)",
   "referenced_type" : "_ZTIFvP7_JNIEnvP13_jdoubleArrayiiPKdE",
   "self_type" : "_ZTIPFvP7_JNIEnvP13_jdoubleArrayiiPKdE",
   "size" : 4,
   "source_file" : "libnativehelper/include_jni/jni.h"
  },
  {
   "alignment" : 4,
   "linker_set_key" : "_ZTIPFvP7_JNIEnvP13_jdoubleArrayiiPdE",
   "name" : "void (*)(_JNIEnv *, _jdoubleArray *, int, int, double *)",
   "referenced_type" : "_ZTIFvP7_JNIEnvP13_jdoubleArrayiiPdE",
   "self_type" : "_ZTIPFvP7_JNIEnvP13_jdoubleArrayiiPdE",
   "size" : 4,
   "source_file" : "libnativehelper/include_jni/jni.h"
  },
  {
   "alignment" : 4,
   "linker_set_key" : "_ZTIPFvP7_JNIEnvP13_jobjectArrayiP8_jobjectE",
   "name" : "void (*)(_JNIEnv *, _jobjectArray *, int, _jobject *)",
   "referenced_type" : "_ZTIFvP7_JNIEnvP13_jobjectArrayiP8_jobjectE",
   "self_type" : "_ZTIPFvP7_JNIEnvP13_jobjectArrayiP8_jobjectE",
   "size" : 4,
   "source_file" : "libnativehelper/include_jni/jni.h"
  },
  {
   "alignment" : 4,
   "linker_set_key" : "_ZTIPFvP7_JNIEnvP14_jbooleanArrayPhiE",
   "name" : "void (*)(_JNIEnv *, _jbooleanArray *, unsigned char *, int)",
   "referenced_type" : "_ZTIFvP7_JNIEnvP14_jbooleanArrayPhiE",
   "self_type" : "_ZTIPFvP7_JNIEnvP14_jbooleanArrayPhiE",
   "size" : 4,
   "source_file" : "libnativehelper/include_jni/jni.h"
  },
  {
   "alignment" : 4,
   "linker_set_key" : "_ZTIPFvP7_JNIEnvP14_jbooleanArrayiiPKhE",
   "name" : "void (*)(_JNIEnv *, _jbooleanArray *, int, int, const unsigned char *)",
   "referenced_type" : "_ZTIFvP7_JNIEnvP14_jbooleanArrayiiPKhE",
   "self_type" : "_ZTIPFvP7_JNIEnvP14_jbooleanArrayiiPKhE",
   "size" : 4,
   "source_file" : "libnativehelper/include_jni/jni.h"
  },
  {
   "alignment" : 4,
   "linker_set_key" : "_ZTIPFvP7_JNIEnvP14_jbooleanArrayiiPhE",
   "name" : "void (*)(_JNIEnv *, _jbooleanArray *, int, int, unsigned char *)",
   "referenced_type" : "_ZTIFvP7_JNIEnvP14_jbooleanArrayiiPhE",
   "self_type" : "_ZTIPFvP7_JNIEnvP14_jbooleanArrayiiPhE",
   "size" : 4,
   "source_file" : "libnativehelper/include_jni/jni.h"
  },
  {
   "alignment" : 4,
   "linker_set_key" : "_ZTIPFvP7_JNIEnvP7_jarrayPviE",
   "name" : "void (*)(_JNIEnv *, _jarray *, void *, int)",
   "referenced_type" : "_ZTIFvP7_JNIEnvP7_jarrayPviE",
   "self_type" : "_ZTIPFvP7_JNIEnvP7_jarrayPviE",
   "size" : 4,
   "source_file" : "libnativehelper/include_jni/jni.h"
  },
  {
   "alignment" : 4,
   "linker_set_key" : "_ZTIPFvP7_JNIEnvP7_jclassP10_jmethodIDPK6jvalueE",
   "name" : "void (*)(_JNIEnv *, _jclass *, _jmethodID *, const jvalue *)",
   "referenced_type" : "_ZTIFvP7_JNIEnvP7_jclassP10_jmethodIDPK6jvalueE",
   "self_type" : "_ZTIPFvP7_JNIEnvP7_jclassP10_jmethodIDPK6jvalueE",
   "size" : 4,
   "source_file" : "libnativehelper/include_jni/jni.h"
  },
  {
   "alignment" : 4,
   "linker_set_key" : "_ZTIPFvP7_JNIEnvP7_jclassP10_jmethodIDSt9__va_listE",
   "name" : "void (*)(_JNIEnv *, _jclass *, _jmethodID *, std::__va_list)",
   "referenced_type" : "_ZTIFvP7_JNIEnvP7_jclassP10_jmethodIDSt9__va_listE",
   "self_type" : "_ZTIPFvP7_JNIEnvP7_jclassP10_jmethodIDSt9__va_listE",
   "size" : 4,
   "source_file" : "libnativehelper/include_jni/jni.h"
  },
  {
   "alignment" : 4,
   "linker_set_key" : "_ZTIPFvP7_JNIEnvP7_jclassP10_jmethodIDzE",
   "name" : "void (*)(_JNIEnv *, _jclass *, _jmethodID *, ...)",
   "referenced_type" : "_ZTIFvP7_JNIEnvP7_jclassP10_jmethodIDzE",
   "self_type" : "_ZTIPFvP7_JNIEnvP7_jclassP10_jmethodIDzE",
   "size" : 4,
   "source_file" : "libnativehelper/include_jni/jni.h"
  },
  {
   "alignment" : 4,
   "linker_set_key" : "_ZTIPFvP7_JNIEnvP7_jclassP9_jfieldIDP8_jobjectE",
   "name" : "void (*)(_JNIEnv *, _jclass *, _jfieldID *, _jobject *)",
   "referenced_type" : "_ZTIFvP7_JNIEnvP7_jclassP9_jfieldIDP8_jobjectE",
   "self_type" : "_ZTIPFvP7_JNIEnvP7_jclassP9_jfieldIDP8_jobjectE",
   "size" : 4,
   "source_file" : "libnativehelper/include_jni/jni.h"
  },
  {
   "alignment" : 4,
   "linker_set_key" : "_ZTIPFvP7_JNIEnvP7_jclassP9_jfieldIDaE",
   "name" : "void (*)(_JNIEnv *, _jclass *, _jfieldID *, signed char)",
   "referenced_type" : "_ZTIFvP7_JNIEnvP7_jclassP9_jfieldIDaE",
   "self_type" : "_ZTIPFvP7_JNIEnvP7_jclassP9_jfieldIDaE",
   "size" : 4,
   "source_file" : "libnativehelper/include_jni/jni.h"
  },
  {
   "alignment" : 4,
   "linker_set_key" : "_ZTIPFvP7_JNIEnvP7_jclassP9_jfieldIDdE",
   "name" : "void (*)(_JNIEnv *, _jclass *, _jfieldID *, double)",
   "referenced_type" : "_ZTIFvP7_JNIEnvP7_jclassP9_jfieldIDdE",
   "self_type" : "_ZTIPFvP7_JNIEnvP7_jclassP9_jfieldIDdE",
   "size" : 4,
   "source_file" : "libnativehelper/include_jni/jni.h"
  },
  {
   "alignment" : 4,
   "linker_set_key" : "_ZTIPFvP7_JNIEnvP7_jclassP9_jfieldIDfE",
   "name" : "void (*)(_JNIEnv *, _jclass *, _jfieldID *, float)",
   "referenced_type" : "_ZTIFvP7_JNIEnvP7_jclassP9_jfieldIDfE",
   "self_type" : "_ZTIPFvP7_JNIEnvP7_jclassP9_jfieldIDfE",
   "size" : 4,
   "source_file" : "libnativehelper/include_jni/jni.h"
  },
  {
   "alignment" : 4,
   "linker_set_key" : "_ZTIPFvP7_JNIEnvP7_jclassP9_jfieldIDhE",
   "name" : "void (*)(_JNIEnv *, _jclass *, _jfieldID *, unsigned char)",
   "referenced_type" : "_ZTIFvP7_JNIEnvP7_jclassP9_jfieldIDhE",
   "self_type" : "_ZTIPFvP7_JNIEnvP7_jclassP9_jfieldIDhE",
   "size" : 4,
   "source_file" : "libnativehelper/include_jni/jni.h"
  },
  {
   "alignment" : 4,
   "linker_set_key" : "_ZTIPFvP7_JNIEnvP7_jclassP9_jfieldIDiE",
   "name" : "void (*)(_JNIEnv *, _jclass *, _jfieldID *, int)",
   "referenced_type" : "_ZTIFvP7_JNIEnvP7_jclassP9_jfieldIDiE",
   "self_type" : "_ZTIPFvP7_JNIEnvP7_jclassP9_jfieldIDiE",
   "size" : 4,
   "source_file" : "libnativehelper/include_jni/jni.h"
  },
  {
   "alignment" : 4,
   "linker_set_key" : "_ZTIPFvP7_JNIEnvP7_jclassP9_jfieldIDsE",
   "name" : "void (*)(_JNIEnv *, _jclass *, _jfieldID *, short)",
   "referenced_type" : "_ZTIFvP7_JNIEnvP7_jclassP9_jfieldIDsE",
   "self_type" : "_ZTIPFvP7_JNIEnvP7_jclassP9_jfieldIDsE",
   "size" : 4,
   "source_file" : "libnativehelper/include_jni/jni.h"
  },
  {
   "alignment" : 4,
   "linker_set_key" : "_ZTIPFvP7_JNIEnvP7_jclassP9_jfieldIDtE",
   "name" : "void (*)(_JNIEnv *, _jclass *, _jfieldID *, unsigned short)",
   "referenced_type" : "_ZTIFvP7_JNIEnvP7_jclassP9_jfieldIDtE",
   "self_type" : "_ZTIPFvP7_JNIEnvP7_jclassP9_jfieldIDtE",
   "size" : 4,
   "source_file" : "libnativehelper/include_jni/jni.h"
  },
  {
   "alignment" : 4,
   "linker_set_key" : "_ZTIPFvP7_JNIEnvP7_jclassP9_jfieldIDxE",
   "name" : "void (*)(_JNIEnv *, _jclass *, _jfieldID *, long long)",
   "referenced_type" : "_ZTIFvP7_JNIEnvP7_jclassP9_jfieldIDxE",
   "self_type" : "_ZTIPFvP7_JNIEnvP7_jclassP9_jfieldIDxE",
   "size" : 4,
   "source_file" : "libnativehelper/include_jni/jni.h"
  },
  {
   "alignment" : 4,
   "linker_set_key" : "_ZTIPFvP7_JNIEnvP8_jobjectE",
   "name" : "void (*)(_JNIEnv *, _jobject *)",
   "referenced_type" : "_ZTIFvP7_JNIEnvP8_jobjectE",
   "self_type" : "_ZTIPFvP7_JNIEnvP8_jobjectE",
   "size" : 4,
   "source_file" : "libnativehelper/include_jni/jni.h"
  },
  {
   "alignment" : 4,
   "linker_set_key" : "_ZTIPFvP7_JNIEnvP8_jobjectP10_jmethodIDPK6jvalueE",
   "name" : "void (*)(_JNIEnv *, _jobject *, _jmethodID *, const jvalue *)",
   "referenced_type" : "_ZTIFvP7_JNIEnvP8_jobjectP10_jmethodIDPK6jvalueE",
   "self_type" : "_ZTIPFvP7_JNIEnvP8_jobjectP10_jmethodIDPK6jvalueE",
   "size" : 4,
   "source_file" : "libnativehelper/include_jni/jni.h"
  },
  {
   "alignment" : 4,
   "linker_set_key" : "_ZTIPFvP7_JNIEnvP8_jobjectP10_jmethodIDSt9__va_listE",
   "name" : "void (*)(_JNIEnv *, _jobject *, _jmethodID *, std::__va_list)",
   "referenced_type" : "_ZTIFvP7_JNIEnvP8_jobjectP10_jmethodIDSt9__va_listE",
   "self_type" : "_ZTIPFvP7_JNIEnvP8_jobjectP10_jmethodIDSt9__va_listE",
   "size" : 4,
   "source_file" : "libnativehelper/include_jni/jni.h"
  },
  {
   "alignment" : 4,
   "linker_set_key" : "_ZTIPFvP7_JNIEnvP8_jobjectP10_jmethodIDzE",
   "name" : "void (*)(_JNIEnv *, _jobject *, _jmethodID *, ...)",
   "referenced_type" : "_ZTIFvP7_JNIEnvP8_jobjectP10_jmethodIDzE",
   "self_type" : "_ZTIPFvP7_JNIEnvP8_jobjectP10_jmethodIDzE",
   "size" : 4,
   "source_file" : "libnativehelper/include_jni/jni.h"
  },
  {
   "alignment" : 4,
   "linker_set_key" : "_ZTIPFvP7_JNIEnvP8_jobjectP7_jclassP10_jmethodIDPK6jvalueE",
   "name" : "void (*)(_JNIEnv *, _jobject *, _jclass *, _jmethodID *, const jvalue *)",
   "referenced_type" : "_ZTIFvP7_JNIEnvP8_jobjectP7_jclassP10_jmethodIDPK6jvalueE",
   "self_type" : "_ZTIPFvP7_JNIEnvP8_jobjectP7_jclassP10_jmethodIDPK6jvalueE",
   "size" : 4,
   "source_file" : "libnativehelper/include_jni/jni.h"
  },
  {
   "alignment" : 4,
   "linker_set_key" : "_ZTIPFvP7_JNIEnvP8_jobjectP7_jclassP10_jmethodIDSt9__va_listE",
   "name" : "void (*)(_JNIEnv *, _jobject *, _jclass *, _jmethodID *, std::__va_list)",
   "referenced_type" : "_ZTIFvP7_JNIEnvP8_jobjectP7_jclassP10_jmethodIDSt9__va_listE",
   "self_type" : "_ZTIPFvP7_JNIEnvP8_jobjectP7_jclassP10_jmethodIDSt9__va_listE",
   "size" : 4,
   "source_file" : "libnativehelper/include_jni/jni.h"
  },
  {
   "alignment" : 4,
   "linker_set_key" : "_ZTIPFvP7_JNIEnvP8_jobjectP7_jclassP10_jmethodIDzE",
   "name" : "void (*)(_JNIEnv *, _jobject *, _jclass *, _jmethodID *, ...)",
   "referenced_type" : "_ZTIFvP7_JNIEnvP8_jobjectP7_jclassP10_jmethodIDzE",
   "self_type" : "_ZTIPFvP7_JNIEnvP8_jobjectP7_jclassP10_jmethodIDzE",
   "size" : 4,
   "source_file" : "libnativehelper/include_jni/jni.h"
  },
  {
   "alignment" : 4,
   "linker_set_key" : "_ZTIPFvP7_JNIEnvP8_jobjectP9_jfieldIDS2_E",
   "name" : "void (*)(_JNIEnv *, _jobject *, _jfieldID *, _jobject *)",
   "referenced_type" : "_ZTIFvP7_JNIEnvP8_jobjectP9_jfieldIDS2_E",
   "self_type" : "_ZTIPFvP7_JNIEnvP8_jobjectP9_jfieldIDS2_E",
   "size" : 4,
   "source_file" : "libnativehelper/include_jni/jni.h"
  },
  {
   "alignment" : 4,
   "linker_set_key" : "_ZTIPFvP7_JNIEnvP8_jobjectP9_jfieldIDaE",
   "name" : "void (*)(_JNIEnv *, _jobject *, _jfieldID *, signed char)",
   "referenced_type" : "_ZTIFvP7_JNIEnvP8_jobjectP9_jfieldIDaE",
   "self_type" : "_ZTIPFvP7_JNIEnvP8_jobjectP9_jfieldIDaE",
   "size" : 4,
   "source_file" : "libnativehelper/include_jni/jni.h"
  },
  {
   "alignment" : 4,
   "linker_set_key" : "_ZTIPFvP7_JNIEnvP8_jobjectP9_jfieldIDdE",
   "name" : "void (*)(_JNIEnv *, _jobject *, _jfieldID *, double)",
   "referenced_type" : "_ZTIFvP7_JNIEnvP8_jobjectP9_jfieldIDdE",
   "self_type" : "_ZTIPFvP7_JNIEnvP8_jobjectP9_jfieldIDdE",
   "size" : 4,
   "source_file" : "libnativehelper/include_jni/jni.h"
  },
  {
   "alignment" : 4,
   "linker_set_key" : "_ZTIPFvP7_JNIEnvP8_jobjectP9_jfieldIDfE",
   "name" : "void (*)(_JNIEnv *, _jobject *, _jfieldID *, float)",
   "referenced_type" : "_ZTIFvP7_JNIEnvP8_jobjectP9_jfieldIDfE",
   "self_type" : "_ZTIPFvP7_JNIEnvP8_jobjectP9_jfieldIDfE",
   "size" : 4,
   "source_file" : "libnativehelper/include_jni/jni.h"
  },
  {
   "alignment" : 4,
   "linker_set_key" : "_ZTIPFvP7_JNIEnvP8_jobjectP9_jfieldIDhE",
   "name" : "void (*)(_JNIEnv *, _jobject *, _jfieldID *, unsigned char)",
   "referenced_type" : "_ZTIFvP7_JNIEnvP8_jobjectP9_jfieldIDhE",
   "self_type" : "_ZTIPFvP7_JNIEnvP8_jobjectP9_jfieldIDhE",
   "size" : 4,
   "source_file" : "libnativehelper/include_jni/jni.h"
  },
  {
   "alignment" : 4,
   "linker_set_key" : "_ZTIPFvP7_JNIEnvP8_jobjectP9_jfieldIDiE",
   "name" : "void (*)(_JNIEnv *, _jobject *, _jfieldID *, int)",
   "referenced_type" : "_ZTIFvP7_JNIEnvP8_jobjectP9_jfieldIDiE",
   "self_type" : "_ZTIPFvP7_JNIEnvP8_jobjectP9_jfieldIDiE",
   "size" : 4,
   "source_file" : "libnativehelper/include_jni/jni.h"
  },
  {
   "alignment" : 4,
   "linker_set_key" : "_ZTIPFvP7_JNIEnvP8_jobjectP9_jfieldIDsE",
   "name" : "void (*)(_JNIEnv *, _jobject *, _jfieldID *, short)",
   "referenced_type" : "_ZTIFvP7_JNIEnvP8_jobjectP9_jfieldIDsE",
   "self_type" : "_ZTIPFvP7_JNIEnvP8_jobjectP9_jfieldIDsE",
   "size" : 4,
   "source_file" : "libnativehelper/include_jni/jni.h"
  },
  {
   "alignment" : 4,
   "linker_set_key" : "_ZTIPFvP7_JNIEnvP8_jobjectP9_jfieldIDtE",
   "name" : "void (*)(_JNIEnv *, _jobject *, _jfieldID *, unsigned short)",
   "referenced_type" : "_ZTIFvP7_JNIEnvP8_jobjectP9_jfieldIDtE",
   "self_type" : "_ZTIPFvP7_JNIEnvP8_jobjectP9_jfieldIDtE",
   "size" : 4,
   "source_file" : "libnativehelper/include_jni/jni.h"
  },
  {
   "alignment" : 4,
   "linker_set_key" : "_ZTIPFvP7_JNIEnvP8_jobjectP9_jfieldIDxE",
   "name" : "void (*)(_JNIEnv *, _jobject *, _jfieldID *, long long)",
   "referenced_type" : "_ZTIFvP7_JNIEnvP8_jobjectP9_jfieldIDxE",
   "self_type" : "_ZTIPFvP7_JNIEnvP8_jobjectP9_jfieldIDxE",
   "size" : 4,
   "source_file" : "libnativehelper/include_jni/jni.h"
  },
  {
   "alignment" : 4,
   "linker_set_key" : "_ZTIPFvP7_JNIEnvP8_jstringPKcE",
   "name" : "void (*)(_JNIEnv *, _jstring *, const char *)",
   "referenced_type" : "_ZTIFvP7_JNIEnvP8_jstringPKcE",
   "self_type" : "_ZTIPFvP7_JNIEnvP8_jstringPKcE",
   "size" : 4,
   "source_file" : "libnativehelper/include_jni/jni.h"
  },
  {
   "alignment" : 4,
   "linker_set_key" : "_ZTIPFvP7_JNIEnvP8_jstringPKtE",
   "name" : "void (*)(_JNIEnv *, _jstring *, const unsigned short *)",
   "referenced_type" : "_ZTIFvP7_JNIEnvP8_jstringPKtE",
   "self_type" : "_ZTIPFvP7_JNIEnvP8_jstringPKtE",
   "size" : 4,
   "source_file" : "libnativehelper/include_jni/jni.h"
  },
  {
   "alignment" : 4,
   "linker_set_key" : "_ZTIPFvP7_JNIEnvP8_jstringiiPcE",
   "name" : "void (*)(_JNIEnv *, _jstring *, int, int, char *)",
   "referenced_type" : "_ZTIFvP7_JNIEnvP8_jstringiiPcE",
   "self_type" : "_ZTIPFvP7_JNIEnvP8_jstringiiPcE",
   "size" : 4,
   "source_file" : "libnativehelper/include_jni/jni.h"
  },
  {
   "alignment" : 4,
   "linker_set_key" : "_ZTIPFvP7_JNIEnvP8_jstringiiPtE",
   "name" : "void (*)(_JNIEnv *, _jstring *, int, int, unsigned short *)",
   "referenced_type" : "_ZTIFvP7_JNIEnvP8_jstringiiPtE",
   "self_type" : "_ZTIPFvP7_JNIEnvP8_jstringiiPtE",
   "size" : 4,
   "source_file" : "libnativehelper/include_jni/jni.h"
  },
  {
   "alignment" : 4,
   "linker_set_key" : "_ZTIPFvP7_JNIEnvPKcE",
   "name" : "void (*)(_JNIEnv *, const char *)",
   "referenced_type" : "_ZTIFvP7_JNIEnvPKcE",
   "self_type" : "_ZTIPFvP7_JNIEnvPKcE",
   "size" : 4,
   "source_file" : "libnativehelper/include_jni/jni.h"
  },
  {
   "alignment" : 4,
   "linker_set_key" : "_ZTIPFvRKNSt3__119__libcpp_debug_infoEE",
   "name" : "void (*)(const std::__1::__libcpp_debug_info &)",
   "referenced_type" : "_ZTIFvRKNSt3__119__libcpp_debug_infoEE",
   "self_type" : "_ZTIPFvRKNSt3__119__libcpp_debug_infoEE",
   "size" : 4,
   "source_file" : "external/libcxx/include/__debug"
  },
  {
   "alignment" : 4,
   "linker_set_key" : "_ZTIPFviE",
   "name" : "void (*)(int)",
   "referenced_type" : "_ZTIFviE",
   "self_type" : "_ZTIPFviE",
   "size" : 4,
   "source_file" : "bionic/libc/kernel/uapi/asm-arm/asm/signal.h"
  },
  {
   "alignment" : 4,
   "linker_set_key" : "_ZTIPFviP7siginfoPvE",
   "name" : "void (*)(int, siginfo *, void *)",
   "referenced_type" : "_ZTIFviP7siginfoPvE",
   "self_type" : "_ZTIPFviP7siginfoPvE",
   "size" : 4,
   "source_file" : "bionic/libc/kernel/uapi/asm-arm/asm/signal.h"
  },
  {
   "alignment" : 4,
   "linker_set_key" : "_ZTIPFvvE",
   "name" : "void (*)()",
   "referenced_type" : "_ZTIFvvE",
   "self_type" : "_ZTIPFvvE",
   "size" : 4,
   "source_file" : "bionic/libc/kernel/uapi/asm-arm/asm/signal.h"
  },
  {
   "alignment" : 4,
   "linker_set_key" : "_ZTIPFxP7_JNIEnvP7_jclassP10_jmethodIDPK6jvalueE",
   "name" : "long long (*)(_JNIEnv *, _jclass *, _jmethodID *, const jvalue *)",
   "referenced_type" : "_ZTIFxP7_JNIEnvP7_jclassP10_jmethodIDPK6jvalueE",
   "self_type" : "_ZTIPFxP7_JNIEnvP7_jclassP10_jmethodIDPK6jvalueE",
   "size" : 4,
   "source_file" : "libnativehelper/include_jni/jni.h"
  },
  {
   "alignment" : 4,
   "linker_set_key" : "_ZTIPFxP7_JNIEnvP7_jclassP10_jmethodIDSt9__va_listE",
   "name" : "long long (*)(_JNIEnv *, _jclass *, _jmethodID *, std::__va_list)",
   "referenced_type" : "_ZTIFxP7_JNIEnvP7_jclassP10_jmethodIDSt9__va_listE",
   "self_type" : "_ZTIPFxP7_JNIEnvP7_jclassP10_jmethodIDSt9__va_listE",
   "size" : 4,
   "source_file" : "libnativehelper/include_jni/jni.h"
  },
  {
   "alignment" : 4,
   "linker_set_key" : "_ZTIPFxP7_JNIEnvP7_jclassP10_jmethodIDzE",
   "name" : "long long (*)(_JNIEnv *, _jclass *, _jmethodID *, ...)",
   "referenced_type" : "_ZTIFxP7_JNIEnvP7_jclassP10_jmethodIDzE",
   "self_type" : "_ZTIPFxP7_JNIEnvP7_jclassP10_jmethodIDzE",
   "size" : 4,
   "source_file" : "libnativehelper/include_jni/jni.h"
  },
  {
   "alignment" : 4,
   "linker_set_key" : "_ZTIPFxP7_JNIEnvP7_jclassP9_jfieldIDE",
   "name" : "long long (*)(_JNIEnv *, _jclass *, _jfieldID *)",
   "referenced_type" : "_ZTIFxP7_JNIEnvP7_jclassP9_jfieldIDE",
   "self_type" : "_ZTIPFxP7_JNIEnvP7_jclassP9_jfieldIDE",
   "size" : 4,
   "source_file" : "libnativehelper/include_jni/jni.h"
  },
  {
   "alignment" : 4,
   "linker_set_key" : "_ZTIPFxP7_JNIEnvP8_jobjectE",
   "name" : "long long (*)(_JNIEnv *, _jobject *)",
   "referenced_type" : "_ZTIFxP7_JNIEnvP8_jobjectE",
   "self_type" : "_ZTIPFxP7_JNIEnvP8_jobjectE",
   "size" : 4,
   "source_file" : "libnativehelper/include_jni/jni.h"
  },
  {
   "alignment" : 4,
   "linker_set_key" : "_ZTIPFxP7_JNIEnvP8_jobjectP10_jmethodIDPK6jvalueE",
   "name" : "long long (*)(_JNIEnv *, _jobject *, _jmethodID *, const jvalue *)",
   "referenced_type" : "_ZTIFxP7_JNIEnvP8_jobjectP10_jmethodIDPK6jvalueE",
   "self_type" : "_ZTIPFxP7_JNIEnvP8_jobjectP10_jmethodIDPK6jvalueE",
   "size" : 4,
   "source_file" : "libnativehelper/include_jni/jni.h"
  },
  {
   "alignment" : 4,
   "linker_set_key" : "_ZTIPFxP7_JNIEnvP8_jobjectP10_jmethodIDSt9__va_listE",
   "name" : "long long (*)(_JNIEnv *, _jobject *, _jmethodID *, std::__va_list)",
   "referenced_type" : "_ZTIFxP7_JNIEnvP8_jobjectP10_jmethodIDSt9__va_listE",
   "self_type" : "_ZTIPFxP7_JNIEnvP8_jobjectP10_jmethodIDSt9__va_listE",
   "size" : 4,
   "source_file" : "libnativehelper/include_jni/jni.h"
  },
  {
   "alignment" : 4,
   "linker_set_key" : "_ZTIPFxP7_JNIEnvP8_jobjectP10_jmethodIDzE",
   "name" : "long long (*)(_JNIEnv *, _jobject *, _jmethodID *, ...)",
   "referenced_type" : "_ZTIFxP7_JNIEnvP8_jobjectP10_jmethodIDzE",
   "self_type" : "_ZTIPFxP7_JNIEnvP8_jobjectP10_jmethodIDzE",
   "size" : 4,
   "source_file" : "libnativehelper/include_jni/jni.h"
  },
  {
   "alignment" : 4,
   "linker_set_key" : "_ZTIPFxP7_JNIEnvP8_jobjectP7_jclassP10_jmethodIDPK6jvalueE",
   "name" : "long long (*)(_JNIEnv *, _jobject *, _jclass *, _jmethodID *, const jvalue *)",
   "referenced_type" : "_ZTIFxP7_JNIEnvP8_jobjectP7_jclassP10_jmethodIDPK6jvalueE",
   "self_type" : "_ZTIPFxP7_JNIEnvP8_jobjectP7_jclassP10_jmethodIDPK6jvalueE",
   "size" : 4,
   "source_file" : "libnativehelper/include_jni/jni.h"
  },
  {
   "alignment" : 4,
   "linker_set_key" : "_ZTIPFxP7_JNIEnvP8_jobjectP7_jclassP10_jmethodIDSt9__va_listE",
   "name" : "long long (*)(_JNIEnv *, _jobject *, _jclass *, _jmethodID *, std::__va_list)",
   "referenced_type" : "_ZTIFxP7_JNIEnvP8_jobjectP7_jclassP10_jmethodIDSt9__va_listE",
   "self_type" : "_ZTIPFxP7_JNIEnvP8_jobjectP7_jclassP10_jmethodIDSt9__va_listE",
   "size" : 4,
   "source_file" : "libnativehelper/include_jni/jni.h"
  },
  {
   "alignment" : 4,
   "linker_set_key" : "_ZTIPFxP7_JNIEnvP8_jobjectP7_jclassP10_jmethodIDzE",
   "name" : "long long (*)(_JNIEnv *, _jobject *, _jclass *, _jmethodID *, ...)",
   "referenced_type" : "_ZTIFxP7_JNIEnvP8_jobjectP7_jclassP10_jmethodIDzE",
   "self_type" : "_ZTIPFxP7_JNIEnvP8_jobjectP7_jclassP10_jmethodIDzE",
   "size" : 4,
   "source_file" : "libnativehelper/include_jni/jni.h"
  },
  {
   "alignment" : 4,
   "linker_set_key" : "_ZTIPFxP7_JNIEnvP8_jobjectP9_jfieldIDE",
   "name" : "long long (*)(_JNIEnv *, _jobject *, _jfieldID *)",
   "referenced_type" : "_ZTIFxP7_JNIEnvP8_jobjectP9_jfieldIDE",
   "self_type" : "_ZTIPFxP7_JNIEnvP8_jobjectP9_jfieldIDE",
   "size" : 4,
   "source_file" : "libnativehelper/include_jni/jni.h"
  },
  {
   "alignment" : 4,
   "linker_set_key" : "_ZTIPK15JNINativeMethod",
   "name" : "const JNINativeMethod *",
   "referenced_type" : "_ZTIK15JNINativeMethod",
   "self_type" : "_ZTIPK15JNINativeMethod",
   "size" : 4,
   "source_file" : "libnativehelper/include_jni/jni.h"
  },
  {
   "alignment" : 4,
   "linker_set_key" : "_ZTIPK18JNIInvokeInterface",
   "name" : "const JNIInvokeInterface *",
   "referenced_type" : "_ZTIK18JNIInvokeInterface",
   "self_type" : "_ZTIPK18JNIInvokeInterface",
   "size" : 4,
   "source_file" : "libnativehelper/include_jni/jni.h"
  },
  {
   "alignment" : 4,
   "linker_set_key" : "_ZTIPK18JNINativeInterface",
   "name" : "const JNINativeInterface *",
   "referenced_type" : "_ZTIK18JNINativeInterface",
   "self_type" : "_ZTIPK18JNINativeInterface",
   "size" : 4,
   "source_file" : "libnativehelper/include_jni/jni.h"
  },
  {
   "alignment" : 4,
   "linker_set_key" : "_ZTIPK6jvalue",
   "name" : "const jvalue *",
   "referenced_type" : "_ZTIK6jvalue",
   "self_type" : "_ZTIPK6jvalue",
   "size" : 4,
   "source_file" : "libnativehelper/include_jni/jni.h"
  },
  {
   "alignment" : 4,
   "linker_set_key" : "_ZTIPKNSt3__113__scalar_hashINS_6_PairTELj2EEE",
   "name" : "const std::__scalar_hash<std::_PairT, 2> *",
   "referenced_type" : "_ZTIKNSt3__113__scalar_hashINS_6_PairTELj2EEE",
   "self_type" : "_ZTIPKNSt3__113__scalar_hashINS_6_PairTELj2EEE",
   "size" : 4,
   "source_file" : "external/libcxx/include/utility"
  },
  {
   "alignment" : 4,
   "linker_set_key" : "_ZTIPKNSt3__113__scalar_hashIdLj2EEE",
   "name" : "const std::__scalar_hash<double, 2> *",
   "referenced_type" : "_ZTIKNSt3__113__scalar_hashIdLj2EEE",
   "self_type" : "_ZTIPKNSt3__113__scalar_hashIdLj2EEE",
   "size" : 4,
   "source_file" : "external/libcxx/include/utility"
  },
  {
   "alignment" : 4,
   "linker_set_key" : "_ZTIPKNSt3__113__scalar_hashIeLj2EEE",
   "name" : "const std::__scalar_hash<long double, 2> *",
   "referenced_type" : "_ZTIKNSt3__113__scalar_hashIeLj2EEE",
   "self_type" : "_ZTIPKNSt3__113__scalar_hashIeLj2EEE",
   "size" : 4,
   "source_file" : "external/libcxx/include/utility"
  },
  {
   "alignment" : 4,
   "linker_set_key" : "_ZTIPKNSt3__113__scalar_hashIfLj1EEE",
   "name" : "const std::__scalar_hash<float, 1> *",
   "referenced_type" : "_ZTIKNSt3__113__scalar_hashIfLj1EEE",
   "self_type" : "_ZTIPKNSt3__113__scalar_hashIfLj1EEE",
   "size" : 4,
   "source_file" : "external/libcxx/include/utility"
  },
  {
   "alignment" : 4,
   "linker_set_key" : "_ZTIPKNSt3__14hashIDiEE",
   "name" : "const std::hash<char32_t> *",
   "referenced_type" : "_ZTIKNSt3__14hashIDiEE",
   "self_type" : "_ZTIPKNSt3__14hashIDiEE",
   "size" : 4,
   "source_file" : "external/libcxx/include/utility"
  },
  {
   "alignment" : 4,
   "linker_set_key" : "_ZTIPKNSt3__14hashIDnEE",
   "name" : "const std::hash<nullptr_t> *",
   "referenced_type" : "_ZTIKNSt3__14hashIDnEE",
   "self_type" : "_ZTIPKNSt3__14hashIDnEE",
   "size" : 4,
   "source_file" : "external/libcxx/include/utility"
  },
  {
   "alignment" : 4,
   "linker_set_key" : "_ZTIPKNSt3__14hashIDsEE",
   "name" : "const std::hash<char16_t> *",
   "referenced_type" : "_ZTIKNSt3__14hashIDsEE",
   "self_type" : "_ZTIPKNSt3__14hashIDsEE",
   "size" : 4,
   "source_file" : "external/libcxx/include/utility"
  },
  {
   "alignment" : 4,
   "linker_set_key" : "_ZTIPKNSt3__14hashIaEE",
   "name" : "const std::hash<signed char> *",
   "referenced_type" : "_ZTIKNSt3__14hashIaEE",
   "self_type" : "_ZTIPKNSt3__14hashIaEE",
   "size" : 4,
   "source_file" : "external/libcxx/include/utility"
  },
  {
   "alignment" : 4,
   "linker_set_key" : "_ZTIPKNSt3__14hashIbEE",
   "name" : "const std::hash<bool> *",
   "referenced_type" : "_ZTIKNSt3__14hashIbEE",
   "self_type" : "_ZTIPKNSt3__14hashIbEE",
   "size" : 4,
   "source_file" : "external/libcxx/include/utility"
  },
  {
   "alignment" : 4,
   "linker_set_key" : "_ZTIPKNSt3__14hashIcEE",
   "name" : "const std::hash<char> *",
   "referenced_type" : "_ZTIKNSt3__14hashIcEE",
   "self_type" : "_ZTIPKNSt3__14hashIcEE",
   "size" : 4,
   "source_file" : "external/libcxx/include/utility"
  },
  {
   "alignment" : 4,
   "linker_set_key" : "_ZTIPKNSt3__14hashIdEE",
   "name" : "const std::hash<double> *",
   "referenced_type" : "_ZTIKNSt3__14hashIdEE",
   "self_type" : "_ZTIPKNSt3__14hashIdEE",
   "size" : 4,
   "source_file" : "external/libcxx/include/utility"
  },
  {
   "alignment" : 4,
   "linker_set_key" : "_ZTIPKNSt3__14hashIeEE",
   "name" : "const std::hash<long double> *",
   "referenced_type" : "_ZTIKNSt3__14hashIeEE",
   "self_type" : "_ZTIPKNSt3__14hashIeEE",
   "size" : 4,
   "source_file" : "external/libcxx/include/utility"
  },
  {
   "alignment" : 4,
   "linker_set_key" : "_ZTIPKNSt3__14hashIfEE",
   "name" : "const std::hash<float> *",
   "referenced_type" : "_ZTIKNSt3__14hashIfEE",
   "self_type" : "_ZTIPKNSt3__14hashIfEE",
   "size" : 4,
   "source_file" : "external/libcxx/include/utility"
  },
  {
   "alignment" : 4,
   "linker_set_key" : "_ZTIPKNSt3__14hashIhEE",
   "name" : "const std::hash<unsigned char> *",
   "referenced_type" : "_ZTIKNSt3__14hashIhEE",
   "self_type" : "_ZTIPKNSt3__14hashIhEE",
   "size" : 4,
   "source_file" : "external/libcxx/include/utility"
  },
  {
   "alignment" : 4,
   "linker_set_key" : "_ZTIPKNSt3__14hashIiEE",
   "name" : "const std::hash<int> *",
   "referenced_type" : "_ZTIKNSt3__14hashIiEE",
   "self_type" : "_ZTIPKNSt3__14hashIiEE",
   "size" : 4,
   "source_file" : "external/libcxx/include/utility"
  },
  {
   "alignment" : 4,
   "linker_set_key" : "_ZTIPKNSt3__14hashIjEE",
   "name" : "const std::hash<unsigned int> *",
   "referenced_type" : "_ZTIKNSt3__14hashIjEE",
   "self_type" : "_ZTIPKNSt3__14hashIjEE",
   "size" : 4,
   "source_file" : "external/libcxx/include/utility"
  },
  {
   "alignment" : 4,
   "linker_set_key" : "_ZTIPKNSt3__14hashIlEE",
   "name" : "const std::hash<long> *",
   "referenced_type" : "_ZTIKNSt3__14hashIlEE",
   "self_type" : "_ZTIPKNSt3__14hashIlEE",
   "size" : 4,
   "source_file" : "external/libcxx/include/utility"
  },
  {
   "alignment" : 4,
   "linker_set_key" : "_ZTIPKNSt3__14hashImEE",
   "name" : "const std::hash<unsigned long> *",
   "referenced_type" : "_ZTIKNSt3__14hashImEE",
   "self_type" : "_ZTIPKNSt3__14hashImEE",
   "size" : 4,
   "source_file" : "external/libcxx/include/utility"
  },
  {
   "alignment" : 4,
   "linker_set_key" : "_ZTIPKNSt3__14hashIsEE",
   "name" : "const std::hash<short> *",
   "referenced_type" : "_ZTIKNSt3__14hashIsEE",
   "self_type" : "_ZTIPKNSt3__14hashIsEE",
   "size" : 4,
   "source_file" : "external/libcxx/include/utility"
  },
  {
   "alignment" : 4,
   "linker_set_key" : "_ZTIPKNSt3__14hashItEE",
   "name" : "const std::hash<unsigned short> *",
   "referenced_type" : "_ZTIKNSt3__14hashItEE",
   "self_type" : "_ZTIPKNSt3__14hashItEE",
   "size" : 4,
   "source_file" : "external/libcxx/include/utility"
  },
  {
   "alignment" : 4,
   "linker_set_key" : "_ZTIPKNSt3__14hashIwEE",
   "name" : "const std::hash<wchar_t> *",
   "referenced_type" : "_ZTIKNSt3__14hashIwEE",
   "self_type" : "_ZTIPKNSt3__14hashIwEE",
   "size" : 4,
   "source_file" : "external/libcxx/include/utility"
  },
  {
   "alignment" : 4,
   "linker_set_key" : "_ZTIPKa",
   "name" : "const signed char *",
   "referenced_type" : "_ZTIKa",
   "self_type" : "_ZTIPKa",
   "size" : 4,
   "source_file" : "libnativehelper/include_jni/jni.h"
  },
  {
   "alignment" : 4,
   "linker_set_key" : "_ZTIPKc",
   "name" : "const char *",
   "referenced_type" : "_ZTIKc",
   "self_type" : "_ZTIPKc",
   "size" : 4,
   "source_file" : "libnativehelper/include_jni/jni.h"
  },
  {
   "alignment" : 4,
   "linker_set_key" : "_ZTIPKd",
   "name" : "const double *",
   "referenced_type" : "_ZTIKd",
   "self_type" : "_ZTIPKd",
   "size" : 4,
   "source_file" : "libnativehelper/include_jni/jni.h"
  },
  {
   "alignment" : 4,
   "linker_set_key" : "_ZTIPKf",
   "name" : "const float *",
   "referenced_type" : "_ZTIKf",
   "self_type" : "_ZTIPKf",
   "size" : 4,
   "source_file" : "libnativehelper/include_jni/jni.h"
  },
  {
   "alignment" : 4,
   "linker_set_key" : "_ZTIPKh",
   "name" : "const unsigned char *",
   "referenced_type" : "_ZTIKh",
   "self_type" : "_ZTIPKh",
   "size" : 4,
   "source_file" : "libnativehelper/include_jni/jni.h"
  },
  {
   "alignment" : 4,
   "linker_set_key" : "_ZTIPKi",
   "name" : "const int *",
   "referenced_type" : "_ZTIKi",
   "self_type" : "_ZTIPKi",
   "size" : 4,
   "source_file" : "libnativehelper/include_jni/jni.h"
  },
  {
   "alignment" : 4,
   "linker_set_key" : "_ZTIPKs",
   "name" : "const short *",
   "referenced_type" : "_ZTIKs",
   "self_type" : "_ZTIPKs",
   "size" : 4,
   "source_file" : "libnativehelper/include_jni/jni.h"
  },
  {
   "alignment" : 4,
   "linker_set_key" : "_ZTIPKt",
   "name" : "const unsigned short *",
   "referenced_type" : "_ZTIKt",
   "self_type" : "_ZTIPKt",
   "size" : 4,
   "source_file" : "libnativehelper/include_jni/jni.h"
  },
  {
   "alignment" : 4,
   "linker_set_key" : "_ZTIPKv",
   "name" : "const void *",
   "referenced_type" : "_ZTIKv",
   "self_type" : "_ZTIPKv",
   "size" : 4,
   "source_file" : "bionic/libc/include/string.h"
  },
  {
   "alignment" : 4,
   "linker_set_key" : "_ZTIPKx",
   "name" : "const long long *",
   "referenced_type" : "_ZTIKx",
   "self_type" : "_ZTIPKx",
   "size" : 4,
   "source_file" : "libnativehelper/include_jni/jni.h"
  },
  {
   "alignment" : 4,
   "linker_set_key" : "_ZTIPNSt3__110in_place_tE",
   "name" : "std::in_place_t *",
   "referenced_type" : "_ZTINSt3__110in_place_tE",
   "self_type" : "_ZTIPNSt3__110in_place_tE",
   "size" : 4,
   "source_file" : "external/libcxx/include/utility"
  },
  {
   "alignment" : 4,
   "linker_set_key" : "_ZTIPNSt3__118__sfinae_ctor_baseILb0ELb0EEE",
   "name" : "std::__sfinae_ctor_base<false, false> *",
   "referenced_type" : "_ZTINSt3__118__sfinae_ctor_baseILb0ELb0EEE",
   "self_type" : "_ZTIPNSt3__118__sfinae_ctor_baseILb0ELb0EEE",
   "size" : 4,
   "source_file" : "external/libcxx/include/__tuple"
  },
  {
   "alignment" : 4,
   "linker_set_key" : "_ZTIPNSt3__118__sfinae_ctor_baseILb0ELb1EEE",
   "name" : "std::__sfinae_ctor_base<false, true> *",
   "referenced_type" : "_ZTINSt3__118__sfinae_ctor_baseILb0ELb1EEE",
   "self_type" : "_ZTIPNSt3__118__sfinae_ctor_baseILb0ELb1EEE",
   "size" : 4,
   "source_file" : "external/libcxx/include/__tuple"
  },
  {
   "alignment" : 4,
   "linker_set_key" : "_ZTIPNSt3__118__sfinae_ctor_baseILb1ELb0EEE",
   "name" : "std::__sfinae_ctor_base<true, false> *",
   "referenced_type" : "_ZTINSt3__118__sfinae_ctor_baseILb1ELb0EEE",
   "self_type" : "_ZTIPNSt3__118__sfinae_ctor_baseILb1ELb0EEE",
   "size" : 4,
   "source_file" : "external/libcxx/include/__tuple"
  },
  {
   "alignment" : 4,
   "linker_set_key" : "_ZTIPNSt3__119__libcpp_debug_infoE",
   "name" : "std::__libcpp_debug_info *",
   "referenced_type" : "_ZTINSt3__119__libcpp_debug_infoE",
   "self_type" : "_ZTIPNSt3__119__libcpp_debug_infoE",
   "size" : 4,
   "source_file" : "external/libcxx/include/__debug"
  },
  {
   "alignment" : 4,
   "linker_set_key" : "_ZTIPNSt3__120__sfinae_assign_baseILb0ELb0EEE",
   "name" : "std::__sfinae_assign_base<false, false> *",
   "referenced_type" : "_ZTINSt3__120__sfinae_assign_baseILb0ELb0EEE",
   "self_type" : "_ZTIPNSt3__120__sfinae_assign_baseILb0ELb0EEE",
   "size" : 4,
   "source_file" : "external/libcxx/include/__tuple"
  },
  {
   "alignment" : 4,
   "linker_set_key" : "_ZTIPNSt3__120__sfinae_assign_baseILb0ELb1EEE",
   "name" : "std::__sfinae_assign_base<false, true> *",
   "referenced_type" : "_ZTINSt3__120__sfinae_assign_baseILb0ELb1EEE",
   "self_type" : "_ZTIPNSt3__120__sfinae_assign_baseILb0ELb1EEE",
   "size" : 4,
   "source_file" : "external/libcxx/include/__tuple"
  },
  {
   "alignment" : 4,
   "linker_set_key" : "_ZTIPNSt3__120__sfinae_assign_baseILb1ELb0EEE",
   "name" : "std::__sfinae_assign_base<true, false> *",
   "referenced_type" : "_ZTINSt3__120__sfinae_assign_baseILb1ELb0EEE",
   "self_type" : "_ZTIPNSt3__120__sfinae_assign_baseILb1ELb0EEE",
   "size" : 4,
   "source_file" : "external/libcxx/include/__tuple"
  },
  {
   "alignment" : 4,
   "linker_set_key" : "_ZTIPNSt3__121__murmur2_or_cityhashIjLj32EEE",
   "name" : "std::__murmur2_or_cityhash<unsigned int, 32> *",
   "referenced_type" : "_ZTINSt3__121__murmur2_or_cityhashIjLj32EEE",
   "self_type" : "_ZTIPNSt3__121__murmur2_or_cityhashIjLj32EEE",
   "size" : 4,
   "source_file" : "external/libcxx/include/utility"
  },
  {
   "alignment" : 4,
   "linker_set_key" : "_ZTIPP7_JNIEnv",
   "name" : "_JNIEnv **",
   "referenced_type" : "_ZTIP7_JNIEnv",
   "self_type" : "_ZTIPP7_JNIEnv",
   "size" : 4,
   "source_file" : "libnativehelper/include_jni/jni.h"
  },
  {
   "alignment" : 4,
   "linker_set_key" : "_ZTIPP7_JavaVM",
   "name" : "_JavaVM **",
   "referenced_type" : "_ZTIP7_JavaVM",
   "self_type" : "_ZTIPP7_JavaVM",
   "size" : 4,
   "source_file" : "libnativehelper/include_jni/jni.h"
  },
  {
   "alignment" : 4,
   "linker_set_key" : "_ZTIPPc",
   "name" : "char **",
   "referenced_type" : "_ZTIPc",
   "self_type" : "_ZTIPPc",
   "size" : 4,
   "source_file" : "bionic/libc/include/unistd.h"
  },
  {
   "alignment" : 4,
   "linker_set_key" : "_ZTIPPv",
   "name" : "void **",
   "referenced_type" : "_ZTIPv",
   "self_type" : "_ZTIPPv",
   "size" : 4,
   "source_file" : "libnativehelper/include_jni/jni.h"
  },
  {
   "alignment" : 4,
   "linker_set_key" : "_ZTIPa",
   "name" : "signed char *",
   "referenced_type" : "_ZTIa",
   "self_type" : "_ZTIPa",
   "size" : 4,
   "source_file" : "libnativehelper/include_jni/jni.h"
  },
  {
   "alignment" : 4,
   "linker_set_key" : "_ZTIPb",
   "name" : "bool *",
   "referenced_type" : "_ZTIb",
   "self_type" : "_ZTIPb",
   "size" : 4,
   "source_file" : "art/libartpalette/include/palette/palette.h"
  },
  {
   "alignment" : 4,
   "linker_set_key" : "_ZTIPc",
   "name" : "char *",
   "referenced_type" : "_ZTIc",
   "self_type" : "_ZTIPc",
   "size" : 4,
   "source_file" : "libnativehelper/include_jni/jni.h"
  },
  {
   "alignment" : 4,
   "linker_set_key" : "_ZTIPd",
   "name" : "double *",
   "referenced_type" : "_ZTId",
   "self_type" : "_ZTIPd",
   "size" : 4,
   "source_file" : "libnativehelper/include_jni/jni.h"
  },
  {
   "alignment" : 4,
   "linker_set_key" : "_ZTIPf",
   "name" : "float *",
   "referenced_type" : "_ZTIf",
   "self_type" : "_ZTIPf",
   "size" : 4,
   "source_file" : "libnativehelper/include_jni/jni.h"
  },
  {
   "alignment" : 4,
   "linker_set_key" : "_ZTIPh",
   "name" : "unsigned char *",
   "referenced_type" : "_ZTIh",
   "self_type" : "_ZTIPh",
   "size" : 4,
   "source_file" : "libnativehelper/include_jni/jni.h"
  },
  {
   "alignment" : 4,
   "linker_set_key" : "_ZTIPi",
   "name" : "int *",
   "referenced_type" : "_ZTIi",
   "self_type" : "_ZTIPi",
   "size" : 4,
   "source_file" : "libnativehelper/include_jni/jni.h"
  },
  {
   "alignment" : 4,
   "linker_set_key" : "_ZTIPs",
   "name" : "short *",
   "referenced_type" : "_ZTIs",
   "self_type" : "_ZTIPs",
   "size" : 4,
   "source_file" : "libnativehelper/include_jni/jni.h"
  },
  {
   "alignment" : 4,
   "linker_set_key" : "_ZTIPt",
   "name" : "unsigned short *",
   "referenced_type" : "_ZTIt",
   "self_type" : "_ZTIPt",
   "size" : 4,
   "source_file" : "libnativehelper/include_jni/jni.h"
  },
  {
   "alignment" : 4,
   "linker_set_key" : "_ZTIPv",
   "name" : "void *",
   "referenced_type" : "_ZTIv",
   "self_type" : "_ZTIPv",
   "size" : 4,
   "source_file" : "libnativehelper/include_jni/jni.h"
  },
  {
   "alignment" : 4,
   "linker_set_key" : "_ZTIPx",
   "name" : "long long *",
   "referenced_type" : "_ZTIx",
   "self_type" : "_ZTIPx",
   "size" : 4,
   "source_file" : "libnativehelper/include_jni/jni.h"
  }
 ],
 "qualified_types" :
 [
  {
   "alignment" : 4,
   "is_const" : true,
   "linker_set_key" : "_ZTIA65_KPKc",
   "name" : "const char *const[65]",
   "referenced_type" : "_ZTIA65_PKc",
   "self_type" : "_ZTIA65_KPKc",
   "size" : 260,
   "source_file" : "bionic/libc/include/signal.h"
  },
  {
   "alignment" : 4,
   "is_const" : true,
   "linker_set_key" : "_ZTIK15JNINativeMethod",
   "name" : "const JNINativeMethod",
   "referenced_type" : "_ZTI15JNINativeMethod",
   "self_type" : "_ZTIK15JNINativeMethod",
   "size" : 12,
   "source_file" : "libnativehelper/include_jni/jni.h"
  },
  {
   "alignment" : 4,
   "is_const" : true,
   "linker_set_key" : "_ZTIK18JNIInvokeInterface",
   "name" : "const JNIInvokeInterface",
   "referenced_type" : "_ZTI18JNIInvokeInterface",
   "self_type" : "_ZTIK18JNIInvokeInterface",
   "size" : 32,
   "source_file" : "libnativehelper/include_jni/jni.h"
  },
  {
   "alignment" : 4,
   "is_const" : true,
   "linker_set_key" : "_ZTIK18JNINativeInterface",
   "name" : "const JNINativeInterface",
   "referenced_type" : "_ZTI18JNINativeInterface",
   "self_type" : "_ZTIK18JNINativeInterface",
   "size" : 932,
   "source_file" : "libnativehelper/include_jni/jni.h"
  },
  {
   "alignment" : 8,
   "is_const" : true,
   "linker_set_key" : "_ZTIK6jvalue",
   "name" : "const jvalue",
   "referenced_type" : "_ZTI6jvalue",
   "self_type" : "_ZTIK6jvalue",
   "size" : 8,
   "source_file" : "libnativehelper/include_jni/jni.h"
  },
  {
   "alignment" : 1,
   "is_const" : true,
   "linker_set_key" : "_ZTIKNSt3__110in_place_tE",
   "name" : "const std::in_place_t",
   "referenced_type" : "_ZTINSt3__110in_place_tE",
   "self_type" : "_ZTIKNSt3__110in_place_tE",
   "size" : 1,
   "source_file" : "external/libcxx/include/utility"
  },
  {
   "alignment" : 1,
   "is_const" : true,
   "linker_set_key" : "_ZTIKNSt3__113__scalar_hashINS_6_PairTELj2EEE",
   "name" : "const std::__scalar_hash<std::_PairT, 2>",
   "referenced_type" : "_ZTINSt3__113__scalar_hashINS_6_PairTELj2EEE",
   "self_type" : "_ZTIKNSt3__113__scalar_hashINS_6_PairTELj2EEE",
   "size" : 1,
   "source_file" : "external/libcxx/include/utility"
  },
  {
   "alignment" : 1,
   "is_const" : true,
   "linker_set_key" : "_ZTIKNSt3__113__scalar_hashIdLj2EEE",
   "name" : "const std::__scalar_hash<double, 2>",
   "referenced_type" : "_ZTINSt3__113__scalar_hashIdLj2EEE",
   "self_type" : "_ZTIKNSt3__113__scalar_hashIdLj2EEE",
   "size" : 1,
   "source_file" : "external/libcxx/include/utility"
  },
  {
   "alignment" : 1,
   "is_const" : true,
   "linker_set_key" : "_ZTIKNSt3__113__scalar_hashIeLj2EEE",
   "name" : "const std::__scalar_hash<long double, 2>",
   "referenced_type" : "_ZTINSt3__113__scalar_hashIeLj2EEE",
   "self_type" : "_ZTIKNSt3__113__scalar_hashIeLj2EEE",
   "size" : 1,
   "source_file" : "external/libcxx/include/utility"
  },
  {
   "alignment" : 1,
   "is_const" : true,
   "linker_set_key" : "_ZTIKNSt3__113__scalar_hashIfLj1EEE",
   "name" : "const std::__scalar_hash<float, 1>",
   "referenced_type" : "_ZTINSt3__113__scalar_hashIfLj1EEE",
   "self_type" : "_ZTIKNSt3__113__scalar_hashIfLj1EEE",
   "size" : 1,
   "source_file" : "external/libcxx/include/utility"
  },
  {
   "alignment" : 1,
   "is_const" : true,
   "linker_set_key" : "_ZTIKNSt3__118__sfinae_ctor_baseILb0ELb0EEE",
   "name" : "const std::__sfinae_ctor_base<false, false>",
   "referenced_type" : "_ZTINSt3__118__sfinae_ctor_baseILb0ELb0EEE",
   "self_type" : "_ZTIKNSt3__118__sfinae_ctor_baseILb0ELb0EEE",
   "size" : 1,
   "source_file" : "external/libcxx/include/__tuple"
  },
  {
   "alignment" : 1,
   "is_const" : true,
   "linker_set_key" : "_ZTIKNSt3__118__sfinae_ctor_baseILb0ELb1EEE",
   "name" : "const std::__sfinae_ctor_base<false, true>",
   "referenced_type" : "_ZTINSt3__118__sfinae_ctor_baseILb0ELb1EEE",
   "self_type" : "_ZTIKNSt3__118__sfinae_ctor_baseILb0ELb1EEE",
   "size" : 1,
   "source_file" : "external/libcxx/include/__tuple"
  },
  {
   "alignment" : 1,
   "is_const" : true,
   "linker_set_key" : "_ZTIKNSt3__118__sfinae_ctor_baseILb1ELb0EEE",
   "name" : "const std::__sfinae_ctor_base<true, false>",
   "referenced_type" : "_ZTINSt3__118__sfinae_ctor_baseILb1ELb0EEE",
   "self_type" : "_ZTIKNSt3__118__sfinae_ctor_baseILb1ELb0EEE",
   "size" : 1,
   "source_file" : "external/libcxx/include/__tuple"
  },
  {
   "alignment" : 4,
   "is_const" : true,
   "linker_set_key" : "_ZTIKNSt3__119__libcpp_debug_infoE",
   "name" : "const std::__libcpp_debug_info",
   "referenced_type" : "_ZTINSt3__119__libcpp_debug_infoE",
   "self_type" : "_ZTIKNSt3__119__libcpp_debug_infoE",
   "size" : 16,
   "source_file" : "external/libcxx/include/__debug"
  },
  {
   "alignment" : 1,
   "is_const" : true,
   "linker_set_key" : "_ZTIKNSt3__120__sfinae_assign_baseILb0ELb0EEE",
   "name" : "const std::__sfinae_assign_base<false, false>",
   "referenced_type" : "_ZTINSt3__120__sfinae_assign_baseILb0ELb0EEE",
   "self_type" : "_ZTIKNSt3__120__sfinae_assign_baseILb0ELb0EEE",
   "size" : 1,
   "source_file" : "external/libcxx/include/__tuple"
  },
  {
   "alignment" : 1,
   "is_const" : true,
   "linker_set_key" : "_ZTIKNSt3__120__sfinae_assign_baseILb0ELb1EEE",
   "name" : "const std::__sfinae_assign_base<false, true>",
   "referenced_type" : "_ZTINSt3__120__sfinae_assign_baseILb0ELb1EEE",
   "self_type" : "_ZTIKNSt3__120__sfinae_assign_baseILb0ELb1EEE",
   "size" : 1,
   "source_file" : "external/libcxx/include/__tuple"
  },
  {
   "alignment" : 1,
   "is_const" : true,
   "linker_set_key" : "_ZTIKNSt3__120__sfinae_assign_baseILb1ELb0EEE",
   "name" : "const std::__sfinae_assign_base<true, false>",
   "referenced_type" : "_ZTINSt3__120__sfinae_assign_baseILb1ELb0EEE",
   "self_type" : "_ZTIKNSt3__120__sfinae_assign_baseILb1ELb0EEE",
   "size" : 1,
   "source_file" : "external/libcxx/include/__tuple"
  },
  {
   "alignment" : 1,
   "is_const" : true,
   "linker_set_key" : "_ZTIKNSt3__121piecewise_construct_tE",
   "name" : "const std::piecewise_construct_t",
   "referenced_type" : "_ZTINSt3__121piecewise_construct_tE",
   "self_type" : "_ZTIKNSt3__121piecewise_construct_tE",
   "size" : 1,
   "source_file" : "external/libcxx/include/utility"
  },
  {
   "alignment" : 1,
   "is_const" : true,
   "linker_set_key" : "_ZTIKNSt3__14hashIDiEE",
   "name" : "const std::hash<char32_t>",
   "referenced_type" : "_ZTINSt3__14hashIDiEE",
   "self_type" : "_ZTIKNSt3__14hashIDiEE",
   "size" : 1,
   "source_file" : "external/libcxx/include/utility"
  },
  {
   "alignment" : 1,
   "is_const" : true,
   "linker_set_key" : "_ZTIKNSt3__14hashIDnEE",
   "name" : "const std::hash<nullptr_t>",
   "referenced_type" : "_ZTINSt3__14hashIDnEE",
   "self_type" : "_ZTIKNSt3__14hashIDnEE",
   "size" : 1,
   "source_file" : "external/libcxx/include/utility"
  },
  {
   "alignment" : 1,
   "is_const" : true,
   "linker_set_key" : "_ZTIKNSt3__14hashIDsEE",
   "name" : "const std::hash<char16_t>",
   "referenced_type" : "_ZTINSt3__14hashIDsEE",
   "self_type" : "_ZTIKNSt3__14hashIDsEE",
   "size" : 1,
   "source_file" : "external/libcxx/include/utility"
  },
  {
   "alignment" : 1,
   "is_const" : true,
   "linker_set_key" : "_ZTIKNSt3__14hashIaEE",
   "name" : "const std::hash<signed char>",
   "referenced_type" : "_ZTINSt3__14hashIaEE",
   "self_type" : "_ZTIKNSt3__14hashIaEE",
   "size" : 1,
   "source_file" : "external/libcxx/include/utility"
  },
  {
   "alignment" : 1,
   "is_const" : true,
   "linker_set_key" : "_ZTIKNSt3__14hashIbEE",
   "name" : "const std::hash<bool>",
   "referenced_type" : "_ZTINSt3__14hashIbEE",
   "self_type" : "_ZTIKNSt3__14hashIbEE",
   "size" : 1,
   "source_file" : "external/libcxx/include/utility"
  },
  {
   "alignment" : 1,
   "is_const" : true,
   "linker_set_key" : "_ZTIKNSt3__14hashIcEE",
   "name" : "const std::hash<char>",
   "referenced_type" : "_ZTINSt3__14hashIcEE",
   "self_type" : "_ZTIKNSt3__14hashIcEE",
   "size" : 1,
   "source_file" : "external/libcxx/include/utility"
  },
  {
   "alignment" : 1,
   "is_const" : true,
   "linker_set_key" : "_ZTIKNSt3__14hashIdEE",
   "name" : "const std::hash<double>",
   "referenced_type" : "_ZTINSt3__14hashIdEE",
   "self_type" : "_ZTIKNSt3__14hashIdEE",
   "size" : 1,
   "source_file" : "external/libcxx/include/utility"
  },
  {
   "alignment" : 1,
   "is_const" : true,
   "linker_set_key" : "_ZTIKNSt3__14hashIeEE",
   "name" : "const std::hash<long double>",
   "referenced_type" : "_ZTINSt3__14hashIeEE",
   "self_type" : "_ZTIKNSt3__14hashIeEE",
   "size" : 1,
   "source_file" : "external/libcxx/include/utility"
  },
  {
   "alignment" : 1,
   "is_const" : true,
   "linker_set_key" : "_ZTIKNSt3__14hashIfEE",
   "name" : "const std::hash<float>",
   "referenced_type" : "_ZTINSt3__14hashIfEE",
   "self_type" : "_ZTIKNSt3__14hashIfEE",
   "size" : 1,
   "source_file" : "external/libcxx/include/utility"
  },
  {
   "alignment" : 1,
   "is_const" : true,
   "linker_set_key" : "_ZTIKNSt3__14hashIhEE",
   "name" : "const std::hash<unsigned char>",
   "referenced_type" : "_ZTINSt3__14hashIhEE",
   "self_type" : "_ZTIKNSt3__14hashIhEE",
   "size" : 1,
   "source_file" : "external/libcxx/include/utility"
  },
  {
   "alignment" : 1,
   "is_const" : true,
   "linker_set_key" : "_ZTIKNSt3__14hashIiEE",
   "name" : "const std::hash<int>",
   "referenced_type" : "_ZTINSt3__14hashIiEE",
   "self_type" : "_ZTIKNSt3__14hashIiEE",
   "size" : 1,
   "source_file" : "external/libcxx/include/utility"
  },
  {
   "alignment" : 1,
   "is_const" : true,
   "linker_set_key" : "_ZTIKNSt3__14hashIjEE",
   "name" : "const std::hash<unsigned int>",
   "referenced_type" : "_ZTINSt3__14hashIjEE",
   "self_type" : "_ZTIKNSt3__14hashIjEE",
   "size" : 1,
   "source_file" : "external/libcxx/include/utility"
  },
  {
   "alignment" : 1,
   "is_const" : true,
   "linker_set_key" : "_ZTIKNSt3__14hashIlEE",
   "name" : "const std::hash<long>",
   "referenced_type" : "_ZTINSt3__14hashIlEE",
   "self_type" : "_ZTIKNSt3__14hashIlEE",
   "size" : 1,
   "source_file" : "external/libcxx/include/utility"
  },
  {
   "alignment" : 1,
   "is_const" : true,
   "linker_set_key" : "_ZTIKNSt3__14hashImEE",
   "name" : "const std::hash<unsigned long>",
   "referenced_type" : "_ZTINSt3__14hashImEE",
   "self_type" : "_ZTIKNSt3__14hashImEE",
   "size" : 1,
   "source_file" : "external/libcxx/include/utility"
  },
  {
   "alignment" : 1,
   "is_const" : true,
   "linker_set_key" : "_ZTIKNSt3__14hashIsEE",
   "name" : "const std::hash<short>",
   "referenced_type" : "_ZTINSt3__14hashIsEE",
   "self_type" : "_ZTIKNSt3__14hashIsEE",
   "size" : 1,
   "source_file" : "external/libcxx/include/utility"
  },
  {
   "alignment" : 1,
   "is_const" : true,
   "linker_set_key" : "_ZTIKNSt3__14hashItEE",
   "name" : "const std::hash<unsigned short>",
   "referenced_type" : "_ZTINSt3__14hashItEE",
   "self_type" : "_ZTIKNSt3__14hashItEE",
   "size" : 1,
   "source_file" : "external/libcxx/include/utility"
  },
  {
   "alignment" : 1,
   "is_const" : true,
   "linker_set_key" : "_ZTIKNSt3__14hashIwEE",
   "name" : "const std::hash<wchar_t>",
   "referenced_type" : "_ZTINSt3__14hashIwEE",
   "self_type" : "_ZTIKNSt3__14hashIwEE",
   "size" : 1,
   "source_file" : "external/libcxx/include/utility"
  },
  {
   "alignment" : 4,
   "is_const" : true,
   "linker_set_key" : "_ZTIKPKc",
   "name" : "const char *const",
   "referenced_type" : "_ZTIPKc",
   "self_type" : "_ZTIKPKc",
   "size" : 4,
   "source_file" : "bionic/libc/include/string.h"
  },
  {
   "alignment" : 4,
   "is_const" : true,
   "linker_set_key" : "_ZTIKPKv",
   "name" : "const void *const",
   "referenced_type" : "_ZTIPKv",
   "self_type" : "_ZTIKPKv",
   "size" : 4,
   "source_file" : "bionic/libc/include/string.h"
  },
  {
   "alignment" : 4,
   "is_const" : true,
   "linker_set_key" : "_ZTIKPc",
   "name" : "char *const",
   "referenced_type" : "_ZTIPc",
   "self_type" : "_ZTIKPc",
   "size" : 4,
   "source_file" : "bionic/libc/include/string.h"
  },
  {
   "alignment" : 4,
   "is_const" : true,
   "linker_set_key" : "_ZTIKPv",
   "name" : "void *const",
   "referenced_type" : "_ZTIPv",
   "self_type" : "_ZTIKPv",
   "size" : 4,
   "source_file" : "bionic/libc/include/string.h"
  },
  {
   "alignment" : 1,
   "is_const" : true,
   "linker_set_key" : "_ZTIKa",
   "name" : "const signed char",
   "referenced_type" : "_ZTIa",
   "self_type" : "_ZTIKa",
   "size" : 1,
   "source_file" : "libnativehelper/include_jni/jni.h"
  },
  {
   "alignment" : 1,
   "is_const" : true,
   "linker_set_key" : "_ZTIKb",
   "name" : "const bool",
   "referenced_type" : "_ZTIb",
   "self_type" : "_ZTIKb",
   "size" : 1,
   "source_file" : "external/libcxx/include/type_traits"
  },
  {
   "alignment" : 1,
   "is_const" : true,
   "linker_set_key" : "_ZTIKc",
   "name" : "const char",
   "referenced_type" : "_ZTIc",
   "self_type" : "_ZTIKc",
   "size" : 1,
   "source_file" : "libnativehelper/include_jni/jni.h"
  },
  {
   "alignment" : 8,
   "is_const" : true,
   "linker_set_key" : "_ZTIKd",
   "name" : "const double",
   "referenced_type" : "_ZTId",
   "self_type" : "_ZTIKd",
   "size" : 8,
   "source_file" : "libnativehelper/include_jni/jni.h"
  },
  {
   "alignment" : 4,
   "is_const" : true,
   "linker_set_key" : "_ZTIKf",
   "name" : "const float",
   "referenced_type" : "_ZTIf",
   "self_type" : "_ZTIKf",
   "size" : 4,
   "source_file" : "libnativehelper/include_jni/jni.h"
  },
  {
   "alignment" : 1,
   "is_const" : true,
   "linker_set_key" : "_ZTIKh",
   "name" : "const unsigned char",
   "referenced_type" : "_ZTIh",
   "self_type" : "_ZTIKh",
   "size" : 1,
   "source_file" : "libnativehelper/include_jni/jni.h"
  },
  {
   "alignment" : 4,
   "is_const" : true,
   "linker_set_key" : "_ZTIKi",
   "name" : "const int",
   "referenced_type" : "_ZTIi",
   "self_type" : "_ZTIKi",
   "size" : 4,
   "source_file" : "libnativehelper/include_jni/jni.h"
  },
  {
   "alignment" : 4,
   "is_const" : true,
   "linker_set_key" : "_ZTIKj",
   "name" : "const unsigned int",
   "referenced_type" : "_ZTIj",
   "self_type" : "_ZTIKj",
   "size" : 4,
   "source_file" : "external/libcxx/include/type_traits"
  },
  {
   "alignment" : 2,
   "is_const" : true,
   "linker_set_key" : "_ZTIKs",
   "name" : "const short",
   "referenced_type" : "_ZTIs",
   "self_type" : "_ZTIKs",
   "size" : 2,
   "source_file" : "libnativehelper/include_jni/jni.h"
  },
  {
   "alignment" : 2,
   "is_const" : true,
   "linker_set_key" : "_ZTIKt",
   "name" : "const unsigned short",
   "referenced_type" : "_ZTIt",
   "self_type" : "_ZTIKt",
   "size" : 2,
   "source_file" : "libnativehelper/include_jni/jni.h"
  },
  {
   "is_const" : true,
   "linker_set_key" : "_ZTIKv",
   "name" : "const void",
   "referenced_type" : "_ZTIv",
   "self_type" : "_ZTIKv",
   "source_file" : "bionic/libc/include/string.h"
  },
  {
   "alignment" : 8,
   "is_const" : true,
   "linker_set_key" : "_ZTIKx",
   "name" : "const long long",
   "referenced_type" : "_ZTIx",
   "self_type" : "_ZTIKx",
   "size" : 8,
   "source_file" : "libnativehelper/include_jni/jni.h"
  }
 ],
 "record_types" :
 [
  {
   "alignment" : 4,
   "fields" :
   [
    {
     "field_name" : "_kill",
     "referenced_type" : "_ZTIN10__sifieldsUt_E"
    },
    {
     "field_name" : "_timer",
     "referenced_type" : "_ZTIN10__sifieldsUt0_E"
    },
    {
     "field_name" : "_rt",
     "referenced_type" : "_ZTIN10__sifieldsUt1_E"
    },
    {
     "field_name" : "_sigchld",
     "referenced_type" : "_ZTIN10__sifieldsUt2_E"
    },
    {
     "field_name" : "_sigfault",
     "referenced_type" : "_ZTIN10__sifieldsUt3_E"
    },
    {
     "field_name" : "_sigpoll",
     "referenced_type" : "_ZTIN10__sifieldsUt4_E"
    },
    {
     "field_name" : "_sigsys",
     "referenced_type" : "_ZTIN10__sifieldsUt5_E"
    }
   ],
   "linker_set_key" : "_ZTI10__sifields",
   "name" : "__sifields",
   "record_kind" : "union",
   "referenced_type" : "_ZTI10__sifields",
   "self_type" : "_ZTI10__sifields",
   "size" : 20,
   "source_file" : "bionic/libc/kernel/uapi/asm-generic/siginfo.h"
  },
  {
   "alignment" : 1,
   "base_specifiers" :
   [
    {
     "referenced_type" : "_ZTI7_jarray"
    }
   ],
   "linker_set_key" : "_ZTI10_jintArray",
   "name" : "_jintArray",
   "record_kind" : "class",
   "referenced_type" : "_ZTI10_jintArray",
   "self_type" : "_ZTI10_jintArray",
   "size" : 1,
   "source_file" : "libnativehelper/include_jni/jni.h"
  },
  {
   "alignment" : 4,
   "fields" :
   [
    {
     "field_name" : "it_interval",
     "referenced_type" : "_ZTI8timespec"
    },
    {
     "field_name" : "it_value",
     "field_offset" : 64,
     "referenced_type" : "_ZTI8timespec"
    }
   ],
   "linker_set_key" : "_ZTI10itimerspec",
   "name" : "itimerspec",
   "referenced_type" : "_ZTI10itimerspec",
   "self_type" : "_ZTI10itimerspec",
   "size" : 16,
   "source_file" : "bionic/libc/kernel/uapi/linux/time.h"
  },
  {
   "alignment" : 4,
   "fields" :
   [
    {
     "field_name" : "trap_no",
     "referenced_type" : "_ZTIm"
    },
    {
     "field_name" : "error_code",
     "field_offset" : 32,
     "referenced_type" : "_ZTIm"
    },
    {
     "field_name" : "oldmask",
     "field_offset" : 64,
     "referenced_type" : "_ZTIm"
    },
    {
     "field_name" : "arm_r0",
     "field_offset" : 96,
     "referenced_type" : "_ZTIm"
    },
    {
     "field_name" : "arm_r1",
     "field_offset" : 128,
     "referenced_type" : "_ZTIm"
    },
    {
     "field_name" : "arm_r2",
     "field_offset" : 160,
     "referenced_type" : "_ZTIm"
    },
    {
     "field_name" : "arm_r3",
     "field_offset" : 192,
     "referenced_type" : "_ZTIm"
    },
    {
     "field_name" : "arm_r4",
     "field_offset" : 224,
     "referenced_type" : "_ZTIm"
    },
    {
     "field_name" : "arm_r5",
     "field_offset" : 256,
     "referenced_type" : "_ZTIm"
    },
    {
     "field_name" : "arm_r6",
     "field_offset" : 288,
     "referenced_type" : "_ZTIm"
    },
    {
     "field_name" : "arm_r7",
     "field_offset" : 320,
     "referenced_type" : "_ZTIm"
    },
    {
     "field_name" : "arm_r8",
     "field_offset" : 352,
     "referenced_type" : "_ZTIm"
    },
    {
     "field_name" : "arm_r9",
     "field_offset" : 384,
     "referenced_type" : "_ZTIm"
    },
    {
     "field_name" : "arm_r10",
     "field_offset" : 416,
     "referenced_type" : "_ZTIm"
    },
    {
     "field_name" : "arm_fp",
     "field_offset" : 448,
     "referenced_type" : "_ZTIm"
    },
    {
     "field_name" : "arm_ip",
     "field_offset" : 480,
     "referenced_type" : "_ZTIm"
    },
    {
     "field_name" : "arm_sp",
     "field_offset" : 512,
     "referenced_type" : "_ZTIm"
    },
    {
     "field_name" : "arm_lr",
     "field_offset" : 544,
     "referenced_type" : "_ZTIm"
    },
    {
     "field_name" : "arm_pc",
     "field_offset" : 576,
     "referenced_type" : "_ZTIm"
    },
    {
     "field_name" : "arm_cpsr",
     "field_offset" : 608,
     "referenced_type" : "_ZTIm"
    },
    {
     "field_name" : "fault_address",
     "field_offset" : 640,
     "referenced_type" : "_ZTIm"
    }
   ],
   "linker_set_key" : "_ZTI10sigcontext",
   "name" : "sigcontext",
   "referenced_type" : "_ZTI10sigcontext",
   "self_type" : "_ZTI10sigcontext",
   "size" : 84,
   "source_file" : "bionic/libc/kernel/uapi/asm-arm/asm/sigcontext.h"
  },
  {
   "alignment" : 4,
   "fields" :
   [
    {
     "field_name" : "__bits",
     "referenced_type" : "_ZTIA2_m"
    }
   ],
   "linker_set_key" : "_ZTI10sigset64_t",
   "name" : "sigset64_t",
   "referenced_type" : "_ZTI10sigset64_t",
   "self_type" : "_ZTI10sigset64_t",
   "size" : 8,
   "source_file" : "bionic/libc/include/bits/signal_types.h"
  },
  {
   "alignment" : 1,
   "base_specifiers" :
   [
    {
     "referenced_type" : "_ZTI7_jarray"
    }
   ],
   "linker_set_key" : "_ZTI11_jbyteArray",
   "name" : "_jbyteArray",
   "record_kind" : "class",
   "referenced_type" : "_ZTI11_jbyteArray",
   "self_type" : "_ZTI11_jbyteArray",
   "size" : 1,
   "source_file" : "libnativehelper/include_jni/jni.h"
  },
  {
   "alignment" : 1,
   "base_specifiers" :
   [
    {
     "referenced_type" : "_ZTI7_jarray"
    }
   ],
   "linker_set_key" : "_ZTI11_jcharArray",
   "name" : "_jcharArray",
   "record_kind" : "class",
   "referenced_type" : "_ZTI11_jcharArray",
   "self_type" : "_ZTI11_jcharArray",
   "size" : 1,
   "source_file" : "libnativehelper/include_jni/jni.h"
  },
  {
   "alignment" : 1,
   "base_specifiers" :
   [
    {
     "referenced_type" : "_ZTI7_jarray"
    }
   ],
   "linker_set_key" : "_ZTI11_jlongArray",
   "name" : "_jlongArray",
   "record_kind" : "class",
   "referenced_type" : "_ZTI11_jlongArray",
   "self_type" : "_ZTI11_jlongArray",
   "size" : 1,
   "source_file" : "libnativehelper/include_jni/jni.h"
  },
  {
   "alignment" : 1,
   "base_specifiers" :
   [
    {
     "referenced_type" : "_ZTI8_jobject"
    }
   ],
   "linker_set_key" : "_ZTI11_jthrowable",
   "name" : "_jthrowable",
   "record_kind" : "class",
   "referenced_type" : "_ZTI11_jthrowable",
   "self_type" : "_ZTI11_jthrowable",
   "size" : 1,
   "source_file" : "libnativehelper/include_jni/jni.h"
  },
  {
   "alignment" : 8,
   "fields" :
   [
    {
     "field_name" : "__clang_max_align_nonce1",
     "referenced_type" : "_ZTIx"
    },
    {
     "field_name" : "__clang_max_align_nonce2",
     "field_offset" : 64,
     "referenced_type" : "_ZTIe"
    }
   ],
   "linker_set_key" : "_ZTI11max_align_t",
   "name" : "max_align_t",
   "referenced_type" : "_ZTI11max_align_t",
   "self_type" : "_ZTI11max_align_t",
   "size" : 16,
   "source_file" : "prebuilts/clang-tools/linux-x86/clang-headers/__stddef_max_align_t.h"
  },
  {
   "alignment" : 4,
   "fields" :
   [
    {
     "referenced_type" : "_ZTIN11sigaction64Ut_E"
    },
    {
     "field_name" : "sa_flags",
     "field_offset" : 32,
     "referenced_type" : "_ZTIi"
    },
    {
     "field_name" : "sa_restorer",
     "field_offset" : 64,
     "referenced_type" : "_ZTIPFvvE"
    },
    {
     "field_name" : "sa_mask",
     "field_offset" : 96,
     "referenced_type" : "_ZTI10sigset64_t"
    }
   ],
   "linker_set_key" : "_ZTI11sigaction64",
   "name" : "sigaction64",
   "referenced_type" : "_ZTI11sigaction64",
   "self_type" : "_ZTI11sigaction64",
   "size" : 20,
   "source_file" : "bionic/libc/include/bits/signal_types.h"
  },
  {
   "alignment" : 4,
   "fields" :
   [
    {
     "field_name" : "ss_sp",
     "referenced_type" : "_ZTIPv"
    },
    {
     "field_name" : "ss_flags",
     "field_offset" : 32,
     "referenced_type" : "_ZTIi"
    },
    {
     "field_name" : "ss_size",
     "field_offset" : 64,
     "referenced_type" : "_ZTIj"
    }
   ],
   "linker_set_key" : "_ZTI11sigaltstack",
   "name" : "sigaltstack",
   "referenced_type" : "_ZTI11sigaltstack",
   "self_type" : "_ZTI11sigaltstack",
   "size" : 12,
   "source_file" : "bionic/libc/kernel/uapi/asm-arm/asm/signal.h"
  },
  {
   "alignment" : 4,
   "fields" :
   [
    {
     "field_name" : "fpregs",
     "referenced_type" : "_ZTIA8_N11user_fpregs6fp_regE"
    },
    {
     "field_name" : "fpsr",
     "field_offset" : 768,
     "referenced_type" : "_ZTIj"
    },
    {
     "field_name" : "fpcr",
     "field_offset" : 800,
     "referenced_type" : "_ZTIj"
    },
    {
     "field_name" : "ftype",
     "field_offset" : 832,
     "referenced_type" : "_ZTIA8_h"
    },
    {
     "field_name" : "init_flag",
     "field_offset" : 896,
     "referenced_type" : "_ZTIj"
    }
   ],
   "linker_set_key" : "_ZTI11user_fpregs",
   "name" : "user_fpregs",
   "referenced_type" : "_ZTI11user_fpregs",
   "self_type" : "_ZTI11user_fpregs",
   "size" : 116,
   "source_file" : "bionic/libc/include/sys/user.h"
  },
  {
   "alignment" : 4,
   "fields" :
   [
    {
     "field_name" : "optionString",
     "referenced_type" : "_ZTIPKc"
    },
    {
     "field_name" : "extraInfo",
     "field_offset" : 32,
     "referenced_type" : "_ZTIPv"
    }
   ],
   "linker_set_key" : "_ZTI12JavaVMOption",
   "name" : "JavaVMOption",
   "referenced_type" : "_ZTI12JavaVMOption",
   "self_type" : "_ZTI12JavaVMOption",
   "size" : 8,
   "source_file" : "libnativehelper/include_jni/jni.h"
  },
  {
   "alignment" : 1,
   "base_specifiers" :
   [
    {
     "referenced_type" : "_ZTI7_jarray"
    }
   ],
   "linker_set_key" : "_ZTI12_jfloatArray",
   "name" : "_jfloatArray",
   "record_kind" : "class",
   "referenced_type" : "_ZTI12_jfloatArray",
   "self_type" : "_ZTI12_jfloatArray",
   "size" : 1,
   "source_file" : "libnativehelper/include_jni/jni.h"
  },
  {
   "alignment" : 1,
   "base_specifiers" :
   [
    {
     "referenced_type" : "_ZTI7_jarray"
    }
   ],
   "linker_set_key" : "_ZTI12_jshortArray",
   "name" : "_jshortArray",
   "record_kind" : "class",
   "referenced_type" : "_ZTI12_jshortArray",
   "self_type" : "_ZTI12_jshortArray",
   "size" : 1,
   "source_file" : "libnativehelper/include_jni/jni.h"
  },
  {
   "alignment" : 4,
   "fields" :
   [
    {
     "field_name" : "fpexc",
     "referenced_type" : "_ZTIm"
    },
    {
     "field_name" : "fpinst",
     "field_offset" : 32,
     "referenced_type" : "_ZTIm"
    },
    {
     "field_name" : "fpinst2",
     "field_offset" : 64,
     "referenced_type" : "_ZTIm"
    }
   ],
   "linker_set_key" : "_ZTI12user_vfp_exc",
   "name" : "user_vfp_exc",
   "referenced_type" : "_ZTI12user_vfp_exc",
   "self_type" : "_ZTI12user_vfp_exc",
   "size" : 12,
   "source_file" : "bionic/libc/include/sys/user.h"
  },
  {
   "alignment" : 1,
   "base_specifiers" :
   [
    {
     "referenced_type" : "_ZTI7_jarray"
    }
   ],
   "linker_set_key" : "_ZTI13_jdoubleArray",
   "name" : "_jdoubleArray",
   "record_kind" : "class",
   "referenced_type" : "_ZTI13_jdoubleArray",
   "self_type" : "_ZTI13_jdoubleArray",
   "size" : 1,
   "source_file" : "libnativehelper/include_jni/jni.h"
  },
  {
   "alignment" : 1,
   "base_specifiers" :
   [
    {
     "referenced_type" : "_ZTI7_jarray"
    }
   ],
   "linker_set_key" : "_ZTI13_jobjectArray",
   "name" : "_jobjectArray",
   "record_kind" : "class",
   "referenced_type" : "_ZTI13_jobjectArray",
   "self_type" : "_ZTI13_jobjectArray",
   "size" : 1,
   "source_file" : "libnativehelper/include_jni/jni.h"
  },
  {
   "alignment" : 4,
   "fields" :
   [
    {
     "field_name" : "version",
     "referenced_type" : "_ZTIi"
    },
    {
     "field_name" : "nOptions",
     "field_offset" : 32,
     "referenced_type" : "_ZTIi"
    },
    {
     "field_name" : "options",
     "field_offset" : 64,
     "referenced_type" : "_ZTIP12JavaVMOption"
    },
    {
     "field_name" : "ignoreUnrecognized",
     "field_offset" : 96,
     "referenced_type" : "_ZTIh"
    }
   ],
   "linker_set_key" : "_ZTI14JavaVMInitArgs",
   "name" : "JavaVMInitArgs",
   "referenced_type" : "_ZTI14JavaVMInitArgs",
   "self_type" : "_ZTI14JavaVMInitArgs",
   "size" : 16,
   "source_file" : "libnativehelper/include_jni/jni.h"
  },
  {
   "alignment" : 1,
   "base_specifiers" :
   [
    {
     "referenced_type" : "_ZTI7_jarray"
    }
   ],
   "linker_set_key" : "_ZTI14_jbooleanArray",
   "name" : "_jbooleanArray",
   "record_kind" : "class",
   "referenced_type" : "_ZTI14_jbooleanArray",
   "self_type" : "_ZTI14_jbooleanArray",
   "size" : 1,
   "source_file" : "libnativehelper/include_jni/jni.h"
  },
  {
   "alignment" : 4,
   "fields" :
   [
    {
     "field_name" : "flags",
     "referenced_type" : "_ZTIj"
    },
    {
     "field_name" : "stack_base",
     "field_offset" : 32,
     "referenced_type" : "_ZTIPv"
    },
    {
     "field_name" : "stack_size",
     "field_offset" : 64,
     "referenced_type" : "_ZTIj"
    },
    {
     "field_name" : "guard_size",
     "field_offset" : 96,
     "referenced_type" : "_ZTIj"
    },
    {
     "field_name" : "sched_policy",
     "field_offset" : 128,
     "referenced_type" : "_ZTIi"
    },
    {
     "field_name" : "sched_priority",
     "field_offset" : 160,
     "referenced_type" : "_ZTIi"
    }
   ],
   "linker_set_key" : "_ZTI14pthread_attr_t",
   "name" : "pthread_attr_t",
   "referenced_type" : "_ZTI14pthread_attr_t",
   "self_type" : "_ZTI14pthread_attr_t",
   "size" : 24,
   "source_file" : "bionic/libc/include/bits/pthread_types.h"
  },
  {
   "alignment" : 4,
   "fields" :
   [
    {
     "field_name" : "__private",
     "referenced_type" : "_ZTIA1_i"
    }
   ],
   "linker_set_key" : "_ZTI14pthread_cond_t",
   "name" : "pthread_cond_t",
   "referenced_type" : "_ZTI14pthread_cond_t",
   "self_type" : "_ZTI14pthread_cond_t",
   "size" : 4,
   "source_file" : "bionic/libc/include/bits/pthread_types.h"
  },
  {
   "alignment" : 4,
   "fields" :
   [
    {
     "field_name" : "name",
     "referenced_type" : "_ZTIPKc"
    },
    {
     "field_name" : "signature",
     "field_offset" : 32,
     "referenced_type" : "_ZTIPKc"
    },
    {
     "field_name" : "fnPtr",
     "field_offset" : 64,
     "referenced_type" : "_ZTIPv"
    }
   ],
   "linker_set_key" : "_ZTI15JNINativeMethod",
   "name" : "JNINativeMethod",
   "referenced_type" : "_ZTI15JNINativeMethod",
   "self_type" : "_ZTI15JNINativeMethod",
   "size" : 12,
   "source_file" : "libnativehelper/include_jni/jni.h"
  },
  {
   "alignment" : 4,
   "fields" :
   [
    {
     "field_name" : "fds_bits",
     "referenced_type" : "_ZTIA32_m"
    }
   ],
   "linker_set_key" : "_ZTI15__kernel_fd_set",
   "name" : "__kernel_fd_set",
   "referenced_type" : "_ZTI15__kernel_fd_set",
   "self_type" : "_ZTI15__kernel_fd_set",
   "size" : 128,
   "source_file" : "bionic/libc/kernel/uapi/linux/posix_types.h"
  },
  {
   "alignment" : 4,
   "fields" :
   [
    {
     "field_name" : "val",
     "referenced_type" : "_ZTIA2_i"
    }
   ],
   "linker_set_key" : "_ZTI15__kernel_fsid_t",
   "name" : "__kernel_fsid_t",
   "referenced_type" : "_ZTI15__kernel_fsid_t",
   "self_type" : "_ZTI15__kernel_fsid_t",
   "size" : 8,
   "source_file" : "bionic/libc/kernel/uapi/asm-generic/posix_types.h"
  },
  {
   "alignment" : 4,
   "fields" :
   [
    {
     "field_name" : "__private",
     "referenced_type" : "_ZTIA1_i"
    }
   ],
   "linker_set_key" : "_ZTI15pthread_mutex_t",
   "name" : "pthread_mutex_t",
   "referenced_type" : "_ZTI15pthread_mutex_t",
   "self_type" : "_ZTI15pthread_mutex_t",
   "size" : 4,
   "source_file" : "bionic/libc/include/bits/pthread_types.h"
  },
  {
   "alignment" : 4,
   "fields" :
   [
    {
     "field_name" : "version",
     "referenced_type" : "_ZTIi"
    },
    {
     "field_name" : "name",
     "field_offset" : 32,
     "referenced_type" : "_ZTIPKc"
    },
    {
     "field_name" : "group",
     "field_offset" : 64,
     "referenced_type" : "_ZTIP8_jobject"
    }
   ],
   "linker_set_key" : "_ZTI16JavaVMAttachArgs",
   "name" : "JavaVMAttachArgs",
   "referenced_type" : "_ZTI16JavaVMAttachArgs",
   "self_type" : "_ZTI16JavaVMAttachArgs",
   "size" : 12,
   "source_file" : "libnativehelper/include_jni/jni.h"
  },
  {
   "alignment" : 4,
   "fields" :
   [
    {
     "field_name" : "__private",
     "referenced_type" : "_ZTIA10_i"
    }
   ],
   "linker_set_key" : "_ZTI16pthread_rwlock_t",
   "name" : "pthread_rwlock_t",
   "referenced_type" : "_ZTI16pthread_rwlock_t",
   "self_type" : "_ZTI16pthread_rwlock_t",
   "size" : 40,
   "source_file" : "bionic/libc/include/bits/pthread_types.h"
  },
  {
   "alignment" : 8,
   "fields" :
   [
    {
     "field_name" : "tv_sec",
     "referenced_type" : "_ZTIx"
    },
    {
     "field_name" : "tv_nsec",
     "field_offset" : 64,
     "referenced_type" : "_ZTIx"
    }
   ],
   "linker_set_key" : "_ZTI17__kernel_timespec",
   "name" : "__kernel_timespec",
   "referenced_type" : "_ZTI17__kernel_timespec",
   "self_type" : "_ZTI17__kernel_timespec",
   "size" : 16,
   "source_file" : "bionic/libc/kernel/uapi/linux/time_types.h"
  },
  {
   "alignment" : 4,
   "fields" :
   [
    {
     "field_name" : "__private",
     "referenced_type" : "_ZTIA8_i"
    }
   ],
   "linker_set_key" : "_ZTI17pthread_barrier_t",
   "name" : "pthread_barrier_t",
   "referenced_type" : "_ZTI17pthread_barrier_t",
   "self_type" : "_ZTI17pthread_barrier_t",
   "size" : 32,
   "source_file" : "bionic/libc/include/bits/pthread_types.h"
  },
  {
   "alignment" : 4,
   "fields" :
   [
    {
     "field_name" : "reserved0",
     "referenced_type" : "_ZTIPv"
    },
    {
     "field_name" : "reserved1",
     "field_offset" : 32,
     "referenced_type" : "_ZTIPv"
    },
    {
     "field_name" : "reserved2",
     "field_offset" : 64,
     "referenced_type" : "_ZTIPv"
    },
    {
     "field_name" : "DestroyJavaVM",
     "field_offset" : 96,
     "referenced_type" : "_ZTIPFiP7_JavaVME"
    },
    {
     "field_name" : "AttachCurrentThread",
     "field_offset" : 128,
     "referenced_type" : "_ZTIPFiP7_JavaVMPP7_JNIEnvPvE"
    },
    {
     "field_name" : "DetachCurrentThread",
     "field_offset" : 160,
     "referenced_type" : "_ZTIPFiP7_JavaVME"
    },
    {
     "field_name" : "GetEnv",
     "field_offset" : 192,
     "referenced_type" : "_ZTIPFiP7_JavaVMPPviE"
    },
    {
     "field_name" : "AttachCurrentThreadAsDaemon",
     "field_offset" : 224,
     "referenced_type" : "_ZTIPFiP7_JavaVMPP7_JNIEnvPvE"
    }
   ],
   "linker_set_key" : "_ZTI18JNIInvokeInterface",
   "name" : "JNIInvokeInterface",
   "referenced_type" : "_ZTI18JNIInvokeInterface",
   "self_type" : "_ZTI18JNIInvokeInterface",
   "size" : 32,
   "source_file" : "libnativehelper/include_jni/jni.h"
  },
  {
   "alignment" : 4,
   "fields" :
   [
    {
     "field_name" : "reserved0",
     "referenced_type" : "_ZTIPv"
    },
    {
     "field_name" : "reserved1",
     "field_offset" : 32,
     "referenced_type" : "_ZTIPv"
    },
    {
     "field_name" : "reserved2",
     "field_offset" : 64,
     "referenced_type" : "_ZTIPv"
    },
    {
     "field_name" : "reserved3",
     "field_offset" : 96,
     "referenced_type" : "_ZTIPv"
    },
    {
     "field_name" : "GetVersion",
     "field_offset" : 128,
     "referenced_type" : "_ZTIPFiP7_JNIEnvE"
    },
    {
     "field_name" : "DefineClass",
     "field_offset" : 160,
     "referenced_type" : "_ZTIPFP7_jclassP7_JNIEnvPKcP8_jobjectPKaiE"
    },
    {
     "field_name" : "FindClass",
     "field_offset" : 192,
     "referenced_type" : "_ZTIPFP7_jclassP7_JNIEnvPKcE"
    },
    {
     "field_name" : "FromReflectedMethod",
     "field_offset" : 224,
     "referenced_type" : "_ZTIPFP10_jmethodIDP7_JNIEnvP8_jobjectE"
    },
    {
     "field_name" : "FromReflectedField",
     "field_offset" : 256,
     "referenced_type" : "_ZTIPFP9_jfieldIDP7_JNIEnvP8_jobjectE"
    },
    {
     "field_name" : "ToReflectedMethod",
     "field_offset" : 288,
     "referenced_type" : "_ZTIPFP8_jobjectP7_JNIEnvP7_jclassP10_jmethodIDhE"
    },
    {
     "field_name" : "GetSuperclass",
     "field_offset" : 320,
     "referenced_type" : "_ZTIPFP7_jclassP7_JNIEnvS0_E"
    },
    {
     "field_name" : "IsAssignableFrom",
     "field_offset" : 352,
     "referenced_type" : "_ZTIPFhP7_JNIEnvP7_jclassS2_E"
    },
    {
     "field_name" : "ToReflectedField",
     "field_offset" : 384,
     "referenced_type" : "_ZTIPFP8_jobjectP7_JNIEnvP7_jclassP9_jfieldIDhE"
    },
    {
     "field_name" : "Throw",
     "field_offset" : 416,
     "referenced_type" : "_ZTIPFiP7_JNIEnvP11_jthrowableE"
    },
    {
     "field_name" : "ThrowNew",
     "field_offset" : 448,
     "referenced_type" : "_ZTIPFiP7_JNIEnvP7_jclassPKcE"
    },
    {
     "field_name" : "ExceptionOccurred",
     "field_offset" : 480,
     "referenced_type" : "_ZTIPFP11_jthrowableP7_JNIEnvE"
    },
    {
     "field_name" : "ExceptionDescribe",
     "field_offset" : 512,
     "referenced_type" : "_ZTIPFvP7_JNIEnvE"
    },
    {
     "field_name" : "ExceptionClear",
     "field_offset" : 544,
     "referenced_type" : "_ZTIPFvP7_JNIEnvE"
    },
    {
     "field_name" : "FatalError",
     "field_offset" : 576,
     "referenced_type" : "_ZTIPFvP7_JNIEnvPKcE"
    },
    {
     "field_name" : "PushLocalFrame",
     "field_offset" : 608,
     "referenced_type" : "_ZTIPFiP7_JNIEnviE"
    },
    {
     "field_name" : "PopLocalFrame",
     "field_offset" : 640,
     "referenced_type" : "_ZTIPFP8_jobjectP7_JNIEnvS0_E"
    },
    {
     "field_name" : "NewGlobalRef",
     "field_offset" : 672,
     "referenced_type" : "_ZTIPFP8_jobjectP7_JNIEnvS0_E"
    },
    {
     "field_name" : "DeleteGlobalRef",
     "field_offset" : 704,
     "referenced_type" : "_ZTIPFvP7_JNIEnvP8_jobjectE"
    },
    {
     "field_name" : "DeleteLocalRef",
     "field_offset" : 736,
     "referenced_type" : "_ZTIPFvP7_JNIEnvP8_jobjectE"
    },
    {
     "field_name" : "IsSameObject",
     "field_offset" : 768,
     "referenced_type" : "_ZTIPFhP7_JNIEnvP8_jobjectS2_E"
    },
    {
     "field_name" : "NewLocalRef",
     "field_offset" : 800,
     "referenced_type" : "_ZTIPFP8_jobjectP7_JNIEnvS0_E"
    },
    {
     "field_name" : "EnsureLocalCapacity",
     "field_offset" : 832,
     "referenced_type" : "_ZTIPFiP7_JNIEnviE"
    },
    {
     "field_name" : "AllocObject",
     "field_offset" : 864,
     "referenced_type" : "_ZTIPFP8_jobjectP7_JNIEnvP7_jclassE"
    },
    {
     "field_name" : "NewObject",
     "field_offset" : 896,
     "referenced_type" : "_ZTIPFP8_jobjectP7_JNIEnvP7_jclassP10_jmethodIDzE"
    },
    {
     "field_name" : "NewObjectV",
     "field_offset" : 928,
     "referenced_type" : "_ZTIPFP8_jobjectP7_JNIEnvP7_jclassP10_jmethodIDSt9__va_listE"
    },
    {
     "field_name" : "NewObjectA",
     "field_offset" : 960,
     "referenced_type" : "_ZTIPFP8_jobjectP7_JNIEnvP7_jclassP10_jmethodIDPK6jvalueE"
    },
    {
     "field_name" : "GetObjectClass",
     "field_offset" : 992,
     "referenced_type" : "_ZTIPFP7_jclassP7_JNIEnvP8_jobjectE"
    },
    {
     "field_name" : "IsInstanceOf",
     "field_offset" : 1024,
     "referenced_type" : "_ZTIPFhP7_JNIEnvP8_jobjectP7_jclassE"
    },
    {
     "field_name" : "GetMethodID",
     "field_offset" : 1056,
     "referenced_type" : "_ZTIPFP10_jmethodIDP7_JNIEnvP7_jclassPKcS6_E"
    },
    {
     "field_name" : "CallObjectMethod",
     "field_offset" : 1088,
     "referenced_type" : "_ZTIPFP8_jobjectP7_JNIEnvS0_P10_jmethodIDzE"
    },
    {
     "field_name" : "CallObjectMethodV",
     "field_offset" : 1120,
     "referenced_type" : "_ZTIPFP8_jobjectP7_JNIEnvS0_P10_jmethodIDSt9__va_listE"
    },
    {
     "field_name" : "CallObjectMethodA",
     "field_offset" : 1152,
     "referenced_type" : "_ZTIPFP8_jobjectP7_JNIEnvS0_P10_jmethodIDPK6jvalueE"
    },
    {
     "field_name" : "CallBooleanMethod",
     "field_offset" : 1184,
     "referenced_type" : "_ZTIPFhP7_JNIEnvP8_jobjectP10_jmethodIDzE"
    },
    {
     "field_name" : "CallBooleanMethodV",
     "field_offset" : 1216,
     "referenced_type" : "_ZTIPFhP7_JNIEnvP8_jobjectP10_jmethodIDSt9__va_listE"
    },
    {
     "field_name" : "CallBooleanMethodA",
     "field_offset" : 1248,
     "referenced_type" : "_ZTIPFhP7_JNIEnvP8_jobjectP10_jmethodIDPK6jvalueE"
    },
    {
     "field_name" : "CallByteMethod",
     "field_offset" : 1280,
     "referenced_type" : "_ZTIPFaP7_JNIEnvP8_jobjectP10_jmethodIDzE"
    },
    {
     "field_name" : "CallByteMethodV",
     "field_offset" : 1312,
     "referenced_type" : "_ZTIPFaP7_JNIEnvP8_jobjectP10_jmethodIDSt9__va_listE"
    },
    {
     "field_name" : "CallByteMethodA",
     "field_offset" : 1344,
     "referenced_type" : "_ZTIPFaP7_JNIEnvP8_jobjectP10_jmethodIDPK6jvalueE"
    },
    {
     "field_name" : "CallCharMethod",
     "field_offset" : 1376,
     "referenced_type" : "_ZTIPFtP7_JNIEnvP8_jobjectP10_jmethodIDzE"
    },
    {
     "field_name" : "CallCharMethodV",
     "field_offset" : 1408,
     "referenced_type" : "_ZTIPFtP7_JNIEnvP8_jobjectP10_jmethodIDSt9__va_listE"
    },
    {
     "field_name" : "CallCharMethodA",
     "field_offset" : 1440,
     "referenced_type" : "_ZTIPFtP7_JNIEnvP8_jobjectP10_jmethodIDPK6jvalueE"
    },
    {
     "field_name" : "CallShortMethod",
     "field_offset" : 1472,
     "referenced_type" : "_ZTIPFsP7_JNIEnvP8_jobjectP10_jmethodIDzE"
    },
    {
     "field_name" : "CallShortMethodV",
     "field_offset" : 1504,
     "referenced_type" : "_ZTIPFsP7_JNIEnvP8_jobjectP10_jmethodIDSt9__va_listE"
    },
    {
     "field_name" : "CallShortMethodA",
     "field_offset" : 1536,
     "referenced_type" : "_ZTIPFsP7_JNIEnvP8_jobjectP10_jmethodIDPK6jvalueE"
    },
    {
     "field_name" : "CallIntMethod",
     "field_offset" : 1568,
     "referenced_type" : "_ZTIPFiP7_JNIEnvP8_jobjectP10_jmethodIDzE"
    },
    {
     "field_name" : "CallIntMethodV",
     "field_offset" : 1600,
     "referenced_type" : "_ZTIPFiP7_JNIEnvP8_jobjectP10_jmethodIDSt9__va_listE"
    },
    {
     "field_name" : "CallIntMethodA",
     "field_offset" : 1632,
     "referenced_type" : "_ZTIPFiP7_JNIEnvP8_jobjectP10_jmethodIDPK6jvalueE"
    },
    {
     "field_name" : "CallLongMethod",
     "field_offset" : 1664,
     "referenced_type" : "_ZTIPFxP7_JNIEnvP8_jobjectP10_jmethodIDzE"
    },
    {
     "field_name" : "CallLongMethodV",
     "field_offset" : 1696,
     "referenced_type" : "_ZTIPFxP7_JNIEnvP8_jobjectP10_jmethodIDSt9__va_listE"
    },
    {
     "field_name" : "CallLongMethodA",
     "field_offset" : 1728,
     "referenced_type" : "_ZTIPFxP7_JNIEnvP8_jobjectP10_jmethodIDPK6jvalueE"
    },
    {
     "field_name" : "CallFloatMethod",
     "field_offset" : 1760,
     "referenced_type" : "_ZTIPFfP7_JNIEnvP8_jobjectP10_jmethodIDzE"
    },
    {
     "field_name" : "CallFloatMethodV",
     "field_offset" : 1792,
     "referenced_type" : "_ZTIPFfP7_JNIEnvP8_jobjectP10_jmethodIDSt9__va_listE"
    },
    {
     "field_name" : "CallFloatMethodA",
     "field_offset" : 1824,
     "referenced_type" : "_ZTIPFfP7_JNIEnvP8_jobjectP10_jmethodIDPK6jvalueE"
    },
    {
     "field_name" : "CallDoubleMethod",
     "field_offset" : 1856,
     "referenced_type" : "_ZTIPFdP7_JNIEnvP8_jobjectP10_jmethodIDzE"
    },
    {
     "field_name" : "CallDoubleMethodV",
     "field_offset" : 1888,
     "referenced_type" : "_ZTIPFdP7_JNIEnvP8_jobjectP10_jmethodIDSt9__va_listE"
    },
    {
     "field_name" : "CallDoubleMethodA",
     "field_offset" : 1920,
     "referenced_type" : "_ZTIPFdP7_JNIEnvP8_jobjectP10_jmethodIDPK6jvalueE"
    },
    {
     "field_name" : "CallVoidMethod",
     "field_offset" : 1952,
     "referenced_type" : "_ZTIPFvP7_JNIEnvP8_jobjectP10_jmethodIDzE"
    },
    {
     "field_name" : "CallVoidMethodV",
     "field_offset" : 1984,
     "referenced_type" : "_ZTIPFvP7_JNIEnvP8_jobjectP10_jmethodIDSt9__va_listE"
    },
    {
     "field_name" : "CallVoidMethodA",
     "field_offset" : 2016,
     "referenced_type" : "_ZTIPFvP7_JNIEnvP8_jobjectP10_jmethodIDPK6jvalueE"
    },
    {
     "field_name" : "CallNonvirtualObjectMethod",
     "field_offset" : 2048,
     "referenced_type" : "_ZTIPFP8_jobjectP7_JNIEnvS0_P7_jclassP10_jmethodIDzE"
    },
    {
     "field_name" : "CallNonvirtualObjectMethodV",
     "field_offset" : 2080,
     "referenced_type" : "_ZTIPFP8_jobjectP7_JNIEnvS0_P7_jclassP10_jmethodIDSt9__va_listE"
    },
    {
     "field_name" : "CallNonvirtualObjectMethodA",
     "field_offset" : 2112,
     "referenced_type" : "_ZTIPFP8_jobjectP7_JNIEnvS0_P7_jclassP10_jmethodIDPK6jvalueE"
    },
    {
     "field_name" : "CallNonvirtualBooleanMethod",
     "field_offset" : 2144,
     "referenced_type" : "_ZTIPFhP7_JNIEnvP8_jobjectP7_jclassP10_jmethodIDzE"
    },
    {
     "field_name" : "CallNonvirtualBooleanMethodV",
     "field_offset" : 2176,
     "referenced_type" : "_ZTIPFhP7_JNIEnvP8_jobjectP7_jclassP10_jmethodIDSt9__va_listE"
    },
    {
     "field_name" : "CallNonvirtualBooleanMethodA",
     "field_offset" : 2208,
     "referenced_type" : "_ZTIPFhP7_JNIEnvP8_jobjectP7_jclassP10_jmethodIDPK6jvalueE"
    },
    {
     "field_name" : "CallNonvirtualByteMethod",
     "field_offset" : 2240,
     "referenced_type" : "_ZTIPFaP7_JNIEnvP8_jobjectP7_jclassP10_jmethodIDzE"
    },
    {
     "field_name" : "CallNonvirtualByteMethodV",
     "field_offset" : 2272,
     "referenced_type" : "_ZTIPFaP7_JNIEnvP8_jobjectP7_jclassP10_jmethodIDSt9__va_listE"
    },
    {
     "field_name" : "CallNonvirtualByteMethodA",
     "field_offset" : 2304,
     "referenced_type" : "_ZTIPFaP7_JNIEnvP8_jobjectP7_jclassP10_jmethodIDPK6jvalueE"
    },
    {
     "field_name" : "CallNonvirtualCharMethod",
     "field_offset" : 2336,
     "referenced_type" : "_ZTIPFtP7_JNIEnvP8_jobjectP7_jclassP10_jmethodIDzE"
    },
    {
     "field_name" : "CallNonvirtualCharMethodV",
     "field_offset" : 2368,
     "referenced_type" : "_ZTIPFtP7_JNIEnvP8_jobjectP7_jclassP10_jmethodIDSt9__va_listE"
    },
    {
     "field_name" : "CallNonvirtualCharMethodA",
     "field_offset" : 2400,
     "referenced_type" : "_ZTIPFtP7_JNIEnvP8_jobjectP7_jclassP10_jmethodIDPK6jvalueE"
    },
    {
     "field_name" : "CallNonvirtualShortMethod",
     "field_offset" : 2432,
     "referenced_type" : "_ZTIPFsP7_JNIEnvP8_jobjectP7_jclassP10_jmethodIDzE"
    },
    {
     "field_name" : "CallNonvirtualShortMethodV",
     "field_offset" : 2464,
     "referenced_type" : "_ZTIPFsP7_JNIEnvP8_jobjectP7_jclassP10_jmethodIDSt9__va_listE"
    },
    {
     "field_name" : "CallNonvirtualShortMethodA",
     "field_offset" : 2496,
     "referenced_type" : "_ZTIPFsP7_JNIEnvP8_jobjectP7_jclassP10_jmethodIDPK6jvalueE"
    },
    {
     "field_name" : "CallNonvirtualIntMethod",
     "field_offset" : 2528,
     "referenced_type" : "_ZTIPFiP7_JNIEnvP8_jobjectP7_jclassP10_jmethodIDzE"
    },
    {
     "field_name" : "CallNonvirtualIntMethodV",
     "field_offset" : 2560,
     "referenced_type" : "_ZTIPFiP7_JNIEnvP8_jobjectP7_jclassP10_jmethodIDSt9__va_listE"
    },
    {
     "field_name" : "CallNonvirtualIntMethodA",
     "field_offset" : 2592,
     "referenced_type" : "_ZTIPFiP7_JNIEnvP8_jobjectP7_jclassP10_jmethodIDPK6jvalueE"
    },
    {
     "field_name" : "CallNonvirtualLongMethod",
     "field_offset" : 2624,
     "referenced_type" : "_ZTIPFxP7_JNIEnvP8_jobjectP7_jclassP10_jmethodIDzE"
    },
    {
     "field_name" : "CallNonvirtualLongMethodV",
     "field_offset" : 2656,
     "referenced_type" : "_ZTIPFxP7_JNIEnvP8_jobjectP7_jclassP10_jmethodIDSt9__va_listE"
    },
    {
     "field_name" : "CallNonvirtualLongMethodA",
     "field_offset" : 2688,
     "referenced_type" : "_ZTIPFxP7_JNIEnvP8_jobjectP7_jclassP10_jmethodIDPK6jvalueE"
    },
    {
     "field_name" : "CallNonvirtualFloatMethod",
     "field_offset" : 2720,
     "referenced_type" : "_ZTIPFfP7_JNIEnvP8_jobjectP7_jclassP10_jmethodIDzE"
    },
    {
     "field_name" : "CallNonvirtualFloatMethodV",
     "field_offset" : 2752,
     "referenced_type" : "_ZTIPFfP7_JNIEnvP8_jobjectP7_jclassP10_jmethodIDSt9__va_listE"
    },
    {
     "field_name" : "CallNonvirtualFloatMethodA",
     "field_offset" : 2784,
     "referenced_type" : "_ZTIPFfP7_JNIEnvP8_jobjectP7_jclassP10_jmethodIDPK6jvalueE"
    },
    {
     "field_name" : "CallNonvirtualDoubleMethod",
     "field_offset" : 2816,
     "referenced_type" : "_ZTIPFdP7_JNIEnvP8_jobjectP7_jclassP10_jmethodIDzE"
    },
    {
     "field_name" : "CallNonvirtualDoubleMethodV",
     "field_offset" : 2848,
     "referenced_type" : "_ZTIPFdP7_JNIEnvP8_jobjectP7_jclassP10_jmethodIDSt9__va_listE"
    },
    {
     "field_name" : "CallNonvirtualDoubleMethodA",
     "field_offset" : 2880,
     "referenced_type" : "_ZTIPFdP7_JNIEnvP8_jobjectP7_jclassP10_jmethodIDPK6jvalueE"
    },
    {
     "field_name" : "CallNonvirtualVoidMethod",
     "field_offset" : 2912,
     "referenced_type" : "_ZTIPFvP7_JNIEnvP8_jobjectP7_jclassP10_jmethodIDzE"
    },
    {
     "field_name" : "CallNonvirtualVoidMethodV",
     "field_offset" : 2944,
     "referenced_type" : "_ZTIPFvP7_JNIEnvP8_jobjectP7_jclassP10_jmethodIDSt9__va_listE"
    },
    {
     "field_name" : "CallNonvirtualVoidMethodA",
     "field_offset" : 2976,
     "referenced_type" : "_ZTIPFvP7_JNIEnvP8_jobjectP7_jclassP10_jmethodIDPK6jvalueE"
    },
    {
     "field_name" : "GetFieldID",
     "field_offset" : 3008,
     "referenced_type" : "_ZTIPFP9_jfieldIDP7_JNIEnvP7_jclassPKcS6_E"
    },
    {
     "field_name" : "GetObjectField",
     "field_offset" : 3040,
     "referenced_type" : "_ZTIPFP8_jobjectP7_JNIEnvS0_P9_jfieldIDE"
    },
    {
     "field_name" : "GetBooleanField",
     "field_offset" : 3072,
     "referenced_type" : "_ZTIPFhP7_JNIEnvP8_jobjectP9_jfieldIDE"
    },
    {
     "field_name" : "GetByteField",
     "field_offset" : 3104,
     "referenced_type" : "_ZTIPFaP7_JNIEnvP8_jobjectP9_jfieldIDE"
    },
    {
     "field_name" : "GetCharField",
     "field_offset" : 3136,
     "referenced_type" : "_ZTIPFtP7_JNIEnvP8_jobjectP9_jfieldIDE"
    },
    {
     "field_name" : "GetShortField",
     "field_offset" : 3168,
     "referenced_type" : "_ZTIPFsP7_JNIEnvP8_jobjectP9_jfieldIDE"
    },
    {
     "field_name" : "GetIntField",
     "field_offset" : 3200,
     "referenced_type" : "_ZTIPFiP7_JNIEnvP8_jobjectP9_jfieldIDE"
    },
    {
     "field_name" : "GetLongField",
     "field_offset" : 3232,
     "referenced_type" : "_ZTIPFxP7_JNIEnvP8_jobjectP9_jfieldIDE"
    },
    {
     "field_name" : "GetFloatField",
     "field_offset" : 3264,
     "referenced_type" : "_ZTIPFfP7_JNIEnvP8_jobjectP9_jfieldIDE"
    },
    {
     "field_name" : "GetDoubleField",
     "field_offset" : 3296,
     "referenced_type" : "_ZTIPFdP7_JNIEnvP8_jobjectP9_jfieldIDE"
    },
    {
     "field_name" : "SetObjectField",
     "field_offset" : 3328,
     "referenced_type" : "_ZTIPFvP7_JNIEnvP8_jobjectP9_jfieldIDS2_E"
    },
    {
     "field_name" : "SetBooleanField",
     "field_offset" : 3360,
     "referenced_type" : "_ZTIPFvP7_JNIEnvP8_jobjectP9_jfieldIDhE"
    },
    {
     "field_name" : "SetByteField",
     "field_offset" : 3392,
     "referenced_type" : "_ZTIPFvP7_JNIEnvP8_jobjectP9_jfieldIDaE"
    },
    {
     "field_name" : "SetCharField",
     "field_offset" : 3424,
     "referenced_type" : "_ZTIPFvP7_JNIEnvP8_jobjectP9_jfieldIDtE"
    },
    {
     "field_name" : "SetShortField",
     "field_offset" : 3456,
     "referenced_type" : "_ZTIPFvP7_JNIEnvP8_jobjectP9_jfieldIDsE"
    },
    {
     "field_name" : "SetIntField",
     "field_offset" : 3488,
     "referenced_type" : "_ZTIPFvP7_JNIEnvP8_jobjectP9_jfieldIDiE"
    },
    {
     "field_name" : "SetLongField",
     "field_offset" : 3520,
     "referenced_type" : "_ZTIPFvP7_JNIEnvP8_jobjectP9_jfieldIDxE"
    },
    {
     "field_name" : "SetFloatField",
     "field_offset" : 3552,
     "referenced_type" : "_ZTIPFvP7_JNIEnvP8_jobjectP9_jfieldIDfE"
    },
    {
     "field_name" : "SetDoubleField",
     "field_offset" : 3584,
     "referenced_type" : "_ZTIPFvP7_JNIEnvP8_jobjectP9_jfieldIDdE"
    },
    {
     "field_name" : "GetStaticMethodID",
     "field_offset" : 3616,
     "referenced_type" : "_ZTIPFP10_jmethodIDP7_JNIEnvP7_jclassPKcS6_E"
    },
    {
     "field_name" : "CallStaticObjectMethod",
     "field_offset" : 3648,
     "referenced_type" : "_ZTIPFP8_jobjectP7_JNIEnvP7_jclassP10_jmethodIDzE"
    },
    {
     "field_name" : "CallStaticObjectMethodV",
     "field_offset" : 3680,
     "referenced_type" : "_ZTIPFP8_jobjectP7_JNIEnvP7_jclassP10_jmethodIDSt9__va_listE"
    },
    {
     "field_name" : "CallStaticObjectMethodA",
     "field_offset" : 3712,
     "referenced_type" : "_ZTIPFP8_jobjectP7_JNIEnvP7_jclassP10_jmethodIDPK6jvalueE"
    },
    {
     "field_name" : "CallStaticBooleanMethod",
     "field_offset" : 3744,
     "referenced_type" : "_ZTIPFhP7_JNIEnvP7_jclassP10_jmethodIDzE"
    },
    {
     "field_name" : "CallStaticBooleanMethodV",
     "field_offset" : 3776,
     "referenced_type" : "_ZTIPFhP7_JNIEnvP7_jclassP10_jmethodIDSt9__va_listE"
    },
    {
     "field_name" : "CallStaticBooleanMethodA",
     "field_offset" : 3808,
     "referenced_type" : "_ZTIPFhP7_JNIEnvP7_jclassP10_jmethodIDPK6jvalueE"
    },
    {
     "field_name" : "CallStaticByteMethod",
     "field_offset" : 3840,
     "referenced_type" : "_ZTIPFaP7_JNIEnvP7_jclassP10_jmethodIDzE"
    },
    {
     "field_name" : "CallStaticByteMethodV",
     "field_offset" : 3872,
     "referenced_type" : "_ZTIPFaP7_JNIEnvP7_jclassP10_jmethodIDSt9__va_listE"
    },
    {
     "field_name" : "CallStaticByteMethodA",
     "field_offset" : 3904,
     "referenced_type" : "_ZTIPFaP7_JNIEnvP7_jclassP10_jmethodIDPK6jvalueE"
    },
    {
     "field_name" : "CallStaticCharMethod",
     "field_offset" : 3936,
     "referenced_type" : "_ZTIPFtP7_JNIEnvP7_jclassP10_jmethodIDzE"
    },
    {
     "field_name" : "CallStaticCharMethodV",
     "field_offset" : 3968,
     "referenced_type" : "_ZTIPFtP7_JNIEnvP7_jclassP10_jmethodIDSt9__va_listE"
    },
    {
     "field_name" : "CallStaticCharMethodA",
     "field_offset" : 4000,
     "referenced_type" : "_ZTIPFtP7_JNIEnvP7_jclassP10_jmethodIDPK6jvalueE"
    },
    {
     "field_name" : "CallStaticShortMethod",
     "field_offset" : 4032,
     "referenced_type" : "_ZTIPFsP7_JNIEnvP7_jclassP10_jmethodIDzE"
    },
    {
     "field_name" : "CallStaticShortMethodV",
     "field_offset" : 4064,
     "referenced_type" : "_ZTIPFsP7_JNIEnvP7_jclassP10_jmethodIDSt9__va_listE"
    },
    {
     "field_name" : "CallStaticShortMethodA",
     "field_offset" : 4096,
     "referenced_type" : "_ZTIPFsP7_JNIEnvP7_jclassP10_jmethodIDPK6jvalueE"
    },
    {
     "field_name" : "CallStaticIntMethod",
     "field_offset" : 4128,
     "referenced_type" : "_ZTIPFiP7_JNIEnvP7_jclassP10_jmethodIDzE"
    },
    {
     "field_name" : "CallStaticIntMethodV",
     "field_offset" : 4160,
     "referenced_type" : "_ZTIPFiP7_JNIEnvP7_jclassP10_jmethodIDSt9__va_listE"
    },
    {
     "field_name" : "CallStaticIntMethodA",
     "field_offset" : 4192,
     "referenced_type" : "_ZTIPFiP7_JNIEnvP7_jclassP10_jmethodIDPK6jvalueE"
    },
    {
     "field_name" : "CallStaticLongMethod",
     "field_offset" : 4224,
     "referenced_type" : "_ZTIPFxP7_JNIEnvP7_jclassP10_jmethodIDzE"
    },
    {
     "field_name" : "CallStaticLongMethodV",
     "field_offset" : 4256,
     "referenced_type" : "_ZTIPFxP7_JNIEnvP7_jclassP10_jmethodIDSt9__va_listE"
    },
    {
     "field_name" : "CallStaticLongMethodA",
     "field_offset" : 4288,
     "referenced_type" : "_ZTIPFxP7_JNIEnvP7_jclassP10_jmethodIDPK6jvalueE"
    },
    {
     "field_name" : "CallStaticFloatMethod",
     "field_offset" : 4320,
     "referenced_type" : "_ZTIPFfP7_JNIEnvP7_jclassP10_jmethodIDzE"
    },
    {
     "field_name" : "CallStaticFloatMethodV",
     "field_offset" : 4352,
     "referenced_type" : "_ZTIPFfP7_JNIEnvP7_jclassP10_jmethodIDSt9__va_listE"
    },
    {
     "field_name" : "CallStaticFloatMethodA",
     "field_offset" : 4384,
     "referenced_type" : "_ZTIPFfP7_JNIEnvP7_jclassP10_jmethodIDPK6jvalueE"
    },
    {
     "field_name" : "CallStaticDoubleMethod",
     "field_offset" : 4416,
     "referenced_type" : "_ZTIPFdP7_JNIEnvP7_jclassP10_jmethodIDzE"
    },
    {
     "field_name" : "CallStaticDoubleMethodV",
     "field_offset" : 4448,
     "referenced_type" : "_ZTIPFdP7_JNIEnvP7_jclassP10_jmethodIDSt9__va_listE"
    },
    {
     "field_name" : "CallStaticDoubleMethodA",
     "field_offset" : 4480,
     "referenced_type" : "_ZTIPFdP7_JNIEnvP7_jclassP10_jmethodIDPK6jvalueE"
    },
    {
     "field_name" : "CallStaticVoidMethod",
     "field_offset" : 4512,
     "referenced_type" : "_ZTIPFvP7_JNIEnvP7_jclassP10_jmethodIDzE"
    },
    {
     "field_name" : "CallStaticVoidMethodV",
     "field_offset" : 4544,
     "referenced_type" : "_ZTIPFvP7_JNIEnvP7_jclassP10_jmethodIDSt9__va_listE"
    },
    {
     "field_name" : "CallStaticVoidMethodA",
     "field_offset" : 4576,
     "referenced_type" : "_ZTIPFvP7_JNIEnvP7_jclassP10_jmethodIDPK6jvalueE"
    },
    {
     "field_name" : "GetStaticFieldID",
     "field_offset" : 4608,
     "referenced_type" : "_ZTIPFP9_jfieldIDP7_JNIEnvP7_jclassPKcS6_E"
    },
    {
     "field_name" : "GetStaticObjectField",
     "field_offset" : 4640,
     "referenced_type" : "_ZTIPFP8_jobjectP7_JNIEnvP7_jclassP9_jfieldIDE"
    },
    {
     "field_name" : "GetStaticBooleanField",
     "field_offset" : 4672,
     "referenced_type" : "_ZTIPFhP7_JNIEnvP7_jclassP9_jfieldIDE"
    },
    {
     "field_name" : "GetStaticByteField",
     "field_offset" : 4704,
     "referenced_type" : "_ZTIPFaP7_JNIEnvP7_jclassP9_jfieldIDE"
    },
    {
     "field_name" : "GetStaticCharField",
     "field_offset" : 4736,
     "referenced_type" : "_ZTIPFtP7_JNIEnvP7_jclassP9_jfieldIDE"
    },
    {
     "field_name" : "GetStaticShortField",
     "field_offset" : 4768,
     "referenced_type" : "_ZTIPFsP7_JNIEnvP7_jclassP9_jfieldIDE"
    },
    {
     "field_name" : "GetStaticIntField",
     "field_offset" : 4800,
     "referenced_type" : "_ZTIPFiP7_JNIEnvP7_jclassP9_jfieldIDE"
    },
    {
     "field_name" : "GetStaticLongField",
     "field_offset" : 4832,
     "referenced_type" : "_ZTIPFxP7_JNIEnvP7_jclassP9_jfieldIDE"
    },
    {
     "field_name" : "GetStaticFloatField",
     "field_offset" : 4864,
     "referenced_type" : "_ZTIPFfP7_JNIEnvP7_jclassP9_jfieldIDE"
    },
    {
     "field_name" : "GetStaticDoubleField",
     "field_offset" : 4896,
     "referenced_type" : "_ZTIPFdP7_JNIEnvP7_jclassP9_jfieldIDE"
    },
    {
     "field_name" : "SetStaticObjectField",
     "field_offset" : 4928,
     "referenced_type" : "_ZTIPFvP7_JNIEnvP7_jclassP9_jfieldIDP8_jobjectE"
    },
    {
     "field_name" : "SetStaticBooleanField",
     "field_offset" : 4960,
     "referenced_type" : "_ZTIPFvP7_JNIEnvP7_jclassP9_jfieldIDhE"
    },
    {
     "field_name" : "SetStaticByteField",
     "field_offset" : 4992,
     "referenced_type" : "_ZTIPFvP7_JNIEnvP7_jclassP9_jfieldIDaE"
    },
    {
     "field_name" : "SetStaticCharField",
     "field_offset" : 5024,
     "referenced_type" : "_ZTIPFvP7_JNIEnvP7_jclassP9_jfieldIDtE"
    },
    {
     "field_name" : "SetStaticShortField",
     "field_offset" : 5056,
     "referenced_type" : "_ZTIPFvP7_JNIEnvP7_jclassP9_jfieldIDsE"
    },
    {
     "field_name" : "SetStaticIntField",
     "field_offset" : 5088,
     "referenced_type" : "_ZTIPFvP7_JNIEnvP7_jclassP9_jfieldIDiE"
    },
    {
     "field_name" : "SetStaticLongField",
     "field_offset" : 5120,
     "referenced_type" : "_ZTIPFvP7_JNIEnvP7_jclassP9_jfieldIDxE"
    },
    {
     "field_name" : "SetStaticFloatField",
     "field_offset" : 5152,
     "referenced_type" : "_ZTIPFvP7_JNIEnvP7_jclassP9_jfieldIDfE"
    },
    {
     "field_name" : "SetStaticDoubleField",
     "field_offset" : 5184,
     "referenced_type" : "_ZTIPFvP7_JNIEnvP7_jclassP9_jfieldIDdE"
    },
    {
     "field_name" : "NewString",
     "field_offset" : 5216,
     "referenced_type" : "_ZTIPFP8_jstringP7_JNIEnvPKtiE"
    },
    {
     "field_name" : "GetStringLength",
     "field_offset" : 5248,
     "referenced_type" : "_ZTIPFiP7_JNIEnvP8_jstringE"
    },
    {
     "field_name" : "GetStringChars",
     "field_offset" : 5280,
     "referenced_type" : "_ZTIPFPKtP7_JNIEnvP8_jstringPhE"
    },
    {
     "field_name" : "ReleaseStringChars",
     "field_offset" : 5312,
     "referenced_type" : "_ZTIPFvP7_JNIEnvP8_jstringPKtE"
    },
    {
     "field_name" : "NewStringUTF",
     "field_offset" : 5344,
     "referenced_type" : "_ZTIPFP8_jstringP7_JNIEnvPKcE"
    },
    {
     "field_name" : "GetStringUTFLength",
     "field_offset" : 5376,
     "referenced_type" : "_ZTIPFiP7_JNIEnvP8_jstringE"
    },
    {
     "field_name" : "GetStringUTFChars",
     "field_offset" : 5408,
     "referenced_type" : "_ZTIPFPKcP7_JNIEnvP8_jstringPhE"
    },
    {
     "field_name" : "ReleaseStringUTFChars",
     "field_offset" : 5440,
     "referenced_type" : "_ZTIPFvP7_JNIEnvP8_jstringPKcE"
    },
    {
     "field_name" : "GetArrayLength",
     "field_offset" : 5472,
     "referenced_type" : "_ZTIPFiP7_JNIEnvP7_jarrayE"
    },
    {
     "field_name" : "NewObjectArray",
     "field_offset" : 5504,
     "referenced_type" : "_ZTIPFP13_jobjectArrayP7_JNIEnviP7_jclassP8_jobjectE"
    },
    {
     "field_name" : "GetObjectArrayElement",
     "field_offset" : 5536,
     "referenced_type" : "_ZTIPFP8_jobjectP7_JNIEnvP13_jobjectArrayiE"
    },
    {
     "field_name" : "SetObjectArrayElement",
     "field_offset" : 5568,
     "referenced_type" : "_ZTIPFvP7_JNIEnvP13_jobjectArrayiP8_jobjectE"
    },
    {
     "field_name" : "NewBooleanArray",
     "field_offset" : 5600,
     "referenced_type" : "_ZTIPFP14_jbooleanArrayP7_JNIEnviE"
    },
    {
     "field_name" : "NewByteArray",
     "field_offset" : 5632,
     "referenced_type" : "_ZTIPFP11_jbyteArrayP7_JNIEnviE"
    },
    {
     "field_name" : "NewCharArray",
     "field_offset" : 5664,
     "referenced_type" : "_ZTIPFP11_jcharArrayP7_JNIEnviE"
    },
    {
     "field_name" : "NewShortArray",
     "field_offset" : 5696,
     "referenced_type" : "_ZTIPFP12_jshortArrayP7_JNIEnviE"
    },
    {
     "field_name" : "NewIntArray",
     "field_offset" : 5728,
     "referenced_type" : "_ZTIPFP10_jintArrayP7_JNIEnviE"
    },
    {
     "field_name" : "NewLongArray",
     "field_offset" : 5760,
     "referenced_type" : "_ZTIPFP11_jlongArrayP7_JNIEnviE"
    },
    {
     "field_name" : "NewFloatArray",
     "field_offset" : 5792,
     "referenced_type" : "_ZTIPFP12_jfloatArrayP7_JNIEnviE"
    },
    {
     "field_name" : "NewDoubleArray",
     "field_offset" : 5824,
     "referenced_type" : "_ZTIPFP13_jdoubleArrayP7_JNIEnviE"
    },
    {
     "field_name" : "GetBooleanArrayElements",
     "field_offset" : 5856,
     "referenced_type" : "_ZTIPFPhP7_JNIEnvP14_jbooleanArrayS_E"
    },
    {
     "field_name" : "GetByteArrayElements",
     "field_offset" : 5888,
     "referenced_type" : "_ZTIPFPaP7_JNIEnvP11_jbyteArrayPhE"
    },
    {
     "field_name" : "GetCharArrayElements",
     "field_offset" : 5920,
     "referenced_type" : "_ZTIPFPtP7_JNIEnvP11_jcharArrayPhE"
    },
    {
     "field_name" : "GetShortArrayElements",
     "field_offset" : 5952,
     "referenced_type" : "_ZTIPFPsP7_JNIEnvP12_jshortArrayPhE"
    },
    {
     "field_name" : "GetIntArrayElements",
     "field_offset" : 5984,
     "referenced_type" : "_ZTIPFPiP7_JNIEnvP10_jintArrayPhE"
    },
    {
     "field_name" : "GetLongArrayElements",
     "field_offset" : 6016,
     "referenced_type" : "_ZTIPFPxP7_JNIEnvP11_jlongArrayPhE"
    },
    {
     "field_name" : "GetFloatArrayElements",
     "field_offset" : 6048,
     "referenced_type" : "_ZTIPFPfP7_JNIEnvP12_jfloatArrayPhE"
    },
    {
     "field_name" : "GetDoubleArrayElements",
     "field_offset" : 6080,
     "referenced_type" : "_ZTIPFPdP7_JNIEnvP13_jdoubleArrayPhE"
    },
    {
     "field_name" : "ReleaseBooleanArrayElements",
     "field_offset" : 6112,
     "referenced_type" : "_ZTIPFvP7_JNIEnvP14_jbooleanArrayPhiE"
    },
    {
     "field_name" : "ReleaseByteArrayElements",
     "field_offset" : 6144,
     "referenced_type" : "_ZTIPFvP7_JNIEnvP11_jbyteArrayPaiE"
    },
    {
     "field_name" : "ReleaseCharArrayElements",
     "field_offset" : 6176,
     "referenced_type" : "_ZTIPFvP7_JNIEnvP11_jcharArrayPtiE"
    },
    {
     "field_name" : "ReleaseShortArrayElements",
     "field_offset" : 6208,
     "referenced_type" : "_ZTIPFvP7_JNIEnvP12_jshortArrayPsiE"
    },
    {
     "field_name" : "ReleaseIntArrayElements",
     "field_offset" : 6240,
     "referenced_type" : "_ZTIPFvP7_JNIEnvP10_jintArrayPiiE"
    },
    {
     "field_name" : "ReleaseLongArrayElements",
     "field_offset" : 6272,
     "referenced_type" : "_ZTIPFvP7_JNIEnvP11_jlongArrayPxiE"
    },
    {
     "field_name" : "ReleaseFloatArrayElements",
     "field_offset" : 6304,
     "referenced_type" : "_ZTIPFvP7_JNIEnvP12_jfloatArrayPfiE"
    },
    {
     "field_name" : "ReleaseDoubleArrayElements",
     "field_offset" : 6336,
     "referenced_type" : "_ZTIPFvP7_JNIEnvP13_jdoubleArrayPdiE"
    },
    {
     "field_name" : "GetBooleanArrayRegion",
     "field_offset" : 6368,
     "referenced_type" : "_ZTIPFvP7_JNIEnvP14_jbooleanArrayiiPhE"
    },
    {
     "field_name" : "GetByteArrayRegion",
     "field_offset" : 6400,
     "referenced_type" : "_ZTIPFvP7_JNIEnvP11_jbyteArrayiiPaE"
    },
    {
     "field_name" : "GetCharArrayRegion",
     "field_offset" : 6432,
     "referenced_type" : "_ZTIPFvP7_JNIEnvP11_jcharArrayiiPtE"
    },
    {
     "field_name" : "GetShortArrayRegion",
     "field_offset" : 6464,
     "referenced_type" : "_ZTIPFvP7_JNIEnvP12_jshortArrayiiPsE"
    },
    {
     "field_name" : "GetIntArrayRegion",
     "field_offset" : 6496,
     "referenced_type" : "_ZTIPFvP7_JNIEnvP10_jintArrayiiPiE"
    },
    {
     "field_name" : "GetLongArrayRegion",
     "field_offset" : 6528,
     "referenced_type" : "_ZTIPFvP7_JNIEnvP11_jlongArrayiiPxE"
    },
    {
     "field_name" : "GetFloatArrayRegion",
     "field_offset" : 6560,
     "referenced_type" : "_ZTIPFvP7_JNIEnvP12_jfloatArrayiiPfE"
    },
    {
     "field_name" : "GetDoubleArrayRegion",
     "field_offset" : 6592,
     "referenced_type" : "_ZTIPFvP7_JNIEnvP13_jdoubleArrayiiPdE"
    },
    {
     "field_name" : "SetBooleanArrayRegion",
     "field_offset" : 6624,
     "referenced_type" : "_ZTIPFvP7_JNIEnvP14_jbooleanArrayiiPKhE"
    },
    {
     "field_name" : "SetByteArrayRegion",
     "field_offset" : 6656,
     "referenced_type" : "_ZTIPFvP7_JNIEnvP11_jbyteArrayiiPKaE"
    },
    {
     "field_name" : "SetCharArrayRegion",
     "field_offset" : 6688,
     "referenced_type" : "_ZTIPFvP7_JNIEnvP11_jcharArrayiiPKtE"
    },
    {
     "field_name" : "SetShortArrayRegion",
     "field_offset" : 6720,
     "referenced_type" : "_ZTIPFvP7_JNIEnvP12_jshortArrayiiPKsE"
    },
    {
     "field_name" : "SetIntArrayRegion",
     "field_offset" : 6752,
     "referenced_type" : "_ZTIPFvP7_JNIEnvP10_jintArrayiiPKiE"
    },
    {
     "field_name" : "SetLongArrayRegion",
     "field_offset" : 6784,
     "referenced_type" : "_ZTIPFvP7_JNIEnvP11_jlongArrayiiPKxE"
    },
    {
     "field_name" : "SetFloatArrayRegion",
     "field_offset" : 6816,
     "referenced_type" : "_ZTIPFvP7_JNIEnvP12_jfloatArrayiiPKfE"
    },
    {
     "field_name" : "SetDoubleArrayRegion",
     "field_offset" : 6848,
     "referenced_type" : "_ZTIPFvP7_JNIEnvP13_jdoubleArrayiiPKdE"
    },
    {
     "field_name" : "RegisterNatives",
     "field_offset" : 6880,
     "referenced_type" : "_ZTIPFiP7_JNIEnvP7_jclassPK15JNINativeMethodiE"
    },
    {
     "field_name" : "UnregisterNatives",
     "field_offset" : 6912,
     "referenced_type" : "_ZTIPFiP7_JNIEnvP7_jclassE"
    },
    {
     "field_name" : "MonitorEnter",
     "field_offset" : 6944,
     "referenced_type" : "_ZTIPFiP7_JNIEnvP8_jobjectE"
    },
    {
     "field_name" : "MonitorExit",
     "field_offset" : 6976,
     "referenced_type" : "_ZTIPFiP7_JNIEnvP8_jobjectE"
    },
    {
     "field_name" : "GetJavaVM",
     "field_offset" : 7008,
     "referenced_type" : "_ZTIPFiP7_JNIEnvPP7_JavaVME"
    },
    {
     "field_name" : "GetStringRegion",
     "field_offset" : 7040,
     "referenced_type" : "_ZTIPFvP7_JNIEnvP8_jstringiiPtE"
    },
    {
     "field_name" : "GetStringUTFRegion",
     "field_offset" : 7072,
     "referenced_type" : "_ZTIPFvP7_JNIEnvP8_jstringiiPcE"
    },
    {
     "field_name" : "GetPrimitiveArrayCritical",
     "field_offset" : 7104,
     "referenced_type" : "_ZTIPFPvP7_JNIEnvP7_jarrayPhE"
    },
    {
     "field_name" : "ReleasePrimitiveArrayCritical",
     "field_offset" : 7136,
     "referenced_type" : "_ZTIPFvP7_JNIEnvP7_jarrayPviE"
    },
    {
     "field_name" : "GetStringCritical",
     "field_offset" : 7168,
     "referenced_type" : "_ZTIPFPKtP7_JNIEnvP8_jstringPhE"
    },
    {
     "field_name" : "ReleaseStringCritical",
     "field_offset" : 7200,
     "referenced_type" : "_ZTIPFvP7_JNIEnvP8_jstringPKtE"
    },
    {
     "field_name" : "NewWeakGlobalRef",
     "field_offset" : 7232,
     "referenced_type" : "_ZTIPFP8_jobjectP7_JNIEnvS0_E"
    },
    {
     "field_name" : "DeleteWeakGlobalRef",
     "field_offset" : 7264,
     "referenced_type" : "_ZTIPFvP7_JNIEnvP8_jobjectE"
    },
    {
     "field_name" : "ExceptionCheck",
     "field_offset" : 7296,
     "referenced_type" : "_ZTIPFhP7_JNIEnvE"
    },
    {
     "field_name" : "NewDirectByteBuffer",
     "field_offset" : 7328,
     "referenced_type" : "_ZTIPFP8_jobjectP7_JNIEnvPvxE"
    },
    {
     "field_name" : "GetDirectBufferAddress",
     "field_offset" : 7360,
     "referenced_type" : "_ZTIPFPvP7_JNIEnvP8_jobjectE"
    },
    {
     "field_name" : "GetDirectBufferCapacity",
     "field_offset" : 7392,
     "referenced_type" : "_ZTIPFxP7_JNIEnvP8_jobjectE"
    },
    {
     "field_name" : "GetObjectRefType",
     "field_offset" : 7424,
     "referenced_type" : "_ZTIPF14jobjectRefTypeP7_JNIEnvP8_jobjectE"
    }
   ],
   "linker_set_key" : "_ZTI18JNINativeInterface",
   "name" : "JNINativeInterface",
   "referenced_type" : "_ZTI18JNINativeInterface",
   "self_type" : "_ZTI18JNINativeInterface",
   "size" : 932,
   "source_file" : "libnativehelper/include_jni/jni.h"
  },
  {
   "alignment" : 4,
   "fields" :
   [
    {
     "field_name" : "_u",
     "referenced_type" : "_ZTIN18__kernel_sigactionUt_E"
    },
    {
     "field_name" : "sa_mask",
     "field_offset" : 32,
     "referenced_type" : "_ZTIm"
    },
    {
     "field_name" : "sa_flags",
     "field_offset" : 64,
     "referenced_type" : "_ZTIm"
    },
    {
     "field_name" : "sa_restorer",
     "field_offset" : 96,
     "referenced_type" : "_ZTIPFvvE"
    }
   ],
   "linker_set_key" : "_ZTI18__kernel_sigaction",
   "name" : "__kernel_sigaction",
   "referenced_type" : "_ZTI18__kernel_sigaction",
   "self_type" : "_ZTI18__kernel_sigaction",
   "size" : 16,
   "source_file" : "bionic/libc/kernel/uapi/asm-arm/asm/signal.h"
  },
  {
   "alignment" : 4,
   "fields" :
   [
    {
     "field_name" : "__private",
     "referenced_type" : "_ZTIA2_i"
    }
   ],
   "linker_set_key" : "_ZTI18pthread_spinlock_t",
   "name" : "pthread_spinlock_t",
   "referenced_type" : "_ZTI18pthread_spinlock_t",
   "self_type" : "_ZTI18pthread_spinlock_t",
   "size" : 8,
   "source_file" : "bionic/libc/include/bits/pthread_types.h"
  },
  {
   "alignment" : 8,
   "fields" :
   [
    {
     "field_name" : "it_interval",
     "referenced_type" : "_ZTI17__kernel_timespec"
    },
    {
     "field_name" : "it_value",
     "field_offset" : 128,
     "referenced_type" : "_ZTI17__kernel_timespec"
    }
   ],
   "linker_set_key" : "_ZTI19__kernel_itimerspec",
   "name" : "__kernel_itimerspec",
   "referenced_type" : "_ZTI19__kernel_itimerspec",
   "self_type" : "_ZTI19__kernel_itimerspec",
   "size" : 32,
   "source_file" : "bionic/libc/kernel/uapi/linux/time_types.h"
  },
  {
   "alignment" : 4,
   "fields" :
   [
    {
     "field_name" : "tv_sec",
     "referenced_type" : "_ZTIl"
    },
    {
     "field_name" : "tv_nsec",
     "field_offset" : 32,
     "referenced_type" : "_ZTIl"
    }
   ],
   "linker_set_key" : "_ZTI21__kernel_old_timespec",
   "name" : "__kernel_old_timespec",
   "referenced_type" : "_ZTI21__kernel_old_timespec",
   "self_type" : "_ZTI21__kernel_old_timespec",
   "size" : 8,
   "source_file" : "bionic/libc/kernel/uapi/linux/time_types.h"
  },
  {
   "alignment" : 8,
   "fields" :
   [
    {
     "field_name" : "tv_sec",
     "referenced_type" : "_ZTIx"
    },
    {
     "field_name" : "tv_usec",
     "field_offset" : 64,
     "referenced_type" : "_ZTIx"
    }
   ],
   "linker_set_key" : "_ZTI21__kernel_sock_timeval",
   "name" : "__kernel_sock_timeval",
   "referenced_type" : "_ZTI21__kernel_sock_timeval",
   "self_type" : "_ZTI21__kernel_sock_timeval",
   "size" : 16,
   "source_file" : "bionic/libc/kernel/uapi/linux/time_types.h"
  },
  {
   "alignment" : 4,
   "fields" :
   [
    {
     "field_name" : "regs",
     "referenced_type" : "_ZTI9user_regs"
    },
    {
     "field_name" : "u_fpvalid",
     "field_offset" : 576,
     "referenced_type" : "_ZTIi"
    },
    {
     "field_name" : "u_tsize",
     "field_offset" : 608,
     "referenced_type" : "_ZTIm"
    },
    {
     "field_name" : "u_dsize",
     "field_offset" : 640,
     "referenced_type" : "_ZTIm"
    },
    {
     "field_name" : "u_ssize",
     "field_offset" : 672,
     "referenced_type" : "_ZTIm"
    },
    {
     "field_name" : "start_code",
     "field_offset" : 704,
     "referenced_type" : "_ZTIm"
    },
    {
     "field_name" : "start_stack",
     "field_offset" : 736,
     "referenced_type" : "_ZTIm"
    },
    {
     "field_name" : "signal",
     "field_offset" : 768,
     "referenced_type" : "_ZTIl"
    },
    {
     "field_name" : "reserved",
     "field_offset" : 800,
     "referenced_type" : "_ZTIi"
    },
    {
     "field_name" : "u_ar0",
     "field_offset" : 832,
     "referenced_type" : "_ZTIP9user_regs"
    },
    {
     "field_name" : "magic",
     "field_offset" : 864,
     "referenced_type" : "_ZTIm"
    },
    {
     "field_name" : "u_comm",
     "field_offset" : 896,
     "referenced_type" : "_ZTIA32_c"
    },
    {
     "field_name" : "u_debugreg",
     "field_offset" : 1152,
     "referenced_type" : "_ZTIA8_i"
    },
    {
     "field_name" : "u_fp",
     "field_offset" : 1408,
     "referenced_type" : "_ZTI11user_fpregs"
    },
    {
     "field_name" : "u_fp0",
     "field_offset" : 2336,
     "referenced_type" : "_ZTIP11user_fpregs"
    }
   ],
   "linker_set_key" : "_ZTI4user",
   "name" : "user",
   "referenced_type" : "_ZTI4user",
   "self_type" : "_ZTI4user",
   "size" : 296,
   "source_file" : "bionic/libc/include/sys/user.h"
  },
  {
   "alignment" : 4,
   "fields" :
   [
    {
     "field_name" : "fds_bits",
     "referenced_type" : "_ZTIA32_m"
    }
   ],
   "linker_set_key" : "_ZTI6fd_set",
   "name" : "fd_set",
   "referenced_type" : "_ZTI6fd_set",
   "self_type" : "_ZTI6fd_set",
   "size" : 128,
   "source_file" : "bionic/libc/include/sys/select.h"
  },
  {
   "alignment" : 8,
   "fields" :
   [
    {
     "field_name" : "z",
     "referenced_type" : "_ZTIh"
    },
    {
     "field_name" : "b",
     "referenced_type" : "_ZTIa"
    },
    {
     "field_name" : "c",
