{
 "array_types" :
 [
  {
   "alignment" : 8,
   "linker_set_key" : "_ZTIA2052_y",
   "name" : "unsigned long long [2052]",
   "referenced_type" : "_ZTIy",
   "self_type" : "_ZTIA2052_y",
   "size" : 16416,
   "source_file" : "external/lz4/lib/lz4.h"
  },
  {
   "alignment" : 4,
   "linker_set_key" : "_ZTIA32768_j",
   "name" : "unsigned int [32768]",
   "referenced_type" : "_ZTIj",
   "self_type" : "_ZTIA32768_j",
   "size" : 131072,
   "source_file" : "external/lz4/lib/lz4hc.h"
  },
  {
   "alignment" : 8,
   "linker_set_key" : "_ZTIA32775_m",
   "name" : "unsigned long [32775]",
   "referenced_type" : "_ZTIm",
   "self_type" : "_ZTIA32775_m",
   "size" : 262200,
   "source_file" : "external/lz4/lib/lz4hc.h"
  },
  {
   "alignment" : 4,
   "linker_set_key" : "_ZTIA4096_j",
   "name" : "unsigned int [4096]",
   "referenced_type" : "_ZTIj",
   "self_type" : "_ZTIA4096_j",
   "size" : 16384,
   "source_file" : "external/lz4/lib/lz4.h"
  },
  {
   "alignment" : 8,
   "linker_set_key" : "_ZTIA4_y",
   "name" : "unsigned long long [4]",
   "referenced_type" : "_ZTIy",
   "self_type" : "_ZTIA4_y",
   "size" : 32,
   "source_file" : "external/lz4/lib/lz4.h"
  },
  {
   "alignment" : 2,
   "linker_set_key" : "_ZTIA65536_t",
   "name" : "unsigned short [65536]",
   "referenced_type" : "_ZTIt",
   "self_type" : "_ZTIA65536_t",
   "size" : 131072,
   "source_file" : "external/lz4/lib/lz4hc.h"
  }
 ],
 "builtin_types" :
 [
  {
   "alignment" : 1,
   "is_integral" : true,
   "linker_set_key" : "_ZTIa",
   "name" : "signed char",
   "referenced_type" : "_ZTIa",
   "self_type" : "_ZTIa",
   "size" : 1
  },
  {
   "alignment" : 1,
   "is_integral" : true,
   "is_unsigned" : true,
   "linker_set_key" : "_ZTIc",
   "name" : "char",
   "referenced_type" : "_ZTIc",
   "self_type" : "_ZTIc",
   "size" : 1
  },
  {
   "alignment" : 1,
   "is_integral" : true,
   "is_unsigned" : true,
   "linker_set_key" : "_ZTIh",
   "name" : "unsigned char",
   "referenced_type" : "_ZTIh",
   "self_type" : "_ZTIh",
   "size" : 1
  },
  {
   "alignment" : 4,
   "is_integral" : true,
   "linker_set_key" : "_ZTIi",
   "name" : "int",
   "referenced_type" : "_ZTIi",
   "self_type" : "_ZTIi",
   "size" : 4
  },
  {
   "alignment" : 4,
   "is_integral" : true,
   "is_unsigned" : true,
   "linker_set_key" : "_ZTIj",
   "name" : "unsigned int",
   "referenced_type" : "_ZTIj",
   "self_type" : "_ZTIj",
   "size" : 4
  },
  {
   "alignment" : 8,
   "is_integral" : true,
   "is_unsigned" : true,
   "linker_set_key" : "_ZTIm",
   "name" : "unsigned long",
   "referenced_type" : "_ZTIm",
   "self_type" : "_ZTIm",
   "size" : 8
  },
  {
   "alignment" : 2,
   "is_integral" : true,
   "linker_set_key" : "_ZTIs",
   "name" : "short",
   "referenced_type" : "_ZTIs",
   "self_type" : "_ZTIs",
   "size" : 2
  },
  {
   "alignment" : 2,
   "is_integral" : true,
   "is_unsigned" : true,
   "linker_set_key" : "_ZTIt",
   "name" : "unsigned short",
   "referenced_type" : "_ZTIt",
   "self_type" : "_ZTIt",
   "size" : 2
  },
  {
   "linker_set_key" : "_ZTIv",
   "name" : "void",
   "referenced_type" : "_ZTIv",
   "self_type" : "_ZTIv"
  },
  {
   "alignment" : 8,
   "is_integral" : true,
   "is_unsigned" : true,
   "linker_set_key" : "_ZTIy",
   "name" : "unsigned long long",
   "referenced_type" : "_ZTIy",
   "self_type" : "_ZTIy",
   "size" : 8
  }
 ],
 "elf_functions" : [],
 "elf_objects" : [],
 "enum_types" : [],
 "function_types" : [],
 "functions" :
 [
  {
   "function_name" : "LZ4_attach_HC_dictionary",
   "linker_set_key" : "LZ4_attach_HC_dictionary",
   "parameters" :
   [
    {
     "referenced_type" : "_ZTIP14LZ4_streamHC_u"
    },
    {
     "referenced_type" : "_ZTIPK14LZ4_streamHC_u"
    }
   ],
   "return_type" : "_ZTIv",
   "source_file" : "external/lz4/lib/lz4hc.h"
  },
  {
   "function_name" : "LZ4_compressHC",
   "linker_set_key" : "LZ4_compressHC",
   "parameters" :
   [
    {
     "referenced_type" : "_ZTIPKc"
    },
    {
     "referenced_type" : "_ZTIPc"
    },
    {
     "referenced_type" : "_ZTIi"
    }
   ],
   "return_type" : "_ZTIi",
   "source_file" : "external/lz4/lib/lz4hc.h"
  },
  {
   "function_name" : "LZ4_compressHC2",
   "linker_set_key" : "LZ4_compressHC2",
   "parameters" :
   [
    {
     "referenced_type" : "_ZTIPKc"
    },
    {
     "referenced_type" : "_ZTIPc"
    },
    {
     "referenced_type" : "_ZTIi"
    },
    {
     "referenced_type" : "_ZTIi"
    }
   ],
   "return_type" : "_ZTIi",
   "source_file" : "external/lz4/lib/lz4hc.h"
  },
  {
   "function_name" : "LZ4_compressHC2_continue",
   "linker_set_key" : "LZ4_compressHC2_continue",
   "parameters" :
   [
    {
     "referenced_type" : "_ZTIPv"
    },
    {
     "referenced_type" : "_ZTIPKc"
    },
    {
     "referenced_type" : "_ZTIPc"
    },
    {
     "referenced_type" : "_ZTIi"
    },
    {
     "referenced_type" : "_ZTIi"
    }
   ],
   "return_type" : "_ZTIi",
   "source_file" : "external/lz4/lib/lz4hc.h"
  },
  {
   "function_name" : "LZ4_compressHC2_limitedOutput",
   "linker_set_key" : "LZ4_compressHC2_limitedOutput",
   "parameters" :
   [
    {
     "referenced_type" : "_ZTIPKc"
    },
    {
     "referenced_type" : "_ZTIPc"
    },
    {
     "referenced_type" : "_ZTIi"
    },
    {
     "referenced_type" : "_ZTIi"
    },
    {
     "referenced_type" : "_ZTIi"
    }
   ],
   "return_type" : "_ZTIi",
   "source_file" : "external/lz4/lib/lz4hc.h"
  },
  {
   "function_name" : "LZ4_compressHC2_limitedOutput_continue",
   "linker_set_key" : "LZ4_compressHC2_limitedOutput_continue",
   "parameters" :
   [
    {
     "referenced_type" : "_ZTIPv"
    },
    {
     "referenced_type" : "_ZTIPKc"
    },
    {
     "referenced_type" : "_ZTIPc"
    },
    {
     "referenced_type" : "_ZTIi"
    },
    {
     "referenced_type" : "_ZTIi"
    },
    {
     "referenced_type" : "_ZTIi"
    }
   ],
   "return_type" : "_ZTIi",
   "source_file" : "external/lz4/lib/lz4hc.h"
  },
  {
   "function_name" : "LZ4_compressHC2_limitedOutput_withStateHC",
   "linker_set_key" : "LZ4_compressHC2_limitedOutput_withStateHC",
   "parameters" :
   [
    {
     "referenced_type" : "_ZTIPv"
    },
    {
     "referenced_type" : "_ZTIPKc"
    },
    {
     "referenced_type" : "_ZTIPc"
    },
    {
     "referenced_type" : "_ZTIi"
    },
    {
     "referenced_type" : "_ZTIi"
    },
    {
     "referenced_type" : "_ZTIi"
    }
   ],
   "return_type" : "_ZTIi",
   "source_file" : "external/lz4/lib/lz4hc.h"
  },
  {
   "function_name" : "LZ4_compressHC2_withStateHC",
   "linker_set_key" : "LZ4_compressHC2_withStateHC",
   "parameters" :
   [
    {
     "referenced_type" : "_ZTIPv"
    },
    {
     "referenced_type" : "_ZTIPKc"
    },
    {
     "referenced_type" : "_ZTIPc"
    },
    {
     "referenced_type" : "_ZTIi"
    },
    {
     "referenced_type" : "_ZTIi"
    }
   ],
   "return_type" : "_ZTIi",
   "source_file" : "external/lz4/lib/lz4hc.h"
  },
  {
   "function_name" : "LZ4_compressHC_continue",
   "linker_set_key" : "LZ4_compressHC_continue",
   "parameters" :
   [
    {
     "referenced_type" : "_ZTIP14LZ4_streamHC_u"
    },
    {
     "referenced_type" : "_ZTIPKc"
    },
    {
     "referenced_type" : "_ZTIPc"
    },
    {
     "referenced_type" : "_ZTIi"
    }
   ],
   "return_type" : "_ZTIi",
   "source_file" : "external/lz4/lib/lz4hc.h"
  },
  {
   "function_name" : "LZ4_compressHC_limitedOutput",
   "linker_set_key" : "LZ4_compressHC_limitedOutput",
   "parameters" :
   [
    {
     "referenced_type" : "_ZTIPKc"
    },
    {
     "referenced_type" : "_ZTIPc"
    },
    {
     "referenced_type" : "_ZTIi"
    },
    {
     "referenced_type" : "_ZTIi"
    }
   ],
   "return_type" : "_ZTIi",
   "source_file" : "external/lz4/lib/lz4hc.h"
  },
  {
   "function_name" : "LZ4_compressHC_limitedOutput_continue",
   "linker_set_key" : "LZ4_compressHC_limitedOutput_continue",
   "parameters" :
   [
    {
     "referenced_type" : "_ZTIP14LZ4_streamHC_u"
    },
    {
     "referenced_type" : "_ZTIPKc"
    },
    {
     "referenced_type" : "_ZTIPc"
    },
    {
     "referenced_type" : "_ZTIi"
    },
    {
     "referenced_type" : "_ZTIi"
    }
   ],
   "return_type" : "_ZTIi",
   "source_file" : "external/lz4/lib/lz4hc.h"
  },
  {
   "function_name" : "LZ4_compressHC_limitedOutput_withStateHC",
   "linker_set_key" : "LZ4_compressHC_limitedOutput_withStateHC",
   "parameters" :
   [
    {
     "referenced_type" : "_ZTIPv"
    },
    {
     "referenced_type" : "_ZTIPKc"
    },
    {
     "referenced_type" : "_ZTIPc"
    },
    {
     "referenced_type" : "_ZTIi"
    },
    {
     "referenced_type" : "_ZTIi"
    }
   ],
   "return_type" : "_ZTIi",
   "source_file" : "external/lz4/lib/lz4hc.h"
  },
  {
   "function_name" : "LZ4_compressHC_withStateHC",
   "linker_set_key" : "LZ4_compressHC_withStateHC",
   "parameters" :
   [
    {
     "referenced_type" : "_ZTIPv"
    },
    {
     "referenced_type" : "_ZTIPKc"
    },
    {
     "referenced_type" : "_ZTIPc"
    },
    {
     "referenced_type" : "_ZTIi"
    }
   ],
   "return_type" : "_ZTIi",
   "source_file" : "external/lz4/lib/lz4hc.h"
  },
  {
   "function_name" : "LZ4_compress_HC",
   "linker_set_key" : "LZ4_compress_HC",
   "parameters" :
   [
    {
     "referenced_type" : "_ZTIPKc"
    },
    {
     "referenced_type" : "_ZTIPc"
    },
    {
     "referenced_type" : "_ZTIi"
    },
    {
     "referenced_type" : "_ZTIi"
    },
    {
     "referenced_type" : "_ZTIi"
    }
   ],
   "return_type" : "_ZTIi",
   "source_file" : "external/lz4/lib/lz4hc.h"
  },
  {
   "function_name" : "LZ4_compress_HC_continue",
   "linker_set_key" : "LZ4_compress_HC_continue",
   "parameters" :
   [
    {
     "referenced_type" : "_ZTIP14LZ4_streamHC_u"
    },
    {
     "referenced_type" : "_ZTIPKc"
    },
    {
     "referenced_type" : "_ZTIPc"
    },
    {
     "referenced_type" : "_ZTIi"
    },
    {
     "referenced_type" : "_ZTIi"
    }
   ],
   "return_type" : "_ZTIi",
   "source_file" : "external/lz4/lib/lz4hc.h"
  },
  {
   "function_name" : "LZ4_compress_HC_continue_destSize",
   "linker_set_key" : "LZ4_compress_HC_continue_destSize",
   "parameters" :
   [
    {
     "referenced_type" : "_ZTIP14LZ4_streamHC_u"
    },
    {
     "referenced_type" : "_ZTIPKc"
    },
    {
     "referenced_type" : "_ZTIPc"
    },
    {
     "referenced_type" : "_ZTIPi"
    },
    {
     "referenced_type" : "_ZTIi"
    }
   ],
   "return_type" : "_ZTIi",
   "source_file" : "external/lz4/lib/lz4hc.h"
  },
  {
   "function_name" : "LZ4_compress_HC_destSize",
   "linker_set_key" : "LZ4_compress_HC_destSize",
   "parameters" :
   [
    {
     "referenced_type" : "_ZTIPv"
    },
    {
     "referenced_type" : "_ZTIPKc"
    },
    {
     "referenced_type" : "_ZTIPc"
    },
    {
     "referenced_type" : "_ZTIPi"
    },
    {
     "referenced_type" : "_ZTIi"
    },
    {
     "referenced_type" : "_ZTIi"
    }
   ],
   "return_type" : "_ZTIi",
   "source_file" : "external/lz4/lib/lz4hc.h"
  },
  {
   "function_name" : "LZ4_compress_HC_extStateHC",
   "linker_set_key" : "LZ4_compress_HC_extStateHC",
   "parameters" :
   [
    {
     "referenced_type" : "_ZTIPv"
    },
    {
     "referenced_type" : "_ZTIPKc"
    },
    {
     "referenced_type" : "_ZTIPc"
    },
    {
     "referenced_type" : "_ZTIi"
    },
    {
     "referenced_type" : "_ZTIi"
    },
    {
     "referenced_type" : "_ZTIi"
    }
   ],
   "return_type" : "_ZTIi",
   "source_file" : "external/lz4/lib/lz4hc.h"
  },
  {
   "function_name" : "LZ4_compress_HC_extStateHC_fastReset",
   "linker_set_key" : "LZ4_compress_HC_extStateHC_fastReset",
   "parameters" :
   [
    {
     "referenced_type" : "_ZTIPv"
    },
    {
     "referenced_type" : "_ZTIPKc"
    },
    {
     "referenced_type" : "_ZTIPc"
    },
    {
     "referenced_type" : "_ZTIi"
    },
    {
     "referenced_type" : "_ZTIi"
    },
    {
     "referenced_type" : "_ZTIi"
    }
   ],
   "return_type" : "_ZTIi",
   "source_file" : "external/lz4/lib/lz4hc.h"
  },
  {
   "function_name" : "LZ4_createHC",
   "linker_set_key" : "LZ4_createHC",
   "parameters" :
   [
    {
     "referenced_type" : "_ZTIPKc"
    }
   ],
   "return_type" : "_ZTIPv",
   "source_file" : "external/lz4/lib/lz4hc.h"
  },
  {
   "function_name" : "LZ4_createStreamHC",
   "linker_set_key" : "LZ4_createStreamHC",
   "return_type" : "_ZTIP14LZ4_streamHC_u",
   "source_file" : "external/lz4/lib/lz4hc.h"
  },
  {
   "function_name" : "LZ4_favorDecompressionSpeed",
   "linker_set_key" : "LZ4_favorDecompressionSpeed",
   "parameters" :
   [
    {
     "referenced_type" : "_ZTIP14LZ4_streamHC_u"
    },
    {
     "referenced_type" : "_ZTIi"
    }
   ],
   "return_type" : "_ZTIv",
   "source_file" : "external/lz4/lib/lz4hc.h"
  },
  {
   "function_name" : "LZ4_freeHC",
   "linker_set_key" : "LZ4_freeHC",
   "parameters" :
   [
    {
     "referenced_type" : "_ZTIPv"
    }
   ],
   "return_type" : "_ZTIi",
   "source_file" : "external/lz4/lib/lz4hc.h"
  },
  {
   "function_name" : "LZ4_freeStreamHC",
   "linker_set_key" : "LZ4_freeStreamHC",
   "parameters" :
   [
    {
     "referenced_type" : "_ZTIP14LZ4_streamHC_u"
    }
   ],
   "return_type" : "_ZTIi",
   "source_file" : "external/lz4/lib/lz4hc.h"
  },
  {
   "function_name" : "LZ4_initStreamHC",
   "linker_set_key" : "LZ4_initStreamHC",
   "parameters" :
   [
    {
     "referenced_type" : "_ZTIPv"
    },
    {
     "referenced_type" : "_ZTIm"
    }
   ],
   "return_type" : "_ZTIP14LZ4_streamHC_u",
   "source_file" : "external/lz4/lib/lz4hc.h"
  },
  {
   "function_name" : "LZ4_loadDictHC",
   "linker_set_key" : "LZ4_loadDictHC",
   "parameters" :
   [
    {
     "referenced_type" : "_ZTIP14LZ4_streamHC_u"
    },
    {
     "referenced_type" : "_ZTIPKc"
    },
    {
     "referenced_type" : "_ZTIi"
    }
   ],
   "return_type" : "_ZTIi",
   "source_file" : "external/lz4/lib/lz4hc.h"
  },
  {
   "function_name" : "LZ4_resetStreamHC",
   "linker_set_key" : "LZ4_resetStreamHC",
   "parameters" :
   [
    {
     "referenced_type" : "_ZTIP14LZ4_streamHC_u"
    },
    {
     "referenced_type" : "_ZTIi"
    }
   ],
   "return_type" : "_ZTIv",
   "source_file" : "external/lz4/lib/lz4hc.h"
  },
  {
   "function_name" : "LZ4_resetStreamHC_fast",
   "linker_set_key" : "LZ4_resetStreamHC_fast",
   "parameters" :
   [
    {
     "referenced_type" : "_ZTIP14LZ4_streamHC_u"
    },
    {
     "referenced_type" : "_ZTIi"
    }
   ],
   "return_type" : "_ZTIv",
   "source_file" : "external/lz4/lib/lz4hc.h"
  },
  {
   "function_name" : "LZ4_resetStreamStateHC",
   "linker_set_key" : "LZ4_resetStreamStateHC",
   "parameters" :
   [
    {
     "referenced_type" : "_ZTIPv"
    },
    {
     "referenced_type" : "_ZTIPc"
    }
   ],
   "return_type" : "_ZTIi",
   "source_file" : "external/lz4/lib/lz4hc.h"
  },
  {
   "function_name" : "LZ4_saveDictHC",
   "linker_set_key" : "LZ4_saveDictHC",
   "parameters" :
   [
    {
     "referenced_type" : "_ZTIP14LZ4_streamHC_u"
    },
    {
     "referenced_type" : "_ZTIPc"
    },
    {
     "referenced_type" : "_ZTIi"
    }
   ],
   "return_type" : "_ZTIi",
   "source_file" : "external/lz4/lib/lz4hc.h"
  },
  {
   "function_name" : "LZ4_setCompressionLevel",
   "linker_set_key" : "LZ4_setCompressionLevel",
   "parameters" :
   [
    {
     "referenced_type" : "_ZTIP14LZ4_streamHC_u"
    },
    {
     "referenced_type" : "_ZTIi"
    }
   ],
   "return_type" : "_ZTIv",
   "source_file" : "external/lz4/lib/lz4hc.h"
  },
  {
   "function_name" : "LZ4_sizeofStateHC",
   "linker_set_key" : "LZ4_sizeofStateHC",
   "return_type" : "_ZTIi",
   "source_file" : "external/lz4/lib/lz4hc.h"
  },
  {
   "function_name" : "LZ4_sizeofStreamStateHC",
   "linker_set_key" : "LZ4_sizeofStreamStateHC",
   "return_type" : "_ZTIi",
   "source_file" : "external/lz4/lib/lz4hc.h"
  },
  {
   "function_name" : "LZ4_slideInputBufferHC",
   "linker_set_key" : "LZ4_slideInputBufferHC",
   "parameters" :
   [
    {
     "referenced_type" : "_ZTIPv"
    }
   ],
   "return_type" : "_ZTIPc",
   "source_file" : "external/lz4/lib/lz4hc.h"
  }
 ],
 "global_vars" : [],
 "lvalue_reference_types" : [],
 "pointer_types" :
 [
  {
   "alignment" : 8,
   "linker_set_key" : "_ZTIP14LZ4_streamHC_u",
   "name" : "LZ4_streamHC_u *",
   "referenced_type" : "_ZTI14LZ4_streamHC_u",
   "self_type" : "_ZTIP14LZ4_streamHC_u",
   "size" : 8,
   "source_file" : "external/lz4/lib/lz4hc.h"
  },
  {
   "alignment" : 8,
   "linker_set_key" : "_ZTIPK14LZ4_streamHC_u",
   "name" : "const LZ4_streamHC_u *",
   "referenced_type" : "_ZTIK14LZ4_streamHC_u",
   "self_type" : "_ZTIPK14LZ4_streamHC_u",
   "size" : 8,
   "source_file" : "external/lz4/lib/lz4hc.h"
  },
  {
   "alignment" : 8,
   "linker_set_key" : "_ZTIPK19LZ4HC_CCtx_internal",
   "name" : "const LZ4HC_CCtx_internal *",
   "referenced_type" : "_ZTIK19LZ4HC_CCtx_internal",
   "self_type" : "_ZTIPK19LZ4HC_CCtx_internal",
   "size" : 8,
   "source_file" : "external/lz4/lib/lz4hc.h"
  },
  {
   "alignment" : 8,
   "linker_set_key" : "_ZTIPK21LZ4_stream_t_internal",
   "name" : "const LZ4_stream_t_internal *",
   "referenced_type" : "_ZTIK21LZ4_stream_t_internal",
   "self_type" : "_ZTIPK21LZ4_stream_t_internal",
   "size" : 8,
   "source_file" : "external/lz4/lib/lz4.h"
  },
  {
   "alignment" : 8,
   "linker_set_key" : "_ZTIPKc",
   "name" : "const char *",
   "referenced_type" : "_ZTIKc",
   "self_type" : "_ZTIPKc",
   "size" : 8,
   "source_file" : "external/lz4/lib/lz4hc.h"
  },
  {
   "alignment" : 8,
   "linker_set_key" : "_ZTIPKh",
   "name" : "const unsigned char *",
   "referenced_type" : "_ZTIKh",
   "self_type" : "_ZTIPKh",
   "size" : 8,
   "source_file" : "external/lz4/lib/lz4.h"
  },
  {
   "alignment" : 8,
   "linker_set_key" : "_ZTIPc",
   "name" : "char *",
   "referenced_type" : "_ZTIc",
   "self_type" : "_ZTIPc",
   "size" : 8,
   "source_file" : "external/lz4/lib/lz4hc.h"
  },
  {
   "alignment" : 8,
   "linker_set_key" : "_ZTIPi",
   "name" : "int *",
   "referenced_type" : "_ZTIi",
   "self_type" : "_ZTIPi",
   "size" : 8,
   "source_file" : "external/lz4/lib/lz4hc.h"
  },
  {
   "alignment" : 8,
   "linker_set_key" : "_ZTIPv",
   "name" : "void *",
   "referenced_type" : "_ZTIv",
   "self_type" : "_ZTIPv",
   "size" : 8,
   "source_file" : "external/lz4/lib/lz4hc.h"
  }
 ],
 "qualified_types" :
 [
  {
   "alignment" : 8,
   "is_const" : true,
   "linker_set_key" : "_ZTIK14LZ4_streamHC_u",
   "name" : "const LZ4_streamHC_u",
   "referenced_type" : "_ZTI14LZ4_streamHC_u",
   "self_type" : "_ZTIK14LZ4_streamHC_u",
   "size" : 262200,
   "source_file" : "external/lz4/lib/lz4hc.h"
  },
  {
   "alignment" : 8,
   "is_const" : true,
   "linker_set_key" : "_ZTIK19LZ4HC_CCtx_internal",
   "name" : "const LZ4HC_CCtx_internal",
   "referenced_type" : "_ZTI19LZ4HC_CCtx_internal",
   "self_type" : "_ZTIK19LZ4HC_CCtx_internal",
   "size" : 262192,
   "source_file" : "external/lz4/lib/lz4hc.h"
  },
  {
   "alignment" : 8,
   "is_const" : true,
   "linker_set_key" : "_ZTIK21LZ4_stream_t_internal",
   "name" : "const LZ4_stream_t_internal",
   "referenced_type" : "_ZTI21LZ4_stream_t_internal",
   "self_type" : "_ZTIK21LZ4_stream_t_internal",
   "size" : 16416,
   "source_file" : "external/lz4/lib/lz4.h"
  },
  {
   "alignment" : 1,
   "is_const" : true,
   "linker_set_key" : "_ZTIKc",
   "name" : "const char",
   "referenced_type" : "_ZTIc",
   "self_type" : "_ZTIKc",
   "size" : 1,
   "source_file" : "external/lz4/lib/lz4hc.h"
  },
  {
   "alignment" : 1,
   "is_const" : true,
   "linker_set_key" : "_ZTIKh",
   "name" : "const unsigned char",
   "referenced_type" : "_ZTIh",
   "self_type" : "_ZTIKh",
   "size" : 1,
   "source_file" : "external/lz4/lib/lz4.h"
  }
 ],
 "record_types" :
 [
  {
   "alignment" : 8,
   "fields" :
   [
    {
     "field_name" : "table",
     "referenced_type" : "_ZTIA2052_y"
    },
    {
     "field_name" : "internal_donotuse",
     "referenced_type" : "_ZTI21LZ4_stream_t_internal"
    }
   ],
   "linker_set_key" : "_ZTI12LZ4_stream_u",
   "name" : "LZ4_stream_u",
   "record_kind" : "union",
   "referenced_type" : "_ZTI12LZ4_stream_u",
   "self_type" : "_ZTI12LZ4_stream_u",
   "size" : 16416,
   "source_file" : "external/lz4/lib/lz4.h"
  },
  {
   "alignment" : 8,
   "fields" :
   [
    {
     "field_name" : "table",
     "referenced_type" : "_ZTIA32775_m"
    },
    {
     "field_name" : "internal_donotuse",
     "referenced_type" : "_ZTI19LZ4HC_CCtx_internal"
    }
   ],
   "linker_set_key" : "_ZTI14LZ4_streamHC_u",
   "name" : "LZ4_streamHC_u",
   "record_kind" : "union",
   "referenced_type" : "_ZTI14LZ4_streamHC_u",
   "self_type" : "_ZTI14LZ4_streamHC_u",
   "size" : 262200,
   "source_file" : "external/lz4/lib/lz4hc.h"
  },
  {
   "alignment" : 8,
   "fields" :
   [
    {
     "field_name" : "table",
     "referenced_type" : "_ZTIA4_y"
    },
    {
     "field_name" : "internal_donotuse",
     "referenced_type" : "_ZTI27LZ4_streamDecode_t_internal"
    }
   ],
   "linker_set_key" : "_ZTI18LZ4_streamDecode_u",
   "name" : "LZ4_streamDecode_u",
   "record_kind" : "union",
   "referenced_type" : "_ZTI18LZ4_streamDecode_u",
   "self_type" : "_ZTI18LZ4_streamDecode_u",
   "size" : 32,
   "source_file" : "external/lz4/lib/lz4.h"
  },
  {
   "alignment" : 8,
   "fields" :
   [
    {
     "field_name" : "hashTable",
     "referenced_type" : "_ZTIA32768_j"
    },
    {
     "field_name" : "chainTable",
     "field_offset" : 1048576,
     "referenced_type" : "_ZTIA65536_t"
    },
    {
     "field_name" : "end",
     "field_offset" : 2097152,
     "referenced_type" : "_ZTIPKh"
    },
    {
     "field_name" : "base",
     "field_offset" : 2097216,
     "referenced_type" : "_ZTIPKh"
    },
    {
     "field_name" : "dictBase",
     "field_offset" : 2097280,
     "referenced_type" : "_ZTIPKh"
    },
    {
     "field_name" : "dictLimit",
     "field_offset" : 2097344,
     "referenced_type" : "_ZTIj"
    },
    {
     "field_name" : "lowLimit",
     "field_offset" : 2097376,
     "referenced_type" : "_ZTIj"
    },
    {
     "field_name" : "nextToUpdate",
     "field_offset" : 2097408,
     "referenced_type" : "_ZTIj"
    },
    {
     "field_name" : "compressionLevel",
     "field_offset" : 2097440,
     "referenced_type" : "_ZTIs"
    },
    {
     "field_name" : "favorDecSpeed",
     "field_offset" : 2097456,
     "referenced_type" : "_ZTIa"
    },
    {
     "field_name" : "dirty",
     "field_offset" : 2097464,
     "referenced_type" : "_ZTIa"
    },
    {
     "field_name" : "dictCtx",
     "field_offset" : 2097472,
     "referenced_type" : "_ZTIPK19LZ4HC_CCtx_internal"
    }
   ],
   "linker_set_key" : "_ZTI19LZ4HC_CCtx_internal",
   "name" : "LZ4HC_CCtx_internal",
   "referenced_type" : "_ZTI19LZ4HC_CCtx_internal",
   "self_type" : "_ZTI19LZ4HC_CCtx_internal",
   "size" : 262192,
   "source_file" : "external/lz4/lib/lz4hc.h"
  },
  {
   "alignment" : 8,
   "fields" :
   [
    {
     "field_name" : "hashTable",
     "referenced_type" : "_ZTIA4096_j"
    },
    {
     "field_name" : "currentOffset",
     "field_offset" : 131072,
     "referenced_type" : "_ZTIj"
    },
    {
     "field_name" : "dirty",
     "field_offset" : 131104,
     "referenced_type" : "_ZTIt"
    },
    {
     "field_name" : "tableType",
     "field_offset" : 131120,
     "referenced_type" : "_ZTIt"
    },
    {
     "field_name" : "dictionary",
     "field_offset" : 131136,
     "referenced_type" : "_ZTIPKh"
    },
    {
     "field_name" : "dictCtx",
     "field_offset" : 131200,
     "referenced_type" : "_ZTIPK21LZ4_stream_t_internal"
    },
    {
     "field_name" : "dictSize",
     "field_offset" : 131264,
     "referenced_type" : "_ZTIj"
    }
   ],
   "linker_set_key" : "_ZTI21LZ4_stream_t_internal",
   "name" : "LZ4_stream_t_internal",
   "referenced_type" : "_ZTI21LZ4_stream_t_internal",
   "self_type" : "_ZTI21LZ4_stream_t_internal",
   "size" : 16416,
   "source_file" : "external/lz4/lib/lz4.h"
  },
  {
   "alignment" : 8,
   "fields" :
   [
    {
     "field_name" : "externalDict",
     "referenced_type" : "_ZTIPKh"
    },
    {
     "field_name" : "extDictSize",
     "field_offset" : 64,
     "referenced_type" : "_ZTIm"
    },
    {
     "field_name" : "prefixEnd",
     "field_offset" : 128,
     "referenced_type" : "_ZTIPKh"
    },
    {
     "field_name" : "prefixSize",
     "field_offset" : 192,
     "referenced_type" : "_ZTIm"
    }
   ],
   "linker_set_key" : "_ZTI27LZ4_streamDecode_t_internal",
   "name" : "LZ4_streamDecode_t_internal",
   "referenced_type" : "_ZTI27LZ4_streamDecode_t_internal",
   "self_type" : "_ZTI27LZ4_streamDecode_t_internal",
   "size" : 32,
   "source_file" : "external/lz4/lib/lz4.h"
  }
 ],
 "rvalue_reference_types" : []
}
