{
 "array_types" :
 [
  {
   "alignment" : 1,
   "linker_set_key" : "_ZTIA44_h",
   "name" : "unsigned char [44]",
   "referenced_type" : "_ZTIh",
   "self_type" : "_ZTIA44_h",
   "size" : 44,
   "source_file" : "external/tinyalsa/include/tinyalsa/asoundlib.h"
  },
  {
   "alignment" : 1,
   "linker_set_key" : "_ZTIA60_h",
   "name" : "unsigned char [60]",
   "referenced_type" : "_ZTIh",
   "self_type" : "_ZTIA60_h",
   "size" : 60,
   "source_file" : "external/tinyalsa/include/tinyalsa/asoundlib.h"
  },
  {
   "alignment" : 4,
   "linker_set_key" : "_ZTIA8_j",
   "name" : "unsigned int [8]",
   "referenced_type" : "_ZTIj",
   "self_type" : "_ZTIA8_j",
   "size" : 32,
   "source_file" : "external/tinyalsa/include/tinyalsa/asoundlib.h"
  }
 ],
 "builtin_types" :
 [
  {
   "alignment" : 1,
   "is_integral" : true,
   "is_unsigned" : true,
   "linker_set_key" : "_ZTIc",
   "name" : "char",
   "referenced_type" : "_ZTIc",
   "self_type" : "_ZTIc",
   "size" : 1
  },
  {
   "alignment" : 1,
   "is_integral" : true,
   "is_unsigned" : true,
   "linker_set_key" : "_ZTIh",
   "name" : "unsigned char",
   "referenced_type" : "_ZTIh",
   "self_type" : "_ZTIh",
   "size" : 1
  },
  {
   "alignment" : 4,
   "is_integral" : true,
   "linker_set_key" : "_ZTIi",
   "name" : "int",
   "referenced_type" : "_ZTIi",
   "self_type" : "_ZTIi",
   "size" : 4
  },
  {
   "alignment" : 4,
   "is_integral" : true,
   "is_unsigned" : true,
   "linker_set_key" : "_ZTIj",
   "name" : "unsigned int",
   "referenced_type" : "_ZTIj",
   "self_type" : "_ZTIj",
   "size" : 4
  },
  {
   "linker_set_key" : "_ZTIv",
   "name" : "void",
   "referenced_type" : "_ZTIv",
   "self_type" : "_ZTIv"
  }
 ],
 "elf_functions" : [],
 "elf_objects" : [],
 "enum_types" :
 [
  {
   "alignment" : 4,
   "enum_fields" :
   [
    {
     "enum_field_value" : -1,
     "name" : "PCM_FORMAT_INVALID"
    },
    {
     "enum_field_value" : 0,
     "name" : "PCM_FORMAT_S16_LE"
    },
    {
     "enum_field_value" : 1,
     "name" : "PCM_FORMAT_S32_LE"
    },
    {
     "enum_field_value" : 2,
     "name" : "PCM_FORMAT_S8"
    },
    {
     "enum_field_value" : 3,
     "name" : "PCM_FORMAT_S24_LE"
    },
    {
     "enum_field_value" : 4,
     "name" : "PCM_FORMAT_S24_3LE"
    },
    {
     "enum_field_value" : 5,
     "name" : "PCM_FORMAT_MAX"
    }
   ],
   "linker_set_key" : "_ZTI10pcm_format",
   "name" : "pcm_format",
   "referenced_type" : "_ZTI10pcm_format",
   "self_type" : "_ZTI10pcm_format",
   "size" : 4,
   "source_file" : "external/tinyalsa/include/tinyalsa/asoundlib.h",
   "underlying_type" : "_ZTIi"
  },
  {
   "alignment" : 4,
   "enum_fields" :
   [
    {
     "enum_field_value" : 0,
     "name" : "MIXER_CTL_TYPE_BOOL"
    },
    {
     "enum_field_value" : 1,
     "name" : "MIXER_CTL_TYPE_INT"
    },
    {
     "enum_field_value" : 2,
     "name" : "MIXER_CTL_TYPE_ENUM"
    },
    {
     "enum_field_value" : 3,
     "name" : "MIXER_CTL_TYPE_BYTE"
    },
    {
     "enum_field_value" : 4,
     "name" : "MIXER_CTL_TYPE_IEC958"
    },
    {
     "enum_field_value" : 5,
     "name" : "MIXER_CTL_TYPE_INT64"
    },
    {
     "enum_field_value" : 6,
     "name" : "MIXER_CTL_TYPE_UNKNOWN"
    },
    {
     "enum_field_value" : 7,
     "name" : "MIXER_CTL_TYPE_MAX"
    }
   ],
   "linker_set_key" : "_ZTI14mixer_ctl_type",
   "name" : "mixer_ctl_type",
   "referenced_type" : "_ZTI14mixer_ctl_type",
   "self_type" : "_ZTI14mixer_ctl_type",
   "size" : 4,
   "source_file" : "external/tinyalsa/include/tinyalsa/asoundlib.h",
   "underlying_type" : "_ZTIj"
  },
  {
   "alignment" : 4,
   "enum_fields" :
   [
    {
     "enum_field_value" : 0,
     "name" : "PCM_PARAM_ACCESS"
    },
    {
     "enum_field_value" : 1,
     "name" : "PCM_PARAM_FORMAT"
    },
    {
     "enum_field_value" : 2,
     "name" : "PCM_PARAM_SUBFORMAT"
    },
    {
     "enum_field_value" : 3,
     "name" : "PCM_PARAM_SAMPLE_BITS"
    },
    {
     "enum_field_value" : 4,
     "name" : "PCM_PARAM_FRAME_BITS"
    },
    {
     "enum_field_value" : 5,
     "name" : "PCM_PARAM_CHANNELS"
    },
    {
     "enum_field_value" : 6,
     "name" : "PCM_PARAM_RATE"
    },
    {
     "enum_field_value" : 7,
     "name" : "PCM_PARAM_PERIOD_TIME"
    },
    {
     "enum_field_value" : 8,
     "name" : "PCM_PARAM_PERIOD_SIZE"
    },
    {
     "enum_field_value" : 9,
     "name" : "PCM_PARAM_PERIOD_BYTES"
    },
    {
     "enum_field_value" : 10,
     "name" : "PCM_PARAM_PERIODS"
    },
    {
     "enum_field_value" : 11,
     "name" : "PCM_PARAM_BUFFER_TIME"
    },
    {
     "enum_field_value" : 12,
     "name" : "PCM_PARAM_BUFFER_SIZE"
    },
    {
     "enum_field_value" : 13,
     "name" : "PCM_PARAM_BUFFER_BYTES"
    },
    {
     "enum_field_value" : 14,
     "name" : "PCM_PARAM_TICK_TIME"
    }
   ],
   "linker_set_key" : "_ZTI9pcm_param",
   "name" : "pcm_param",
   "referenced_type" : "_ZTI9pcm_param",
   "self_type" : "_ZTI9pcm_param",
   "size" : 4,
   "source_file" : "external/tinyalsa/include/tinyalsa/asoundlib.h",
   "underlying_type" : "_ZTIj"
  }
 ],
 "function_types" :
 [
  {
   "alignment" : 4,
   "linker_set_key" : "_ZTIFiP12mixer_pluginP11snd_controlP11snd_ctl_tlvE",
   "name" : "int (mixer_plugin *, snd_control *, snd_ctl_tlv *)",
   "parameters" :
   [
    {
     "referenced_type" : "_ZTIP12mixer_plugin"
    },
    {
     "referenced_type" : "_ZTIP11snd_control"
    },
    {
     "referenced_type" : "_ZTIP11snd_ctl_tlv"
    }
   ],
   "referenced_type" : "_ZTIFiP12mixer_pluginP11snd_controlP11snd_ctl_tlvE",
   "return_type" : "_ZTIi",
   "self_type" : "_ZTIFiP12mixer_pluginP11snd_controlP11snd_ctl_tlvE",
   "source_file" : "external/tinyalsa/include/tinyalsa/mixer_plugin.h"
  },
  {
   "alignment" : 4,
   "linker_set_key" : "_ZTIFiP12mixer_pluginP11snd_controlP18snd_ctl_elem_valueE",
   "name" : "int (mixer_plugin *, snd_control *, snd_ctl_elem_value *)",
   "parameters" :
   [
    {
     "referenced_type" : "_ZTIP12mixer_plugin"
    },
    {
     "referenced_type" : "_ZTIP11snd_control"
    },
    {
     "referenced_type" : "_ZTIP18snd_ctl_elem_value"
    }
   ],
   "referenced_type" : "_ZTIFiP12mixer_pluginP11snd_controlP18snd_ctl_elem_valueE",
   "return_type" : "_ZTIi",
   "self_type" : "_ZTIFiP12mixer_pluginP11snd_controlP18snd_ctl_elem_valueE",
   "source_file" : "external/tinyalsa/include/tinyalsa/mixer_plugin.h"
  },
  {
   "alignment" : 4,
   "linker_set_key" : "_ZTIFiP12mixer_pluginP9ctl_eventjE",
   "name" : "int (mixer_plugin *, ctl_event *, unsigned int)",
   "parameters" :
   [
    {
     "referenced_type" : "_ZTIP12mixer_plugin"
    },
    {
     "referenced_type" : "_ZTIP9ctl_event"
    },
    {
     "referenced_type" : "_ZTIj"
    }
   ],
   "referenced_type" : "_ZTIFiP12mixer_pluginP9ctl_eventjE",
   "return_type" : "_ZTIi",
   "self_type" : "_ZTIFiP12mixer_pluginP9ctl_eventjE",
   "source_file" : "external/tinyalsa/include/tinyalsa/mixer_plugin.h"
  },
  {
   "alignment" : 4,
   "linker_set_key" : "_ZTIFiP12mixer_pluginPFvS0_EE",
   "name" : "int (mixer_plugin *, void (*)(mixer_plugin *))",
   "parameters" :
   [
    {
     "referenced_type" : "_ZTIP12mixer_plugin"
    },
    {
     "referenced_type" : "_ZTIPFvP12mixer_pluginE"
    }
   ],
   "referenced_type" : "_ZTIFiP12mixer_pluginPFvS0_EE",
   "return_type" : "_ZTIi",
   "self_type" : "_ZTIFiP12mixer_pluginPFvS0_EE",
   "source_file" : "external/tinyalsa/include/tinyalsa/mixer_plugin.h"
  },
  {
   "alignment" : 4,
   "linker_set_key" : "_ZTIFvP12mixer_pluginE",
   "name" : "void (mixer_plugin *)",
   "parameters" :
   [
    {
     "referenced_type" : "_ZTIP12mixer_plugin"
    }
   ],
   "referenced_type" : "_ZTIFvP12mixer_pluginE",
   "return_type" : "_ZTIv",
   "self_type" : "_ZTIFvP12mixer_pluginE",
   "source_file" : "external/tinyalsa/include/tinyalsa/mixer_plugin.h"
  },
  {
   "alignment" : 4,
   "linker_set_key" : "_ZTIFvPP12mixer_pluginE",
   "name" : "void (mixer_plugin **)",
   "parameters" :
   [
    {
     "referenced_type" : "_ZTIPP12mixer_plugin"
    }
   ],
   "referenced_type" : "_ZTIFvPP12mixer_pluginE",
   "return_type" : "_ZTIv",
   "self_type" : "_ZTIFvPP12mixer_pluginE",
   "source_file" : "external/tinyalsa/include/tinyalsa/mixer_plugin.h"
  }
 ],
 "functions" : [],
 "global_vars" : [],
 "lvalue_reference_types" : [],
 "pointer_types" :
 [
  {
   "alignment" : 4,
   "linker_set_key" : "_ZTIP11snd_control",
   "name" : "snd_control *",
   "referenced_type" : "_ZTI11snd_control",
   "self_type" : "_ZTIP11snd_control",
   "size" : 4,
   "source_file" : "external/tinyalsa/include/tinyalsa/mixer_plugin.h"
  },
  {
   "alignment" : 4,
   "linker_set_key" : "_ZTIP11snd_ctl_tlv",
   "name" : "snd_ctl_tlv *",
   "referenced_type" : "_ZTI11snd_ctl_tlv",
   "self_type" : "_ZTIP11snd_ctl_tlv",
   "size" : 4,
   "source_file" : "external/tinyalsa/include/tinyalsa/mixer_plugin.h"
  },
  {
   "alignment" : 4,
   "linker_set_key" : "_ZTIP12mixer_plugin",
   "name" : "mixer_plugin *",
   "referenced_type" : "_ZTI12mixer_plugin",
   "self_type" : "_ZTIP12mixer_plugin",
   "size" : 4,
   "source_file" : "external/tinyalsa/include/tinyalsa/mixer_plugin.h"
  },
  {
   "alignment" : 4,
   "linker_set_key" : "_ZTIP16mixer_plugin_ops",
   "name" : "mixer_plugin_ops *",
   "referenced_type" : "_ZTI16mixer_plugin_ops",
   "self_type" : "_ZTIP16mixer_plugin_ops",
   "size" : 4,
   "source_file" : "external/tinyalsa/include/tinyalsa/mixer_plugin.h"
  },
  {
   "alignment" : 4,
   "linker_set_key" : "_ZTIP18snd_ctl_elem_value",
   "name" : "snd_ctl_elem_value *",
   "referenced_type" : "_ZTI18snd_ctl_elem_value",
   "self_type" : "_ZTIP18snd_ctl_elem_value",
   "size" : 4,
   "source_file" : "external/tinyalsa/include/tinyalsa/mixer_plugin.h"
  },
  {
   "alignment" : 4,
   "linker_set_key" : "_ZTIP9ctl_event",
   "name" : "ctl_event *",
   "referenced_type" : "_ZTI9ctl_event",
   "self_type" : "_ZTIP9ctl_event",
   "size" : 4,
   "source_file" : "external/tinyalsa/include/tinyalsa/mixer_plugin.h"
  },
  {
   "alignment" : 4,
   "linker_set_key" : "_ZTIPFiP12mixer_pluginP11snd_controlP11snd_ctl_tlvE",
   "name" : "int (*)(mixer_plugin *, snd_control *, snd_ctl_tlv *)",
   "referenced_type" : "_ZTIFiP12mixer_pluginP11snd_controlP11snd_ctl_tlvE",
   "self_type" : "_ZTIPFiP12mixer_pluginP11snd_controlP11snd_ctl_tlvE",
   "size" : 4,
   "source_file" : "external/tinyalsa/include/tinyalsa/mixer_plugin.h"
  },
  {
   "alignment" : 4,
   "linker_set_key" : "_ZTIPFiP12mixer_pluginP11snd_controlP18snd_ctl_elem_valueE",
   "name" : "int (*)(mixer_plugin *, snd_control *, snd_ctl_elem_value *)",
   "referenced_type" : "_ZTIFiP12mixer_pluginP11snd_controlP18snd_ctl_elem_valueE",
   "self_type" : "_ZTIPFiP12mixer_pluginP11snd_controlP18snd_ctl_elem_valueE",
   "size" : 4,
   "source_file" : "external/tinyalsa/include/tinyalsa/mixer_plugin.h"
  },
  {
   "alignment" : 4,
   "linker_set_key" : "_ZTIPFiP12mixer_pluginP9ctl_eventjE",
   "name" : "int (*)(mixer_plugin *, ctl_event *, unsigned int)",
   "referenced_type" : "_ZTIFiP12mixer_pluginP9ctl_eventjE",
   "self_type" : "_ZTIPFiP12mixer_pluginP9ctl_eventjE",
   "size" : 4,
   "source_file" : "external/tinyalsa/include/tinyalsa/mixer_plugin.h"
  },
  {
   "alignment" : 4,
   "linker_set_key" : "_ZTIPFiP12mixer_pluginPFvS0_EE",
   "name" : "int (*)(mixer_plugin *, void (*)(mixer_plugin *))",
   "referenced_type" : "_ZTIFiP12mixer_pluginPFvS0_EE",
   "self_type" : "_ZTIPFiP12mixer_pluginPFvS0_EE",
   "size" : 4,
   "source_file" : "external/tinyalsa/include/tinyalsa/mixer_plugin.h"
  },
  {
   "alignment" : 4,
   "linker_set_key" : "_ZTIPFvP12mixer_pluginE",
   "name" : "void (*)(mixer_plugin *)",
   "referenced_type" : "_ZTIFvP12mixer_pluginE",
   "self_type" : "_ZTIPFvP12mixer_pluginE",
   "size" : 4,
   "source_file" : "external/tinyalsa/include/tinyalsa/mixer_plugin.h"
  },
  {
   "alignment" : 4,
   "linker_set_key" : "_ZTIPFvPP12mixer_pluginE",
   "name" : "void (*)(mixer_plugin **)",
   "referenced_type" : "_ZTIFvPP12mixer_pluginE",
   "self_type" : "_ZTIPFvPP12mixer_pluginE",
   "size" : 4,
   "source_file" : "external/tinyalsa/include/tinyalsa/mixer_plugin.h"
  },
  {
   "alignment" : 4,
   "linker_set_key" : "_ZTIPKc",
   "name" : "const char *",
   "referenced_type" : "_ZTIKc",
   "self_type" : "_ZTIPKc",
   "size" : 4,
   "source_file" : "external/tinyalsa/include/tinyalsa/mixer_plugin.h"
  },
  {
   "alignment" : 4,
   "linker_set_key" : "_ZTIPP12mixer_plugin",
   "name" : "mixer_plugin **",
   "referenced_type" : "_ZTIP12mixer_plugin",
   "self_type" : "_ZTIPP12mixer_plugin",
   "size" : 4,
   "source_file" : "external/tinyalsa/include/tinyalsa/mixer_plugin.h"
  },
  {
   "alignment" : 4,
   "linker_set_key" : "_ZTIPPc",
   "name" : "char **",
   "referenced_type" : "_ZTIPc",
   "self_type" : "_ZTIPPc",
   "size" : 4,
   "source_file" : "external/tinyalsa/include/tinyalsa/mixer_plugin.h"
  },
  {
   "alignment" : 4,
   "linker_set_key" : "_ZTIPc",
   "name" : "char *",
   "referenced_type" : "_ZTIc",
   "self_type" : "_ZTIPc",
   "size" : 4,
   "source_file" : "external/tinyalsa/include/tinyalsa/mixer_plugin.h"
  },
  {
   "alignment" : 4,
   "linker_set_key" : "_ZTIPv",
   "name" : "void *",
   "referenced_type" : "_ZTIv",
   "self_type" : "_ZTIPv",
   "size" : 4,
   "source_file" : "external/tinyalsa/include/tinyalsa/mixer_plugin.h"
  }
 ],
 "qualified_types" :
 [
  {
   "alignment" : 1,
   "is_const" : true,
   "linker_set_key" : "_ZTIKc",
   "name" : "const char",
   "referenced_type" : "_ZTIc",
   "self_type" : "_ZTIKc",
   "size" : 1,
   "source_file" : "external/tinyalsa/include/tinyalsa/mixer_plugin.h"
  }
 ],
 "record_types" :
 [
  {
   "alignment" : 4,
   "fields" :
   [
    {
     "field_name" : "channels",
     "referenced_type" : "_ZTIj"
    },
    {
     "field_name" : "rate",
     "field_offset" : 32,
     "referenced_type" : "_ZTIj"
    },
    {
     "field_name" : "period_size",
     "field_offset" : 64,
     "referenced_type" : "_ZTIj"
    },
    {
     "field_name" : "period_count",
     "field_offset" : 96,
     "referenced_type" : "_ZTIj"
    },
    {
     "field_name" : "format",
     "field_offset" : 128,
     "referenced_type" : "_ZTI10pcm_format"
    },
    {
     "field_name" : "start_threshold",
     "field_offset" : 160,
     "referenced_type" : "_ZTIj"
    },
    {
     "field_name" : "stop_threshold",
     "field_offset" : 192,
     "referenced_type" : "_ZTIj"
    },
    {
     "field_name" : "silence_threshold",
     "field_offset" : 224,
     "referenced_type" : "_ZTIj"
    },
    {
     "field_name" : "silence_size",
     "field_offset" : 256,
     "referenced_type" : "_ZTIj"
    },
    {
     "field_name" : "avail_min",
     "field_offset" : 288,
     "referenced_type" : "_ZTIi"
    }
   ],
   "linker_set_key" : "_ZTI10pcm_config",
   "name" : "pcm_config",
   "referenced_type" : "_ZTI10pcm_config",
   "self_type" : "_ZTI10pcm_config",
   "size" : 40,
   "source_file" : "external/tinyalsa/include/tinyalsa/asoundlib.h"
  },
  {
   "alignment" : 4,
   "fields" :
   [
    {
     "field_name" : "numid",
     "referenced_type" : "_ZTIj"
    },
    {
     "field_name" : "iface",
     "field_offset" : 32,
     "referenced_type" : "_ZTIi"
    },
    {
     "field_name" : "device",
     "field_offset" : 64,
     "referenced_type" : "_ZTIj"
    },
    {
     "field_name" : "subdevice",
     "field_offset" : 96,
     "referenced_type" : "_ZTIj"
    },
    {
     "field_name" : "name",
     "field_offset" : 128,
     "referenced_type" : "_ZTIA44_h"
    },
    {
     "field_name" : "index",
     "field_offset" : 480,
     "referenced_type" : "_ZTIj"
    }
   ],
   "linker_set_key" : "_ZTI11ctl_elem_id",
   "name" : "ctl_elem_id",
   "referenced_type" : "_ZTI11ctl_elem_id",
   "self_type" : "_ZTI11ctl_elem_id",
   "size" : 64,
   "source_file" : "external/tinyalsa/include/tinyalsa/asoundlib.h"
  },
  {
   "alignment" : 4,
   "fields" :
   [
    {
     "field_name" : "iface",
     "referenced_type" : "_ZTIi"
    },
    {
     "field_name" : "access",
     "field_offset" : 32,
     "referenced_type" : "_ZTIj"
    },
    {
     "field_name" : "name",
     "field_offset" : 64,
     "referenced_type" : "_ZTIPKc"
    },
    {
     "field_name" : "type",
     "field_offset" : 96,
     "referenced_type" : "_ZTIi"
    },
    {
     "field_name" : "value",
     "field_offset" : 128,
     "referenced_type" : "_ZTIPv"
    },
    {
     "field_name" : "get",
     "field_offset" : 160,
     "referenced_type" : "_ZTIPFiP12mixer_pluginP11snd_controlP18snd_ctl_elem_valueE"
    },
    {
     "field_name" : "put",
     "field_offset" : 192,
     "referenced_type" : "_ZTIPFiP12mixer_pluginP11snd_controlP18snd_ctl_elem_valueE"
    },
    {
     "field_name" : "private_value",
     "field_offset" : 224,
     "referenced_type" : "_ZTIj"
    },
    {
     "field_name" : "private_data",
     "field_offset" : 256,
     "referenced_type" : "_ZTIPv"
    }
   ],
   "linker_set_key" : "_ZTI11snd_control",
   "name" : "snd_control",
   "referenced_type" : "_ZTI11snd_control",
   "self_type" : "_ZTI11snd_control",
   "size" : 36,
   "source_file" : "external/tinyalsa/include/tinyalsa/mixer_plugin.h"
  },
  {
   "alignment" : 4,
   "fields" :
   [
    {
     "field_name" : "card",
     "referenced_type" : "_ZTIj"
    },
    {
     "field_name" : "ops",
     "field_offset" : 32,
     "referenced_type" : "_ZTIP16mixer_plugin_ops"
    },
    {
     "field_name" : "priv",
     "field_offset" : 64,
     "referenced_type" : "_ZTIPv"
    },
    {
     "field_name" : "eventfd",
     "field_offset" : 96,
     "referenced_type" : "_ZTIi"
    },
    {
     "field_name" : "subscribed",
     "field_offset" : 128,
     "referenced_type" : "_ZTIi"
    },
    {
     "field_name" : "event_cnt",
     "field_offset" : 160,
     "referenced_type" : "_ZTIi"
    },
    {
     "field_name" : "controls",
     "field_offset" : 192,
     "referenced_type" : "_ZTIP11snd_control"
    },
    {
     "field_name" : "num_controls",
     "field_offset" : 224,
     "referenced_type" : "_ZTIj"
    }
   ],
   "linker_set_key" : "_ZTI12mixer_plugin",
   "name" : "mixer_plugin",
   "referenced_type" : "_ZTI12mixer_plugin",
   "self_type" : "_ZTI12mixer_plugin",
   "size" : 32,
   "source_file" : "external/tinyalsa/include/tinyalsa/mixer_plugin.h"
  },
  {
   "alignment" : 4,
   "fields" :
   [
    {
     "field_name" : "count",
     "referenced_type" : "_ZTIj"
    },
    {
     "field_name" : "min",
     "field_offset" : 32,
     "referenced_type" : "_ZTIi"
    },
    {
     "field_name" : "max",
     "field_offset" : 64,
     "referenced_type" : "_ZTIi"
    },
    {
     "field_name" : "step",
     "field_offset" : 96,
     "referenced_type" : "_ZTIi"
    }
   ],
   "linker_set_key" : "_ZTI13snd_value_int",
   "name" : "snd_value_int",
   "referenced_type" : "_ZTI13snd_value_int",
   "self_type" : "_ZTI13snd_value_int",
   "size" : 16,
   "source_file" : "external/tinyalsa/include/tinyalsa/mixer_plugin.h"
  },
  {
   "alignment" : 4,
   "fields" :
   [
    {
     "field_name" : "items",
     "referenced_type" : "_ZTIj"
    },
    {
     "field_name" : "texts",
     "field_offset" : 32,
     "referenced_type" : "_ZTIPPc"
    }
   ],
   "linker_set_key" : "_ZTI14snd_value_enum",
   "name" : "snd_value_enum",
   "referenced_type" : "_ZTI14snd_value_enum",
   "self_type" : "_ZTI14snd_value_enum",
   "size" : 8,
   "source_file" : "external/tinyalsa/include/tinyalsa/mixer_plugin.h"
  },
  {
   "alignment" : 4,
   "fields" :
   [
    {
     "field_name" : "size",
     "referenced_type" : "_ZTIj"
    }
   ],
   "linker_set_key" : "_ZTI15snd_value_bytes",
   "name" : "snd_value_bytes",
   "referenced_type" : "_ZTI15snd_value_bytes",
   "self_type" : "_ZTI15snd_value_bytes",
   "size" : 4,
   "source_file" : "external/tinyalsa/include/tinyalsa/mixer_plugin.h"
  },
  {
   "alignment" : 4,
   "fields" :
   [
    {
     "field_name" : "close",
     "referenced_type" : "_ZTIPFvPP12mixer_pluginE"
    },
    {
     "field_name" : "subscribe_events",
     "field_offset" : 32,
     "referenced_type" : "_ZTIPFiP12mixer_pluginPFvS0_EE"
    },
    {
     "field_name" : "read_event",
     "field_offset" : 64,
     "referenced_type" : "_ZTIPFiP12mixer_pluginP9ctl_eventjE"
    }
   ],
   "linker_set_key" : "_ZTI16mixer_plugin_ops",
   "name" : "mixer_plugin_ops",
   "referenced_type" : "_ZTI16mixer_plugin_ops",
   "self_type" : "_ZTI16mixer_plugin_ops",
   "size" : 12,
   "source_file" : "external/tinyalsa/include/tinyalsa/mixer_plugin.h"
  },
  {
   "alignment" : 4,
   "fields" :
   [
    {
     "field_name" : "size",
     "referenced_type" : "_ZTIj"
    },
    {
     "field_name" : "get",
     "field_offset" : 32,
     "referenced_type" : "_ZTIPFiP12mixer_pluginP11snd_controlP11snd_ctl_tlvE"
    },
    {
     "field_name" : "put",
     "field_offset" : 64,
     "referenced_type" : "_ZTIPFiP12mixer_pluginP11snd_controlP11snd_ctl_tlvE"
    }
   ],
   "linker_set_key" : "_ZTI19snd_value_tlv_bytes",
   "name" : "snd_value_tlv_bytes",
   "referenced_type" : "_ZTI19snd_value_tlv_bytes",
   "self_type" : "_ZTI19snd_value_tlv_bytes",
   "size" : 12,
   "source_file" : "external/tinyalsa/include/tinyalsa/mixer_plugin.h"
  },
  {
   "alignment" : 4,
   "fields" :
   [
    {
     "field_name" : "bits",
     "referenced_type" : "_ZTIA8_j"
    }
   ],
   "linker_set_key" : "_ZTI8pcm_mask",
   "name" : "pcm_mask",
   "referenced_type" : "_ZTI8pcm_mask",
   "self_type" : "_ZTI8pcm_mask",
   "size" : 32,
   "source_file" : "external/tinyalsa/include/tinyalsa/asoundlib.h"
  },
  {
   "alignment" : 4,
   "fields" :
   [
    {
     "field_name" : "type",
     "referenced_type" : "_ZTIi"
    },
    {
     "field_name" : "data",
     "field_offset" : 32,
     "referenced_type" : "_ZTIN9ctl_eventUt_E"
    }
   ],
   "linker_set_key" : "_ZTI9ctl_event",
   "name" : "ctl_event",
   "referenced_type" : "_ZTI9ctl_event",
   "self_type" : "_ZTI9ctl_event",
   "size" : 72,
   "source_file" : "external/tinyalsa/include/tinyalsa/asoundlib.h"
  },
  {
   "alignment" : 4,
   "fields" :
   [
    {
     "field_name" : "elem",
     "referenced_type" : "_ZTIN9ctl_eventUt_Ut_E"
    },
    {
     "field_name" : "data8",
     "referenced_type" : "_ZTIA60_h"
    }
   ],
   "is_anonymous" : true,
   "linker_set_key" : "_ZTIN9ctl_eventUt_E",
   "name" : "ctl_event::(anonymous union at external/tinyalsa/include/tinyalsa/asoundlib.h:172:3)",
   "record_kind" : "union",
   "referenced_type" : "_ZTIN9ctl_eventUt_E",
   "self_type" : "_ZTIN9ctl_eventUt_E",
   "size" : 68,
   "source_file" : "external/tinyalsa/include/tinyalsa/asoundlib.h"
  },
  {
   "alignment" : 4,
   "fields" :
   [
    {
     "field_name" : "mask",
     "referenced_type" : "_ZTIj"
    },
    {
     "field_name" : "id",
     "field_offset" : 32,
     "referenced_type" : "_ZTI11ctl_elem_id"
    }
   ],
   "is_anonymous" : true,
   "linker_set_key" : "_ZTIN9ctl_eventUt_Ut_E",
   "name" : "ctl_event::(anonymous union at external/tinyalsa/include/tinyalsa/asoundlib.h:172:3)::(anonymous struct at external/tinyalsa/include/tinyalsa/asoundlib.h:173:5)",
   "referenced_type" : "_ZTIN9ctl_eventUt_Ut_E",
   "self_type" : "_ZTIN9ctl_eventUt_Ut_E",
   "size" : 68,
   "source_file" : "external/tinyalsa/include/tinyalsa/asoundlib.h"
  }
 ],
 "rvalue_reference_types" : []
}
