{
 "array_types" : [],
 "builtin_types" :
 [
  {
   "alignment" : 1,
   "is_integral" : true,
   "is_unsigned" : true,
   "linker_set_key" : "_ZTIb",
   "name" : "bool",
   "referenced_type" : "_ZTIb",
   "self_type" : "_ZTIb",
   "size" : 1
  },
  {
   "alignment" : 4,
   "is_integral" : true,
   "is_unsigned" : true,
   "linker_set_key" : "_ZTIj",
   "name" : "unsigned int",
   "referenced_type" : "_ZTIj",
   "self_type" : "_ZTIj",
   "size" : 4
  },
  {
   "linker_set_key" : "_ZTIv",
   "name" : "void",
   "referenced_type" : "_ZTIv",
   "self_type" : "_ZTIv"
  }
 ],
 "elf_functions" : [],
 "elf_objects" : [],
 "enum_types" : [],
 "function_types" : [],
 "functions" :
 [
  {
   "function_name" : "android::hardware::neuralnetworks::utils::hasNoPointerData",
   "linker_set_key" : "_ZN7android8hardware14neuralnetworks5utils16hasNoPointerDataERKNS_2nn5ModelE",
   "parameters" :
   [
    {
     "referenced_type" : "_ZTIRKN7android2nn5ModelE"
    }
   ],
   "return_type" : "_ZTIb",
   "source_file" : "hardware/interfaces/neuralnetworks/utils/common/include/nnapi/hal/CommonUtils.h"
  },
  {
   "function_name" : "android::hardware::neuralnetworks::utils::hasNoPointerData",
   "linker_set_key" : "_ZN7android8hardware14neuralnetworks5utils16hasNoPointerDataERKNS_2nn7RequestE",
   "parameters" :
   [
    {
     "referenced_type" : "_ZTIRKN7android2nn7RequestE"
    }
   ],
   "return_type" : "_ZTIb",
   "source_file" : "hardware/interfaces/neuralnetworks/utils/common/include/nnapi/hal/CommonUtils.h"
  },
  {
   "function_name" : "android::hardware::neuralnetworks::utils::RelocationTracker<android::hardware::neuralnetworks::utils::RelocationInfo<const void *>>::create",
   "linker_set_key" : "_ZN7android8hardware14neuralnetworks5utils17RelocationTrackerINS2_14RelocationInfoIPKvEEE6createENSt3__16vectorIS7_NS9_9allocatorIS7_EEEENS9_10shared_ptrIKNS_2nn6MemoryEEE",
   "parameters" :
   [
    {
     "referenced_type" : "_ZTINSt3__16vectorIN7android8hardware14neuralnetworks5utils14RelocationInfoIPKvEENS_9allocatorIS8_EEEE"
    },
    {
     "referenced_type" : "_ZTINSt3__110shared_ptrIKN7android2nn6MemoryEEE"
    }
   ],
   "return_type" : "_ZTIN7android4base8expectedINSt3__110unique_ptrINS_8hardware14neuralnetworks5utils17RelocationTrackerINS6_14RelocationInfoIPKvEEEENS2_14default_deleteISC_EEEENS_2nn12GeneralErrorEEE",
   "source_file" : "hardware/interfaces/neuralnetworks/utils/common/include/nnapi/hal/CommonUtils.h"
  },
  {
   "function_name" : "android::hardware::neuralnetworks::utils::RelocationTracker<android::hardware::neuralnetworks::utils::RelocationInfo<const void *>>::RelocationTracker",
   "linker_set_key" : "_ZN7android8hardware14neuralnetworks5utils17RelocationTrackerINS2_14RelocationInfoIPKvEEEC1ENSt3__16vectorIS7_NS9_9allocatorIS7_EEEENS9_10shared_ptrIKNS_2nn6MemoryEEENSF_7MappingE",
   "parameters" :
   [
    {
     "is_this_ptr" : true,
     "referenced_type" : "_ZTIPN7android8hardware14neuralnetworks5utils17RelocationTrackerINS2_14RelocationInfoIPKvEEEE"
    },
    {
     "referenced_type" : "_ZTINSt3__16vectorIN7android8hardware14neuralnetworks5utils14RelocationInfoIPKvEENS_9allocatorIS8_EEEE"
    },
    {
     "referenced_type" : "_ZTINSt3__110shared_ptrIKN7android2nn6MemoryEEE"
    },
    {
     "referenced_type" : "_ZTIN7android2nn7MappingE"
    }
   ],
   "return_type" : "_ZTIv",
   "source_file" : "hardware/interfaces/neuralnetworks/utils/common/include/nnapi/hal/CommonUtils.h"
  },
  {
   "function_name" : "android::hardware::neuralnetworks::utils::RelocationTracker<android::hardware::neuralnetworks::utils::RelocationInfo<const void *>>::RelocationTracker",
   "linker_set_key" : "_ZN7android8hardware14neuralnetworks5utils17RelocationTrackerINS2_14RelocationInfoIPKvEEEC2ENSt3__16vectorIS7_NS9_9allocatorIS7_EEEENS9_10shared_ptrIKNS_2nn6MemoryEEENSF_7MappingE",
   "parameters" :
   [
    {
     "is_this_ptr" : true,
     "referenced_type" : "_ZTIPN7android8hardware14neuralnetworks5utils17RelocationTrackerINS2_14RelocationInfoIPKvEEEE"
    },
    {
     "referenced_type" : "_ZTINSt3__16vectorIN7android8hardware14neuralnetworks5utils14RelocationInfoIPKvEENS_9allocatorIS8_EEEE"
    },
    {
     "referenced_type" : "_ZTINSt3__110shared_ptrIKN7android2nn6MemoryEEE"
    },
    {
     "referenced_type" : "_ZTIN7android2nn7MappingE"
    }
   ],
   "return_type" : "_ZTIv",
   "source_file" : "hardware/interfaces/neuralnetworks/utils/common/include/nnapi/hal/CommonUtils.h"
  },
  {
   "function_name" : "android::hardware::neuralnetworks::utils::RelocationTracker<android::hardware::neuralnetworks::utils::RelocationInfo<void *>>::create",
   "linker_set_key" : "_ZN7android8hardware14neuralnetworks5utils17RelocationTrackerINS2_14RelocationInfoIPvEEE6createENSt3__16vectorIS6_NS8_9allocatorIS6_EEEENS8_10shared_ptrIKNS_2nn6MemoryEEE",
   "parameters" :
   [
    {
     "referenced_type" : "_ZTINSt3__16vectorIN7android8hardware14neuralnetworks5utils14RelocationInfoIPvEENS_9allocatorIS7_EEEE"
    },
    {
     "referenced_type" : "_ZTINSt3__110shared_ptrIKN7android2nn6MemoryEEE"
    }
   ],
   "return_type" : "_ZTIN7android4base8expectedINSt3__110unique_ptrINS_8hardware14neuralnetworks5utils17RelocationTrackerINS6_14RelocationInfoIPvEEEENS2_14default_deleteISB_EEEENS_2nn12GeneralErrorEEE",
   "source_file" : "hardware/interfaces/neuralnetworks/utils/common/include/nnapi/hal/CommonUtils.h"
  },
  {
   "function_name" : "android::hardware::neuralnetworks::utils::RelocationTracker<android::hardware::neuralnetworks::utils::RelocationInfo<void *>>::RelocationTracker",
   "linker_set_key" : "_ZN7android8hardware14neuralnetworks5utils17RelocationTrackerINS2_14RelocationInfoIPvEEEC1ENSt3__16vectorIS6_NS8_9allocatorIS6_EEEENS8_10shared_ptrIKNS_2nn6MemoryEEENSE_7MappingE",
   "parameters" :
   [
    {
     "is_this_ptr" : true,
     "referenced_type" : "_ZTIPN7android8hardware14neuralnetworks5utils17RelocationTrackerINS2_14RelocationInfoIPvEEEE"
    },
    {
     "referenced_type" : "_ZTINSt3__16vectorIN7android8hardware14neuralnetworks5utils14RelocationInfoIPvEENS_9allocatorIS7_EEEE"
    },
    {
     "referenced_type" : "_ZTINSt3__110shared_ptrIKN7android2nn6MemoryEEE"
    },
    {
     "referenced_type" : "_ZTIN7android2nn7MappingE"
    }
   ],
   "return_type" : "_ZTIv",
   "source_file" : "hardware/interfaces/neuralnetworks/utils/common/include/nnapi/hal/CommonUtils.h"
  },
  {
   "function_name" : "android::hardware::neuralnetworks::utils::RelocationTracker<android::hardware::neuralnetworks::utils::RelocationInfo<void *>>::RelocationTracker",
   "linker_set_key" : "_ZN7android8hardware14neuralnetworks5utils17RelocationTrackerINS2_14RelocationInfoIPvEEEC2ENSt3__16vectorIS6_NS8_9allocatorIS6_EEEENS8_10shared_ptrIKNS_2nn6MemoryEEENSE_7MappingE",
   "parameters" :
   [
    {
     "is_this_ptr" : true,
     "referenced_type" : "_ZTIPN7android8hardware14neuralnetworks5utils17RelocationTrackerINS2_14RelocationInfoIPvEEEE"
    },
    {
     "referenced_type" : "_ZTINSt3__16vectorIN7android8hardware14neuralnetworks5utils14RelocationInfoIPvEENS_9allocatorIS7_EEEE"
    },
    {
     "referenced_type" : "_ZTINSt3__110shared_ptrIKN7android2nn6MemoryEEE"
    },
    {
     "referenced_type" : "_ZTIN7android2nn7MappingE"
    }
   ],
   "return_type" : "_ZTIv",
   "source_file" : "hardware/interfaces/neuralnetworks/utils/common/include/nnapi/hal/CommonUtils.h"
  },
  {
   "function_name" : "android::hardware::neuralnetworks::utils::convertSyncFences",
   "linker_set_key" : "_ZN7android8hardware14neuralnetworks5utils17convertSyncFencesERKNSt3__16vectorINS_2nn9SyncFenceENS3_9allocatorIS6_EEEE",
   "parameters" :
   [
    {
     "referenced_type" : "_ZTIRKNSt3__16vectorIN7android2nn9SyncFenceENS_9allocatorIS3_EEEE"
    }
   ],
   "return_type" : "_ZTIN7android4base8expectedINS_8hardware8hidl_vecINS2_11hidl_handleEEENS_2nn12GeneralErrorEEE",
   "source_file" : "hardware/interfaces/neuralnetworks/utils/common/include/nnapi/hal/CommonUtils.h"
  },
  {
   "function_name" : "android::hardware::neuralnetworks::utils::makeGeneralFailure",
   "linker_set_key" : "_ZN7android8hardware14neuralnetworks5utils18makeGeneralFailureINSt3__16vectorIjNS4_9allocatorIjEEEEEENS_4base8expectedIT_NS_2nn12GeneralErrorEEENSA_ISB_NS4_12basic_stringIcNS4_11char_traitsIcEENS6_IcEEEEEENSC_11ErrorStatusE",
   "parameters" :
   [
    {
     "referenced_type" : "_ZTIN7android4base8expectedINSt3__16vectorIjNS2_9allocatorIjEEEENS2_12basic_stringIcNS2_11char_traitsIcEENS4_IcEEEEEE"
    },
    {
     "default_arg" : true,
     "referenced_type" : "_ZTIN7android2nn11ErrorStatusE"
    }
   ],
   "return_type" : "_ZTIN7android4base8expectedINSt3__16vectorIjNS2_9allocatorIjEEEENS_2nn12GeneralErrorEEE",
   "source_file" : "hardware/interfaces/neuralnetworks/utils/common/include/nnapi/hal/HandleError.h",
   "template_args" : [ "_ZTINSt3__16vectorIjNS_9allocatorIjEEEE" ]
  },
  {
   "function_name" : "android::hardware::neuralnetworks::utils::countNumberOfConsumers",
   "linker_set_key" : "_ZN7android8hardware14neuralnetworks5utils22countNumberOfConsumersEjRKNSt3__16vectorINS_2nn9OperationENS3_9allocatorIS6_EEEE",
   "parameters" :
   [
    {
     "referenced_type" : "_ZTIj"
    },
    {
     "referenced_type" : "_ZTIRKNSt3__16vectorIN7android2nn9OperationENS_9allocatorIS3_EEEE"
    }
   ],
   "return_type" : "_ZTIN7android4base8expectedINSt3__16vectorIjNS2_9allocatorIjEEEENS_2nn12GeneralErrorEEE",
   "source_file" : "hardware/interfaces/neuralnetworks/utils/common/include/nnapi/hal/CommonUtils.h"
  },
  {
   "function_name" : "android::hardware::neuralnetworks::utils::hidlHandleFromSharedHandle",
   "linker_set_key" : "_ZN7android8hardware14neuralnetworks5utils26hidlHandleFromSharedHandleERKNS_2nn6HandleE",
   "parameters" :
   [
    {
     "referenced_type" : "_ZTIRKN7android2nn6HandleE"
    }
   ],
   "return_type" : "_ZTIN7android4base8expectedINS_8hardware11hidl_handleENS_2nn12GeneralErrorEEE",
   "source_file" : "hardware/interfaces/neuralnetworks/utils/common/include/nnapi/hal/CommonUtils.h"
  },
  {
   "function_name" : "android::hardware::neuralnetworks::utils::flushDataFromPointerToShared",
   "linker_set_key" : "_ZN7android8hardware14neuralnetworks5utils28flushDataFromPointerToSharedEPKNS_2nn5ModelEPNSt3__18optionalIS4_EE",
   "parameters" :
   [
    {
     "referenced_type" : "_ZTIPKN7android2nn5ModelE"
    },
    {
     "referenced_type" : "_ZTIPNSt3__18optionalIN7android2nn5ModelEEE"
    }
   ],
   "return_type" : "_ZTIN7android4base8expectedINSt3__117reference_wrapperIKNS_2nn5ModelEEENS4_12GeneralErrorEEE",
   "source_file" : "hardware/interfaces/neuralnetworks/utils/common/include/nnapi/hal/CommonUtils.h"
  },
  {
   "function_name" : "android::hardware::neuralnetworks::utils::sharedHandleFromNativeHandle",
   "linker_set_key" : "_ZN7android8hardware14neuralnetworks5utils28sharedHandleFromNativeHandleEPK13native_handle",
   "parameters" :
   [
    {
     "referenced_type" : "_ZTIPK13native_handle"
    }
   ],
   "return_type" : "_ZTIN7android4base8expectedINS_2nn6HandleENS2_12GeneralErrorEEE",
   "source_file" : "hardware/interfaces/neuralnetworks/utils/common/include/nnapi/hal/CommonUtils.h"
  },
  {
   "function_name" : "android::hardware::neuralnetworks::utils::createHidlMemoryFromSharedMemory",
   "linker_set_key" : "_ZN7android8hardware14neuralnetworks5utils32createHidlMemoryFromSharedMemoryERKNSt3__110shared_ptrIKNS_2nn6MemoryEEE",
   "parameters" :
   [
    {
     "referenced_type" : "_ZTIRKNSt3__110shared_ptrIKN7android2nn6MemoryEEE"
    }
   ],
   "return_type" : "_ZTIN7android4base8expectedINS_8hardware11hidl_memoryENS_2nn12GeneralErrorEEE",
   "source_file" : "hardware/interfaces/neuralnetworks/utils/common/include/nnapi/hal/CommonUtils.h"
  },
  {
   "function_name" : "android::hardware::neuralnetworks::utils::createSharedMemoryFromHidlMemory",
   "linker_set_key" : "_ZN7android8hardware14neuralnetworks5utils32createSharedMemoryFromHidlMemoryERKNS0_11hidl_memoryE",
   "parameters" :
   [
    {
     "referenced_type" : "_ZTIRKN7android8hardware11hidl_memoryE"
    }
   ],
   "return_type" : "_ZTIN7android4base8expectedINSt3__110shared_ptrIKNS_2nn6MemoryEEENS4_12GeneralErrorEEE",
   "source_file" : "hardware/interfaces/neuralnetworks/utils/common/include/nnapi/hal/CommonUtils.h"
  },
  {
   "function_name" : "android::hardware::neuralnetworks::utils::convertRequestFromPointerToShared",
   "linker_set_key" : "_ZN7android8hardware14neuralnetworks5utils33convertRequestFromPointerToSharedEPKNS_2nn7RequestEjjPNSt3__18optionalIS4_EEPNS2_17RequestRelocationE",
   "parameters" :
   [
    {
     "referenced_type" : "_ZTIPKN7android2nn7RequestE"
    },
    {
     "referenced_type" : "_ZTIj"
    },
    {
     "referenced_type" : "_ZTIj"
    },
    {
     "referenced_type" : "_ZTIPNSt3__18optionalIN7android2nn7RequestEEE"
    },
    {
     "referenced_type" : "_ZTIPN7android8hardware14neuralnetworks5utils17RequestRelocationE"
    }
   ],
   "return_type" : "_ZTIN7android4base8expectedINSt3__117reference_wrapperIKNS_2nn7RequestEEENS4_12GeneralErrorEEE",
   "source_file" : "hardware/interfaces/neuralnetworks/utils/common/include/nnapi/hal/CommonUtils.h"
  },
  {
   "function_name" : "android::hardware::neuralnetworks::utils::makeQuantized8PerformanceConsistentWithP",
   "linker_set_key" : "_ZN7android8hardware14neuralnetworks5utils40makeQuantized8PerformanceConsistentWithPERKNS_2nn12Capabilities15PerformanceInfoES7_",
   "parameters" :
   [
    {
     "referenced_type" : "_ZTIRKN7android2nn12Capabilities15PerformanceInfoE"
    },
    {
     "referenced_type" : "_ZTIRKN7android2nn12Capabilities15PerformanceInfoE"
    }
   ],
   "return_type" : "_ZTIN7android2nn12Capabilities23OperandPerformanceTableE",
   "source_file" : "hardware/interfaces/neuralnetworks/utils/common/include/nnapi/hal/CommonUtils.h"
  }
 ],
 "global_vars" : [],
 "lvalue_reference_types" :
 [
  {
   "alignment" : 4,
   "linker_set_key" : "_ZTIRKN7android2nn12Capabilities15PerformanceInfoE",
   "name" : "const android::nn::Capabilities::PerformanceInfo &",
   "referenced_type" : "_ZTIKN7android2nn12Capabilities15PerformanceInfoE",
   "self_type" : "_ZTIRKN7android2nn12Capabilities15PerformanceInfoE",
   "size" : 4,
   "source_file" : "hardware/interfaces/neuralnetworks/utils/common/include/nnapi/hal/CommonUtils.h"
  },
  {
   "alignment" : 4,
   "linker_set_key" : "_ZTIRKN7android2nn5ModelE",
   "name" : "const android::nn::Model &",
   "referenced_type" : "_ZTIKN7android2nn5ModelE",
   "self_type" : "_ZTIRKN7android2nn5ModelE",
   "size" : 4,
   "source_file" : "hardware/interfaces/neuralnetworks/utils/common/include/nnapi/hal/CommonUtils.h"
  },
  {
   "alignment" : 4,
   "linker_set_key" : "_ZTIRKN7android2nn6HandleE",
   "name" : "const android::nn::Handle &",
   "referenced_type" : "_ZTIKN7android2nn6HandleE",
   "self_type" : "_ZTIRKN7android2nn6HandleE",
   "size" : 4,
   "source_file" : "hardware/interfaces/neuralnetworks/utils/common/include/nnapi/hal/CommonUtils.h"
  },
  {
   "alignment" : 4,
   "linker_set_key" : "_ZTIRKN7android2nn7RequestE",
   "name" : "const android::nn::Request &",
   "referenced_type" : "_ZTIKN7android2nn7RequestE",
   "self_type" : "_ZTIRKN7android2nn7RequestE",
   "size" : 4,
   "source_file" : "hardware/interfaces/neuralnetworks/utils/common/include/nnapi/hal/CommonUtils.h"
  },
  {
   "alignment" : 4,
   "linker_set_key" : "_ZTIRKN7android8hardware11hidl_memoryE",
   "name" : "const android::hardware::hidl_memory &",
   "referenced_type" : "_ZTIKN7android8hardware11hidl_memoryE",
   "self_type" : "_ZTIRKN7android8hardware11hidl_memoryE",
   "size" : 4,
   "source_file" : "hardware/interfaces/neuralnetworks/utils/common/include/nnapi/hal/CommonUtils.h"
  },
  {
   "alignment" : 4,
   "linker_set_key" : "_ZTIRKNSt3__110shared_ptrIKN7android2nn6MemoryEEE",
   "name" : "const std::shared_ptr<const android::nn::Memory> &",
   "referenced_type" : "_ZTIKNSt3__110shared_ptrIKN7android2nn6MemoryEEE",
   "self_type" : "_ZTIRKNSt3__110shared_ptrIKN7android2nn6MemoryEEE",
   "size" : 4,
   "source_file" : "hardware/interfaces/neuralnetworks/utils/common/include/nnapi/hal/CommonUtils.h"
  },
  {
   "alignment" : 4,
   "linker_set_key" : "_ZTIRKNSt3__16vectorIN7android2nn9OperationENS_9allocatorIS3_EEEE",
   "name" : "const std::vector<android::nn::Operation, std::allocator<android::nn::Operation>> &",
   "referenced_type" : "_ZTIKNSt3__16vectorIN7android2nn9OperationENS_9allocatorIS3_EEEE",
   "self_type" : "_ZTIRKNSt3__16vectorIN7android2nn9OperationENS_9allocatorIS3_EEEE",
   "size" : 4,
   "source_file" : "hardware/interfaces/neuralnetworks/utils/common/include/nnapi/hal/CommonUtils.h"
  },
  {
   "alignment" : 4,
   "linker_set_key" : "_ZTIRKNSt3__16vectorIN7android2nn9SyncFenceENS_9allocatorIS3_EEEE",
   "name" : "const std::vector<android::nn::SyncFence, std::allocator<android::nn::SyncFence>> &",
   "referenced_type" : "_ZTIKNSt3__16vectorIN7android2nn9SyncFenceENS_9allocatorIS3_EEEE",
   "self_type" : "_ZTIRKNSt3__16vectorIN7android2nn9SyncFenceENS_9allocatorIS3_EEEE",
   "size" : 4,
   "source_file" : "hardware/interfaces/neuralnetworks/utils/common/include/nnapi/hal/CommonUtils.h"
  }
 ],
 "pointer_types" :
 [
  {
   "alignment" : 4,
   "linker_set_key" : "_ZTIPK13native_handle",
   "name" : "const native_handle *",
   "referenced_type" : "_ZTIK13native_handle",
   "self_type" : "_ZTIPK13native_handle",
   "size" : 4,
   "source_file" : "hardware/interfaces/neuralnetworks/utils/common/include/nnapi/hal/CommonUtils.h"
  },
  {
   "alignment" : 4,
   "linker_set_key" : "_ZTIPKN7android2nn5ModelE",
   "name" : "const android::nn::Model *",
   "referenced_type" : "_ZTIKN7android2nn5ModelE",
   "self_type" : "_ZTIPKN7android2nn5ModelE",
   "size" : 4,
   "source_file" : "hardware/interfaces/neuralnetworks/utils/common/include/nnapi/hal/CommonUtils.h"
  },
  {
   "alignment" : 4,
   "linker_set_key" : "_ZTIPKN7android2nn7RequestE",
   "name" : "const android::nn::Request *",
   "referenced_type" : "_ZTIKN7android2nn7RequestE",
   "self_type" : "_ZTIPKN7android2nn7RequestE",
   "size" : 4,
   "source_file" : "hardware/interfaces/neuralnetworks/utils/common/include/nnapi/hal/CommonUtils.h"
  },
  {
   "alignment" : 4,
   "linker_set_key" : "_ZTIPKv",
   "name" : "const void *",
   "referenced_type" : "_ZTIKv",
   "self_type" : "_ZTIPKv",
   "size" : 4,
   "source_file" : "hardware/interfaces/neuralnetworks/utils/common/include/nnapi/hal/CommonUtils.h"
  },
  {
   "alignment" : 4,
   "linker_set_key" : "_ZTIPN7android8hardware14neuralnetworks5utils17RelocationTrackerINS2_14RelocationInfoIPKvEEEE",
   "name" : "android::hardware::neuralnetworks::utils::RelocationTracker<android::hardware::neuralnetworks::utils::RelocationInfo<const void *>> *",
   "referenced_type" : "_ZTIN7android8hardware14neuralnetworks5utils17RelocationTrackerINS2_14RelocationInfoIPKvEEEE",
   "self_type" : "_ZTIPN7android8hardware14neuralnetworks5utils17RelocationTrackerINS2_14RelocationInfoIPKvEEEE",
   "size" : 4,
   "source_file" : "hardware/interfaces/neuralnetworks/utils/common/include/nnapi/hal/CommonUtils.h"
  },
  {
   "alignment" : 4,
   "linker_set_key" : "_ZTIPN7android8hardware14neuralnetworks5utils17RelocationTrackerINS2_14RelocationInfoIPvEEEE",
   "name" : "android::hardware::neuralnetworks::utils::RelocationTracker<android::hardware::neuralnetworks::utils::RelocationInfo<void *>> *",
   "referenced_type" : "_ZTIN7android8hardware14neuralnetworks5utils17RelocationTrackerINS2_14RelocationInfoIPvEEEE",
   "self_type" : "_ZTIPN7android8hardware14neuralnetworks5utils17RelocationTrackerINS2_14RelocationInfoIPvEEEE",
   "size" : 4,
   "source_file" : "hardware/interfaces/neuralnetworks/utils/common/include/nnapi/hal/CommonUtils.h"
  },
  {
   "alignment" : 4,
   "linker_set_key" : "_ZTIPN7android8hardware14neuralnetworks5utils17RequestRelocationE",
   "name" : "android::hardware::neuralnetworks::utils::RequestRelocation *",
   "referenced_type" : "_ZTIN7android8hardware14neuralnetworks5utils17RequestRelocationE",
   "self_type" : "_ZTIPN7android8hardware14neuralnetworks5utils17RequestRelocationE",
   "size" : 4,
   "source_file" : "hardware/interfaces/neuralnetworks/utils/common/include/nnapi/hal/CommonUtils.h"
  },
  {
   "alignment" : 4,
   "linker_set_key" : "_ZTIPNSt3__18optionalIN7android2nn5ModelEEE",
   "name" : "std::optional<android::nn::Model> *",
   "referenced_type" : "_ZTINSt3__18optionalIN7android2nn5ModelEEE",
   "self_type" : "_ZTIPNSt3__18optionalIN7android2nn5ModelEEE",
   "size" : 4,
   "source_file" : "hardware/interfaces/neuralnetworks/utils/common/include/nnapi/hal/CommonUtils.h"
  },
  {
   "alignment" : 4,
   "linker_set_key" : "_ZTIPNSt3__18optionalIN7android2nn7RequestEEE",
   "name" : "std::optional<android::nn::Request> *",
   "referenced_type" : "_ZTINSt3__18optionalIN7android2nn7RequestEEE",
   "self_type" : "_ZTIPNSt3__18optionalIN7android2nn7RequestEEE",
   "size" : 4,
   "source_file" : "hardware/interfaces/neuralnetworks/utils/common/include/nnapi/hal/CommonUtils.h"
  },
  {
   "alignment" : 4,
   "linker_set_key" : "_ZTIPv",
   "name" : "void *",
   "referenced_type" : "_ZTIv",
   "self_type" : "_ZTIPv",
   "size" : 4,
   "source_file" : "hardware/interfaces/neuralnetworks/utils/common/include/nnapi/hal/CommonUtils.h"
  }
 ],
 "qualified_types" :
 [
  {
   "alignment" : 4,
   "is_const" : true,
   "linker_set_key" : "_ZTIK13native_handle",
   "name" : "const native_handle",
   "referenced_type" : "_ZTI13native_handle",
   "self_type" : "_ZTIK13native_handle",
   "size" : 12,
   "source_file" : "hardware/interfaces/neuralnetworks/utils/common/include/nnapi/hal/CommonUtils.h"
  },
  {
   "alignment" : 4,
   "is_const" : true,
   "linker_set_key" : "_ZTIKN7android2nn12Capabilities15PerformanceInfoE",
   "name" : "const android::nn::Capabilities::PerformanceInfo",
   "referenced_type" : "_ZTIN7android2nn12Capabilities15PerformanceInfoE",
   "self_type" : "_ZTIKN7android2nn12Capabilities15PerformanceInfoE",
   "size" : 8,
   "source_file" : "hardware/interfaces/neuralnetworks/utils/common/include/nnapi/hal/CommonUtils.h"
  },
  {
   "alignment" : 4,
   "is_const" : true,
   "linker_set_key" : "_ZTIKN7android2nn5ModelE",
   "name" : "const android::nn::Model",
   "referenced_type" : "_ZTIN7android2nn5ModelE",
   "self_type" : "_ZTIKN7android2nn5ModelE",
   "size" : 100,
   "source_file" : "hardware/interfaces/neuralnetworks/utils/common/include/nnapi/hal/CommonUtils.h"
  },
  {
   "alignment" : 4,
   "is_const" : true,
   "linker_set_key" : "_ZTIKN7android2nn6HandleE",
   "name" : "const android::nn::Handle",
   "referenced_type" : "_ZTIN7android2nn6HandleE",
   "self_type" : "_ZTIKN7android2nn6HandleE",
   "size" : 24,
   "source_file" : "hardware/interfaces/neuralnetworks/utils/common/include/nnapi/hal/CommonUtils.h"
  },
  {
   "alignment" : 4,
   "is_const" : true,
   "linker_set_key" : "_ZTIKN7android2nn7MappingE",
   "name" : "const android::nn::Mapping",
   "referenced_type" : "_ZTIN7android2nn7MappingE",
   "self_type" : "_ZTIKN7android2nn7MappingE",
   "size" : 28,
   "source_file" : "hardware/interfaces/neuralnetworks/utils/common/include/nnapi/hal/CommonUtils.h"
  },
  {
   "alignment" : 4,
   "is_const" : true,
   "linker_set_key" : "_ZTIKN7android2nn7RequestE",
   "name" : "const android::nn::Request",
   "referenced_type" : "_ZTIN7android2nn7RequestE",
   "self_type" : "_ZTIKN7android2nn7RequestE",
   "size" : 36,
   "source_file" : "hardware/interfaces/neuralnetworks/utils/common/include/nnapi/hal/CommonUtils.h"
  },
  {
   "alignment" : 8,
   "is_const" : true,
   "linker_set_key" : "_ZTIKN7android8hardware11hidl_memoryE",
   "name" : "const android::hardware::hidl_memory",
   "referenced_type" : "_ZTIN7android8hardware11hidl_memoryE",
   "self_type" : "_ZTIKN7android8hardware11hidl_memoryE",
   "size" : 40,
   "source_file" : "hardware/interfaces/neuralnetworks/utils/common/include/nnapi/hal/CommonUtils.h"
  },
  {
   "alignment" : 4,
   "is_const" : true,
   "linker_set_key" : "_ZTIKNSt3__110shared_ptrIKN7android2nn6MemoryEEE",
   "name" : "const std::shared_ptr<const android::nn::Memory>",
   "referenced_type" : "_ZTINSt3__110shared_ptrIKN7android2nn6MemoryEEE",
   "self_type" : "_ZTIKNSt3__110shared_ptrIKN7android2nn6MemoryEEE",
   "size" : 8,
   "source_file" : "hardware/interfaces/neuralnetworks/utils/common/include/nnapi/hal/CommonUtils.h"
  },
  {
   "alignment" : 4,
   "is_const" : true,
   "linker_set_key" : "_ZTIKNSt3__16vectorIN7android2nn9OperationENS_9allocatorIS3_EEEE",
   "name" : "const std::vector<android::nn::Operation, std::allocator<android::nn::Operation>>",
   "referenced_type" : "_ZTINSt3__16vectorIN7android2nn9OperationENS_9allocatorIS3_EEEE",
   "self_type" : "_ZTIKNSt3__16vectorIN7android2nn9OperationENS_9allocatorIS3_EEEE",
   "size" : 12,
   "source_file" : "hardware/interfaces/neuralnetworks/utils/common/include/nnapi/hal/CommonUtils.h"
  },
  {
   "alignment" : 4,
   "is_const" : true,
   "linker_set_key" : "_ZTIKNSt3__16vectorIN7android2nn9SyncFenceENS_9allocatorIS3_EEEE",
   "name" : "const std::vector<android::nn::SyncFence, std::allocator<android::nn::SyncFence>>",
   "referenced_type" : "_ZTINSt3__16vectorIN7android2nn9SyncFenceENS_9allocatorIS3_EEEE",
   "self_type" : "_ZTIKNSt3__16vectorIN7android2nn9SyncFenceENS_9allocatorIS3_EEEE",
   "size" : 12,
   "source_file" : "hardware/interfaces/neuralnetworks/utils/common/include/nnapi/hal/CommonUtils.h"
  },
  {
   "alignment" : 4,
   "is_const" : true,
   "linker_set_key" : "_ZTIKNSt3__16vectorIN7android8hardware14neuralnetworks5utils14RelocationInfoIPKvEENS_9allocatorIS8_EEEE",
   "name" : "const std::vector<android::hardware::neuralnetworks::utils::RelocationInfo<const void *>, std::allocator<android::hardware::neuralnetworks::utils::RelocationInfo<const void *>>>",
   "referenced_type" : "_ZTINSt3__16vectorIN7android8hardware14neuralnetworks5utils14RelocationInfoIPKvEENS_9allocatorIS8_EEEE",
   "self_type" : "_ZTIKNSt3__16vectorIN7android8hardware14neuralnetworks5utils14RelocationInfoIPKvEENS_9allocatorIS8_EEEE",
   "size" : 12,
   "source_file" : "hardware/interfaces/neuralnetworks/utils/common/include/nnapi/hal/CommonUtils.h"
  },
  {
   "alignment" : 4,
   "is_const" : true,
   "linker_set_key" : "_ZTIKNSt3__16vectorIN7android8hardware14neuralnetworks5utils14RelocationInfoIPvEENS_9allocatorIS7_EEEE",
   "name" : "const std::vector<android::hardware::neuralnetworks::utils::RelocationInfo<void *>, std::allocator<android::hardware::neuralnetworks::utils::RelocationInfo<void *>>>",
   "referenced_type" : "_ZTINSt3__16vectorIN7android8hardware14neuralnetworks5utils14RelocationInfoIPvEENS_9allocatorIS7_EEEE",
   "self_type" : "_ZTIKNSt3__16vectorIN7android8hardware14neuralnetworks5utils14RelocationInfoIPvEENS_9allocatorIS7_EEEE",
   "size" : 12,
   "source_file" : "hardware/interfaces/neuralnetworks/utils/common/include/nnapi/hal/CommonUtils.h"
  },
  {
   "is_const" : true,
   "linker_set_key" : "_ZTIKv",
   "name" : "const void",
   "referenced_type" : "_ZTIv",
   "self_type" : "_ZTIKv",
   "source_file" : "hardware/interfaces/neuralnetworks/utils/common/include/nnapi/hal/CommonUtils.h"
  }
 ],
 "record_types" :
 [
  {
   "alignment" : 4,
   "fields" :
   [
    {
     "field_name" : "data",
     "referenced_type" : "_ZTIPKv"
    },
    {
     "field_name" : "length",
     "field_offset" : 32,
     "referenced_type" : "_ZTIj"
    },
    {
     "field_name" : "offset",
     "field_offset" : 64,
     "referenced_type" : "_ZTIj"
    }
   ],
   "linker_set_key" : "_ZTIN7android8hardware14neuralnetworks5utils14RelocationInfoIPKvEE",
   "name" : "android::hardware::neuralnetworks::utils::RelocationInfo<const void *>",
   "referenced_type" : "_ZTIN7android8hardware14neuralnetworks5utils14RelocationInfoIPKvEE",
   "self_type" : "_ZTIN7android8hardware14neuralnetworks5utils14RelocationInfoIPKvEE",
   "size" : 12,
   "source_file" : "hardware/interfaces/neuralnetworks/utils/common/include/nnapi/hal/CommonUtils.h",
   "template_args" : [ "_ZTIPKv" ]
  },
  {
   "alignment" : 4,
   "fields" :
   [
    {
     "field_name" : "data",
     "referenced_type" : "_ZTIPv"
    },
    {
     "field_name" : "length",
     "field_offset" : 32,
     "referenced_type" : "_ZTIj"
    },
    {
     "field_name" : "offset",
     "field_offset" : 64,
     "referenced_type" : "_ZTIj"
    }
   ],
   "linker_set_key" : "_ZTIN7android8hardware14neuralnetworks5utils14RelocationInfoIPvEE",
   "name" : "android::hardware::neuralnetworks::utils::RelocationInfo<void *>",
   "referenced_type" : "_ZTIN7android8hardware14neuralnetworks5utils14RelocationInfoIPvEE",
   "self_type" : "_ZTIN7android8hardware14neuralnetworks5utils14RelocationInfoIPvEE",
   "size" : 12,
   "source_file" : "hardware/interfaces/neuralnetworks/utils/common/include/nnapi/hal/CommonUtils.h",
   "template_args" : [ "_ZTIPv" ]
  },
  {
   "alignment" : 4,
   "fields" :
   [
    {
     "access" : "private",
     "field_name" : "kRelocationInfos",
     "referenced_type" : "_ZTIKNSt3__16vectorIN7android8hardware14neuralnetworks5utils14RelocationInfoIPKvEENS_9allocatorIS8_EEEE"
    },
    {
     "access" : "private",
     "field_name" : "kMemory",
     "field_offset" : 96,
     "referenced_type" : "_ZTIKNSt3__110shared_ptrIKN7android2nn6MemoryEEE"
    },
    {
     "access" : "private",
     "field_name" : "kMapping",
     "field_offset" : 160,
     "referenced_type" : "_ZTIKN7android2nn7MappingE"
    }
   ],
   "linker_set_key" : "_ZTIN7android8hardware14neuralnetworks5utils17RelocationTrackerINS2_14RelocationInfoIPKvEEEE",
   "name" : "android::hardware::neuralnetworks::utils::RelocationTracker<android::hardware::neuralnetworks::utils::RelocationInfo<const void *>>",
   "record_kind" : "class",
   "referenced_type" : "_ZTIN7android8hardware14neuralnetworks5utils17RelocationTrackerINS2_14RelocationInfoIPKvEEEE",
   "self_type" : "_ZTIN7android8hardware14neuralnetworks5utils17RelocationTrackerINS2_14RelocationInfoIPKvEEEE",
   "size" : 48,
   "source_file" : "hardware/interfaces/neuralnetworks/utils/common/include/nnapi/hal/CommonUtils.h",
   "template_args" : [ "_ZTIN7android8hardware14neuralnetworks5utils14RelocationInfoIPKvEE" ]
  },
  {
   "alignment" : 4,
   "fields" :
   [
    {
     "access" : "private",
     "field_name" : "kRelocationInfos",
     "referenced_type" : "_ZTIKNSt3__16vectorIN7android8hardware14neuralnetworks5utils14RelocationInfoIPvEENS_9allocatorIS7_EEEE"
    },
    {
     "access" : "private",
     "field_name" : "kMemory",
     "field_offset" : 96,
     "referenced_type" : "_ZTIKNSt3__110shared_ptrIKN7android2nn6MemoryEEE"
    },
    {
     "access" : "private",
     "field_name" : "kMapping",
     "field_offset" : 160,
     "referenced_type" : "_ZTIKN7android2nn7MappingE"
    }
   ],
   "linker_set_key" : "_ZTIN7android8hardware14neuralnetworks5utils17RelocationTrackerINS2_14RelocationInfoIPvEEEE",
   "name" : "android::hardware::neuralnetworks::utils::RelocationTracker<android::hardware::neuralnetworks::utils::RelocationInfo<void *>>",
   "record_kind" : "class",
   "referenced_type" : "_ZTIN7android8hardware14neuralnetworks5utils17RelocationTrackerINS2_14RelocationInfoIPvEEEE",
   "self_type" : "_ZTIN7android8hardware14neuralnetworks5utils17RelocationTrackerINS2_14RelocationInfoIPvEEEE",
   "size" : 48,
   "source_file" : "hardware/interfaces/neuralnetworks/utils/common/include/nnapi/hal/CommonUtils.h",
   "template_args" : [ "_ZTIN7android8hardware14neuralnetworks5utils14RelocationInfoIPvEE" ]
  },
  {
   "alignment" : 4,
   "fields" :
   [
    {
     "field_name" : "input",
     "referenced_type" : "_ZTINSt3__110unique_ptrIN7android8hardware14neuralnetworks5utils17RelocationTrackerINS4_14RelocationInfoIPKvEEEENS_14default_deleteISA_EEEE"
    },
    {
     "field_name" : "output",
     "field_offset" : 32,
     "referenced_type" : "_ZTINSt3__110unique_ptrIN7android8hardware14neuralnetworks5utils17RelocationTrackerINS4_14RelocationInfoIPvEEEENS_14default_deleteIS9_EEEE"
    }
   ],
   "linker_set_key" : "_ZTIN7android8hardware14neuralnetworks5utils17RequestRelocationE",
   "name" : "android::hardware::neuralnetworks::utils::RequestRelocation",
   "referenced_type" : "_ZTIN7android8hardware14neuralnetworks5utils17RequestRelocationE",
   "self_type" : "_ZTIN7android8hardware14neuralnetworks5utils17RequestRelocationE",
   "size" : 8,
   "source_file" : "hardware/interfaces/neuralnetworks/utils/common/include/nnapi/hal/CommonUtils.h"
  }
 ],
 "rvalue_reference_types" : []
}
