{
 "array_types" : [],
 "builtin_types" :
 [
  {
   "alignment" : 1,
   "is_integral" : true,
   "is_unsigned" : true,
   "linker_set_key" : "_ZTIb",
   "name" : "bool",
   "referenced_type" : "_ZTIb",
   "self_type" : "_ZTIb",
   "size" : 1
  },
  {
   "linker_set_key" : "_ZTIv",
   "name" : "void",
   "referenced_type" : "_ZTIv",
   "self_type" : "_ZTIv"
  },
  {
   "alignment" : 8,
   "is_integral" : true,
   "is_unsigned" : true,
   "linker_set_key" : "_ZTIy",
   "name" : "unsigned long long",
   "referenced_type" : "_ZTIy",
   "self_type" : "_ZTIy",
   "size" : 8
  }
 ],
 "elf_functions" : [],
 "elf_objects" : [],
 "enum_types" : [],
 "function_types" : [],
 "functions" :
 [
  {
   "function_name" : "android::hardware::neuralnetworks::utils::DeathHandler::create",
   "linker_set_key" : "_ZN7android8hardware14neuralnetworks5utils12DeathHandler6createENS_2spINS_4hidl4base4V1_05IBaseEEE",
   "parameters" :
   [
    {
     "referenced_type" : "_ZTIN7android2spINS_4hidl4base4V1_05IBaseEEE"
    }
   ],
   "return_type" : "_ZTIN7android4base8expectedINS_8hardware14neuralnetworks5utils12DeathHandlerENS_2nn12GeneralErrorEEE",
   "source_file" : "hardware/interfaces/neuralnetworks/utils/common/include/nnapi/hal/ProtectCallback.h"
  },
  {
   "access" : "private",
   "function_name" : "android::hardware::neuralnetworks::utils::DeathHandler::DeathHandler",
   "linker_set_key" : "_ZN7android8hardware14neuralnetworks5utils12DeathHandlerC1ENS_2spINS_4hidl4base4V1_05IBaseEEENS4_INS2_14DeathRecipientEEE",
   "parameters" :
   [
    {
     "is_this_ptr" : true,
     "referenced_type" : "_ZTIPN7android8hardware14neuralnetworks5utils12DeathHandlerE"
    },
    {
     "referenced_type" : "_ZTIN7android2spINS_4hidl4base4V1_05IBaseEEE"
    },
    {
     "referenced_type" : "_ZTIN7android2spINS_8hardware14neuralnetworks5utils14DeathRecipientEEE"
    }
   ],
   "return_type" : "_ZTIv",
   "source_file" : "hardware/interfaces/neuralnetworks/utils/common/include/nnapi/hal/ProtectCallback.h"
  },
  {
   "function_name" : "android::hardware::neuralnetworks::utils::DeathHandler::DeathHandler",
   "linker_set_key" : "_ZN7android8hardware14neuralnetworks5utils12DeathHandlerC1EOS3_",
   "parameters" :
   [
    {
     "is_this_ptr" : true,
     "referenced_type" : "_ZTIPN7android8hardware14neuralnetworks5utils12DeathHandlerE"
    },
    {
     "referenced_type" : "_ZTION7android8hardware14neuralnetworks5utils12DeathHandlerE"
    }
   ],
   "return_type" : "_ZTIv",
   "source_file" : "hardware/interfaces/neuralnetworks/utils/common/include/nnapi/hal/ProtectCallback.h"
  },
  {
   "access" : "private",
   "function_name" : "android::hardware::neuralnetworks::utils::DeathHandler::DeathHandler",
   "linker_set_key" : "_ZN7android8hardware14neuralnetworks5utils12DeathHandlerC2ENS_2spINS_4hidl4base4V1_05IBaseEEENS4_INS2_14DeathRecipientEEE",
   "parameters" :
   [
    {
     "is_this_ptr" : true,
     "referenced_type" : "_ZTIPN7android8hardware14neuralnetworks5utils12DeathHandlerE"
    },
    {
     "referenced_type" : "_ZTIN7android2spINS_4hidl4base4V1_05IBaseEEE"
    },
    {
     "referenced_type" : "_ZTIN7android2spINS_8hardware14neuralnetworks5utils14DeathRecipientEEE"
    }
   ],
   "return_type" : "_ZTIv",
   "source_file" : "hardware/interfaces/neuralnetworks/utils/common/include/nnapi/hal/ProtectCallback.h"
  },
  {
   "function_name" : "android::hardware::neuralnetworks::utils::DeathHandler::DeathHandler",
   "linker_set_key" : "_ZN7android8hardware14neuralnetworks5utils12DeathHandlerC2EOS3_",
   "parameters" :
   [
    {
     "is_this_ptr" : true,
     "referenced_type" : "_ZTIPN7android8hardware14neuralnetworks5utils12DeathHandlerE"
    },
    {
     "referenced_type" : "_ZTION7android8hardware14neuralnetworks5utils12DeathHandlerE"
    }
   ],
   "return_type" : "_ZTIv",
   "source_file" : "hardware/interfaces/neuralnetworks/utils/common/include/nnapi/hal/ProtectCallback.h"
  },
  {
   "function_name" : "android::hardware::neuralnetworks::utils::DeathHandler::~DeathHandler",
   "linker_set_key" : "_ZN7android8hardware14neuralnetworks5utils12DeathHandlerD1Ev",
   "parameters" :
   [
    {
     "is_this_ptr" : true,
     "referenced_type" : "_ZTIPN7android8hardware14neuralnetworks5utils12DeathHandlerE"
    }
   ],
   "return_type" : "_ZTIv",
   "source_file" : "hardware/interfaces/neuralnetworks/utils/common/include/nnapi/hal/ProtectCallback.h"
  },
  {
   "function_name" : "android::hardware::neuralnetworks::utils::DeathHandler::~DeathHandler",
   "linker_set_key" : "_ZN7android8hardware14neuralnetworks5utils12DeathHandlerD2Ev",
   "parameters" :
   [
    {
     "is_this_ptr" : true,
     "referenced_type" : "_ZTIPN7android8hardware14neuralnetworks5utils12DeathHandlerE"
    }
   ],
   "return_type" : "_ZTIv",
   "source_file" : "hardware/interfaces/neuralnetworks/utils/common/include/nnapi/hal/ProtectCallback.h"
  },
  {
   "function_name" : "android::hardware::neuralnetworks::utils::DeathRecipient::serviceDied",
   "linker_set_key" : "_ZN7android8hardware14neuralnetworks5utils14DeathRecipient11serviceDiedEyRKNS_2wpINS_4hidl4base4V1_05IBaseEEE",
   "parameters" :
   [
    {
     "is_this_ptr" : true,
     "referenced_type" : "_ZTIPN7android8hardware14neuralnetworks5utils14DeathRecipientE"
    },
    {
     "referenced_type" : "_ZTIy"
    },
    {
     "referenced_type" : "_ZTIRKN7android2wpINS_4hidl4base4V1_05IBaseEEE"
    }
   ],
   "return_type" : "_ZTIv",
   "source_file" : "hardware/interfaces/neuralnetworks/utils/common/include/nnapi/hal/ProtectCallback.h"
  },
  {
   "access" : "protected",
   "function_name" : "android::hardware::neuralnetworks::utils::IProtectedCallback::IProtectedCallback",
   "linker_set_key" : "_ZN7android8hardware14neuralnetworks5utils18IProtectedCallbackC2EOS3_",
   "parameters" :
   [
    {
     "is_this_ptr" : true,
     "referenced_type" : "_ZTIPN7android8hardware14neuralnetworks5utils18IProtectedCallbackE"
    },
    {
     "referenced_type" : "_ZTION7android8hardware14neuralnetworks5utils18IProtectedCallbackE"
    }
   ],
   "return_type" : "_ZTIv",
   "source_file" : "hardware/interfaces/neuralnetworks/utils/common/include/nnapi/hal/ProtectCallback.h"
  },
  {
   "access" : "protected",
   "function_name" : "android::hardware::neuralnetworks::utils::IProtectedCallback::IProtectedCallback",
   "linker_set_key" : "_ZN7android8hardware14neuralnetworks5utils18IProtectedCallbackC2ERKS3_",
   "parameters" :
   [
    {
     "is_this_ptr" : true,
     "referenced_type" : "_ZTIPN7android8hardware14neuralnetworks5utils18IProtectedCallbackE"
    },
    {
     "referenced_type" : "_ZTIRKN7android8hardware14neuralnetworks5utils18IProtectedCallbackE"
    }
   ],
   "return_type" : "_ZTIv",
   "source_file" : "hardware/interfaces/neuralnetworks/utils/common/include/nnapi/hal/ProtectCallback.h"
  },
  {
   "access" : "protected",
   "function_name" : "android::hardware::neuralnetworks::utils::IProtectedCallback::IProtectedCallback",
   "linker_set_key" : "_ZN7android8hardware14neuralnetworks5utils18IProtectedCallbackC2Ev",
   "parameters" :
   [
    {
     "is_this_ptr" : true,
     "referenced_type" : "_ZTIPN7android8hardware14neuralnetworks5utils18IProtectedCallbackE"
    }
   ],
   "return_type" : "_ZTIv",
   "source_file" : "hardware/interfaces/neuralnetworks/utils/common/include/nnapi/hal/ProtectCallback.h"
  },
  {
   "function_name" : "android::hardware::neuralnetworks::utils::IProtectedCallback::~IProtectedCallback",
   "linker_set_key" : "_ZN7android8hardware14neuralnetworks5utils18IProtectedCallbackD0Ev",
   "parameters" :
   [
    {
     "is_this_ptr" : true,
     "referenced_type" : "_ZTIPN7android8hardware14neuralnetworks5utils18IProtectedCallbackE"
    }
   ],
   "return_type" : "_ZTIv",
   "source_file" : "hardware/interfaces/neuralnetworks/utils/common/include/nnapi/hal/ProtectCallback.h"
  },
  {
   "function_name" : "android::hardware::neuralnetworks::utils::IProtectedCallback::~IProtectedCallback",
   "linker_set_key" : "_ZN7android8hardware14neuralnetworks5utils18IProtectedCallbackD1Ev",
   "parameters" :
   [
    {
     "is_this_ptr" : true,
     "referenced_type" : "_ZTIPN7android8hardware14neuralnetworks5utils18IProtectedCallbackE"
    }
   ],
   "return_type" : "_ZTIv",
   "source_file" : "hardware/interfaces/neuralnetworks/utils/common/include/nnapi/hal/ProtectCallback.h"
  },
  {
   "function_name" : "android::hardware::neuralnetworks::utils::IProtectedCallback::~IProtectedCallback",
   "linker_set_key" : "_ZN7android8hardware14neuralnetworks5utils18IProtectedCallbackD2Ev",
   "parameters" :
   [
    {
     "is_this_ptr" : true,
     "referenced_type" : "_ZTIPN7android8hardware14neuralnetworks5utils18IProtectedCallbackE"
    }
   ],
   "return_type" : "_ZTIv",
   "source_file" : "hardware/interfaces/neuralnetworks/utils/common/include/nnapi/hal/ProtectCallback.h"
  },
  {
   "access" : "protected",
   "function_name" : "android::hardware::neuralnetworks::utils::IProtectedCallback::operator=",
   "linker_set_key" : "_ZN7android8hardware14neuralnetworks5utils18IProtectedCallbackaSEOS3_",
   "parameters" :
   [
    {
     "is_this_ptr" : true,
     "referenced_type" : "_ZTIPN7android8hardware14neuralnetworks5utils18IProtectedCallbackE"
    },
    {
     "referenced_type" : "_ZTION7android8hardware14neuralnetworks5utils18IProtectedCallbackE"
    }
   ],
   "return_type" : "_ZTIRN7android8hardware14neuralnetworks5utils18IProtectedCallbackE",
   "source_file" : "hardware/interfaces/neuralnetworks/utils/common/include/nnapi/hal/ProtectCallback.h"
  },
  {
   "access" : "protected",
   "function_name" : "android::hardware::neuralnetworks::utils::IProtectedCallback::operator=",
   "linker_set_key" : "_ZN7android8hardware14neuralnetworks5utils18IProtectedCallbackaSERKS3_",
   "parameters" :
   [
    {
     "is_this_ptr" : true,
     "referenced_type" : "_ZTIPN7android8hardware14neuralnetworks5utils18IProtectedCallbackE"
    },
    {
     "referenced_type" : "_ZTIRKN7android8hardware14neuralnetworks5utils18IProtectedCallbackE"
    }
   ],
   "return_type" : "_ZTIRN7android8hardware14neuralnetworks5utils18IProtectedCallbackE",
   "source_file" : "hardware/interfaces/neuralnetworks/utils/common/include/nnapi/hal/ProtectCallback.h"
  },
  {
   "function_name" : "android::hardware::neuralnetworks::utils::handleTransportError",
   "linker_set_key" : "_ZN7android8hardware14neuralnetworks5utils20handleTransportErrorIbEENS_4base8expectedIT_NS_2nn12GeneralErrorEEERKNS0_6ReturnIS6_EE",
   "parameters" :
   [
    {
     "referenced_type" : "_ZTIRKN7android8hardware6ReturnIbEE"
    }
   ],
   "return_type" : "_ZTIN7android4base8expectedIbNS_2nn12GeneralErrorEEE",
   "source_file" : "hardware/interfaces/neuralnetworks/utils/common/include/nnapi/hal/HandleError.h",
   "template_args" : [ "_ZTIb" ]
  },
  {
   "function_name" : "android::hardware::neuralnetworks::utils::DeathHandler::protectCallback",
   "linker_set_key" : "_ZNK7android8hardware14neuralnetworks5utils12DeathHandler15protectCallbackEPNS2_18IProtectedCallbackE",
   "parameters" :
   [
    {
     "is_this_ptr" : true,
     "referenced_type" : "_ZTIPKN7android8hardware14neuralnetworks5utils12DeathHandlerE"
    },
    {
     "referenced_type" : "_ZTIPN7android8hardware14neuralnetworks5utils18IProtectedCallbackE"
    }
   ],
   "return_type" : "_ZTIN7android4base10ScopeGuardINSt3__18functionIFvvEEEEE",
   "source_file" : "hardware/interfaces/neuralnetworks/utils/common/include/nnapi/hal/ProtectCallback.h"
  },
  {
   "function_name" : "android::hardware::neuralnetworks::utils::DeathHandler::protectCallbackForLifetimeOfDeathHandler",
   "linker_set_key" : "_ZNK7android8hardware14neuralnetworks5utils12DeathHandler40protectCallbackForLifetimeOfDeathHandlerEPNS2_18IProtectedCallbackE",
   "parameters" :
   [
    {
     "is_this_ptr" : true,
     "referenced_type" : "_ZTIPKN7android8hardware14neuralnetworks5utils12DeathHandlerE"
    },
    {
     "referenced_type" : "_ZTIPN7android8hardware14neuralnetworks5utils18IProtectedCallbackE"
    }
   ],
   "return_type" : "_ZTIv",
   "source_file" : "hardware/interfaces/neuralnetworks/utils/common/include/nnapi/hal/ProtectCallback.h"
  },
  {
   "function_name" : "android::hardware::neuralnetworks::utils::DeathRecipient::add",
   "linker_set_key" : "_ZNK7android8hardware14neuralnetworks5utils14DeathRecipient3addEPNS2_18IProtectedCallbackE",
   "parameters" :
   [
    {
     "is_this_ptr" : true,
     "referenced_type" : "_ZTIPKN7android8hardware14neuralnetworks5utils14DeathRecipientE"
    },
    {
     "referenced_type" : "_ZTIPN7android8hardware14neuralnetworks5utils18IProtectedCallbackE"
    }
   ],
   "return_type" : "_ZTIv",
   "source_file" : "hardware/interfaces/neuralnetworks/utils/common/include/nnapi/hal/ProtectCallback.h"
  },
  {
   "function_name" : "android::hardware::neuralnetworks::utils::DeathRecipient::remove",
   "linker_set_key" : "_ZNK7android8hardware14neuralnetworks5utils14DeathRecipient6removeEPNS2_18IProtectedCallbackE",
   "parameters" :
   [
    {
     "is_this_ptr" : true,
     "referenced_type" : "_ZTIPKN7android8hardware14neuralnetworks5utils14DeathRecipientE"
    },
    {
     "referenced_type" : "_ZTIPN7android8hardware14neuralnetworks5utils18IProtectedCallbackE"
    }
   ],
   "return_type" : "_ZTIv",
   "source_file" : "hardware/interfaces/neuralnetworks/utils/common/include/nnapi/hal/ProtectCallback.h"
  }
 ],
 "global_vars" : [],
 "lvalue_reference_types" :
 [
  {
   "alignment" : 4,
   "linker_set_key" : "_ZTIRKN7android2wpINS_4hidl4base4V1_05IBaseEEE",
   "name" : "const android::wp<android::hidl::base::V1_0::IBase> &",
   "referenced_type" : "_ZTIKN7android2wpINS_4hidl4base4V1_05IBaseEEE",
   "self_type" : "_ZTIRKN7android2wpINS_4hidl4base4V1_05IBaseEEE",
   "size" : 4,
   "source_file" : "hardware/interfaces/neuralnetworks/utils/common/include/nnapi/hal/ProtectCallback.h"
  },
  {
   "alignment" : 4,
   "linker_set_key" : "_ZTIRKN7android8hardware14neuralnetworks5utils18IProtectedCallbackE",
   "name" : "const android::hardware::neuralnetworks::utils::IProtectedCallback &",
   "referenced_type" : "_ZTIKN7android8hardware14neuralnetworks5utils18IProtectedCallbackE",
   "self_type" : "_ZTIRKN7android8hardware14neuralnetworks5utils18IProtectedCallbackE",
   "size" : 4,
   "source_file" : "hardware/interfaces/neuralnetworks/utils/common/include/nnapi/hal/ProtectCallback.h"
  },
  {
   "alignment" : 4,
   "linker_set_key" : "_ZTIRKN7android8hardware6ReturnIbEE",
   "name" : "const android::hardware::Return<bool> &",
   "referenced_type" : "_ZTIKN7android8hardware6ReturnIbEE",
   "self_type" : "_ZTIRKN7android8hardware6ReturnIbEE",
   "size" : 4,
   "source_file" : "hardware/interfaces/neuralnetworks/utils/common/include/nnapi/hal/HandleError.h"
  },
  {
   "alignment" : 4,
   "linker_set_key" : "_ZTIRN7android8hardware14neuralnetworks5utils18IProtectedCallbackE",
   "name" : "android::hardware::neuralnetworks::utils::IProtectedCallback &",
   "referenced_type" : "_ZTIN7android8hardware14neuralnetworks5utils18IProtectedCallbackE",
   "self_type" : "_ZTIRN7android8hardware14neuralnetworks5utils18IProtectedCallbackE",
   "size" : 4,
   "source_file" : "hardware/interfaces/neuralnetworks/utils/common/include/nnapi/hal/ProtectCallback.h"
  }
 ],
 "pointer_types" :
 [
  {
   "alignment" : 4,
   "linker_set_key" : "_ZTIPKN7android8hardware14neuralnetworks5utils12DeathHandlerE",
   "name" : "const android::hardware::neuralnetworks::utils::DeathHandler *",
   "referenced_type" : "_ZTIKN7android8hardware14neuralnetworks5utils12DeathHandlerE",
   "self_type" : "_ZTIPKN7android8hardware14neuralnetworks5utils12DeathHandlerE",
   "size" : 4,
   "source_file" : "hardware/interfaces/neuralnetworks/utils/common/include/nnapi/hal/ProtectCallback.h"
  },
  {
   "alignment" : 4,
   "linker_set_key" : "_ZTIPKN7android8hardware14neuralnetworks5utils14DeathRecipientE",
   "name" : "const android::hardware::neuralnetworks::utils::DeathRecipient *",
   "referenced_type" : "_ZTIKN7android8hardware14neuralnetworks5utils14DeathRecipientE",
   "self_type" : "_ZTIPKN7android8hardware14neuralnetworks5utils14DeathRecipientE",
   "size" : 4,
   "source_file" : "hardware/interfaces/neuralnetworks/utils/common/include/nnapi/hal/ProtectCallback.h"
  },
  {
   "alignment" : 4,
   "linker_set_key" : "_ZTIPN7android8hardware14neuralnetworks5utils12DeathHandlerE",
   "name" : "android::hardware::neuralnetworks::utils::DeathHandler *",
   "referenced_type" : "_ZTIN7android8hardware14neuralnetworks5utils12DeathHandlerE",
   "self_type" : "_ZTIPN7android8hardware14neuralnetworks5utils12DeathHandlerE",
   "size" : 4,
   "source_file" : "hardware/interfaces/neuralnetworks/utils/common/include/nnapi/hal/ProtectCallback.h"
  },
  {
   "alignment" : 4,
   "linker_set_key" : "_ZTIPN7android8hardware14neuralnetworks5utils14DeathRecipientE",
   "name" : "android::hardware::neuralnetworks::utils::DeathRecipient *",
   "referenced_type" : "_ZTIN7android8hardware14neuralnetworks5utils14DeathRecipientE",
   "self_type" : "_ZTIPN7android8hardware14neuralnetworks5utils14DeathRecipientE",
   "size" : 4,
   "source_file" : "hardware/interfaces/neuralnetworks/utils/common/include/nnapi/hal/ProtectCallback.h"
  },
  {
   "alignment" : 4,
   "linker_set_key" : "_ZTIPN7android8hardware14neuralnetworks5utils18IProtectedCallbackE",
   "name" : "android::hardware::neuralnetworks::utils::IProtectedCallback *",
   "referenced_type" : "_ZTIN7android8hardware14neuralnetworks5utils18IProtectedCallbackE",
   "self_type" : "_ZTIPN7android8hardware14neuralnetworks5utils18IProtectedCallbackE",
   "size" : 4,
   "source_file" : "hardware/interfaces/neuralnetworks/utils/common/include/nnapi/hal/ProtectCallback.h"
  }
 ],
 "qualified_types" :
 [
  {
   "is_const" : true,
   "linker_set_key" : "_ZTIKN7android2wpINS_4hidl4base4V1_05IBaseEEE",
   "name" : "const android::wp<android::hidl::base::V1_0::IBase>",
   "referenced_type" : "_ZTIN7android2wpINS_4hidl4base4V1_05IBaseEEE",
   "self_type" : "_ZTIKN7android2wpINS_4hidl4base4V1_05IBaseEEE",
   "source_file" : "hardware/interfaces/neuralnetworks/utils/common/include/nnapi/hal/ProtectCallback.h"
  },
  {
   "alignment" : 4,
   "is_const" : true,
   "linker_set_key" : "_ZTIKN7android8hardware14neuralnetworks5utils12DeathHandlerE",
   "name" : "const android::hardware::neuralnetworks::utils::DeathHandler",
   "referenced_type" : "_ZTIN7android8hardware14neuralnetworks5utils12DeathHandlerE",
   "self_type" : "_ZTIKN7android8hardware14neuralnetworks5utils12DeathHandlerE",
   "size" : 8,
   "source_file" : "hardware/interfaces/neuralnetworks/utils/common/include/nnapi/hal/ProtectCallback.h"
  },
  {
   "alignment" : 4,
   "is_const" : true,
   "linker_set_key" : "_ZTIKN7android8hardware14neuralnetworks5utils14DeathRecipientE",
   "name" : "const android::hardware::neuralnetworks::utils::DeathRecipient",
   "referenced_type" : "_ZTIN7android8hardware14neuralnetworks5utils14DeathRecipientE",
   "self_type" : "_ZTIKN7android8hardware14neuralnetworks5utils14DeathRecipientE",
   "size" : 32,
   "source_file" : "hardware/interfaces/neuralnetworks/utils/common/include/nnapi/hal/ProtectCallback.h"
  },
  {
   "alignment" : 4,
   "is_const" : true,
   "linker_set_key" : "_ZTIKN7android8hardware14neuralnetworks5utils18IProtectedCallbackE",
   "name" : "const android::hardware::neuralnetworks::utils::IProtectedCallback",
   "referenced_type" : "_ZTIN7android8hardware14neuralnetworks5utils18IProtectedCallbackE",
   "self_type" : "_ZTIKN7android8hardware14neuralnetworks5utils18IProtectedCallbackE",
   "size" : 4,
   "source_file" : "hardware/interfaces/neuralnetworks/utils/common/include/nnapi/hal/ProtectCallback.h"
  },
  {
   "alignment" : 4,
   "is_const" : true,
   "linker_set_key" : "_ZTIKN7android8hardware6ReturnIbEE",
   "name" : "const android::hardware::Return<bool>",
   "referenced_type" : "_ZTIN7android8hardware6ReturnIbEE",
   "self_type" : "_ZTIKN7android8hardware6ReturnIbEE",
   "size" : 24,
   "source_file" : "hardware/interfaces/neuralnetworks/utils/common/include/nnapi/hal/HandleError.h"
  }
 ],
 "record_types" :
 [
  {
   "alignment" : 4,
   "fields" :
   [
    {
     "access" : "private",
     "field_name" : "mObject",
     "referenced_type" : "_ZTIN7android2spINS_4hidl4base4V1_05IBaseEEE"
    },
    {
     "access" : "private",
     "field_name" : "mDeathRecipient",
     "field_offset" : 32,
     "referenced_type" : "_ZTIN7android2spINS_8hardware14neuralnetworks5utils14DeathRecipientEEE"
    }
   ],
   "linker_set_key" : "_ZTIN7android8hardware14neuralnetworks5utils12DeathHandlerE",
   "name" : "android::hardware::neuralnetworks::utils::DeathHandler",
   "record_kind" : "class",
   "referenced_type" : "_ZTIN7android8hardware14neuralnetworks5utils12DeathHandlerE",
   "self_type" : "_ZTIN7android8hardware14neuralnetworks5utils12DeathHandlerE",
   "size" : 8,
   "source_file" : "hardware/interfaces/neuralnetworks/utils/common/include/nnapi/hal/ProtectCallback.h"
  },
  {
   "alignment" : 4,
   "base_specifiers" :
   [
    {
     "referenced_type" : "_ZTIN7android8hardware20hidl_death_recipientE"
    }
   ],
   "fields" :
   [
    {
     "access" : "private",
     "field_name" : "mMutex",
     "field_offset" : 32,
     "referenced_type" : "_ZTINSt3__15mutexE"
    },
    {
     "access" : "private",
     "field_name" : "mIsDeadObject",
     "field_offset" : 64,
     "referenced_type" : "_ZTIb"
    },
    {
     "access" : "private",
     "field_name" : "mObjects",
     "field_offset" : 96,
     "referenced_type" : "_ZTINSt3__16vectorIPN7android8hardware14neuralnetworks5utils18IProtectedCallbackENS_9allocatorIS6_EEEE"
    }
   ],
   "linker_set_key" : "_ZTIN7android8hardware14neuralnetworks5utils14DeathRecipientE",
   "name" : "android::hardware::neuralnetworks::utils::DeathRecipient",
   "record_kind" : "class",
   "referenced_type" : "_ZTIN7android8hardware14neuralnetworks5utils14DeathRecipientE",
   "self_type" : "_ZTIN7android8hardware14neuralnetworks5utils14DeathRecipientE",
   "size" : 32,
   "source_file" : "hardware/interfaces/neuralnetworks/utils/common/include/nnapi/hal/ProtectCallback.h",
   "vtable_components" :
   [
    {
     "component_value" : 24,
     "kind" : "vbase_offset"
    },
    {
     "kind" : "offset_to_top"
    },
    {
     "kind" : "rtti",
     "mangled_component_name" : "_ZTIN7android8hardware14neuralnetworks5utils14DeathRecipientE"
    },
    {
     "mangled_component_name" : "_ZN7android8hardware14neuralnetworks5utils14DeathRecipient11serviceDiedEyRKNS_2wpINS_4hidl4base4V1_05IBaseEEE"
    },
    {
     "kind" : "complete_dtor_pointer",
     "mangled_component_name" : "_ZN7android8hardware14neuralnetworks5utils14DeathRecipientD1Ev"
    },
    {
     "kind" : "deleting_dtor_pointer",
     "mangled_component_name" : "_ZN7android8hardware14neuralnetworks5utils14DeathRecipientD0Ev"
    },
    {
     "kind" : "vcall_offset"
    },
    {
     "kind" : "vcall_offset"
    },
    {
     "kind" : "vcall_offset"
    },
    {
     "kind" : "vcall_offset"
    },
    {
     "component_value" : -24,
     "kind" : "vcall_offset"
    },
    {
     "component_value" : -24,
     "kind" : "offset_to_top"
    },
    {
     "kind" : "rtti",
     "mangled_component_name" : "_ZTIN7android8hardware14neuralnetworks5utils14DeathRecipientE"
    },
    {
     "kind" : "complete_dtor_pointer",
     "mangled_component_name" : "_ZTv0_n12_N7android8hardware14neuralnetworks5utils14DeathRecipientD1Ev"
    },
    {
     "kind" : "deleting_dtor_pointer",
     "mangled_component_name" : "_ZTv0_n12_N7android8hardware14neuralnetworks5utils14DeathRecipientD0Ev"
    },
    {
     "mangled_component_name" : "_ZN7android7RefBase10onFirstRefEv"
    },
    {
     "mangled_component_name" : "_ZN7android7RefBase15onLastStrongRefEPKv"
    },
    {
     "mangled_component_name" : "_ZN7android7RefBase20onIncStrongAttemptedEjPKv"
    },
    {
     "mangled_component_name" : "_ZN7android7RefBase13onLastWeakRefEPKv"
    }
   ]
  },
  {
   "alignment" : 4,
   "linker_set_key" : "_ZTIN7android8hardware14neuralnetworks5utils18IProtectedCallbackE",
   "name" : "android::hardware::neuralnetworks::utils::IProtectedCallback",
   "record_kind" : "class",
   "referenced_type" : "_ZTIN7android8hardware14neuralnetworks5utils18IProtectedCallbackE",
   "self_type" : "_ZTIN7android8hardware14neuralnetworks5utils18IProtectedCallbackE",
   "size" : 4,
   "source_file" : "hardware/interfaces/neuralnetworks/utils/common/include/nnapi/hal/ProtectCallback.h",
   "vtable_components" :
   [
    {
     "kind" : "offset_to_top"
    },
    {
     "kind" : "rtti",
     "mangled_component_name" : "_ZTIN7android8hardware14neuralnetworks5utils18IProtectedCallbackE"
    },
    {
     "is_pure" : true,
     "mangled_component_name" : "_ZN7android8hardware14neuralnetworks5utils18IProtectedCallback18notifyAsDeadObjectEv"
    },
    {
     "kind" : "complete_dtor_pointer",
     "mangled_component_name" : "_ZN7android8hardware14neuralnetworks5utils18IProtectedCallbackD1Ev"
    },
    {
     "kind" : "deleting_dtor_pointer",
     "mangled_component_name" : "_ZN7android8hardware14neuralnetworks5utils18IProtectedCallbackD0Ev"
    }
   ]
  }
 ],
 "rvalue_reference_types" :
 [
  {
   "alignment" : 4,
   "linker_set_key" : "_ZTION7android8hardware14neuralnetworks5utils12DeathHandlerE",
   "name" : "android::hardware::neuralnetworks::utils::DeathHandler &&",
   "referenced_type" : "_ZTIN7android8hardware14neuralnetworks5utils12DeathHandlerE",
   "self_type" : "_ZTION7android8hardware14neuralnetworks5utils12DeathHandlerE",
   "size" : 4,
   "source_file" : "hardware/interfaces/neuralnetworks/utils/common/include/nnapi/hal/ProtectCallback.h"
  },
  {
   "alignment" : 4,
   "linker_set_key" : "_ZTION7android8hardware14neuralnetworks5utils18IProtectedCallbackE",
   "name" : "android::hardware::neuralnetworks::utils::IProtectedCallback &&",
   "referenced_type" : "_ZTIN7android8hardware14neuralnetworks5utils18IProtectedCallbackE",
   "self_type" : "_ZTION7android8hardware14neuralnetworks5utils18IProtectedCallbackE",
   "size" : 4,
   "source_file" : "hardware/interfaces/neuralnetworks/utils/common/include/nnapi/hal/ProtectCallback.h"
  }
 ]
}
