{
 "array_types" : [],
 "builtin_types" :
 [
  {
   "linker_set_key" : "_ZTIv",
   "name" : "void",
   "referenced_type" : "_ZTIv",
   "self_type" : "_ZTIv"
  }
 ],
 "elf_functions" : [],
 "elf_objects" : [],
 "enum_types" : [],
 "function_types" : [],
 "functions" :
 [
  {
   "function_name" : "android::hardware::neuralnetworks::utils::ResilientBuffer::create",
   "linker_set_key" : "_ZN7android8hardware14neuralnetworks5utils15ResilientBuffer6createENSt3__18functionIFNS_4base8expectedINS4_10shared_ptrIKNS_2nn7IBufferEEENS9_12GeneralErrorEEEvEEE",
   "parameters" :
   [
    {
     "referenced_type" : "_ZTINSt3__18functionIFN7android4base8expectedINS_10shared_ptrIKNS1_2nn7IBufferEEENS5_12GeneralErrorEEEvEEE"
    }
   ],
   "return_type" : "_ZTIN7android4base8expectedINSt3__110shared_ptrIKNS_8hardware14neuralnetworks5utils15ResilientBufferEEENS_2nn12GeneralErrorEEE",
   "source_file" : "hardware/interfaces/neuralnetworks/utils/common/include/nnapi/hal/ResilientBuffer.h"
  },
  {
   "function_name" : "android::hardware::neuralnetworks::utils::ResilientBuffer::ResilientBuffer",
   "linker_set_key" : "_ZN7android8hardware14neuralnetworks5utils15ResilientBufferC1ENS3_21PrivateConstructorTagENSt3__18functionIFNS_4base8expectedINS5_10shared_ptrIKNS_2nn7IBufferEEENSA_12GeneralErrorEEEvEEESD_",
   "parameters" :
   [
    {
     "is_this_ptr" : true,
     "referenced_type" : "_ZTIPN7android8hardware14neuralnetworks5utils15ResilientBufferE"
    },
    {
     "referenced_type" : "_ZTIN7android8hardware14neuralnetworks5utils15ResilientBuffer21PrivateConstructorTagE"
    },
    {
     "referenced_type" : "_ZTINSt3__18functionIFN7android4base8expectedINS_10shared_ptrIKNS1_2nn7IBufferEEENS5_12GeneralErrorEEEvEEE"
    },
    {
     "referenced_type" : "_ZTINSt3__110shared_ptrIKN7android2nn7IBufferEEE"
    }
   ],
   "return_type" : "_ZTIv",
   "source_file" : "hardware/interfaces/neuralnetworks/utils/common/include/nnapi/hal/ResilientBuffer.h"
  },
  {
   "function_name" : "android::hardware::neuralnetworks::utils::ResilientBuffer::ResilientBuffer",
   "linker_set_key" : "_ZN7android8hardware14neuralnetworks5utils15ResilientBufferC2ENS3_21PrivateConstructorTagENSt3__18functionIFNS_4base8expectedINS5_10shared_ptrIKNS_2nn7IBufferEEENSA_12GeneralErrorEEEvEEESD_",
   "parameters" :
   [
    {
     "is_this_ptr" : true,
     "referenced_type" : "_ZTIPN7android8hardware14neuralnetworks5utils15ResilientBufferE"
    },
    {
     "referenced_type" : "_ZTIN7android8hardware14neuralnetworks5utils15ResilientBuffer21PrivateConstructorTagE"
    },
    {
     "referenced_type" : "_ZTINSt3__18functionIFN7android4base8expectedINS_10shared_ptrIKNS1_2nn7IBufferEEENS5_12GeneralErrorEEEvEEE"
    },
    {
     "referenced_type" : "_ZTINSt3__110shared_ptrIKN7android2nn7IBufferEEE"
    }
   ],
   "return_type" : "_ZTIv",
   "source_file" : "hardware/interfaces/neuralnetworks/utils/common/include/nnapi/hal/ResilientBuffer.h"
  },
  {
   "function_name" : "android::hardware::neuralnetworks::utils::ResilientBuffer::copyTo",
   "linker_set_key" : "_ZNK7android8hardware14neuralnetworks5utils15ResilientBuffer6copyToERKNSt3__110shared_ptrIKNS_2nn6MemoryEEE",
   "parameters" :
   [
    {
     "is_this_ptr" : true,
     "referenced_type" : "_ZTIPKN7android8hardware14neuralnetworks5utils15ResilientBufferE"
    },
    {
     "referenced_type" : "_ZTIRKNSt3__110shared_ptrIKN7android2nn6MemoryEEE"
    }
   ],
   "return_type" : "_ZTIN7android4base8expectedIvNS_2nn12GeneralErrorEEE",
   "source_file" : "hardware/interfaces/neuralnetworks/utils/common/include/nnapi/hal/ResilientBuffer.h"
  },
  {
   "function_name" : "android::hardware::neuralnetworks::utils::ResilientBuffer::recover",
   "linker_set_key" : "_ZNK7android8hardware14neuralnetworks5utils15ResilientBuffer7recoverEPKNS_2nn7IBufferE",
   "parameters" :
   [
    {
     "is_this_ptr" : true,
     "referenced_type" : "_ZTIPKN7android8hardware14neuralnetworks5utils15ResilientBufferE"
    },
    {
     "referenced_type" : "_ZTIPKN7android2nn7IBufferE"
    }
   ],
   "return_type" : "_ZTIN7android4base8expectedINSt3__110shared_ptrIKNS_2nn7IBufferEEENS4_12GeneralErrorEEE",
   "source_file" : "hardware/interfaces/neuralnetworks/utils/common/include/nnapi/hal/ResilientBuffer.h"
  },
  {
   "function_name" : "android::hardware::neuralnetworks::utils::ResilientBuffer::copyFrom",
   "linker_set_key" : "_ZNK7android8hardware14neuralnetworks5utils15ResilientBuffer8copyFromERKNSt3__110shared_ptrIKNS_2nn6MemoryEEERKNS4_6vectorIjNS4_9allocatorIjEEEE",
   "parameters" :
   [
    {
     "is_this_ptr" : true,
     "referenced_type" : "_ZTIPKN7android8hardware14neuralnetworks5utils15ResilientBufferE"
    },
    {
     "referenced_type" : "_ZTIRKNSt3__110shared_ptrIKN7android2nn6MemoryEEE"
    },
    {
     "referenced_type" : "_ZTIRKNSt3__16vectorIjNS_9allocatorIjEEEE"
    }
   ],
   "return_type" : "_ZTIN7android4base8expectedIvNS_2nn12GeneralErrorEEE",
   "source_file" : "hardware/interfaces/neuralnetworks/utils/common/include/nnapi/hal/ResilientBuffer.h"
  },
  {
   "function_name" : "android::hardware::neuralnetworks::utils::ResilientBuffer::getToken",
   "linker_set_key" : "_ZNK7android8hardware14neuralnetworks5utils15ResilientBuffer8getTokenEv",
   "parameters" :
   [
    {
     "is_this_ptr" : true,
     "referenced_type" : "_ZTIPKN7android8hardware14neuralnetworks5utils15ResilientBufferE"
    }
   ],
   "return_type" : "_ZTIN7android2nn7Request17MemoryDomainTokenE",
   "source_file" : "hardware/interfaces/neuralnetworks/utils/common/include/nnapi/hal/ResilientBuffer.h"
  },
  {
   "function_name" : "android::hardware::neuralnetworks::utils::ResilientBuffer::getBuffer",
   "linker_set_key" : "_ZNK7android8hardware14neuralnetworks5utils15ResilientBuffer9getBufferEv",
   "parameters" :
   [
    {
     "is_this_ptr" : true,
     "referenced_type" : "_ZTIPKN7android8hardware14neuralnetworks5utils15ResilientBufferE"
    }
   ],
   "return_type" : "_ZTINSt3__110shared_ptrIKN7android2nn7IBufferEEE",
   "source_file" : "hardware/interfaces/neuralnetworks/utils/common/include/nnapi/hal/ResilientBuffer.h"
  }
 ],
 "global_vars" : [],
 "lvalue_reference_types" :
 [
  {
   "alignment" : 4,
   "linker_set_key" : "_ZTIRKNSt3__110shared_ptrIKN7android2nn6MemoryEEE",
   "name" : "const std::shared_ptr<const android::nn::Memory> &",
   "referenced_type" : "_ZTIKNSt3__110shared_ptrIKN7android2nn6MemoryEEE",
   "self_type" : "_ZTIRKNSt3__110shared_ptrIKN7android2nn6MemoryEEE",
   "size" : 4,
   "source_file" : "hardware/interfaces/neuralnetworks/utils/common/include/nnapi/hal/ResilientBuffer.h"
  },
  {
   "alignment" : 4,
   "linker_set_key" : "_ZTIRKNSt3__16vectorIjNS_9allocatorIjEEEE",
   "name" : "const std::vector<unsigned int, std::allocator<unsigned int>> &",
   "referenced_type" : "_ZTIKNSt3__16vectorIjNS_9allocatorIjEEEE",
   "self_type" : "_ZTIRKNSt3__16vectorIjNS_9allocatorIjEEEE",
   "size" : 4,
   "source_file" : "hardware/interfaces/neuralnetworks/utils/common/include/nnapi/hal/ResilientBuffer.h"
  }
 ],
 "pointer_types" :
 [
  {
   "alignment" : 4,
   "linker_set_key" : "_ZTIPKN7android2nn7IBufferE",
   "name" : "const android::nn::IBuffer *",
   "referenced_type" : "_ZTIKN7android2nn7IBufferE",
   "self_type" : "_ZTIPKN7android2nn7IBufferE",
   "size" : 4,
   "source_file" : "hardware/interfaces/neuralnetworks/utils/common/include/nnapi/hal/ResilientBuffer.h"
  },
  {
   "alignment" : 4,
   "linker_set_key" : "_ZTIPKN7android8hardware14neuralnetworks5utils15ResilientBufferE",
   "name" : "const android::hardware::neuralnetworks::utils::ResilientBuffer *",
   "referenced_type" : "_ZTIKN7android8hardware14neuralnetworks5utils15ResilientBufferE",
   "self_type" : "_ZTIPKN7android8hardware14neuralnetworks5utils15ResilientBufferE",
   "size" : 4,
   "source_file" : "hardware/interfaces/neuralnetworks/utils/common/include/nnapi/hal/ResilientBuffer.h"
  },
  {
   "alignment" : 4,
   "linker_set_key" : "_ZTIPN7android8hardware14neuralnetworks5utils15ResilientBufferE",
   "name" : "android::hardware::neuralnetworks::utils::ResilientBuffer *",
   "referenced_type" : "_ZTIN7android8hardware14neuralnetworks5utils15ResilientBufferE",
   "self_type" : "_ZTIPN7android8hardware14neuralnetworks5utils15ResilientBufferE",
   "size" : 4,
   "source_file" : "hardware/interfaces/neuralnetworks/utils/common/include/nnapi/hal/ResilientBuffer.h"
  }
 ],
 "qualified_types" :
 [
  {
   "alignment" : 4,
   "is_const" : true,
   "linker_set_key" : "_ZTIKN7android2nn7IBufferE",
   "name" : "const android::nn::IBuffer",
   "referenced_type" : "_ZTIN7android2nn7IBufferE",
   "self_type" : "_ZTIKN7android2nn7IBufferE",
   "size" : 4,
   "source_file" : "hardware/interfaces/neuralnetworks/utils/common/include/nnapi/hal/ResilientBuffer.h"
  },
  {
   "alignment" : 8,
   "is_const" : true,
   "linker_set_key" : "_ZTIKN7android8hardware14neuralnetworks5utils15ResilientBufferE",
   "name" : "const android::hardware::neuralnetworks::utils::ResilientBuffer",
   "referenced_type" : "_ZTIN7android8hardware14neuralnetworks5utils15ResilientBufferE",
   "self_type" : "_ZTIKN7android8hardware14neuralnetworks5utils15ResilientBufferE",
   "size" : 48,
   "source_file" : "hardware/interfaces/neuralnetworks/utils/common/include/nnapi/hal/ResilientBuffer.h"
  },
  {
   "alignment" : 4,
   "is_const" : true,
   "linker_set_key" : "_ZTIKNSt3__110shared_ptrIKN7android2nn6MemoryEEE",
   "name" : "const std::shared_ptr<const android::nn::Memory>",
   "referenced_type" : "_ZTINSt3__110shared_ptrIKN7android2nn6MemoryEEE",
   "self_type" : "_ZTIKNSt3__110shared_ptrIKN7android2nn6MemoryEEE",
   "size" : 8,
   "source_file" : "hardware/interfaces/neuralnetworks/utils/common/include/nnapi/hal/ResilientBuffer.h"
  },
  {
   "alignment" : 4,
   "is_const" : true,
   "linker_set_key" : "_ZTIKNSt3__16vectorIjNS_9allocatorIjEEEE",
   "name" : "const std::vector<unsigned int, std::allocator<unsigned int>>",
   "referenced_type" : "_ZTINSt3__16vectorIjNS_9allocatorIjEEEE",
   "self_type" : "_ZTIKNSt3__16vectorIjNS_9allocatorIjEEEE",
   "size" : 12,
   "source_file" : "hardware/interfaces/neuralnetworks/utils/common/include/nnapi/hal/ResilientBuffer.h"
  },
  {
   "alignment" : 8,
   "is_const" : true,
   "linker_set_key" : "_ZTIKNSt3__18functionIFN7android4base8expectedINS_10shared_ptrIKNS1_2nn7IBufferEEENS5_12GeneralErrorEEEvEEE",
   "name" : "const std::function<expected<shared_ptr<const IBuffer>, GeneralError> ()>",
   "referenced_type" : "_ZTINSt3__18functionIFN7android4base8expectedINS_10shared_ptrIKNS1_2nn7IBufferEEENS5_12GeneralErrorEEEvEEE",
   "self_type" : "_ZTIKNSt3__18functionIFN7android4base8expectedINS_10shared_ptrIKNS1_2nn7IBufferEEENS5_12GeneralErrorEEEvEEE",
   "size" : 24,
   "source_file" : "hardware/interfaces/neuralnetworks/utils/common/include/nnapi/hal/ResilientBuffer.h"
  }
 ],
 "record_types" :
 [
  {
   "access" : "private",
   "alignment" : 1,
   "linker_set_key" : "_ZTIN7android8hardware14neuralnetworks5utils15ResilientBuffer21PrivateConstructorTagE",
   "name" : "android::hardware::neuralnetworks::utils::ResilientBuffer::PrivateConstructorTag",
   "referenced_type" : "_ZTIN7android8hardware14neuralnetworks5utils15ResilientBuffer21PrivateConstructorTagE",
   "self_type" : "_ZTIN7android8hardware14neuralnetworks5utils15ResilientBuffer21PrivateConstructorTagE",
   "size" : 1,
   "source_file" : "hardware/interfaces/neuralnetworks/utils/common/include/nnapi/hal/ResilientBuffer.h"
  },
  {
   "alignment" : 8,
   "base_specifiers" :
   [
    {
     "referenced_type" : "_ZTIN7android2nn7IBufferE"
    }
   ],
   "fields" :
   [
    {
     "access" : "private",
     "field_name" : "kMakeBuffer",
     "field_offset" : 64,
     "referenced_type" : "_ZTIKNSt3__18functionIFN7android4base8expectedINS_10shared_ptrIKNS1_2nn7IBufferEEENS5_12GeneralErrorEEEvEEE"
    },
    {
     "access" : "private",
     "field_name" : "mMutex",
     "field_offset" : 256,
     "referenced_type" : "_ZTINSt3__15mutexE"
    },
    {
     "access" : "private",
     "field_name" : "mBuffer",
     "field_offset" : 288,
     "referenced_type" : "_ZTINSt3__110shared_ptrIKN7android2nn7IBufferEEE"
    }
   ],
   "linker_set_key" : "_ZTIN7android8hardware14neuralnetworks5utils15ResilientBufferE",
   "name" : "android::hardware::neuralnetworks::utils::ResilientBuffer",
   "record_kind" : "class",
   "referenced_type" : "_ZTIN7android8hardware14neuralnetworks5utils15ResilientBufferE",
   "self_type" : "_ZTIN7android8hardware14neuralnetworks5utils15ResilientBufferE",
   "size" : 48,
   "source_file" : "hardware/interfaces/neuralnetworks/utils/common/include/nnapi/hal/ResilientBuffer.h",
   "vtable_components" :
   [
    {
     "kind" : "offset_to_top"
    },
    {
     "kind" : "rtti",
     "mangled_component_name" : "_ZTIN7android8hardware14neuralnetworks5utils15ResilientBufferE"
    },
    {
     "mangled_component_name" : "_ZNK7android8hardware14neuralnetworks5utils15ResilientBuffer8getTokenEv"
    },
    {
     "mangled_component_name" : "_ZNK7android8hardware14neuralnetworks5utils15ResilientBuffer6copyToERKNSt3__110shared_ptrIKNS_2nn6MemoryEEE"
    },
    {
     "mangled_component_name" : "_ZNK7android8hardware14neuralnetworks5utils15ResilientBuffer8copyFromERKNSt3__110shared_ptrIKNS_2nn6MemoryEEERKNS4_6vectorIjNS4_9allocatorIjEEEE"
    },
    {
     "kind" : "complete_dtor_pointer",
     "mangled_component_name" : "_ZN7android8hardware14neuralnetworks5utils15ResilientBufferD1Ev"
    },
    {
     "kind" : "deleting_dtor_pointer",
     "mangled_component_name" : "_ZN7android8hardware14neuralnetworks5utils15ResilientBufferD0Ev"
    }
   ]
  }
 ],
 "rvalue_reference_types" : []
}
