{
 "array_types" : [],
 "builtin_types" :
 [
  {
   "linker_set_key" : "_ZTIv",
   "name" : "void",
   "referenced_type" : "_ZTIv",
   "self_type" : "_ZTIv"
  }
 ],
 "elf_functions" : [],
 "elf_objects" : [],
 "enum_types" : [],
 "function_types" : [],
 "functions" :
 [
  {
   "function_name" : "aidl::android::hardware::neuralnetworks::utils::Buffer::create",
   "linker_set_key" : "_ZN4aidl7android8hardware14neuralnetworks5utils6Buffer6createENSt3__110shared_ptrINS2_7IBufferEEEN7android2nn7Request17MemoryDomainTokenE",
   "parameters" :
   [
    {
     "referenced_type" : "_ZTINSt3__110shared_ptrIN4aidl7android8hardware14neuralnetworks7IBufferEEE"
    },
    {
     "referenced_type" : "_ZTIN7android2nn7Request17MemoryDomainTokenE"
    }
   ],
   "return_type" : "_ZTIN7android4base8expectedINSt3__110shared_ptrIKN4aidl7android8hardware14neuralnetworks5utils6BufferEEENS_2nn12GeneralErrorEEE",
   "source_file" : "hardware/interfaces/neuralnetworks/aidl/utils/include/nnapi/hal/aidl/Buffer.h"
  },
  {
   "function_name" : "aidl::android::hardware::neuralnetworks::utils::Buffer::Buffer",
   "linker_set_key" : "_ZN4aidl7android8hardware14neuralnetworks5utils6BufferC1ENS4_21PrivateConstructorTagENSt3__110shared_ptrINS2_7IBufferEEEN7android2nn7Request17MemoryDomainTokenE",
   "parameters" :
   [
    {
     "is_this_ptr" : true,
     "referenced_type" : "_ZTIPN4aidl7android8hardware14neuralnetworks5utils6BufferE"
    },
    {
     "referenced_type" : "_ZTIN4aidl7android8hardware14neuralnetworks5utils6Buffer21PrivateConstructorTagE"
    },
    {
     "referenced_type" : "_ZTINSt3__110shared_ptrIN4aidl7android8hardware14neuralnetworks7IBufferEEE"
    },
    {
     "referenced_type" : "_ZTIN7android2nn7Request17MemoryDomainTokenE"
    }
   ],
   "return_type" : "_ZTIv",
   "source_file" : "hardware/interfaces/neuralnetworks/aidl/utils/include/nnapi/hal/aidl/Buffer.h"
  },
  {
   "function_name" : "aidl::android::hardware::neuralnetworks::utils::Buffer::Buffer",
   "linker_set_key" : "_ZN4aidl7android8hardware14neuralnetworks5utils6BufferC2ENS4_21PrivateConstructorTagENSt3__110shared_ptrINS2_7IBufferEEEN7android2nn7Request17MemoryDomainTokenE",
   "parameters" :
   [
    {
     "is_this_ptr" : true,
     "referenced_type" : "_ZTIPN4aidl7android8hardware14neuralnetworks5utils6BufferE"
    },
    {
     "referenced_type" : "_ZTIN4aidl7android8hardware14neuralnetworks5utils6Buffer21PrivateConstructorTagE"
    },
    {
     "referenced_type" : "_ZTINSt3__110shared_ptrIN4aidl7android8hardware14neuralnetworks7IBufferEEE"
    },
    {
     "referenced_type" : "_ZTIN7android2nn7Request17MemoryDomainTokenE"
    }
   ],
   "return_type" : "_ZTIv",
   "source_file" : "hardware/interfaces/neuralnetworks/aidl/utils/include/nnapi/hal/aidl/Buffer.h"
  },
  {
   "function_name" : "aidl::android::hardware::neuralnetworks::utils::Buffer::copyTo",
   "linker_set_key" : "_ZNK4aidl7android8hardware14neuralnetworks5utils6Buffer6copyToERKNSt3__110shared_ptrIKN7android2nn6MemoryEEE",
   "parameters" :
   [
    {
     "is_this_ptr" : true,
     "referenced_type" : "_ZTIPKN4aidl7android8hardware14neuralnetworks5utils6BufferE"
    },
    {
     "referenced_type" : "_ZTIRKNSt3__110shared_ptrIKN7android2nn6MemoryEEE"
    }
   ],
   "return_type" : "_ZTIN7android4base8expectedIvNS_2nn12GeneralErrorEEE",
   "source_file" : "hardware/interfaces/neuralnetworks/aidl/utils/include/nnapi/hal/aidl/Buffer.h"
  },
  {
   "function_name" : "aidl::android::hardware::neuralnetworks::utils::Buffer::copyFrom",
   "linker_set_key" : "_ZNK4aidl7android8hardware14neuralnetworks5utils6Buffer8copyFromERKNSt3__110shared_ptrIKN7android2nn6MemoryEEERKNS5_6vectorIjNS5_9allocatorIjEEEE",
   "parameters" :
   [
    {
     "is_this_ptr" : true,
     "referenced_type" : "_ZTIPKN4aidl7android8hardware14neuralnetworks5utils6BufferE"
    },
    {
     "referenced_type" : "_ZTIRKNSt3__110shared_ptrIKN7android2nn6MemoryEEE"
    },
    {
     "referenced_type" : "_ZTIRKNSt3__16vectorIjNS_9allocatorIjEEEE"
    }
   ],
   "return_type" : "_ZTIN7android4base8expectedIvNS_2nn12GeneralErrorEEE",
   "source_file" : "hardware/interfaces/neuralnetworks/aidl/utils/include/nnapi/hal/aidl/Buffer.h"
  },
  {
   "function_name" : "aidl::android::hardware::neuralnetworks::utils::Buffer::getToken",
   "linker_set_key" : "_ZNK4aidl7android8hardware14neuralnetworks5utils6Buffer8getTokenEv",
   "parameters" :
   [
    {
     "is_this_ptr" : true,
     "referenced_type" : "_ZTIPKN4aidl7android8hardware14neuralnetworks5utils6BufferE"
    }
   ],
   "return_type" : "_ZTIN7android2nn7Request17MemoryDomainTokenE",
   "source_file" : "hardware/interfaces/neuralnetworks/aidl/utils/include/nnapi/hal/aidl/Buffer.h"
  }
 ],
 "global_vars" :
 [
  {
   "linker_set_key" : "_ZN4aidl7android8hardware14neuralnetworks5utilsL16kDefaultPriorityE",
   "name" : "aidl::android::hardware::neuralnetworks::utils::kDefaultPriority",
   "referenced_type" : "_ZTIKN4aidl7android8hardware14neuralnetworks8PriorityE",
   "source_file" : "hardware/interfaces/neuralnetworks/aidl/utils/include/nnapi/hal/aidl/Utils.h"
  },
  {
   "linker_set_key" : "_ZN4aidl7android8hardware14neuralnetworks5utilsL8kVersionE",
   "name" : "aidl::android::hardware::neuralnetworks::utils::kVersion",
   "referenced_type" : "_ZTIKN7android2nn7VersionE",
   "source_file" : "hardware/interfaces/neuralnetworks/aidl/utils/include/nnapi/hal/aidl/Utils.h"
  }
 ],
 "lvalue_reference_types" :
 [
  {
   "alignment" : 4,
   "linker_set_key" : "_ZTIRKNSt3__110shared_ptrIKN7android2nn6MemoryEEE",
   "name" : "const std::shared_ptr<const android::nn::Memory> &",
   "referenced_type" : "_ZTIKNSt3__110shared_ptrIKN7android2nn6MemoryEEE",
   "self_type" : "_ZTIRKNSt3__110shared_ptrIKN7android2nn6MemoryEEE",
   "size" : 4,
   "source_file" : "hardware/interfaces/neuralnetworks/aidl/utils/include/nnapi/hal/aidl/Buffer.h"
  },
  {
   "alignment" : 4,
   "linker_set_key" : "_ZTIRKNSt3__16vectorIjNS_9allocatorIjEEEE",
   "name" : "const std::vector<unsigned int, std::allocator<unsigned int>> &",
   "referenced_type" : "_ZTIKNSt3__16vectorIjNS_9allocatorIjEEEE",
   "self_type" : "_ZTIRKNSt3__16vectorIjNS_9allocatorIjEEEE",
   "size" : 4,
   "source_file" : "hardware/interfaces/neuralnetworks/aidl/utils/include/nnapi/hal/aidl/Buffer.h"
  }
 ],
 "pointer_types" :
 [
  {
   "alignment" : 4,
   "linker_set_key" : "_ZTIPKN4aidl7android8hardware14neuralnetworks5utils6BufferE",
   "name" : "const aidl::android::hardware::neuralnetworks::utils::Buffer *",
   "referenced_type" : "_ZTIKN4aidl7android8hardware14neuralnetworks5utils6BufferE",
   "self_type" : "_ZTIPKN4aidl7android8hardware14neuralnetworks5utils6BufferE",
   "size" : 4,
   "source_file" : "hardware/interfaces/neuralnetworks/aidl/utils/include/nnapi/hal/aidl/Buffer.h"
  },
  {
   "alignment" : 4,
   "linker_set_key" : "_ZTIPN4aidl7android8hardware14neuralnetworks5utils6BufferE",
   "name" : "aidl::android::hardware::neuralnetworks::utils::Buffer *",
   "referenced_type" : "_ZTIN4aidl7android8hardware14neuralnetworks5utils6BufferE",
   "self_type" : "_ZTIPN4aidl7android8hardware14neuralnetworks5utils6BufferE",
   "size" : 4,
   "source_file" : "hardware/interfaces/neuralnetworks/aidl/utils/include/nnapi/hal/aidl/Buffer.h"
  }
 ],
 "qualified_types" :
 [
  {
   "alignment" : 4,
   "is_const" : true,
   "linker_set_key" : "_ZTIKN4aidl7android8hardware14neuralnetworks5utils6BufferE",
   "name" : "const aidl::android::hardware::neuralnetworks::utils::Buffer",
   "referenced_type" : "_ZTIN4aidl7android8hardware14neuralnetworks5utils6BufferE",
   "self_type" : "_ZTIKN4aidl7android8hardware14neuralnetworks5utils6BufferE",
   "size" : 16,
   "source_file" : "hardware/interfaces/neuralnetworks/aidl/utils/include/nnapi/hal/aidl/Buffer.h"
  },
  {
   "alignment" : 4,
   "is_const" : true,
   "linker_set_key" : "_ZTIKN4aidl7android8hardware14neuralnetworks8PriorityE",
   "name" : "const aidl::android::hardware::neuralnetworks::Priority",
   "referenced_type" : "_ZTIN4aidl7android8hardware14neuralnetworks8PriorityE",
   "self_type" : "_ZTIKN4aidl7android8hardware14neuralnetworks8PriorityE",
   "size" : 4,
   "source_file" : "hardware/interfaces/neuralnetworks/aidl/utils/include/nnapi/hal/aidl/Utils.h"
  },
  {
   "alignment" : 4,
   "is_const" : true,
   "linker_set_key" : "_ZTIKN7android2nn7Request17MemoryDomainTokenE",
   "name" : "const android::nn::Request::MemoryDomainToken",
   "referenced_type" : "_ZTIN7android2nn7Request17MemoryDomainTokenE",
   "self_type" : "_ZTIKN7android2nn7Request17MemoryDomainTokenE",
   "size" : 4,
   "source_file" : "hardware/interfaces/neuralnetworks/aidl/utils/include/nnapi/hal/aidl/Buffer.h"
  },
  {
   "alignment" : 4,
   "is_const" : true,
   "linker_set_key" : "_ZTIKN7android2nn7VersionE",
   "name" : "const android::nn::Version",
   "referenced_type" : "_ZTIN7android2nn7VersionE",
   "self_type" : "_ZTIKN7android2nn7VersionE",
   "size" : 4,
   "source_file" : "hardware/interfaces/neuralnetworks/aidl/utils/include/nnapi/hal/aidl/Utils.h"
  },
  {
   "alignment" : 4,
   "is_const" : true,
   "linker_set_key" : "_ZTIKNSt3__110shared_ptrIKN7android2nn6MemoryEEE",
   "name" : "const std::shared_ptr<const android::nn::Memory>",
   "referenced_type" : "_ZTINSt3__110shared_ptrIKN7android2nn6MemoryEEE",
   "self_type" : "_ZTIKNSt3__110shared_ptrIKN7android2nn6MemoryEEE",
   "size" : 8,
   "source_file" : "hardware/interfaces/neuralnetworks/aidl/utils/include/nnapi/hal/aidl/Buffer.h"
  },
  {
   "alignment" : 4,
   "is_const" : true,
   "linker_set_key" : "_ZTIKNSt3__110shared_ptrIN4aidl7android8hardware14neuralnetworks7IBufferEEE",
   "name" : "const std::shared_ptr<aidl::android::hardware::neuralnetworks::IBuffer>",
   "referenced_type" : "_ZTINSt3__110shared_ptrIN4aidl7android8hardware14neuralnetworks7IBufferEEE",
   "self_type" : "_ZTIKNSt3__110shared_ptrIN4aidl7android8hardware14neuralnetworks7IBufferEEE",
   "size" : 8,
   "source_file" : "hardware/interfaces/neuralnetworks/aidl/utils/include/nnapi/hal/aidl/Buffer.h"
  },
  {
   "alignment" : 4,
   "is_const" : true,
   "linker_set_key" : "_ZTIKNSt3__16vectorIjNS_9allocatorIjEEEE",
   "name" : "const std::vector<unsigned int, std::allocator<unsigned int>>",
   "referenced_type" : "_ZTINSt3__16vectorIjNS_9allocatorIjEEEE",
   "self_type" : "_ZTIKNSt3__16vectorIjNS_9allocatorIjEEEE",
   "size" : 12,
   "source_file" : "hardware/interfaces/neuralnetworks/aidl/utils/include/nnapi/hal/aidl/Buffer.h"
  }
 ],
 "record_types" :
 [
  {
   "access" : "private",
   "alignment" : 1,
   "linker_set_key" : "_ZTIN4aidl7android8hardware14neuralnetworks5utils6Buffer21PrivateConstructorTagE",
   "name" : "aidl::android::hardware::neuralnetworks::utils::Buffer::PrivateConstructorTag",
   "referenced_type" : "_ZTIN4aidl7android8hardware14neuralnetworks5utils6Buffer21PrivateConstructorTagE",
   "self_type" : "_ZTIN4aidl7android8hardware14neuralnetworks5utils6Buffer21PrivateConstructorTagE",
   "size" : 1,
   "source_file" : "hardware/interfaces/neuralnetworks/aidl/utils/include/nnapi/hal/aidl/Buffer.h"
  },
  {
   "alignment" : 4,
   "base_specifiers" :
   [
    {
     "referenced_type" : "_ZTIN7android2nn7IBufferE"
    }
   ],
   "fields" :
   [
    {
     "access" : "private",
     "field_name" : "kBuffer",
     "field_offset" : 32,
     "referenced_type" : "_ZTIKNSt3__110shared_ptrIN4aidl7android8hardware14neuralnetworks7IBufferEEE"
    },
    {
     "access" : "private",
     "field_name" : "kToken",
     "field_offset" : 96,
     "referenced_type" : "_ZTIKN7android2nn7Request17MemoryDomainTokenE"
    }
   ],
   "linker_set_key" : "_ZTIN4aidl7android8hardware14neuralnetworks5utils6BufferE",
   "name" : "aidl::android::hardware::neuralnetworks::utils::Buffer",
   "record_kind" : "class",
   "referenced_type" : "_ZTIN4aidl7android8hardware14neuralnetworks5utils6BufferE",
   "self_type" : "_ZTIN4aidl7android8hardware14neuralnetworks5utils6BufferE",
   "size" : 16,
   "source_file" : "hardware/interfaces/neuralnetworks/aidl/utils/include/nnapi/hal/aidl/Buffer.h",
   "vtable_components" :
   [
    {
     "kind" : "offset_to_top"
    },
    {
     "kind" : "rtti",
     "mangled_component_name" : "_ZTIN4aidl7android8hardware14neuralnetworks5utils6BufferE"
    },
    {
     "mangled_component_name" : "_ZNK4aidl7android8hardware14neuralnetworks5utils6Buffer8getTokenEv"
    },
    {
     "mangled_component_name" : "_ZNK4aidl7android8hardware14neuralnetworks5utils6Buffer6copyToERKNSt3__110shared_ptrIKN7android2nn6MemoryEEE"
    },
    {
     "mangled_component_name" : "_ZNK4aidl7android8hardware14neuralnetworks5utils6Buffer8copyFromERKNSt3__110shared_ptrIKN7android2nn6MemoryEEERKNS5_6vectorIjNS5_9allocatorIjEEEE"
    },
    {
     "kind" : "complete_dtor_pointer",
     "mangled_component_name" : "_ZN4aidl7android8hardware14neuralnetworks5utils6BufferD1Ev"
    },
    {
     "kind" : "deleting_dtor_pointer",
     "mangled_component_name" : "_ZN4aidl7android8hardware14neuralnetworks5utils6BufferD0Ev"
    }
   ]
  }
 ],
 "rvalue_reference_types" : []
}
