{
 "array_types" : [],
 "builtin_types" :
 [
  {
   "linker_set_key" : "_ZTIv",
   "name" : "void",
   "referenced_type" : "_ZTIv",
   "self_type" : "_ZTIv"
  }
 ],
 "elf_functions" : [],
 "elf_objects" : [],
 "enum_types" : [],
 "function_types" : [],
 "functions" :
 [
  {
   "function_name" : "aidl::android::hardware::neuralnetworks::utils::DeathHandler::DeathHandler",
   "linker_set_key" : "_ZN4aidl7android8hardware14neuralnetworks5utils12DeathHandlerC1EOS4_",
   "parameters" :
   [
    {
     "is_this_ptr" : true,
     "referenced_type" : "_ZTIPN4aidl7android8hardware14neuralnetworks5utils12DeathHandlerE"
    },
    {
     "referenced_type" : "_ZTION4aidl7android8hardware14neuralnetworks5utils12DeathHandlerE"
    }
   ],
   "return_type" : "_ZTIv",
   "source_file" : "hardware/interfaces/neuralnetworks/aidl/utils/include/nnapi/hal/aidl/ProtectCallback.h"
  },
  {
   "function_name" : "aidl::android::hardware::neuralnetworks::utils::DeathHandler::DeathHandler",
   "linker_set_key" : "_ZN4aidl7android8hardware14neuralnetworks5utils12DeathHandlerC2EOS4_",
   "parameters" :
   [
    {
     "is_this_ptr" : true,
     "referenced_type" : "_ZTIPN4aidl7android8hardware14neuralnetworks5utils12DeathHandlerE"
    },
    {
     "referenced_type" : "_ZTION4aidl7android8hardware14neuralnetworks5utils12DeathHandlerE"
    }
   ],
   "return_type" : "_ZTIv",
   "source_file" : "hardware/interfaces/neuralnetworks/aidl/utils/include/nnapi/hal/aidl/ProtectCallback.h"
  },
  {
   "function_name" : "aidl::android::hardware::neuralnetworks::utils::PreparedModelCallback::notifyAsDeadObject",
   "linker_set_key" : "_ZN4aidl7android8hardware14neuralnetworks5utils21PreparedModelCallback18notifyAsDeadObjectEv",
   "parameters" :
   [
    {
     "is_this_ptr" : true,
     "referenced_type" : "_ZTIPN4aidl7android8hardware14neuralnetworks5utils21PreparedModelCallbackE"
    }
   ],
   "return_type" : "_ZTIv",
   "source_file" : "hardware/interfaces/neuralnetworks/aidl/utils/include/nnapi/hal/aidl/Callbacks.h"
  },
  {
   "function_name" : "aidl::android::hardware::neuralnetworks::utils::PreparedModelCallback::get",
   "linker_set_key" : "_ZN4aidl7android8hardware14neuralnetworks5utils21PreparedModelCallback3getEv",
   "parameters" :
   [
    {
     "is_this_ptr" : true,
     "referenced_type" : "_ZTIPN4aidl7android8hardware14neuralnetworks5utils21PreparedModelCallbackE"
    }
   ],
   "return_type" : "_ZTIN7android4base8expectedINSt3__110shared_ptrIKNS_2nn14IPreparedModelEEENS4_12GeneralErrorEEE",
   "source_file" : "hardware/interfaces/neuralnetworks/aidl/utils/include/nnapi/hal/aidl/Callbacks.h"
  },
  {
   "function_name" : "aidl::android::hardware::neuralnetworks::utils::PreparedModelCallback::notify",
   "linker_set_key" : "_ZN4aidl7android8hardware14neuralnetworks5utils21PreparedModelCallback6notifyENS2_11ErrorStatusERKNSt3__110shared_ptrINS2_14IPreparedModelEEE",
   "parameters" :
   [
    {
     "is_this_ptr" : true,
     "referenced_type" : "_ZTIPN4aidl7android8hardware14neuralnetworks5utils21PreparedModelCallbackE"
    },
    {
     "referenced_type" : "_ZTIN4aidl7android8hardware14neuralnetworks11ErrorStatusE"
    },
    {
     "referenced_type" : "_ZTIRKNSt3__110shared_ptrIN4aidl7android8hardware14neuralnetworks14IPreparedModelEEE"
    }
   ],
   "return_type" : "_ZTIN3ndk13ScopedAStatusE",
   "source_file" : "hardware/interfaces/neuralnetworks/aidl/utils/include/nnapi/hal/aidl/Callbacks.h"
  },
  {
   "function_name" : "aidl::android::hardware::neuralnetworks::utils::DeathHandler::getDeathMonitor",
   "linker_set_key" : "_ZNK4aidl7android8hardware14neuralnetworks5utils12DeathHandler15getDeathMonitorEv",
   "parameters" :
   [
    {
     "is_this_ptr" : true,
     "referenced_type" : "_ZTIPKN4aidl7android8hardware14neuralnetworks5utils12DeathHandlerE"
    }
   ],
   "return_type" : "_ZTINSt3__110shared_ptrIN4aidl7android8hardware14neuralnetworks5utils12DeathMonitorEEE",
   "source_file" : "hardware/interfaces/neuralnetworks/aidl/utils/include/nnapi/hal/aidl/ProtectCallback.h"
  },
  {
   "function_name" : "aidl::android::hardware::neuralnetworks::utils::PreparedModelCallback::notifyAsDeadObject",
   "linker_set_key" : "_ZThn24_N4aidl7android8hardware14neuralnetworks5utils21PreparedModelCallback18notifyAsDeadObjectEv",
   "parameters" :
   [
    {
     "is_this_ptr" : true,
     "referenced_type" : "_ZTIPN4aidl7android8hardware14neuralnetworks5utils21PreparedModelCallbackE"
    }
   ],
   "return_type" : "_ZTIv",
   "source_file" : "hardware/interfaces/neuralnetworks/aidl/utils/include/nnapi/hal/aidl/Callbacks.h"
  }
 ],
 "global_vars" :
 [
  {
   "linker_set_key" : "_ZN4aidl7android8hardware14neuralnetworks5utilsL16kDefaultPriorityE",
   "name" : "aidl::android::hardware::neuralnetworks::utils::kDefaultPriority",
   "referenced_type" : "_ZTIKN4aidl7android8hardware14neuralnetworks8PriorityE",
   "source_file" : "hardware/interfaces/neuralnetworks/aidl/utils/include/nnapi/hal/aidl/Utils.h"
  },
  {
   "linker_set_key" : "_ZN4aidl7android8hardware14neuralnetworks5utilsL8kVersionE",
   "name" : "aidl::android::hardware::neuralnetworks::utils::kVersion",
   "referenced_type" : "_ZTIKN7android2nn7VersionE",
   "source_file" : "hardware/interfaces/neuralnetworks/aidl/utils/include/nnapi/hal/aidl/Utils.h"
  }
 ],
 "lvalue_reference_types" :
 [
  {
   "alignment" : 4,
   "linker_set_key" : "_ZTIRKNSt3__110shared_ptrIN4aidl7android8hardware14neuralnetworks14IPreparedModelEEE",
   "name" : "const std::shared_ptr<aidl::android::hardware::neuralnetworks::IPreparedModel> &",
   "referenced_type" : "_ZTIKNSt3__110shared_ptrIN4aidl7android8hardware14neuralnetworks14IPreparedModelEEE",
   "self_type" : "_ZTIRKNSt3__110shared_ptrIN4aidl7android8hardware14neuralnetworks14IPreparedModelEEE",
   "size" : 4,
   "source_file" : "hardware/interfaces/neuralnetworks/aidl/utils/include/nnapi/hal/aidl/Callbacks.h"
  }
 ],
 "pointer_types" :
 [
  {
   "alignment" : 4,
   "linker_set_key" : "_ZTIPKN4aidl7android8hardware14neuralnetworks5utils12DeathHandlerE",
   "name" : "const aidl::android::hardware::neuralnetworks::utils::DeathHandler *",
   "referenced_type" : "_ZTIKN4aidl7android8hardware14neuralnetworks5utils12DeathHandlerE",
   "self_type" : "_ZTIPKN4aidl7android8hardware14neuralnetworks5utils12DeathHandlerE",
   "size" : 4,
   "source_file" : "hardware/interfaces/neuralnetworks/aidl/utils/include/nnapi/hal/aidl/ProtectCallback.h"
  },
  {
   "alignment" : 4,
   "linker_set_key" : "_ZTIPN4aidl7android8hardware14neuralnetworks5utils12DeathHandlerE",
   "name" : "aidl::android::hardware::neuralnetworks::utils::DeathHandler *",
   "referenced_type" : "_ZTIN4aidl7android8hardware14neuralnetworks5utils12DeathHandlerE",
   "self_type" : "_ZTIPN4aidl7android8hardware14neuralnetworks5utils12DeathHandlerE",
   "size" : 4,
   "source_file" : "hardware/interfaces/neuralnetworks/aidl/utils/include/nnapi/hal/aidl/ProtectCallback.h"
  },
  {
   "alignment" : 4,
   "linker_set_key" : "_ZTIPN4aidl7android8hardware14neuralnetworks5utils21PreparedModelCallbackE",
   "name" : "aidl::android::hardware::neuralnetworks::utils::PreparedModelCallback *",
   "referenced_type" : "_ZTIN4aidl7android8hardware14neuralnetworks5utils21PreparedModelCallbackE",
   "self_type" : "_ZTIPN4aidl7android8hardware14neuralnetworks5utils21PreparedModelCallbackE",
   "size" : 4,
   "source_file" : "hardware/interfaces/neuralnetworks/aidl/utils/include/nnapi/hal/aidl/Callbacks.h"
  }
 ],
 "qualified_types" :
 [
  {
   "alignment" : 4,
   "is_const" : true,
   "linker_set_key" : "_ZTIKN4aidl7android8hardware14neuralnetworks5utils12DeathHandlerE",
   "name" : "const aidl::android::hardware::neuralnetworks::utils::DeathHandler",
   "referenced_type" : "_ZTIN4aidl7android8hardware14neuralnetworks5utils12DeathHandlerE",
   "self_type" : "_ZTIKN4aidl7android8hardware14neuralnetworks5utils12DeathHandlerE",
   "size" : 20,
   "source_file" : "hardware/interfaces/neuralnetworks/aidl/utils/include/nnapi/hal/aidl/ProtectCallback.h"
  },
  {
   "alignment" : 4,
   "is_const" : true,
   "linker_set_key" : "_ZTIKN4aidl7android8hardware14neuralnetworks8PriorityE",
   "name" : "const aidl::android::hardware::neuralnetworks::Priority",
   "referenced_type" : "_ZTIN4aidl7android8hardware14neuralnetworks8PriorityE",
   "self_type" : "_ZTIKN4aidl7android8hardware14neuralnetworks8PriorityE",
   "size" : 4,
   "source_file" : "hardware/interfaces/neuralnetworks/aidl/utils/include/nnapi/hal/aidl/Utils.h"
  },
  {
   "alignment" : 4,
   "is_const" : true,
   "linker_set_key" : "_ZTIKN7android2nn7VersionE",
   "name" : "const android::nn::Version",
   "referenced_type" : "_ZTIN7android2nn7VersionE",
   "self_type" : "_ZTIKN7android2nn7VersionE",
   "size" : 4,
   "source_file" : "hardware/interfaces/neuralnetworks/aidl/utils/include/nnapi/hal/aidl/Utils.h"
  },
  {
   "alignment" : 4,
   "is_const" : true,
   "linker_set_key" : "_ZTIKNSt3__110shared_ptrIN4aidl7android8hardware14neuralnetworks14IPreparedModelEEE",
   "name" : "const std::shared_ptr<aidl::android::hardware::neuralnetworks::IPreparedModel>",
   "referenced_type" : "_ZTINSt3__110shared_ptrIN4aidl7android8hardware14neuralnetworks14IPreparedModelEEE",
   "self_type" : "_ZTIKNSt3__110shared_ptrIN4aidl7android8hardware14neuralnetworks14IPreparedModelEEE",
   "size" : 8,
   "source_file" : "hardware/interfaces/neuralnetworks/aidl/utils/include/nnapi/hal/aidl/Callbacks.h"
  }
 ],
 "record_types" :
 [
  {
   "alignment" : 4,
   "fields" :
   [
    {
     "access" : "private",
     "field_name" : "kObject",
     "referenced_type" : "_ZTINSt3__110shared_ptrIN3ndk11ICInterfaceEEE"
    },
    {
     "access" : "private",
     "field_name" : "kDeathRecipient",
     "field_offset" : 64,
     "referenced_type" : "_ZTIN3ndk29ScopedAIBinder_DeathRecipientE"
    },
    {
     "access" : "private",
     "field_name" : "kDeathMonitor",
     "field_offset" : 96,
     "referenced_type" : "_ZTINSt3__110shared_ptrIN4aidl7android8hardware14neuralnetworks5utils12DeathMonitorEEE"
    }
   ],
   "linker_set_key" : "_ZTIN4aidl7android8hardware14neuralnetworks5utils12DeathHandlerE",
   "name" : "aidl::android::hardware::neuralnetworks::utils::DeathHandler",
   "record_kind" : "class",
   "referenced_type" : "_ZTIN4aidl7android8hardware14neuralnetworks5utils12DeathHandlerE",
   "self_type" : "_ZTIN4aidl7android8hardware14neuralnetworks5utils12DeathHandlerE",
   "size" : 20,
   "source_file" : "hardware/interfaces/neuralnetworks/aidl/utils/include/nnapi/hal/aidl/ProtectCallback.h"
  },
  {
   "alignment" : 4,
   "fields" :
   [
    {
     "access" : "private",
     "field_name" : "mMutex",
     "referenced_type" : "_ZTINSt3__15mutexE"
    },
    {
     "access" : "private",
     "field_name" : "mObjects",
     "field_offset" : 32,
     "referenced_type" : "_ZTINSt3__16vectorIPN7android8hardware14neuralnetworks5utils18IProtectedCallbackENS_9allocatorIS6_EEEE"
    }
   ],
   "linker_set_key" : "_ZTIN4aidl7android8hardware14neuralnetworks5utils12DeathMonitorE",
   "name" : "aidl::android::hardware::neuralnetworks::utils::DeathMonitor",
   "record_kind" : "class",
   "referenced_type" : "_ZTIN4aidl7android8hardware14neuralnetworks5utils12DeathMonitorE",
   "self_type" : "_ZTIN4aidl7android8hardware14neuralnetworks5utils12DeathMonitorE",
   "size" : 16,
   "source_file" : "hardware/interfaces/neuralnetworks/aidl/utils/include/nnapi/hal/aidl/ProtectCallback.h"
  },
  {
   "access" : "private",
   "alignment" : 1,
   "linker_set_key" : "_ZTIN4aidl7android8hardware14neuralnetworks5utils13PreparedModel21PrivateConstructorTagE",
   "name" : "aidl::android::hardware::neuralnetworks::utils::PreparedModel::PrivateConstructorTag",
   "referenced_type" : "_ZTIN4aidl7android8hardware14neuralnetworks5utils13PreparedModel21PrivateConstructorTagE",
   "self_type" : "_ZTIN4aidl7android8hardware14neuralnetworks5utils13PreparedModel21PrivateConstructorTagE",
   "size" : 1,
   "source_file" : "hardware/interfaces/neuralnetworks/aidl/utils/include/nnapi/hal/aidl/PreparedModel.h"
  },
  {
   "alignment" : 4,
   "base_specifiers" :
   [
    {
     "referenced_type" : "_ZTIN7android2nn14IPreparedModelE"
    },
    {
     "referenced_type" : "_ZTINSt3__123enable_shared_from_thisIN4aidl7android8hardware14neuralnetworks5utils13PreparedModelEEE"
    }
   ],
   "fields" :
   [
    {
     "access" : "private",
     "field_name" : "kPreparedModel",
     "field_offset" : 96,
     "referenced_type" : "_ZTIKNSt3__110shared_ptrIN4aidl7android8hardware14neuralnetworks14IPreparedModelEEE"
    }
   ],
   "linker_set_key" : "_ZTIN4aidl7android8hardware14neuralnetworks5utils13PreparedModelE",
   "name" : "aidl::android::hardware::neuralnetworks::utils::PreparedModel",
   "record_kind" : "class",
   "referenced_type" : "_ZTIN4aidl7android8hardware14neuralnetworks5utils13PreparedModelE",
   "self_type" : "_ZTIN4aidl7android8hardware14neuralnetworks5utils13PreparedModelE",
   "size" : 20,
   "source_file" : "hardware/interfaces/neuralnetworks/aidl/utils/include/nnapi/hal/aidl/PreparedModel.h",
   "vtable_components" :
   [
    {
     "kind" : "offset_to_top"
    },
    {
     "kind" : "rtti",
     "mangled_component_name" : "_ZTIN4aidl7android8hardware14neuralnetworks5utils13PreparedModelE"
    },
    {
     "mangled_component_name" : "_ZNK4aidl7android8hardware14neuralnetworks5utils13PreparedModel7executeERKN7android2nn7RequestENS6_13MeasureTimingERKNSt3__18optionalINSB_6chrono10time_pointINS5_4base10boot_clockENSD_8durationIxNSB_5ratioILx1ELx1000000000EEEEEEEEERKNSC_ISK_EE"
    },
    {
     "mangled_component_name" : "_ZNK4aidl7android8hardware14neuralnetworks5utils13PreparedModel13executeFencedERKN7android2nn7RequestERKNSt3__16vectorINS6_9SyncFenceENSA_9allocatorISC_EEEENS6_13MeasureTimingERKNSA_8optionalINSA_6chrono10time_pointINS5_4base10boot_clockENSK_8durationIxNSA_5ratioILx1ELx1000000000EEEEEEEEERKNSJ_ISR_EESY_"
    },
    {
     "mangled_component_name" : "_ZNK4aidl7android8hardware14neuralnetworks5utils13PreparedModel23createReusableExecutionERKN7android2nn7RequestENS6_13MeasureTimingERKNSt3__18optionalINSB_6chrono8durationIxNSB_5ratioILx1ELx1000000000EEEEEEE"
    },
    {
     "mangled_component_name" : "_ZNK4aidl7android8hardware14neuralnetworks5utils13PreparedModel23configureExecutionBurstEv"
    },
    {
     "mangled_component_name" : "_ZNK4aidl7android8hardware14neuralnetworks5utils13PreparedModel21getUnderlyingResourceEv"
    },
    {
     "kind" : "complete_dtor_pointer",
     "mangled_component_name" : "_ZN4aidl7android8hardware14neuralnetworks5utils13PreparedModelD1Ev"
    },
    {
     "kind" : "deleting_dtor_pointer",
     "mangled_component_name" : "_ZN4aidl7android8hardware14neuralnetworks5utils13PreparedModelD0Ev"
    }
   ]
  },
  {
   "alignment" : 4,
   "base_specifiers" :
   [
    {
     "referenced_type" : "_ZTIN4aidl7android8hardware14neuralnetworks23BnPreparedModelCallbackE"
    },
    {
     "referenced_type" : "_ZTIN7android8hardware14neuralnetworks5utils18IProtectedCallbackE"
    }
   ],
   "fields" :
   [
    {
     "access" : "private",
     "field_name" : "mData",
     "field_offset" : 224,
     "referenced_type" : "_ZTIN7android8hardware14neuralnetworks5utils13TransferValueINS_4base8expectedINSt3__110shared_ptrIKNS_2nn14IPreparedModelEEENS8_12GeneralErrorEEEEE"
    }
   ],
   "linker_set_key" : "_ZTIN4aidl7android8hardware14neuralnetworks5utils21PreparedModelCallbackE",
   "name" : "aidl::android::hardware::neuralnetworks::utils::PreparedModelCallback",
   "record_kind" : "class",
   "referenced_type" : "_ZTIN4aidl7android8hardware14neuralnetworks5utils21PreparedModelCallbackE",
   "self_type" : "_ZTIN4aidl7android8hardware14neuralnetworks5utils21PreparedModelCallbackE",
   "size" : 60,
   "source_file" : "hardware/interfaces/neuralnetworks/aidl/utils/include/nnapi/hal/aidl/Callbacks.h",
   "vtable_components" :
   [
    {
     "kind" : "offset_to_top"
    },
    {
     "kind" : "rtti",
     "mangled_component_name" : "_ZTIN4aidl7android8hardware14neuralnetworks5utils21PreparedModelCallbackE"
    },
    {
     "kind" : "complete_dtor_pointer",
     "mangled_component_name" : "_ZN4aidl7android8hardware14neuralnetworks5utils21PreparedModelCallbackD1Ev"
    },
    {
     "kind" : "deleting_dtor_pointer",
     "mangled_component_name" : "_ZN4aidl7android8hardware14neuralnetworks5utils21PreparedModelCallbackD0Ev"
    },
    {
     "mangled_component_name" : "_ZN3ndk12BnCInterfaceIN4aidl7android8hardware14neuralnetworks22IPreparedModelCallbackEE8asBinderEv"
    },
    {
     "mangled_component_name" : "_ZN3ndk12BnCInterfaceIN4aidl7android8hardware14neuralnetworks22IPreparedModelCallbackEE8isRemoteEv"
    },
    {
     "mangled_component_name" : "_ZN3ndk11ICInterface4dumpEiPPKcj"
    },
    {
     "mangled_component_name" : "_ZN3ndk11ICInterface18handleShellCommandEiiiPPKcj"
    },
    {
     "mangled_component_name" : "_ZN4aidl7android8hardware14neuralnetworks5utils21PreparedModelCallback6notifyENS2_11ErrorStatusERKNSt3__110shared_ptrINS2_14IPreparedModelEEE"
    },
    {
     "mangled_component_name" : "_ZN4aidl7android8hardware14neuralnetworks23BnPreparedModelCallback19getInterfaceVersionEPi"
    },
    {
     "mangled_component_name" : "_ZN4aidl7android8hardware14neuralnetworks23BnPreparedModelCallback16getInterfaceHashEPNSt3__112basic_stringIcNS4_11char_traitsIcEENS4_9allocatorIcEEEE"
    },
    {
     "mangled_component_name" : "_ZN4aidl7android8hardware14neuralnetworks23BnPreparedModelCallback12createBinderEv"
    },
    {
     "mangled_component_name" : "_ZN4aidl7android8hardware14neuralnetworks5utils21PreparedModelCallback18notifyAsDeadObjectEv"
    },
    {
     "component_value" : -24,
     "kind" : "offset_to_top"
    },
    {
     "kind" : "rtti",
     "mangled_component_name" : "_ZTIN4aidl7android8hardware14neuralnetworks5utils21PreparedModelCallbackE"
    },
    {
     "mangled_component_name" : "_ZThn24_N4aidl7android8hardware14neuralnetworks5utils21PreparedModelCallback18notifyAsDeadObjectEv"
    },
    {
     "kind" : "complete_dtor_pointer",
     "mangled_component_name" : "_ZThn24_N4aidl7android8hardware14neuralnetworks5utils21PreparedModelCallbackD1Ev"
    },
    {
     "kind" : "deleting_dtor_pointer",
     "mangled_component_name" : "_ZThn24_N4aidl7android8hardware14neuralnetworks5utils21PreparedModelCallbackD0Ev"
    }
   ]
  }
 ],
 "rvalue_reference_types" :
 [
  {
   "alignment" : 4,
   "linker_set_key" : "_ZTION4aidl7android8hardware14neuralnetworks5utils12DeathHandlerE",
   "name" : "aidl::android::hardware::neuralnetworks::utils::DeathHandler &&",
   "referenced_type" : "_ZTIN4aidl7android8hardware14neuralnetworks5utils12DeathHandlerE",
   "self_type" : "_ZTION4aidl7android8hardware14neuralnetworks5utils12DeathHandlerE",
   "size" : 4,
   "source_file" : "hardware/interfaces/neuralnetworks/aidl/utils/include/nnapi/hal/aidl/ProtectCallback.h"
  }
 ]
}
