{
 "array_types" : [],
 "builtin_types" :
 [
  {
   "alignment" : 1,
   "is_integral" : true,
   "is_unsigned" : true,
   "linker_set_key" : "_ZTIb",
   "name" : "bool",
   "referenced_type" : "_ZTIb",
   "self_type" : "_ZTIb",
   "size" : 1
  }
 ],
 "elf_functions" : [],
 "elf_objects" : [],
 "enum_types" : [],
 "function_types" : [],
 "functions" :
 [
  {
   "function_name" : "aidl::android::hardware::neuralnetworks::utils::compliantVersion",
   "linker_set_key" : "_ZN4aidl7android8hardware14neuralnetworks5utils16compliantVersionIN7android2nn10BufferDescEEENS5_4base8expectedIvNS6_12GeneralErrorEEERKT_",
   "parameters" :
   [
    {
     "referenced_type" : "_ZTIRKN7android2nn10BufferDescE"
    }
   ],
   "return_type" : "_ZTIN7android4base8expectedIvNS_2nn12GeneralErrorEEE",
   "source_file" : "hardware/interfaces/neuralnetworks/aidl/utils/include/nnapi/hal/aidl/Utils.h",
   "template_args" : [ "_ZTIN7android2nn10BufferDescE" ]
  },
  {
   "function_name" : "aidl::android::hardware::neuralnetworks::utils::compliantVersion",
   "linker_set_key" : "_ZN4aidl7android8hardware14neuralnetworks5utils16compliantVersionIN7android2nn10BufferRoleEEENS5_4base8expectedIvNS6_12GeneralErrorEEERKT_",
   "parameters" :
   [
    {
     "referenced_type" : "_ZTIRKN7android2nn10BufferRoleE"
    }
   ],
   "return_type" : "_ZTIN7android4base8expectedIvNS_2nn12GeneralErrorEEE",
   "source_file" : "hardware/interfaces/neuralnetworks/aidl/utils/include/nnapi/hal/aidl/Utils.h",
   "template_args" : [ "_ZTIN7android2nn10BufferRoleE" ]
  },
  {
   "function_name" : "aidl::android::hardware::neuralnetworks::utils::compliantVersion",
   "linker_set_key" : "_ZN4aidl7android8hardware14neuralnetworks5utils16compliantVersionIN7android2nn10DeviceTypeEEENS5_4base8expectedIvNS6_12GeneralErrorEEERKT_",
   "parameters" :
   [
    {
     "referenced_type" : "_ZTIRKN7android2nn10DeviceTypeE"
    }
   ],
   "return_type" : "_ZTIN7android4base8expectedIvNS_2nn12GeneralErrorEEE",
   "source_file" : "hardware/interfaces/neuralnetworks/aidl/utils/include/nnapi/hal/aidl/Utils.h",
   "template_args" : [ "_ZTIN7android2nn10DeviceTypeE" ]
  },
  {
   "function_name" : "aidl::android::hardware::neuralnetworks::utils::compliantVersion",
   "linker_set_key" : "_ZN4aidl7android8hardware14neuralnetworks5utils16compliantVersionIN7android2nn11ErrorStatusEEENS5_4base8expectedIvNS6_12GeneralErrorEEERKT_",
   "parameters" :
   [
    {
     "referenced_type" : "_ZTIRKN7android2nn11ErrorStatusE"
    }
   ],
   "return_type" : "_ZTIN7android4base8expectedIvNS_2nn12GeneralErrorEEE",
   "source_file" : "hardware/interfaces/neuralnetworks/aidl/utils/include/nnapi/hal/aidl/Utils.h",
   "template_args" : [ "_ZTIN7android2nn11ErrorStatusE" ]
  },
  {
   "function_name" : "aidl::android::hardware::neuralnetworks::utils::compliantVersion",
   "linker_set_key" : "_ZN4aidl7android8hardware14neuralnetworks5utils16compliantVersionIN7android2nn11OperandTypeEEENS5_4base8expectedIvNS6_12GeneralErrorEEERKT_",
   "parameters" :
   [
    {
     "referenced_type" : "_ZTIRKN7android2nn11OperandTypeE"
    }
   ],
   "return_type" : "_ZTIN7android4base8expectedIvNS_2nn12GeneralErrorEEE",
   "source_file" : "hardware/interfaces/neuralnetworks/aidl/utils/include/nnapi/hal/aidl/Utils.h",
   "template_args" : [ "_ZTIN7android2nn11OperandTypeE" ]
  },
  {
   "function_name" : "aidl::android::hardware::neuralnetworks::utils::compliantVersion",
   "linker_set_key" : "_ZN4aidl7android8hardware14neuralnetworks5utils16compliantVersionIN7android2nn11OutputShapeEEENS5_4base8expectedIvNS6_12GeneralErrorEEERKT_",
   "parameters" :
   [
    {
     "referenced_type" : "_ZTIRKN7android2nn11OutputShapeE"
    }
   ],
   "return_type" : "_ZTIN7android4base8expectedIvNS_2nn12GeneralErrorEEE",
   "source_file" : "hardware/interfaces/neuralnetworks/aidl/utils/include/nnapi/hal/aidl/Utils.h",
   "template_args" : [ "_ZTIN7android2nn11OutputShapeE" ]
  },
  {
   "function_name" : "aidl::android::hardware::neuralnetworks::utils::compliantVersion",
   "linker_set_key" : "_ZN4aidl7android8hardware14neuralnetworks5utils16compliantVersionIN7android2nn12CapabilitiesEEENS5_4base8expectedIvNS6_12GeneralErrorEEERKT_",
   "parameters" :
   [
    {
     "referenced_type" : "_ZTIRKN7android2nn12CapabilitiesE"
    }
   ],
   "return_type" : "_ZTIN7android4base8expectedIvNS_2nn12GeneralErrorEEE",
   "source_file" : "hardware/interfaces/neuralnetworks/aidl/utils/include/nnapi/hal/aidl/Utils.h",
   "template_args" : [ "_ZTIN7android2nn12CapabilitiesE" ]
  },
  {
   "function_name" : "aidl::android::hardware::neuralnetworks::utils::compliantVersion",
   "linker_set_key" : "_ZN4aidl7android8hardware14neuralnetworks5utils16compliantVersionIN7android2nn13MeasureTimingEEENS5_4base8expectedIvNS6_12GeneralErrorEEERKT_",
   "parameters" :
   [
    {
     "referenced_type" : "_ZTIRKN7android2nn13MeasureTimingE"
    }
   ],
   "return_type" : "_ZTIN7android4base8expectedIvNS_2nn12GeneralErrorEEE",
   "source_file" : "hardware/interfaces/neuralnetworks/aidl/utils/include/nnapi/hal/aidl/Utils.h",
   "template_args" : [ "_ZTIN7android2nn13MeasureTimingE" ]
  },
  {
   "function_name" : "aidl::android::hardware::neuralnetworks::utils::compliantVersion",
   "linker_set_key" : "_ZN4aidl7android8hardware14neuralnetworks5utils16compliantVersionIN7android2nn19ExecutionPreferenceEEENS5_4base8expectedIvNS6_12GeneralErrorEEERKT_",
   "parameters" :
   [
    {
     "referenced_type" : "_ZTIRKN7android2nn19ExecutionPreferenceE"
    }
   ],
   "return_type" : "_ZTIN7android4base8expectedIvNS_2nn12GeneralErrorEEE",
   "source_file" : "hardware/interfaces/neuralnetworks/aidl/utils/include/nnapi/hal/aidl/Utils.h",
   "template_args" : [ "_ZTIN7android2nn19ExecutionPreferenceE" ]
  },
  {
   "function_name" : "aidl::android::hardware::neuralnetworks::utils::compliantVersion",
   "linker_set_key" : "_ZN4aidl7android8hardware14neuralnetworks5utils16compliantVersionIN7android2nn5ModelEEENS5_4base8expectedIvNS6_12GeneralErrorEEERKT_",
   "parameters" :
   [
    {
     "referenced_type" : "_ZTIRKN7android2nn5ModelE"
    }
   ],
   "return_type" : "_ZTIN7android4base8expectedIvNS_2nn12GeneralErrorEEE",
   "source_file" : "hardware/interfaces/neuralnetworks/aidl/utils/include/nnapi/hal/aidl/Utils.h",
   "template_args" : [ "_ZTIN7android2nn5ModelE" ]
  },
  {
   "function_name" : "aidl::android::hardware::neuralnetworks::utils::compliantVersion",
   "linker_set_key" : "_ZN4aidl7android8hardware14neuralnetworks5utils16compliantVersionIN7android2nn6TimingEEENS5_4base8expectedIvNS6_12GeneralErrorEEERKT_",
   "parameters" :
   [
    {
     "referenced_type" : "_ZTIRKN7android2nn6TimingE"
    }
   ],
   "return_type" : "_ZTIN7android4base8expectedIvNS_2nn12GeneralErrorEEE",
   "source_file" : "hardware/interfaces/neuralnetworks/aidl/utils/include/nnapi/hal/aidl/Utils.h",
   "template_args" : [ "_ZTIN7android2nn6TimingE" ]
  },
  {
   "function_name" : "aidl::android::hardware::neuralnetworks::utils::compliantVersion",
   "linker_set_key" : "_ZN4aidl7android8hardware14neuralnetworks5utils16compliantVersionIN7android2nn7RequestEEENS5_4base8expectedIvNS6_12GeneralErrorEEERKT_",
   "parameters" :
   [
    {
     "referenced_type" : "_ZTIRKN7android2nn7RequestE"
    }
   ],
   "return_type" : "_ZTIN7android4base8expectedIvNS_2nn12GeneralErrorEEE",
   "source_file" : "hardware/interfaces/neuralnetworks/aidl/utils/include/nnapi/hal/aidl/Utils.h",
   "template_args" : [ "_ZTIN7android2nn7RequestE" ]
  },
  {
   "function_name" : "aidl::android::hardware::neuralnetworks::utils::compliantVersion",
   "linker_set_key" : "_ZN4aidl7android8hardware14neuralnetworks5utils16compliantVersionIN7android2nn8PriorityEEENS5_4base8expectedIvNS6_12GeneralErrorEEERKT_",
   "parameters" :
   [
    {
     "referenced_type" : "_ZTIRKN7android2nn8PriorityE"
    }
   ],
   "return_type" : "_ZTIN7android4base8expectedIvNS_2nn12GeneralErrorEEE",
   "source_file" : "hardware/interfaces/neuralnetworks/aidl/utils/include/nnapi/hal/aidl/Utils.h",
   "template_args" : [ "_ZTIN7android2nn8PriorityE" ]
  },
  {
   "function_name" : "aidl::android::hardware::neuralnetworks::utils::compliantVersion",
   "linker_set_key" : "_ZN4aidl7android8hardware14neuralnetworks5utils16compliantVersionIN7android2nn9ExtensionEEENS5_4base8expectedIvNS6_12GeneralErrorEEERKT_",
   "parameters" :
   [
    {
     "referenced_type" : "_ZTIRKN7android2nn9ExtensionE"
    }
   ],
   "return_type" : "_ZTIN7android4base8expectedIvNS_2nn12GeneralErrorEEE",
   "source_file" : "hardware/interfaces/neuralnetworks/aidl/utils/include/nnapi/hal/aidl/Utils.h",
   "template_args" : [ "_ZTIN7android2nn9ExtensionE" ]
  },
  {
   "function_name" : "aidl::android::hardware::neuralnetworks::utils::compliantVersion",
   "linker_set_key" : "_ZN4aidl7android8hardware14neuralnetworks5utils16compliantVersionIN7android2nn9SyncFenceEEENS5_4base8expectedIvNS6_12GeneralErrorEEERKT_",
   "parameters" :
   [
    {
     "referenced_type" : "_ZTIRKN7android2nn9SyncFenceE"
    }
   ],
   "return_type" : "_ZTIN7android4base8expectedIvNS_2nn12GeneralErrorEEE",
   "source_file" : "hardware/interfaces/neuralnetworks/aidl/utils/include/nnapi/hal/aidl/Utils.h",
   "template_args" : [ "_ZTIN7android2nn9SyncFenceE" ]
  },
  {
   "function_name" : "aidl::android::hardware::neuralnetworks::utils::compliantVersion",
   "linker_set_key" : "_ZN4aidl7android8hardware14neuralnetworks5utils16compliantVersionINSt3__110shared_ptrIKN7android2nn6MemoryEEEEENS7_4base8expectedIvNS8_12GeneralErrorEEERKT_",
   "parameters" :
   [
    {
     "referenced_type" : "_ZTIRKNSt3__110shared_ptrIKN7android2nn6MemoryEEE"
    }
   ],
   "return_type" : "_ZTIN7android4base8expectedIvNS_2nn12GeneralErrorEEE",
   "source_file" : "hardware/interfaces/neuralnetworks/aidl/utils/include/nnapi/hal/aidl/Utils.h",
   "template_args" : [ "_ZTINSt3__110shared_ptrIKN7android2nn6MemoryEEE" ]
  },
  {
   "function_name" : "aidl::android::hardware::neuralnetworks::utils::compliantVersion",
   "linker_set_key" : "_ZN4aidl7android8hardware14neuralnetworks5utils16compliantVersionINSt3__15arrayIhLj32EEEEEN7android4base8expectedIvNS8_2nn12GeneralErrorEEERKT_",
   "parameters" :
   [
    {
     "referenced_type" : "_ZTIRKNSt3__15arrayIhLj32EEE"
    }
   ],
   "return_type" : "_ZTIN7android4base8expectedIvNS_2nn12GeneralErrorEEE",
   "source_file" : "hardware/interfaces/neuralnetworks/aidl/utils/include/nnapi/hal/aidl/Utils.h",
   "template_args" : [ "_ZTINSt3__15arrayIhLj32EEE" ]
  },
  {
   "function_name" : "aidl::android::hardware::neuralnetworks::utils::compliantVersion",
   "linker_set_key" : "_ZN4aidl7android8hardware14neuralnetworks5utils16compliantVersionINSt3__18optionalINS5_6chrono10time_pointIN7android4base10boot_clockENS7_8durationIxNS5_5ratioILx1ELx1000000000EEEEEEEEEEENSA_8expectedIvNS9_2nn12GeneralErrorEEERKT_",
   "parameters" :
   [
    {
     "referenced_type" : "_ZTIRKNSt3__18optionalINS_6chrono10time_pointIN7android4base10boot_clockENS1_8durationIxNS_5ratioILx1ELx1000000000EEEEEEEEE"
    }
   ],
   "return_type" : "_ZTIN7android4base8expectedIvNS_2nn12GeneralErrorEEE",
   "source_file" : "hardware/interfaces/neuralnetworks/aidl/utils/include/nnapi/hal/aidl/Utils.h",
   "template_args" :
   [
    "_ZTINSt3__18optionalINS_6chrono10time_pointIN7android4base10boot_clockENS1_8durationIxNS_5ratioILx1ELx1000000000EEEEEEEEE"
   ]
  },
  {
   "function_name" : "aidl::android::hardware::neuralnetworks::utils::compliantVersion",
   "linker_set_key" : "_ZN4aidl7android8hardware14neuralnetworks5utils16compliantVersionINSt3__18optionalINS5_6chrono8durationIxNS5_5ratioILx1ELx1000000000EEEEEEEEEN7android4base8expectedIvNSD_2nn12GeneralErrorEEERKT_",
   "parameters" :
   [
    {
     "referenced_type" : "_ZTIRKNSt3__18optionalINS_6chrono8durationIxNS_5ratioILx1ELx1000000000EEEEEEE"
    }
   ],
   "return_type" : "_ZTIN7android4base8expectedIvNS_2nn12GeneralErrorEEE",
   "source_file" : "hardware/interfaces/neuralnetworks/aidl/utils/include/nnapi/hal/aidl/Utils.h",
   "template_args" :
   [
    "_ZTINSt3__18optionalINS_6chrono8durationIxNS_5ratioILx1ELx1000000000EEEEEEE"
   ]
  },
  {
   "function_name" : "aidl::android::hardware::neuralnetworks::utils::unvalidatedConvert",
   "linker_set_key" : "_ZN4aidl7android8hardware14neuralnetworks5utils18unvalidatedConvertERKN7android2nn10BufferDescE",
   "parameters" :
   [
    {
     "referenced_type" : "_ZTIRKN7android2nn10BufferDescE"
    }
   ],
   "return_type" : "_ZTIN7android4base8expectedIN4aidl7android8hardware14neuralnetworks10BufferDescENS_2nn12GeneralErrorEEE",
   "source_file" : "hardware/interfaces/neuralnetworks/aidl/utils/include/nnapi/hal/aidl/Conversions.h"
  },
  {
   "function_name" : "aidl::android::hardware::neuralnetworks::utils::unvalidatedConvert",
   "linker_set_key" : "_ZN4aidl7android8hardware14neuralnetworks5utils18unvalidatedConvertERKN7android2nn10BufferRoleE",
   "parameters" :
   [
    {
     "referenced_type" : "_ZTIRKN7android2nn10BufferRoleE"
    }
   ],
   "return_type" : "_ZTIN7android4base8expectedIN4aidl7android8hardware14neuralnetworks10BufferRoleENS_2nn12GeneralErrorEEE",
   "source_file" : "hardware/interfaces/neuralnetworks/aidl/utils/include/nnapi/hal/aidl/Conversions.h"
  },
  {
   "function_name" : "aidl::android::hardware::neuralnetworks::utils::unvalidatedConvert",
   "linker_set_key" : "_ZN4aidl7android8hardware14neuralnetworks5utils18unvalidatedConvertERKN7android2nn11ErrorStatusE",
   "parameters" :
   [
    {
     "referenced_type" : "_ZTIRKN7android2nn11ErrorStatusE"
    }
   ],
   "return_type" : "_ZTIN7android4base8expectedIN4aidl7android8hardware14neuralnetworks11ErrorStatusENS_2nn12GeneralErrorEEE",
   "source_file" : "hardware/interfaces/neuralnetworks/aidl/utils/include/nnapi/hal/aidl/Conversions.h"
  },
  {
   "function_name" : "aidl::android::hardware::neuralnetworks::utils::unvalidatedConvert",
   "linker_set_key" : "_ZN4aidl7android8hardware14neuralnetworks5utils18unvalidatedConvertERKN7android2nn11OperandTypeE",
   "parameters" :
   [
    {
     "referenced_type" : "_ZTIRKN7android2nn11OperandTypeE"
    }
   ],
   "return_type" : "_ZTIN7android4base8expectedIN4aidl7android8hardware14neuralnetworks11OperandTypeENS_2nn12GeneralErrorEEE",
   "source_file" : "hardware/interfaces/neuralnetworks/aidl/utils/include/nnapi/hal/aidl/Conversions.h"
  },
  {
   "function_name" : "aidl::android::hardware::neuralnetworks::utils::unvalidatedConvert",
   "linker_set_key" : "_ZN4aidl7android8hardware14neuralnetworks5utils18unvalidatedConvertERKN7android2nn11OutputShapeE",
   "parameters" :
   [
    {
     "referenced_type" : "_ZTIRKN7android2nn11OutputShapeE"
    }
   ],
   "return_type" : "_ZTIN7android4base8expectedIN4aidl7android8hardware14neuralnetworks11OutputShapeENS_2nn12GeneralErrorEEE",
   "source_file" : "hardware/interfaces/neuralnetworks/aidl/utils/include/nnapi/hal/aidl/Conversions.h"
  },
  {
   "function_name" : "aidl::android::hardware::neuralnetworks::utils::unvalidatedConvert",
   "linker_set_key" : "_ZN4aidl7android8hardware14neuralnetworks5utils18unvalidatedConvertERKN7android2nn12DataLocationE",
   "parameters" :
   [
    {
     "referenced_type" : "_ZTIRKN7android2nn12DataLocationE"
    }
   ],
   "return_type" : "_ZTIN7android4base8expectedIN4aidl7android8hardware14neuralnetworks12DataLocationENS_2nn12GeneralErrorEEE",
   "source_file" : "hardware/interfaces/neuralnetworks/aidl/utils/include/nnapi/hal/aidl/Conversions.h"
  },
  {
   "function_name" : "aidl::android::hardware::neuralnetworks::utils::unvalidatedConvert",
   "linker_set_key" : "_ZN4aidl7android8hardware14neuralnetworks5utils18unvalidatedConvertERKN7android2nn13MeasureTimingE",
   "parameters" :
   [
    {
     "referenced_type" : "_ZTIRKN7android2nn13MeasureTimingE"
    }
   ],
   "return_type" : "_ZTIN7android4base8expectedIbNS_2nn12GeneralErrorEEE",
   "source_file" : "hardware/interfaces/neuralnetworks/aidl/utils/include/nnapi/hal/aidl/Conversions.h"
  },
  {
   "function_name" : "aidl::android::hardware::neuralnetworks::utils::unvalidatedConvert",
   "linker_set_key" : "_ZN4aidl7android8hardware14neuralnetworks5utils18unvalidatedConvertERKN7android2nn13OperationTypeE",
   "parameters" :
   [
    {
     "referenced_type" : "_ZTIRKN7android2nn13OperationTypeE"
    }
   ],
   "return_type" : "_ZTIN7android4base8expectedIN4aidl7android8hardware14neuralnetworks13OperationTypeENS_2nn12GeneralErrorEEE",
   "source_file" : "hardware/interfaces/neuralnetworks/aidl/utils/include/nnapi/hal/aidl/Conversions.h"
  },
  {
   "function_name" : "aidl::android::hardware::neuralnetworks::utils::unvalidatedConvert",
   "linker_set_key" : "_ZN4aidl7android8hardware14neuralnetworks5utils18unvalidatedConvertERKN7android2nn19ExecutionPreferenceE",
   "parameters" :
   [
    {
     "referenced_type" : "_ZTIRKN7android2nn19ExecutionPreferenceE"
    }
   ],
   "return_type" : "_ZTIN7android4base8expectedIN4aidl7android8hardware14neuralnetworks19ExecutionPreferenceENS_2nn12GeneralErrorEEE",
   "source_file" : "hardware/interfaces/neuralnetworks/aidl/utils/include/nnapi/hal/aidl/Conversions.h"
  },
  {
   "function_name" : "aidl::android::hardware::neuralnetworks::utils::unvalidatedConvert",
   "linker_set_key" : "_ZN4aidl7android8hardware14neuralnetworks5utils18unvalidatedConvertERKN7android2nn5Model13OperandValuesE",
   "parameters" :
   [
    {
     "referenced_type" : "_ZTIRKN7android2nn5Model13OperandValuesE"
    }
   ],
   "return_type" : "_ZTIN7android4base8expectedINSt3__16vectorIhNS2_9allocatorIhEEEENS_2nn12GeneralErrorEEE",
   "source_file" : "hardware/interfaces/neuralnetworks/aidl/utils/include/nnapi/hal/aidl/Conversions.h"
  },
  {
   "function_name" : "aidl::android::hardware::neuralnetworks::utils::unvalidatedConvert",
   "linker_set_key" : "_ZN4aidl7android8hardware14neuralnetworks5utils18unvalidatedConvertERKN7android2nn5Model22ExtensionNameAndPrefixE",
   "parameters" :
   [
    {
     "referenced_type" : "_ZTIRKN7android2nn5Model22ExtensionNameAndPrefixE"
    }
   ],
   "return_type" : "_ZTIN7android4base8expectedIN4aidl7android8hardware14neuralnetworks22ExtensionNameAndPrefixENS_2nn12GeneralErrorEEE",
   "source_file" : "hardware/interfaces/neuralnetworks/aidl/utils/include/nnapi/hal/aidl/Conversions.h"
  },
  {
   "function_name" : "aidl::android::hardware::neuralnetworks::utils::unvalidatedConvert",
   "linker_set_key" : "_ZN4aidl7android8hardware14neuralnetworks5utils18unvalidatedConvertERKN7android2nn5Model8SubgraphE",
   "parameters" :
   [
    {
     "referenced_type" : "_ZTIRKN7android2nn5Model8SubgraphE"
    }
   ],
   "return_type" : "_ZTIN7android4base8expectedIN4aidl7android8hardware14neuralnetworks8SubgraphENS_2nn12GeneralErrorEEE",
   "source_file" : "hardware/interfaces/neuralnetworks/aidl/utils/include/nnapi/hal/aidl/Conversions.h"
  },
  {
   "function_name" : "aidl::android::hardware::neuralnetworks::utils::unvalidatedConvert",
   "linker_set_key" : "_ZN4aidl7android8hardware14neuralnetworks5utils18unvalidatedConvertERKN7android2nn5ModelE",
   "parameters" :
   [
    {
     "referenced_type" : "_ZTIRKN7android2nn5ModelE"
    }
   ],
   "return_type" : "_ZTIN7android4base8expectedIN4aidl7android8hardware14neuralnetworks5ModelENS_2nn12GeneralErrorEEE",
   "source_file" : "hardware/interfaces/neuralnetworks/aidl/utils/include/nnapi/hal/aidl/Conversions.h"
  },
  {
   "function_name" : "aidl::android::hardware::neuralnetworks::utils::unvalidatedConvert",
   "linker_set_key" : "_ZN4aidl7android8hardware14neuralnetworks5utils18unvalidatedConvertERKN7android2nn6TimingE",
   "parameters" :
   [
    {
     "referenced_type" : "_ZTIRKN7android2nn6TimingE"
    }
   ],
   "return_type" : "_ZTIN7android4base8expectedIN4aidl7android8hardware14neuralnetworks6TimingENS_2nn12GeneralErrorEEE",
   "source_file" : "hardware/interfaces/neuralnetworks/aidl/utils/include/nnapi/hal/aidl/Conversions.h"
  },
  {
   "function_name" : "aidl::android::hardware::neuralnetworks::utils::unvalidatedConvert",
   "linker_set_key" : "_ZN4aidl7android8hardware14neuralnetworks5utils18unvalidatedConvertERKN7android2nn7Operand8LifeTimeE",
   "parameters" :
   [
    {
     "referenced_type" : "_ZTIRKN7android2nn7Operand8LifeTimeE"
    }
   ],
   "return_type" : "_ZTIN7android4base8expectedIN4aidl7android8hardware14neuralnetworks15OperandLifeTimeENS_2nn12GeneralErrorEEE",
   "source_file" : "hardware/interfaces/neuralnetworks/aidl/utils/include/nnapi/hal/aidl/Conversions.h"
  },
  {
   "function_name" : "aidl::android::hardware::neuralnetworks::utils::unvalidatedConvert",
   "linker_set_key" : "_ZN4aidl7android8hardware14neuralnetworks5utils18unvalidatedConvertERKN7android2nn7OperandE",
   "parameters" :
   [
    {
     "referenced_type" : "_ZTIRKN7android2nn7OperandE"
    }
   ],
   "return_type" : "_ZTIN7android4base8expectedIN4aidl7android8hardware14neuralnetworks7OperandENS_2nn12GeneralErrorEEE",
   "source_file" : "hardware/interfaces/neuralnetworks/aidl/utils/include/nnapi/hal/aidl/Conversions.h"
  },
  {
   "function_name" : "aidl::android::hardware::neuralnetworks::utils::unvalidatedConvert",
   "linker_set_key" : "_ZN4aidl7android8hardware14neuralnetworks5utils18unvalidatedConvertERKN7android2nn7Request8ArgumentE",
   "parameters" :
   [
    {
     "referenced_type" : "_ZTIRKN7android2nn7Request8ArgumentE"
    }
   ],
   "return_type" : "_ZTIN7android4base8expectedIN4aidl7android8hardware14neuralnetworks15RequestArgumentENS_2nn12GeneralErrorEEE",
   "source_file" : "hardware/interfaces/neuralnetworks/aidl/utils/include/nnapi/hal/aidl/Conversions.h"
  },
  {
   "function_name" : "aidl::android::hardware::neuralnetworks::utils::unvalidatedConvert",
   "linker_set_key" : "_ZN4aidl7android8hardware14neuralnetworks5utils18unvalidatedConvertERKN7android2nn7RequestE",
   "parameters" :
   [
    {
     "referenced_type" : "_ZTIRKN7android2nn7RequestE"
    }
   ],
   "return_type" : "_ZTIN7android4base8expectedIN4aidl7android8hardware14neuralnetworks7RequestENS_2nn12GeneralErrorEEE",
   "source_file" : "hardware/interfaces/neuralnetworks/aidl/utils/include/nnapi/hal/aidl/Conversions.h"
  },
  {
   "function_name" : "aidl::android::hardware::neuralnetworks::utils::unvalidatedConvert",
   "linker_set_key" : "_ZN4aidl7android8hardware14neuralnetworks5utils18unvalidatedConvertERKN7android2nn8PriorityE",
   "parameters" :
   [
    {
     "referenced_type" : "_ZTIRKN7android2nn8PriorityE"
    }
   ],
   "return_type" : "_ZTIN7android4base8expectedIN4aidl7android8hardware14neuralnetworks8PriorityENS_2nn12GeneralErrorEEE",
   "source_file" : "hardware/interfaces/neuralnetworks/aidl/utils/include/nnapi/hal/aidl/Conversions.h"
  },
  {
   "function_name" : "aidl::android::hardware::neuralnetworks::utils::unvalidatedConvert",
   "linker_set_key" : "_ZN4aidl7android8hardware14neuralnetworks5utils18unvalidatedConvertERKN7android2nn9OperationE",
   "parameters" :
   [
    {
     "referenced_type" : "_ZTIRKN7android2nn9OperationE"
    }
   ],
   "return_type" : "_ZTIN7android4base8expectedIN4aidl7android8hardware14neuralnetworks9OperationENS_2nn12GeneralErrorEEE",
   "source_file" : "hardware/interfaces/neuralnetworks/aidl/utils/include/nnapi/hal/aidl/Conversions.h"
  },
  {
   "function_name" : "aidl::android::hardware::neuralnetworks::utils::unvalidatedConvert",
   "linker_set_key" : "_ZN4aidl7android8hardware14neuralnetworks5utils18unvalidatedConvertERKN7android2nn9SyncFenceE",
   "parameters" :
   [
    {
     "referenced_type" : "_ZTIRKN7android2nn9SyncFenceE"
    }
   ],
   "return_type" : "_ZTIN7android4base8expectedIN3ndk20ScopedFileDescriptorENS_2nn12GeneralErrorEEE",
   "source_file" : "hardware/interfaces/neuralnetworks/aidl/utils/include/nnapi/hal/aidl/Conversions.h"
  },
  {
   "function_name" : "aidl::android::hardware::neuralnetworks::utils::unvalidatedConvert",
   "linker_set_key" : "_ZN4aidl7android8hardware14neuralnetworks5utils18unvalidatedConvertERKNSt3__110shared_ptrIKN7android2nn6HandleEEE",
   "parameters" :
   [
    {
     "referenced_type" : "_ZTIRKNSt3__110shared_ptrIKN7android2nn6HandleEEE"
    }
   ],
   "return_type" : "_ZTIN7android4base8expectedIN4aidl7android8hardware6common12NativeHandleENS_2nn12GeneralErrorEEE",
   "source_file" : "hardware/interfaces/neuralnetworks/aidl/utils/include/nnapi/hal/aidl/Conversions.h"
  },
  {
   "function_name" : "aidl::android::hardware::neuralnetworks::utils::unvalidatedConvert",
   "linker_set_key" : "_ZN4aidl7android8hardware14neuralnetworks5utils18unvalidatedConvertERKNSt3__110shared_ptrIKN7android2nn6MemoryEEE",
   "parameters" :
   [
    {
     "referenced_type" : "_ZTIRKNSt3__110shared_ptrIKN7android2nn6MemoryEEE"
    }
   ],
   "return_type" : "_ZTIN7android4base8expectedIN4aidl7android8hardware14neuralnetworks6MemoryENS_2nn12GeneralErrorEEE",
   "source_file" : "hardware/interfaces/neuralnetworks/aidl/utils/include/nnapi/hal/aidl/Conversions.h"
  },
  {
   "function_name" : "aidl::android::hardware::neuralnetworks::utils::unvalidatedConvert",
   "linker_set_key" : "_ZN4aidl7android8hardware14neuralnetworks5utils18unvalidatedConvertERKNSt3__15arrayIhLj32EEE",
   "parameters" :
   [
    {
     "referenced_type" : "_ZTIRKNSt3__15arrayIhLj32EEE"
    }
   ],
   "return_type" : "_ZTIN7android4base8expectedINSt3__16vectorIhNS2_9allocatorIhEEEENS_2nn12GeneralErrorEEE",
   "source_file" : "hardware/interfaces/neuralnetworks/aidl/utils/include/nnapi/hal/aidl/Conversions.h"
  },
  {
   "function_name" : "aidl::android::hardware::neuralnetworks::utils::unvalidatedConvert",
   "linker_set_key" : "_ZN4aidl7android8hardware14neuralnetworks5utils18unvalidatedConvertERKNSt3__16chrono8durationIxNS4_5ratioILx1ELx1000000000EEEEE",
   "parameters" :
   [
    {
     "referenced_type" : "_ZTIRKNSt3__16chrono8durationIxNS_5ratioILx1ELx1000000000EEEEE"
    }
   ],
   "return_type" : "_ZTIN7android4base8expectedIxNS_2nn12GeneralErrorEEE",
   "source_file" : "hardware/interfaces/neuralnetworks/aidl/utils/include/nnapi/hal/aidl/Conversions.h"
  },
  {
   "function_name" : "aidl::android::hardware::neuralnetworks::utils::unvalidatedConvert",
   "linker_set_key" : "_ZN4aidl7android8hardware14neuralnetworks5utils18unvalidatedConvertERKNSt3__17variantIJNS4_10shared_ptrIKN7android2nn6MemoryEEENS8_7Request17MemoryDomainTokenENS6_IKNS8_7IBufferEEEEEE",
   "parameters" :
   [
    {
     "referenced_type" : "_ZTIRKNSt3__17variantIJNS_10shared_ptrIKN7android2nn6MemoryEEENS3_7Request17MemoryDomainTokenENS1_IKNS3_7IBufferEEEEEE"
    }
   ],
   "return_type" : "_ZTIN7android4base8expectedIN4aidl7android8hardware14neuralnetworks17RequestMemoryPoolENS_2nn12GeneralErrorEEE",
   "source_file" : "hardware/interfaces/neuralnetworks/aidl/utils/include/nnapi/hal/aidl/Conversions.h"
  },
  {
   "function_name" : "aidl::android::hardware::neuralnetworks::utils::unvalidatedConvert",
   "linker_set_key" : "_ZN4aidl7android8hardware14neuralnetworks5utils18unvalidatedConvertERKNSt3__17variantIJNS4_9monostateEN7android2nn7Operand25SymmPerChannelQuantParamsENS4_6vectorIhNS4_9allocatorIhEEEEEEE",
   "parameters" :
   [
    {
     "referenced_type" : "_ZTIRKNSt3__17variantIJNS_9monostateEN7android2nn7Operand25SymmPerChannelQuantParamsENS_6vectorIhNS_9allocatorIhEEEEEEE"
    }
   ],
   "return_type" : "_ZTIN7android4base8expectedINSt3__18optionalIN4aidl7android8hardware14neuralnetworks18OperandExtraParamsEEENS_2nn12GeneralErrorEEE",
   "source_file" : "hardware/interfaces/neuralnetworks/aidl/utils/include/nnapi/hal/aidl/Conversions.h"
  },
  {
   "function_name" : "aidl::android::hardware::neuralnetworks::utils::unvalidatedConvert",
   "linker_set_key" : "_ZN4aidl7android8hardware14neuralnetworks5utils18unvalidatedConvertERKNSt3__18optionalINS4_6chrono10time_pointIN7android4base10boot_clockENS6_8durationIxNS4_5ratioILx1ELx1000000000EEEEEEEEE",
   "parameters" :
   [
    {
     "referenced_type" : "_ZTIRKNSt3__18optionalINS_6chrono10time_pointIN7android4base10boot_clockENS1_8durationIxNS_5ratioILx1ELx1000000000EEEEEEEEE"
    }
   ],
   "return_type" : "_ZTIN7android4base8expectedIxNS_2nn12GeneralErrorEEE",
   "source_file" : "hardware/interfaces/neuralnetworks/aidl/utils/include/nnapi/hal/aidl/Conversions.h"
  },
  {
   "function_name" : "aidl::android::hardware::neuralnetworks::utils::unvalidatedConvert",
   "linker_set_key" : "_ZN4aidl7android8hardware14neuralnetworks5utils18unvalidatedConvertERKNSt3__18optionalINS4_6chrono8durationIxNS4_5ratioILx1ELx1000000000EEEEEEE",
   "parameters" :
   [
    {
     "referenced_type" : "_ZTIRKNSt3__18optionalINS_6chrono8durationIxNS_5ratioILx1ELx1000000000EEEEEEE"
    }
   ],
   "return_type" : "_ZTIN7android4base8expectedIxNS_2nn12GeneralErrorEEE",
   "source_file" : "hardware/interfaces/neuralnetworks/aidl/utils/include/nnapi/hal/aidl/Conversions.h"
  },
  {
   "function_name" : "aidl::android::hardware::neuralnetworks::utils::unvalidatedConvertCache",
   "linker_set_key" : "_ZN4aidl7android8hardware14neuralnetworks5utils23unvalidatedConvertCacheERKNSt3__110shared_ptrIKN7android2nn6HandleEEE",
   "parameters" :
   [
    {
     "referenced_type" : "_ZTIRKNSt3__110shared_ptrIKN7android2nn6HandleEEE"
    }
   ],
   "return_type" : "_ZTIN7android4base8expectedIN3ndk20ScopedFileDescriptorENS_2nn12GeneralErrorEEE",
   "source_file" : "hardware/interfaces/neuralnetworks/aidl/utils/include/nnapi/hal/aidl/Conversions.h"
  },
  {
   "function_name" : "aidl::android::hardware::neuralnetworks::utils::convert",
   "linker_set_key" : "_ZN4aidl7android8hardware14neuralnetworks5utils7convertERKN7android2nn10BufferDescE",
   "parameters" :
   [
    {
     "referenced_type" : "_ZTIRKN7android2nn10BufferDescE"
    }
   ],
   "return_type" : "_ZTIN7android4base8expectedIN4aidl7android8hardware14neuralnetworks10BufferDescENS_2nn12GeneralErrorEEE",
   "source_file" : "hardware/interfaces/neuralnetworks/aidl/utils/include/nnapi/hal/aidl/Conversions.h"
  },
  {
   "function_name" : "aidl::android::hardware::neuralnetworks::utils::convert",
   "linker_set_key" : "_ZN4aidl7android8hardware14neuralnetworks5utils7convertERKN7android2nn11ErrorStatusE",
   "parameters" :
   [
    {
     "referenced_type" : "_ZTIRKN7android2nn11ErrorStatusE"
    }
   ],
   "return_type" : "_ZTIN7android4base8expectedIN4aidl7android8hardware14neuralnetworks11ErrorStatusENS_2nn12GeneralErrorEEE",
   "source_file" : "hardware/interfaces/neuralnetworks/aidl/utils/include/nnapi/hal/aidl/Conversions.h"
  },
  {
   "function_name" : "aidl::android::hardware::neuralnetworks::utils::convert",
   "linker_set_key" : "_ZN4aidl7android8hardware14neuralnetworks5utils7convertERKN7android2nn13MeasureTimingE",
   "parameters" :
   [
    {
     "referenced_type" : "_ZTIRKN7android2nn13MeasureTimingE"
    }
   ],
   "return_type" : "_ZTIN7android4base8expectedIbNS_2nn12GeneralErrorEEE",
   "source_file" : "hardware/interfaces/neuralnetworks/aidl/utils/include/nnapi/hal/aidl/Conversions.h"
  },
  {
   "function_name" : "aidl::android::hardware::neuralnetworks::utils::convert",
   "linker_set_key" : "_ZN4aidl7android8hardware14neuralnetworks5utils7convertERKN7android2nn19ExecutionPreferenceE",
   "parameters" :
   [
    {
     "referenced_type" : "_ZTIRKN7android2nn19ExecutionPreferenceE"
    }
   ],
   "return_type" : "_ZTIN7android4base8expectedIN4aidl7android8hardware14neuralnetworks19ExecutionPreferenceENS_2nn12GeneralErrorEEE",
   "source_file" : "hardware/interfaces/neuralnetworks/aidl/utils/include/nnapi/hal/aidl/Conversions.h"
  },
  {
   "function_name" : "aidl::android::hardware::neuralnetworks::utils::convert",
   "linker_set_key" : "_ZN4aidl7android8hardware14neuralnetworks5utils7convertERKN7android2nn5ModelE",
   "parameters" :
   [
    {
     "referenced_type" : "_ZTIRKN7android2nn5ModelE"
    }
   ],
   "return_type" : "_ZTIN7android4base8expectedIN4aidl7android8hardware14neuralnetworks5ModelENS_2nn12GeneralErrorEEE",
   "source_file" : "hardware/interfaces/neuralnetworks/aidl/utils/include/nnapi/hal/aidl/Conversions.h"
  },
  {
   "function_name" : "aidl::android::hardware::neuralnetworks::utils::convert",
   "linker_set_key" : "_ZN4aidl7android8hardware14neuralnetworks5utils7convertERKN7android2nn6TimingE",
   "parameters" :
   [
    {
     "referenced_type" : "_ZTIRKN7android2nn6TimingE"
    }
   ],
   "return_type" : "_ZTIN7android4base8expectedIN4aidl7android8hardware14neuralnetworks6TimingENS_2nn12GeneralErrorEEE",
   "source_file" : "hardware/interfaces/neuralnetworks/aidl/utils/include/nnapi/hal/aidl/Conversions.h"
  },
  {
   "function_name" : "aidl::android::hardware::neuralnetworks::utils::convert",
   "linker_set_key" : "_ZN4aidl7android8hardware14neuralnetworks5utils7convertERKN7android2nn7RequestE",
   "parameters" :
   [
    {
     "referenced_type" : "_ZTIRKN7android2nn7RequestE"
    }
   ],
   "return_type" : "_ZTIN7android4base8expectedIN4aidl7android8hardware14neuralnetworks7RequestENS_2nn12GeneralErrorEEE",
   "source_file" : "hardware/interfaces/neuralnetworks/aidl/utils/include/nnapi/hal/aidl/Conversions.h"
  },
  {
   "function_name" : "aidl::android::hardware::neuralnetworks::utils::convert",
   "linker_set_key" : "_ZN4aidl7android8hardware14neuralnetworks5utils7convertERKN7android2nn8PriorityE",
   "parameters" :
   [
    {
     "referenced_type" : "_ZTIRKN7android2nn8PriorityE"
    }
   ],
   "return_type" : "_ZTIN7android4base8expectedIN4aidl7android8hardware14neuralnetworks8PriorityENS_2nn12GeneralErrorEEE",
   "source_file" : "hardware/interfaces/neuralnetworks/aidl/utils/include/nnapi/hal/aidl/Conversions.h"
  },
  {
   "function_name" : "aidl::android::hardware::neuralnetworks::utils::convert",
   "linker_set_key" : "_ZN4aidl7android8hardware14neuralnetworks5utils7convertERKNSt3__110shared_ptrIKN7android2nn6MemoryEEE",
   "parameters" :
   [
    {
     "referenced_type" : "_ZTIRKNSt3__110shared_ptrIKN7android2nn6MemoryEEE"
    }
   ],
   "return_type" : "_ZTIN7android4base8expectedIN4aidl7android8hardware14neuralnetworks6MemoryENS_2nn12GeneralErrorEEE",
   "source_file" : "hardware/interfaces/neuralnetworks/aidl/utils/include/nnapi/hal/aidl/Conversions.h"
  },
  {
   "function_name" : "aidl::android::hardware::neuralnetworks::utils::convert",
   "linker_set_key" : "_ZN4aidl7android8hardware14neuralnetworks5utils7convertERKNSt3__15arrayIhLj32EEE",
   "parameters" :
   [
    {
     "referenced_type" : "_ZTIRKNSt3__15arrayIhLj32EEE"
    }
   ],
   "return_type" : "_ZTIN7android4base8expectedINSt3__16vectorIhNS2_9allocatorIhEEEENS_2nn12GeneralErrorEEE",
   "source_file" : "hardware/interfaces/neuralnetworks/aidl/utils/include/nnapi/hal/aidl/Conversions.h"
  },
  {
   "function_name" : "aidl::android::hardware::neuralnetworks::utils::convert",
   "linker_set_key" : "_ZN4aidl7android8hardware14neuralnetworks5utils7convertERKNSt3__16vectorIN7android2nn10BufferRoleENS4_9allocatorIS8_EEEE",
   "parameters" :
   [
    {
     "referenced_type" : "_ZTIRKNSt3__16vectorIN7android2nn10BufferRoleENS_9allocatorIS3_EEEE"
    }
   ],
   "return_type" : "_ZTIN7android4base8expectedINSt3__16vectorIN4aidl7android8hardware14neuralnetworks10BufferRoleENS2_9allocatorIS8_EEEENS_2nn12GeneralErrorEEE",
   "source_file" : "hardware/interfaces/neuralnetworks/aidl/utils/include/nnapi/hal/aidl/Conversions.h"
  },
  {
   "function_name" : "aidl::android::hardware::neuralnetworks::utils::convert",
   "linker_set_key" : "_ZN4aidl7android8hardware14neuralnetworks5utils7convertERKNSt3__16vectorIN7android2nn11OutputShapeENS4_9allocatorIS8_EEEE",
   "parameters" :
   [
    {
     "referenced_type" : "_ZTIRKNSt3__16vectorIN7android2nn11OutputShapeENS_9allocatorIS3_EEEE"
    }
   ],
   "return_type" : "_ZTIN7android4base8expectedINSt3__16vectorIN4aidl7android8hardware14neuralnetworks11OutputShapeENS2_9allocatorIS8_EEEENS_2nn12GeneralErrorEEE",
   "source_file" : "hardware/interfaces/neuralnetworks/aidl/utils/include/nnapi/hal/aidl/Conversions.h"
  },
  {
   "function_name" : "aidl::android::hardware::neuralnetworks::utils::convert",
   "linker_set_key" : "_ZN4aidl7android8hardware14neuralnetworks5utils7convertERKNSt3__16vectorIN7android2nn9SyncFenceENS4_9allocatorIS8_EEEE",
   "parameters" :
   [
    {
     "referenced_type" : "_ZTIRKNSt3__16vectorIN7android2nn9SyncFenceENS_9allocatorIS3_EEEE"
    }
   ],
   "return_type" : "_ZTIN7android4base8expectedINSt3__16vectorIN3ndk20ScopedFileDescriptorENS2_9allocatorIS5_EEEENS_2nn12GeneralErrorEEE",
   "source_file" : "hardware/interfaces/neuralnetworks/aidl/utils/include/nnapi/hal/aidl/Conversions.h"
  },
  {
   "function_name" : "aidl::android::hardware::neuralnetworks::utils::convert",
   "linker_set_key" : "_ZN4aidl7android8hardware14neuralnetworks5utils7convertERKNSt3__16vectorINS4_10shared_ptrIKN7android2nn6HandleEEENS4_9allocatorISB_EEEE",
   "parameters" :
   [
    {
     "referenced_type" : "_ZTIRKNSt3__16vectorINS_10shared_ptrIKN7android2nn6HandleEEENS_9allocatorIS6_EEEE"
    }
   ],
   "return_type" : "_ZTIN7android4base8expectedINSt3__16vectorIN3ndk20ScopedFileDescriptorENS2_9allocatorIS5_EEEENS_2nn12GeneralErrorEEE",
   "source_file" : "hardware/interfaces/neuralnetworks/aidl/utils/include/nnapi/hal/aidl/Conversions.h"
  },
  {
   "function_name" : "aidl::android::hardware::neuralnetworks::utils::convert",
   "linker_set_key" : "_ZN4aidl7android8hardware14neuralnetworks5utils7convertERKNSt3__18optionalINS4_6chrono10time_pointIN7android4base10boot_clockENS6_8durationIxNS4_5ratioILx1ELx1000000000EEEEEEEEE",
   "parameters" :
   [
    {
     "referenced_type" : "_ZTIRKNSt3__18optionalINS_6chrono10time_pointIN7android4base10boot_clockENS1_8durationIxNS_5ratioILx1ELx1000000000EEEEEEEEE"
    }
   ],
   "return_type" : "_ZTIN7android4base8expectedIxNS_2nn12GeneralErrorEEE",
   "source_file" : "hardware/interfaces/neuralnetworks/aidl/utils/include/nnapi/hal/aidl/Conversions.h"
  },
  {
   "function_name" : "aidl::android::hardware::neuralnetworks::utils::convert",
   "linker_set_key" : "_ZN4aidl7android8hardware14neuralnetworks5utils7convertERKNSt3__18optionalINS4_6chrono8durationIxNS4_5ratioILx1ELx1000000000EEEEEEE",
   "parameters" :
   [
    {
     "referenced_type" : "_ZTIRKNSt3__18optionalINS_6chrono8durationIxNS_5ratioILx1ELx1000000000EEEEEEE"
    }
   ],
   "return_type" : "_ZTIN7android4base8expectedIxNS_2nn12GeneralErrorEEE",
   "source_file" : "hardware/interfaces/neuralnetworks/aidl/utils/include/nnapi/hal/aidl/Conversions.h"
  },
  {
   "function_name" : "aidl::android::hardware::neuralnetworks::utils::toSigned",
   "linker_set_key" : "_ZN4aidl7android8hardware14neuralnetworks5utils8toSignedERKNSt3__16vectorIjNS4_9allocatorIjEEEE",
   "parameters" :
   [
    {
     "referenced_type" : "_ZTIRKNSt3__16vectorIjNS_9allocatorIjEEEE"
    }
   ],
   "return_type" : "_ZTIN7android4base8expectedINSt3__16vectorIiNS2_9allocatorIiEEEENS_2nn12GeneralErrorEEE",
   "source_file" : "hardware/interfaces/neuralnetworks/aidl/utils/include/nnapi/hal/aidl/Conversions.h"
  },
  {
   "function_name" : "android::nn::toUnsigned",
   "linker_set_key" : "_ZN7android2nn10toUnsignedERKNSt3__16vectorIiNS1_9allocatorIiEEEE",
   "parameters" :
   [
    {
     "referenced_type" : "_ZTIRKNSt3__16vectorIiNS_9allocatorIiEEEE"
    }
   ],
   "return_type" : "_ZTIN7android4base8expectedINSt3__16vectorIjNS2_9allocatorIjEEEENS_2nn12GeneralErrorEEE",
   "source_file" : "hardware/interfaces/neuralnetworks/aidl/utils/include/nnapi/hal/aidl/Conversions.h"
  },
  {
   "function_name" : "android::nn::unvalidatedConvert",
   "linker_set_key" : "_ZN7android2nn18unvalidatedConvertERKN3ndk20ScopedFileDescriptorE",
   "parameters" :
   [
    {
     "referenced_type" : "_ZTIRKN3ndk20ScopedFileDescriptorE"
    }
   ],
   "return_type" : "_ZTIN7android4base8expectedINS_2nn9SyncFenceENS2_12GeneralErrorEEE",
   "source_file" : "hardware/interfaces/neuralnetworks/aidl/utils/include/nnapi/hal/aidl/Conversions.h"
  },
  {
   "function_name" : "android::nn::unvalidatedConvert",
   "linker_set_key" : "_ZN7android2nn18unvalidatedConvertERKN4aidl7android8hardware14neuralnetworks10BufferDescE",
   "parameters" :
   [
    {
     "referenced_type" : "_ZTIRKN4aidl7android8hardware14neuralnetworks10BufferDescE"
    }
   ],
   "return_type" : "_ZTIN7android4base8expectedINS_2nn10BufferDescENS2_12GeneralErrorEEE",
   "source_file" : "hardware/interfaces/neuralnetworks/aidl/utils/include/nnapi/hal/aidl/Conversions.h"
  },
  {
   "function_name" : "android::nn::unvalidatedConvert",
   "linker_set_key" : "_ZN7android2nn18unvalidatedConvertERKN4aidl7android8hardware14neuralnetworks10BufferRoleE",
   "parameters" :
   [
    {
     "referenced_type" : "_ZTIRKN4aidl7android8hardware14neuralnetworks10BufferRoleE"
    }
   ],
   "return_type" : "_ZTIN7android4base8expectedINS_2nn10BufferRoleENS2_12GeneralErrorEEE",
   "source_file" : "hardware/interfaces/neuralnetworks/aidl/utils/include/nnapi/hal/aidl/Conversions.h"
  },
  {
   "function_name" : "android::nn::unvalidatedConvert",
   "linker_set_key" : "_ZN7android2nn18unvalidatedConvertERKN4aidl7android8hardware14neuralnetworks10DeviceTypeE",
   "parameters" :
   [
    {
     "referenced_type" : "_ZTIRKN4aidl7android8hardware14neuralnetworks10DeviceTypeE"
    }
   ],
   "return_type" : "_ZTIN7android4base8expectedINS_2nn10DeviceTypeENS2_12GeneralErrorEEE",
   "source_file" : "hardware/interfaces/neuralnetworks/aidl/utils/include/nnapi/hal/aidl/Conversions.h"
  },
  {
   "function_name" : "android::nn::unvalidatedConvert",
   "linker_set_key" : "_ZN7android2nn18unvalidatedConvertERKN4aidl7android8hardware14neuralnetworks11ErrorStatusE",
   "parameters" :
   [
    {
     "referenced_type" : "_ZTIRKN4aidl7android8hardware14neuralnetworks11ErrorStatusE"
    }
   ],
   "return_type" : "_ZTIN7android4base8expectedINS_2nn11ErrorStatusENS2_12GeneralErrorEEE",
   "source_file" : "hardware/interfaces/neuralnetworks/aidl/utils/include/nnapi/hal/aidl/Conversions.h"
  },
  {
   "function_name" : "android::nn::unvalidatedConvert",
   "linker_set_key" : "_ZN7android2nn18unvalidatedConvertERKN4aidl7android8hardware14neuralnetworks11OperandTypeE",
   "parameters" :
   [
    {
     "referenced_type" : "_ZTIRKN4aidl7android8hardware14neuralnetworks11OperandTypeE"
    }
   ],
   "return_type" : "_ZTIN7android4base8expectedINS_2nn11OperandTypeENS2_12GeneralErrorEEE",
   "source_file" : "hardware/interfaces/neuralnetworks/aidl/utils/include/nnapi/hal/aidl/Conversions.h"
  },
  {
   "function_name" : "android::nn::unvalidatedConvert",
   "linker_set_key" : "_ZN7android2nn18unvalidatedConvertERKN4aidl7android8hardware14neuralnetworks11OutputShapeE",
   "parameters" :
   [
    {
     "referenced_type" : "_ZTIRKN4aidl7android8hardware14neuralnetworks11OutputShapeE"
    }
   ],
   "return_type" : "_ZTIN7android4base8expectedINS_2nn11OutputShapeENS2_12GeneralErrorEEE",
   "source_file" : "hardware/interfaces/neuralnetworks/aidl/utils/include/nnapi/hal/aidl/Conversions.h"
  },
  {
   "function_name" : "android::nn::unvalidatedConvert",
   "linker_set_key" : "_ZN7android2nn18unvalidatedConvertERKN4aidl7android8hardware14neuralnetworks12CapabilitiesE",
   "parameters" :
   [
    {
     "referenced_type" : "_ZTIRKN4aidl7android8hardware14neuralnetworks12CapabilitiesE"
    }
   ],
   "return_type" : "_ZTIN7android4base8expectedINS_2nn12CapabilitiesENS2_12GeneralErrorEEE",
   "source_file" : "hardware/interfaces/neuralnetworks/aidl/utils/include/nnapi/hal/aidl/Conversions.h"
  },
  {
   "function_name" : "android::nn::unvalidatedConvert",
   "linker_set_key" : "_ZN7android2nn18unvalidatedConvertERKN4aidl7android8hardware14neuralnetworks12DataLocationE",
   "parameters" :
   [
    {
     "referenced_type" : "_ZTIRKN4aidl7android8hardware14neuralnetworks12DataLocationE"
    }
   ],
   "return_type" : "_ZTIN7android4base8expectedINS_2nn12DataLocationENS2_12GeneralErrorEEE",
   "source_file" : "hardware/interfaces/neuralnetworks/aidl/utils/include/nnapi/hal/aidl/Conversions.h"
  },
  {
   "function_name" : "android::nn::unvalidatedConvert",
   "linker_set_key" : "_ZN7android2nn18unvalidatedConvertERKN4aidl7android8hardware14neuralnetworks13OperationTypeE",
   "parameters" :
   [
    {
     "referenced_type" : "_ZTIRKN4aidl7android8hardware14neuralnetworks13OperationTypeE"
    }
   ],
   "return_type" : "_ZTIN7android4base8expectedINS_2nn13OperationTypeENS2_12GeneralErrorEEE",
   "source_file" : "hardware/interfaces/neuralnetworks/aidl/utils/include/nnapi/hal/aidl/Conversions.h"
  },
  {
   "function_name" : "android::nn::unvalidatedConvert",
   "linker_set_key" : "_ZN7android2nn18unvalidatedConvertERKN4aidl7android8hardware14neuralnetworks15OperandLifeTimeE",
   "parameters" :
   [
    {
     "referenced_type" : "_ZTIRKN4aidl7android8hardware14neuralnetworks15OperandLifeTimeE"
    }
   ],
   "return_type" : "_ZTIN7android4base8expectedINS_2nn7Operand8LifeTimeENS2_12GeneralErrorEEE",
   "source_file" : "hardware/interfaces/neuralnetworks/aidl/utils/include/nnapi/hal/aidl/Conversions.h"
  },
  {
   "function_name" : "android::nn::unvalidatedConvert",
   "linker_set_key" : "_ZN7android2nn18unvalidatedConvertERKN4aidl7android8hardware14neuralnetworks15PerformanceInfoE",
   "parameters" :
   [
    {
     "referenced_type" : "_ZTIRKN4aidl7android8hardware14neuralnetworks15PerformanceInfoE"
    }
   ],
   "return_type" : "_ZTIN7android4base8expectedINS_2nn12Capabilities15PerformanceInfoENS2_12GeneralErrorEEE",
   "source_file" : "hardware/interfaces/neuralnetworks/aidl/utils/include/nnapi/hal/aidl/Conversions.h"
  },
  {
   "function_name" : "android::nn::unvalidatedConvert",
   "linker_set_key" : "_ZN7android2nn18unvalidatedConvertERKN4aidl7android8hardware14neuralnetworks15RequestArgumentE",
   "parameters" :
   [
    {
     "referenced_type" : "_ZTIRKN4aidl7android8hardware14neuralnetworks15RequestArgumentE"
    }
   ],
   "return_type" : "_ZTIN7android4base8expectedINS_2nn7Request8ArgumentENS2_12GeneralErrorEEE",
   "source_file" : "hardware/interfaces/neuralnetworks/aidl/utils/include/nnapi/hal/aidl/Conversions.h"
  },
  {
   "function_name" : "android::nn::unvalidatedConvert",
   "linker_set_key" : "_ZN7android2nn18unvalidatedConvertERKN4aidl7android8hardware14neuralnetworks17RequestMemoryPoolE",
   "parameters" :
   [
    {
     "referenced_type" : "_ZTIRKN4aidl7android8hardware14neuralnetworks17RequestMemoryPoolE"
    }
   ],
   "return_type" : "_ZTIN7android4base8expectedINSt3__17variantIJNS2_10shared_ptrIKNS_2nn6MemoryEEENS5_7Request17MemoryDomainTokenENS4_IKNS5_7IBufferEEEEEENS5_12GeneralErrorEEE",
   "source_file" : "hardware/interfaces/neuralnetworks/aidl/utils/include/nnapi/hal/aidl/Conversions.h"
  },
  {
   "function_name" : "android::nn::unvalidatedConvert",
   "linker_set_key" : "_ZN7android2nn18unvalidatedConvertERKN4aidl7android8hardware14neuralnetworks18OperandPerformanceE",
   "parameters" :
   [
    {
     "referenced_type" : "_ZTIRKN4aidl7android8hardware14neuralnetworks18OperandPerformanceE"
    }
   ],
   "return_type" : "_ZTIN7android4base8expectedINS_2nn12Capabilities18OperandPerformanceENS2_12GeneralErrorEEE",
   "source_file" : "hardware/interfaces/neuralnetworks/aidl/utils/include/nnapi/hal/aidl/Conversions.h"
  },
  {
   "function_name" : "android::nn::unvalidatedConvert",
   "linker_set_key" : "_ZN7android2nn18unvalidatedConvertERKN4aidl7android8hardware14neuralnetworks19ExecutionPreferenceE",
   "parameters" :
   [
    {
     "referenced_type" : "_ZTIRKN4aidl7android8hardware14neuralnetworks19ExecutionPreferenceE"
    }
   ],
   "return_type" : "_ZTIN7android4base8expectedINS_2nn19ExecutionPreferenceENS2_12GeneralErrorEEE",
   "source_file" : "hardware/interfaces/neuralnetworks/aidl/utils/include/nnapi/hal/aidl/Conversions.h"
  },
  {
   "function_name" : "android::nn::unvalidatedConvert",
   "linker_set_key" : "_ZN7android2nn18unvalidatedConvertERKN4aidl7android8hardware14neuralnetworks22ExtensionNameAndPrefixE",
   "parameters" :
   [
    {
     "referenced_type" : "_ZTIRKN4aidl7android8hardware14neuralnetworks22ExtensionNameAndPrefixE"
    }
   ],
   "return_type" : "_ZTIN7android4base8expectedINS_2nn5Model22ExtensionNameAndPrefixENS2_12GeneralErrorEEE",
   "source_file" : "hardware/interfaces/neuralnetworks/aidl/utils/include/nnapi/hal/aidl/Conversions.h"
  },
  {
   "function_name" : "android::nn::unvalidatedConvert",
   "linker_set_key" : "_ZN7android2nn18unvalidatedConvertERKN4aidl7android8hardware14neuralnetworks25SymmPerChannelQuantParamsE",
   "parameters" :
   [
    {
     "referenced_type" : "_ZTIRKN4aidl7android8hardware14neuralnetworks25SymmPerChannelQuantParamsE"
    }
   ],
   "return_type" : "_ZTIN7android4base8expectedINS_2nn7Operand25SymmPerChannelQuantParamsENS2_12GeneralErrorEEE",
   "source_file" : "hardware/interfaces/neuralnetworks/aidl/utils/include/nnapi/hal/aidl/Conversions.h"
  },
  {
   "function_name" : "android::nn::unvalidatedConvert",
   "linker_set_key" : "_ZN7android2nn18unvalidatedConvertERKN4aidl7android8hardware14neuralnetworks31ExtensionOperandTypeInformationE",
   "parameters" :
   [
    {
     "referenced_type" : "_ZTIRKN4aidl7android8hardware14neuralnetworks31ExtensionOperandTypeInformationE"
    }
   ],
   "return_type" : "_ZTIN7android4base8expectedINS_2nn9Extension22OperandTypeInformationENS2_12GeneralErrorEEE",
   "source_file" : "hardware/interfaces/neuralnetworks/aidl/utils/include/nnapi/hal/aidl/Conversions.h"
  },
  {
   "function_name" : "android::nn::unvalidatedConvert",
   "linker_set_key" : "_ZN7android2nn18unvalidatedConvertERKN4aidl7android8hardware14neuralnetworks5ModelE",
   "parameters" :
   [
    {
     "referenced_type" : "_ZTIRKN4aidl7android8hardware14neuralnetworks5ModelE"
    }
   ],
   "return_type" : "_ZTIN7android4base8expectedINS_2nn5ModelENS2_12GeneralErrorEEE",
   "source_file" : "hardware/interfaces/neuralnetworks/aidl/utils/include/nnapi/hal/aidl/Conversions.h"
  },
  {
   "function_name" : "android::nn::unvalidatedConvert",
   "linker_set_key" : "_ZN7android2nn18unvalidatedConvertERKN4aidl7android8hardware14neuralnetworks6MemoryE",
   "parameters" :
   [
    {
     "referenced_type" : "_ZTIRKN4aidl7android8hardware14neuralnetworks6MemoryE"
    }
   ],
   "return_type" : "_ZTIN7android4base8expectedINSt3__110shared_ptrIKNS_2nn6MemoryEEENS4_12GeneralErrorEEE",
   "source_file" : "hardware/interfaces/neuralnetworks/aidl/utils/include/nnapi/hal/aidl/Conversions.h"
  },
  {
   "function_name" : "android::nn::unvalidatedConvert",
   "linker_set_key" : "_ZN7android2nn18unvalidatedConvertERKN4aidl7android8hardware14neuralnetworks6TimingE",
   "parameters" :
   [
    {
     "referenced_type" : "_ZTIRKN4aidl7android8hardware14neuralnetworks6TimingE"
    }
   ],
   "return_type" : "_ZTIN7android4base8expectedINS_2nn6TimingENS2_12GeneralErrorEEE",
   "source_file" : "hardware/interfaces/neuralnetworks/aidl/utils/include/nnapi/hal/aidl/Conversions.h"
  },
  {
   "function_name" : "android::nn::unvalidatedConvert",
   "linker_set_key" : "_ZN7android2nn18unvalidatedConvertERKN4aidl7android8hardware14neuralnetworks7OperandE",
   "parameters" :
   [
    {
     "referenced_type" : "_ZTIRKN4aidl7android8hardware14neuralnetworks7OperandE"
    }
   ],
   "return_type" : "_ZTIN7android4base8expectedINS_2nn7OperandENS2_12GeneralErrorEEE",
   "source_file" : "hardware/interfaces/neuralnetworks/aidl/utils/include/nnapi/hal/aidl/Conversions.h"
  },
  {
   "function_name" : "android::nn::unvalidatedConvert",
   "linker_set_key" : "_ZN7android2nn18unvalidatedConvertERKN4aidl7android8hardware14neuralnetworks7RequestE",
   "parameters" :
   [
    {
     "referenced_type" : "_ZTIRKN4aidl7android8hardware14neuralnetworks7RequestE"
    }
   ],
   "return_type" : "_ZTIN7android4base8expectedINS_2nn7RequestENS2_12GeneralErrorEEE",
   "source_file" : "hardware/interfaces/neuralnetworks/aidl/utils/include/nnapi/hal/aidl/Conversions.h"
  },
  {
   "function_name" : "android::nn::unvalidatedConvert",
   "linker_set_key" : "_ZN7android2nn18unvalidatedConvertERKN4aidl7android8hardware14neuralnetworks8PriorityE",
   "parameters" :
   [
    {
     "referenced_type" : "_ZTIRKN4aidl7android8hardware14neuralnetworks8PriorityE"
    }
   ],
   "return_type" : "_ZTIN7android4base8expectedINS_2nn8PriorityENS2_12GeneralErrorEEE",
   "source_file" : "hardware/interfaces/neuralnetworks/aidl/utils/include/nnapi/hal/aidl/Conversions.h"
  },
  {
   "function_name" : "android::nn::unvalidatedConvert",
   "linker_set_key" : "_ZN7android2nn18unvalidatedConvertERKN4aidl7android8hardware14neuralnetworks8SubgraphE",
   "parameters" :
   [
    {
     "referenced_type" : "_ZTIRKN4aidl7android8hardware14neuralnetworks8SubgraphE"
    }
   ],
   "return_type" : "_ZTIN7android4base8expectedINS_2nn5Model8SubgraphENS2_12GeneralErrorEEE",
   "source_file" : "hardware/interfaces/neuralnetworks/aidl/utils/include/nnapi/hal/aidl/Conversions.h"
  },
  {
   "function_name" : "android::nn::unvalidatedConvert",
   "linker_set_key" : "_ZN7android2nn18unvalidatedConvertERKN4aidl7android8hardware14neuralnetworks9ExtensionE",
   "parameters" :
   [
    {
     "referenced_type" : "_ZTIRKN4aidl7android8hardware14neuralnetworks9ExtensionE"
    }
   ],
   "return_type" : "_ZTIN7android4base8expectedINS_2nn9ExtensionENS2_12GeneralErrorEEE",
   "source_file" : "hardware/interfaces/neuralnetworks/aidl/utils/include/nnapi/hal/aidl/Conversions.h"
  },
  {
   "function_name" : "android::nn::unvalidatedConvert",
   "linker_set_key" : "_ZN7android2nn18unvalidatedConvertERKN4aidl7android8hardware14neuralnetworks9OperationE",
   "parameters" :
   [
    {
     "referenced_type" : "_ZTIRKN4aidl7android8hardware14neuralnetworks9OperationE"
    }
   ],
   "return_type" : "_ZTIN7android4base8expectedINS_2nn9OperationENS2_12GeneralErrorEEE",
   "source_file" : "hardware/interfaces/neuralnetworks/aidl/utils/include/nnapi/hal/aidl/Conversions.h"
  },
  {
   "function_name" : "android::nn::unvalidatedConvert",
   "linker_set_key" : "_ZN7android2nn18unvalidatedConvertERKN4aidl7android8hardware6common12NativeHandleE",
   "parameters" :
   [
    {
     "referenced_type" : "_ZTIRKN4aidl7android8hardware6common12NativeHandleE"
    }
   ],
   "return_type" : "_ZTIN7android4base8expectedINSt3__110shared_ptrIKNS_2nn6HandleEEENS4_12GeneralErrorEEE",
   "source_file" : "hardware/interfaces/neuralnetworks/aidl/utils/include/nnapi/hal/aidl/Conversions.h"
  },
  {
   "function_name" : "android::nn::unvalidatedConvert",
   "linker_set_key" : "_ZN7android2nn18unvalidatedConvertERKNSt3__16vectorIN4aidl7android8hardware14neuralnetworks9OperationENS1_9allocatorIS7_EEEE",
   "parameters" :
   [
    {
     "referenced_type" : "_ZTIRKNSt3__16vectorIN4aidl7android8hardware14neuralnetworks9OperationENS_9allocatorIS5_EEEE"
    }
   ],
   "return_type" : "_ZTIN7android4base8expectedINSt3__16vectorINS_2nn9OperationENS2_9allocatorIS5_EEEENS4_12GeneralErrorEEE",
   "source_file" : "hardware/interfaces/neuralnetworks/aidl/utils/include/nnapi/hal/aidl/Conversions.h"
  },
  {
   "function_name" : "android::nn::unvalidatedConvert",
   "linker_set_key" : "_ZN7android2nn18unvalidatedConvertERKNSt3__16vectorIhNS1_9allocatorIhEEEE",
   "parameters" :
   [
    {
     "referenced_type" : "_ZTIRKNSt3__16vectorIhNS_9allocatorIhEEEE"
    }
   ],
   "return_type" : "_ZTIN7android4base8expectedINS_2nn5Model13OperandValuesENS2_12GeneralErrorEEE",
   "source_file" : "hardware/interfaces/neuralnetworks/aidl/utils/include/nnapi/hal/aidl/Conversions.h"
  },
  {
   "function_name" : "android::nn::unvalidatedConvert",
   "linker_set_key" : "_ZN7android2nn18unvalidatedConvertERKNSt3__18optionalIN4aidl7android8hardware14neuralnetworks18OperandExtraParamsEEE",
   "parameters" :
   [
    {
     "referenced_type" : "_ZTIRKNSt3__18optionalIN4aidl7android8hardware14neuralnetworks18OperandExtraParamsEEE"
    }
   ],
   "return_type" : "_ZTIN7android4base8expectedINSt3__17variantIJNS2_9monostateENS_2nn7Operand25SymmPerChannelQuantParamsENS2_6vectorIhNS2_9allocatorIhEEEEEEENS5_12GeneralErrorEEE",
   "source_file" : "hardware/interfaces/neuralnetworks/aidl/utils/include/nnapi/hal/aidl/Conversions.h"
  },
  {
   "function_name" : "android::nn::unvalidatedConvert",
   "linker_set_key" : "_ZN7android2nn18unvalidatedConvertEb",
   "parameters" :
   [
    {
     "referenced_type" : "_ZTIb"
    }
   ],
   "return_type" : "_ZTIN7android4base8expectedINS_2nn13MeasureTimingENS2_12GeneralErrorEEE",
   "source_file" : "hardware/interfaces/neuralnetworks/aidl/utils/include/nnapi/hal/aidl/Conversions.h"
  },
  {
   "function_name" : "android::nn::convert",
   "linker_set_key" : "_ZN7android2nn7convertERKN3ndk20ScopedFileDescriptorE",
   "parameters" :
   [
    {
     "referenced_type" : "_ZTIRKN3ndk20ScopedFileDescriptorE"
    }
   ],
   "return_type" : "_ZTIN7android4base8expectedINS_2nn9SyncFenceENS2_12GeneralErrorEEE",
   "source_file" : "hardware/interfaces/neuralnetworks/aidl/utils/include/nnapi/hal/aidl/Conversions.h"
  },
  {
   "function_name" : "android::nn::convert",
   "linker_set_key" : "_ZN7android2nn7convertERKN4aidl7android8hardware14neuralnetworks10DeviceTypeE",
   "parameters" :
   [
    {
     "referenced_type" : "_ZTIRKN4aidl7android8hardware14neuralnetworks10DeviceTypeE"
    }
   ],
   "return_type" : "_ZTIN7android4base8expectedINS_2nn10DeviceTypeENS2_12GeneralErrorEEE",
   "source_file" : "hardware/interfaces/neuralnetworks/aidl/utils/include/nnapi/hal/aidl/Conversions.h"
  },
  {
   "function_name" : "android::nn::convert",
   "linker_set_key" : "_ZN7android2nn7convertERKN4aidl7android8hardware14neuralnetworks11ErrorStatusE",
   "parameters" :
   [
    {
     "referenced_type" : "_ZTIRKN4aidl7android8hardware14neuralnetworks11ErrorStatusE"
    }
   ],
   "return_type" : "_ZTIN7android4base8expectedINS_2nn11ErrorStatusENS2_12GeneralErrorEEE",
   "source_file" : "hardware/interfaces/neuralnetworks/aidl/utils/include/nnapi/hal/aidl/Conversions.h"
  },
  {
   "function_name" : "android::nn::convert",
   "linker_set_key" : "_ZN7android2nn7convertERKN4aidl7android8hardware14neuralnetworks11OperandTypeE",
   "parameters" :
   [
    {
     "referenced_type" : "_ZTIRKN4aidl7android8hardware14neuralnetworks11OperandTypeE"
    }
   ],
   "return_type" : "_ZTIN7android4base8expectedINS_2nn11OperandTypeENS2_12GeneralErrorEEE",
   "source_file" : "hardware/interfaces/neuralnetworks/aidl/utils/include/nnapi/hal/aidl/Conversions.h"
  },
  {
   "function_name" : "android::nn::convert",
   "linker_set_key" : "_ZN7android2nn7convertERKN4aidl7android8hardware14neuralnetworks12CapabilitiesE",
   "parameters" :
   [
    {
     "referenced_type" : "_ZTIRKN4aidl7android8hardware14neuralnetworks12CapabilitiesE"
    }
   ],
   "return_type" : "_ZTIN7android4base8expectedINS_2nn12CapabilitiesENS2_12GeneralErrorEEE",
   "source_file" : "hardware/interfaces/neuralnetworks/aidl/utils/include/nnapi/hal/aidl/Conversions.h"
  },
  {
   "function_name" : "android::nn::convert",
   "linker_set_key" : "_ZN7android2nn7convertERKN4aidl7android8hardware14neuralnetworks19ExecutionPreferenceE",
   "parameters" :
   [
    {
     "referenced_type" : "_ZTIRKN4aidl7android8hardware14neuralnetworks19ExecutionPreferenceE"
    }
   ],
   "return_type" : "_ZTIN7android4base8expectedINS_2nn19ExecutionPreferenceENS2_12GeneralErrorEEE",
   "source_file" : "hardware/interfaces/neuralnetworks/aidl/utils/include/nnapi/hal/aidl/Conversions.h"
  },
  {
   "function_name" : "android::nn::convert",
   "linker_set_key" : "_ZN7android2nn7convertERKN4aidl7android8hardware14neuralnetworks5ModelE",
   "parameters" :
   [
    {
     "referenced_type" : "_ZTIRKN4aidl7android8hardware14neuralnetworks5ModelE"
    }
   ],
   "return_type" : "_ZTIN7android4base8expectedINS_2nn5ModelENS2_12GeneralErrorEEE",
   "source_file" : "hardware/interfaces/neuralnetworks/aidl/utils/include/nnapi/hal/aidl/Conversions.h"
  },
  {
   "function_name" : "android::nn::convert",
   "linker_set_key" : "_ZN7android2nn7convertERKN4aidl7android8hardware14neuralnetworks6MemoryE",
   "parameters" :
   [
    {
     "referenced_type" : "_ZTIRKN4aidl7android8hardware14neuralnetworks6MemoryE"
    }
   ],
   "return_type" : "_ZTIN7android4base8expectedINSt3__110shared_ptrIKNS_2nn6MemoryEEENS4_12GeneralErrorEEE",
   "source_file" : "hardware/interfaces/neuralnetworks/aidl/utils/include/nnapi/hal/aidl/Conversions.h"
  },
  {
   "function_name" : "android::nn::convert",
   "linker_set_key" : "_ZN7android2nn7convertERKN4aidl7android8hardware14neuralnetworks6TimingE",
   "parameters" :
   [
    {
     "referenced_type" : "_ZTIRKN4aidl7android8hardware14neuralnetworks6TimingE"
    }
   ],
   "return_type" : "_ZTIN7android4base8expectedINS_2nn6TimingENS2_12GeneralErrorEEE",
   "source_file" : "hardware/interfaces/neuralnetworks/aidl/utils/include/nnapi/hal/aidl/Conversions.h"
  },
  {
   "function_name" : "android::nn::convert",
   "linker_set_key" : "_ZN7android2nn7convertERKN4aidl7android8hardware14neuralnetworks7RequestE",
   "parameters" :
   [
    {
     "referenced_type" : "_ZTIRKN4aidl7android8hardware14neuralnetworks7RequestE"
    }
   ],
   "return_type" : "_ZTIN7android4base8expectedINS_2nn7RequestENS2_12GeneralErrorEEE",
   "source_file" : "hardware/interfaces/neuralnetworks/aidl/utils/include/nnapi/hal/aidl/Conversions.h"
  },
  {
   "function_name" : "android::nn::convert",
   "linker_set_key" : "_ZN7android2nn7convertERKN4aidl7android8hardware14neuralnetworks8PriorityE",
   "parameters" :
   [
    {
     "referenced_type" : "_ZTIRKN4aidl7android8hardware14neuralnetworks8PriorityE"
    }
   ],
   "return_type" : "_ZTIN7android4base8expectedINS_2nn8PriorityENS2_12GeneralErrorEEE",
   "source_file" : "hardware/interfaces/neuralnetworks/aidl/utils/include/nnapi/hal/aidl/Conversions.h"
  },
  {
   "function_name" : "android::nn::convert",
   "linker_set_key" : "_ZN7android2nn7convertERKNSt3__16vectorIN4aidl7android8hardware14neuralnetworks11OutputShapeENS1_9allocatorIS7_EEEE",
   "parameters" :
   [
    {
     "referenced_type" : "_ZTIRKNSt3__16vectorIN4aidl7android8hardware14neuralnetworks11OutputShapeENS_9allocatorIS5_EEEE"
    }
   ],
   "return_type" : "_ZTIN7android4base8expectedINSt3__16vectorINS_2nn11OutputShapeENS2_9allocatorIS5_EEEENS4_12GeneralErrorEEE",
   "source_file" : "hardware/interfaces/neuralnetworks/aidl/utils/include/nnapi/hal/aidl/Conversions.h"
  },
  {
   "function_name" : "android::nn::convert",
   "linker_set_key" : "_ZN7android2nn7convertERKNSt3__16vectorIN4aidl7android8hardware14neuralnetworks6MemoryENS1_9allocatorIS7_EEEE",
   "parameters" :
   [
    {
     "referenced_type" : "_ZTIRKNSt3__16vectorIN4aidl7android8hardware14neuralnetworks6MemoryENS_9allocatorIS5_EEEE"
    }
   ],
   "return_type" : "_ZTIN7android4base8expectedINSt3__16vectorINS2_10shared_ptrIKNS_2nn6MemoryEEENS2_9allocatorIS8_EEEENS5_12GeneralErrorEEE",
   "source_file" : "hardware/interfaces/neuralnetworks/aidl/utils/include/nnapi/hal/aidl/Conversions.h"
  },
  {
   "function_name" : "android::nn::convert",
   "linker_set_key" : "_ZN7android2nn7convertERKNSt3__16vectorIN4aidl7android8hardware14neuralnetworks9ExtensionENS1_9allocatorIS7_EEEE",
   "parameters" :
   [
    {
     "referenced_type" : "_ZTIRKNSt3__16vectorIN4aidl7android8hardware14neuralnetworks9ExtensionENS_9allocatorIS5_EEEE"
    }
   ],
   "return_type" : "_ZTIN7android4base8expectedINSt3__16vectorINS_2nn9ExtensionENS2_9allocatorIS5_EEEENS4_12GeneralErrorEEE",
   "source_file" : "hardware/interfaces/neuralnetworks/aidl/utils/include/nnapi/hal/aidl/Conversions.h"
  }
 ],
 "global_vars" :
 [
  {
   "linker_set_key" : "_ZN4aidl7android8hardware14neuralnetworks5utilsL16kDefaultPriorityE",
   "name" : "aidl::android::hardware::neuralnetworks::utils::kDefaultPriority",
   "referenced_type" : "_ZTIKN4aidl7android8hardware14neuralnetworks8PriorityE",
   "source_file" : "hardware/interfaces/neuralnetworks/aidl/utils/include/nnapi/hal/aidl/Utils.h"
  },
  {
   "linker_set_key" : "_ZN4aidl7android8hardware14neuralnetworks5utilsL8kVersionE",
   "name" : "aidl::android::hardware::neuralnetworks::utils::kVersion",
   "referenced_type" : "_ZTIKN7android2nn7VersionE",
   "source_file" : "hardware/interfaces/neuralnetworks/aidl/utils/include/nnapi/hal/aidl/Utils.h"
  }
 ],
 "lvalue_reference_types" :
 [
  {
   "alignment" : 4,
   "linker_set_key" : "_ZTIRKN3ndk20ScopedFileDescriptorE",
   "name" : "const ndk::ScopedFileDescriptor &",
   "referenced_type" : "_ZTIKN3ndk20ScopedFileDescriptorE",
   "self_type" : "_ZTIRKN3ndk20ScopedFileDescriptorE",
   "size" : 4,
   "source_file" : "hardware/interfaces/neuralnetworks/aidl/utils/include/nnapi/hal/aidl/Conversions.h"
  },
  {
   "alignment" : 4,
   "linker_set_key" : "_ZTIRKN4aidl7android8hardware14neuralnetworks10BufferDescE",
   "name" : "const aidl::android::hardware::neuralnetworks::BufferDesc &",
   "referenced_type" : "_ZTIKN4aidl7android8hardware14neuralnetworks10BufferDescE",
   "self_type" : "_ZTIRKN4aidl7android8hardware14neuralnetworks10BufferDescE",
   "size" : 4,
   "source_file" : "hardware/interfaces/neuralnetworks/aidl/utils/include/nnapi/hal/aidl/Conversions.h"
  },
  {
   "alignment" : 4,
   "linker_set_key" : "_ZTIRKN4aidl7android8hardware14neuralnetworks10BufferRoleE",
   "name" : "const aidl::android::hardware::neuralnetworks::BufferRole &",
   "referenced_type" : "_ZTIKN4aidl7android8hardware14neuralnetworks10BufferRoleE",
   "self_type" : "_ZTIRKN4aidl7android8hardware14neuralnetworks10BufferRoleE",
   "size" : 4,
   "source_file" : "hardware/interfaces/neuralnetworks/aidl/utils/include/nnapi/hal/aidl/Conversions.h"
  },
  {
   "alignment" : 4,
   "linker_set_key" : "_ZTIRKN4aidl7android8hardware14neuralnetworks10DeviceTypeE",
   "name" : "const aidl::android::hardware::neuralnetworks::DeviceType &",
   "referenced_type" : "_ZTIKN4aidl7android8hardware14neuralnetworks10DeviceTypeE",
   "self_type" : "_ZTIRKN4aidl7android8hardware14neuralnetworks10DeviceTypeE",
   "size" : 4,
   "source_file" : "hardware/interfaces/neuralnetworks/aidl/utils/include/nnapi/hal/aidl/Conversions.h"
  },
  {
   "alignment" : 4,
   "linker_set_key" : "_ZTIRKN4aidl7android8hardware14neuralnetworks11ErrorStatusE",
   "name" : "const aidl::android::hardware::neuralnetworks::ErrorStatus &",
   "referenced_type" : "_ZTIKN4aidl7android8hardware14neuralnetworks11ErrorStatusE",
   "self_type" : "_ZTIRKN4aidl7android8hardware14neuralnetworks11ErrorStatusE",
   "size" : 4,
   "source_file" : "hardware/interfaces/neuralnetworks/aidl/utils/include/nnapi/hal/aidl/Conversions.h"
  },
  {
   "alignment" : 4,
   "linker_set_key" : "_ZTIRKN4aidl7android8hardware14neuralnetworks11OperandTypeE",
   "name" : "const aidl::android::hardware::neuralnetworks::OperandType &",
   "referenced_type" : "_ZTIKN4aidl7android8hardware14neuralnetworks11OperandTypeE",
   "self_type" : "_ZTIRKN4aidl7android8hardware14neuralnetworks11OperandTypeE",
   "size" : 4,
   "source_file" : "hardware/interfaces/neuralnetworks/aidl/utils/include/nnapi/hal/aidl/Conversions.h"
  },
  {
   "alignment" : 4,
   "linker_set_key" : "_ZTIRKN4aidl7android8hardware14neuralnetworks11OutputShapeE",
   "name" : "const aidl::android::hardware::neuralnetworks::OutputShape &",
   "referenced_type" : "_ZTIKN4aidl7android8hardware14neuralnetworks11OutputShapeE",
   "self_type" : "_ZTIRKN4aidl7android8hardware14neuralnetworks11OutputShapeE",
   "size" : 4,
   "source_file" : "hardware/interfaces/neuralnetworks/aidl/utils/include/nnapi/hal/aidl/Conversions.h"
  },
  {
   "alignment" : 4,
   "linker_set_key" : "_ZTIRKN4aidl7android8hardware14neuralnetworks12CapabilitiesE",
   "name" : "const aidl::android::hardware::neuralnetworks::Capabilities &",
   "referenced_type" : "_ZTIKN4aidl7android8hardware14neuralnetworks12CapabilitiesE",
   "self_type" : "_ZTIRKN4aidl7android8hardware14neuralnetworks12CapabilitiesE",
   "size" : 4,
   "source_file" : "hardware/interfaces/neuralnetworks/aidl/utils/include/nnapi/hal/aidl/Conversions.h"
  },
  {
   "alignment" : 4,
   "linker_set_key" : "_ZTIRKN4aidl7android8hardware14neuralnetworks12DataLocationE",
   "name" : "const aidl::android::hardware::neuralnetworks::DataLocation &",
   "referenced_type" : "_ZTIKN4aidl7android8hardware14neuralnetworks12DataLocationE",
   "self_type" : "_ZTIRKN4aidl7android8hardware14neuralnetworks12DataLocationE",
   "size" : 4,
   "source_file" : "hardware/interfaces/neuralnetworks/aidl/utils/include/nnapi/hal/aidl/Conversions.h"
  },
  {
   "alignment" : 4,
   "linker_set_key" : "_ZTIRKN4aidl7android8hardware14neuralnetworks13OperationTypeE",
   "name" : "const aidl::android::hardware::neuralnetworks::OperationType &",
   "referenced_type" : "_ZTIKN4aidl7android8hardware14neuralnetworks13OperationTypeE",
   "self_type" : "_ZTIRKN4aidl7android8hardware14neuralnetworks13OperationTypeE",
   "size" : 4,
   "source_file" : "hardware/interfaces/neuralnetworks/aidl/utils/include/nnapi/hal/aidl/Conversions.h"
  },
  {
   "alignment" : 4,
   "linker_set_key" : "_ZTIRKN4aidl7android8hardware14neuralnetworks15OperandLifeTimeE",
   "name" : "const aidl::android::hardware::neuralnetworks::OperandLifeTime &",
   "referenced_type" : "_ZTIKN4aidl7android8hardware14neuralnetworks15OperandLifeTimeE",
   "self_type" : "_ZTIRKN4aidl7android8hardware14neuralnetworks15OperandLifeTimeE",
   "size" : 4,
   "source_file" : "hardware/interfaces/neuralnetworks/aidl/utils/include/nnapi/hal/aidl/Conversions.h"
  },
  {
   "alignment" : 4,
   "linker_set_key" : "_ZTIRKN4aidl7android8hardware14neuralnetworks15PerformanceInfoE",
   "name" : "const aidl::android::hardware::neuralnetworks::PerformanceInfo &",
   "referenced_type" : "_ZTIKN4aidl7android8hardware14neuralnetworks15PerformanceInfoE",
   "self_type" : "_ZTIRKN4aidl7android8hardware14neuralnetworks15PerformanceInfoE",
   "size" : 4,
   "source_file" : "hardware/interfaces/neuralnetworks/aidl/utils/include/nnapi/hal/aidl/Conversions.h"
  },
  {
   "alignment" : 4,
   "linker_set_key" : "_ZTIRKN4aidl7android8hardware14neuralnetworks15RequestArgumentE",
   "name" : "const aidl::android::hardware::neuralnetworks::RequestArgument &",
   "referenced_type" : "_ZTIKN4aidl7android8hardware14neuralnetworks15RequestArgumentE",
   "self_type" : "_ZTIRKN4aidl7android8hardware14neuralnetworks15RequestArgumentE",
   "size" : 4,
   "source_file" : "hardware/interfaces/neuralnetworks/aidl/utils/include/nnapi/hal/aidl/Conversions.h"
  },
  {
   "alignment" : 4,
   "linker_set_key" : "_ZTIRKN4aidl7android8hardware14neuralnetworks17RequestMemoryPoolE",
   "name" : "const aidl::android::hardware::neuralnetworks::RequestMemoryPool &",
   "referenced_type" : "_ZTIKN4aidl7android8hardware14neuralnetworks17RequestMemoryPoolE",
   "self_type" : "_ZTIRKN4aidl7android8hardware14neuralnetworks17RequestMemoryPoolE",
   "size" : 4,
   "source_file" : "hardware/interfaces/neuralnetworks/aidl/utils/include/nnapi/hal/aidl/Conversions.h"
  },
  {
   "alignment" : 4,
   "linker_set_key" : "_ZTIRKN4aidl7android8hardware14neuralnetworks18OperandPerformanceE",
   "name" : "const aidl::android::hardware::neuralnetworks::OperandPerformance &",
   "referenced_type" : "_ZTIKN4aidl7android8hardware14neuralnetworks18OperandPerformanceE",
   "self_type" : "_ZTIRKN4aidl7android8hardware14neuralnetworks18OperandPerformanceE",
   "size" : 4,
   "source_file" : "hardware/interfaces/neuralnetworks/aidl/utils/include/nnapi/hal/aidl/Conversions.h"
  },
  {
   "alignment" : 4,
   "linker_set_key" : "_ZTIRKN4aidl7android8hardware14neuralnetworks19ExecutionPreferenceE",
   "name" : "const aidl::android::hardware::neuralnetworks::ExecutionPreference &",
   "referenced_type" : "_ZTIKN4aidl7android8hardware14neuralnetworks19ExecutionPreferenceE",
   "self_type" : "_ZTIRKN4aidl7android8hardware14neuralnetworks19ExecutionPreferenceE",
   "size" : 4,
   "source_file" : "hardware/interfaces/neuralnetworks/aidl/utils/include/nnapi/hal/aidl/Conversions.h"
  },
  {
   "alignment" : 4,
   "linker_set_key" : "_ZTIRKN4aidl7android8hardware14neuralnetworks22ExtensionNameAndPrefixE",
   "name" : "const aidl::android::hardware::neuralnetworks::ExtensionNameAndPrefix &",
   "referenced_type" : "_ZTIKN4aidl7android8hardware14neuralnetworks22ExtensionNameAndPrefixE",
   "self_type" : "_ZTIRKN4aidl7android8hardware14neuralnetworks22ExtensionNameAndPrefixE",
   "size" : 4,
   "source_file" : "hardware/interfaces/neuralnetworks/aidl/utils/include/nnapi/hal/aidl/Conversions.h"
  },
  {
   "alignment" : 4,
   "linker_set_key" : "_ZTIRKN4aidl7android8hardware14neuralnetworks25SymmPerChannelQuantParamsE",
   "name" : "const aidl::android::hardware::neuralnetworks::SymmPerChannelQuantParams &",
   "referenced_type" : "_ZTIKN4aidl7android8hardware14neuralnetworks25SymmPerChannelQuantParamsE",
   "self_type" : "_ZTIRKN4aidl7android8hardware14neuralnetworks25SymmPerChannelQuantParamsE",
   "size" : 4,
   "source_file" : "hardware/interfaces/neuralnetworks/aidl/utils/include/nnapi/hal/aidl/Conversions.h"
  },
  {
   "alignment" : 4,
   "linker_set_key" : "_ZTIRKN4aidl7android8hardware14neuralnetworks31ExtensionOperandTypeInformationE",
   "name" : "const aidl::android::hardware::neuralnetworks::ExtensionOperandTypeInformation &",
   "referenced_type" : "_ZTIKN4aidl7android8hardware14neuralnetworks31ExtensionOperandTypeInformationE",
   "self_type" : "_ZTIRKN4aidl7android8hardware14neuralnetworks31ExtensionOperandTypeInformationE",
   "size" : 4,
   "source_file" : "hardware/interfaces/neuralnetworks/aidl/utils/include/nnapi/hal/aidl/Conversions.h"
  },
  {
   "alignment" : 4,
   "linker_set_key" : "_ZTIRKN4aidl7android8hardware14neuralnetworks5ModelE",
   "name" : "const aidl::android::hardware::neuralnetworks::Model &",
   "referenced_type" : "_ZTIKN4aidl7android8hardware14neuralnetworks5ModelE",
   "self_type" : "_ZTIRKN4aidl7android8hardware14neuralnetworks5ModelE",
   "size" : 4,
   "source_file" : "hardware/interfaces/neuralnetworks/aidl/utils/include/nnapi/hal/aidl/Conversions.h"
  },
  {
   "alignment" : 4,
   "linker_set_key" : "_ZTIRKN4aidl7android8hardware14neuralnetworks6MemoryE",
   "name" : "const aidl::android::hardware::neuralnetworks::Memory &",
   "referenced_type" : "_ZTIKN4aidl7android8hardware14neuralnetworks6MemoryE",
   "self_type" : "_ZTIRKN4aidl7android8hardware14neuralnetworks6MemoryE",
   "size" : 4,
   "source_file" : "hardware/interfaces/neuralnetworks/aidl/utils/include/nnapi/hal/aidl/Conversions.h"
  },
  {
   "alignment" : 4,
   "linker_set_key" : "_ZTIRKN4aidl7android8hardware14neuralnetworks6TimingE",
   "name" : "const aidl::android::hardware::neuralnetworks::Timing &",
   "referenced_type" : "_ZTIKN4aidl7android8hardware14neuralnetworks6TimingE",
   "self_type" : "_ZTIRKN4aidl7android8hardware14neuralnetworks6TimingE",
   "size" : 4,
   "source_file" : "hardware/interfaces/neuralnetworks/aidl/utils/include/nnapi/hal/aidl/Conversions.h"
  },
  {
   "alignment" : 4,
   "linker_set_key" : "_ZTIRKN4aidl7android8hardware14neuralnetworks7OperandE",
   "name" : "const aidl::android::hardware::neuralnetworks::Operand &",
   "referenced_type" : "_ZTIKN4aidl7android8hardware14neuralnetworks7OperandE",
   "self_type" : "_ZTIRKN4aidl7android8hardware14neuralnetworks7OperandE",
   "size" : 4,
   "source_file" : "hardware/interfaces/neuralnetworks/aidl/utils/include/nnapi/hal/aidl/Conversions.h"
  },
  {
   "alignment" : 4,
   "linker_set_key" : "_ZTIRKN4aidl7android8hardware14neuralnetworks7RequestE",
   "name" : "const aidl::android::hardware::neuralnetworks::Request &",
   "referenced_type" : "_ZTIKN4aidl7android8hardware14neuralnetworks7RequestE",
   "self_type" : "_ZTIRKN4aidl7android8hardware14neuralnetworks7RequestE",
   "size" : 4,
   "source_file" : "hardware/interfaces/neuralnetworks/aidl/utils/include/nnapi/hal/aidl/Conversions.h"
  },
  {
   "alignment" : 4,
   "linker_set_key" : "_ZTIRKN4aidl7android8hardware14neuralnetworks8PriorityE",
   "name" : "const aidl::android::hardware::neuralnetworks::Priority &",
   "referenced_type" : "_ZTIKN4aidl7android8hardware14neuralnetworks8PriorityE",
   "self_type" : "_ZTIRKN4aidl7android8hardware14neuralnetworks8PriorityE",
   "size" : 4,
   "source_file" : "hardware/interfaces/neuralnetworks/aidl/utils/include/nnapi/hal/aidl/Conversions.h"
  },
  {
   "alignment" : 4,
   "linker_set_key" : "_ZTIRKN4aidl7android8hardware14neuralnetworks8SubgraphE",
   "name" : "const aidl::android::hardware::neuralnetworks::Subgraph &",
   "referenced_type" : "_ZTIKN4aidl7android8hardware14neuralnetworks8SubgraphE",
   "self_type" : "_ZTIRKN4aidl7android8hardware14neuralnetworks8SubgraphE",
   "size" : 4,
   "source_file" : "hardware/interfaces/neuralnetworks/aidl/utils/include/nnapi/hal/aidl/Conversions.h"
  },
  {
   "alignment" : 4,
   "linker_set_key" : "_ZTIRKN4aidl7android8hardware14neuralnetworks9ExtensionE",
   "name" : "const aidl::android::hardware::neuralnetworks::Extension &",
   "referenced_type" : "_ZTIKN4aidl7android8hardware14neuralnetworks9ExtensionE",
   "self_type" : "_ZTIRKN4aidl7android8hardware14neuralnetworks9ExtensionE",
   "size" : 4,
   "source_file" : "hardware/interfaces/neuralnetworks/aidl/utils/include/nnapi/hal/aidl/Conversions.h"
  },
  {
   "alignment" : 4,
   "linker_set_key" : "_ZTIRKN4aidl7android8hardware14neuralnetworks9OperationE",
   "name" : "const aidl::android::hardware::neuralnetworks::Operation &",
   "referenced_type" : "_ZTIKN4aidl7android8hardware14neuralnetworks9OperationE",
   "self_type" : "_ZTIRKN4aidl7android8hardware14neuralnetworks9OperationE",
   "size" : 4,
   "source_file" : "hardware/interfaces/neuralnetworks/aidl/utils/include/nnapi/hal/aidl/Conversions.h"
  },
  {
   "alignment" : 4,
   "linker_set_key" : "_ZTIRKN4aidl7android8hardware6common12NativeHandleE",
   "name" : "const aidl::android::hardware::common::NativeHandle &",
   "referenced_type" : "_ZTIKN4aidl7android8hardware6common12NativeHandleE",
   "self_type" : "_ZTIRKN4aidl7android8hardware6common12NativeHandleE",
   "size" : 4,
   "source_file" : "hardware/interfaces/neuralnetworks/aidl/utils/include/nnapi/hal/aidl/Conversions.h"
  },
  {
   "alignment" : 4,
   "linker_set_key" : "_ZTIRKN7android2nn10BufferDescE",
   "name" : "const android::nn::BufferDesc &",
   "referenced_type" : "_ZTIKN7android2nn10BufferDescE",
   "self_type" : "_ZTIRKN7android2nn10BufferDescE",
   "size" : 4,
   "source_file" : "hardware/interfaces/neuralnetworks/aidl/utils/include/nnapi/hal/aidl/Conversions.h"
  },
  {
   "alignment" : 4,
   "linker_set_key" : "_ZTIRKN7android2nn10BufferRoleE",
   "name" : "const android::nn::BufferRole &",
   "referenced_type" : "_ZTIKN7android2nn10BufferRoleE",
   "self_type" : "_ZTIRKN7android2nn10BufferRoleE",
   "size" : 4,
   "source_file" : "hardware/interfaces/neuralnetworks/aidl/utils/include/nnapi/hal/aidl/Conversions.h"
  },
  {
   "alignment" : 4,
   "linker_set_key" : "_ZTIRKN7android2nn10DeviceTypeE",
   "name" : "const android::nn::DeviceType &",
   "referenced_type" : "_ZTIKN7android2nn10DeviceTypeE",
   "self_type" : "_ZTIRKN7android2nn10DeviceTypeE",
   "size" : 4,
   "source_file" : "hardware/interfaces/neuralnetworks/aidl/utils/include/nnapi/hal/aidl/Utils.h"
  },
  {
   "alignment" : 4,
   "linker_set_key" : "_ZTIRKN7android2nn11ErrorStatusE",
   "name" : "const android::nn::ErrorStatus &",
   "referenced_type" : "_ZTIKN7android2nn11ErrorStatusE",
   "self_type" : "_ZTIRKN7android2nn11ErrorStatusE",
   "size" : 4,
   "source_file" : "hardware/interfaces/neuralnetworks/aidl/utils/include/nnapi/hal/aidl/Conversions.h"
  },
  {
   "alignment" : 4,
   "linker_set_key" : "_ZTIRKN7android2nn11OperandTypeE",
   "name" : "const android::nn::OperandType &",
   "referenced_type" : "_ZTIKN7android2nn11OperandTypeE",
   "self_type" : "_ZTIRKN7android2nn11OperandTypeE",
   "size" : 4,
   "source_file" : "hardware/interfaces/neuralnetworks/aidl/utils/include/nnapi/hal/aidl/Conversions.h"
  },
  {
   "alignment" : 4,
   "linker_set_key" : "_ZTIRKN7android2nn11OutputShapeE",
   "name" : "const android::nn::OutputShape &",
   "referenced_type" : "_ZTIKN7android2nn11OutputShapeE",
   "self_type" : "_ZTIRKN7android2nn11OutputShapeE",
   "size" : 4,
   "source_file" : "hardware/interfaces/neuralnetworks/aidl/utils/include/nnapi/hal/aidl/Conversions.h"
  },
  {
   "alignment" : 4,
   "linker_set_key" : "_ZTIRKN7android2nn12CapabilitiesE",
   "name" : "const android::nn::Capabilities &",
   "referenced_type" : "_ZTIKN7android2nn12CapabilitiesE",
   "self_type" : "_ZTIRKN7android2nn12CapabilitiesE",
   "size" : 4,
   "source_file" : "hardware/interfaces/neuralnetworks/aidl/utils/include/nnapi/hal/aidl/Utils.h"
  },
  {
   "alignment" : 4,
   "linker_set_key" : "_ZTIRKN7android2nn12DataLocationE",
   "name" : "const android::nn::DataLocation &",
   "referenced_type" : "_ZTIKN7android2nn12DataLocationE",
   "self_type" : "_ZTIRKN7android2nn12DataLocationE",
   "size" : 4,
   "source_file" : "hardware/interfaces/neuralnetworks/aidl/utils/include/nnapi/hal/aidl/Conversions.h"
  },
  {
   "alignment" : 4,
   "linker_set_key" : "_ZTIRKN7android2nn13MeasureTimingE",
   "name" : "const android::nn::MeasureTiming &",
   "referenced_type" : "_ZTIKN7android2nn13MeasureTimingE",
   "self_type" : "_ZTIRKN7android2nn13MeasureTimingE",
   "size" : 4,
   "source_file" : "hardware/interfaces/neuralnetworks/aidl/utils/include/nnapi/hal/aidl/Conversions.h"
  },
  {
   "alignment" : 4,
   "linker_set_key" : "_ZTIRKN7android2nn13OperationTypeE",
   "name" : "const android::nn::OperationType &",
   "referenced_type" : "_ZTIKN7android2nn13OperationTypeE",
   "self_type" : "_ZTIRKN7android2nn13OperationTypeE",
   "size" : 4,
   "source_file" : "hardware/interfaces/neuralnetworks/aidl/utils/include/nnapi/hal/aidl/Conversions.h"
  },
  {
   "alignment" : 4,
   "linker_set_key" : "_ZTIRKN7android2nn19ExecutionPreferenceE",
   "name" : "const android::nn::ExecutionPreference &",
   "referenced_type" : "_ZTIKN7android2nn19ExecutionPreferenceE",
   "self_type" : "_ZTIRKN7android2nn19ExecutionPreferenceE",
   "size" : 4,
   "source_file" : "hardware/interfaces/neuralnetworks/aidl/utils/include/nnapi/hal/aidl/Conversions.h"
  },
  {
   "alignment" : 4,
   "linker_set_key" : "_ZTIRKN7android2nn5Model13OperandValuesE",
   "name" : "const android::nn::Model::OperandValues &",
   "referenced_type" : "_ZTIKN7android2nn5Model13OperandValuesE",
   "self_type" : "_ZTIRKN7android2nn5Model13OperandValuesE",
   "size" : 4,
   "source_file" : "hardware/interfaces/neuralnetworks/aidl/utils/include/nnapi/hal/aidl/Conversions.h"
  },
  {
   "alignment" : 4,
   "linker_set_key" : "_ZTIRKN7android2nn5Model22ExtensionNameAndPrefixE",
   "name" : "const android::nn::Model::ExtensionNameAndPrefix &",
   "referenced_type" : "_ZTIKN7android2nn5Model22ExtensionNameAndPrefixE",
   "self_type" : "_ZTIRKN7android2nn5Model22ExtensionNameAndPrefixE",
   "size" : 4,
   "source_file" : "hardware/interfaces/neuralnetworks/aidl/utils/include/nnapi/hal/aidl/Conversions.h"
  },
  {
   "alignment" : 4,
   "linker_set_key" : "_ZTIRKN7android2nn5Model8SubgraphE",
   "name" : "const android::nn::Model::Subgraph &",
   "referenced_type" : "_ZTIKN7android2nn5Model8SubgraphE",
   "self_type" : "_ZTIRKN7android2nn5Model8SubgraphE",
   "size" : 4,
   "source_file" : "hardware/interfaces/neuralnetworks/aidl/utils/include/nnapi/hal/aidl/Conversions.h"
  },
  {
   "alignment" : 4,
   "linker_set_key" : "_ZTIRKN7android2nn5ModelE",
   "name" : "const android::nn::Model &",
   "referenced_type" : "_ZTIKN7android2nn5ModelE",
   "self_type" : "_ZTIRKN7android2nn5ModelE",
   "size" : 4,
   "source_file" : "hardware/interfaces/neuralnetworks/aidl/utils/include/nnapi/hal/aidl/Conversions.h"
  },
  {
   "alignment" : 4,
   "linker_set_key" : "_ZTIRKN7android2nn6TimingE",
   "name" : "const android::nn::Timing &",
   "referenced_type" : "_ZTIKN7android2nn6TimingE",
   "self_type" : "_ZTIRKN7android2nn6TimingE",
   "size" : 4,
   "source_file" : "hardware/interfaces/neuralnetworks/aidl/utils/include/nnapi/hal/aidl/Conversions.h"
  },
  {
   "alignment" : 4,
   "linker_set_key" : "_ZTIRKN7android2nn7Operand8LifeTimeE",
   "name" : "const android::nn::Operand::LifeTime &",
   "referenced_type" : "_ZTIKN7android2nn7Operand8LifeTimeE",
   "self_type" : "_ZTIRKN7android2nn7Operand8LifeTimeE",
   "size" : 4,
   "source_file" : "hardware/interfaces/neuralnetworks/aidl/utils/include/nnapi/hal/aidl/Conversions.h"
  },
  {
   "alignment" : 4,
   "linker_set_key" : "_ZTIRKN7android2nn7OperandE",
   "name" : "const android::nn::Operand &",
   "referenced_type" : "_ZTIKN7android2nn7OperandE",
   "self_type" : "_ZTIRKN7android2nn7OperandE",
   "size" : 4,
   "source_file" : "hardware/interfaces/neuralnetworks/aidl/utils/include/nnapi/hal/aidl/Conversions.h"
  },
  {
   "alignment" : 4,
   "linker_set_key" : "_ZTIRKN7android2nn7Request8ArgumentE",
   "name" : "const android::nn::Request::Argument &",
   "referenced_type" : "_ZTIKN7android2nn7Request8ArgumentE",
   "self_type" : "_ZTIRKN7android2nn7Request8ArgumentE",
   "size" : 4,
   "source_file" : "hardware/interfaces/neuralnetworks/aidl/utils/include/nnapi/hal/aidl/Conversions.h"
  },
  {
   "alignment" : 4,
   "linker_set_key" : "_ZTIRKN7android2nn7RequestE",
   "name" : "const android::nn::Request &",
   "referenced_type" : "_ZTIKN7android2nn7RequestE",
   "self_type" : "_ZTIRKN7android2nn7RequestE",
   "size" : 4,
   "source_file" : "hardware/interfaces/neuralnetworks/aidl/utils/include/nnapi/hal/aidl/Conversions.h"
  },
  {
   "alignment" : 4,
   "linker_set_key" : "_ZTIRKN7android2nn8PriorityE",
   "name" : "const android::nn::Priority &",
   "referenced_type" : "_ZTIKN7android2nn8PriorityE",
   "self_type" : "_ZTIRKN7android2nn8PriorityE",
   "size" : 4,
   "source_file" : "hardware/interfaces/neuralnetworks/aidl/utils/include/nnapi/hal/aidl/Conversions.h"
  },
  {
   "alignment" : 4,
   "linker_set_key" : "_ZTIRKN7android2nn9ExtensionE",
   "name" : "const android::nn::Extension &",
   "referenced_type" : "_ZTIKN7android2nn9ExtensionE",
   "self_type" : "_ZTIRKN7android2nn9ExtensionE",
   "size" : 4,
   "source_file" : "hardware/interfaces/neuralnetworks/aidl/utils/include/nnapi/hal/aidl/Utils.h"
  },
  {
   "alignment" : 4,
   "linker_set_key" : "_ZTIRKN7android2nn9OperationE",
   "name" : "const android::nn::Operation &",
   "referenced_type" : "_ZTIKN7android2nn9OperationE",
   "self_type" : "_ZTIRKN7android2nn9OperationE",
   "size" : 4,
   "source_file" : "hardware/interfaces/neuralnetworks/aidl/utils/include/nnapi/hal/aidl/Conversions.h"
  },
  {
   "alignment" : 4,
   "linker_set_key" : "_ZTIRKN7android2nn9SyncFenceE",
   "name" : "const android::nn::SyncFence &",
   "referenced_type" : "_ZTIKN7android2nn9SyncFenceE",
   "self_type" : "_ZTIRKN7android2nn9SyncFenceE",
   "size" : 4,
   "source_file" : "hardware/interfaces/neuralnetworks/aidl/utils/include/nnapi/hal/aidl/Conversions.h"
  },
  {
   "alignment" : 4,
   "linker_set_key" : "_ZTIRKNSt3__110shared_ptrIKN7android2nn6HandleEEE",
   "name" : "const std::shared_ptr<const android::nn::Handle> &",
   "referenced_type" : "_ZTIKNSt3__110shared_ptrIKN7android2nn6HandleEEE",
   "self_type" : "_ZTIRKNSt3__110shared_ptrIKN7android2nn6HandleEEE",
   "size" : 4,
   "source_file" : "hardware/interfaces/neuralnetworks/aidl/utils/include/nnapi/hal/aidl/Conversions.h"
  },
  {
   "alignment" : 4,
   "linker_set_key" : "_ZTIRKNSt3__110shared_ptrIKN7android2nn6MemoryEEE",
   "name" : "const std::shared_ptr<const android::nn::Memory> &",
   "referenced_type" : "_ZTIKNSt3__110shared_ptrIKN7android2nn6MemoryEEE",
   "self_type" : "_ZTIRKNSt3__110shared_ptrIKN7android2nn6MemoryEEE",
   "size" : 4,
   "source_file" : "hardware/interfaces/neuralnetworks/aidl/utils/include/nnapi/hal/aidl/Conversions.h"
  },
  {
   "alignment" : 4,
   "linker_set_key" : "_ZTIRKNSt3__15arrayIhLj32EEE",
   "name" : "const std::array<unsigned char, 32> &",
   "referenced_type" : "_ZTIKNSt3__15arrayIhLj32EEE",
   "self_type" : "_ZTIRKNSt3__15arrayIhLj32EEE",
   "size" : 4,
   "source_file" : "hardware/interfaces/neuralnetworks/aidl/utils/include/nnapi/hal/aidl/Conversions.h"
  },
  {
   "alignment" : 4,
   "linker_set_key" : "_ZTIRKNSt3__16chrono8durationIxNS_5ratioILx1ELx1000000000EEEEE",
   "name" : "const std::chrono::duration<long long, std::ratio<1, 1000000000>> &",
   "referenced_type" : "_ZTIKNSt3__16chrono8durationIxNS_5ratioILx1ELx1000000000EEEEE",
   "self_type" : "_ZTIRKNSt3__16chrono8durationIxNS_5ratioILx1ELx1000000000EEEEE",
   "size" : 4,
   "source_file" : "hardware/interfaces/neuralnetworks/aidl/utils/include/nnapi/hal/aidl/Conversions.h"
  },
  {
   "alignment" : 4,
   "linker_set_key" : "_ZTIRKNSt3__16vectorIN4aidl7android8hardware14neuralnetworks11OutputShapeENS_9allocatorIS5_EEEE",
   "name" : "const std::vector<aidl::android::hardware::neuralnetworks::OutputShape, std::allocator<aidl::android::hardware::neuralnetworks::OutputShape>> &",
   "referenced_type" : "_ZTIKNSt3__16vectorIN4aidl7android8hardware14neuralnetworks11OutputShapeENS_9allocatorIS5_EEEE",
   "self_type" : "_ZTIRKNSt3__16vectorIN4aidl7android8hardware14neuralnetworks11OutputShapeENS_9allocatorIS5_EEEE",
   "size" : 4,
   "source_file" : "hardware/interfaces/neuralnetworks/aidl/utils/include/nnapi/hal/aidl/Conversions.h"
  },
  {
   "alignment" : 4,
   "linker_set_key" : "_ZTIRKNSt3__16vectorIN4aidl7android8hardware14neuralnetworks6MemoryENS_9allocatorIS5_EEEE",
   "name" : "const std::vector<aidl::android::hardware::neuralnetworks::Memory, std::allocator<aidl::android::hardware::neuralnetworks::Memory>> &",
   "referenced_type" : "_ZTIKNSt3__16vectorIN4aidl7android8hardware14neuralnetworks6MemoryENS_9allocatorIS5_EEEE",
   "self_type" : "_ZTIRKNSt3__16vectorIN4aidl7android8hardware14neuralnetworks6MemoryENS_9allocatorIS5_EEEE",
   "size" : 4,
   "source_file" : "hardware/interfaces/neuralnetworks/aidl/utils/include/nnapi/hal/aidl/Conversions.h"
  },
  {
   "alignment" : 4,
   "linker_set_key" : "_ZTIRKNSt3__16vectorIN4aidl7android8hardware14neuralnetworks9ExtensionENS_9allocatorIS5_EEEE",
   "name" : "const std::vector<aidl::android::hardware::neuralnetworks::Extension, std::allocator<aidl::android::hardware::neuralnetworks::Extension>> &",
   "referenced_type" : "_ZTIKNSt3__16vectorIN4aidl7android8hardware14neuralnetworks9ExtensionENS_9allocatorIS5_EEEE",
   "self_type" : "_ZTIRKNSt3__16vectorIN4aidl7android8hardware14neuralnetworks9ExtensionENS_9allocatorIS5_EEEE",
   "size" : 4,
   "source_file" : "hardware/interfaces/neuralnetworks/aidl/utils/include/nnapi/hal/aidl/Conversions.h"
  },
  {
   "alignment" : 4,
   "linker_set_key" : "_ZTIRKNSt3__16vectorIN4aidl7android8hardware14neuralnetworks9OperationENS_9allocatorIS5_EEEE",
   "name" : "const std::vector<aidl::android::hardware::neuralnetworks::Operation, std::allocator<aidl::android::hardware::neuralnetworks::Operation>> &",
   "referenced_type" : "_ZTIKNSt3__16vectorIN4aidl7android8hardware14neuralnetworks9OperationENS_9allocatorIS5_EEEE",
   "self_type" : "_ZTIRKNSt3__16vectorIN4aidl7android8hardware14neuralnetworks9OperationENS_9allocatorIS5_EEEE",
   "size" : 4,
   "source_file" : "hardware/interfaces/neuralnetworks/aidl/utils/include/nnapi/hal/aidl/Conversions.h"
  },
  {
   "alignment" : 4,
   "linker_set_key" : "_ZTIRKNSt3__16vectorIN7android2nn10BufferRoleENS_9allocatorIS3_EEEE",
   "name" : "const std::vector<android::nn::BufferRole, std::allocator<android::nn::BufferRole>> &",
   "referenced_type" : "_ZTIKNSt3__16vectorIN7android2nn10BufferRoleENS_9allocatorIS3_EEEE",
   "self_type" : "_ZTIRKNSt3__16vectorIN7android2nn10BufferRoleENS_9allocatorIS3_EEEE",
   "size" : 4,
   "source_file" : "hardware/interfaces/neuralnetworks/aidl/utils/include/nnapi/hal/aidl/Conversions.h"
  },
  {
   "alignment" : 4,
   "linker_set_key" : "_ZTIRKNSt3__16vectorIN7android2nn11OutputShapeENS_9allocatorIS3_EEEE",
   "name" : "const std::vector<android::nn::OutputShape, std::allocator<android::nn::OutputShape>> &",
   "referenced_type" : "_ZTIKNSt3__16vectorIN7android2nn11OutputShapeENS_9allocatorIS3_EEEE",
   "self_type" : "_ZTIRKNSt3__16vectorIN7android2nn11OutputShapeENS_9allocatorIS3_EEEE",
   "size" : 4,
   "source_file" : "hardware/interfaces/neuralnetworks/aidl/utils/include/nnapi/hal/aidl/Conversions.h"
  },
  {
   "alignment" : 4,
   "linker_set_key" : "_ZTIRKNSt3__16vectorIN7android2nn9SyncFenceENS_9allocatorIS3_EEEE",
   "name" : "const std::vector<android::nn::SyncFence, std::allocator<android::nn::SyncFence>> &",
   "referenced_type" : "_ZTIKNSt3__16vectorIN7android2nn9SyncFenceENS_9allocatorIS3_EEEE",
   "self_type" : "_ZTIRKNSt3__16vectorIN7android2nn9SyncFenceENS_9allocatorIS3_EEEE",
   "size" : 4,
   "source_file" : "hardware/interfaces/neuralnetworks/aidl/utils/include/nnapi/hal/aidl/Conversions.h"
  },
  {
   "alignment" : 4,
   "linker_set_key" : "_ZTIRKNSt3__16vectorINS_10shared_ptrIKN7android2nn6HandleEEENS_9allocatorIS6_EEEE",
   "name" : "const std::vector<std::shared_ptr<const android::nn::Handle>, std::allocator<std::shared_ptr<const android::nn::Handle>>> &",
   "referenced_type" : "_ZTIKNSt3__16vectorINS_10shared_ptrIKN7android2nn6HandleEEENS_9allocatorIS6_EEEE",
   "self_type" : "_ZTIRKNSt3__16vectorINS_10shared_ptrIKN7android2nn6HandleEEENS_9allocatorIS6_EEEE",
   "size" : 4,
   "source_file" : "hardware/interfaces/neuralnetworks/aidl/utils/include/nnapi/hal/aidl/Conversions.h"
  },
  {
   "alignment" : 4,
   "linker_set_key" : "_ZTIRKNSt3__16vectorIhNS_9allocatorIhEEEE",
   "name" : "const std::vector<unsigned char, std::allocator<unsigned char>> &",
   "referenced_type" : "_ZTIKNSt3__16vectorIhNS_9allocatorIhEEEE",
   "self_type" : "_ZTIRKNSt3__16vectorIhNS_9allocatorIhEEEE",
   "size" : 4,
   "source_file" : "hardware/interfaces/neuralnetworks/aidl/utils/include/nnapi/hal/aidl/Conversions.h"
  },
  {
   "alignment" : 4,
   "linker_set_key" : "_ZTIRKNSt3__16vectorIiNS_9allocatorIiEEEE",
   "name" : "const std::vector<int, std::allocator<int>> &",
   "referenced_type" : "_ZTIKNSt3__16vectorIiNS_9allocatorIiEEEE",
   "self_type" : "_ZTIRKNSt3__16vectorIiNS_9allocatorIiEEEE",
   "size" : 4,
   "source_file" : "hardware/interfaces/neuralnetworks/aidl/utils/include/nnapi/hal/aidl/Conversions.h"
  },
  {
   "alignment" : 4,
   "linker_set_key" : "_ZTIRKNSt3__16vectorIjNS_9allocatorIjEEEE",
   "name" : "const std::vector<unsigned int, std::allocator<unsigned int>> &",
   "referenced_type" : "_ZTIKNSt3__16vectorIjNS_9allocatorIjEEEE",
   "self_type" : "_ZTIRKNSt3__16vectorIjNS_9allocatorIjEEEE",
   "size" : 4,
   "source_file" : "hardware/interfaces/neuralnetworks/aidl/utils/include/nnapi/hal/aidl/Conversions.h"
  },
  {
   "alignment" : 4,
   "linker_set_key" : "_ZTIRKNSt3__17variantIJNS_10shared_ptrIKN7android2nn6MemoryEEENS3_7Request17MemoryDomainTokenENS1_IKNS3_7IBufferEEEEEE",
   "name" : "const std::variant<shared_ptr<const Memory>, MemoryDomainToken, shared_ptr<const IBuffer>> &",
   "referenced_type" : "_ZTIKNSt3__17variantIJNS_10shared_ptrIKN7android2nn6MemoryEEENS3_7Request17MemoryDomainTokenENS1_IKNS3_7IBufferEEEEEE",
   "self_type" : "_ZTIRKNSt3__17variantIJNS_10shared_ptrIKN7android2nn6MemoryEEENS3_7Request17MemoryDomainTokenENS1_IKNS3_7IBufferEEEEEE",
   "size" : 4,
   "source_file" : "hardware/interfaces/neuralnetworks/aidl/utils/include/nnapi/hal/aidl/Conversions.h"
  },
  {
   "alignment" : 4,
   "linker_set_key" : "_ZTIRKNSt3__17variantIJNS_9monostateEN7android2nn7Operand25SymmPerChannelQuantParamsENS_6vectorIhNS_9allocatorIhEEEEEEE",
   "name" : "const std::variant<monostate, SymmPerChannelQuantParams, vector<unsigned char, allocator<unsigned char>>> &",
   "referenced_type" : "_ZTIKNSt3__17variantIJNS_9monostateEN7android2nn7Operand25SymmPerChannelQuantParamsENS_6vectorIhNS_9allocatorIhEEEEEEE",
   "self_type" : "_ZTIRKNSt3__17variantIJNS_9monostateEN7android2nn7Operand25SymmPerChannelQuantParamsENS_6vectorIhNS_9allocatorIhEEEEEEE",
   "size" : 4,
   "source_file" : "hardware/interfaces/neuralnetworks/aidl/utils/include/nnapi/hal/aidl/Conversions.h"
  },
  {
   "alignment" : 4,
   "linker_set_key" : "_ZTIRKNSt3__18optionalIN4aidl7android8hardware14neuralnetworks18OperandExtraParamsEEE",
   "name" : "const std::optional<aidl::android::hardware::neuralnetworks::OperandExtraParams> &",
   "referenced_type" : "_ZTIKNSt3__18optionalIN4aidl7android8hardware14neuralnetworks18OperandExtraParamsEEE",
   "self_type" : "_ZTIRKNSt3__18optionalIN4aidl7android8hardware14neuralnetworks18OperandExtraParamsEEE",
   "size" : 4,
   "source_file" : "hardware/interfaces/neuralnetworks/aidl/utils/include/nnapi/hal/aidl/Conversions.h"
  },
  {
   "alignment" : 4,
   "linker_set_key" : "_ZTIRKNSt3__18optionalINS_6chrono10time_pointIN7android4base10boot_clockENS1_8durationIxNS_5ratioILx1ELx1000000000EEEEEEEEE",
   "name" : "const std::optional<std::chrono::time_point<android::base::boot_clock, std::chrono::duration<long long, std::ratio<1, 1000000000>>>> &",
   "referenced_type" : "_ZTIKNSt3__18optionalINS_6chrono10time_pointIN7android4base10boot_clockENS1_8durationIxNS_5ratioILx1ELx1000000000EEEEEEEEE",
   "self_type" : "_ZTIRKNSt3__18optionalINS_6chrono10time_pointIN7android4base10boot_clockENS1_8durationIxNS_5ratioILx1ELx1000000000EEEEEEEEE",
   "size" : 4,
   "source_file" : "hardware/interfaces/neuralnetworks/aidl/utils/include/nnapi/hal/aidl/Conversions.h"
  },
  {
   "alignment" : 4,
   "linker_set_key" : "_ZTIRKNSt3__18optionalINS_6chrono8durationIxNS_5ratioILx1ELx1000000000EEEEEEE",
   "name" : "const std::optional<std::chrono::duration<long long, std::ratio<1, 1000000000>>> &",
   "referenced_type" : "_ZTIKNSt3__18optionalINS_6chrono8durationIxNS_5ratioILx1ELx1000000000EEEEEEE",
   "self_type" : "_ZTIRKNSt3__18optionalINS_6chrono8durationIxNS_5ratioILx1ELx1000000000EEEEEEE",
   "size" : 4,
   "source_file" : "hardware/interfaces/neuralnetworks/aidl/utils/include/nnapi/hal/aidl/Conversions.h"
  }
 ],
 "pointer_types" : [],
 "qualified_types" :
 [
  {
   "alignment" : 4,
   "is_const" : true,
   "linker_set_key" : "_ZTIKN3ndk20ScopedFileDescriptorE",
   "name" : "const ndk::ScopedFileDescriptor",
   "referenced_type" : "_ZTIN3ndk20ScopedFileDescriptorE",
   "self_type" : "_ZTIKN3ndk20ScopedFileDescriptorE",
   "size" : 4,
   "source_file" : "hardware/interfaces/neuralnetworks/aidl/utils/include/nnapi/hal/aidl/Conversions.h"
  },
  {
   "alignment" : 4,
   "is_const" : true,
   "linker_set_key" : "_ZTIKN4aidl7android8hardware14neuralnetworks10BufferDescE",
   "name" : "const aidl::android::hardware::neuralnetworks::BufferDesc",
   "referenced_type" : "_ZTIN4aidl7android8hardware14neuralnetworks10BufferDescE",
   "self_type" : "_ZTIKN4aidl7android8hardware14neuralnetworks10BufferDescE",
   "size" : 12,
   "source_file" : "hardware/interfaces/neuralnetworks/aidl/utils/include/nnapi/hal/aidl/Conversions.h"
  },
  {
   "alignment" : 4,
   "is_const" : true,
   "linker_set_key" : "_ZTIKN4aidl7android8hardware14neuralnetworks10BufferRoleE",
   "name" : "const aidl::android::hardware::neuralnetworks::BufferRole",
   "referenced_type" : "_ZTIN4aidl7android8hardware14neuralnetworks10BufferRoleE",
   "self_type" : "_ZTIKN4aidl7android8hardware14neuralnetworks10BufferRoleE",
   "size" : 12,
   "source_file" : "hardware/interfaces/neuralnetworks/aidl/utils/include/nnapi/hal/aidl/Conversions.h"
  },
  {
   "alignment" : 4,
   "is_const" : true,
   "linker_set_key" : "_ZTIKN4aidl7android8hardware14neuralnetworks10DeviceTypeE",
   "name" : "const aidl::android::hardware::neuralnetworks::DeviceType",
   "referenced_type" : "_ZTIN4aidl7android8hardware14neuralnetworks10DeviceTypeE",
   "self_type" : "_ZTIKN4aidl7android8hardware14neuralnetworks10DeviceTypeE",
   "size" : 4,
   "source_file" : "hardware/interfaces/neuralnetworks/aidl/utils/include/nnapi/hal/aidl/Conversions.h"
  },
  {
   "alignment" : 4,
   "is_const" : true,
   "linker_set_key" : "_ZTIKN4aidl7android8hardware14neuralnetworks11ErrorStatusE",
   "name" : "const aidl::android::hardware::neuralnetworks::ErrorStatus",
   "referenced_type" : "_ZTIN4aidl7android8hardware14neuralnetworks11ErrorStatusE",
   "self_type" : "_ZTIKN4aidl7android8hardware14neuralnetworks11ErrorStatusE",
   "size" : 4,
   "source_file" : "hardware/interfaces/neuralnetworks/aidl/utils/include/nnapi/hal/aidl/Conversions.h"
  },
  {
   "alignment" : 4,
   "is_const" : true,
   "linker_set_key" : "_ZTIKN4aidl7android8hardware14neuralnetworks11OperandTypeE",
   "name" : "const aidl::android::hardware::neuralnetworks::OperandType",
   "referenced_type" : "_ZTIN4aidl7android8hardware14neuralnetworks11OperandTypeE",
   "self_type" : "_ZTIKN4aidl7android8hardware14neuralnetworks11OperandTypeE",
   "size" : 4,
   "source_file" : "hardware/interfaces/neuralnetworks/aidl/utils/include/nnapi/hal/aidl/Conversions.h"
  },
  {
   "alignment" : 4,
   "is_const" : true,
   "linker_set_key" : "_ZTIKN4aidl7android8hardware14neuralnetworks11OutputShapeE",
   "name" : "const aidl::android::hardware::neuralnetworks::OutputShape",
   "referenced_type" : "_ZTIN4aidl7android8hardware14neuralnetworks11OutputShapeE",
   "self_type" : "_ZTIKN4aidl7android8hardware14neuralnetworks11OutputShapeE",
   "size" : 16,
   "source_file" : "hardware/interfaces/neuralnetworks/aidl/utils/include/nnapi/hal/aidl/Conversions.h"
  },
  {
   "alignment" : 4,
   "is_const" : true,
   "linker_set_key" : "_ZTIKN4aidl7android8hardware14neuralnetworks12CapabilitiesE",
   "name" : "const aidl::android::hardware::neuralnetworks::Capabilities",
   "referenced_type" : "_ZTIN4aidl7android8hardware14neuralnetworks12CapabilitiesE",
   "self_type" : "_ZTIKN4aidl7android8hardware14neuralnetworks12CapabilitiesE",
   "size" : 44,
   "source_file" : "hardware/interfaces/neuralnetworks/aidl/utils/include/nnapi/hal/aidl/Conversions.h"
  },
  {
   "alignment" : 8,
   "is_const" : true,
   "linker_set_key" : "_ZTIKN4aidl7android8hardware14neuralnetworks12DataLocationE",
   "name" : "const aidl::android::hardware::neuralnetworks::DataLocation",
   "referenced_type" : "_ZTIN4aidl7android8hardware14neuralnetworks12DataLocationE",
   "self_type" : "_ZTIKN4aidl7android8hardware14neuralnetworks12DataLocationE",
   "size" : 32,
   "source_file" : "hardware/interfaces/neuralnetworks/aidl/utils/include/nnapi/hal/aidl/Conversions.h"
  },
  {
   "alignment" : 4,
   "is_const" : true,
   "linker_set_key" : "_ZTIKN4aidl7android8hardware14neuralnetworks13OperationTypeE",
   "name" : "const aidl::android::hardware::neuralnetworks::OperationType",
   "referenced_type" : "_ZTIN4aidl7android8hardware14neuralnetworks13OperationTypeE",
   "self_type" : "_ZTIKN4aidl7android8hardware14neuralnetworks13OperationTypeE",
   "size" : 4,
   "source_file" : "hardware/interfaces/neuralnetworks/aidl/utils/include/nnapi/hal/aidl/Conversions.h"
  },
  {
   "alignment" : 4,
   "is_const" : true,
   "linker_set_key" : "_ZTIKN4aidl7android8hardware14neuralnetworks15OperandLifeTimeE",
   "name" : "const aidl::android::hardware::neuralnetworks::OperandLifeTime",
   "referenced_type" : "_ZTIN4aidl7android8hardware14neuralnetworks15OperandLifeTimeE",
   "self_type" : "_ZTIKN4aidl7android8hardware14neuralnetworks15OperandLifeTimeE",
   "size" : 4,
   "source_file" : "hardware/interfaces/neuralnetworks/aidl/utils/include/nnapi/hal/aidl/Conversions.h"
  },
  {
   "alignment" : 4,
   "is_const" : true,
   "linker_set_key" : "_ZTIKN4aidl7android8hardware14neuralnetworks15PerformanceInfoE",
   "name" : "const aidl::android::hardware::neuralnetworks::PerformanceInfo",
   "referenced_type" : "_ZTIN4aidl7android8hardware14neuralnetworks15PerformanceInfoE",
   "self_type" : "_ZTIKN4aidl7android8hardware14neuralnetworks15PerformanceInfoE",
   "size" : 8,
   "source_file" : "hardware/interfaces/neuralnetworks/aidl/utils/include/nnapi/hal/aidl/Conversions.h"
  },
  {
   "alignment" : 8,
   "is_const" : true,
   "linker_set_key" : "_ZTIKN4aidl7android8hardware14neuralnetworks15RequestArgumentE",
   "name" : "const aidl::android::hardware::neuralnetworks::RequestArgument",
   "referenced_type" : "_ZTIN4aidl7android8hardware14neuralnetworks15RequestArgumentE",
   "self_type" : "_ZTIKN4aidl7android8hardware14neuralnetworks15RequestArgumentE",
   "size" : 56,
   "source_file" : "hardware/interfaces/neuralnetworks/aidl/utils/include/nnapi/hal/aidl/Conversions.h"
  },
  {
   "alignment" : 8,
   "is_const" : true,
   "linker_set_key" : "_ZTIKN4aidl7android8hardware14neuralnetworks17RequestMemoryPoolE",
   "name" : "const aidl::android::hardware::neuralnetworks::RequestMemoryPool",
   "referenced_type" : "_ZTIN4aidl7android8hardware14neuralnetworks17RequestMemoryPoolE",
   "self_type" : "_ZTIKN4aidl7android8hardware14neuralnetworks17RequestMemoryPoolE",
   "size" : 80,
   "source_file" : "hardware/interfaces/neuralnetworks/aidl/utils/include/nnapi/hal/aidl/Conversions.h"
  },
  {
   "alignment" : 4,
   "is_const" : true,
   "linker_set_key" : "_ZTIKN4aidl7android8hardware14neuralnetworks18OperandPerformanceE",
   "name" : "const aidl::android::hardware::neuralnetworks::OperandPerformance",
   "referenced_type" : "_ZTIN4aidl7android8hardware14neuralnetworks18OperandPerformanceE",
   "self_type" : "_ZTIKN4aidl7android8hardware14neuralnetworks18OperandPerformanceE",
   "size" : 12,
   "source_file" : "hardware/interfaces/neuralnetworks/aidl/utils/include/nnapi/hal/aidl/Conversions.h"
  },
  {
   "alignment" : 4,
   "is_const" : true,
   "linker_set_key" : "_ZTIKN4aidl7android8hardware14neuralnetworks19ExecutionPreferenceE",
   "name" : "const aidl::android::hardware::neuralnetworks::ExecutionPreference",
   "referenced_type" : "_ZTIN4aidl7android8hardware14neuralnetworks19ExecutionPreferenceE",
   "self_type" : "_ZTIKN4aidl7android8hardware14neuralnetworks19ExecutionPreferenceE",
   "size" : 4,
   "source_file" : "hardware/interfaces/neuralnetworks/aidl/utils/include/nnapi/hal/aidl/Conversions.h"
  },
  {
   "alignment" : 4,
   "is_const" : true,
   "linker_set_key" : "_ZTIKN4aidl7android8hardware14neuralnetworks22ExtensionNameAndPrefixE",
   "name" : "const aidl::android::hardware::neuralnetworks::ExtensionNameAndPrefix",
   "referenced_type" : "_ZTIN4aidl7android8hardware14neuralnetworks22ExtensionNameAndPrefixE",
   "self_type" : "_ZTIKN4aidl7android8hardware14neuralnetworks22ExtensionNameAndPrefixE",
   "size" : 16,
   "source_file" : "hardware/interfaces/neuralnetworks/aidl/utils/include/nnapi/hal/aidl/Conversions.h"
  },
  {
   "alignment" : 4,
   "is_const" : true,
   "linker_set_key" : "_ZTIKN4aidl7android8hardware14neuralnetworks25SymmPerChannelQuantParamsE",
   "name" : "const aidl::android::hardware::neuralnetworks::SymmPerChannelQuantParams",
   "referenced_type" : "_ZTIN4aidl7android8hardware14neuralnetworks25SymmPerChannelQuantParamsE",
   "self_type" : "_ZTIKN4aidl7android8hardware14neuralnetworks25SymmPerChannelQuantParamsE",
   "size" : 16,
   "source_file" : "hardware/interfaces/neuralnetworks/aidl/utils/include/nnapi/hal/aidl/Conversions.h"
  },
  {
   "alignment" : 4,
   "is_const" : true,
   "linker_set_key" : "_ZTIKN4aidl7android8hardware14neuralnetworks31ExtensionOperandTypeInformationE",
   "name" : "const aidl::android::hardware::neuralnetworks::ExtensionOperandTypeInformation",
   "referenced_type" : "_ZTIN4aidl7android8hardware14neuralnetworks31ExtensionOperandTypeInformationE",
   "self_type" : "_ZTIKN4aidl7android8hardware14neuralnetworks31ExtensionOperandTypeInformationE",
   "size" : 8,
   "source_file" : "hardware/interfaces/neuralnetworks/aidl/utils/include/nnapi/hal/aidl/Conversions.h"
  },
  {
   "alignment" : 4,
   "is_const" : true,
   "linker_set_key" : "_ZTIKN4aidl7android8hardware14neuralnetworks5ModelE",
   "name" : "const aidl::android::hardware::neuralnetworks::Model",
   "referenced_type" : "_ZTIN4aidl7android8hardware14neuralnetworks5ModelE",
   "self_type" : "_ZTIKN4aidl7android8hardware14neuralnetworks5ModelE",
   "size" : 100,
   "source_file" : "hardware/interfaces/neuralnetworks/aidl/utils/include/nnapi/hal/aidl/Conversions.h"
  },
  {
   "alignment" : 8,
   "is_const" : true,
   "linker_set_key" : "_ZTIKN4aidl7android8hardware14neuralnetworks6MemoryE",
   "name" : "const aidl::android::hardware::neuralnetworks::Memory",
   "referenced_type" : "_ZTIN4aidl7android8hardware14neuralnetworks6MemoryE",
   "self_type" : "_ZTIKN4aidl7android8hardware14neuralnetworks6MemoryE",
   "size" : 64,
   "source_file" : "hardware/interfaces/neuralnetworks/aidl/utils/include/nnapi/hal/aidl/Conversions.h"
  },
  {
   "alignment" : 8,
   "is_const" : true,
   "linker_set_key" : "_ZTIKN4aidl7android8hardware14neuralnetworks6TimingE",
   "name" : "const aidl::android::hardware::neuralnetworks::Timing",
   "referenced_type" : "_ZTIN4aidl7android8hardware14neuralnetworks6TimingE",
   "self_type" : "_ZTIKN4aidl7android8hardware14neuralnetworks6TimingE",
   "size" : 16,
   "source_file" : "hardware/interfaces/neuralnetworks/aidl/utils/include/nnapi/hal/aidl/Conversions.h"
  },
  {
   "alignment" : 8,
   "is_const" : true,
   "linker_set_key" : "_ZTIKN4aidl7android8hardware14neuralnetworks7OperandE",
   "name" : "const aidl::android::hardware::neuralnetworks::Operand",
   "referenced_type" : "_ZTIN4aidl7android8hardware14neuralnetworks7OperandE",
   "self_type" : "_ZTIKN4aidl7android8hardware14neuralnetworks7OperandE",
   "size" : 88,
   "source_file" : "hardware/interfaces/neuralnetworks/aidl/utils/include/nnapi/hal/aidl/Conversions.h"
  },
  {
   "alignment" : 4,
   "is_const" : true,
   "linker_set_key" : "_ZTIKN4aidl7android8hardware14neuralnetworks7RequestE",
   "name" : "const aidl::android::hardware::neuralnetworks::Request",
   "referenced_type" : "_ZTIN4aidl7android8hardware14neuralnetworks7RequestE",
   "self_type" : "_ZTIKN4aidl7android8hardware14neuralnetworks7RequestE",
   "size" : 36,
   "source_file" : "hardware/interfaces/neuralnetworks/aidl/utils/include/nnapi/hal/aidl/Conversions.h"
  },
  {
   "alignment" : 4,
   "is_const" : true,
   "linker_set_key" : "_ZTIKN4aidl7android8hardware14neuralnetworks8PriorityE",
   "name" : "const aidl::android::hardware::neuralnetworks::Priority",
   "referenced_type" : "_ZTIN4aidl7android8hardware14neuralnetworks8PriorityE",
   "self_type" : "_ZTIKN4aidl7android8hardware14neuralnetworks8PriorityE",
   "size" : 4,
   "source_file" : "hardware/interfaces/neuralnetworks/aidl/utils/include/nnapi/hal/aidl/Conversions.h"
  },
  {
   "alignment" : 4,
   "is_const" : true,
   "linker_set_key" : "_ZTIKN4aidl7android8hardware14neuralnetworks8SubgraphE",
   "name" : "const aidl::android::hardware::neuralnetworks::Subgraph",
   "referenced_type" : "_ZTIN4aidl7android8hardware14neuralnetworks8SubgraphE",
   "self_type" : "_ZTIKN4aidl7android8hardware14neuralnetworks8SubgraphE",
   "size" : 48,
   "source_file" : "hardware/interfaces/neuralnetworks/aidl/utils/include/nnapi/hal/aidl/Conversions.h"
  },
  {
   "alignment" : 4,
   "is_const" : true,
   "linker_set_key" : "_ZTIKN4aidl7android8hardware14neuralnetworks9ExtensionE",
   "name" : "const aidl::android::hardware::neuralnetworks::Extension",
   "referenced_type" : "_ZTIN4aidl7android8hardware14neuralnetworks9ExtensionE",
   "self_type" : "_ZTIKN4aidl7android8hardware14neuralnetworks9ExtensionE",
   "size" : 24,
   "source_file" : "hardware/interfaces/neuralnetworks/aidl/utils/include/nnapi/hal/aidl/Conversions.h"
  },
  {
   "alignment" : 4,
   "is_const" : true,
   "linker_set_key" : "_ZTIKN4aidl7android8hardware14neuralnetworks9OperationE",
   "name" : "const aidl::android::hardware::neuralnetworks::Operation",
   "referenced_type" : "_ZTIN4aidl7android8hardware14neuralnetworks9OperationE",
   "self_type" : "_ZTIKN4aidl7android8hardware14neuralnetworks9OperationE",
   "size" : 28,
   "source_file" : "hardware/interfaces/neuralnetworks/aidl/utils/include/nnapi/hal/aidl/Conversions.h"
  },
  {
   "alignment" : 4,
   "is_const" : true,
   "linker_set_key" : "_ZTIKN4aidl7android8hardware6common12NativeHandleE",
   "name" : "const aidl::android::hardware::common::NativeHandle",
   "referenced_type" : "_ZTIN4aidl7android8hardware6common12NativeHandleE",
   "self_type" : "_ZTIKN4aidl7android8hardware6common12NativeHandleE",
   "size" : 24,
   "source_file" : "hardware/interfaces/neuralnetworks/aidl/utils/include/nnapi/hal/aidl/Conversions.h"
  },
  {
   "alignment" : 4,
   "is_const" : true,
   "linker_set_key" : "_ZTIKN7android2nn10BufferDescE",
   "name" : "const android::nn::BufferDesc",
   "referenced_type" : "_ZTIN7android2nn10BufferDescE",
   "self_type" : "_ZTIKN7android2nn10BufferDescE",
   "size" : 12,
   "source_file" : "hardware/interfaces/neuralnetworks/aidl/utils/include/nnapi/hal/aidl/Conversions.h"
  },
  {
   "alignment" : 4,
   "is_const" : true,
   "linker_set_key" : "_ZTIKN7android2nn10BufferRoleE",
   "name" : "const android::nn::BufferRole",
   "referenced_type" : "_ZTIN7android2nn10BufferRoleE",
   "self_type" : "_ZTIKN7android2nn10BufferRoleE",
   "size" : 12,
   "source_file" : "hardware/interfaces/neuralnetworks/aidl/utils/include/nnapi/hal/aidl/Conversions.h"
  },
  {
   "alignment" : 4,
   "is_const" : true,
   "linker_set_key" : "_ZTIKN7android2nn10DeviceTypeE",
   "name" : "const android::nn::DeviceType",
   "referenced_type" : "_ZTIN7android2nn10DeviceTypeE",
   "self_type" : "_ZTIKN7android2nn10DeviceTypeE",
   "size" : 4,
   "source_file" : "hardware/interfaces/neuralnetworks/aidl/utils/include/nnapi/hal/aidl/Utils.h"
  },
  {
   "alignment" : 4,
   "is_const" : true,
   "linker_set_key" : "_ZTIKN7android2nn11ErrorStatusE",
   "name" : "const android::nn::ErrorStatus",
   "referenced_type" : "_ZTIN7android2nn11ErrorStatusE",
   "self_type" : "_ZTIKN7android2nn11ErrorStatusE",
   "size" : 4,
   "source_file" : "hardware/interfaces/neuralnetworks/aidl/utils/include/nnapi/hal/aidl/Conversions.h"
  },
  {
   "alignment" : 4,
   "is_const" : true,
   "linker_set_key" : "_ZTIKN7android2nn11OperandTypeE",
   "name" : "const android::nn::OperandType",
   "referenced_type" : "_ZTIN7android2nn11OperandTypeE",
   "self_type" : "_ZTIKN7android2nn11OperandTypeE",
   "size" : 4,
   "source_file" : "hardware/interfaces/neuralnetworks/aidl/utils/include/nnapi/hal/aidl/Conversions.h"
  },
  {
   "alignment" : 4,
   "is_const" : true,
   "linker_set_key" : "_ZTIKN7android2nn11OutputShapeE",
   "name" : "const android::nn::OutputShape",
   "referenced_type" : "_ZTIN7android2nn11OutputShapeE",
   "self_type" : "_ZTIKN7android2nn11OutputShapeE",
   "size" : 16,
   "source_file" : "hardware/interfaces/neuralnetworks/aidl/utils/include/nnapi/hal/aidl/Conversions.h"
  },
  {
   "alignment" : 4,
   "is_const" : true,
   "linker_set_key" : "_ZTIKN7android2nn12CapabilitiesE",
   "name" : "const android::nn::Capabilities",
   "referenced_type" : "_ZTIN7android2nn12CapabilitiesE",
   "self_type" : "_ZTIKN7android2nn12CapabilitiesE",
   "size" : 44,
   "source_file" : "hardware/interfaces/neuralnetworks/aidl/utils/include/nnapi/hal/aidl/Utils.h"
  },
  {
   "alignment" : 4,
   "is_const" : true,
   "linker_set_key" : "_ZTIKN7android2nn12DataLocationE",
   "name" : "const android::nn::DataLocation",
   "referenced_type" : "_ZTIN7android2nn12DataLocationE",
   "self_type" : "_ZTIKN7android2nn12DataLocationE",
   "size" : 24,
   "source_file" : "hardware/interfaces/neuralnetworks/aidl/utils/include/nnapi/hal/aidl/Conversions.h"
  },
  {
   "alignment" : 4,
   "is_const" : true,
   "linker_set_key" : "_ZTIKN7android2nn13MeasureTimingE",
   "name" : "const android::nn::MeasureTiming",
   "referenced_type" : "_ZTIN7android2nn13MeasureTimingE",
   "self_type" : "_ZTIKN7android2nn13MeasureTimingE",
   "size" : 4,
   "source_file" : "hardware/interfaces/neuralnetworks/aidl/utils/include/nnapi/hal/aidl/Conversions.h"
  },
  {
   "alignment" : 4,
   "is_const" : true,
   "linker_set_key" : "_ZTIKN7android2nn13OperationTypeE",
   "name" : "const android::nn::OperationType",
   "referenced_type" : "_ZTIN7android2nn13OperationTypeE",
   "self_type" : "_ZTIKN7android2nn13OperationTypeE",
   "size" : 4,
   "source_file" : "hardware/interfaces/neuralnetworks/aidl/utils/include/nnapi/hal/aidl/Conversions.h"
  },
  {
   "alignment" : 4,
   "is_const" : true,
   "linker_set_key" : "_ZTIKN7android2nn19ExecutionPreferenceE",
   "name" : "const android::nn::ExecutionPreference",
   "referenced_type" : "_ZTIN7android2nn19ExecutionPreferenceE",
   "self_type" : "_ZTIKN7android2nn19ExecutionPreferenceE",
   "size" : 4,
   "source_file" : "hardware/interfaces/neuralnetworks/aidl/utils/include/nnapi/hal/aidl/Conversions.h"
  },
  {
   "alignment" : 4,
   "is_const" : true,
   "linker_set_key" : "_ZTIKN7android2nn5Model13OperandValuesE",
   "name" : "const android::nn::Model::OperandValues",
   "referenced_type" : "_ZTIN7android2nn5Model13OperandValuesE",
   "self_type" : "_ZTIKN7android2nn5Model13OperandValuesE",
   "size" : 12,
   "source_file" : "hardware/interfaces/neuralnetworks/aidl/utils/include/nnapi/hal/aidl/Conversions.h"
  },
  {
   "alignment" : 4,
   "is_const" : true,
   "linker_set_key" : "_ZTIKN7android2nn5Model22ExtensionNameAndPrefixE",
   "name" : "const android::nn::Model::ExtensionNameAndPrefix",
   "referenced_type" : "_ZTIN7android2nn5Model22ExtensionNameAndPrefixE",
   "self_type" : "_ZTIKN7android2nn5Model22ExtensionNameAndPrefixE",
   "size" : 16,
   "source_file" : "hardware/interfaces/neuralnetworks/aidl/utils/include/nnapi/hal/aidl/Conversions.h"
  },
  {
   "alignment" : 4,
   "is_const" : true,
   "linker_set_key" : "_ZTIKN7android2nn5Model8SubgraphE",
   "name" : "const android::nn::Model::Subgraph",
   "referenced_type" : "_ZTIN7android2nn5Model8SubgraphE",
   "self_type" : "_ZTIKN7android2nn5Model8SubgraphE",
   "size" : 48,
   "source_file" : "hardware/interfaces/neuralnetworks/aidl/utils/include/nnapi/hal/aidl/Conversions.h"
  },
  {
   "alignment" : 4,
   "is_const" : true,
   "linker_set_key" : "_ZTIKN7android2nn5ModelE",
   "name" : "const android::nn::Model",
   "referenced_type" : "_ZTIN7android2nn5ModelE",
   "self_type" : "_ZTIKN7android2nn5ModelE",
   "size" : 100,
   "source_file" : "hardware/interfaces/neuralnetworks/aidl/utils/include/nnapi/hal/aidl/Conversions.h"
  },
  {
   "alignment" : 8,
   "is_const" : true,
   "linker_set_key" : "_ZTIKN7android2nn6TimingE",
   "name" : "const android::nn::Timing",
   "referenced_type" : "_ZTIN7android2nn6TimingE",
   "self_type" : "_ZTIKN7android2nn6TimingE",
   "size" : 32,
   "source_file" : "hardware/interfaces/neuralnetworks/aidl/utils/include/nnapi/hal/aidl/Conversions.h"
  },
  {
   "alignment" : 4,
   "is_const" : true,
   "linker_set_key" : "_ZTIKN7android2nn7Operand8LifeTimeE",
   "name" : "const android::nn::Operand::LifeTime",
   "referenced_type" : "_ZTIN7android2nn7Operand8LifeTimeE",
   "self_type" : "_ZTIKN7android2nn7Operand8LifeTimeE",
   "size" : 4,
   "source_file" : "hardware/interfaces/neuralnetworks/aidl/utils/include/nnapi/hal/aidl/Conversions.h"
  },
  {
   "alignment" : 4,
   "is_const" : true,
   "linker_set_key" : "_ZTIKN7android2nn7OperandE",
   "name" : "const android::nn::Operand",
   "referenced_type" : "_ZTIN7android2nn7OperandE",
   "self_type" : "_ZTIKN7android2nn7OperandE",
   "size" : 72,
   "source_file" : "hardware/interfaces/neuralnetworks/aidl/utils/include/nnapi/hal/aidl/Conversions.h"
  },
  {
   "alignment" : 4,
   "is_const" : true,
   "linker_set_key" : "_ZTIKN7android2nn7Request8ArgumentE",
   "name" : "const android::nn::Request::Argument",
   "referenced_type" : "_ZTIN7android2nn7Request8ArgumentE",
   "self_type" : "_ZTIKN7android2nn7Request8ArgumentE",
   "size" : 40,
   "source_file" : "hardware/interfaces/neuralnetworks/aidl/utils/include/nnapi/hal/aidl/Conversions.h"
  },
  {
   "alignment" : 4,
   "is_const" : true,
   "linker_set_key" : "_ZTIKN7android2nn7RequestE",
   "name" : "const android::nn::Request",
   "referenced_type" : "_ZTIN7android2nn7RequestE",
   "self_type" : "_ZTIKN7android2nn7RequestE",
   "size" : 36,
   "source_file" : "hardware/interfaces/neuralnetworks/aidl/utils/include/nnapi/hal/aidl/Conversions.h"
  },
  {
   "alignment" : 4,
   "is_const" : true,
   "linker_set_key" : "_ZTIKN7android2nn7VersionE",
   "name" : "const android::nn::Version",
   "referenced_type" : "_ZTIN7android2nn7VersionE",
   "self_type" : "_ZTIKN7android2nn7VersionE",
   "size" : 4,
   "source_file" : "hardware/interfaces/neuralnetworks/aidl/utils/include/nnapi/hal/aidl/Utils.h"
  },
  {
   "alignment" : 4,
   "is_const" : true,
   "linker_set_key" : "_ZTIKN7android2nn8PriorityE",
   "name" : "const android::nn::Priority",
   "referenced_type" : "_ZTIN7android2nn8PriorityE",
   "self_type" : "_ZTIKN7android2nn8PriorityE",
   "size" : 4,
   "source_file" : "hardware/interfaces/neuralnetworks/aidl/utils/include/nnapi/hal/aidl/Conversions.h"
  },
  {
   "alignment" : 4,
   "is_const" : true,
   "linker_set_key" : "_ZTIKN7android2nn9ExtensionE",
   "name" : "const android::nn::Extension",
   "referenced_type" : "_ZTIN7android2nn9ExtensionE",
   "self_type" : "_ZTIKN7android2nn9ExtensionE",
   "size" : 24,
   "source_file" : "hardware/interfaces/neuralnetworks/aidl/utils/include/nnapi/hal/aidl/Utils.h"
  },
  {
   "alignment" : 4,
   "is_const" : true,
   "linker_set_key" : "_ZTIKN7android2nn9OperationE",
   "name" : "const android::nn::Operation",
   "referenced_type" : "_ZTIN7android2nn9OperationE",
   "self_type" : "_ZTIKN7android2nn9OperationE",
   "size" : 28,
   "source_file" : "hardware/interfaces/neuralnetworks/aidl/utils/include/nnapi/hal/aidl/Conversions.h"
  },
  {
   "alignment" : 4,
   "is_const" : true,
   "linker_set_key" : "_ZTIKN7android2nn9SyncFenceE",
   "name" : "const android::nn::SyncFence",
   "referenced_type" : "_ZTIN7android2nn9SyncFenceE",
   "self_type" : "_ZTIKN7android2nn9SyncFenceE",
   "size" : 8,
   "source_file" : "hardware/interfaces/neuralnetworks/aidl/utils/include/nnapi/hal/aidl/Conversions.h"
  },
  {
   "alignment" : 4,
   "is_const" : true,
   "linker_set_key" : "_ZTIKNSt3__110shared_ptrIKN7android2nn6HandleEEE",
   "name" : "const std::shared_ptr<const android::nn::Handle>",
   "referenced_type" : "_ZTINSt3__110shared_ptrIKN7android2nn6HandleEEE",
   "self_type" : "_ZTIKNSt3__110shared_ptrIKN7android2nn6HandleEEE",
   "size" : 8,
   "source_file" : "hardware/interfaces/neuralnetworks/aidl/utils/include/nnapi/hal/aidl/Conversions.h"
  },
  {
   "alignment" : 4,
   "is_const" : true,
   "linker_set_key" : "_ZTIKNSt3__110shared_ptrIKN7android2nn6MemoryEEE",
   "name" : "const std::shared_ptr<const android::nn::Memory>",
   "referenced_type" : "_ZTINSt3__110shared_ptrIKN7android2nn6MemoryEEE",
   "self_type" : "_ZTIKNSt3__110shared_ptrIKN7android2nn6MemoryEEE",
   "size" : 8,
   "source_file" : "hardware/interfaces/neuralnetworks/aidl/utils/include/nnapi/hal/aidl/Conversions.h"
  },
  {
   "alignment" : 1,
   "is_const" : true,
   "linker_set_key" : "_ZTIKNSt3__15arrayIhLj32EEE",
   "name" : "const std::array<unsigned char, 32>",
   "referenced_type" : "_ZTINSt3__15arrayIhLj32EEE",
   "self_type" : "_ZTIKNSt3__15arrayIhLj32EEE",
   "size" : 32,
   "source_file" : "hardware/interfaces/neuralnetworks/aidl/utils/include/nnapi/hal/aidl/Conversions.h"
  },
  {
   "alignment" : 8,
   "is_const" : true,
   "linker_set_key" : "_ZTIKNSt3__16chrono8durationIxNS_5ratioILx1ELx1000000000EEEEE",
   "name" : "const std::chrono::duration<long long, std::ratio<1, 1000000000>>",
   "referenced_type" : "_ZTINSt3__16chrono8durationIxNS_5ratioILx1ELx1000000000EEEEE",
   "self_type" : "_ZTIKNSt3__16chrono8durationIxNS_5ratioILx1ELx1000000000EEEEE",
   "size" : 8,
   "source_file" : "hardware/interfaces/neuralnetworks/aidl/utils/include/nnapi/hal/aidl/Conversions.h"
  },
  {
   "alignment" : 4,
   "is_const" : true,
   "linker_set_key" : "_ZTIKNSt3__16vectorIN4aidl7android8hardware14neuralnetworks11OutputShapeENS_9allocatorIS5_EEEE",
   "name" : "const std::vector<aidl::android::hardware::neuralnetworks::OutputShape, std::allocator<aidl::android::hardware::neuralnetworks::OutputShape>>",
   "referenced_type" : "_ZTINSt3__16vectorIN4aidl7android8hardware14neuralnetworks11OutputShapeENS_9allocatorIS5_EEEE",
   "self_type" : "_ZTIKNSt3__16vectorIN4aidl7android8hardware14neuralnetworks11OutputShapeENS_9allocatorIS5_EEEE",
   "size" : 12,
   "source_file" : "hardware/interfaces/neuralnetworks/aidl/utils/include/nnapi/hal/aidl/Conversions.h"
  },
  {
   "alignment" : 4,
   "is_const" : true,
   "linker_set_key" : "_ZTIKNSt3__16vectorIN4aidl7android8hardware14neuralnetworks6MemoryENS_9allocatorIS5_EEEE",
   "name" : "const std::vector<aidl::android::hardware::neuralnetworks::Memory, std::allocator<aidl::android::hardware::neuralnetworks::Memory>>",
   "referenced_type" : "_ZTINSt3__16vectorIN4aidl7android8hardware14neuralnetworks6MemoryENS_9allocatorIS5_EEEE",
   "self_type" : "_ZTIKNSt3__16vectorIN4aidl7android8hardware14neuralnetworks6MemoryENS_9allocatorIS5_EEEE",
   "size" : 12,
   "source_file" : "hardware/interfaces/neuralnetworks/aidl/utils/include/nnapi/hal/aidl/Conversions.h"
  },
  {
   "alignment" : 4,
   "is_const" : true,
   "linker_set_key" : "_ZTIKNSt3__16vectorIN4aidl7android8hardware14neuralnetworks9ExtensionENS_9allocatorIS5_EEEE",
   "name" : "const std::vector<aidl::android::hardware::neuralnetworks::Extension, std::allocator<aidl::android::hardware::neuralnetworks::Extension>>",
   "referenced_type" : "_ZTINSt3__16vectorIN4aidl7android8hardware14neuralnetworks9ExtensionENS_9allocatorIS5_EEEE",
   "self_type" : "_ZTIKNSt3__16vectorIN4aidl7android8hardware14neuralnetworks9ExtensionENS_9allocatorIS5_EEEE",
   "size" : 12,
   "source_file" : "hardware/interfaces/neuralnetworks/aidl/utils/include/nnapi/hal/aidl/Conversions.h"
  },
  {
   "alignment" : 4,
   "is_const" : true,
   "linker_set_key" : "_ZTIKNSt3__16vectorIN4aidl7android8hardware14neuralnetworks9OperationENS_9allocatorIS5_EEEE",
   "name" : "const std::vector<aidl::android::hardware::neuralnetworks::Operation, std::allocator<aidl::android::hardware::neuralnetworks::Operation>>",
   "referenced_type" : "_ZTINSt3__16vectorIN4aidl7android8hardware14neuralnetworks9OperationENS_9allocatorIS5_EEEE",
   "self_type" : "_ZTIKNSt3__16vectorIN4aidl7android8hardware14neuralnetworks9OperationENS_9allocatorIS5_EEEE",
   "size" : 12,
   "source_file" : "hardware/interfaces/neuralnetworks/aidl/utils/include/nnapi/hal/aidl/Conversions.h"
  },
  {
   "alignment" : 4,
   "is_const" : true,
   "linker_set_key" : "_ZTIKNSt3__16vectorIN7android2nn10BufferRoleENS_9allocatorIS3_EEEE",
   "name" : "const std::vector<android::nn::BufferRole, std::allocator<android::nn::BufferRole>>",
   "referenced_type" : "_ZTINSt3__16vectorIN7android2nn10BufferRoleENS_9allocatorIS3_EEEE",
   "self_type" : "_ZTIKNSt3__16vectorIN7android2nn10BufferRoleENS_9allocatorIS3_EEEE",
   "size" : 12,
   "source_file" : "hardware/interfaces/neuralnetworks/aidl/utils/include/nnapi/hal/aidl/Conversions.h"
  },
  {
   "alignment" : 4,
   "is_const" : true,
   "linker_set_key" : "_ZTIKNSt3__16vectorIN7android2nn11OutputShapeENS_9allocatorIS3_EEEE",
   "name" : "const std::vector<android::nn::OutputShape, std::allocator<android::nn::OutputShape>>",
   "referenced_type" : "_ZTINSt3__16vectorIN7android2nn11OutputShapeENS_9allocatorIS3_EEEE",
   "self_type" : "_ZTIKNSt3__16vectorIN7android2nn11OutputShapeENS_9allocatorIS3_EEEE",
   "size" : 12,
   "source_file" : "hardware/interfaces/neuralnetworks/aidl/utils/include/nnapi/hal/aidl/Conversions.h"
  },
  {
   "alignment" : 4,
   "is_const" : true,
   "linker_set_key" : "_ZTIKNSt3__16vectorIN7android2nn9SyncFenceENS_9allocatorIS3_EEEE",
   "name" : "const std::vector<android::nn::SyncFence, std::allocator<android::nn::SyncFence>>",
   "referenced_type" : "_ZTINSt3__16vectorIN7android2nn9SyncFenceENS_9allocatorIS3_EEEE",
   "self_type" : "_ZTIKNSt3__16vectorIN7android2nn9SyncFenceENS_9allocatorIS3_EEEE",
   "size" : 12,
   "source_file" : "hardware/interfaces/neuralnetworks/aidl/utils/include/nnapi/hal/aidl/Conversions.h"
  },
  {
   "alignment" : 4,
   "is_const" : true,
   "linker_set_key" : "_ZTIKNSt3__16vectorINS_10shared_ptrIKN7android2nn6HandleEEENS_9allocatorIS6_EEEE",
   "name" : "const std::vector<std::shared_ptr<const android::nn::Handle>, std::allocator<std::shared_ptr<const android::nn::Handle>>>",
   "referenced_type" : "_ZTINSt3__16vectorINS_10shared_ptrIKN7android2nn6HandleEEENS_9allocatorIS6_EEEE",
   "self_type" : "_ZTIKNSt3__16vectorINS_10shared_ptrIKN7android2nn6HandleEEENS_9allocatorIS6_EEEE",
   "size" : 12,
   "source_file" : "hardware/interfaces/neuralnetworks/aidl/utils/include/nnapi/hal/aidl/Conversions.h"
  },
  {
   "alignment" : 4,
   "is_const" : true,
   "linker_set_key" : "_ZTIKNSt3__16vectorIhNS_9allocatorIhEEEE",
   "name" : "const std::vector<unsigned char, std::allocator<unsigned char>>",
   "referenced_type" : "_ZTINSt3__16vectorIhNS_9allocatorIhEEEE",
   "self_type" : "_ZTIKNSt3__16vectorIhNS_9allocatorIhEEEE",
   "size" : 12,
   "source_file" : "hardware/interfaces/neuralnetworks/aidl/utils/include/nnapi/hal/aidl/Conversions.h"
  },
  {
   "alignment" : 4,
   "is_const" : true,
   "linker_set_key" : "_ZTIKNSt3__16vectorIiNS_9allocatorIiEEEE",
   "name" : "const std::vector<int, std::allocator<int>>",
   "referenced_type" : "_ZTINSt3__16vectorIiNS_9allocatorIiEEEE",
   "self_type" : "_ZTIKNSt3__16vectorIiNS_9allocatorIiEEEE",
   "size" : 12,
   "source_file" : "hardware/interfaces/neuralnetworks/aidl/utils/include/nnapi/hal/aidl/Conversions.h"
  },
  {
   "alignment" : 4,
   "is_const" : true,
   "linker_set_key" : "_ZTIKNSt3__16vectorIjNS_9allocatorIjEEEE",
   "name" : "const std::vector<unsigned int, std::allocator<unsigned int>>",
   "referenced_type" : "_ZTINSt3__16vectorIjNS_9allocatorIjEEEE",
   "self_type" : "_ZTIKNSt3__16vectorIjNS_9allocatorIjEEEE",
   "size" : 12,
   "source_file" : "hardware/interfaces/neuralnetworks/aidl/utils/include/nnapi/hal/aidl/Conversions.h"
  },
  {
   "alignment" : 4,
   "is_const" : true,
   "linker_set_key" : "_ZTIKNSt3__17variantIJNS_10shared_ptrIKN7android2nn6MemoryEEENS3_7Request17MemoryDomainTokenENS1_IKNS3_7IBufferEEEEEE",
   "name" : "const std::variant<shared_ptr<const Memory>, MemoryDomainToken, shared_ptr<const IBuffer>>",
   "referenced_type" : "_ZTINSt3__17variantIJNS_10shared_ptrIKN7android2nn6MemoryEEENS3_7Request17MemoryDomainTokenENS1_IKNS3_7IBufferEEEEEE",
   "self_type" : "_ZTIKNSt3__17variantIJNS_10shared_ptrIKN7android2nn6MemoryEEENS3_7Request17MemoryDomainTokenENS1_IKNS3_7IBufferEEEEEE",
   "size" : 12,
   "source_file" : "hardware/interfaces/neuralnetworks/aidl/utils/include/nnapi/hal/aidl/Conversions.h"
  },
  {
   "alignment" : 4,
   "is_const" : true,
   "linker_set_key" : "_ZTIKNSt3__17variantIJNS_9monostateEN7android2nn7Operand25SymmPerChannelQuantParamsENS_6vectorIhNS_9allocatorIhEEEEEEE",
   "name" : "const std::variant<monostate, SymmPerChannelQuantParams, vector<unsigned char, allocator<unsigned char>>>",
   "referenced_type" : "_ZTINSt3__17variantIJNS_9monostateEN7android2nn7Operand25SymmPerChannelQuantParamsENS_6vectorIhNS_9allocatorIhEEEEEEE",
   "self_type" : "_ZTIKNSt3__17variantIJNS_9monostateEN7android2nn7Operand25SymmPerChannelQuantParamsENS_6vectorIhNS_9allocatorIhEEEEEEE",
   "size" : 20,
   "source_file" : "hardware/interfaces/neuralnetworks/aidl/utils/include/nnapi/hal/aidl/Conversions.h"
  },
  {
   "alignment" : 4,
   "is_const" : true,
   "linker_set_key" : "_ZTIKNSt3__18optionalIN4aidl7android8hardware14neuralnetworks18OperandExtraParamsEEE",
   "name" : "const std::optional<aidl::android::hardware::neuralnetworks::OperandExtraParams>",
   "referenced_type" : "_ZTINSt3__18optionalIN4aidl7android8hardware14neuralnetworks18OperandExtraParamsEEE",
   "self_type" : "_ZTIKNSt3__18optionalIN4aidl7android8hardware14neuralnetworks18OperandExtraParamsEEE",
   "size" : 24,
   "source_file" : "hardware/interfaces/neuralnetworks/aidl/utils/include/nnapi/hal/aidl/Conversions.h"
  },
  {
   "alignment" : 8,
   "is_const" : true,
   "linker_set_key" : "_ZTIKNSt3__18optionalINS_6chrono10time_pointIN7android4base10boot_clockENS1_8durationIxNS_5ratioILx1ELx1000000000EEEEEEEEE",
   "name" : "const std::optional<std::chrono::time_point<android::base::boot_clock, std::chrono::duration<long long, std::ratio<1, 1000000000>>>>",
   "referenced_type" : "_ZTINSt3__18optionalINS_6chrono10time_pointIN7android4base10boot_clockENS1_8durationIxNS_5ratioILx1ELx1000000000EEEEEEEEE",
   "self_type" : "_ZTIKNSt3__18optionalINS_6chrono10time_pointIN7android4base10boot_clockENS1_8durationIxNS_5ratioILx1ELx1000000000EEEEEEEEE",
   "size" : 16,
   "source_file" : "hardware/interfaces/neuralnetworks/aidl/utils/include/nnapi/hal/aidl/Conversions.h"
  },
  {
   "alignment" : 8,
   "is_const" : true,
   "linker_set_key" : "_ZTIKNSt3__18optionalINS_6chrono8durationIxNS_5ratioILx1ELx1000000000EEEEEEE",
   "name" : "const std::optional<std::chrono::duration<long long, std::ratio<1, 1000000000>>>",
   "referenced_type" : "_ZTINSt3__18optionalINS_6chrono8durationIxNS_5ratioILx1ELx1000000000EEEEEEE",
   "self_type" : "_ZTIKNSt3__18optionalINS_6chrono8durationIxNS_5ratioILx1ELx1000000000EEEEEEE",
   "size" : 16,
   "source_file" : "hardware/interfaces/neuralnetworks/aidl/utils/include/nnapi/hal/aidl/Conversions.h"
  }
 ],
 "record_types" : [],
 "rvalue_reference_types" : []
}
