{
 "array_types" : [],
 "builtin_types" :
 [
  {
   "linker_set_key" : "_ZTIv",
   "name" : "void",
   "referenced_type" : "_ZTIv",
   "self_type" : "_ZTIv"
  }
 ],
 "elf_functions" : [],
 "elf_objects" : [],
 "enum_types" : [],
 "function_types" : [],
 "functions" :
 [
  {
   "function_name" : "aidl::android::hardware::neuralnetworks::utils::DeathHandler::create",
   "linker_set_key" : "_ZN4aidl7android8hardware14neuralnetworks5utils12DeathHandler6createENSt3__110shared_ptrIN3ndk11ICInterfaceEEE",
   "parameters" :
   [
    {
     "referenced_type" : "_ZTINSt3__110shared_ptrIN3ndk11ICInterfaceEEE"
    }
   ],
   "return_type" : "_ZTIN7android4base8expectedIN4aidl7android8hardware14neuralnetworks5utils12DeathHandlerENS_2nn12GeneralErrorEEE",
   "source_file" : "hardware/interfaces/neuralnetworks/aidl/utils/include/nnapi/hal/aidl/ProtectCallback.h"
  },
  {
   "access" : "private",
   "function_name" : "aidl::android::hardware::neuralnetworks::utils::DeathHandler::DeathHandler",
   "linker_set_key" : "_ZN4aidl7android8hardware14neuralnetworks5utils12DeathHandlerC1ENSt3__110shared_ptrIN3ndk11ICInterfaceEEENS7_29ScopedAIBinder_DeathRecipientENS6_INS3_12DeathMonitorEEE",
   "parameters" :
   [
    {
     "is_this_ptr" : true,
     "referenced_type" : "_ZTIPN4aidl7android8hardware14neuralnetworks5utils12DeathHandlerE"
    },
    {
     "referenced_type" : "_ZTINSt3__110shared_ptrIN3ndk11ICInterfaceEEE"
    },
    {
     "referenced_type" : "_ZTIN3ndk29ScopedAIBinder_DeathRecipientE"
    },
    {
     "referenced_type" : "_ZTINSt3__110shared_ptrIN4aidl7android8hardware14neuralnetworks5utils12DeathMonitorEEE"
    }
   ],
   "return_type" : "_ZTIv",
   "source_file" : "hardware/interfaces/neuralnetworks/aidl/utils/include/nnapi/hal/aidl/ProtectCallback.h"
  },
  {
   "function_name" : "aidl::android::hardware::neuralnetworks::utils::DeathHandler::DeathHandler",
   "linker_set_key" : "_ZN4aidl7android8hardware14neuralnetworks5utils12DeathHandlerC1EOS4_",
   "parameters" :
   [
    {
     "is_this_ptr" : true,
     "referenced_type" : "_ZTIPN4aidl7android8hardware14neuralnetworks5utils12DeathHandlerE"
    },
    {
     "referenced_type" : "_ZTION4aidl7android8hardware14neuralnetworks5utils12DeathHandlerE"
    }
   ],
   "return_type" : "_ZTIv",
   "source_file" : "hardware/interfaces/neuralnetworks/aidl/utils/include/nnapi/hal/aidl/ProtectCallback.h"
  },
  {
   "access" : "private",
   "function_name" : "aidl::android::hardware::neuralnetworks::utils::DeathHandler::DeathHandler",
   "linker_set_key" : "_ZN4aidl7android8hardware14neuralnetworks5utils12DeathHandlerC2ENSt3__110shared_ptrIN3ndk11ICInterfaceEEENS7_29ScopedAIBinder_DeathRecipientENS6_INS3_12DeathMonitorEEE",
   "parameters" :
   [
    {
     "is_this_ptr" : true,
     "referenced_type" : "_ZTIPN4aidl7android8hardware14neuralnetworks5utils12DeathHandlerE"
    },
    {
     "referenced_type" : "_ZTINSt3__110shared_ptrIN3ndk11ICInterfaceEEE"
    },
    {
     "referenced_type" : "_ZTIN3ndk29ScopedAIBinder_DeathRecipientE"
    },
    {
     "referenced_type" : "_ZTINSt3__110shared_ptrIN4aidl7android8hardware14neuralnetworks5utils12DeathMonitorEEE"
    }
   ],
   "return_type" : "_ZTIv",
   "source_file" : "hardware/interfaces/neuralnetworks/aidl/utils/include/nnapi/hal/aidl/ProtectCallback.h"
  },
  {
   "function_name" : "aidl::android::hardware::neuralnetworks::utils::DeathHandler::DeathHandler",
   "linker_set_key" : "_ZN4aidl7android8hardware14neuralnetworks5utils12DeathHandlerC2EOS4_",
   "parameters" :
   [
    {
     "is_this_ptr" : true,
     "referenced_type" : "_ZTIPN4aidl7android8hardware14neuralnetworks5utils12DeathHandlerE"
    },
    {
     "referenced_type" : "_ZTION4aidl7android8hardware14neuralnetworks5utils12DeathHandlerE"
    }
   ],
   "return_type" : "_ZTIv",
   "source_file" : "hardware/interfaces/neuralnetworks/aidl/utils/include/nnapi/hal/aidl/ProtectCallback.h"
  },
  {
   "function_name" : "aidl::android::hardware::neuralnetworks::utils::DeathHandler::~DeathHandler",
   "linker_set_key" : "_ZN4aidl7android8hardware14neuralnetworks5utils12DeathHandlerD1Ev",
   "parameters" :
   [
    {
     "is_this_ptr" : true,
     "referenced_type" : "_ZTIPN4aidl7android8hardware14neuralnetworks5utils12DeathHandlerE"
    }
   ],
   "return_type" : "_ZTIv",
   "source_file" : "hardware/interfaces/neuralnetworks/aidl/utils/include/nnapi/hal/aidl/ProtectCallback.h"
  },
  {
   "function_name" : "aidl::android::hardware::neuralnetworks::utils::DeathHandler::~DeathHandler",
   "linker_set_key" : "_ZN4aidl7android8hardware14neuralnetworks5utils12DeathHandlerD2Ev",
   "parameters" :
   [
    {
     "is_this_ptr" : true,
     "referenced_type" : "_ZTIPN4aidl7android8hardware14neuralnetworks5utils12DeathHandlerE"
    }
   ],
   "return_type" : "_ZTIv",
   "source_file" : "hardware/interfaces/neuralnetworks/aidl/utils/include/nnapi/hal/aidl/ProtectCallback.h"
  },
  {
   "function_name" : "aidl::android::hardware::neuralnetworks::utils::DeathMonitor::serviceDied",
   "linker_set_key" : "_ZN4aidl7android8hardware14neuralnetworks5utils12DeathMonitor11serviceDiedEPv",
   "parameters" :
   [
    {
     "referenced_type" : "_ZTIPv"
    }
   ],
   "return_type" : "_ZTIv",
   "source_file" : "hardware/interfaces/neuralnetworks/aidl/utils/include/nnapi/hal/aidl/ProtectCallback.h"
  },
  {
   "function_name" : "aidl::android::hardware::neuralnetworks::utils::DeathMonitor::serviceDied",
   "linker_set_key" : "_ZN4aidl7android8hardware14neuralnetworks5utils12DeathMonitor11serviceDiedEv",
   "parameters" :
   [
    {
     "is_this_ptr" : true,
     "referenced_type" : "_ZTIPN4aidl7android8hardware14neuralnetworks5utils12DeathMonitorE"
    }
   ],
   "return_type" : "_ZTIv",
   "source_file" : "hardware/interfaces/neuralnetworks/aidl/utils/include/nnapi/hal/aidl/ProtectCallback.h"
  },
  {
   "function_name" : "aidl::android::hardware::neuralnetworks::utils::DeathHandler::getDeathMonitor",
   "linker_set_key" : "_ZNK4aidl7android8hardware14neuralnetworks5utils12DeathHandler15getDeathMonitorEv",
   "parameters" :
   [
    {
     "is_this_ptr" : true,
     "referenced_type" : "_ZTIPKN4aidl7android8hardware14neuralnetworks5utils12DeathHandlerE"
    }
   ],
   "return_type" : "_ZTINSt3__110shared_ptrIN4aidl7android8hardware14neuralnetworks5utils12DeathMonitorEEE",
   "source_file" : "hardware/interfaces/neuralnetworks/aidl/utils/include/nnapi/hal/aidl/ProtectCallback.h"
  },
  {
   "function_name" : "aidl::android::hardware::neuralnetworks::utils::DeathHandler::protectCallback",
   "linker_set_key" : "_ZNK4aidl7android8hardware14neuralnetworks5utils12DeathHandler15protectCallbackEPN7android8hardware14neuralnetworks5utils18IProtectedCallbackE",
   "parameters" :
   [
    {
     "is_this_ptr" : true,
     "referenced_type" : "_ZTIPKN4aidl7android8hardware14neuralnetworks5utils12DeathHandlerE"
    },
    {
     "referenced_type" : "_ZTIPN7android8hardware14neuralnetworks5utils18IProtectedCallbackE"
    }
   ],
   "return_type" : "_ZTIN7android4base10ScopeGuardINSt3__18functionIFvvEEEEE",
   "source_file" : "hardware/interfaces/neuralnetworks/aidl/utils/include/nnapi/hal/aidl/ProtectCallback.h"
  },
  {
   "function_name" : "aidl::android::hardware::neuralnetworks::utils::DeathMonitor::add",
   "linker_set_key" : "_ZNK4aidl7android8hardware14neuralnetworks5utils12DeathMonitor3addEPN7android8hardware14neuralnetworks5utils18IProtectedCallbackE",
   "parameters" :
   [
    {
     "is_this_ptr" : true,
     "referenced_type" : "_ZTIPKN4aidl7android8hardware14neuralnetworks5utils12DeathMonitorE"
    },
    {
     "referenced_type" : "_ZTIPN7android8hardware14neuralnetworks5utils18IProtectedCallbackE"
    }
   ],
   "return_type" : "_ZTIv",
   "source_file" : "hardware/interfaces/neuralnetworks/aidl/utils/include/nnapi/hal/aidl/ProtectCallback.h"
  },
  {
   "function_name" : "aidl::android::hardware::neuralnetworks::utils::DeathMonitor::remove",
   "linker_set_key" : "_ZNK4aidl7android8hardware14neuralnetworks5utils12DeathMonitor6removeEPN7android8hardware14neuralnetworks5utils18IProtectedCallbackE",
   "parameters" :
   [
    {
     "is_this_ptr" : true,
     "referenced_type" : "_ZTIPKN4aidl7android8hardware14neuralnetworks5utils12DeathMonitorE"
    },
    {
     "referenced_type" : "_ZTIPN7android8hardware14neuralnetworks5utils18IProtectedCallbackE"
    }
   ],
   "return_type" : "_ZTIv",
   "source_file" : "hardware/interfaces/neuralnetworks/aidl/utils/include/nnapi/hal/aidl/ProtectCallback.h"
  }
 ],
 "global_vars" :
 [
  {
   "linker_set_key" : "_ZN4aidl7android8hardware14neuralnetworks5utilsL16kDefaultPriorityE",
   "name" : "aidl::android::hardware::neuralnetworks::utils::kDefaultPriority",
   "referenced_type" : "_ZTIKN4aidl7android8hardware14neuralnetworks8PriorityE",
   "source_file" : "hardware/interfaces/neuralnetworks/aidl/utils/include/nnapi/hal/aidl/Utils.h"
  },
  {
   "linker_set_key" : "_ZN4aidl7android8hardware14neuralnetworks5utilsL8kVersionE",
   "name" : "aidl::android::hardware::neuralnetworks::utils::kVersion",
   "referenced_type" : "_ZTIKN7android2nn7VersionE",
   "source_file" : "hardware/interfaces/neuralnetworks/aidl/utils/include/nnapi/hal/aidl/Utils.h"
  }
 ],
 "lvalue_reference_types" : [],
 "pointer_types" :
 [
  {
   "alignment" : 4,
   "linker_set_key" : "_ZTIPKN4aidl7android8hardware14neuralnetworks5utils12DeathHandlerE",
   "name" : "const aidl::android::hardware::neuralnetworks::utils::DeathHandler *",
   "referenced_type" : "_ZTIKN4aidl7android8hardware14neuralnetworks5utils12DeathHandlerE",
   "self_type" : "_ZTIPKN4aidl7android8hardware14neuralnetworks5utils12DeathHandlerE",
   "size" : 4,
   "source_file" : "hardware/interfaces/neuralnetworks/aidl/utils/include/nnapi/hal/aidl/ProtectCallback.h"
  },
  {
   "alignment" : 4,
   "linker_set_key" : "_ZTIPKN4aidl7android8hardware14neuralnetworks5utils12DeathMonitorE",
   "name" : "const aidl::android::hardware::neuralnetworks::utils::DeathMonitor *",
   "referenced_type" : "_ZTIKN4aidl7android8hardware14neuralnetworks5utils12DeathMonitorE",
   "self_type" : "_ZTIPKN4aidl7android8hardware14neuralnetworks5utils12DeathMonitorE",
   "size" : 4,
   "source_file" : "hardware/interfaces/neuralnetworks/aidl/utils/include/nnapi/hal/aidl/ProtectCallback.h"
  },
  {
   "alignment" : 4,
   "linker_set_key" : "_ZTIPN4aidl7android8hardware14neuralnetworks5utils12DeathHandlerE",
   "name" : "aidl::android::hardware::neuralnetworks::utils::DeathHandler *",
   "referenced_type" : "_ZTIN4aidl7android8hardware14neuralnetworks5utils12DeathHandlerE",
   "self_type" : "_ZTIPN4aidl7android8hardware14neuralnetworks5utils12DeathHandlerE",
   "size" : 4,
   "source_file" : "hardware/interfaces/neuralnetworks/aidl/utils/include/nnapi/hal/aidl/ProtectCallback.h"
  },
  {
   "alignment" : 4,
   "linker_set_key" : "_ZTIPN4aidl7android8hardware14neuralnetworks5utils12DeathMonitorE",
   "name" : "aidl::android::hardware::neuralnetworks::utils::DeathMonitor *",
   "referenced_type" : "_ZTIN4aidl7android8hardware14neuralnetworks5utils12DeathMonitorE",
   "self_type" : "_ZTIPN4aidl7android8hardware14neuralnetworks5utils12DeathMonitorE",
   "size" : 4,
   "source_file" : "hardware/interfaces/neuralnetworks/aidl/utils/include/nnapi/hal/aidl/ProtectCallback.h"
  },
  {
   "alignment" : 4,
   "linker_set_key" : "_ZTIPN7android8hardware14neuralnetworks5utils18IProtectedCallbackE",
   "name" : "android::hardware::neuralnetworks::utils::IProtectedCallback *",
   "referenced_type" : "_ZTIN7android8hardware14neuralnetworks5utils18IProtectedCallbackE",
   "self_type" : "_ZTIPN7android8hardware14neuralnetworks5utils18IProtectedCallbackE",
   "size" : 4,
   "source_file" : "hardware/interfaces/neuralnetworks/aidl/utils/include/nnapi/hal/aidl/ProtectCallback.h"
  },
  {
   "alignment" : 4,
   "linker_set_key" : "_ZTIPv",
   "name" : "void *",
   "referenced_type" : "_ZTIv",
   "self_type" : "_ZTIPv",
   "size" : 4,
   "source_file" : "hardware/interfaces/neuralnetworks/aidl/utils/include/nnapi/hal/aidl/ProtectCallback.h"
  }
 ],
 "qualified_types" :
 [
  {
   "alignment" : 4,
   "is_const" : true,
   "linker_set_key" : "_ZTIKN4aidl7android8hardware14neuralnetworks5utils12DeathHandlerE",
   "name" : "const aidl::android::hardware::neuralnetworks::utils::DeathHandler",
   "referenced_type" : "_ZTIN4aidl7android8hardware14neuralnetworks5utils12DeathHandlerE",
   "self_type" : "_ZTIKN4aidl7android8hardware14neuralnetworks5utils12DeathHandlerE",
   "size" : 20,
   "source_file" : "hardware/interfaces/neuralnetworks/aidl/utils/include/nnapi/hal/aidl/ProtectCallback.h"
  },
  {
   "alignment" : 4,
   "is_const" : true,
   "linker_set_key" : "_ZTIKN4aidl7android8hardware14neuralnetworks5utils12DeathMonitorE",
   "name" : "const aidl::android::hardware::neuralnetworks::utils::DeathMonitor",
   "referenced_type" : "_ZTIN4aidl7android8hardware14neuralnetworks5utils12DeathMonitorE",
   "self_type" : "_ZTIKN4aidl7android8hardware14neuralnetworks5utils12DeathMonitorE",
   "size" : 16,
   "source_file" : "hardware/interfaces/neuralnetworks/aidl/utils/include/nnapi/hal/aidl/ProtectCallback.h"
  },
  {
   "alignment" : 4,
   "is_const" : true,
   "linker_set_key" : "_ZTIKN4aidl7android8hardware14neuralnetworks8PriorityE",
   "name" : "const aidl::android::hardware::neuralnetworks::Priority",
   "referenced_type" : "_ZTIN4aidl7android8hardware14neuralnetworks8PriorityE",
   "self_type" : "_ZTIKN4aidl7android8hardware14neuralnetworks8PriorityE",
   "size" : 4,
   "source_file" : "hardware/interfaces/neuralnetworks/aidl/utils/include/nnapi/hal/aidl/Utils.h"
  },
  {
   "alignment" : 4,
   "is_const" : true,
   "linker_set_key" : "_ZTIKN7android2nn7VersionE",
   "name" : "const android::nn::Version",
   "referenced_type" : "_ZTIN7android2nn7VersionE",
   "self_type" : "_ZTIKN7android2nn7VersionE",
   "size" : 4,
   "source_file" : "hardware/interfaces/neuralnetworks/aidl/utils/include/nnapi/hal/aidl/Utils.h"
  }
 ],
 "record_types" :
 [
  {
   "alignment" : 4,
   "fields" :
   [
    {
     "access" : "private",
     "field_name" : "kObject",
     "referenced_type" : "_ZTINSt3__110shared_ptrIN3ndk11ICInterfaceEEE"
    },
    {
     "access" : "private",
     "field_name" : "kDeathRecipient",
     "field_offset" : 64,
     "referenced_type" : "_ZTIN3ndk29ScopedAIBinder_DeathRecipientE"
    },
    {
     "access" : "private",
     "field_name" : "kDeathMonitor",
     "field_offset" : 96,
     "referenced_type" : "_ZTINSt3__110shared_ptrIN4aidl7android8hardware14neuralnetworks5utils12DeathMonitorEEE"
    }
   ],
   "linker_set_key" : "_ZTIN4aidl7android8hardware14neuralnetworks5utils12DeathHandlerE",
   "name" : "aidl::android::hardware::neuralnetworks::utils::DeathHandler",
   "record_kind" : "class",
   "referenced_type" : "_ZTIN4aidl7android8hardware14neuralnetworks5utils12DeathHandlerE",
   "self_type" : "_ZTIN4aidl7android8hardware14neuralnetworks5utils12DeathHandlerE",
   "size" : 20,
   "source_file" : "hardware/interfaces/neuralnetworks/aidl/utils/include/nnapi/hal/aidl/ProtectCallback.h"
  },
  {
   "alignment" : 4,
   "fields" :
   [
    {
     "access" : "private",
     "field_name" : "mMutex",
     "referenced_type" : "_ZTINSt3__15mutexE"
    },
    {
     "access" : "private",
     "field_name" : "mObjects",
     "field_offset" : 32,
     "referenced_type" : "_ZTINSt3__16vectorIPN7android8hardware14neuralnetworks5utils18IProtectedCallbackENS_9allocatorIS6_EEEE"
    }
   ],
   "linker_set_key" : "_ZTIN4aidl7android8hardware14neuralnetworks5utils12DeathMonitorE",
   "name" : "aidl::android::hardware::neuralnetworks::utils::DeathMonitor",
   "record_kind" : "class",
   "referenced_type" : "_ZTIN4aidl7android8hardware14neuralnetworks5utils12DeathMonitorE",
   "self_type" : "_ZTIN4aidl7android8hardware14neuralnetworks5utils12DeathMonitorE",
   "size" : 16,
   "source_file" : "hardware/interfaces/neuralnetworks/aidl/utils/include/nnapi/hal/aidl/ProtectCallback.h"
  }
 ],
 "rvalue_reference_types" :
 [
  {
   "alignment" : 4,
   "linker_set_key" : "_ZTION4aidl7android8hardware14neuralnetworks5utils12DeathHandlerE",
   "name" : "aidl::android::hardware::neuralnetworks::utils::DeathHandler &&",
   "referenced_type" : "_ZTIN4aidl7android8hardware14neuralnetworks5utils12DeathHandlerE",
   "self_type" : "_ZTION4aidl7android8hardware14neuralnetworks5utils12DeathHandlerE",
   "size" : 4,
   "source_file" : "hardware/interfaces/neuralnetworks/aidl/utils/include/nnapi/hal/aidl/ProtectCallback.h"
  }
 ]
}
