{
 "array_types" :
 [
  {
   "alignment" : 4,
   "linker_set_key" : "_ZTIA3_N7android7details5TVec3IfEE",
   "name" : "android::details::TVec3<float> [3]",
   "referenced_type" : "_ZTIN7android7details5TVec3IfEE",
   "self_type" : "_ZTIA3_N7android7details5TVec3IfEE",
   "size" : 36,
   "source_file" : "frameworks/native/libs/math/include/math/mat3.h"
  },
  {
   "alignment" : 4,
   "linker_set_key" : "_ZTIA3_j",
   "name" : "unsigned int [3]",
   "referenced_type" : "_ZTIj",
   "self_type" : "_ZTIA3_j",
   "size" : 12,
   "source_file" : "frameworks/native/libs/math/include/math/TMatHelpers.h"
  }
 ],
 "builtin_types" :
 [
  {
   "alignment" : 1,
   "is_integral" : true,
   "is_unsigned" : true,
   "linker_set_key" : "_ZTIb",
   "name" : "bool",
   "referenced_type" : "_ZTIb",
   "self_type" : "_ZTIb",
   "size" : 1
  },
  {
   "alignment" : 8,
   "linker_set_key" : "_ZTId",
   "name" : "double",
   "referenced_type" : "_ZTId",
   "self_type" : "_ZTId",
   "size" : 8
  },
  {
   "alignment" : 8,
   "linker_set_key" : "_ZTIe",
   "name" : "long double",
   "referenced_type" : "_ZTIe",
   "self_type" : "_ZTIe",
   "size" : 8
  },
  {
   "alignment" : 4,
   "linker_set_key" : "_ZTIf",
   "name" : "float",
   "referenced_type" : "_ZTIf",
   "self_type" : "_ZTIf",
   "size" : 4
  },
  {
   "alignment" : 4,
   "is_integral" : true,
   "linker_set_key" : "_ZTIi",
   "name" : "int",
   "referenced_type" : "_ZTIi",
   "self_type" : "_ZTIi",
   "size" : 4
  },
  {
   "alignment" : 4,
   "is_integral" : true,
   "is_unsigned" : true,
   "linker_set_key" : "_ZTIj",
   "name" : "unsigned int",
   "referenced_type" : "_ZTIj",
   "self_type" : "_ZTIj",
   "size" : 4
  },
  {
   "alignment" : 2,
   "is_integral" : true,
   "is_unsigned" : true,
   "linker_set_key" : "_ZTIt",
   "name" : "unsigned short",
   "referenced_type" : "_ZTIt",
   "self_type" : "_ZTIt",
   "size" : 2
  },
  {
   "linker_set_key" : "_ZTIv",
   "name" : "void",
   "referenced_type" : "_ZTIv",
   "self_type" : "_ZTIv"
  },
  {
   "alignment" : 8,
   "is_integral" : true,
   "is_unsigned" : true,
   "linker_set_key" : "_ZTIy",
   "name" : "unsigned long long",
   "referenced_type" : "_ZTIy",
   "self_type" : "_ZTIy",
   "size" : 8
  }
 ],
 "elf_functions" : [],
 "elf_objects" : [],
 "enum_types" :
 [
  {
   "access" : "private",
   "alignment" : 4,
   "enum_fields" :
   [
    {
     "enum_field_value" : 0,
     "name" : "android::half::binary"
    }
   ],
   "linker_set_key" : "_ZTIN7android4half6BinaryE",
   "name" : "android::half::Binary",
   "referenced_type" : "_ZTIN7android4half6BinaryE",
   "self_type" : "_ZTIN7android4half6BinaryE",
   "size" : 4,
   "source_file" : "frameworks/native/libs/math/include/math/half.h",
   "underlying_type" : "_ZTIj"
  },
  {
   "alignment" : 4,
   "enum_fields" :
   [
    {
     "enum_field_value" : 4,
     "name" : "android::details::TQuaternion<double>::SIZE"
    }
   ],
   "linker_set_key" : "_ZTIN7android7details11TQuaternionIdE5$SIZEE",
   "name" : "android::details::TQuaternion<double>::(anonymous enum at frameworks/native/libs/math/include/math/quat.h:72:5)",
   "referenced_type" : "_ZTIN7android7details11TQuaternionIdE5$SIZEE",
   "self_type" : "_ZTIN7android7details11TQuaternionIdE5$SIZEE",
   "size" : 4,
   "source_file" : "frameworks/native/libs/math/include/math/quat.h",
   "underlying_type" : "_ZTIj"
  },
  {
   "alignment" : 4,
   "enum_fields" :
   [
    {
     "enum_field_value" : 0,
     "name" : "android::details::TQuaternion<double>::NO_INIT"
    }
   ],
   "linker_set_key" : "_ZTIN7android7details11TQuaternionIdE7no_initE",
   "name" : "android::details::TQuaternion<double>::no_init",
   "referenced_type" : "_ZTIN7android7details11TQuaternionIdE7no_initE",
   "self_type" : "_ZTIN7android7details11TQuaternionIdE7no_initE",
   "size" : 4,
   "source_file" : "frameworks/native/libs/math/include/math/quat.h",
   "underlying_type" : "_ZTIj"
  },
  {
   "alignment" : 4,
   "enum_fields" :
   [
    {
     "enum_field_value" : 4,
     "name" : "android::details::TQuaternion<float>::SIZE"
    }
   ],
   "linker_set_key" : "_ZTIN7android7details11TQuaternionIfE5$SIZEE",
   "name" : "android::details::TQuaternion<float>::(anonymous enum at frameworks/native/libs/math/include/math/quat.h:72:5)",
   "referenced_type" : "_ZTIN7android7details11TQuaternionIfE5$SIZEE",
   "self_type" : "_ZTIN7android7details11TQuaternionIfE5$SIZEE",
   "size" : 4,
   "source_file" : "frameworks/native/libs/math/include/math/quat.h",
   "underlying_type" : "_ZTIj"
  },
  {
   "alignment" : 4,
   "enum_fields" :
   [
    {
     "enum_field_value" : 0,
     "name" : "android::details::TQuaternion<float>::NO_INIT"
    }
   ],
   "linker_set_key" : "_ZTIN7android7details11TQuaternionIfE7no_initE",
   "name" : "android::details::TQuaternion<float>::no_init",
   "referenced_type" : "_ZTIN7android7details11TQuaternionIfE7no_initE",
   "self_type" : "_ZTIN7android7details11TQuaternionIfE7no_initE",
   "size" : 4,
   "source_file" : "frameworks/native/libs/math/include/math/quat.h",
   "underlying_type" : "_ZTIj"
  },
  {
   "alignment" : 4,
   "enum_fields" :
   [
    {
     "enum_field_value" : 0,
     "name" : "android::details::TVec2<bool>::NO_INIT"
    }
   ],
   "linker_set_key" : "_ZTIN7android7details5TVec2IbE7no_initE",
   "name" : "android::details::TVec2<bool>::no_init",
   "referenced_type" : "_ZTIN7android7details5TVec2IbE7no_initE",
   "self_type" : "_ZTIN7android7details5TVec2IbE7no_initE",
   "size" : 4,
   "source_file" : "frameworks/native/libs/math/include/math/vec2.h",
   "underlying_type" : "_ZTIj"
  },
  {
   "alignment" : 4,
   "enum_fields" :
   [
    {
     "enum_field_value" : 0,
     "name" : "android::details::TVec2<double>::NO_INIT"
    }
   ],
   "linker_set_key" : "_ZTIN7android7details5TVec2IdE7no_initE",
   "name" : "android::details::TVec2<double>::no_init",
   "referenced_type" : "_ZTIN7android7details5TVec2IdE7no_initE",
   "self_type" : "_ZTIN7android7details5TVec2IdE7no_initE",
   "size" : 4,
   "source_file" : "frameworks/native/libs/math/include/math/vec2.h",
   "underlying_type" : "_ZTIj"
  },
  {
   "alignment" : 4,
   "enum_fields" :
   [
    {
     "enum_field_value" : 0,
     "name" : "android::details::TVec2<float>::NO_INIT"
    }
   ],
   "linker_set_key" : "_ZTIN7android7details5TVec2IfE7no_initE",
   "name" : "android::details::TVec2<float>::no_init",
   "referenced_type" : "_ZTIN7android7details5TVec2IfE7no_initE",
   "self_type" : "_ZTIN7android7details5TVec2IfE7no_initE",
   "size" : 4,
   "source_file" : "frameworks/native/libs/math/include/math/vec2.h",
   "underlying_type" : "_ZTIj"
  },
  {
   "alignment" : 4,
   "enum_fields" :
   [
    {
     "enum_field_value" : 0,
     "name" : "android::details::TVec3<double>::NO_INIT"
    }
   ],
   "linker_set_key" : "_ZTIN7android7details5TVec3IdE7no_initE",
   "name" : "android::details::TVec3<double>::no_init",
   "referenced_type" : "_ZTIN7android7details5TVec3IdE7no_initE",
   "self_type" : "_ZTIN7android7details5TVec3IdE7no_initE",
   "size" : 4,
   "source_file" : "frameworks/native/libs/math/include/math/vec3.h",
   "underlying_type" : "_ZTIj"
  },
  {
   "alignment" : 4,
   "enum_fields" :
   [
    {
     "enum_field_value" : 0,
     "name" : "android::details::TVec3<float>::NO_INIT"
    }
   ],
   "linker_set_key" : "_ZTIN7android7details5TVec3IfE7no_initE",
   "name" : "android::details::TVec3<float>::no_init",
   "referenced_type" : "_ZTIN7android7details5TVec3IfE7no_initE",
   "self_type" : "_ZTIN7android7details5TVec3IfE7no_initE",
   "size" : 4,
   "source_file" : "frameworks/native/libs/math/include/math/vec3.h",
   "underlying_type" : "_ZTIj"
  },
  {
   "alignment" : 4,
   "enum_fields" :
   [
    {
     "enum_field_value" : 0,
     "name" : "android::details::TVec4<double>::NO_INIT"
    }
   ],
   "linker_set_key" : "_ZTIN7android7details5TVec4IdE7no_initE",
   "name" : "android::details::TVec4<double>::no_init",
   "referenced_type" : "_ZTIN7android7details5TVec4IdE7no_initE",
   "self_type" : "_ZTIN7android7details5TVec4IdE7no_initE",
   "size" : 4,
   "source_file" : "frameworks/native/libs/math/include/math/vec4.h",
   "underlying_type" : "_ZTIj"
  },
  {
   "alignment" : 4,
   "enum_fields" :
   [
    {
     "enum_field_value" : 0,
     "name" : "android::details::TVec4<float>::NO_INIT"
    }
   ],
   "linker_set_key" : "_ZTIN7android7details5TVec4IfE7no_initE",
   "name" : "android::details::TVec4<float>::no_init",
   "referenced_type" : "_ZTIN7android7details5TVec4IfE7no_initE",
   "self_type" : "_ZTIN7android7details5TVec4IfE7no_initE",
   "size" : 4,
   "source_file" : "frameworks/native/libs/math/include/math/vec4.h",
   "underlying_type" : "_ZTIj"
  },
  {
   "alignment" : 4,
   "enum_fields" :
   [
    {
     "enum_field_value" : 0,
     "name" : "android::details::TMat33<float>::NO_INIT"
    }
   ],
   "linker_set_key" : "_ZTIN7android7details6TMat33IfE7no_initE",
   "name" : "android::details::TMat33<float>::no_init",
   "referenced_type" : "_ZTIN7android7details6TMat33IfE7no_initE",
   "self_type" : "_ZTIN7android7details6TMat33IfE7no_initE",
   "size" : 4,
   "source_file" : "frameworks/native/libs/math/include/math/mat3.h",
   "underlying_type" : "_ZTIj"
  }
 ],
 "function_types" : [],
 "functions" :
 [
  {
   "function_name" : "android::ColorSpace::linearSRGB",
   "linker_set_key" : "_ZN7android10ColorSpace10linearSRGBEv",
   "return_type" : "_ZTIKN7android10ColorSpaceE",
   "source_file" : "frameworks/native/libs/ui/include_types/ui/ColorSpace.h"
  },
  {
   "function_name" : "android::ColorSpace::ProPhotoRGB",
   "linker_set_key" : "_ZN7android10ColorSpace11ProPhotoRGBEv",
   "return_type" : "_ZTIKN7android10ColorSpaceE",
   "source_file" : "frameworks/native/libs/ui/include_types/ui/ColorSpace.h"
  },
  {
   "function_name" : "android::ColorSpace::extendedSRGB",
   "linker_set_key" : "_ZN7android10ColorSpace12extendedSRGBEv",
   "return_type" : "_ZTIKN7android10ColorSpaceE",
   "source_file" : "frameworks/native/libs/ui/include_types/ui/ColorSpace.h"
  },
  {
   "access" : "private",
   "function_name" : "android::ColorSpace::linearResponse",
   "linker_set_key" : "_ZN7android10ColorSpace14linearResponseEf",
   "parameters" :
   [
    {
     "referenced_type" : "_ZTIf"
    }
   ],
   "return_type" : "_ZTIf",
   "source_file" : "frameworks/native/libs/ui/include_types/ui/ColorSpace.h"
  },
  {
   "access" : "private",
   "function_name" : "android::ColorSpace::computeXYZMatrix",
   "linker_set_key" : "_ZN7android10ColorSpace16computeXYZMatrixERKNSt3__15arrayINS_7details5TVec2IfEELj3EEERKS5_",
   "parameters" :
   [
    {
     "referenced_type" : "_ZTIRKNSt3__15arrayIN7android7details5TVec2IfEELj3EEE"
    },
    {
     "referenced_type" : "_ZTIRKN7android7details5TVec2IfEE"
    }
   ],
   "return_type" : "_ZTIN7android7details6TMat33IfEE",
   "source_file" : "frameworks/native/libs/ui/include_types/ui/ColorSpace.h"
  },
  {
   "function_name" : "android::ColorSpace::linearExtendedSRGB",
   "linker_set_key" : "_ZN7android10ColorSpace18linearExtendedSRGBEv",
   "return_type" : "_ZTIKN7android10ColorSpaceE",
   "source_file" : "frameworks/native/libs/ui/include_types/ui/ColorSpace.h"
  },
  {
   "function_name" : "android::ColorSpace::XYZ",
   "linker_set_key" : "_ZN7android10ColorSpace3XYZERKNS_7details5TVec3IfEE",
   "parameters" :
   [
    {
     "referenced_type" : "_ZTIRKN7android7details5TVec3IfEE"
    }
   ],
   "return_type" : "_ZTIN7android7details5TVec3IfEE",
   "source_file" : "frameworks/native/libs/ui/include_types/ui/ColorSpace.h"
  },
  {
   "function_name" : "android::ColorSpace::xyY",
   "linker_set_key" : "_ZN7android10ColorSpace3xyYERKNS_7details5TVec3IfEE",
   "parameters" :
   [
    {
     "referenced_type" : "_ZTIRKN7android7details5TVec3IfEE"
    }
   ],
   "return_type" : "_ZTIN7android7details5TVec2IfEE",
   "source_file" : "frameworks/native/libs/ui/include_types/ui/ColorSpace.h"
  },
  {
   "function_name" : "android::ColorSpace::ACES",
   "linker_set_key" : "_ZN7android10ColorSpace4ACESEv",
   "return_type" : "_ZTIKN7android10ColorSpaceE",
   "source_file" : "frameworks/native/libs/ui/include_types/ui/ColorSpace.h"
  },
  {
   "function_name" : "android::ColorSpace::NTSC",
   "linker_set_key" : "_ZN7android10ColorSpace4NTSCEv",
   "return_type" : "_ZTIKN7android10ColorSpaceE",
   "source_file" : "frameworks/native/libs/ui/include_types/ui/ColorSpace.h"
  },
  {
   "function_name" : "android::ColorSpace::sRGB",
   "linker_set_key" : "_ZN7android10ColorSpace4sRGBEv",
   "return_type" : "_ZTIKN7android10ColorSpaceE",
   "source_file" : "frameworks/native/libs/ui/include_types/ui/ColorSpace.h"
  },
  {
   "function_name" : "android::ColorSpace::BT709",
   "linker_set_key" : "_ZN7android10ColorSpace5BT709Ev",
   "return_type" : "_ZTIKN7android10ColorSpaceE",
   "source_file" : "frameworks/native/libs/ui/include_types/ui/ColorSpace.h"
  },
  {
   "function_name" : "android::ColorSpace::DCIP3",
   "linker_set_key" : "_ZN7android10ColorSpace5DCIP3Ev",
   "return_type" : "_ZTIKN7android10ColorSpaceE",
   "source_file" : "frameworks/native/libs/ui/include_types/ui/ColorSpace.h"
  },
  {
   "function_name" : "android::ColorSpace::ACEScg",
   "linker_set_key" : "_ZN7android10ColorSpace6ACEScgEv",
   "return_type" : "_ZTIKN7android10ColorSpaceE",
   "source_file" : "frameworks/native/libs/ui/include_types/ui/ColorSpace.h"
  },
  {
   "function_name" : "android::ColorSpace::BT2020",
   "linker_set_key" : "_ZN7android10ColorSpace6BT2020Ev",
   "return_type" : "_ZTIKN7android10ColorSpaceE",
   "source_file" : "frameworks/native/libs/ui/include_types/ui/ColorSpace.h"
  },
  {
   "function_name" : "android::ColorSpace::AdobeRGB",
   "linker_set_key" : "_ZN7android10ColorSpace8AdobeRGBEv",
   "return_type" : "_ZTIKN7android10ColorSpaceE",
   "source_file" : "frameworks/native/libs/ui/include_types/ui/ColorSpace.h"
  },
  {
   "function_name" : "android::ColorSpace::DisplayP3",
   "linker_set_key" : "_ZN7android10ColorSpace9DisplayP3Ev",
   "return_type" : "_ZTIKN7android10ColorSpaceE",
   "source_file" : "frameworks/native/libs/ui/include_types/ui/ColorSpace.h"
  },
  {
   "function_name" : "android::ColorSpace::createLUT",
   "linker_set_key" : "_ZN7android10ColorSpace9createLUTEjRKS0_S2_",
   "parameters" :
   [
    {
     "referenced_type" : "_ZTIj"
    },
    {
     "referenced_type" : "_ZTIRKN7android10ColorSpaceE"
    },
    {
     "referenced_type" : "_ZTIRKN7android10ColorSpaceE"
    }
   ],
   "return_type" : "_ZTINSt3__110unique_ptrIA_N7android7details5TVec3IfEENS_14default_deleteIS5_EEEE",
   "source_file" : "frameworks/native/libs/ui/include_types/ui/ColorSpace.h"
  },
  {
   "function_name" : "android::ColorSpace::ColorSpace",
   "linker_set_key" : "_ZN7android10ColorSpaceC1ERKNSt3__112basic_stringIcNS1_11char_traitsIcEENS1_9allocatorIcEEEERKNS1_5arrayINS_7details5TVec2IfEELj3EEERKSD_NS0_18TransferParametersENS1_8functionIFffEEE",
   "parameters" :
   [
    {
     "is_this_ptr" : true,
     "referenced_type" : "_ZTIPN7android10ColorSpaceE"
    },
    {
     "referenced_type" : "_ZTIRKNSt3__112basic_stringIcNS_11char_traitsIcEENS_9allocatorIcEEEE"
    },
    {
     "referenced_type" : "_ZTIRKNSt3__15arrayIN7android7details5TVec2IfEELj3EEE"
    },
    {
     "referenced_type" : "_ZTIRKN7android7details5TVec2IfEE"
    },
    {
     "referenced_type" : "_ZTIKN7android10ColorSpace18TransferParametersE"
    },
    {
     "default_arg" : true,
     "referenced_type" : "_ZTINSt3__18functionIFffEEE"
    }
   ],
   "return_type" : "_ZTIv",
   "source_file" : "frameworks/native/libs/ui/include_types/ui/ColorSpace.h"
  },
  {
   "function_name" : "android::ColorSpace::ColorSpace",
   "linker_set_key" : "_ZN7android10ColorSpaceC1ERKNSt3__112basic_stringIcNS1_11char_traitsIcEENS1_9allocatorIcEEEERKNS1_5arrayINS_7details5TVec2IfEELj3EEERKSD_NS1_8functionIFffEEESL_SL_",
   "parameters" :
   [
    {
     "is_this_ptr" : true,
     "referenced_type" : "_ZTIPN7android10ColorSpaceE"
    },
    {
     "referenced_type" : "_ZTIRKNSt3__112basic_stringIcNS_11char_traitsIcEENS_9allocatorIcEEEE"
    },
    {
     "referenced_type" : "_ZTIRKNSt3__15arrayIN7android7details5TVec2IfEELj3EEE"
    },
    {
     "referenced_type" : "_ZTIRKN7android7details5TVec2IfEE"
    },
    {
     "default_arg" : true,
     "referenced_type" : "_ZTINSt3__18functionIFffEEE"
    },
    {
     "default_arg" : true,
     "referenced_type" : "_ZTINSt3__18functionIFffEEE"
    },
    {
     "default_arg" : true,
     "referenced_type" : "_ZTINSt3__18functionIFffEEE"
    }
   ],
   "return_type" : "_ZTIv",
   "source_file" : "frameworks/native/libs/ui/include_types/ui/ColorSpace.h"
  },
  {
   "function_name" : "android::ColorSpace::ColorSpace",
   "linker_set_key" : "_ZN7android10ColorSpaceC1ERKNSt3__112basic_stringIcNS1_11char_traitsIcEENS1_9allocatorIcEEEERKNS1_5arrayINS_7details5TVec2IfEELj3EEERKSD_fNS1_8functionIFffEEE",
   "parameters" :
   [
    {
     "is_this_ptr" : true,
     "referenced_type" : "_ZTIPN7android10ColorSpaceE"
    },
    {
     "referenced_type" : "_ZTIRKNSt3__112basic_stringIcNS_11char_traitsIcEENS_9allocatorIcEEEE"
    },
    {
     "referenced_type" : "_ZTIRKNSt3__15arrayIN7android7details5TVec2IfEELj3EEE"
    },
    {
     "referenced_type" : "_ZTIRKN7android7details5TVec2IfEE"
    },
    {
     "referenced_type" : "_ZTIf"
    },
    {
     "default_arg" : true,
     "referenced_type" : "_ZTINSt3__18functionIFffEEE"
    }
   ],
   "return_type" : "_ZTIv",
   "source_file" : "frameworks/native/libs/ui/include_types/ui/ColorSpace.h"
  },
  {
   "function_name" : "android::ColorSpace::ColorSpace",
   "linker_set_key" : "_ZN7android10ColorSpaceC1ERKNSt3__112basic_stringIcNS1_11char_traitsIcEENS1_9allocatorIcEEEERKNS_7details6TMat33IfEENS0_18TransferParametersENS1_8functionIFffEEE",
   "parameters" :
   [
    {
     "is_this_ptr" : true,
     "referenced_type" : "_ZTIPN7android10ColorSpaceE"
    },
    {
     "referenced_type" : "_ZTIRKNSt3__112basic_stringIcNS_11char_traitsIcEENS_9allocatorIcEEEE"
    },
    {
     "referenced_type" : "_ZTIRKN7android7details6TMat33IfEE"
    },
    {
     "referenced_type" : "_ZTIKN7android10ColorSpace18TransferParametersE"
    },
    {
     "default_arg" : true,
     "referenced_type" : "_ZTINSt3__18functionIFffEEE"
    }
   ],
   "return_type" : "_ZTIv",
   "source_file" : "frameworks/native/libs/ui/include_types/ui/ColorSpace.h"
  },
  {
   "function_name" : "android::ColorSpace::ColorSpace",
   "linker_set_key" : "_ZN7android10ColorSpaceC1ERKNSt3__112basic_stringIcNS1_11char_traitsIcEENS1_9allocatorIcEEEERKNS_7details6TMat33IfEENS1_8functionIFffEEESH_SH_",
   "parameters" :
   [
    {
     "is_this_ptr" : true,
     "referenced_type" : "_ZTIPN7android10ColorSpaceE"
    },
    {
     "referenced_type" : "_ZTIRKNSt3__112basic_stringIcNS_11char_traitsIcEENS_9allocatorIcEEEE"
    },
    {
     "referenced_type" : "_ZTIRKN7android7details6TMat33IfEE"
    },
    {
     "default_arg" : true,
     "referenced_type" : "_ZTINSt3__18functionIFffEEE"
    },
    {
     "default_arg" : true,
     "referenced_type" : "_ZTINSt3__18functionIFffEEE"
    },
    {
     "default_arg" : true,
     "referenced_type" : "_ZTINSt3__18functionIFffEEE"
    }
   ],
   "return_type" : "_ZTIv",
   "source_file" : "frameworks/native/libs/ui/include_types/ui/ColorSpace.h"
  },
  {
   "function_name" : "android::ColorSpace::ColorSpace",
   "linker_set_key" : "_ZN7android10ColorSpaceC1ERKNSt3__112basic_stringIcNS1_11char_traitsIcEENS1_9allocatorIcEEEERKNS_7details6TMat33IfEEfNS1_8functionIFffEEE",
   "parameters" :
   [
    {
     "is_this_ptr" : true,
     "referenced_type" : "_ZTIPN7android10ColorSpaceE"
    },
    {
     "referenced_type" : "_ZTIRKNSt3__112basic_stringIcNS_11char_traitsIcEENS_9allocatorIcEEEE"
    },
    {
     "referenced_type" : "_ZTIRKN7android7details6TMat33IfEE"
    },
    {
     "referenced_type" : "_ZTIf"
    },
    {
     "default_arg" : true,
     "referenced_type" : "_ZTINSt3__18functionIFffEEE"
    }
   ],
   "return_type" : "_ZTIv",
   "source_file" : "frameworks/native/libs/ui/include_types/ui/ColorSpace.h"
  },
  {
   "function_name" : "android::ColorSpace::ColorSpace",
   "linker_set_key" : "_ZN7android10ColorSpaceC2ERKNSt3__112basic_stringIcNS1_11char_traitsIcEENS1_9allocatorIcEEEERKNS1_5arrayINS_7details5TVec2IfEELj3EEERKSD_NS0_18TransferParametersENS1_8functionIFffEEE",
   "parameters" :
   [
    {
     "is_this_ptr" : true,
     "referenced_type" : "_ZTIPN7android10ColorSpaceE"
    },
    {
     "referenced_type" : "_ZTIRKNSt3__112basic_stringIcNS_11char_traitsIcEENS_9allocatorIcEEEE"
    },
    {
     "referenced_type" : "_ZTIRKNSt3__15arrayIN7android7details5TVec2IfEELj3EEE"
    },
    {
     "referenced_type" : "_ZTIRKN7android7details5TVec2IfEE"
    },
    {
     "referenced_type" : "_ZTIKN7android10ColorSpace18TransferParametersE"
    },
    {
     "default_arg" : true,
     "referenced_type" : "_ZTINSt3__18functionIFffEEE"
    }
   ],
   "return_type" : "_ZTIv",
   "source_file" : "frameworks/native/libs/ui/include_types/ui/ColorSpace.h"
  },
  {
   "function_name" : "android::ColorSpace::ColorSpace",
   "linker_set_key" : "_ZN7android10ColorSpaceC2ERKNSt3__112basic_stringIcNS1_11char_traitsIcEENS1_9allocatorIcEEEERKNS1_5arrayINS_7details5TVec2IfEELj3EEERKSD_NS1_8functionIFffEEESL_SL_",
   "parameters" :
   [
    {
     "is_this_ptr" : true,
     "referenced_type" : "_ZTIPN7android10ColorSpaceE"
    },
    {
     "referenced_type" : "_ZTIRKNSt3__112basic_stringIcNS_11char_traitsIcEENS_9allocatorIcEEEE"
    },
    {
     "referenced_type" : "_ZTIRKNSt3__15arrayIN7android7details5TVec2IfEELj3EEE"
    },
    {
     "referenced_type" : "_ZTIRKN7android7details5TVec2IfEE"
    },
    {
     "default_arg" : true,
     "referenced_type" : "_ZTINSt3__18functionIFffEEE"
    },
    {
     "default_arg" : true,
     "referenced_type" : "_ZTINSt3__18functionIFffEEE"
    },
    {
     "default_arg" : true,
     "referenced_type" : "_ZTINSt3__18functionIFffEEE"
    }
   ],
   "return_type" : "_ZTIv",
   "source_file" : "frameworks/native/libs/ui/include_types/ui/ColorSpace.h"
  },
  {
   "function_name" : "android::ColorSpace::ColorSpace",
   "linker_set_key" : "_ZN7android10ColorSpaceC2ERKNSt3__112basic_stringIcNS1_11char_traitsIcEENS1_9allocatorIcEEEERKNS1_5arrayINS_7details5TVec2IfEELj3EEERKSD_fNS1_8functionIFffEEE",
   "parameters" :
   [
    {
     "is_this_ptr" : true,
     "referenced_type" : "_ZTIPN7android10ColorSpaceE"
    },
    {
     "referenced_type" : "_ZTIRKNSt3__112basic_stringIcNS_11char_traitsIcEENS_9allocatorIcEEEE"
    },
    {
     "referenced_type" : "_ZTIRKNSt3__15arrayIN7android7details5TVec2IfEELj3EEE"
    },
    {
     "referenced_type" : "_ZTIRKN7android7details5TVec2IfEE"
    },
    {
     "referenced_type" : "_ZTIf"
    },
    {
     "default_arg" : true,
     "referenced_type" : "_ZTINSt3__18functionIFffEEE"
    }
   ],
   "return_type" : "_ZTIv",
   "source_file" : "frameworks/native/libs/ui/include_types/ui/ColorSpace.h"
  },
  {
   "function_name" : "android::ColorSpace::ColorSpace",
   "linker_set_key" : "_ZN7android10ColorSpaceC2ERKNSt3__112basic_stringIcNS1_11char_traitsIcEENS1_9allocatorIcEEEERKNS_7details6TMat33IfEENS0_18TransferParametersENS1_8functionIFffEEE",
   "parameters" :
   [
    {
     "is_this_ptr" : true,
     "referenced_type" : "_ZTIPN7android10ColorSpaceE"
    },
    {
     "referenced_type" : "_ZTIRKNSt3__112basic_stringIcNS_11char_traitsIcEENS_9allocatorIcEEEE"
    },
    {
     "referenced_type" : "_ZTIRKN7android7details6TMat33IfEE"
    },
    {
     "referenced_type" : "_ZTIKN7android10ColorSpace18TransferParametersE"
    },
    {
     "default_arg" : true,
     "referenced_type" : "_ZTINSt3__18functionIFffEEE"
    }
   ],
   "return_type" : "_ZTIv",
   "source_file" : "frameworks/native/libs/ui/include_types/ui/ColorSpace.h"
  },
  {
   "function_name" : "android::ColorSpace::ColorSpace",
   "linker_set_key" : "_ZN7android10ColorSpaceC2ERKNSt3__112basic_stringIcNS1_11char_traitsIcEENS1_9allocatorIcEEEERKNS_7details6TMat33IfEENS1_8functionIFffEEESH_SH_",
   "parameters" :
   [
    {
     "is_this_ptr" : true,
     "referenced_type" : "_ZTIPN7android10ColorSpaceE"
    },
    {
     "referenced_type" : "_ZTIRKNSt3__112basic_stringIcNS_11char_traitsIcEENS_9allocatorIcEEEE"
    },
    {
     "referenced_type" : "_ZTIRKN7android7details6TMat33IfEE"
    },
    {
     "default_arg" : true,
     "referenced_type" : "_ZTINSt3__18functionIFffEEE"
    },
    {
     "default_arg" : true,
     "referenced_type" : "_ZTINSt3__18functionIFffEEE"
    },
    {
     "default_arg" : true,
     "referenced_type" : "_ZTINSt3__18functionIFffEEE"
    }
   ],
   "return_type" : "_ZTIv",
   "source_file" : "frameworks/native/libs/ui/include_types/ui/ColorSpace.h"
  },
  {
   "function_name" : "android::ColorSpace::ColorSpace",
   "linker_set_key" : "_ZN7android10ColorSpaceC2ERKNSt3__112basic_stringIcNS1_11char_traitsIcEENS1_9allocatorIcEEEERKNS_7details6TMat33IfEEfNS1_8functionIFffEEE",
   "parameters" :
   [
    {
     "is_this_ptr" : true,
     "referenced_type" : "_ZTIPN7android10ColorSpaceE"
    },
    {
     "referenced_type" : "_ZTIRKNSt3__112basic_stringIcNS_11char_traitsIcEENS_9allocatorIcEEEE"
    },
    {
     "referenced_type" : "_ZTIRKN7android7details6TMat33IfEE"
    },
    {
     "referenced_type" : "_ZTIf"
    },
    {
     "default_arg" : true,
     "referenced_type" : "_ZTINSt3__18functionIFffEEE"
    }
   ],
   "return_type" : "_ZTIv",
   "source_file" : "frameworks/native/libs/ui/include_types/ui/ColorSpace.h"
  },
  {
   "function_name" : "android::ColorSpaceConnector::ColorSpaceConnector",
   "linker_set_key" : "_ZN7android19ColorSpaceConnectorC1ERKNS_10ColorSpaceES3_",
   "parameters" :
   [
    {
     "is_this_ptr" : true,
     "referenced_type" : "_ZTIPN7android19ColorSpaceConnectorE"
    },
    {
     "referenced_type" : "_ZTIRKN7android10ColorSpaceE"
    },
    {
     "referenced_type" : "_ZTIRKN7android10ColorSpaceE"
    }
   ],
   "return_type" : "_ZTIv",
   "source_file" : "frameworks/native/libs/ui/include_types/ui/ColorSpace.h"
  },
  {
   "function_name" : "android::ColorSpaceConnector::ColorSpaceConnector",
   "linker_set_key" : "_ZN7android19ColorSpaceConnectorC2ERKNS_10ColorSpaceES3_",
   "parameters" :
   [
    {
     "is_this_ptr" : true,
     "referenced_type" : "_ZTIPN7android19ColorSpaceConnectorE"
    },
    {
     "referenced_type" : "_ZTIRKN7android10ColorSpaceE"
    },
    {
     "referenced_type" : "_ZTIRKN7android10ColorSpaceE"
    }
   ],
   "return_type" : "_ZTIv",
   "source_file" : "frameworks/native/libs/ui/include_types/ui/ColorSpace.h"
  },
  {
   "function_name" : "android::half::fp16::setE",
   "linker_set_key" : "_ZN7android4half4fp164setEEj",
   "parameters" :
   [
    {
     "is_this_ptr" : true,
     "referenced_type" : "_ZTIPN7android4half4fp16E"
    },
    {
     "referenced_type" : "_ZTIj"
    }
   ],
   "return_type" : "_ZTIv",
   "source_file" : "frameworks/native/libs/math/include/math/half.h"
  },
  {
   "function_name" : "android::half::fp16::setM",
   "linker_set_key" : "_ZN7android4half4fp164setMEj",
   "parameters" :
   [
    {
     "is_this_ptr" : true,
     "referenced_type" : "_ZTIPN7android4half4fp16E"
    },
    {
     "referenced_type" : "_ZTIj"
    }
   ],
   "return_type" : "_ZTIv",
   "source_file" : "frameworks/native/libs/math/include/math/half.h"
  },
  {
   "function_name" : "android::half::fp16::setS",
   "linker_set_key" : "_ZN7android4half4fp164setSEj",
   "parameters" :
   [
    {
     "is_this_ptr" : true,
     "referenced_type" : "_ZTIPN7android4half4fp16E"
    },
    {
     "referenced_type" : "_ZTIj"
    }
   ],
   "return_type" : "_ZTIv",
   "source_file" : "frameworks/native/libs/math/include/math/half.h"
  },
  {
   "function_name" : "android::half::fp16::fp16",
   "linker_set_key" : "_ZN7android4half4fp16C1Et",
   "parameters" :
   [
    {
     "is_this_ptr" : true,
     "referenced_type" : "_ZTIPN7android4half4fp16E"
    },
    {
     "referenced_type" : "_ZTIt"
    }
   ],
   "return_type" : "_ZTIv",
   "source_file" : "frameworks/native/libs/math/include/math/half.h"
  },
  {
   "function_name" : "android::half::fp16::fp16",
   "linker_set_key" : "_ZN7android4half4fp16C1Ev",
   "parameters" :
   [
    {
     "is_this_ptr" : true,
     "referenced_type" : "_ZTIPN7android4half4fp16E"
    }
   ],
   "return_type" : "_ZTIv",
   "source_file" : "frameworks/native/libs/math/include/math/half.h"
  },
  {
   "function_name" : "android::half::fp16::fp16",
   "linker_set_key" : "_ZN7android4half4fp16C2Et",
   "parameters" :
   [
    {
     "is_this_ptr" : true,
     "referenced_type" : "_ZTIPN7android4half4fp16E"
    },
    {
     "referenced_type" : "_ZTIt"
    }
   ],
   "return_type" : "_ZTIv",
   "source_file" : "frameworks/native/libs/math/include/math/half.h"
  },
  {
   "function_name" : "android::half::fp16::fp16",
   "linker_set_key" : "_ZN7android4half4fp16C2Ev",
   "parameters" :
   [
    {
     "is_this_ptr" : true,
     "referenced_type" : "_ZTIPN7android4half4fp16E"
    }
   ],
   "return_type" : "_ZTIv",
   "source_file" : "frameworks/native/libs/math/include/math/half.h"
  },
  {
   "function_name" : "android::half::fp32::setE",
   "linker_set_key" : "_ZN7android4half4fp324setEEj",
   "parameters" :
   [
    {
     "is_this_ptr" : true,
     "referenced_type" : "_ZTIPN7android4half4fp32E"
    },
    {
     "referenced_type" : "_ZTIj"
    }
   ],
   "return_type" : "_ZTIv",
   "source_file" : "frameworks/native/libs/math/include/math/half.h"
  },
  {
   "function_name" : "android::half::fp32::setM",
   "linker_set_key" : "_ZN7android4half4fp324setMEj",
   "parameters" :
   [
    {
     "is_this_ptr" : true,
     "referenced_type" : "_ZTIPN7android4half4fp32E"
    },
    {
     "referenced_type" : "_ZTIj"
    }
   ],
   "return_type" : "_ZTIv",
   "source_file" : "frameworks/native/libs/math/include/math/half.h"
  },
  {
   "function_name" : "android::half::fp32::setS",
   "linker_set_key" : "_ZN7android4half4fp324setSEj",
   "parameters" :
   [
    {
     "is_this_ptr" : true,
     "referenced_type" : "_ZTIPN7android4half4fp32E"
    },
    {
     "referenced_type" : "_ZTIj"
    }
   ],
   "return_type" : "_ZTIv",
   "source_file" : "frameworks/native/libs/math/include/math/half.h"
  },
  {
   "function_name" : "android::half::fp32::fp32",
   "linker_set_key" : "_ZN7android4half4fp32C1Ef",
   "parameters" :
   [
    {
     "is_this_ptr" : true,
     "referenced_type" : "_ZTIPN7android4half4fp32E"
    },
    {
     "referenced_type" : "_ZTIf"
    }
   ],
   "return_type" : "_ZTIv",
   "source_file" : "frameworks/native/libs/math/include/math/half.h"
  },
  {
   "function_name" : "android::half::fp32::fp32",
   "linker_set_key" : "_ZN7android4half4fp32C1Ev",
   "parameters" :
   [
    {
     "is_this_ptr" : true,
     "referenced_type" : "_ZTIPN7android4half4fp32E"
    }
   ],
   "return_type" : "_ZTIv",
   "source_file" : "frameworks/native/libs/math/include/math/half.h"
  },
  {
   "function_name" : "android::half::fp32::fp32",
   "linker_set_key" : "_ZN7android4half4fp32C2Ef",
   "parameters" :
   [
    {
     "is_this_ptr" : true,
     "referenced_type" : "_ZTIPN7android4half4fp32E"
    },
    {
     "referenced_type" : "_ZTIf"
    }
   ],
   "return_type" : "_ZTIv",
   "source_file" : "frameworks/native/libs/math/include/math/half.h"
  },
  {
   "function_name" : "android::half::fp32::fp32",
   "linker_set_key" : "_ZN7android4half4fp32C2Ev",
   "parameters" :
   [
    {
     "is_this_ptr" : true,
     "referenced_type" : "_ZTIPN7android4half4fp32E"
    }
   ],
   "return_type" : "_ZTIv",
   "source_file" : "frameworks/native/libs/math/include/math/half.h"
  },
  {
   "access" : "private",
   "function_name" : "android::half::ftoh",
   "linker_set_key" : "_ZN7android4half4ftohEf",
   "parameters" :
   [
    {
     "referenced_type" : "_ZTIf"
    }
   ],
   "return_type" : "_ZTIN7android4half4fp16E",
   "source_file" : "frameworks/native/libs/math/include/math/half.h"
  },
  {
   "access" : "private",
   "function_name" : "android::half::htof",
   "linker_set_key" : "_ZN7android4half4htofENS0_4fp16E",
   "parameters" :
   [
    {
     "referenced_type" : "_ZTIN7android4half4fp16E"
    }
   ],
   "return_type" : "_ZTIf",
   "source_file" : "frameworks/native/libs/math/include/math/half.h"
  },
  {
   "access" : "private",
   "function_name" : "android::half::half",
   "linker_set_key" : "_ZN7android4halfC1ENS0_6BinaryEt",
   "parameters" :
   [
    {
     "is_this_ptr" : true,
     "referenced_type" : "_ZTIPN7android4halfE"
    },
    {
     "referenced_type" : "_ZTIN7android4half6BinaryE"
    },
    {
     "referenced_type" : "_ZTIt"
    }
   ],
   "return_type" : "_ZTIv",
   "source_file" : "frameworks/native/libs/math/include/math/half.h"
  },
  {
   "function_name" : "android::half::half",
   "linker_set_key" : "_ZN7android4halfC1Ef",
   "parameters" :
   [
    {
     "is_this_ptr" : true,
     "referenced_type" : "_ZTIPN7android4halfE"
    },
    {
     "referenced_type" : "_ZTIf"
    }
   ],
   "return_type" : "_ZTIv",
   "source_file" : "frameworks/native/libs/math/include/math/half.h"
  },
  {
   "function_name" : "android::half::half",
   "linker_set_key" : "_ZN7android4halfC1Ev",
   "parameters" :
   [
    {
     "is_this_ptr" : true,
     "referenced_type" : "_ZTIPN7android4halfE"
    }
   ],
   "return_type" : "_ZTIv",
   "source_file" : "frameworks/native/libs/math/include/math/half.h"
  },
  {
   "access" : "private",
   "function_name" : "android::half::half",
   "linker_set_key" : "_ZN7android4halfC2ENS0_6BinaryEt",
   "parameters" :
   [
    {
     "is_this_ptr" : true,
     "referenced_type" : "_ZTIPN7android4halfE"
    },
    {
     "referenced_type" : "_ZTIN7android4half6BinaryE"
    },
    {
     "referenced_type" : "_ZTIt"
    }
   ],
   "return_type" : "_ZTIv",
   "source_file" : "frameworks/native/libs/math/include/math/half.h"
  },
  {
   "function_name" : "android::half::half",
   "linker_set_key" : "_ZN7android4halfC2Ef",
   "parameters" :
   [
    {
     "is_this_ptr" : true,
     "referenced_type" : "_ZTIPN7android4halfE"
    },
    {
     "referenced_type" : "_ZTIf"
    }
   ],
   "return_type" : "_ZTIv",
   "source_file" : "frameworks/native/libs/math/include/math/half.h"
  },
  {
   "function_name" : "android::half::half",
   "linker_set_key" : "_ZN7android4halfC2Ev",
   "parameters" :
   [
    {
     "is_this_ptr" : true,
     "referenced_type" : "_ZTIPN7android4halfE"
    }
   ],
   "return_type" : "_ZTIv",
   "source_file" : "frameworks/native/libs/math/include/math/half.h"
  },
  {
   "function_name" : "android::details::TQuaternion<double>::TQuaternion",
   "linker_set_key" : "_ZN7android7details11TQuaternionIdEC1ERKS2_",
   "parameters" :
   [
    {
     "is_this_ptr" : true,
     "referenced_type" : "_ZTIPN7android7details11TQuaternionIdEE"
    },
    {
     "referenced_type" : "_ZTIRKN7android7details11TQuaternionIdEE"
    }
   ],
   "return_type" : "_ZTIv",
   "source_file" : "frameworks/native/libs/math/include/math/quat.h"
  },
  {
   "function_name" : "android::details::TQuaternion<double>::TQuaternion",
   "linker_set_key" : "_ZN7android7details11TQuaternionIdEC1IidiiEET_T0_T1_T2_",
   "parameters" :
   [
    {
     "is_this_ptr" : true,
     "referenced_type" : "_ZTIPN7android7details11TQuaternionIdEE"
    },
    {
     "referenced_type" : "_ZTIi"
    },
    {
     "referenced_type" : "_ZTId"
    },
    {
     "referenced_type" : "_ZTIi"
    },
    {
     "referenced_type" : "_ZTIi"
    }
   ],
   "return_type" : "_ZTIv",
   "source_file" : "frameworks/native/libs/math/include/math/quat.h",
   "template_args" : [ "_ZTIi", "_ZTId", "_ZTIi", "_ZTIi" ]
  },
  {
   "function_name" : "android::details::TQuaternion<double>::TQuaternion",
   "linker_set_key" : "_ZN7android7details11TQuaternionIdEC1IiidiEET_T0_T1_T2_",
   "parameters" :
   [
    {
     "is_this_ptr" : true,
     "referenced_type" : "_ZTIPN7android7details11TQuaternionIdEE"
    },
    {
     "referenced_type" : "_ZTIi"
    },
    {
     "referenced_type" : "_ZTIi"
    },
    {
     "referenced_type" : "_ZTId"
    },
    {
     "referenced_type" : "_ZTIi"
    }
   ],
   "return_type" : "_ZTIv",
   "source_file" : "frameworks/native/libs/math/include/math/quat.h",
   "template_args" : [ "_ZTIi", "_ZTIi", "_ZTId", "_ZTIi" ]
  },
  {
   "function_name" : "android::details::TQuaternion<double>::TQuaternion",
   "linker_set_key" : "_ZN7android7details11TQuaternionIdEC1IiiidEET_T0_T1_T2_",
   "parameters" :
   [
    {
     "is_this_ptr" : true,
     "referenced_type" : "_ZTIPN7android7details11TQuaternionIdEE"
    },
    {
     "referenced_type" : "_ZTIi"
    },
    {
     "referenced_type" : "_ZTIi"
    },
    {
     "referenced_type" : "_ZTIi"
    },
    {
     "referenced_type" : "_ZTId"
    }
   ],
   "return_type" : "_ZTIv",
   "source_file" : "frameworks/native/libs/math/include/math/quat.h",
   "template_args" : [ "_ZTIi", "_ZTIi", "_ZTIi", "_ZTId" ]
  },
  {
   "function_name" : "android::details::TQuaternion<double>::TQuaternion",
   "linker_set_key" : "_ZN7android7details11TQuaternionIdEC2ERKS2_",
   "parameters" :
   [
    {
     "is_this_ptr" : true,
     "referenced_type" : "_ZTIPN7android7details11TQuaternionIdEE"
    },
    {
     "referenced_type" : "_ZTIRKN7android7details11TQuaternionIdEE"
    }
   ],
   "return_type" : "_ZTIv",
   "source_file" : "frameworks/native/libs/math/include/math/quat.h"
  },
  {
   "function_name" : "android::details::TQuaternion<double>::TQuaternion",
   "linker_set_key" : "_ZN7android7details11TQuaternionIdEC2IidiiEET_T0_T1_T2_",
   "parameters" :
   [
    {
     "is_this_ptr" : true,
     "referenced_type" : "_ZTIPN7android7details11TQuaternionIdEE"
    },
    {
     "referenced_type" : "_ZTIi"
    },
    {
     "referenced_type" : "_ZTId"
    },
    {
     "referenced_type" : "_ZTIi"
    },
    {
     "referenced_type" : "_ZTIi"
    }
   ],
   "return_type" : "_ZTIv",
   "source_file" : "frameworks/native/libs/math/include/math/quat.h",
   "template_args" : [ "_ZTIi", "_ZTId", "_ZTIi", "_ZTIi" ]
  },
  {
   "function_name" : "android::details::TQuaternion<double>::TQuaternion",
   "linker_set_key" : "_ZN7android7details11TQuaternionIdEC2IiidiEET_T0_T1_T2_",
   "parameters" :
   [
    {
     "is_this_ptr" : true,
     "referenced_type" : "_ZTIPN7android7details11TQuaternionIdEE"
    },
    {
     "referenced_type" : "_ZTIi"
    },
    {
     "referenced_type" : "_ZTIi"
    },
    {
     "referenced_type" : "_ZTId"
    },
    {
     "referenced_type" : "_ZTIi"
    }
   ],
   "return_type" : "_ZTIv",
   "source_file" : "frameworks/native/libs/math/include/math/quat.h",
   "template_args" : [ "_ZTIi", "_ZTIi", "_ZTId", "_ZTIi" ]
  },
  {
   "function_name" : "android::details::TQuaternion<double>::TQuaternion",
   "linker_set_key" : "_ZN7android7details11TQuaternionIdEC2IiiidEET_T0_T1_T2_",
   "parameters" :
   [
    {
     "is_this_ptr" : true,
     "referenced_type" : "_ZTIPN7android7details11TQuaternionIdEE"
    },
    {
     "referenced_type" : "_ZTIi"
    },
    {
     "referenced_type" : "_ZTIi"
    },
    {
     "referenced_type" : "_ZTIi"
    },
    {
     "referenced_type" : "_ZTId"
    }
   ],
   "return_type" : "_ZTIv",
   "source_file" : "frameworks/native/libs/math/include/math/quat.h",
   "template_args" : [ "_ZTIi", "_ZTIi", "_ZTIi", "_ZTId" ]
  },
  {
   "function_name" : "android::details::TQuaternion<double>::~TQuaternion",
   "linker_set_key" : "_ZN7android7details11TQuaternionIdED1Ev",
   "parameters" :
   [
    {
     "is_this_ptr" : true,
     "referenced_type" : "_ZTIPN7android7details11TQuaternionIdEE"
    }
   ],
   "return_type" : "_ZTIv",
   "source_file" : "frameworks/native/libs/math/include/math/quat.h"
  },
  {
   "function_name" : "android::details::TQuaternion<double>::~TQuaternion",
   "linker_set_key" : "_ZN7android7details11TQuaternionIdED2Ev",
   "parameters" :
   [
    {
     "is_this_ptr" : true,
     "referenced_type" : "_ZTIPN7android7details11TQuaternionIdEE"
    }
   ],
   "return_type" : "_ZTIv",
   "source_file" : "frameworks/native/libs/math/include/math/quat.h"
  },
  {
   "function_name" : "android::details::TQuaternion<double>::operator=",
   "linker_set_key" : "_ZN7android7details11TQuaternionIdEaSERKS2_",
   "parameters" :
   [
    {
     "is_this_ptr" : true,
     "referenced_type" : "_ZTIPN7android7details11TQuaternionIdEE"
    },
    {
     "referenced_type" : "_ZTIRKN7android7details11TQuaternionIdEE"
    }
   ],
   "return_type" : "_ZTIRN7android7details11TQuaternionIdEE",
   "source_file" : "frameworks/native/libs/math/include/math/quat.h"
  },
  {
   "function_name" : "android::details::TQuaternion<float>::TQuaternion",
   "linker_set_key" : "_ZN7android7details11TQuaternionIfEC1ERKS2_",
   "parameters" :
   [
    {
     "is_this_ptr" : true,
     "referenced_type" : "_ZTIPN7android7details11TQuaternionIfEE"
    },
    {
     "referenced_type" : "_ZTIRKN7android7details11TQuaternionIfEE"
    }
   ],
   "return_type" : "_ZTIv",
   "source_file" : "frameworks/native/libs/math/include/math/quat.h"
  },
  {
   "function_name" : "android::details::TQuaternion<float>::TQuaternion",
   "linker_set_key" : "_ZN7android7details11TQuaternionIfEC1IifiiEET_T0_T1_T2_",
   "parameters" :
   [
    {
     "is_this_ptr" : true,
     "referenced_type" : "_ZTIPN7android7details11TQuaternionIfEE"
    },
    {
     "referenced_type" : "_ZTIi"
    },
    {
     "referenced_type" : "_ZTIf"
    },
    {
     "referenced_type" : "_ZTIi"
    },
    {
     "referenced_type" : "_ZTIi"
    }
   ],
   "return_type" : "_ZTIv",
   "source_file" : "frameworks/native/libs/math/include/math/quat.h",
   "template_args" : [ "_ZTIi", "_ZTIf", "_ZTIi", "_ZTIi" ]
  },
  {
   "function_name" : "android::details::TQuaternion<float>::TQuaternion",
   "linker_set_key" : "_ZN7android7details11TQuaternionIfEC1IiifiEET_T0_T1_T2_",
   "parameters" :
   [
    {
     "is_this_ptr" : true,
     "referenced_type" : "_ZTIPN7android7details11TQuaternionIfEE"
    },
    {
     "referenced_type" : "_ZTIi"
    },
    {
     "referenced_type" : "_ZTIi"
    },
    {
     "referenced_type" : "_ZTIf"
    },
    {
     "referenced_type" : "_ZTIi"
    }
   ],
   "return_type" : "_ZTIv",
   "source_file" : "frameworks/native/libs/math/include/math/quat.h",
   "template_args" : [ "_ZTIi", "_ZTIi", "_ZTIf", "_ZTIi" ]
  },
  {
   "function_name" : "android::details::TQuaternion<float>::TQuaternion",
   "linker_set_key" : "_ZN7android7details11TQuaternionIfEC1IiiifEET_T0_T1_T2_",
   "parameters" :
   [
    {
     "is_this_ptr" : true,
     "referenced_type" : "_ZTIPN7android7details11TQuaternionIfEE"
    },
    {
     "referenced_type" : "_ZTIi"
    },
    {
     "referenced_type" : "_ZTIi"
    },
    {
     "referenced_type" : "_ZTIi"
    },
    {
     "referenced_type" : "_ZTIf"
    }
   ],
   "return_type" : "_ZTIv",
   "source_file" : "frameworks/native/libs/math/include/math/quat.h",
   "template_args" : [ "_ZTIi", "_ZTIi", "_ZTIi", "_ZTIf" ]
  },
  {
   "function_name" : "android::details::TQuaternion<float>::TQuaternion",
   "linker_set_key" : "_ZN7android7details11TQuaternionIfEC2ERKS2_",
   "parameters" :
   [
    {
     "is_this_ptr" : true,
     "referenced_type" : "_ZTIPN7android7details11TQuaternionIfEE"
    },
    {
     "referenced_type" : "_ZTIRKN7android7details11TQuaternionIfEE"
    }
   ],
   "return_type" : "_ZTIv",
   "source_file" : "frameworks/native/libs/math/include/math/quat.h"
  },
  {
   "function_name" : "android::details::TQuaternion<float>::TQuaternion",
   "linker_set_key" : "_ZN7android7details11TQuaternionIfEC2IifiiEET_T0_T1_T2_",
   "parameters" :
   [
    {
     "is_this_ptr" : true,
     "referenced_type" : "_ZTIPN7android7details11TQuaternionIfEE"
    },
    {
     "referenced_type" : "_ZTIi"
    },
    {
     "referenced_type" : "_ZTIf"
    },
    {
     "referenced_type" : "_ZTIi"
    },
    {
     "referenced_type" : "_ZTIi"
    }
   ],
   "return_type" : "_ZTIv",
   "source_file" : "frameworks/native/libs/math/include/math/quat.h",
   "template_args" : [ "_ZTIi", "_ZTIf", "_ZTIi", "_ZTIi" ]
  },
  {
   "function_name" : "android::details::TQuaternion<float>::TQuaternion",
   "linker_set_key" : "_ZN7android7details11TQuaternionIfEC2IiifiEET_T0_T1_T2_",
   "parameters" :
   [
    {
     "is_this_ptr" : true,
     "referenced_type" : "_ZTIPN7android7details11TQuaternionIfEE"
    },
    {
     "referenced_type" : "_ZTIi"
    },
    {
     "referenced_type" : "_ZTIi"
    },
    {
     "referenced_type" : "_ZTIf"
    },
    {
     "referenced_type" : "_ZTIi"
    }
   ],
   "return_type" : "_ZTIv",
   "source_file" : "frameworks/native/libs/math/include/math/quat.h",
   "template_args" : [ "_ZTIi", "_ZTIi", "_ZTIf", "_ZTIi" ]
  },
  {
   "function_name" : "android::details::TQuaternion<float>::TQuaternion",
   "linker_set_key" : "_ZN7android7details11TQuaternionIfEC2IiiifEET_T0_T1_T2_",
   "parameters" :
   [
    {
     "is_this_ptr" : true,
     "referenced_type" : "_ZTIPN7android7details11TQuaternionIfEE"
    },
    {
     "referenced_type" : "_ZTIi"
    },
    {
     "referenced_type" : "_ZTIi"
    },
    {
     "referenced_type" : "_ZTIi"
    },
    {
     "referenced_type" : "_ZTIf"
    }
   ],
   "return_type" : "_ZTIv",
   "source_file" : "frameworks/native/libs/math/include/math/quat.h",
   "template_args" : [ "_ZTIi", "_ZTIi", "_ZTIi", "_ZTIf" ]
  },
  {
   "function_name" : "android::details::TQuaternion<float>::~TQuaternion",
   "linker_set_key" : "_ZN7android7details11TQuaternionIfED1Ev",
   "parameters" :
   [
    {
     "is_this_ptr" : true,
     "referenced_type" : "_ZTIPN7android7details11TQuaternionIfEE"
    }
   ],
   "return_type" : "_ZTIv",
   "source_file" : "frameworks/native/libs/math/include/math/quat.h"
  },
  {
   "function_name" : "android::details::TQuaternion<float>::~TQuaternion",
   "linker_set_key" : "_ZN7android7details11TQuaternionIfED2Ev",
   "parameters" :
   [
    {
     "is_this_ptr" : true,
     "referenced_type" : "_ZTIPN7android7details11TQuaternionIfEE"
    }
   ],
   "return_type" : "_ZTIv",
   "source_file" : "frameworks/native/libs/math/include/math/quat.h"
  },
  {
   "function_name" : "android::details::TQuaternion<float>::operator=",
   "linker_set_key" : "_ZN7android7details11TQuaternionIfEaSERKS2_",
   "parameters" :
   [
    {
     "is_this_ptr" : true,
     "referenced_type" : "_ZTIPN7android7details11TQuaternionIfEE"
    },
    {
     "referenced_type" : "_ZTIRKN7android7details11TQuaternionIfEE"
    }
   ],
   "return_type" : "_ZTIRN7android7details11TQuaternionIfEE",
   "source_file" : "frameworks/native/libs/math/include/math/quat.h"
  },
  {
   "function_name" : "android::details::greaterThan",
   "linker_set_key" : "_ZN7android7details11greaterThanIfEENS0_5TVec2IbEERKNS2_IfEERKNS2_IT_EE",
   "parameters" :
   [
    {
     "referenced_type" : "_ZTIRKN7android7details5TVec2IfEE"
    },
    {
     "referenced_type" : "_ZTIRKN7android7details5TVec2IfEE"
    }
   ],
   "return_type" : "_ZTIN7android7details5TVec2IbEE",
   "source_file" : "frameworks/native/libs/math/include/math/TVecHelpers.h",
   "template_args" : [ "_ZTIf" ]
  },
  {
   "function_name" : "android::details::inversesqrt",
   "linker_set_key" : "_ZN7android7details11inversesqrtET_IT0_E",
   "parameters" :
   [
    {
     "referenced_type" : "_ZTIT_IT0_E"
    }
   ],
   "return_type" : "_ZTIT_IT0_E",
   "source_file" : "frameworks/native/libs/math/include/math/TVecHelpers.h"
  },
  {
   "function_name" : "android::details::TMatTransform<TMat33, float>::TMatTransform",
   "linker_set_key" : "_ZN7android7details13TMatTransformINS0_6TMat33EfEC1Ev",
   "parameters" :
   [
    {
     "is_this_ptr" : true,
     "referenced_type" : "_ZTIPN7android7details13TMatTransformINS0_6TMat33EfEE"
    }
   ],
   "return_type" : "_ZTIv",
   "source_file" : "frameworks/native/libs/math/include/math/TMatHelpers.h"
  },
  {
   "function_name" : "android::details::TMatTransform<TMat33, float>::TMatTransform",
   "linker_set_key" : "_ZN7android7details13TMatTransformINS0_6TMat33EfEC2Ev",
   "parameters" :
   [
    {
     "is_this_ptr" : true,
     "referenced_type" : "_ZTIPN7android7details13TMatTransformINS0_6TMat33EfEE"
    }
   ],
   "return_type" : "_ZTIv",
   "source_file" : "frameworks/native/libs/math/include/math/TMatHelpers.h"
  },
  {
   "function_name" : "android::details::orthogonalize",
   "linker_set_key" : "_ZN7android7details13orthogonalizeERKNS0_6TMat33IT_EE",
   "parameters" :
   [
    {
     "referenced_type" : "_ZTIRKN7android7details6TMat33IT_EE"
    }
   ],
   "return_type" : "_ZTIN7android7details6TMat33IT_EE",
   "source_file" : "frameworks/native/libs/math/include/math/mat3.h"
  },
  {
   "function_name" : "android::details::TVecAddOperators<TVec2, float>::operator-=",
   "linker_set_key" : "_ZN7android7details16TVecAddOperatorsINS0_5TVec2EfEmIERKNS2_IfEE",
   "parameters" :
   [
    {
     "is_this_ptr" : true,
     "referenced_type" : "_ZTIPN7android7details16TVecAddOperatorsINS0_5TVec2EfEE"
    },
    {
     "referenced_type" : "_ZTIRKN7android7details5TVec2IfEE"
    }
   ],
   "return_type" : "_ZTIRN7android7details5TVec2IfEE",
   "source_file" : "frameworks/native/libs/math/include/math/TVecHelpers.h"
  },
  {
   "function_name" : "android::details::TVecAddOperators<TVec3, float>::operator+=",
   "linker_set_key" : "_ZN7android7details16TVecAddOperatorsINS0_5TVec3EfEpLERKNS2_IfEE",
   "parameters" :
   [
    {
     "is_this_ptr" : true,
     "referenced_type" : "_ZTIPN7android7details16TVecAddOperatorsINS0_5TVec3EfEE"
    },
    {
     "referenced_type" : "_ZTIRKN7android7details5TVec3IfEE"
    }
   ],
   "return_type" : "_ZTIRN7android7details5TVec3IfEE",
   "source_file" : "frameworks/native/libs/math/include/math/TVecHelpers.h"
  },
  {
   "function_name" : "android::details::TVecProductOperators<TVec2, float>::operator/=",
   "linker_set_key" : "_ZN7android7details20TVecProductOperatorsINS0_5TVec2EfEdVERKNS2_IfEE",
   "parameters" :
   [
    {
     "is_this_ptr" : true,
     "referenced_type" : "_ZTIPN7android7details20TVecProductOperatorsINS0_5TVec2EfEE"
    },
    {
     "referenced_type" : "_ZTIRKN7android7details5TVec2IfEE"
    }
   ],
   "return_type" : "_ZTIRN7android7details5TVec2IfEE",
   "source_file" : "frameworks/native/libs/math/include/math/TVecHelpers.h"
  },
  {
   "function_name" : "android::details::TVecProductOperators<TVec3, float>::operator/=",
   "linker_set_key" : "_ZN7android7details20TVecProductOperatorsINS0_5TVec3EfEdVERKNS2_IfEE",
   "parameters" :
   [
    {
     "is_this_ptr" : true,
     "referenced_type" : "_ZTIPN7android7details20TVecProductOperatorsINS0_5TVec3EfEE"
    },
    {
     "referenced_type" : "_ZTIRKN7android7details5TVec3IfEE"
    }
   ],
   "return_type" : "_ZTIRN7android7details5TVec3IfEE",
   "source_file" : "frameworks/native/libs/math/include/math/TVecHelpers.h"
  },
  {
   "function_name" : "android::details::TVecProductOperators<TVec3, float>::operator*=",
   "linker_set_key" : "_ZN7android7details20TVecProductOperatorsINS0_5TVec3EfEmLERKNS2_IfEE",
   "parameters" :
   [
    {
     "is_this_ptr" : true,
     "referenced_type" : "_ZTIPN7android7details20TVecProductOperatorsINS0_5TVec3EfEE"
    },
    {
     "referenced_type" : "_ZTIRKN7android7details5TVec3IfEE"
    }
   ],
   "return_type" : "_ZTIRN7android7details5TVec3IfEE",
   "source_file" : "frameworks/native/libs/math/include/math/TVecHelpers.h"
  },
  {
   "function_name" : "android::details::abs",
   "linker_set_key" : "_ZN7android7details3absENS0_5TVec2IfEE",
   "parameters" :
   [
    {
     "referenced_type" : "_ZTIN7android7details5TVec2IfEE"
    }
   ],
   "return_type" : "_ZTIN7android7details5TVec2IfEE",
   "source_file" : "frameworks/native/libs/math/include/math/TVecHelpers.h"
  },
  {
   "function_name" : "android::details::abs",
   "linker_set_key" : "_ZN7android7details3absET_IT0_E",
   "parameters" :
   [
    {
     "referenced_type" : "_ZTIT_IT0_E"
    }
   ],
   "return_type" : "_ZTIT_IT0_E",
   "source_file" : "frameworks/native/libs/math/include/math/TVecHelpers.h"
  },
  {
   "function_name" : "android::details::all",
   "linker_set_key" : "_ZN7android7details3allERKNS0_5TVec2IbEE",
   "parameters" :
   [
    {
     "referenced_type" : "_ZTIRKN7android7details5TVec2IbEE"
    }
   ],
   "return_type" : "_ZTIb",
   "source_file" : "frameworks/native/libs/math/include/math/TVecHelpers.h"
  },
  {
   "function_name" : "android::details::all",
   "linker_set_key" : "_ZN7android7details3allERKT_IT0_E",
   "parameters" :
   [
    {
     "referenced_type" : "_ZTIRKT_IT0_E"
    }
   ],
   "return_type" : "_ZTIb",
   "source_file" : "frameworks/native/libs/math/include/math/TVecHelpers.h"
  },
  {
   "function_name" : "android::details::any",
   "linker_set_key" : "_ZN7android7details3anyERKNS0_5TVec2IbEE",
   "parameters" :
   [
    {
     "referenced_type" : "_ZTIRKN7android7details5TVec2IbEE"
    }
   ],
   "return_type" : "_ZTIb",
   "source_file" : "frameworks/native/libs/math/include/math/TVecHelpers.h"
  },
  {
   "function_name" : "android::details::any",
   "linker_set_key" : "_ZN7android7details3anyERKT_IT0_E",
   "parameters" :
   [
    {
     "referenced_type" : "_ZTIRKT_IT0_E"
    }
   ],
   "return_type" : "_ZTIb",
   "source_file" : "frameworks/native/libs/math/include/math/TVecHelpers.h"
  },
  {
   "function_name" : "android::details::dot",
   "linker_set_key" : "_ZN7android7details3dotIfEEfRKNS0_5TVec3IfEERKNS2_IT_EE",
   "parameters" :
   [
    {
     "referenced_type" : "_ZTIRKN7android7details5TVec3IfEE"
    },
    {
     "referenced_type" : "_ZTIRKN7android7details5TVec3IfEE"
    }
   ],
   "return_type" : "_ZTIf",
   "source_file" : "frameworks/native/libs/math/include/math/TVecHelpers.h",
   "template_args" : [ "_ZTIf" ]
  },
  {
   "function_name" : "android::details::exp",
   "linker_set_key" : "_ZN7android7details3expERKT_IT0_E",
   "parameters" :
   [
    {
     "referenced_type" : "_ZTIRKT_IT0_E"
    }
   ],
   "return_type" : "_ZTIT_IT0_E",
   "source_file" : "frameworks/native/libs/math/include/math/TQuatHelpers.h"
  },
  {
   "function_name" : "android::details::fma",
   "linker_set_key" : "_ZN7android7details3fmaERKT_IT0_ES5_S3_",
   "parameters" :
   [
    {
     "referenced_type" : "_ZTIRKT_IT0_E"
    },
    {
     "referenced_type" : "_ZTIRKT_IT0_E"
    },
    {
     "referenced_type" : "_ZTIT_IT0_E"
    }
   ],
   "return_type" : "_ZTIT_IT0_E",
   "source_file" : "frameworks/native/libs/math/include/math/TVecHelpers.h"
  },
  {
   "function_name" : "android::details::log",
   "linker_set_key" : "_ZN7android7details3logERKT_IT0_E",
   "parameters" :
   [
    {
     "referenced_type" : "_ZTIRKT_IT0_E"
    }
   ],
   "return_type" : "_ZTIT_IT0_E",
   "source_file" : "frameworks/native/libs/math/include/math/TQuatHelpers.h"
  },
  {
   "function_name" : "android::details::max",
   "linker_set_key" : "_ZN7android7details3maxERKT_IT0_E",
   "parameters" :
   [
    {
     "referenced_type" : "_ZTIRKT_IT0_E"
    }
   ],
   "return_type" : "_ZTIT0_",
   "source_file" : "frameworks/native/libs/math/include/math/TVecHelpers.h"
  },
  {
   "function_name" : "android::details::max",
   "linker_set_key" : "_ZN7android7details3maxERKT_IT0_ES3_",
   "parameters" :
   [
    {
     "referenced_type" : "_ZTIRKT_IT0_E"
    },
    {
     "referenced_type" : "_ZTIT_IT0_E"
    }
   ],
   "return_type" : "_ZTIT_IT0_E",
   "source_file" : "frameworks/native/libs/math/include/math/TVecHelpers.h"
  },
  {
   "function_name" : "android::details::min",
   "linker_set_key" : "_ZN7android7details3minERKT_IT0_E",
   "parameters" :
   [
    {
     "referenced_type" : "_ZTIRKT_IT0_E"
    }
   ],
   "return_type" : "_ZTIT0_",
   "source_file" : "frameworks/native/libs/math/include/math/TVecHelpers.h"
  },
  {
   "function_name" : "android::details::min",
   "linker_set_key" : "_ZN7android7details3minERKT_IT0_ES3_",
   "parameters" :
   [
    {
     "referenced_type" : "_ZTIRKT_IT0_E"
    },
    {
     "referenced_type" : "_ZTIT_IT0_E"
    }
   ],
   "return_type" : "_ZTIT_IT0_E",
   "source_file" : "frameworks/native/libs/math/include/math/TVecHelpers.h"
  },
  {
   "function_name" : "android::details::pow",
   "linker_set_key" : "_ZN7android7details3powERKT_IT0_ES2_",
   "parameters" :
   [
    {
     "referenced_type" : "_ZTIRKT_IT0_E"
    },
    {
     "referenced_type" : "_ZTIT0_"
    }
   ],
   "return_type" : "_ZTIT_IT0_E",
   "source_file" : "frameworks/native/libs/math/include/math/TQuatHelpers.h"
  },
  {
   "function_name" : "android::details::pow",
   "linker_set_key" : "_ZN7android7details3powET_IT0_ES2_",
   "parameters" :
   [
    {
     "referenced_type" : "_ZTIT_IT0_E"
    },
    {
     "referenced_type" : "_ZTIT0_"
    }
   ],
   "return_type" : "_ZTIT_IT0_E",
   "source_file" : "frameworks/native/libs/math/include/math/TVecHelpers.h"
  },
  {
   "function_name" : "android::details::rcp",
   "linker_set_key" : "_ZN7android7details3rcpET_IT0_E",
   "parameters" :
   [
    {
     "referenced_type" : "_ZTIT_IT0_E"
    }
   ],
   "return_type" : "_ZTIT_IT0_E",
   "source_file" : "frameworks/native/libs/math/include/math/TVecHelpers.h"
  },
  {
   "function_name" : "android::details::ceil",
   "linker_set_key" : "_ZN7android7details4ceilET_IT0_E",
   "parameters" :
   [
    {
     "referenced_type" : "_ZTIT_IT0_E"
    }
   ],
   "return_type" : "_ZTIT_IT0_E",
   "source_file" : "frameworks/native/libs/math/include/math/TVecHelpers.h"
  },
  {
   "function_name" : "android::details::conj",
   "linker_set_key" : "_ZN7android7details4conjERKT_IT0_E",
   "parameters" :
   [
    {
     "referenced_type" : "_ZTIRKT_IT0_E"
    }
   ],
   "return_type" : "_ZTIT_IT0_E",
   "source_file" : "frameworks/native/libs/math/include/math/TQuatHelpers.h"
  },
  {
   "function_name" : "android::details::lerp",
   "linker_set_key" : "_ZN7android7details4lerpERKT_IT0_ES5_S2_",
   "parameters" :
   [
    {
     "referenced_type" : "_ZTIRKT_IT0_E"
    },
    {
     "referenced_type" : "_ZTIRKT_IT0_E"
    },
    {
     "referenced_type" : "_ZTIT0_"
    }
   ],
   "return_type" : "_ZTIT_IT0_E",
   "source_file" : "frameworks/native/libs/math/include/math/TQuatHelpers.h"
  },
  {
   "function_name" : "android::details::norm",
   "linker_set_key" : "_ZN7android7details4normERKT_IT0_E",
   "parameters" :
   [
    {
     "referenced_type" : "_ZTIRKT_IT0_E"
    }
   ],
   "return_type" : "_ZTIT0_",
   "source_file" : "frameworks/native/libs/math/include/math/TVecHelpers.h"
  },
  {
   "function_name" : "android::details::real",
   "linker_set_key" : "_ZN7android7details4realERKT_IT0_E",
   "parameters" :
   [
    {
     "referenced_type" : "_ZTIRKT_IT0_E"
    }
   ],
   "return_type" : "_ZTIT0_",
   "source_file" : "frameworks/native/libs/math/include/math/TQuatHelpers.h"
  },
  {
   "function_name" : "android::details::sqrt",
   "linker_set_key" : "_ZN7android7details4sqrtET_IT0_E",
   "parameters" :
   [
    {
     "referenced_type" : "_ZTIT_IT0_E"
    }
   ],
   "return_type" : "_ZTIT_IT0_E",
   "source_file" : "frameworks/native/libs/math/include/math/TVecHelpers.h"
  },
  {
   "function_name" : "android::details::TVec2<bool>::TVec2",
   "linker_set_key" : "_ZN7android7details5TVec2IbEC1ERKS2_",
   "parameters" :
   [
    {
     "is_this_ptr" : true,
     "referenced_type" : "_ZTIPN7android7details5TVec2IbEE"
    },
    {
     "referenced_type" : "_ZTIRKN7android7details5TVec2IbEE"
    }
   ],
   "return_type" : "_ZTIv",
   "source_file" : "frameworks/native/libs/math/include/math/vec2.h"
  },
  {
   "function_name" : "android::details::TVec2<bool>::TVec2",
   "linker_set_key" : "_ZN7android7details5TVec2IbEC1Ev",
   "parameters" :
   [
    {
     "is_this_ptr" : true,
     "referenced_type" : "_ZTIPN7android7details5TVec2IbEE"
    }
   ],
   "return_type" : "_ZTIv",
   "source_file" : "frameworks/native/libs/math/include/math/vec2.h"
  },
  {
   "function_name" : "android::details::TVec2<bool>::TVec2",
   "linker_set_key" : "_ZN7android7details5TVec2IbEC2ERKS2_",
   "parameters" :
   [
    {
     "is_this_ptr" : true,
     "referenced_type" : "_ZTIPN7android7details5TVec2IbEE"
    },
    {
     "referenced_type" : "_ZTIRKN7android7details5TVec2IbEE"
    }
   ],
   "return_type" : "_ZTIv",
   "source_file" : "frameworks/native/libs/math/include/math/vec2.h"
  },
  {
   "function_name" : "android::details::TVec2<bool>::TVec2",
   "linker_set_key" : "_ZN7android7details5TVec2IbEC2Ev",
   "parameters" :
   [
    {
     "is_this_ptr" : true,
     "referenced_type" : "_ZTIPN7android7details5TVec2IbEE"
    }
   ],
   "return_type" : "_ZTIv",
   "source_file" : "frameworks/native/libs/math/include/math/vec2.h"
  },
  {
   "function_name" : "android::details::TVec2<bool>::~TVec2",
   "linker_set_key" : "_ZN7android7details5TVec2IbED1Ev",
   "parameters" :
   [
    {
     "is_this_ptr" : true,
     "referenced_type" : "_ZTIPN7android7details5TVec2IbEE"
    }
   ],
   "return_type" : "_ZTIv",
   "source_file" : "frameworks/native/libs/math/include/math/vec2.h"
  },
  {
   "function_name" : "android::details::TVec2<bool>::~TVec2",
   "linker_set_key" : "_ZN7android7details5TVec2IbED2Ev",
   "parameters" :
   [
    {
     "is_this_ptr" : true,
     "referenced_type" : "_ZTIPN7android7details5TVec2IbEE"
    }
   ],
   "return_type" : "_ZTIv",
   "source_file" : "frameworks/native/libs/math/include/math/vec2.h"
  },
  {
   "function_name" : "android::details::TVec2<bool>::operator=",
   "linker_set_key" : "_ZN7android7details5TVec2IbEaSERKS2_",
   "parameters" :
   [
    {
     "is_this_ptr" : true,
     "referenced_type" : "_ZTIPN7android7details5TVec2IbEE"
    },
    {
     "referenced_type" : "_ZTIRKN7android7details5TVec2IbEE"
    }
   ],
   "return_type" : "_ZTIRN7android7details5TVec2IbEE",
   "source_file" : "frameworks/native/libs/math/include/math/vec2.h"
  },
  {
   "function_name" : "android::details::TVec2<bool>::operator[]",
   "linker_set_key" : "_ZN7android7details5TVec2IbEixEj",
   "parameters" :
   [
    {
     "is_this_ptr" : true,
     "referenced_type" : "_ZTIPN7android7details5TVec2IbEE"
    },
    {
     "referenced_type" : "_ZTIj"
    }
   ],
   "return_type" : "_ZTIRb",
   "source_file" : "frameworks/native/libs/math/include/math/vec2.h"
  },
  {
   "function_name" : "android::details::TVec2<double>::TVec2",
   "linker_set_key" : "_ZN7android7details5TVec2IdEC1ERKS2_",
   "parameters" :
   [
    {
     "is_this_ptr" : true,
     "referenced_type" : "_ZTIPN7android7details5TVec2IdEE"
    },
    {
     "referenced_type" : "_ZTIRKN7android7details5TVec2IdEE"
    }
   ],
   "return_type" : "_ZTIv",
   "source_file" : "frameworks/native/libs/math/include/math/vec2.h"
  },
  {
   "function_name" : "android::details::TVec2<double>::TVec2",
   "linker_set_key" : "_ZN7android7details5TVec2IdEC2ERKS2_",
   "parameters" :
   [
    {
     "is_this_ptr" : true,
     "referenced_type" : "_ZTIPN7android7details5TVec2IdEE"
    },
    {
     "referenced_type" : "_ZTIRKN7android7details5TVec2IdEE"
    }
   ],
   "return_type" : "_ZTIv",
   "source_file" : "frameworks/native/libs/math/include/math/vec2.h"
  },
  {
   "function_name" : "android::details::TVec2<double>::~TVec2",
   "linker_set_key" : "_ZN7android7details5TVec2IdED1Ev",
   "parameters" :
   [
    {
     "is_this_ptr" : true,
     "referenced_type" : "_ZTIPN7android7details5TVec2IdEE"
    }
   ],
   "return_type" : "_ZTIv",
   "source_file" : "frameworks/native/libs/math/include/math/vec2.h"
  },
  {
   "function_name" : "android::details::TVec2<double>::~TVec2",
   "linker_set_key" : "_ZN7android7details5TVec2IdED2Ev",
   "parameters" :
   [
    {
     "is_this_ptr" : true,
     "referenced_type" : "_ZTIPN7android7details5TVec2IdEE"
    }
   ],
   "return_type" : "_ZTIv",
   "source_file" : "frameworks/native/libs/math/include/math/vec2.h"
  },
  {
   "function_name" : "android::details::TVec2<double>::operator=",
   "linker_set_key" : "_ZN7android7details5TVec2IdEaSERKS2_",
   "parameters" :
   [
    {
     "is_this_ptr" : true,
     "referenced_type" : "_ZTIPN7android7details5TVec2IdEE"
    },
    {
     "referenced_type" : "_ZTIRKN7android7details5TVec2IdEE"
    }
   ],
   "return_type" : "_ZTIRN7android7details5TVec2IdEE",
   "source_file" : "frameworks/native/libs/math/include/math/vec2.h"
  },
  {
   "function_name" : "android::details::TVec2<float>::TVec2",
   "linker_set_key" : "_ZN7android7details5TVec2IfEC1ERKS2_",
   "parameters" :
   [
    {
     "is_this_ptr" : true,
     "referenced_type" : "_ZTIPN7android7details5TVec2IfEE"
    },
    {
     "referenced_type" : "_ZTIRKN7android7details5TVec2IfEE"
    }
   ],
   "return_type" : "_ZTIv",
   "source_file" : "frameworks/native/libs/math/include/math/vec2.h"
  },
  {
   "function_name" : "android::details::TVec2<float>::TVec2",
   "linker_set_key" : "_ZN7android7details5TVec2IfEC1IffEET_T0_",
   "parameters" :
   [
    {
     "is_this_ptr" : true,
     "referenced_type" : "_ZTIPN7android7details5TVec2IfEE"
    },
    {
     "referenced_type" : "_ZTIf"
    },
    {
     "referenced_type" : "_ZTIf"
    }
   ],
   "return_type" : "_ZTIv",
   "source_file" : "frameworks/native/libs/math/include/math/vec2.h",
   "template_args" : [ "_ZTIf", "_ZTIf" ]
  },
  {
   "function_name" : "android::details::TVec2<float>::TVec2",
   "linker_set_key" : "_ZN7android7details5TVec2IfEC1IfvEET_",
   "parameters" :
   [
    {
     "is_this_ptr" : true,
     "referenced_type" : "_ZTIPN7android7details5TVec2IfEE"
    },
    {
     "referenced_type" : "_ZTIf"
    }
   ],
   "return_type" : "_ZTIv",
   "source_file" : "frameworks/native/libs/math/include/math/vec2.h",
   "template_args" : [ "_ZTIf", "_ZTIv" ]
  },
  {
   "function_name" : "android::details::TVec2<float>::TVec2",
   "linker_set_key" : "_ZN7android7details5TVec2IfEC2ERKS2_",
   "parameters" :
   [
    {
     "is_this_ptr" : true,
     "referenced_type" : "_ZTIPN7android7details5TVec2IfEE"
    },
    {
     "referenced_type" : "_ZTIRKN7android7details5TVec2IfEE"
    }
   ],
   "return_type" : "_ZTIv",
   "source_file" : "frameworks/native/libs/math/include/math/vec2.h"
  },
  {
   "function_name" : "android::details::TVec2<float>::TVec2",
   "linker_set_key" : "_ZN7android7details5TVec2IfEC2IffEET_T0_",
   "parameters" :
   [
    {
     "is_this_ptr" : true,
     "referenced_type" : "_ZTIPN7android7details5TVec2IfEE"
    },
    {
     "referenced_type" : "_ZTIf"
    },
    {
     "referenced_type" : "_ZTIf"
    }
   ],
   "return_type" : "_ZTIv",
   "source_file" : "frameworks/native/libs/math/include/math/vec2.h",
   "template_args" : [ "_ZTIf", "_ZTIf" ]
  },
  {
   "function_name" : "android::details::TVec2<float>::TVec2",
   "linker_set_key" : "_ZN7android7details5TVec2IfEC2IfvEET_",
   "parameters" :
   [
    {
     "is_this_ptr" : true,
     "referenced_type" : "_ZTIPN7android7details5TVec2IfEE"
    },
    {
     "referenced_type" : "_ZTIf"
    }
   ],
   "return_type" : "_ZTIv",
   "source_file" : "frameworks/native/libs/math/include/math/vec2.h",
   "template_args" : [ "_ZTIf", "_ZTIv" ]
  },
  {
   "function_name" : "android::details::TVec2<float>::~TVec2",
   "linker_set_key" : "_ZN7android7details5TVec2IfED1Ev",
   "parameters" :
   [
    {
     "is_this_ptr" : true,
     "referenced_type" : "_ZTIPN7android7details5TVec2IfEE"
    }
   ],
   "return_type" : "_ZTIv",
   "source_file" : "frameworks/native/libs/math/include/math/vec2.h"
  },
  {
   "function_name" : "android::details::TVec2<float>::~TVec2",
   "linker_set_key" : "_ZN7android7details5TVec2IfED2Ev",
   "parameters" :
   [
    {
     "is_this_ptr" : true,
     "referenced_type" : "_ZTIPN7android7details5TVec2IfEE"
    }
   ],
   "return_type" : "_ZTIv",
   "source_file" : "frameworks/native/libs/math/include/math/vec2.h"
  },
  {
   "function_name" : "android::details::TVec2<float>::operator=",
   "linker_set_key" : "_ZN7android7details5TVec2IfEaSERKS2_",
   "parameters" :
   [
    {
     "is_this_ptr" : true,
     "referenced_type" : "_ZTIPN7android7details5TVec2IfEE"
    },
    {
     "referenced_type" : "_ZTIRKN7android7details5TVec2IfEE"
    }
   ],
   "return_type" : "_ZTIRN7android7details5TVec2IfEE",
   "source_file" : "frameworks/native/libs/math/include/math/vec2.h"
  },
  {
   "function_name" : "android::details::TVec2<float>::operator[]",
   "linker_set_key" : "_ZN7android7details5TVec2IfEixEj",
   "parameters" :
   [
    {
     "is_this_ptr" : true,
     "referenced_type" : "_ZTIPN7android7details5TVec2IfEE"
    },
    {
     "referenced_type" : "_ZTIj"
    }
   ],
   "return_type" : "_ZTIRf",
   "source_file" : "frameworks/native/libs/math/include/math/vec2.h"
  },
  {
   "function_name" : "android::details::TVec3<double>::TVec3",
   "linker_set_key" : "_ZN7android7details5TVec3IdEC1ERKS2_",
   "parameters" :
   [
    {
     "is_this_ptr" : true,
     "referenced_type" : "_ZTIPN7android7details5TVec3IdEE"
    },
    {
     "referenced_type" : "_ZTIRKN7android7details5TVec3IdEE"
    }
   ],
   "return_type" : "_ZTIv",
   "source_file" : "frameworks/native/libs/math/include/math/vec3.h"
  },
  {
   "function_name" : "android::details::TVec3<double>::TVec3",
   "linker_set_key" : "_ZN7android7details5TVec3IdEC2ERKS2_",
   "parameters" :
   [
    {
     "is_this_ptr" : true,
     "referenced_type" : "_ZTIPN7android7details5TVec3IdEE"
    },
    {
     "referenced_type" : "_ZTIRKN7android7details5TVec3IdEE"
    }
   ],
   "return_type" : "_ZTIv",
   "source_file" : "frameworks/native/libs/math/include/math/vec3.h"
  },
  {
   "function_name" : "android::details::TVec3<double>::~TVec3",
   "linker_set_key" : "_ZN7android7details5TVec3IdED1Ev",
   "parameters" :
   [
    {
     "is_this_ptr" : true,
     "referenced_type" : "_ZTIPN7android7details5TVec3IdEE"
    }
   ],
   "return_type" : "_ZTIv",
   "source_file" : "frameworks/native/libs/math/include/math/vec3.h"
  },
  {
   "function_name" : "android::details::TVec3<double>::~TVec3",
   "linker_set_key" : "_ZN7android7details5TVec3IdED2Ev",
   "parameters" :
   [
    {
     "is_this_ptr" : true,
     "referenced_type" : "_ZTIPN7android7details5TVec3IdEE"
    }
   ],
   "return_type" : "_ZTIv",
   "source_file" : "frameworks/native/libs/math/include/math/vec3.h"
  },
  {
   "function_name" : "android::details::TVec3<double>::operator=",
   "linker_set_key" : "_ZN7android7details5TVec3IdEaSERKS2_",
   "parameters" :
   [
    {
     "is_this_ptr" : true,
     "referenced_type" : "_ZTIPN7android7details5TVec3IdEE"
    },
    {
     "referenced_type" : "_ZTIRKN7android7details5TVec3IdEE"
    }
   ],
   "return_type" : "_ZTIRN7android7details5TVec3IdEE",
   "source_file" : "frameworks/native/libs/math/include/math/vec3.h"
  },
  {
   "function_name" : "android::details::TVec3<float>::TVec3",
   "linker_set_key" : "_ZN7android7details5TVec3IfEC1ENS2_7no_initE",
   "parameters" :
   [
    {
     "is_this_ptr" : true,
     "referenced_type" : "_ZTIPN7android7details5TVec3IfEE"
    },
    {
     "referenced_type" : "_ZTIN7android7details5TVec3IfE7no_initE"
    }
   ],
   "return_type" : "_ZTIv",
   "source_file" : "frameworks/native/libs/math/include/math/vec3.h"
  },
  {
   "function_name" : "android::details::TVec3<float>::TVec3",
   "linker_set_key" : "_ZN7android7details5TVec3IfEC1ERKS2_",
   "parameters" :
   [
    {
     "is_this_ptr" : true,
     "referenced_type" : "_ZTIPN7android7details5TVec3IfEE"
    },
    {
     "referenced_type" : "_ZTIRKN7android7details5TVec3IfEE"
    }
   ],
   "return_type" : "_ZTIv",
   "source_file" : "frameworks/native/libs/math/include/math/vec3.h"
  },
  {
   "function_name" : "android::details::TVec3<float>::TVec3",
   "linker_set_key" : "_ZN7android7details5TVec3IfEC1Ev",
   "parameters" :
   [
    {
     "is_this_ptr" : true,
     "referenced_type" : "_ZTIPN7android7details5TVec3IfEE"
    }
   ],
   "return_type" : "_ZTIv",
   "source_file" : "frameworks/native/libs/math/include/math/vec3.h"
  },
  {
   "function_name" : "android::details::TVec3<float>::TVec3",
   "linker_set_key" : "_ZN7android7details5TVec3IfEC1IfffEET_T0_T1_",
   "parameters" :
   [
    {
     "is_this_ptr" : true,
     "referenced_type" : "_ZTIPN7android7details5TVec3IfEE"
    },
    {
     "referenced_type" : "_ZTIf"
    },
    {
     "referenced_type" : "_ZTIf"
    },
    {
     "referenced_type" : "_ZTIf"
    }
   ],
   "return_type" : "_ZTIv",
   "source_file" : "frameworks/native/libs/math/include/math/vec3.h",
   "template_args" : [ "_ZTIf", "_ZTIf", "_ZTIf" ]
  },
  {
   "function_name" : "android::details::TVec3<float>::TVec3",
   "linker_set_key" : "_ZN7android7details5TVec3IfEC1IfiEERKNS0_5TVec2IT_EET0_",
   "parameters" :
   [
    {
     "is_this_ptr" : true,
     "referenced_type" : "_ZTIPN7android7details5TVec3IfEE"
    },
    {
     "referenced_type" : "_ZTIRKN7android7details5TVec2IfEE"
    },
    {
     "referenced_type" : "_ZTIi"
    }
   ],
   "return_type" : "_ZTIv",
   "source_file" : "frameworks/native/libs/math/include/math/vec3.h",
   "template_args" : [ "_ZTIf", "_ZTIi" ]
  },
  {
   "function_name" : "android::details::TVec3<float>::TVec3",
   "linker_set_key" : "_ZN7android7details5TVec3IfEC1IfiiEET_T0_T1_",
   "parameters" :
   [
    {
     "is_this_ptr" : true,
     "referenced_type" : "_ZTIPN7android7details5TVec3IfEE"
    },
    {
     "referenced_type" : "_ZTIf"
    },
    {
     "referenced_type" : "_ZTIi"
    },
    {
     "referenced_type" : "_ZTIi"
    }
   ],
   "return_type" : "_ZTIv",
   "source_file" : "frameworks/native/libs/math/include/math/vec3.h",
   "template_args" : [ "_ZTIf", "_ZTIi", "_ZTIi" ]
  },
  {
   "function_name" : "android::details::TVec3<float>::TVec3",
   "linker_set_key" : "_ZN7android7details5TVec3IfEC1IfvEET_",
   "parameters" :
   [
    {
     "is_this_ptr" : true,
     "referenced_type" : "_ZTIPN7android7details5TVec3IfEE"
    },
    {
     "referenced_type" : "_ZTIf"
    }
   ],
   "return_type" : "_ZTIv",
   "source_file" : "frameworks/native/libs/math/include/math/vec3.h",
   "template_args" : [ "_ZTIf", "_ZTIv" ]
  },
  {
   "function_name" : "android::details::TVec3<float>::TVec3",
   "linker_set_key" : "_ZN7android7details5TVec3IfEC1IifiEET_T0_T1_",
   "parameters" :
   [
    {
     "is_this_ptr" : true,
     "referenced_type" : "_ZTIPN7android7details5TVec3IfEE"
    },
    {
     "referenced_type" : "_ZTIi"
    },
    {
     "referenced_type" : "_ZTIf"
    },
    {
     "referenced_type" : "_ZTIi"
    }
   ],
   "return_type" : "_ZTIv",
   "source_file" : "frameworks/native/libs/math/include/math/vec3.h",
   "template_args" : [ "_ZTIi", "_ZTIf", "_ZTIi" ]
  },
  {
   "function_name" : "android::details::TVec3<float>::TVec3",
   "linker_set_key" : "_ZN7android7details5TVec3IfEC1IiifEET_T0_T1_",
   "parameters" :
   [
    {
     "is_this_ptr" : true,
     "referenced_type" : "_ZTIPN7android7details5TVec3IfEE"
    },
    {
     "referenced_type" : "_ZTIi"
    },
    {
     "referenced_type" : "_ZTIi"
    },
    {
     "referenced_type" : "_ZTIf"
    }
   ],
   "return_type" : "_ZTIv",
   "source_file" : "frameworks/native/libs/math/include/math/vec3.h",
   "template_args" : [ "_ZTIi", "_ZTIi", "_ZTIf" ]
  },
  {
   "function_name" : "android::details::TVec3<float>::TVec3",
   "linker_set_key" : "_ZN7android7details5TVec3IfEC1IiiiEET_T0_T1_",
   "parameters" :
   [
    {
     "is_this_ptr" : true,
     "referenced_type" : "_ZTIPN7android7details5TVec3IfEE"
    },
    {
     "referenced_type" : "_ZTIi"
    },
    {
     "referenced_type" : "_ZTIi"
    },
    {
     "referenced_type" : "_ZTIi"
    }
   ],
   "return_type" : "_ZTIv",
   "source_file" : "frameworks/native/libs/math/include/math/vec3.h",
   "template_args" : [ "_ZTIi", "_ZTIi", "_ZTIi" ]
  },
  {
   "function_name" : "android::details::TVec3<float>::TVec3",
   "linker_set_key" : "_ZN7android7details5TVec3IfEC1IivEET_",
   "parameters" :
   [
    {
     "is_this_ptr" : true,
     "referenced_type" : "_ZTIPN7android7details5TVec3IfEE"
    },
    {
     "referenced_type" : "_ZTIi"
    }
   ],
   "return_type" : "_ZTIv",
   "source_file" : "frameworks/native/libs/math/include/math/vec3.h",
   "template_args" : [ "_ZTIi", "_ZTIv" ]
  },
  {
   "function_name" : "android::details::TVec3<float>::TVec3",
   "linker_set_key" : "_ZN7android7details5TVec3IfEC2ENS2_7no_initE",
   "parameters" :
   [
    {
     "is_this_ptr" : true,
     "referenced_type" : "_ZTIPN7android7details5TVec3IfEE"
    },
    {
     "referenced_type" : "_ZTIN7android7details5TVec3IfE7no_initE"
    }
   ],
   "return_type" : "_ZTIv",
   "source_file" : "frameworks/native/libs/math/include/math/vec3.h"
  },
  {
   "function_name" : "android::details::TVec3<float>::TVec3",
   "linker_set_key" : "_ZN7android7details5TVec3IfEC2ERKS2_",
   "parameters" :
   [
    {
     "is_this_ptr" : true,
     "referenced_type" : "_ZTIPN7android7details5TVec3IfEE"
    },
    {
     "referenced_type" : "_ZTIRKN7android7details5TVec3IfEE"
    }
   ],
   "return_type" : "_ZTIv",
   "source_file" : "frameworks/native/libs/math/include/math/vec3.h"
  },
  {
   "function_name" : "android::details::TVec3<float>::TVec3",
   "linker_set_key" : "_ZN7android7details5TVec3IfEC2Ev",
   "parameters" :
   [
    {
     "is_this_ptr" : true,
     "referenced_type" : "_ZTIPN7android7details5TVec3IfEE"
    }
   ],
   "return_type" : "_ZTIv",
   "source_file" : "frameworks/native/libs/math/include/math/vec3.h"
  },
  {
   "function_name" : "android::details::TVec3<float>::TVec3",
   "linker_set_key" : "_ZN7android7details5TVec3IfEC2IfffEET_T0_T1_",
   "parameters" :
   [
    {
     "is_this_ptr" : true,
     "referenced_type" : "_ZTIPN7android7details5TVec3IfEE"
    },
    {
     "referenced_type" : "_ZTIf"
    },
    {
     "referenced_type" : "_ZTIf"
    },
    {
     "referenced_type" : "_ZTIf"
    }
   ],
   "return_type" : "_ZTIv",
   "source_file" : "frameworks/native/libs/math/include/math/vec3.h",
   "template_args" : [ "_ZTIf", "_ZTIf", "_ZTIf" ]
  },
  {
   "function_name" : "android::details::TVec3<float>::TVec3",
   "linker_set_key" : "_ZN7android7details5TVec3IfEC2IfiEERKNS0_5TVec2IT_EET0_",
   "parameters" :
   [
    {
     "is_this_ptr" : true,
     "referenced_type" : "_ZTIPN7android7details5TVec3IfEE"
    },
    {
     "referenced_type" : "_ZTIRKN7android7details5TVec2IfEE"
    },
    {
     "referenced_type" : "_ZTIi"
    }
   ],
   "return_type" : "_ZTIv",
   "source_file" : "frameworks/native/libs/math/include/math/vec3.h",
   "template_args" : [ "_ZTIf", "_ZTIi" ]
  },
  {
   "function_name" : "android::details::TVec3<float>::TVec3",
   "linker_set_key" : "_ZN7android7details5TVec3IfEC2IfiiEET_T0_T1_",
   "parameters" :
   [
    {
     "is_this_ptr" : true,
     "referenced_type" : "_ZTIPN7android7details5TVec3IfEE"
    },
    {
     "referenced_type" : "_ZTIf"
    },
    {
     "referenced_type" : "_ZTIi"
    },
    {
     "referenced_type" : "_ZTIi"
    }
   ],
   "return_type" : "_ZTIv",
   "source_file" : "frameworks/native/libs/math/include/math/vec3.h",
   "template_args" : [ "_ZTIf", "_ZTIi", "_ZTIi" ]
  },
  {
   "function_name" : "android::details::TVec3<float>::TVec3",
   "linker_set_key" : "_ZN7android7details5TVec3IfEC2IfvEET_",
   "parameters" :
   [
    {
     "is_this_ptr" : true,
     "referenced_type" : "_ZTIPN7android7details5TVec3IfEE"
    },
    {
     "referenced_type" : "_ZTIf"
    }
   ],
   "return_type" : "_ZTIv",
   "source_file" : "frameworks/native/libs/math/include/math/vec3.h",
   "template_args" : [ "_ZTIf", "_ZTIv" ]
  },
  {
   "function_name" : "android::details::TVec3<float>::TVec3",
   "linker_set_key" : "_ZN7android7details5TVec3IfEC2IifiEET_T0_T1_",
   "parameters" :
   [
    {
     "is_this_ptr" : true,
     "referenced_type" : "_ZTIPN7android7details5TVec3IfEE"
    },
    {
     "referenced_type" : "_ZTIi"
    },
    {
     "referenced_type" : "_ZTIf"
    },
    {
     "referenced_type" : "_ZTIi"
    }
   ],
   "return_type" : "_ZTIv",
   "source_file" : "frameworks/native/libs/math/include/math/vec3.h",
   "template_args" : [ "_ZTIi", "_ZTIf", "_ZTIi" ]
  },
  {
   "function_name" : "android::details::TVec3<float>::TVec3",
   "linker_set_key" : "_ZN7android7details5TVec3IfEC2IiifEET_T0_T1_",
   "parameters" :
   [
    {
     "is_this_ptr" : true,
     "referenced_type" : "_ZTIPN7android7details5TVec3IfEE"
    },
    {
     "referenced_type" : "_ZTIi"
    },
    {
     "referenced_type" : "_ZTIi"
    },
    {
     "referenced_type" : "_ZTIf"
    }
   ],
   "return_type" : "_ZTIv",
   "source_file" : "frameworks/native/libs/math/include/math/vec3.h",
   "template_args" : [ "_ZTIi", "_ZTIi", "_ZTIf" ]
  },
  {
   "function_name" : "android::details::TVec3<float>::TVec3",
   "linker_set_key" : "_ZN7android7details5TVec3IfEC2IiiiEET_T0_T1_",
   "parameters" :
   [
    {
     "is_this_ptr" : true,
     "referenced_type" : "_ZTIPN7android7details5TVec3IfEE"
    },
    {
     "referenced_type" : "_ZTIi"
    },
    {
     "referenced_type" : "_ZTIi"
    },
    {
     "referenced_type" : "_ZTIi"
    }
   ],
   "return_type" : "_ZTIv",
   "source_file" : "frameworks/native/libs/math/include/math/vec3.h",
   "template_args" : [ "_ZTIi", "_ZTIi", "_ZTIi" ]
  },
  {
   "function_name" : "android::details::TVec3<float>::TVec3",
   "linker_set_key" : "_ZN7android7details5TVec3IfEC2IivEET_",
   "parameters" :
   [
    {
     "is_this_ptr" : true,
     "referenced_type" : "_ZTIPN7android7details5TVec3IfEE"
    },
    {
     "referenced_type" : "_ZTIi"
    }
   ],
   "return_type" : "_ZTIv",
   "source_file" : "frameworks/native/libs/math/include/math/vec3.h",
   "template_args" : [ "_ZTIi", "_ZTIv" ]
  },
  {
   "function_name" : "android::details::TVec3<float>::~TVec3",
   "linker_set_key" : "_ZN7android7details5TVec3IfED1Ev",
   "parameters" :
   [
    {
     "is_this_ptr" : true,
     "referenced_type" : "_ZTIPN7android7details5TVec3IfEE"
    }
   ],
   "return_type" : "_ZTIv",
   "source_file" : "frameworks/native/libs/math/include/math/vec3.h"
  },
  {
   "function_name" : "android::details::TVec3<float>::~TVec3",
   "linker_set_key" : "_ZN7android7details5TVec3IfED2Ev",
   "parameters" :
   [
    {
     "is_this_ptr" : true,
     "referenced_type" : "_ZTIPN7android7details5TVec3IfEE"
    }
   ],
   "return_type" : "_ZTIv",
   "source_file" : "frameworks/native/libs/math/include/math/vec3.h"
  },
  {
   "function_name" : "android::details::TVec3<float>::operator=",
   "linker_set_key" : "_ZN7android7details5TVec3IfEaSERKS2_",
   "parameters" :
   [
    {
     "is_this_ptr" : true,
     "referenced_type" : "_ZTIPN7android7details5TVec3IfEE"
    },
    {
     "referenced_type" : "_ZTIRKN7android7details5TVec3IfEE"
    }
   ],
   "return_type" : "_ZTIRN7android7details5TVec3IfEE",
   "source_file" : "frameworks/native/libs/math/include/math/vec3.h"
  },
  {
   "function_name" : "android::details::TVec3<float>::operator[]",
   "linker_set_key" : "_ZN7android7details5TVec3IfEixEj",
   "parameters" :
   [
    {
     "is_this_ptr" : true,
     "referenced_type" : "_ZTIPN7android7details5TVec3IfEE"
    },
    {
     "referenced_type" : "_ZTIj"
    }
   ],
   "return_type" : "_ZTIRf",
   "source_file" : "frameworks/native/libs/math/include/math/vec3.h"
  },
  {
   "function_name" : "android::details::TVec4<double>::TVec4",
   "linker_set_key" : "_ZN7android7details5TVec4IdEC1ERKS2_",
   "parameters" :
   [
    {
     "is_this_ptr" : true,
     "referenced_type" : "_ZTIPN7android7details5TVec4IdEE"
    },
    {
     "referenced_type" : "_ZTIRKN7android7details5TVec4IdEE"
    }
   ],
   "return_type" : "_ZTIv",
   "source_file" : "frameworks/native/libs/math/include/math/vec4.h"
  },
  {
   "function_name" : "android::details::TVec4<double>::TVec4",
   "linker_set_key" : "_ZN7android7details5TVec4IdEC2ERKS2_",
   "parameters" :
   [
    {
     "is_this_ptr" : true,
     "referenced_type" : "_ZTIPN7android7details5TVec4IdEE"
    },
    {
     "referenced_type" : "_ZTIRKN7android7details5TVec4IdEE"
    }
   ],
   "return_type" : "_ZTIv",
   "source_file" : "frameworks/native/libs/math/include/math/vec4.h"
  },
  {
   "function_name" : "android::details::TVec4<double>::~TVec4",
   "linker_set_key" : "_ZN7android7details5TVec4IdED1Ev",
   "parameters" :
   [
    {
     "is_this_ptr" : true,
     "referenced_type" : "_ZTIPN7android7details5TVec4IdEE"
    }
   ],
   "return_type" : "_ZTIv",
   "source_file" : "frameworks/native/libs/math/include/math/vec4.h"
  },
  {
   "function_name" : "android::details::TVec4<double>::~TVec4",
   "linker_set_key" : "_ZN7android7details5TVec4IdED2Ev",
   "parameters" :
   [
    {
     "is_this_ptr" : true,
     "referenced_type" : "_ZTIPN7android7details5TVec4IdEE"
    }
   ],
   "return_type" : "_ZTIv",
   "source_file" : "frameworks/native/libs/math/include/math/vec4.h"
  },
  {
   "function_name" : "android::details::TVec4<double>::operator=",
   "linker_set_key" : "_ZN7android7details5TVec4IdEaSERKS2_",
   "parameters" :
   [
    {
     "is_this_ptr" : true,
     "referenced_type" : "_ZTIPN7android7details5TVec4IdEE"
    },
    {
     "referenced_type" : "_ZTIRKN7android7details5TVec4IdEE"
    }
   ],
   "return_type" : "_ZTIRN7android7details5TVec4IdEE",
   "source_file" : "frameworks/native/libs/math/include/math/vec4.h"
  },
  {
   "function_name" : "android::details::TVec4<float>::TVec4",
   "linker_set_key" : "_ZN7android7details5TVec4IfEC1ERKS2_",
   "parameters" :
   [
    {
     "is_this_ptr" : true,
     "referenced_type" : "_ZTIPN7android7details5TVec4IfEE"
    },
    {
     "referenced_type" : "_ZTIRKN7android7details5TVec4IfEE"
    }
   ],
   "return_type" : "_ZTIv",
   "source_file" : "frameworks/native/libs/math/include/math/vec4.h"
  },
  {
   "function_name" : "android::details::TVec4<float>::TVec4",
   "linker_set_key" : "_ZN7android7details5TVec4IfEC2ERKS2_",
   "parameters" :
   [
    {
     "is_this_ptr" : true,
     "referenced_type" : "_ZTIPN7android7details5TVec4IfEE"
    },
    {
     "referenced_type" : "_ZTIRKN7android7details5TVec4IfEE"
    }
   ],
   "return_type" : "_ZTIv",
   "source_file" : "frameworks/native/libs/math/include/math/vec4.h"
  },
  {
   "function_name" : "android::details::TVec4<float>::~TVec4",
   "linker_set_key" : "_ZN7android7details5TVec4IfED1Ev",
   "parameters" :
   [
    {
     "is_this_ptr" : true,
     "referenced_type" : "_ZTIPN7android7details5TVec4IfEE"
    }
   ],
   "return_type" : "_ZTIv",
   "source_file" : "frameworks/native/libs/math/include/math/vec4.h"
  },
  {
   "function_name" : "android::details::TVec4<float>::~TVec4",
   "linker_set_key" : "_ZN7android7details5TVec4IfED2Ev",
   "parameters" :
   [
    {
     "is_this_ptr" : true,
     "referenced_type" : "_ZTIPN7android7details5TVec4IfEE"
    }
   ],
   "return_type" : "_ZTIv",
   "source_file" : "frameworks/native/libs/math/include/math/vec4.h"
  },
  {
   "function_name" : "android::details::TVec4<float>::operator=",
   "linker_set_key" : "_ZN7android7details5TVec4IfEaSERKS2_",
   "parameters" :
   [
    {
     "is_this_ptr" : true,
     "referenced_type" : "_ZTIPN7android7details5TVec4IfEE"
    },
    {
     "referenced_type" : "_ZTIRKN7android7details5TVec4IfEE"
    }
   ],
   "return_type" : "_ZTIRN7android7details5TVec4IfEE",
   "source_file" : "frameworks/native/libs/math/include/math/vec4.h"
  },
  {
   "function_name" : "android::details::apply",
   "linker_set_key" : "_ZN7android7details5applyENS0_5TVec3IfEERKNSt3__18functionIFffEEE",
   "parameters" :
   [
    {
     "referenced_type" : "_ZTIN7android7details5TVec3IfEE"
    },
    {
     "referenced_type" : "_ZTIRKNSt3__18functionIFffEEE"
    }
   ],
   "return_type" : "_ZTIN7android7details5TVec3IfEE",
   "source_file" : "frameworks/native/libs/math/include/math/TVecHelpers.h"
  },
  {
   "function_name" : "android::details::apply",
   "linker_set_key" : "_ZN7android7details5applyET_IT0_ERKNSt3__18functionIFS2_S2_EEE",
   "parameters" :
   [
    {
     "referenced_type" : "_ZTIT_IT0_E"
    },
    {
     "referenced_type" : "_ZTIRKNSt3__18functionIFT0_S1_EEE"
    }
   ],
   "return_type" : "_ZTIT_IT0_E",
   "source_file" : "frameworks/native/libs/math/include/math/TVecHelpers.h"
  },
  {
   "function_name" : "android::details::clamp",
   "linker_set_key" : "_ZN7android7details5clampET_IT0_ES2_S2_",
   "parameters" :
   [
    {
     "referenced_type" : "_ZTIT_IT0_E"
    },
    {
     "referenced_type" : "_ZTIT0_"
    },
    {
     "referenced_type" : "_ZTIT0_"
    }
   ],
   "return_type" : "_ZTIT_IT0_E",
   "source_file" : "frameworks/native/libs/math/include/math/TVecHelpers.h"
  },
  {
   "function_name" : "android::details::cross",
   "linker_set_key" : "_ZN7android7details5crossERKT_IT0_ES5_",
   "parameters" :
   [
    {
     "referenced_type" : "_ZTIRKT_IT0_E"
    },
    {
     "referenced_type" : "_ZTIRKT_IT0_E"
    }
   ],
   "return_type" : "_ZTIT_IT0_E",
   "source_file" : "frameworks/native/libs/math/include/math/TQuatHelpers.h"
  },
  {
   "function_name" : "android::details::floor",
   "linker_set_key" : "_ZN7android7details5floorET_IT0_E",
   "parameters" :
   [
    {
     "referenced_type" : "_ZTIT_IT0_E"
    }
   ],
   "return_type" : "_ZTIT_IT0_E",
   "source_file" : "frameworks/native/libs/math/include/math/TVecHelpers.h"
  },
  {
   "function_name" : "android::details::nlerp",
   "linker_set_key" : "_ZN7android7details5nlerpERKT_IT0_ES5_S2_",
   "parameters" :
   [
    {
     "referenced_type" : "_ZTIRKT_IT0_E"
    },
    {
     "referenced_type" : "_ZTIRKT_IT0_E"
    },
    {
     "referenced_type" : "_ZTIT0_"
    }
   ],
   "return_type" : "_ZTIT_IT0_E",
   "source_file" : "frameworks/native/libs/math/include/math/TQuatHelpers.h"
  },
  {
   "function_name" : "android::details::norm2",
   "linker_set_key" : "_ZN7android7details5norm2ERKT_IT0_E",
   "parameters" :
   [
    {
     "referenced_type" : "_ZTIRKT_IT0_E"
    }
   ],
   "return_type" : "_ZTIT0_",
   "source_file" : "frameworks/native/libs/math/include/math/TVecHelpers.h"
  },
  {
   "function_name" : "android::details::round",
   "linker_set_key" : "_ZN7android7details5roundET_IT0_E",
   "parameters" :
   [
    {
     "referenced_type" : "_ZTIT_IT0_E"
    }
   ],
   "return_type" : "_ZTIT_IT0_E",
   "source_file" : "frameworks/native/libs/math/include/math/TVecHelpers.h"
  },
  {
   "function_name" : "android::details::slerp",
   "linker_set_key" : "_ZN7android7details5slerpERKT_IT0_ES5_S2_",
   "parameters" :
   [
    {
     "referenced_type" : "_ZTIRKT_IT0_E"
    },
    {
     "referenced_type" : "_ZTIRKT_IT0_E"
    },
    {
     "referenced_type" : "_ZTIT0_"
    }
   ],
   "return_type" : "_ZTIT_IT0_E",
   "source_file" : "frameworks/native/libs/math/include/math/TQuatHelpers.h"
  },
  {
   "function_name" : "android::details::trace",
   "linker_set_key" : "_ZN7android7details5traceERKT_IT0_E",
   "parameters" :
   [
    {
     "referenced_type" : "_ZTIRKT_IT0_E"
    }
   ],
   "return_type" : "_ZTIT0_",
   "source_file" : "frameworks/native/libs/math/include/math/TMatHelpers.h"
  },
  {
   "function_name" : "android::details::TMat33<float>::TMat33",
   "linker_set_key" : "_ZN7android7details6TMat33IfEC1ENS2_7no_initE",
   "parameters" :
   [
    {
     "is_this_ptr" : true,
     "referenced_type" : "_ZTIPN7android7details6TMat33IfEE"
    },
    {
     "referenced_type" : "_ZTIN7android7details6TMat33IfE7no_initE"
    }
   ],
   "return_type" : "_ZTIv",
   "source_file" : "frameworks/native/libs/math/include/math/mat3.h"
  },
  {
   "function_name" : "android::details::TMat33<float>::TMat33",
   "linker_set_key" : "_ZN7android7details6TMat33IfEC1ERKS2_",
   "parameters" :
   [
    {
     "is_this_ptr" : true,
     "referenced_type" : "_ZTIPN7android7details6TMat33IfEE"
    },
    {
     "referenced_type" : "_ZTIRKN7android7details6TMat33IfEE"
    }
   ],
   "return_type" : "_ZTIv",
   "source_file" : "frameworks/native/libs/math/include/math/mat3.h"
  },
  {
   "function_name" : "android::details::TMat33<float>::TMat33",
   "linker_set_key" : "_ZN7android7details6TMat33IfEC1Ev",
   "parameters" :
   [
    {
     "is_this_ptr" : true,
     "referenced_type" : "_ZTIPN7android7details6TMat33IfEE"
    }
   ],
   "return_type" : "_ZTIv",
   "source_file" : "frameworks/native/libs/math/include/math/mat3.h"
  },
  {
   "function_name" : "android::details::TMat33<float>::TMat33",
   "linker_set_key" : "_ZN7android7details6TMat33IfEC1IfEERKNS0_5TVec3IT_EE",
   "parameters" :
   [
    {
     "is_this_ptr" : true,
     "referenced_type" : "_ZTIPN7android7details6TMat33IfEE"
    },
    {
     "referenced_type" : "_ZTIRKN7android7details5TVec3IfEE"
    }
   ],
   "return_type" : "_ZTIv",
   "source_file" : "frameworks/native/libs/math/include/math/mat3.h",
   "template_args" : [ "_ZTIf" ]
  },
  {
   "function_name" : "android::details::TMat33<float>::TMat33",
   "linker_set_key" : "_ZN7android7details6TMat33IfEC1IfffEERKNS0_5TVec3IT_EERKNS4_IT0_EERKNS4_IT1_EE",
   "parameters" :
   [
    {
     "is_this_ptr" : true,
     "referenced_type" : "_ZTIPN7android7details6TMat33IfEE"
    },
    {
     "referenced_type" : "_ZTIRKN7android7details5TVec3IfEE"
    },
    {
     "referenced_type" : "_ZTIRKN7android7details5TVec3IfEE"
    },
    {
     "referenced_type" : "_ZTIRKN7android7details5TVec3IfEE"
    }
   ],
   "return_type" : "_ZTIv",
   "source_file" : "frameworks/native/libs/math/include/math/mat3.h",
   "template_args" : [ "_ZTIf", "_ZTIf", "_ZTIf" ]
  },
  {
   "function_name" : "android::details::TMat33<float>::TMat33",
   "linker_set_key" : "_ZN7android7details6TMat33IfEC1IiEET_",
   "parameters" :
   [
    {
     "is_this_ptr" : true,
     "referenced_type" : "_ZTIPN7android7details6TMat33IfEE"
    },
    {
     "referenced_type" : "_ZTIi"
    }
   ],
   "return_type" : "_ZTIv",
   "source_file" : "frameworks/native/libs/math/include/math/mat3.h",
   "template_args" : [ "_ZTIi" ]
  },
  {
   "function_name" : "android::details::TMat33<float>::TMat33",
   "linker_set_key" : "_ZN7android7details6TMat33IfEC2ENS2_7no_initE",
   "parameters" :
   [
    {
     "is_this_ptr" : true,
     "referenced_type" : "_ZTIPN7android7details6TMat33IfEE"
    },
    {
     "referenced_type" : "_ZTIN7android7details6TMat33IfE7no_initE"
    }
   ],
   "return_type" : "_ZTIv",
   "source_file" : "frameworks/native/libs/math/include/math/mat3.h"
  },
  {
   "function_name" : "android::details::TMat33<float>::TMat33",
   "linker_set_key" : "_ZN7android7details6TMat33IfEC2ERKS2_",
   "parameters" :
   [
    {
     "is_this_ptr" : true,
     "referenced_type" : "_ZTIPN7android7details6TMat33IfEE"
    },
    {
     "referenced_type" : "_ZTIRKN7android7details6TMat33IfEE"
    }
   ],
   "return_type" : "_ZTIv",
   "source_file" : "frameworks/native/libs/math/include/math/mat3.h"
  },
  {
   "function_name" : "android::details::TMat33<float>::TMat33",
   "linker_set_key" : "_ZN7android7details6TMat33IfEC2Ev",
   "parameters" :
   [
    {
     "is_this_ptr" : true,
     "referenced_type" : "_ZTIPN7android7details6TMat33IfEE"
    }
   ],
   "return_type" : "_ZTIv",
   "source_file" : "frameworks/native/libs/math/include/math/mat3.h"
  },
  {
   "function_name" : "android::details::TMat33<float>::TMat33",
   "linker_set_key" : "_ZN7android7details6TMat33IfEC2IfEERKNS0_5TVec3IT_EE",
   "parameters" :
   [
    {
     "is_this_ptr" : true,
     "referenced_type" : "_ZTIPN7android7details6TMat33IfEE"
    },
    {
     "referenced_type" : "_ZTIRKN7android7details5TVec3IfEE"
    }
   ],
   "return_type" : "_ZTIv",
   "source_file" : "frameworks/native/libs/math/include/math/mat3.h",
   "template_args" : [ "_ZTIf" ]
  },
  {
   "function_name" : "android::details::TMat33<float>::TMat33",
   "linker_set_key" : "_ZN7android7details6TMat33IfEC2IfffEERKNS0_5TVec3IT_EERKNS4_IT0_EERKNS4_IT1_EE",
   "parameters" :
   [
    {
     "is_this_ptr" : true,
     "referenced_type" : "_ZTIPN7android7details6TMat33IfEE"
    },
    {
     "referenced_type" : "_ZTIRKN7android7details5TVec3IfEE"
    },
    {
     "referenced_type" : "_ZTIRKN7android7details5TVec3IfEE"
    },
    {
     "referenced_type" : "_ZTIRKN7android7details5TVec3IfEE"
    }
   ],
   "return_type" : "_ZTIv",
   "source_file" : "frameworks/native/libs/math/include/math/mat3.h",
   "template_args" : [ "_ZTIf", "_ZTIf", "_ZTIf" ]
  },
  {
   "function_name" : "android::details::TMat33<float>::TMat33",
   "linker_set_key" : "_ZN7android7details6TMat33IfEC2IiEET_",
   "parameters" :
   [
    {
     "is_this_ptr" : true,
     "referenced_type" : "_ZTIPN7android7details6TMat33IfEE"
    },
    {
     "referenced_type" : "_ZTIi"
    }
   ],
   "return_type" : "_ZTIv",
   "source_file" : "frameworks/native/libs/math/include/math/mat3.h",
   "template_args" : [ "_ZTIi" ]
  },
  {
   "function_name" : "android::details::TMat33<float>::~TMat33",
   "linker_set_key" : "_ZN7android7details6TMat33IfED1Ev",
   "parameters" :
   [
    {
     "is_this_ptr" : true,
     "referenced_type" : "_ZTIPN7android7details6TMat33IfEE"
    }
   ],
   "return_type" : "_ZTIv",
   "source_file" : "frameworks/native/libs/math/include/math/mat3.h"
  },
  {
   "function_name" : "android::details::TMat33<float>::~TMat33",
   "linker_set_key" : "_ZN7android7details6TMat33IfED2Ev",
   "parameters" :
   [
    {
     "is_this_ptr" : true,
     "referenced_type" : "_ZTIPN7android7details6TMat33IfEE"
    }
   ],
   "return_type" : "_ZTIv",
   "source_file" : "frameworks/native/libs/math/include/math/mat3.h"
  },
  {
   "function_name" : "android::details::TMat33<float>::operator=",
   "linker_set_key" : "_ZN7android7details6TMat33IfEaSERKS2_",
   "parameters" :
   [
    {
     "is_this_ptr" : true,
     "referenced_type" : "_ZTIPN7android7details6TMat33IfEE"
    },
    {
     "referenced_type" : "_ZTIRKN7android7details6TMat33IfEE"
    }
   ],
   "return_type" : "_ZTIRN7android7details6TMat33IfEE",
   "source_file" : "frameworks/native/libs/math/include/math/mat3.h"
  },
  {
   "function_name" : "android::details::TMat33<float>::operator[]",
   "linker_set_key" : "_ZN7android7details6TMat33IfEixEj",
   "parameters" :
   [
    {
     "is_this_ptr" : true,
     "referenced_type" : "_ZTIPN7android7details6TMat33IfEE"
    },
    {
     "referenced_type" : "_ZTIj"
    }
   ],
   "return_type" : "_ZTIRN7android7details5TVec3IfEE",
   "source_file" : "frameworks/native/libs/math/include/math/mat3.h"
  },
  {
   "function_name" : "android::details::length",
   "linker_set_key" : "_ZN7android7details6lengthERKT_IT0_E",
   "parameters" :
   [
    {
     "referenced_type" : "_ZTIRKT_IT0_E"
    }
   ],
   "return_type" : "_ZTIT0_",
   "source_file" : "frameworks/native/libs/math/include/math/TVecHelpers.h"
  },
  {
   "function_name" : "android::details::matrix::fastInverse2",
   "linker_set_key" : "_ZN7android7details6matrix12fastInverse2INS0_6TMat33IfEEEET_RKS5_",
   "parameters" :
   [
    {
     "referenced_type" : "_ZTIRKN7android7details6TMat33IfEE"
    }
   ],
   "return_type" : "_ZTIN7android7details6TMat33IfEE",
   "source_file" : "frameworks/native/libs/math/include/math/TMatHelpers.h",
   "template_args" : [ "_ZTIN7android7details6TMat33IfEE" ]
  },
  {
   "function_name" : "android::details::matrix::fastInverse3",
   "linker_set_key" : "_ZN7android7details6matrix12fastInverse3INS0_6TMat33IfEEEET_RKS5_",
   "parameters" :
   [
    {
     "referenced_type" : "_ZTIRKN7android7details6TMat33IfEE"
    }
   ],
   "return_type" : "_ZTIN7android7details6TMat33IfEE",
   "source_file" : "frameworks/native/libs/math/include/math/TMatHelpers.h",
   "template_args" : [ "_ZTIN7android7details6TMat33IfEE" ]
  },
  {
   "function_name" : "android::details::matrix::gaussJordanInverse",
   "linker_set_key" : "_ZN7android7details6matrix18gaussJordanInverseINS0_6TMat33IfEEEET_RKS5_",
   "parameters" :
   [
    {
     "referenced_type" : "_ZTIRKN7android7details6TMat33IfEE"
    }
   ],
   "return_type" : "_ZTIN7android7details6TMat33IfEE",
   "source_file" : "frameworks/native/libs/math/include/math/TMatHelpers.h",
   "template_args" : [ "_ZTIN7android7details6TMat33IfEE" ]
  },
  {
   "function_name" : "android::details::matrix::trace",
   "linker_set_key" : "_ZN7android7details6matrix5traceEd",
   "parameters" :
   [
    {
     "referenced_type" : "_ZTId"
    }
   ],
   "return_type" : "_ZTId",
   "source_file" : "frameworks/native/libs/math/include/math/TMatHelpers.h"
  },
  {
   "function_name" : "android::details::matrix::trace",
   "linker_set_key" : "_ZN7android7details6matrix5traceEf",
   "parameters" :
   [
    {
     "referenced_type" : "_ZTIf"
    }
   ],
   "return_type" : "_ZTIf",
   "source_file" : "frameworks/native/libs/math/include/math/TMatHelpers.h"
  },
  {
   "function_name" : "android::details::matrix::trace",
   "linker_set_key" : "_ZN7android7details6matrix5traceEi",
   "parameters" :
   [
    {
     "referenced_type" : "_ZTIi"
    }
   ],
   "return_type" : "_ZTIi",
   "source_file" : "frameworks/native/libs/math/include/math/TMatHelpers.h"
  },
  {
   "function_name" : "android::details::matrix::inverse",
   "linker_set_key" : "_ZN7android7details6matrix7inverseINS0_6TMat33IfEEEET_RKS5_",
   "parameters" :
   [
    {
     "referenced_type" : "_ZTIRKN7android7details6TMat33IfEE"
    }
   ],
   "return_type" : "_ZTIN7android7details6TMat33IfEE",
   "source_file" : "frameworks/native/libs/math/include/math/TMatHelpers.h",
   "template_args" : [ "_ZTIN7android7details6TMat33IfEE" ]
  },
  {
   "function_name" : "android::details::matrix::multiply",
   "linker_set_key" : "_ZN7android7details6matrix8multiplyINS0_6TMat33IfEES4_S4_EET_RKT0_RKT1_",
   "parameters" :
   [
    {
     "referenced_type" : "_ZTIRKN7android7details6TMat33IfEE"
    },
    {
     "referenced_type" : "_ZTIRKN7android7details6TMat33IfEE"
    }
   ],
   "return_type" : "_ZTIN7android7details6TMat33IfEE",
   "source_file" : "frameworks/native/libs/math/include/math/TMatHelpers.h",
   "template_args" :
   [
    "_ZTIN7android7details6TMat33IfEE",
    "_ZTIN7android7details6TMat33IfEE",
    "_ZTIN7android7details6TMat33IfEE"
   ]
  },
  {
   "function_name" : "android::details::matrix::transpose",
   "linker_set_key" : "_ZN7android7details6matrix9transposeEd",
   "parameters" :
   [
    {
     "referenced_type" : "_ZTId"
    }
   ],
   "return_type" : "_ZTId",
   "source_file" : "frameworks/native/libs/math/include/math/TMatHelpers.h"
  },
  {
   "function_name" : "android::details::matrix::transpose",
   "linker_set_key" : "_ZN7android7details6matrix9transposeEf",
   "parameters" :
   [
    {
     "referenced_type" : "_ZTIf"
    }
   ],
   "return_type" : "_ZTIf",
   "source_file" : "frameworks/native/libs/math/include/math/TMatHelpers.h"
  },
  {
   "function_name" : "android::details::matrix::transpose",
   "linker_set_key" : "_ZN7android7details6matrix9transposeEi",
   "parameters" :
   [
    {
     "referenced_type" : "_ZTIi"
    }
   ],
   "return_type" : "_ZTIi",
   "source_file" : "frameworks/native/libs/math/include/math/TMatHelpers.h"
  },
  {
   "function_name" : "android::details::unreal",
   "linker_set_key" : "_ZN7android7details6unrealERKT_IT0_E",
   "parameters" :
   [
    {
     "referenced_type" : "_ZTIRKT_IT0_E"
    }
   ],
   "return_type" : "_ZTIT_IT0_E",
   "source_file" : "frameworks/native/libs/math/include/math/TQuatHelpers.h"
  },
  {
   "function_name" : "android::details::inverse",
   "linker_set_key" : "_ZN7android7details7inverseERKNS0_6TMat33IfEE",
   "parameters" :
   [
    {
     "referenced_type" : "_ZTIRKN7android7details6TMat33IfEE"
    }
   ],
   "return_type" : "_ZTIN7android7details6TMat33IfEE",
   "source_file" : "frameworks/native/libs/math/include/math/TMatHelpers.h"
  },
  {
   "function_name" : "android::details::inverse",
   "linker_set_key" : "_ZN7android7details7inverseERKT_IT0_E",
   "parameters" :
   [
    {
     "referenced_type" : "_ZTIRKT_IT0_E"
    }
   ],
   "return_type" : "_ZTIT_IT0_E",
   "source_file" : "frameworks/native/libs/math/include/math/TQuatHelpers.h"
  },
  {
   "function_name" : "android::details::length2",
   "linker_set_key" : "_ZN7android7details7length2ERKT_IT0_E",
   "parameters" :
   [
    {
     "referenced_type" : "_ZTIRKT_IT0_E"
    }
   ],
   "return_type" : "_ZTIT0_",
   "source_file" : "frameworks/native/libs/math/include/math/TVecHelpers.h"
  },
  {
   "function_name" : "android::details::lessThan",
   "linker_set_key" : "_ZN7android7details8lessThanIfEENS0_5TVec2IbEERKNS2_IfEERKNS2_IT_EE",
   "parameters" :
   [
    {
     "referenced_type" : "_ZTIRKN7android7details5TVec2IfEE"
    },
    {
     "referenced_type" : "_ZTIRKN7android7details5TVec2IfEE"
    }
   ],
   "return_type" : "_ZTIN7android7details5TVec2IbEE",
   "source_file" : "frameworks/native/libs/math/include/math/TVecHelpers.h",
   "template_args" : [ "_ZTIf" ]
  },
  {
   "function_name" : "android::details::positive",
   "linker_set_key" : "_ZN7android7details8positiveERKT_IT0_E",
   "parameters" :
   [
    {
     "referenced_type" : "_ZTIRKT_IT0_E"
    }
   ],
   "return_type" : "_ZTIT_IT0_E",
   "source_file" : "frameworks/native/libs/math/include/math/TQuatHelpers.h"
  },
  {
   "function_name" : "android::details::saturate",
   "linker_set_key" : "_ZN7android7details8saturateERKT_IT0_E",
   "parameters" :
   [
    {
     "referenced_type" : "_ZTIRKT_IT0_E"
    }
   ],
   "return_type" : "_ZTIT_IT0_E",
   "source_file" : "frameworks/native/libs/math/include/math/TVecHelpers.h"
  },
  {
   "function_name" : "android::details::imaginary",
   "linker_set_key" : "_ZN7android7details9imaginaryERKT_IT0_E",
   "parameters" :
   [
    {
     "referenced_type" : "_ZTIRKT_IT0_E"
    }
   ],
   "return_type" : "_ZTIN7android7details5TVec3IT0_EE",
   "source_file" : "frameworks/native/libs/math/include/math/TQuatHelpers.h"
  },
  {
   "function_name" : "android::details::normalize",
   "linker_set_key" : "_ZN7android7details9normalizeERKT_IT0_E",
   "parameters" :
   [
    {
     "referenced_type" : "_ZTIRKT_IT0_E"
    }
   ],
   "return_type" : "_ZTIT_IT0_E",
   "source_file" : "frameworks/native/libs/math/include/math/TVecHelpers.h"
  },
  {
   "function_name" : "android::details::transpose",
   "linker_set_key" : "_ZN7android7details9transposeERKT_IT0_E",
   "parameters" :
   [
    {
     "referenced_type" : "_ZTIRKT_IT0_E"
    }
   ],
   "return_type" : "_ZTIT_IT0_E",
   "source_file" : "frameworks/native/libs/math/include/math/TMatHelpers.h"
  },
  {
   "function_name" : "android::details::operator/",
   "linker_set_key" : "_ZN7android7detailsdvENS0_5TVec2IfEERKS2_",
   "parameters" :
   [
    {
     "referenced_type" : "_ZTIN7android7details5TVec2IfEE"
    },
    {
     "referenced_type" : "_ZTIRKN7android7details5TVec2IfEE"
    }
   ],
   "return_type" : "_ZTIN7android7details5TVec2IfEE",
   "source_file" : "frameworks/native/libs/math/include/math/TVecHelpers.h"
  },
  {
   "function_name" : "android::details::operator/",
   "linker_set_key" : "_ZN7android7detailsdvENS0_5TVec3IfEERKS2_",
   "parameters" :
   [
    {
     "referenced_type" : "_ZTIN7android7details5TVec3IfEE"
    },
    {
     "referenced_type" : "_ZTIRKN7android7details5TVec3IfEE"
    }
   ],
   "return_type" : "_ZTIN7android7details5TVec3IfEE",
   "source_file" : "frameworks/native/libs/math/include/math/TVecHelpers.h"
  },
  {
   "function_name" : "android::details::operator/",
   "linker_set_key" : "_ZN7android7detailsdvET_IT0_ERKS3_",
   "parameters" :
   [
    {
     "referenced_type" : "_ZTIT_IT0_E"
    },
    {
     "referenced_type" : "_ZTIRKT_IT0_E"
    }
   ],
   "return_type" : "_ZTIT_IT0_E",
   "source_file" : "frameworks/native/libs/math/include/math/TVecHelpers.h"
  },
  {
   "function_name" : "android::details::operator/",
   "linker_set_key" : "_ZN7android7detailsdvET_IT0_ES2_",
   "parameters" :
   [
    {
     "referenced_type" : "_ZTIT_IT0_E"
    },
    {
     "referenced_type" : "_ZTIT0_"
    }
   ],
   "return_type" : "_ZTIT_IT0_E",
   "source_file" : "frameworks/native/libs/math/include/math/TQuatHelpers.h"
  },
  {
   "function_name" : "android::details::operator<<",
   "linker_set_key" : "_ZN7android7detailslsERNSt3__113basic_ostreamIcNS1_11char_traitsIcEEEERKT_IT0_E",
   "parameters" :
   [
    {
     "referenced_type" : "_ZTIRNSt3__113basic_ostreamIcNS_11char_traitsIcEEEE"
    },
    {
     "referenced_type" : "_ZTIRKT_IT0_E"
    }
   ],
   "return_type" : "_ZTIRNSt3__113basic_ostreamIcNS_11char_traitsIcEEEE",
   "source_file" : "frameworks/native/libs/math/include/math/TVecHelpers.h"
  },
  {
   "function_name" : "android::details::operator-",
   "linker_set_key" : "_ZN7android7detailsmiENS0_5TVec2IfEERKS2_",
   "parameters" :
   [
    {
     "referenced_type" : "_ZTIN7android7details5TVec2IfEE"
    },
    {
     "referenced_type" : "_ZTIRKN7android7details5TVec2IfEE"
    }
   ],
   "return_type" : "_ZTIN7android7details5TVec2IfEE",
   "source_file" : "frameworks/native/libs/math/include/math/TVecHelpers.h"
  },
  {
   "function_name" : "android::details::operator-",
   "linker_set_key" : "_ZN7android7detailsmiET_IT0_ERKS3_",
   "parameters" :
   [
    {
     "referenced_type" : "_ZTIT_IT0_E"
    },
    {
     "referenced_type" : "_ZTIRKT_IT0_E"
    }
   ],
   "return_type" : "_ZTIT_IT0_E",
   "source_file" : "frameworks/native/libs/math/include/math/TVecHelpers.h"
  },
  {
   "function_name" : "android::details::operator*",
   "linker_set_key" : "_ZN7android7detailsmlENS0_5TVec3IfEERKS2_",
   "parameters" :
   [
    {
     "referenced_type" : "_ZTIN7android7details5TVec3IfEE"
    },
    {
     "referenced_type" : "_ZTIRKN7android7details5TVec3IfEE"
    }
   ],
   "return_type" : "_ZTIN7android7details5TVec3IfEE",
   "source_file" : "frameworks/native/libs/math/include/math/TVecHelpers.h"
  },
  {
   "function_name" : "android::details::operator*",
   "linker_set_key" : "_ZN7android7detailsmlET0_T_IS1_E",
   "parameters" :
   [
    {
     "referenced_type" : "_ZTIT0_"
    },
    {
     "referenced_type" : "_ZTIT_IT0_E"
    }
   ],
   "return_type" : "_ZTIT_IT0_E",
   "source_file" : "frameworks/native/libs/math/include/math/TQuatHelpers.h"
  },
  {
   "function_name" : "android::details::operator*",
   "linker_set_key" : "_ZN7android7detailsmlET_IT0_ERKS3_",
   "parameters" :
   [
    {
     "referenced_type" : "_ZTIT_IT0_E"
    },
    {
     "referenced_type" : "_ZTIRKT_IT0_E"
    }
   ],
   "return_type" : "_ZTIT_IT0_E",
   "source_file" : "frameworks/native/libs/math/include/math/TVecHelpers.h"
  },
  {
   "function_name" : "android::details::operator*",
   "linker_set_key" : "_ZN7android7detailsmlET_IT0_ES2_",
   "parameters" :
   [
    {
     "referenced_type" : "_ZTIT_IT0_E"
    },
    {
     "referenced_type" : "_ZTIT0_"
    }
   ],
   "return_type" : "_ZTIT_IT0_E",
   "source_file" : "frameworks/native/libs/math/include/math/TQuatHelpers.h"
  },
  {
   "function_name" : "android::details::operator*",
   "linker_set_key" : "_ZN7android7detailsmlIfEENS0_6TMat33IfEERKS3_RKNS2_IT_EE",
   "parameters" :
   [
    {
     "referenced_type" : "_ZTIRKN7android7details6TMat33IfEE"
    },
    {
     "referenced_type" : "_ZTIRKN7android7details6TMat33IfEE"
    }
   ],
   "return_type" : "_ZTIN7android7details6TMat33IfEE",
   "source_file" : "frameworks/native/libs/math/include/math/TMatHelpers.h",
   "template_args" : [ "_ZTIf" ]
  },
  {
   "function_name" : "android::details::operator*",
   "linker_set_key" : "_ZN7android7detailsmlIffEENS0_6TMat33IT0_E8col_typeERKNS2_IT_EERKNS0_5TVec3IS3_EE",
   "parameters" :
   [
    {
     "referenced_type" : "_ZTIRKN7android7details6TMat33IfEE"
    },
    {
     "referenced_type" : "_ZTIRKN7android7details5TVec3IfEE"
    }
   ],
   "return_type" : "_ZTIN7android7details5TVec3IfEE",
   "source_file" : "frameworks/native/libs/math/include/math/mat3.h",
   "template_args" : [ "_ZTIf", "_ZTIf" ]
  },
  {
   "function_name" : "android::details::operator+",
   "linker_set_key" : "_ZN7android7detailsplET_IT0_ERKS3_",
   "parameters" :
   [
    {
     "referenced_type" : "_ZTIT_IT0_E"
    },
    {
     "referenced_type" : "_ZTIRKT_IT0_E"
    }
   ],
   "return_type" : "_ZTIT_IT0_E",
   "source_file" : "frameworks/native/libs/math/include/math/TVecHelpers.h"
  },
  {
   "function_name" : "android::operator\"\"_i",
   "linker_set_key" : "_ZN7androidli2_iEe",
   "parameters" :
   [
    {
     "referenced_type" : "_ZTIe"
    }
   ],
   "return_type" : "_ZTIN7android7details11TQuaternionIfEE",
   "source_file" : "frameworks/native/libs/math/include/math/quat.h"
  },
  {
   "function_name" : "android::operator\"\"_i",
   "linker_set_key" : "_ZN7androidli2_iEy",
   "parameters" :
   [
    {
     "referenced_type" : "_ZTIy"
    }
   ],
   "return_type" : "_ZTIN7android7details11TQuaternionIfEE",
   "source_file" : "frameworks/native/libs/math/include/math/quat.h"
  },
  {
   "function_name" : "android::operator\"\"_j",
   "linker_set_key" : "_ZN7androidli2_jEe",
   "parameters" :
   [
    {
     "referenced_type" : "_ZTIe"
    }
   ],
   "return_type" : "_ZTIN7android7details11TQuaternionIfEE",
   "source_file" : "frameworks/native/libs/math/include/math/quat.h"
  },
  {
   "function_name" : "android::operator\"\"_j",
   "linker_set_key" : "_ZN7androidli2_jEy",
   "parameters" :
   [
    {
     "referenced_type" : "_ZTIy"
    }
   ],
   "return_type" : "_ZTIN7android7details11TQuaternionIfEE",
   "source_file" : "frameworks/native/libs/math/include/math/quat.h"
  },
  {
   "function_name" : "android::operator\"\"_k",
   "linker_set_key" : "_ZN7androidli2_kEe",
   "parameters" :
   [
    {
     "referenced_type" : "_ZTIe"
    }
   ],
   "return_type" : "_ZTIN7android7details11TQuaternionIfEE",
   "source_file" : "frameworks/native/libs/math/include/math/quat.h"
  },
  {
   "function_name" : "android::operator\"\"_k",
   "linker_set_key" : "_ZN7androidli2_kEy",
   "parameters" :
   [
    {
     "referenced_type" : "_ZTIy"
    }
   ],
   "return_type" : "_ZTIN7android7details11TQuaternionIfEE",
   "source_file" : "frameworks/native/libs/math/include/math/quat.h"
  },
  {
   "function_name" : "android::operator\"\"_hf",
   "linker_set_key" : "_ZN7androidli3_hfEe",
   "parameters" :
   [
    {
     "referenced_type" : "_ZTIe"
    }
   ],
   "return_type" : "_ZTIN7android4halfE",
   "source_file" : "frameworks/native/libs/math/include/math/half.h"
  },
  {
   "function_name" : "android::operator\"\"_id",
   "linker_set_key" : "_ZN7androidli3_idEe",
   "parameters" :
   [
    {
     "referenced_type" : "_ZTIe"
    }
   ],
   "return_type" : "_ZTIN7android7details11TQuaternionIdEE",
   "source_file" : "frameworks/native/libs/math/include/math/quat.h"
  },
  {
   "function_name" : "android::operator\"\"_id",
   "linker_set_key" : "_ZN7androidli3_idEy",
   "parameters" :
   [
    {
     "referenced_type" : "_ZTIy"
    }
   ],
   "return_type" : "_ZTIN7android7details11TQuaternionIdEE",
   "source_file" : "frameworks/native/libs/math/include/math/quat.h"
  },
  {
   "function_name" : "android::operator\"\"_jd",
   "linker_set_key" : "_ZN7androidli3_jdEe",
   "parameters" :
   [
    {
     "referenced_type" : "_ZTIe"
    }
   ],
   "return_type" : "_ZTIN7android7details11TQuaternionIdEE",
   "source_file" : "frameworks/native/libs/math/include/math/quat.h"
  },
  {
   "function_name" : "android::operator\"\"_jd",
   "linker_set_key" : "_ZN7androidli3_jdEy",
   "parameters" :
   [
    {
     "referenced_type" : "_ZTIy"
    }
   ],
   "return_type" : "_ZTIN7android7details11TQuaternionIdEE",
   "source_file" : "frameworks/native/libs/math/include/math/quat.h"
  },
  {
   "function_name" : "android::operator\"\"_kd",
   "linker_set_key" : "_ZN7androidli3_kdEe",
   "parameters" :
   [
    {
     "referenced_type" : "_ZTIe"
    }
   ],
   "return_type" : "_ZTIN7android7details11TQuaternionIdEE",
   "source_file" : "frameworks/native/libs/math/include/math/quat.h"
  },
  {
   "function_name" : "android::operator\"\"_kd",
   "linker_set_key" : "_ZN7androidli3_kdEy",
   "parameters" :
   [
    {
     "referenced_type" : "_ZTIy"
    }
   ],
   "return_type" : "_ZTIN7android7details11TQuaternionIdEE",
   "source_file" : "frameworks/native/libs/math/include/math/quat.h"
  },
  {
   "function_name" : "android::ColorSpace::fromLinear",
   "linker_set_key" : "_ZNK7android10ColorSpace10fromLinearERKNS_7details5TVec3IfEE",
   "parameters" :
   [
    {
     "is_this_ptr" : true,
     "referenced_type" : "_ZTIPKN7android10ColorSpaceE"
    },
    {
     "referenced_type" : "_ZTIRKN7android7details5TVec3IfEE"
    }
   ],
   "return_type" : "_ZTIN7android7details5TVec3IfEE",
   "source_file" : "frameworks/native/libs/ui/include_types/ui/ColorSpace.h"
  },
  {
   "function_name" : "android::ColorSpace::getClamper",
   "linker_set_key" : "_ZNK7android10ColorSpace10getClamperEv",
   "parameters" :
   [
    {
     "is_this_ptr" : true,
     "referenced_type" : "_ZTIPKN7android10ColorSpaceE"
    }
   ],
   "return_type" : "_ZTIRKNSt3__18functionIFffEEE",
   "source_file" : "frameworks/native/libs/ui/include_types/ui/ColorSpace.h"
  },
  {
   "function_name" : "android::ColorSpace::getRGBtoXYZ",
   "linker_set_key" : "_ZNK7android10ColorSpace11getRGBtoXYZEv",
   "parameters" :
   [
    {
     "is_this_ptr" : true,
     "referenced_type" : "_ZTIPKN7android10ColorSpaceE"
    }
   ],
   "return_type" : "_ZTIRKN7android7details6TMat33IfEE",
   "source_file" : "frameworks/native/libs/ui/include_types/ui/ColorSpace.h"
  },
  {
   "function_name" : "android::ColorSpace::getXYZtoRGB",
   "linker_set_key" : "_ZNK7android10ColorSpace11getXYZtoRGBEv",
   "parameters" :
   [
    {
     "is_this_ptr" : true,
     "referenced_type" : "_ZTIPKN7android10ColorSpaceE"
    }
   ],
   "return_type" : "_ZTIRKN7android7details6TMat33IfEE",
   "source_file" : "frameworks/native/libs/ui/include_types/ui/ColorSpace.h"
  },
  {
   "function_name" : "android::ColorSpace::getPrimaries",
   "linker_set_key" : "_ZNK7android10ColorSpace12getPrimariesEv",
   "parameters" :
   [
    {
     "is_this_ptr" : true,
     "referenced_type" : "_ZTIPKN7android10ColorSpaceE"
    }
   ],
   "return_type" : "_ZTIRKNSt3__15arrayIN7android7details5TVec2IfEELj3EEE",
   "source_file" : "frameworks/native/libs/ui/include_types/ui/ColorSpace.h"
  },
  {
   "function_name" : "android::ColorSpace::getWhitePoint",
   "linker_set_key" : "_ZNK7android10ColorSpace13getWhitePointEv",
   "parameters" :
   [
    {
     "is_this_ptr" : true,
     "referenced_type" : "_ZTIPKN7android10ColorSpaceE"
    }
   ],
   "return_type" : "_ZTIRKN7android7details5TVec2IfEE",
   "source_file" : "frameworks/native/libs/ui/include_types/ui/ColorSpace.h"
  },
  {
   "function_name" : "android::ColorSpace::getTransferParameters",
   "linker_set_key" : "_ZNK7android10ColorSpace21getTransferParametersEv",
   "parameters" :
   [
    {
     "is_this_ptr" : true,
     "referenced_type" : "_ZTIPKN7android10ColorSpaceE"
    }
   ],
   "return_type" : "_ZTIRKN7android10ColorSpace18TransferParametersE",
   "source_file" : "frameworks/native/libs/ui/include_types/ui/ColorSpace.h"
  },
  {
   "function_name" : "android::ColorSpace::getEOTF",
   "linker_set_key" : "_ZNK7android10ColorSpace7getEOTFEv",
   "parameters" :
   [
    {
     "is_this_ptr" : true,
     "referenced_type" : "_ZTIPKN7android10ColorSpaceE"
    }
   ],
   "return_type" : "_ZTIRKNSt3__18functionIFffEEE",
   "source_file" : "frameworks/native/libs/ui/include_types/ui/ColorSpace.h"
  },
  {
   "function_name" : "android::ColorSpace::getName",
   "linker_set_key" : "_ZNK7android10ColorSpace7getNameEv",
   "parameters" :
   [
    {
     "is_this_ptr" : true,
     "referenced_type" : "_ZTIPKN7android10ColorSpaceE"
    }
   ],
   "return_type" : "_ZTIRKNSt3__112basic_stringIcNS_11char_traitsIcEENS_9allocatorIcEEEE",
   "source_file" : "frameworks/native/libs/ui/include_types/ui/ColorSpace.h"
  },
  {
   "function_name" : "android::ColorSpace::getOETF",
   "linker_set_key" : "_ZNK7android10ColorSpace7getOETFEv",
   "parameters" :
   [
    {
     "is_this_ptr" : true,
     "referenced_type" : "_ZTIPKN7android10ColorSpaceE"
    }
   ],
   "return_type" : "_ZTIRKNSt3__18functionIFffEEE",
   "source_file" : "frameworks/native/libs/ui/include_types/ui/ColorSpace.h"
  },
  {
   "function_name" : "android::ColorSpace::rgbToXYZ",
   "linker_set_key" : "_ZNK7android10ColorSpace8rgbToXYZERKNS_7details5TVec3IfEE",
   "parameters" :
   [
    {
     "is_this_ptr" : true,
     "referenced_type" : "_ZTIPKN7android10ColorSpaceE"
    },
    {
     "referenced_type" : "_ZTIRKN7android7details5TVec3IfEE"
    }
   ],
   "return_type" : "_ZTIN7android7details5TVec3IfEE",
   "source_file" : "frameworks/native/libs/ui/include_types/ui/ColorSpace.h"
  },
  {
   "function_name" : "android::ColorSpace::toLinear",
   "linker_set_key" : "_ZNK7android10ColorSpace8toLinearERKNS_7details5TVec3IfEE",
   "parameters" :
   [
    {
     "is_this_ptr" : true,
     "referenced_type" : "_ZTIPKN7android10ColorSpaceE"
    },
    {
     "referenced_type" : "_ZTIRKN7android7details5TVec3IfEE"
    }
   ],
   "return_type" : "_ZTIN7android7details5TVec3IfEE",
   "source_file" : "frameworks/native/libs/ui/include_types/ui/ColorSpace.h"
  },
  {
   "function_name" : "android::ColorSpace::xyzToRGB",
   "linker_set_key" : "_ZNK7android10ColorSpace8xyzToRGBERKNS_7details5TVec3IfEE",
   "parameters" :
   [
    {
     "is_this_ptr" : true,
     "referenced_type" : "_ZTIPKN7android10ColorSpaceE"
    },
    {
     "referenced_type" : "_ZTIRKN7android7details5TVec3IfEE"
    }
   ],
   "return_type" : "_ZTIN7android7details5TVec3IfEE",
   "source_file" : "frameworks/native/libs/ui/include_types/ui/ColorSpace.h"
  },
  {
   "function_name" : "android::ColorSpaceConnector::getTransform",
   "linker_set_key" : "_ZNK7android19ColorSpaceConnector12getTransformEv",
   "parameters" :
   [
    {
     "is_this_ptr" : true,
     "referenced_type" : "_ZTIPKN7android19ColorSpaceConnectorE"
    }
   ],
   "return_type" : "_ZTIRKN7android7details6TMat33IfEE",
   "source_file" : "frameworks/native/libs/ui/include_types/ui/ColorSpace.h"
  },
  {
   "function_name" : "android::ColorSpaceConnector::getDestination",
   "linker_set_key" : "_ZNK7android19ColorSpaceConnector14getDestinationEv",
   "parameters" :
   [
    {
     "is_this_ptr" : true,
     "referenced_type" : "_ZTIPKN7android19ColorSpaceConnectorE"
    }
   ],
   "return_type" : "_ZTIRKN7android10ColorSpaceE",
   "source_file" : "frameworks/native/libs/ui/include_types/ui/ColorSpace.h"
  },
  {
   "function_name" : "android::ColorSpaceConnector::transformLinear",
   "linker_set_key" : "_ZNK7android19ColorSpaceConnector15transformLinearERKNS_7details5TVec3IfEE",
   "parameters" :
   [
    {
     "is_this_ptr" : true,
     "referenced_type" : "_ZTIPKN7android19ColorSpaceConnectorE"
    },
    {
     "referenced_type" : "_ZTIRKN7android7details5TVec3IfEE"
    }
   ],
   "return_type" : "_ZTIN7android7details5TVec3IfEE",
   "source_file" : "frameworks/native/libs/ui/include_types/ui/ColorSpace.h"
  },
  {
   "function_name" : "android::ColorSpaceConnector::getSource",
   "linker_set_key" : "_ZNK7android19ColorSpaceConnector9getSourceEv",
   "parameters" :
   [
    {
     "is_this_ptr" : true,
     "referenced_type" : "_ZTIPKN7android19ColorSpaceConnectorE"
    }
   ],
   "return_type" : "_ZTIRKN7android10ColorSpaceE",
   "source_file" : "frameworks/native/libs/ui/include_types/ui/ColorSpace.h"
  },
  {
   "function_name" : "android::ColorSpaceConnector::transform",
   "linker_set_key" : "_ZNK7android19ColorSpaceConnector9transformERKNS_7details5TVec3IfEE",
   "parameters" :
   [
    {
     "is_this_ptr" : true,
     "referenced_type" : "_ZTIPKN7android19ColorSpaceConnectorE"
    },
    {
     "referenced_type" : "_ZTIRKN7android7details5TVec3IfEE"
    }
   ],
   "return_type" : "_ZTIN7android7details5TVec3IfEE",
   "source_file" : "frameworks/native/libs/ui/include_types/ui/ColorSpace.h"
  },
  {
   "function_name" : "android::half::getExponent",
   "linker_set_key" : "_ZNK7android4half11getExponentEv",
   "parameters" :
   [
    {
     "is_this_ptr" : true,
     "referenced_type" : "_ZTIPKN7android4halfE"
    }
   ],
   "return_type" : "_ZTIj",
   "source_file" : "frameworks/native/libs/math/include/math/half.h"
  },
  {
   "function_name" : "android::half::getMantissa",
   "linker_set_key" : "_ZNK7android4half11getMantissaEv",
   "parameters" :
   [
    {
     "is_this_ptr" : true,
     "referenced_type" : "_ZTIPKN7android4halfE"
    }
   ],
   "return_type" : "_ZTIj",
   "source_file" : "frameworks/native/libs/math/include/math/half.h"
  },
  {
   "function_name" : "android::half::fp16::getE",
   "linker_set_key" : "_ZNK7android4half4fp164getEEv",
   "parameters" :
   [
    {
     "is_this_ptr" : true,
     "referenced_type" : "_ZTIPKN7android4half4fp16E"
    }
   ],
   "return_type" : "_ZTIj",
   "source_file" : "frameworks/native/libs/math/include/math/half.h"
  },
  {
   "function_name" : "android::half::fp16::getM",
   "linker_set_key" : "_ZNK7android4half4fp164getMEv",
   "parameters" :
   [
    {
     "is_this_ptr" : true,
     "referenced_type" : "_ZTIPKN7android4half4fp16E"
    }
   ],
   "return_type" : "_ZTIj",
   "source_file" : "frameworks/native/libs/math/include/math/half.h"
  },
  {
   "function_name" : "android::half::fp16::getS",
   "linker_set_key" : "_ZNK7android4half4fp164getSEv",
   "parameters" :
   [
    {
     "is_this_ptr" : true,
     "referenced_type" : "_ZTIPKN7android4half4fp16E"
    }
   ],
   "return_type" : "_ZTIj",
   "source_file" : "frameworks/native/libs/math/include/math/half.h"
  },
  {
   "function_name" : "android::half::fp32::getE",
   "linker_set_key" : "_ZNK7android4half4fp324getEEv",
   "parameters" :
   [
    {
     "is_this_ptr" : true,
     "referenced_type" : "_ZTIPKN7android4half4fp32E"
    }
   ],
   "return_type" : "_ZTIj",
   "source_file" : "frameworks/native/libs/math/include/math/half.h"
  },
  {
   "function_name" : "android::half::fp32::getM",
   "linker_set_key" : "_ZNK7android4half4fp324getMEv",
   "parameters" :
   [
    {
     "is_this_ptr" : true,
     "referenced_type" : "_ZTIPKN7android4half4fp32E"
    }
   ],
   "return_type" : "_ZTIj",
   "source_file" : "frameworks/native/libs/math/include/math/half.h"
  },
  {
   "function_name" : "android::half::fp32::getS",
   "linker_set_key" : "_ZNK7android4half4fp324getSEv",
   "parameters" :
   [
    {
     "is_this_ptr" : true,
     "referenced_type" : "_ZTIPKN7android4half4fp32E"
    }
   ],
   "return_type" : "_ZTIj",
   "source_file" : "frameworks/native/libs/math/include/math/half.h"
  },
  {
   "function_name" : "android::half::getBits",
   "linker_set_key" : "_ZNK7android4half7getBitsEv",
   "parameters" :
   [
    {
     "is_this_ptr" : true,
     "referenced_type" : "_ZTIPKN7android4halfE"
    }
   ],
   "return_type" : "_ZTIt",
   "source_file" : "frameworks/native/libs/math/include/math/half.h"
  },
  {
   "function_name" : "android::half::operator float",
   "linker_set_key" : "_ZNK7android4halfcvfEv",
   "parameters" :
   [
    {
     "is_this_ptr" : true,
     "referenced_type" : "_ZTIPKN7android4halfE"
    }
   ],
   "return_type" : "_ZTIf",
   "source_file" : "frameworks/native/libs/math/include/math/half.h"
  },
  {
   "function_name" : "android::details::TVec2<bool>::size",
   "linker_set_key" : "_ZNK7android7details5TVec2IbE4sizeEv",
   "parameters" :
   [
    {
     "is_this_ptr" : true,
     "referenced_type" : "_ZTIPKN7android7details5TVec2IbEE"
    }
   ],
   "return_type" : "_ZTIj",
   "source_file" : "frameworks/native/libs/math/include/math/vec2.h"
  },
  {
   "function_name" : "android::details::TVec2<bool>::operator[]",
   "linker_set_key" : "_ZNK7android7details5TVec2IbEixEj",
   "parameters" :
   [
    {
     "is_this_ptr" : true,
     "referenced_type" : "_ZTIPKN7android7details5TVec2IbEE"
    },
    {
     "referenced_type" : "_ZTIj"
    }
   ],
   "return_type" : "_ZTIRKb",
   "source_file" : "frameworks/native/libs/math/include/math/vec2.h"
  },
  {
   "function_name" : "android::details::TVec2<float>::size",
   "linker_set_key" : "_ZNK7android7details5TVec2IfE4sizeEv",
   "parameters" :
   [
    {
     "is_this_ptr" : true,
     "referenced_type" : "_ZTIPKN7android7details5TVec2IfEE"
    }
   ],
   "return_type" : "_ZTIj",
   "source_file" : "frameworks/native/libs/math/include/math/vec2.h"
  },
  {
   "function_name" : "android::details::TVec2<float>::operator[]",
   "linker_set_key" : "_ZNK7android7details5TVec2IfEixEj",
   "parameters" :
   [
    {
     "is_this_ptr" : true,
     "referenced_type" : "_ZTIPKN7android7details5TVec2IfEE"
    },
    {
     "referenced_type" : "_ZTIj"
    }
   ],
   "return_type" : "_ZTIRKf",
   "source_file" : "frameworks/native/libs/math/include/math/vec2.h"
  },
  {
   "function_name" : "android::details::TVec3<float>::size",
   "linker_set_key" : "_ZNK7android7details5TVec3IfE4sizeEv",
   "parameters" :
   [
    {
     "is_this_ptr" : true,
     "referenced_type" : "_ZTIPKN7android7details5TVec3IfEE"
    }
   ],
   "return_type" : "_ZTIj",
   "source_file" : "frameworks/native/libs/math/include/math/vec3.h"
  },
  {
   "function_name" : "android::details::TVec3<float>::operator[]",
   "linker_set_key" : "_ZNK7android7details5TVec3IfEixEj",
   "parameters" :
   [
    {
     "is_this_ptr" : true,
     "referenced_type" : "_ZTIPKN7android7details5TVec3IfEE"
    },
    {
     "referenced_type" : "_ZTIj"
    }
   ],
   "return_type" : "_ZTIRKf",
   "source_file" : "frameworks/native/libs/math/include/math/vec3.h"
  },
  {
   "function_name" : "android::details::TMat33<float>::operator[]",
   "linker_set_key" : "_ZNK7android7details6TMat33IfEixEj",
   "parameters" :
   [
    {
     "is_this_ptr" : true,
     "referenced_type" : "_ZTIPKN7android7details6TMat33IfEE"
    },
    {
     "referenced_type" : "_ZTIj"
    }
   ],
   "return_type" : "_ZTIRKN7android7details5TVec3IfEE",
   "source_file" : "frameworks/native/libs/math/include/math/mat3.h"
  },
  {
   "function_name" : "std::__1::numeric_limits<android::half>::denorm_min",
   "linker_set_key" : "_ZNSt3__114numeric_limitsIN7android4halfEE10denorm_minEv",
   "return_type" : "_ZTIN7android4halfE",
   "source_file" : "frameworks/native/libs/math/include/math/half.h"
  },
  {
   "function_name" : "std::__1::numeric_limits<android::half>::round_error",
   "linker_set_key" : "_ZNSt3__114numeric_limitsIN7android4halfEE11round_errorEv",
   "return_type" : "_ZTIN7android4halfE",
   "source_file" : "frameworks/native/libs/math/include/math/half.h"
  },
  {
   "function_name" : "std::__1::numeric_limits<android::half>::signaling_NaN",
   "linker_set_key" : "_ZNSt3__114numeric_limitsIN7android4halfEE13signaling_NaNEv",
   "return_type" : "_ZTIN7android4halfE",
   "source_file" : "frameworks/native/libs/math/include/math/half.h"
  },
  {
   "function_name" : "std::__1::numeric_limits<android::half>::max",
   "linker_set_key" : "_ZNSt3__114numeric_limitsIN7android4halfEE3maxEv",
   "return_type" : "_ZTIN7android4halfE",
   "source_file" : "frameworks/native/libs/math/include/math/half.h"
  },
  {
   "function_name" : "std::__1::numeric_limits<android::half>::min",
   "linker_set_key" : "_ZNSt3__114numeric_limitsIN7android4halfEE3minEv",
   "return_type" : "_ZTIN7android4halfE",
   "source_file" : "frameworks/native/libs/math/include/math/half.h"
  },
  {
   "function_name" : "std::__1::numeric_limits<android::half>::lowest",
   "linker_set_key" : "_ZNSt3__114numeric_limitsIN7android4halfEE6lowestEv",
   "return_type" : "_ZTIN7android4halfE",
   "source_file" : "frameworks/native/libs/math/include/math/half.h"
  },
  {
   "function_name" : "std::__1::numeric_limits<android::half>::epsilon",
   "linker_set_key" : "_ZNSt3__114numeric_limitsIN7android4halfEE7epsilonEv",
   "return_type" : "_ZTIN7android4halfE",
   "source_file" : "frameworks/native/libs/math/include/math/half.h"
  },
  {
   "function_name" : "std::__1::numeric_limits<android::half>::infinity",
   "linker_set_key" : "_ZNSt3__114numeric_limitsIN7android4halfEE8infinityEv",
   "return_type" : "_ZTIN7android4halfE",
   "source_file" : "frameworks/native/libs/math/include/math/half.h"
  },
  {
   "function_name" : "std::__1::numeric_limits<android::half>::quiet_NaN",
   "linker_set_key" : "_ZNSt3__114numeric_limitsIN7android4halfEE9quiet_NaNEv",
   "return_type" : "_ZTIN7android4halfE",
   "source_file" : "frameworks/native/libs/math/include/math/half.h"
  },
  {
   "function_name" : "std::__1::hash<android::half>::operator()",
   "linker_set_key" : "_ZNSt3__14hashIN7android4halfEEclERKS2_",
   "parameters" :
   [
    {
     "is_this_ptr" : true,
     "referenced_type" : "_ZTIPNSt3__14hashIN7android4halfEEE"
    },
    {
     "referenced_type" : "_ZTIRKN7android4halfE"
    }
   ],
   "return_type" : "_ZTIj",
   "source_file" : "frameworks/native/libs/math/include/math/half.h"
  }
 ],
 "global_vars" :
 [
  {
   "linker_set_key" : "_ZN7android7details5TVec24SIZEE",
   "name" : "android::details::TVec2::SIZE",
   "referenced_type" : "_ZTIKj",
   "source_file" : "frameworks/native/libs/math/include/math/vec2.h"
  },
  {
   "linker_set_key" : "_ZN7android7details5TVec2IbE4SIZEE",
   "name" : "android::details::TVec2<bool>::SIZE",
   "referenced_type" : "_ZTIKj",
   "source_file" : "frameworks/native/libs/math/include/math/vec2.h"
  },
  {
   "linker_set_key" : "_ZN7android7details5TVec2IdE4SIZEE",
   "name" : "android::details::TVec2<double>::SIZE",
   "referenced_type" : "_ZTIKj",
   "source_file" : "frameworks/native/libs/math/include/math/vec2.h"
  },
  {
   "linker_set_key" : "_ZN7android7details5TVec2IfE4SIZEE",
   "name" : "android::details::TVec2<float>::SIZE",
   "referenced_type" : "_ZTIKj",
   "source_file" : "frameworks/native/libs/math/include/math/vec2.h"
  },
  {
   "linker_set_key" : "_ZN7android7details5TVec34SIZEE",
   "name" : "android::details::TVec3::SIZE",
   "referenced_type" : "_ZTIKj",
   "source_file" : "frameworks/native/libs/math/include/math/vec3.h"
  },
  {
   "linker_set_key" : "_ZN7android7details5TVec3IdE4SIZEE",
   "name" : "android::details::TVec3<double>::SIZE",
   "referenced_type" : "_ZTIKj",
   "source_file" : "frameworks/native/libs/math/include/math/vec3.h"
  },
  {
   "linker_set_key" : "_ZN7android7details5TVec3IfE4SIZEE",
   "name" : "android::details::TVec3<float>::SIZE",
   "referenced_type" : "_ZTIKj",
   "source_file" : "frameworks/native/libs/math/include/math/vec3.h"
  },
  {
   "linker_set_key" : "_ZN7android7details5TVec44SIZEE",
   "name" : "android::details::TVec4::SIZE",
   "referenced_type" : "_ZTIKj",
   "source_file" : "frameworks/native/libs/math/include/math/vec4.h"
  },
  {
   "linker_set_key" : "_ZN7android7details5TVec4IdE4SIZEE",
   "name" : "android::details::TVec4<double>::SIZE",
   "referenced_type" : "_ZTIKj",
   "source_file" : "frameworks/native/libs/math/include/math/vec4.h"
  },
  {
   "linker_set_key" : "_ZN7android7details5TVec4IfE4SIZEE",
   "name" : "android::details::TVec4<float>::SIZE",
   "referenced_type" : "_ZTIKj",
   "source_file" : "frameworks/native/libs/math/include/math/vec4.h"
  },
  {
   "linker_set_key" : "_ZN7android7details6TMat338COL_SIZEE",
   "name" : "android::details::TMat33::COL_SIZE",
   "referenced_type" : "_ZTIKj",
   "source_file" : "frameworks/native/libs/math/include/math/mat3.h"
  },
  {
   "linker_set_key" : "_ZN7android7details6TMat338NUM_COLSE",
   "name" : "android::details::TMat33::NUM_COLS",
   "referenced_type" : "_ZTIKj",
   "source_file" : "frameworks/native/libs/math/include/math/mat3.h"
  },
  {
   "linker_set_key" : "_ZN7android7details6TMat338NUM_ROWSE",
   "name" : "android::details::TMat33::NUM_ROWS",
   "referenced_type" : "_ZTIKj",
   "source_file" : "frameworks/native/libs/math/include/math/mat3.h"
  },
  {
   "linker_set_key" : "_ZN7android7details6TMat338ROW_SIZEE",
   "name" : "android::details::TMat33::ROW_SIZE",
   "referenced_type" : "_ZTIKj",
   "source_file" : "frameworks/native/libs/math/include/math/mat3.h"
  },
  {
   "linker_set_key" : "_ZN7android7details6TMat33IfE8COL_SIZEE",
   "name" : "android::details::TMat33<float>::COL_SIZE",
   "referenced_type" : "_ZTIKj",
   "source_file" : "frameworks/native/libs/math/include/math/mat3.h"
  },
  {
   "linker_set_key" : "_ZN7android7details6TMat33IfE8NUM_COLSE",
   "name" : "android::details::TMat33<float>::NUM_COLS",
   "referenced_type" : "_ZTIKj",
   "source_file" : "frameworks/native/libs/math/include/math/mat3.h"
  },
  {
   "linker_set_key" : "_ZN7android7details6TMat33IfE8NUM_ROWSE",
   "name" : "android::details::TMat33<float>::NUM_ROWS",
   "referenced_type" : "_ZTIKj",
   "source_file" : "frameworks/native/libs/math/include/math/mat3.h"
  },
  {
   "linker_set_key" : "_ZN7android7details6TMat33IfE8ROW_SIZEE",
   "name" : "android::details::TMat33<float>::ROW_SIZE",
   "referenced_type" : "_ZTIKj",
   "source_file" : "frameworks/native/libs/math/include/math/mat3.h"
  },
  {
   "linker_set_key" : "_ZNSt3__114numeric_limitsIN7android4halfEE10has_denormE",
   "name" : "std::__1::numeric_limits<android::half>::has_denorm",
   "referenced_type" : "_ZTIKNSt3__118float_denorm_styleE",
   "source_file" : "frameworks/native/libs/math/include/math/half.h"
  },
  {
   "linker_set_key" : "_ZNSt3__114numeric_limitsIN7android4halfEE10is_boundedE",
   "name" : "std::__1::numeric_limits<android::half>::is_bounded",
   "referenced_type" : "_ZTIKb",
   "source_file" : "frameworks/native/libs/math/include/math/half.h"
  },
  {
   "linker_set_key" : "_ZNSt3__114numeric_limitsIN7android4halfEE10is_integerE",
   "name" : "std::__1::numeric_limits<android::half>::is_integer",
   "referenced_type" : "_ZTIKb",
   "source_file" : "frameworks/native/libs/math/include/math/half.h"
  },
  {
   "linker_set_key" : "_ZNSt3__114numeric_limitsIN7android4halfEE11round_styleE",
   "name" : "std::__1::numeric_limits<android::half>::round_style",
   "referenced_type" : "_ZTIKNSt3__117float_round_styleE",
   "source_file" : "frameworks/native/libs/math/include/math/half.h"
  },
  {
   "linker_set_key" : "_ZNSt3__114numeric_limitsIN7android4halfEE12has_infinityE",
   "name" : "std::__1::numeric_limits<android::half>::has_infinity",
   "referenced_type" : "_ZTIKb",
   "source_file" : "frameworks/native/libs/math/include/math/half.h"
  },
  {
   "linker_set_key" : "_ZNSt3__114numeric_limitsIN7android4halfEE12max_digits10E",
   "name" : "std::__1::numeric_limits<android::half>::max_digits10",
   "referenced_type" : "_ZTIKi",
   "source_file" : "frameworks/native/libs/math/include/math/half.h"
  },
  {
   "linker_set_key" : "_ZNSt3__114numeric_limitsIN7android4halfEE12max_exponentE",
   "name" : "std::__1::numeric_limits<android::half>::max_exponent",
   "referenced_type" : "_ZTIKi",
   "source_file" : "frameworks/native/libs/math/include/math/half.h"
  },
  {
   "linker_set_key" : "_ZNSt3__114numeric_limitsIN7android4halfEE12min_exponentE",
   "name" : "std::__1::numeric_limits<android::half>::min_exponent",
   "referenced_type" : "_ZTIKi",
   "source_file" : "frameworks/native/libs/math/include/math/half.h"
  },
  {
   "linker_set_key" : "_ZNSt3__114numeric_limitsIN7android4halfEE13has_quiet_NaNE",
   "name" : "std::__1::numeric_limits<android::half>::has_quiet_NaN",
   "referenced_type" : "_ZTIKb",
   "source_file" : "frameworks/native/libs/math/include/math/half.h"
  },
  {
   "linker_set_key" : "_ZNSt3__114numeric_limitsIN7android4halfEE14is_specializedE",
   "name" : "std::__1::numeric_limits<android::half>::is_specialized",
   "referenced_type" : "_ZTIKb",
   "source_file" : "frameworks/native/libs/math/include/math/half.h"
  },
  {
   "linker_set_key" : "_ZNSt3__114numeric_limitsIN7android4halfEE14max_exponent10E",
   "name" : "std::__1::numeric_limits<android::half>::max_exponent10",
   "referenced_type" : "_ZTIKi",
   "source_file" : "frameworks/native/libs/math/include/math/half.h"
  },
  {
   "linker_set_key" : "_ZNSt3__114numeric_limitsIN7android4halfEE14min_exponent10E",
   "name" : "std::__1::numeric_limits<android::half>::min_exponent10",
   "referenced_type" : "_ZTIKi",
   "source_file" : "frameworks/native/libs/math/include/math/half.h"
  },
  {
   "linker_set_key" : "_ZNSt3__114numeric_limitsIN7android4halfEE15has_denorm_lossE",
   "name" : "std::__1::numeric_limits<android::half>::has_denorm_loss",
   "referenced_type" : "_ZTIKb",
   "source_file" : "frameworks/native/libs/math/include/math/half.h"
  },
  {
   "linker_set_key" : "_ZNSt3__114numeric_limitsIN7android4halfEE15tinyness_beforeE",
   "name" : "std::__1::numeric_limits<android::half>::tinyness_before",
   "referenced_type" : "_ZTIKb",
   "source_file" : "frameworks/native/libs/math/include/math/half.h"
  },
  {
   "linker_set_key" : "_ZNSt3__114numeric_limitsIN7android4halfEE17has_signaling_NaNE",
   "name" : "std::__1::numeric_limits<android::half>::has_signaling_NaN",
   "referenced_type" : "_ZTIKb",
   "source_file" : "frameworks/native/libs/math/include/math/half.h"
  },
  {
   "linker_set_key" : "_ZNSt3__114numeric_limitsIN7android4halfEE5radixE",
   "name" : "std::__1::numeric_limits<android::half>::radix",
   "referenced_type" : "_ZTIKi",
   "source_file" : "frameworks/native/libs/math/include/math/half.h"
  },
  {
   "linker_set_key" : "_ZNSt3__114numeric_limitsIN7android4halfEE5trapsE",
   "name" : "std::__1::numeric_limits<android::half>::traps",
   "referenced_type" : "_ZTIKb",
   "source_file" : "frameworks/native/libs/math/include/math/half.h"
  },
  {
   "linker_set_key" : "_ZNSt3__114numeric_limitsIN7android4halfEE6digitsE",
   "name" : "std::__1::numeric_limits<android::half>::digits",
   "referenced_type" : "_ZTIKi",
   "source_file" : "frameworks/native/libs/math/include/math/half.h"
  },
  {
   "linker_set_key" : "_ZNSt3__114numeric_limitsIN7android4halfEE8digits10E",
   "name" : "std::__1::numeric_limits<android::half>::digits10",
   "referenced_type" : "_ZTIKi",
   "source_file" : "frameworks/native/libs/math/include/math/half.h"
  },
  {
   "linker_set_key" : "_ZNSt3__114numeric_limitsIN7android4halfEE8is_exactE",
   "name" : "std::__1::numeric_limits<android::half>::is_exact",
   "referenced_type" : "_ZTIKb",
   "source_file" : "frameworks/native/libs/math/include/math/half.h"
  },
  {
   "linker_set_key" : "_ZNSt3__114numeric_limitsIN7android4halfEE9is_iec559E",
   "name" : "std::__1::numeric_limits<android::half>::is_iec559",
   "referenced_type" : "_ZTIKb",
   "source_file" : "frameworks/native/libs/math/include/math/half.h"
  },
  {
   "linker_set_key" : "_ZNSt3__114numeric_limitsIN7android4halfEE9is_moduloE",
   "name" : "std::__1::numeric_limits<android::half>::is_modulo",
   "referenced_type" : "_ZTIKb",
   "source_file" : "frameworks/native/libs/math/include/math/half.h"
  },
  {
   "linker_set_key" : "_ZNSt3__114numeric_limitsIN7android4halfEE9is_signedE",
   "name" : "std::__1::numeric_limits<android::half>::is_signed",
   "referenced_type" : "_ZTIKb",
   "source_file" : "frameworks/native/libs/math/include/math/half.h"
  },
  {
   "linker_set_key" : "_ZNSt3__14hashIT_IT0_EE9IS_VECTORE",
   "name" : "std::__1::hash<<type-parameter-0-1>>::IS_VECTOR",
   "referenced_type" : "_ZTIKb",
   "source_file" : "frameworks/native/libs/math/include/math/TVecHelpers.h"
  },
  {
   "linker_set_key" : "_ZZN7android7details6matrix11extractQuatERKT_E8next_ijk",
   "name" : "next_ijk",
   "referenced_type" : "_ZTIA3_Kj",
   "source_file" : "frameworks/native/libs/math/include/math/TMatHelpers.h"
  },
  {
   "linker_set_key" : "_ZZN7android7details6matrix18gaussJordanInverseERKT_E1N",
   "name" : "N",
   "referenced_type" : "_ZTIKj",
   "source_file" : "frameworks/native/libs/math/include/math/TMatHelpers.h"
  },
  {
   "linker_set_key" : "_ZZN7android7details6matrix18gaussJordanInverseINS0_6TMat33IfEEEET_RKS5_E1N",
   "name" : "N",
   "referenced_type" : "_ZTIKj",
   "source_file" : "frameworks/native/libs/math/include/math/TMatHelpers.h"
  }
 ],
 "lvalue_reference_types" :
 [
  {
   "alignment" : 4,
   "linker_set_key" : "_ZTIRKN7android10ColorSpace18TransferParametersE",
   "name" : "const android::ColorSpace::TransferParameters &",
   "referenced_type" : "_ZTIKN7android10ColorSpace18TransferParametersE",
   "self_type" : "_ZTIRKN7android10ColorSpace18TransferParametersE",
   "size" : 4,
   "source_file" : "frameworks/native/libs/ui/include_types/ui/ColorSpace.h"
  },
  {
   "alignment" : 4,
   "linker_set_key" : "_ZTIRKN7android10ColorSpaceE",
   "name" : "const android::ColorSpace &",
   "referenced_type" : "_ZTIKN7android10ColorSpaceE",
   "self_type" : "_ZTIRKN7android10ColorSpaceE",
   "size" : 4,
   "source_file" : "frameworks/native/libs/ui/include_types/ui/ColorSpace.h"
  },
  {
   "alignment" : 4,
   "linker_set_key" : "_ZTIRKN7android4halfE",
   "name" : "const android::half &",
   "referenced_type" : "_ZTIKN7android4halfE",
   "self_type" : "_ZTIRKN7android4halfE",
   "size" : 4,
   "source_file" : "frameworks/native/libs/math/include/math/half.h"
  },
  {
   "alignment" : 4,
   "linker_set_key" : "_ZTIRKN7android7details11TQuaternionIdEE",
   "name" : "const android::details::TQuaternion<double> &",
   "referenced_type" : "_ZTIKN7android7details11TQuaternionIdEE",
   "self_type" : "_ZTIRKN7android7details11TQuaternionIdEE",
   "size" : 4,
   "source_file" : "frameworks/native/libs/math/include/math/quat.h"
  },
  {
   "alignment" : 4,
   "linker_set_key" : "_ZTIRKN7android7details11TQuaternionIfEE",
   "name" : "const android::details::TQuaternion<float> &",
   "referenced_type" : "_ZTIKN7android7details11TQuaternionIfEE",
   "self_type" : "_ZTIRKN7android7details11TQuaternionIfEE",
   "size" : 4,
   "source_file" : "frameworks/native/libs/math/include/math/quat.h"
  },
  {
   "alignment" : 4,
   "linker_set_key" : "_ZTIRKN7android7details5TVec2IbEE",
   "name" : "const android::details::TVec2<bool> &",
   "referenced_type" : "_ZTIKN7android7details5TVec2IbEE",
   "self_type" : "_ZTIRKN7android7details5TVec2IbEE",
   "size" : 4,
   "source_file" : "frameworks/native/libs/math/include/math/TVecHelpers.h"
  },
  {
   "alignment" : 4,
   "linker_set_key" : "_ZTIRKN7android7details5TVec2IdEE",
   "name" : "const android::details::TVec2<double> &",
   "referenced_type" : "_ZTIKN7android7details5TVec2IdEE",
   "self_type" : "_ZTIRKN7android7details5TVec2IdEE",
   "size" : 4,
   "source_file" : "frameworks/native/libs/math/include/math/vec2.h"
  },
  {
   "alignment" : 4,
   "linker_set_key" : "_ZTIRKN7android7details5TVec2IfEE",
   "name" : "const android::details::TVec2<float> &",
   "referenced_type" : "_ZTIKN7android7details5TVec2IfEE",
   "self_type" : "_ZTIRKN7android7details5TVec2IfEE",
   "size" : 4,
   "source_file" : "frameworks/native/libs/math/include/math/TVecHelpers.h"
  },
  {
   "alignment" : 4,
   "linker_set_key" : "_ZTIRKN7android7details5TVec3IdEE",
   "name" : "const android::details::TVec3<double> &",
   "referenced_type" : "_ZTIKN7android7details5TVec3IdEE",
   "self_type" : "_ZTIRKN7android7details5TVec3IdEE",
   "size" : 4,
   "source_file" : "frameworks/native/libs/math/include/math/vec3.h"
  },
  {
   "alignment" : 4,
   "linker_set_key" : "_ZTIRKN7android7details5TVec3IfEE",
   "name" : "const android::details::TVec3<float> &",
   "referenced_type" : "_ZTIKN7android7details5TVec3IfEE",
   "self_type" : "_ZTIRKN7android7details5TVec3IfEE",
   "size" : 4,
   "source_file" : "frameworks/native/libs/math/include/math/TVecHelpers.h"
  },
  {
   "alignment" : 4,
   "linker_set_key" : "_ZTIRKN7android7details5TVec4IdEE",
   "name" : "const android::details::TVec4<double> &",
   "referenced_type" : "_ZTIKN7android7details5TVec4IdEE",
   "self_type" : "_ZTIRKN7android7details5TVec4IdEE",
   "size" : 4,
   "source_file" : "frameworks/native/libs/math/include/math/vec4.h"
  },
  {
   "alignment" : 4,
   "linker_set_key" : "_ZTIRKN7android7details5TVec4IfEE",
   "name" : "const android::details::TVec4<float> &",
   "referenced_type" : "_ZTIKN7android7details5TVec4IfEE",
   "self_type" : "_ZTIRKN7android7details5TVec4IfEE",
   "size" : 4,
   "source_file" : "frameworks/native/libs/math/include/math/vec4.h"
  },
  {
   "linker_set_key" : "_ZTIRKN7android7details6TMat33IT_EE",
   "name" : "const TMat33<T> &",
   "referenced_type" : "_ZTIKN7android7details6TMat33IT_EE",
   "self_type" : "_ZTIRKN7android7details6TMat33IT_EE",
   "source_file" : "frameworks/native/libs/math/include/math/mat3.h"
  },
  {
   "alignment" : 4,
   "linker_set_key" : "_ZTIRKN7android7details6TMat33IfEE",
   "name" : "const android::details::TMat33<float> &",
   "referenced_type" : "_ZTIKN7android7details6TMat33IfEE",
   "self_type" : "_ZTIRKN7android7details6TMat33IfEE",
   "size" : 4,
   "source_file" : "frameworks/native/libs/math/include/math/TMatHelpers.h"
  },
  {
   "alignment" : 4,
   "linker_set_key" : "_ZTIRKNSt3__112basic_stringIcNS_11char_traitsIcEENS_9allocatorIcEEEE",
   "name" : "const std::basic_string<char, std::char_traits<char>, std::allocator<char>> &",
   "referenced_type" : "_ZTIKNSt3__112basic_stringIcNS_11char_traitsIcEENS_9allocatorIcEEEE",
   "self_type" : "_ZTIRKNSt3__112basic_stringIcNS_11char_traitsIcEENS_9allocatorIcEEEE",
   "size" : 4,
   "source_file" : "frameworks/native/libs/ui/include_types/ui/ColorSpace.h"
  },
  {
   "alignment" : 4,
   "linker_set_key" : "_ZTIRKNSt3__15arrayIN7android7details5TVec2IfEELj3EEE",
   "name" : "const std::array<android::details::TVec2<float>, 3> &",
   "referenced_type" : "_ZTIKNSt3__15arrayIN7android7details5TVec2IfEELj3EEE",
   "self_type" : "_ZTIRKNSt3__15arrayIN7android7details5TVec2IfEELj3EEE",
   "size" : 4,
   "source_file" : "frameworks/native/libs/ui/include_types/ui/ColorSpace.h"
  },
  {
   "linker_set_key" : "_ZTIRKNSt3__18functionIFT0_S1_EEE",
   "name" : "const function<type-parameter-0-1 (type-parameter-0-1)> &",
   "referenced_type" : "_ZTIKNSt3__18functionIFT0_S1_EEE",
   "self_type" : "_ZTIRKNSt3__18functionIFT0_S1_EEE",
   "source_file" : "frameworks/native/libs/math/include/math/TVecHelpers.h"
  },
  {
   "alignment" : 4,
   "linker_set_key" : "_ZTIRKNSt3__18functionIFffEEE",
   "name" : "const std::function<float (float)> &",
   "referenced_type" : "_ZTIKNSt3__18functionIFffEEE",
   "self_type" : "_ZTIRKNSt3__18functionIFffEEE",
   "size" : 4,
   "source_file" : "frameworks/native/libs/math/include/math/TVecHelpers.h"
  },
  {
   "linker_set_key" : "_ZTIRKT_IT0_E",
   "name" : "const <type-parameter-0-1> &",
   "referenced_type" : "_ZTIKT_IT0_E",
   "self_type" : "_ZTIRKT_IT0_E",
   "source_file" : "frameworks/native/libs/math/include/math/TVecHelpers.h"
  },
  {
   "alignment" : 4,
   "linker_set_key" : "_ZTIRKb",
   "name" : "const bool &",
   "referenced_type" : "_ZTIKb",
   "self_type" : "_ZTIRKb",
   "size" : 4,
   "source_file" : "frameworks/native/libs/math/include/math/vec2.h"
  },
  {
   "alignment" : 4,
   "linker_set_key" : "_ZTIRKf",
   "name" : "const float &",
   "referenced_type" : "_ZTIKf",
   "self_type" : "_ZTIRKf",
   "size" : 4,
   "source_file" : "frameworks/native/libs/math/include/math/vec2.h"
  },
  {
   "alignment" : 4,
   "linker_set_key" : "_ZTIRN7android7details11TQuaternionIdEE",
   "name" : "android::details::TQuaternion<double> &",
   "referenced_type" : "_ZTIN7android7details11TQuaternionIdEE",
   "self_type" : "_ZTIRN7android7details11TQuaternionIdEE",
   "size" : 4,
   "source_file" : "frameworks/native/libs/math/include/math/quat.h"
  },
  {
   "alignment" : 4,
   "linker_set_key" : "_ZTIRN7android7details11TQuaternionIfEE",
   "name" : "android::details::TQuaternion<float> &",
   "referenced_type" : "_ZTIN7android7details11TQuaternionIfEE",
   "self_type" : "_ZTIRN7android7details11TQuaternionIfEE",
   "size" : 4,
   "source_file" : "frameworks/native/libs/math/include/math/quat.h"
  },
  {
   "alignment" : 4,
   "linker_set_key" : "_ZTIRN7android7details5TVec2IbEE",
   "name" : "android::details::TVec2<bool> &",
   "referenced_type" : "_ZTIN7android7details5TVec2IbEE",
   "self_type" : "_ZTIRN7android7details5TVec2IbEE",
   "size" : 4,
   "source_file" : "frameworks/native/libs/math/include/math/vec2.h"
  },
  {
   "alignment" : 4,
   "linker_set_key" : "_ZTIRN7android7details5TVec2IdEE",
   "name" : "android::details::TVec2<double> &",
   "referenced_type" : "_ZTIN7android7details5TVec2IdEE",
   "self_type" : "_ZTIRN7android7details5TVec2IdEE",
   "size" : 4,
   "source_file" : "frameworks/native/libs/math/include/math/vec2.h"
  },
  {
   "alignment" : 4,
   "linker_set_key" : "_ZTIRN7android7details5TVec2IfEE",
   "name" : "android::details::TVec2<float> &",
   "referenced_type" : "_ZTIN7android7details5TVec2IfEE",
   "self_type" : "_ZTIRN7android7details5TVec2IfEE",
   "size" : 4,
   "source_file" : "frameworks/native/libs/math/include/math/TVecHelpers.h"
  },
  {
   "alignment" : 4,
   "linker_set_key" : "_ZTIRN7android7details5TVec3IdEE",
   "name" : "android::details::TVec3<double> &",
   "referenced_type" : "_ZTIN7android7details5TVec3IdEE",
   "self_type" : "_ZTIRN7android7details5TVec3IdEE",
   "size" : 4,
   "source_file" : "frameworks/native/libs/math/include/math/vec3.h"
  },
  {
   "alignment" : 4,
   "linker_set_key" : "_ZTIRN7android7details5TVec3IfEE",
   "name" : "android::details::TVec3<float> &",
   "referenced_type" : "_ZTIN7android7details5TVec3IfEE",
   "self_type" : "_ZTIRN7android7details5TVec3IfEE",
   "size" : 4,
   "source_file" : "frameworks/native/libs/math/include/math/TVecHelpers.h"
  },
  {
   "alignment" : 4,
   "linker_set_key" : "_ZTIRN7android7details5TVec4IdEE",
   "name" : "android::details::TVec4<double> &",
   "referenced_type" : "_ZTIN7android7details5TVec4IdEE",
   "self_type" : "_ZTIRN7android7details5TVec4IdEE",
   "size" : 4,
   "source_file" : "frameworks/native/libs/math/include/math/vec4.h"
  },
  {
   "alignment" : 4,
   "linker_set_key" : "_ZTIRN7android7details5TVec4IfEE",
   "name" : "android::details::TVec4<float> &",
   "referenced_type" : "_ZTIN7android7details5TVec4IfEE",
   "self_type" : "_ZTIRN7android7details5TVec4IfEE",
   "size" : 4,
   "source_file" : "frameworks/native/libs/math/include/math/vec4.h"
  },
  {
   "alignment" : 4,
   "linker_set_key" : "_ZTIRN7android7details6TMat33IfEE",
   "name" : "android::details::TMat33<float> &",
   "referenced_type" : "_ZTIN7android7details6TMat33IfEE",
   "self_type" : "_ZTIRN7android7details6TMat33IfEE",
   "size" : 4,
   "source_file" : "frameworks/native/libs/math/include/math/mat3.h"
  },
  {
   "alignment" : 4,
   "linker_set_key" : "_ZTIRNSt3__113basic_ostreamIcNS_11char_traitsIcEEEE",
   "name" : "std::basic_ostream<char, std::char_traits<char>> &",
   "referenced_type" : "_ZTINSt3__113basic_ostreamIcNS_11char_traitsIcEEEE",
   "self_type" : "_ZTIRNSt3__113basic_ostreamIcNS_11char_traitsIcEEEE",
   "size" : 4,
   "source_file" : "frameworks/native/libs/math/include/math/TVecHelpers.h"
  },
  {
   "alignment" : 4,
   "linker_set_key" : "_ZTIRb",
   "name" : "bool &",
   "referenced_type" : "_ZTIb",
   "self_type" : "_ZTIRb",
   "size" : 4,
   "source_file" : "frameworks/native/libs/math/include/math/vec2.h"
  },
  {
   "alignment" : 4,
   "linker_set_key" : "_ZTIRf",
   "name" : "float &",
   "referenced_type" : "_ZTIf",
   "self_type" : "_ZTIRf",
   "size" : 4,
   "source_file" : "frameworks/native/libs/math/include/math/vec2.h"
  }
 ],
 "pointer_types" :
 [
  {
   "alignment" : 4,
   "linker_set_key" : "_ZTIPKN7android10ColorSpaceE",
   "name" : "const android::ColorSpace *",
   "referenced_type" : "_ZTIKN7android10ColorSpaceE",
   "self_type" : "_ZTIPKN7android10ColorSpaceE",
   "size" : 4,
   "source_file" : "frameworks/native/libs/ui/include_types/ui/ColorSpace.h"
  },
  {
   "alignment" : 4,
   "linker_set_key" : "_ZTIPKN7android19ColorSpaceConnectorE",
   "name" : "const android::ColorSpaceConnector *",
   "referenced_type" : "_ZTIKN7android19ColorSpaceConnectorE",
   "self_type" : "_ZTIPKN7android19ColorSpaceConnectorE",
   "size" : 4,
   "source_file" : "frameworks/native/libs/ui/include_types/ui/ColorSpace.h"
  },
  {
   "alignment" : 4,
   "linker_set_key" : "_ZTIPKN7android4half4fp16E",
   "name" : "const android::half::fp16 *",
   "referenced_type" : "_ZTIKN7android4half4fp16E",
   "self_type" : "_ZTIPKN7android4half4fp16E",
   "size" : 4,
   "source_file" : "frameworks/native/libs/math/include/math/half.h"
  },
  {
   "alignment" : 4,
   "linker_set_key" : "_ZTIPKN7android4half4fp32E",
   "name" : "const android::half::fp32 *",
   "referenced_type" : "_ZTIKN7android4half4fp32E",
   "self_type" : "_ZTIPKN7android4half4fp32E",
   "size" : 4,
   "source_file" : "frameworks/native/libs/math/include/math/half.h"
  },
  {
   "alignment" : 4,
   "linker_set_key" : "_ZTIPKN7android4halfE",
   "name" : "const android::half *",
   "referenced_type" : "_ZTIKN7android4halfE",
   "self_type" : "_ZTIPKN7android4halfE",
   "size" : 4,
   "source_file" : "frameworks/native/libs/math/include/math/half.h"
  },
  {
   "alignment" : 4,
   "linker_set_key" : "_ZTIPKN7android7details5TVec2IbEE",
   "name" : "const android::details::TVec2<bool> *",
   "referenced_type" : "_ZTIKN7android7details5TVec2IbEE",
   "self_type" : "_ZTIPKN7android7details5TVec2IbEE",
   "size" : 4,
   "source_file" : "frameworks/native/libs/math/include/math/vec2.h"
  },
  {
   "alignment" : 4,
   "linker_set_key" : "_ZTIPKN7android7details5TVec2IfEE",
   "name" : "const android::details::TVec2<float> *",
   "referenced_type" : "_ZTIKN7android7details5TVec2IfEE",
   "self_type" : "_ZTIPKN7android7details5TVec2IfEE",
   "size" : 4,
   "source_file" : "frameworks/native/libs/math/include/math/vec2.h"
  },
  {
   "alignment" : 4,
   "linker_set_key" : "_ZTIPKN7android7details5TVec3IfEE",
   "name" : "const android::details::TVec3<float> *",
   "referenced_type" : "_ZTIKN7android7details5TVec3IfEE",
   "self_type" : "_ZTIPKN7android7details5TVec3IfEE",
   "size" : 4,
   "source_file" : "frameworks/native/libs/math/include/math/vec3.h"
  },
  {
   "alignment" : 4,
   "linker_set_key" : "_ZTIPKN7android7details6TMat33IfEE",
   "name" : "const android::details::TMat33<float> *",
   "referenced_type" : "_ZTIKN7android7details6TMat33IfEE",
   "self_type" : "_ZTIPKN7android7details6TMat33IfEE",
   "size" : 4,
   "source_file" : "frameworks/native/libs/math/include/math/mat3.h"
  },
  {
   "alignment" : 4,
   "linker_set_key" : "_ZTIPN7android10ColorSpaceE",
   "name" : "android::ColorSpace *",
   "referenced_type" : "_ZTIN7android10ColorSpaceE",
   "self_type" : "_ZTIPN7android10ColorSpaceE",
   "size" : 4,
   "source_file" : "frameworks/native/libs/ui/include_types/ui/ColorSpace.h"
  },
  {
   "alignment" : 4,
   "linker_set_key" : "_ZTIPN7android19ColorSpaceConnectorE",
   "name" : "android::ColorSpaceConnector *",
   "referenced_type" : "_ZTIN7android19ColorSpaceConnectorE",
   "self_type" : "_ZTIPN7android19ColorSpaceConnectorE",
   "size" : 4,
   "source_file" : "frameworks/native/libs/ui/include_types/ui/ColorSpace.h"
  },
  {
   "alignment" : 4,
   "linker_set_key" : "_ZTIPN7android4half4fp16E",
   "name" : "android::half::fp16 *",
   "referenced_type" : "_ZTIN7android4half4fp16E",
   "self_type" : "_ZTIPN7android4half4fp16E",
   "size" : 4,
   "source_file" : "frameworks/native/libs/math/include/math/half.h"
  },
  {
   "alignment" : 4,
   "linker_set_key" : "_ZTIPN7android4half4fp32E",
   "name" : "android::half::fp32 *",
   "referenced_type" : "_ZTIN7android4half4fp32E",
   "self_type" : "_ZTIPN7android4half4fp32E",
   "size" : 4,
   "source_file" : "frameworks/native/libs/math/include/math/half.h"
  },
  {
   "alignment" : 4,
   "linker_set_key" : "_ZTIPN7android4halfE",
   "name" : "android::half *",
   "referenced_type" : "_ZTIN7android4halfE",
   "self_type" : "_ZTIPN7android4halfE",
   "size" : 4,
   "source_file" : "frameworks/native/libs/math/include/math/half.h"
  },
  {
   "alignment" : 4,
   "linker_set_key" : "_ZTIPN7android7details11TQuaternionIdEE",
   "name" : "android::details::TQuaternion<double> *",
   "referenced_type" : "_ZTIN7android7details11TQuaternionIdEE",
   "self_type" : "_ZTIPN7android7details11TQuaternionIdEE",
   "size" : 4,
   "source_file" : "frameworks/native/libs/math/include/math/quat.h"
  },
  {
   "alignment" : 4,
   "linker_set_key" : "_ZTIPN7android7details11TQuaternionIfEE",
   "name" : "android::details::TQuaternion<float> *",
   "referenced_type" : "_ZTIN7android7details11TQuaternionIfEE",
   "self_type" : "_ZTIPN7android7details11TQuaternionIfEE",
   "size" : 4,
   "source_file" : "frameworks/native/libs/math/include/math/quat.h"
  },
  {
   "alignment" : 4,
   "linker_set_key" : "_ZTIPN7android7details13TMatTransformINS0_6TMat33EfEE",
   "name" : "android::details::TMatTransform<android::details::TMat33, float> *",
   "referenced_type" : "_ZTIN7android7details13TMatTransformINS0_6TMat33EfEE",
   "self_type" : "_ZTIPN7android7details13TMatTransformINS0_6TMat33EfEE",
   "size" : 4,
   "source_file" : "frameworks/native/libs/math/include/math/TMatHelpers.h"
  },
  {
   "alignment" : 4,
   "linker_set_key" : "_ZTIPN7android7details16TVecAddOperatorsINS0_5TVec2EfEE",
   "name" : "android::details::TVecAddOperators<android::details::TVec2, float> *",
   "referenced_type" : "_ZTIN7android7details16TVecAddOperatorsINS0_5TVec2EfEE",
   "self_type" : "_ZTIPN7android7details16TVecAddOperatorsINS0_5TVec2EfEE",
   "size" : 4,
   "source_file" : "frameworks/native/libs/math/include/math/TVecHelpers.h"
  },
  {
   "alignment" : 4,
   "linker_set_key" : "_ZTIPN7android7details16TVecAddOperatorsINS0_5TVec3EfEE",
   "name" : "android::details::TVecAddOperators<android::details::TVec3, float> *",
   "referenced_type" : "_ZTIN7android7details16TVecAddOperatorsINS0_5TVec3EfEE",
   "self_type" : "_ZTIPN7android7details16TVecAddOperatorsINS0_5TVec3EfEE",
   "size" : 4,
   "source_file" : "frameworks/native/libs/math/include/math/TVecHelpers.h"
  },
  {
   "alignment" : 4,
   "linker_set_key" : "_ZTIPN7android7details20TVecProductOperatorsINS0_5TVec2EfEE",
   "name" : "android::details::TVecProductOperators<android::details::TVec2, float> *",
   "referenced_type" : "_ZTIN7android7details20TVecProductOperatorsINS0_5TVec2EfEE",
   "self_type" : "_ZTIPN7android7details20TVecProductOperatorsINS0_5TVec2EfEE",
   "size" : 4,
   "source_file" : "frameworks/native/libs/math/include/math/TVecHelpers.h"
  },
  {
   "alignment" : 4,
   "linker_set_key" : "_ZTIPN7android7details20TVecProductOperatorsINS0_5TVec3EfEE",
   "name" : "android::details::TVecProductOperators<android::details::TVec3, float> *",
   "referenced_type" : "_ZTIN7android7details20TVecProductOperatorsINS0_5TVec3EfEE",
   "self_type" : "_ZTIPN7android7details20TVecProductOperatorsINS0_5TVec3EfEE",
   "size" : 4,
   "source_file" : "frameworks/native/libs/math/include/math/TVecHelpers.h"
  },
  {
   "alignment" : 4,
   "linker_set_key" : "_ZTIPN7android7details5TVec2IbEE",
   "name" : "android::details::TVec2<bool> *",
   "referenced_type" : "_ZTIN7android7details5TVec2IbEE",
   "self_type" : "_ZTIPN7android7details5TVec2IbEE",
   "size" : 4,
   "source_file" : "frameworks/native/libs/math/include/math/vec2.h"
  },
  {
   "alignment" : 4,
   "linker_set_key" : "_ZTIPN7android7details5TVec2IdEE",
   "name" : "android::details::TVec2<double> *",
   "referenced_type" : "_ZTIN7android7details5TVec2IdEE",
   "self_type" : "_ZTIPN7android7details5TVec2IdEE",
   "size" : 4,
   "source_file" : "frameworks/native/libs/math/include/math/vec2.h"
  },
  {
   "alignment" : 4,
   "linker_set_key" : "_ZTIPN7android7details5TVec2IfEE",
   "name" : "android::details::TVec2<float> *",
   "referenced_type" : "_ZTIN7android7details5TVec2IfEE",
   "self_type" : "_ZTIPN7android7details5TVec2IfEE",
   "size" : 4,
   "source_file" : "frameworks/native/libs/math/include/math/vec2.h"
  },
  {
   "alignment" : 4,
   "linker_set_key" : "_ZTIPN7android7details5TVec3IdEE",
   "name" : "android::details::TVec3<double> *",
   "referenced_type" : "_ZTIN7android7details5TVec3IdEE",
   "self_type" : "_ZTIPN7android7details5TVec3IdEE",
   "size" : 4,
   "source_file" : "frameworks/native/libs/math/include/math/vec3.h"
  },
  {
   "alignment" : 4,
   "linker_set_key" : "_ZTIPN7android7details5TVec3IfEE",
   "name" : "android::details::TVec3<float> *",
   "referenced_type" : "_ZTIN7android7details5TVec3IfEE",
   "self_type" : "_ZTIPN7android7details5TVec3IfEE",
   "size" : 4,
   "source_file" : "frameworks/native/libs/math/include/math/vec3.h"
  },
  {
   "alignment" : 4,
   "linker_set_key" : "_ZTIPN7android7details5TVec4IdEE",
   "name" : "android::details::TVec4<double> *",
   "referenced_type" : "_ZTIN7android7details5TVec4IdEE",
   "self_type" : "_ZTIPN7android7details5TVec4IdEE",
   "size" : 4,
   "source_file" : "frameworks/native/libs/math/include/math/vec4.h"
  },
  {
   "alignment" : 4,
   "linker_set_key" : "_ZTIPN7android7details5TVec4IfEE",
   "name" : "android::details::TVec4<float> *",
   "referenced_type" : "_ZTIN7android7details5TVec4IfEE",
   "self_type" : "_ZTIPN7android7details5TVec4IfEE",
   "size" : 4,
   "source_file" : "frameworks/native/libs/math/include/math/vec4.h"
  },
  {
   "alignment" : 4,
   "linker_set_key" : "_ZTIPN7android7details6TMat33IfEE",
   "name" : "android::details::TMat33<float> *",
   "referenced_type" : "_ZTIN7android7details6TMat33IfEE",
   "self_type" : "_ZTIPN7android7details6TMat33IfEE",
   "size" : 4,
   "source_file" : "frameworks/native/libs/math/include/math/mat3.h"
  },
  {
   "alignment" : 4,
   "linker_set_key" : "_ZTIPNSt3__14hashIN7android4halfEEE",
   "name" : "std::hash<android::half> *",
   "referenced_type" : "_ZTINSt3__14hashIN7android4halfEEE",
   "self_type" : "_ZTIPNSt3__14hashIN7android4halfEEE",
   "size" : 4,
   "source_file" : "frameworks/native/libs/math/include/math/half.h"
  }
 ],
 "qualified_types" :
 [
  {
   "alignment" : 4,
   "is_const" : true,
   "linker_set_key" : "_ZTIA3_Kj",
   "name" : "unsigned int const[3]",
   "referenced_type" : "_ZTIA3_j",
   "self_type" : "_ZTIA3_Kj",
   "size" : 12,
   "source_file" : "frameworks/native/libs/math/include/math/TMatHelpers.h"
  },
  {
   "alignment" : 4,
   "is_const" : true,
   "linker_set_key" : "_ZTIKN7android10ColorSpace18TransferParametersE",
   "name" : "const android::ColorSpace::TransferParameters",
   "referenced_type" : "_ZTIN7android10ColorSpace18TransferParametersE",
   "self_type" : "_ZTIKN7android10ColorSpace18TransferParametersE",
   "size" : 28,
   "source_file" : "frameworks/native/libs/ui/include_types/ui/ColorSpace.h"
  },
  {
   "alignment" : 8,
   "is_const" : true,
   "linker_set_key" : "_ZTIKN7android10ColorSpaceE",
   "name" : "const android::ColorSpace",
   "referenced_type" : "_ZTIN7android10ColorSpaceE",
   "self_type" : "_ZTIKN7android10ColorSpaceE",
   "size" : 216,
   "source_file" : "frameworks/native/libs/ui/include_types/ui/ColorSpace.h"
  },
  {
   "alignment" : 8,
   "is_const" : true,
   "linker_set_key" : "_ZTIKN7android19ColorSpaceConnectorE",
   "name" : "const android::ColorSpaceConnector",
   "referenced_type" : "_ZTIN7android19ColorSpaceConnectorE",
   "self_type" : "_ZTIKN7android19ColorSpaceConnectorE",
   "size" : 472,
   "source_file" : "frameworks/native/libs/ui/include_types/ui/ColorSpace.h"
  },
  {
   "alignment" : 2,
   "is_const" : true,
   "linker_set_key" : "_ZTIKN7android4half4fp16E",
   "name" : "const android::half::fp16",
   "referenced_type" : "_ZTIN7android4half4fp16E",
   "self_type" : "_ZTIKN7android4half4fp16E",
   "size" : 2,
   "source_file" : "frameworks/native/libs/math/include/math/half.h"
  },
  {
   "alignment" : 4,
   "is_const" : true,
   "linker_set_key" : "_ZTIKN7android4half4fp32E",
   "name" : "const android::half::fp32",
   "referenced_type" : "_ZTIN7android4half4fp32E",
   "self_type" : "_ZTIKN7android4half4fp32E",
   "size" : 4,
   "source_file" : "frameworks/native/libs/math/include/math/half.h"
  },
  {
   "alignment" : 2,
   "is_const" : true,
   "linker_set_key" : "_ZTIKN7android4halfE",
   "name" : "const android::half",
   "referenced_type" : "_ZTIN7android4halfE",
   "self_type" : "_ZTIKN7android4halfE",
   "size" : 2,
   "source_file" : "frameworks/native/libs/math/include/math/half.h"
  },
  {
   "alignment" : 8,
   "is_const" : true,
   "linker_set_key" : "_ZTIKN7android7details11TQuaternionIdEE",
   "name" : "const android::details::TQuaternion<double>",
   "referenced_type" : "_ZTIN7android7details11TQuaternionIdEE",
   "self_type" : "_ZTIKN7android7details11TQuaternionIdEE",
   "size" : 32,
   "source_file" : "frameworks/native/libs/math/include/math/quat.h"
  },
  {
   "alignment" : 4,
   "is_const" : true,
   "linker_set_key" : "_ZTIKN7android7details11TQuaternionIfEE",
   "name" : "const android::details::TQuaternion<float>",
   "referenced_type" : "_ZTIN7android7details11TQuaternionIfEE",
   "self_type" : "_ZTIKN7android7details11TQuaternionIfEE",
   "size" : 16,
   "source_file" : "frameworks/native/libs/math/include/math/quat.h"
  },
  {
   "alignment" : 1,
   "is_const" : true,
   "linker_set_key" : "_ZTIKN7android7details5TVec2IbEE",
   "name" : "const android::details::TVec2<bool>",
   "referenced_type" : "_ZTIN7android7details5TVec2IbEE",
   "self_type" : "_ZTIKN7android7details5TVec2IbEE",
   "size" : 2,
   "source_file" : "frameworks/native/libs/math/include/math/TVecHelpers.h"
  },
  {
   "alignment" : 8,
   "is_const" : true,
   "linker_set_key" : "_ZTIKN7android7details5TVec2IdEE",
   "name" : "const android::details::TVec2<double>",
   "referenced_type" : "_ZTIN7android7details5TVec2IdEE",
   "self_type" : "_ZTIKN7android7details5TVec2IdEE",
   "size" : 16,
   "source_file" : "frameworks/native/libs/math/include/math/vec2.h"
  },
  {
   "alignment" : 4,
   "is_const" : true,
   "linker_set_key" : "_ZTIKN7android7details5TVec2IfEE",
   "name" : "const android::details::TVec2<float>",
   "referenced_type" : "_ZTIN7android7details5TVec2IfEE",
   "self_type" : "_ZTIKN7android7details5TVec2IfEE",
   "size" : 8,
   "source_file" : "frameworks/native/libs/math/include/math/TVecHelpers.h"
  },
  {
   "alignment" : 8,
   "is_const" : true,
   "linker_set_key" : "_ZTIKN7android7details5TVec3IdEE",
   "name" : "const android::details::TVec3<double>",
   "referenced_type" : "_ZTIN7android7details5TVec3IdEE",
   "self_type" : "_ZTIKN7android7details5TVec3IdEE",
   "size" : 24,
   "source_file" : "frameworks/native/libs/math/include/math/vec3.h"
  },
  {
   "alignment" : 4,
   "is_const" : true,
   "linker_set_key" : "_ZTIKN7android7details5TVec3IfEE",
   "name" : "const android::details::TVec3<float>",
   "referenced_type" : "_ZTIN7android7details5TVec3IfEE",
   "self_type" : "_ZTIKN7android7details5TVec3IfEE",
   "size" : 12,
   "source_file" : "frameworks/native/libs/math/include/math/TVecHelpers.h"
  },
  {
   "alignment" : 8,
   "is_const" : true,
   "linker_set_key" : "_ZTIKN7android7details5TVec4IdEE",
   "name" : "const android::details::TVec4<double>",
   "referenced_type" : "_ZTIN7android7details5TVec4IdEE",
   "self_type" : "_ZTIKN7android7details5TVec4IdEE",
   "size" : 32,
   "source_file" : "frameworks/native/libs/math/include/math/vec4.h"
  },
  {
   "alignment" : 4,
   "is_const" : true,
   "linker_set_key" : "_ZTIKN7android7details5TVec4IfEE",
   "name" : "const android::details::TVec4<float>",
   "referenced_type" : "_ZTIN7android7details5TVec4IfEE",
   "self_type" : "_ZTIKN7android7details5TVec4IfEE",
   "size" : 16,
   "source_file" : "frameworks/native/libs/math/include/math/vec4.h"
  },
  {
   "is_const" : true,
   "linker_set_key" : "_ZTIKN7android7details6TMat33IT_EE",
   "name" : "const TMat33<T>",
   "referenced_type" : "_ZTIN7android7details6TMat33IT_EE",
   "self_type" : "_ZTIKN7android7details6TMat33IT_EE",
   "source_file" : "frameworks/native/libs/math/include/math/mat3.h"
  },
  {
   "alignment" : 4,
   "is_const" : true,
   "linker_set_key" : "_ZTIKN7android7details6TMat33IfEE",
   "name" : "const android::details::TMat33<float>",
   "referenced_type" : "_ZTIN7android7details6TMat33IfEE",
   "self_type" : "_ZTIKN7android7details6TMat33IfEE",
   "size" : 36,
   "source_file" : "frameworks/native/libs/math/include/math/TMatHelpers.h"
  },
  {
   "alignment" : 4,
   "is_const" : true,
   "linker_set_key" : "_ZTIKNSt3__112basic_stringIcNS_11char_traitsIcEENS_9allocatorIcEEEE",
   "name" : "const std::basic_string<char, std::char_traits<char>, std::allocator<char>>",
   "referenced_type" : "_ZTINSt3__112basic_stringIcNS_11char_traitsIcEENS_9allocatorIcEEEE",
   "self_type" : "_ZTIKNSt3__112basic_stringIcNS_11char_traitsIcEENS_9allocatorIcEEEE",
   "size" : 12,
   "source_file" : "frameworks/native/libs/ui/include_types/ui/ColorSpace.h"
  },
  {
   "alignment" : 4,
   "is_const" : true,
   "linker_set_key" : "_ZTIKNSt3__117float_round_styleE",
   "name" : "const std::float_round_style",
   "referenced_type" : "_ZTINSt3__117float_round_styleE",
   "self_type" : "_ZTIKNSt3__117float_round_styleE",
   "size" : 4,
   "source_file" : "frameworks/native/libs/math/include/math/half.h"
  },
  {
   "alignment" : 4,
   "is_const" : true,
   "linker_set_key" : "_ZTIKNSt3__118float_denorm_styleE",
   "name" : "const std::float_denorm_style",
   "referenced_type" : "_ZTINSt3__118float_denorm_styleE",
   "self_type" : "_ZTIKNSt3__118float_denorm_styleE",
   "size" : 4,
   "source_file" : "frameworks/native/libs/math/include/math/half.h"
  },
  {
   "alignment" : 4,
   "is_const" : true,
   "linker_set_key" : "_ZTIKNSt3__15arrayIN7android7details5TVec2IfEELj3EEE",
   "name" : "const std::array<android::details::TVec2<float>, 3>",
   "referenced_type" : "_ZTINSt3__15arrayIN7android7details5TVec2IfEELj3EEE",
   "self_type" : "_ZTIKNSt3__15arrayIN7android7details5TVec2IfEELj3EEE",
   "size" : 24,
   "source_file" : "frameworks/native/libs/ui/include_types/ui/ColorSpace.h"
  },
  {
   "is_const" : true,
   "linker_set_key" : "_ZTIKNSt3__18functionIFT0_S1_EEE",
   "name" : "const function<type-parameter-0-1 (type-parameter-0-1)>",
   "referenced_type" : "_ZTINSt3__18functionIFT0_S1_EEE",
   "self_type" : "_ZTIKNSt3__18functionIFT0_S1_EEE",
   "source_file" : "frameworks/native/libs/math/include/math/TVecHelpers.h"
  },
  {
   "alignment" : 8,
   "is_const" : true,
   "linker_set_key" : "_ZTIKNSt3__18functionIFffEEE",
   "name" : "const std::function<float (float)>",
   "referenced_type" : "_ZTINSt3__18functionIFffEEE",
   "self_type" : "_ZTIKNSt3__18functionIFffEEE",
   "size" : 24,
   "source_file" : "frameworks/native/libs/math/include/math/TVecHelpers.h"
  },
  {
   "is_const" : true,
   "linker_set_key" : "_ZTIKT_IT0_E",
   "name" : "const <type-parameter-0-1>",
   "referenced_type" : "_ZTIT_IT0_E",
   "self_type" : "_ZTIKT_IT0_E",
   "source_file" : "frameworks/native/libs/math/include/math/TVecHelpers.h"
  },
  {
   "alignment" : 1,
   "is_const" : true,
   "linker_set_key" : "_ZTIKb",
   "name" : "const bool",
   "referenced_type" : "_ZTIb",
   "self_type" : "_ZTIKb",
   "size" : 1,
   "source_file" : "frameworks/native/libs/math/include/math/half.h"
  },
  {
   "alignment" : 4,
   "is_const" : true,
   "linker_set_key" : "_ZTIKf",
   "name" : "const float",
   "referenced_type" : "_ZTIf",
   "self_type" : "_ZTIKf",
   "size" : 4,
   "source_file" : "frameworks/native/libs/math/include/math/vec2.h"
  },
  {
   "alignment" : 4,
   "is_const" : true,
   "linker_set_key" : "_ZTIKi",
   "name" : "const int",
   "referenced_type" : "_ZTIi",
   "self_type" : "_ZTIKi",
   "size" : 4,
   "source_file" : "frameworks/native/libs/math/include/math/half.h"
  },
  {
   "alignment" : 4,
   "is_const" : true,
   "linker_set_key" : "_ZTIKj",
   "name" : "const unsigned int",
   "referenced_type" : "_ZTIj",
   "self_type" : "_ZTIKj",
   "size" : 4,
   "source_file" : "frameworks/native/libs/math/include/math/vec2.h"
  }
 ],
 "record_types" :
 [
  {
   "alignment" : 4,
   "fields" :
   [
    {
     "field_name" : "g",
     "referenced_type" : "_ZTIf"
    },
    {
     "field_name" : "a",
     "field_offset" : 32,
     "referenced_type" : "_ZTIf"
    },
    {
     "field_name" : "b",
     "field_offset" : 64,
     "referenced_type" : "_ZTIf"
    },
    {
     "field_name" : "c",
     "field_offset" : 96,
     "referenced_type" : "_ZTIf"
    },
    {
     "field_name" : "d",
     "field_offset" : 128,
     "referenced_type" : "_ZTIf"
    },
    {
     "field_name" : "e",
     "field_offset" : 160,
     "referenced_type" : "_ZTIf"
    },
    {
     "field_name" : "f",
     "field_offset" : 192,
     "referenced_type" : "_ZTIf"
    }
   ],
   "linker_set_key" : "_ZTIN7android10ColorSpace18TransferParametersE",
   "name" : "android::ColorSpace::TransferParameters",
   "referenced_type" : "_ZTIN7android10ColorSpace18TransferParametersE",
   "self_type" : "_ZTIN7android10ColorSpace18TransferParametersE",
   "size" : 28,
   "source_file" : "frameworks/native/libs/ui/include_types/ui/ColorSpace.h"
  },
  {
   "alignment" : 8,
   "fields" :
   [
    {
     "access" : "private",
     "field_name" : "mName",
     "referenced_type" : "_ZTINSt3__112basic_stringIcNS_11char_traitsIcEENS_9allocatorIcEEEE"
    },
    {
     "access" : "private",
     "field_name" : "mRGBtoXYZ",
     "field_offset" : 96,
     "referenced_type" : "_ZTIN7android7details6TMat33IfEE"
    },
    {
     "access" : "private",
     "field_name" : "mXYZtoRGB",
     "field_offset" : 384,
     "referenced_type" : "_ZTIN7android7details6TMat33IfEE"
    },
    {
     "access" : "private",
     "field_name" : "mParameters",
     "field_offset" : 672,
     "referenced_type" : "_ZTIN7android10ColorSpace18TransferParametersE"
    },
    {
     "access" : "private",
     "field_name" : "mOETF",
     "field_offset" : 896,
     "referenced_type" : "_ZTINSt3__18functionIFffEEE"
    },
    {
     "access" : "private",
     "field_name" : "mEOTF",
     "field_offset" : 1088,
     "referenced_type" : "_ZTINSt3__18functionIFffEEE"
    },
    {
     "access" : "private",
     "field_name" : "mClamper",
     "field_offset" : 1280,
     "referenced_type" : "_ZTINSt3__18functionIFffEEE"
    },
    {
     "access" : "private",
     "field_name" : "mPrimaries",
     "field_offset" : 1472,
     "referenced_type" : "_ZTINSt3__15arrayIN7android7details5TVec2IfEELj3EEE"
    },
    {
     "access" : "private",
     "field_name" : "mWhitePoint",
     "field_offset" : 1664,
     "referenced_type" : "_ZTIN7android7details5TVec2IfEE"
    }
   ],
   "linker_set_key" : "_ZTIN7android10ColorSpaceE",
   "name" : "android::ColorSpace",
   "record_kind" : "class",
   "referenced_type" : "_ZTIN7android10ColorSpaceE",
   "self_type" : "_ZTIN7android10ColorSpaceE",
   "size" : 216,
   "source_file" : "frameworks/native/libs/ui/include_types/ui/ColorSpace.h"
  },
  {
   "alignment" : 8,
   "fields" :
   [
    {
     "access" : "private",
     "field_name" : "mSource",
     "referenced_type" : "_ZTIN7android10ColorSpaceE"
    },
    {
     "access" : "private",
     "field_name" : "mDestination",
     "field_offset" : 1728,
     "referenced_type" : "_ZTIN7android10ColorSpaceE"
    },
    {
     "access" : "private",
     "field_name" : "mTransform",
     "field_offset" : 3456,
     "referenced_type" : "_ZTIN7android7details6TMat33IfEE"
    }
   ],
   "linker_set_key" : "_ZTIN7android19ColorSpaceConnectorE",
   "name" : "android::ColorSpaceConnector",
   "record_kind" : "class",
   "referenced_type" : "_ZTIN7android19ColorSpaceConnectorE",
   "self_type" : "_ZTIN7android19ColorSpaceConnectorE",
   "size" : 472,
   "source_file" : "frameworks/native/libs/ui/include_types/ui/ColorSpace.h"
  },
  {
   "access" : "private",
   "alignment" : 2,
   "fields" :
   [
    {
     "field_name" : "bits",
     "referenced_type" : "_ZTIt"
    }
   ],
   "linker_set_key" : "_ZTIN7android4half4fp16E",
   "name" : "android::half::fp16",
   "referenced_type" : "_ZTIN7android4half4fp16E",
   "self_type" : "_ZTIN7android4half4fp16E",
   "size" : 2,
   "source_file" : "frameworks/native/libs/math/include/math/half.h"
  },
  {
   "access" : "private",
   "alignment" : 4,
   "fields" :
   [
    {
     "referenced_type" : "_ZTIN7android4half4fp32Ut_E"
    }
   ],
   "linker_set_key" : "_ZTIN7android4half4fp32E",
   "name" : "android::half::fp32",
   "referenced_type" : "_ZTIN7android4half4fp32E",
   "self_type" : "_ZTIN7android4half4fp32E",
   "size" : 4,
   "source_file" : "frameworks/native/libs/math/include/math/half.h"
  },
  {
   "alignment" : 4,
   "fields" :
   [
    {
     "field_name" : "bits",
     "referenced_type" : "_ZTIj"
    },
    {
     "field_name" : "fp",
     "referenced_type" : "_ZTIf"
    }
   ],
   "is_anonymous" : true,
   "linker_set_key" : "_ZTIN7android4half4fp32Ut_E",
   "name" : "android::half::fp32::(anonymous union at frameworks/native/libs/math/include/math/half.h:71:9)",
   "record_kind" : "union",
   "referenced_type" : "_ZTIN7android4half4fp32Ut_E",
   "self_type" : "_ZTIN7android4half4fp32Ut_E",
   "size" : 4,
   "source_file" : "frameworks/native/libs/math/include/math/half.h"
  },
  {
   "alignment" : 2,
   "fields" :
   [
    {
     "access" : "private",
     "field_name" : "mBits",
     "referenced_type" : "_ZTIN7android4half4fp16E"
    }
   ],
   "linker_set_key" : "_ZTIN7android4halfE",
   "name" : "android::half",
   "record_kind" : "class",
   "referenced_type" : "_ZTIN7android4halfE",
   "self_type" : "_ZTIN7android4halfE",
   "size" : 2,
   "source_file" : "frameworks/native/libs/math/include/math/half.h"
  },
  {
   "alignment" : 1,
   "linker_set_key" : "_ZTIN7android7details10TQuatDebugINS0_11TQuaternionEdEE",
   "name" : "android::details::TQuatDebug<android::details::TQuaternion, double>",
   "record_kind" : "class",
   "referenced_type" : "_ZTIN7android7details10TQuatDebugINS0_11TQuaternionEdEE",
   "self_type" : "_ZTIN7android7details10TQuatDebugINS0_11TQuaternionEdEE",
   "size" : 1,
   "source_file" : "frameworks/native/libs/math/include/math/TQuatHelpers.h",
   "template_args" : [ "_ZTId" ]
  },
  {
   "alignment" : 1,
   "linker_set_key" : "_ZTIN7android7details10TQuatDebugINS0_11TQuaternionEfEE",
   "name" : "android::details::TQuatDebug<android::details::TQuaternion, float>",
   "record_kind" : "class",
   "referenced_type" : "_ZTIN7android7details10TQuatDebugINS0_11TQuaternionEfEE",
   "self_type" : "_ZTIN7android7details10TQuatDebugINS0_11TQuaternionEfEE",
   "size" : 1,
   "source_file" : "frameworks/native/libs/math/include/math/TQuatHelpers.h",
   "template_args" : [ "_ZTIf" ]
  },
  {
   "alignment" : 1,
   "linker_set_key" : "_ZTIN7android7details11TMatHelpersINS0_6TMat33EfEE",
   "name" : "android::details::TMatHelpers<android::details::TMat33, float>",
   "record_kind" : "class",
   "referenced_type" : "_ZTIN7android7details11TMatHelpersINS0_6TMat33EfEE",
   "self_type" : "_ZTIN7android7details11TMatHelpersINS0_6TMat33EfEE",
   "size" : 1,
   "source_file" : "frameworks/native/libs/math/include/math/TMatHelpers.h",
   "template_args" : [ "_ZTIf" ]
  },
  {
   "alignment" : 8,
   "base_specifiers" :
   [
    {
     "referenced_type" : "_ZTIN7android7details16TVecAddOperatorsINS0_11TQuaternionEdEE"
    },
    {
     "referenced_type" : "_ZTIN7android7details18TVecUnaryOperatorsINS0_11TQuaternionEdEE"
    },
    {
     "referenced_type" : "_ZTIN7android7details23TVecComparisonOperatorsINS0_11TQuaternionEdEE"
    },
    {
     "referenced_type" : "_ZTIN7android7details21TQuatProductOperatorsINS0_11TQuaternionEdEE"
    },
    {
     "referenced_type" : "_ZTIN7android7details14TQuatFunctionsINS0_11TQuaternionEdEE"
    },
    {
     "referenced_type" : "_ZTIN7android7details10TQuatDebugINS0_11TQuaternionEdEE"
    }
   ],
   "fields" :
   [
    {
     "referenced_type" : "_ZTIN7android7details11TQuaternionIdEUt_E"
    }
   ],
   "linker_set_key" : "_ZTIN7android7details11TQuaternionIdEE",
   "name" : "android::details::TQuaternion<double>",
   "record_kind" : "class",
   "referenced_type" : "_ZTIN7android7details11TQuaternionIdEE",
   "self_type" : "_ZTIN7android7details11TQuaternionIdEE",
   "size" : 32,
   "source_file" : "frameworks/native/libs/math/include/math/quat.h",
   "template_args" : [ "_ZTId" ]
  },
  {
   "alignment" : 8,
   "fields" :
   [
    {
     "referenced_type" : "_ZTIN7android7details11TQuaternionIdEUt_Ut_E"
    },
    {
     "field_name" : "xyzw",
     "referenced_type" : "_ZTIN7android7details5TVec4IdEE"
    },
    {
     "field_name" : "xyz",
     "referenced_type" : "_ZTIN7android7details5TVec3IdEE"
    },
    {
     "field_name" : "xy",
     "referenced_type" : "_ZTIN7android7details5TVec2IdEE"
    }
   ],
   "is_anonymous" : true,
   "linker_set_key" : "_ZTIN7android7details11TQuaternionIdEUt_E",
   "name" : "android::details::TQuaternion<double>::(anonymous union at frameworks/native/libs/math/include/math/quat.h:65:5)",
   "record_kind" : "union",
   "referenced_type" : "_ZTIN7android7details11TQuaternionIdEUt_E",
   "self_type" : "_ZTIN7android7details11TQuaternionIdEUt_E",
   "size" : 32,
   "source_file" : "frameworks/native/libs/math/include/math/quat.h"
  },
  {
   "alignment" : 8,
   "fields" :
   [
    {
     "field_name" : "x",
     "referenced_type" : "_ZTId"
    },
    {
     "field_name" : "y",
     "field_offset" : 64,
     "referenced_type" : "_ZTId"
    },
    {
     "field_name" : "z",
     "field_offset" : 128,
     "referenced_type" : "_ZTId"
    },
    {
     "field_name" : "w",
     "field_offset" : 192,
     "referenced_type" : "_ZTId"
    }
   ],
   "is_anonymous" : true,
   "linker_set_key" : "_ZTIN7android7details11TQuaternionIdEUt_Ut_E",
   "name" : "android::details::TQuaternion<double>::(anonymous union at frameworks/native/libs/math/include/math/quat.h:65:5)::(anonymous struct at frameworks/native/libs/math/include/math/quat.h:66:9)",
   "referenced_type" : "_ZTIN7android7details11TQuaternionIdEUt_Ut_E",
   "self_type" : "_ZTIN7android7details11TQuaternionIdEUt_Ut_E",
   "size" : 32,
   "source_file" : "frameworks/native/libs/math/include/math/quat.h"
  },
  {
   "alignment" : 4,
   "base_specifiers" :
   [
    {
     "referenced_type" : "_ZTIN7android7details16TVecAddOperatorsINS0_11TQuaternionEfEE"
    },
    {
     "referenced_type" : "_ZTIN7android7details18TVecUnaryOperatorsINS0_11TQuaternionEfEE"
    },
    {
     "referenced_type" : "_ZTIN7android7details23TVecComparisonOperatorsINS0_11TQuaternionEfEE"
    },
    {
     "referenced_type" : "_ZTIN7android7details21TQuatProductOperatorsINS0_11TQuaternionEfEE"
    },
    {
     "referenced_type" : "_ZTIN7android7details14TQuatFunctionsINS0_11TQuaternionEfEE"
    },
    {
     "referenced_type" : "_ZTIN7android7details10TQuatDebugINS0_11TQuaternionEfEE"
    }
   ],
   "fields" :
   [
    {
     "referenced_type" : "_ZTIN7android7details11TQuaternionIfEUt_E"
    }
   ],
   "linker_set_key" : "_ZTIN7android7details11TQuaternionIfEE",
   "name" : "android::details::TQuaternion<float>",
   "record_kind" : "class",
   "referenced_type" : "_ZTIN7android7details11TQuaternionIfEE",
   "self_type" : "_ZTIN7android7details11TQuaternionIfEE",
   "size" : 16,
   "source_file" : "frameworks/native/libs/math/include/math/quat.h",
   "template_args" : [ "_ZTIf" ]
  },
  {
   "alignment" : 4,
   "fields" :
   [
    {
     "referenced_type" : "_ZTIN7android7details11TQuaternionIfEUt_Ut_E"
    },
    {
     "field_name" : "xyzw",
     "referenced_type" : "_ZTIN7android7details5TVec4IfEE"
    },
    {
     "field_name" : "xyz",
     "referenced_type" : "_ZTIN7android7details5TVec3IfEE"
    },
    {
     "field_name" : "xy",
     "referenced_type" : "_ZTIN7android7details5TVec2IfEE"
    }
   ],
   "is_anonymous" : true,
   "linker_set_key" : "_ZTIN7android7details11TQuaternionIfEUt_E",
   "name" : "android::details::TQuaternion<float>::(anonymous union at frameworks/native/libs/math/include/math/quat.h:65:5)",
   "record_kind" : "union",
   "referenced_type" : "_ZTIN7android7details11TQuaternionIfEUt_E",
   "self_type" : "_ZTIN7android7details11TQuaternionIfEUt_E",
   "size" : 16,
   "source_file" : "frameworks/native/libs/math/include/math/quat.h"
  },
  {
   "alignment" : 4,
   "fields" :
   [
    {
     "field_name" : "x",
     "referenced_type" : "_ZTIf"
    },
    {
     "field_name" : "y",
     "field_offset" : 32,
     "referenced_type" : "_ZTIf"
    },
    {
     "field_name" : "z",
     "field_offset" : 64,
     "referenced_type" : "_ZTIf"
    },
    {
     "field_name" : "w",
     "field_offset" : 96,
     "referenced_type" : "_ZTIf"
    }
   ],
   "is_anonymous" : true,
   "linker_set_key" : "_ZTIN7android7details11TQuaternionIfEUt_Ut_E",
   "name" : "android::details::TQuaternion<float>::(anonymous union at frameworks/native/libs/math/include/math/quat.h:65:5)::(anonymous struct at frameworks/native/libs/math/include/math/quat.h:66:9)",
   "referenced_type" : "_ZTIN7android7details11TQuaternionIfEUt_Ut_E",
   "self_type" : "_ZTIN7android7details11TQuaternionIfEUt_Ut_E",
   "size" : 16,
   "source_file" : "frameworks/native/libs/math/include/math/quat.h"
  },
  {
   "alignment" : 1,
   "linker_set_key" : "_ZTIN7android7details13TMatTransformINS0_6TMat33EfEE",
   "name" : "android::details::TMatTransform<android::details::TMat33, float>",
   "record_kind" : "class",
   "referenced_type" : "_ZTIN7android7details13TMatTransformINS0_6TMat33EfEE",
   "self_type" : "_ZTIN7android7details13TMatTransformINS0_6TMat33EfEE",
   "size" : 1,
   "source_file" : "frameworks/native/libs/math/include/math/TMatHelpers.h",
   "template_args" : [ "_ZTIf" ]
  },
  {
   "alignment" : 1,
   "linker_set_key" : "_ZTIN7android7details13TVecFunctionsINS0_5TVec2EbEE",
   "name" : "android::details::TVecFunctions<android::details::TVec2, bool>",
   "record_kind" : "class",
   "referenced_type" : "_ZTIN7android7details13TVecFunctionsINS0_5TVec2EbEE",
   "self_type" : "_ZTIN7android7details13TVecFunctionsINS0_5TVec2EbEE",
   "size" : 1,
   "source_file" : "frameworks/native/libs/math/include/math/TVecHelpers.h",
   "template_args" : [ "_ZTIb" ]
  },
  {
   "alignment" : 1,
   "linker_set_key" : "_ZTIN7android7details13TVecFunctionsINS0_5TVec2EdEE",
   "name" : "android::details::TVecFunctions<android::details::TVec2, double>",
   "record_kind" : "class",
   "referenced_type" : "_ZTIN7android7details13TVecFunctionsINS0_5TVec2EdEE",
   "self_type" : "_ZTIN7android7details13TVecFunctionsINS0_5TVec2EdEE",
   "size" : 1,
   "source_file" : "frameworks/native/libs/math/include/math/TVecHelpers.h",
   "template_args" : [ "_ZTId" ]
  },
  {
   "alignment" : 1,
   "linker_set_key" : "_ZTIN7android7details13TVecFunctionsINS0_5TVec2EfEE",
   "name" : "android::details::TVecFunctions<android::details::TVec2, float>",
   "record_kind" : "class",
   "referenced_type" : "_ZTIN7android7details13TVecFunctionsINS0_5TVec2EfEE",
   "self_type" : "_ZTIN7android7details13TVecFunctionsINS0_5TVec2EfEE",
   "size" : 1,
   "source_file" : "frameworks/native/libs/math/include/math/TVecHelpers.h",
   "template_args" : [ "_ZTIf" ]
  },
  {
   "alignment" : 1,
   "linker_set_key" : "_ZTIN7android7details13TVecFunctionsINS0_5TVec3EdEE",
   "name" : "android::details::TVecFunctions<android::details::TVec3, double>",
   "record_kind" : "class",
   "referenced_type" : "_ZTIN7android7details13TVecFunctionsINS0_5TVec3EdEE",
   "self_type" : "_ZTIN7android7details13TVecFunctionsINS0_5TVec3EdEE",
   "size" : 1,
   "source_file" : "frameworks/native/libs/math/include/math/TVecHelpers.h",
   "template_args" : [ "_ZTId" ]
  },
  {
   "alignment" : 1,
   "linker_set_key" : "_ZTIN7android7details13TVecFunctionsINS0_5TVec3EfEE",
   "name" : "android::details::TVecFunctions<android::details::TVec3, float>",
   "record_kind" : "class",
   "referenced_type" : "_ZTIN7android7details13TVecFunctionsINS0_5TVec3EfEE",
   "self_type" : "_ZTIN7android7details13TVecFunctionsINS0_5TVec3EfEE",
   "size" : 1,
   "source_file" : "frameworks/native/libs/math/include/math/TVecHelpers.h",
   "template_args" : [ "_ZTIf" ]
  },
  {
   "alignment" : 1,
   "linker_set_key" : "_ZTIN7android7details13TVecFunctionsINS0_5TVec4EdEE",
   "name" : "android::details::TVecFunctions<android::details::TVec4, double>",
   "record_kind" : "class",
   "referenced_type" : "_ZTIN7android7details13TVecFunctionsINS0_5TVec4EdEE",
   "self_type" : "_ZTIN7android7details13TVecFunctionsINS0_5TVec4EdEE",
   "size" : 1,
   "source_file" : "frameworks/native/libs/math/include/math/TVecHelpers.h",
   "template_args" : [ "_ZTId" ]
  },
  {
   "alignment" : 1,
   "linker_set_key" : "_ZTIN7android7details13TVecFunctionsINS0_5TVec4EfEE",
   "name" : "android::details::TVecFunctions<android::details::TVec4, float>",
   "record_kind" : "class",
   "referenced_type" : "_ZTIN7android7details13TVecFunctionsINS0_5TVec4EfEE",
   "self_type" : "_ZTIN7android7details13TVecFunctionsINS0_5TVec4EfEE",
   "size" : 1,
   "source_file" : "frameworks/native/libs/math/include/math/TVecHelpers.h",
   "template_args" : [ "_ZTIf" ]
  },
  {
   "alignment" : 1,
   "linker_set_key" : "_ZTIN7android7details14TQuatFunctionsINS0_11TQuaternionEdEE",
   "name" : "android::details::TQuatFunctions<android::details::TQuaternion, double>",
   "record_kind" : "class",
   "referenced_type" : "_ZTIN7android7details14TQuatFunctionsINS0_11TQuaternionEdEE",
   "self_type" : "_ZTIN7android7details14TQuatFunctionsINS0_11TQuaternionEdEE",
   "size" : 1,
   "source_file" : "frameworks/native/libs/math/include/math/TQuatHelpers.h",
   "template_args" : [ "_ZTId" ]
  },
  {
   "alignment" : 1,
   "linker_set_key" : "_ZTIN7android7details14TQuatFunctionsINS0_11TQuaternionEfEE",
   "name" : "android::details::TQuatFunctions<android::details::TQuaternion, float>",
   "record_kind" : "class",
   "referenced_type" : "_ZTIN7android7details14TQuatFunctionsINS0_11TQuaternionEfEE",
   "self_type" : "_ZTIN7android7details14TQuatFunctionsINS0_11TQuaternionEfEE",
   "size" : 1,
   "source_file" : "frameworks/native/libs/math/include/math/TQuatHelpers.h",
   "template_args" : [ "_ZTIf" ]
  },
  {
   "alignment" : 1,
   "linker_set_key" : "_ZTIN7android7details16TVecAddOperatorsINS0_11TQuaternionEdEE",
   "name" : "android::details::TVecAddOperators<android::details::TQuaternion, double>",
   "record_kind" : "class",
   "referenced_type" : "_ZTIN7android7details16TVecAddOperatorsINS0_11TQuaternionEdEE",
   "self_type" : "_ZTIN7android7details16TVecAddOperatorsINS0_11TQuaternionEdEE",
   "size" : 1,
   "source_file" : "frameworks/native/libs/math/include/math/TVecHelpers.h",
   "template_args" : [ "_ZTId" ]
  },
  {
   "alignment" : 1,
   "linker_set_key" : "_ZTIN7android7details16TVecAddOperatorsINS0_11TQuaternionEfEE",
   "name" : "android::details::TVecAddOperators<android::details::TQuaternion, float>",
   "record_kind" : "class",
   "referenced_type" : "_ZTIN7android7details16TVecAddOperatorsINS0_11TQuaternionEfEE",
   "self_type" : "_ZTIN7android7details16TVecAddOperatorsINS0_11TQuaternionEfEE",
   "size" : 1,
   "source_file" : "frameworks/native/libs/math/include/math/TVecHelpers.h",
   "template_args" : [ "_ZTIf" ]
  },
  {
   "alignment" : 1,
   "linker_set_key" : "_ZTIN7android7details16TVecAddOperatorsINS0_5TVec2EbEE",
   "name" : "android::details::TVecAddOperators<android::details::TVec2, bool>",
   "record_kind" : "class",
   "referenced_type" : "_ZTIN7android7details16TVecAddOperatorsINS0_5TVec2EbEE",
   "self_type" : "_ZTIN7android7details16TVecAddOperatorsINS0_5TVec2EbEE",
   "size" : 1,
   "source_file" : "frameworks/native/libs/math/include/math/TVecHelpers.h",
   "template_args" : [ "_ZTIb" ]
  },
  {
   "alignment" : 1,
   "linker_set_key" : "_ZTIN7android7details16TVecAddOperatorsINS0_5TVec2EdEE",
   "name" : "android::details::TVecAddOperators<android::details::TVec2, double>",
   "record_kind" : "class",
   "referenced_type" : "_ZTIN7android7details16TVecAddOperatorsINS0_5TVec2EdEE",
   "self_type" : "_ZTIN7android7details16TVecAddOperatorsINS0_5TVec2EdEE",
   "size" : 1,
   "source_file" : "frameworks/native/libs/math/include/math/TVecHelpers.h",
   "template_args" : [ "_ZTId" ]
  },
  {
   "alignment" : 1,
   "linker_set_key" : "_ZTIN7android7details16TVecAddOperatorsINS0_5TVec2EfEE",
   "name" : "android::details::TVecAddOperators<android::details::TVec2, float>",
   "record_kind" : "class",
   "referenced_type" : "_ZTIN7android7details16TVecAddOperatorsINS0_5TVec2EfEE",
   "self_type" : "_ZTIN7android7details16TVecAddOperatorsINS0_5TVec2EfEE",
   "size" : 1,
   "source_file" : "frameworks/native/libs/math/include/math/TVecHelpers.h",
   "template_args" : [ "_ZTIf" ]
  },
  {
   "alignment" : 1,
   "linker_set_key" : "_ZTIN7android7details16TVecAddOperatorsINS0_5TVec3EdEE",
   "name" : "android::details::TVecAddOperators<android::details::TVec3, double>",
   "record_kind" : "class",
   "referenced_type" : "_ZTIN7android7details16TVecAddOperatorsINS0_5TVec3EdEE",
   "self_type" : "_ZTIN7android7details16TVecAddOperatorsINS0_5TVec3EdEE",
   "size" : 1,
   "source_file" : "frameworks/native/libs/math/include/math/TVecHelpers.h",
   "template_args" : [ "_ZTId" ]
  },
  {
   "alignment" : 1,
   "linker_set_key" : "_ZTIN7android7details16TVecAddOperatorsINS0_5TVec3EfEE",
   "name" : "android::details::TVecAddOperators<android::details::TVec3, float>",
   "record_kind" : "class",
   "referenced_type" : "_ZTIN7android7details16TVecAddOperatorsINS0_5TVec3EfEE",
   "self_type" : "_ZTIN7android7details16TVecAddOperatorsINS0_5TVec3EfEE",
   "size" : 1,
   "source_file" : "frameworks/native/libs/math/include/math/TVecHelpers.h",
   "template_args" : [ "_ZTIf" ]
  },
  {
   "alignment" : 1,
   "linker_set_key" : "_ZTIN7android7details16TVecAddOperatorsINS0_5TVec4EdEE",
   "name" : "android::details::TVecAddOperators<android::details::TVec4, double>",
   "record_kind" : "class",
   "referenced_type" : "_ZTIN7android7details16TVecAddOperatorsINS0_5TVec4EdEE",
   "self_type" : "_ZTIN7android7details16TVecAddOperatorsINS0_5TVec4EdEE",
   "size" : 1,
   "source_file" : "frameworks/native/libs/math/include/math/TVecHelpers.h",
   "template_args" : [ "_ZTId" ]
  },
  {
   "alignment" : 1,
   "linker_set_key" : "_ZTIN7android7details16TVecAddOperatorsINS0_5TVec4EfEE",
   "name" : "android::details::TVecAddOperators<android::details::TVec4, float>",
   "record_kind" : "class",
   "referenced_type" : "_ZTIN7android7details16TVecAddOperatorsINS0_5TVec4EfEE",
   "self_type" : "_ZTIN7android7details16TVecAddOperatorsINS0_5TVec4EfEE",
   "size" : 1,
   "source_file" : "frameworks/native/libs/math/include/math/TVecHelpers.h",
   "template_args" : [ "_ZTIf" ]
  },
  {
   "alignment" : 1,
   "linker_set_key" : "_ZTIN7android7details16TVecAddOperatorsINS0_6TMat33EfEE",
   "name" : "android::details::TVecAddOperators<android::details::TMat33, float>",
   "record_kind" : "class",
   "referenced_type" : "_ZTIN7android7details16TVecAddOperatorsINS0_6TMat33EfEE",
   "self_type" : "_ZTIN7android7details16TVecAddOperatorsINS0_6TMat33EfEE",
   "size" : 1,
   "source_file" : "frameworks/native/libs/math/include/math/TVecHelpers.h",
   "template_args" : [ "_ZTIf" ]
  },
  {
   "alignment" : 1,
   "linker_set_key" : "_ZTIN7android7details18TVecUnaryOperatorsINS0_11TQuaternionEdEE",
   "name" : "android::details::TVecUnaryOperators<android::details::TQuaternion, double>",
   "record_kind" : "class",
   "referenced_type" : "_ZTIN7android7details18TVecUnaryOperatorsINS0_11TQuaternionEdEE",
   "self_type" : "_ZTIN7android7details18TVecUnaryOperatorsINS0_11TQuaternionEdEE",
   "size" : 1,
   "source_file" : "frameworks/native/libs/math/include/math/TVecHelpers.h",
   "template_args" : [ "_ZTId" ]
  },
  {
   "alignment" : 1,
   "linker_set_key" : "_ZTIN7android7details18TVecUnaryOperatorsINS0_11TQuaternionEfEE",
   "name" : "android::details::TVecUnaryOperators<android::details::TQuaternion, float>",
   "record_kind" : "class",
   "referenced_type" : "_ZTIN7android7details18TVecUnaryOperatorsINS0_11TQuaternionEfEE",
   "self_type" : "_ZTIN7android7details18TVecUnaryOperatorsINS0_11TQuaternionEfEE",
   "size" : 1,
   "source_file" : "frameworks/native/libs/math/include/math/TVecHelpers.h",
   "template_args" : [ "_ZTIf" ]
  },
  {
   "alignment" : 1,
   "linker_set_key" : "_ZTIN7android7details18TVecUnaryOperatorsINS0_5TVec2EbEE",
   "name" : "android::details::TVecUnaryOperators<android::details::TVec2, bool>",
   "record_kind" : "class",
   "referenced_type" : "_ZTIN7android7details18TVecUnaryOperatorsINS0_5TVec2EbEE",
   "self_type" : "_ZTIN7android7details18TVecUnaryOperatorsINS0_5TVec2EbEE",
   "size" : 1,
   "source_file" : "frameworks/native/libs/math/include/math/TVecHelpers.h",
   "template_args" : [ "_ZTIb" ]
  },
  {
   "alignment" : 1,
   "linker_set_key" : "_ZTIN7android7details18TVecUnaryOperatorsINS0_5TVec2EdEE",
   "name" : "android::details::TVecUnaryOperators<android::details::TVec2, double>",
   "record_kind" : "class",
   "referenced_type" : "_ZTIN7android7details18TVecUnaryOperatorsINS0_5TVec2EdEE",
   "self_type" : "_ZTIN7android7details18TVecUnaryOperatorsINS0_5TVec2EdEE",
   "size" : 1,
   "source_file" : "frameworks/native/libs/math/include/math/TVecHelpers.h",
   "template_args" : [ "_ZTId" ]
  },
  {
   "alignment" : 1,
   "linker_set_key" : "_ZTIN7android7details18TVecUnaryOperatorsINS0_5TVec2EfEE",
   "name" : "android::details::TVecUnaryOperators<android::details::TVec2, float>",
   "record_kind" : "class",
   "referenced_type" : "_ZTIN7android7details18TVecUnaryOperatorsINS0_5TVec2EfEE",
   "self_type" : "_ZTIN7android7details18TVecUnaryOperatorsINS0_5TVec2EfEE",
   "size" : 1,
   "source_file" : "frameworks/native/libs/math/include/math/TVecHelpers.h",
   "template_args" : [ "_ZTIf" ]
  },
  {
   "alignment" : 1,
   "linker_set_key" : "_ZTIN7android7details18TVecUnaryOperatorsINS0_5TVec3EdEE",
   "name" : "android::details::TVecUnaryOperators<android::details::TVec3, double>",
   "record_kind" : "class",
   "referenced_type" : "_ZTIN7android7details18TVecUnaryOperatorsINS0_5TVec3EdEE",
   "self_type" : "_ZTIN7android7details18TVecUnaryOperatorsINS0_5TVec3EdEE",
   "size" : 1,
   "source_file" : "frameworks/native/libs/math/include/math/TVecHelpers.h",
   "template_args" : [ "_ZTId" ]
  },
  {
   "alignment" : 1,
   "linker_set_key" : "_ZTIN7android7details18TVecUnaryOperatorsINS0_5TVec3EfEE",
   "name" : "android::details::TVecUnaryOperators<android::details::TVec3, float>",
   "record_kind" : "class",
   "referenced_type" : "_ZTIN7android7details18TVecUnaryOperatorsINS0_5TVec3EfEE",
   "self_type" : "_ZTIN7android7details18TVecUnaryOperatorsINS0_5TVec3EfEE",
   "size" : 1,
   "source_file" : "frameworks/native/libs/math/include/math/TVecHelpers.h",
   "template_args" : [ "_ZTIf" ]
  },
  {
   "alignment" : 1,
   "linker_set_key" : "_ZTIN7android7details18TVecUnaryOperatorsINS0_5TVec4EdEE",
   "name" : "android::details::TVecUnaryOperators<android::details::TVec4, double>",
   "record_kind" : "class",
   "referenced_type" : "_ZTIN7android7details18TVecUnaryOperatorsINS0_5TVec4EdEE",
   "self_type" : "_ZTIN7android7details18TVecUnaryOperatorsINS0_5TVec4EdEE",
   "size" : 1,
   "source_file" : "frameworks/native/libs/math/include/math/TVecHelpers.h",
   "template_args" : [ "_ZTId" ]
  },
  {
   "alignment" : 1,
   "linker_set_key" : "_ZTIN7android7details18TVecUnaryOperatorsINS0_5TVec4EfEE",
   "name" : "android::details::TVecUnaryOperators<android::details::TVec4, float>",
   "record_kind" : "class",
   "referenced_type" : "_ZTIN7android7details18TVecUnaryOperatorsINS0_5TVec4EfEE",
   "self_type" : "_ZTIN7android7details18TVecUnaryOperatorsINS0_5TVec4EfEE",
   "size" : 1,
   "source_file" : "frameworks/native/libs/math/include/math/TVecHelpers.h",
   "template_args" : [ "_ZTIf" ]
  },
  {
   "alignment" : 1,
   "linker_set_key" : "_ZTIN7android7details18TVecUnaryOperatorsINS0_6TMat33EfEE",
   "name" : "android::details::TVecUnaryOperators<android::details::TMat33, float>",
   "record_kind" : "class",
   "referenced_type" : "_ZTIN7android7details18TVecUnaryOperatorsINS0_6TMat33EfEE",
   "self_type" : "_ZTIN7android7details18TVecUnaryOperatorsINS0_6TMat33EfEE",
   "size" : 1,
   "source_file" : "frameworks/native/libs/math/include/math/TVecHelpers.h",
   "template_args" : [ "_ZTIf" ]
  },
  {
   "alignment" : 1,
   "linker_set_key" : "_ZTIN7android7details19TMatSquareFunctionsINS0_6TMat33EfEE",
   "name" : "android::details::TMatSquareFunctions<android::details::TMat33, float>",
   "record_kind" : "class",
   "referenced_type" : "_ZTIN7android7details19TMatSquareFunctionsINS0_6TMat33EfEE",
   "self_type" : "_ZTIN7android7details19TMatSquareFunctionsINS0_6TMat33EfEE",
   "size" : 1,
   "source_file" : "frameworks/native/libs/math/include/math/TMatHelpers.h",
   "template_args" : [ "_ZTIf" ]
  },
  {
   "alignment" : 1,
   "linker_set_key" : "_ZTIN7android7details20TMatProductOperatorsINS0_6TMat33EfEE",
   "name" : "android::details::TMatProductOperators<android::details::TMat33, float>",
   "record_kind" : "class",
   "referenced_type" : "_ZTIN7android7details20TMatProductOperatorsINS0_6TMat33EfEE",
   "self_type" : "_ZTIN7android7details20TMatProductOperatorsINS0_6TMat33EfEE",
   "size" : 1,
   "source_file" : "frameworks/native/libs/math/include/math/TMatHelpers.h",
   "template_args" : [ "_ZTIf" ]
  },
  {
   "alignment" : 1,
   "linker_set_key" : "_ZTIN7android7details20TVecProductOperatorsINS0_5TVec2EbEE",
   "name" : "android::details::TVecProductOperators<android::details::TVec2, bool>",
   "record_kind" : "class",
   "referenced_type" : "_ZTIN7android7details20TVecProductOperatorsINS0_5TVec2EbEE",
   "self_type" : "_ZTIN7android7details20TVecProductOperatorsINS0_5TVec2EbEE",
   "size" : 1,
   "source_file" : "frameworks/native/libs/math/include/math/TVecHelpers.h",
   "template_args" : [ "_ZTIb" ]
  },
  {
   "alignment" : 1,
   "linker_set_key" : "_ZTIN7android7details20TVecProductOperatorsINS0_5TVec2EdEE",
   "name" : "android::details::TVecProductOperators<android::details::TVec2, double>",
   "record_kind" : "class",
   "referenced_type" : "_ZTIN7android7details20TVecProductOperatorsINS0_5TVec2EdEE",
   "self_type" : "_ZTIN7android7details20TVecProductOperatorsINS0_5TVec2EdEE",
   "size" : 1,
   "source_file" : "frameworks/native/libs/math/include/math/TVecHelpers.h",
   "template_args" : [ "_ZTId" ]
  },
  {
   "alignment" : 1,
   "linker_set_key" : "_ZTIN7android7details20TVecProductOperatorsINS0_5TVec2EfEE",
   "name" : "android::details::TVecProductOperators<android::details::TVec2, float>",
   "record_kind" : "class",
   "referenced_type" : "_ZTIN7android7details20TVecProductOperatorsINS0_5TVec2EfEE",
   "self_type" : "_ZTIN7android7details20TVecProductOperatorsINS0_5TVec2EfEE",
   "size" : 1,
   "source_file" : "frameworks/native/libs/math/include/math/TVecHelpers.h",
   "template_args" : [ "_ZTIf" ]
  },
  {
   "alignment" : 1,
   "linker_set_key" : "_ZTIN7android7details20TVecProductOperatorsINS0_5TVec3EdEE",
   "name" : "android::details::TVecProductOperators<android::details::TVec3, double>",
   "record_kind" : "class",
   "referenced_type" : "_ZTIN7android7details20TVecProductOperatorsINS0_5TVec3EdEE",
   "self_type" : "_ZTIN7android7details20TVecProductOperatorsINS0_5TVec3EdEE",
   "size" : 1,
   "source_file" : "frameworks/native/libs/math/include/math/TVecHelpers.h",
   "template_args" : [ "_ZTId" ]
  },
  {
   "alignment" : 1,
   "linker_set_key" : "_ZTIN7android7details20TVecProductOperatorsINS0_5TVec3EfEE",
   "name" : "android::details::TVecProductOperators<android::details::TVec3, float>",
   "record_kind" : "class",
   "referenced_type" : "_ZTIN7android7details20TVecProductOperatorsINS0_5TVec3EfEE",
   "self_type" : "_ZTIN7android7details20TVecProductOperatorsINS0_5TVec3EfEE",
   "size" : 1,
   "source_file" : "frameworks/native/libs/math/include/math/TVecHelpers.h",
   "template_args" : [ "_ZTIf" ]
  },
  {
   "alignment" : 1,
   "linker_set_key" : "_ZTIN7android7details20TVecProductOperatorsINS0_5TVec4EdEE",
   "name" : "android::details::TVecProductOperators<android::details::TVec4, double>",
   "record_kind" : "class",
   "referenced_type" : "_ZTIN7android7details20TVecProductOperatorsINS0_5TVec4EdEE",
   "self_type" : "_ZTIN7android7details20TVecProductOperatorsINS0_5TVec4EdEE",
   "size" : 1,
   "source_file" : "frameworks/native/libs/math/include/math/TVecHelpers.h",
   "template_args" : [ "_ZTId" ]
  },
  {
   "alignment" : 1,
   "linker_set_key" : "_ZTIN7android7details20TVecProductOperatorsINS0_5TVec4EfEE",
   "name" : "android::details::TVecProductOperators<android::details::TVec4, float>",
   "record_kind" : "class",
   "referenced_type" : "_ZTIN7android7details20TVecProductOperatorsINS0_5TVec4EfEE",
   "self_type" : "_ZTIN7android7details20TVecProductOperatorsINS0_5TVec4EfEE",
   "size" : 1,
   "source_file" : "frameworks/native/libs/math/include/math/TVecHelpers.h",
   "template_args" : [ "_ZTIf" ]
  },
  {
   "alignment" : 1,
   "linker_set_key" : "_ZTIN7android7details21TQuatProductOperatorsINS0_11TQuaternionEdEE",
   "name" : "android::details::TQuatProductOperators<android::details::TQuaternion, double>",
   "record_kind" : "class",
   "referenced_type" : "_ZTIN7android7details21TQuatProductOperatorsINS0_11TQuaternionEdEE",
   "self_type" : "_ZTIN7android7details21TQuatProductOperatorsINS0_11TQuaternionEdEE",
   "size" : 1,
   "source_file" : "frameworks/native/libs/math/include/math/TQuatHelpers.h",
   "template_args" : [ "_ZTId" ]
  },
  {
   "alignment" : 1,
   "linker_set_key" : "_ZTIN7android7details21TQuatProductOperatorsINS0_11TQuaternionEfEE",
   "name" : "android::details::TQuatProductOperators<android::details::TQuaternion, float>",
   "record_kind" : "class",
   "referenced_type" : "_ZTIN7android7details21TQuatProductOperatorsINS0_11TQuaternionEfEE",
   "self_type" : "_ZTIN7android7details21TQuatProductOperatorsINS0_11TQuaternionEfEE",
   "size" : 1,
   "source_file" : "frameworks/native/libs/math/include/math/TQuatHelpers.h",
   "template_args" : [ "_ZTIf" ]
  },
  {
   "alignment" : 1,
   "linker_set_key" : "_ZTIN7android7details23TVecComparisonOperatorsINS0_11TQuaternionEdEE",
   "name" : "android::details::TVecComparisonOperators<android::details::TQuaternion, double>",
   "record_kind" : "class",
   "referenced_type" : "_ZTIN7android7details23TVecComparisonOperatorsINS0_11TQuaternionEdEE",
   "self_type" : "_ZTIN7android7details23TVecComparisonOperatorsINS0_11TQuaternionEdEE",
   "size" : 1,
   "source_file" : "frameworks/native/libs/math/include/math/TVecHelpers.h",
   "template_args" : [ "_ZTId" ]
  },
  {
   "alignment" : 1,
   "linker_set_key" : "_ZTIN7android7details23TVecComparisonOperatorsINS0_11TQuaternionEfEE",
   "name" : "android::details::TVecComparisonOperators<android::details::TQuaternion, float>",
   "record_kind" : "class",
   "referenced_type" : "_ZTIN7android7details23TVecComparisonOperatorsINS0_11TQuaternionEfEE",
   "self_type" : "_ZTIN7android7details23TVecComparisonOperatorsINS0_11TQuaternionEfEE",
   "size" : 1,
   "source_file" : "frameworks/native/libs/math/include/math/TVecHelpers.h",
   "template_args" : [ "_ZTIf" ]
  },
  {
   "alignment" : 1,
   "linker_set_key" : "_ZTIN7android7details23TVecComparisonOperatorsINS0_5TVec2EbEE",
   "name" : "android::details::TVecComparisonOperators<android::details::TVec2, bool>",
   "record_kind" : "class",
   "referenced_type" : "_ZTIN7android7details23TVecComparisonOperatorsINS0_5TVec2EbEE",
   "self_type" : "_ZTIN7android7details23TVecComparisonOperatorsINS0_5TVec2EbEE",
   "size" : 1,
   "source_file" : "frameworks/native/libs/math/include/math/TVecHelpers.h",
   "template_args" : [ "_ZTIb" ]
  },
  {
   "alignment" : 1,
   "linker_set_key" : "_ZTIN7android7details23TVecComparisonOperatorsINS0_5TVec2EdEE",
   "name" : "android::details::TVecComparisonOperators<android::details::TVec2, double>",
   "record_kind" : "class",
   "referenced_type" : "_ZTIN7android7details23TVecComparisonOperatorsINS0_5TVec2EdEE",
   "self_type" : "_ZTIN7android7details23TVecComparisonOperatorsINS0_5TVec2EdEE",
   "size" : 1,
   "source_file" : "frameworks/native/libs/math/include/math/TVecHelpers.h",
   "template_args" : [ "_ZTId" ]
  },
  {
   "alignment" : 1,
   "linker_set_key" : "_ZTIN7android7details23TVecComparisonOperatorsINS0_5TVec2EfEE",
   "name" : "android::details::TVecComparisonOperators<android::details::TVec2, float>",
   "record_kind" : "class",
   "referenced_type" : "_ZTIN7android7details23TVecComparisonOperatorsINS0_5TVec2EfEE",
   "self_type" : "_ZTIN7android7details23TVecComparisonOperatorsINS0_5TVec2EfEE",
   "size" : 1,
   "source_file" : "frameworks/native/libs/math/include/math/TVecHelpers.h",
   "template_args" : [ "_ZTIf" ]
  },
  {
   "alignment" : 1,
   "linker_set_key" : "_ZTIN7android7details23TVecComparisonOperatorsINS0_5TVec3EdEE",
   "name" : "android::details::TVecComparisonOperators<android::details::TVec3, double>",
   "record_kind" : "class",
   "referenced_type" : "_ZTIN7android7details23TVecComparisonOperatorsINS0_5TVec3EdEE",
   "self_type" : "_ZTIN7android7details23TVecComparisonOperatorsINS0_5TVec3EdEE",
   "size" : 1,
   "source_file" : "frameworks/native/libs/math/include/math/TVecHelpers.h",
   "template_args" : [ "_ZTId" ]
  },
  {
   "alignment" : 1,
   "linker_set_key" : "_ZTIN7android7details23TVecComparisonOperatorsINS0_5TVec3EfEE",
   "name" : "android::details::TVecComparisonOperators<android::details::TVec3, float>",
   "record_kind" : "class",
   "referenced_type" : "_ZTIN7android7details23TVecComparisonOperatorsINS0_5TVec3EfEE",
   "self_type" : "_ZTIN7android7details23TVecComparisonOperatorsINS0_5TVec3EfEE",
   "size" : 1,
   "source_file" : "frameworks/native/libs/math/include/math/TVecHelpers.h",
   "template_args" : [ "_ZTIf" ]
  },
  {
   "alignment" : 1,
   "linker_set_key" : "_ZTIN7android7details23TVecComparisonOperatorsINS0_5TVec4EdEE",
   "name" : "android::details::TVecComparisonOperators<android::details::TVec4, double>",
   "record_kind" : "class",
   "referenced_type" : "_ZTIN7android7details23TVecComparisonOperatorsINS0_5TVec4EdEE",
   "self_type" : "_ZTIN7android7details23TVecComparisonOperatorsINS0_5TVec4EdEE",
   "size" : 1,
   "source_file" : "frameworks/native/libs/math/include/math/TVecHelpers.h",
   "template_args" : [ "_ZTId" ]
  },
  {
   "alignment" : 1,
   "linker_set_key" : "_ZTIN7android7details23TVecComparisonOperatorsINS0_5TVec4EfEE",
   "name" : "android::details::TVecComparisonOperators<android::details::TVec4, float>",
   "record_kind" : "class",
   "referenced_type" : "_ZTIN7android7details23TVecComparisonOperatorsINS0_5TVec4EfEE",
   "self_type" : "_ZTIN7android7details23TVecComparisonOperatorsINS0_5TVec4EfEE",
   "size" : 1,
   "source_file" : "frameworks/native/libs/math/include/math/TVecHelpers.h",
   "template_args" : [ "_ZTIf" ]
  },
  {
   "alignment" : 1,
   "linker_set_key" : "_ZTIN7android7details23TVecComparisonOperatorsINS0_6TMat33EfEE",
   "name" : "android::details::TVecComparisonOperators<android::details::TMat33, float>",
   "record_kind" : "class",
   "referenced_type" : "_ZTIN7android7details23TVecComparisonOperatorsINS0_6TMat33EfEE",
   "self_type" : "_ZTIN7android7details23TVecComparisonOperatorsINS0_6TMat33EfEE",
   "size" : 1,
   "source_file" : "frameworks/native/libs/math/include/math/TVecHelpers.h",
   "template_args" : [ "_ZTIf" ]
  },
  {
   "alignment" : 1,
   "base_specifiers" :
   [
    {
     "referenced_type" : "_ZTIN7android7details20TVecProductOperatorsINS0_5TVec2EbEE"
    },
    {
     "referenced_type" : "_ZTIN7android7details16TVecAddOperatorsINS0_5TVec2EbEE"
    },
    {
     "referenced_type" : "_ZTIN7android7details18TVecUnaryOperatorsINS0_5TVec2EbEE"
    },
    {
     "referenced_type" : "_ZTIN7android7details23TVecComparisonOperatorsINS0_5TVec2EbEE"
    },
    {
     "referenced_type" : "_ZTIN7android7details13TVecFunctionsINS0_5TVec2EbEE"
    },
    {
     "referenced_type" : "_ZTIN7android7details9TVecDebugINS0_5TVec2EbEE"
    }
   ],
   "fields" :
   [
    {
     "referenced_type" : "_ZTIN7android7details5TVec2IbEUt_E"
    }
   ],
   "linker_set_key" : "_ZTIN7android7details5TVec2IbEE",
   "name" : "android::details::TVec2<bool>",
   "record_kind" : "class",
   "referenced_type" : "_ZTIN7android7details5TVec2IbEE",
   "self_type" : "_ZTIN7android7details5TVec2IbEE",
   "size" : 2,
   "source_file" : "frameworks/native/libs/math/include/math/vec2.h",
   "template_args" : [ "_ZTIb" ]
  },
  {
   "alignment" : 1,
   "fields" :
   [
    {
     "referenced_type" : "_ZTIN7android7details5TVec2IbEUt_Ut_E"
    },
    {
     "referenced_type" : "_ZTIN7android7details5TVec2IbEUt_Ut0_E"
    },
    {
     "referenced_type" : "_ZTIN7android7details5TVec2IbEUt_Ut1_E"
    }
   ],
   "is_anonymous" : true,
   "linker_set_key" : "_ZTIN7android7details5TVec2IbEUt_E",
   "name" : "android::details::TVec2<bool>::(anonymous union at frameworks/native/libs/math/include/math/vec2.h:49:5)",
   "record_kind" : "union",
   "referenced_type" : "_ZTIN7android7details5TVec2IbEUt_E",
   "self_type" : "_ZTIN7android7details5TVec2IbEUt_E",
   "size" : 2,
   "source_file" : "frameworks/native/libs/math/include/math/vec2.h"
  },
  {
   "alignment" : 1,
   "fields" :
   [
    {
     "field_name" : "s",
     "referenced_type" : "_ZTIb"
    },
    {
     "field_name" : "t",
     "field_offset" : 8,
     "referenced_type" : "_ZTIb"
    }
   ],
   "is_anonymous" : true,
   "linker_set_key" : "_ZTIN7android7details5TVec2IbEUt_Ut0_E",
   "name" : "android::details::TVec2<bool>::(anonymous union at frameworks/native/libs/math/include/math/vec2.h:49:5)::(anonymous struct at frameworks/native/libs/math/include/math/vec2.h:51:9)",
   "referenced_type" : "_ZTIN7android7details5TVec2IbEUt_Ut0_E",
   "self_type" : "_ZTIN7android7details5TVec2IbEUt_Ut0_E",
   "size" : 2,
   "source_file" : "frameworks/native/libs/math/include/math/vec2.h"
  },
  {
   "alignment" : 1,
   "fields" :
   [
    {
     "field_name" : "r",
     "referenced_type" : "_ZTIb"
    },
    {
     "field_name" : "g",
     "field_offset" : 8,
     "referenced_type" : "_ZTIb"
    }
   ],
   "is_anonymous" : true,
   "linker_set_key" : "_ZTIN7android7details5TVec2IbEUt_Ut1_E",
   "name" : "android::details::TVec2<bool>::(anonymous union at frameworks/native/libs/math/include/math/vec2.h:49:5)::(anonymous struct at frameworks/native/libs/math/include/math/vec2.h:52:9)",
   "referenced_type" : "_ZTIN7android7details5TVec2IbEUt_Ut1_E",
   "self_type" : "_ZTIN7android7details5TVec2IbEUt_Ut1_E",
   "size" : 2,
   "source_file" : "frameworks/native/libs/math/include/math/vec2.h"
  },
  {
   "alignment" : 1,
   "fields" :
   [
    {
     "field_name" : "x",
     "referenced_type" : "_ZTIb"
    },
    {
     "field_name" : "y",
     "field_offset" : 8,
     "referenced_type" : "_ZTIb"
    }
   ],
   "is_anonymous" : true,
   "linker_set_key" : "_ZTIN7android7details5TVec2IbEUt_Ut_E",
   "name" : "android::details::TVec2<bool>::(anonymous union at frameworks/native/libs/math/include/math/vec2.h:49:5)::(anonymous struct at frameworks/native/libs/math/include/math/vec2.h:50:9)",
   "referenced_type" : "_ZTIN7android7details5TVec2IbEUt_Ut_E",
   "self_type" : "_ZTIN7android7details5TVec2IbEUt_Ut_E",
   "size" : 2,
   "source_file" : "frameworks/native/libs/math/include/math/vec2.h"
  },
  {
   "alignment" : 8,
   "base_specifiers" :
   [
    {
     "referenced_type" : "_ZTIN7android7details20TVecProductOperatorsINS0_5TVec2EdEE"
    },
    {
     "referenced_type" : "_ZTIN7android7details16TVecAddOperatorsINS0_5TVec2EdEE"
    },
    {
     "referenced_type" : "_ZTIN7android7details18TVecUnaryOperatorsINS0_5TVec2EdEE"
    },
    {
     "referenced_type" : "_ZTIN7android7details23TVecComparisonOperatorsINS0_5TVec2EdEE"
    },
    {
     "referenced_type" : "_ZTIN7android7details13TVecFunctionsINS0_5TVec2EdEE"
    },
    {
     "referenced_type" : "_ZTIN7android7details9TVecDebugINS0_5TVec2EdEE"
    }
   ],
   "fields" :
   [
    {
     "referenced_type" : "_ZTIN7android7details5TVec2IdEUt_E"
    }
   ],
   "linker_set_key" : "_ZTIN7android7details5TVec2IdEE",
   "name" : "android::details::TVec2<double>",
   "record_kind" : "class",
   "referenced_type" : "_ZTIN7android7details5TVec2IdEE",
   "self_type" : "_ZTIN7android7details5TVec2IdEE",
   "size" : 16,
   "source_file" : "frameworks/native/libs/math/include/math/vec2.h",
   "template_args" : [ "_ZTId" ]
  },
  {
   "alignment" : 8,
   "fields" :
   [
    {
     "referenced_type" : "_ZTIN7android7details5TVec2IdEUt_Ut_E"
    },
    {
     "referenced_type" : "_ZTIN7android7details5TVec2IdEUt_Ut0_E"
    },
    {
     "referenced_type" : "_ZTIN7android7details5TVec2IdEUt_Ut1_E"
    }
   ],
   "is_anonymous" : true,
   "linker_set_key" : "_ZTIN7android7details5TVec2IdEUt_E",
   "name" : "android::details::TVec2<double>::(anonymous union at frameworks/native/libs/math/include/math/vec2.h:49:5)",
   "record_kind" : "union",
   "referenced_type" : "_ZTIN7android7details5TVec2IdEUt_E",
   "self_type" : "_ZTIN7android7details5TVec2IdEUt_E",
   "size" : 16,
   "source_file" : "frameworks/native/libs/math/include/math/vec2.h"
  },
  {
   "alignment" : 8,
   "fields" :
   [
    {
     "field_name" : "s",
     "referenced_type" : "_ZTId"
    },
    {
     "field_name" : "t",
     "field_offset" : 64,
     "referenced_type" : "_ZTId"
    }
   ],
   "is_anonymous" : true,
   "linker_set_key" : "_ZTIN7android7details5TVec2IdEUt_Ut0_E",
   "name" : "android::details::TVec2<double>::(anonymous union at frameworks/native/libs/math/include/math/vec2.h:49:5)::(anonymous struct at frameworks/native/libs/math/include/math/vec2.h:51:9)",
   "referenced_type" : "_ZTIN7android7details5TVec2IdEUt_Ut0_E",
   "self_type" : "_ZTIN7android7details5TVec2IdEUt_Ut0_E",
   "size" : 16,
   "source_file" : "frameworks/native/libs/math/include/math/vec2.h"
  },
  {
   "alignment" : 8,
   "fields" :
   [
    {
     "field_name" : "r",
     "referenced_type" : "_ZTId"
    },
    {
     "field_name" : "g",
     "field_offset" : 64,
     "referenced_type" : "_ZTId"
    }
   ],
   "is_anonymous" : true,
   "linker_set_key" : "_ZTIN7android7details5TVec2IdEUt_Ut1_E",
   "name" : "android::details::TVec2<double>::(anonymous union at frameworks/native/libs/math/include/math/vec2.h:49:5)::(anonymous struct at frameworks/native/libs/math/include/math/vec2.h:52:9)",
   "referenced_type" : "_ZTIN7android7details5TVec2IdEUt_Ut1_E",
   "self_type" : "_ZTIN7android7details5TVec2IdEUt_Ut1_E",
   "size" : 16,
   "source_file" : "frameworks/native/libs/math/include/math/vec2.h"
  },
  {
   "alignment" : 8,
   "fields" :
   [
    {
     "field_name" : "x",
     "referenced_type" : "_ZTId"
    },
    {
     "field_name" : "y",
     "field_offset" : 64,
     "referenced_type" : "_ZTId"
    }
   ],
   "is_anonymous" : true,
   "linker_set_key" : "_ZTIN7android7details5TVec2IdEUt_Ut_E",
   "name" : "android::details::TVec2<double>::(anonymous union at frameworks/native/libs/math/include/math/vec2.h:49:5)::(anonymous struct at frameworks/native/libs/math/include/math/vec2.h:50:9)",
   "referenced_type" : "_ZTIN7android7details5TVec2IdEUt_Ut_E",
   "self_type" : "_ZTIN7android7details5TVec2IdEUt_Ut_E",
   "size" : 16,
   "source_file" : "frameworks/native/libs/math/include/math/vec2.h"
  },
  {
   "alignment" : 4,
   "base_specifiers" :
   [
    {
     "referenced_type" : "_ZTIN7android7details20TVecProductOperatorsINS0_5TVec2EfEE"
    },
    {
     "referenced_type" : "_ZTIN7android7details16TVecAddOperatorsINS0_5TVec2EfEE"
    },
    {
     "referenced_type" : "_ZTIN7android7details18TVecUnaryOperatorsINS0_5TVec2EfEE"
    },
    {
     "referenced_type" : "_ZTIN7android7details23TVecComparisonOperatorsINS0_5TVec2EfEE"
    },
    {
     "referenced_type" : "_ZTIN7android7details13TVecFunctionsINS0_5TVec2EfEE"
    },
    {
     "referenced_type" : "_ZTIN7android7details9TVecDebugINS0_5TVec2EfEE"
    }
   ],
   "fields" :
   [
    {
     "referenced_type" : "_ZTIN7android7details5TVec2IfEUt_E"
    }
   ],
   "linker_set_key" : "_ZTIN7android7details5TVec2IfEE",
   "name" : "android::details::TVec2<float>",
   "record_kind" : "class",
   "referenced_type" : "_ZTIN7android7details5TVec2IfEE",
   "self_type" : "_ZTIN7android7details5TVec2IfEE",
   "size" : 8,
   "source_file" : "frameworks/native/libs/math/include/math/vec2.h",
   "template_args" : [ "_ZTIf" ]
  },
  {
   "alignment" : 4,
   "fields" :
   [
    {
     "referenced_type" : "_ZTIN7android7details5TVec2IfEUt_Ut_E"
    },
    {
     "referenced_type" : "_ZTIN7android7details5TVec2IfEUt_Ut0_E"
    },
    {
     "referenced_type" : "_ZTIN7android7details5TVec2IfEUt_Ut1_E"
    }
   ],
   "is_anonymous" : true,
   "linker_set_key" : "_ZTIN7android7details5TVec2IfEUt_E",
   "name" : "android::details::TVec2<float>::(anonymous union at frameworks/native/libs/math/include/math/vec2.h:49:5)",
   "record_kind" : "union",
   "referenced_type" : "_ZTIN7android7details5TVec2IfEUt_E",
   "self_type" : "_ZTIN7android7details5TVec2IfEUt_E",
   "size" : 8,
   "source_file" : "frameworks/native/libs/math/include/math/vec2.h"
  },
  {
   "alignment" : 4,
   "fields" :
   [
    {
     "field_name" : "s",
     "referenced_type" : "_ZTIf"
    },
    {
     "field_name" : "t",
     "field_offset" : 32,
     "referenced_type" : "_ZTIf"
    }
   ],
   "is_anonymous" : true,
   "linker_set_key" : "_ZTIN7android7details5TVec2IfEUt_Ut0_E",
   "name" : "android::details::TVec2<float>::(anonymous union at frameworks/native/libs/math/include/math/vec2.h:49:5)::(anonymous struct at frameworks/native/libs/math/include/math/vec2.h:51:9)",
   "referenced_type" : "_ZTIN7android7details5TVec2IfEUt_Ut0_E",
   "self_type" : "_ZTIN7android7details5TVec2IfEUt_Ut0_E",
   "size" : 8,
   "source_file" : "frameworks/native/libs/math/include/math/vec2.h"
  },
  {
   "alignment" : 4,
   "fields" :
   [
    {
     "field_name" : "r",
     "referenced_type" : "_ZTIf"
    },
    {
     "field_name" : "g",
     "field_offset" : 32,
     "referenced_type" : "_ZTIf"
    }
   ],
   "is_anonymous" : true,
   "linker_set_key" : "_ZTIN7android7details5TVec2IfEUt_Ut1_E",
   "name" : "android::details::TVec2<float>::(anonymous union at frameworks/native/libs/math/include/math/vec2.h:49:5)::(anonymous struct at frameworks/native/libs/math/include/math/vec2.h:52:9)",
   "referenced_type" : "_ZTIN7android7details5TVec2IfEUt_Ut1_E",
   "self_type" : "_ZTIN7android7details5TVec2IfEUt_Ut1_E",
   "size" : 8,
   "source_file" : "frameworks/native/libs/math/include/math/vec2.h"
  },
  {
   "alignment" : 4,
   "fields" :
   [
    {
     "field_name" : "x",
     "referenced_type" : "_ZTIf"
    },
    {
     "field_name" : "y",
     "field_offset" : 32,
     "referenced_type" : "_ZTIf"
    }
   ],
   "is_anonymous" : true,
   "linker_set_key" : "_ZTIN7android7details5TVec2IfEUt_Ut_E",
   "name" : "android::details::TVec2<float>::(anonymous union at frameworks/native/libs/math/include/math/vec2.h:49:5)::(anonymous struct at frameworks/native/libs/math/include/math/vec2.h:50:9)",
   "referenced_type" : "_ZTIN7android7details5TVec2IfEUt_Ut_E",
   "self_type" : "_ZTIN7android7details5TVec2IfEUt_Ut_E",
   "size" : 8,
   "source_file" : "frameworks/native/libs/math/include/math/vec2.h"
  },
  {
   "alignment" : 8,
   "base_specifiers" :
   [
    {
     "referenced_type" : "_ZTIN7android7details20TVecProductOperatorsINS0_5TVec3EdEE"
    },
    {
     "referenced_type" : "_ZTIN7android7details16TVecAddOperatorsINS0_5TVec3EdEE"
    },
    {
     "referenced_type" : "_ZTIN7android7details18TVecUnaryOperatorsINS0_5TVec3EdEE"
    },
    {
     "referenced_type" : "_ZTIN7android7details23TVecComparisonOperatorsINS0_5TVec3EdEE"
    },
    {
     "referenced_type" : "_ZTIN7android7details13TVecFunctionsINS0_5TVec3EdEE"
    },
    {
     "referenced_type" : "_ZTIN7android7details9TVecDebugINS0_5TVec3EdEE"
    }
   ],
   "fields" :
   [
    {
     "referenced_type" : "_ZTIN7android7details5TVec3IdEUt_E"
    }
   ],
   "linker_set_key" : "_ZTIN7android7details5TVec3IdEE",
   "name" : "android::details::TVec3<double>",
   "record_kind" : "class",
   "referenced_type" : "_ZTIN7android7details5TVec3IdEE",
   "self_type" : "_ZTIN7android7details5TVec3IdEE",
   "size" : 24,
   "source_file" : "frameworks/native/libs/math/include/math/vec3.h",
   "template_args" : [ "_ZTId" ]
  },
  {
   "alignment" : 8,
   "fields" :
   [
    {
     "referenced_type" : "_ZTIN7android7details5TVec3IdEUt_Ut_E"
    },
    {
     "referenced_type" : "_ZTIN7android7details5TVec3IdEUt_Ut0_E"
    },
    {
     "referenced_type" : "_ZTIN7android7details5TVec3IdEUt_Ut1_E"
    },
    {
     "field_name" : "xy",
     "referenced_type" : "_ZTIN7android7details5TVec2IdEE"
    },
    {
     "field_name" : "st",
     "referenced_type" : "_ZTIN7android7details5TVec2IdEE"
    },
    {
     "field_name" : "rg",
     "referenced_type" : "_ZTIN7android7details5TVec2IdEE"
    }
   ],
   "is_anonymous" : true,
   "linker_set_key" : "_ZTIN7android7details5TVec3IdEUt_E",
   "name" : "android::details::TVec3<double>::(anonymous union at frameworks/native/libs/math/include/math/vec3.h:47:5)",
   "record_kind" : "union",
   "referenced_type" : "_ZTIN7android7details5TVec3IdEUt_E",
   "self_type" : "_ZTIN7android7details5TVec3IdEUt_E",
   "size" : 24,
   "source_file" : "frameworks/native/libs/math/include/math/vec3.h"
  },
  {
   "alignment" : 8,
   "fields" :
   [
    {
     "field_name" : "s",
     "referenced_type" : "_ZTId"
    },
    {
     "field_name" : "t",
     "field_offset" : 64,
     "referenced_type" : "_ZTId"
    },
    {
     "field_name" : "p",
     "field_offset" : 128,
     "referenced_type" : "_ZTId"
    }
   ],
   "is_anonymous" : true,
   "linker_set_key" : "_ZTIN7android7details5TVec3IdEUt_Ut0_E",
   "name" : "android::details::TVec3<double>::(anonymous union at frameworks/native/libs/math/include/math/vec3.h:47:5)::(anonymous struct at frameworks/native/libs/math/include/math/vec3.h:49:9)",
   "referenced_type" : "_ZTIN7android7details5TVec3IdEUt_Ut0_E",
   "self_type" : "_ZTIN7android7details5TVec3IdEUt_Ut0_E",
   "size" : 24,
   "source_file" : "frameworks/native/libs/math/include/math/vec3.h"
  },
  {
   "alignment" : 8,
   "fields" :
   [
    {
     "field_name" : "r",
     "referenced_type" : "_ZTId"
    },
    {
     "field_name" : "g",
     "field_offset" : 64,
     "referenced_type" : "_ZTId"
    },
    {
     "field_name" : "b",
     "field_offset" : 128,
     "referenced_type" : "_ZTId"
    }
   ],
   "is_anonymous" : true,
   "linker_set_key" : "_ZTIN7android7details5TVec3IdEUt_Ut1_E",
   "name" : "android::details::TVec3<double>::(anonymous union at frameworks/native/libs/math/include/math/vec3.h:47:5)::(anonymous struct at frameworks/native/libs/math/include/math/vec3.h:50:9)",
   "referenced_type" : "_ZTIN7android7details5TVec3IdEUt_Ut1_E",
   "self_type" : "_ZTIN7android7details5TVec3IdEUt_Ut1_E",
   "size" : 24,
   "source_file" : "frameworks/native/libs/math/include/math/vec3.h"
  },
  {
   "alignment" : 8,
   "fields" :
   [
    {
     "field_name" : "x",
     "referenced_type" : "_ZTId"
    },
    {
     "field_name" : "y",
     "field_offset" : 64,
     "referenced_type" : "_ZTId"
    },
    {
     "field_name" : "z",
     "field_offset" : 128,
     "referenced_type" : "_ZTId"
    }
   ],
   "is_anonymous" : true,
   "linker_set_key" : "_ZTIN7android7details5TVec3IdEUt_Ut_E",
   "name" : "android::details::TVec3<double>::(anonymous union at frameworks/native/libs/math/include/math/vec3.h:47:5)::(anonymous struct at frameworks/native/libs/math/include/math/vec3.h:48:9)",
   "referenced_type" : "_ZTIN7android7details5TVec3IdEUt_Ut_E",
   "self_type" : "_ZTIN7android7details5TVec3IdEUt_Ut_E",
   "size" : 24,
   "source_file" : "frameworks/native/libs/math/include/math/vec3.h"
  },
  {
   "alignment" : 4,
   "base_specifiers" :
   [
    {
     "referenced_type" : "_ZTIN7android7details20TVecProductOperatorsINS0_5TVec3EfEE"
    },
    {
     "referenced_type" : "_ZTIN7android7details16TVecAddOperatorsINS0_5TVec3EfEE"
    },
    {
     "referenced_type" : "_ZTIN7android7details18TVecUnaryOperatorsINS0_5TVec3EfEE"
    },
    {
     "referenced_type" : "_ZTIN7android7details23TVecComparisonOperatorsINS0_5TVec3EfEE"
    },
    {
     "referenced_type" : "_ZTIN7android7details13TVecFunctionsINS0_5TVec3EfEE"
    },
    {
     "referenced_type" : "_ZTIN7android7details9TVecDebugINS0_5TVec3EfEE"
    }
   ],
   "fields" :
   [
    {
     "referenced_type" : "_ZTIN7android7details5TVec3IfEUt_E"
    }
   ],
   "linker_set_key" : "_ZTIN7android7details5TVec3IfEE",
   "name" : "android::details::TVec3<float>",
   "record_kind" : "class",
   "referenced_type" : "_ZTIN7android7details5TVec3IfEE",
   "self_type" : "_ZTIN7android7details5TVec3IfEE",
   "size" : 12,
   "source_file" : "frameworks/native/libs/math/include/math/vec3.h",
   "template_args" : [ "_ZTIf" ]
  },
  {
   "alignment" : 4,
   "fields" :
   [
    {
     "referenced_type" : "_ZTIN7android7details5TVec3IfEUt_Ut_E"
    },
    {
     "referenced_type" : "_ZTIN7android7details5TVec3IfEUt_Ut0_E"
    },
    {
     "referenced_type" : "_ZTIN7android7details5TVec3IfEUt_Ut1_E"
    },
    {
     "field_name" : "xy",
     "referenced_type" : "_ZTIN7android7details5TVec2IfEE"
    },
    {
     "field_name" : "st",
     "referenced_type" : "_ZTIN7android7details5TVec2IfEE"
    },
    {
     "field_name" : "rg",
     "referenced_type" : "_ZTIN7android7details5TVec2IfEE"
    }
   ],
   "is_anonymous" : true,
   "linker_set_key" : "_ZTIN7android7details5TVec3IfEUt_E",
   "name" : "android::details::TVec3<float>::(anonymous union at frameworks/native/libs/math/include/math/vec3.h:47:5)",
   "record_kind" : "union",
   "referenced_type" : "_ZTIN7android7details5TVec3IfEUt_E",
   "self_type" : "_ZTIN7android7details5TVec3IfEUt_E",
   "size" : 12,
   "source_file" : "frameworks/native/libs/math/include/math/vec3.h"
  },
  {
   "alignment" : 4,
   "fields" :
   [
    {
     "field_name" : "s",
     "referenced_type" : "_ZTIf"
    },
    {
     "field_name" : "t",
     "field_offset" : 32,
     "referenced_type" : "_ZTIf"
    },
    {
     "field_name" : "p",
     "field_offset" : 64,
     "referenced_type" : "_ZTIf"
    }
   ],
   "is_anonymous" : true,
   "linker_set_key" : "_ZTIN7android7details5TVec3IfEUt_Ut0_E",
   "name" : "android::details::TVec3<float>::(anonymous union at frameworks/native/libs/math/include/math/vec3.h:47:5)::(anonymous struct at frameworks/native/libs/math/include/math/vec3.h:49:9)",
   "referenced_type" : "_ZTIN7android7details5TVec3IfEUt_Ut0_E",
   "self_type" : "_ZTIN7android7details5TVec3IfEUt_Ut0_E",
   "size" : 12,
   "source_file" : "frameworks/native/libs/math/include/math/vec3.h"
  },
  {
   "alignment" : 4,
   "fields" :
   [
    {
     "field_name" : "r",
     "referenced_type" : "_ZTIf"
    },
    {
     "field_name" : "g",
     "field_offset" : 32,
     "referenced_type" : "_ZTIf"
    },
    {
     "field_name" : "b",
     "field_offset" : 64,
     "referenced_type" : "_ZTIf"
    }
   ],
   "is_anonymous" : true,
   "linker_set_key" : "_ZTIN7android7details5TVec3IfEUt_Ut1_E",
   "name" : "android::details::TVec3<float>::(anonymous union at frameworks/native/libs/math/include/math/vec3.h:47:5)::(anonymous struct at frameworks/native/libs/math/include/math/vec3.h:50:9)",
   "referenced_type" : "_ZTIN7android7details5TVec3IfEUt_Ut1_E",
   "self_type" : "_ZTIN7android7details5TVec3IfEUt_Ut1_E",
   "size" : 12,
   "source_file" : "frameworks/native/libs/math/include/math/vec3.h"
  },
  {
   "alignment" : 4,
   "fields" :
   [
    {
     "field_name" : "x",
     "referenced_type" : "_ZTIf"
    },
    {
     "field_name" : "y",
     "field_offset" : 32,
     "referenced_type" : "_ZTIf"
    },
    {
     "field_name" : "z",
     "field_offset" : 64,
     "referenced_type" : "_ZTIf"
    }
   ],
   "is_anonymous" : true,
   "linker_set_key" : "_ZTIN7android7details5TVec3IfEUt_Ut_E",
   "name" : "android::details::TVec3<float>::(anonymous union at frameworks/native/libs/math/include/math/vec3.h:47:5)::(anonymous struct at frameworks/native/libs/math/include/math/vec3.h:48:9)",
   "referenced_type" : "_ZTIN7android7details5TVec3IfEUt_Ut_E",
   "self_type" : "_ZTIN7android7details5TVec3IfEUt_Ut_E",
   "size" : 12,
   "source_file" : "frameworks/native/libs/math/include/math/vec3.h"
  },
  {
   "alignment" : 8,
   "base_specifiers" :
   [
    {
     "referenced_type" : "_ZTIN7android7details20TVecProductOperatorsINS0_5TVec4EdEE"
    },
    {
     "referenced_type" : "_ZTIN7android7details16TVecAddOperatorsINS0_5TVec4EdEE"
    },
    {
     "referenced_type" : "_ZTIN7android7details18TVecUnaryOperatorsINS0_5TVec4EdEE"
    },
    {
     "referenced_type" : "_ZTIN7android7details23TVecComparisonOperatorsINS0_5TVec4EdEE"
    },
    {
     "referenced_type" : "_ZTIN7android7details13TVecFunctionsINS0_5TVec4EdEE"
    },
    {
     "referenced_type" : "_ZTIN7android7details9TVecDebugINS0_5TVec4EdEE"
    }
   ],
   "fields" :
   [
    {
     "referenced_type" : "_ZTIN7android7details5TVec4IdEUt_E"
    }
   ],
   "linker_set_key" : "_ZTIN7android7details5TVec4IdEE",
   "name" : "android::details::TVec4<double>",
   "record_kind" : "class",
   "referenced_type" : "_ZTIN7android7details5TVec4IdEE",
   "self_type" : "_ZTIN7android7details5TVec4IdEE",
   "size" : 32,
   "source_file" : "frameworks/native/libs/math/include/math/vec4.h",
   "template_args" : [ "_ZTId" ]
  },
  {
   "alignment" : 8,
   "fields" :
   [
    {
     "referenced_type" : "_ZTIN7android7details5TVec4IdEUt_Ut_E"
    },
    {
     "referenced_type" : "_ZTIN7android7details5TVec4IdEUt_Ut0_E"
    },
    {
     "referenced_type" : "_ZTIN7android7details5TVec4IdEUt_Ut1_E"
    },
    {
     "field_name" : "xy",
     "referenced_type" : "_ZTIN7android7details5TVec2IdEE"
    },
    {
     "field_name" : "st",
     "referenced_type" : "_ZTIN7android7details5TVec2IdEE"
    },
    {
     "field_name" : "rg",
     "referenced_type" : "_ZTIN7android7details5TVec2IdEE"
    },
    {
     "field_name" : "xyz",
     "referenced_type" : "_ZTIN7android7details5TVec3IdEE"
    },
    {
     "field_name" : "stp",
     "referenced_type" : "_ZTIN7android7details5TVec3IdEE"
    },
    {
     "field_name" : "rgb",
     "referenced_type" : "_ZTIN7android7details5TVec3IdEE"
    }
   ],
   "is_anonymous" : true,
   "linker_set_key" : "_ZTIN7android7details5TVec4IdEUt_E",
   "name" : "android::details::TVec4<double>::(anonymous union at frameworks/native/libs/math/include/math/vec4.h:47:5)",
   "record_kind" : "union",
   "referenced_type" : "_ZTIN7android7details5TVec4IdEUt_E",
   "self_type" : "_ZTIN7android7details5TVec4IdEUt_E",
   "size" : 32,
   "source_file" : "frameworks/native/libs/math/include/math/vec4.h"
  },
  {
   "alignment" : 8,
   "fields" :
   [
    {
     "field_name" : "s",
     "referenced_type" : "_ZTId"
    },
    {
     "field_name" : "t",
     "field_offset" : 64,
     "referenced_type" : "_ZTId"
    },
    {
     "field_name" : "p",
     "field_offset" : 128,
     "referenced_type" : "_ZTId"
    },
    {
     "field_name" : "q",
     "field_offset" : 192,
     "referenced_type" : "_ZTId"
    }
   ],
   "is_anonymous" : true,
   "linker_set_key" : "_ZTIN7android7details5TVec4IdEUt_Ut0_E",
   "name" : "android::details::TVec4<double>::(anonymous union at frameworks/native/libs/math/include/math/vec4.h:47:5)::(anonymous struct at frameworks/native/libs/math/include/math/vec4.h:49:9)",
   "referenced_type" : "_ZTIN7android7details5TVec4IdEUt_Ut0_E",
   "self_type" : "_ZTIN7android7details5TVec4IdEUt_Ut0_E",
   "size" : 32,
   "source_file" : "frameworks/native/libs/math/include/math/vec4.h"
  },
  {
   "alignment" : 8,
   "fields" :
   [
    {
     "field_name" : "r",
     "referenced_type" : "_ZTId"
    },
    {
     "field_name" : "g",
     "field_offset" : 64,
     "referenced_type" : "_ZTId"
    },
    {
     "field_name" : "b",
     "field_offset" : 128,
     "referenced_type" : "_ZTId"
    },
    {
     "field_name" : "a",
     "field_offset" : 192,
     "referenced_type" : "_ZTId"
    }
   ],
   "is_anonymous" : true,
   "linker_set_key" : "_ZTIN7android7details5TVec4IdEUt_Ut1_E",
   "name" : "android::details::TVec4<double>::(anonymous union at frameworks/native/libs/math/include/math/vec4.h:47:5)::(anonymous struct at frameworks/native/libs/math/include/math/vec4.h:50:9)",
   "referenced_type" : "_ZTIN7android7details5TVec4IdEUt_Ut1_E",
   "self_type" : "_ZTIN7android7details5TVec4IdEUt_Ut1_E",
   "size" : 32,
   "source_file" : "frameworks/native/libs/math/include/math/vec4.h"
  },
  {
   "alignment" : 8,
   "fields" :
   [
    {
     "field_name" : "x",
     "referenced_type" : "_ZTId"
    },
    {
     "field_name" : "y",
     "field_offset" : 64,
     "referenced_type" : "_ZTId"
    },
    {
     "field_name" : "z",
     "field_offset" : 128,
     "referenced_type" : "_ZTId"
    },
    {
     "field_name" : "w",
     "field_offset" : 192,
     "referenced_type" : "_ZTId"
    }
   ],
   "is_anonymous" : true,
   "linker_set_key" : "_ZTIN7android7details5TVec4IdEUt_Ut_E",
   "name" : "android::details::TVec4<double>::(anonymous union at frameworks/native/libs/math/include/math/vec4.h:47:5)::(anonymous struct at frameworks/native/libs/math/include/math/vec4.h:48:9)",
   "referenced_type" : "_ZTIN7android7details5TVec4IdEUt_Ut_E",
   "self_type" : "_ZTIN7android7details5TVec4IdEUt_Ut_E",
   "size" : 32,
   "source_file" : "frameworks/native/libs/math/include/math/vec4.h"
  },
  {
   "alignment" : 4,
   "base_specifiers" :
   [
    {
     "referenced_type" : "_ZTIN7android7details20TVecProductOperatorsINS0_5TVec4EfEE"
    },
    {
     "referenced_type" : "_ZTIN7android7details16TVecAddOperatorsINS0_5TVec4EfEE"
    },
    {
     "referenced_type" : "_ZTIN7android7details18TVecUnaryOperatorsINS0_5TVec4EfEE"
    },
    {
     "referenced_type" : "_ZTIN7android7details23TVecComparisonOperatorsINS0_5TVec4EfEE"
    },
    {
     "referenced_type" : "_ZTIN7android7details13TVecFunctionsINS0_5TVec4EfEE"
    },
    {
     "referenced_type" : "_ZTIN7android7details9TVecDebugINS0_5TVec4EfEE"
    }
   ],
   "fields" :
   [
    {
     "referenced_type" : "_ZTIN7android7details5TVec4IfEUt_E"
    }
   ],
   "linker_set_key" : "_ZTIN7android7details5TVec4IfEE",
   "name" : "android::details::TVec4<float>",
   "record_kind" : "class",
   "referenced_type" : "_ZTIN7android7details5TVec4IfEE",
   "self_type" : "_ZTIN7android7details5TVec4IfEE",
   "size" : 16,
   "source_file" : "frameworks/native/libs/math/include/math/vec4.h",
   "template_args" : [ "_ZTIf" ]
  },
  {
   "alignment" : 4,
   "fields" :
   [
    {
     "referenced_type" : "_ZTIN7android7details5TVec4IfEUt_Ut_E"
    },
    {
     "referenced_type" : "_ZTIN7android7details5TVec4IfEUt_Ut0_E"
    },
    {
     "referenced_type" : "_ZTIN7android7details5TVec4IfEUt_Ut1_E"
    },
    {
     "field_name" : "xy",
     "referenced_type" : "_ZTIN7android7details5TVec2IfEE"
    },
    {
     "field_name" : "st",
     "referenced_type" : "_ZTIN7android7details5TVec2IfEE"
    },
    {
     "field_name" : "rg",
     "referenced_type" : "_ZTIN7android7details5TVec2IfEE"
    },
    {
     "field_name" : "xyz",
     "referenced_type" : "_ZTIN7android7details5TVec3IfEE"
    },
    {
     "field_name" : "stp",
     "referenced_type" : "_ZTIN7android7details5TVec3IfEE"
    },
    {
     "field_name" : "rgb",
     "referenced_type" : "_ZTIN7android7details5TVec3IfEE"
    }
   ],
   "is_anonymous" : true,
   "linker_set_key" : "_ZTIN7android7details5TVec4IfEUt_E",
   "name" : "android::details::TVec4<float>::(anonymous union at frameworks/native/libs/math/include/math/vec4.h:47:5)",
   "record_kind" : "union",
   "referenced_type" : "_ZTIN7android7details5TVec4IfEUt_E",
   "self_type" : "_ZTIN7android7details5TVec4IfEUt_E",
   "size" : 16,
   "source_file" : "frameworks/native/libs/math/include/math/vec4.h"
  },
  {
   "alignment" : 4,
   "fields" :
   [
    {
     "field_name" : "s",
     "referenced_type" : "_ZTIf"
    },
    {
     "field_name" : "t",
     "field_offset" : 32,
     "referenced_type" : "_ZTIf"
    },
    {
     "field_name" : "p",
     "field_offset" : 64,
     "referenced_type" : "_ZTIf"
    },
    {
     "field_name" : "q",
     "field_offset" : 96,
     "referenced_type" : "_ZTIf"
    }
   ],
   "is_anonymous" : true,
   "linker_set_key" : "_ZTIN7android7details5TVec4IfEUt_Ut0_E",
   "name" : "android::details::TVec4<float>::(anonymous union at frameworks/native/libs/math/include/math/vec4.h:47:5)::(anonymous struct at frameworks/native/libs/math/include/math/vec4.h:49:9)",
   "referenced_type" : "_ZTIN7android7details5TVec4IfEUt_Ut0_E",
   "self_type" : "_ZTIN7android7details5TVec4IfEUt_Ut0_E",
   "size" : 16,
   "source_file" : "frameworks/native/libs/math/include/math/vec4.h"
  },
  {
   "alignment" : 4,
   "fields" :
   [
    {
     "field_name" : "r",
     "referenced_type" : "_ZTIf"
    },
    {
     "field_name" : "g",
     "field_offset" : 32,
     "referenced_type" : "_ZTIf"
    },
    {
     "field_name" : "b",
     "field_offset" : 64,
     "referenced_type" : "_ZTIf"
    },
    {
     "field_name" : "a",
     "field_offset" : 96,
     "referenced_type" : "_ZTIf"
    }
   ],
   "is_anonymous" : true,
   "linker_set_key" : "_ZTIN7android7details5TVec4IfEUt_Ut1_E",
   "name" : "android::details::TVec4<float>::(anonymous union at frameworks/native/libs/math/include/math/vec4.h:47:5)::(anonymous struct at frameworks/native/libs/math/include/math/vec4.h:50:9)",
   "referenced_type" : "_ZTIN7android7details5TVec4IfEUt_Ut1_E",
   "self_type" : "_ZTIN7android7details5TVec4IfEUt_Ut1_E",
   "size" : 16,
   "source_file" : "frameworks/native/libs/math/include/math/vec4.h"
  },
  {
   "alignment" : 4,
   "fields" :
   [
    {
     "field_name" : "x",
     "referenced_type" : "_ZTIf"
    },
    {
     "field_name" : "y",
     "field_offset" : 32,
     "referenced_type" : "_ZTIf"
    },
    {
     "field_name" : "z",
     "field_offset" : 64,
     "referenced_type" : "_ZTIf"
    },
    {
     "field_name" : "w",
     "field_offset" : 96,
     "referenced_type" : "_ZTIf"
    }
   ],
   "is_anonymous" : true,
   "linker_set_key" : "_ZTIN7android7details5TVec4IfEUt_Ut_E",
   "name" : "android::details::TVec4<float>::(anonymous union at frameworks/native/libs/math/include/math/vec4.h:47:5)::(anonymous struct at frameworks/native/libs/math/include/math/vec4.h:48:9)",
   "referenced_type" : "_ZTIN7android7details5TVec4IfEUt_Ut_E",
   "self_type" : "_ZTIN7android7details5TVec4IfEUt_Ut_E",
   "size" : 16,
   "source_file" : "frameworks/native/libs/math/include/math/vec4.h"
  },
  {
   "alignment" : 4,
   "base_specifiers" :
   [
    {
     "referenced_type" : "_ZTIN7android7details18TVecUnaryOperatorsINS0_6TMat33EfEE"
    },
    {
     "referenced_type" : "_ZTIN7android7details23TVecComparisonOperatorsINS0_6TMat33EfEE"
    },
    {
     "referenced_type" : "_ZTIN7android7details16TVecAddOperatorsINS0_6TMat33EfEE"
    },
    {
     "referenced_type" : "_ZTIN7android7details20TMatProductOperatorsINS0_6TMat33EfEE"
    },
    {
     "referenced_type" : "_ZTIN7android7details19TMatSquareFunctionsINS0_6TMat33EfEE"
    },
    {
     "referenced_type" : "_ZTIN7android7details13TMatTransformINS0_6TMat33EfEE"
    },
    {
     "referenced_type" : "_ZTIN7android7details11TMatHelpersINS0_6TMat33EfEE"
    },
    {
     "referenced_type" : "_ZTIN7android7details9TMatDebugINS0_6TMat33EfEE"
    }
   ],
   "fields" :
   [
    {
     "access" : "private",
     "field_name" : "m_value",
     "referenced_type" : "_ZTIA3_N7android7details5TVec3IfEE"
    }
   ],
   "linker_set_key" : "_ZTIN7android7details6TMat33IfEE",
   "name" : "android::details::TMat33<float>",
   "record_kind" : "class",
   "referenced_type" : "_ZTIN7android7details6TMat33IfEE",
   "self_type" : "_ZTIN7android7details6TMat33IfEE",
   "size" : 36,
   "source_file" : "frameworks/native/libs/math/include/math/mat3.h",
   "template_args" : [ "_ZTIf" ]
  },
  {
   "alignment" : 1,
   "linker_set_key" : "_ZTIN7android7details9TMatDebugINS0_6TMat33EfEE",
   "name" : "android::details::TMatDebug<android::details::TMat33, float>",
   "record_kind" : "class",
   "referenced_type" : "_ZTIN7android7details9TMatDebugINS0_6TMat33EfEE",
   "self_type" : "_ZTIN7android7details9TMatDebugINS0_6TMat33EfEE",
   "size" : 1,
   "source_file" : "frameworks/native/libs/math/include/math/TMatHelpers.h",
   "template_args" : [ "_ZTIf" ]
  },
  {
   "alignment" : 1,
   "linker_set_key" : "_ZTIN7android7details9TVecDebugINS0_5TVec2EbEE",
   "name" : "android::details::TVecDebug<android::details::TVec2, bool>",
   "record_kind" : "class",
   "referenced_type" : "_ZTIN7android7details9TVecDebugINS0_5TVec2EbEE",
   "self_type" : "_ZTIN7android7details9TVecDebugINS0_5TVec2EbEE",
   "size" : 1,
   "source_file" : "frameworks/native/libs/math/include/math/TVecHelpers.h",
   "template_args" : [ "_ZTIb" ]
  },
  {
   "alignment" : 1,
   "linker_set_key" : "_ZTIN7android7details9TVecDebugINS0_5TVec2EdEE",
   "name" : "android::details::TVecDebug<android::details::TVec2, double>",
   "record_kind" : "class",
   "referenced_type" : "_ZTIN7android7details9TVecDebugINS0_5TVec2EdEE",
   "self_type" : "_ZTIN7android7details9TVecDebugINS0_5TVec2EdEE",
   "size" : 1,
   "source_file" : "frameworks/native/libs/math/include/math/TVecHelpers.h",
   "template_args" : [ "_ZTId" ]
  },
  {
   "alignment" : 1,
   "linker_set_key" : "_ZTIN7android7details9TVecDebugINS0_5TVec2EfEE",
   "name" : "android::details::TVecDebug<android::details::TVec2, float>",
   "record_kind" : "class",
   "referenced_type" : "_ZTIN7android7details9TVecDebugINS0_5TVec2EfEE",
   "self_type" : "_ZTIN7android7details9TVecDebugINS0_5TVec2EfEE",
   "size" : 1,
   "source_file" : "frameworks/native/libs/math/include/math/TVecHelpers.h",
   "template_args" : [ "_ZTIf" ]
  },
  {
   "alignment" : 1,
   "linker_set_key" : "_ZTIN7android7details9TVecDebugINS0_5TVec3EdEE",
   "name" : "android::details::TVecDebug<android::details::TVec3, double>",
   "record_kind" : "class",
   "referenced_type" : "_ZTIN7android7details9TVecDebugINS0_5TVec3EdEE",
   "self_type" : "_ZTIN7android7details9TVecDebugINS0_5TVec3EdEE",
   "size" : 1,
   "source_file" : "frameworks/native/libs/math/include/math/TVecHelpers.h",
   "template_args" : [ "_ZTId" ]
  },
  {
   "alignment" : 1,
   "linker_set_key" : "_ZTIN7android7details9TVecDebugINS0_5TVec3EfEE",
   "name" : "android::details::TVecDebug<android::details::TVec3, float>",
   "record_kind" : "class",
   "referenced_type" : "_ZTIN7android7details9TVecDebugINS0_5TVec3EfEE",
   "self_type" : "_ZTIN7android7details9TVecDebugINS0_5TVec3EfEE",
   "size" : 1,
   "source_file" : "frameworks/native/libs/math/include/math/TVecHelpers.h",
   "template_args" : [ "_ZTIf" ]
  },
  {
   "alignment" : 1,
   "linker_set_key" : "_ZTIN7android7details9TVecDebugINS0_5TVec4EdEE",
   "name" : "android::details::TVecDebug<android::details::TVec4, double>",
   "record_kind" : "class",
   "referenced_type" : "_ZTIN7android7details9TVecDebugINS0_5TVec4EdEE",
   "self_type" : "_ZTIN7android7details9TVecDebugINS0_5TVec4EdEE",
   "size" : 1,
   "source_file" : "frameworks/native/libs/math/include/math/TVecHelpers.h",
   "template_args" : [ "_ZTId" ]
  },
  {
   "alignment" : 1,
   "linker_set_key" : "_ZTIN7android7details9TVecDebugINS0_5TVec4EfEE",
   "name" : "android::details::TVecDebug<android::details::TVec4, float>",
   "record_kind" : "class",
   "referenced_type" : "_ZTIN7android7details9TVecDebugINS0_5TVec4EfEE",
   "self_type" : "_ZTIN7android7details9TVecDebugINS0_5TVec4EfEE",
   "size" : 1,
   "source_file" : "frameworks/native/libs/math/include/math/TVecHelpers.h",
   "template_args" : [ "_ZTIf" ]
  },
  {
   "alignment" : 1,
   "linker_set_key" : "_ZTINSt3__114numeric_limitsIN7android4halfEEE",
   "name" : "std::numeric_limits<android::half>",
   "record_kind" : "class",
   "referenced_type" : "_ZTINSt3__114numeric_limitsIN7android4halfEEE",
   "self_type" : "_ZTINSt3__114numeric_limitsIN7android4halfEEE",
   "size" : 1,
   "source_file" : "frameworks/native/libs/math/include/math/half.h",
   "template_args" : [ "_ZTIN7android4halfE" ]
  },
  {
   "alignment" : 1,
   "base_specifiers" :
   [
    {
     "referenced_type" : "_ZTINSt3__117integral_constantIbLb1EEE"
    }
   ],
   "linker_set_key" : "_ZTINSt3__117is_floating_pointIN7android4halfEEE",
   "name" : "std::is_floating_point<android::half>",
   "referenced_type" : "_ZTINSt3__117is_floating_pointIN7android4halfEEE",
   "self_type" : "_ZTINSt3__117is_floating_pointIN7android4halfEEE",
   "size" : 1,
   "source_file" : "frameworks/native/libs/math/include/math/half.h",
   "template_args" : [ "_ZTIN7android4halfE" ]
  },
  {
   "alignment" : 1,
   "linker_set_key" : "_ZTINSt3__14hashIN7android4halfEEE",
   "name" : "std::hash<android::half>",
   "referenced_type" : "_ZTINSt3__14hashIN7android4halfEEE",
   "self_type" : "_ZTINSt3__14hashIN7android4halfEEE",
   "size" : 1,
   "source_file" : "frameworks/native/libs/math/include/math/half.h",
   "template_args" : [ "_ZTIN7android4halfE" ]
  }
 ],
 "rvalue_reference_types" : []
}
