{
 "array_types" :
 [
  {
   "alignment" : 1,
   "linker_set_key" : "_ZTIA64_c",
   "name" : "char [64]",
   "referenced_type" : "_ZTIc",
   "self_type" : "_ZTIA64_c",
   "size" : 64,
   "source_file" : "frameworks/native/libs/ui/include/ui/FatVector.h"
  }
 ],
 "builtin_types" :
 [
  {
   "alignment" : 1,
   "is_integral" : true,
   "is_unsigned" : true,
   "linker_set_key" : "_ZTIb",
   "name" : "bool",
   "referenced_type" : "_ZTIb",
   "self_type" : "_ZTIb",
   "size" : 1
  },
  {
   "alignment" : 1,
   "is_integral" : true,
   "is_unsigned" : true,
   "linker_set_key" : "_ZTIc",
   "name" : "char",
   "referenced_type" : "_ZTIc",
   "self_type" : "_ZTIc",
   "size" : 1
  },
  {
   "alignment" : 4,
   "linker_set_key" : "_ZTIf",
   "name" : "float",
   "referenced_type" : "_ZTIf",
   "self_type" : "_ZTIf",
   "size" : 4
  },
  {
   "alignment" : 4,
   "is_integral" : true,
   "linker_set_key" : "_ZTIi",
   "name" : "int",
   "referenced_type" : "_ZTIi",
   "self_type" : "_ZTIi",
   "size" : 4
  },
  {
   "alignment" : 4,
   "is_integral" : true,
   "is_unsigned" : true,
   "linker_set_key" : "_ZTIj",
   "name" : "unsigned int",
   "referenced_type" : "_ZTIj",
   "self_type" : "_ZTIj",
   "size" : 4
  },
  {
   "linker_set_key" : "_ZTIv",
   "name" : "void",
   "referenced_type" : "_ZTIv",
   "self_type" : "_ZTIv"
  }
 ],
 "elf_functions" : [],
 "elf_objects" : [],
 "enum_types" :
 [
  {
   "alignment" : 4,
   "enum_fields" :
   [
    {
     "enum_field_value" : 0,
     "name" : "android::region_operator<android::Rect>::SpannerBase::lhs_before_rhs"
    },
    {
     "enum_field_value" : 1,
     "name" : "android::region_operator<android::Rect>::SpannerBase::lhs_after_rhs"
    },
    {
     "enum_field_value" : 2,
     "name" : "android::region_operator<android::Rect>::SpannerBase::lhs_coincide_rhs"
    }
   ],
   "linker_set_key" : "_ZTIN7android15region_operatorINS_4RectEE11SpannerBase14$lhs_after_rhsE",
   "name" : "android::region_operator<Rect>::SpannerBase::(anonymous enum at frameworks/native/libs/ui/include_private/ui/RegionHelper.h:97:9)",
   "referenced_type" : "_ZTIN7android15region_operatorINS_4RectEE11SpannerBase14$lhs_after_rhsE",
   "self_type" : "_ZTIN7android15region_operatorINS_4RectEE11SpannerBase14$lhs_after_rhsE",
   "size" : 4,
   "source_file" : "frameworks/native/libs/ui/include_private/ui/RegionHelper.h",
   "underlying_type" : "_ZTIj"
  },
  {
   "alignment" : 4,
   "enum_fields" :
   [
    {
     "enum_field_value" : 1,
     "name" : "android::region_operator<android::Rect>::op_nand"
    },
    {
     "enum_field_value" : 4,
     "name" : "android::region_operator<android::Rect>::op_and"
    },
    {
     "enum_field_value" : 7,
     "name" : "android::region_operator<android::Rect>::op_or"
    },
    {
     "enum_field_value" : 3,
     "name" : "android::region_operator<android::Rect>::op_xor"
    }
   ],
   "linker_set_key" : "_ZTIN7android15region_operatorINS_4RectEE7$op_andE",
   "name" : "android::region_operator<Rect>::(anonymous enum at frameworks/native/libs/ui/include_private/ui/RegionHelper.h:44:5)",
   "referenced_type" : "_ZTIN7android15region_operatorINS_4RectEE7$op_andE",
   "self_type" : "_ZTIN7android15region_operatorINS_4RectEE7$op_andE",
   "size" : 4,
   "source_file" : "frameworks/native/libs/ui/include_private/ui/RegionHelper.h",
   "underlying_type" : "_ZTIj"
  },
  {
   "alignment" : 4,
   "enum_fields" :
   [
    {
     "enum_field_value" : 1,
     "name" : "android::trait_trivial_copy<android::Rect>::value"
    }
   ],
   "linker_set_key" : "_ZTIN7android18trait_trivial_copyINS_4RectEE6$valueE",
   "name" : "android::trait_trivial_copy<Rect>::(anonymous enum at frameworks/native/libs/ui/include/ui/Rect.h:234:1)",
   "referenced_type" : "_ZTIN7android18trait_trivial_copyINS_4RectEE6$valueE",
   "self_type" : "_ZTIN7android18trait_trivial_copyINS_4RectEE6$valueE",
   "size" : 4,
   "source_file" : "frameworks/native/libs/ui/include/ui/Rect.h",
   "underlying_type" : "_ZTIj"
  },
  {
   "alignment" : 4,
   "enum_fields" :
   [
    {
     "enum_field_value" : 1,
     "name" : "android::trait_trivial_copy<android::Point>::value"
    }
   ],
   "linker_set_key" : "_ZTIN7android18trait_trivial_copyINS_5PointEE6$valueE",
   "name" : "android::trait_trivial_copy<Point>::(anonymous enum at frameworks/native/libs/ui/include/ui/Point.h:84:1)",
   "referenced_type" : "_ZTIN7android18trait_trivial_copyINS_5PointEE6$valueE",
   "self_type" : "_ZTIN7android18trait_trivial_copyINS_5PointEE6$valueE",
   "size" : 4,
   "source_file" : "frameworks/native/libs/ui/include/ui/Point.h",
   "underlying_type" : "_ZTIj"
  },
  {
   "alignment" : 4,
   "enum_fields" :
   [
    {
     "enum_field_value" : 1,
     "name" : "android::trait_trivial_ctor<android::Rect>::value"
    }
   ],
   "linker_set_key" : "_ZTIN7android18trait_trivial_ctorINS_4RectEE6$valueE",
   "name" : "android::trait_trivial_ctor<Rect>::(anonymous enum at frameworks/native/libs/ui/include/ui/Rect.h:234:1)",
   "referenced_type" : "_ZTIN7android18trait_trivial_ctorINS_4RectEE6$valueE",
   "self_type" : "_ZTIN7android18trait_trivial_ctorINS_4RectEE6$valueE",
   "size" : 4,
   "source_file" : "frameworks/native/libs/ui/include/ui/Rect.h",
   "underlying_type" : "_ZTIj"
  },
  {
   "alignment" : 4,
   "enum_fields" :
   [
    {
     "enum_field_value" : 1,
     "name" : "android::trait_trivial_ctor<android::Point>::value"
    }
   ],
   "linker_set_key" : "_ZTIN7android18trait_trivial_ctorINS_5PointEE6$valueE",
   "name" : "android::trait_trivial_ctor<Point>::(anonymous enum at frameworks/native/libs/ui/include/ui/Point.h:84:1)",
   "referenced_type" : "_ZTIN7android18trait_trivial_ctorINS_5PointEE6$valueE",
   "self_type" : "_ZTIN7android18trait_trivial_ctorINS_5PointEE6$valueE",
   "size" : 4,
   "source_file" : "frameworks/native/libs/ui/include/ui/Point.h",
   "underlying_type" : "_ZTIj"
  },
  {
   "alignment" : 4,
   "enum_fields" :
   [
    {
     "enum_field_value" : 1,
     "name" : "android::trait_trivial_dtor<android::Rect>::value"
    }
   ],
   "linker_set_key" : "_ZTIN7android18trait_trivial_dtorINS_4RectEE6$valueE",
   "name" : "android::trait_trivial_dtor<Rect>::(anonymous enum at frameworks/native/libs/ui/include/ui/Rect.h:234:1)",
   "referenced_type" : "_ZTIN7android18trait_trivial_dtorINS_4RectEE6$valueE",
   "self_type" : "_ZTIN7android18trait_trivial_dtorINS_4RectEE6$valueE",
   "size" : 4,
   "source_file" : "frameworks/native/libs/ui/include/ui/Rect.h",
   "underlying_type" : "_ZTIj"
  },
  {
   "alignment" : 4,
   "enum_fields" :
   [
    {
     "enum_field_value" : 1,
     "name" : "android::trait_trivial_dtor<android::Point>::value"
    }
   ],
   "linker_set_key" : "_ZTIN7android18trait_trivial_dtorINS_5PointEE6$valueE",
   "name" : "android::trait_trivial_dtor<Point>::(anonymous enum at frameworks/native/libs/ui/include/ui/Point.h:84:1)",
   "referenced_type" : "_ZTIN7android18trait_trivial_dtorINS_5PointEE6$valueE",
   "self_type" : "_ZTIN7android18trait_trivial_dtorINS_5PointEE6$valueE",
   "size" : 4,
   "source_file" : "frameworks/native/libs/ui/include/ui/Point.h",
   "underlying_type" : "_ZTIj"
  },
  {
   "alignment" : 4,
   "enum_fields" :
   [
    {
     "enum_field_value" : 1,
     "name" : "android::trait_trivial_move<android::Rect>::value"
    }
   ],
   "linker_set_key" : "_ZTIN7android18trait_trivial_moveINS_4RectEE6$valueE",
   "name" : "android::trait_trivial_move<Rect>::(anonymous enum at frameworks/native/libs/ui/include/ui/Rect.h:234:1)",
   "referenced_type" : "_ZTIN7android18trait_trivial_moveINS_4RectEE6$valueE",
   "self_type" : "_ZTIN7android18trait_trivial_moveINS_4RectEE6$valueE",
   "size" : 4,
   "source_file" : "frameworks/native/libs/ui/include/ui/Rect.h",
   "underlying_type" : "_ZTIj"
  },
  {
   "alignment" : 4,
   "enum_fields" :
   [
    {
     "enum_field_value" : 1,
     "name" : "android::trait_trivial_move<android::Point>::value"
    }
   ],
   "linker_set_key" : "_ZTIN7android18trait_trivial_moveINS_5PointEE6$valueE",
   "name" : "android::trait_trivial_move<Point>::(anonymous enum at frameworks/native/libs/ui/include/ui/Point.h:84:1)",
   "referenced_type" : "_ZTIN7android18trait_trivial_moveINS_5PointEE6$valueE",
   "self_type" : "_ZTIN7android18trait_trivial_moveINS_5PointEE6$valueE",
   "size" : 4,
   "source_file" : "frameworks/native/libs/ui/include/ui/Point.h",
   "underlying_type" : "_ZTIj"
  }
 ],
 "function_types" : [],
 "functions" :
 [
  {
   "access" : "protected",
   "function_name" : "android::region_operator<android::Rect>::SpannerBase::next",
   "linker_set_key" : "_ZN7android15region_operatorINS_4RectEE11SpannerBase4nextERiS4_RbS5_",
   "parameters" :
   [
    {
     "is_this_ptr" : true,
     "referenced_type" : "_ZTIPN7android15region_operatorINS_4RectEE11SpannerBaseE"
    },
    {
     "referenced_type" : "_ZTIRi"
    },
    {
     "referenced_type" : "_ZTIRi"
    },
    {
     "referenced_type" : "_ZTIRb"
    },
    {
     "referenced_type" : "_ZTIRb"
    }
   ],
   "return_type" : "_ZTIi",
   "source_file" : "frameworks/native/libs/ui/include_private/ui/RegionHelper.h"
  },
  {
   "function_name" : "android::region_operator<android::Rect>::SpannerBase::SpannerBase",
   "linker_set_key" : "_ZN7android15region_operatorINS_4RectEE11SpannerBaseC1Ev",
   "parameters" :
   [
    {
     "is_this_ptr" : true,
     "referenced_type" : "_ZTIPN7android15region_operatorINS_4RectEE11SpannerBaseE"
    }
   ],
   "return_type" : "_ZTIv",
   "source_file" : "frameworks/native/libs/ui/include_private/ui/RegionHelper.h"
  },
  {
   "function_name" : "android::region_operator<android::Rect>::SpannerBase::SpannerBase",
   "linker_set_key" : "_ZN7android15region_operatorINS_4RectEE11SpannerBaseC2Ev",
   "parameters" :
   [
    {
     "is_this_ptr" : true,
     "referenced_type" : "_ZTIPN7android15region_operatorINS_4RectEE11SpannerBaseE"
    }
   ],
   "return_type" : "_ZTIv",
   "source_file" : "frameworks/native/libs/ui/include_private/ui/RegionHelper.h"
  },
  {
   "function_name" : "android::region_operator<android::Rect>::SpannerInner::next",
   "linker_set_key" : "_ZN7android15region_operatorINS_4RectEE12SpannerInner4nextERiS4_",
   "parameters" :
   [
    {
     "is_this_ptr" : true,
     "referenced_type" : "_ZTIPN7android15region_operatorINS_4RectEE12SpannerInnerE"
    },
    {
     "referenced_type" : "_ZTIRi"
    },
    {
     "referenced_type" : "_ZTIRi"
    }
   ],
   "return_type" : "_ZTIi",
   "source_file" : "frameworks/native/libs/ui/include_private/ui/RegionHelper.h"
  },
  {
   "access" : "private",
   "function_name" : "android::region_operator<android::Rect>::SpannerInner::advance",
   "linker_set_key" : "_ZN7android15region_operatorINS_4RectEE12SpannerInner7advanceERNS2_6regionERiS6_",
   "parameters" :
   [
    {
     "referenced_type" : "_ZTIRN7android15region_operatorINS_4RectEE6regionE"
    },
    {
     "referenced_type" : "_ZTIRi"
    },
    {
     "referenced_type" : "_ZTIRi"
    }
   ],
   "return_type" : "_ZTIv",
   "source_file" : "frameworks/native/libs/ui/include_private/ui/RegionHelper.h"
  },
  {
   "function_name" : "android::region_operator<android::Rect>::SpannerInner::prepare",
   "linker_set_key" : "_ZN7android15region_operatorINS_4RectEE12SpannerInner7prepareEi",
   "parameters" :
   [
    {
     "is_this_ptr" : true,
     "referenced_type" : "_ZTIPN7android15region_operatorINS_4RectEE12SpannerInnerE"
    },
    {
     "referenced_type" : "_ZTIi"
    }
   ],
   "return_type" : "_ZTIv",
   "source_file" : "frameworks/native/libs/ui/include_private/ui/RegionHelper.h"
  },
  {
   "function_name" : "android::region_operator<android::Rect>::SpannerInner::SpannerInner",
   "linker_set_key" : "_ZN7android15region_operatorINS_4RectEE12SpannerInnerC1ERKNS2_6regionES6_",
   "parameters" :
   [
    {
     "is_this_ptr" : true,
     "referenced_type" : "_ZTIPN7android15region_operatorINS_4RectEE12SpannerInnerE"
    },
    {
     "referenced_type" : "_ZTIRKN7android15region_operatorINS_4RectEE6regionE"
    },
    {
     "referenced_type" : "_ZTIRKN7android15region_operatorINS_4RectEE6regionE"
    }
   ],
   "return_type" : "_ZTIv",
   "source_file" : "frameworks/native/libs/ui/include_private/ui/RegionHelper.h"
  },
  {
   "function_name" : "android::region_operator<android::Rect>::SpannerInner::SpannerInner",
   "linker_set_key" : "_ZN7android15region_operatorINS_4RectEE12SpannerInnerC2ERKNS2_6regionES6_",
   "parameters" :
   [
    {
     "is_this_ptr" : true,
     "referenced_type" : "_ZTIPN7android15region_operatorINS_4RectEE12SpannerInnerE"
    },
    {
     "referenced_type" : "_ZTIRKN7android15region_operatorINS_4RectEE6regionE"
    },
    {
     "referenced_type" : "_ZTIRKN7android15region_operatorINS_4RectEE6regionE"
    }
   ],
   "return_type" : "_ZTIv",
   "source_file" : "frameworks/native/libs/ui/include_private/ui/RegionHelper.h"
  },
  {
   "function_name" : "android::region_operator<android::Rect>::region_rasterizer::~region_rasterizer",
   "linker_set_key" : "_ZN7android15region_operatorINS_4RectEE17region_rasterizerD0Ev",
   "parameters" :
   [
    {
     "is_this_ptr" : true,
     "referenced_type" : "_ZTIPN7android15region_operatorINS_4RectEE17region_rasterizerE"
    }
   ],
   "return_type" : "_ZTIv",
   "source_file" : "frameworks/native/libs/ui/include_private/ui/RegionHelper.h"
  },
  {
   "function_name" : "android::region_operator<android::Rect>::region_rasterizer::~region_rasterizer",
   "linker_set_key" : "_ZN7android15region_operatorINS_4RectEE17region_rasterizerD1Ev",
   "parameters" :
   [
    {
     "is_this_ptr" : true,
     "referenced_type" : "_ZTIPN7android15region_operatorINS_4RectEE17region_rasterizerE"
    }
   ],
   "return_type" : "_ZTIv",
   "source_file" : "frameworks/native/libs/ui/include_private/ui/RegionHelper.h"
  },
  {
   "function_name" : "android::region_operator<android::Rect>::region_rasterizer::~region_rasterizer",
   "linker_set_key" : "_ZN7android15region_operatorINS_4RectEE17region_rasterizerD2Ev",
   "parameters" :
   [
    {
     "is_this_ptr" : true,
     "referenced_type" : "_ZTIPN7android15region_operatorINS_4RectEE17region_rasterizerE"
    }
   ],
   "return_type" : "_ZTIv",
   "source_file" : "frameworks/native/libs/ui/include_private/ui/RegionHelper.h"
  },
  {
   "function_name" : "android::region_operator<android::Rect>::region::region",
   "linker_set_key" : "_ZN7android15region_operatorINS_4RectEE6regionC1EPKS1_j",
   "parameters" :
   [
    {
     "is_this_ptr" : true,
     "referenced_type" : "_ZTIPN7android15region_operatorINS_4RectEE6regionE"
    },
    {
     "referenced_type" : "_ZTIPKN7android4RectE"
    },
    {
     "referenced_type" : "_ZTIj"
    }
   ],
   "return_type" : "_ZTIv",
   "source_file" : "frameworks/native/libs/ui/include_private/ui/RegionHelper.h"
  },
  {
   "function_name" : "android::region_operator<android::Rect>::region::region",
   "linker_set_key" : "_ZN7android15region_operatorINS_4RectEE6regionC1EPKS1_jii",
   "parameters" :
   [
    {
     "is_this_ptr" : true,
     "referenced_type" : "_ZTIPN7android15region_operatorINS_4RectEE6regionE"
    },
    {
     "referenced_type" : "_ZTIPKN7android4RectE"
    },
    {
     "referenced_type" : "_ZTIj"
    },
    {
     "referenced_type" : "_ZTIi"
    },
    {
     "referenced_type" : "_ZTIi"
    }
   ],
   "return_type" : "_ZTIv",
   "source_file" : "frameworks/native/libs/ui/include_private/ui/RegionHelper.h"
  },
  {
   "function_name" : "android::region_operator<android::Rect>::region::region",
   "linker_set_key" : "_ZN7android15region_operatorINS_4RectEE6regionC1ERKS3_",
   "parameters" :
   [
    {
     "is_this_ptr" : true,
     "referenced_type" : "_ZTIPN7android15region_operatorINS_4RectEE6regionE"
    },
    {
     "referenced_type" : "_ZTIRKN7android15region_operatorINS_4RectEE6regionE"
    }
   ],
   "return_type" : "_ZTIv",
   "source_file" : "frameworks/native/libs/ui/include_private/ui/RegionHelper.h"
  },
  {
   "function_name" : "android::region_operator<android::Rect>::region::region",
   "linker_set_key" : "_ZN7android15region_operatorINS_4RectEE6regionC2EPKS1_j",
   "parameters" :
   [
    {
     "is_this_ptr" : true,
     "referenced_type" : "_ZTIPN7android15region_operatorINS_4RectEE6regionE"
    },
    {
     "referenced_type" : "_ZTIPKN7android4RectE"
    },
    {
     "referenced_type" : "_ZTIj"
    }
   ],
   "return_type" : "_ZTIv",
   "source_file" : "frameworks/native/libs/ui/include_private/ui/RegionHelper.h"
  },
  {
   "function_name" : "android::region_operator<android::Rect>::region::region",
   "linker_set_key" : "_ZN7android15region_operatorINS_4RectEE6regionC2EPKS1_jii",
   "parameters" :
   [
    {
     "is_this_ptr" : true,
     "referenced_type" : "_ZTIPN7android15region_operatorINS_4RectEE6regionE"
    },
    {
     "referenced_type" : "_ZTIPKN7android4RectE"
    },
    {
     "referenced_type" : "_ZTIj"
    },
    {
     "referenced_type" : "_ZTIi"
    },
    {
     "referenced_type" : "_ZTIi"
    }
   ],
   "return_type" : "_ZTIv",
   "source_file" : "frameworks/native/libs/ui/include_private/ui/RegionHelper.h"
  },
  {
   "function_name" : "android::region_operator<android::Rect>::region::region",
   "linker_set_key" : "_ZN7android15region_operatorINS_4RectEE6regionC2ERKS3_",
   "parameters" :
   [
    {
     "is_this_ptr" : true,
     "referenced_type" : "_ZTIPN7android15region_operatorINS_4RectEE6regionE"
    },
    {
     "referenced_type" : "_ZTIRKN7android15region_operatorINS_4RectEE6regionE"
    }
   ],
   "return_type" : "_ZTIv",
   "source_file" : "frameworks/native/libs/ui/include_private/ui/RegionHelper.h"
  },
  {
   "function_name" : "android::region_operator<android::Rect>::Spanner::next",
   "linker_set_key" : "_ZN7android15region_operatorINS_4RectEE7Spanner4nextERiS4_",
   "parameters" :
   [
    {
     "is_this_ptr" : true,
     "referenced_type" : "_ZTIPN7android15region_operatorINS_4RectEE7SpannerE"
    },
    {
     "referenced_type" : "_ZTIRi"
    },
    {
     "referenced_type" : "_ZTIRi"
    }
   ],
   "return_type" : "_ZTIi",
   "source_file" : "frameworks/native/libs/ui/include_private/ui/RegionHelper.h"
  },
  {
   "access" : "private",
   "function_name" : "android::region_operator<android::Rect>::Spanner::advance",
   "linker_set_key" : "_ZN7android15region_operatorINS_4RectEE7Spanner7advanceERNS2_6regionERiS6_",
   "parameters" :
   [
    {
     "referenced_type" : "_ZTIRN7android15region_operatorINS_4RectEE6regionE"
    },
    {
     "referenced_type" : "_ZTIRi"
    },
    {
     "referenced_type" : "_ZTIRi"
    }
   ],
   "return_type" : "_ZTIv",
   "source_file" : "frameworks/native/libs/ui/include_private/ui/RegionHelper.h"
  },
  {
   "function_name" : "android::region_operator<android::Rect>::Spanner::Spanner",
   "linker_set_key" : "_ZN7android15region_operatorINS_4RectEE7SpannerC1ERKNS2_6regionES6_",
   "parameters" :
   [
    {
     "is_this_ptr" : true,
     "referenced_type" : "_ZTIPN7android15region_operatorINS_4RectEE7SpannerE"
    },
    {
     "referenced_type" : "_ZTIRKN7android15region_operatorINS_4RectEE6regionE"
    },
    {
     "referenced_type" : "_ZTIRKN7android15region_operatorINS_4RectEE6regionE"
    }
   ],
   "return_type" : "_ZTIv",
   "source_file" : "frameworks/native/libs/ui/include_private/ui/RegionHelper.h"
  },
  {
   "function_name" : "android::region_operator<android::Rect>::Spanner::Spanner",
   "linker_set_key" : "_ZN7android15region_operatorINS_4RectEE7SpannerC2ERKNS2_6regionES6_",
   "parameters" :
   [
    {
     "is_this_ptr" : true,
     "referenced_type" : "_ZTIPN7android15region_operatorINS_4RectEE7SpannerE"
    },
    {
     "referenced_type" : "_ZTIRKN7android15region_operatorINS_4RectEE6regionE"
    },
    {
     "referenced_type" : "_ZTIRKN7android15region_operatorINS_4RectEE6regionE"
    }
   ],
   "return_type" : "_ZTIv",
   "source_file" : "frameworks/native/libs/ui/include_private/ui/RegionHelper.h"
  },
  {
   "function_name" : "android::region_operator<android::Rect>::region_operator",
   "linker_set_key" : "_ZN7android15region_operatorINS_4RectEEC1EjRKNS2_6regionES5_",
   "parameters" :
   [
    {
     "is_this_ptr" : true,
     "referenced_type" : "_ZTIPN7android15region_operatorINS_4RectEEE"
    },
    {
     "referenced_type" : "_ZTIj"
    },
    {
     "referenced_type" : "_ZTIRKN7android15region_operatorINS_4RectEE6regionE"
    },
    {
     "referenced_type" : "_ZTIRKN7android15region_operatorINS_4RectEE6regionE"
    }
   ],
   "return_type" : "_ZTIv",
   "source_file" : "frameworks/native/libs/ui/include_private/ui/RegionHelper.h"
  },
  {
   "function_name" : "android::region_operator<android::Rect>::region_operator",
   "linker_set_key" : "_ZN7android15region_operatorINS_4RectEEC2EjRKNS2_6regionES5_",
   "parameters" :
   [
    {
     "is_this_ptr" : true,
     "referenced_type" : "_ZTIPN7android15region_operatorINS_4RectEEE"
    },
    {
     "referenced_type" : "_ZTIj"
    },
    {
     "referenced_type" : "_ZTIRKN7android15region_operatorINS_4RectEE6regionE"
    },
    {
     "referenced_type" : "_ZTIRKN7android15region_operatorINS_4RectEE6regionE"
    }
   ],
   "return_type" : "_ZTIv",
   "source_file" : "frameworks/native/libs/ui/include_private/ui/RegionHelper.h"
  },
  {
   "function_name" : "android::region_operator<android::Rect>::operator()",
   "linker_set_key" : "_ZN7android15region_operatorINS_4RectEEclERNS2_17region_rasterizerE",
   "parameters" :
   [
    {
     "is_this_ptr" : true,
     "referenced_type" : "_ZTIPN7android15region_operatorINS_4RectEEE"
    },
    {
     "referenced_type" : "_ZTIRN7android15region_operatorINS_4RectEE17region_rasterizerE"
    }
   ],
   "return_type" : "_ZTIv",
   "source_file" : "frameworks/native/libs/ui/include_private/ui/RegionHelper.h"
  },
  {
   "function_name" : "android::InlineStdAllocator<android::Rect, 4>::Allocation::Allocation",
   "linker_set_key" : "_ZN7android18InlineStdAllocatorINS_4RectELj4EE10AllocationC1Ev",
   "parameters" :
   [
    {
     "is_this_ptr" : true,
     "referenced_type" : "_ZTIPN7android18InlineStdAllocatorINS_4RectELj4EE10AllocationE"
    }
   ],
   "return_type" : "_ZTIv",
   "source_file" : "frameworks/native/libs/ui/include/ui/FatVector.h"
  },
  {
   "function_name" : "android::InlineStdAllocator<android::Rect, 4>::Allocation::Allocation",
   "linker_set_key" : "_ZN7android18InlineStdAllocatorINS_4RectELj4EE10AllocationC2Ev",
   "parameters" :
   [
    {
     "is_this_ptr" : true,
     "referenced_type" : "_ZTIPN7android18InlineStdAllocatorINS_4RectELj4EE10AllocationE"
    }
   ],
   "return_type" : "_ZTIv",
   "source_file" : "frameworks/native/libs/ui/include/ui/FatVector.h"
  },
  {
   "function_name" : "android::InlineStdAllocator<android::Rect, 4>::deallocate",
   "linker_set_key" : "_ZN7android18InlineStdAllocatorINS_4RectELj4EE10deallocateEPS1_j",
   "parameters" :
   [
    {
     "is_this_ptr" : true,
     "referenced_type" : "_ZTIPN7android18InlineStdAllocatorINS_4RectELj4EEE"
    },
    {
     "referenced_type" : "_ZTIPN7android4RectE"
    },
    {
     "referenced_type" : "_ZTIj"
    }
   ],
   "return_type" : "_ZTIv",
   "source_file" : "frameworks/native/libs/ui/include/ui/FatVector.h"
  },
  {
   "function_name" : "android::InlineStdAllocator<android::Rect, 4>::allocate",
   "linker_set_key" : "_ZN7android18InlineStdAllocatorINS_4RectELj4EE8allocateEjPKv",
   "parameters" :
   [
    {
     "is_this_ptr" : true,
     "referenced_type" : "_ZTIPN7android18InlineStdAllocatorINS_4RectELj4EEE"
    },
    {
     "referenced_type" : "_ZTIj"
    },
    {
     "default_arg" : true,
     "referenced_type" : "_ZTIPKv"
    }
   ],
   "return_type" : "_ZTIPN7android4RectE",
   "source_file" : "frameworks/native/libs/ui/include/ui/FatVector.h"
  },
  {
   "function_name" : "android::InlineStdAllocator<android::Rect, 4>::InlineStdAllocator",
   "linker_set_key" : "_ZN7android18InlineStdAllocatorINS_4RectELj4EEC1ERKS2_",
   "parameters" :
   [
    {
     "is_this_ptr" : true,
     "referenced_type" : "_ZTIPN7android18InlineStdAllocatorINS_4RectELj4EEE"
    },
    {
     "referenced_type" : "_ZTIRKN7android18InlineStdAllocatorINS_4RectELj4EEE"
    }
   ],
   "return_type" : "_ZTIv",
   "source_file" : "frameworks/native/libs/ui/include/ui/FatVector.h"
  },
  {
   "function_name" : "android::InlineStdAllocator<android::Rect, 4>::InlineStdAllocator",
   "linker_set_key" : "_ZN7android18InlineStdAllocatorINS_4RectELj4EEC1ERNS2_10AllocationE",
   "parameters" :
   [
    {
     "is_this_ptr" : true,
     "referenced_type" : "_ZTIPN7android18InlineStdAllocatorINS_4RectELj4EEE"
    },
    {
     "referenced_type" : "_ZTIRN7android18InlineStdAllocatorINS_4RectELj4EE10AllocationE"
    }
   ],
   "return_type" : "_ZTIv",
   "source_file" : "frameworks/native/libs/ui/include/ui/FatVector.h"
  },
  {
   "function_name" : "android::InlineStdAllocator<android::Rect, 4>::InlineStdAllocator",
   "linker_set_key" : "_ZN7android18InlineStdAllocatorINS_4RectELj4EEC2ERKS2_",
   "parameters" :
   [
    {
     "is_this_ptr" : true,
     "referenced_type" : "_ZTIPN7android18InlineStdAllocatorINS_4RectELj4EEE"
    },
    {
     "referenced_type" : "_ZTIRKN7android18InlineStdAllocatorINS_4RectELj4EEE"
    }
   ],
   "return_type" : "_ZTIv",
   "source_file" : "frameworks/native/libs/ui/include/ui/FatVector.h"
  },
  {
   "function_name" : "android::InlineStdAllocator<android::Rect, 4>::InlineStdAllocator",
   "linker_set_key" : "_ZN7android18InlineStdAllocatorINS_4RectELj4EEC2ERNS2_10AllocationE",
   "parameters" :
   [
    {
     "is_this_ptr" : true,
     "referenced_type" : "_ZTIPN7android18InlineStdAllocatorINS_4RectELj4EEE"
    },
    {
     "referenced_type" : "_ZTIRN7android18InlineStdAllocatorINS_4RectELj4EE10AllocationE"
    }
   ],
   "return_type" : "_ZTIv",
   "source_file" : "frameworks/native/libs/ui/include/ui/FatVector.h"
  },
  {
   "function_name" : "android::InlineStdAllocator<android::Rect, 4>::~InlineStdAllocator",
   "linker_set_key" : "_ZN7android18InlineStdAllocatorINS_4RectELj4EED1Ev",
   "parameters" :
   [
    {
     "is_this_ptr" : true,
     "referenced_type" : "_ZTIPN7android18InlineStdAllocatorINS_4RectELj4EEE"
    }
   ],
   "return_type" : "_ZTIv",
   "source_file" : "frameworks/native/libs/ui/include/ui/FatVector.h"
  },
  {
   "function_name" : "android::InlineStdAllocator<android::Rect, 4>::~InlineStdAllocator",
   "linker_set_key" : "_ZN7android18InlineStdAllocatorINS_4RectELj4EED2Ev",
   "parameters" :
   [
    {
     "is_this_ptr" : true,
     "referenced_type" : "_ZTIPN7android18InlineStdAllocatorINS_4RectELj4EEE"
    }
   ],
   "return_type" : "_ZTIv",
   "source_file" : "frameworks/native/libs/ui/include/ui/FatVector.h"
  },
  {
   "function_name" : "android::ui::Size::makeInvalid",
   "linker_set_key" : "_ZN7android2ui4Size11makeInvalidEv",
   "parameters" :
   [
    {
     "is_this_ptr" : true,
     "referenced_type" : "_ZTIPN7android2ui4SizeE"
    }
   ],
   "return_type" : "_ZTIv",
   "source_file" : "frameworks/native/libs/ui/include/ui/Size.h"
  },
  {
   "function_name" : "android::ui::Size::set",
   "linker_set_key" : "_ZN7android2ui4Size3setERKS1_",
   "parameters" :
   [
    {
     "is_this_ptr" : true,
     "referenced_type" : "_ZTIPN7android2ui4SizeE"
    },
    {
     "referenced_type" : "_ZTIRKN7android2ui4SizeE"
    }
   ],
   "return_type" : "_ZTIv",
   "source_file" : "frameworks/native/libs/ui/include/ui/Size.h"
  },
  {
   "function_name" : "android::ui::Size::clamp",
   "linker_set_key" : "_ZN7android2ui4Size5clampIiiEENSt3__19remove_cvINS3_16remove_referenceIT_E4typeEE4typeENS3_9enable_ifIXaasr3std14numeric_limitsISA_EE14is_specializedsr3std14numeric_limitsINS4_INS5_IT0_E4typeEE4typeEEE14is_specializedESC_E4typeE",
   "parameters" :
   [
    {
     "referenced_type" : "_ZTIi"
    }
   ],
   "return_type" : "_ZTIi",
   "source_file" : "frameworks/native/libs/ui/include/ui/Size.h",
   "template_args" : [ "_ZTIi", "_ZTIi" ]
  },
  {
   "function_name" : "android::ui::Size::clear",
   "linker_set_key" : "_ZN7android2ui4Size5clearEv",
   "parameters" :
   [
    {
     "is_this_ptr" : true,
     "referenced_type" : "_ZTIPN7android2ui4SizeE"
    }
   ],
   "return_type" : "_ZTIv",
   "source_file" : "frameworks/native/libs/ui/include/ui/Size.h"
  },
  {
   "function_name" : "android::ui::Size::Size",
   "linker_set_key" : "_ZN7android2ui4SizeC1Ev",
   "parameters" :
   [
    {
     "is_this_ptr" : true,
     "referenced_type" : "_ZTIPN7android2ui4SizeE"
    }
   ],
   "return_type" : "_ZTIv",
   "source_file" : "frameworks/native/libs/ui/include/ui/Size.h"
  },
  {
   "function_name" : "android::ui::Size::Size",
   "linker_set_key" : "_ZN7android2ui4SizeC1IiEEOT_S4_",
   "parameters" :
   [
    {
     "is_this_ptr" : true,
     "referenced_type" : "_ZTIPN7android2ui4SizeE"
    },
    {
     "referenced_type" : "_ZTIOi"
    },
    {
     "referenced_type" : "_ZTIOi"
    }
   ],
   "return_type" : "_ZTIv",
   "source_file" : "frameworks/native/libs/ui/include/ui/Size.h",
   "template_args" : [ "_ZTIi" ]
  },
  {
   "function_name" : "android::ui::Size::Size",
   "linker_set_key" : "_ZN7android2ui4SizeC2Ev",
   "parameters" :
   [
    {
     "is_this_ptr" : true,
     "referenced_type" : "_ZTIPN7android2ui4SizeE"
    }
   ],
   "return_type" : "_ZTIv",
   "source_file" : "frameworks/native/libs/ui/include/ui/Size.h"
  },
  {
   "function_name" : "android::ui::Size::Size",
   "linker_set_key" : "_ZN7android2ui4SizeC2IiEEOT_S4_",
   "parameters" :
   [
    {
     "is_this_ptr" : true,
     "referenced_type" : "_ZTIPN7android2ui4SizeE"
    },
    {
     "referenced_type" : "_ZTIOi"
    },
    {
     "referenced_type" : "_ZTIOi"
    }
   ],
   "return_type" : "_ZTIv",
   "source_file" : "frameworks/native/libs/ui/include/ui/Size.h",
   "template_args" : [ "_ZTIi" ]
  },
  {
   "function_name" : "android::ui::operator==",
   "linker_set_key" : "_ZN7android2uieqERKNS0_4SizeES3_",
   "parameters" :
   [
    {
     "referenced_type" : "_ZTIRKN7android2ui4SizeE"
    },
    {
     "referenced_type" : "_ZTIRKN7android2ui4SizeE"
    }
   ],
   "return_type" : "_ZTIb",
   "source_file" : "frameworks/native/libs/ui/include/ui/Size.h"
  },
  {
   "function_name" : "android::ui::operator<",
   "linker_set_key" : "_ZN7android2uiltERKNS0_4SizeES3_",
   "parameters" :
   [
    {
     "referenced_type" : "_ZTIRKN7android2ui4SizeE"
    },
    {
     "referenced_type" : "_ZTIRKN7android2ui4SizeE"
    }
   ],
   "return_type" : "_ZTIb",
   "source_file" : "frameworks/native/libs/ui/include/ui/Size.h"
  },
  {
   "function_name" : "android::ui::operator!=",
   "linker_set_key" : "_ZN7android2uineERKNS0_4SizeES3_",
   "parameters" :
   [
    {
     "referenced_type" : "_ZTIRKN7android2ui4SizeE"
    },
    {
     "referenced_type" : "_ZTIRKN7android2ui4SizeE"
    }
   ],
   "return_type" : "_ZTIb",
   "source_file" : "frameworks/native/libs/ui/include/ui/Size.h"
  },
  {
   "function_name" : "android::Rect::setLeftTop",
   "linker_set_key" : "_ZN7android4Rect10setLeftTopERKNS_5PointE",
   "parameters" :
   [
    {
     "is_this_ptr" : true,
     "referenced_type" : "_ZTIPN7android4RectE"
    },
    {
     "referenced_type" : "_ZTIRKN7android5PointE"
    }
   ],
   "return_type" : "_ZTIv",
   "source_file" : "frameworks/native/libs/ui/include/ui/Rect.h"
  },
  {
   "function_name" : "android::Rect::offsetToOrigin",
   "linker_set_key" : "_ZN7android4Rect14offsetToOriginEv",
   "parameters" :
   [
    {
     "is_this_ptr" : true,
     "referenced_type" : "_ZTIPN7android4RectE"
    }
   ],
   "return_type" : "_ZTIRN7android4RectE",
   "source_file" : "frameworks/native/libs/ui/include/ui/Rect.h"
  },
  {
   "function_name" : "android::Rect::setRightBottom",
   "linker_set_key" : "_ZN7android4Rect14setRightBottomERKNS_5PointE",
   "parameters" :
   [
    {
     "is_this_ptr" : true,
     "referenced_type" : "_ZTIPN7android4RectE"
    },
    {
     "referenced_type" : "_ZTIRKN7android5PointE"
    }
   ],
   "return_type" : "_ZTIv",
   "source_file" : "frameworks/native/libs/ui/include/ui/Rect.h"
  },
  {
   "function_name" : "android::Rect::set",
   "linker_set_key" : "_ZN7android4Rect3setERKS0_",
   "parameters" :
   [
    {
     "is_this_ptr" : true,
     "referenced_type" : "_ZTIPN7android4RectE"
    },
    {
     "referenced_type" : "_ZTIRKN7android4RectE"
    }
   ],
   "return_type" : "_ZTIv",
   "source_file" : "frameworks/native/libs/ui/include/ui/Rect.h"
  },
  {
   "function_name" : "android::Rect::clear",
   "linker_set_key" : "_ZN7android4Rect5clearEv",
   "parameters" :
   [
    {
     "is_this_ptr" : true,
     "referenced_type" : "_ZTIPN7android4RectE"
    }
   ],
   "return_type" : "_ZTIv",
   "source_file" : "frameworks/native/libs/ui/include/ui/Rect.h"
  },
  {
   "function_name" : "android::Rect::offsetBy",
   "linker_set_key" : "_ZN7android4Rect8offsetByERKNS_5PointE",
   "parameters" :
   [
    {
     "is_this_ptr" : true,
     "referenced_type" : "_ZTIPN7android4RectE"
    },
    {
     "referenced_type" : "_ZTIRKN7android5PointE"
    }
   ],
   "return_type" : "_ZTIRN7android4RectE",
   "source_file" : "frameworks/native/libs/ui/include/ui/Rect.h"
  },
  {
   "function_name" : "android::Rect::offsetTo",
   "linker_set_key" : "_ZN7android4Rect8offsetToERKNS_5PointE",
   "parameters" :
   [
    {
     "is_this_ptr" : true,
     "referenced_type" : "_ZTIPN7android4RectE"
    },
    {
     "referenced_type" : "_ZTIRKN7android5PointE"
    }
   ],
   "return_type" : "_ZTIRN7android4RectE",
   "source_file" : "frameworks/native/libs/ui/include/ui/Rect.h"
  },
  {
   "function_name" : "android::Rect::scaleSelf",
   "linker_set_key" : "_ZN7android4Rect9scaleSelfEff",
   "parameters" :
   [
    {
     "is_this_ptr" : true,
     "referenced_type" : "_ZTIPN7android4RectE"
    },
    {
     "referenced_type" : "_ZTIf"
    },
    {
     "referenced_type" : "_ZTIf"
    }
   ],
   "return_type" : "_ZTIRN7android4RectE",
   "source_file" : "frameworks/native/libs/ui/include/ui/Rect.h"
  },
  {
   "function_name" : "android::Rect::Rect",
   "linker_set_key" : "_ZN7android4RectC1ERKNS_2ui4SizeE",
   "parameters" :
   [
    {
     "is_this_ptr" : true,
     "referenced_type" : "_ZTIPN7android4RectE"
    },
    {
     "referenced_type" : "_ZTIRKN7android2ui4SizeE"
    }
   ],
   "return_type" : "_ZTIv",
   "source_file" : "frameworks/native/libs/ui/include/ui/Rect.h"
  },
  {
   "function_name" : "android::Rect::Rect",
   "linker_set_key" : "_ZN7android4RectC1ERKNS_5PointES3_",
   "parameters" :
   [
    {
     "is_this_ptr" : true,
     "referenced_type" : "_ZTIPN7android4RectE"
    },
    {
     "referenced_type" : "_ZTIRKN7android5PointE"
    },
    {
     "referenced_type" : "_ZTIRKN7android5PointE"
    }
   ],
   "return_type" : "_ZTIv",
   "source_file" : "frameworks/native/libs/ui/include/ui/Rect.h"
  },
  {
   "function_name" : "android::Rect::Rect",
   "linker_set_key" : "_ZN7android4RectC1ERKNS_9FloatRectE",
   "parameters" :
   [
    {
     "is_this_ptr" : true,
     "referenced_type" : "_ZTIPN7android4RectE"
    },
    {
     "referenced_type" : "_ZTIRKN7android9FloatRectE"
    }
   ],
   "return_type" : "_ZTIv",
   "source_file" : "frameworks/native/libs/ui/include/ui/Rect.h"
  },
  {
   "function_name" : "android::Rect::Rect",
   "linker_set_key" : "_ZN7android4RectC1Eiiii",
   "parameters" :
   [
    {
     "is_this_ptr" : true,
     "referenced_type" : "_ZTIPN7android4RectE"
    },
    {
     "referenced_type" : "_ZTIi"
    },
    {
     "referenced_type" : "_ZTIi"
    },
    {
     "referenced_type" : "_ZTIi"
    },
    {
     "referenced_type" : "_ZTIi"
    }
   ],
   "return_type" : "_ZTIv",
   "source_file" : "frameworks/native/libs/ui/include/ui/Rect.h"
  },
  {
   "function_name" : "android::Rect::Rect",
   "linker_set_key" : "_ZN7android4RectC1Ev",
   "parameters" :
   [
    {
     "is_this_ptr" : true,
     "referenced_type" : "_ZTIPN7android4RectE"
    }
   ],
   "return_type" : "_ZTIv",
   "source_file" : "frameworks/native/libs/ui/include/ui/Rect.h"
  },
  {
   "function_name" : "android::Rect::Rect",
   "linker_set_key" : "_ZN7android4RectC1IiEET_S2_",
   "parameters" :
   [
    {
     "is_this_ptr" : true,
     "referenced_type" : "_ZTIPN7android4RectE"
    },
    {
     "referenced_type" : "_ZTIi"
    },
    {
     "referenced_type" : "_ZTIi"
    }
   ],
   "return_type" : "_ZTIv",
   "source_file" : "frameworks/native/libs/ui/include/ui/Rect.h",
   "template_args" : [ "_ZTIi" ]
  },
  {
   "function_name" : "android::Rect::Rect",
   "linker_set_key" : "_ZN7android4RectC1IjEET_S2_",
   "parameters" :
   [
    {
     "is_this_ptr" : true,
     "referenced_type" : "_ZTIPN7android4RectE"
    },
    {
     "referenced_type" : "_ZTIj"
    },
    {
     "referenced_type" : "_ZTIj"
    }
   ],
   "return_type" : "_ZTIv",
   "source_file" : "frameworks/native/libs/ui/include/ui/Rect.h",
   "template_args" : [ "_ZTIj" ]
  },
  {
   "function_name" : "android::Rect::Rect",
   "linker_set_key" : "_ZN7android4RectC2ERKNS_2ui4SizeE",
   "parameters" :
   [
    {
     "is_this_ptr" : true,
     "referenced_type" : "_ZTIPN7android4RectE"
    },
    {
     "referenced_type" : "_ZTIRKN7android2ui4SizeE"
    }
   ],
   "return_type" : "_ZTIv",
   "source_file" : "frameworks/native/libs/ui/include/ui/Rect.h"
  },
  {
   "function_name" : "android::Rect::Rect",
   "linker_set_key" : "_ZN7android4RectC2ERKNS_5PointES3_",
   "parameters" :
   [
    {
     "is_this_ptr" : true,
     "referenced_type" : "_ZTIPN7android4RectE"
    },
    {
     "referenced_type" : "_ZTIRKN7android5PointE"
    },
    {
     "referenced_type" : "_ZTIRKN7android5PointE"
    }
   ],
   "return_type" : "_ZTIv",
   "source_file" : "frameworks/native/libs/ui/include/ui/Rect.h"
  },
  {
   "function_name" : "android::Rect::Rect",
   "linker_set_key" : "_ZN7android4RectC2ERKNS_9FloatRectE",
   "parameters" :
   [
    {
     "is_this_ptr" : true,
     "referenced_type" : "_ZTIPN7android4RectE"
    },
    {
     "referenced_type" : "_ZTIRKN7android9FloatRectE"
    }
   ],
   "return_type" : "_ZTIv",
   "source_file" : "frameworks/native/libs/ui/include/ui/Rect.h"
  },
  {
   "function_name" : "android::Rect::Rect",
   "linker_set_key" : "_ZN7android4RectC2Eiiii",
   "parameters" :
   [
    {
     "is_this_ptr" : true,
     "referenced_type" : "_ZTIPN7android4RectE"
    },
    {
     "referenced_type" : "_ZTIi"
    },
    {
     "referenced_type" : "_ZTIi"
    },
    {
     "referenced_type" : "_ZTIi"
    },
    {
     "referenced_type" : "_ZTIi"
    }
   ],
   "return_type" : "_ZTIv",
   "source_file" : "frameworks/native/libs/ui/include/ui/Rect.h"
  },
  {
   "function_name" : "android::Rect::Rect",
   "linker_set_key" : "_ZN7android4RectC2Ev",
   "parameters" :
   [
    {
     "is_this_ptr" : true,
     "referenced_type" : "_ZTIPN7android4RectE"
    }
   ],
   "return_type" : "_ZTIv",
   "source_file" : "frameworks/native/libs/ui/include/ui/Rect.h"
  },
  {
   "function_name" : "android::Rect::Rect",
   "linker_set_key" : "_ZN7android4RectC2IiEET_S2_",
   "parameters" :
   [
    {
     "is_this_ptr" : true,
     "referenced_type" : "_ZTIPN7android4RectE"
    },
    {
     "referenced_type" : "_ZTIi"
    },
    {
     "referenced_type" : "_ZTIi"
    }
   ],
   "return_type" : "_ZTIv",
   "source_file" : "frameworks/native/libs/ui/include/ui/Rect.h",
   "template_args" : [ "_ZTIi" ]
  },
  {
   "function_name" : "android::Rect::Rect",
   "linker_set_key" : "_ZN7android4RectC2IjEET_S2_",
   "parameters" :
   [
    {
     "is_this_ptr" : true,
     "referenced_type" : "_ZTIPN7android4RectE"
    },
    {
     "referenced_type" : "_ZTIj"
    },
    {
     "referenced_type" : "_ZTIj"
    }
   ],
   "return_type" : "_ZTIv",
   "source_file" : "frameworks/native/libs/ui/include/ui/Rect.h",
   "template_args" : [ "_ZTIj" ]
  },
  {
   "function_name" : "android::Rect::operator-=",
   "linker_set_key" : "_ZN7android4RectmIERKNS_5PointE",
   "parameters" :
   [
    {
     "is_this_ptr" : true,
     "referenced_type" : "_ZTIPN7android4RectE"
    },
    {
     "referenced_type" : "_ZTIRKN7android5PointE"
    }
   ],
   "return_type" : "_ZTIRN7android4RectE",
   "source_file" : "frameworks/native/libs/ui/include/ui/Rect.h"
  },
  {
   "function_name" : "android::Rect::operator+=",
   "linker_set_key" : "_ZN7android4RectpLERKNS_5PointE",
   "parameters" :
   [
    {
     "is_this_ptr" : true,
     "referenced_type" : "_ZTIPN7android4RectE"
    },
    {
     "referenced_type" : "_ZTIRKN7android5PointE"
    }
   ],
   "return_type" : "_ZTIRN7android4RectE",
   "source_file" : "frameworks/native/libs/ui/include/ui/Rect.h"
  },
  {
   "function_name" : "android::Point::Point",
   "linker_set_key" : "_ZN7android5PointC1Eii",
   "parameters" :
   [
    {
     "is_this_ptr" : true,
     "referenced_type" : "_ZTIPN7android5PointE"
    },
    {
     "referenced_type" : "_ZTIi"
    },
    {
     "referenced_type" : "_ZTIi"
    }
   ],
   "return_type" : "_ZTIv",
   "source_file" : "frameworks/native/libs/ui/include/ui/Point.h"
  },
  {
   "function_name" : "android::Point::Point",
   "linker_set_key" : "_ZN7android5PointC1Ev",
   "parameters" :
   [
    {
     "is_this_ptr" : true,
     "referenced_type" : "_ZTIPN7android5PointE"
    }
   ],
   "return_type" : "_ZTIv",
   "source_file" : "frameworks/native/libs/ui/include/ui/Point.h"
  },
  {
   "function_name" : "android::Point::Point",
   "linker_set_key" : "_ZN7android5PointC2Eii",
   "parameters" :
   [
    {
     "is_this_ptr" : true,
     "referenced_type" : "_ZTIPN7android5PointE"
    },
    {
     "referenced_type" : "_ZTIi"
    },
    {
     "referenced_type" : "_ZTIi"
    }
   ],
   "return_type" : "_ZTIv",
   "source_file" : "frameworks/native/libs/ui/include/ui/Point.h"
  },
  {
   "function_name" : "android::Point::Point",
   "linker_set_key" : "_ZN7android5PointC2Ev",
   "parameters" :
   [
    {
     "is_this_ptr" : true,
     "referenced_type" : "_ZTIPN7android5PointE"
    }
   ],
   "return_type" : "_ZTIv",
   "source_file" : "frameworks/native/libs/ui/include/ui/Point.h"
  },
  {
   "function_name" : "android::Point::operator-=",
   "linker_set_key" : "_ZN7android5PointmIERKS0_",
   "parameters" :
   [
    {
     "is_this_ptr" : true,
     "referenced_type" : "_ZTIPN7android5PointE"
    },
    {
     "referenced_type" : "_ZTIRKN7android5PointE"
    }
   ],
   "return_type" : "_ZTIRN7android5PointE",
   "source_file" : "frameworks/native/libs/ui/include/ui/Point.h"
  },
  {
   "function_name" : "android::Point::operator-",
   "linker_set_key" : "_ZN7android5PointngEv",
   "parameters" :
   [
    {
     "is_this_ptr" : true,
     "referenced_type" : "_ZTIPN7android5PointE"
    }
   ],
   "return_type" : "_ZTIRN7android5PointE",
   "source_file" : "frameworks/native/libs/ui/include/ui/Point.h"
  },
  {
   "function_name" : "android::Point::operator+=",
   "linker_set_key" : "_ZN7android5PointpLERKS0_",
   "parameters" :
   [
    {
     "is_this_ptr" : true,
     "referenced_type" : "_ZTIPN7android5PointE"
    },
    {
     "referenced_type" : "_ZTIRKN7android5PointE"
    }
   ],
   "return_type" : "_ZTIRN7android5PointE",
   "source_file" : "frameworks/native/libs/ui/include/ui/Point.h"
  },
  {
   "function_name" : "android::Region::subtractSelf",
   "linker_set_key" : "_ZN7android6Region12subtractSelfERKNS_4RectE",
   "parameters" :
   [
    {
     "is_this_ptr" : true,
     "referenced_type" : "_ZTIPN7android6RegionE"
    },
    {
     "referenced_type" : "_ZTIRKN7android4RectE"
    }
   ],
   "return_type" : "_ZTIRN7android6RegionE",
   "source_file" : "frameworks/native/libs/ui/include/ui/Region.h"
  },
  {
   "function_name" : "android::Region::subtractSelf",
   "linker_set_key" : "_ZN7android6Region12subtractSelfERKS0_",
   "parameters" :
   [
    {
     "is_this_ptr" : true,
     "referenced_type" : "_ZTIPN7android6RegionE"
    },
    {
     "referenced_type" : "_ZTIRKN7android6RegionE"
    }
   ],
   "return_type" : "_ZTIRN7android6RegionE",
   "source_file" : "frameworks/native/libs/ui/include/ui/Region.h"
  },
  {
   "function_name" : "android::Region::subtractSelf",
   "linker_set_key" : "_ZN7android6Region12subtractSelfERKS0_ii",
   "parameters" :
   [
    {
     "is_this_ptr" : true,
     "referenced_type" : "_ZTIPN7android6RegionE"
    },
    {
     "referenced_type" : "_ZTIRKN7android6RegionE"
    },
    {
     "referenced_type" : "_ZTIi"
    },
    {
     "referenced_type" : "_ZTIi"
    }
   ],
   "return_type" : "_ZTIRN7android6RegionE",
   "source_file" : "frameworks/native/libs/ui/include/ui/Region.h"
  },
  {
   "access" : "private",
   "function_name" : "android::Region::operationSelf",
   "linker_set_key" : "_ZN7android6Region13operationSelfERKNS_4RectEj",
   "parameters" :
   [
    {
     "is_this_ptr" : true,
     "referenced_type" : "_ZTIPN7android6RegionE"
    },
    {
     "referenced_type" : "_ZTIRKN7android4RectE"
    },
    {
     "referenced_type" : "_ZTIj"
    }
   ],
   "return_type" : "_ZTIRN7android6RegionE",
   "source_file" : "frameworks/native/libs/ui/include/ui/Region.h"
  },
  {
   "access" : "private",
   "function_name" : "android::Region::operationSelf",
   "linker_set_key" : "_ZN7android6Region13operationSelfERKS0_iij",
   "parameters" :
   [
    {
     "is_this_ptr" : true,
     "referenced_type" : "_ZTIPN7android6RegionE"
    },
    {
     "referenced_type" : "_ZTIRKN7android6RegionE"
    },
    {
     "referenced_type" : "_ZTIi"
    },
    {
     "referenced_type" : "_ZTIi"
    },
    {
     "referenced_type" : "_ZTIj"
    }
   ],
   "return_type" : "_ZTIRN7android6RegionE",
   "source_file" : "frameworks/native/libs/ui/include/ui/Region.h"
  },
  {
   "access" : "private",
   "function_name" : "android::Region::operationSelf",
   "linker_set_key" : "_ZN7android6Region13operationSelfERKS0_j",
   "parameters" :
   [
    {
     "is_this_ptr" : true,
     "referenced_type" : "_ZTIPN7android6RegionE"
    },
    {
     "referenced_type" : "_ZTIRKN7android6RegionE"
    },
    {
     "referenced_type" : "_ZTIj"
    }
   ],
   "return_type" : "_ZTIRN7android6RegionE",
   "source_file" : "frameworks/native/libs/ui/include/ui/Region.h"
  },
  {
   "function_name" : "android::Region::translateSelf",
   "linker_set_key" : "_ZN7android6Region13translateSelfEii",
   "parameters" :
   [
    {
     "is_this_ptr" : true,
     "referenced_type" : "_ZTIPN7android6RegionE"
    },
    {
     "referenced_type" : "_ZTIi"
    },
    {
     "referenced_type" : "_ZTIi"
    }
   ],
   "return_type" : "_ZTIRN7android6RegionE",
   "source_file" : "frameworks/native/libs/ui/include/ui/Region.h"
  },
  {
   "function_name" : "android::Region::makeBoundsSelf",
   "linker_set_key" : "_ZN7android6Region14makeBoundsSelfEv",
   "parameters" :
   [
    {
     "is_this_ptr" : true,
     "referenced_type" : "_ZTIPN7android6RegionE"
    }
   ],
   "return_type" : "_ZTIRN7android6RegionE",
   "source_file" : "frameworks/native/libs/ui/include/ui/Region.h"
  },
  {
   "function_name" : "android::Region::addRectUnchecked",
   "linker_set_key" : "_ZN7android6Region16addRectUncheckedEiiii",
   "parameters" :
   [
    {
     "is_this_ptr" : true,
     "referenced_type" : "_ZTIPN7android6RegionE"
    },
    {
     "referenced_type" : "_ZTIi"
    },
    {
     "referenced_type" : "_ZTIi"
    },
    {
     "referenced_type" : "_ZTIi"
    },
    {
     "referenced_type" : "_ZTIi"
    }
   ],
   "return_type" : "_ZTIv",
   "source_file" : "frameworks/native/libs/ui/include/ui/Region.h"
  },
  {
   "access" : "private",
   "function_name" : "android::Region::boolean_operation",
   "linker_set_key" : "_ZN7android6Region17boolean_operationEjRS0_RKS0_RKNS_4RectE",
   "parameters" :
   [
    {
     "referenced_type" : "_ZTIj"
    },
    {
     "referenced_type" : "_ZTIRN7android6RegionE"
    },
    {
     "referenced_type" : "_ZTIRKN7android6RegionE"
    },
    {
     "referenced_type" : "_ZTIRKN7android4RectE"
    }
   ],
   "return_type" : "_ZTIv",
   "source_file" : "frameworks/native/libs/ui/include/ui/Region.h"
  },
  {
   "access" : "private",
   "function_name" : "android::Region::boolean_operation",
   "linker_set_key" : "_ZN7android6Region17boolean_operationEjRS0_RKS0_RKNS_4RectEii",
   "parameters" :
   [
    {
     "referenced_type" : "_ZTIj"
    },
    {
     "referenced_type" : "_ZTIRN7android6RegionE"
    },
    {
     "referenced_type" : "_ZTIRKN7android6RegionE"
    },
    {
     "referenced_type" : "_ZTIRKN7android4RectE"
    },
    {
     "referenced_type" : "_ZTIi"
    },
    {
     "referenced_type" : "_ZTIi"
    }
   ],
   "return_type" : "_ZTIv",
   "source_file" : "frameworks/native/libs/ui/include/ui/Region.h"
  },
  {
   "access" : "private",
   "function_name" : "android::Region::boolean_operation",
   "linker_set_key" : "_ZN7android6Region17boolean_operationEjRS0_RKS0_S3_",
   "parameters" :
   [
    {
     "referenced_type" : "_ZTIj"
    },
    {
     "referenced_type" : "_ZTIRN7android6RegionE"
    },
    {
     "referenced_type" : "_ZTIRKN7android6RegionE"
    },
    {
     "referenced_type" : "_ZTIRKN7android6RegionE"
    }
   ],
   "return_type" : "_ZTIv",
   "source_file" : "frameworks/native/libs/ui/include/ui/Region.h"
  },
  {
   "access" : "private",
   "function_name" : "android::Region::boolean_operation",
   "linker_set_key" : "_ZN7android6Region17boolean_operationEjRS0_RKS0_S3_ii",
   "parameters" :
   [
    {
     "referenced_type" : "_ZTIj"
    },
    {
     "referenced_type" : "_ZTIRN7android6RegionE"
    },
    {
     "referenced_type" : "_ZTIRKN7android6RegionE"
    },
    {
     "referenced_type" : "_ZTIRKN7android6RegionE"
    },
    {
     "referenced_type" : "_ZTIi"
    },
    {
     "referenced_type" : "_ZTIi"
    }
   ],
   "return_type" : "_ZTIv",
   "source_file" : "frameworks/native/libs/ui/include/ui/Region.h"
  },
  {
   "function_name" : "android::Region::createTJunctionFreeRegion",
   "linker_set_key" : "_ZN7android6Region25createTJunctionFreeRegionERKS0_",
   "parameters" :
   [
    {
     "referenced_type" : "_ZTIRKN7android6RegionE"
    }
   ],
   "return_type" : "_ZTIN7android6RegionE",
   "source_file" : "frameworks/native/libs/ui/include/ui/Region.h"
  },
  {
   "function_name" : "android::Region::set",
   "linker_set_key" : "_ZN7android6Region3setERKNS_4RectE",
   "parameters" :
   [
    {
     "is_this_ptr" : true,
     "referenced_type" : "_ZTIPN7android6RegionE"
    },
    {
     "referenced_type" : "_ZTIRKN7android4RectE"
    }
   ],
   "return_type" : "_ZTIv",
   "source_file" : "frameworks/native/libs/ui/include/ui/Region.h"
  },
  {
   "function_name" : "android::Region::set",
   "linker_set_key" : "_ZN7android6Region3setEii",
   "parameters" :
   [
    {
     "is_this_ptr" : true,
     "referenced_type" : "_ZTIPN7android6RegionE"
    },
    {
     "referenced_type" : "_ZTIi"
    },
    {
     "referenced_type" : "_ZTIi"
    }
   ],
   "return_type" : "_ZTIv",
   "source_file" : "frameworks/native/libs/ui/include/ui/Region.h"
  },
  {
   "function_name" : "android::Region::set",
   "linker_set_key" : "_ZN7android6Region3setEjj",
   "parameters" :
   [
    {
     "is_this_ptr" : true,
     "referenced_type" : "_ZTIPN7android6RegionE"
    },
    {
     "referenced_type" : "_ZTIj"
    },
    {
     "referenced_type" : "_ZTIj"
    }
   ],
   "return_type" : "_ZTIv",
   "source_file" : "frameworks/native/libs/ui/include/ui/Region.h"
  },
  {
   "function_name" : "android::Region::clear",
   "linker_set_key" : "_ZN7android6Region5clearEv",
   "parameters" :
   [
    {
     "is_this_ptr" : true,
     "referenced_type" : "_ZTIPN7android6RegionE"
    }
   ],
   "return_type" : "_ZTIv",
   "source_file" : "frameworks/native/libs/ui/include/ui/Region.h"
  },
  {
   "function_name" : "android::Region::orSelf",
   "linker_set_key" : "_ZN7android6Region6orSelfERKNS_4RectE",
   "parameters" :
   [
    {
     "is_this_ptr" : true,
     "referenced_type" : "_ZTIPN7android6RegionE"
    },
    {
     "referenced_type" : "_ZTIRKN7android4RectE"
    }
   ],
   "return_type" : "_ZTIRN7android6RegionE",
   "source_file" : "frameworks/native/libs/ui/include/ui/Region.h"
  },
  {
   "function_name" : "android::Region::orSelf",
   "linker_set_key" : "_ZN7android6Region6orSelfERKS0_",
   "parameters" :
   [
    {
     "is_this_ptr" : true,
     "referenced_type" : "_ZTIPN7android6RegionE"
    },
    {
     "referenced_type" : "_ZTIRKN7android6RegionE"
    }
   ],
   "return_type" : "_ZTIRN7android6RegionE",
   "source_file" : "frameworks/native/libs/ui/include/ui/Region.h"
  },
  {
   "function_name" : "android::Region::orSelf",
   "linker_set_key" : "_ZN7android6Region6orSelfERKS0_ii",
   "parameters" :
   [
    {
     "is_this_ptr" : true,
     "referenced_type" : "_ZTIPN7android6RegionE"
    },
    {
     "referenced_type" : "_ZTIRKN7android6RegionE"
    },
    {
     "referenced_type" : "_ZTIi"
    },
    {
     "referenced_type" : "_ZTIi"
    }
   ],
   "return_type" : "_ZTIRN7android6RegionE",
   "source_file" : "frameworks/native/libs/ui/include/ui/Region.h"
  },
  {
   "function_name" : "android::Region::andSelf",
   "linker_set_key" : "_ZN7android6Region7andSelfERKNS_4RectE",
   "parameters" :
   [
    {
     "is_this_ptr" : true,
     "referenced_type" : "_ZTIPN7android6RegionE"
    },
    {
     "referenced_type" : "_ZTIRKN7android4RectE"
    }
   ],
   "return_type" : "_ZTIRN7android6RegionE",
   "source_file" : "frameworks/native/libs/ui/include/ui/Region.h"
  },
  {
   "function_name" : "android::Region::andSelf",
   "linker_set_key" : "_ZN7android6Region7andSelfERKS0_",
   "parameters" :
   [
    {
     "is_this_ptr" : true,
     "referenced_type" : "_ZTIPN7android6RegionE"
    },
    {
     "referenced_type" : "_ZTIRKN7android6RegionE"
    }
   ],
   "return_type" : "_ZTIRN7android6RegionE",
   "source_file" : "frameworks/native/libs/ui/include/ui/Region.h"
  },
  {
   "function_name" : "android::Region::andSelf",
   "linker_set_key" : "_ZN7android6Region7andSelfERKS0_ii",
   "parameters" :
   [
    {
     "is_this_ptr" : true,
     "referenced_type" : "_ZTIPN7android6RegionE"
    },
    {
     "referenced_type" : "_ZTIRKN7android6RegionE"
    },
    {
     "referenced_type" : "_ZTIi"
    },
    {
     "referenced_type" : "_ZTIi"
    }
   ],
   "return_type" : "_ZTIRN7android6RegionE",
   "source_file" : "frameworks/native/libs/ui/include/ui/Region.h"
  },
  {
   "function_name" : "android::Region::xorSelf",
   "linker_set_key" : "_ZN7android6Region7xorSelfERKNS_4RectE",
   "parameters" :
   [
    {
     "is_this_ptr" : true,
     "referenced_type" : "_ZTIPN7android6RegionE"
    },
    {
     "referenced_type" : "_ZTIRKN7android4RectE"
    }
   ],
   "return_type" : "_ZTIRN7android6RegionE",
   "source_file" : "frameworks/native/libs/ui/include/ui/Region.h"
  },
  {
   "function_name" : "android::Region::xorSelf",
   "linker_set_key" : "_ZN7android6Region7xorSelfERKS0_",
   "parameters" :
   [
    {
     "is_this_ptr" : true,
     "referenced_type" : "_ZTIPN7android6RegionE"
    },
    {
     "referenced_type" : "_ZTIRKN7android6RegionE"
    }
   ],
   "return_type" : "_ZTIRN7android6RegionE",
   "source_file" : "frameworks/native/libs/ui/include/ui/Region.h"
  },
  {
   "function_name" : "android::Region::xorSelf",
   "linker_set_key" : "_ZN7android6Region7xorSelfERKS0_ii",
   "parameters" :
   [
    {
     "is_this_ptr" : true,
     "referenced_type" : "_ZTIPN7android6RegionE"
    },
    {
     "referenced_type" : "_ZTIRKN7android6RegionE"
    },
    {
     "referenced_type" : "_ZTIi"
    },
    {
     "referenced_type" : "_ZTIi"
    }
   ],
   "return_type" : "_ZTIRN7android6RegionE",
   "source_file" : "frameworks/native/libs/ui/include/ui/Region.h"
  },
  {
   "access" : "private",
   "function_name" : "android::Region::validate",
   "linker_set_key" : "_ZN7android6Region8validateERKS0_PKcb",
   "parameters" :
   [
    {
     "referenced_type" : "_ZTIRKN7android6RegionE"
    },
    {
     "referenced_type" : "_ZTIPKc"
    },
    {
     "default_arg" : true,
     "referenced_type" : "_ZTIb"
    }
   ],
   "return_type" : "_ZTIb",
   "source_file" : "frameworks/native/libs/ui/include/ui/Region.h"
  },
  {
   "function_name" : "android::Region::scaleSelf",
   "linker_set_key" : "_ZN7android6Region9scaleSelfEff",
   "parameters" :
   [
    {
     "is_this_ptr" : true,
     "referenced_type" : "_ZTIPN7android6RegionE"
    },
    {
     "referenced_type" : "_ZTIf"
    },
    {
     "referenced_type" : "_ZTIf"
    }
   ],
   "return_type" : "_ZTIRN7android6RegionE",
   "source_file" : "frameworks/native/libs/ui/include/ui/Region.h"
  },
  {
   "access" : "private",
   "function_name" : "android::Region::translate",
   "linker_set_key" : "_ZN7android6Region9translateERS0_RKS0_ii",
   "parameters" :
   [
    {
     "referenced_type" : "_ZTIRN7android6RegionE"
    },
    {
     "referenced_type" : "_ZTIRKN7android6RegionE"
    },
    {
     "referenced_type" : "_ZTIi"
    },
    {
     "referenced_type" : "_ZTIi"
    }
   ],
   "return_type" : "_ZTIv",
   "source_file" : "frameworks/native/libs/ui/include/ui/Region.h"
  },
  {
   "access" : "private",
   "function_name" : "android::Region::translate",
   "linker_set_key" : "_ZN7android6Region9translateERS0_ii",
   "parameters" :
   [
    {
     "referenced_type" : "_ZTIRN7android6RegionE"
    },
    {
     "referenced_type" : "_ZTIi"
    },
    {
     "referenced_type" : "_ZTIi"
    }
   ],
   "return_type" : "_ZTIv",
   "source_file" : "frameworks/native/libs/ui/include/ui/Region.h"
  },
  {
   "function_name" : "android::Region::unflatten",
   "linker_set_key" : "_ZN7android6Region9unflattenEPKvj",
   "parameters" :
   [
    {
     "is_this_ptr" : true,
     "referenced_type" : "_ZTIPN7android6RegionE"
    },
    {
     "referenced_type" : "_ZTIPKv"
    },
    {
     "referenced_type" : "_ZTIj"
    }
   ],
   "return_type" : "_ZTIi",
   "source_file" : "frameworks/native/libs/ui/include/ui/Region.h"
  },
  {
   "function_name" : "android::Region::Region",
   "linker_set_key" : "_ZN7android6RegionC1ERKNS_4RectE",
   "parameters" :
   [
    {
     "is_this_ptr" : true,
     "referenced_type" : "_ZTIPN7android6RegionE"
    },
    {
     "referenced_type" : "_ZTIRKN7android4RectE"
    }
   ],
   "return_type" : "_ZTIv",
   "source_file" : "frameworks/native/libs/ui/include/ui/Region.h"
  },
  {
   "function_name" : "android::Region::Region",
   "linker_set_key" : "_ZN7android6RegionC1ERKS0_",
   "parameters" :
   [
    {
     "is_this_ptr" : true,
     "referenced_type" : "_ZTIPN7android6RegionE"
    },
    {
     "referenced_type" : "_ZTIRKN7android6RegionE"
    }
   ],
   "return_type" : "_ZTIv",
   "source_file" : "frameworks/native/libs/ui/include/ui/Region.h"
  },
  {
   "function_name" : "android::Region::Region",
   "linker_set_key" : "_ZN7android6RegionC1Ev",
   "parameters" :
   [
    {
     "is_this_ptr" : true,
     "referenced_type" : "_ZTIPN7android6RegionE"
    }
   ],
   "return_type" : "_ZTIv",
   "source_file" : "frameworks/native/libs/ui/include/ui/Region.h"
  },
  {
   "function_name" : "android::Region::Region",
   "linker_set_key" : "_ZN7android6RegionC2ERKNS_4RectE",
   "parameters" :
   [
    {
     "is_this_ptr" : true,
     "referenced_type" : "_ZTIPN7android6RegionE"
    },
    {
     "referenced_type" : "_ZTIRKN7android4RectE"
    }
   ],
   "return_type" : "_ZTIv",
   "source_file" : "frameworks/native/libs/ui/include/ui/Region.h"
  },
  {
   "function_name" : "android::Region::Region",
   "linker_set_key" : "_ZN7android6RegionC2ERKS0_",
   "parameters" :
   [
    {
     "is_this_ptr" : true,
     "referenced_type" : "_ZTIPN7android6RegionE"
    },
    {
     "referenced_type" : "_ZTIRKN7android6RegionE"
    }
   ],
   "return_type" : "_ZTIv",
   "source_file" : "frameworks/native/libs/ui/include/ui/Region.h"
  },
  {
   "function_name" : "android::Region::Region",
   "linker_set_key" : "_ZN7android6RegionC2Ev",
   "parameters" :
   [
    {
     "is_this_ptr" : true,
     "referenced_type" : "_ZTIPN7android6RegionE"
    }
   ],
   "return_type" : "_ZTIv",
   "source_file" : "frameworks/native/libs/ui/include/ui/Region.h"
  },
  {
   "function_name" : "android::Region::~Region",
   "linker_set_key" : "_ZN7android6RegionD1Ev",
   "parameters" :
   [
    {
     "is_this_ptr" : true,
     "referenced_type" : "_ZTIPN7android6RegionE"
    }
   ],
   "return_type" : "_ZTIv",
   "source_file" : "frameworks/native/libs/ui/include/ui/Region.h"
  },
  {
   "function_name" : "android::Region::~Region",
   "linker_set_key" : "_ZN7android6RegionD2Ev",
   "parameters" :
   [
    {
     "is_this_ptr" : true,
     "referenced_type" : "_ZTIPN7android6RegionE"
    }
   ],
   "return_type" : "_ZTIv",
   "source_file" : "frameworks/native/libs/ui/include/ui/Region.h"
  },
  {
   "function_name" : "android::Region::operator&=",
   "linker_set_key" : "_ZN7android6RegionaNERKS0_",
   "parameters" :
   [
    {
     "is_this_ptr" : true,
     "referenced_type" : "_ZTIPN7android6RegionE"
    },
    {
     "referenced_type" : "_ZTIRKN7android6RegionE"
    }
   ],
   "return_type" : "_ZTIRN7android6RegionE",
   "source_file" : "frameworks/native/libs/ui/include/ui/Region.h"
  },
  {
   "function_name" : "android::Region::operator=",
   "linker_set_key" : "_ZN7android6RegionaSERKS0_",
   "parameters" :
   [
    {
     "is_this_ptr" : true,
     "referenced_type" : "_ZTIPN7android6RegionE"
    },
    {
     "referenced_type" : "_ZTIRKN7android6RegionE"
    }
   ],
   "return_type" : "_ZTIRN7android6RegionE",
   "source_file" : "frameworks/native/libs/ui/include/ui/Region.h"
  },
  {
   "function_name" : "android::Region::operator^=",
   "linker_set_key" : "_ZN7android6RegioneOERKS0_",
   "parameters" :
   [
    {
     "is_this_ptr" : true,
     "referenced_type" : "_ZTIPN7android6RegionE"
    },
    {
     "referenced_type" : "_ZTIRKN7android6RegionE"
    }
   ],
   "return_type" : "_ZTIRN7android6RegionE",
   "source_file" : "frameworks/native/libs/ui/include/ui/Region.h"
  },
  {
   "function_name" : "android::Region::operator-=",
   "linker_set_key" : "_ZN7android6RegionmIERKS0_",
   "parameters" :
   [
    {
     "is_this_ptr" : true,
     "referenced_type" : "_ZTIPN7android6RegionE"
    },
    {
     "referenced_type" : "_ZTIRKN7android6RegionE"
    }
   ],
   "return_type" : "_ZTIRN7android6RegionE",
   "source_file" : "frameworks/native/libs/ui/include/ui/Region.h"
  },
  {
   "function_name" : "android::Region::operator|=",
   "linker_set_key" : "_ZN7android6RegionoRERKS0_",
   "parameters" :
   [
    {
     "is_this_ptr" : true,
     "referenced_type" : "_ZTIPN7android6RegionE"
    },
    {
     "referenced_type" : "_ZTIRKN7android6RegionE"
    }
   ],
   "return_type" : "_ZTIRN7android6RegionE",
   "source_file" : "frameworks/native/libs/ui/include/ui/Region.h"
  },
  {
   "function_name" : "android::Region::operator+=",
   "linker_set_key" : "_ZN7android6RegionpLERKNS_5PointE",
   "parameters" :
   [
    {
     "is_this_ptr" : true,
     "referenced_type" : "_ZTIPN7android6RegionE"
    },
    {
     "referenced_type" : "_ZTIRKN7android5PointE"
    }
   ],
   "return_type" : "_ZTIRN7android6RegionE",
   "source_file" : "frameworks/native/libs/ui/include/ui/Region.h"
  },
  {
   "function_name" : "android::FatVector<android::Rect, 4>::FatVector",
   "linker_set_key" : "_ZN7android9FatVectorINS_4RectELj4EEC1Ev",
   "parameters" :
   [
    {
     "is_this_ptr" : true,
     "referenced_type" : "_ZTIPN7android9FatVectorINS_4RectELj4EEE"
    }
   ],
   "return_type" : "_ZTIv",
   "source_file" : "frameworks/native/libs/ui/include/ui/FatVector.h"
  },
  {
   "function_name" : "android::FatVector<android::Rect, 4>::FatVector",
   "linker_set_key" : "_ZN7android9FatVectorINS_4RectELj4EEC2Ev",
   "parameters" :
   [
    {
     "is_this_ptr" : true,
     "referenced_type" : "_ZTIPN7android9FatVectorINS_4RectELj4EEE"
    }
   ],
   "return_type" : "_ZTIv",
   "source_file" : "frameworks/native/libs/ui/include/ui/FatVector.h"
  },
  {
   "function_name" : "android::FloatRect::FloatRect",
   "linker_set_key" : "_ZN7android9FloatRectC1Effff",
   "parameters" :
   [
    {
     "is_this_ptr" : true,
     "referenced_type" : "_ZTIPN7android9FloatRectE"
    },
    {
     "referenced_type" : "_ZTIf"
    },
    {
     "referenced_type" : "_ZTIf"
    },
    {
     "referenced_type" : "_ZTIf"
    },
    {
     "referenced_type" : "_ZTIf"
    }
   ],
   "return_type" : "_ZTIv",
   "source_file" : "frameworks/native/libs/ui/include/ui/FloatRect.h"
  },
  {
   "function_name" : "android::FloatRect::FloatRect",
   "linker_set_key" : "_ZN7android9FloatRectC1Ev",
   "parameters" :
   [
    {
     "is_this_ptr" : true,
     "referenced_type" : "_ZTIPN7android9FloatRectE"
    }
   ],
   "return_type" : "_ZTIv",
   "source_file" : "frameworks/native/libs/ui/include/ui/FloatRect.h"
  },
  {
   "function_name" : "android::FloatRect::FloatRect",
   "linker_set_key" : "_ZN7android9FloatRectC2Effff",
   "parameters" :
   [
    {
     "is_this_ptr" : true,
     "referenced_type" : "_ZTIPN7android9FloatRectE"
    },
    {
     "referenced_type" : "_ZTIf"
    },
    {
     "referenced_type" : "_ZTIf"
    },
    {
     "referenced_type" : "_ZTIf"
    },
    {
     "referenced_type" : "_ZTIf"
    }
   ],
   "return_type" : "_ZTIv",
   "source_file" : "frameworks/native/libs/ui/include/ui/FloatRect.h"
  },
  {
   "function_name" : "android::FloatRect::FloatRect",
   "linker_set_key" : "_ZN7android9FloatRectC2Ev",
   "parameters" :
   [
    {
     "is_this_ptr" : true,
     "referenced_type" : "_ZTIPN7android9FloatRectE"
    }
   ],
   "return_type" : "_ZTIv",
   "source_file" : "frameworks/native/libs/ui/include/ui/FloatRect.h"
  },
  {
   "function_name" : "android::operator==",
   "linker_set_key" : "_ZN7androideqERKNS_9FloatRectES2_",
   "parameters" :
   [
    {
     "referenced_type" : "_ZTIRKN7android9FloatRectE"
    },
    {
     "referenced_type" : "_ZTIRKN7android9FloatRectE"
    }
   ],
   "return_type" : "_ZTIb",
   "source_file" : "frameworks/native/libs/ui/include/ui/FloatRect.h"
  },
  {
   "function_name" : "android::region_operator<android::Rect>::SpannerInner::isDone",
   "linker_set_key" : "_ZNK7android15region_operatorINS_4RectEE12SpannerInner6isDoneEv",
   "parameters" :
   [
    {
     "is_this_ptr" : true,
     "referenced_type" : "_ZTIPKN7android15region_operatorINS_4RectEE12SpannerInnerE"
    }
   ],
   "return_type" : "_ZTIb",
   "source_file" : "frameworks/native/libs/ui/include_private/ui/RegionHelper.h"
  },
  {
   "function_name" : "android::region_operator<android::Rect>::Spanner::isDone",
   "linker_set_key" : "_ZNK7android15region_operatorINS_4RectEE7Spanner6isDoneEv",
   "parameters" :
   [
    {
     "is_this_ptr" : true,
     "referenced_type" : "_ZTIPKN7android15region_operatorINS_4RectEE7SpannerE"
    }
   ],
   "return_type" : "_ZTIb",
   "source_file" : "frameworks/native/libs/ui/include_private/ui/RegionHelper.h"
  },
  {
   "function_name" : "android::ui::Size::isEmpty",
   "linker_set_key" : "_ZNK7android2ui4Size7isEmptyEv",
   "parameters" :
   [
    {
     "is_this_ptr" : true,
     "referenced_type" : "_ZTIPKN7android2ui4SizeE"
    }
   ],
   "return_type" : "_ZTIb",
   "source_file" : "frameworks/native/libs/ui/include/ui/Size.h"
  },
  {
   "function_name" : "android::ui::Size::isValid",
   "linker_set_key" : "_ZNK7android2ui4Size7isValidEv",
   "parameters" :
   [
    {
     "is_this_ptr" : true,
     "referenced_type" : "_ZTIPKN7android2ui4SizeE"
    }
   ],
   "return_type" : "_ZTIb",
   "source_file" : "frameworks/native/libs/ui/include/ui/Size.h"
  },
  {
   "function_name" : "android::ui::Size::getWidth",
   "linker_set_key" : "_ZNK7android2ui4Size8getWidthEv",
   "parameters" :
   [
    {
     "is_this_ptr" : true,
     "referenced_type" : "_ZTIPKN7android2ui4SizeE"
    }
   ],
   "return_type" : "_ZTIi",
   "source_file" : "frameworks/native/libs/ui/include/ui/Size.h"
  },
  {
   "function_name" : "android::ui::Size::getHeight",
   "linker_set_key" : "_ZNK7android2ui4Size9getHeightEv",
   "parameters" :
   [
    {
     "is_this_ptr" : true,
     "referenced_type" : "_ZTIPKN7android2ui4SizeE"
    }
   ],
   "return_type" : "_ZTIi",
   "source_file" : "frameworks/native/libs/ui/include/ui/Size.h"
  },
  {
   "function_name" : "android::Rect::leftBottom",
   "linker_set_key" : "_ZNK7android4Rect10leftBottomEv",
   "parameters" :
   [
    {
     "is_this_ptr" : true,
     "referenced_type" : "_ZTIPKN7android4RectE"
    }
   ],
   "return_type" : "_ZTIN7android5PointE",
   "source_file" : "frameworks/native/libs/ui/include/ui/Rect.h"
  },
  {
   "function_name" : "android::Rect::rightBottom",
   "linker_set_key" : "_ZNK7android4Rect11rightBottomEv",
   "parameters" :
   [
    {
     "is_this_ptr" : true,
     "referenced_type" : "_ZTIPKN7android4RectE"
    }
   ],
   "return_type" : "_ZTIN7android5PointE",
   "source_file" : "frameworks/native/libs/ui/include/ui/Rect.h"
  },
  {
   "function_name" : "android::Rect::toFloatRect",
   "linker_set_key" : "_ZNK7android4Rect11toFloatRectEv",
   "parameters" :
   [
    {
     "is_this_ptr" : true,
     "referenced_type" : "_ZTIPKN7android4RectE"
    }
   ],
   "return_type" : "_ZTIN7android9FloatRectE",
   "source_file" : "frameworks/native/libs/ui/include/ui/Rect.h"
  },
  {
   "function_name" : "android::Rect::scale",
   "linker_set_key" : "_ZNK7android4Rect5scaleEff",
   "parameters" :
   [
    {
     "is_this_ptr" : true,
     "referenced_type" : "_ZTIPKN7android4RectE"
    },
    {
     "referenced_type" : "_ZTIf"
    },
    {
     "referenced_type" : "_ZTIf"
    }
   ],
   "return_type" : "_ZTIN7android4RectE",
   "source_file" : "frameworks/native/libs/ui/include/ui/Rect.h"
  },
  {
   "function_name" : "android::Rect::width",
   "linker_set_key" : "_ZNK7android4Rect5widthEv",
   "parameters" :
   [
    {
     "is_this_ptr" : true,
     "referenced_type" : "_ZTIPKN7android4RectE"
    }
   ],
   "return_type" : "_ZTIi",
   "source_file" : "frameworks/native/libs/ui/include/ui/Rect.h"
  },
  {
   "function_name" : "android::Rect::height",
   "linker_set_key" : "_ZNK7android4Rect6heightEv",
   "parameters" :
   [
    {
     "is_this_ptr" : true,
     "referenced_type" : "_ZTIPKN7android4RectE"
    }
   ],
   "return_type" : "_ZTIi",
   "source_file" : "frameworks/native/libs/ui/include/ui/Rect.h"
  },
  {
   "function_name" : "android::Rect::getSize",
   "linker_set_key" : "_ZNK7android4Rect7getSizeEv",
   "parameters" :
   [
    {
     "is_this_ptr" : true,
     "referenced_type" : "_ZTIPKN7android4RectE"
    }
   ],
   "return_type" : "_ZTIN7android2ui4SizeE",
   "source_file" : "frameworks/native/libs/ui/include/ui/Rect.h"
  },
  {
   "function_name" : "android::Rect::isEmpty",
   "linker_set_key" : "_ZNK7android4Rect7isEmptyEv",
   "parameters" :
   [
    {
     "is_this_ptr" : true,
     "referenced_type" : "_ZTIPKN7android4RectE"
    }
   ],
   "return_type" : "_ZTIb",
   "source_file" : "frameworks/native/libs/ui/include/ui/Rect.h"
  },
  {
   "function_name" : "android::Rect::isValid",
   "linker_set_key" : "_ZNK7android4Rect7isValidEv",
   "parameters" :
   [
    {
     "is_this_ptr" : true,
     "referenced_type" : "_ZTIPKN7android4RectE"
    }
   ],
   "return_type" : "_ZTIb",
   "source_file" : "frameworks/native/libs/ui/include/ui/Rect.h"
  },
  {
   "function_name" : "android::Rect::leftTop",
   "linker_set_key" : "_ZNK7android4Rect7leftTopEv",
   "parameters" :
   [
    {
     "is_this_ptr" : true,
     "referenced_type" : "_ZTIPKN7android4RectE"
    }
   ],
   "return_type" : "_ZTIN7android5PointE",
   "source_file" : "frameworks/native/libs/ui/include/ui/Rect.h"
  },
  {
   "function_name" : "android::Rect::getWidth",
   "linker_set_key" : "_ZNK7android4Rect8getWidthEv",
   "parameters" :
   [
    {
     "is_this_ptr" : true,
     "referenced_type" : "_ZTIPKN7android4RectE"
    }
   ],
   "return_type" : "_ZTIi",
   "source_file" : "frameworks/native/libs/ui/include/ui/Rect.h"
  },
  {
   "function_name" : "android::Rect::rightTop",
   "linker_set_key" : "_ZNK7android4Rect8rightTopEv",
   "parameters" :
   [
    {
     "is_this_ptr" : true,
     "referenced_type" : "_ZTIPKN7android4RectE"
    }
   ],
   "return_type" : "_ZTIN7android5PointE",
   "source_file" : "frameworks/native/libs/ui/include/ui/Rect.h"
  },
  {
   "function_name" : "android::Rect::getBounds",
   "linker_set_key" : "_ZNK7android4Rect9getBoundsEv",
   "parameters" :
   [
    {
     "is_this_ptr" : true,
     "referenced_type" : "_ZTIPKN7android4RectE"
    }
   ],
   "return_type" : "_ZTIN7android4RectE",
   "source_file" : "frameworks/native/libs/ui/include/ui/Rect.h"
  },
  {
   "function_name" : "android::Rect::getHeight",
   "linker_set_key" : "_ZNK7android4Rect9getHeightEv",
   "parameters" :
   [
    {
     "is_this_ptr" : true,
     "referenced_type" : "_ZTIPKN7android4RectE"
    }
   ],
   "return_type" : "_ZTIi",
   "source_file" : "frameworks/native/libs/ui/include/ui/Rect.h"
  },
  {
   "function_name" : "android::Rect::operator==",
   "linker_set_key" : "_ZNK7android4RecteqERKS0_",
   "parameters" :
   [
    {
     "is_this_ptr" : true,
     "referenced_type" : "_ZTIPKN7android4RectE"
    },
    {
     "referenced_type" : "_ZTIRKN7android4RectE"
    }
   ],
   "return_type" : "_ZTIb",
   "source_file" : "frameworks/native/libs/ui/include/ui/Rect.h"
  },
  {
   "function_name" : "android::Rect::operator!=",
   "linker_set_key" : "_ZNK7android4RectneERKS0_",
   "parameters" :
   [
    {
     "is_this_ptr" : true,
     "referenced_type" : "_ZTIPKN7android4RectE"
    },
    {
     "referenced_type" : "_ZTIRKN7android4RectE"
    }
   ],
   "return_type" : "_ZTIb",
   "source_file" : "frameworks/native/libs/ui/include/ui/Rect.h"
  },
  {
   "function_name" : "android::Point::isOrigin",
   "linker_set_key" : "_ZNK7android5Point8isOriginEv",
   "parameters" :
   [
    {
     "is_this_ptr" : true,
     "referenced_type" : "_ZTIPKN7android5PointE"
    }
   ],
   "return_type" : "_ZTIb",
   "source_file" : "frameworks/native/libs/ui/include/ui/Point.h"
  },
  {
   "function_name" : "android::Point::operator==",
   "linker_set_key" : "_ZNK7android5PointeqERKS0_",
   "parameters" :
   [
    {
     "is_this_ptr" : true,
     "referenced_type" : "_ZTIPKN7android5PointE"
    },
    {
     "referenced_type" : "_ZTIRKN7android5PointE"
    }
   ],
   "return_type" : "_ZTIb",
   "source_file" : "frameworks/native/libs/ui/include/ui/Point.h"
  },
  {
   "function_name" : "android::Point::operator<",
   "linker_set_key" : "_ZNK7android5PointltERKS0_",
   "parameters" :
   [
    {
     "is_this_ptr" : true,
     "referenced_type" : "_ZTIPKN7android5PointE"
    },
    {
     "referenced_type" : "_ZTIRKN7android5PointE"
    }
   ],
   "return_type" : "_ZTIb",
   "source_file" : "frameworks/native/libs/ui/include/ui/Point.h"
  },
  {
   "function_name" : "android::Point::operator-",
   "linker_set_key" : "_ZNK7android5PointmiERKS0_",
   "parameters" :
   [
    {
     "is_this_ptr" : true,
     "referenced_type" : "_ZTIPKN7android5PointE"
    },
    {
     "referenced_type" : "_ZTIRKN7android5PointE"
    }
   ],
   "return_type" : "_ZTIKN7android5PointE",
   "source_file" : "frameworks/native/libs/ui/include/ui/Point.h"
  },
  {
   "function_name" : "android::Point::operator!=",
   "linker_set_key" : "_ZNK7android5PointneERKS0_",
   "parameters" :
   [
    {
     "is_this_ptr" : true,
     "referenced_type" : "_ZTIPKN7android5PointE"
    },
    {
     "referenced_type" : "_ZTIRKN7android5PointE"
    }
   ],
   "return_type" : "_ZTIb",
   "source_file" : "frameworks/native/libs/ui/include/ui/Point.h"
  },
  {
   "function_name" : "android::Point::operator+",
   "linker_set_key" : "_ZNK7android5PointplERKS0_",
   "parameters" :
   [
    {
     "is_this_ptr" : true,
     "referenced_type" : "_ZTIPKN7android5PointE"
    },
    {
     "referenced_type" : "_ZTIRKN7android5PointE"
    }
   ],
   "return_type" : "_ZTIKN7android5PointE",
   "source_file" : "frameworks/native/libs/ui/include/ui/Point.h"
  },
  {
   "function_name" : "android::Region::isFixedSize",
   "linker_set_key" : "_ZNK7android6Region11isFixedSizeEv",
   "parameters" :
   [
    {
     "is_this_ptr" : true,
     "referenced_type" : "_ZTIPKN7android6RegionE"
    }
   ],
   "return_type" : "_ZTIb",
   "source_file" : "frameworks/native/libs/ui/include/ui/Region.h"
  },
  {
   "function_name" : "android::Region::hasSameRects",
   "linker_set_key" : "_ZNK7android6Region12hasSameRectsERKS0_",
   "parameters" :
   [
    {
     "is_this_ptr" : true,
     "referenced_type" : "_ZTIPKN7android6RegionE"
    },
    {
     "referenced_type" : "_ZTIRKN7android6RegionE"
    }
   ],
   "return_type" : "_ZTIb",
   "source_file" : "frameworks/native/libs/ui/include/ui/Region.h"
  },
  {
   "function_name" : "android::Region::mergeExclusive",
   "linker_set_key" : "_ZNK7android6Region14mergeExclusiveERKNS_4RectE",
   "parameters" :
   [
    {
     "is_this_ptr" : true,
     "referenced_type" : "_ZTIPKN7android6RegionE"
    },
    {
     "referenced_type" : "_ZTIRKN7android4RectE"
    }
   ],
   "return_type" : "_ZTIKN7android6RegionE",
   "source_file" : "frameworks/native/libs/ui/include/ui/Region.h"
  },
  {
   "function_name" : "android::Region::mergeExclusive",
   "linker_set_key" : "_ZNK7android6Region14mergeExclusiveERKS0_",
   "parameters" :
   [
    {
     "is_this_ptr" : true,
     "referenced_type" : "_ZTIPKN7android6RegionE"
    },
    {
     "referenced_type" : "_ZTIRKN7android6RegionE"
    }
   ],
   "return_type" : "_ZTIKN7android6RegionE",
   "source_file" : "frameworks/native/libs/ui/include/ui/Region.h"
  },
  {
   "function_name" : "android::Region::mergeExclusive",
   "linker_set_key" : "_ZNK7android6Region14mergeExclusiveERKS0_ii",
   "parameters" :
   [
    {
     "is_this_ptr" : true,
     "referenced_type" : "_ZTIPKN7android6RegionE"
    },
    {
     "referenced_type" : "_ZTIRKN7android6RegionE"
    },
    {
     "referenced_type" : "_ZTIi"
    },
    {
     "referenced_type" : "_ZTIi"
    }
   ],
   "return_type" : "_ZTIKN7android6RegionE",
   "source_file" : "frameworks/native/libs/ui/include/ui/Region.h"
  },
  {
   "function_name" : "android::Region::getFlattenedSize",
   "linker_set_key" : "_ZNK7android6Region16getFlattenedSizeEv",
   "parameters" :
   [
    {
     "is_this_ptr" : true,
     "referenced_type" : "_ZTIPKN7android6RegionE"
    }
   ],
   "return_type" : "_ZTIj",
   "source_file" : "frameworks/native/libs/ui/include/ui/Region.h"
  },
  {
   "function_name" : "android::Region::isTriviallyEqual",
   "linker_set_key" : "_ZNK7android6Region16isTriviallyEqualERKS0_",
   "parameters" :
   [
    {
     "is_this_ptr" : true,
     "referenced_type" : "_ZTIPKN7android6RegionE"
    },
    {
     "referenced_type" : "_ZTIRKN7android6RegionE"
    }
   ],
   "return_type" : "_ZTIb",
   "source_file" : "frameworks/native/libs/ui/include/ui/Region.h"
  },
  {
   "function_name" : "android::Region::end",
   "linker_set_key" : "_ZNK7android6Region3endEv",
   "parameters" :
   [
    {
     "is_this_ptr" : true,
     "referenced_type" : "_ZTIPKN7android6RegionE"
    }
   ],
   "return_type" : "_ZTIPKN7android4RectE",
   "source_file" : "frameworks/native/libs/ui/include/ui/Region.h"
  },
  {
   "function_name" : "android::Region::dump",
   "linker_set_key" : "_ZNK7android6Region4dumpEPKcj",
   "parameters" :
   [
    {
     "is_this_ptr" : true,
     "referenced_type" : "_ZTIPKN7android6RegionE"
    },
    {
     "referenced_type" : "_ZTIPKc"
    },
    {
     "default_arg" : true,
     "referenced_type" : "_ZTIj"
    }
   ],
   "return_type" : "_ZTIv",
   "source_file" : "frameworks/native/libs/ui/include/ui/Region.h"
  },
  {
   "function_name" : "android::Region::dump",
   "linker_set_key" : "_ZNK7android6Region4dumpERNSt3__112basic_stringIcNS1_11char_traitsIcEENS1_9allocatorIcEEEEPKcj",
   "parameters" :
   [
    {
     "is_this_ptr" : true,
     "referenced_type" : "_ZTIPKN7android6RegionE"
    },
    {
     "referenced_type" : "_ZTIRNSt3__112basic_stringIcNS_11char_traitsIcEENS_9allocatorIcEEEE"
    },
    {
     "referenced_type" : "_ZTIPKc"
    },
    {
     "default_arg" : true,
     "referenced_type" : "_ZTIj"
    }
   ],
   "return_type" : "_ZTIv",
   "source_file" : "frameworks/native/libs/ui/include/ui/Region.h"
  },
  {
   "function_name" : "android::Region::begin",
   "linker_set_key" : "_ZNK7android6Region5beginEv",
   "parameters" :
   [
    {
     "is_this_ptr" : true,
     "referenced_type" : "_ZTIPKN7android6RegionE"
    }
   ],
   "return_type" : "_ZTIPKN7android4RectE",
   "source_file" : "frameworks/native/libs/ui/include/ui/Region.h"
  },
  {
   "function_name" : "android::Region::merge",
   "linker_set_key" : "_ZNK7android6Region5mergeERKNS_4RectE",
   "parameters" :
   [
    {
     "is_this_ptr" : true,
     "referenced_type" : "_ZTIPKN7android6RegionE"
    },
    {
     "referenced_type" : "_ZTIRKN7android4RectE"
    }
   ],
   "return_type" : "_ZTIKN7android6RegionE",
   "source_file" : "frameworks/native/libs/ui/include/ui/Region.h"
  },
  {
   "function_name" : "android::Region::merge",
   "linker_set_key" : "_ZNK7android6Region5mergeERKS0_",
   "parameters" :
   [
    {
     "is_this_ptr" : true,
     "referenced_type" : "_ZTIPKN7android6RegionE"
    },
    {
     "referenced_type" : "_ZTIRKN7android6RegionE"
    }
   ],
   "return_type" : "_ZTIKN7android6RegionE",
   "source_file" : "frameworks/native/libs/ui/include/ui/Region.h"
  },
  {
   "function_name" : "android::Region::merge",
   "linker_set_key" : "_ZNK7android6Region5mergeERKS0_ii",
   "parameters" :
   [
    {
     "is_this_ptr" : true,
     "referenced_type" : "_ZTIPKN7android6RegionE"
    },
    {
     "referenced_type" : "_ZTIRKN7android6RegionE"
    },
    {
     "referenced_type" : "_ZTIi"
    },
    {
     "referenced_type" : "_ZTIi"
    }
   ],
   "return_type" : "_ZTIKN7android6RegionE",
   "source_file" : "frameworks/native/libs/ui/include/ui/Region.h"
  },
  {
   "function_name" : "android::Region::bounds",
   "linker_set_key" : "_ZNK7android6Region6boundsEv",
   "parameters" :
   [
    {
     "is_this_ptr" : true,
     "referenced_type" : "_ZTIPKN7android6RegionE"
    }
   ],
   "return_type" : "_ZTIN7android4RectE",
   "source_file" : "frameworks/native/libs/ui/include/ui/Region.h"
  },
  {
   "function_name" : "android::Region::isRect",
   "linker_set_key" : "_ZNK7android6Region6isRectEv",
   "parameters" :
   [
    {
     "is_this_ptr" : true,
     "referenced_type" : "_ZTIPKN7android6RegionE"
    }
   ],
   "return_type" : "_ZTIb",
   "source_file" : "frameworks/native/libs/ui/include/ui/Region.h"
  },
  {
   "function_name" : "android::Region::flatten",
   "linker_set_key" : "_ZNK7android6Region7flattenEPvj",
   "parameters" :
   [
    {
     "is_this_ptr" : true,
     "referenced_type" : "_ZTIPKN7android6RegionE"
    },
    {
     "referenced_type" : "_ZTIPv"
    },
    {
     "referenced_type" : "_ZTIj"
    }
   ],
   "return_type" : "_ZTIi",
   "source_file" : "frameworks/native/libs/ui/include/ui/Region.h"
  },
  {
   "function_name" : "android::Region::isEmpty",
   "linker_set_key" : "_ZNK7android6Region7isEmptyEv",
   "parameters" :
   [
    {
     "is_this_ptr" : true,
     "referenced_type" : "_ZTIPKN7android6RegionE"
    }
   ],
   "return_type" : "_ZTIb",
   "source_file" : "frameworks/native/libs/ui/include/ui/Region.h"
  },
  {
   "function_name" : "android::Region::contains",
   "linker_set_key" : "_ZNK7android6Region8containsERKNS_5PointE",
   "parameters" :
   [
    {
     "is_this_ptr" : true,
     "referenced_type" : "_ZTIPKN7android6RegionE"
    },
    {
     "referenced_type" : "_ZTIRKN7android5PointE"
    }
   ],
   "return_type" : "_ZTIb",
   "source_file" : "frameworks/native/libs/ui/include/ui/Region.h"
  },
  {
   "function_name" : "android::Region::contains",
   "linker_set_key" : "_ZNK7android6Region8containsEii",
   "parameters" :
   [
    {
     "is_this_ptr" : true,
     "referenced_type" : "_ZTIPKN7android6RegionE"
    },
    {
     "referenced_type" : "_ZTIi"
    },
    {
     "referenced_type" : "_ZTIi"
    }
   ],
   "return_type" : "_ZTIb",
   "source_file" : "frameworks/native/libs/ui/include/ui/Region.h"
  },
  {
   "function_name" : "android::Region::getArray",
   "linker_set_key" : "_ZNK7android6Region8getArrayEPj",
   "parameters" :
   [
    {
     "is_this_ptr" : true,
     "referenced_type" : "_ZTIPKN7android6RegionE"
    },
    {
     "referenced_type" : "_ZTIPj"
    }
   ],
   "return_type" : "_ZTIPKN7android4RectE",
   "source_file" : "frameworks/native/libs/ui/include/ui/Region.h"
  },
  {
   "function_name" : "android::Region::subtract",
   "linker_set_key" : "_ZNK7android6Region8subtractERKNS_4RectE",
   "parameters" :
   [
    {
     "is_this_ptr" : true,
     "referenced_type" : "_ZTIPKN7android6RegionE"
    },
    {
     "referenced_type" : "_ZTIRKN7android4RectE"
    }
   ],
   "return_type" : "_ZTIKN7android6RegionE",
   "source_file" : "frameworks/native/libs/ui/include/ui/Region.h"
  },
  {
   "function_name" : "android::Region::subtract",
   "linker_set_key" : "_ZNK7android6Region8subtractERKS0_",
   "parameters" :
   [
    {
     "is_this_ptr" : true,
     "referenced_type" : "_ZTIPKN7android6RegionE"
    },
    {
     "referenced_type" : "_ZTIRKN7android6RegionE"
    }
   ],
   "return_type" : "_ZTIKN7android6RegionE",
   "source_file" : "frameworks/native/libs/ui/include/ui/Region.h"
  },
  {
   "function_name" : "android::Region::subtract",
   "linker_set_key" : "_ZNK7android6Region8subtractERKS0_ii",
   "parameters" :
   [
    {
     "is_this_ptr" : true,
     "referenced_type" : "_ZTIPKN7android6RegionE"
    },
    {
     "referenced_type" : "_ZTIRKN7android6RegionE"
    },
    {
     "referenced_type" : "_ZTIi"
    },
    {
     "referenced_type" : "_ZTIi"
    }
   ],
   "return_type" : "_ZTIKN7android6RegionE",
   "source_file" : "frameworks/native/libs/ui/include/ui/Region.h"
  },
  {
   "function_name" : "android::Region::getBounds",
   "linker_set_key" : "_ZNK7android6Region9getBoundsEv",
   "parameters" :
   [
    {
     "is_this_ptr" : true,
     "referenced_type" : "_ZTIPKN7android6RegionE"
    }
   ],
   "return_type" : "_ZTIN7android4RectE",
   "source_file" : "frameworks/native/libs/ui/include/ui/Region.h"
  },
  {
   "function_name" : "android::Region::intersect",
   "linker_set_key" : "_ZNK7android6Region9intersectERKNS_4RectE",
   "parameters" :
   [
    {
     "is_this_ptr" : true,
     "referenced_type" : "_ZTIPKN7android6RegionE"
    },
    {
     "referenced_type" : "_ZTIRKN7android4RectE"
    }
   ],
   "return_type" : "_ZTIKN7android6RegionE",
   "source_file" : "frameworks/native/libs/ui/include/ui/Region.h"
  },
  {
   "function_name" : "android::Region::intersect",
   "linker_set_key" : "_ZNK7android6Region9intersectERKS0_",
   "parameters" :
   [
    {
     "is_this_ptr" : true,
     "referenced_type" : "_ZTIPKN7android6RegionE"
    },
    {
     "referenced_type" : "_ZTIRKN7android6RegionE"
    }
   ],
   "return_type" : "_ZTIKN7android6RegionE",
   "source_file" : "frameworks/native/libs/ui/include/ui/Region.h"
  },
  {
   "function_name" : "android::Region::intersect",
   "linker_set_key" : "_ZNK7android6Region9intersectERKS0_ii",
   "parameters" :
   [
    {
     "is_this_ptr" : true,
     "referenced_type" : "_ZTIPKN7android6RegionE"
    },
    {
     "referenced_type" : "_ZTIRKN7android6RegionE"
    },
    {
     "referenced_type" : "_ZTIi"
    },
    {
     "referenced_type" : "_ZTIi"
    }
   ],
   "return_type" : "_ZTIKN7android6RegionE",
   "source_file" : "frameworks/native/libs/ui/include/ui/Region.h"
  },
  {
   "access" : "private",
   "function_name" : "android::Region::operation",
   "linker_set_key" : "_ZNK7android6Region9operationERKNS_4RectEj",
   "parameters" :
   [
    {
     "is_this_ptr" : true,
     "referenced_type" : "_ZTIPKN7android6RegionE"
    },
    {
     "referenced_type" : "_ZTIRKN7android4RectE"
    },
    {
     "referenced_type" : "_ZTIj"
    }
   ],
   "return_type" : "_ZTIKN7android6RegionE",
   "source_file" : "frameworks/native/libs/ui/include/ui/Region.h"
  },
  {
   "access" : "private",
   "function_name" : "android::Region::operation",
   "linker_set_key" : "_ZNK7android6Region9operationERKS0_iij",
   "parameters" :
   [
    {
     "is_this_ptr" : true,
     "referenced_type" : "_ZTIPKN7android6RegionE"
    },
    {
     "referenced_type" : "_ZTIRKN7android6RegionE"
    },
    {
     "referenced_type" : "_ZTIi"
    },
    {
     "referenced_type" : "_ZTIi"
    },
    {
     "referenced_type" : "_ZTIj"
    }
   ],
   "return_type" : "_ZTIKN7android6RegionE",
   "source_file" : "frameworks/native/libs/ui/include/ui/Region.h"
  },
  {
   "access" : "private",
   "function_name" : "android::Region::operation",
   "linker_set_key" : "_ZNK7android6Region9operationERKS0_j",
   "parameters" :
   [
    {
     "is_this_ptr" : true,
     "referenced_type" : "_ZTIPKN7android6RegionE"
    },
    {
     "referenced_type" : "_ZTIRKN7android6RegionE"
    },
    {
     "referenced_type" : "_ZTIj"
    }
   ],
   "return_type" : "_ZTIKN7android6RegionE",
   "source_file" : "frameworks/native/libs/ui/include/ui/Region.h"
  },
  {
   "function_name" : "android::Region::translate",
   "linker_set_key" : "_ZNK7android6Region9translateEii",
   "parameters" :
   [
    {
     "is_this_ptr" : true,
     "referenced_type" : "_ZTIPKN7android6RegionE"
    },
    {
     "referenced_type" : "_ZTIi"
    },
    {
     "referenced_type" : "_ZTIi"
    }
   ],
   "return_type" : "_ZTIKN7android6RegionE",
   "source_file" : "frameworks/native/libs/ui/include/ui/Region.h"
  },
  {
   "function_name" : "android::Region::operator&",
   "linker_set_key" : "_ZNK7android6RegionanERKS0_",
   "parameters" :
   [
    {
     "is_this_ptr" : true,
     "referenced_type" : "_ZTIPKN7android6RegionE"
    },
    {
     "referenced_type" : "_ZTIRKN7android6RegionE"
    }
   ],
   "return_type" : "_ZTIKN7android6RegionE",
   "source_file" : "frameworks/native/libs/ui/include/ui/Region.h"
  },
  {
   "function_name" : "android::Region::operator^",
   "linker_set_key" : "_ZNK7android6RegioneoERKS0_",
   "parameters" :
   [
    {
     "is_this_ptr" : true,
     "referenced_type" : "_ZTIPKN7android6RegionE"
    },
    {
     "referenced_type" : "_ZTIRKN7android6RegionE"
    }
   ],
   "return_type" : "_ZTIKN7android6RegionE",
   "source_file" : "frameworks/native/libs/ui/include/ui/Region.h"
  },
  {
   "function_name" : "android::Region::operator-",
   "linker_set_key" : "_ZNK7android6RegionmiERKS0_",
   "parameters" :
   [
    {
     "is_this_ptr" : true,
     "referenced_type" : "_ZTIPKN7android6RegionE"
    },
    {
     "referenced_type" : "_ZTIRKN7android6RegionE"
    }
   ],
   "return_type" : "_ZTIKN7android6RegionE",
   "source_file" : "frameworks/native/libs/ui/include/ui/Region.h"
  },
  {
   "function_name" : "android::Region::operator|",
   "linker_set_key" : "_ZNK7android6RegionorERKS0_",
   "parameters" :
   [
    {
     "is_this_ptr" : true,
     "referenced_type" : "_ZTIPKN7android6RegionE"
    },
    {
     "referenced_type" : "_ZTIRKN7android6RegionE"
    }
   ],
   "return_type" : "_ZTIKN7android6RegionE",
   "source_file" : "frameworks/native/libs/ui/include/ui/Region.h"
  },
  {
   "function_name" : "android::Region::operator+",
   "linker_set_key" : "_ZNK7android6RegionplERKNS_5PointE",
   "parameters" :
   [
    {
     "is_this_ptr" : true,
     "referenced_type" : "_ZTIPKN7android6RegionE"
    },
    {
     "referenced_type" : "_ZTIRKN7android5PointE"
    }
   ],
   "return_type" : "_ZTIKN7android6RegionE",
   "source_file" : "frameworks/native/libs/ui/include/ui/Region.h"
  },
  {
   "function_name" : "android::FloatRect::isEmpty",
   "linker_set_key" : "_ZNK7android9FloatRect7isEmptyEv",
   "parameters" :
   [
    {
     "is_this_ptr" : true,
     "referenced_type" : "_ZTIPKN7android9FloatRectE"
    }
   ],
   "return_type" : "_ZTIb",
   "source_file" : "frameworks/native/libs/ui/include/ui/FloatRect.h"
  },
  {
   "function_name" : "android::FloatRect::getWidth",
   "linker_set_key" : "_ZNK7android9FloatRect8getWidthEv",
   "parameters" :
   [
    {
     "is_this_ptr" : true,
     "referenced_type" : "_ZTIPKN7android9FloatRectE"
    }
   ],
   "return_type" : "_ZTIf",
   "source_file" : "frameworks/native/libs/ui/include/ui/FloatRect.h"
  },
  {
   "function_name" : "android::FloatRect::getHeight",
   "linker_set_key" : "_ZNK7android9FloatRect9getHeightEv",
   "parameters" :
   [
    {
     "is_this_ptr" : true,
     "referenced_type" : "_ZTIPKN7android9FloatRectE"
    }
   ],
   "return_type" : "_ZTIf",
   "source_file" : "frameworks/native/libs/ui/include/ui/FloatRect.h"
  },
  {
   "function_name" : "android::FloatRect::intersect",
   "linker_set_key" : "_ZNK7android9FloatRect9intersectERKS0_",
   "parameters" :
   [
    {
     "is_this_ptr" : true,
     "referenced_type" : "_ZTIPKN7android9FloatRectE"
    },
    {
     "referenced_type" : "_ZTIRKN7android9FloatRectE"
    }
   ],
   "return_type" : "_ZTIN7android9FloatRectE",
   "source_file" : "frameworks/native/libs/ui/include/ui/FloatRect.h"
  },
  {
   "function_name" : "std::__1::hash<android::Rect>::operator()",
   "linker_set_key" : "_ZNKSt3__14hashIN7android4RectEEclERKS2_",
   "parameters" :
   [
    {
     "is_this_ptr" : true,
     "referenced_type" : "_ZTIPKNSt3__14hashIN7android4RectEEE"
    },
    {
     "referenced_type" : "_ZTIRKN7android4RectE"
    }
   ],
   "return_type" : "_ZTIj",
   "source_file" : "frameworks/native/libs/ui/include/ui/Rect.h"
  },
  {
   "function_name" : "std::__1::hash<android::Region>::operator()",
   "linker_set_key" : "_ZNKSt3__14hashIN7android6RegionEEclERKS2_",
   "parameters" :
   [
    {
     "is_this_ptr" : true,
     "referenced_type" : "_ZTIPKNSt3__14hashIN7android6RegionEEE"
    },
    {
     "referenced_type" : "_ZTIRKN7android6RegionE"
    }
   ],
   "return_type" : "_ZTIj",
   "source_file" : "frameworks/native/libs/ui/include/ui/Region.h"
  },
  {
   "function_name" : "std::__1::hash<android::FloatRect>::operator()",
   "linker_set_key" : "_ZNKSt3__14hashIN7android9FloatRectEEclERKS2_",
   "parameters" :
   [
    {
     "is_this_ptr" : true,
     "referenced_type" : "_ZTIPKNSt3__14hashIN7android9FloatRectEEE"
    },
    {
     "referenced_type" : "_ZTIRKN7android9FloatRectE"
    }
   ],
   "return_type" : "_ZTIj",
   "source_file" : "frameworks/native/libs/ui/include/ui/FloatRect.h"
  }
 ],
 "global_vars" :
 [
  {
   "linker_set_key" : "_ZN7android15region_operator3LHSE",
   "name" : "android::region_operator::LHS",
   "referenced_type" : "_ZTIKj",
   "source_file" : "frameworks/native/libs/ui/include_private/ui/RegionHelper.h"
  },
  {
   "linker_set_key" : "_ZN7android15region_operator3RHSE",
   "name" : "android::region_operator::RHS",
   "referenced_type" : "_ZTIKj",
   "source_file" : "frameworks/native/libs/ui/include_private/ui/RegionHelper.h"
  },
  {
   "linker_set_key" : "_ZN7android15region_operatorINS_4RectEE3LHSE",
   "name" : "android::region_operator<android::Rect>::LHS",
   "referenced_type" : "_ZTIKj",
   "source_file" : "frameworks/native/libs/ui/include_private/ui/RegionHelper.h"
  },
  {
   "linker_set_key" : "_ZN7android15region_operatorINS_4RectEE3RHSE",
   "name" : "android::region_operator<android::Rect>::RHS",
   "referenced_type" : "_ZTIKj",
   "source_file" : "frameworks/native/libs/ui/include_private/ui/RegionHelper.h"
  },
  {
   "linker_set_key" : "_ZN7android15region_operatorINS_4RectEE9max_valueE",
   "name" : "android::region_operator<android::Rect>::max_value",
   "referenced_type" : "_ZTIKi",
   "source_file" : "frameworks/native/libs/ui/include_private/ui/RegionHelper.h"
  },
  {
   "linker_set_key" : "_ZN7android2ui4Size5EMPTYE",
   "name" : "android::ui::Size::EMPTY",
   "referenced_type" : "_ZTIKN7android2ui4SizeE",
   "source_file" : "frameworks/native/libs/ui/include/ui/Size.h"
  },
  {
   "linker_set_key" : "_ZN7android2ui4Size7INVALIDE",
   "name" : "android::ui::Size::INVALID",
   "referenced_type" : "_ZTIKN7android2ui4SizeE",
   "source_file" : "frameworks/native/libs/ui/include/ui/Size.h"
  },
  {
   "linker_set_key" : "_ZN7android4Rect10EMPTY_RECTE",
   "name" : "android::Rect::EMPTY_RECT",
   "referenced_type" : "_ZTIKN7android4RectE",
   "source_file" : "frameworks/native/libs/ui/include/ui/Rect.h"
  },
  {
   "linker_set_key" : "_ZN7android4Rect12INVALID_RECTE",
   "name" : "android::Rect::INVALID_RECT",
   "referenced_type" : "_ZTIKN7android4RectE",
   "source_file" : "frameworks/native/libs/ui/include/ui/Rect.h"
  },
  {
   "linker_set_key" : "_ZN7android6Region14INVALID_REGIONE",
   "name" : "android::Region::INVALID_REGION",
   "referenced_type" : "_ZTIKN7android6RegionE",
   "source_file" : "frameworks/native/libs/ui/include/ui/Region.h"
  },
  {
   "linker_set_key" : "_ZZN7android2ui4Size5clampENSt3__19enable_ifIXaasr3std14numeric_limitsINS2_9remove_cvINS2_16remove_referenceIT_E4typeEE4typeEEE14is_specializedsr3std14numeric_limitsINS4_INS5_IT0_E4typeEE4typeEEE14is_specializedESB_E4typeEE13isClampNeeded",
   "name" : "isClampNeeded",
   "referenced_type" : "_ZTIKb",
   "source_file" : "frameworks/native/libs/ui/include/ui/Size.h"
  },
  {
   "linker_set_key" : "_ZZN7android2ui4Size5clampIiiEENSt3__19remove_cvINS3_16remove_referenceIT_E4typeEE4typeENS3_9enable_ifIXaasr3std14numeric_limitsISA_EE14is_specializedsr3std14numeric_limitsINS4_INS5_IT0_E4typeEE4typeEEE14is_specializedESC_E4typeEE10fromLowest",
   "name" : "fromLowest",
   "referenced_type" : "_ZTIKi",
   "source_file" : "frameworks/native/libs/ui/include/ui/Size.h"
  },
  {
   "linker_set_key" : "_ZZN7android2ui4Size5clampIiiEENSt3__19remove_cvINS3_16remove_referenceIT_E4typeEE4typeENS3_9enable_ifIXaasr3std14numeric_limitsISA_EE14is_specializedsr3std14numeric_limitsINS4_INS5_IT0_E4typeEE4typeEEE14is_specializedESC_E4typeEE11fromHighest",
   "name" : "fromHighest",
   "referenced_type" : "_ZTIKi",
   "source_file" : "frameworks/native/libs/ui/include/ui/Size.h"
  },
  {
   "linker_set_key" : "_ZZN7android2ui4Size5clampIiiEENSt3__19remove_cvINS3_16remove_referenceIT_E4typeEE4typeENS3_9enable_ifIXaasr3std14numeric_limitsISA_EE14is_specializedsr3std14numeric_limitsINS4_INS5_IT0_E4typeEE4typeEEE14is_specializedESC_E4typeEE13isClampNeeded",
   "name" : "isClampNeeded",
   "referenced_type" : "_ZTIKb",
   "source_file" : "frameworks/native/libs/ui/include/ui/Size.h"
  },
  {
   "linker_set_key" : "_ZZN7android2ui4Size5clampIiiEENSt3__19remove_cvINS3_16remove_referenceIT_E4typeEE4typeENS3_9enable_ifIXaasr3std14numeric_limitsISA_EE14is_specializedsr3std14numeric_limitsINS4_INS5_IT0_E4typeEE4typeEEE14is_specializedESC_E4typeEE15fromClampLowest",
   "name" : "fromClampLowest",
   "referenced_type" : "_ZTIKi",
   "source_file" : "frameworks/native/libs/ui/include/ui/Size.h"
  },
  {
   "linker_set_key" : "_ZZN7android2ui4Size5clampIiiEENSt3__19remove_cvINS3_16remove_referenceIT_E4typeEE4typeENS3_9enable_ifIXaasr3std14numeric_limitsISA_EE14is_specializedsr3std14numeric_limitsINS4_INS5_IT0_E4typeEE4typeEEE14is_specializedESC_E4typeEE16fromClampHighest",
   "name" : "fromClampHighest",
   "referenced_type" : "_ZTIKi",
   "source_file" : "frameworks/native/libs/ui/include/ui/Size.h"
  },
  {
   "linker_set_key" : "_ZZN7android2ui4Size5clampIiiEENSt3__19remove_cvINS3_16remove_referenceIT_E4typeEE4typeENS3_9enable_ifIXaasr3std14numeric_limitsISA_EE14is_specializedsr3std14numeric_limitsINS4_INS5_IT0_E4typeEE4typeEEE14is_specializedESC_E4typeEE17commonClampLowest",
   "name" : "commonClampLowest",
   "referenced_type" : "_ZTIKi",
   "source_file" : "frameworks/native/libs/ui/include/ui/Size.h"
  },
  {
   "linker_set_key" : "_ZZN7android2ui4Size5clampIiiEENSt3__19remove_cvINS3_16remove_referenceIT_E4typeEE4typeENS3_9enable_ifIXaasr3std14numeric_limitsISA_EE14is_specializedsr3std14numeric_limitsINS4_INS5_IT0_E4typeEE4typeEEE14is_specializedESC_E4typeEE18commonClampHighest",
   "name" : "commonClampHighest",
   "referenced_type" : "_ZTIKi",
   "source_file" : "frameworks/native/libs/ui/include/ui/Size.h"
  },
  {
   "linker_set_key" : "_ZZN7android2ui4Size5clampIiiEENSt3__19remove_cvINS3_16remove_referenceIT_E4typeEE4typeENS3_9enable_ifIXaasr3std14numeric_limitsISA_EE14is_specializedsr3std14numeric_limitsINS4_INS5_IT0_E4typeEE4typeEEE14is_specializedESC_E4typeEE8toLowest",
   "name" : "toLowest",
   "referenced_type" : "_ZTIKi",
   "source_file" : "frameworks/native/libs/ui/include/ui/Size.h"
  },
  {
   "linker_set_key" : "_ZZN7android2ui4Size5clampIiiEENSt3__19remove_cvINS3_16remove_referenceIT_E4typeEE4typeENS3_9enable_ifIXaasr3std14numeric_limitsISA_EE14is_specializedsr3std14numeric_limitsINS4_INS5_IT0_E4typeEE4typeEEE14is_specializedESC_E4typeEE9toHighest",
   "name" : "toHighest",
   "referenced_type" : "_ZTIKi",
   "source_file" : "frameworks/native/libs/ui/include/ui/Size.h"
  }
 ],
 "lvalue_reference_types" :
 [
  {
   "alignment" : 4,
   "linker_set_key" : "_ZTIRKN7android15region_operatorINS_4RectEE6regionE",
   "name" : "const android::region_operator<Rect>::region &",
   "referenced_type" : "_ZTIKN7android15region_operatorINS_4RectEE6regionE",
   "self_type" : "_ZTIRKN7android15region_operatorINS_4RectEE6regionE",
   "size" : 4,
   "source_file" : "frameworks/native/libs/ui/include_private/ui/RegionHelper.h"
  },
  {
   "alignment" : 4,
   "linker_set_key" : "_ZTIRKN7android18InlineStdAllocatorINS_4RectELj4EEE",
   "name" : "const android::InlineStdAllocator<android::Rect, 4> &",
   "referenced_type" : "_ZTIKN7android18InlineStdAllocatorINS_4RectELj4EEE",
   "self_type" : "_ZTIRKN7android18InlineStdAllocatorINS_4RectELj4EEE",
   "size" : 4,
   "source_file" : "frameworks/native/libs/ui/include/ui/FatVector.h"
  },
  {
   "alignment" : 4,
   "linker_set_key" : "_ZTIRKN7android2ui4SizeE",
   "name" : "const android::ui::Size &",
   "referenced_type" : "_ZTIKN7android2ui4SizeE",
   "self_type" : "_ZTIRKN7android2ui4SizeE",
   "size" : 4,
   "source_file" : "frameworks/native/libs/ui/include/ui/Size.h"
  },
  {
   "alignment" : 4,
   "linker_set_key" : "_ZTIRKN7android4RectE",
   "name" : "const android::Rect &",
   "referenced_type" : "_ZTIKN7android4RectE",
   "self_type" : "_ZTIRKN7android4RectE",
   "size" : 4,
   "source_file" : "frameworks/native/libs/ui/include/ui/Rect.h"
  },
  {
   "alignment" : 4,
   "linker_set_key" : "_ZTIRKN7android5PointE",
   "name" : "const android::Point &",
   "referenced_type" : "_ZTIKN7android5PointE",
   "self_type" : "_ZTIRKN7android5PointE",
   "size" : 4,
   "source_file" : "frameworks/native/libs/ui/include/ui/Point.h"
  },
  {
   "alignment" : 4,
   "linker_set_key" : "_ZTIRKN7android6RegionE",
   "name" : "const android::Region &",
   "referenced_type" : "_ZTIKN7android6RegionE",
   "self_type" : "_ZTIRKN7android6RegionE",
   "size" : 4,
   "source_file" : "frameworks/native/libs/ui/include/ui/Region.h"
  },
  {
   "alignment" : 4,
   "linker_set_key" : "_ZTIRKN7android9FloatRectE",
   "name" : "const android::FloatRect &",
   "referenced_type" : "_ZTIKN7android9FloatRectE",
   "self_type" : "_ZTIRKN7android9FloatRectE",
   "size" : 4,
   "source_file" : "frameworks/native/libs/ui/include/ui/FloatRect.h"
  },
  {
   "alignment" : 4,
   "linker_set_key" : "_ZTIRN7android15region_operatorINS_4RectEE17region_rasterizerE",
   "name" : "android::region_operator<Rect>::region_rasterizer &",
   "referenced_type" : "_ZTIN7android15region_operatorINS_4RectEE17region_rasterizerE",
   "self_type" : "_ZTIRN7android15region_operatorINS_4RectEE17region_rasterizerE",
   "size" : 4,
   "source_file" : "frameworks/native/libs/ui/include_private/ui/RegionHelper.h"
  },
  {
   "alignment" : 4,
   "linker_set_key" : "_ZTIRN7android15region_operatorINS_4RectEE6regionE",
   "name" : "android::region_operator<Rect>::region &",
   "referenced_type" : "_ZTIN7android15region_operatorINS_4RectEE6regionE",
   "self_type" : "_ZTIRN7android15region_operatorINS_4RectEE6regionE",
   "size" : 4,
   "source_file" : "frameworks/native/libs/ui/include_private/ui/RegionHelper.h"
  },
  {
   "alignment" : 4,
   "linker_set_key" : "_ZTIRN7android18InlineStdAllocatorINS_4RectELj4EE10AllocationE",
   "name" : "android::InlineStdAllocator<Rect, 4>::Allocation &",
   "referenced_type" : "_ZTIN7android18InlineStdAllocatorINS_4RectELj4EE10AllocationE",
   "self_type" : "_ZTIRN7android18InlineStdAllocatorINS_4RectELj4EE10AllocationE",
   "size" : 4,
   "source_file" : "frameworks/native/libs/ui/include/ui/FatVector.h"
  },
  {
   "alignment" : 4,
   "linker_set_key" : "_ZTIRN7android4RectE",
   "name" : "android::Rect &",
   "referenced_type" : "_ZTIN7android4RectE",
   "self_type" : "_ZTIRN7android4RectE",
   "size" : 4,
   "source_file" : "frameworks/native/libs/ui/include/ui/Rect.h"
  },
  {
   "alignment" : 4,
   "linker_set_key" : "_ZTIRN7android5PointE",
   "name" : "android::Point &",
   "referenced_type" : "_ZTIN7android5PointE",
   "self_type" : "_ZTIRN7android5PointE",
   "size" : 4,
   "source_file" : "frameworks/native/libs/ui/include/ui/Point.h"
  },
  {
   "alignment" : 4,
   "linker_set_key" : "_ZTIRN7android6RegionE",
   "name" : "android::Region &",
   "referenced_type" : "_ZTIN7android6RegionE",
   "self_type" : "_ZTIRN7android6RegionE",
   "size" : 4,
   "source_file" : "frameworks/native/libs/ui/include/ui/Region.h"
  },
  {
   "alignment" : 4,
   "linker_set_key" : "_ZTIRNSt3__112basic_stringIcNS_11char_traitsIcEENS_9allocatorIcEEEE",
   "name" : "std::basic_string<char, std::char_traits<char>, std::allocator<char>> &",
   "referenced_type" : "_ZTINSt3__112basic_stringIcNS_11char_traitsIcEENS_9allocatorIcEEEE",
   "self_type" : "_ZTIRNSt3__112basic_stringIcNS_11char_traitsIcEENS_9allocatorIcEEEE",
   "size" : 4,
   "source_file" : "frameworks/native/libs/ui/include/ui/Region.h"
  },
  {
   "alignment" : 4,
   "linker_set_key" : "_ZTIRb",
   "name" : "bool &",
   "referenced_type" : "_ZTIb",
   "self_type" : "_ZTIRb",
   "size" : 4,
   "source_file" : "frameworks/native/libs/ui/include_private/ui/RegionHelper.h"
  },
  {
   "alignment" : 4,
   "linker_set_key" : "_ZTIRi",
   "name" : "int &",
   "referenced_type" : "_ZTIi",
   "self_type" : "_ZTIRi",
   "size" : 4,
   "source_file" : "frameworks/native/libs/ui/include_private/ui/RegionHelper.h"
  }
 ],
 "pointer_types" :
 [
  {
   "alignment" : 4,
   "linker_set_key" : "_ZTIPKN7android15region_operatorINS_4RectEE12SpannerInnerE",
   "name" : "const android::region_operator<Rect>::SpannerInner *",
   "referenced_type" : "_ZTIKN7android15region_operatorINS_4RectEE12SpannerInnerE",
   "self_type" : "_ZTIPKN7android15region_operatorINS_4RectEE12SpannerInnerE",
   "size" : 4,
   "source_file" : "frameworks/native/libs/ui/include_private/ui/RegionHelper.h"
  },
  {
   "alignment" : 4,
   "linker_set_key" : "_ZTIPKN7android15region_operatorINS_4RectEE7SpannerE",
   "name" : "const android::region_operator<Rect>::Spanner *",
   "referenced_type" : "_ZTIKN7android15region_operatorINS_4RectEE7SpannerE",
   "self_type" : "_ZTIPKN7android15region_operatorINS_4RectEE7SpannerE",
   "size" : 4,
   "source_file" : "frameworks/native/libs/ui/include_private/ui/RegionHelper.h"
  },
  {
   "alignment" : 4,
   "linker_set_key" : "_ZTIPKN7android2ui4SizeE",
   "name" : "const android::ui::Size *",
   "referenced_type" : "_ZTIKN7android2ui4SizeE",
   "self_type" : "_ZTIPKN7android2ui4SizeE",
   "size" : 4,
   "source_file" : "frameworks/native/libs/ui/include/ui/Size.h"
  },
  {
   "alignment" : 4,
   "linker_set_key" : "_ZTIPKN7android4RectE",
   "name" : "const android::Rect *",
   "referenced_type" : "_ZTIKN7android4RectE",
   "self_type" : "_ZTIPKN7android4RectE",
   "size" : 4,
   "source_file" : "frameworks/native/libs/ui/include/ui/Rect.h"
  },
  {
   "alignment" : 4,
   "linker_set_key" : "_ZTIPKN7android5PointE",
   "name" : "const android::Point *",
   "referenced_type" : "_ZTIKN7android5PointE",
   "self_type" : "_ZTIPKN7android5PointE",
   "size" : 4,
   "source_file" : "frameworks/native/libs/ui/include/ui/Point.h"
  },
  {
   "alignment" : 4,
   "linker_set_key" : "_ZTIPKN7android6RegionE",
   "name" : "const android::Region *",
   "referenced_type" : "_ZTIKN7android6RegionE",
   "self_type" : "_ZTIPKN7android6RegionE",
   "size" : 4,
   "source_file" : "frameworks/native/libs/ui/include/ui/Region.h"
  },
  {
   "alignment" : 4,
   "linker_set_key" : "_ZTIPKN7android9FloatRectE",
   "name" : "const android::FloatRect *",
   "referenced_type" : "_ZTIKN7android9FloatRectE",
   "self_type" : "_ZTIPKN7android9FloatRectE",
   "size" : 4,
   "source_file" : "frameworks/native/libs/ui/include/ui/FloatRect.h"
  },
  {
   "alignment" : 4,
   "linker_set_key" : "_ZTIPKNSt3__14hashIN7android4RectEEE",
   "name" : "const std::hash<android::Rect> *",
   "referenced_type" : "_ZTIKNSt3__14hashIN7android4RectEEE",
   "self_type" : "_ZTIPKNSt3__14hashIN7android4RectEEE",
   "size" : 4,
   "source_file" : "frameworks/native/libs/ui/include/ui/Rect.h"
  },
  {
   "alignment" : 4,
   "linker_set_key" : "_ZTIPKNSt3__14hashIN7android6RegionEEE",
   "name" : "const std::hash<android::Region> *",
   "referenced_type" : "_ZTIKNSt3__14hashIN7android6RegionEEE",
   "self_type" : "_ZTIPKNSt3__14hashIN7android6RegionEEE",
   "size" : 4,
   "source_file" : "frameworks/native/libs/ui/include/ui/Region.h"
  },
  {
   "alignment" : 4,
   "linker_set_key" : "_ZTIPKNSt3__14hashIN7android9FloatRectEEE",
   "name" : "const std::hash<android::FloatRect> *",
   "referenced_type" : "_ZTIKNSt3__14hashIN7android9FloatRectEEE",
   "self_type" : "_ZTIPKNSt3__14hashIN7android9FloatRectEEE",
   "size" : 4,
   "source_file" : "frameworks/native/libs/ui/include/ui/FloatRect.h"
  },
  {
   "alignment" : 4,
   "linker_set_key" : "_ZTIPKc",
   "name" : "const char *",
   "referenced_type" : "_ZTIKc",
   "self_type" : "_ZTIPKc",
   "size" : 4,
   "source_file" : "frameworks/native/libs/ui/include/ui/Region.h"
  },
  {
   "alignment" : 4,
   "linker_set_key" : "_ZTIPKv",
   "name" : "const void *",
   "referenced_type" : "_ZTIKv",
   "self_type" : "_ZTIPKv",
   "size" : 4,
   "source_file" : "frameworks/native/libs/ui/include/ui/FatVector.h"
  },
  {
   "alignment" : 4,
   "linker_set_key" : "_ZTIPN7android15region_operatorINS_4RectEE11SpannerBaseE",
   "name" : "android::region_operator<Rect>::SpannerBase *",
   "referenced_type" : "_ZTIN7android15region_operatorINS_4RectEE11SpannerBaseE",
   "self_type" : "_ZTIPN7android15region_operatorINS_4RectEE11SpannerBaseE",
   "size" : 4,
   "source_file" : "frameworks/native/libs/ui/include_private/ui/RegionHelper.h"
  },
  {
   "alignment" : 4,
   "linker_set_key" : "_ZTIPN7android15region_operatorINS_4RectEE12SpannerInnerE",
   "name" : "android::region_operator<Rect>::SpannerInner *",
   "referenced_type" : "_ZTIN7android15region_operatorINS_4RectEE12SpannerInnerE",
   "self_type" : "_ZTIPN7android15region_operatorINS_4RectEE12SpannerInnerE",
   "size" : 4,
   "source_file" : "frameworks/native/libs/ui/include_private/ui/RegionHelper.h"
  },
  {
   "alignment" : 4,
   "linker_set_key" : "_ZTIPN7android15region_operatorINS_4RectEE17region_rasterizerE",
   "name" : "android::region_operator<Rect>::region_rasterizer *",
   "referenced_type" : "_ZTIN7android15region_operatorINS_4RectEE17region_rasterizerE",
   "self_type" : "_ZTIPN7android15region_operatorINS_4RectEE17region_rasterizerE",
   "size" : 4,
   "source_file" : "frameworks/native/libs/ui/include_private/ui/RegionHelper.h"
  },
  {
   "alignment" : 4,
   "linker_set_key" : "_ZTIPN7android15region_operatorINS_4RectEE6regionE",
   "name" : "android::region_operator<Rect>::region *",
   "referenced_type" : "_ZTIN7android15region_operatorINS_4RectEE6regionE",
   "self_type" : "_ZTIPN7android15region_operatorINS_4RectEE6regionE",
   "size" : 4,
   "source_file" : "frameworks/native/libs/ui/include_private/ui/RegionHelper.h"
  },
  {
   "alignment" : 4,
   "linker_set_key" : "_ZTIPN7android15region_operatorINS_4RectEE7SpannerE",
   "name" : "android::region_operator<Rect>::Spanner *",
   "referenced_type" : "_ZTIN7android15region_operatorINS_4RectEE7SpannerE",
   "self_type" : "_ZTIPN7android15region_operatorINS_4RectEE7SpannerE",
   "size" : 4,
   "source_file" : "frameworks/native/libs/ui/include_private/ui/RegionHelper.h"
  },
  {
   "alignment" : 4,
   "linker_set_key" : "_ZTIPN7android15region_operatorINS_4RectEEE",
   "name" : "android::region_operator<android::Rect> *",
   "referenced_type" : "_ZTIN7android15region_operatorINS_4RectEEE",
   "self_type" : "_ZTIPN7android15region_operatorINS_4RectEEE",
   "size" : 4,
   "source_file" : "frameworks/native/libs/ui/include_private/ui/RegionHelper.h"
  },
  {
   "alignment" : 4,
   "linker_set_key" : "_ZTIPN7android18InlineStdAllocatorINS_4RectELj4EE10AllocationE",
   "name" : "android::InlineStdAllocator<Rect, 4>::Allocation *",
   "referenced_type" : "_ZTIN7android18InlineStdAllocatorINS_4RectELj4EE10AllocationE",
   "self_type" : "_ZTIPN7android18InlineStdAllocatorINS_4RectELj4EE10AllocationE",
   "size" : 4,
   "source_file" : "frameworks/native/libs/ui/include/ui/FatVector.h"
  },
  {
   "alignment" : 4,
   "linker_set_key" : "_ZTIPN7android18InlineStdAllocatorINS_4RectELj4EEE",
   "name" : "android::InlineStdAllocator<android::Rect, 4> *",
   "referenced_type" : "_ZTIN7android18InlineStdAllocatorINS_4RectELj4EEE",
   "self_type" : "_ZTIPN7android18InlineStdAllocatorINS_4RectELj4EEE",
   "size" : 4,
   "source_file" : "frameworks/native/libs/ui/include/ui/FatVector.h"
  },
  {
   "alignment" : 4,
   "linker_set_key" : "_ZTIPN7android2ui4SizeE",
   "name" : "android::ui::Size *",
   "referenced_type" : "_ZTIN7android2ui4SizeE",
   "self_type" : "_ZTIPN7android2ui4SizeE",
   "size" : 4,
   "source_file" : "frameworks/native/libs/ui/include/ui/Size.h"
  },
  {
   "alignment" : 4,
   "linker_set_key" : "_ZTIPN7android4RectE",
   "name" : "android::Rect *",
   "referenced_type" : "_ZTIN7android4RectE",
   "self_type" : "_ZTIPN7android4RectE",
   "size" : 4,
   "source_file" : "frameworks/native/libs/ui/include/ui/Rect.h"
  },
  {
   "alignment" : 4,
   "linker_set_key" : "_ZTIPN7android5PointE",
   "name" : "android::Point *",
   "referenced_type" : "_ZTIN7android5PointE",
   "self_type" : "_ZTIPN7android5PointE",
   "size" : 4,
   "source_file" : "frameworks/native/libs/ui/include/ui/Point.h"
  },
  {
   "alignment" : 4,
   "linker_set_key" : "_ZTIPN7android6RegionE",
   "name" : "android::Region *",
   "referenced_type" : "_ZTIN7android6RegionE",
   "self_type" : "_ZTIPN7android6RegionE",
   "size" : 4,
   "source_file" : "frameworks/native/libs/ui/include/ui/Region.h"
  },
  {
   "alignment" : 4,
   "linker_set_key" : "_ZTIPN7android9FatVectorINS_4RectELj4EEE",
   "name" : "android::FatVector<android::Rect, 4> *",
   "referenced_type" : "_ZTIN7android9FatVectorINS_4RectELj4EEE",
   "self_type" : "_ZTIPN7android9FatVectorINS_4RectELj4EEE",
   "size" : 4,
   "source_file" : "frameworks/native/libs/ui/include/ui/FatVector.h"
  },
  {
   "alignment" : 4,
   "linker_set_key" : "_ZTIPN7android9FloatRectE",
   "name" : "android::FloatRect *",
   "referenced_type" : "_ZTIN7android9FloatRectE",
   "self_type" : "_ZTIPN7android9FloatRectE",
   "size" : 4,
   "source_file" : "frameworks/native/libs/ui/include/ui/FloatRect.h"
  },
  {
   "alignment" : 4,
   "linker_set_key" : "_ZTIPj",
   "name" : "unsigned int *",
   "referenced_type" : "_ZTIj",
   "self_type" : "_ZTIPj",
   "size" : 4,
   "source_file" : "frameworks/native/libs/ui/include/ui/Region.h"
  },
  {
   "alignment" : 4,
   "linker_set_key" : "_ZTIPv",
   "name" : "void *",
   "referenced_type" : "_ZTIv",
   "self_type" : "_ZTIPv",
   "size" : 4,
   "source_file" : "frameworks/native/libs/ui/include/ui/Region.h"
  }
 ],
 "qualified_types" :
 [
  {
   "alignment" : 4,
   "is_const" : true,
   "linker_set_key" : "_ZTIKN7android15region_operatorINS_4RectEE12SpannerInnerE",
   "name" : "const android::region_operator<Rect>::SpannerInner",
   "referenced_type" : "_ZTIN7android15region_operatorINS_4RectEE12SpannerInnerE",
   "self_type" : "_ZTIKN7android15region_operatorINS_4RectEE12SpannerInnerE",
   "size" : 48,
   "source_file" : "frameworks/native/libs/ui/include_private/ui/RegionHelper.h"
  },
  {
   "alignment" : 4,
   "is_const" : true,
   "linker_set_key" : "_ZTIKN7android15region_operatorINS_4RectEE6regionE",
   "name" : "const android::region_operator<Rect>::region",
   "referenced_type" : "_ZTIN7android15region_operatorINS_4RectEE6regionE",
   "self_type" : "_ZTIKN7android15region_operatorINS_4RectEE6regionE",
   "size" : 16,
   "source_file" : "frameworks/native/libs/ui/include_private/ui/RegionHelper.h"
  },
  {
   "alignment" : 4,
   "is_const" : true,
   "linker_set_key" : "_ZTIKN7android15region_operatorINS_4RectEE7SpannerE",
   "name" : "const android::region_operator<Rect>::Spanner",
   "referenced_type" : "_ZTIN7android15region_operatorINS_4RectEE7SpannerE",
   "self_type" : "_ZTIKN7android15region_operatorINS_4RectEE7SpannerE",
   "size" : 48,
   "source_file" : "frameworks/native/libs/ui/include_private/ui/RegionHelper.h"
  },
  {
   "alignment" : 4,
   "is_const" : true,
   "linker_set_key" : "_ZTIKN7android18InlineStdAllocatorINS_4RectELj4EEE",
   "name" : "const android::InlineStdAllocator<android::Rect, 4>",
   "referenced_type" : "_ZTIN7android18InlineStdAllocatorINS_4RectELj4EEE",
   "self_type" : "_ZTIKN7android18InlineStdAllocatorINS_4RectELj4EEE",
   "size" : 4,
   "source_file" : "frameworks/native/libs/ui/include/ui/FatVector.h"
  },
  {
   "alignment" : 4,
   "is_const" : true,
   "linker_set_key" : "_ZTIKN7android2ui4SizeE",
   "name" : "const android::ui::Size",
   "referenced_type" : "_ZTIN7android2ui4SizeE",
   "self_type" : "_ZTIKN7android2ui4SizeE",
   "size" : 8,
   "source_file" : "frameworks/native/libs/ui/include/ui/Size.h"
  },
  {
   "alignment" : 4,
   "is_const" : true,
   "linker_set_key" : "_ZTIKN7android4RectE",
   "name" : "const android::Rect",
   "referenced_type" : "_ZTIN7android4RectE",
   "self_type" : "_ZTIKN7android4RectE",
   "size" : 16,
   "source_file" : "frameworks/native/libs/ui/include/ui/Rect.h"
  },
  {
   "alignment" : 4,
   "is_const" : true,
   "linker_set_key" : "_ZTIKN7android5PointE",
   "name" : "const android::Point",
   "referenced_type" : "_ZTIN7android5PointE",
   "self_type" : "_ZTIKN7android5PointE",
   "size" : 8,
   "source_file" : "frameworks/native/libs/ui/include/ui/Point.h"
  },
  {
   "alignment" : 4,
   "is_const" : true,
   "linker_set_key" : "_ZTIKN7android6RegionE",
   "name" : "const android::Region",
   "referenced_type" : "_ZTIN7android6RegionE",
   "self_type" : "_ZTIKN7android6RegionE",
   "size" : 84,
   "source_file" : "frameworks/native/libs/ui/include/ui/Region.h"
  },
  {
   "alignment" : 4,
   "is_const" : true,
   "linker_set_key" : "_ZTIKN7android9FloatRectE",
   "name" : "const android::FloatRect",
   "referenced_type" : "_ZTIN7android9FloatRectE",
   "self_type" : "_ZTIKN7android9FloatRectE",
   "size" : 16,
   "source_file" : "frameworks/native/libs/ui/include/ui/FloatRect.h"
  },
  {
   "alignment" : 1,
   "is_const" : true,
   "linker_set_key" : "_ZTIKNSt3__14hashIN7android4RectEEE",
   "name" : "const std::hash<android::Rect>",
   "referenced_type" : "_ZTINSt3__14hashIN7android4RectEEE",
   "self_type" : "_ZTIKNSt3__14hashIN7android4RectEEE",
   "size" : 1,
   "source_file" : "frameworks/native/libs/ui/include/ui/Rect.h"
  },
  {
   "alignment" : 1,
   "is_const" : true,
   "linker_set_key" : "_ZTIKNSt3__14hashIN7android6RegionEEE",
   "name" : "const std::hash<android::Region>",
   "referenced_type" : "_ZTINSt3__14hashIN7android6RegionEEE",
   "self_type" : "_ZTIKNSt3__14hashIN7android6RegionEEE",
   "size" : 1,
   "source_file" : "frameworks/native/libs/ui/include/ui/Region.h"
  },
  {
   "alignment" : 1,
   "is_const" : true,
   "linker_set_key" : "_ZTIKNSt3__14hashIN7android9FloatRectEEE",
   "name" : "const std::hash<android::FloatRect>",
   "referenced_type" : "_ZTINSt3__14hashIN7android9FloatRectEEE",
   "self_type" : "_ZTIKNSt3__14hashIN7android9FloatRectEEE",
   "size" : 1,
   "source_file" : "frameworks/native/libs/ui/include/ui/FloatRect.h"
  },
  {
   "alignment" : 1,
   "is_const" : true,
   "linker_set_key" : "_ZTIKb",
   "name" : "const bool",
   "referenced_type" : "_ZTIb",
   "self_type" : "_ZTIKb",
   "size" : 1,
   "source_file" : "frameworks/native/libs/ui/include/ui/Size.h"
  },
  {
   "alignment" : 1,
   "is_const" : true,
   "linker_set_key" : "_ZTIKc",
   "name" : "const char",
   "referenced_type" : "_ZTIc",
   "self_type" : "_ZTIKc",
   "size" : 1,
   "source_file" : "frameworks/native/libs/ui/include/ui/Region.h"
  },
  {
   "alignment" : 4,
   "is_const" : true,
   "linker_set_key" : "_ZTIKi",
   "name" : "const int",
   "referenced_type" : "_ZTIi",
   "self_type" : "_ZTIKi",
   "size" : 4,
   "source_file" : "frameworks/native/libs/ui/include/ui/Size.h"
  },
  {
   "alignment" : 4,
   "is_const" : true,
   "linker_set_key" : "_ZTIKj",
   "name" : "const unsigned int",
   "referenced_type" : "_ZTIj",
   "self_type" : "_ZTIKj",
   "size" : 4,
   "source_file" : "frameworks/native/libs/ui/include_private/ui/RegionHelper.h"
  },
  {
   "is_const" : true,
   "linker_set_key" : "_ZTIKv",
   "name" : "const void",
   "referenced_type" : "_ZTIv",
   "self_type" : "_ZTIKv",
   "source_file" : "frameworks/native/libs/ui/include/ui/FatVector.h"
  }
 ],
 "record_types" :
 [
  {
   "alignment" : 4,
   "fields" :
   [
    {
     "field_name" : "left",
     "referenced_type" : "_ZTIi"
    },
    {
     "field_name" : "top",
     "field_offset" : 32,
     "referenced_type" : "_ZTIi"
    },
    {
     "field_name" : "right",
     "field_offset" : 64,
     "referenced_type" : "_ZTIi"
    },
    {
     "field_name" : "bottom",
     "field_offset" : 96,
     "referenced_type" : "_ZTIi"
    }
   ],
   "linker_set_key" : "_ZTI5ARect",
   "name" : "ARect",
   "referenced_type" : "_ZTI5ARect",
   "self_type" : "_ZTI5ARect",
   "size" : 16,
   "source_file" : "frameworks/native/libs/arect/include/android/rect.h"
  },
  {
   "access" : "private",
   "alignment" : 4,
   "fields" :
   [
    {
     "access" : "protected",
     "field_name" : "lhs_head",
     "referenced_type" : "_ZTIi"
    },
    {
     "access" : "protected",
     "field_name" : "lhs_tail",
     "field_offset" : 32,
     "referenced_type" : "_ZTIi"
    },
    {
     "access" : "protected",
     "field_name" : "rhs_head",
     "field_offset" : 64,
     "referenced_type" : "_ZTIi"
    },
    {
     "access" : "protected",
     "field_name" : "rhs_tail",
     "field_offset" : 96,
     "referenced_type" : "_ZTIi"
    }
   ],
   "linker_set_key" : "_ZTIN7android15region_operatorINS_4RectEE11SpannerBaseE",
   "name" : "android::region_operator<Rect>::SpannerBase",
   "record_kind" : "class",
   "referenced_type" : "_ZTIN7android15region_operatorINS_4RectEE11SpannerBaseE",
   "self_type" : "_ZTIN7android15region_operatorINS_4RectEE11SpannerBaseE",
   "size" : 16,
   "source_file" : "frameworks/native/libs/ui/include_private/ui/RegionHelper.h"
  },
  {
   "access" : "private",
   "alignment" : 4,
   "base_specifiers" :
   [
    {
     "access" : "protected",
     "referenced_type" : "_ZTIN7android15region_operatorINS_4RectEE11SpannerBaseE"
    }
   ],
   "fields" :
   [
    {
     "access" : "private",
     "field_name" : "lhs",
     "field_offset" : 128,
     "referenced_type" : "_ZTIN7android15region_operatorINS_4RectEE6regionE"
    },
    {
     "access" : "private",
     "field_name" : "rhs",
     "field_offset" : 256,
     "referenced_type" : "_ZTIN7android15region_operatorINS_4RectEE6regionE"
    }
   ],
   "linker_set_key" : "_ZTIN7android15region_operatorINS_4RectEE12SpannerInnerE",
   "name" : "android::region_operator<Rect>::SpannerInner",
   "record_kind" : "class",
   "referenced_type" : "_ZTIN7android15region_operatorINS_4RectEE12SpannerInnerE",
   "self_type" : "_ZTIN7android15region_operatorINS_4RectEE12SpannerInnerE",
   "size" : 48,
   "source_file" : "frameworks/native/libs/ui/include_private/ui/RegionHelper.h"
  },
  {
   "alignment" : 4,
   "linker_set_key" : "_ZTIN7android15region_operatorINS_4RectEE17region_rasterizerE",
   "name" : "android::region_operator<Rect>::region_rasterizer",
   "record_kind" : "class",
   "referenced_type" : "_ZTIN7android15region_operatorINS_4RectEE17region_rasterizerE",
   "self_type" : "_ZTIN7android15region_operatorINS_4RectEE17region_rasterizerE",
   "size" : 4,
   "source_file" : "frameworks/native/libs/ui/include_private/ui/RegionHelper.h",
   "vtable_components" :
   [
    {
     "kind" : "offset_to_top"
    },
    {
     "kind" : "rtti",
     "mangled_component_name" : "_ZTIN7android15region_operatorINS_4RectEE17region_rasterizerE"
    },
    {
     "is_pure" : true,
     "mangled_component_name" : "_ZN7android15region_operatorINS_4RectEE17region_rasterizerclERKS1_"
    },
    {
     "kind" : "complete_dtor_pointer",
     "mangled_component_name" : "_ZN7android15region_operatorINS_4RectEE17region_rasterizerD1Ev"
    },
    {
     "kind" : "deleting_dtor_pointer",
     "mangled_component_name" : "_ZN7android15region_operatorINS_4RectEE17region_rasterizerD0Ev"
    }
   ]
  },
  {
   "alignment" : 4,
   "fields" :
   [
    {
     "field_name" : "rects",
     "referenced_type" : "_ZTIPKN7android4RectE"
    },
    {
     "field_name" : "count",
     "field_offset" : 32,
     "referenced_type" : "_ZTIj"
    },
    {
     "field_name" : "dx",
     "field_offset" : 64,
     "referenced_type" : "_ZTIi"
    },
    {
     "field_name" : "dy",
     "field_offset" : 96,
     "referenced_type" : "_ZTIi"
    }
   ],
   "linker_set_key" : "_ZTIN7android15region_operatorINS_4RectEE6regionE",
   "name" : "android::region_operator<Rect>::region",
   "referenced_type" : "_ZTIN7android15region_operatorINS_4RectEE6regionE",
   "self_type" : "_ZTIN7android15region_operatorINS_4RectEE6regionE",
   "size" : 16,
   "source_file" : "frameworks/native/libs/ui/include_private/ui/RegionHelper.h"
  },
  {
   "access" : "private",
   "alignment" : 4,
   "base_specifiers" :
   [
    {
     "access" : "protected",
     "referenced_type" : "_ZTIN7android15region_operatorINS_4RectEE11SpannerBaseE"
    }
   ],
   "fields" :
   [
    {
     "access" : "private",
     "field_name" : "lhs",
     "field_offset" : 128,
     "referenced_type" : "_ZTIN7android15region_operatorINS_4RectEE6regionE"
    },
    {
     "access" : "private",
     "field_name" : "rhs",
     "field_offset" : 256,
     "referenced_type" : "_ZTIN7android15region_operatorINS_4RectEE6regionE"
    }
   ],
   "linker_set_key" : "_ZTIN7android15region_operatorINS_4RectEE7SpannerE",
   "name" : "android::region_operator<Rect>::Spanner",
   "record_kind" : "class",
   "referenced_type" : "_ZTIN7android15region_operatorINS_4RectEE7SpannerE",
   "self_type" : "_ZTIN7android15region_operatorINS_4RectEE7SpannerE",
   "size" : 48,
   "source_file" : "frameworks/native/libs/ui/include_private/ui/RegionHelper.h"
  },
  {
   "alignment" : 4,
   "fields" :
   [
    {
     "access" : "private",
     "field_name" : "op_mask",
     "referenced_type" : "_ZTIj"
    },
    {
     "access" : "private",
     "field_name" : "spanner",
     "field_offset" : 32,
     "referenced_type" : "_ZTIN7android15region_operatorINS_4RectEE7SpannerE"
    }
   ],
   "linker_set_key" : "_ZTIN7android15region_operatorINS_4RectEEE",
   "name" : "android::region_operator<android::Rect>",
   "record_kind" : "class",
   "referenced_type" : "_ZTIN7android15region_operatorINS_4RectEEE",
   "self_type" : "_ZTIN7android15region_operatorINS_4RectEEE",
   "size" : 52,
   "source_file" : "frameworks/native/libs/ui/include_private/ui/RegionHelper.h",
   "template_args" : [ "_ZTIN7android4RectE" ]
  },
  {
   "alignment" : 1,
   "fields" :
   [
    {
     "field_name" : "array",
     "referenced_type" : "_ZTIA64_c"
    },
    {
     "field_name" : "inUse",
     "field_offset" : 512,
     "referenced_type" : "_ZTIb"
    }
   ],
   "linker_set_key" : "_ZTIN7android18InlineStdAllocatorINS_4RectELj4EE10AllocationE",
   "name" : "android::InlineStdAllocator<Rect, 4>::Allocation",
   "referenced_type" : "_ZTIN7android18InlineStdAllocatorINS_4RectELj4EE10AllocationE",
   "self_type" : "_ZTIN7android18InlineStdAllocatorINS_4RectELj4EE10AllocationE",
   "size" : 65,
   "source_file" : "frameworks/native/libs/ui/include/ui/FatVector.h"
  },
  {
   "alignment" : 4,
   "fields" :
   [
    {
     "field_name" : "mAllocation",
     "referenced_type" : "_ZTIRN7android18InlineStdAllocatorINS_4RectELj4EE10AllocationE"
    }
   ],
   "linker_set_key" : "_ZTIN7android18InlineStdAllocatorINS_4RectELj4EEE",
   "name" : "android::InlineStdAllocator<android::Rect, 4>",
   "record_kind" : "class",
   "referenced_type" : "_ZTIN7android18InlineStdAllocatorINS_4RectELj4EEE",
   "self_type" : "_ZTIN7android18InlineStdAllocatorINS_4RectELj4EEE",
   "size" : 4,
   "source_file" : "frameworks/native/libs/ui/include/ui/FatVector.h",
   "template_args" : [ "_ZTIN7android4RectE" ]
  },
  {
   "alignment" : 1,
   "linker_set_key" : "_ZTIN7android18trait_trivial_copyINS_4RectEEE",
   "name" : "android::trait_trivial_copy<android::Rect>",
   "referenced_type" : "_ZTIN7android18trait_trivial_copyINS_4RectEEE",
   "self_type" : "_ZTIN7android18trait_trivial_copyINS_4RectEEE",
   "size" : 1,
   "source_file" : "frameworks/native/libs/ui/include/ui/Rect.h",
   "template_args" : [ "_ZTIN7android4RectE" ]
  },
  {
   "alignment" : 1,
   "linker_set_key" : "_ZTIN7android18trait_trivial_copyINS_5PointEEE",
   "name" : "android::trait_trivial_copy<android::Point>",
   "referenced_type" : "_ZTIN7android18trait_trivial_copyINS_5PointEEE",
   "self_type" : "_ZTIN7android18trait_trivial_copyINS_5PointEEE",
   "size" : 1,
   "source_file" : "frameworks/native/libs/ui/include/ui/Point.h",
   "template_args" : [ "_ZTIN7android5PointE" ]
  },
  {
   "alignment" : 1,
   "linker_set_key" : "_ZTIN7android18trait_trivial_ctorINS_4RectEEE",
   "name" : "android::trait_trivial_ctor<android::Rect>",
   "referenced_type" : "_ZTIN7android18trait_trivial_ctorINS_4RectEEE",
   "self_type" : "_ZTIN7android18trait_trivial_ctorINS_4RectEEE",
   "size" : 1,
   "source_file" : "frameworks/native/libs/ui/include/ui/Rect.h",
   "template_args" : [ "_ZTIN7android4RectE" ]
  },
  {
   "alignment" : 1,
   "linker_set_key" : "_ZTIN7android18trait_trivial_ctorINS_5PointEEE",
   "name" : "android::trait_trivial_ctor<android::Point>",
   "referenced_type" : "_ZTIN7android18trait_trivial_ctorINS_5PointEEE",
   "self_type" : "_ZTIN7android18trait_trivial_ctorINS_5PointEEE",
   "size" : 1,
   "source_file" : "frameworks/native/libs/ui/include/ui/Point.h",
   "template_args" : [ "_ZTIN7android5PointE" ]
  },
  {
   "alignment" : 1,
   "linker_set_key" : "_ZTIN7android18trait_trivial_dtorINS_4RectEEE",
   "name" : "android::trait_trivial_dtor<android::Rect>",
   "referenced_type" : "_ZTIN7android18trait_trivial_dtorINS_4RectEEE",
   "self_type" : "_ZTIN7android18trait_trivial_dtorINS_4RectEEE",
   "size" : 1,
   "source_file" : "frameworks/native/libs/ui/include/ui/Rect.h",
   "template_args" : [ "_ZTIN7android4RectE" ]
  },
  {
   "alignment" : 1,
   "linker_set_key" : "_ZTIN7android18trait_trivial_dtorINS_5PointEEE",
   "name" : "android::trait_trivial_dtor<android::Point>",
   "referenced_type" : "_ZTIN7android18trait_trivial_dtorINS_5PointEEE",
   "self_type" : "_ZTIN7android18trait_trivial_dtorINS_5PointEEE",
   "size" : 1,
   "source_file" : "frameworks/native/libs/ui/include/ui/Point.h",
   "template_args" : [ "_ZTIN7android5PointE" ]
  },
  {
   "alignment" : 1,
   "linker_set_key" : "_ZTIN7android18trait_trivial_moveINS_4RectEEE",
   "name" : "android::trait_trivial_move<android::Rect>",
   "referenced_type" : "_ZTIN7android18trait_trivial_moveINS_4RectEEE",
   "self_type" : "_ZTIN7android18trait_trivial_moveINS_4RectEEE",
   "size" : 1,
   "source_file" : "frameworks/native/libs/ui/include/ui/Rect.h",
   "template_args" : [ "_ZTIN7android4RectE" ]
  },
  {
   "alignment" : 1,
   "linker_set_key" : "_ZTIN7android18trait_trivial_moveINS_5PointEEE",
   "name" : "android::trait_trivial_move<android::Point>",
   "referenced_type" : "_ZTIN7android18trait_trivial_moveINS_5PointEEE",
   "self_type" : "_ZTIN7android18trait_trivial_moveINS_5PointEEE",
   "size" : 1,
   "source_file" : "frameworks/native/libs/ui/include/ui/Point.h",
   "template_args" : [ "_ZTIN7android5PointE" ]
  },
  {
   "alignment" : 4,
   "fields" :
   [
    {
     "field_name" : "width",
     "referenced_type" : "_ZTIi"
    },
    {
     "field_name" : "height",
     "field_offset" : 32,
     "referenced_type" : "_ZTIi"
    }
   ],
   "linker_set_key" : "_ZTIN7android2ui4SizeE",
   "name" : "android::ui::Size",
   "referenced_type" : "_ZTIN7android2ui4SizeE",
   "self_type" : "_ZTIN7android2ui4SizeE",
   "size" : 8,
   "source_file" : "frameworks/native/libs/ui/include/ui/Size.h"
  },
  {
   "alignment" : 4,
   "base_specifiers" :
   [
    {
     "referenced_type" : "_ZTI5ARect"
    },
    {
     "referenced_type" : "_ZTIN7android19LightFlattenablePodINS_4RectEEE"
    }
   ],
   "linker_set_key" : "_ZTIN7android4RectE",
   "name" : "android::Rect",
   "record_kind" : "class",
   "referenced_type" : "_ZTIN7android4RectE",
   "self_type" : "_ZTIN7android4RectE",
   "size" : 16,
   "source_file" : "frameworks/native/libs/ui/include/ui/Rect.h"
  },
  {
   "alignment" : 4,
   "base_specifiers" :
   [
    {
     "referenced_type" : "_ZTIN7android19LightFlattenablePodINS_5PointEEE"
    }
   ],
   "fields" :
   [
    {
     "field_name" : "x",
     "referenced_type" : "_ZTIi"
    },
    {
     "field_name" : "y",
     "field_offset" : 32,
     "referenced_type" : "_ZTIi"
    }
   ],
   "linker_set_key" : "_ZTIN7android5PointE",
   "name" : "android::Point",
   "record_kind" : "class",
   "referenced_type" : "_ZTIN7android5PointE",
   "self_type" : "_ZTIN7android5PointE",
   "size" : 8,
   "source_file" : "frameworks/native/libs/ui/include/ui/Point.h"
  },
  {
   "alignment" : 4,
   "base_specifiers" :
   [
    {
     "referenced_type" : "_ZTIN7android16LightFlattenableINS_6RegionEEE"
    }
   ],
   "fields" :
   [
    {
     "access" : "private",
     "field_name" : "mStorage",
     "referenced_type" : "_ZTIN7android9FatVectorINS_4RectELj4EEE"
    }
   ],
   "linker_set_key" : "_ZTIN7android6RegionE",
   "name" : "android::Region",
   "record_kind" : "class",
   "referenced_type" : "_ZTIN7android6RegionE",
   "self_type" : "_ZTIN7android6RegionE",
   "size" : 84,
   "source_file" : "frameworks/native/libs/ui/include/ui/Region.h"
  },
  {
   "alignment" : 4,
   "base_specifiers" :
   [
    {
     "referenced_type" : "_ZTINSt3__16vectorIN7android4RectENS1_18InlineStdAllocatorIS2_Lj4EEEEE"
    }
   ],
   "fields" :
   [
    {
     "access" : "private",
     "field_name" : "mAllocation",
     "field_offset" : 128,
     "referenced_type" : "_ZTIN7android18InlineStdAllocatorINS_4RectELj4EE10AllocationE"
    }
   ],
   "linker_set_key" : "_ZTIN7android9FatVectorINS_4RectELj4EEE",
   "name" : "android::FatVector<android::Rect, 4>",
   "record_kind" : "class",
   "referenced_type" : "_ZTIN7android9FatVectorINS_4RectELj4EEE",
   "self_type" : "_ZTIN7android9FatVectorINS_4RectELj4EEE",
   "size" : 84,
   "source_file" : "frameworks/native/libs/ui/include/ui/FatVector.h",
   "template_args" : [ "_ZTIN7android4RectE" ]
  },
  {
   "alignment" : 4,
   "fields" :
   [
    {
     "field_name" : "left",
     "referenced_type" : "_ZTIf"
    },
    {
     "field_name" : "top",
     "field_offset" : 32,
     "referenced_type" : "_ZTIf"
    },
    {
     "field_name" : "right",
     "field_offset" : 64,
     "referenced_type" : "_ZTIf"
    },
    {
     "field_name" : "bottom",
     "field_offset" : 96,
     "referenced_type" : "_ZTIf"
    }
   ],
   "linker_set_key" : "_ZTIN7android9FloatRectE",
   "name" : "android::FloatRect",
   "record_kind" : "class",
   "referenced_type" : "_ZTIN7android9FloatRectE",
   "self_type" : "_ZTIN7android9FloatRectE",
   "size" : 16,
   "source_file" : "frameworks/native/libs/ui/include/ui/FloatRect.h"
  },
  {
   "alignment" : 1,
   "linker_set_key" : "_ZTINSt3__14hashIN7android4RectEEE",
   "name" : "std::hash<android::Rect>",
   "referenced_type" : "_ZTINSt3__14hashIN7android4RectEEE",
   "self_type" : "_ZTINSt3__14hashIN7android4RectEEE",
   "size" : 1,
   "source_file" : "frameworks/native/libs/ui/include/ui/Rect.h",
   "template_args" : [ "_ZTIN7android4RectE" ]
  },
  {
   "alignment" : 1,
   "linker_set_key" : "_ZTINSt3__14hashIN7android6RegionEEE",
   "name" : "std::hash<android::Region>",
   "referenced_type" : "_ZTINSt3__14hashIN7android6RegionEEE",
   "self_type" : "_ZTINSt3__14hashIN7android6RegionEEE",
   "size" : 1,
   "source_file" : "frameworks/native/libs/ui/include/ui/Region.h",
   "template_args" : [ "_ZTIN7android6RegionE" ]
  },
  {
   "alignment" : 1,
   "linker_set_key" : "_ZTINSt3__14hashIN7android9FloatRectEEE",
   "name" : "std::hash<android::FloatRect>",
   "referenced_type" : "_ZTINSt3__14hashIN7android9FloatRectEEE",
   "self_type" : "_ZTINSt3__14hashIN7android9FloatRectEEE",
   "size" : 1,
   "source_file" : "frameworks/native/libs/ui/include/ui/FloatRect.h",
   "template_args" : [ "_ZTIN7android9FloatRectE" ]
  }
 ],
 "rvalue_reference_types" :
 [
  {
   "alignment" : 4,
   "linker_set_key" : "_ZTIOi",
   "name" : "int &&",
   "referenced_type" : "_ZTIi",
   "self_type" : "_ZTIOi",
   "size" : 4,
   "source_file" : "frameworks/native/libs/ui/include/ui/Size.h"
  }
 ]
}
