{
 "array_types" :
 [
  {
   "alignment" : 4,
   "linker_set_key" : "_ZTIA256_j",
   "name" : "unsigned int [256]",
   "referenced_type" : "_ZTIj",
   "self_type" : "_ZTIA256_j",
   "size" : 1024,
   "source_file" : "external/libyuv/files/include/libyuv/row.h"
  }
 ],
 "builtin_types" :
 [
  {
   "alignment" : 1,
   "is_integral" : true,
   "is_unsigned" : true,
   "linker_set_key" : "_ZTIh",
   "name" : "unsigned char",
   "referenced_type" : "_ZTIh",
   "self_type" : "_ZTIh",
   "size" : 1
  },
  {
   "alignment" : 4,
   "is_integral" : true,
   "linker_set_key" : "_ZTIi",
   "name" : "int",
   "referenced_type" : "_ZTIi",
   "self_type" : "_ZTIi",
   "size" : 4
  },
  {
   "alignment" : 4,
   "is_integral" : true,
   "is_unsigned" : true,
   "linker_set_key" : "_ZTIj",
   "name" : "unsigned int",
   "referenced_type" : "_ZTIj",
   "self_type" : "_ZTIj",
   "size" : 4
  }
 ],
 "elf_functions" : [],
 "elf_objects" : [],
 "enum_types" :
 [
  {
   "alignment" : 4,
   "enum_fields" :
   [
    {
     "enum_field_value" : 0,
     "name" : "libyuv::kRotate0"
    },
    {
     "enum_field_value" : 90,
     "name" : "libyuv::kRotate90"
    },
    {
     "enum_field_value" : 180,
     "name" : "libyuv::kRotate180"
    },
    {
     "enum_field_value" : 270,
     "name" : "libyuv::kRotate270"
    },
    {
     "enum_field_value" : 0,
     "name" : "libyuv::kRotateNone"
    },
    {
     "enum_field_value" : 90,
     "name" : "libyuv::kRotateClockwise"
    },
    {
     "enum_field_value" : 270,
     "name" : "libyuv::kRotateCounterClockwise"
    }
   ],
   "linker_set_key" : "_ZTIN6libyuv12RotationModeE",
   "name" : "libyuv::RotationMode",
   "referenced_type" : "_ZTIN6libyuv12RotationModeE",
   "self_type" : "_ZTIN6libyuv12RotationModeE",
   "size" : 4,
   "source_file" : "external/libyuv/files/include/libyuv/rotate.h",
   "underlying_type" : "_ZTIj"
  }
 ],
 "function_types" : [],
 "functions" :
 [
  {
   "function_name" : "libyuv::ABGRToAR30",
   "linker_set_key" : "ABGRToAR30",
   "parameters" :
   [
    {
     "referenced_type" : "_ZTIPKh"
    },
    {
     "referenced_type" : "_ZTIi"
    },
    {
     "referenced_type" : "_ZTIPh"
    },
    {
     "referenced_type" : "_ZTIi"
    },
    {
     "referenced_type" : "_ZTIi"
    },
    {
     "referenced_type" : "_ZTIi"
    }
   ],
   "return_type" : "_ZTIi",
   "source_file" : "external/libyuv/files/include/libyuv/convert_from_argb.h"
  },
  {
   "function_name" : "libyuv::ABGRToNV12",
   "linker_set_key" : "ABGRToNV12",
   "parameters" :
   [
    {
     "referenced_type" : "_ZTIPKh"
    },
    {
     "referenced_type" : "_ZTIi"
    },
    {
     "referenced_type" : "_ZTIPh"
    },
    {
     "referenced_type" : "_ZTIi"
    },
    {
     "referenced_type" : "_ZTIPh"
    },
    {
     "referenced_type" : "_ZTIi"
    },
    {
     "referenced_type" : "_ZTIi"
    },
    {
     "referenced_type" : "_ZTIi"
    }
   ],
   "return_type" : "_ZTIi",
   "source_file" : "external/libyuv/files/include/libyuv/convert_from_argb.h"
  },
  {
   "function_name" : "libyuv::ARGBToAR30",
   "linker_set_key" : "ARGBToAR30",
   "parameters" :
   [
    {
     "referenced_type" : "_ZTIPKh"
    },
    {
     "referenced_type" : "_ZTIi"
    },
    {
     "referenced_type" : "_ZTIPh"
    },
    {
     "referenced_type" : "_ZTIi"
    },
    {
     "referenced_type" : "_ZTIi"
    },
    {
     "referenced_type" : "_ZTIi"
    }
   ],
   "return_type" : "_ZTIi",
   "source_file" : "external/libyuv/files/include/libyuv/convert_from_argb.h"
  },
  {
   "function_name" : "libyuv::ARGBToARGB1555",
   "linker_set_key" : "ARGBToARGB1555",
   "parameters" :
   [
    {
     "referenced_type" : "_ZTIPKh"
    },
    {
     "referenced_type" : "_ZTIi"
    },
    {
     "referenced_type" : "_ZTIPh"
    },
    {
     "referenced_type" : "_ZTIi"
    },
    {
     "referenced_type" : "_ZTIi"
    },
    {
     "referenced_type" : "_ZTIi"
    }
   ],
   "return_type" : "_ZTIi",
   "source_file" : "external/libyuv/files/include/libyuv/convert_from_argb.h"
  },
  {
   "function_name" : "libyuv::ARGBToARGB4444",
   "linker_set_key" : "ARGBToARGB4444",
   "parameters" :
   [
    {
     "referenced_type" : "_ZTIPKh"
    },
    {
     "referenced_type" : "_ZTIi"
    },
    {
     "referenced_type" : "_ZTIPh"
    },
    {
     "referenced_type" : "_ZTIi"
    },
    {
     "referenced_type" : "_ZTIi"
    },
    {
     "referenced_type" : "_ZTIi"
    }
   ],
   "return_type" : "_ZTIi",
   "source_file" : "external/libyuv/files/include/libyuv/convert_from_argb.h"
  },
  {
   "function_name" : "libyuv::ARGBToI400",
   "linker_set_key" : "ARGBToI400",
   "parameters" :
   [
    {
     "referenced_type" : "_ZTIPKh"
    },
    {
     "referenced_type" : "_ZTIi"
    },
    {
     "referenced_type" : "_ZTIPh"
    },
    {
     "referenced_type" : "_ZTIi"
    },
    {
     "referenced_type" : "_ZTIi"
    },
    {
     "referenced_type" : "_ZTIi"
    }
   ],
   "return_type" : "_ZTIi",
   "source_file" : "external/libyuv/files/include/libyuv/convert_from_argb.h"
  },
  {
   "function_name" : "libyuv::ARGBToI422",
   "linker_set_key" : "ARGBToI422",
   "parameters" :
   [
    {
     "referenced_type" : "_ZTIPKh"
    },
    {
     "referenced_type" : "_ZTIi"
    },
    {
     "referenced_type" : "_ZTIPh"
    },
    {
     "referenced_type" : "_ZTIi"
    },
    {
     "referenced_type" : "_ZTIPh"
    },
    {
     "referenced_type" : "_ZTIi"
    },
    {
     "referenced_type" : "_ZTIPh"
    },
    {
     "referenced_type" : "_ZTIi"
    },
    {
     "referenced_type" : "_ZTIi"
    },
    {
     "referenced_type" : "_ZTIi"
    }
   ],
   "return_type" : "_ZTIi",
   "source_file" : "external/libyuv/files/include/libyuv/convert_from_argb.h"
  },
  {
   "function_name" : "libyuv::ARGBToI444",
   "linker_set_key" : "ARGBToI444",
   "parameters" :
   [
    {
     "referenced_type" : "_ZTIPKh"
    },
    {
     "referenced_type" : "_ZTIi"
    },
    {
     "referenced_type" : "_ZTIPh"
    },
    {
     "referenced_type" : "_ZTIi"
    },
    {
     "referenced_type" : "_ZTIPh"
    },
    {
     "referenced_type" : "_ZTIi"
    },
    {
     "referenced_type" : "_ZTIPh"
    },
    {
     "referenced_type" : "_ZTIi"
    },
    {
     "referenced_type" : "_ZTIi"
    },
    {
     "referenced_type" : "_ZTIi"
    }
   ],
   "return_type" : "_ZTIi",
   "source_file" : "external/libyuv/files/include/libyuv/convert_from_argb.h"
  },
  {
   "function_name" : "libyuv::ARGBToJ400",
   "linker_set_key" : "ARGBToJ400",
   "parameters" :
   [
    {
     "referenced_type" : "_ZTIPKh"
    },
    {
     "referenced_type" : "_ZTIi"
    },
    {
     "referenced_type" : "_ZTIPh"
    },
    {
     "referenced_type" : "_ZTIi"
    },
    {
     "referenced_type" : "_ZTIi"
    },
    {
     "referenced_type" : "_ZTIi"
    }
   ],
   "return_type" : "_ZTIi",
   "source_file" : "external/libyuv/files/include/libyuv/convert_from_argb.h"
  },
  {
   "function_name" : "libyuv::ARGBToJ420",
   "linker_set_key" : "ARGBToJ420",
   "parameters" :
   [
    {
     "referenced_type" : "_ZTIPKh"
    },
    {
     "referenced_type" : "_ZTIi"
    },
    {
     "referenced_type" : "_ZTIPh"
    },
    {
     "referenced_type" : "_ZTIi"
    },
    {
     "referenced_type" : "_ZTIPh"
    },
    {
     "referenced_type" : "_ZTIi"
    },
    {
     "referenced_type" : "_ZTIPh"
    },
    {
     "referenced_type" : "_ZTIi"
    },
    {
     "referenced_type" : "_ZTIi"
    },
    {
     "referenced_type" : "_ZTIi"
    }
   ],
   "return_type" : "_ZTIi",
   "source_file" : "external/libyuv/files/include/libyuv/convert_from_argb.h"
  },
  {
   "function_name" : "libyuv::ARGBToJ422",
   "linker_set_key" : "ARGBToJ422",
   "parameters" :
   [
    {
     "referenced_type" : "_ZTIPKh"
    },
    {
     "referenced_type" : "_ZTIi"
    },
    {
     "referenced_type" : "_ZTIPh"
    },
    {
     "referenced_type" : "_ZTIi"
    },
    {
     "referenced_type" : "_ZTIPh"
    },
    {
     "referenced_type" : "_ZTIi"
    },
    {
     "referenced_type" : "_ZTIPh"
    },
    {
     "referenced_type" : "_ZTIi"
    },
    {
     "referenced_type" : "_ZTIi"
    },
    {
     "referenced_type" : "_ZTIi"
    }
   ],
   "return_type" : "_ZTIi",
   "source_file" : "external/libyuv/files/include/libyuv/convert_from_argb.h"
  },
  {
   "function_name" : "libyuv::ARGBToNV12",
   "linker_set_key" : "ARGBToNV12",
   "parameters" :
   [
    {
     "referenced_type" : "_ZTIPKh"
    },
    {
     "referenced_type" : "_ZTIi"
    },
    {
     "referenced_type" : "_ZTIPh"
    },
    {
     "referenced_type" : "_ZTIi"
    },
    {
     "referenced_type" : "_ZTIPh"
    },
    {
     "referenced_type" : "_ZTIi"
    },
    {
     "referenced_type" : "_ZTIi"
    },
    {
     "referenced_type" : "_ZTIi"
    }
   ],
   "return_type" : "_ZTIi",
   "source_file" : "external/libyuv/files/include/libyuv/convert_from_argb.h"
  },
  {
   "function_name" : "libyuv::ARGBToNV21",
   "linker_set_key" : "ARGBToNV21",
   "parameters" :
   [
    {
     "referenced_type" : "_ZTIPKh"
    },
    {
     "referenced_type" : "_ZTIi"
    },
    {
     "referenced_type" : "_ZTIPh"
    },
    {
     "referenced_type" : "_ZTIi"
    },
    {
     "referenced_type" : "_ZTIPh"
    },
    {
     "referenced_type" : "_ZTIi"
    },
    {
     "referenced_type" : "_ZTIi"
    },
    {
     "referenced_type" : "_ZTIi"
    }
   ],
   "return_type" : "_ZTIi",
   "source_file" : "external/libyuv/files/include/libyuv/convert_from_argb.h"
  },
  {
   "function_name" : "libyuv::ARGBToRAW",
   "linker_set_key" : "ARGBToRAW",
   "parameters" :
   [
    {
     "referenced_type" : "_ZTIPKh"
    },
    {
     "referenced_type" : "_ZTIi"
    },
    {
     "referenced_type" : "_ZTIPh"
    },
    {
     "referenced_type" : "_ZTIi"
    },
    {
     "referenced_type" : "_ZTIi"
    },
    {
     "referenced_type" : "_ZTIi"
    }
   ],
   "return_type" : "_ZTIi",
   "source_file" : "external/libyuv/files/include/libyuv/convert_from_argb.h"
  },
  {
   "function_name" : "libyuv::ARGBToRGB24",
   "linker_set_key" : "ARGBToRGB24",
   "parameters" :
   [
    {
     "referenced_type" : "_ZTIPKh"
    },
    {
     "referenced_type" : "_ZTIi"
    },
    {
     "referenced_type" : "_ZTIPh"
    },
    {
     "referenced_type" : "_ZTIi"
    },
    {
     "referenced_type" : "_ZTIi"
    },
    {
     "referenced_type" : "_ZTIi"
    }
   ],
   "return_type" : "_ZTIi",
   "source_file" : "external/libyuv/files/include/libyuv/convert_from_argb.h"
  },
  {
   "function_name" : "libyuv::ARGBToRGB565",
   "linker_set_key" : "ARGBToRGB565",
   "parameters" :
   [
    {
     "referenced_type" : "_ZTIPKh"
    },
    {
     "referenced_type" : "_ZTIi"
    },
    {
     "referenced_type" : "_ZTIPh"
    },
    {
     "referenced_type" : "_ZTIi"
    },
    {
     "referenced_type" : "_ZTIi"
    },
    {
     "referenced_type" : "_ZTIi"
    }
   ],
   "return_type" : "_ZTIi",
   "source_file" : "external/libyuv/files/include/libyuv/convert_from_argb.h"
  },
  {
   "function_name" : "libyuv::ARGBToRGB565Dither",
   "linker_set_key" : "ARGBToRGB565Dither",
   "parameters" :
   [
    {
     "referenced_type" : "_ZTIPKh"
    },
    {
     "referenced_type" : "_ZTIi"
    },
    {
     "referenced_type" : "_ZTIPh"
    },
    {
     "referenced_type" : "_ZTIi"
    },
    {
     "referenced_type" : "_ZTIPKh"
    },
    {
     "referenced_type" : "_ZTIi"
    },
    {
     "referenced_type" : "_ZTIi"
    }
   ],
   "return_type" : "_ZTIi",
   "source_file" : "external/libyuv/files/include/libyuv/convert_from_argb.h"
  },
  {
   "function_name" : "libyuv::ARGBToRGBA",
   "linker_set_key" : "ARGBToRGBA",
   "parameters" :
   [
    {
     "referenced_type" : "_ZTIPKh"
    },
    {
     "referenced_type" : "_ZTIi"
    },
    {
     "referenced_type" : "_ZTIPh"
    },
    {
     "referenced_type" : "_ZTIi"
    },
    {
     "referenced_type" : "_ZTIi"
    },
    {
     "referenced_type" : "_ZTIi"
    }
   ],
   "return_type" : "_ZTIi",
   "source_file" : "external/libyuv/files/include/libyuv/convert_from_argb.h"
  },
  {
   "function_name" : "libyuv::ARGBToUYVY",
   "linker_set_key" : "ARGBToUYVY",
   "parameters" :
   [
    {
     "referenced_type" : "_ZTIPKh"
    },
    {
     "referenced_type" : "_ZTIi"
    },
    {
     "referenced_type" : "_ZTIPh"
    },
    {
     "referenced_type" : "_ZTIi"
    },
    {
     "referenced_type" : "_ZTIi"
    },
    {
     "referenced_type" : "_ZTIi"
    }
   ],
   "return_type" : "_ZTIi",
   "source_file" : "external/libyuv/files/include/libyuv/convert_from_argb.h"
  },
  {
   "function_name" : "libyuv::ARGBToYUY2",
   "linker_set_key" : "ARGBToYUY2",
   "parameters" :
   [
    {
     "referenced_type" : "_ZTIPKh"
    },
    {
     "referenced_type" : "_ZTIi"
    },
    {
     "referenced_type" : "_ZTIPh"
    },
    {
     "referenced_type" : "_ZTIi"
    },
    {
     "referenced_type" : "_ZTIi"
    },
    {
     "referenced_type" : "_ZTIi"
    }
   ],
   "return_type" : "_ZTIi",
   "source_file" : "external/libyuv/files/include/libyuv/convert_from_argb.h"
  }
 ],
 "global_vars" :
 [
  {
   "linker_set_key" : "_ZN6libyuvL10kCpuHasARME",
   "name" : "libyuv::kCpuHasARM",
   "referenced_type" : "_ZTIKi",
   "source_file" : "external/libyuv/files/include/libyuv/cpu_id.h"
  },
  {
   "linker_set_key" : "_ZN6libyuvL10kCpuHasAVXE",
   "name" : "libyuv::kCpuHasAVX",
   "referenced_type" : "_ZTIKi",
   "source_file" : "external/libyuv/files/include/libyuv/cpu_id.h"
  },
  {
   "linker_set_key" : "_ZN6libyuvL10kCpuHasMMIE",
   "name" : "libyuv::kCpuHasMMI",
   "referenced_type" : "_ZTIKi",
   "source_file" : "external/libyuv/files/include/libyuv/cpu_id.h"
  },
  {
   "linker_set_key" : "_ZN6libyuvL10kCpuHasMSAE",
   "name" : "libyuv::kCpuHasMSA",
   "referenced_type" : "_ZTIKi",
   "source_file" : "external/libyuv/files/include/libyuv/cpu_id.h"
  },
  {
   "linker_set_key" : "_ZN6libyuvL10kCpuHasX86E",
   "name" : "libyuv::kCpuHasX86",
   "referenced_type" : "_ZTIKi",
   "source_file" : "external/libyuv/files/include/libyuv/cpu_id.h"
  },
  {
   "linker_set_key" : "_ZN6libyuvL11kCpuHasAVX2E",
   "name" : "libyuv::kCpuHasAVX2",
   "referenced_type" : "_ZTIKi",
   "source_file" : "external/libyuv/files/include/libyuv/cpu_id.h"
  },
  {
   "linker_set_key" : "_ZN6libyuvL11kCpuHasERMSE",
   "name" : "libyuv::kCpuHasERMS",
   "referenced_type" : "_ZTIKi",
   "source_file" : "external/libyuv/files/include/libyuv/cpu_id.h"
  },
  {
   "linker_set_key" : "_ZN6libyuvL11kCpuHasF16CE",
   "name" : "libyuv::kCpuHasF16C",
   "referenced_type" : "_ZTIKi",
   "source_file" : "external/libyuv/files/include/libyuv/cpu_id.h"
  },
  {
   "linker_set_key" : "_ZN6libyuvL11kCpuHasFMA3E",
   "name" : "libyuv::kCpuHasFMA3",
   "referenced_type" : "_ZTIKi",
   "source_file" : "external/libyuv/files/include/libyuv/cpu_id.h"
  },
  {
   "linker_set_key" : "_ZN6libyuvL11kCpuHasGFNIE",
   "name" : "libyuv::kCpuHasGFNI",
   "referenced_type" : "_ZTIKi",
   "source_file" : "external/libyuv/files/include/libyuv/cpu_id.h"
  },
  {
   "linker_set_key" : "_ZN6libyuvL11kCpuHasMIPSE",
   "name" : "libyuv::kCpuHasMIPS",
   "referenced_type" : "_ZTIKi",
   "source_file" : "external/libyuv/files/include/libyuv/cpu_id.h"
  },
  {
   "linker_set_key" : "_ZN6libyuvL11kCpuHasNEONE",
   "name" : "libyuv::kCpuHasNEON",
   "referenced_type" : "_ZTIKi",
   "source_file" : "external/libyuv/files/include/libyuv/cpu_id.h"
  },
  {
   "linker_set_key" : "_ZN6libyuvL11kCpuHasSSE2E",
   "name" : "libyuv::kCpuHasSSE2",
   "referenced_type" : "_ZTIKi",
   "source_file" : "external/libyuv/files/include/libyuv/cpu_id.h"
  },
  {
   "linker_set_key" : "_ZN6libyuvL12kCpuHasSSE41E",
   "name" : "libyuv::kCpuHasSSE41",
   "referenced_type" : "_ZTIKi",
   "source_file" : "external/libyuv/files/include/libyuv/cpu_id.h"
  },
  {
   "linker_set_key" : "_ZN6libyuvL12kCpuHasSSE42E",
   "name" : "libyuv::kCpuHasSSE42",
   "referenced_type" : "_ZTIKi",
   "source_file" : "external/libyuv/files/include/libyuv/cpu_id.h"
  },
  {
   "linker_set_key" : "_ZN6libyuvL12kCpuHasSSSE3E",
   "name" : "libyuv::kCpuHasSSSE3",
   "referenced_type" : "_ZTIKi",
   "source_file" : "external/libyuv/files/include/libyuv/cpu_id.h"
  },
  {
   "linker_set_key" : "_ZN6libyuvL15kCpuHasAVX512BWE",
   "name" : "libyuv::kCpuHasAVX512BW",
   "referenced_type" : "_ZTIKi",
   "source_file" : "external/libyuv/files/include/libyuv/cpu_id.h"
  },
  {
   "linker_set_key" : "_ZN6libyuvL15kCpuHasAVX512VLE",
   "name" : "libyuv::kCpuHasAVX512VL",
   "referenced_type" : "_ZTIKi",
   "source_file" : "external/libyuv/files/include/libyuv/cpu_id.h"
  },
  {
   "linker_set_key" : "_ZN6libyuvL15kCpuInitializedE",
   "name" : "libyuv::kCpuInitialized",
   "referenced_type" : "_ZTIKi",
   "source_file" : "external/libyuv/files/include/libyuv/cpu_id.h"
  },
  {
   "linker_set_key" : "_ZN6libyuvL17kCpuHasAVX512VBMIE",
   "name" : "libyuv::kCpuHasAVX512VBMI",
   "referenced_type" : "_ZTIKi",
   "source_file" : "external/libyuv/files/include/libyuv/cpu_id.h"
  },
  {
   "linker_set_key" : "_ZN6libyuvL18kCpuHasAVX512VBMI2E",
   "name" : "libyuv::kCpuHasAVX512VBMI2",
   "referenced_type" : "_ZTIKi",
   "source_file" : "external/libyuv/files/include/libyuv/cpu_id.h"
  },
  {
   "linker_set_key" : "_ZN6libyuvL20kCpuHasAVX512VBITALGE",
   "name" : "libyuv::kCpuHasAVX512VBITALG",
   "referenced_type" : "_ZTIKi",
   "source_file" : "external/libyuv/files/include/libyuv/cpu_id.h"
  },
  {
   "linker_set_key" : "_ZN6libyuvL22kCpuHasAVX512VPOPCNTDQE",
   "name" : "libyuv::kCpuHasAVX512VPOPCNTDQ",
   "referenced_type" : "_ZTIKi",
   "source_file" : "external/libyuv/files/include/libyuv/cpu_id.h"
  },
  {
   "linker_set_key" : "cpu_info_",
   "name" : "libyuv::cpu_info_",
   "referenced_type" : "_ZTIi",
   "source_file" : "external/libyuv/files/include/libyuv/cpu_id.h"
  },
  {
   "linker_set_key" : "fixed_invtbl8",
   "name" : "libyuv::fixed_invtbl8",
   "referenced_type" : "_ZTIA256_Kj",
   "source_file" : "external/libyuv/files/include/libyuv/row.h"
  },
  {
   "linker_set_key" : "kYuvH709Constants",
   "name" : "libyuv::kYuvH709Constants",
   "referenced_type" : "_ZTIKN6libyuv12YuvConstantsE",
   "source_file" : "external/libyuv/files/include/libyuv/row.h"
  },
  {
   "linker_set_key" : "kYuvI601Constants",
   "name" : "libyuv::kYuvI601Constants",
   "referenced_type" : "_ZTIKN6libyuv12YuvConstantsE",
   "source_file" : "external/libyuv/files/include/libyuv/row.h"
  },
  {
   "linker_set_key" : "kYuvJPEGConstants",
   "name" : "libyuv::kYuvJPEGConstants",
   "referenced_type" : "_ZTIKN6libyuv12YuvConstantsE",
   "source_file" : "external/libyuv/files/include/libyuv/row.h"
  },
  {
   "linker_set_key" : "kYvuH709Constants",
   "name" : "libyuv::kYvuH709Constants",
   "referenced_type" : "_ZTIKN6libyuv12YuvConstantsE",
   "source_file" : "external/libyuv/files/include/libyuv/row.h"
  },
  {
   "linker_set_key" : "kYvuI601Constants",
   "name" : "libyuv::kYvuI601Constants",
   "referenced_type" : "_ZTIKN6libyuv12YuvConstantsE",
   "source_file" : "external/libyuv/files/include/libyuv/row.h"
  },
  {
   "linker_set_key" : "kYvuJPEGConstants",
   "name" : "libyuv::kYvuJPEGConstants",
   "referenced_type" : "_ZTIKN6libyuv12YuvConstantsE",
   "source_file" : "external/libyuv/files/include/libyuv/row.h"
  }
 ],
 "lvalue_reference_types" : [],
 "pointer_types" :
 [
  {
   "alignment" : 4,
   "linker_set_key" : "_ZTIPKh",
   "name" : "const unsigned char *",
   "referenced_type" : "_ZTIKh",
   "self_type" : "_ZTIPKh",
   "size" : 4,
   "source_file" : "external/libyuv/files/include/libyuv/convert_from_argb.h"
  },
  {
   "alignment" : 4,
   "linker_set_key" : "_ZTIPh",
   "name" : "unsigned char *",
   "referenced_type" : "_ZTIh",
   "self_type" : "_ZTIPh",
   "size" : 4,
   "source_file" : "external/libyuv/files/include/libyuv/convert_from_argb.h"
  }
 ],
 "qualified_types" :
 [
  {
   "alignment" : 4,
   "is_const" : true,
   "linker_set_key" : "_ZTIA256_Kj",
   "name" : "unsigned int const[256]",
   "referenced_type" : "_ZTIA256_j",
   "self_type" : "_ZTIA256_Kj",
   "size" : 1024,
   "source_file" : "external/libyuv/files/include/libyuv/row.h"
  },
  {
   "alignment" : 16,
   "is_const" : true,
   "linker_set_key" : "_ZTIKN6libyuv12YuvConstantsE",
   "name" : "const libyuv::YuvConstants",
   "referenced_type" : "_ZTIN6libyuv12YuvConstantsE",
   "self_type" : "_ZTIKN6libyuv12YuvConstantsE",
   "size" : 64,
   "source_file" : "external/libyuv/files/include/libyuv/row.h"
  },
  {
   "alignment" : 1,
   "is_const" : true,
   "linker_set_key" : "_ZTIKh",
   "name" : "const unsigned char",
   "referenced_type" : "_ZTIh",
   "self_type" : "_ZTIKh",
   "size" : 1,
   "source_file" : "external/libyuv/files/include/libyuv/convert_from_argb.h"
  },
  {
   "alignment" : 4,
   "is_const" : true,
   "linker_set_key" : "_ZTIKi",
   "name" : "const int",
   "referenced_type" : "_ZTIi",
   "self_type" : "_ZTIKi",
   "size" : 4,
   "source_file" : "external/libyuv/files/include/libyuv/cpu_id.h"
  }
 ],
 "record_types" :
 [
  {
   "alignment" : 16,
   "fields" :
   [
    {
     "field_name" : "kUVToRB",
     "referenced_type" : "_ZTIDv16_h"
    },
    {
     "field_name" : "kUVToG",
     "field_offset" : 128,
     "referenced_type" : "_ZTIDv16_h"
    },
    {
     "field_name" : "kUVBiasBGR",
     "field_offset" : 256,
     "referenced_type" : "_ZTIDv8_s"
    },
    {
     "field_name" : "kYToRgb",
     "field_offset" : 384,
     "referenced_type" : "_ZTIDv4_i"
    }
   ],
   "linker_set_key" : "_ZTIN6libyuv12YuvConstantsE",
   "name" : "libyuv::YuvConstants",
   "referenced_type" : "_ZTIN6libyuv12YuvConstantsE",
   "self_type" : "_ZTIN6libyuv12YuvConstantsE",
   "size" : 64,
   "source_file" : "external/libyuv/files/include/libyuv/row.h"
  }
 ],
 "rvalue_reference_types" : []
}
