{
 "array_types" : [],
 "builtin_types" :
 [
  {
   "alignment" : 1,
   "is_integral" : true,
   "is_unsigned" : true,
   "linker_set_key" : "_ZTIh",
   "name" : "unsigned char",
   "referenced_type" : "_ZTIh",
   "self_type" : "_ZTIh",
   "size" : 1
  },
  {
   "alignment" : 4,
   "is_integral" : true,
   "linker_set_key" : "_ZTIi",
   "name" : "int",
   "referenced_type" : "_ZTIi",
   "self_type" : "_ZTIi",
   "size" : 4
  },
  {
   "alignment" : 4,
   "is_integral" : true,
   "is_unsigned" : true,
   "linker_set_key" : "_ZTIj",
   "name" : "unsigned int",
   "referenced_type" : "_ZTIj",
   "self_type" : "_ZTIj",
   "size" : 4
  }
 ],
 "elf_functions" : [],
 "elf_objects" : [],
 "enum_types" :
 [
  {
   "alignment" : 4,
   "enum_fields" :
   [
    {
     "enum_field_value" : 0,
     "name" : "libyuv::kJpegYuv420"
    },
    {
     "enum_field_value" : 1,
     "name" : "libyuv::kJpegYuv422"
    },
    {
     "enum_field_value" : 2,
     "name" : "libyuv::kJpegYuv444"
    },
    {
     "enum_field_value" : 3,
     "name" : "libyuv::kJpegYuv400"
    },
    {
     "enum_field_value" : 4,
     "name" : "libyuv::kJpegUnknown"
    }
   ],
   "linker_set_key" : "_ZTIN6libyuv19JpegSubsamplingTypeE",
   "name" : "libyuv::JpegSubsamplingType",
   "referenced_type" : "_ZTIN6libyuv19JpegSubsamplingTypeE",
   "self_type" : "_ZTIN6libyuv19JpegSubsamplingTypeE",
   "size" : 4,
   "source_file" : "external/libyuv/files/include/libyuv/mjpeg_decoder.h",
   "underlying_type" : "_ZTIj"
  }
 ],
 "function_types" : [],
 "functions" :
 [
  {
   "function_name" : "libyuv::ValidateJpeg",
   "linker_set_key" : "ValidateJpeg",
   "parameters" :
   [
    {
     "referenced_type" : "_ZTIPKh"
    },
    {
     "referenced_type" : "_ZTIj"
    }
   ],
   "return_type" : "_ZTIi",
   "source_file" : "external/libyuv/files/include/libyuv/mjpeg_decoder.h"
  }
 ],
 "global_vars" :
 [
  {
   "linker_set_key" : "_ZN6libyuv12MJpegDecoder14kColorSpaceRgbE",
   "name" : "libyuv::MJpegDecoder::kColorSpaceRgb",
   "referenced_type" : "_ZTIKi",
   "source_file" : "external/libyuv/files/include/libyuv/mjpeg_decoder.h"
  },
  {
   "linker_set_key" : "_ZN6libyuv12MJpegDecoder15kColorSpaceCMYKE",
   "name" : "libyuv::MJpegDecoder::kColorSpaceCMYK",
   "referenced_type" : "_ZTIKi",
   "source_file" : "external/libyuv/files/include/libyuv/mjpeg_decoder.h"
  },
  {
   "linker_set_key" : "_ZN6libyuv12MJpegDecoder15kColorSpaceYCCKE",
   "name" : "libyuv::MJpegDecoder::kColorSpaceYCCK",
   "referenced_type" : "_ZTIKi",
   "source_file" : "external/libyuv/files/include/libyuv/mjpeg_decoder.h"
  },
  {
   "linker_set_key" : "_ZN6libyuv12MJpegDecoder16kColorSpaceYCbCrE",
   "name" : "libyuv::MJpegDecoder::kColorSpaceYCbCr",
   "referenced_type" : "_ZTIKi",
   "source_file" : "external/libyuv/files/include/libyuv/mjpeg_decoder.h"
  },
  {
   "linker_set_key" : "_ZN6libyuv12MJpegDecoder18kColorSpaceUnknownE",
   "name" : "libyuv::MJpegDecoder::kColorSpaceUnknown",
   "referenced_type" : "_ZTIKi",
   "source_file" : "external/libyuv/files/include/libyuv/mjpeg_decoder.h"
  },
  {
   "linker_set_key" : "_ZN6libyuv12MJpegDecoder20kColorSpaceGrayscaleE",
   "name" : "libyuv::MJpegDecoder::kColorSpaceGrayscale",
   "referenced_type" : "_ZTIKi",
   "source_file" : "external/libyuv/files/include/libyuv/mjpeg_decoder.h"
  },
  {
   "linker_set_key" : "_ZN6libyuvL16kUnknownDataSizeE",
   "name" : "libyuv::kUnknownDataSize",
   "referenced_type" : "_ZTIKj",
   "source_file" : "external/libyuv/files/include/libyuv/mjpeg_decoder.h"
  }
 ],
 "lvalue_reference_types" : [],
 "pointer_types" :
 [
  {
   "alignment" : 4,
   "linker_set_key" : "_ZTIP15jpeg_source_mgr",
   "name" : "jpeg_source_mgr *",
   "referenced_type" : "_ZTI15jpeg_source_mgr",
   "self_type" : "_ZTIP15jpeg_source_mgr",
   "size" : 4,
   "source_file" : "external/libyuv/files/include/libyuv/mjpeg_decoder.h"
  },
  {
   "alignment" : 4,
   "linker_set_key" : "_ZTIP22jpeg_decompress_struct",
   "name" : "jpeg_decompress_struct *",
   "referenced_type" : "_ZTI22jpeg_decompress_struct",
   "self_type" : "_ZTIP22jpeg_decompress_struct",
   "size" : 4,
   "source_file" : "external/libyuv/files/include/libyuv/mjpeg_decoder.h"
  },
  {
   "alignment" : 4,
   "linker_set_key" : "_ZTIPKh",
   "name" : "const unsigned char *",
   "referenced_type" : "_ZTIKh",
   "self_type" : "_ZTIPKh",
   "size" : 4,
   "source_file" : "external/libyuv/files/include/libyuv/mjpeg_decoder.h"
  },
  {
   "alignment" : 4,
   "linker_set_key" : "_ZTIPN6libyuv14SetJmpErrorMgrE",
   "name" : "libyuv::SetJmpErrorMgr *",
   "referenced_type" : "_ZTIN6libyuv14SetJmpErrorMgrE",
   "self_type" : "_ZTIPN6libyuv14SetJmpErrorMgrE",
   "size" : 4,
   "source_file" : "external/libyuv/files/include/libyuv/mjpeg_decoder.h"
  },
  {
   "alignment" : 4,
   "linker_set_key" : "_ZTIPN6libyuv6BufferE",
   "name" : "libyuv::Buffer *",
   "referenced_type" : "_ZTIN6libyuv6BufferE",
   "self_type" : "_ZTIPN6libyuv6BufferE",
   "size" : 4,
   "source_file" : "external/libyuv/files/include/libyuv/mjpeg_decoder.h"
  },
  {
   "alignment" : 4,
   "linker_set_key" : "_ZTIPPPh",
   "name" : "unsigned char ***",
   "referenced_type" : "_ZTIPPh",
   "self_type" : "_ZTIPPPh",
   "size" : 4,
   "source_file" : "external/libyuv/files/include/libyuv/mjpeg_decoder.h"
  },
  {
   "alignment" : 4,
   "linker_set_key" : "_ZTIPPh",
   "name" : "unsigned char **",
   "referenced_type" : "_ZTIPh",
   "self_type" : "_ZTIPPh",
   "size" : 4,
   "source_file" : "external/libyuv/files/include/libyuv/mjpeg_decoder.h"
  },
  {
   "alignment" : 4,
   "linker_set_key" : "_ZTIPh",
   "name" : "unsigned char *",
   "referenced_type" : "_ZTIh",
   "self_type" : "_ZTIPh",
   "size" : 4,
   "source_file" : "external/libyuv/files/include/libyuv/mjpeg_decoder.h"
  },
  {
   "alignment" : 4,
   "linker_set_key" : "_ZTIPi",
   "name" : "int *",
   "referenced_type" : "_ZTIi",
   "self_type" : "_ZTIPi",
   "size" : 4,
   "source_file" : "external/libyuv/files/include/libyuv/mjpeg_decoder.h"
  }
 ],
 "qualified_types" :
 [
  {
   "alignment" : 1,
   "is_const" : true,
   "linker_set_key" : "_ZTIKh",
   "name" : "const unsigned char",
   "referenced_type" : "_ZTIh",
   "self_type" : "_ZTIKh",
   "size" : 1,
   "source_file" : "external/libyuv/files/include/libyuv/mjpeg_decoder.h"
  },
  {
   "alignment" : 4,
   "is_const" : true,
   "linker_set_key" : "_ZTIKi",
   "name" : "const int",
   "referenced_type" : "_ZTIi",
   "self_type" : "_ZTIKi",
   "size" : 4,
   "source_file" : "external/libyuv/files/include/libyuv/mjpeg_decoder.h"
  },
  {
   "alignment" : 4,
   "is_const" : true,
   "linker_set_key" : "_ZTIKj",
   "name" : "const unsigned int",
   "referenced_type" : "_ZTIj",
   "self_type" : "_ZTIKj",
   "size" : 4,
   "source_file" : "external/libyuv/files/include/libyuv/mjpeg_decoder.h"
  }
 ],
 "record_types" :
 [
  {
   "alignment" : 4,
   "fields" :
   [
    {
     "field_name" : "buffers",
     "referenced_type" : "_ZTIPN6libyuv6BufferE"
    },
    {
     "field_name" : "len",
     "field_offset" : 32,
     "referenced_type" : "_ZTIi"
    },
    {
     "field_name" : "pos",
     "field_offset" : 64,
     "referenced_type" : "_ZTIi"
    }
   ],
   "linker_set_key" : "_ZTIN6libyuv12BufferVectorE",
   "name" : "libyuv::BufferVector",
   "referenced_type" : "_ZTIN6libyuv12BufferVectorE",
   "self_type" : "_ZTIN6libyuv12BufferVectorE",
   "size" : 12,
   "source_file" : "external/libyuv/files/include/libyuv/mjpeg_decoder.h"
  },
  {
   "alignment" : 4,
   "fields" :
   [
    {
     "access" : "private",
     "field_name" : "buf_",
     "referenced_type" : "_ZTIN6libyuv6BufferE"
    },
    {
     "access" : "private",
     "field_name" : "buf_vec_",
     "field_offset" : 64,
     "referenced_type" : "_ZTIN6libyuv12BufferVectorE"
    },
    {
     "access" : "private",
     "field_name" : "decompress_struct_",
     "field_offset" : 160,
     "referenced_type" : "_ZTIP22jpeg_decompress_struct"
    },
    {
     "access" : "private",
     "field_name" : "source_mgr_",
     "field_offset" : 192,
     "referenced_type" : "_ZTIP15jpeg_source_mgr"
    },
    {
     "access" : "private",
     "field_name" : "error_mgr_",
     "field_offset" : 224,
     "referenced_type" : "_ZTIPN6libyuv14SetJmpErrorMgrE"
    },
    {
     "access" : "private",
     "field_name" : "has_scanline_padding_",
     "field_offset" : 256,
     "referenced_type" : "_ZTIi"
    },
    {
     "access" : "private",
     "field_name" : "num_outbufs_",
     "field_offset" : 288,
     "referenced_type" : "_ZTIi"
    },
    {
     "access" : "private",
     "field_name" : "scanlines_",
     "field_offset" : 320,
     "referenced_type" : "_ZTIPPPh"
    },
    {
     "access" : "private",
     "field_name" : "scanlines_sizes_",
     "field_offset" : 352,
     "referenced_type" : "_ZTIPi"
    },
    {
     "access" : "private",
     "field_name" : "databuf_",
     "field_offset" : 384,
     "referenced_type" : "_ZTIPPh"
    },
    {
     "access" : "private",
     "field_name" : "databuf_strides_",
     "field_offset" : 416,
     "referenced_type" : "_ZTIPi"
    }
   ],
   "linker_set_key" : "_ZTIN6libyuv12MJpegDecoderE",
   "name" : "libyuv::MJpegDecoder",
   "record_kind" : "class",
   "referenced_type" : "_ZTIN6libyuv12MJpegDecoderE",
   "self_type" : "_ZTIN6libyuv12MJpegDecoderE",
   "size" : 56,
   "source_file" : "external/libyuv/files/include/libyuv/mjpeg_decoder.h"
  },
  {
   "alignment" : 4,
   "fields" :
   [
    {
     "field_name" : "data",
     "referenced_type" : "_ZTIPKh"
    },
    {
     "field_name" : "len",
     "field_offset" : 32,
     "referenced_type" : "_ZTIi"
    }
   ],
   "linker_set_key" : "_ZTIN6libyuv6BufferE",
   "name" : "libyuv::Buffer",
   "referenced_type" : "_ZTIN6libyuv6BufferE",
   "self_type" : "_ZTIN6libyuv6BufferE",
   "size" : 8,
   "source_file" : "external/libyuv/files/include/libyuv/mjpeg_decoder.h"
  }
 ],
 "rvalue_reference_types" : []
}
