{
 "array_types" :
 [
  {
   "alignment" : 4,
   "linker_set_key" : "_ZTIA256_j",
   "name" : "unsigned int [256]",
   "referenced_type" : "_ZTIj",
   "self_type" : "_ZTIA256_j",
   "size" : 1024,
   "source_file" : "external/libyuv/files/include/libyuv/row.h"
  }
 ],
 "builtin_types" :
 [
  {
   "alignment" : 1,
   "is_integral" : true,
   "linker_set_key" : "_ZTIa",
   "name" : "signed char",
   "referenced_type" : "_ZTIa",
   "self_type" : "_ZTIa",
   "size" : 1
  },
  {
   "alignment" : 4,
   "linker_set_key" : "_ZTIf",
   "name" : "float",
   "referenced_type" : "_ZTIf",
   "self_type" : "_ZTIf",
   "size" : 4
  },
  {
   "alignment" : 1,
   "is_integral" : true,
   "is_unsigned" : true,
   "linker_set_key" : "_ZTIh",
   "name" : "unsigned char",
   "referenced_type" : "_ZTIh",
   "self_type" : "_ZTIh",
   "size" : 1
  },
  {
   "alignment" : 4,
   "is_integral" : true,
   "linker_set_key" : "_ZTIi",
   "name" : "int",
   "referenced_type" : "_ZTIi",
   "self_type" : "_ZTIi",
   "size" : 4
  },
  {
   "alignment" : 4,
   "is_integral" : true,
   "is_unsigned" : true,
   "linker_set_key" : "_ZTIj",
   "name" : "unsigned int",
   "referenced_type" : "_ZTIj",
   "self_type" : "_ZTIj",
   "size" : 4
  },
  {
   "alignment" : 2,
   "is_integral" : true,
   "is_unsigned" : true,
   "linker_set_key" : "_ZTIt",
   "name" : "unsigned short",
   "referenced_type" : "_ZTIt",
   "self_type" : "_ZTIt",
   "size" : 2
  },
  {
   "linker_set_key" : "_ZTIv",
   "name" : "void",
   "referenced_type" : "_ZTIv",
   "self_type" : "_ZTIv"
  }
 ],
 "elf_functions" : [],
 "elf_objects" : [],
 "enum_types" :
 [
  {
   "alignment" : 4,
   "enum_fields" :
   [
    {
     "enum_field_value" : 0,
     "name" : "libyuv::kFilterNone"
    },
    {
     "enum_field_value" : 1,
     "name" : "libyuv::kFilterLinear"
    },
    {
     "enum_field_value" : 2,
     "name" : "libyuv::kFilterBilinear"
    },
    {
     "enum_field_value" : 3,
     "name" : "libyuv::kFilterBox"
    }
   ],
   "linker_set_key" : "_ZTIN6libyuv10FilterModeE",
   "name" : "libyuv::FilterMode",
   "referenced_type" : "_ZTIN6libyuv10FilterModeE",
   "self_type" : "_ZTIN6libyuv10FilterModeE",
   "size" : 4,
   "source_file" : "external/libyuv/files/include/libyuv/scale.h",
   "underlying_type" : "_ZTIj"
  },
  {
   "alignment" : 4,
   "enum_fields" :
   [
    {
     "enum_field_value" : 0,
     "name" : "libyuv::kRotate0"
    },
    {
     "enum_field_value" : 90,
     "name" : "libyuv::kRotate90"
    },
    {
     "enum_field_value" : 180,
     "name" : "libyuv::kRotate180"
    },
    {
     "enum_field_value" : 270,
     "name" : "libyuv::kRotate270"
    },
    {
     "enum_field_value" : 0,
     "name" : "libyuv::kRotateNone"
    },
    {
     "enum_field_value" : 90,
     "name" : "libyuv::kRotateClockwise"
    },
    {
     "enum_field_value" : 270,
     "name" : "libyuv::kRotateCounterClockwise"
    }
   ],
   "linker_set_key" : "_ZTIN6libyuv12RotationModeE",
   "name" : "libyuv::RotationMode",
   "referenced_type" : "_ZTIN6libyuv12RotationModeE",
   "self_type" : "_ZTIN6libyuv12RotationModeE",
   "size" : 4,
   "source_file" : "external/libyuv/files/include/libyuv/rotate.h",
   "underlying_type" : "_ZTIj"
  },
  {
   "alignment" : 4,
   "enum_fields" :
   [
    {
     "enum_field_value" : 0,
     "name" : "libyuv::kJpegYuv420"
    },
    {
     "enum_field_value" : 1,
     "name" : "libyuv::kJpegYuv422"
    },
    {
     "enum_field_value" : 2,
     "name" : "libyuv::kJpegYuv444"
    },
    {
     "enum_field_value" : 3,
     "name" : "libyuv::kJpegYuv400"
    },
    {
     "enum_field_value" : 4,
     "name" : "libyuv::kJpegUnknown"
    }
   ],
   "linker_set_key" : "_ZTIN6libyuv19JpegSubsamplingTypeE",
   "name" : "libyuv::JpegSubsamplingType",
   "referenced_type" : "_ZTIN6libyuv19JpegSubsamplingTypeE",
   "self_type" : "_ZTIN6libyuv19JpegSubsamplingTypeE",
   "size" : 4,
   "source_file" : "external/libyuv/files/include/libyuv/mjpeg_decoder.h",
   "underlying_type" : "_ZTIj"
  }
 ],
 "function_types" :
 [
  {
   "alignment" : 4,
   "linker_set_key" : "_ZTIFvPKhS0_PhiE",
   "name" : "void (const unsigned char *, const unsigned char *, unsigned char *, int)",
   "parameters" :
   [
    {
     "referenced_type" : "_ZTIPKh"
    },
    {
     "referenced_type" : "_ZTIPKh"
    },
    {
     "referenced_type" : "_ZTIPh"
    },
    {
     "referenced_type" : "_ZTIi"
    }
   ],
   "referenced_type" : "_ZTIFvPKhS0_PhiE",
   "return_type" : "_ZTIv",
   "self_type" : "_ZTIFvPKhS0_PhiE",
   "source_file" : "external/libyuv/files/include/libyuv/planar_functions.h"
  }
 ],
 "functions" :
 [
  {
   "function_name" : "libyuv::ARGBAdd",
   "linker_set_key" : "ARGBAdd",
   "parameters" :
   [
    {
     "referenced_type" : "_ZTIPKh"
    },
    {
     "referenced_type" : "_ZTIi"
    },
    {
     "referenced_type" : "_ZTIPKh"
    },
    {
     "referenced_type" : "_ZTIi"
    },
    {
     "referenced_type" : "_ZTIPh"
    },
    {
     "referenced_type" : "_ZTIi"
    },
    {
     "referenced_type" : "_ZTIi"
    },
    {
     "referenced_type" : "_ZTIi"
    }
   ],
   "return_type" : "_ZTIi",
   "source_file" : "external/libyuv/files/include/libyuv/planar_functions.h"
  },
  {
   "function_name" : "libyuv::ARGBAttenuate",
   "linker_set_key" : "ARGBAttenuate",
   "parameters" :
   [
    {
     "referenced_type" : "_ZTIPKh"
    },
    {
     "referenced_type" : "_ZTIi"
    },
    {
     "referenced_type" : "_ZTIPh"
    },
    {
     "referenced_type" : "_ZTIi"
    },
    {
     "referenced_type" : "_ZTIi"
    },
    {
     "referenced_type" : "_ZTIi"
    }
   ],
   "return_type" : "_ZTIi",
   "source_file" : "external/libyuv/files/include/libyuv/planar_functions.h"
  },
  {
   "function_name" : "libyuv::ARGBBlend",
   "linker_set_key" : "ARGBBlend",
   "parameters" :
   [
    {
     "referenced_type" : "_ZTIPKh"
    },
    {
     "referenced_type" : "_ZTIi"
    },
    {
     "referenced_type" : "_ZTIPKh"
    },
    {
     "referenced_type" : "_ZTIi"
    },
    {
     "referenced_type" : "_ZTIPh"
    },
    {
     "referenced_type" : "_ZTIi"
    },
    {
     "referenced_type" : "_ZTIi"
    },
    {
     "referenced_type" : "_ZTIi"
    }
   ],
   "return_type" : "_ZTIi",
   "source_file" : "external/libyuv/files/include/libyuv/planar_functions.h"
  },
  {
   "function_name" : "libyuv::ARGBBlur",
   "linker_set_key" : "ARGBBlur",
   "parameters" :
   [
    {
     "referenced_type" : "_ZTIPKh"
    },
    {
     "referenced_type" : "_ZTIi"
    },
    {
     "referenced_type" : "_ZTIPh"
    },
    {
     "referenced_type" : "_ZTIi"
    },
    {
     "referenced_type" : "_ZTIPi"
    },
    {
     "referenced_type" : "_ZTIi"
    },
    {
     "referenced_type" : "_ZTIi"
    },
    {
     "referenced_type" : "_ZTIi"
    },
    {
     "referenced_type" : "_ZTIi"
    }
   ],
   "return_type" : "_ZTIi",
   "source_file" : "external/libyuv/files/include/libyuv/planar_functions.h"
  },
  {
   "function_name" : "libyuv::ARGBColorMatrix",
   "linker_set_key" : "ARGBColorMatrix",
   "parameters" :
   [
    {
     "referenced_type" : "_ZTIPKh"
    },
    {
     "referenced_type" : "_ZTIi"
    },
    {
     "referenced_type" : "_ZTIPh"
    },
    {
     "referenced_type" : "_ZTIi"
    },
    {
     "referenced_type" : "_ZTIPKa"
    },
    {
     "referenced_type" : "_ZTIi"
    },
    {
     "referenced_type" : "_ZTIi"
    }
   ],
   "return_type" : "_ZTIi",
   "source_file" : "external/libyuv/files/include/libyuv/planar_functions.h"
  },
  {
   "function_name" : "libyuv::ARGBColorTable",
   "linker_set_key" : "ARGBColorTable",
   "parameters" :
   [
    {
     "referenced_type" : "_ZTIPh"
    },
    {
     "referenced_type" : "_ZTIi"
    },
    {
     "referenced_type" : "_ZTIPKh"
    },
    {
     "referenced_type" : "_ZTIi"
    },
    {
     "referenced_type" : "_ZTIi"
    },
    {
     "referenced_type" : "_ZTIi"
    },
    {
     "referenced_type" : "_ZTIi"
    }
   ],
   "return_type" : "_ZTIi",
   "source_file" : "external/libyuv/files/include/libyuv/planar_functions.h"
  },
  {
   "function_name" : "libyuv::ARGBComputeCumulativeSum",
   "linker_set_key" : "ARGBComputeCumulativeSum",
   "parameters" :
   [
    {
     "referenced_type" : "_ZTIPKh"
    },
    {
     "referenced_type" : "_ZTIi"
    },
    {
     "referenced_type" : "_ZTIPi"
    },
    {
     "referenced_type" : "_ZTIi"
    },
    {
     "referenced_type" : "_ZTIi"
    },
    {
     "referenced_type" : "_ZTIi"
    }
   ],
   "return_type" : "_ZTIi",
   "source_file" : "external/libyuv/files/include/libyuv/planar_functions.h"
  },
  {
   "function_name" : "libyuv::ARGBCopyAlpha",
   "linker_set_key" : "ARGBCopyAlpha",
   "parameters" :
   [
    {
     "referenced_type" : "_ZTIPKh"
    },
    {
     "referenced_type" : "_ZTIi"
    },
    {
     "referenced_type" : "_ZTIPh"
    },
    {
     "referenced_type" : "_ZTIi"
    },
    {
     "referenced_type" : "_ZTIi"
    },
    {
     "referenced_type" : "_ZTIi"
    }
   ],
   "return_type" : "_ZTIi",
   "source_file" : "external/libyuv/files/include/libyuv/planar_functions.h"
  },
  {
   "function_name" : "libyuv::ARGBCopyYToAlpha",
   "linker_set_key" : "ARGBCopyYToAlpha",
   "parameters" :
   [
    {
     "referenced_type" : "_ZTIPKh"
    },
    {
     "referenced_type" : "_ZTIi"
    },
    {
     "referenced_type" : "_ZTIPh"
    },
    {
     "referenced_type" : "_ZTIi"
    },
    {
     "referenced_type" : "_ZTIi"
    },
    {
     "referenced_type" : "_ZTIi"
    }
   ],
   "return_type" : "_ZTIi",
   "source_file" : "external/libyuv/files/include/libyuv/planar_functions.h"
  },
  {
   "function_name" : "libyuv::ARGBExtractAlpha",
   "linker_set_key" : "ARGBExtractAlpha",
   "parameters" :
   [
    {
     "referenced_type" : "_ZTIPKh"
    },
    {
     "referenced_type" : "_ZTIi"
    },
    {
     "referenced_type" : "_ZTIPh"
    },
    {
     "referenced_type" : "_ZTIi"
    },
    {
     "referenced_type" : "_ZTIi"
    },
    {
     "referenced_type" : "_ZTIi"
    }
   ],
   "return_type" : "_ZTIi",
   "source_file" : "external/libyuv/files/include/libyuv/planar_functions.h"
  },
  {
   "function_name" : "libyuv::ARGBGray",
   "linker_set_key" : "ARGBGray",
   "parameters" :
   [
    {
     "referenced_type" : "_ZTIPh"
    },
    {
     "referenced_type" : "_ZTIi"
    },
    {
     "referenced_type" : "_ZTIi"
    },
    {
     "referenced_type" : "_ZTIi"
    },
    {
     "referenced_type" : "_ZTIi"
    },
    {
     "referenced_type" : "_ZTIi"
    }
   ],
   "return_type" : "_ZTIi",
   "source_file" : "external/libyuv/files/include/libyuv/planar_functions.h"
  },
  {
   "function_name" : "libyuv::ARGBGrayTo",
   "linker_set_key" : "ARGBGrayTo",
   "parameters" :
   [
    {
     "referenced_type" : "_ZTIPKh"
    },
    {
     "referenced_type" : "_ZTIi"
    },
    {
     "referenced_type" : "_ZTIPh"
    },
    {
     "referenced_type" : "_ZTIi"
    },
    {
     "referenced_type" : "_ZTIi"
    },
    {
     "referenced_type" : "_ZTIi"
    }
   ],
   "return_type" : "_ZTIi",
   "source_file" : "external/libyuv/files/include/libyuv/planar_functions.h"
  },
  {
   "function_name" : "libyuv::ARGBInterpolate",
   "linker_set_key" : "ARGBInterpolate",
   "parameters" :
   [
    {
     "referenced_type" : "_ZTIPKh"
    },
    {
     "referenced_type" : "_ZTIi"
    },
    {
     "referenced_type" : "_ZTIPKh"
    },
    {
     "referenced_type" : "_ZTIi"
    },
    {
     "referenced_type" : "_ZTIPh"
    },
    {
     "referenced_type" : "_ZTIi"
    },
    {
     "referenced_type" : "_ZTIi"
    },
    {
     "referenced_type" : "_ZTIi"
    },
    {
     "referenced_type" : "_ZTIi"
    }
   ],
   "return_type" : "_ZTIi",
   "source_file" : "external/libyuv/files/include/libyuv/planar_functions.h"
  },
  {
   "function_name" : "libyuv::ARGBLumaColorTable",
   "linker_set_key" : "ARGBLumaColorTable",
   "parameters" :
   [
    {
     "referenced_type" : "_ZTIPKh"
    },
    {
     "referenced_type" : "_ZTIi"
    },
    {
     "referenced_type" : "_ZTIPh"
    },
    {
     "referenced_type" : "_ZTIi"
    },
    {
     "referenced_type" : "_ZTIPKh"
    },
    {
     "referenced_type" : "_ZTIi"
    },
    {
     "referenced_type" : "_ZTIi"
    }
   ],
   "return_type" : "_ZTIi",
   "source_file" : "external/libyuv/files/include/libyuv/planar_functions.h"
  },
  {
   "function_name" : "libyuv::ARGBMirror",
   "linker_set_key" : "ARGBMirror",
   "parameters" :
   [
    {
     "referenced_type" : "_ZTIPKh"
    },
    {
     "referenced_type" : "_ZTIi"
    },
    {
     "referenced_type" : "_ZTIPh"
    },
    {
     "referenced_type" : "_ZTIi"
    },
    {
     "referenced_type" : "_ZTIi"
    },
    {
     "referenced_type" : "_ZTIi"
    }
   ],
   "return_type" : "_ZTIi",
   "source_file" : "external/libyuv/files/include/libyuv/planar_functions.h"
  },
  {
   "function_name" : "libyuv::ARGBMultiply",
   "linker_set_key" : "ARGBMultiply",
   "parameters" :
   [
    {
     "referenced_type" : "_ZTIPKh"
    },
    {
     "referenced_type" : "_ZTIi"
    },
    {
     "referenced_type" : "_ZTIPKh"
    },
    {
     "referenced_type" : "_ZTIi"
    },
    {
     "referenced_type" : "_ZTIPh"
    },
    {
     "referenced_type" : "_ZTIi"
    },
    {
     "referenced_type" : "_ZTIi"
    },
    {
     "referenced_type" : "_ZTIi"
    }
   ],
   "return_type" : "_ZTIi",
   "source_file" : "external/libyuv/files/include/libyuv/planar_functions.h"
  },
  {
   "function_name" : "libyuv::ARGBPolynomial",
   "linker_set_key" : "ARGBPolynomial",
   "parameters" :
   [
    {
     "referenced_type" : "_ZTIPKh"
    },
    {
     "referenced_type" : "_ZTIi"
    },
    {
     "referenced_type" : "_ZTIPh"
    },
    {
     "referenced_type" : "_ZTIi"
    },
    {
     "referenced_type" : "_ZTIPKf"
    },
    {
     "referenced_type" : "_ZTIi"
    },
    {
     "referenced_type" : "_ZTIi"
    }
   ],
   "return_type" : "_ZTIi",
   "source_file" : "external/libyuv/files/include/libyuv/planar_functions.h"
  },
  {
   "function_name" : "libyuv::ARGBQuantize",
   "linker_set_key" : "ARGBQuantize",
   "parameters" :
   [
    {
     "referenced_type" : "_ZTIPh"
    },
    {
     "referenced_type" : "_ZTIi"
    },
    {
     "referenced_type" : "_ZTIi"
    },
    {
     "referenced_type" : "_ZTIi"
    },
    {
     "referenced_type" : "_ZTIi"
    },
    {
     "referenced_type" : "_ZTIi"
    },
    {
     "referenced_type" : "_ZTIi"
    },
    {
     "referenced_type" : "_ZTIi"
    },
    {
     "referenced_type" : "_ZTIi"
    }
   ],
   "return_type" : "_ZTIi",
   "source_file" : "external/libyuv/files/include/libyuv/planar_functions.h"
  },
  {
   "function_name" : "libyuv::ARGBRect",
   "linker_set_key" : "ARGBRect",
   "parameters" :
   [
    {
     "referenced_type" : "_ZTIPh"
    },
    {
     "referenced_type" : "_ZTIi"
    },
    {
     "referenced_type" : "_ZTIi"
    },
    {
     "referenced_type" : "_ZTIi"
    },
    {
     "referenced_type" : "_ZTIi"
    },
    {
     "referenced_type" : "_ZTIi"
    },
    {
     "referenced_type" : "_ZTIj"
    }
   ],
   "return_type" : "_ZTIi",
   "source_file" : "external/libyuv/files/include/libyuv/planar_functions.h"
  },
  {
   "function_name" : "libyuv::ARGBSepia",
   "linker_set_key" : "ARGBSepia",
   "parameters" :
   [
    {
     "referenced_type" : "_ZTIPh"
    },
    {
     "referenced_type" : "_ZTIi"
    },
    {
     "referenced_type" : "_ZTIi"
    },
    {
     "referenced_type" : "_ZTIi"
    },
    {
     "referenced_type" : "_ZTIi"
    },
    {
     "referenced_type" : "_ZTIi"
    }
   ],
   "return_type" : "_ZTIi",
   "source_file" : "external/libyuv/files/include/libyuv/planar_functions.h"
  },
  {
   "function_name" : "libyuv::ARGBShade",
   "linker_set_key" : "ARGBShade",
   "parameters" :
   [
    {
     "referenced_type" : "_ZTIPKh"
    },
    {
     "referenced_type" : "_ZTIi"
    },
    {
     "referenced_type" : "_ZTIPh"
    },
    {
     "referenced_type" : "_ZTIi"
    },
    {
     "referenced_type" : "_ZTIi"
    },
    {
     "referenced_type" : "_ZTIi"
    },
    {
     "referenced_type" : "_ZTIj"
    }
   ],
   "return_type" : "_ZTIi",
   "source_file" : "external/libyuv/files/include/libyuv/planar_functions.h"
  },
  {
   "function_name" : "libyuv::ARGBShuffle",
   "linker_set_key" : "ARGBShuffle",
   "parameters" :
   [
    {
     "referenced_type" : "_ZTIPKh"
    },
    {
     "referenced_type" : "_ZTIi"
    },
    {
     "referenced_type" : "_ZTIPh"
    },
    {
     "referenced_type" : "_ZTIi"
    },
    {
     "referenced_type" : "_ZTIPKh"
    },
    {
     "referenced_type" : "_ZTIi"
    },
    {
     "referenced_type" : "_ZTIi"
    }
   ],
   "return_type" : "_ZTIi",
   "source_file" : "external/libyuv/files/include/libyuv/planar_functions.h"
  },
  {
   "function_name" : "libyuv::ARGBSobel",
   "linker_set_key" : "ARGBSobel",
   "parameters" :
   [
    {
     "referenced_type" : "_ZTIPKh"
    },
    {
     "referenced_type" : "_ZTIi"
    },
    {
     "referenced_type" : "_ZTIPh"
    },
    {
     "referenced_type" : "_ZTIi"
    },
    {
     "referenced_type" : "_ZTIi"
    },
    {
     "referenced_type" : "_ZTIi"
    }
   ],
   "return_type" : "_ZTIi",
   "source_file" : "external/libyuv/files/include/libyuv/planar_functions.h"
  },
  {
   "function_name" : "libyuv::ARGBSobelToPlane",
   "linker_set_key" : "ARGBSobelToPlane",
   "parameters" :
   [
    {
     "referenced_type" : "_ZTIPKh"
    },
    {
     "referenced_type" : "_ZTIi"
    },
    {
     "referenced_type" : "_ZTIPh"
    },
    {
     "referenced_type" : "_ZTIi"
    },
    {
     "referenced_type" : "_ZTIi"
    },
    {
     "referenced_type" : "_ZTIi"
    }
   ],
   "return_type" : "_ZTIi",
   "source_file" : "external/libyuv/files/include/libyuv/planar_functions.h"
  },
  {
   "function_name" : "libyuv::ARGBSobelXY",
   "linker_set_key" : "ARGBSobelXY",
   "parameters" :
   [
    {
     "referenced_type" : "_ZTIPKh"
    },
    {
     "referenced_type" : "_ZTIi"
    },
    {
     "referenced_type" : "_ZTIPh"
    },
    {
     "referenced_type" : "_ZTIi"
    },
    {
     "referenced_type" : "_ZTIi"
    },
    {
     "referenced_type" : "_ZTIi"
    }
   ],
   "return_type" : "_ZTIi",
   "source_file" : "external/libyuv/files/include/libyuv/planar_functions.h"
  },
  {
   "function_name" : "libyuv::ARGBSubtract",
   "linker_set_key" : "ARGBSubtract",
   "parameters" :
   [
    {
     "referenced_type" : "_ZTIPKh"
    },
    {
     "referenced_type" : "_ZTIi"
    },
    {
     "referenced_type" : "_ZTIPKh"
    },
    {
     "referenced_type" : "_ZTIi"
    },
    {
     "referenced_type" : "_ZTIPh"
    },
    {
     "referenced_type" : "_ZTIi"
    },
    {
     "referenced_type" : "_ZTIi"
    },
    {
     "referenced_type" : "_ZTIi"
    }
   ],
   "return_type" : "_ZTIi",
   "source_file" : "external/libyuv/files/include/libyuv/planar_functions.h"
  },
  {
   "function_name" : "libyuv::ARGBUnattenuate",
   "linker_set_key" : "ARGBUnattenuate",
   "parameters" :
   [
    {
     "referenced_type" : "_ZTIPKh"
    },
    {
     "referenced_type" : "_ZTIi"
    },
    {
     "referenced_type" : "_ZTIPh"
    },
    {
     "referenced_type" : "_ZTIi"
    },
    {
     "referenced_type" : "_ZTIi"
    },
    {
     "referenced_type" : "_ZTIi"
    }
   ],
   "return_type" : "_ZTIi",
   "source_file" : "external/libyuv/files/include/libyuv/planar_functions.h"
  },
  {
   "function_name" : "libyuv::BlendPlane",
   "linker_set_key" : "BlendPlane",
   "parameters" :
   [
    {
     "referenced_type" : "_ZTIPKh"
    },
    {
     "referenced_type" : "_ZTIi"
    },
    {
     "referenced_type" : "_ZTIPKh"
    },
    {
     "referenced_type" : "_ZTIi"
    },
    {
     "referenced_type" : "_ZTIPKh"
    },
    {
     "referenced_type" : "_ZTIi"
    },
    {
     "referenced_type" : "_ZTIPh"
    },
    {
     "referenced_type" : "_ZTIi"
    },
    {
     "referenced_type" : "_ZTIi"
    },
    {
     "referenced_type" : "_ZTIi"
    }
   ],
   "return_type" : "_ZTIi",
   "source_file" : "external/libyuv/files/include/libyuv/planar_functions.h"
  },
  {
   "function_name" : "libyuv::ByteToFloat",
   "linker_set_key" : "ByteToFloat",
   "parameters" :
   [
    {
     "referenced_type" : "_ZTIPKh"
    },
    {
     "referenced_type" : "_ZTIPf"
    },
    {
     "referenced_type" : "_ZTIf"
    },
    {
     "referenced_type" : "_ZTIi"
    }
   ],
   "return_type" : "_ZTIi",
   "source_file" : "external/libyuv/files/include/libyuv/planar_functions.h"
  },
  {
   "function_name" : "libyuv::Convert16To8Plane",
   "linker_set_key" : "Convert16To8Plane",
   "parameters" :
   [
    {
     "referenced_type" : "_ZTIPKt"
    },
    {
     "referenced_type" : "_ZTIi"
    },
    {
     "referenced_type" : "_ZTIPh"
    },
    {
     "referenced_type" : "_ZTIi"
    },
    {
     "referenced_type" : "_ZTIi"
    },
    {
     "referenced_type" : "_ZTIi"
    },
    {
     "referenced_type" : "_ZTIi"
    }
   ],
   "return_type" : "_ZTIv",
   "source_file" : "external/libyuv/files/include/libyuv/planar_functions.h"
  },
  {
   "function_name" : "libyuv::Convert8To16Plane",
   "linker_set_key" : "Convert8To16Plane",
   "parameters" :
   [
    {
     "referenced_type" : "_ZTIPKh"
    },
    {
     "referenced_type" : "_ZTIi"
    },
    {
     "referenced_type" : "_ZTIPt"
    },
    {
     "referenced_type" : "_ZTIi"
    },
    {
     "referenced_type" : "_ZTIi"
    },
    {
     "referenced_type" : "_ZTIi"
    },
    {
     "referenced_type" : "_ZTIi"
    }
   ],
   "return_type" : "_ZTIv",
   "source_file" : "external/libyuv/files/include/libyuv/planar_functions.h"
  },
  {
   "function_name" : "libyuv::CopyPlane",
   "linker_set_key" : "CopyPlane",
   "parameters" :
   [
    {
     "referenced_type" : "_ZTIPKh"
    },
    {
     "referenced_type" : "_ZTIi"
    },
    {
     "referenced_type" : "_ZTIPh"
    },
    {
     "referenced_type" : "_ZTIi"
    },
    {
     "referenced_type" : "_ZTIi"
    },
    {
     "referenced_type" : "_ZTIi"
    }
   ],
   "return_type" : "_ZTIv",
   "source_file" : "external/libyuv/files/include/libyuv/planar_functions.h"
  },
  {
   "function_name" : "libyuv::CopyPlane_16",
   "linker_set_key" : "CopyPlane_16",
   "parameters" :
   [
    {
     "referenced_type" : "_ZTIPKt"
    },
    {
     "referenced_type" : "_ZTIi"
    },
    {
     "referenced_type" : "_ZTIPt"
    },
    {
     "referenced_type" : "_ZTIi"
    },
    {
     "referenced_type" : "_ZTIi"
    },
    {
     "referenced_type" : "_ZTIi"
    }
   ],
   "return_type" : "_ZTIv",
   "source_file" : "external/libyuv/files/include/libyuv/planar_functions.h"
  },
  {
   "function_name" : "libyuv::GetARGBBlend",
   "linker_set_key" : "GetARGBBlend",
   "return_type" : "_ZTIPFvPKhS0_PhiE",
   "source_file" : "external/libyuv/files/include/libyuv/planar_functions.h"
  },
  {
   "function_name" : "libyuv::HalfFloatPlane",
   "linker_set_key" : "HalfFloatPlane",
   "parameters" :
   [
    {
     "referenced_type" : "_ZTIPKt"
    },
    {
     "referenced_type" : "_ZTIi"
    },
    {
     "referenced_type" : "_ZTIPt"
    },
    {
     "referenced_type" : "_ZTIi"
    },
    {
     "referenced_type" : "_ZTIf"
    },
    {
     "referenced_type" : "_ZTIi"
    },
    {
     "referenced_type" : "_ZTIi"
    }
   ],
   "return_type" : "_ZTIi",
   "source_file" : "external/libyuv/files/include/libyuv/planar_functions.h"
  },
  {
   "function_name" : "libyuv::I400Mirror",
   "linker_set_key" : "I400Mirror",
   "parameters" :
   [
    {
     "referenced_type" : "_ZTIPKh"
    },
    {
     "referenced_type" : "_ZTIi"
    },
    {
     "referenced_type" : "_ZTIPh"
    },
    {
     "referenced_type" : "_ZTIi"
    },
    {
     "referenced_type" : "_ZTIi"
    },
    {
     "referenced_type" : "_ZTIi"
    }
   ],
   "return_type" : "_ZTIi",
   "source_file" : "external/libyuv/files/include/libyuv/planar_functions.h"
  },
  {
   "function_name" : "libyuv::I400ToI400",
   "linker_set_key" : "I400ToI400",
   "parameters" :
   [
    {
     "referenced_type" : "_ZTIPKh"
    },
    {
     "referenced_type" : "_ZTIi"
    },
    {
     "referenced_type" : "_ZTIPh"
    },
    {
     "referenced_type" : "_ZTIi"
    },
    {
     "referenced_type" : "_ZTIi"
    },
    {
     "referenced_type" : "_ZTIi"
    }
   ],
   "return_type" : "_ZTIi",
   "source_file" : "external/libyuv/files/include/libyuv/planar_functions.h"
  },
  {
   "function_name" : "libyuv::I420Blend",
   "linker_set_key" : "I420Blend",
   "parameters" :
   [
    {
     "referenced_type" : "_ZTIPKh"
    },
    {
     "referenced_type" : "_ZTIi"
    },
    {
     "referenced_type" : "_ZTIPKh"
    },
    {
     "referenced_type" : "_ZTIi"
    },
    {
     "referenced_type" : "_ZTIPKh"
    },
    {
     "referenced_type" : "_ZTIi"
    },
    {
     "referenced_type" : "_ZTIPKh"
    },
    {
     "referenced_type" : "_ZTIi"
    },
    {
     "referenced_type" : "_ZTIPKh"
    },
    {
     "referenced_type" : "_ZTIi"
    },
    {
     "referenced_type" : "_ZTIPKh"
    },
    {
     "referenced_type" : "_ZTIi"
    },
    {
     "referenced_type" : "_ZTIPKh"
    },
    {
     "referenced_type" : "_ZTIi"
    },
    {
     "referenced_type" : "_ZTIPh"
    },
    {
     "referenced_type" : "_ZTIi"
    },
    {
     "referenced_type" : "_ZTIPh"
    },
    {
     "referenced_type" : "_ZTIi"
    },
    {
     "referenced_type" : "_ZTIPh"
    },
    {
     "referenced_type" : "_ZTIi"
    },
    {
     "referenced_type" : "_ZTIi"
    },
    {
     "referenced_type" : "_ZTIi"
    }
   ],
   "return_type" : "_ZTIi",
   "source_file" : "external/libyuv/files/include/libyuv/planar_functions.h"
  },
  {
   "function_name" : "libyuv::I420Interpolate",
   "linker_set_key" : "I420Interpolate",
   "parameters" :
   [
    {
     "referenced_type" : "_ZTIPKh"
    },
    {
     "referenced_type" : "_ZTIi"
    },
    {
     "referenced_type" : "_ZTIPKh"
    },
    {
     "referenced_type" : "_ZTIi"
    },
    {
     "referenced_type" : "_ZTIPKh"
    },
    {
     "referenced_type" : "_ZTIi"
    },
    {
     "referenced_type" : "_ZTIPKh"
    },
    {
     "referenced_type" : "_ZTIi"
    },
    {
     "referenced_type" : "_ZTIPKh"
    },
    {
     "referenced_type" : "_ZTIi"
    },
    {
     "referenced_type" : "_ZTIPKh"
    },
    {
     "referenced_type" : "_ZTIi"
    },
    {
     "referenced_type" : "_ZTIPh"
    },
    {
     "referenced_type" : "_ZTIi"
    },
    {
     "referenced_type" : "_ZTIPh"
    },
    {
     "referenced_type" : "_ZTIi"
    },
    {
     "referenced_type" : "_ZTIPh"
    },
    {
     "referenced_type" : "_ZTIi"
    },
    {
     "referenced_type" : "_ZTIi"
    },
    {
     "referenced_type" : "_ZTIi"
    },
    {
     "referenced_type" : "_ZTIi"
    }
   ],
   "return_type" : "_ZTIi",
   "source_file" : "external/libyuv/files/include/libyuv/planar_functions.h"
  },
  {
   "function_name" : "libyuv::I420Mirror",
   "linker_set_key" : "I420Mirror",
   "parameters" :
   [
    {
     "referenced_type" : "_ZTIPKh"
    },
    {
     "referenced_type" : "_ZTIi"
    },
    {
     "referenced_type" : "_ZTIPKh"
    },
    {
     "referenced_type" : "_ZTIi"
    },
    {
     "referenced_type" : "_ZTIPKh"
    },
    {
     "referenced_type" : "_ZTIi"
    },
    {
     "referenced_type" : "_ZTIPh"
    },
    {
     "referenced_type" : "_ZTIi"
    },
    {
     "referenced_type" : "_ZTIPh"
    },
    {
     "referenced_type" : "_ZTIi"
    },
    {
     "referenced_type" : "_ZTIPh"
    },
    {
     "referenced_type" : "_ZTIi"
    },
    {
     "referenced_type" : "_ZTIi"
    },
    {
     "referenced_type" : "_ZTIi"
    }
   ],
   "return_type" : "_ZTIi",
   "source_file" : "external/libyuv/files/include/libyuv/planar_functions.h"
  },
  {
   "function_name" : "libyuv::I420Rect",
   "linker_set_key" : "I420Rect",
   "parameters" :
   [
    {
     "referenced_type" : "_ZTIPh"
    },
    {
     "referenced_type" : "_ZTIi"
    },
    {
     "referenced_type" : "_ZTIPh"
    },
    {
     "referenced_type" : "_ZTIi"
    },
    {
     "referenced_type" : "_ZTIPh"
    },
    {
     "referenced_type" : "_ZTIi"
    },
    {
     "referenced_type" : "_ZTIi"
    },
    {
     "referenced_type" : "_ZTIi"
    },
    {
     "referenced_type" : "_ZTIi"
    },
    {
     "referenced_type" : "_ZTIi"
    },
    {
     "referenced_type" : "_ZTIi"
    },
    {
     "referenced_type" : "_ZTIi"
    },
    {
     "referenced_type" : "_ZTIi"
    }
   ],
   "return_type" : "_ZTIi",
   "source_file" : "external/libyuv/files/include/libyuv/planar_functions.h"
  },
  {
   "function_name" : "libyuv::I420ToI400",
   "linker_set_key" : "I420ToI400",
   "parameters" :
   [
    {
     "referenced_type" : "_ZTIPKh"
    },
    {
     "referenced_type" : "_ZTIi"
    },
    {
     "referenced_type" : "_ZTIPKh"
    },
    {
     "referenced_type" : "_ZTIi"
    },
    {
     "referenced_type" : "_ZTIPKh"
    },
    {
     "referenced_type" : "_ZTIi"
    },
    {
     "referenced_type" : "_ZTIPh"
    },
    {
     "referenced_type" : "_ZTIi"
    },
    {
     "referenced_type" : "_ZTIi"
    },
    {
     "referenced_type" : "_ZTIi"
    }
   ],
   "return_type" : "_ZTIi",
   "source_file" : "external/libyuv/files/include/libyuv/planar_functions.h"
  },
  {
   "function_name" : "libyuv::I422Copy",
   "linker_set_key" : "I422Copy",
   "parameters" :
   [
    {
     "referenced_type" : "_ZTIPKh"
    },
    {
     "referenced_type" : "_ZTIi"
    },
    {
     "referenced_type" : "_ZTIPKh"
    },
    {
     "referenced_type" : "_ZTIi"
    },
    {
     "referenced_type" : "_ZTIPKh"
    },
    {
     "referenced_type" : "_ZTIi"
    },
    {
     "referenced_type" : "_ZTIPh"
    },
    {
     "referenced_type" : "_ZTIi"
    },
    {
     "referenced_type" : "_ZTIPh"
    },
    {
     "referenced_type" : "_ZTIi"
    },
    {
     "referenced_type" : "_ZTIPh"
    },
    {
     "referenced_type" : "_ZTIi"
    },
    {
     "referenced_type" : "_ZTIi"
    },
    {
     "referenced_type" : "_ZTIi"
    }
   ],
   "return_type" : "_ZTIi",
   "source_file" : "external/libyuv/files/include/libyuv/planar_functions.h"
  },
  {
   "function_name" : "libyuv::I422ToBGRA",
   "linker_set_key" : "I422ToBGRA",
   "parameters" :
   [
    {
     "referenced_type" : "_ZTIPKh"
    },
    {
     "referenced_type" : "_ZTIi"
    },
    {
     "referenced_type" : "_ZTIPKh"
    },
    {
     "referenced_type" : "_ZTIi"
    },
    {
     "referenced_type" : "_ZTIPKh"
    },
    {
     "referenced_type" : "_ZTIi"
    },
    {
     "referenced_type" : "_ZTIPh"
    },
    {
     "referenced_type" : "_ZTIi"
    },
    {
     "referenced_type" : "_ZTIi"
    },
    {
     "referenced_type" : "_ZTIi"
    }
   ],
   "return_type" : "_ZTIi",
   "source_file" : "external/libyuv/files/include/libyuv/planar_functions.h"
  },
  {
   "function_name" : "libyuv::I422ToRGBA",
   "linker_set_key" : "I422ToRGBA",
   "parameters" :
   [
    {
     "referenced_type" : "_ZTIPKh"
    },
    {
     "referenced_type" : "_ZTIi"
    },
    {
     "referenced_type" : "_ZTIPKh"
    },
    {
     "referenced_type" : "_ZTIi"
    },
    {
     "referenced_type" : "_ZTIPKh"
    },
    {
     "referenced_type" : "_ZTIi"
    },
    {
     "referenced_type" : "_ZTIPh"
    },
    {
     "referenced_type" : "_ZTIi"
    },
    {
     "referenced_type" : "_ZTIi"
    },
    {
     "referenced_type" : "_ZTIi"
    }
   ],
   "return_type" : "_ZTIi",
   "source_file" : "external/libyuv/files/include/libyuv/planar_functions.h"
  },
  {
   "function_name" : "libyuv::I444Copy",
   "linker_set_key" : "I444Copy",
   "parameters" :
   [
    {
     "referenced_type" : "_ZTIPKh"
    },
    {
     "referenced_type" : "_ZTIi"
    },
    {
     "referenced_type" : "_ZTIPKh"
    },
    {
     "referenced_type" : "_ZTIi"
    },
    {
     "referenced_type" : "_ZTIPKh"
    },
    {
     "referenced_type" : "_ZTIi"
    },
    {
     "referenced_type" : "_ZTIPh"
    },
    {
     "referenced_type" : "_ZTIi"
    },
    {
     "referenced_type" : "_ZTIPh"
    },
    {
     "referenced_type" : "_ZTIi"
    },
    {
     "referenced_type" : "_ZTIPh"
    },
    {
     "referenced_type" : "_ZTIi"
    },
    {
     "referenced_type" : "_ZTIi"
    },
    {
     "referenced_type" : "_ZTIi"
    }
   ],
   "return_type" : "_ZTIi",
   "source_file" : "external/libyuv/files/include/libyuv/planar_functions.h"
  },
  {
   "function_name" : "libyuv::InterpolatePlane",
   "linker_set_key" : "InterpolatePlane",
   "parameters" :
   [
    {
     "referenced_type" : "_ZTIPKh"
    },
    {
     "referenced_type" : "_ZTIi"
    },
    {
     "referenced_type" : "_ZTIPKh"
    },
    {
     "referenced_type" : "_ZTIi"
    },
    {
     "referenced_type" : "_ZTIPh"
    },
    {
     "referenced_type" : "_ZTIi"
    },
    {
     "referenced_type" : "_ZTIi"
    },
    {
     "referenced_type" : "_ZTIi"
    },
    {
     "referenced_type" : "_ZTIi"
    }
   ],
   "return_type" : "_ZTIi",
   "source_file" : "external/libyuv/files/include/libyuv/planar_functions.h"
  },
  {
   "function_name" : "libyuv::MergeRGBPlane",
   "linker_set_key" : "MergeRGBPlane",
   "parameters" :
   [
    {
     "referenced_type" : "_ZTIPKh"
    },
    {
     "referenced_type" : "_ZTIi"
    },
    {
     "referenced_type" : "_ZTIPKh"
    },
    {
     "referenced_type" : "_ZTIi"
    },
    {
     "referenced_type" : "_ZTIPKh"
    },
    {
     "referenced_type" : "_ZTIi"
    },
    {
     "referenced_type" : "_ZTIPh"
    },
    {
     "referenced_type" : "_ZTIi"
    },
    {
     "referenced_type" : "_ZTIi"
    },
    {
     "referenced_type" : "_ZTIi"
    }
   ],
   "return_type" : "_ZTIv",
   "source_file" : "external/libyuv/files/include/libyuv/planar_functions.h"
  },
  {
   "function_name" : "libyuv::MergeUVPlane",
   "linker_set_key" : "MergeUVPlane",
   "parameters" :
   [
    {
     "referenced_type" : "_ZTIPKh"
    },
    {
     "referenced_type" : "_ZTIi"
    },
    {
     "referenced_type" : "_ZTIPKh"
    },
    {
     "referenced_type" : "_ZTIi"
    },
    {
     "referenced_type" : "_ZTIPh"
    },
    {
     "referenced_type" : "_ZTIi"
    },
    {
     "referenced_type" : "_ZTIi"
    },
    {
     "referenced_type" : "_ZTIi"
    }
   ],
   "return_type" : "_ZTIv",
   "source_file" : "external/libyuv/files/include/libyuv/planar_functions.h"
  },
  {
   "function_name" : "libyuv::NV12ToRGB565",
   "linker_set_key" : "NV12ToRGB565",
   "parameters" :
   [
    {
     "referenced_type" : "_ZTIPKh"
    },
    {
     "referenced_type" : "_ZTIi"
    },
    {
     "referenced_type" : "_ZTIPKh"
    },
    {
     "referenced_type" : "_ZTIi"
    },
    {
     "referenced_type" : "_ZTIPh"
    },
    {
     "referenced_type" : "_ZTIi"
    },
    {
     "referenced_type" : "_ZTIi"
    },
    {
     "referenced_type" : "_ZTIi"
    }
   ],
   "return_type" : "_ZTIi",
   "source_file" : "external/libyuv/files/include/libyuv/planar_functions.h"
  },
  {
   "function_name" : "libyuv::NV21ToNV12",
   "linker_set_key" : "NV21ToNV12",
   "parameters" :
   [
    {
     "referenced_type" : "_ZTIPKh"
    },
    {
     "referenced_type" : "_ZTIi"
    },
    {
     "referenced_type" : "_ZTIPKh"
    },
    {
     "referenced_type" : "_ZTIi"
    },
    {
     "referenced_type" : "_ZTIPh"
    },
    {
     "referenced_type" : "_ZTIi"
    },
    {
     "referenced_type" : "_ZTIPh"
    },
    {
     "referenced_type" : "_ZTIi"
    },
    {
     "referenced_type" : "_ZTIi"
    },
    {
     "referenced_type" : "_ZTIi"
    }
   ],
   "return_type" : "_ZTIi",
   "source_file" : "external/libyuv/files/include/libyuv/planar_functions.h"
  },
  {
   "function_name" : "libyuv::RAWToRGB24",
   "linker_set_key" : "RAWToRGB24",
   "parameters" :
   [
    {
     "referenced_type" : "_ZTIPKh"
    },
    {
     "referenced_type" : "_ZTIi"
    },
    {
     "referenced_type" : "_ZTIPh"
    },
    {
     "referenced_type" : "_ZTIi"
    },
    {
     "referenced_type" : "_ZTIi"
    },
    {
     "referenced_type" : "_ZTIi"
    }
   ],
   "return_type" : "_ZTIi",
   "source_file" : "external/libyuv/files/include/libyuv/planar_functions.h"
  },
  {
   "function_name" : "libyuv::RGBColorMatrix",
   "linker_set_key" : "RGBColorMatrix",
   "parameters" :
   [
    {
     "referenced_type" : "_ZTIPh"
    },
    {
     "referenced_type" : "_ZTIi"
    },
    {
     "referenced_type" : "_ZTIPKa"
    },
    {
     "referenced_type" : "_ZTIi"
    },
    {
     "referenced_type" : "_ZTIi"
    },
    {
     "referenced_type" : "_ZTIi"
    },
    {
     "referenced_type" : "_ZTIi"
    }
   ],
   "return_type" : "_ZTIi",
   "source_file" : "external/libyuv/files/include/libyuv/planar_functions.h"
  },
  {
   "function_name" : "libyuv::RGBColorTable",
   "linker_set_key" : "RGBColorTable",
   "parameters" :
   [
    {
     "referenced_type" : "_ZTIPh"
    },
    {
     "referenced_type" : "_ZTIi"
    },
    {
     "referenced_type" : "_ZTIPKh"
    },
    {
     "referenced_type" : "_ZTIi"
    },
    {
     "referenced_type" : "_ZTIi"
    },
    {
     "referenced_type" : "_ZTIi"
    },
    {
     "referenced_type" : "_ZTIi"
    }
   ],
   "return_type" : "_ZTIi",
   "source_file" : "external/libyuv/files/include/libyuv/planar_functions.h"
  },
  {
   "function_name" : "libyuv::SetPlane",
   "linker_set_key" : "SetPlane",
   "parameters" :
   [
    {
     "referenced_type" : "_ZTIPh"
    },
    {
     "referenced_type" : "_ZTIi"
    },
    {
     "referenced_type" : "_ZTIi"
    },
    {
     "referenced_type" : "_ZTIi"
    },
    {
     "referenced_type" : "_ZTIj"
    }
   ],
   "return_type" : "_ZTIv",
   "source_file" : "external/libyuv/files/include/libyuv/planar_functions.h"
  },
  {
   "function_name" : "libyuv::SplitRGBPlane",
   "linker_set_key" : "SplitRGBPlane",
   "parameters" :
   [
    {
     "referenced_type" : "_ZTIPKh"
    },
    {
     "referenced_type" : "_ZTIi"
    },
    {
     "referenced_type" : "_ZTIPh"
    },
    {
     "referenced_type" : "_ZTIi"
    },
    {
     "referenced_type" : "_ZTIPh"
    },
    {
     "referenced_type" : "_ZTIi"
    },
    {
     "referenced_type" : "_ZTIPh"
    },
    {
     "referenced_type" : "_ZTIi"
    },
    {
     "referenced_type" : "_ZTIi"
    },
    {
     "referenced_type" : "_ZTIi"
    }
   ],
   "return_type" : "_ZTIv",
   "source_file" : "external/libyuv/files/include/libyuv/planar_functions.h"
  },
  {
   "function_name" : "libyuv::SplitUVPlane",
   "linker_set_key" : "SplitUVPlane",
   "parameters" :
   [
    {
     "referenced_type" : "_ZTIPKh"
    },
    {
     "referenced_type" : "_ZTIi"
    },
    {
     "referenced_type" : "_ZTIPh"
    },
    {
     "referenced_type" : "_ZTIi"
    },
    {
     "referenced_type" : "_ZTIPh"
    },
    {
     "referenced_type" : "_ZTIi"
    },
    {
     "referenced_type" : "_ZTIi"
    },
    {
     "referenced_type" : "_ZTIi"
    }
   ],
   "return_type" : "_ZTIv",
   "source_file" : "external/libyuv/files/include/libyuv/planar_functions.h"
  },
  {
   "function_name" : "libyuv::UYVYToI422",
   "linker_set_key" : "UYVYToI422",
   "parameters" :
   [
    {
     "referenced_type" : "_ZTIPKh"
    },
    {
     "referenced_type" : "_ZTIi"
    },
    {
     "referenced_type" : "_ZTIPh"
    },
    {
     "referenced_type" : "_ZTIi"
    },
    {
     "referenced_type" : "_ZTIPh"
    },
    {
     "referenced_type" : "_ZTIi"
    },
    {
     "referenced_type" : "_ZTIPh"
    },
    {
     "referenced_type" : "_ZTIi"
    },
    {
     "referenced_type" : "_ZTIi"
    },
    {
     "referenced_type" : "_ZTIi"
    }
   ],
   "return_type" : "_ZTIi",
   "source_file" : "external/libyuv/files/include/libyuv/planar_functions.h"
  },
  {
   "function_name" : "libyuv::UYVYToNV12",
   "linker_set_key" : "UYVYToNV12",
   "parameters" :
   [
    {
     "referenced_type" : "_ZTIPKh"
    },
    {
     "referenced_type" : "_ZTIi"
    },
    {
     "referenced_type" : "_ZTIPh"
    },
    {
     "referenced_type" : "_ZTIi"
    },
    {
     "referenced_type" : "_ZTIPh"
    },
    {
     "referenced_type" : "_ZTIi"
    },
    {
     "referenced_type" : "_ZTIi"
    },
    {
     "referenced_type" : "_ZTIi"
    }
   ],
   "return_type" : "_ZTIi",
   "source_file" : "external/libyuv/files/include/libyuv/planar_functions.h"
  },
  {
   "function_name" : "libyuv::YUY2ToI422",
   "linker_set_key" : "YUY2ToI422",
   "parameters" :
   [
    {
     "referenced_type" : "_ZTIPKh"
    },
    {
     "referenced_type" : "_ZTIi"
    },
    {
     "referenced_type" : "_ZTIPh"
    },
    {
     "referenced_type" : "_ZTIi"
    },
    {
     "referenced_type" : "_ZTIPh"
    },
    {
     "referenced_type" : "_ZTIi"
    },
    {
     "referenced_type" : "_ZTIPh"
    },
    {
     "referenced_type" : "_ZTIi"
    },
    {
     "referenced_type" : "_ZTIi"
    },
    {
     "referenced_type" : "_ZTIi"
    }
   ],
   "return_type" : "_ZTIi",
   "source_file" : "external/libyuv/files/include/libyuv/planar_functions.h"
  },
  {
   "function_name" : "libyuv::YUY2ToNV12",
   "linker_set_key" : "YUY2ToNV12",
   "parameters" :
   [
    {
     "referenced_type" : "_ZTIPKh"
    },
    {
     "referenced_type" : "_ZTIi"
    },
    {
     "referenced_type" : "_ZTIPh"
    },
    {
     "referenced_type" : "_ZTIi"
    },
    {
     "referenced_type" : "_ZTIPh"
    },
    {
     "referenced_type" : "_ZTIi"
    },
    {
     "referenced_type" : "_ZTIi"
    },
    {
     "referenced_type" : "_ZTIi"
    }
   ],
   "return_type" : "_ZTIi",
   "source_file" : "external/libyuv/files/include/libyuv/planar_functions.h"
  },
  {
   "function_name" : "libyuv::YUY2ToY",
   "linker_set_key" : "YUY2ToY",
   "parameters" :
   [
    {
     "referenced_type" : "_ZTIPKh"
    },
    {
     "referenced_type" : "_ZTIi"
    },
    {
     "referenced_type" : "_ZTIPh"
    },
    {
     "referenced_type" : "_ZTIi"
    },
    {
     "referenced_type" : "_ZTIi"
    },
    {
     "referenced_type" : "_ZTIi"
    }
   ],
   "return_type" : "_ZTIi",
   "source_file" : "external/libyuv/files/include/libyuv/planar_functions.h"
  }
 ],
 "global_vars" :
 [
  {
   "linker_set_key" : "_ZN6libyuv12MJpegDecoder14kColorSpaceRgbE",
   "name" : "libyuv::MJpegDecoder::kColorSpaceRgb",
   "referenced_type" : "_ZTIKi",
   "source_file" : "external/libyuv/files/include/libyuv/mjpeg_decoder.h"
  },
  {
   "linker_set_key" : "_ZN6libyuv12MJpegDecoder15kColorSpaceCMYKE",
   "name" : "libyuv::MJpegDecoder::kColorSpaceCMYK",
   "referenced_type" : "_ZTIKi",
   "source_file" : "external/libyuv/files/include/libyuv/mjpeg_decoder.h"
  },
  {
   "linker_set_key" : "_ZN6libyuv12MJpegDecoder15kColorSpaceYCCKE",
   "name" : "libyuv::MJpegDecoder::kColorSpaceYCCK",
   "referenced_type" : "_ZTIKi",
   "source_file" : "external/libyuv/files/include/libyuv/mjpeg_decoder.h"
  },
  {
   "linker_set_key" : "_ZN6libyuv12MJpegDecoder16kColorSpaceYCbCrE",
   "name" : "libyuv::MJpegDecoder::kColorSpaceYCbCr",
   "referenced_type" : "_ZTIKi",
   "source_file" : "external/libyuv/files/include/libyuv/mjpeg_decoder.h"
  },
  {
   "linker_set_key" : "_ZN6libyuv12MJpegDecoder18kColorSpaceUnknownE",
   "name" : "libyuv::MJpegDecoder::kColorSpaceUnknown",
   "referenced_type" : "_ZTIKi",
   "source_file" : "external/libyuv/files/include/libyuv/mjpeg_decoder.h"
  },
  {
   "linker_set_key" : "_ZN6libyuv12MJpegDecoder20kColorSpaceGrayscaleE",
   "name" : "libyuv::MJpegDecoder::kColorSpaceGrayscale",
   "referenced_type" : "_ZTIKi",
   "source_file" : "external/libyuv/files/include/libyuv/mjpeg_decoder.h"
  },
  {
   "linker_set_key" : "_ZN6libyuvL10kCpuHasARME",
   "name" : "libyuv::kCpuHasARM",
   "referenced_type" : "_ZTIKi",
   "source_file" : "external/libyuv/files/include/libyuv/cpu_id.h"
  },
  {
   "linker_set_key" : "_ZN6libyuvL10kCpuHasAVXE",
   "name" : "libyuv::kCpuHasAVX",
   "referenced_type" : "_ZTIKi",
   "source_file" : "external/libyuv/files/include/libyuv/cpu_id.h"
  },
  {
   "linker_set_key" : "_ZN6libyuvL10kCpuHasMMIE",
   "name" : "libyuv::kCpuHasMMI",
   "referenced_type" : "_ZTIKi",
   "source_file" : "external/libyuv/files/include/libyuv/cpu_id.h"
  },
  {
   "linker_set_key" : "_ZN6libyuvL10kCpuHasMSAE",
   "name" : "libyuv::kCpuHasMSA",
   "referenced_type" : "_ZTIKi",
   "source_file" : "external/libyuv/files/include/libyuv/cpu_id.h"
  },
  {
   "linker_set_key" : "_ZN6libyuvL10kCpuHasX86E",
   "name" : "libyuv::kCpuHasX86",
   "referenced_type" : "_ZTIKi",
   "source_file" : "external/libyuv/files/include/libyuv/cpu_id.h"
  },
  {
   "linker_set_key" : "_ZN6libyuvL11kCpuHasAVX2E",
   "name" : "libyuv::kCpuHasAVX2",
   "referenced_type" : "_ZTIKi",
   "source_file" : "external/libyuv/files/include/libyuv/cpu_id.h"
  },
  {
   "linker_set_key" : "_ZN6libyuvL11kCpuHasERMSE",
   "name" : "libyuv::kCpuHasERMS",
   "referenced_type" : "_ZTIKi",
   "source_file" : "external/libyuv/files/include/libyuv/cpu_id.h"
  },
  {
   "linker_set_key" : "_ZN6libyuvL11kCpuHasF16CE",
   "name" : "libyuv::kCpuHasF16C",
   "referenced_type" : "_ZTIKi",
   "source_file" : "external/libyuv/files/include/libyuv/cpu_id.h"
  },
  {
   "linker_set_key" : "_ZN6libyuvL11kCpuHasFMA3E",
   "name" : "libyuv::kCpuHasFMA3",
   "referenced_type" : "_ZTIKi",
   "source_file" : "external/libyuv/files/include/libyuv/cpu_id.h"
  },
  {
   "linker_set_key" : "_ZN6libyuvL11kCpuHasGFNIE",
   "name" : "libyuv::kCpuHasGFNI",
   "referenced_type" : "_ZTIKi",
   "source_file" : "external/libyuv/files/include/libyuv/cpu_id.h"
  },
  {
   "linker_set_key" : "_ZN6libyuvL11kCpuHasMIPSE",
   "name" : "libyuv::kCpuHasMIPS",
   "referenced_type" : "_ZTIKi",
   "source_file" : "external/libyuv/files/include/libyuv/cpu_id.h"
  },
  {
   "linker_set_key" : "_ZN6libyuvL11kCpuHasNEONE",
   "name" : "libyuv::kCpuHasNEON",
   "referenced_type" : "_ZTIKi",
   "source_file" : "external/libyuv/files/include/libyuv/cpu_id.h"
  },
  {
   "linker_set_key" : "_ZN6libyuvL11kCpuHasSSE2E",
   "name" : "libyuv::kCpuHasSSE2",
   "referenced_type" : "_ZTIKi",
   "source_file" : "external/libyuv/files/include/libyuv/cpu_id.h"
  },
  {
   "linker_set_key" : "_ZN6libyuvL12kCpuHasSSE41E",
   "name" : "libyuv::kCpuHasSSE41",
   "referenced_type" : "_ZTIKi",
   "source_file" : "external/libyuv/files/include/libyuv/cpu_id.h"
  },
  {
   "linker_set_key" : "_ZN6libyuvL12kCpuHasSSE42E",
   "name" : "libyuv::kCpuHasSSE42",
   "referenced_type" : "_ZTIKi",
   "source_file" : "external/libyuv/files/include/libyuv/cpu_id.h"
  },
  {
   "linker_set_key" : "_ZN6libyuvL12kCpuHasSSSE3E",
   "name" : "libyuv::kCpuHasSSSE3",
   "referenced_type" : "_ZTIKi",
   "source_file" : "external/libyuv/files/include/libyuv/cpu_id.h"
  },
  {
   "linker_set_key" : "_ZN6libyuvL15kCpuHasAVX512BWE",
   "name" : "libyuv::kCpuHasAVX512BW",
   "referenced_type" : "_ZTIKi",
   "source_file" : "external/libyuv/files/include/libyuv/cpu_id.h"
  },
  {
   "linker_set_key" : "_ZN6libyuvL15kCpuHasAVX512VLE",
   "name" : "libyuv::kCpuHasAVX512VL",
   "referenced_type" : "_ZTIKi",
   "source_file" : "external/libyuv/files/include/libyuv/cpu_id.h"
  },
  {
   "linker_set_key" : "_ZN6libyuvL15kCpuInitializedE",
   "name" : "libyuv::kCpuInitialized",
   "referenced_type" : "_ZTIKi",
   "source_file" : "external/libyuv/files/include/libyuv/cpu_id.h"
  },
  {
   "linker_set_key" : "_ZN6libyuvL16kUnknownDataSizeE",
   "name" : "libyuv::kUnknownDataSize",
   "referenced_type" : "_ZTIKj",
   "source_file" : "external/libyuv/files/include/libyuv/mjpeg_decoder.h"
  },
  {
   "linker_set_key" : "_ZN6libyuvL17kCpuHasAVX512VBMIE",
   "name" : "libyuv::kCpuHasAVX512VBMI",
   "referenced_type" : "_ZTIKi",
   "source_file" : "external/libyuv/files/include/libyuv/cpu_id.h"
  },
  {
   "linker_set_key" : "_ZN6libyuvL18kCpuHasAVX512VBMI2E",
   "name" : "libyuv::kCpuHasAVX512VBMI2",
   "referenced_type" : "_ZTIKi",
   "source_file" : "external/libyuv/files/include/libyuv/cpu_id.h"
  },
  {
   "linker_set_key" : "_ZN6libyuvL20kCpuHasAVX512VBITALGE",
   "name" : "libyuv::kCpuHasAVX512VBITALG",
   "referenced_type" : "_ZTIKi",
   "source_file" : "external/libyuv/files/include/libyuv/cpu_id.h"
  },
  {
   "linker_set_key" : "_ZN6libyuvL22kCpuHasAVX512VPOPCNTDQE",
   "name" : "libyuv::kCpuHasAVX512VPOPCNTDQ",
   "referenced_type" : "_ZTIKi",
   "source_file" : "external/libyuv/files/include/libyuv/cpu_id.h"
  },
  {
   "linker_set_key" : "cpu_info_",
   "name" : "libyuv::cpu_info_",
   "referenced_type" : "_ZTIi",
   "source_file" : "external/libyuv/files/include/libyuv/cpu_id.h"
  },
  {
   "linker_set_key" : "fixed_invtbl8",
   "name" : "libyuv::fixed_invtbl8",
   "referenced_type" : "_ZTIA256_Kj",
   "source_file" : "external/libyuv/files/include/libyuv/row.h"
  },
  {
   "linker_set_key" : "kYuvH709Constants",
   "name" : "libyuv::kYuvH709Constants",
   "referenced_type" : "_ZTIKN6libyuv12YuvConstantsE",
   "source_file" : "external/libyuv/files/include/libyuv/row.h"
  },
  {
   "linker_set_key" : "kYuvI601Constants",
   "name" : "libyuv::kYuvI601Constants",
   "referenced_type" : "_ZTIKN6libyuv12YuvConstantsE",
   "source_file" : "external/libyuv/files/include/libyuv/row.h"
  },
  {
   "linker_set_key" : "kYuvJPEGConstants",
   "name" : "libyuv::kYuvJPEGConstants",
   "referenced_type" : "_ZTIKN6libyuv12YuvConstantsE",
   "source_file" : "external/libyuv/files/include/libyuv/row.h"
  },
  {
   "linker_set_key" : "kYvuH709Constants",
   "name" : "libyuv::kYvuH709Constants",
   "referenced_type" : "_ZTIKN6libyuv12YuvConstantsE",
   "source_file" : "external/libyuv/files/include/libyuv/row.h"
  },
  {
   "linker_set_key" : "kYvuI601Constants",
   "name" : "libyuv::kYvuI601Constants",
   "referenced_type" : "_ZTIKN6libyuv12YuvConstantsE",
   "source_file" : "external/libyuv/files/include/libyuv/row.h"
  },
  {
   "linker_set_key" : "kYvuJPEGConstants",
   "name" : "libyuv::kYvuJPEGConstants",
   "referenced_type" : "_ZTIKN6libyuv12YuvConstantsE",
   "source_file" : "external/libyuv/files/include/libyuv/row.h"
  }
 ],
 "lvalue_reference_types" : [],
 "pointer_types" :
 [
  {
   "alignment" : 4,
   "linker_set_key" : "_ZTIP15jpeg_source_mgr",
   "name" : "jpeg_source_mgr *",
   "referenced_type" : "_ZTI15jpeg_source_mgr",
   "self_type" : "_ZTIP15jpeg_source_mgr",
   "size" : 4,
   "source_file" : "external/libyuv/files/include/libyuv/mjpeg_decoder.h"
  },
  {
   "alignment" : 4,
   "linker_set_key" : "_ZTIP22jpeg_decompress_struct",
   "name" : "jpeg_decompress_struct *",
   "referenced_type" : "_ZTI22jpeg_decompress_struct",
   "self_type" : "_ZTIP22jpeg_decompress_struct",
   "size" : 4,
   "source_file" : "external/libyuv/files/include/libyuv/mjpeg_decoder.h"
  },
  {
   "alignment" : 4,
   "linker_set_key" : "_ZTIPFvPKhS0_PhiE",
   "name" : "void (*)(const unsigned char *, const unsigned char *, unsigned char *, int)",
   "referenced_type" : "_ZTIFvPKhS0_PhiE",
   "self_type" : "_ZTIPFvPKhS0_PhiE",
   "size" : 4,
   "source_file" : "external/libyuv/files/include/libyuv/planar_functions.h"
  },
  {
   "alignment" : 4,
   "linker_set_key" : "_ZTIPKa",
   "name" : "const signed char *",
   "referenced_type" : "_ZTIKa",
   "self_type" : "_ZTIPKa",
   "size" : 4,
   "source_file" : "external/libyuv/files/include/libyuv/planar_functions.h"
  },
  {
   "alignment" : 4,
   "linker_set_key" : "_ZTIPKf",
   "name" : "const float *",
   "referenced_type" : "_ZTIKf",
   "self_type" : "_ZTIPKf",
   "size" : 4,
   "source_file" : "external/libyuv/files/include/libyuv/planar_functions.h"
  },
  {
   "alignment" : 4,
   "linker_set_key" : "_ZTIPKh",
   "name" : "const unsigned char *",
   "referenced_type" : "_ZTIKh",
   "self_type" : "_ZTIPKh",
   "size" : 4,
   "source_file" : "external/libyuv/files/include/libyuv/planar_functions.h"
  },
  {
   "alignment" : 4,
   "linker_set_key" : "_ZTIPKt",
   "name" : "const unsigned short *",
   "referenced_type" : "_ZTIKt",
   "self_type" : "_ZTIPKt",
   "size" : 4,
   "source_file" : "external/libyuv/files/include/libyuv/planar_functions.h"
  },
  {
   "alignment" : 4,
   "linker_set_key" : "_ZTIPN6libyuv14SetJmpErrorMgrE",
   "name" : "libyuv::SetJmpErrorMgr *",
   "referenced_type" : "_ZTIN6libyuv14SetJmpErrorMgrE",
   "self_type" : "_ZTIPN6libyuv14SetJmpErrorMgrE",
   "size" : 4,
   "source_file" : "external/libyuv/files/include/libyuv/mjpeg_decoder.h"
  },
  {
   "alignment" : 4,
   "linker_set_key" : "_ZTIPN6libyuv6BufferE",
   "name" : "libyuv::Buffer *",
   "referenced_type" : "_ZTIN6libyuv6BufferE",
   "self_type" : "_ZTIPN6libyuv6BufferE",
   "size" : 4,
   "source_file" : "external/libyuv/files/include/libyuv/mjpeg_decoder.h"
  },
  {
   "alignment" : 4,
   "linker_set_key" : "_ZTIPPPh",
   "name" : "unsigned char ***",
   "referenced_type" : "_ZTIPPh",
   "self_type" : "_ZTIPPPh",
   "size" : 4,
   "source_file" : "external/libyuv/files/include/libyuv/mjpeg_decoder.h"
  },
  {
   "alignment" : 4,
   "linker_set_key" : "_ZTIPPh",
   "name" : "unsigned char **",
   "referenced_type" : "_ZTIPh",
   "self_type" : "_ZTIPPh",
   "size" : 4,
   "source_file" : "external/libyuv/files/include/libyuv/mjpeg_decoder.h"
  },
  {
   "alignment" : 4,
   "linker_set_key" : "_ZTIPf",
   "name" : "float *",
   "referenced_type" : "_ZTIf",
   "self_type" : "_ZTIPf",
   "size" : 4,
   "source_file" : "external/libyuv/files/include/libyuv/planar_functions.h"
  },
  {
   "alignment" : 4,
   "linker_set_key" : "_ZTIPh",
   "name" : "unsigned char *",
   "referenced_type" : "_ZTIh",
   "self_type" : "_ZTIPh",
   "size" : 4,
   "source_file" : "external/libyuv/files/include/libyuv/planar_functions.h"
  },
  {
   "alignment" : 4,
   "linker_set_key" : "_ZTIPi",
   "name" : "int *",
   "referenced_type" : "_ZTIi",
   "self_type" : "_ZTIPi",
   "size" : 4,
   "source_file" : "external/libyuv/files/include/libyuv/planar_functions.h"
  },
  {
   "alignment" : 4,
   "linker_set_key" : "_ZTIPt",
   "name" : "unsigned short *",
   "referenced_type" : "_ZTIt",
   "self_type" : "_ZTIPt",
   "size" : 4,
   "source_file" : "external/libyuv/files/include/libyuv/planar_functions.h"
  }
 ],
 "qualified_types" :
 [
  {
   "alignment" : 4,
   "is_const" : true,
   "linker_set_key" : "_ZTIA256_Kj",
   "name" : "unsigned int const[256]",
   "referenced_type" : "_ZTIA256_j",
   "self_type" : "_ZTIA256_Kj",
   "size" : 1024,
   "source_file" : "external/libyuv/files/include/libyuv/row.h"
  },
  {
   "alignment" : 16,
   "is_const" : true,
   "linker_set_key" : "_ZTIKN6libyuv12YuvConstantsE",
   "name" : "const libyuv::YuvConstants",
   "referenced_type" : "_ZTIN6libyuv12YuvConstantsE",
   "self_type" : "_ZTIKN6libyuv12YuvConstantsE",
   "size" : 64,
   "source_file" : "external/libyuv/files/include/libyuv/row.h"
  },
  {
   "alignment" : 1,
   "is_const" : true,
   "linker_set_key" : "_ZTIKa",
   "name" : "const signed char",
   "referenced_type" : "_ZTIa",
   "self_type" : "_ZTIKa",
   "size" : 1,
   "source_file" : "external/libyuv/files/include/libyuv/planar_functions.h"
  },
  {
   "alignment" : 4,
   "is_const" : true,
   "linker_set_key" : "_ZTIKf",
   "name" : "const float",
   "referenced_type" : "_ZTIf",
   "self_type" : "_ZTIKf",
   "size" : 4,
   "source_file" : "external/libyuv/files/include/libyuv/planar_functions.h"
  },
  {
   "alignment" : 1,
   "is_const" : true,
   "linker_set_key" : "_ZTIKh",
   "name" : "const unsigned char",
   "referenced_type" : "_ZTIh",
   "self_type" : "_ZTIKh",
   "size" : 1,
   "source_file" : "external/libyuv/files/include/libyuv/planar_functions.h"
  },
  {
   "alignment" : 4,
   "is_const" : true,
   "linker_set_key" : "_ZTIKi",
   "name" : "const int",
   "referenced_type" : "_ZTIi",
   "self_type" : "_ZTIKi",
   "size" : 4,
   "source_file" : "external/libyuv/files/include/libyuv/cpu_id.h"
  },
  {
   "alignment" : 4,
   "is_const" : true,
   "linker_set_key" : "_ZTIKj",
   "name" : "const unsigned int",
   "referenced_type" : "_ZTIj",
   "self_type" : "_ZTIKj",
   "size" : 4,
   "source_file" : "external/libyuv/files/include/libyuv/mjpeg_decoder.h"
  },
  {
   "alignment" : 2,
   "is_const" : true,
   "linker_set_key" : "_ZTIKt",
   "name" : "const unsigned short",
   "referenced_type" : "_ZTIt",
   "self_type" : "_ZTIKt",
   "size" : 2,
   "source_file" : "external/libyuv/files/include/libyuv/planar_functions.h"
  }
 ],
 "record_types" :
 [
  {
   "alignment" : 4,
   "fields" :
   [
    {
     "field_name" : "buffers",
     "referenced_type" : "_ZTIPN6libyuv6BufferE"
    },
    {
     "field_name" : "len",
     "field_offset" : 32,
     "referenced_type" : "_ZTIi"
    },
    {
     "field_name" : "pos",
     "field_offset" : 64,
     "referenced_type" : "_ZTIi"
    }
   ],
   "linker_set_key" : "_ZTIN6libyuv12BufferVectorE",
   "name" : "libyuv::BufferVector",
   "referenced_type" : "_ZTIN6libyuv12BufferVectorE",
   "self_type" : "_ZTIN6libyuv12BufferVectorE",
   "size" : 12,
   "source_file" : "external/libyuv/files/include/libyuv/mjpeg_decoder.h"
  },
  {
   "alignment" : 4,
   "fields" :
   [
    {
     "access" : "private",
     "field_name" : "buf_",
     "referenced_type" : "_ZTIN6libyuv6BufferE"
    },
    {
     "access" : "private",
     "field_name" : "buf_vec_",
     "field_offset" : 64,
     "referenced_type" : "_ZTIN6libyuv12BufferVectorE"
    },
    {
     "access" : "private",
     "field_name" : "decompress_struct_",
     "field_offset" : 160,
     "referenced_type" : "_ZTIP22jpeg_decompress_struct"
    },
    {
     "access" : "private",
     "field_name" : "source_mgr_",
     "field_offset" : 192,
     "referenced_type" : "_ZTIP15jpeg_source_mgr"
    },
    {
     "access" : "private",
     "field_name" : "error_mgr_",
     "field_offset" : 224,
     "referenced_type" : "_ZTIPN6libyuv14SetJmpErrorMgrE"
    },
    {
     "access" : "private",
     "field_name" : "has_scanline_padding_",
     "field_offset" : 256,
     "referenced_type" : "_ZTIi"
    },
    {
     "access" : "private",
     "field_name" : "num_outbufs_",
     "field_offset" : 288,
     "referenced_type" : "_ZTIi"
    },
    {
     "access" : "private",
     "field_name" : "scanlines_",
     "field_offset" : 320,
     "referenced_type" : "_ZTIPPPh"
    },
    {
     "access" : "private",
     "field_name" : "scanlines_sizes_",
     "field_offset" : 352,
     "referenced_type" : "_ZTIPi"
    },
    {
     "access" : "private",
     "field_name" : "databuf_",
     "field_offset" : 384,
     "referenced_type" : "_ZTIPPh"
    },
    {
     "access" : "private",
     "field_name" : "databuf_strides_",
     "field_offset" : 416,
     "referenced_type" : "_ZTIPi"
    }
   ],
   "linker_set_key" : "_ZTIN6libyuv12MJpegDecoderE",
   "name" : "libyuv::MJpegDecoder",
   "record_kind" : "class",
   "referenced_type" : "_ZTIN6libyuv12MJpegDecoderE",
   "self_type" : "_ZTIN6libyuv12MJpegDecoderE",
   "size" : 56,
   "source_file" : "external/libyuv/files/include/libyuv/mjpeg_decoder.h"
  },
  {
   "alignment" : 16,
   "fields" :
   [
    {
     "field_name" : "kUVToRB",
     "referenced_type" : "_ZTIDv16_h"
    },
    {
     "field_name" : "kUVToG",
     "field_offset" : 128,
     "referenced_type" : "_ZTIDv16_h"
    },
    {
     "field_name" : "kUVBiasBGR",
     "field_offset" : 256,
     "referenced_type" : "_ZTIDv8_s"
    },
    {
     "field_name" : "kYToRgb",
     "field_offset" : 384,
     "referenced_type" : "_ZTIDv4_i"
    }
   ],
   "linker_set_key" : "_ZTIN6libyuv12YuvConstantsE",
   "name" : "libyuv::YuvConstants",
   "referenced_type" : "_ZTIN6libyuv12YuvConstantsE",
   "self_type" : "_ZTIN6libyuv12YuvConstantsE",
   "size" : 64,
   "source_file" : "external/libyuv/files/include/libyuv/row.h"
  },
  {
   "alignment" : 4,
   "fields" :
   [
    {
     "field_name" : "data",
     "referenced_type" : "_ZTIPKh"
    },
    {
     "field_name" : "len",
     "field_offset" : 32,
     "referenced_type" : "_ZTIi"
    }
   ],
   "linker_set_key" : "_ZTIN6libyuv6BufferE",
   "name" : "libyuv::Buffer",
   "referenced_type" : "_ZTIN6libyuv6BufferE",
   "self_type" : "_ZTIN6libyuv6BufferE",
   "size" : 8,
   "source_file" : "external/libyuv/files/include/libyuv/mjpeg_decoder.h"
  }
 ],
 "rvalue_reference_types" : []
}
