{
 "array_types" :
 [
  {
   "alignment" : 8,
   "linker_set_key" : "_ZTIA1_N6google8protobuf8internal9ArenaImpl11CleanupNodeE",
   "name" : "google::protobuf::internal::ArenaImpl::CleanupNode [1]",
   "referenced_type" : "_ZTIN6google8protobuf8internal9ArenaImpl11CleanupNodeE",
   "self_type" : "_ZTIA1_N6google8protobuf8internal9ArenaImpl11CleanupNodeE",
   "size" : 16,
   "source_file" : "external/protobuf/src/google/protobuf/arena_impl.h"
  }
 ],
 "builtin_types" :
 [
  {
   "alignment" : 1,
   "is_integral" : true,
   "is_unsigned" : true,
   "linker_set_key" : "_ZTIb",
   "name" : "bool",
   "referenced_type" : "_ZTIb",
   "self_type" : "_ZTIb",
   "size" : 1
  },
  {
   "alignment" : 1,
   "is_integral" : true,
   "is_unsigned" : true,
   "linker_set_key" : "_ZTIc",
   "name" : "char",
   "referenced_type" : "_ZTIc",
   "self_type" : "_ZTIc",
   "size" : 1
  },
  {
   "alignment" : 4,
   "is_integral" : true,
   "linker_set_key" : "_ZTIi",
   "name" : "int",
   "referenced_type" : "_ZTIi",
   "self_type" : "_ZTIi",
   "size" : 4
  },
  {
   "alignment" : 4,
   "is_integral" : true,
   "is_unsigned" : true,
   "linker_set_key" : "_ZTIj",
   "name" : "unsigned int",
   "referenced_type" : "_ZTIj",
   "self_type" : "_ZTIj",
   "size" : 4
  },
  {
   "alignment" : 8,
   "is_integral" : true,
   "linker_set_key" : "_ZTIl",
   "name" : "long",
   "referenced_type" : "_ZTIl",
   "self_type" : "_ZTIl",
   "size" : 8
  },
  {
   "alignment" : 8,
   "is_integral" : true,
   "is_unsigned" : true,
   "linker_set_key" : "_ZTIm",
   "name" : "unsigned long",
   "referenced_type" : "_ZTIm",
   "self_type" : "_ZTIm",
   "size" : 8
  },
  {
   "alignment" : 2,
   "is_integral" : true,
   "is_unsigned" : true,
   "linker_set_key" : "_ZTIt",
   "name" : "unsigned short",
   "referenced_type" : "_ZTIt",
   "self_type" : "_ZTIt",
   "size" : 2
  },
  {
   "linker_set_key" : "_ZTIv",
   "name" : "void",
   "referenced_type" : "_ZTIv",
   "self_type" : "_ZTIv"
  }
 ],
 "elf_functions" : [],
 "elf_objects" : [],
 "enum_types" :
 [
  {
   "alignment" : 4,
   "enum_fields" :
   [
    {
     "enum_field_value" : 0,
     "name" : "google::protobuf::LOGLEVEL_INFO"
    },
    {
     "enum_field_value" : 1,
     "name" : "google::protobuf::LOGLEVEL_WARNING"
    },
    {
     "enum_field_value" : 2,
     "name" : "google::protobuf::LOGLEVEL_ERROR"
    },
    {
     "enum_field_value" : 3,
     "name" : "google::protobuf::LOGLEVEL_FATAL"
    },
    {
     "enum_field_value" : 2,
     "name" : "google::protobuf::LOGLEVEL_DFATAL"
    }
   ],
   "linker_set_key" : "_ZTIN6google8protobuf8LogLevelE",
   "name" : "google::protobuf::LogLevel",
   "referenced_type" : "_ZTIN6google8protobuf8LogLevelE",
   "self_type" : "_ZTIN6google8protobuf8LogLevelE",
   "size" : 4,
   "source_file" : "external/protobuf/src/google/protobuf/stubs/logging.h",
   "underlying_type" : "_ZTIj"
  }
 ],
 "function_types" :
 [
  {
   "alignment" : 4,
   "linker_set_key" : "_ZTIFPvPN6google8protobuf5ArenaEE",
   "name" : "void *(google::protobuf::Arena *)",
   "parameters" :
   [
    {
     "referenced_type" : "_ZTIPN6google8protobuf5ArenaE"
    }
   ],
   "referenced_type" : "_ZTIFPvPN6google8protobuf5ArenaEE",
   "return_type" : "_ZTIPv",
   "self_type" : "_ZTIFPvPN6google8protobuf5ArenaEE",
   "source_file" : "external/protobuf/src/google/protobuf/arena.h"
  },
  {
   "alignment" : 4,
   "linker_set_key" : "_ZTIFPvmE",
   "name" : "void *(unsigned long)",
   "parameters" :
   [
    {
     "referenced_type" : "_ZTIm"
    }
   ],
   "referenced_type" : "_ZTIFPvmE",
   "return_type" : "_ZTIPv",
   "self_type" : "_ZTIFPvmE",
   "source_file" : "external/protobuf/src/google/protobuf/arena_impl.h"
  },
  {
   "alignment" : 4,
   "linker_set_key" : "_ZTIFvPKSt9type_infomPvE",
   "name" : "void (const std::type_info *, unsigned long, void *)",
   "parameters" :
   [
    {
     "referenced_type" : "_ZTIPKSt9type_info"
    },
    {
     "referenced_type" : "_ZTIm"
    },
    {
     "referenced_type" : "_ZTIPv"
    }
   ],
   "referenced_type" : "_ZTIFvPKSt9type_infomPvE",
   "return_type" : "_ZTIv",
   "self_type" : "_ZTIFvPKSt9type_infomPvE",
   "source_file" : "external/protobuf/src/google/protobuf/arena.h"
  },
  {
   "alignment" : 4,
   "linker_set_key" : "_ZTIFvPN6google8protobuf5ArenaEPvmE",
   "name" : "void (google::protobuf::Arena *, void *, unsigned long)",
   "parameters" :
   [
    {
     "referenced_type" : "_ZTIPN6google8protobuf5ArenaE"
    },
    {
     "referenced_type" : "_ZTIPv"
    },
    {
     "referenced_type" : "_ZTIm"
    }
   ],
   "referenced_type" : "_ZTIFvPN6google8protobuf5ArenaEPvmE",
   "return_type" : "_ZTIv",
   "self_type" : "_ZTIFvPN6google8protobuf5ArenaEPvmE",
   "source_file" : "external/protobuf/src/google/protobuf/arena.h"
  },
  {
   "alignment" : 4,
   "linker_set_key" : "_ZTIFvPvE",
   "name" : "void (void *)",
   "parameters" :
   [
    {
     "referenced_type" : "_ZTIPv"
    }
   ],
   "referenced_type" : "_ZTIFvPvE",
   "return_type" : "_ZTIv",
   "self_type" : "_ZTIFvPvE",
   "source_file" : "external/protobuf/src/google/protobuf/arena_impl.h"
  },
  {
   "alignment" : 4,
   "linker_set_key" : "_ZTIFvPvmE",
   "name" : "void (void *, unsigned long)",
   "parameters" :
   [
    {
     "referenced_type" : "_ZTIPv"
    },
    {
     "referenced_type" : "_ZTIm"
    }
   ],
   "referenced_type" : "_ZTIFvPvmE",
   "return_type" : "_ZTIv",
   "self_type" : "_ZTIFvPvmE",
   "source_file" : "external/protobuf/src/google/protobuf/arena_impl.h"
  }
 ],
 "functions" :
 [
  {
   "function_name" : "google::protobuf::ArenaOptions::ArenaOptions",
   "linker_set_key" : "_ZN6google8protobuf12ArenaOptionsC1Ev",
   "parameters" :
   [
    {
     "is_this_ptr" : true,
     "referenced_type" : "_ZTIPN6google8protobuf12ArenaOptionsE"
    }
   ],
   "return_type" : "_ZTIv",
   "source_file" : "external/protobuf/src/google/protobuf/arena.h"
  },
  {
   "function_name" : "google::protobuf::ArenaOptions::ArenaOptions",
   "linker_set_key" : "_ZN6google8protobuf12ArenaOptionsC2Ev",
   "parameters" :
   [
    {
     "is_this_ptr" : true,
     "referenced_type" : "_ZTIPN6google8protobuf12ArenaOptionsE"
    }
   ],
   "return_type" : "_ZTIv",
   "source_file" : "external/protobuf/src/google/protobuf/arena.h"
  },
  {
   "function_name" : "google::protobuf::GOOGLE_UNALIGNED_LOAD16",
   "linker_set_key" : "_ZN6google8protobuf23GOOGLE_UNALIGNED_LOAD16EPKv",
   "parameters" :
   [
    {
     "referenced_type" : "_ZTIPKv"
    }
   ],
   "return_type" : "_ZTIt",
   "source_file" : "external/protobuf/src/google/protobuf/stubs/port.h"
  },
  {
   "function_name" : "google::protobuf::GOOGLE_UNALIGNED_LOAD32",
   "linker_set_key" : "_ZN6google8protobuf23GOOGLE_UNALIGNED_LOAD32EPKv",
   "parameters" :
   [
    {
     "referenced_type" : "_ZTIPKv"
    }
   ],
   "return_type" : "_ZTIj",
   "source_file" : "external/protobuf/src/google/protobuf/stubs/port.h"
  },
  {
   "function_name" : "google::protobuf::GOOGLE_UNALIGNED_LOAD64",
   "linker_set_key" : "_ZN6google8protobuf23GOOGLE_UNALIGNED_LOAD64EPKv",
   "parameters" :
   [
    {
     "referenced_type" : "_ZTIPKv"
    }
   ],
   "return_type" : "_ZTIm",
   "source_file" : "external/protobuf/src/google/protobuf/stubs/port.h"
  },
  {
   "function_name" : "google::protobuf::GOOGLE_UNALIGNED_STORE16",
   "linker_set_key" : "_ZN6google8protobuf24GOOGLE_UNALIGNED_STORE16EPvt",
   "parameters" :
   [
    {
     "referenced_type" : "_ZTIPv"
    },
    {
     "referenced_type" : "_ZTIt"
    }
   ],
   "return_type" : "_ZTIv",
   "source_file" : "external/protobuf/src/google/protobuf/stubs/port.h"
  },
  {
   "function_name" : "google::protobuf::GOOGLE_UNALIGNED_STORE32",
   "linker_set_key" : "_ZN6google8protobuf24GOOGLE_UNALIGNED_STORE32EPvj",
   "parameters" :
   [
    {
     "referenced_type" : "_ZTIPv"
    },
    {
     "referenced_type" : "_ZTIj"
    }
   ],
   "return_type" : "_ZTIv",
   "source_file" : "external/protobuf/src/google/protobuf/stubs/port.h"
  },
  {
   "function_name" : "google::protobuf::GOOGLE_UNALIGNED_STORE64",
   "linker_set_key" : "_ZN6google8protobuf24GOOGLE_UNALIGNED_STORE64EPvm",
   "parameters" :
   [
    {
     "referenced_type" : "_ZTIPv"
    },
    {
     "referenced_type" : "_ZTIm"
    }
   ],
   "return_type" : "_ZTIv",
   "source_file" : "external/protobuf/src/google/protobuf/stubs/port.h"
  },
  {
   "function_name" : "google::protobuf::Bits::Log2FloorNonZero",
   "linker_set_key" : "_ZN6google8protobuf4Bits16Log2FloorNonZeroEj",
   "parameters" :
   [
    {
     "referenced_type" : "_ZTIj"
    }
   ],
   "return_type" : "_ZTIj",
   "source_file" : "external/protobuf/src/google/protobuf/stubs/port.h"
  },
  {
   "function_name" : "google::protobuf::Bits::Log2FloorNonZero64",
   "linker_set_key" : "_ZN6google8protobuf4Bits18Log2FloorNonZero64Em",
   "parameters" :
   [
    {
     "referenced_type" : "_ZTIm"
    }
   ],
   "return_type" : "_ZTIj",
   "source_file" : "external/protobuf/src/google/protobuf/stubs/port.h"
  },
  {
   "access" : "private",
   "function_name" : "google::protobuf::Bits::Log2FloorNonZero_Portable",
   "linker_set_key" : "_ZN6google8protobuf4Bits25Log2FloorNonZero_PortableEj",
   "parameters" :
   [
    {
     "referenced_type" : "_ZTIj"
    }
   ],
   "return_type" : "_ZTIi",
   "source_file" : "external/protobuf/src/google/protobuf/stubs/port.h"
  },
  {
   "access" : "private",
   "function_name" : "google::protobuf::Bits::Log2FloorNonZero64_Portable",
   "linker_set_key" : "_ZN6google8protobuf4Bits27Log2FloorNonZero64_PortableEm",
   "parameters" :
   [
    {
     "referenced_type" : "_ZTIm"
    }
   ],
   "return_type" : "_ZTIi",
   "source_file" : "external/protobuf/src/google/protobuf/stubs/port.h"
  },
  {
   "access" : "private",
   "function_name" : "google::protobuf::Arena::AllocateAligned",
   "linker_set_key" : "_ZN6google8protobuf5Arena15AllocateAlignedEm",
   "parameters" :
   [
    {
     "is_this_ptr" : true,
     "referenced_type" : "_ZTIPN6google8protobuf5ArenaE"
    },
    {
     "referenced_type" : "_ZTIm"
    }
   ],
   "return_type" : "_ZTIPv",
   "source_file" : "external/protobuf/src/google/protobuf/arena.h"
  },
  {
   "access" : "private",
   "function_name" : "google::protobuf::Arena::CallDestructorHooks",
   "linker_set_key" : "_ZN6google8protobuf5Arena19CallDestructorHooksEv",
   "parameters" :
   [
    {
     "is_this_ptr" : true,
     "referenced_type" : "_ZTIPN6google8protobuf5ArenaE"
    }
   ],
   "return_type" : "_ZTIv",
   "source_file" : "external/protobuf/src/google/protobuf/arena.h"
  },
  {
   "function_name" : "google::protobuf::Arena::OwnCustomDestructor",
   "linker_set_key" : "_ZN6google8protobuf5Arena19OwnCustomDestructorEPvPFvS2_E",
   "parameters" :
   [
    {
     "is_this_ptr" : true,
     "referenced_type" : "_ZTIPN6google8protobuf5ArenaE"
    },
    {
     "referenced_type" : "_ZTIPv"
    },
    {
     "referenced_type" : "_ZTIPFvPvE"
    }
   ],
   "return_type" : "_ZTIv",
   "source_file" : "external/protobuf/src/google/protobuf/arena.h"
  },
  {
   "function_name" : "google::protobuf::Arena::Init",
   "linker_set_key" : "_ZN6google8protobuf5Arena4InitERKNS0_12ArenaOptionsE",
   "parameters" :
   [
    {
     "is_this_ptr" : true,
     "referenced_type" : "_ZTIPN6google8protobuf5ArenaE"
    },
    {
     "referenced_type" : "_ZTIRKN6google8protobuf12ArenaOptionsE"
    }
   ],
   "return_type" : "_ZTIv",
   "source_file" : "external/protobuf/src/google/protobuf/arena.h"
  },
  {
   "function_name" : "google::protobuf::Arena::Reset",
   "linker_set_key" : "_ZN6google8protobuf5Arena5ResetEv",
   "parameters" :
   [
    {
     "is_this_ptr" : true,
     "referenced_type" : "_ZTIPN6google8protobuf5ArenaE"
    }
   ],
   "return_type" : "_ZTIm",
   "source_file" : "external/protobuf/src/google/protobuf/arena.h"
  },
  {
   "function_name" : "google::protobuf::Arena::Arena",
   "linker_set_key" : "_ZN6google8protobuf5ArenaC1ERKNS0_12ArenaOptionsE",
   "parameters" :
   [
    {
     "is_this_ptr" : true,
     "referenced_type" : "_ZTIPN6google8protobuf5ArenaE"
    },
    {
     "referenced_type" : "_ZTIRKN6google8protobuf12ArenaOptionsE"
    }
   ],
   "return_type" : "_ZTIv",
   "source_file" : "external/protobuf/src/google/protobuf/arena.h"
  },
  {
   "function_name" : "google::protobuf::Arena::Arena",
   "linker_set_key" : "_ZN6google8protobuf5ArenaC1Ev",
   "parameters" :
   [
    {
     "is_this_ptr" : true,
     "referenced_type" : "_ZTIPN6google8protobuf5ArenaE"
    }
   ],
   "return_type" : "_ZTIv",
   "source_file" : "external/protobuf/src/google/protobuf/arena.h"
  },
  {
   "function_name" : "google::protobuf::Arena::Arena",
   "linker_set_key" : "_ZN6google8protobuf5ArenaC2ERKNS0_12ArenaOptionsE",
   "parameters" :
   [
    {
     "is_this_ptr" : true,
     "referenced_type" : "_ZTIPN6google8protobuf5ArenaE"
    },
    {
     "referenced_type" : "_ZTIRKN6google8protobuf12ArenaOptionsE"
    }
   ],
   "return_type" : "_ZTIv",
   "source_file" : "external/protobuf/src/google/protobuf/arena.h"
  },
  {
   "function_name" : "google::protobuf::Arena::Arena",
   "linker_set_key" : "_ZN6google8protobuf5ArenaC2Ev",
   "parameters" :
   [
    {
     "is_this_ptr" : true,
     "referenced_type" : "_ZTIPN6google8protobuf5ArenaE"
    }
   ],
   "return_type" : "_ZTIv",
   "source_file" : "external/protobuf/src/google/protobuf/arena.h"
  },
  {
   "function_name" : "google::protobuf::Arena::~Arena",
   "linker_set_key" : "_ZN6google8protobuf5ArenaD1Ev",
   "parameters" :
   [
    {
     "is_this_ptr" : true,
     "referenced_type" : "_ZTIPN6google8protobuf5ArenaE"
    }
   ],
   "return_type" : "_ZTIv",
   "source_file" : "external/protobuf/src/google/protobuf/arena.h"
  },
  {
   "function_name" : "google::protobuf::Arena::~Arena",
   "linker_set_key" : "_ZN6google8protobuf5ArenaD2Ev",
   "parameters" :
   [
    {
     "is_this_ptr" : true,
     "referenced_type" : "_ZTIPN6google8protobuf5ArenaE"
    }
   ],
   "return_type" : "_ZTIv",
   "source_file" : "external/protobuf/src/google/protobuf/arena.h"
  },
  {
   "function_name" : "google::protobuf::internal::AlignUpTo8",
   "linker_set_key" : "_ZN6google8protobuf8internal10AlignUpTo8Em",
   "parameters" :
   [
    {
     "referenced_type" : "_ZTIm"
    }
   ],
   "return_type" : "_ZTIm",
   "source_file" : "external/protobuf/src/google/protobuf/arena_impl.h"
  },
  {
   "function_name" : "google::protobuf::internal::arena_free",
   "linker_set_key" : "_ZN6google8protobuf8internal10arena_freeEPvm",
   "parameters" :
   [
    {
     "referenced_type" : "_ZTIPv"
    },
    {
     "referenced_type" : "_ZTIm"
    }
   ],
   "return_type" : "_ZTIv",
   "source_file" : "external/protobuf/src/google/protobuf/arena.h"
  },
  {
   "function_name" : "google::protobuf::internal::WrappedMutex::Lock",
   "linker_set_key" : "_ZN6google8protobuf8internal12WrappedMutex4LockEv",
   "parameters" :
   [
    {
     "is_this_ptr" : true,
     "referenced_type" : "_ZTIPN6google8protobuf8internal12WrappedMutexE"
    }
   ],
   "return_type" : "_ZTIv",
   "source_file" : "external/protobuf/src/google/protobuf/stubs/mutex.h"
  },
  {
   "function_name" : "google::protobuf::internal::WrappedMutex::Unlock",
   "linker_set_key" : "_ZN6google8protobuf8internal12WrappedMutex6UnlockEv",
   "parameters" :
   [
    {
     "is_this_ptr" : true,
     "referenced_type" : "_ZTIPN6google8protobuf8internal12WrappedMutexE"
    }
   ],
   "return_type" : "_ZTIv",
   "source_file" : "external/protobuf/src/google/protobuf/stubs/mutex.h"
  },
  {
   "function_name" : "google::protobuf::internal::WrappedMutex::WrappedMutex",
   "linker_set_key" : "_ZN6google8protobuf8internal12WrappedMutexC1Ev",
   "parameters" :
   [
    {
     "is_this_ptr" : true,
     "referenced_type" : "_ZTIPN6google8protobuf8internal12WrappedMutexE"
    }
   ],
   "return_type" : "_ZTIv",
   "source_file" : "external/protobuf/src/google/protobuf/stubs/mutex.h"
  },
  {
   "function_name" : "google::protobuf::internal::WrappedMutex::WrappedMutex",
   "linker_set_key" : "_ZN6google8protobuf8internal12WrappedMutexC2Ev",
   "parameters" :
   [
    {
     "is_this_ptr" : true,
     "referenced_type" : "_ZTIPN6google8protobuf8internal12WrappedMutexE"
    }
   ],
   "return_type" : "_ZTIv",
   "source_file" : "external/protobuf/src/google/protobuf/stubs/mutex.h"
  },
  {
   "function_name" : "google::protobuf::internal::MutexLockMaybe::MutexLockMaybe",
   "linker_set_key" : "_ZN6google8protobuf8internal14MutexLockMaybeC1EPNS1_12WrappedMutexE",
   "parameters" :
   [
    {
     "is_this_ptr" : true,
     "referenced_type" : "_ZTIPN6google8protobuf8internal14MutexLockMaybeE"
    },
    {
     "referenced_type" : "_ZTIPN6google8protobuf8internal12WrappedMutexE"
    }
   ],
   "return_type" : "_ZTIv",
   "source_file" : "external/protobuf/src/google/protobuf/stubs/mutex.h"
  },
  {
   "function_name" : "google::protobuf::internal::MutexLockMaybe::MutexLockMaybe",
   "linker_set_key" : "_ZN6google8protobuf8internal14MutexLockMaybeC2EPNS1_12WrappedMutexE",
   "parameters" :
   [
    {
     "is_this_ptr" : true,
     "referenced_type" : "_ZTIPN6google8protobuf8internal14MutexLockMaybeE"
    },
    {
     "referenced_type" : "_ZTIPN6google8protobuf8internal12WrappedMutexE"
    }
   ],
   "return_type" : "_ZTIv",
   "source_file" : "external/protobuf/src/google/protobuf/stubs/mutex.h"
  },
  {
   "function_name" : "google::protobuf::internal::MutexLockMaybe::~MutexLockMaybe",
   "linker_set_key" : "_ZN6google8protobuf8internal14MutexLockMaybeD1Ev",
   "parameters" :
   [
    {
     "is_this_ptr" : true,
     "referenced_type" : "_ZTIPN6google8protobuf8internal14MutexLockMaybeE"
    }
   ],
   "return_type" : "_ZTIv",
   "source_file" : "external/protobuf/src/google/protobuf/stubs/mutex.h"
  },
  {
   "function_name" : "google::protobuf::internal::MutexLockMaybe::~MutexLockMaybe",
   "linker_set_key" : "_ZN6google8protobuf8internal14MutexLockMaybeD2Ev",
   "parameters" :
   [
    {
     "is_this_ptr" : true,
     "referenced_type" : "_ZTIPN6google8protobuf8internal14MutexLockMaybeE"
    }
   ],
   "return_type" : "_ZTIv",
   "source_file" : "external/protobuf/src/google/protobuf/stubs/mutex.h"
  },
  {
   "function_name" : "google::protobuf::internal::ThreadLocalStorage<google::protobuf::internal::ArenaImpl::ThreadCache>::Get",
   "linker_set_key" : "_ZN6google8protobuf8internal18ThreadLocalStorageINS1_9ArenaImpl11ThreadCacheEE3GetEv",
   "parameters" :
   [
    {
     "is_this_ptr" : true,
     "referenced_type" : "_ZTIPN6google8protobuf8internal18ThreadLocalStorageINS1_9ArenaImpl11ThreadCacheEEE"
    }
   ],
   "return_type" : "_ZTIPN6google8protobuf8internal9ArenaImpl11ThreadCacheE",
   "source_file" : "external/protobuf/src/google/protobuf/stubs/mutex.h"
  },
  {
   "access" : "private",
   "function_name" : "google::protobuf::internal::ThreadLocalStorage<google::protobuf::internal::ArenaImpl::ThreadCache>::Delete",
   "linker_set_key" : "_ZN6google8protobuf8internal18ThreadLocalStorageINS1_9ArenaImpl11ThreadCacheEE6DeleteEPv",
   "parameters" :
   [
    {
     "referenced_type" : "_ZTIPv"
    }
   ],
   "return_type" : "_ZTIv",
   "source_file" : "external/protobuf/src/google/protobuf/stubs/mutex.h"
  },
  {
   "function_name" : "google::protobuf::internal::ThreadLocalStorage<google::protobuf::internal::ArenaImpl::ThreadCache>::ThreadLocalStorage",
   "linker_set_key" : "_ZN6google8protobuf8internal18ThreadLocalStorageINS1_9ArenaImpl11ThreadCacheEEC1Ev",
   "parameters" :
   [
    {
     "is_this_ptr" : true,
     "referenced_type" : "_ZTIPN6google8protobuf8internal18ThreadLocalStorageINS1_9ArenaImpl11ThreadCacheEEE"
    }
   ],
   "return_type" : "_ZTIv",
   "source_file" : "external/protobuf/src/google/protobuf/stubs/mutex.h"
  },
  {
   "function_name" : "google::protobuf::internal::ThreadLocalStorage<google::protobuf::internal::ArenaImpl::ThreadCache>::ThreadLocalStorage",
   "linker_set_key" : "_ZN6google8protobuf8internal18ThreadLocalStorageINS1_9ArenaImpl11ThreadCacheEEC2Ev",
   "parameters" :
   [
    {
     "is_this_ptr" : true,
     "referenced_type" : "_ZTIPN6google8protobuf8internal18ThreadLocalStorageINS1_9ArenaImpl11ThreadCacheEEE"
    }
   ],
   "return_type" : "_ZTIv",
   "source_file" : "external/protobuf/src/google/protobuf/stubs/mutex.h"
  },
  {
   "function_name" : "google::protobuf::internal::IsStructurallyValidUTF8",
   "linker_set_key" : "_ZN6google8protobuf8internal23IsStructurallyValidUTF8ERKNSt3__112basic_stringIcNS2_11char_traitsIcEENS2_9allocatorIcEEEE",
   "parameters" :
   [
    {
     "referenced_type" : "_ZTIRKNSt3__112basic_stringIcNS_11char_traitsIcEENS_9allocatorIcEEEE"
    }
   ],
   "return_type" : "_ZTIb",
   "source_file" : "external/protobuf/src/google/protobuf/stubs/common.h"
  },
  {
   "function_name" : "google::protobuf::internal::IsOk",
   "linker_set_key" : "_ZN6google8protobuf8internal4IsOkIbEEbT_",
   "parameters" :
   [
    {
     "referenced_type" : "_ZTIb"
    }
   ],
   "return_type" : "_ZTIb",
   "source_file" : "external/protobuf/src/google/protobuf/stubs/logging.h",
   "template_args" : [ "_ZTIb" ]
  },
  {
   "function_name" : "google::protobuf::internal::ArenaImpl::AddCleanup",
   "linker_set_key" : "_ZN6google8protobuf8internal9ArenaImpl10AddCleanupEPvPFvS3_E",
   "parameters" :
   [
    {
     "is_this_ptr" : true,
     "referenced_type" : "_ZTIPN6google8protobuf8internal9ArenaImplE"
    },
    {
     "referenced_type" : "_ZTIPv"
    },
    {
     "referenced_type" : "_ZTIPFvPvE"
    }
   ],
   "return_type" : "_ZTIv",
   "source_file" : "external/protobuf/src/google/protobuf/arena_impl.h"
  },
  {
   "access" : "private",
   "function_name" : "google::protobuf::internal::ArenaImpl::FreeBlocks",
   "linker_set_key" : "_ZN6google8protobuf8internal9ArenaImpl10FreeBlocksEv",
   "parameters" :
   [
    {
     "is_this_ptr" : true,
     "referenced_type" : "_ZTIPN6google8protobuf8internal9ArenaImplE"
    }
   ],
   "return_type" : "_ZTIm",
   "source_file" : "external/protobuf/src/google/protobuf/arena_impl.h"
  },
  {
   "access" : "private",
   "function_name" : "google::protobuf::internal::ArenaImpl::CleanupList",
   "linker_set_key" : "_ZN6google8protobuf8internal9ArenaImpl11CleanupListEv",
   "parameters" :
   [
    {
     "is_this_ptr" : true,
     "referenced_type" : "_ZTIPN6google8protobuf8internal9ArenaImplE"
    }
   ],
   "return_type" : "_ZTIv",
   "source_file" : "external/protobuf/src/google/protobuf/arena_impl.h"
  },
  {
   "function_name" : "google::protobuf::internal::ArenaImpl::SerialArena::AddCleanup",
   "linker_set_key" : "_ZN6google8protobuf8internal9ArenaImpl11SerialArena10AddCleanupEPvPFvS4_E",
   "parameters" :
   [
    {
     "is_this_ptr" : true,
     "referenced_type" : "_ZTIPN6google8protobuf8internal9ArenaImpl11SerialArenaE"
    },
    {
     "referenced_type" : "_ZTIPv"
    },
    {
     "referenced_type" : "_ZTIPFvPvE"
    }
   ],
   "return_type" : "_ZTIv",
   "source_file" : "external/protobuf/src/google/protobuf/arena_impl.h"
  },
  {
   "function_name" : "google::protobuf::internal::ArenaImpl::SerialArena::CleanupList",
   "linker_set_key" : "_ZN6google8protobuf8internal9ArenaImpl11SerialArena11CleanupListEv",
   "parameters" :
   [
    {
     "is_this_ptr" : true,
     "referenced_type" : "_ZTIPN6google8protobuf8internal9ArenaImpl11SerialArenaE"
    }
   ],
   "return_type" : "_ZTIv",
   "source_file" : "external/protobuf/src/google/protobuf/arena_impl.h"
  },
  {
   "function_name" : "google::protobuf::internal::ArenaImpl::SerialArena::AllocateAligned",
   "linker_set_key" : "_ZN6google8protobuf8internal9ArenaImpl11SerialArena15AllocateAlignedEm",
   "parameters" :
   [
    {
     "is_this_ptr" : true,
     "referenced_type" : "_ZTIPN6google8protobuf8internal9ArenaImpl11SerialArenaE"
    },
    {
     "referenced_type" : "_ZTIm"
    }
   ],
   "return_type" : "_ZTIPv",
   "source_file" : "external/protobuf/src/google/protobuf/arena_impl.h"
  },
  {
   "access" : "private",
   "function_name" : "google::protobuf::internal::ArenaImpl::SerialArena::AddCleanupFallback",
   "linker_set_key" : "_ZN6google8protobuf8internal9ArenaImpl11SerialArena18AddCleanupFallbackEPvPFvS4_E",
   "parameters" :
   [
    {
     "is_this_ptr" : true,
     "referenced_type" : "_ZTIPN6google8protobuf8internal9ArenaImpl11SerialArenaE"
    },
    {
     "referenced_type" : "_ZTIPv"
    },
    {
     "referenced_type" : "_ZTIPFvPvE"
    }
   ],
   "return_type" : "_ZTIv",
   "source_file" : "external/protobuf/src/google/protobuf/arena_impl.h"
  },
  {
   "access" : "private",
   "function_name" : "google::protobuf::internal::ArenaImpl::SerialArena::CleanupListFallback",
   "linker_set_key" : "_ZN6google8protobuf8internal9ArenaImpl11SerialArena19CleanupListFallbackEv",
   "parameters" :
   [
    {
     "is_this_ptr" : true,
     "referenced_type" : "_ZTIPN6google8protobuf8internal9ArenaImpl11SerialArenaE"
    }
   ],
   "return_type" : "_ZTIv",
   "source_file" : "external/protobuf/src/google/protobuf/arena_impl.h"
  },
  {
   "access" : "private",
   "function_name" : "google::protobuf::internal::ArenaImpl::SerialArena::AllocateAlignedFallback",
   "linker_set_key" : "_ZN6google8protobuf8internal9ArenaImpl11SerialArena23AllocateAlignedFallbackEm",
   "parameters" :
   [
    {
     "is_this_ptr" : true,
     "referenced_type" : "_ZTIPN6google8protobuf8internal9ArenaImpl11SerialArenaE"
    },
    {
     "referenced_type" : "_ZTIm"
    }
   ],
   "return_type" : "_ZTIPv",
   "source_file" : "external/protobuf/src/google/protobuf/arena_impl.h"
  },
  {
   "function_name" : "google::protobuf::internal::ArenaImpl::SerialArena::AllocateAlignedAndAddCleanup",
   "linker_set_key" : "_ZN6google8protobuf8internal9ArenaImpl11SerialArena28AllocateAlignedAndAddCleanupEmPFvPvE",
   "parameters" :
   [
    {
     "is_this_ptr" : true,
     "referenced_type" : "_ZTIPN6google8protobuf8internal9ArenaImpl11SerialArenaE"
    },
    {
     "referenced_type" : "_ZTIm"
    },
    {
     "referenced_type" : "_ZTIPFvPvE"
    }
   ],
   "return_type" : "_ZTIPv",
   "source_file" : "external/protobuf/src/google/protobuf/arena_impl.h"
  },
  {
   "function_name" : "google::protobuf::internal::ArenaImpl::SerialArena::New",
   "linker_set_key" : "_ZN6google8protobuf8internal9ArenaImpl11SerialArena3NewEPNS2_5BlockEPvPS2_",
   "parameters" :
   [
    {
     "referenced_type" : "_ZTIPN6google8protobuf8internal9ArenaImpl5BlockE"
    },
    {
     "referenced_type" : "_ZTIPv"
    },
    {
     "referenced_type" : "_ZTIPN6google8protobuf8internal9ArenaImplE"
    }
   ],
   "return_type" : "_ZTIPN6google8protobuf8internal9ArenaImpl11SerialArenaE",
   "source_file" : "external/protobuf/src/google/protobuf/arena_impl.h"
  },
  {
   "function_name" : "google::protobuf::internal::ArenaImpl::SerialArena::Free",
   "linker_set_key" : "_ZN6google8protobuf8internal9ArenaImpl11SerialArena4FreeEPS3_PNS2_5BlockEPFvPvmE",
   "parameters" :
   [
    {
     "referenced_type" : "_ZTIPN6google8protobuf8internal9ArenaImpl11SerialArenaE"
    },
    {
     "referenced_type" : "_ZTIPN6google8protobuf8internal9ArenaImpl5BlockE"
    },
    {
     "referenced_type" : "_ZTIPFvPvmE"
    }
   ],
   "return_type" : "_ZTIm",
   "source_file" : "external/protobuf/src/google/protobuf/arena_impl.h"
  },
  {
   "function_name" : "google::protobuf::internal::ArenaImpl::SerialArena::set_next",
   "linker_set_key" : "_ZN6google8protobuf8internal9ArenaImpl11SerialArena8set_nextEPS3_",
   "parameters" :
   [
    {
     "is_this_ptr" : true,
     "referenced_type" : "_ZTIPN6google8protobuf8internal9ArenaImpl11SerialArenaE"
    },
    {
     "referenced_type" : "_ZTIPN6google8protobuf8internal9ArenaImpl11SerialArenaE"
    }
   ],
   "return_type" : "_ZTIv",
   "source_file" : "external/protobuf/src/google/protobuf/arena_impl.h"
  },
  {
   "function_name" : "google::protobuf::internal::ArenaImpl::ThreadCache::ThreadCache",
   "linker_set_key" : "_ZN6google8protobuf8internal9ArenaImpl11ThreadCacheC1Ev",
   "parameters" :
   [
    {
     "is_this_ptr" : true,
     "referenced_type" : "_ZTIPN6google8protobuf8internal9ArenaImpl11ThreadCacheE"
    }
   ],
   "return_type" : "_ZTIv",
   "source_file" : "external/protobuf/src/google/protobuf/arena_impl.h"
  },
  {
   "function_name" : "google::protobuf::internal::ArenaImpl::ThreadCache::ThreadCache",
   "linker_set_key" : "_ZN6google8protobuf8internal9ArenaImpl11ThreadCacheC2Ev",
   "parameters" :
   [
    {
     "is_this_ptr" : true,
     "referenced_type" : "_ZTIPN6google8protobuf8internal9ArenaImpl11ThreadCacheE"
    }
   ],
   "return_type" : "_ZTIv",
   "source_file" : "external/protobuf/src/google/protobuf/arena_impl.h"
  },
  {
   "function_name" : "google::protobuf::internal::ArenaImpl::CleanupChunk::SizeOf",
   "linker_set_key" : "_ZN6google8protobuf8internal9ArenaImpl12CleanupChunk6SizeOfEm",
   "parameters" :
   [
    {
     "referenced_type" : "_ZTIm"
    }
   ],
   "return_type" : "_ZTIm",
   "source_file" : "external/protobuf/src/google/protobuf/arena_impl.h"
  },
  {
   "access" : "private",
   "function_name" : "google::protobuf::internal::ArenaImpl::thread_cache",
   "linker_set_key" : "_ZN6google8protobuf8internal9ArenaImpl12thread_cacheEv",
   "return_type" : "_ZTIRN6google8protobuf8internal9ArenaImpl11ThreadCacheE",
   "source_file" : "external/protobuf/src/google/protobuf/arena_impl.h"
  },
  {
   "access" : "private",
   "function_name" : "google::protobuf::internal::ArenaImpl::GetSerialArena",
   "linker_set_key" : "_ZN6google8protobuf8internal9ArenaImpl14GetSerialArenaEv",
   "parameters" :
   [
    {
     "is_this_ptr" : true,
     "referenced_type" : "_ZTIPN6google8protobuf8internal9ArenaImplE"
    }
   ],
   "return_type" : "_ZTIPN6google8protobuf8internal9ArenaImpl11SerialArenaE",
   "source_file" : "external/protobuf/src/google/protobuf/arena_impl.h"
  },
  {
   "function_name" : "google::protobuf::internal::ArenaImpl::AllocateAligned",
   "linker_set_key" : "_ZN6google8protobuf8internal9ArenaImpl15AllocateAlignedEm",
   "parameters" :
   [
    {
     "is_this_ptr" : true,
     "referenced_type" : "_ZTIPN6google8protobuf8internal9ArenaImplE"
    },
    {
     "referenced_type" : "_ZTIm"
    }
   ],
   "return_type" : "_ZTIPv",
   "source_file" : "external/protobuf/src/google/protobuf/arena_impl.h"
  },
  {
   "access" : "private",
   "function_name" : "google::protobuf::internal::ArenaImpl::CacheSerialArena",
   "linker_set_key" : "_ZN6google8protobuf8internal9ArenaImpl16CacheSerialArenaEPNS2_11SerialArenaE",
   "parameters" :
   [
    {
     "is_this_ptr" : true,
     "referenced_type" : "_ZTIPN6google8protobuf8internal9ArenaImplE"
    },
    {
     "referenced_type" : "_ZTIPN6google8protobuf8internal9ArenaImpl11SerialArenaE"
    }
   ],
   "return_type" : "_ZTIv",
   "source_file" : "external/protobuf/src/google/protobuf/arena_impl.h"
  },
  {
   "access" : "private",
   "function_name" : "google::protobuf::internal::ArenaImpl::AddCleanupFallback",
   "linker_set_key" : "_ZN6google8protobuf8internal9ArenaImpl18AddCleanupFallbackEPvPFvS3_E",
   "parameters" :
   [
    {
     "is_this_ptr" : true,
     "referenced_type" : "_ZTIPN6google8protobuf8internal9ArenaImplE"
    },
    {
     "referenced_type" : "_ZTIPv"
    },
    {
     "referenced_type" : "_ZTIPFvPvE"
    }
   ],
   "return_type" : "_ZTIv",
   "source_file" : "external/protobuf/src/google/protobuf/arena_impl.h"
  },
  {
   "access" : "private",
   "function_name" : "google::protobuf::internal::ArenaImpl::GetSerialArenaFast",
   "linker_set_key" : "_ZN6google8protobuf8internal9ArenaImpl18GetSerialArenaFastEPPNS2_11SerialArenaE",
   "parameters" :
   [
    {
     "is_this_ptr" : true,
     "referenced_type" : "_ZTIPN6google8protobuf8internal9ArenaImplE"
    },
    {
     "referenced_type" : "_ZTIPPN6google8protobuf8internal9ArenaImpl11SerialArenaE"
    }
   ],
   "return_type" : "_ZTIb",
   "source_file" : "external/protobuf/src/google/protobuf/arena_impl.h"
  },
  {
   "access" : "private",
   "function_name" : "google::protobuf::internal::ArenaImpl::GetSerialArenaFallback",
   "linker_set_key" : "_ZN6google8protobuf8internal9ArenaImpl22GetSerialArenaFallbackEPv",
   "parameters" :
   [
    {
     "is_this_ptr" : true,
     "referenced_type" : "_ZTIPN6google8protobuf8internal9ArenaImplE"
    },
    {
     "referenced_type" : "_ZTIPv"
    }
   ],
   "return_type" : "_ZTIPN6google8protobuf8internal9ArenaImpl11SerialArenaE",
   "source_file" : "external/protobuf/src/google/protobuf/arena_impl.h"
  },
  {
   "access" : "private",
   "function_name" : "google::protobuf::internal::ArenaImpl::AllocateAlignedFallback",
   "linker_set_key" : "_ZN6google8protobuf8internal9ArenaImpl23AllocateAlignedFallbackEm",
   "parameters" :
   [
    {
     "is_this_ptr" : true,
     "referenced_type" : "_ZTIPN6google8protobuf8internal9ArenaImplE"
    },
    {
     "referenced_type" : "_ZTIm"
    }
   ],
   "return_type" : "_ZTIPv",
   "source_file" : "external/protobuf/src/google/protobuf/arena_impl.h"
  },
  {
   "function_name" : "google::protobuf::internal::ArenaImpl::AllocateAlignedAndAddCleanup",
   "linker_set_key" : "_ZN6google8protobuf8internal9ArenaImpl28AllocateAlignedAndAddCleanupEmPFvPvE",
   "parameters" :
   [
    {
     "is_this_ptr" : true,
     "referenced_type" : "_ZTIPN6google8protobuf8internal9ArenaImplE"
    },
    {
     "referenced_type" : "_ZTIm"
    },
    {
     "referenced_type" : "_ZTIPFvPvE"
    }
   ],
   "return_type" : "_ZTIPv",
   "source_file" : "external/protobuf/src/google/protobuf/arena_impl.h"
  },
  {
   "access" : "private",
   "function_name" : "google::protobuf::internal::ArenaImpl::AllocateAlignedAndAddCleanupFallback",
   "linker_set_key" : "_ZN6google8protobuf8internal9ArenaImpl36AllocateAlignedAndAddCleanupFallbackEmPFvPvE",
   "parameters" :
   [
    {
     "is_this_ptr" : true,
     "referenced_type" : "_ZTIPN6google8protobuf8internal9ArenaImplE"
    },
    {
     "referenced_type" : "_ZTIm"
    },
    {
     "referenced_type" : "_ZTIPFvPvE"
    }
   ],
   "return_type" : "_ZTIPv",
   "source_file" : "external/protobuf/src/google/protobuf/arena_impl.h"
  },
  {
   "access" : "private",
   "function_name" : "google::protobuf::internal::ArenaImpl::Init",
   "linker_set_key" : "_ZN6google8protobuf8internal9ArenaImpl4InitEv",
   "parameters" :
   [
    {
     "is_this_ptr" : true,
     "referenced_type" : "_ZTIPN6google8protobuf8internal9ArenaImplE"
    }
   ],
   "return_type" : "_ZTIv",
   "source_file" : "external/protobuf/src/google/protobuf/arena_impl.h"
  },
  {
   "function_name" : "google::protobuf::internal::ArenaImpl::Block::Pointer",
   "linker_set_key" : "_ZN6google8protobuf8internal9ArenaImpl5Block7PointerEm",
   "parameters" :
   [
    {
     "is_this_ptr" : true,
     "referenced_type" : "_ZTIPN6google8protobuf8internal9ArenaImpl5BlockE"
    },
    {
     "referenced_type" : "_ZTIm"
    }
   ],
   "return_type" : "_ZTIPc",
   "source_file" : "external/protobuf/src/google/protobuf/arena_impl.h"
  },
  {
   "function_name" : "google::protobuf::internal::ArenaImpl::Block::set_pos",
   "linker_set_key" : "_ZN6google8protobuf8internal9ArenaImpl5Block7set_posEm",
   "parameters" :
   [
    {
     "is_this_ptr" : true,
     "referenced_type" : "_ZTIPN6google8protobuf8internal9ArenaImpl5BlockE"
    },
    {
     "referenced_type" : "_ZTIm"
    }
   ],
   "return_type" : "_ZTIv",
   "source_file" : "external/protobuf/src/google/protobuf/arena_impl.h"
  },
  {
   "function_name" : "google::protobuf::internal::ArenaImpl::Block::Block",
   "linker_set_key" : "_ZN6google8protobuf8internal9ArenaImpl5BlockC1EmPS3_",
   "parameters" :
   [
    {
     "is_this_ptr" : true,
     "referenced_type" : "_ZTIPN6google8protobuf8internal9ArenaImpl5BlockE"
    },
    {
     "referenced_type" : "_ZTIm"
    },
    {
     "referenced_type" : "_ZTIPN6google8protobuf8internal9ArenaImpl5BlockE"
    }
   ],
   "return_type" : "_ZTIv",
   "source_file" : "external/protobuf/src/google/protobuf/arena_impl.h"
  },
  {
   "function_name" : "google::protobuf::internal::ArenaImpl::Block::Block",
   "linker_set_key" : "_ZN6google8protobuf8internal9ArenaImpl5BlockC2EmPS3_",
   "parameters" :
   [
    {
     "is_this_ptr" : true,
     "referenced_type" : "_ZTIPN6google8protobuf8internal9ArenaImpl5BlockE"
    },
    {
     "referenced_type" : "_ZTIm"
    },
    {
     "referenced_type" : "_ZTIPN6google8protobuf8internal9ArenaImpl5BlockE"
    }
   ],
   "return_type" : "_ZTIv",
   "source_file" : "external/protobuf/src/google/protobuf/arena_impl.h"
  },
  {
   "function_name" : "google::protobuf::internal::ArenaImpl::Reset",
   "linker_set_key" : "_ZN6google8protobuf8internal9ArenaImpl5ResetEv",
   "parameters" :
   [
    {
     "is_this_ptr" : true,
     "referenced_type" : "_ZTIPN6google8protobuf8internal9ArenaImplE"
    }
   ],
   "return_type" : "_ZTIm",
   "source_file" : "external/protobuf/src/google/protobuf/arena_impl.h"
  },
  {
   "function_name" : "google::protobuf::internal::ArenaImpl::Options::Options",
   "linker_set_key" : "_ZN6google8protobuf8internal9ArenaImpl7OptionsC1INS0_12ArenaOptionsEEERKT_",
   "parameters" :
   [
    {
     "is_this_ptr" : true,
     "referenced_type" : "_ZTIPN6google8protobuf8internal9ArenaImpl7OptionsE"
    },
    {
     "referenced_type" : "_ZTIRKN6google8protobuf12ArenaOptionsE"
    }
   ],
   "return_type" : "_ZTIv",
   "source_file" : "external/protobuf/src/google/protobuf/arena_impl.h",
   "template_args" : [ "_ZTIN6google8protobuf12ArenaOptionsE" ]
  },
  {
   "function_name" : "google::protobuf::internal::ArenaImpl::Options::Options",
   "linker_set_key" : "_ZN6google8protobuf8internal9ArenaImpl7OptionsC2INS0_12ArenaOptionsEEERKT_",
   "parameters" :
   [
    {
     "is_this_ptr" : true,
     "referenced_type" : "_ZTIPN6google8protobuf8internal9ArenaImpl7OptionsE"
    },
    {
     "referenced_type" : "_ZTIRKN6google8protobuf12ArenaOptionsE"
    }
   ],
   "return_type" : "_ZTIv",
   "source_file" : "external/protobuf/src/google/protobuf/arena_impl.h",
   "template_args" : [ "_ZTIN6google8protobuf12ArenaOptionsE" ]
  },
  {
   "access" : "private",
   "function_name" : "google::protobuf::internal::ArenaImpl::NewBlock",
   "linker_set_key" : "_ZN6google8protobuf8internal9ArenaImpl8NewBlockEPNS2_5BlockEm",
   "parameters" :
   [
    {
     "is_this_ptr" : true,
     "referenced_type" : "_ZTIPN6google8protobuf8internal9ArenaImplE"
    },
    {
     "referenced_type" : "_ZTIPN6google8protobuf8internal9ArenaImpl5BlockE"
    },
    {
     "referenced_type" : "_ZTIm"
    }
   ],
   "return_type" : "_ZTIPN6google8protobuf8internal9ArenaImpl5BlockE",
   "source_file" : "external/protobuf/src/google/protobuf/arena_impl.h"
  },
  {
   "function_name" : "google::protobuf::internal::ArenaImpl::ArenaImpl",
   "linker_set_key" : "_ZN6google8protobuf8internal9ArenaImplC1INS0_12ArenaOptionsEEERKT_",
   "parameters" :
   [
    {
     "is_this_ptr" : true,
     "referenced_type" : "_ZTIPN6google8protobuf8internal9ArenaImplE"
    },
    {
     "referenced_type" : "_ZTIRKN6google8protobuf12ArenaOptionsE"
    }
   ],
   "return_type" : "_ZTIv",
   "source_file" : "external/protobuf/src/google/protobuf/arena_impl.h",
   "template_args" : [ "_ZTIN6google8protobuf12ArenaOptionsE" ]
  },
  {
   "function_name" : "google::protobuf::internal::ArenaImpl::ArenaImpl",
   "linker_set_key" : "_ZN6google8protobuf8internal9ArenaImplC2INS0_12ArenaOptionsEEERKT_",
   "parameters" :
   [
    {
     "is_this_ptr" : true,
     "referenced_type" : "_ZTIPN6google8protobuf8internal9ArenaImplE"
    },
    {
     "referenced_type" : "_ZTIRKN6google8protobuf12ArenaOptionsE"
    }
   ],
   "return_type" : "_ZTIv",
   "source_file" : "external/protobuf/src/google/protobuf/arena_impl.h",
   "template_args" : [ "_ZTIN6google8protobuf12ArenaOptionsE" ]
  },
  {
   "function_name" : "google::protobuf::internal::ArenaImpl::~ArenaImpl",
   "linker_set_key" : "_ZN6google8protobuf8internal9ArenaImplD1Ev",
   "parameters" :
   [
    {
     "is_this_ptr" : true,
     "referenced_type" : "_ZTIPN6google8protobuf8internal9ArenaImplE"
    }
   ],
   "return_type" : "_ZTIv",
   "source_file" : "external/protobuf/src/google/protobuf/arena_impl.h"
  },
  {
   "function_name" : "google::protobuf::internal::ArenaImpl::~ArenaImpl",
   "linker_set_key" : "_ZN6google8protobuf8internal9ArenaImplD2Ev",
   "parameters" :
   [
    {
     "is_this_ptr" : true,
     "referenced_type" : "_ZTIPN6google8protobuf8internal9ArenaImplE"
    }
   ],
   "return_type" : "_ZTIv",
   "source_file" : "external/protobuf/src/google/protobuf/arena_impl.h"
  },
  {
   "function_name" : "google::protobuf::internal::MutexLock::MutexLock",
   "linker_set_key" : "_ZN6google8protobuf8internal9MutexLockC1EPNS1_12WrappedMutexE",
   "parameters" :
   [
    {
     "is_this_ptr" : true,
     "referenced_type" : "_ZTIPN6google8protobuf8internal9MutexLockE"
    },
    {
     "referenced_type" : "_ZTIPN6google8protobuf8internal12WrappedMutexE"
    }
   ],
   "return_type" : "_ZTIv",
   "source_file" : "external/protobuf/src/google/protobuf/stubs/mutex.h"
  },
  {
   "function_name" : "google::protobuf::internal::MutexLock::MutexLock",
   "linker_set_key" : "_ZN6google8protobuf8internal9MutexLockC2EPNS1_12WrappedMutexE",
   "parameters" :
   [
    {
     "is_this_ptr" : true,
     "referenced_type" : "_ZTIPN6google8protobuf8internal9MutexLockE"
    },
    {
     "referenced_type" : "_ZTIPN6google8protobuf8internal12WrappedMutexE"
    }
   ],
   "return_type" : "_ZTIv",
   "source_file" : "external/protobuf/src/google/protobuf/stubs/mutex.h"
  },
  {
   "function_name" : "google::protobuf::internal::MutexLock::~MutexLock",
   "linker_set_key" : "_ZN6google8protobuf8internal9MutexLockD1Ev",
   "parameters" :
   [
    {
     "is_this_ptr" : true,
     "referenced_type" : "_ZTIPN6google8protobuf8internal9MutexLockE"
    }
   ],
   "return_type" : "_ZTIv",
   "source_file" : "external/protobuf/src/google/protobuf/stubs/mutex.h"
  },
  {
   "function_name" : "google::protobuf::internal::MutexLock::~MutexLock",
   "linker_set_key" : "_ZN6google8protobuf8internal9MutexLockD2Ev",
   "parameters" :
   [
    {
     "is_this_ptr" : true,
     "referenced_type" : "_ZTIPN6google8protobuf8internal9MutexLockE"
    }
   ],
   "return_type" : "_ZTIv",
   "source_file" : "external/protobuf/src/google/protobuf/stubs/mutex.h"
  },
  {
   "function_name" : "google::protobuf::BigEndian::FromHost16",
   "linker_set_key" : "_ZN6google8protobuf9BigEndian10FromHost16Et",
   "parameters" :
   [
    {
     "referenced_type" : "_ZTIt"
    }
   ],
   "return_type" : "_ZTIt",
   "source_file" : "external/protobuf/src/google/protobuf/stubs/port.h"
  },
  {
   "function_name" : "google::protobuf::BigEndian::FromHost32",
   "linker_set_key" : "_ZN6google8protobuf9BigEndian10FromHost32Ej",
   "parameters" :
   [
    {
     "referenced_type" : "_ZTIj"
    }
   ],
   "return_type" : "_ZTIj",
   "source_file" : "external/protobuf/src/google/protobuf/stubs/port.h"
  },
  {
   "function_name" : "google::protobuf::BigEndian::FromHost64",
   "linker_set_key" : "_ZN6google8protobuf9BigEndian10FromHost64Em",
   "parameters" :
   [
    {
     "referenced_type" : "_ZTIm"
    }
   ],
   "return_type" : "_ZTIm",
   "source_file" : "external/protobuf/src/google/protobuf/stubs/port.h"
  },
  {
   "function_name" : "google::protobuf::BigEndian::IsLittleEndian",
   "linker_set_key" : "_ZN6google8protobuf9BigEndian14IsLittleEndianEv",
   "return_type" : "_ZTIb",
   "source_file" : "external/protobuf/src/google/protobuf/stubs/port.h"
  },
  {
   "function_name" : "google::protobuf::BigEndian::Load16",
   "linker_set_key" : "_ZN6google8protobuf9BigEndian6Load16EPKv",
   "parameters" :
   [
    {
     "referenced_type" : "_ZTIPKv"
    }
   ],
   "return_type" : "_ZTIt",
   "source_file" : "external/protobuf/src/google/protobuf/stubs/port.h"
  },
  {
   "function_name" : "google::protobuf::BigEndian::Load32",
   "linker_set_key" : "_ZN6google8protobuf9BigEndian6Load32EPKv",
   "parameters" :
   [
    {
     "referenced_type" : "_ZTIPKv"
    }
   ],
   "return_type" : "_ZTIj",
   "source_file" : "external/protobuf/src/google/protobuf/stubs/port.h"
  },
  {
   "function_name" : "google::protobuf::BigEndian::Load64",
   "linker_set_key" : "_ZN6google8protobuf9BigEndian6Load64EPKv",
   "parameters" :
   [
    {
     "referenced_type" : "_ZTIPKv"
    }
   ],
   "return_type" : "_ZTIm",
   "source_file" : "external/protobuf/src/google/protobuf/stubs/port.h"
  },
  {
   "function_name" : "google::protobuf::BigEndian::Store16",
   "linker_set_key" : "_ZN6google8protobuf9BigEndian7Store16EPvt",
   "parameters" :
   [
    {
     "referenced_type" : "_ZTIPv"
    },
    {
     "referenced_type" : "_ZTIt"
    }
   ],
   "return_type" : "_ZTIv",
   "source_file" : "external/protobuf/src/google/protobuf/stubs/port.h"
  },
  {
   "function_name" : "google::protobuf::BigEndian::Store32",
   "linker_set_key" : "_ZN6google8protobuf9BigEndian7Store32EPvj",
   "parameters" :
   [
    {
     "referenced_type" : "_ZTIPv"
    },
    {
     "referenced_type" : "_ZTIj"
    }
   ],
   "return_type" : "_ZTIv",
   "source_file" : "external/protobuf/src/google/protobuf/stubs/port.h"
  },
  {
   "function_name" : "google::protobuf::BigEndian::Store64",
   "linker_set_key" : "_ZN6google8protobuf9BigEndian7Store64EPvm",
   "parameters" :
   [
    {
     "referenced_type" : "_ZTIPv"
    },
    {
     "referenced_type" : "_ZTIm"
    }
   ],
   "return_type" : "_ZTIv",
   "source_file" : "external/protobuf/src/google/protobuf/stubs/port.h"
  },
  {
   "function_name" : "google::protobuf::BigEndian::ToHost16",
   "linker_set_key" : "_ZN6google8protobuf9BigEndian8ToHost16Et",
   "parameters" :
   [
    {
     "referenced_type" : "_ZTIt"
    }
   ],
   "return_type" : "_ZTIt",
   "source_file" : "external/protobuf/src/google/protobuf/stubs/port.h"
  },
  {
   "function_name" : "google::protobuf::BigEndian::ToHost32",
   "linker_set_key" : "_ZN6google8protobuf9BigEndian8ToHost32Ej",
   "parameters" :
   [
    {
     "referenced_type" : "_ZTIj"
    }
   ],
   "return_type" : "_ZTIj",
   "source_file" : "external/protobuf/src/google/protobuf/stubs/port.h"
  },
  {
   "function_name" : "google::protobuf::BigEndian::ToHost64",
   "linker_set_key" : "_ZN6google8protobuf9BigEndian8ToHost64Em",
   "parameters" :
   [
    {
     "referenced_type" : "_ZTIm"
    }
   ],
   "return_type" : "_ZTIm",
   "source_file" : "external/protobuf/src/google/protobuf/stubs/port.h"
  },
  {
   "function_name" : "google::protobuf::Arena::SpaceAllocated",
   "linker_set_key" : "_ZNK6google8protobuf5Arena14SpaceAllocatedEv",
   "parameters" :
   [
    {
     "is_this_ptr" : true,
     "referenced_type" : "_ZTIPKN6google8protobuf5ArenaE"
    }
   ],
   "return_type" : "_ZTIm",
   "source_file" : "external/protobuf/src/google/protobuf/arena.h"
  },
  {
   "access" : "private",
   "function_name" : "google::protobuf::Arena::OnArenaAllocation",
   "linker_set_key" : "_ZNK6google8protobuf5Arena17OnArenaAllocationEPKSt9type_infom",
   "parameters" :
   [
    {
     "is_this_ptr" : true,
     "referenced_type" : "_ZTIPKN6google8protobuf5ArenaE"
    },
    {
     "referenced_type" : "_ZTIPKSt9type_info"
    },
    {
     "referenced_type" : "_ZTIm"
    }
   ],
   "return_type" : "_ZTIv",
   "source_file" : "external/protobuf/src/google/protobuf/arena.h"
  },
  {
   "function_name" : "google::protobuf::Arena::SpaceAllocatedAndUsed",
   "linker_set_key" : "_ZNK6google8protobuf5Arena21SpaceAllocatedAndUsedEv",
   "parameters" :
   [
    {
     "is_this_ptr" : true,
     "referenced_type" : "_ZTIPKN6google8protobuf5ArenaE"
    }
   ],
   "return_type" : "_ZTINSt3__14pairImmEE",
   "source_file" : "external/protobuf/src/google/protobuf/arena.h"
  },
  {
   "access" : "private",
   "function_name" : "google::protobuf::Arena::AllocHook",
   "linker_set_key" : "_ZNK6google8protobuf5Arena9AllocHookEPKSt9type_infom",
   "parameters" :
   [
    {
     "is_this_ptr" : true,
     "referenced_type" : "_ZTIPKN6google8protobuf5ArenaE"
    },
    {
     "referenced_type" : "_ZTIPKSt9type_info"
    },
    {
     "referenced_type" : "_ZTIm"
    }
   ],
   "return_type" : "_ZTIv",
   "source_file" : "external/protobuf/src/google/protobuf/arena.h"
  },
  {
   "function_name" : "google::protobuf::Arena::SpaceUsed",
   "linker_set_key" : "_ZNK6google8protobuf5Arena9SpaceUsedEv",
   "parameters" :
   [
    {
     "is_this_ptr" : true,
     "referenced_type" : "_ZTIPKN6google8protobuf5ArenaE"
    }
   ],
   "return_type" : "_ZTIm",
   "source_file" : "external/protobuf/src/google/protobuf/arena.h"
  },
  {
   "function_name" : "google::protobuf::internal::WrappedMutex::AssertHeld",
   "linker_set_key" : "_ZNK6google8protobuf8internal12WrappedMutex10AssertHeldEv",
   "parameters" :
   [
    {
     "is_this_ptr" : true,
     "referenced_type" : "_ZTIPKN6google8protobuf8internal12WrappedMutexE"
    }
   ],
   "return_type" : "_ZTIv",
   "source_file" : "external/protobuf/src/google/protobuf/stubs/mutex.h"
  },
  {
   "function_name" : "google::protobuf::internal::ArenaImpl::SerialArena::next",
   "linker_set_key" : "_ZNK6google8protobuf8internal9ArenaImpl11SerialArena4nextEv",
   "parameters" :
   [
    {
     "is_this_ptr" : true,
     "referenced_type" : "_ZTIPKN6google8protobuf8internal9ArenaImpl11SerialArenaE"
    }
   ],
   "return_type" : "_ZTIPN6google8protobuf8internal9ArenaImpl11SerialArenaE",
   "source_file" : "external/protobuf/src/google/protobuf/arena_impl.h"
  },
  {
   "function_name" : "google::protobuf::internal::ArenaImpl::SerialArena::owner",
   "linker_set_key" : "_ZNK6google8protobuf8internal9ArenaImpl11SerialArena5ownerEv",
   "parameters" :
   [
    {
     "is_this_ptr" : true,
     "referenced_type" : "_ZTIPKN6google8protobuf8internal9ArenaImpl11SerialArenaE"
    }
   ],
   "return_type" : "_ZTIPv",
   "source_file" : "external/protobuf/src/google/protobuf/arena_impl.h"
  },
  {
   "function_name" : "google::protobuf::internal::ArenaImpl::SerialArena::SpaceUsed",
   "linker_set_key" : "_ZNK6google8protobuf8internal9ArenaImpl11SerialArena9SpaceUsedEv",
   "parameters" :
   [
    {
     "is_this_ptr" : true,
     "referenced_type" : "_ZTIPKN6google8protobuf8internal9ArenaImpl11SerialArenaE"
    }
   ],
   "return_type" : "_ZTIm",
   "source_file" : "external/protobuf/src/google/protobuf/arena_impl.h"
  },
  {
   "function_name" : "google::protobuf::internal::ArenaImpl::SpaceAllocated",
   "linker_set_key" : "_ZNK6google8protobuf8internal9ArenaImpl14SpaceAllocatedEv",
   "parameters" :
   [
    {
     "is_this_ptr" : true,
     "referenced_type" : "_ZTIPKN6google8protobuf8internal9ArenaImplE"
    }
   ],
   "return_type" : "_ZTIm",
   "source_file" : "external/protobuf/src/google/protobuf/arena_impl.h"
  },
  {
   "function_name" : "google::protobuf::internal::ArenaImpl::Block::pos",
   "linker_set_key" : "_ZNK6google8protobuf8internal9ArenaImpl5Block3posEv",
   "parameters" :
   [
    {
     "is_this_ptr" : true,
     "referenced_type" : "_ZTIPKN6google8protobuf8internal9ArenaImpl5BlockE"
    }
   ],
   "return_type" : "_ZTIm",
   "source_file" : "external/protobuf/src/google/protobuf/arena_impl.h"
  },
  {
   "function_name" : "google::protobuf::internal::ArenaImpl::Block::next",
   "linker_set_key" : "_ZNK6google8protobuf8internal9ArenaImpl5Block4nextEv",
   "parameters" :
   [
    {
     "is_this_ptr" : true,
     "referenced_type" : "_ZTIPKN6google8protobuf8internal9ArenaImpl5BlockE"
    }
   ],
   "return_type" : "_ZTIPN6google8protobuf8internal9ArenaImpl5BlockE",
   "source_file" : "external/protobuf/src/google/protobuf/arena_impl.h"
  },
  {
   "function_name" : "google::protobuf::internal::ArenaImpl::Block::size",
   "linker_set_key" : "_ZNK6google8protobuf8internal9ArenaImpl5Block4sizeEv",
   "parameters" :
   [
    {
     "is_this_ptr" : true,
     "referenced_type" : "_ZTIPKN6google8protobuf8internal9ArenaImpl5BlockE"
    }
   ],
   "return_type" : "_ZTIm",
   "source_file" : "external/protobuf/src/google/protobuf/arena_impl.h"
  },
  {
   "function_name" : "google::protobuf::internal::ArenaImpl::SpaceUsed",
   "linker_set_key" : "_ZNK6google8protobuf8internal9ArenaImpl9SpaceUsedEv",
   "parameters" :
   [
    {
     "is_this_ptr" : true,
     "referenced_type" : "_ZTIPKN6google8protobuf8internal9ArenaImplE"
    }
   ],
   "return_type" : "_ZTIm",
   "source_file" : "external/protobuf/src/google/protobuf/arena_impl.h"
  }
 ],
 "global_vars" :
 [
  {
   "access" : "private",
   "linker_set_key" : "_ZN6google8protobuf12ArenaOptions20kDefaultMaxBlockSizeE",
   "name" : "google::protobuf::ArenaOptions::kDefaultMaxBlockSize",
   "referenced_type" : "_ZTIKm",
   "source_file" : "external/protobuf/src/google/protobuf/arena.h"
  },
  {
   "access" : "private",
   "linker_set_key" : "_ZN6google8protobuf12ArenaOptions22kDefaultStartBlockSizeE",
   "name" : "google::protobuf::ArenaOptions::kDefaultStartBlockSize",
   "referenced_type" : "_ZTIKm",
   "source_file" : "external/protobuf/src/google/protobuf/arena.h"
  },
  {
   "linker_set_key" : "_ZN6google8protobuf5Arena14kBlockOverheadE",
   "name" : "google::protobuf::Arena::kBlockOverhead",
   "referenced_type" : "_ZTIKm",
   "source_file" : "external/protobuf/src/google/protobuf/arena.h"
  },
  {
   "linker_set_key" : "_ZN6google8protobuf8internal9ArenaImpl16kBlockHeaderSizeE",
   "name" : "google::protobuf::internal::ArenaImpl::kBlockHeaderSize",
   "referenced_type" : "_ZTIKm",
   "source_file" : "external/protobuf/src/google/protobuf/arena_impl.h"
  },
  {
   "linker_set_key" : "_ZN6google8protobuf8internal9ArenaImpl16kSerialArenaSizeE",
   "name" : "google::protobuf::internal::ArenaImpl::kSerialArenaSize",
   "referenced_type" : "_ZTIKm",
   "source_file" : "external/protobuf/src/google/protobuf/arena_impl.h"
  },
  {
   "access" : "private",
   "linker_set_key" : "_ZN6google8protobuf8internal9ArenaImpl23lifecycle_id_generator_E",
   "name" : "google::protobuf::internal::ArenaImpl::lifecycle_id_generator_",
   "referenced_type" : "_ZTINSt3__16atomicIlEE",
   "source_file" : "external/protobuf/src/google/protobuf/arena_impl.h"
  },
  {
   "linker_set_key" : "_ZN6google8protobuf8internalL26kMinHeaderVersionForProtocE",
   "name" : "google::protobuf::internal::kMinHeaderVersionForProtoc",
   "referenced_type" : "_ZTIKi",
   "source_file" : "external/protobuf/src/google/protobuf/stubs/common.h"
  },
  {
   "linker_set_key" : "_ZN6google8protobuf8internalL27kMinHeaderVersionForLibraryE",
   "name" : "google::protobuf::internal::kMinHeaderVersionForLibrary",
   "referenced_type" : "_ZTIKi",
   "source_file" : "external/protobuf/src/google/protobuf/stubs/common.h"
  },
  {
   "linker_set_key" : "_ZN6google8protobufL10kuint32maxE",
   "name" : "google::protobuf::kuint32max",
   "referenced_type" : "_ZTIKj",
   "source_file" : "external/protobuf/src/google/protobuf/stubs/port.h"
  },
  {
   "linker_set_key" : "_ZN6google8protobufL10kuint64maxE",
   "name" : "google::protobuf::kuint64max",
   "referenced_type" : "_ZTIKm",
   "source_file" : "external/protobuf/src/google/protobuf/stubs/port.h"
  },
  {
   "linker_set_key" : "_ZN6google8protobufL9kint32maxE",
   "name" : "google::protobuf::kint32max",
   "referenced_type" : "_ZTIKi",
   "source_file" : "external/protobuf/src/google/protobuf/stubs/port.h"
  },
  {
   "linker_set_key" : "_ZN6google8protobufL9kint32minE",
   "name" : "google::protobuf::kint32min",
   "referenced_type" : "_ZTIKi",
   "source_file" : "external/protobuf/src/google/protobuf/stubs/port.h"
  },
  {
   "linker_set_key" : "_ZN6google8protobufL9kint64maxE",
   "name" : "google::protobuf::kint64max",
   "referenced_type" : "_ZTIKl",
   "source_file" : "external/protobuf/src/google/protobuf/stubs/port.h"
  },
  {
   "linker_set_key" : "_ZN6google8protobufL9kint64minE",
   "name" : "google::protobuf::kint64min",
   "referenced_type" : "_ZTIKl",
   "source_file" : "external/protobuf/src/google/protobuf/stubs/port.h"
  }
 ],
 "lvalue_reference_types" :
 [
  {
   "alignment" : 8,
   "linker_set_key" : "_ZTIRKN6google8protobuf12ArenaOptionsE",
   "name" : "const google::protobuf::ArenaOptions &",
   "referenced_type" : "_ZTIKN6google8protobuf12ArenaOptionsE",
   "self_type" : "_ZTIRKN6google8protobuf12ArenaOptionsE",
   "size" : 8,
   "source_file" : "external/protobuf/src/google/protobuf/arena_impl.h"
  },
  {
   "alignment" : 8,
   "linker_set_key" : "_ZTIRKNSt3__112basic_stringIcNS_11char_traitsIcEENS_9allocatorIcEEEE",
   "name" : "const std::basic_string<char, std::char_traits<char>, std::allocator<char>> &",
   "referenced_type" : "_ZTIKNSt3__112basic_stringIcNS_11char_traitsIcEENS_9allocatorIcEEEE",
   "self_type" : "_ZTIRKNSt3__112basic_stringIcNS_11char_traitsIcEENS_9allocatorIcEEEE",
   "size" : 8,
   "source_file" : "external/protobuf/src/google/protobuf/stubs/common.h"
  },
  {
   "alignment" : 8,
   "linker_set_key" : "_ZTIRN6google8protobuf8internal9ArenaImpl11ThreadCacheE",
   "name" : "google::protobuf::internal::ArenaImpl::ThreadCache &",
   "referenced_type" : "_ZTIN6google8protobuf8internal9ArenaImpl11ThreadCacheE",
   "self_type" : "_ZTIRN6google8protobuf8internal9ArenaImpl11ThreadCacheE",
   "size" : 8,
   "source_file" : "external/protobuf/src/google/protobuf/arena_impl.h"
  }
 ],
 "pointer_types" :
 [
  {
   "alignment" : 8,
   "linker_set_key" : "_ZTIPFPvPN6google8protobuf5ArenaEE",
   "name" : "void *(*)(google::protobuf::Arena *)",
   "referenced_type" : "_ZTIFPvPN6google8protobuf5ArenaEE",
   "self_type" : "_ZTIPFPvPN6google8protobuf5ArenaEE",
   "size" : 8,
   "source_file" : "external/protobuf/src/google/protobuf/arena.h"
  },
  {
   "alignment" : 8,
   "linker_set_key" : "_ZTIPFPvmE",
   "name" : "void *(*)(unsigned long)",
   "referenced_type" : "_ZTIFPvmE",
   "self_type" : "_ZTIPFPvmE",
   "size" : 8,
   "source_file" : "external/protobuf/src/google/protobuf/arena_impl.h"
  },
  {
   "alignment" : 8,
   "linker_set_key" : "_ZTIPFvPKSt9type_infomPvE",
   "name" : "void (*)(const std::type_info *, unsigned long, void *)",
   "referenced_type" : "_ZTIFvPKSt9type_infomPvE",
   "self_type" : "_ZTIPFvPKSt9type_infomPvE",
   "size" : 8,
   "source_file" : "external/protobuf/src/google/protobuf/arena.h"
  },
  {
   "alignment" : 8,
   "linker_set_key" : "_ZTIPFvPN6google8protobuf5ArenaEPvmE",
   "name" : "void (*)(google::protobuf::Arena *, void *, unsigned long)",
   "referenced_type" : "_ZTIFvPN6google8protobuf5ArenaEPvmE",
   "self_type" : "_ZTIPFvPN6google8protobuf5ArenaEPvmE",
   "size" : 8,
   "source_file" : "external/protobuf/src/google/protobuf/arena.h"
  },
  {
   "alignment" : 8,
   "linker_set_key" : "_ZTIPFvPvE",
   "name" : "void (*)(void *)",
   "referenced_type" : "_ZTIFvPvE",
   "self_type" : "_ZTIPFvPvE",
   "size" : 8,
   "source_file" : "external/protobuf/src/google/protobuf/arena_impl.h"
  },
  {
   "alignment" : 8,
   "linker_set_key" : "_ZTIPFvPvmE",
   "name" : "void (*)(void *, unsigned long)",
   "referenced_type" : "_ZTIFvPvmE",
   "self_type" : "_ZTIPFvPvmE",
   "size" : 8,
   "source_file" : "external/protobuf/src/google/protobuf/arena_impl.h"
  },
  {
   "alignment" : 8,
   "linker_set_key" : "_ZTIPKN6google8protobuf5ArenaE",
   "name" : "const google::protobuf::Arena *",
   "referenced_type" : "_ZTIKN6google8protobuf5ArenaE",
   "self_type" : "_ZTIPKN6google8protobuf5ArenaE",
   "size" : 8,
   "source_file" : "external/protobuf/src/google/protobuf/arena.h"
  },
  {
   "alignment" : 8,
   "linker_set_key" : "_ZTIPKN6google8protobuf8internal12WrappedMutexE",
   "name" : "const google::protobuf::internal::WrappedMutex *",
   "referenced_type" : "_ZTIKN6google8protobuf8internal12WrappedMutexE",
   "self_type" : "_ZTIPKN6google8protobuf8internal12WrappedMutexE",
   "size" : 8,
   "source_file" : "external/protobuf/src/google/protobuf/stubs/mutex.h"
  },
  {
   "alignment" : 8,
   "linker_set_key" : "_ZTIPKN6google8protobuf8internal9ArenaImpl11SerialArenaE",
   "name" : "const google::protobuf::internal::ArenaImpl::SerialArena *",
   "referenced_type" : "_ZTIKN6google8protobuf8internal9ArenaImpl11SerialArenaE",
   "self_type" : "_ZTIPKN6google8protobuf8internal9ArenaImpl11SerialArenaE",
   "size" : 8,
   "source_file" : "external/protobuf/src/google/protobuf/arena_impl.h"
  },
  {
   "alignment" : 8,
   "linker_set_key" : "_ZTIPKN6google8protobuf8internal9ArenaImpl5BlockE",
   "name" : "const google::protobuf::internal::ArenaImpl::Block *",
   "referenced_type" : "_ZTIKN6google8protobuf8internal9ArenaImpl5BlockE",
   "self_type" : "_ZTIPKN6google8protobuf8internal9ArenaImpl5BlockE",
   "size" : 8,
   "source_file" : "external/protobuf/src/google/protobuf/arena_impl.h"
  },
  {
   "alignment" : 8,
   "linker_set_key" : "_ZTIPKN6google8protobuf8internal9ArenaImplE",
   "name" : "const google::protobuf::internal::ArenaImpl *",
   "referenced_type" : "_ZTIKN6google8protobuf8internal9ArenaImplE",
   "self_type" : "_ZTIPKN6google8protobuf8internal9ArenaImplE",
   "size" : 8,
   "source_file" : "external/protobuf/src/google/protobuf/arena_impl.h"
  },
  {
   "alignment" : 8,
   "linker_set_key" : "_ZTIPKSt9type_info",
   "name" : "const std::type_info *",
   "referenced_type" : "_ZTIKSt9type_info",
   "self_type" : "_ZTIPKSt9type_info",
   "size" : 8,
   "source_file" : "external/protobuf/src/google/protobuf/arena.h"
  },
  {
   "alignment" : 8,
   "linker_set_key" : "_ZTIPKc",
   "name" : "const char *",
   "referenced_type" : "_ZTIKc",
   "self_type" : "_ZTIPKc",
   "size" : 8,
   "source_file" : "external/protobuf/src/google/protobuf/stubs/logging.h"
  },
  {
   "alignment" : 8,
   "linker_set_key" : "_ZTIPKv",
   "name" : "const void *",
   "referenced_type" : "_ZTIKv",
   "self_type" : "_ZTIPKv",
   "size" : 8,
   "source_file" : "external/protobuf/src/google/protobuf/stubs/port.h"
  },
  {
   "alignment" : 8,
   "linker_set_key" : "_ZTIPN6google8protobuf12ArenaOptionsE",
   "name" : "google::protobuf::ArenaOptions *",
   "referenced_type" : "_ZTIN6google8protobuf12ArenaOptionsE",
   "self_type" : "_ZTIPN6google8protobuf12ArenaOptionsE",
   "size" : 8,
   "source_file" : "external/protobuf/src/google/protobuf/arena.h"
  },
  {
   "alignment" : 8,
   "linker_set_key" : "_ZTIPN6google8protobuf5ArenaE",
   "name" : "google::protobuf::Arena *",
   "referenced_type" : "_ZTIN6google8protobuf5ArenaE",
   "self_type" : "_ZTIPN6google8protobuf5ArenaE",
   "size" : 8,
   "source_file" : "external/protobuf/src/google/protobuf/arena.h"
  },
  {
   "alignment" : 8,
   "linker_set_key" : "_ZTIPN6google8protobuf8internal12WrappedMutexE",
   "name" : "google::protobuf::internal::WrappedMutex *",
   "referenced_type" : "_ZTIN6google8protobuf8internal12WrappedMutexE",
   "self_type" : "_ZTIPN6google8protobuf8internal12WrappedMutexE",
   "size" : 8,
   "source_file" : "external/protobuf/src/google/protobuf/stubs/mutex.h"
  },
  {
   "alignment" : 8,
   "linker_set_key" : "_ZTIPN6google8protobuf8internal14MutexLockMaybeE",
   "name" : "google::protobuf::internal::MutexLockMaybe *",
   "referenced_type" : "_ZTIN6google8protobuf8internal14MutexLockMaybeE",
   "self_type" : "_ZTIPN6google8protobuf8internal14MutexLockMaybeE",
   "size" : 8,
   "source_file" : "external/protobuf/src/google/protobuf/stubs/mutex.h"
  },
  {
   "alignment" : 8,
   "linker_set_key" : "_ZTIPN6google8protobuf8internal18ThreadLocalStorageINS1_9ArenaImpl11ThreadCacheEEE",
   "name" : "google::protobuf::internal::ThreadLocalStorage<google::protobuf::internal::ArenaImpl::ThreadCache> *",
   "referenced_type" : "_ZTIN6google8protobuf8internal18ThreadLocalStorageINS1_9ArenaImpl11ThreadCacheEEE",
   "self_type" : "_ZTIPN6google8protobuf8internal18ThreadLocalStorageINS1_9ArenaImpl11ThreadCacheEEE",
   "size" : 8,
   "source_file" : "external/protobuf/src/google/protobuf/stubs/mutex.h"
  },
  {
   "alignment" : 8,
   "linker_set_key" : "_ZTIPN6google8protobuf8internal9ArenaImpl11CleanupNodeE",
   "name" : "google::protobuf::internal::ArenaImpl::CleanupNode *",
   "referenced_type" : "_ZTIN6google8protobuf8internal9ArenaImpl11CleanupNodeE",
   "self_type" : "_ZTIPN6google8protobuf8internal9ArenaImpl11CleanupNodeE",
   "size" : 8,
   "source_file" : "external/protobuf/src/google/protobuf/arena_impl.h"
  },
  {
   "alignment" : 8,
   "linker_set_key" : "_ZTIPN6google8protobuf8internal9ArenaImpl11SerialArenaE",
   "name" : "google::protobuf::internal::ArenaImpl::SerialArena *",
   "referenced_type" : "_ZTIN6google8protobuf8internal9ArenaImpl11SerialArenaE",
   "self_type" : "_ZTIPN6google8protobuf8internal9ArenaImpl11SerialArenaE",
   "size" : 8,
   "source_file" : "external/protobuf/src/google/protobuf/arena_impl.h"
  },
  {
   "alignment" : 8,
   "linker_set_key" : "_ZTIPN6google8protobuf8internal9ArenaImpl11ThreadCacheE",
   "name" : "google::protobuf::internal::ArenaImpl::ThreadCache *",
   "referenced_type" : "_ZTIN6google8protobuf8internal9ArenaImpl11ThreadCacheE",
   "self_type" : "_ZTIPN6google8protobuf8internal9ArenaImpl11ThreadCacheE",
   "size" : 8,
   "source_file" : "external/protobuf/src/google/protobuf/arena_impl.h"
  },
  {
   "alignment" : 8,
   "linker_set_key" : "_ZTIPN6google8protobuf8internal9ArenaImpl12CleanupChunkE",
   "name" : "google::protobuf::internal::ArenaImpl::CleanupChunk *",
   "referenced_type" : "_ZTIN6google8protobuf8internal9ArenaImpl12CleanupChunkE",
   "self_type" : "_ZTIPN6google8protobuf8internal9ArenaImpl12CleanupChunkE",
   "size" : 8,
   "source_file" : "external/protobuf/src/google/protobuf/arena_impl.h"
  },
  {
   "alignment" : 8,
   "linker_set_key" : "_ZTIPN6google8protobuf8internal9ArenaImpl5BlockE",
   "name" : "google::protobuf::internal::ArenaImpl::Block *",
   "referenced_type" : "_ZTIN6google8protobuf8internal9ArenaImpl5BlockE",
   "self_type" : "_ZTIPN6google8protobuf8internal9ArenaImpl5BlockE",
   "size" : 8,
   "source_file" : "external/protobuf/src/google/protobuf/arena_impl.h"
  },
  {
   "alignment" : 8,
   "linker_set_key" : "_ZTIPN6google8protobuf8internal9ArenaImpl7OptionsE",
   "name" : "google::protobuf::internal::ArenaImpl::Options *",
   "referenced_type" : "_ZTIN6google8protobuf8internal9ArenaImpl7OptionsE",
   "self_type" : "_ZTIPN6google8protobuf8internal9ArenaImpl7OptionsE",
   "size" : 8,
   "source_file" : "external/protobuf/src/google/protobuf/arena_impl.h"
  },
  {
   "alignment" : 8,
   "linker_set_key" : "_ZTIPN6google8protobuf8internal9ArenaImplE",
   "name" : "google::protobuf::internal::ArenaImpl *",
   "referenced_type" : "_ZTIN6google8protobuf8internal9ArenaImplE",
   "self_type" : "_ZTIPN6google8protobuf8internal9ArenaImplE",
   "size" : 8,
   "source_file" : "external/protobuf/src/google/protobuf/arena_impl.h"
  },
  {
   "alignment" : 8,
   "linker_set_key" : "_ZTIPN6google8protobuf8internal9MutexLockE",
   "name" : "google::protobuf::internal::MutexLock *",
   "referenced_type" : "_ZTIN6google8protobuf8internal9MutexLockE",
   "self_type" : "_ZTIPN6google8protobuf8internal9MutexLockE",
   "size" : 8,
   "source_file" : "external/protobuf/src/google/protobuf/stubs/mutex.h"
  },
  {
   "alignment" : 8,
   "linker_set_key" : "_ZTIPPN6google8protobuf8internal9ArenaImpl11SerialArenaE",
   "name" : "google::protobuf::internal::ArenaImpl::SerialArena **",
   "referenced_type" : "_ZTIPN6google8protobuf8internal9ArenaImpl11SerialArenaE",
   "self_type" : "_ZTIPPN6google8protobuf8internal9ArenaImpl11SerialArenaE",
   "size" : 8,
   "source_file" : "external/protobuf/src/google/protobuf/arena_impl.h"
  },
  {
   "alignment" : 8,
   "linker_set_key" : "_ZTIPc",
   "name" : "char *",
   "referenced_type" : "_ZTIc",
   "self_type" : "_ZTIPc",
   "size" : 8,
   "source_file" : "external/protobuf/src/google/protobuf/arena_impl.h"
  },
  {
   "alignment" : 8,
   "linker_set_key" : "_ZTIPv",
   "name" : "void *",
   "referenced_type" : "_ZTIv",
   "self_type" : "_ZTIPv",
   "size" : 8,
   "source_file" : "external/protobuf/src/google/protobuf/stubs/port.h"
  }
 ],
 "qualified_types" :
 [
  {
   "alignment" : 8,
   "is_const" : true,
   "linker_set_key" : "_ZTIKN6google8protobuf12ArenaOptionsE",
   "name" : "const google::protobuf::ArenaOptions",
   "referenced_type" : "_ZTIN6google8protobuf12ArenaOptionsE",
   "self_type" : "_ZTIKN6google8protobuf12ArenaOptionsE",
   "size" : 80,
   "source_file" : "external/protobuf/src/google/protobuf/arena_impl.h"
  },
  {
   "alignment" : 8,
   "is_const" : true,
   "linker_set_key" : "_ZTIKN6google8protobuf5ArenaE",
   "name" : "const google::protobuf::Arena",
   "referenced_type" : "_ZTIN6google8protobuf5ArenaE",
   "self_type" : "_ZTIKN6google8protobuf5ArenaE",
   "size" : 120,
   "source_file" : "external/protobuf/src/google/protobuf/arena.h"
  },
  {
   "alignment" : 4,
   "is_const" : true,
   "linker_set_key" : "_ZTIKN6google8protobuf8internal12WrappedMutexE",
   "name" : "const google::protobuf::internal::WrappedMutex",
   "referenced_type" : "_ZTIN6google8protobuf8internal12WrappedMutexE",
   "self_type" : "_ZTIKN6google8protobuf8internal12WrappedMutexE",
   "size" : 40,
   "source_file" : "external/protobuf/src/google/protobuf/stubs/mutex.h"
  },
  {
   "alignment" : 8,
   "is_const" : true,
   "linker_set_key" : "_ZTIKN6google8protobuf8internal9ArenaImpl11SerialArenaE",
   "name" : "const google::protobuf::internal::ArenaImpl::SerialArena",
   "referenced_type" : "_ZTIN6google8protobuf8internal9ArenaImpl11SerialArenaE",
   "self_type" : "_ZTIKN6google8protobuf8internal9ArenaImpl11SerialArenaE",
   "size" : 72,
   "source_file" : "external/protobuf/src/google/protobuf/arena_impl.h"
  },
  {
   "alignment" : 8,
   "is_const" : true,
   "linker_set_key" : "_ZTIKN6google8protobuf8internal9ArenaImpl5BlockE",
   "name" : "const google::protobuf::internal::ArenaImpl::Block",
   "referenced_type" : "_ZTIN6google8protobuf8internal9ArenaImpl5BlockE",
   "self_type" : "_ZTIKN6google8protobuf8internal9ArenaImpl5BlockE",
   "size" : 24,
   "source_file" : "external/protobuf/src/google/protobuf/arena_impl.h"
  },
  {
   "alignment" : 8,
   "is_const" : true,
   "linker_set_key" : "_ZTIKN6google8protobuf8internal9ArenaImplE",
   "name" : "const google::protobuf::internal::ArenaImpl",
   "referenced_type" : "_ZTIN6google8protobuf8internal9ArenaImplE",
   "self_type" : "_ZTIKN6google8protobuf8internal9ArenaImplE",
   "size" : 88,
   "source_file" : "external/protobuf/src/google/protobuf/arena_impl.h"
  },
  {
   "alignment" : 8,
   "is_const" : true,
   "linker_set_key" : "_ZTIKNSt3__112basic_stringIcNS_11char_traitsIcEENS_9allocatorIcEEEE",
   "name" : "const std::basic_string<char, std::char_traits<char>, std::allocator<char>>",
   "referenced_type" : "_ZTINSt3__112basic_stringIcNS_11char_traitsIcEENS_9allocatorIcEEEE",
   "self_type" : "_ZTIKNSt3__112basic_stringIcNS_11char_traitsIcEENS_9allocatorIcEEEE",
   "size" : 24,
   "source_file" : "external/protobuf/src/google/protobuf/stubs/common.h"
  },
  {
   "alignment" : 8,
   "is_const" : true,
   "linker_set_key" : "_ZTIKPN6google8protobuf8internal12WrappedMutexE",
   "name" : "google::protobuf::internal::WrappedMutex *const",
   "referenced_type" : "_ZTIPN6google8protobuf8internal12WrappedMutexE",
   "self_type" : "_ZTIKPN6google8protobuf8internal12WrappedMutexE",
   "size" : 8,
   "source_file" : "external/protobuf/src/google/protobuf/stubs/mutex.h"
  },
  {
   "alignment" : 8,
   "is_const" : true,
   "linker_set_key" : "_ZTIKSt9type_info",
   "name" : "const std::type_info",
   "referenced_type" : "_ZTISt9type_info",
   "self_type" : "_ZTIKSt9type_info",
   "size" : 16,
   "source_file" : "external/protobuf/src/google/protobuf/arena.h"
  },
  {
   "alignment" : 1,
   "is_const" : true,
   "linker_set_key" : "_ZTIKc",
   "name" : "const char",
   "referenced_type" : "_ZTIc",
   "self_type" : "_ZTIKc",
   "size" : 1,
   "source_file" : "external/protobuf/src/google/protobuf/stubs/logging.h"
  },
  {
   "alignment" : 4,
   "is_const" : true,
   "linker_set_key" : "_ZTIKi",
   "name" : "const int",
   "referenced_type" : "_ZTIi",
   "self_type" : "_ZTIKi",
   "size" : 4,
   "source_file" : "external/protobuf/src/google/protobuf/stubs/port.h"
  },
  {
   "alignment" : 4,
   "is_const" : true,
   "linker_set_key" : "_ZTIKj",
   "name" : "const unsigned int",
   "referenced_type" : "_ZTIj",
   "self_type" : "_ZTIKj",
   "size" : 4,
   "source_file" : "external/protobuf/src/google/protobuf/stubs/port.h"
  },
  {
   "alignment" : 8,
   "is_const" : true,
   "linker_set_key" : "_ZTIKl",
   "name" : "const long",
   "referenced_type" : "_ZTIl",
   "self_type" : "_ZTIKl",
   "size" : 8,
   "source_file" : "external/protobuf/src/google/protobuf/stubs/port.h"
  },
  {
   "alignment" : 8,
   "is_const" : true,
   "linker_set_key" : "_ZTIKm",
   "name" : "const unsigned long",
   "referenced_type" : "_ZTIm",
   "self_type" : "_ZTIKm",
   "size" : 8,
   "source_file" : "external/protobuf/src/google/protobuf/stubs/port.h"
  },
  {
   "is_const" : true,
   "linker_set_key" : "_ZTIKv",
   "name" : "const void",
   "referenced_type" : "_ZTIv",
   "self_type" : "_ZTIKv",
   "source_file" : "external/protobuf/src/google/protobuf/stubs/port.h"
  }
 ],
 "record_types" :
 [
  {
   "alignment" : 1,
   "linker_set_key" : "_ZTIN6google8protobuf11LogSilencerE",
   "name" : "google::protobuf::LogSilencer",
   "record_kind" : "class",
   "referenced_type" : "_ZTIN6google8protobuf11LogSilencerE",
   "self_type" : "_ZTIN6google8protobuf11LogSilencerE",
   "size" : 1,
   "source_file" : "external/protobuf/src/google/protobuf/stubs/logging.h"
  },
  {
   "alignment" : 8,
   "fields" :
   [
    {
     "field_name" : "start_block_size",
     "referenced_type" : "_ZTIm"
    },
    {
     "field_name" : "max_block_size",
     "field_offset" : 64,
     "referenced_type" : "_ZTIm"
    },
    {
     "field_name" : "initial_block",
     "field_offset" : 128,
     "referenced_type" : "_ZTIPc"
    },
    {
     "field_name" : "initial_block_size",
     "field_offset" : 192,
     "referenced_type" : "_ZTIm"
    },
    {
     "field_name" : "block_alloc",
     "field_offset" : 256,
     "referenced_type" : "_ZTIPFPvmE"
    },
    {
     "field_name" : "block_dealloc",
     "field_offset" : 320,
     "referenced_type" : "_ZTIPFvPvmE"
    },
    {
     "access" : "private",
     "field_name" : "on_arena_init",
     "field_offset" : 384,
     "referenced_type" : "_ZTIPFPvPN6google8protobuf5ArenaEE"
    },
    {
     "access" : "private",
     "field_name" : "on_arena_reset",
     "field_offset" : 448,
     "referenced_type" : "_ZTIPFvPN6google8protobuf5ArenaEPvmE"
    },
    {
     "access" : "private",
     "field_name" : "on_arena_destruction",
     "field_offset" : 512,
     "referenced_type" : "_ZTIPFvPN6google8protobuf5ArenaEPvmE"
    },
    {
     "access" : "private",
     "field_name" : "on_arena_allocation",
     "field_offset" : 576,
     "referenced_type" : "_ZTIPFvPKSt9type_infomPvE"
    }
   ],
   "linker_set_key" : "_ZTIN6google8protobuf12ArenaOptionsE",
   "name" : "google::protobuf::ArenaOptions",
   "referenced_type" : "_ZTIN6google8protobuf12ArenaOptionsE",
   "self_type" : "_ZTIN6google8protobuf12ArenaOptionsE",
   "size" : 80,
   "source_file" : "external/protobuf/src/google/protobuf/arena.h"
  },
  {
   "alignment" : 1,
   "linker_set_key" : "_ZTIN6google8protobuf4BitsE",
   "name" : "google::protobuf::Bits",
   "record_kind" : "class",
   "referenced_type" : "_ZTIN6google8protobuf4BitsE",
   "self_type" : "_ZTIN6google8protobuf4BitsE",
   "size" : 1,
   "source_file" : "external/protobuf/src/google/protobuf/stubs/port.h"
  },
  {
   "alignment" : 8,
   "fields" :
   [
    {
     "access" : "private",
     "field_name" : "impl_",
     "referenced_type" : "_ZTIN6google8protobuf8internal9ArenaImplE"
    },
    {
     "access" : "private",
     "field_name" : "on_arena_allocation_",
     "field_offset" : 704,
     "referenced_type" : "_ZTIPFvPKSt9type_infomPvE"
    },
    {
     "access" : "private",
     "field_name" : "on_arena_reset_",
     "field_offset" : 768,
     "referenced_type" : "_ZTIPFvPN6google8protobuf5ArenaEPvmE"
    },
    {
     "access" : "private",
     "field_name" : "on_arena_destruction_",
     "field_offset" : 832,
     "referenced_type" : "_ZTIPFvPN6google8protobuf5ArenaEPvmE"
    },
    {
     "access" : "private",
     "field_name" : "hooks_cookie_",
     "field_offset" : 896,
     "referenced_type" : "_ZTIPv"
    }
   ],
   "linker_set_key" : "_ZTIN6google8protobuf5ArenaE",
   "name" : "google::protobuf::Arena",
   "record_kind" : "class",
   "referenced_type" : "_ZTIN6google8protobuf5ArenaE",
   "self_type" : "_ZTIN6google8protobuf5ArenaE",
   "size" : 120,
   "source_file" : "external/protobuf/src/google/protobuf/arena.h"
  },
  {
   "alignment" : 8,
   "fields" :
   [
    {
     "access" : "private",
     "field_name" : "level_",
     "referenced_type" : "_ZTIN6google8protobuf8LogLevelE"
    },
    {
     "access" : "private",
     "field_name" : "filename_",
     "field_offset" : 64,
     "referenced_type" : "_ZTIPKc"
    },
    {
     "access" : "private",
     "field_name" : "line_",
     "field_offset" : 128,
     "referenced_type" : "_ZTIi"
    },
    {
     "access" : "private",
     "field_name" : "message_",
     "field_offset" : 192,
     "referenced_type" : "_ZTINSt3__112basic_stringIcNS_11char_traitsIcEENS_9allocatorIcEEEE"
    }
   ],
   "linker_set_key" : "_ZTIN6google8protobuf8internal10LogMessageE",
   "name" : "google::protobuf::internal::LogMessage",
   "record_kind" : "class",
   "referenced_type" : "_ZTIN6google8protobuf8internal10LogMessageE",
   "self_type" : "_ZTIN6google8protobuf8internal10LogMessageE",
   "size" : 48,
   "source_file" : "external/protobuf/src/google/protobuf/stubs/logging.h"
  },
  {
   "alignment" : 1,
   "linker_set_key" : "_ZTIN6google8protobuf8internal11LogFinisherE",
   "name" : "google::protobuf::internal::LogFinisher",
   "record_kind" : "class",
   "referenced_type" : "_ZTIN6google8protobuf8internal11LogFinisherE",
   "self_type" : "_ZTIN6google8protobuf8internal11LogFinisherE",
   "size" : 1,
   "source_file" : "external/protobuf/src/google/protobuf/stubs/logging.h"
  },
  {
   "alignment" : 4,
   "fields" :
   [
    {
     "access" : "private",
     "field_name" : "mu_",
     "referenced_type" : "_ZTINSt3__15mutexE"
    }
   ],
   "linker_set_key" : "_ZTIN6google8protobuf8internal12WrappedMutexE",
   "name" : "google::protobuf::internal::WrappedMutex",
   "record_kind" : "class",
   "referenced_type" : "_ZTIN6google8protobuf8internal12WrappedMutexE",
   "self_type" : "_ZTIN6google8protobuf8internal12WrappedMutexE",
   "size" : 40,
   "source_file" : "external/protobuf/src/google/protobuf/stubs/mutex.h"
  },
  {
   "alignment" : 8,
   "fields" :
   [
    {
     "access" : "private",
     "field_name" : "mu_",
     "referenced_type" : "_ZTIKPN6google8protobuf8internal12WrappedMutexE"
    }
   ],
   "linker_set_key" : "_ZTIN6google8protobuf8internal14MutexLockMaybeE",
   "name" : "google::protobuf::internal::MutexLockMaybe",
   "record_kind" : "class",
   "referenced_type" : "_ZTIN6google8protobuf8internal14MutexLockMaybeE",
   "self_type" : "_ZTIN6google8protobuf8internal14MutexLockMaybeE",
   "size" : 8,
   "source_file" : "external/protobuf/src/google/protobuf/stubs/mutex.h"
  },
  {
   "alignment" : 4,
   "fields" :
   [
    {
     "access" : "private",
     "field_name" : "key_",
     "referenced_type" : "_ZTIi"
    }
   ],
   "linker_set_key" : "_ZTIN6google8protobuf8internal18ThreadLocalStorageINS1_9ArenaImpl11ThreadCacheEEE",
   "name" : "google::protobuf::internal::ThreadLocalStorage<google::protobuf::internal::ArenaImpl::ThreadCache>",
   "record_kind" : "class",
   "referenced_type" : "_ZTIN6google8protobuf8internal18ThreadLocalStorageINS1_9ArenaImpl11ThreadCacheEEE",
   "self_type" : "_ZTIN6google8protobuf8internal18ThreadLocalStorageINS1_9ArenaImpl11ThreadCacheEEE",
   "size" : 4,
   "source_file" : "external/protobuf/src/google/protobuf/stubs/mutex.h",
   "template_args" : [ "_ZTIN6google8protobuf8internal9ArenaImpl11ThreadCacheE" ]
  },
  {
   "access" : "private",
   "alignment" : 8,
   "fields" :
   [
    {
     "field_name" : "elem",
     "referenced_type" : "_ZTIPv"
    },
    {
     "field_name" : "cleanup",
     "field_offset" : 64,
     "referenced_type" : "_ZTIPFvPvE"
    }
   ],
   "linker_set_key" : "_ZTIN6google8protobuf8internal9ArenaImpl11CleanupNodeE",
   "name" : "google::protobuf::internal::ArenaImpl::CleanupNode",
   "referenced_type" : "_ZTIN6google8protobuf8internal9ArenaImpl11CleanupNodeE",
   "self_type" : "_ZTIN6google8protobuf8internal9ArenaImpl11CleanupNodeE",
   "size" : 16,
   "source_file" : "external/protobuf/src/google/protobuf/arena_impl.h"
  },
  {
   "access" : "private",
   "alignment" : 8,
   "fields" :
   [
    {
     "access" : "private",
     "field_name" : "arena_",
     "referenced_type" : "_ZTIPN6google8protobuf8internal9ArenaImplE"
    },
    {
     "access" : "private",
     "field_name" : "owner_",
     "field_offset" : 64,
     "referenced_type" : "_ZTIPv"
    },
    {
     "access" : "private",
     "field_name" : "head_",
     "field_offset" : 128,
     "referenced_type" : "_ZTIPN6google8protobuf8internal9ArenaImpl5BlockE"
    },
    {
     "access" : "private",
     "field_name" : "cleanup_",
     "field_offset" : 192,
     "referenced_type" : "_ZTIPN6google8protobuf8internal9ArenaImpl12CleanupChunkE"
    },
    {
     "access" : "private",
     "field_name" : "next_",
     "field_offset" : 256,
     "referenced_type" : "_ZTIPN6google8protobuf8internal9ArenaImpl11SerialArenaE"
    },
    {
     "access" : "private",
     "field_name" : "ptr_",
     "field_offset" : 320,
     "referenced_type" : "_ZTIPc"
    },
    {
     "access" : "private",
     "field_name" : "limit_",
     "field_offset" : 384,
     "referenced_type" : "_ZTIPc"
    },
    {
     "access" : "private",
     "field_name" : "cleanup_ptr_",
     "field_offset" : 448,
     "referenced_type" : "_ZTIPN6google8protobuf8internal9ArenaImpl11CleanupNodeE"
    },
    {
     "access" : "private",
     "field_name" : "cleanup_limit_",
     "field_offset" : 512,
     "referenced_type" : "_ZTIPN6google8protobuf8internal9ArenaImpl11CleanupNodeE"
    }
   ],
   "linker_set_key" : "_ZTIN6google8protobuf8internal9ArenaImpl11SerialArenaE",
   "name" : "google::protobuf::internal::ArenaImpl::SerialArena",
   "record_kind" : "class",
   "referenced_type" : "_ZTIN6google8protobuf8internal9ArenaImpl11SerialArenaE",
   "self_type" : "_ZTIN6google8protobuf8internal9ArenaImpl11SerialArenaE",
   "size" : 72,
   "source_file" : "external/protobuf/src/google/protobuf/arena_impl.h"
  },
  {
   "access" : "private",
   "alignment" : 8,
   "fields" :
   [
    {
     "field_name" : "last_lifecycle_id_seen",
     "referenced_type" : "_ZTIl"
    },
    {
     "field_name" : "last_serial_arena",
     "field_offset" : 64,
     "referenced_type" : "_ZTIPN6google8protobuf8internal9ArenaImpl11SerialArenaE"
    }
   ],
   "linker_set_key" : "_ZTIN6google8protobuf8internal9ArenaImpl11ThreadCacheE",
   "name" : "google::protobuf::internal::ArenaImpl::ThreadCache",
   "referenced_type" : "_ZTIN6google8protobuf8internal9ArenaImpl11ThreadCacheE",
   "self_type" : "_ZTIN6google8protobuf8internal9ArenaImpl11ThreadCacheE",
   "size" : 16,
   "source_file" : "external/protobuf/src/google/protobuf/arena_impl.h"
  },
  {
   "access" : "private",
   "alignment" : 8,
   "fields" :
   [
    {
     "field_name" : "size",
     "referenced_type" : "_ZTIm"
    },
    {
     "field_name" : "next",
     "field_offset" : 64,
     "referenced_type" : "_ZTIPN6google8protobuf8internal9ArenaImpl12CleanupChunkE"
    },
    {
     "field_name" : "nodes",
     "field_offset" : 128,
     "referenced_type" : "_ZTIA1_N6google8protobuf8internal9ArenaImpl11CleanupNodeE"
    }
   ],
   "linker_set_key" : "_ZTIN6google8protobuf8internal9ArenaImpl12CleanupChunkE",
   "name" : "google::protobuf::internal::ArenaImpl::CleanupChunk",
   "referenced_type" : "_ZTIN6google8protobuf8internal9ArenaImpl12CleanupChunkE",
   "self_type" : "_ZTIN6google8protobuf8internal9ArenaImpl12CleanupChunkE",
   "size" : 32,
   "source_file" : "external/protobuf/src/google/protobuf/arena_impl.h"
  },
  {
   "access" : "private",
   "alignment" : 8,
   "fields" :
   [
    {
     "access" : "private",
     "field_name" : "next_",
     "referenced_type" : "_ZTIPN6google8protobuf8internal9ArenaImpl5BlockE"
    },
    {
     "access" : "private",
     "field_name" : "pos_",
     "field_offset" : 64,
     "referenced_type" : "_ZTIm"
    },
    {
     "access" : "private",
     "field_name" : "size_",
     "field_offset" : 128,
     "referenced_type" : "_ZTIm"
    }
   ],
   "linker_set_key" : "_ZTIN6google8protobuf8internal9ArenaImpl5BlockE",
   "name" : "google::protobuf::internal::ArenaImpl::Block",
   "record_kind" : "class",
   "referenced_type" : "_ZTIN6google8protobuf8internal9ArenaImpl5BlockE",
   "self_type" : "_ZTIN6google8protobuf8internal9ArenaImpl5BlockE",
   "size" : 24,
   "source_file" : "external/protobuf/src/google/protobuf/arena_impl.h"
  },
  {
   "alignment" : 8,
   "fields" :
   [
    {
     "field_name" : "start_block_size",
     "referenced_type" : "_ZTIm"
    },
    {
     "field_name" : "max_block_size",
     "field_offset" : 64,
     "referenced_type" : "_ZTIm"
    },
    {
     "field_name" : "initial_block",
     "field_offset" : 128,
     "referenced_type" : "_ZTIPc"
    },
    {
     "field_name" : "initial_block_size",
     "field_offset" : 192,
     "referenced_type" : "_ZTIm"
    },
    {
     "field_name" : "block_alloc",
     "field_offset" : 256,
     "referenced_type" : "_ZTIPFPvmE"
    },
    {
     "field_name" : "block_dealloc",
     "field_offset" : 320,
     "referenced_type" : "_ZTIPFvPvmE"
    }
   ],
   "linker_set_key" : "_ZTIN6google8protobuf8internal9ArenaImpl7OptionsE",
   "name" : "google::protobuf::internal::ArenaImpl::Options",
   "referenced_type" : "_ZTIN6google8protobuf8internal9ArenaImpl7OptionsE",
   "self_type" : "_ZTIN6google8protobuf8internal9ArenaImpl7OptionsE",
   "size" : 48,
   "source_file" : "external/protobuf/src/google/protobuf/arena_impl.h"
  },
  {
   "alignment" : 8,
   "fields" :
   [
    {
     "access" : "private",
     "field_name" : "threads_",
     "referenced_type" : "_ZTINSt3__16atomicIPN6google8protobuf8internal9ArenaImpl11SerialArenaEEE"
    },
    {
     "access" : "private",
     "field_name" : "hint_",
     "field_offset" : 64,
     "referenced_type" : "_ZTINSt3__16atomicIPN6google8protobuf8internal9ArenaImpl11SerialArenaEEE"
    },
    {
     "access" : "private",
     "field_name" : "space_allocated_",
     "field_offset" : 128,
     "referenced_type" : "_ZTINSt3__16atomicImEE"
    },
    {
     "access" : "private",
     "field_name" : "initial_block_",
     "field_offset" : 192,
     "referenced_type" : "_ZTIPN6google8protobuf8internal9ArenaImpl5BlockE"
    },
    {
     "access" : "private",
     "field_name" : "lifecycle_id_",
     "field_offset" : 256,
     "referenced_type" : "_ZTIl"
    },
    {
     "access" : "private",
     "field_name" : "options_",
     "field_offset" : 320,
     "referenced_type" : "_ZTIN6google8protobuf8internal9ArenaImpl7OptionsE"
    }
   ],
   "linker_set_key" : "_ZTIN6google8protobuf8internal9ArenaImplE",
   "name" : "google::protobuf::internal::ArenaImpl",
   "record_kind" : "class",
   "referenced_type" : "_ZTIN6google8protobuf8internal9ArenaImplE",
   "self_type" : "_ZTIN6google8protobuf8internal9ArenaImplE",
   "size" : 88,
   "source_file" : "external/protobuf/src/google/protobuf/arena_impl.h"
  },
  {
   "alignment" : 8,
   "fields" :
   [
    {
     "access" : "private",
     "field_name" : "mu_",
     "referenced_type" : "_ZTIKPN6google8protobuf8internal12WrappedMutexE"
    }
   ],
   "linker_set_key" : "_ZTIN6google8protobuf8internal9MutexLockE",
   "name" : "google::protobuf::internal::MutexLock",
   "record_kind" : "class",
   "referenced_type" : "_ZTIN6google8protobuf8internal9MutexLockE",
   "self_type" : "_ZTIN6google8protobuf8internal9MutexLockE",
   "size" : 8,
   "source_file" : "external/protobuf/src/google/protobuf/stubs/mutex.h"
  },
  {
   "alignment" : 1,
   "linker_set_key" : "_ZTIN6google8protobuf9BigEndianE",
   "name" : "google::protobuf::BigEndian",
   "record_kind" : "class",
   "referenced_type" : "_ZTIN6google8protobuf9BigEndianE",
   "self_type" : "_ZTIN6google8protobuf9BigEndianE",
   "size" : 1,
   "source_file" : "external/protobuf/src/google/protobuf/stubs/port.h"
  }
 ],
 "rvalue_reference_types" : []
}
