<abi-corpus version='2.0' path='test0-pr19026-libvtkIOSQL-6.1.so.1' architecture='elf-amd-x86_64' soname='libvtkIOSQL-6.1.so.1'>
  <elf-needed>
    <dependency name='libvtkIOCore-6.1.so.1'/>
    <dependency name='libvtksys-6.1.so.1'/>
    <dependency name='libvtksqlite-6.1.so.1'/>
    <dependency name='libvtkCommonExecutionModel-6.1.so.1'/>
    <dependency name='libvtkCommonDataModel-6.1.so.1'/>
    <dependency name='libvtkCommonSystem-6.1.so.1'/>
    <dependency name='libvtkCommonTransforms-6.1.so.1'/>
    <dependency name='libvtkCommonMisc-6.1.so.1'/>
    <dependency name='libvtkCommonMath-6.1.so.1'/>
    <dependency name='libvtkCommonCore-6.1.so.1'/>
    <dependency name='libdl.so.2'/>
    <dependency name='libpthread.so.0'/>
    <dependency name='libstdc++.so.6'/>
    <dependency name='libm.so.6'/>
    <dependency name='libc.so.6'/>
    <dependency name='libgcc_s.so.1'/>
  </elf-needed>
  <elf-function-symbols>
    <elf-symbol name='_ZN11vtkRowQuery13GetFieldIndexEPc' type='func-type' binding='global-binding' visibility='default-visibility' is-defined='yes'/>
    <elf-symbol name='_ZN11vtkRowQuery7NextRowEP15vtkVariantArray' type='func-type' binding='global-binding' visibility='default-visibility' is-defined='yes'/>
    <elf-symbol name='_ZN11vtkRowQuery9PrintSelfERSo9vtkIndent' type='func-type' binding='global-binding' visibility='default-visibility' is-defined='yes'/>
    <elf-symbol name='_ZN11vtkRowQueryC1Ev' type='func-type' binding='global-binding' visibility='default-visibility' alias='_ZN11vtkRowQueryC2Ev' is-defined='yes'/>
    <elf-symbol name='_ZN11vtkRowQueryC2Ev' type='func-type' binding='global-binding' visibility='default-visibility' is-defined='yes'/>
    <elf-symbol name='_ZN11vtkRowQueryD0Ev' type='func-type' binding='global-binding' visibility='default-visibility' is-defined='yes'/>
    <elf-symbol name='_ZN11vtkRowQueryD1Ev' type='func-type' binding='global-binding' visibility='default-visibility' alias='_ZN11vtkRowQueryD2Ev' is-defined='yes'/>
    <elf-symbol name='_ZN11vtkRowQueryD2Ev' type='func-type' binding='global-binding' visibility='default-visibility' is-defined='yes'/>
    <elf-symbol name='_ZN11vtkSQLQuery11SetDatabaseEP14vtkSQLDatabase' type='func-type' binding='global-binding' visibility='default-visibility' is-defined='yes'/>
    <elf-symbol name='_ZN11vtkSQLQuery12EscapeStringE12vtkStdStringb' type='func-type' binding='global-binding' visibility='default-visibility' is-defined='yes'/>
    <elf-symbol name='_ZN11vtkSQLQuery12EscapeStringEPKcb' type='func-type' binding='global-binding' visibility='default-visibility' is-defined='yes'/>
    <elf-symbol name='_ZN11vtkSQLQuery13BindParameterEi10vtkVariant' type='func-type' binding='global-binding' visibility='default-visibility' is-defined='yes'/>
    <elf-symbol name='_ZN11vtkSQLQuery13BindParameterEiPKc' type='func-type' binding='global-binding' visibility='default-visibility' is-defined='yes'/>
    <elf-symbol name='_ZN11vtkSQLQuery13BindParameterEiPKcm' type='func-type' binding='global-binding' visibility='default-visibility' is-defined='yes'/>
    <elf-symbol name='_ZN11vtkSQLQuery13BindParameterEiPKvm' type='func-type' binding='global-binding' visibility='default-visibility' is-defined='yes'/>
    <elf-symbol name='_ZN11vtkSQLQuery13BindParameterEiRK12vtkStdString' type='func-type' binding='global-binding' visibility='default-visibility' is-defined='yes'/>
    <elf-symbol name='_ZN11vtkSQLQuery13BindParameterEia' type='func-type' binding='global-binding' visibility='default-visibility' is-defined='yes'/>
    <elf-symbol name='_ZN11vtkSQLQuery13BindParameterEid' type='func-type' binding='global-binding' visibility='default-visibility' is-defined='yes'/>
    <elf-symbol name='_ZN11vtkSQLQuery13BindParameterEif' type='func-type' binding='global-binding' visibility='default-visibility' is-defined='yes'/>
    <elf-symbol name='_ZN11vtkSQLQuery13BindParameterEih' type='func-type' binding='global-binding' visibility='default-visibility' is-defined='yes'/>
    <elf-symbol name='_ZN11vtkSQLQuery13BindParameterEii' type='func-type' binding='global-binding' visibility='default-visibility' is-defined='yes'/>
    <elf-symbol name='_ZN11vtkSQLQuery13BindParameterEij' type='func-type' binding='global-binding' visibility='default-visibility' is-defined='yes'/>
    <elf-symbol name='_ZN11vtkSQLQuery13BindParameterEil' type='func-type' binding='global-binding' visibility='default-visibility' is-defined='yes'/>
    <elf-symbol name='_ZN11vtkSQLQuery13BindParameterEim' type='func-type' binding='global-binding' visibility='default-visibility' is-defined='yes'/>
    <elf-symbol name='_ZN11vtkSQLQuery13BindParameterEis' type='func-type' binding='global-binding' visibility='default-visibility' is-defined='yes'/>
    <elf-symbol name='_ZN11vtkSQLQuery13BindParameterEit' type='func-type' binding='global-binding' visibility='default-visibility' is-defined='yes'/>
    <elf-symbol name='_ZN11vtkSQLQuery13BindParameterEix' type='func-type' binding='global-binding' visibility='default-visibility' is-defined='yes'/>
    <elf-symbol name='_ZN11vtkSQLQuery13BindParameterEiy' type='func-type' binding='global-binding' visibility='default-visibility' is-defined='yes'/>
    <elf-symbol name='_ZN11vtkSQLQuery22ClearParameterBindingsEv' type='func-type' binding='global-binding' visibility='default-visibility' is-defined='yes'/>
    <elf-symbol name='_ZN11vtkSQLQuery8GetQueryEv' type='func-type' binding='global-binding' visibility='default-visibility' is-defined='yes'/>
    <elf-symbol name='_ZN11vtkSQLQuery8SetQueryEPKc' type='func-type' binding='global-binding' visibility='default-visibility' is-defined='yes'/>
    <elf-symbol name='_ZN11vtkSQLQuery9PrintSelfERSo9vtkIndent' type='func-type' binding='global-binding' visibility='default-visibility' is-defined='yes'/>
    <elf-symbol name='_ZN11vtkSQLQueryC1Ev' type='func-type' binding='global-binding' visibility='default-visibility' alias='_ZN11vtkSQLQueryC2Ev' is-defined='yes'/>
    <elf-symbol name='_ZN11vtkSQLQueryC2Ev' type='func-type' binding='global-binding' visibility='default-visibility' is-defined='yes'/>
    <elf-symbol name='_ZN11vtkSQLQueryD0Ev' type='func-type' binding='global-binding' visibility='default-visibility' is-defined='yes'/>
    <elf-symbol name='_ZN11vtkSQLQueryD1Ev' type='func-type' binding='global-binding' visibility='default-visibility' alias='_ZN11vtkSQLQueryD2Ev' is-defined='yes'/>
    <elf-symbol name='_ZN11vtkSQLQueryD2Ev' type='func-type' binding='global-binding' visibility='default-visibility' is-defined='yes'/>
    <elf-symbol name='_ZN14vtkSQLDatabase12EffectSchemaEP20vtkSQLDatabaseSchemab' type='func-type' binding='global-binding' visibility='default-visibility' is-defined='yes'/>
    <elf-symbol name='_ZN14vtkSQLDatabase13CreateFromURLEPKc' type='func-type' binding='global-binding' visibility='default-visibility' is-defined='yes'/>
    <elf-symbol name='_ZN14vtkSQLDatabase21GetIndexSpecificationEP20vtkSQLDatabaseSchemaiiRb' type='func-type' binding='global-binding' visibility='default-visibility' is-defined='yes'/>
    <elf-symbol name='_ZN14vtkSQLDatabase22GetColumnSpecificationEP20vtkSQLDatabaseSchemaii' type='func-type' binding='global-binding' visibility='default-visibility' is-defined='yes'/>
    <elf-symbol name='_ZN14vtkSQLDatabase23GetTriggerSpecificationEP20vtkSQLDatabaseSchemaii' type='func-type' binding='global-binding' visibility='default-visibility' is-defined='yes'/>
    <elf-symbol name='_ZN14vtkSQLDatabase29RegisterCreateFromURLCallbackEPFPS_PKcE' type='func-type' binding='global-binding' visibility='default-visibility' is-defined='yes'/>
    <elf-symbol name='_ZN14vtkSQLDatabase31UnRegisterCreateFromURLCallbackEPFPS_PKcE' type='func-type' binding='global-binding' visibility='default-visibility' is-defined='yes'/>
    <elf-symbol name='_ZN14vtkSQLDatabase35UnRegisterAllCreateFromURLCallbacksEv' type='func-type' binding='global-binding' visibility='default-visibility' is-defined='yes'/>
    <elf-symbol name='_ZN14vtkSQLDatabase8DATABASEEv' type='func-type' binding='global-binding' visibility='default-visibility' is-defined='yes'/>
    <elf-symbol name='_ZN14vtkSQLDatabase9PrintSelfERSo9vtkIndent' type='func-type' binding='global-binding' visibility='default-visibility' is-defined='yes'/>
    <elf-symbol name='_ZN14vtkSQLDatabaseC1Ev' type='func-type' binding='global-binding' visibility='default-visibility' alias='_ZN14vtkSQLDatabaseC2Ev' is-defined='yes'/>
    <elf-symbol name='_ZN14vtkSQLDatabaseC2Ev' type='func-type' binding='global-binding' visibility='default-visibility' is-defined='yes'/>
    <elf-symbol name='_ZN14vtkSQLDatabaseD0Ev' type='func-type' binding='global-binding' visibility='default-visibility' is-defined='yes'/>
    <elf-symbol name='_ZN14vtkSQLDatabaseD1Ev' type='func-type' binding='global-binding' visibility='default-visibility' alias='_ZN14vtkSQLDatabaseD2Ev' is-defined='yes'/>
    <elf-symbol name='_ZN14vtkSQLDatabaseD2Ev' type='func-type' binding='global-binding' visibility='default-visibility' is-defined='yes'/>
    <elf-symbol name='_ZN14vtkSQLiteQuery12GetFieldNameEi' type='func-type' binding='global-binding' visibility='default-visibility' is-defined='yes'/>
    <elf-symbol name='_ZN14vtkSQLiteQuery12GetFieldTypeEi' type='func-type' binding='global-binding' visibility='default-visibility' is-defined='yes'/>
    <elf-symbol name='_ZN14vtkSQLiteQuery13BindParameterEi10vtkVariant' type='func-type' binding='global-binding' visibility='default-visibility' is-defined='yes'/>
    <elf-symbol name='_ZN14vtkSQLiteQuery13BindParameterEiPKc' type='func-type' binding='global-binding' visibility='default-visibility' is-defined='yes'/>
    <elf-symbol name='_ZN14vtkSQLiteQuery13BindParameterEiPKcm' type='func-type' binding='global-binding' visibility='default-visibility' is-defined='yes'/>
    <elf-symbol name='_ZN14vtkSQLiteQuery13BindParameterEiPKvm' type='func-type' binding='global-binding' visibility='default-visibility' is-defined='yes'/>
    <elf-symbol name='_ZN14vtkSQLiteQuery13BindParameterEiRK12vtkStdString' type='func-type' binding='global-binding' visibility='default-visibility' is-defined='yes'/>
    <elf-symbol name='_ZN14vtkSQLiteQuery13BindParameterEia' type='func-type' binding='global-binding' visibility='default-visibility' is-defined='yes'/>
    <elf-symbol name='_ZN14vtkSQLiteQuery13BindParameterEid' type='func-type' binding='global-binding' visibility='default-visibility' is-defined='yes'/>
    <elf-symbol name='_ZN14vtkSQLiteQuery13BindParameterEif' type='func-type' binding='global-binding' visibility='default-visibility' is-defined='yes'/>
    <elf-symbol name='_ZN14vtkSQLiteQuery13BindParameterEih' type='func-type' binding='global-binding' visibility='default-visibility' is-defined='yes'/>
    <elf-symbol name='_ZN14vtkSQLiteQuery13BindParameterEii' type='func-type' binding='global-binding' visibility='default-visibility' is-defined='yes'/>
    <elf-symbol name='_ZN14vtkSQLiteQuery13BindParameterEij' type='func-type' binding='global-binding' visibility='default-visibility' is-defined='yes'/>
    <elf-symbol name='_ZN14vtkSQLiteQuery13BindParameterEil' type='func-type' binding='global-binding' visibility='default-visibility' is-defined='yes'/>
    <elf-symbol name='_ZN14vtkSQLiteQuery13BindParameterEim' type='func-type' binding='global-binding' visibility='default-visibility' is-defined='yes'/>
    <elf-symbol name='_ZN14vtkSQLiteQuery13BindParameterEis' type='func-type' binding='global-binding' visibility='default-visibility' is-defined='yes'/>
    <elf-symbol name='_ZN14vtkSQLiteQuery13BindParameterEit' type='func-type' binding='global-binding' visibility='default-visibility' is-defined='yes'/>
    <elf-symbol name='_ZN14vtkSQLiteQuery13BindParameterEix' type='func-type' binding='global-binding' visibility='default-visibility' is-defined='yes'/>
    <elf-symbol name='_ZN14vtkSQLiteQuery13BindParameterEiy' type='func-type' binding='global-binding' visibility='default-visibility' is-defined='yes'/>
    <elf-symbol name='_ZN14vtkSQLiteQuery16BeginTransactionEv' type='func-type' binding='global-binding' visibility='default-visibility' is-defined='yes'/>
    <elf-symbol name='_ZN14vtkSQLiteQuery16GetLastErrorTextEv' type='func-type' binding='global-binding' visibility='default-visibility' is-defined='yes'/>
    <elf-symbol name='_ZN14vtkSQLiteQuery17BindBlobParameterEiPKvi' type='func-type' binding='global-binding' visibility='default-visibility' is-defined='yes'/>
    <elf-symbol name='_ZN14vtkSQLiteQuery17CommitTransactionEv' type='func-type' binding='global-binding' visibility='default-visibility' is-defined='yes'/>
    <elf-symbol name='_ZN14vtkSQLiteQuery17GetNumberOfFieldsEv' type='func-type' binding='global-binding' visibility='default-visibility' is-defined='yes'/>
    <elf-symbol name='_ZN14vtkSQLiteQuery18BindInt64ParameterEix' type='func-type' binding='global-binding' visibility='default-visibility' is-defined='yes'/>
    <elf-symbol name='_ZN14vtkSQLiteQuery19BindDoubleParameterEid' type='func-type' binding='global-binding' visibility='default-visibility' is-defined='yes'/>
    <elf-symbol name='_ZN14vtkSQLiteQuery19BindStringParameterEiPKci' type='func-type' binding='global-binding' visibility='default-visibility' is-defined='yes'/>
    <elf-symbol name='_ZN14vtkSQLiteQuery19RollbackTransactionEv' type='func-type' binding='global-binding' visibility='default-visibility' is-defined='yes'/>
    <elf-symbol name='_ZN14vtkSQLiteQuery20BindIntegerParameterEii' type='func-type' binding='global-binding' visibility='default-visibility' is-defined='yes'/>
    <elf-symbol name='_ZN14vtkSQLiteQuery22ClearParameterBindingsEv' type='func-type' binding='global-binding' visibility='default-visibility' is-defined='yes'/>
    <elf-symbol name='_ZN14vtkSQLiteQuery3NewEv' type='func-type' binding='global-binding' visibility='default-visibility' is-defined='yes'/>
    <elf-symbol name='_ZN14vtkSQLiteQuery7ExecuteEv' type='func-type' binding='global-binding' visibility='default-visibility' is-defined='yes'/>
    <elf-symbol name='_ZN14vtkSQLiteQuery7NextRowEv' type='func-type' binding='global-binding' visibility='default-visibility' is-defined='yes'/>
    <elf-symbol name='_ZN14vtkSQLiteQuery8HasErrorEv' type='func-type' binding='global-binding' visibility='default-visibility' is-defined='yes'/>
    <elf-symbol name='_ZN14vtkSQLiteQuery8SetQueryEPKc' type='func-type' binding='global-binding' visibility='default-visibility' is-defined='yes'/>
    <elf-symbol name='_ZN14vtkSQLiteQuery9DataValueEx' type='func-type' binding='global-binding' visibility='default-visibility' is-defined='yes'/>
    <elf-symbol name='_ZN14vtkSQLiteQuery9PrintSelfERSo9vtkIndent' type='func-type' binding='global-binding' visibility='default-visibility' is-defined='yes'/>
    <elf-symbol name='_ZN14vtkSQLiteQueryC1Ev' type='func-type' binding='global-binding' visibility='default-visibility' alias='_ZN14vtkSQLiteQueryC2Ev' is-defined='yes'/>
    <elf-symbol name='_ZN14vtkSQLiteQueryC2Ev' type='func-type' binding='global-binding' visibility='default-visibility' is-defined='yes'/>
    <elf-symbol name='_ZN14vtkSQLiteQueryD0Ev' type='func-type' binding='global-binding' visibility='default-visibility' is-defined='yes'/>
    <elf-symbol name='_ZN14vtkSQLiteQueryD1Ev' type='func-type' binding='global-binding' visibility='default-visibility' alias='_ZN14vtkSQLiteQueryD2Ev' is-defined='yes'/>
    <elf-symbol name='_ZN14vtkSQLiteQueryD2Ev' type='func-type' binding='global-binding' visibility='default-visibility' is-defined='yes'/>
    <elf-symbol name='_ZN17vtkSQLiteDatabase11IsSupportedEi' type='func-type' binding='global-binding' visibility='default-visibility' is-defined='yes'/>
    <elf-symbol name='_ZN17vtkSQLiteDatabase16GetLastErrorTextEv' type='func-type' binding='global-binding' visibility='default-visibility' is-defined='yes'/>
    <elf-symbol name='_ZN17vtkSQLiteDatabase16GetQueryInstanceEv' type='func-type' binding='global-binding' visibility='default-visibility' is-defined='yes'/>
    <elf-symbol name='_ZN17vtkSQLiteDatabase22GetColumnSpecificationEP20vtkSQLDatabaseSchemaii' type='func-type' binding='global-binding' visibility='default-visibility' is-defined='yes'/>
    <elf-symbol name='_ZN17vtkSQLiteDatabase3NewEv' type='func-type' binding='global-binding' visibility='default-visibility' is-defined='yes'/>
    <elf-symbol name='_ZN17vtkSQLiteDatabase4OpenEPKc' type='func-type' binding='global-binding' visibility='default-visibility' is-defined='yes'/>
    <elf-symbol name='_ZN17vtkSQLiteDatabase4OpenEPKci' type='func-type' binding='global-binding' visibility='default-visibility' is-defined='yes'/>
    <elf-symbol name='_ZN17vtkSQLiteDatabase5CloseEv' type='func-type' binding='global-binding' visibility='default-visibility' is-defined='yes'/>
    <elf-symbol name='_ZN17vtkSQLiteDatabase6GetURLEv' type='func-type' binding='global-binding' visibility='default-visibility' is-defined='yes'/>
    <elf-symbol name='_ZN17vtkSQLiteDatabase6IsOpenEv' type='func-type' binding='global-binding' visibility='default-visibility' is-defined='yes'/>
    <elf-symbol name='_ZN17vtkSQLiteDatabase8HasErrorEv' type='func-type' binding='global-binding' visibility='default-visibility' is-defined='yes'/>
    <elf-symbol name='_ZN17vtkSQLiteDatabase8ParseURLEPKc' type='func-type' binding='global-binding' visibility='default-visibility' is-defined='yes'/>
    <elf-symbol name='_ZN17vtkSQLiteDatabase9GetRecordEPKc' type='func-type' binding='global-binding' visibility='default-visibility' is-defined='yes'/>
    <elf-symbol name='_ZN17vtkSQLiteDatabase9GetTablesEv' type='func-type' binding='global-binding' visibility='default-visibility' is-defined='yes'/>
    <elf-symbol name='_ZN17vtkSQLiteDatabase9PrintSelfERSo9vtkIndent' type='func-type' binding='global-binding' visibility='default-visibility' is-defined='yes'/>
    <elf-symbol name='_ZN17vtkSQLiteDatabaseC1Ev' type='func-type' binding='global-binding' visibility='default-visibility' alias='_ZN17vtkSQLiteDatabaseC2Ev' is-defined='yes'/>
    <elf-symbol name='_ZN17vtkSQLiteDatabaseC2Ev' type='func-type' binding='global-binding' visibility='default-visibility' is-defined='yes'/>
    <elf-symbol name='_ZN17vtkSQLiteDatabaseD0Ev' type='func-type' binding='global-binding' visibility='default-visibility' is-defined='yes'/>
    <elf-symbol name='_ZN17vtkSQLiteDatabaseD1Ev' type='func-type' binding='global-binding' visibility='default-visibility' alias='_ZN17vtkSQLiteDatabaseD2Ev' is-defined='yes'/>
    <elf-symbol name='_ZN17vtkSQLiteDatabaseD2Ev' type='func-type' binding='global-binding' visibility='default-visibility' is-defined='yes'/>
    <elf-symbol name='_ZN18vtkRowQueryToTable11RequestDataEP14vtkInformationPP20vtkInformationVectorS3_' type='func-type' binding='global-binding' visibility='default-visibility' is-defined='yes'/>
    <elf-symbol name='_ZN18vtkRowQueryToTable3NewEv' type='func-type' binding='global-binding' visibility='default-visibility' is-defined='yes'/>
    <elf-symbol name='_ZN18vtkRowQueryToTable8GetMTimeEv' type='func-type' binding='global-binding' visibility='default-visibility' is-defined='yes'/>
    <elf-symbol name='_ZN18vtkRowQueryToTable8SetQueryEP11vtkRowQuery' type='func-type' binding='global-binding' visibility='default-visibility' is-defined='yes'/>
    <elf-symbol name='_ZN18vtkRowQueryToTable9PrintSelfERSo9vtkIndent' type='func-type' binding='global-binding' visibility='default-visibility' is-defined='yes'/>
    <elf-symbol name='_ZN18vtkRowQueryToTableC1Ev' type='func-type' binding='global-binding' visibility='default-visibility' alias='_ZN18vtkRowQueryToTableC2Ev' is-defined='yes'/>
    <elf-symbol name='_ZN18vtkRowQueryToTableC2Ev' type='func-type' binding='global-binding' visibility='default-visibility' is-defined='yes'/>
    <elf-symbol name='_ZN18vtkRowQueryToTableD0Ev' type='func-type' binding='global-binding' visibility='default-visibility' is-defined='yes'/>
    <elf-symbol name='_ZN18vtkRowQueryToTableD1Ev' type='func-type' binding='global-binding' visibility='default-visibility' alias='_ZN18vtkRowQueryToTableD2Ev' is-defined='yes'/>
    <elf-symbol name='_ZN18vtkRowQueryToTableD2Ev' type='func-type' binding='global-binding' visibility='default-visibility' is-defined='yes'/>
    <elf-symbol name='_ZN20vtkSQLDatabaseSchema11AddPreambleEPKcS1_S1_' type='func-type' binding='global-binding' visibility='default-visibility' is-defined='yes'/>
    <elf-symbol name='_ZN20vtkSQLDatabaseSchema15AddIndexToTableEiiPKc' type='func-type' binding='global-binding' visibility='default-visibility' is-defined='yes'/>
    <elf-symbol name='_ZN20vtkSQLDatabaseSchema16AddColumnToIndexEiii' type='func-type' binding='global-binding' visibility='default-visibility' is-defined='yes'/>
    <elf-symbol name='_ZN20vtkSQLDatabaseSchema16AddColumnToTableEiiPKciS1_' type='func-type' binding='global-binding' visibility='default-visibility' is-defined='yes'/>
    <elf-symbol name='_ZN20vtkSQLDatabaseSchema16AddOptionToTableEiPKcS1_' type='func-type' binding='global-binding' visibility='default-visibility' is-defined='yes'/>
    <elf-symbol name='_ZN20vtkSQLDatabaseSchema17AddTriggerToTableEiiPKcS1_S1_' type='func-type' binding='global-binding' visibility='default-visibility' is-defined='yes'/>
    <elf-symbol name='_ZN20vtkSQLDatabaseSchema17GetNumberOfTablesEv' type='func-type' binding='global-binding' visibility='default-visibility' is-defined='yes'/>
    <elf-symbol name='_ZN20vtkSQLDatabaseSchema20GetNumberOfPreamblesEv' type='func-type' binding='global-binding' visibility='default-visibility' is-defined='yes'/>
    <elf-symbol name='_ZN20vtkSQLDatabaseSchema22GetIndexHandleFromNameEPKcS1_' type='func-type' binding='global-binding' visibility='default-visibility' is-defined='yes'/>
    <elf-symbol name='_ZN20vtkSQLDatabaseSchema22GetIndexNameFromHandleEii' type='func-type' binding='global-binding' visibility='default-visibility' is-defined='yes'/>
    <elf-symbol name='_ZN20vtkSQLDatabaseSchema22GetIndexTypeFromHandleEii' type='func-type' binding='global-binding' visibility='default-visibility' is-defined='yes'/>
    <elf-symbol name='_ZN20vtkSQLDatabaseSchema22GetTableHandleFromNameEPKc' type='func-type' binding='global-binding' visibility='default-visibility' is-defined='yes'/>
    <elf-symbol name='_ZN20vtkSQLDatabaseSchema22GetTableNameFromHandleEi' type='func-type' binding='global-binding' visibility='default-visibility' is-defined='yes'/>
    <elf-symbol name='_ZN20vtkSQLDatabaseSchema23GetColumnHandleFromNameEPKcS1_' type='func-type' binding='global-binding' visibility='default-visibility' is-defined='yes'/>
    <elf-symbol name='_ZN20vtkSQLDatabaseSchema23GetColumnNameFromHandleEii' type='func-type' binding='global-binding' visibility='default-visibility' is-defined='yes'/>
    <elf-symbol name='_ZN20vtkSQLDatabaseSchema23GetColumnSizeFromHandleEii' type='func-type' binding='global-binding' visibility='default-visibility' is-defined='yes'/>
    <elf-symbol name='_ZN20vtkSQLDatabaseSchema23GetColumnTypeFromHandleEii' type='func-type' binding='global-binding' visibility='default-visibility' is-defined='yes'/>
    <elf-symbol name='_ZN20vtkSQLDatabaseSchema23GetOptionTextFromHandleEii' type='func-type' binding='global-binding' visibility='default-visibility' is-defined='yes'/>
    <elf-symbol name='_ZN20vtkSQLDatabaseSchema24GetTriggerHandleFromNameEPKcS1_' type='func-type' binding='global-binding' visibility='default-visibility' is-defined='yes'/>
    <elf-symbol name='_ZN20vtkSQLDatabaseSchema24GetTriggerNameFromHandleEii' type='func-type' binding='global-binding' visibility='default-visibility' is-defined='yes'/>
    <elf-symbol name='_ZN20vtkSQLDatabaseSchema24GetTriggerTypeFromHandleEii' type='func-type' binding='global-binding' visibility='default-visibility' is-defined='yes'/>
    <elf-symbol name='_ZN20vtkSQLDatabaseSchema25AddTableMultipleArgumentsEPKcz' type='func-type' binding='global-binding' visibility='default-visibility' is-defined='yes'/>
    <elf-symbol name='_ZN20vtkSQLDatabaseSchema25GetNumberOfColumnsInTableEi' type='func-type' binding='global-binding' visibility='default-visibility' is-defined='yes'/>
    <elf-symbol name='_ZN20vtkSQLDatabaseSchema25GetNumberOfIndicesInTableEi' type='func-type' binding='global-binding' visibility='default-visibility' is-defined='yes'/>
    <elf-symbol name='_ZN20vtkSQLDatabaseSchema25GetNumberOfOptionsInTableEi' type='func-type' binding='global-binding' visibility='default-visibility' is-defined='yes'/>
    <elf-symbol name='_ZN20vtkSQLDatabaseSchema25GetPreambleHandleFromNameEPKc' type='func-type' binding='global-binding' visibility='default-visibility' is-defined='yes'/>
    <elf-symbol name='_ZN20vtkSQLDatabaseSchema25GetPreambleNameFromHandleEi' type='func-type' binding='global-binding' visibility='default-visibility' is-defined='yes'/>
    <elf-symbol name='_ZN20vtkSQLDatabaseSchema26GetNumberOfTriggersInTableEi' type='func-type' binding='global-binding' visibility='default-visibility' is-defined='yes'/>
    <elf-symbol name='_ZN20vtkSQLDatabaseSchema26GetOptionBackendFromHandleEii' type='func-type' binding='global-binding' visibility='default-visibility' is-defined='yes'/>
    <elf-symbol name='_ZN20vtkSQLDatabaseSchema26GetTriggerActionFromHandleEii' type='func-type' binding='global-binding' visibility='default-visibility' is-defined='yes'/>
    <elf-symbol name='_ZN20vtkSQLDatabaseSchema27GetPreambleActionFromHandleEi' type='func-type' binding='global-binding' visibility='default-visibility' is-defined='yes'/>
    <elf-symbol name='_ZN20vtkSQLDatabaseSchema27GetTriggerBackendFromHandleEii' type='func-type' binding='global-binding' visibility='default-visibility' is-defined='yes'/>
    <elf-symbol name='_ZN20vtkSQLDatabaseSchema28GetIndexColumnNameFromHandleEiii' type='func-type' binding='global-binding' visibility='default-visibility' is-defined='yes'/>
    <elf-symbol name='_ZN20vtkSQLDatabaseSchema28GetPreambleBackendFromHandleEi' type='func-type' binding='global-binding' visibility='default-visibility' is-defined='yes'/>
    <elf-symbol name='_ZN20vtkSQLDatabaseSchema29GetColumnAttributesFromHandleEii' type='func-type' binding='global-binding' visibility='default-visibility' is-defined='yes'/>
    <elf-symbol name='_ZN20vtkSQLDatabaseSchema29GetNumberOfColumnNamesInIndexEii' type='func-type' binding='global-binding' visibility='default-visibility' is-defined='yes'/>
    <elf-symbol name='_ZN20vtkSQLDatabaseSchema3NewEv' type='func-type' binding='global-binding' visibility='default-visibility' is-defined='yes'/>
    <elf-symbol name='_ZN20vtkSQLDatabaseSchema5ResetEv' type='func-type' binding='global-binding' visibility='default-visibility' is-defined='yes'/>
    <elf-symbol name='_ZN20vtkSQLDatabaseSchema8AddTableEPKc' type='func-type' binding='global-binding' visibility='default-visibility' is-defined='yes'/>
    <elf-symbol name='_ZN20vtkSQLDatabaseSchema9PrintSelfERSo9vtkIndent' type='func-type' binding='global-binding' visibility='default-visibility' is-defined='yes'/>
    <elf-symbol name='_ZN20vtkSQLDatabaseSchemaC1Ev' type='func-type' binding='global-binding' visibility='default-visibility' alias='_ZN20vtkSQLDatabaseSchemaC2Ev' is-defined='yes'/>
    <elf-symbol name='_ZN20vtkSQLDatabaseSchemaC2Ev' type='func-type' binding='global-binding' visibility='default-visibility' is-defined='yes'/>
    <elf-symbol name='_ZN20vtkSQLDatabaseSchemaD0Ev' type='func-type' binding='global-binding' visibility='default-visibility' is-defined='yes'/>
    <elf-symbol name='_ZN20vtkSQLDatabaseSchemaD1Ev' type='func-type' binding='global-binding' visibility='default-visibility' alias='_ZN20vtkSQLDatabaseSchemaD2Ev' is-defined='yes'/>
    <elf-symbol name='_ZN20vtkSQLDatabaseSchemaD2Ev' type='func-type' binding='global-binding' visibility='default-visibility' is-defined='yes'/>
    <elf-symbol name='_ZN22vtkSQLiteToTableReader11RequestDataEP14vtkInformationPP20vtkInformationVectorS3_' type='func-type' binding='global-binding' visibility='default-visibility' is-defined='yes'/>
    <elf-symbol name='_ZN22vtkSQLiteToTableReader3NewEv' type='func-type' binding='global-binding' visibility='default-visibility' is-defined='yes'/>
    <elf-symbol name='_ZN22vtkSQLiteToTableReader9PrintSelfERSo9vtkIndent' type='func-type' binding='global-binding' visibility='default-visibility' is-defined='yes'/>
    <elf-symbol name='_ZN22vtkSQLiteToTableReaderC1Ev' type='func-type' binding='global-binding' visibility='default-visibility' alias='_ZN22vtkSQLiteToTableReaderC2Ev' is-defined='yes'/>
    <elf-symbol name='_ZN22vtkSQLiteToTableReaderC2Ev' type='func-type' binding='global-binding' visibility='default-visibility' is-defined='yes'/>
    <elf-symbol name='_ZN22vtkSQLiteToTableReaderD0Ev' type='func-type' binding='global-binding' visibility='default-visibility' is-defined='yes'/>
    <elf-symbol name='_ZN22vtkSQLiteToTableReaderD1Ev' type='func-type' binding='global-binding' visibility='default-visibility' alias='_ZN22vtkSQLiteToTableReaderD2Ev' is-defined='yes'/>
    <elf-symbol name='_ZN22vtkSQLiteToTableReaderD2Ev' type='func-type' binding='global-binding' visibility='default-visibility' is-defined='yes'/>
    <elf-symbol name='_ZN22vtkTableToSQLiteWriter24FillInputPortInformationEiP14vtkInformation' type='func-type' binding='global-binding' visibility='default-visibility' is-defined='yes'/>
    <elf-symbol name='_ZN22vtkTableToSQLiteWriter3NewEv' type='func-type' binding='global-binding' visibility='default-visibility' is-defined='yes'/>
    <elf-symbol name='_ZN22vtkTableToSQLiteWriter8GetInputEi' type='func-type' binding='global-binding' visibility='default-visibility' is-defined='yes'/>
    <elf-symbol name='_ZN22vtkTableToSQLiteWriter8GetInputEv' type='func-type' binding='global-binding' visibility='default-visibility' is-defined='yes'/>
    <elf-symbol name='_ZN22vtkTableToSQLiteWriter9PrintSelfERSo9vtkIndent' type='func-type' binding='global-binding' visibility='default-visibility' is-defined='yes'/>
    <elf-symbol name='_ZN22vtkTableToSQLiteWriter9WriteDataEv' type='func-type' binding='global-binding' visibility='default-visibility' is-defined='yes'/>
    <elf-symbol name='_ZN22vtkTableToSQLiteWriterC1Ev' type='func-type' binding='global-binding' visibility='default-visibility' alias='_ZN22vtkTableToSQLiteWriterC2Ev' is-defined='yes'/>
    <elf-symbol name='_ZN22vtkTableToSQLiteWriterC2Ev' type='func-type' binding='global-binding' visibility='default-visibility' is-defined='yes'/>
    <elf-symbol name='_ZN22vtkTableToSQLiteWriterD0Ev' type='func-type' binding='global-binding' visibility='default-visibility' is-defined='yes'/>
    <elf-symbol name='_ZN22vtkTableToSQLiteWriterD1Ev' type='func-type' binding='global-binding' visibility='default-visibility' alias='_ZN22vtkTableToSQLiteWriterD2Ev' is-defined='yes'/>
    <elf-symbol name='_ZN22vtkTableToSQLiteWriterD2Ev' type='func-type' binding='global-binding' visibility='default-visibility' is-defined='yes'/>
    <elf-symbol name='_ZN24vtkDatabaseToTableReader11SetDatabaseEP14vtkSQLDatabase' type='func-type' binding='global-binding' visibility='default-visibility' is-defined='yes'/>
    <elf-symbol name='_ZN24vtkDatabaseToTableReader12SetTableNameEPKc' type='func-type' binding='global-binding' visibility='default-visibility' is-defined='yes'/>
    <elf-symbol name='_ZN24vtkDatabaseToTableReader18CheckIfTableExistsEv' type='func-type' binding='global-binding' visibility='default-visibility' is-defined='yes'/>
    <elf-symbol name='_ZN24vtkDatabaseToTableReader9PrintSelfERSo9vtkIndent' type='func-type' binding='global-binding' visibility='default-visibility' is-defined='yes'/>
    <elf-symbol name='_ZN24vtkDatabaseToTableReaderC1Ev' type='func-type' binding='global-binding' visibility='default-visibility' alias='_ZN24vtkDatabaseToTableReaderC2Ev' is-defined='yes'/>
    <elf-symbol name='_ZN24vtkDatabaseToTableReaderC2Ev' type='func-type' binding='global-binding' visibility='default-visibility' is-defined='yes'/>
    <elf-symbol name='_ZN24vtkDatabaseToTableReaderD0Ev' type='func-type' binding='global-binding' visibility='default-visibility' is-defined='yes'/>
    <elf-symbol name='_ZN24vtkDatabaseToTableReaderD1Ev' type='func-type' binding='global-binding' visibility='default-visibility' is-defined='yes'/>
    <elf-symbol name='_ZN24vtkDatabaseToTableReaderD2Ev' type='func-type' binding='global-binding' visibility='default-visibility' alias='_ZN24vtkDatabaseToTableReaderD1Ev' is-defined='yes'/>
    <elf-symbol name='_ZN24vtkTableToDatabaseWriter11SetDatabaseEP14vtkSQLDatabase' type='func-type' binding='global-binding' visibility='default-visibility' is-defined='yes'/>
    <elf-symbol name='_ZN24vtkTableToDatabaseWriter12SetTableNameEPKc' type='func-type' binding='global-binding' visibility='default-visibility' is-defined='yes'/>
    <elf-symbol name='_ZN24vtkTableToDatabaseWriter14TableNameIsNewEv' type='func-type' binding='global-binding' visibility='default-visibility' is-defined='yes'/>
    <elf-symbol name='_ZN24vtkTableToDatabaseWriter24FillInputPortInformationEiP14vtkInformation' type='func-type' binding='global-binding' visibility='default-visibility' is-defined='yes'/>
    <elf-symbol name='_ZN24vtkTableToDatabaseWriter8GetInputEi' type='func-type' binding='global-binding' visibility='default-visibility' is-defined='yes'/>
    <elf-symbol name='_ZN24vtkTableToDatabaseWriter8GetInputEv' type='func-type' binding='global-binding' visibility='default-visibility' is-defined='yes'/>
    <elf-symbol name='_ZN24vtkTableToDatabaseWriter9PrintSelfERSo9vtkIndent' type='func-type' binding='global-binding' visibility='default-visibility' is-defined='yes'/>
    <elf-symbol name='_ZN24vtkTableToDatabaseWriterC1Ev' type='func-type' binding='global-binding' visibility='default-visibility' alias='_ZN24vtkTableToDatabaseWriterC2Ev' is-defined='yes'/>
    <elf-symbol name='_ZN24vtkTableToDatabaseWriterC2Ev' type='func-type' binding='global-binding' visibility='default-visibility' is-defined='yes'/>
    <elf-symbol name='_ZN24vtkTableToDatabaseWriterD0Ev' type='func-type' binding='global-binding' visibility='default-visibility' is-defined='yes'/>
    <elf-symbol name='_ZN24vtkTableToDatabaseWriterD1Ev' type='func-type' binding='global-binding' visibility='default-visibility' alias='_ZN24vtkTableToDatabaseWriterD2Ev' is-defined='yes'/>
    <elf-symbol name='_ZN24vtkTableToDatabaseWriterD2Ev' type='func-type' binding='global-binding' visibility='default-visibility' is-defined='yes'/>
    <elf-symbol name='_ZN25vtkSQLDatabaseTableSource11RequestDataEP14vtkInformationPP20vtkInformationVectorS3_' type='func-type' binding='global-binding' visibility='default-visibility' is-defined='yes'/>
    <elf-symbol name='_ZN25vtkSQLDatabaseTableSource11SetPasswordERK12vtkStdString' type='func-type' binding='global-binding' visibility='default-visibility' is-defined='yes'/>
    <elf-symbol name='_ZN25vtkSQLDatabaseTableSource3NewEv' type='func-type' binding='global-binding' visibility='default-visibility' is-defined='yes'/>
    <elf-symbol name='_ZN25vtkSQLDatabaseTableSource6GetURLEv' type='func-type' binding='global-binding' visibility='default-visibility' is-defined='yes'/>
    <elf-symbol name='_ZN25vtkSQLDatabaseTableSource6SetURLERK12vtkStdString' type='func-type' binding='global-binding' visibility='default-visibility' is-defined='yes'/>
    <elf-symbol name='_ZN25vtkSQLDatabaseTableSource8GetQueryEv' type='func-type' binding='global-binding' visibility='default-visibility' is-defined='yes'/>
    <elf-symbol name='_ZN25vtkSQLDatabaseTableSource8SetQueryERK12vtkStdString' type='func-type' binding='global-binding' visibility='default-visibility' is-defined='yes'/>
    <elf-symbol name='_ZN25vtkSQLDatabaseTableSource9PrintSelfERSo9vtkIndent' type='func-type' binding='global-binding' visibility='default-visibility' is-defined='yes'/>
    <elf-symbol name='_ZN25vtkSQLDatabaseTableSourceC1Ev' type='func-type' binding='global-binding' visibility='default-visibility' alias='_ZN25vtkSQLDatabaseTableSourceC2Ev' is-defined='yes'/>
    <elf-symbol name='_ZN25vtkSQLDatabaseTableSourceC2Ev' type='func-type' binding='global-binding' visibility='default-visibility' is-defined='yes'/>
    <elf-symbol name='_ZN25vtkSQLDatabaseTableSourceD0Ev' type='func-type' binding='global-binding' visibility='default-visibility' is-defined='yes'/>
    <elf-symbol name='_ZN25vtkSQLDatabaseTableSourceD1Ev' type='func-type' binding='global-binding' visibility='default-visibility' is-defined='yes'/>
    <elf-symbol name='_ZN25vtkSQLDatabaseTableSourceD2Ev' type='func-type' binding='global-binding' visibility='default-visibility' alias='_ZN25vtkSQLDatabaseTableSourceD1Ev' is-defined='yes'/>
    <elf-symbol name='_ZNSs12_S_constructIPcEES0_T_S1_RKSaIcESt20forward_iterator_tag' type='func-type' binding='weak-binding' visibility='default-visibility' is-defined='yes'/>
    <elf-symbol name='_ZNSt6vectorI12vtkStdStringSaIS0_EE13_M_insert_auxEN9__gnu_cxx17__normal_iteratorIPS0_S2_EERKS0_' type='func-type' binding='weak-binding' visibility='default-visibility' is-defined='yes'/>
    <elf-symbol name='_ZNSt6vectorI12vtkStdStringSaIS0_EED1Ev' type='func-type' binding='weak-binding' visibility='default-visibility' alias='_ZNSt6vectorI12vtkStdStringSaIS0_EED2Ev' is-defined='yes'/>
    <elf-symbol name='_ZNSt6vectorI12vtkStdStringSaIS0_EED2Ev' type='func-type' binding='weak-binding' visibility='default-visibility' is-defined='yes'/>
    <elf-symbol name='_ZNSt6vectorI12vtkStdStringSaIS0_EEaSERKS2_' type='func-type' binding='weak-binding' visibility='default-visibility' is-defined='yes'/>
    <elf-symbol name='_ZNSt6vectorIN29vtkSQLDatabaseSchemaInternals5IndexESaIS1_EE14_M_fill_insertEN9__gnu_cxx17__normal_iteratorIPS1_S3_EEmRKS1_' type='func-type' binding='weak-binding' visibility='default-visibility' is-defined='yes'/>
    <elf-symbol name='_ZNSt6vectorIN29vtkSQLDatabaseSchemaInternals5IndexESaIS1_EED1Ev' type='func-type' binding='weak-binding' visibility='default-visibility' alias='_ZNSt6vectorIN29vtkSQLDatabaseSchemaInternals5IndexESaIS1_EED2Ev' is-defined='yes'/>
    <elf-symbol name='_ZNSt6vectorIN29vtkSQLDatabaseSchemaInternals5IndexESaIS1_EED2Ev' type='func-type' binding='weak-binding' visibility='default-visibility' is-defined='yes'/>
    <elf-symbol name='_ZNSt6vectorIN29vtkSQLDatabaseSchemaInternals5IndexESaIS1_EEaSERKS3_' type='func-type' binding='weak-binding' visibility='default-visibility' is-defined='yes'/>
    <elf-symbol name='_ZNSt6vectorIN29vtkSQLDatabaseSchemaInternals5TableESaIS1_EE13_M_insert_auxEN9__gnu_cxx17__normal_iteratorIPS1_S3_EERKS1_' type='func-type' binding='weak-binding' visibility='default-visibility' is-defined='yes'/>
    <elf-symbol name='_ZNSt6vectorIN29vtkSQLDatabaseSchemaInternals6ColumnESaIS1_EE14_M_fill_insertEN9__gnu_cxx17__normal_iteratorIPS1_S3_EEmRKS1_' type='func-type' binding='weak-binding' visibility='default-visibility' is-defined='yes'/>
    <elf-symbol name='_ZNSt6vectorIN29vtkSQLDatabaseSchemaInternals6ColumnESaIS1_EED1Ev' type='func-type' binding='weak-binding' visibility='default-visibility' alias='_ZNSt6vectorIN29vtkSQLDatabaseSchemaInternals6ColumnESaIS1_EED2Ev' is-defined='yes'/>
    <elf-symbol name='_ZNSt6vectorIN29vtkSQLDatabaseSchemaInternals6ColumnESaIS1_EED2Ev' type='func-type' binding='weak-binding' visibility='default-visibility' is-defined='yes'/>
    <elf-symbol name='_ZNSt6vectorIN29vtkSQLDatabaseSchemaInternals6ColumnESaIS1_EEaSERKS3_' type='func-type' binding='weak-binding' visibility='default-visibility' is-defined='yes'/>
    <elf-symbol name='_ZNSt6vectorIN29vtkSQLDatabaseSchemaInternals6OptionESaIS1_EE14_M_fill_insertEN9__gnu_cxx17__normal_iteratorIPS1_S3_EEmRKS1_' type='func-type' binding='weak-binding' visibility='default-visibility' is-defined='yes'/>
    <elf-symbol name='_ZNSt6vectorIN29vtkSQLDatabaseSchemaInternals6OptionESaIS1_EEaSERKS3_' type='func-type' binding='weak-binding' visibility='default-visibility' is-defined='yes'/>
    <elf-symbol name='_ZNSt6vectorIN29vtkSQLDatabaseSchemaInternals7TriggerESaIS1_EE14_M_fill_insertEN9__gnu_cxx17__normal_iteratorIPS1_S3_EEmRKS1_' type='func-type' binding='weak-binding' visibility='default-visibility' is-defined='yes'/>
    <elf-symbol name='_ZNSt6vectorIN29vtkSQLDatabaseSchemaInternals7TriggerESaIS1_EED1Ev' type='func-type' binding='weak-binding' visibility='default-visibility' alias='_ZNSt6vectorIN29vtkSQLDatabaseSchemaInternals7TriggerESaIS1_EED2Ev' is-defined='yes'/>
    <elf-symbol name='_ZNSt6vectorIN29vtkSQLDatabaseSchemaInternals7TriggerESaIS1_EED2Ev' type='func-type' binding='weak-binding' visibility='default-visibility' is-defined='yes'/>
    <elf-symbol name='_ZNSt6vectorIN29vtkSQLDatabaseSchemaInternals7TriggerESaIS1_EEaSERKS3_' type='func-type' binding='weak-binding' visibility='default-visibility' is-defined='yes'/>
    <elf-symbol name='_ZNSt6vectorIN29vtkSQLDatabaseSchemaInternals9StatementESaIS1_EE13_M_insert_auxEN9__gnu_cxx17__normal_iteratorIPS1_S3_EERKS1_' type='func-type' binding='weak-binding' visibility='default-visibility' is-defined='yes'/>
    <elf-symbol name='_ZNSt6vectorIN29vtkSQLDatabaseSchemaInternals9StatementESaIS1_EED1Ev' type='func-type' binding='weak-binding' visibility='default-visibility' alias='_ZNSt6vectorIN29vtkSQLDatabaseSchemaInternals9StatementESaIS1_EED2Ev' is-defined='yes'/>
    <elf-symbol name='_ZNSt6vectorIN29vtkSQLDatabaseSchemaInternals9StatementESaIS1_EED2Ev' type='func-type' binding='weak-binding' visibility='default-visibility' is-defined='yes'/>
    <elf-symbol name='_ZNSt6vectorIPFP14vtkSQLDatabasePKcESaIS5_EE13_M_insert_auxEN9__gnu_cxx17__normal_iteratorIPS5_S7_EERKS5_' type='func-type' binding='weak-binding' visibility='default-visibility' is-defined='yes'/>
    <elf-symbol name='_ZNSt6vectorISsSaISsEE13_M_insert_auxEN9__gnu_cxx17__normal_iteratorIPSsS1_EERKSs' type='func-type' binding='weak-binding' visibility='default-visibility' is-defined='yes'/>
    <elf-symbol name='_ZNSt6vectorISsSaISsEED1Ev' type='func-type' binding='weak-binding' visibility='default-visibility' alias='_ZNSt6vectorISsSaISsEED2Ev' is-defined='yes'/>
    <elf-symbol name='_ZNSt6vectorISsSaISsEED2Ev' type='func-type' binding='weak-binding' visibility='default-visibility' is-defined='yes'/>
    <elf-symbol name='_ZSt22__uninitialized_copy_aIP12vtkStdStringS1_S0_ET0_T_S3_S2_RSaIT1_E' type='func-type' binding='weak-binding' visibility='default-visibility' is-defined='yes'/>
    <elf-symbol name='_ZSt22__uninitialized_copy_aIPN29vtkSQLDatabaseSchemaInternals5IndexES2_S1_ET0_T_S4_S3_RSaIT1_E' type='func-type' binding='weak-binding' visibility='default-visibility' is-defined='yes'/>
    <elf-symbol name='_ZSt22__uninitialized_copy_aIPN29vtkSQLDatabaseSchemaInternals6ColumnES2_S1_ET0_T_S4_S3_RSaIT1_E' type='func-type' binding='weak-binding' visibility='default-visibility' is-defined='yes'/>
    <elf-symbol name='_ZSt22__uninitialized_copy_aIPN29vtkSQLDatabaseSchemaInternals6OptionES2_S1_ET0_T_S4_S3_RSaIT1_E' type='func-type' binding='weak-binding' visibility='default-visibility' is-defined='yes'/>
    <elf-symbol name='_ZSt22__uninitialized_copy_aIPN29vtkSQLDatabaseSchemaInternals7TriggerES2_S1_ET0_T_S4_S3_RSaIT1_E' type='func-type' binding='weak-binding' visibility='default-visibility' is-defined='yes'/>
    <elf-symbol name='_ZSt22__uninitialized_move_aIPN29vtkSQLDatabaseSchemaInternals5TableES2_SaIS1_EET0_T_S5_S4_RT1_' type='func-type' binding='weak-binding' visibility='default-visibility' is-defined='yes'/>
    <elf-symbol name='_ZSt22__uninitialized_move_aIPN29vtkSQLDatabaseSchemaInternals9StatementES2_SaIS1_EET0_T_S5_S4_RT1_' type='func-type' binding='weak-binding' visibility='default-visibility' is-defined='yes'/>
    <elf-symbol name='_ZSt24__uninitialized_fill_n_aIPN29vtkSQLDatabaseSchemaInternals5IndexEmS1_S1_EvT_T0_RKT1_RSaIT2_E' type='func-type' binding='weak-binding' visibility='default-visibility' is-defined='yes'/>
    <elf-symbol name='_ZSt24__uninitialized_fill_n_aIPN29vtkSQLDatabaseSchemaInternals6ColumnEmS1_S1_EvT_T0_RKT1_RSaIT2_E' type='func-type' binding='weak-binding' visibility='default-visibility' is-defined='yes'/>
    <elf-symbol name='_ZSt24__uninitialized_fill_n_aIPN29vtkSQLDatabaseSchemaInternals6OptionEmS1_S1_EvT_T0_RKT1_RSaIT2_E' type='func-type' binding='weak-binding' visibility='default-visibility' is-defined='yes'/>
    <elf-symbol name='_ZSt24__uninitialized_fill_n_aIPN29vtkSQLDatabaseSchemaInternals7TriggerEmS1_S1_EvT_T0_RKT1_RSaIT2_E' type='func-type' binding='weak-binding' visibility='default-visibility' is-defined='yes'/>
    <elf-symbol name='_ZStplIcSt11char_traitsIcESaIcEESbIT_T0_T1_EPKS3_RKS6_' type='func-type' binding='weak-binding' visibility='default-visibility' is-defined='yes'/>
    <elf-symbol name='_fini' type='func-type' binding='global-binding' visibility='default-visibility' is-defined='yes'/>
    <elf-symbol name='_init' type='func-type' binding='global-binding' visibility='default-visibility' is-defined='yes'/>
  </elf-function-symbols>
  <elf-variable-symbols>
    <elf-symbol name='_ZN14vtkSQLDatabase9CallbacksE' size='8' type='object-type' binding='global-binding' visibility='default-visibility' is-defined='yes'/>
    <elf-symbol name='_ZTI11vtkRowQuery' size='24' type='object-type' binding='weak-binding' visibility='default-visibility' is-defined='yes'/>
    <elf-symbol name='_ZTI11vtkSQLQuery' size='24' type='object-type' binding='weak-binding' visibility='default-visibility' is-defined='yes'/>
    <elf-symbol name='_ZTI14vtkSQLDatabase' size='24' type='object-type' binding='weak-binding' visibility='default-visibility' is-defined='yes'/>
    <elf-symbol name='_ZTI14vtkSQLiteQuery' size='24' type='object-type' binding='weak-binding' visibility='default-visibility' is-defined='yes'/>
    <elf-symbol name='_ZTI17vtkSQLiteDatabase' size='24' type='object-type' binding='weak-binding' visibility='default-visibility' is-defined='yes'/>
    <elf-symbol name='_ZTI18vtkRowQueryToTable' size='24' type='object-type' binding='weak-binding' visibility='default-visibility' is-defined='yes'/>
    <elf-symbol name='_ZTI20vtkSQLDatabaseSchema' size='24' type='object-type' binding='weak-binding' visibility='default-visibility' is-defined='yes'/>
    <elf-symbol name='_ZTI22vtkSQLiteToTableReader' size='24' type='object-type' binding='weak-binding' visibility='default-visibility' is-defined='yes'/>
    <elf-symbol name='_ZTI22vtkTableToSQLiteWriter' size='24' type='object-type' binding='weak-binding' visibility='default-visibility' is-defined='yes'/>
    <elf-symbol name='_ZTI24vtkDatabaseToTableReader' size='24' type='object-type' binding='weak-binding' visibility='default-visibility' is-defined='yes'/>
    <elf-symbol name='_ZTI24vtkTableToDatabaseWriter' size='24' type='object-type' binding='weak-binding' visibility='default-visibility' is-defined='yes'/>
    <elf-symbol name='_ZTI25vtkSQLDatabaseTableSource' size='24' type='object-type' binding='weak-binding' visibility='default-visibility' is-defined='yes'/>
    <elf-symbol name='_ZTS11vtkRowQuery' size='14' type='object-type' binding='weak-binding' visibility='default-visibility' is-defined='yes'/>
    <elf-symbol name='_ZTS11vtkSQLQuery' size='14' type='object-type' binding='weak-binding' visibility='default-visibility' is-defined='yes'/>
    <elf-symbol name='_ZTS14vtkSQLDatabase' size='17' type='object-type' binding='weak-binding' visibility='default-visibility' is-defined='yes'/>
    <elf-symbol name='_ZTS14vtkSQLiteQuery' size='17' type='object-type' binding='weak-binding' visibility='default-visibility' is-defined='yes'/>
    <elf-symbol name='_ZTS17vtkSQLiteDatabase' size='20' type='object-type' binding='weak-binding' visibility='default-visibility' is-defined='yes'/>
    <elf-symbol name='_ZTS18vtkRowQueryToTable' size='21' type='object-type' binding='weak-binding' visibility='default-visibility' is-defined='yes'/>
    <elf-symbol name='_ZTS20vtkSQLDatabaseSchema' size='23' type='object-type' binding='weak-binding' visibility='default-visibility' is-defined='yes'/>
    <elf-symbol name='_ZTS22vtkSQLiteToTableReader' size='25' type='object-type' binding='weak-binding' visibility='default-visibility' is-defined='yes'/>
    <elf-symbol name='_ZTS22vtkTableToSQLiteWriter' size='25' type='object-type' binding='weak-binding' visibility='default-visibility' is-defined='yes'/>
    <elf-symbol name='_ZTS24vtkDatabaseToTableReader' size='27' type='object-type' binding='weak-binding' visibility='default-visibility' is-defined='yes'/>
    <elf-symbol name='_ZTS24vtkTableToDatabaseWriter' size='27' type='object-type' binding='weak-binding' visibility='default-visibility' is-defined='yes'/>
    <elf-symbol name='_ZTS25vtkSQLDatabaseTableSource' size='28' type='object-type' binding='weak-binding' visibility='default-visibility' is-defined='yes'/>
    <elf-symbol name='_ZTV11vtkRowQuery' size='280' type='object-type' binding='weak-binding' visibility='default-visibility' is-defined='yes'/>
    <elf-symbol name='_ZTV11vtkSQLQuery' size='480' type='object-type' binding='weak-binding' visibility='default-visibility' is-defined='yes'/>
    <elf-symbol name='_ZTV14vtkSQLDatabase' size='312' type='object-type' binding='weak-binding' visibility='default-visibility' is-defined='yes'/>
    <elf-symbol name='_ZTV14vtkSQLiteQuery' size='488' type='object-type' binding='weak-binding' visibility='default-visibility' is-defined='yes'/>
    <elf-symbol name='_ZTV17vtkSQLiteDatabase' size='336' type='object-type' binding='weak-binding' visibility='default-visibility' is-defined='yes'/>
    <elf-symbol name='_ZTV18vtkRowQueryToTable' size='592' type='object-type' binding='weak-binding' visibility='default-visibility' is-defined='yes'/>
    <elf-symbol name='_ZTV20vtkSQLDatabaseSchema' size='288' type='object-type' binding='weak-binding' visibility='default-visibility' is-defined='yes'/>
    <elf-symbol name='_ZTV22vtkSQLiteToTableReader' size='584' type='object-type' binding='weak-binding' visibility='default-visibility' is-defined='yes'/>
    <elf-symbol name='_ZTV22vtkTableToSQLiteWriter' size='584' type='object-type' binding='weak-binding' visibility='default-visibility' is-defined='yes'/>
    <elf-symbol name='_ZTV24vtkDatabaseToTableReader' size='584' type='object-type' binding='weak-binding' visibility='default-visibility' is-defined='yes'/>
    <elf-symbol name='_ZTV24vtkTableToDatabaseWriter' size='584' type='object-type' binding='weak-binding' visibility='default-visibility' is-defined='yes'/>
    <elf-symbol name='_ZTV25vtkSQLDatabaseTableSource' size='632' type='object-type' binding='weak-binding' visibility='default-visibility' is-defined='yes'/>
  </elf-variable-symbols>
  <abi-instr address-size='64' path='/var/tmp/gamblin2/spack-stage/spack-stage-hrtRhh/VTK-6.1.0/IO/SQL/vtkDatabaseToTableReader.cxx' comp-dir-path='/var/tmp/gamblin2/spack-stage/spack-stage-hrtRhh/VTK-6.1.0/spack-build/IO/SQL' language='LANG_C_plus_plus'>
    <type-decl name='bool' size-in-bits='8' id='type-id-1'/>
    <type-decl name='char' size-in-bits='8' id='type-id-2'/>
    <array-type-def dimensions='1' type-id='type-id-2' size-in-bits='8' id='type-id-3'>
      <subrange length='1' type-id='type-id-4' id='type-id-5'/>
    </array-type-def>
    <array-type-def dimensions='1' type-id='type-id-2' size-in-bits='160' id='type-id-6'>
      <subrange length='20' type-id='type-id-4' id='type-id-7'/>
    </array-type-def>
    <array-type-def dimensions='1' type-id='type-id-2' size-in-bits='320' id='type-id-8'>
      <subrange length='40' type-id='type-id-4' id='type-id-9'/>
    </array-type-def>
    <array-type-def dimensions='1' type-id='type-id-2' size-in-bits='32' id='type-id-10'>
      <subrange length='4' type-id='type-id-4' id='type-id-11'/>
    </array-type-def>
    <class-decl name='typedef __va_list_tag __va_list_tag' size-in-bits='192' is-struct='yes' visibility='default' id='type-id-12'>
      <data-member access='public' layout-offset-in-bits='0'>
        <var-decl name='gp_offset' type-id='type-id-13' visibility='default'/>
      </data-member>
      <data-member access='public' layout-offset-in-bits='32'>
        <var-decl name='fp_offset' type-id='type-id-13' visibility='default'/>
      </data-member>
      <data-member access='public' layout-offset-in-bits='64'>
        <var-decl name='overflow_arg_area' type-id='type-id-14' visibility='default'/>
      </data-member>
      <data-member access='public' layout-offset-in-bits='128'>
        <var-decl name='reg_save_area' type-id='type-id-14' visibility='default'/>
      </data-member>
    </class-decl>
    <type-decl name='double' size-in-bits='64' id='type-id-15'/>
    <type-decl name='float' size-in-bits='32' id='type-id-16'/>
    <type-decl name='int' size-in-bits='32' id='type-id-17'/>
    <type-decl name='long double' size-in-bits='128' id='type-id-18'/>
    <type-decl name='long int' size-in-bits='64' id='type-id-19'/>
    <type-decl name='long long int' size-in-bits='64' id='type-id-20'/>
    <type-decl name='long long unsigned int' size-in-bits='64' id='type-id-21'/>
    <type-decl name='signed char' size-in-bits='8' id='type-id-22'/>
    <array-type-def dimensions='1' type-id='type-id-23' size-in-bits='256' id='type-id-24'>
      <subrange length='4' type-id='type-id-4' id='type-id-11'/>
    </array-type-def>
    <type-decl name='unnamed-enum-underlying-type-32' is-anonymous='yes' size-in-bits='32' alignment-in-bits='32' id='type-id-25'/>
    <type-decl name='unsigned int' size-in-bits='32' id='type-id-13'/>
    <type-decl name='unsigned long int' size-in-bits='64' id='type-id-4'/>
    <type-decl name='unsigned short int' size-in-bits='16' id='type-id-26'/>
    <type-decl name='variadic parameter type' id='type-id-27'/>
    <type-decl name='void' id='type-id-28'/>
    <type-decl name='wchar_t' size-in-bits='32' id='type-id-29'/>
    <typedef-decl name='_Atomic_word' type-id='type-id-17' filepath='/usr/lib/gcc/x86_64-redhat-linux/4.4.7/../../../../include/c++/4.4.7/x86_64-redhat-linux/bits/atomic_word.h' line='32' column='1' id='type-id-30'/>
    <class-decl name='vtkSQLDatabase' size-in-bits='384' visibility='default' filepath='/var/tmp/gamblin2/spack-stage/spack-stage-hrtRhh/VTK-6.1.0/IO/SQL/vtkSQLDatabase.h' line='82' column='1' id='type-id-31'>
      <base-class access='public' layout-offset-in-bits='0' type-id='type-id-32'/>
      <member-type access='private'>
        <class-decl name='vtkCallbackVector' size-in-bits='192' visibility='default' filepath='/var/tmp/gamblin2/spack-stage/spack-stage-hrtRhh/VTK-6.1.0/IO/SQL/vtkSQLDatabase.cxx' line='40' column='1' id='type-id-33'>
          <base-class access='public' layout-offset-in-bits='0' type-id='type-id-34'/>
        </class-decl>
      </member-type>
      <member-type access='private'>
        <typedef-decl name='CreateFunction' type-id='type-id-36' filepath='/var/tmp/gamblin2/spack-stage/spack-stage-hrtRhh/VTK-6.1.0/IO/SQL/vtkSQLDatabase.h' line='199' column='1' id='type-id-35'/>
      </member-type>
      <data-member access='private' static='yes'>
        <var-decl name='Callbacks' type-id='type-id-37' mangled-name='_ZN14vtkSQLDatabase9CallbacksE' visibility='default' filepath='/var/tmp/gamblin2/spack-stage/spack-stage-hrtRhh/VTK-6.1.0/IO/SQL/vtkSQLDatabase.cxx' line='56' column='1' elf-symbol-id='_ZN14vtkSQLDatabase9CallbacksE'/>
      </data-member>
      <member-function access='protected' constructor='yes'>
        <function-decl name='vtkSQLDatabase' mangled-name='_ZN14vtkSQLDatabaseC1Ev' filepath='/var/tmp/gamblin2/spack-stage/spack-stage-hrtRhh/VTK-6.1.0/IO/SQL/vtkSQLDatabase.cxx' line='77' column='1' visibility='default' binding='global' size-in-bits='64' elf-symbol-id='_ZN14vtkSQLDatabaseC1Ev'>
          <parameter type-id='type-id-38' is-artificial='yes'/>
          <return type-id='type-id-28'/>
        </function-decl>
      </member-function>
      <member-function access='private' constructor='yes'>
        <function-decl name='vtkSQLDatabase' filepath='/var/tmp/gamblin2/spack-stage/spack-stage-hrtRhh/VTK-6.1.0/IO/SQL/vtkSQLDatabase.h' line='231' column='1' visibility='default' binding='global' size-in-bits='64'>
          <parameter type-id='type-id-38' is-artificial='yes'/>
          <parameter type-id='type-id-39'/>
          <return type-id='type-id-28'/>
        </function-decl>
      </member-function>
      <member-function access='private' static='yes'>
        <function-decl name='DATABASE' mangled-name='_ZN14vtkSQLDatabase8DATABASEEv' filepath='/var/tmp/gamblin2/spack-stage/spack-stage-hrtRhh/VTK-6.1.0/IO/SQL/vtkSQLDatabase.cxx' line='74' column='1' visibility='default' binding='global' size-in-bits='64' elf-symbol-id='_ZN14vtkSQLDatabase8DATABASEEv'>
          <return type-id='type-id-40'/>
        </function-decl>
      </member-function>
      <member-function access='private' static='yes'>
        <function-decl name='UnRegisterAllCreateFromURLCallbacks' mangled-name='_ZN14vtkSQLDatabase35UnRegisterAllCreateFromURLCallbacksEv' filepath='/var/tmp/gamblin2/spack-stage/spack-stage-hrtRhh/VTK-6.1.0/IO/SQL/vtkSQLDatabase.cxx' line='118' column='1' visibility='default' binding='global' size-in-bits='64' elf-symbol-id='_ZN14vtkSQLDatabase35UnRegisterAllCreateFromURLCallbacksEv'>
          <return type-id='type-id-28'/>
        </function-decl>
      </member-function>
      <member-function access='private' static='yes'>
        <function-decl name='UnRegisterCreateFromURLCallback' mangled-name='_ZN14vtkSQLDatabase31UnRegisterCreateFromURLCallbackEPFPS_PKcE' filepath='/var/tmp/gamblin2/spack-stage/spack-stage-hrtRhh/VTK-6.1.0/IO/SQL/vtkSQLDatabase.cxx' line='99' column='1' visibility='default' binding='global' size-in-bits='64' elf-symbol-id='_ZN14vtkSQLDatabase31UnRegisterCreateFromURLCallbackEPFPS_PKcE'>
          <parameter type-id='type-id-35'/>
          <return type-id='type-id-28'/>
        </function-decl>
      </member-function>
      <member-function access='private' static='yes'>
        <function-decl name='RegisterCreateFromURLCallback' mangled-name='_ZN14vtkSQLDatabase29RegisterCreateFromURLCallbackEPFPS_PKcE' filepath='/var/tmp/gamblin2/spack-stage/spack-stage-hrtRhh/VTK-6.1.0/IO/SQL/vtkSQLDatabase.cxx' line='87' column='1' visibility='default' binding='global' size-in-bits='64' elf-symbol-id='_ZN14vtkSQLDatabase29RegisterCreateFromURLCallbackEPFPS_PKcE'>
          <parameter type-id='type-id-35'/>
          <return type-id='type-id-28'/>
        </function-decl>
      </member-function>
      <member-function access='private' static='yes'>
        <function-decl name='CreateFromURL' mangled-name='_ZN14vtkSQLDatabase13CreateFromURLEPKc' filepath='/var/tmp/gamblin2/spack-stage/spack-stage-hrtRhh/VTK-6.1.0/IO/SQL/vtkSQLDatabase.cxx' line='375' column='1' visibility='default' binding='global' size-in-bits='64' elf-symbol-id='_ZN14vtkSQLDatabase13CreateFromURLEPKc'>
          <parameter type-id='type-id-41'/>
          <return type-id='type-id-38'/>
        </function-decl>
      </member-function>
      <member-function access='protected' destructor='yes' vtable-offset='-1'>
        <function-decl name='~vtkSQLDatabase' mangled-name='_ZN14vtkSQLDatabaseD1Ev' filepath='/var/tmp/gamblin2/spack-stage/spack-stage-hrtRhh/VTK-6.1.0/IO/SQL/vtkSQLDatabase.cxx' line='82' column='1' visibility='default' binding='global' size-in-bits='64' elf-symbol-id='_ZN14vtkSQLDatabaseD1Ev'>
          <parameter type-id='type-id-38' is-artificial='yes'/>
          <parameter type-id='type-id-17' is-artificial='yes'/>
          <return type-id='type-id-28'/>
        </function-decl>
      </member-function>
      <member-function access='private' vtable-offset='0'>
        <function-decl name='GetClassNameInternal' mangled-name='_ZNK14vtkSQLDatabase20GetClassNameInternalEv' filepath='/var/tmp/gamblin2/spack-stage/spack-stage-hrtRhh/VTK-6.1.0/IO/SQL/vtkSQLDatabase.h' line='84' column='1' visibility='default' binding='global' size-in-bits='64'>
          <parameter type-id='type-id-42' is-artificial='yes'/>
          <return type-id='type-id-41'/>
        </function-decl>
      </member-function>
      <member-function access='private' vtable-offset='1'>
        <function-decl name='IsA' mangled-name='_ZN14vtkSQLDatabase3IsAEPKc' filepath='/var/tmp/gamblin2/spack-stage/spack-stage-hrtRhh/VTK-6.1.0/IO/SQL/vtkSQLDatabase.h' line='84' column='1' visibility='default' binding='global' size-in-bits='64'>
          <parameter type-id='type-id-38' is-artificial='yes'/>
          <parameter type-id='type-id-41'/>
          <return type-id='type-id-17'/>
        </function-decl>
      </member-function>
      <member-function access='private' vtable-offset='4'>
        <function-decl name='PrintSelf' mangled-name='_ZN14vtkSQLDatabase9PrintSelfERSo9vtkIndent' filepath='/var/tmp/gamblin2/spack-stage/spack-stage-hrtRhh/VTK-6.1.0/IO/SQL/vtkSQLDatabase.cxx' line='125' column='1' visibility='default' binding='global' size-in-bits='64' elf-symbol-id='_ZN14vtkSQLDatabase9PrintSelfERSo9vtkIndent'>
          <parameter type-id='type-id-38' is-artificial='yes'/>
          <parameter type-id='type-id-43'/>
          <parameter type-id='type-id-44'/>
          <return type-id='type-id-28'/>
        </function-decl>
      </member-function>
      <member-function access='protected' vtable-offset='15'>
        <function-decl name='NewInstanceInternal' mangled-name='_ZNK14vtkSQLDatabase19NewInstanceInternalEv' filepath='/var/tmp/gamblin2/spack-stage/spack-stage-hrtRhh/VTK-6.1.0/IO/SQL/vtkSQLDatabase.h' line='84' column='1' visibility='default' binding='global' size-in-bits='64'>
          <parameter type-id='type-id-42' is-artificial='yes'/>
          <return type-id='type-id-45'/>
        </function-decl>
      </member-function>
      <member-function access='private' vtable-offset='20'>
        <function-decl name='Open' mangled-name='_ZN14vtkSQLDatabase4OpenEPKc' filepath='/var/tmp/gamblin2/spack-stage/spack-stage-hrtRhh/VTK-6.1.0/IO/SQL/vtkSQLDatabase.h' line='92' column='1' visibility='default' binding='global' size-in-bits='64'>
          <parameter type-id='type-id-38' is-artificial='yes'/>
          <parameter type-id='type-id-41'/>
          <return type-id='type-id-1'/>
        </function-decl>
      </member-function>
      <member-function access='private' vtable-offset='21'>
        <function-decl name='Close' mangled-name='_ZN14vtkSQLDatabase5CloseEv' filepath='/var/tmp/gamblin2/spack-stage/spack-stage-hrtRhh/VTK-6.1.0/IO/SQL/vtkSQLDatabase.h' line='96' column='1' visibility='default' binding='global' size-in-bits='64'>
          <parameter type-id='type-id-38' is-artificial='yes'/>
          <return type-id='type-id-28'/>
        </function-decl>
      </member-function>
      <member-function access='private' vtable-offset='22'>
        <function-decl name='IsOpen' mangled-name='_ZN14vtkSQLDatabase6IsOpenEv' filepath='/var/tmp/gamblin2/spack-stage/spack-stage-hrtRhh/VTK-6.1.0/IO/SQL/vtkSQLDatabase.h' line='100' column='1' visibility='default' binding='global' size-in-bits='64'>
          <parameter type-id='type-id-38' is-artificial='yes'/>
          <return type-id='type-id-1'/>
        </function-decl>
      </member-function>
      <member-function access='private' vtable-offset='23'>
        <function-decl name='GetQueryInstance' mangled-name='_ZN14vtkSQLDatabase16GetQueryInstanceEv' filepath='/var/tmp/gamblin2/spack-stage/spack-stage-hrtRhh/VTK-6.1.0/IO/SQL/vtkSQLDatabase.h' line='104' column='1' visibility='default' binding='global' size-in-bits='64'>
          <parameter type-id='type-id-38' is-artificial='yes'/>
          <return type-id='type-id-46'/>
        </function-decl>
      </member-function>
      <member-function access='private' vtable-offset='24'>
        <function-decl name='HasError' mangled-name='_ZN14vtkSQLDatabase8HasErrorEv' filepath='/var/tmp/gamblin2/spack-stage/spack-stage-hrtRhh/VTK-6.1.0/IO/SQL/vtkSQLDatabase.h' line='108' column='1' visibility='default' binding='global' size-in-bits='64'>
          <parameter type-id='type-id-38' is-artificial='yes'/>
          <return type-id='type-id-1'/>
        </function-decl>
      </member-function>
      <member-function access='private' vtable-offset='25'>
        <function-decl name='GetLastErrorText' mangled-name='_ZN14vtkSQLDatabase16GetLastErrorTextEv' filepath='/var/tmp/gamblin2/spack-stage/spack-stage-hrtRhh/VTK-6.1.0/IO/SQL/vtkSQLDatabase.h' line='116' column='1' visibility='default' binding='global' size-in-bits='64'>
          <parameter type-id='type-id-38' is-artificial='yes'/>
          <return type-id='type-id-41'/>
        </function-decl>
      </member-function>
      <member-function access='private' vtable-offset='26'>
        <function-decl name='GetDatabaseType' mangled-name='_ZN14vtkSQLDatabase15GetDatabaseTypeEv' filepath='/var/tmp/gamblin2/spack-stage/spack-stage-hrtRhh/VTK-6.1.0/IO/SQL/vtkSQLDatabase.h' line='120' column='1' visibility='default' binding='global' size-in-bits='64'>
          <parameter type-id='type-id-38' is-artificial='yes'/>
          <return type-id='type-id-47'/>
        </function-decl>
      </member-function>
      <member-function access='private' vtable-offset='27'>
        <function-decl name='GetTables' mangled-name='_ZN14vtkSQLDatabase9GetTablesEv' filepath='/var/tmp/gamblin2/spack-stage/spack-stage-hrtRhh/VTK-6.1.0/IO/SQL/vtkSQLDatabase.h' line='124' column='1' visibility='default' binding='global' size-in-bits='64'>
          <parameter type-id='type-id-38' is-artificial='yes'/>
          <return type-id='type-id-48'/>
        </function-decl>
      </member-function>
      <member-function access='private' vtable-offset='28'>
        <function-decl name='GetRecord' mangled-name='_ZN14vtkSQLDatabase9GetRecordEPKc' filepath='/var/tmp/gamblin2/spack-stage/spack-stage-hrtRhh/VTK-6.1.0/IO/SQL/vtkSQLDatabase.h' line='128' column='1' visibility='default' binding='global' size-in-bits='64'>
          <parameter type-id='type-id-38' is-artificial='yes'/>
          <parameter type-id='type-id-41'/>
          <return type-id='type-id-48'/>
        </function-decl>
      </member-function>
      <member-function access='private' vtable-offset='29'>
        <function-decl name='IsSupported' mangled-name='_ZN14vtkSQLDatabase11IsSupportedEi' filepath='/var/tmp/gamblin2/spack-stage/spack-stage-hrtRhh/VTK-6.1.0/IO/SQL/vtkSQLDatabase.h' line='132' column='1' visibility='default' binding='global' size-in-bits='64'>
          <parameter type-id='type-id-38' is-artificial='yes'/>
          <parameter type-id='type-id-17'/>
          <return type-id='type-id-1'/>
        </function-decl>
      </member-function>
      <member-function access='private' vtable-offset='30'>
        <function-decl name='GetURL' mangled-name='_ZN14vtkSQLDatabase6GetURLEv' filepath='/var/tmp/gamblin2/spack-stage/spack-stage-hrtRhh/VTK-6.1.0/IO/SQL/vtkSQLDatabase.h' line='136' column='1' visibility='default' binding='global' size-in-bits='64'>
          <parameter type-id='type-id-38' is-artificial='yes'/>
          <return type-id='type-id-49'/>
        </function-decl>
      </member-function>
      <member-function access='private' vtable-offset='31'>
        <function-decl name='GetTablePreamble' mangled-name='_ZN14vtkSQLDatabase16GetTablePreambleEb' filepath='/var/tmp/gamblin2/spack-stage/spack-stage-hrtRhh/VTK-6.1.0/IO/SQL/vtkSQLDatabase.h' line='144' column='1' visibility='default' binding='global' size-in-bits='64'>
          <parameter type-id='type-id-38' is-artificial='yes'/>
          <parameter type-id='type-id-1'/>
          <return type-id='type-id-49'/>
        </function-decl>
      </member-function>
      <member-function access='private' vtable-offset='32'>
        <function-decl name='GetColumnSpecification' mangled-name='_ZN14vtkSQLDatabase22GetColumnSpecificationEP20vtkSQLDatabaseSchemaii' filepath='/var/tmp/gamblin2/spack-stage/spack-stage-hrtRhh/VTK-6.1.0/IO/SQL/vtkSQLDatabase.cxx' line='131' column='1' visibility='default' binding='global' size-in-bits='64' elf-symbol-id='_ZN14vtkSQLDatabase22GetColumnSpecificationEP20vtkSQLDatabaseSchemaii'>
          <parameter type-id='type-id-38' is-artificial='yes'/>
          <parameter type-id='type-id-50'/>
          <parameter type-id='type-id-17'/>
          <parameter type-id='type-id-17'/>
          <return type-id='type-id-49'/>
        </function-decl>
      </member-function>
      <member-function access='private' vtable-offset='33'>
        <function-decl name='GetIndexSpecification' mangled-name='_ZN14vtkSQLDatabase21GetIndexSpecificationEP20vtkSQLDatabaseSchemaiiRb' filepath='/var/tmp/gamblin2/spack-stage/spack-stage-hrtRhh/VTK-6.1.0/IO/SQL/vtkSQLDatabase.cxx' line='263' column='1' visibility='default' binding='global' size-in-bits='64' elf-symbol-id='_ZN14vtkSQLDatabase21GetIndexSpecificationEP20vtkSQLDatabaseSchemaiiRb'>
          <parameter type-id='type-id-38' is-artificial='yes'/>
          <parameter type-id='type-id-50'/>
          <parameter type-id='type-id-17'/>
          <parameter type-id='type-id-17'/>
          <parameter type-id='type-id-51'/>
          <return type-id='type-id-49'/>
        </function-decl>
      </member-function>
      <member-function access='private' vtable-offset='34'>
        <function-decl name='GetTriggerSpecification' mangled-name='_ZN14vtkSQLDatabase23GetTriggerSpecificationEP20vtkSQLDatabaseSchemaii' filepath='/var/tmp/gamblin2/spack-stage/spack-stage-hrtRhh/VTK-6.1.0/IO/SQL/vtkSQLDatabase.cxx' line='333' column='1' visibility='default' binding='global' size-in-bits='64' elf-symbol-id='_ZN14vtkSQLDatabase23GetTriggerSpecificationEP20vtkSQLDatabaseSchemaii'>
          <parameter type-id='type-id-38' is-artificial='yes'/>
          <parameter type-id='type-id-50'/>
          <parameter type-id='type-id-17'/>
          <parameter type-id='type-id-17'/>
          <return type-id='type-id-49'/>
        </function-decl>
      </member-function>
      <member-function access='private' vtable-offset='35'>
        <function-decl name='EffectSchema' mangled-name='_ZN14vtkSQLDatabase12EffectSchemaEP20vtkSQLDatabaseSchemab' filepath='/var/tmp/gamblin2/spack-stage/spack-stage-hrtRhh/VTK-6.1.0/IO/SQL/vtkSQLDatabase.cxx' line='430' column='1' visibility='default' binding='global' size-in-bits='64' elf-symbol-id='_ZN14vtkSQLDatabase12EffectSchemaEP20vtkSQLDatabaseSchemab'>
          <parameter type-id='type-id-38' is-artificial='yes'/>
          <parameter type-id='type-id-50'/>
          <parameter type-id='type-id-1'/>
          <return type-id='type-id-1'/>
        </function-decl>
      </member-function>
      <member-function access='protected' vtable-offset='36'>
        <function-decl name='ParseURL' mangled-name='_ZN14vtkSQLDatabase8ParseURLEPKc' filepath='/var/tmp/gamblin2/spack-stage/spack-stage-hrtRhh/VTK-6.1.0/IO/SQL/vtkSQLDatabase.h' line='228' column='1' visibility='default' binding='global' size-in-bits='64'>
          <parameter type-id='type-id-38' is-artificial='yes'/>
          <parameter type-id='type-id-41'/>
          <return type-id='type-id-1'/>
        </function-decl>
      </member-function>
    </class-decl>
    <typedef-decl name='iostate' type-id='type-id-52' filepath='/usr/lib/gcc/x86_64-redhat-linux/4.4.7/../../../../include/c++/4.4.7/bits/ios_base.h' line='338' column='1' id='type-id-53'/>
    <typedef-decl name='FILE' type-id='type-id-54' filepath='/usr/include/stdio.h' line='49' column='1' id='type-id-55'/>
    <class-decl name='_IO_FILE' size-in-bits='1728' is-struct='yes' visibility='default' filepath='/usr/include/libio.h' line='271' column='1' id='type-id-54'>
      <data-member access='public' layout-offset-in-bits='0'>
        <var-decl name='_flags' type-id='type-id-17' visibility='default' filepath='/usr/include/libio.h' line='272' column='1'/>
      </data-member>
      <data-member access='public' layout-offset-in-bits='64'>
        <var-decl name='_IO_read_ptr' type-id='type-id-47' visibility='default' filepath='/usr/include/libio.h' line='277' column='1'/>
      </data-member>
      <data-member access='public' layout-offset-in-bits='128'>
        <var-decl name='_IO_read_end' type-id='type-id-47' visibility='default' filepath='/usr/include/libio.h' line='278' column='1'/>
      </data-member>
      <data-member access='public' layout-offset-in-bits='192'>
        <var-decl name='_IO_read_base' type-id='type-id-47' visibility='default' filepath='/usr/include/libio.h' line='279' column='1'/>
      </data-member>
      <data-member access='public' layout-offset-in-bits='256'>
        <var-decl name='_IO_write_base' type-id='type-id-47' visibility='default' filepath='/usr/include/libio.h' line='280' column='1'/>
      </data-member>
      <data-member access='public' layout-offset-in-bits='320'>
        <var-decl name='_IO_write_ptr' type-id='type-id-47' visibility='default' filepath='/usr/include/libio.h' line='281' column='1'/>
      </data-member>
      <data-member access='public' layout-offset-in-bits='384'>
        <var-decl name='_IO_write_end' type-id='type-id-47' visibility='default' filepath='/usr/include/libio.h' line='282' column='1'/>
      </data-member>
      <data-member access='public' layout-offset-in-bits='448'>
        <var-decl name='_IO_buf_base' type-id='type-id-47' visibility='default' filepath='/usr/include/libio.h' line='283' column='1'/>
      </data-member>
      <data-member access='public' layout-offset-in-bits='512'>
        <var-decl name='_IO_buf_end' type-id='type-id-47' visibility='default' filepath='/usr/include/libio.h' line='284' column='1'/>
      </data-member>
      <data-member access='public' layout-offset-in-bits='576'>
        <var-decl name='_IO_save_base' type-id='type-id-47' visibility='default' filepath='/usr/include/libio.h' line='286' column='1'/>
      </data-member>
      <data-member access='public' layout-offset-in-bits='640'>
        <var-decl name='_IO_backup_base' type-id='type-id-47' visibility='default' filepath='/usr/include/libio.h' line='287' column='1'/>
      </data-member>
      <data-member access='public' layout-offset-in-bits='704'>
        <var-decl name='_IO_save_end' type-id='type-id-47' visibility='default' filepath='/usr/include/libio.h' line='288' column='1'/>
      </data-member>
      <data-member access='public' layout-offset-in-bits='768'>
        <var-decl name='_markers' type-id='type-id-56' visibility='default' filepath='/usr/include/libio.h' line='290' column='1'/>
      </data-member>
      <data-member access='public' layout-offset-in-bits='832'>
        <var-decl name='_chain' type-id='type-id-57' visibility='default' filepath='/usr/include/libio.h' line='292' column='1'/>
      </data-member>
      <data-member access='public' layout-offset-in-bits='896'>
        <var-decl name='_fileno' type-id='type-id-17' visibility='default' filepath='/usr/include/libio.h' line='294' column='1'/>
      </data-member>
      <data-member access='public' layout-offset-in-bits='928'>
        <var-decl name='_flags2' type-id='type-id-17' visibility='default' filepath='/usr/include/libio.h' line='298' column='1'/>
      </data-member>
      <data-member access='public' layout-offset-in-bits='960'>
        <var-decl name='_old_offset' type-id='type-id-58' visibility='default' filepath='/usr/include/libio.h' line='300' column='1'/>
      </data-member>
      <data-member access='public' layout-offset-in-bits='1024'>
        <var-decl name='_cur_column' type-id='type-id-26' visibility='default' filepath='/usr/include/libio.h' line='304' column='1'/>
      </data-member>
      <data-member access='public' layout-offset-in-bits='1040'>
        <var-decl name='_vtable_offset' type-id='type-id-22' visibility='default' filepath='/usr/include/libio.h' line='305' column='1'/>
      </data-member>
      <data-member access='public' layout-offset-in-bits='1048'>
        <var-decl name='_shortbuf' type-id='type-id-3' visibility='default' filepath='/usr/include/libio.h' line='306' column='1'/>
      </data-member>
      <data-member access='public' layout-offset-in-bits='1088'>
        <var-decl name='_lock' type-id='type-id-59' visibility='default' filepath='/usr/include/libio.h' line='310' column='1'/>
      </data-member>
      <data-member access='public' layout-offset-in-bits='1152'>
        <var-decl name='_offset' type-id='type-id-60' visibility='default' filepath='/usr/include/libio.h' line='319' column='1'/>
      </data-member>
      <data-member access='public' layout-offset-in-bits='1216'>
        <var-decl name='__pad1' type-id='type-id-14' visibility='default' filepath='/usr/include/libio.h' line='328' column='1'/>
      </data-member>
      <data-member access='public' layout-offset-in-bits='1280'>
        <var-decl name='__pad2' type-id='type-id-14' visibility='default' filepath='/usr/include/libio.h' line='329' column='1'/>
      </data-member>
      <data-member access='public' layout-offset-in-bits='1344'>
        <var-decl name='__pad3' type-id='type-id-14' visibility='default' filepath='/usr/include/libio.h' line='330' column='1'/>
      </data-member>
      <data-member access='public' layout-offset-in-bits='1408'>
        <var-decl name='__pad4' type-id='type-id-14' visibility='default' filepath='/usr/include/libio.h' line='331' column='1'/>
      </data-member>
      <data-member access='public' layout-offset-in-bits='1472'>
        <var-decl name='__pad5' type-id='type-id-23' visibility='default' filepath='/usr/include/libio.h' line='332' column='1'/>
      </data-member>
      <data-member access='public' layout-offset-in-bits='1536'>
        <var-decl name='_mode' type-id='type-id-17' visibility='default' filepath='/usr/include/libio.h' line='334' column='1'/>
      </data-member>
      <data-member access='public' layout-offset-in-bits='1568'>
        <var-decl name='_unused2' type-id='type-id-6' visibility='default' filepath='/usr/include/libio.h' line='336' column='1'/>
      </data-member>
    </class-decl>
    <class-decl name='_IO_marker' size-in-bits='192' is-struct='yes' visibility='default' filepath='/usr/include/libio.h' line='186' column='1' id='type-id-61'>
      <data-member access='public' layout-offset-in-bits='0'>
        <var-decl name='_next' type-id='type-id-56' visibility='default' filepath='/usr/include/libio.h' line='187' column='1'/>
      </data-member>
      <data-member access='public' layout-offset-in-bits='64'>
        <var-decl name='_sbuf' type-id='type-id-57' visibility='default' filepath='/usr/include/libio.h' line='188' column='1'/>
      </data-member>
      <data-member access='public' layout-offset-in-bits='128'>
        <var-decl name='_pos' type-id='type-id-17' visibility='default' filepath='/usr/include/libio.h' line='192' column='1'/>
      </data-member>
    </class-decl>
    <typedef-decl name='__off_t' type-id='type-id-19' filepath='/usr/include/bits/types.h' line='141' column='1' id='type-id-58'/>
    <typedef-decl name='_IO_lock_t' type-id='type-id-28' filepath='/usr/include/libio.h' line='180' column='1' id='type-id-62'/>
    <typedef-decl name='__off64_t' type-id='type-id-19' filepath='/usr/include/bits/types.h' line='142' column='1' id='type-id-60'/>
    <typedef-decl name='size_t' type-id='type-id-4' filepath='/usr/lib/gcc/x86_64-redhat-linux/4.4.7/include/stddef.h' line='211' column='1' id='type-id-23'/>
    <typedef-decl name='__gthread_mutex_t' type-id='type-id-63' filepath='/usr/lib/gcc/x86_64-redhat-linux/4.4.7/../../../../include/c++/4.4.7/x86_64-redhat-linux/bits/gthr-default.h' line='47' column='1' id='type-id-64'/>
    <union-decl name='pthread_mutex_t' size-in-bits='320' visibility='default' filepath='/usr/include/bits/pthreadtypes.h' line='77' column='1' id='type-id-63'>
      <member-type access='public'>
        <class-decl name='__pthread_mutex_s' size-in-bits='320' is-struct='yes' visibility='default' filepath='/usr/include/bits/pthreadtypes.h' line='79' column='1' id='type-id-65'>
          <data-member access='public' layout-offset-in-bits='0'>
            <var-decl name='__lock' type-id='type-id-17' visibility='default' filepath='/usr/include/bits/pthreadtypes.h' line='80' column='1'/>
          </data-member>
          <data-member access='public' layout-offset-in-bits='32'>
            <var-decl name='__count' type-id='type-id-13' visibility='default' filepath='/usr/include/bits/pthreadtypes.h' line='81' column='1'/>
          </data-member>
          <data-member access='public' layout-offset-in-bits='64'>
            <var-decl name='__owner' type-id='type-id-17' visibility='default' filepath='/usr/include/bits/pthreadtypes.h' line='82' column='1'/>
          </data-member>
          <data-member access='public' layout-offset-in-bits='96'>
            <var-decl name='__nusers' type-id='type-id-13' visibility='default' filepath='/usr/include/bits/pthreadtypes.h' line='84' column='1'/>
          </data-member>
          <data-member access='public' layout-offset-in-bits='128'>
            <var-decl name='__kind' type-id='type-id-17' visibility='default' filepath='/usr/include/bits/pthreadtypes.h' line='88' column='1'/>
          </data-member>
          <data-member access='public' layout-offset-in-bits='160'>
            <var-decl name='__spins' type-id='type-id-17' visibility='default' filepath='/usr/include/bits/pthreadtypes.h' line='90' column='1'/>
          </data-member>
          <data-member access='public' layout-offset-in-bits='192'>
            <var-decl name='__list' type-id='type-id-66' visibility='default' filepath='/usr/include/bits/pthreadtypes.h' line='91' column='1'/>
          </data-member>
        </class-decl>
      </member-type>
      <data-member access='public'>
        <var-decl name='__data' type-id='type-id-65' visibility='default' filepath='/usr/include/bits/pthreadtypes.h' line='101' column='1'/>
      </data-member>
      <data-member access='public'>
        <var-decl name='__size' type-id='type-id-8' visibility='default' filepath='/usr/include/bits/pthreadtypes.h' line='102' column='1'/>
      </data-member>
      <data-member access='public'>
        <var-decl name='__align' type-id='type-id-19' visibility='default' filepath='/usr/include/bits/pthreadtypes.h' line='103' column='1'/>
      </data-member>
    </union-decl>
    <typedef-decl name='__pthread_list_t' type-id='type-id-67' filepath='/usr/include/bits/pthreadtypes.h' line='65' column='1' id='type-id-66'/>
    <class-decl name='__pthread_internal_list' size-in-bits='128' is-struct='yes' visibility='default' filepath='/usr/include/bits/pthreadtypes.h' line='62' column='1' id='type-id-67'>
      <data-member access='public' layout-offset-in-bits='0'>
        <var-decl name='__prev' type-id='type-id-68' visibility='default' filepath='/usr/include/bits/pthreadtypes.h' line='63' column='1'/>
      </data-member>
      <data-member access='public' layout-offset-in-bits='64'>
        <var-decl name='__next' type-id='type-id-68' visibility='default' filepath='/usr/include/bits/pthreadtypes.h' line='64' column='1'/>
      </data-member>
    </class-decl>
    <typedef-decl name='ptrdiff_t' type-id='type-id-19' filepath='/usr/lib/gcc/x86_64-redhat-linux/4.4.7/include/stddef.h' line='149' column='1' id='type-id-69'/>
    <class-decl name='vtkIndent' size-in-bits='32' visibility='default' filepath='/var/tmp/gamblin2/spack-stage/spack-stage-hrtRhh/VTK-6.1.0/Common/Core/vtkIndent.h' line='31' column='1' id='type-id-44'>
      <data-member access='protected' layout-offset-in-bits='0'>
        <var-decl name='Indent' type-id='type-id-17' visibility='default' filepath='/var/tmp/gamblin2/spack-stage/spack-stage-hrtRhh/VTK-6.1.0/Common/Core/vtkIndent.h' line='49' column='1'/>
      </data-member>
      <member-function access='private' constructor='yes'>
        <function-decl name='vtkIndent' filepath='/var/tmp/gamblin2/spack-stage/spack-stage-hrtRhh/VTK-6.1.0/Common/Core/vtkIndent.h' line='34' column='1' visibility='default' binding='global' size-in-bits='64'>
          <parameter type-id='type-id-70' is-artificial='yes'/>
          <parameter type-id='type-id-17'/>
          <return type-id='type-id-28'/>
        </function-decl>
      </member-function>
    </class-decl>
    <typedef-decl name='wint_t' type-id='type-id-13' filepath='/usr/lib/gcc/x86_64-redhat-linux/4.4.7/include/stddef.h' line='352' column='1' id='type-id-71'/>
    <typedef-decl name='__FILE' type-id='type-id-54' filepath='/usr/include/stdio.h' line='65' column='1' id='type-id-72'/>
    <typedef-decl name='mbstate_t' type-id='type-id-73' filepath='/usr/include/wchar.h' line='106' column='1' id='type-id-74'/>
    <class-decl name='__mbstate_t' size-in-bits='64' is-struct='yes' visibility='default' filepath='/usr/include/wchar.h' line='84' column='1' id='type-id-73'>
      <member-type access='public'>
        <union-decl name='__anonymous_union__' size-in-bits='32' is-anonymous='yes' visibility='default' filepath='/usr/include/wchar.h' line='87' column='1' id='type-id-75'>
          <data-member access='public'>
            <var-decl name='__wch' type-id='type-id-13' visibility='default' filepath='/usr/include/wchar.h' line='89' column='1'/>
          </data-member>
          <data-member access='public'>
            <var-decl name='__wchb' type-id='type-id-10' visibility='default' filepath='/usr/include/wchar.h' line='93' column='1'/>
          </data-member>
        </union-decl>
      </member-type>
      <data-member access='public' layout-offset-in-bits='0'>
        <var-decl name='__count' type-id='type-id-17' visibility='default' filepath='/usr/include/wchar.h' line='85' column='1'/>
      </data-member>
      <data-member access='public' layout-offset-in-bits='32'>
        <var-decl name='__value' type-id='type-id-75' visibility='default' filepath='/usr/include/wchar.h' line='94' column='1'/>
      </data-member>
    </class-decl>
    <class-decl name='tm' size-in-bits='448' is-struct='yes' visibility='default' filepath='/usr/include/time.h' line='134' column='1' id='type-id-76'>
      <data-member access='public' layout-offset-in-bits='0'>
        <var-decl name='tm_sec' type-id='type-id-17' visibility='default' filepath='/usr/include/time.h' line='135' column='1'/>
      </data-member>
      <data-member access='public' layout-offset-in-bits='32'>
        <var-decl name='tm_min' type-id='type-id-17' visibility='default' filepath='/usr/include/time.h' line='136' column='1'/>
      </data-member>
      <data-member access='public' layout-offset-in-bits='64'>
        <var-decl name='tm_hour' type-id='type-id-17' visibility='default' filepath='/usr/include/time.h' line='137' column='1'/>
      </data-member>
      <data-member access='public' layout-offset-in-bits='96'>
        <var-decl name='tm_mday' type-id='type-id-17' visibility='default' filepath='/usr/include/time.h' line='138' column='1'/>
      </data-member>
      <data-member access='public' layout-offset-in-bits='128'>
        <var-decl name='tm_mon' type-id='type-id-17' visibility='default' filepath='/usr/include/time.h' line='139' column='1'/>
      </data-member>
      <data-member access='public' layout-offset-in-bits='160'>
        <var-decl name='tm_year' type-id='type-id-17' visibility='default' filepath='/usr/include/time.h' line='140' column='1'/>
      </data-member>
      <data-member access='public' layout-offset-in-bits='192'>
        <var-decl name='tm_wday' type-id='type-id-17' visibility='default' filepath='/usr/include/time.h' line='141' column='1'/>
      </data-member>
      <data-member access='public' layout-offset-in-bits='224'>
        <var-decl name='tm_yday' type-id='type-id-17' visibility='default' filepath='/usr/include/time.h' line='142' column='1'/>
      </data-member>
      <data-member access='public' layout-offset-in-bits='256'>
        <var-decl name='tm_isdst' type-id='type-id-17' visibility='default' filepath='/usr/include/time.h' line='143' column='1'/>
      </data-member>
      <data-member access='public' layout-offset-in-bits='320'>
        <var-decl name='tm_gmtoff' type-id='type-id-19' visibility='default' filepath='/usr/include/time.h' line='146' column='1'/>
      </data-member>
      <data-member access='public' layout-offset-in-bits='384'>
        <var-decl name='tm_zone' type-id='type-id-41' visibility='default' filepath='/usr/include/time.h' line='147' column='1'/>
      </data-member>
    </class-decl>
    <class-decl name='vtkStdString' size-in-bits='64' visibility='default' filepath='/var/tmp/gamblin2/spack-stage/spack-stage-hrtRhh/VTK-6.1.0/Common/Core/vtkStdString.h' line='40' column='1' id='type-id-49'>
      <base-class access='public' layout-offset-in-bits='0' type-id='type-id-77'/>
      <member-type access='private'>
        <typedef-decl name='iterator' type-id='type-id-79' filepath='/var/tmp/gamblin2/spack-stage/spack-stage-hrtRhh/VTK-6.1.0/Common/Core/vtkStdString.h' line='49' column='1' id='type-id-78'/>
      </member-type>
      <member-type access='private'>
        <typedef-decl name='StdString' type-id='type-id-81' filepath='/var/tmp/gamblin2/spack-stage/spack-stage-hrtRhh/VTK-6.1.0/Common/Core/vtkStdString.h' line='42' column='1' id='type-id-80'/>
      </member-type>
      <member-type access='private'>
        <typedef-decl name='value_type' type-id='type-id-83' filepath='/var/tmp/gamblin2/spack-stage/spack-stage-hrtRhh/VTK-6.1.0/Common/Core/vtkStdString.h' line='43' column='1' id='type-id-82'/>
      </member-type>
      <member-type access='private'>
        <typedef-decl name='size_type' type-id='type-id-23' filepath='/var/tmp/gamblin2/spack-stage/spack-stage-hrtRhh/VTK-6.1.0/Common/Core/vtkStdString.h' line='47' column='1' id='type-id-84'/>
      </member-type>
      <member-function access='private' constructor='yes'>
        <function-decl name='vtkStdString' filepath='/var/tmp/gamblin2/spack-stage/spack-stage-hrtRhh/VTK-6.1.0/Common/Core/vtkStdString.h' line='54' column='1' visibility='default' binding='global' size-in-bits='64'>
          <parameter type-id='type-id-85' is-artificial='yes'/>
          <return type-id='type-id-28'/>
        </function-decl>
      </member-function>
      <member-function access='private' constructor='yes'>
        <function-decl name='vtkStdString' filepath='/var/tmp/gamblin2/spack-stage/spack-stage-hrtRhh/VTK-6.1.0/Common/Core/vtkStdString.h' line='55' column='1' visibility='default' binding='global' size-in-bits='64'>
          <parameter type-id='type-id-85' is-artificial='yes'/>
          <parameter type-id='type-id-86'/>
          <return type-id='type-id-28'/>
        </function-decl>
      </member-function>
      <member-function access='private' constructor='yes'>
        <function-decl name='vtkStdString' filepath='/var/tmp/gamblin2/spack-stage/spack-stage-hrtRhh/VTK-6.1.0/Common/Core/vtkStdString.h' line='56' column='1' visibility='default' binding='global' size-in-bits='64'>
          <parameter type-id='type-id-85' is-artificial='yes'/>
          <parameter type-id='type-id-86'/>
          <parameter type-id='type-id-84'/>
          <return type-id='type-id-28'/>
        </function-decl>
      </member-function>
      <member-function access='private' constructor='yes'>
        <function-decl name='vtkStdString' filepath='/var/tmp/gamblin2/spack-stage/spack-stage-hrtRhh/VTK-6.1.0/Common/Core/vtkStdString.h' line='57' column='1' visibility='default' binding='global' size-in-bits='64'>
          <parameter type-id='type-id-85' is-artificial='yes'/>
          <parameter type-id='type-id-87'/>
          <parameter type-id='type-id-84'/>
          <parameter type-id='type-id-84'/>
          <return type-id='type-id-28'/>
        </function-decl>
      </member-function>
    </class-decl>
    <class-decl name='lconv' size-in-bits='768' is-struct='yes' visibility='default' filepath='/usr/include/locale.h' line='55' column='1' id='type-id-88'>
      <data-member access='public' layout-offset-in-bits='0'>
        <var-decl name='decimal_point' type-id='type-id-47' visibility='default' filepath='/usr/include/locale.h' line='58' column='1'/>
      </data-member>
      <data-member access='public' layout-offset-in-bits='64'>
        <var-decl name='thousands_sep' type-id='type-id-47' visibility='default' filepath='/usr/include/locale.h' line='59' column='1'/>
      </data-member>
      <data-member access='public' layout-offset-in-bits='128'>
        <var-decl name='grouping' type-id='type-id-47' visibility='default' filepath='/usr/include/locale.h' line='65' column='1'/>
      </data-member>
      <data-member access='public' layout-offset-in-bits='192'>
        <var-decl name='int_curr_symbol' type-id='type-id-47' visibility='default' filepath='/usr/include/locale.h' line='71' column='1'/>
      </data-member>
      <data-member access='public' layout-offset-in-bits='256'>
        <var-decl name='currency_symbol' type-id='type-id-47' visibility='default' filepath='/usr/include/locale.h' line='72' column='1'/>
      </data-member>
      <data-member access='public' layout-offset-in-bits='320'>
        <var-decl name='mon_decimal_point' type-id='type-id-47' visibility='default' filepath='/usr/include/locale.h' line='73' column='1'/>
      </data-member>
      <data-member access='public' layout-offset-in-bits='384'>
        <var-decl name='mon_thousands_sep' type-id='type-id-47' visibility='default' filepath='/usr/include/locale.h' line='74' column='1'/>
      </data-member>
      <data-member access='public' layout-offset-in-bits='448'>
        <var-decl name='mon_grouping' type-id='type-id-47' visibility='default' filepath='/usr/include/locale.h' line='75' column='1'/>
      </data-member>
      <data-member access='public' layout-offset-in-bits='512'>
        <var-decl name='positive_sign' type-id='type-id-47' visibility='default' filepath='/usr/include/locale.h' line='76' column='1'/>
      </data-member>
      <data-member access='public' layout-offset-in-bits='576'>
        <var-decl name='negative_sign' type-id='type-id-47' visibility='default' filepath='/usr/include/locale.h' line='77' column='1'/>
      </data-member>
      <data-member access='public' layout-offset-in-bits='640'>
        <var-decl name='int_frac_digits' type-id='type-id-2' visibility='default' filepath='/usr/include/locale.h' line='78' column='1'/>
      </data-member>
      <data-member access='public' layout-offset-in-bits='648'>
        <var-decl name='frac_digits' type-id='type-id-2' visibility='default' filepath='/usr/include/locale.h' line='79' column='1'/>
      </data-member>
      <data-member access='public' layout-offset-in-bits='656'>
        <var-decl name='p_cs_precedes' type-id='type-id-2' visibility='default' filepath='/usr/include/locale.h' line='81' column='1'/>
      </data-member>
      <data-member access='public' layout-offset-in-bits='664'>
        <var-decl name='p_sep_by_space' type-id='type-id-2' visibility='default' filepath='/usr/include/locale.h' line='83' column='1'/>
      </data-member>
      <data-member access='public' layout-offset-in-bits='672'>
        <var-decl name='n_cs_precedes' type-id='type-id-2' visibility='default' filepath='/usr/include/locale.h' line='85' column='1'/>
      </data-member>
      <data-member access='public' layout-offset-in-bits='680'>
        <var-decl name='n_sep_by_space' type-id='type-id-2' visibility='default' filepath='/usr/include/locale.h' line='87' column='1'/>
      </data-member>
      <data-member access='public' layout-offset-in-bits='688'>
        <var-decl name='p_sign_posn' type-id='type-id-2' visibility='default' filepath='/usr/include/locale.h' line='94' column='1'/>
      </data-member>
      <data-member access='public' layout-offset-in-bits='696'>
        <var-decl name='n_sign_posn' type-id='type-id-2' visibility='default' filepath='/usr/include/locale.h' line='95' column='1'/>
      </data-member>
      <data-member access='public' layout-offset-in-bits='704'>
        <var-decl name='int_p_cs_precedes' type-id='type-id-2' visibility='default' filepath='/usr/include/locale.h' line='98' column='1'/>
      </data-member>
      <data-member access='public' layout-offset-in-bits='712'>
        <var-decl name='int_p_sep_by_space' type-id='type-id-2' visibility='default' filepath='/usr/include/locale.h' line='100' column='1'/>
      </data-member>
      <data-member access='public' layout-offset-in-bits='720'>
        <var-decl name='int_n_cs_precedes' type-id='type-id-2' visibility='default' filepath='/usr/include/locale.h' line='102' column='1'/>
      </data-member>
      <data-member access='public' layout-offset-in-bits='728'>
        <var-decl name='int_n_sep_by_space' type-id='type-id-2' visibility='default' filepath='/usr/include/locale.h' line='104' column='1'/>
      </data-member>
      <data-member access='public' layout-offset-in-bits='736'>
        <var-decl name='int_p_sign_posn' type-id='type-id-2' visibility='default' filepath='/usr/include/locale.h' line='111' column='1'/>
      </data-member>
      <data-member access='public' layout-offset-in-bits='744'>
        <var-decl name='int_n_sign_posn' type-id='type-id-2' visibility='default' filepath='/usr/include/locale.h' line='112' column='1'/>
      </data-member>
    </class-decl>
    <typedef-decl name='wctype_t' type-id='type-id-4' filepath='/usr/include/wctype.h' line='53' column='1' id='type-id-89'/>
    <typedef-decl name='wctrans_t' type-id='type-id-90' filepath='/usr/include/wctype.h' line='187' column='1' id='type-id-91'/>
    <typedef-decl name='__int32_t' type-id='type-id-17' filepath='/usr/include/bits/types.h' line='41' column='1' id='type-id-92'/>
    <typedef-decl name='fpos_t' type-id='type-id-93' filepath='/usr/include/stdio.h' line='113' column='1' id='type-id-94'/>
    <class-decl name='_G_fpos64_t' size-in-bits='128' is-struct='yes' visibility='default' filepath='/usr/include/_G_config.h' line='28' column='1' id='type-id-93'>
      <data-member access='public' layout-offset-in-bits='0'>
        <var-decl name='__pos' type-id='type-id-60' visibility='default' filepath='/usr/include/_G_config.h' line='29' column='1'/>
      </data-member>
      <data-member access='public' layout-offset-in-bits='64'>
        <var-decl name='__state' type-id='type-id-73' visibility='default' filepath='/usr/include/_G_config.h' line='30' column='1'/>
      </data-member>
    </class-decl>
    <class-decl name='vtkDatabaseToTableReader' size-in-bits='1152' visibility='default' filepath='/var/tmp/gamblin2/spack-stage/spack-stage-hrtRhh/VTK-6.1.0/IO/SQL/vtkDatabaseToTableReader.h' line='31' column='1' id='type-id-95'>
      <base-class access='public' layout-offset-in-bits='0' type-id='type-id-96'/>
      <data-member access='protected' layout-offset-in-bits='1024'>
        <var-decl name='Database' type-id='type-id-38' visibility='default' filepath='/var/tmp/gamblin2/spack-stage/spack-stage-hrtRhh/VTK-6.1.0/IO/SQL/vtkDatabaseToTableReader.h' line='56' column='1'/>
      </data-member>
      <data-member access='protected' layout-offset-in-bits='1088'>
        <var-decl name='TableName' type-id='type-id-81' visibility='default' filepath='/var/tmp/gamblin2/spack-stage/spack-stage-hrtRhh/VTK-6.1.0/IO/SQL/vtkDatabaseToTableReader.h' line='58' column='1'/>
      </data-member>
      <member-function access='protected' constructor='yes'>
        <function-decl name='vtkDatabaseToTableReader' mangled-name='_ZN24vtkDatabaseToTableReaderC1Ev' filepath='/var/tmp/gamblin2/spack-stage/spack-stage-hrtRhh/VTK-6.1.0/IO/SQL/vtkDatabaseToTableReader.cxx' line='32' column='1' visibility='default' binding='global' size-in-bits='64' elf-symbol-id='_ZN24vtkDatabaseToTableReaderC1Ev'>
          <parameter type-id='type-id-97' is-artificial='yes'/>
          <return type-id='type-id-28'/>
        </function-decl>
      </member-function>
      <member-function access='private' constructor='yes'>
        <function-decl name='vtkDatabaseToTableReader' filepath='/var/tmp/gamblin2/spack-stage/spack-stage-hrtRhh/VTK-6.1.0/IO/SQL/vtkDatabaseToTableReader.h' line='61' column='1' visibility='default' binding='global' size-in-bits='64'>
          <parameter type-id='type-id-97' is-artificial='yes'/>
          <parameter type-id='type-id-98'/>
          <return type-id='type-id-28'/>
        </function-decl>
      </member-function>
      <member-function access='private'>
        <function-decl name='CheckIfTableExists' mangled-name='_ZN24vtkDatabaseToTableReader18CheckIfTableExistsEv' filepath='/var/tmp/gamblin2/spack-stage/spack-stage-hrtRhh/VTK-6.1.0/IO/SQL/vtkDatabaseToTableReader.cxx' line='78' column='1' visibility='default' binding='global' size-in-bits='64' elf-symbol-id='_ZN24vtkDatabaseToTableReader18CheckIfTableExistsEv'>
          <parameter type-id='type-id-99' name='this' is-artificial='yes'/>
          <return type-id='type-id-1'/>
        </function-decl>
      </member-function>
      <member-function access='private'>
        <function-decl name='SetDatabase' mangled-name='_ZN24vtkDatabaseToTableReader11SetDatabaseEP14vtkSQLDatabase' filepath='/var/tmp/gamblin2/spack-stage/spack-stage-hrtRhh/VTK-6.1.0/IO/SQL/vtkDatabaseToTableReader.cxx' line='44' column='1' visibility='default' binding='global' size-in-bits='64' elf-symbol-id='_ZN24vtkDatabaseToTableReader11SetDatabaseEP14vtkSQLDatabase'>
          <parameter type-id='type-id-99' name='this' is-artificial='yes'/>
          <parameter type-id='type-id-38' name='db' filepath='/var/tmp/gamblin2/spack-stage/spack-stage-hrtRhh/VTK-6.1.0/IO/SQL/vtkDatabaseToTableReader.cxx' line='44' column='1'/>
          <return type-id='type-id-1'/>
        </function-decl>
      </member-function>
      <member-function access='private'>
        <function-decl name='SetTableName' mangled-name='_ZN24vtkDatabaseToTableReader12SetTableNameEPKc' filepath='/var/tmp/gamblin2/spack-stage/spack-stage-hrtRhh/VTK-6.1.0/IO/SQL/vtkDatabaseToTableReader.cxx' line='66' column='1' visibility='default' binding='global' size-in-bits='64' elf-symbol-id='_ZN24vtkDatabaseToTableReader12SetTableNameEPKc'>
          <parameter type-id='type-id-99' name='this' is-artificial='yes'/>
          <parameter type-id='type-id-41' name='name' filepath='/var/tmp/gamblin2/spack-stage/spack-stage-hrtRhh/VTK-6.1.0/IO/SQL/vtkDatabaseToTableReader.cxx' line='66' column='1'/>
          <return type-id='type-id-1'/>
        </function-decl>
      </member-function>
      <member-function access='protected' destructor='yes' vtable-offset='-1'>
        <function-decl name='~vtkDatabaseToTableReader' mangled-name='_ZN24vtkDatabaseToTableReaderD2Ev' filepath='/var/tmp/gamblin2/spack-stage/spack-stage-hrtRhh/VTK-6.1.0/IO/SQL/vtkDatabaseToTableReader.cxx' line='39' column='1' visibility='default' binding='global' size-in-bits='64' elf-symbol-id='_ZN24vtkDatabaseToTableReaderD2Ev'>
          <parameter type-id='type-id-97' is-artificial='yes'/>
          <parameter type-id='type-id-17' is-artificial='yes'/>
          <return type-id='type-id-28'/>
        </function-decl>
      </member-function>
      <member-function access='private' vtable-offset='0'>
        <function-decl name='GetClassNameInternal' mangled-name='_ZNK24vtkDatabaseToTableReader20GetClassNameInternalEv' filepath='/var/tmp/gamblin2/spack-stage/spack-stage-hrtRhh/VTK-6.1.0/IO/SQL/vtkDatabaseToTableReader.h' line='33' column='1' visibility='default' binding='global' size-in-bits='64'>
          <parameter type-id='type-id-100' is-artificial='yes'/>
          <return type-id='type-id-41'/>
        </function-decl>
      </member-function>
      <member-function access='private' vtable-offset='1'>
        <function-decl name='IsA' mangled-name='_ZN24vtkDatabaseToTableReader3IsAEPKc' filepath='/var/tmp/gamblin2/spack-stage/spack-stage-hrtRhh/VTK-6.1.0/IO/SQL/vtkDatabaseToTableReader.h' line='33' column='1' visibility='default' binding='global' size-in-bits='64'>
          <parameter type-id='type-id-97' is-artificial='yes'/>
          <parameter type-id='type-id-41'/>
          <return type-id='type-id-17'/>
        </function-decl>
      </member-function>
      <member-function access='private' vtable-offset='4'>
        <function-decl name='PrintSelf' mangled-name='_ZN24vtkDatabaseToTableReader9PrintSelfERSo9vtkIndent' filepath='/var/tmp/gamblin2/spack-stage/spack-stage-hrtRhh/VTK-6.1.0/IO/SQL/vtkDatabaseToTableReader.cxx' line='103' column='1' visibility='default' binding='global' size-in-bits='64' elf-symbol-id='_ZN24vtkDatabaseToTableReader9PrintSelfERSo9vtkIndent'>
          <parameter type-id='type-id-97' is-artificial='yes'/>
          <parameter type-id='type-id-43'/>
          <parameter type-id='type-id-44'/>
          <return type-id='type-id-28'/>
        </function-decl>
      </member-function>
      <member-function access='protected' vtable-offset='15'>
        <function-decl name='NewInstanceInternal' mangled-name='_ZNK24vtkDatabaseToTableReader19NewInstanceInternalEv' filepath='/var/tmp/gamblin2/spack-stage/spack-stage-hrtRhh/VTK-6.1.0/IO/SQL/vtkDatabaseToTableReader.h' line='33' column='1' visibility='default' binding='global' size-in-bits='64'>
          <parameter type-id='type-id-100' is-artificial='yes'/>
          <return type-id='type-id-45'/>
        </function-decl>
      </member-function>
      <member-function access='protected' vtable-offset='69'>
        <function-decl name='RequestData' mangled-name='_ZN24vtkDatabaseToTableReader11RequestDataEP14vtkInformationPP20vtkInformationVectorS3_' filepath='/var/tmp/gamblin2/spack-stage/spack-stage-hrtRhh/VTK-6.1.0/IO/SQL/vtkDatabaseToTableReader.h' line='54' column='1' visibility='default' binding='global' size-in-bits='64'>
          <parameter type-id='type-id-97' is-artificial='yes'/>
          <parameter type-id='type-id-101'/>
          <parameter type-id='type-id-102'/>
          <parameter type-id='type-id-103'/>
          <return type-id='type-id-17'/>
        </function-decl>
      </member-function>
    </class-decl>
    <pointer-type-def type-id='type-id-55' size-in-bits='64' id='type-id-104'/>
    <pointer-type-def type-id='type-id-54' size-in-bits='64' id='type-id-57'/>
    <pointer-type-def type-id='type-id-62' size-in-bits='64' id='type-id-59'/>
    <pointer-type-def type-id='type-id-61' size-in-bits='64' id='type-id-56'/>
    <pointer-type-def type-id='type-id-72' size-in-bits='64' id='type-id-105'/>
    <pointer-type-def type-id='type-id-106' size-in-bits='64' id='type-id-107'/>
    <pointer-type-def type-id='type-id-67' size-in-bits='64' id='type-id-68'/>
    <reference-type-def kind='lvalue' type-id='type-id-2' size-in-bits='64' id='type-id-108'/>
    <pointer-type-def type-id='type-id-2' size-in-bits='64' id='type-id-47'/>
    <qualified-type-def type-id='type-id-106' const='yes' id='type-id-109'/>
    <reference-type-def kind='lvalue' type-id='type-id-109' size-in-bits='64' id='type-id-110'/>
    <pointer-type-def type-id='type-id-109' size-in-bits='64' id='type-id-111'/>
    <qualified-type-def type-id='type-id-92' const='yes' id='type-id-112'/>
    <pointer-type-def type-id='type-id-112' size-in-bits='64' id='type-id-90'/>
    <qualified-type-def type-id='type-id-2' const='yes' id='type-id-113'/>
    <reference-type-def kind='lvalue' type-id='type-id-113' size-in-bits='64' id='type-id-114'/>
    <pointer-type-def type-id='type-id-113' size-in-bits='64' id='type-id-41'/>
    <pointer-type-def type-id='type-id-41' size-in-bits='64' id='type-id-115'/>
    <qualified-type-def type-id='type-id-94' const='yes' id='type-id-116'/>
    <pointer-type-def type-id='type-id-116' size-in-bits='64' id='type-id-117'/>
    <qualified-type-def type-id='type-id-53' const='yes' id='type-id-118'/>
    <qualified-type-def type-id='type-id-74' const='yes' id='type-id-119'/>
    <pointer-type-def type-id='type-id-119' size-in-bits='64' id='type-id-120'/>
    <qualified-type-def type-id='type-id-23' const='yes' id='type-id-121'/>
    <qualified-type-def type-id='type-id-122' const='yes' id='type-id-123'/>
    <qualified-type-def type-id='type-id-124' const='yes' id='type-id-125'/>
    <pointer-type-def type-id='type-id-125' size-in-bits='64' id='type-id-126'/>
    <qualified-type-def type-id='type-id-127' const='yes' id='type-id-128'/>
    <qualified-type-def type-id='type-id-129' const='yes' id='type-id-130'/>
    <qualified-type-def type-id='type-id-131' const='yes' id='type-id-132'/>
    <qualified-type-def type-id='type-id-133' id='type-id-134'/>
    <reference-type-def kind='lvalue' type-id='type-id-132' size-in-bits='64' id='type-id-133'/>
    <qualified-type-def type-id='type-id-77' const='yes' id='type-id-135'/>
    <qualified-type-def type-id='type-id-136' id='type-id-137'/>
    <reference-type-def kind='lvalue' type-id='type-id-135' size-in-bits='64' id='type-id-136'/>
    <pointer-type-def type-id='type-id-135' size-in-bits='64' id='type-id-138'/>
    <qualified-type-def type-id='type-id-138' const='yes' id='type-id-139'/>
    <qualified-type-def type-id='type-id-140' const='yes' id='type-id-141'/>
    <pointer-type-def type-id='type-id-141' size-in-bits='64' id='type-id-142'/>
    <qualified-type-def type-id='type-id-83' const='yes' id='type-id-143'/>
    <reference-type-def kind='lvalue' type-id='type-id-143' size-in-bits='64' id='type-id-144'/>
    <pointer-type-def type-id='type-id-143' size-in-bits='64' id='type-id-145'/>
    <qualified-type-def type-id='type-id-146' const='yes' id='type-id-147'/>
    <reference-type-def kind='lvalue' type-id='type-id-147' size-in-bits='64' id='type-id-148'/>
    <qualified-type-def type-id='type-id-76' const='yes' id='type-id-149'/>
    <pointer-type-def type-id='type-id-149' size-in-bits='64' id='type-id-150'/>
    <qualified-type-def type-id='type-id-95' const='yes' id='type-id-151'/>
    <reference-type-def kind='lvalue' type-id='type-id-151' size-in-bits='64' id='type-id-98'/>
    <pointer-type-def type-id='type-id-151' size-in-bits='64' id='type-id-100'/>
    <qualified-type-def type-id='type-id-152' const='yes' id='type-id-153'/>
    <qualified-type-def type-id='type-id-154' id='type-id-155'/>
    <reference-type-def kind='lvalue' type-id='type-id-153' size-in-bits='64' id='type-id-154'/>
    <qualified-type-def type-id='type-id-80' const='yes' id='type-id-156'/>
    <reference-type-def kind='lvalue' type-id='type-id-156' size-in-bits='64' id='type-id-87'/>
    <qualified-type-def type-id='type-id-82' const='yes' id='type-id-157'/>
    <pointer-type-def type-id='type-id-157' size-in-bits='64' id='type-id-86'/>
    <qualified-type-def type-id='type-id-29' const='yes' id='type-id-158'/>
    <pointer-type-def type-id='type-id-158' size-in-bits='64' id='type-id-159'/>
    <pointer-type-def type-id='type-id-159' size-in-bits='64' id='type-id-160'/>
    <pointer-type-def type-id='type-id-94' size-in-bits='64' id='type-id-161'/>
    <pointer-type-def type-id='type-id-88' size-in-bits='64' id='type-id-162'/>
    <pointer-type-def type-id='type-id-74' size-in-bits='64' id='type-id-163'/>
    <pointer-type-def type-id='type-id-124' size-in-bits='64' id='type-id-164'/>
    <pointer-type-def type-id='type-id-165' size-in-bits='64' id='type-id-166'/>
    <pointer-type-def type-id='type-id-167' size-in-bits='64' id='type-id-168'/>
    <pointer-type-def type-id='type-id-131' size-in-bits='64' id='type-id-169'/>
    <reference-type-def kind='lvalue' type-id='type-id-77' size-in-bits='64' id='type-id-170'/>
    <pointer-type-def type-id='type-id-77' size-in-bits='64' id='type-id-171'/>
    <qualified-type-def type-id='type-id-171' const='yes' id='type-id-172'/>
    <pointer-type-def type-id='type-id-173' size-in-bits='64' id='type-id-174'/>
    <reference-type-def kind='lvalue' type-id='type-id-140' size-in-bits='64' id='type-id-175'/>
    <pointer-type-def type-id='type-id-140' size-in-bits='64' id='type-id-176'/>
    <qualified-type-def type-id='type-id-176' const='yes' id='type-id-177'/>
    <reference-type-def kind='lvalue' type-id='type-id-83' size-in-bits='64' id='type-id-178'/>
    <pointer-type-def type-id='type-id-83' size-in-bits='64' id='type-id-179'/>
    <reference-type-def kind='lvalue' type-id='type-id-180' size-in-bits='64' id='type-id-181'/>
    <pointer-type-def type-id='type-id-182' size-in-bits='64' id='type-id-183'/>
    <reference-type-def kind='lvalue' type-id='type-id-184' size-in-bits='64' id='type-id-43'/>
    <pointer-type-def type-id='type-id-12' size-in-bits='64' id='type-id-185'/>
    <pointer-type-def type-id='type-id-28' size-in-bits='64' id='type-id-14'/>
    <pointer-type-def type-id='type-id-186' size-in-bits='64' id='type-id-187'/>
    <pointer-type-def type-id='type-id-188' size-in-bits='64' id='type-id-189'/>
    <pointer-type-def type-id='type-id-95' size-in-bits='64' id='type-id-97'/>
    <qualified-type-def type-id='type-id-97' const='yes' id='type-id-99'/>
    <pointer-type-def type-id='type-id-44' size-in-bits='64' id='type-id-70'/>
    <pointer-type-def type-id='type-id-190' size-in-bits='64' id='type-id-101'/>
    <pointer-type-def type-id='type-id-191' size-in-bits='64' id='type-id-103'/>
    <pointer-type-def type-id='type-id-103' size-in-bits='64' id='type-id-102'/>
    <pointer-type-def type-id='type-id-192' size-in-bits='64' id='type-id-45'/>
    <pointer-type-def type-id='type-id-193' size-in-bits='64' id='type-id-194'/>
    <pointer-type-def type-id='type-id-31' size-in-bits='64' id='type-id-38'/>
    <pointer-type-def type-id='type-id-49' size-in-bits='64' id='type-id-85'/>
    <pointer-type-def type-id='type-id-29' size-in-bits='64' id='type-id-195'/>
    <pointer-type-def type-id='type-id-195' size-in-bits='64' id='type-id-196'/>
    <class-decl name='vtkAlgorithm' visibility='default' is-declaration-only='yes' id='type-id-186'>
      <member-function access='private' vtable-offset='24'>
        <function-decl name='GetInformation' mangled-name='_ZN12vtkAlgorithm14GetInformationEv' filepath='/var/tmp/gamblin2/spack-stage/spack-stage-hrtRhh/VTK-6.1.0/Common/ExecutionModel/vtkAlgorithm.h' line='160' column='1' visibility='default' binding='global' size-in-bits='64'>
          <parameter type-id='type-id-187' is-artificial='yes'/>
          <return type-id='type-id-101'/>
        </function-decl>
      </member-function>
      <member-function access='private' vtable-offset='26'>
        <function-decl name='SetAbortExecute' mangled-name='_ZN12vtkAlgorithm15SetAbortExecuteEi' filepath='/var/tmp/gamblin2/spack-stage/spack-stage-hrtRhh/VTK-6.1.0/Common/ExecutionModel/vtkAlgorithm.h' line='179' column='1' visibility='default' binding='global' size-in-bits='64'>
          <parameter type-id='type-id-187' is-artificial='yes'/>
          <parameter type-id='type-id-17'/>
          <return type-id='type-id-28'/>
        </function-decl>
      </member-function>
      <member-function access='private' vtable-offset='27'>
        <function-decl name='GetAbortExecute' mangled-name='_ZN12vtkAlgorithm15GetAbortExecuteEv' filepath='/var/tmp/gamblin2/spack-stage/spack-stage-hrtRhh/VTK-6.1.0/Common/ExecutionModel/vtkAlgorithm.h' line='180' column='1' visibility='default' binding='global' size-in-bits='64'>
          <parameter type-id='type-id-187' is-artificial='yes'/>
          <return type-id='type-id-17'/>
        </function-decl>
      </member-function>
      <member-function access='private' vtable-offset='28'>
        <function-decl name='AbortExecuteOn' mangled-name='_ZN12vtkAlgorithm14AbortExecuteOnEv' filepath='/var/tmp/gamblin2/spack-stage/spack-stage-hrtRhh/VTK-6.1.0/Common/ExecutionModel/vtkAlgorithm.h' line='181' column='1' visibility='default' binding='global' size-in-bits='64'>
          <parameter type-id='type-id-187' is-artificial='yes'/>
          <return type-id='type-id-28'/>
        </function-decl>
      </member-function>
      <member-function access='private' vtable-offset='29'>
        <function-decl name='AbortExecuteOff' mangled-name='_ZN12vtkAlgorithm15AbortExecuteOffEv' filepath='/var/tmp/gamblin2/spack-stage/spack-stage-hrtRhh/VTK-6.1.0/Common/ExecutionModel/vtkAlgorithm.h' line='181' column='1' visibility='default' binding='global' size-in-bits='64'>
          <parameter type-id='type-id-187' is-artificial='yes'/>
          <return type-id='type-id-28'/>
        </function-decl>
      </member-function>
      <member-function access='private' vtable-offset='30'>
        <function-decl name='SetProgress' mangled-name='_ZN12vtkAlgorithm11SetProgressEd' filepath='/var/tmp/gamblin2/spack-stage/spack-stage-hrtRhh/VTK-6.1.0/Common/ExecutionModel/vtkAlgorithm.h' line='185' column='1' visibility='default' binding='global' size-in-bits='64'>
          <parameter type-id='type-id-187' is-artificial='yes'/>
          <parameter type-id='type-id-15'/>
          <return type-id='type-id-28'/>
        </function-decl>
      </member-function>
      <member-function access='private' vtable-offset='31'>
        <function-decl name='GetProgressMinValue' mangled-name='_ZN12vtkAlgorithm19GetProgressMinValueEv' filepath='/var/tmp/gamblin2/spack-stage/spack-stage-hrtRhh/VTK-6.1.0/Common/ExecutionModel/vtkAlgorithm.h' line='185' column='1' visibility='default' binding='global' size-in-bits='64'>
          <parameter type-id='type-id-187' is-artificial='yes'/>
          <return type-id='type-id-15'/>
        </function-decl>
      </member-function>
      <member-function access='private' vtable-offset='32'>
        <function-decl name='GetProgressMaxValue' mangled-name='_ZN12vtkAlgorithm19GetProgressMaxValueEv' filepath='/var/tmp/gamblin2/spack-stage/spack-stage-hrtRhh/VTK-6.1.0/Common/ExecutionModel/vtkAlgorithm.h' line='185' column='1' visibility='default' binding='global' size-in-bits='64'>
          <parameter type-id='type-id-187' is-artificial='yes'/>
          <return type-id='type-id-15'/>
        </function-decl>
      </member-function>
      <member-function access='private' vtable-offset='33'>
        <function-decl name='GetProgress' mangled-name='_ZN12vtkAlgorithm11GetProgressEv' filepath='/var/tmp/gamblin2/spack-stage/spack-stage-hrtRhh/VTK-6.1.0/Common/ExecutionModel/vtkAlgorithm.h' line='186' column='1' visibility='default' binding='global' size-in-bits='64'>
          <parameter type-id='type-id-187' is-artificial='yes'/>
          <return type-id='type-id-15'/>
        </function-decl>
      </member-function>
      <member-function access='private' vtable-offset='34'>
        <function-decl name='GetProgressText' mangled-name='_ZN12vtkAlgorithm15GetProgressTextEv' filepath='/var/tmp/gamblin2/spack-stage/spack-stage-hrtRhh/VTK-6.1.0/Common/ExecutionModel/vtkAlgorithm.h' line='201' column='1' visibility='default' binding='global' size-in-bits='64'>
          <parameter type-id='type-id-187' is-artificial='yes'/>
          <return type-id='type-id-47'/>
        </function-decl>
      </member-function>
      <member-function access='private' vtable-offset='35'>
        <function-decl name='GetErrorCode' mangled-name='_ZN12vtkAlgorithm12GetErrorCodeEv' filepath='/var/tmp/gamblin2/spack-stage/spack-stage-hrtRhh/VTK-6.1.0/Common/ExecutionModel/vtkAlgorithm.h' line='206' column='1' visibility='default' binding='global' size-in-bits='64'>
          <parameter type-id='type-id-187' is-artificial='yes'/>
          <return type-id='type-id-4'/>
        </function-decl>
      </member-function>
      <member-function access='private' vtable-offset='48'>
        <function-decl name='SetInputDataObject' mangled-name='_ZN12vtkAlgorithm18SetInputDataObjectEP13vtkDataObject' filepath='/var/tmp/gamblin2/spack-stage/spack-stage-hrtRhh/VTK-6.1.0/Common/ExecutionModel/vtkAlgorithm.h' line='338' column='1' visibility='default' binding='global' size-in-bits='64'>
          <parameter type-id='type-id-187' is-artificial='yes'/>
          <parameter type-id='type-id-189'/>
          <return type-id='type-id-28'/>
        </function-decl>
      </member-function>
      <member-function access='private' vtable-offset='50'>
        <function-decl name='AddInputDataObject' mangled-name='_ZN12vtkAlgorithm18AddInputDataObjectEP13vtkDataObject' filepath='/var/tmp/gamblin2/spack-stage/spack-stage-hrtRhh/VTK-6.1.0/Common/ExecutionModel/vtkAlgorithm.h' line='346' column='1' visibility='default' binding='global' size-in-bits='64'>
          <parameter type-id='type-id-187' is-artificial='yes'/>
          <parameter type-id='type-id-189'/>
          <return type-id='type-id-28'/>
        </function-decl>
      </member-function>
      <member-function access='private' vtable-offset='59'>
        <function-decl name='GetProgressObserver' mangled-name='_ZN12vtkAlgorithm19GetProgressObserverEv' filepath='/var/tmp/gamblin2/spack-stage/spack-stage-hrtRhh/VTK-6.1.0/Common/ExecutionModel/vtkAlgorithm.h' line='578' column='1' visibility='default' binding='global' size-in-bits='64'>
          <parameter type-id='type-id-187' is-artificial='yes'/>
          <return type-id='type-id-194'/>
        </function-decl>
      </member-function>
      <member-function access='protected' vtable-offset='65'>
        <function-decl name='SetErrorCode' mangled-name='_ZN12vtkAlgorithm12SetErrorCodeEm' filepath='/var/tmp/gamblin2/spack-stage/spack-stage-hrtRhh/VTK-6.1.0/Common/ExecutionModel/vtkAlgorithm.h' line='710' column='1' visibility='default' binding='global' size-in-bits='64'>
          <parameter type-id='type-id-187' is-artificial='yes'/>
          <parameter type-id='type-id-4'/>
          <return type-id='type-id-28'/>
        </function-decl>
      </member-function>
    </class-decl>
    <class-decl name='vtkOStreamWrapper' visibility='default' is-declaration-only='yes' id='type-id-197'>
      <member-type access='private'>
        <class-decl name='EndlType' size-in-bits='8' is-struct='yes' visibility='default' filepath='/var/tmp/gamblin2/spack-stage/spack-stage-hrtRhh/VTK-6.1.0/Common/Core/vtkOStreamWrapper.h' line='58' column='1' id='type-id-152'/>
      </member-type>
    </class-decl>
    <class-decl name='vtkObjectBase' visibility='default' is-declaration-only='yes' id='type-id-192'>
      <member-function access='protected' vtable-offset='11'>
        <function-decl name='CollectRevisions' mangled-name='_ZN13vtkObjectBase16CollectRevisionsERSo' filepath='/var/tmp/gamblin2/spack-stage/spack-stage-hrtRhh/VTK-6.1.0/Common/Core/vtkObjectBase.h' line='163' column='1' visibility='default' binding='global' size-in-bits='64'>
          <parameter type-id='type-id-45' is-artificial='yes'/>
          <parameter type-id='type-id-43'/>
          <return type-id='type-id-28'/>
        </function-decl>
      </member-function>
    </class-decl>
    <namespace-decl name='std'>
      <class-decl name='_Resetiosflags' size-in-bits='32' is-struct='yes' visibility='default' filepath='/usr/lib/gcc/x86_64-redhat-linux/4.4.7/../../../../include/c++/4.4.7/iomanip' line='49' column='1' id='type-id-198'>
        <member-type access='public'>
          <typedef-decl name='fmtflags' type-id='type-id-199' filepath='/usr/lib/gcc/x86_64-redhat-linux/4.4.7/../../../../include/c++/4.4.7/bits/ios_base.h' line='263' column='1' id='type-id-122'/>
        </member-type>
        <data-member access='public' layout-offset-in-bits='0'>
          <var-decl name='_M_mask' type-id='type-id-122' visibility='default' filepath='/usr/lib/gcc/x86_64-redhat-linux/4.4.7/../../../../include/c++/4.4.7/iomanip' line='49' column='1'/>
        </data-member>
      </class-decl>
      <class-decl name='basic_string&lt;char, std::char_traits&lt;char&gt;, std::allocator&lt;char&gt; &gt;' size-in-bits='64' is-struct='yes' visibility='default' filepath='/usr/lib/gcc/x86_64-redhat-linux/4.4.7/../../../../include/c++/4.4.7/bits/stringfwd.h' line='52' column='1' id='type-id-77'>
        <member-type access='private'>
          <class-decl name='_Rep' size-in-bits='192' is-struct='yes' visibility='default' filepath='/usr/lib/gcc/x86_64-redhat-linux/4.4.7/../../../../include/c++/4.4.7/bits/basic_string.h' line='148' column='1' id='type-id-140'>
            <base-class access='public' layout-offset-in-bits='0' type-id='type-id-200'/>
            <data-member access='public' static='yes'>
              <var-decl name='_S_max_size' type-id='type-id-121' visibility='default' filepath='/usr/lib/gcc/x86_64-redhat-linux/4.4.7/../../../../include/c++/4.4.7/bits/basic_string.tcc' line='51' column='1'/>
            </data-member>
            <data-member access='public' static='yes'>
              <var-decl name='_S_terminal' type-id='type-id-113' visibility='default' filepath='/usr/lib/gcc/x86_64-redhat-linux/4.4.7/../../../../include/c++/4.4.7/bits/basic_string.tcc' line='56' column='1'/>
            </data-member>
            <data-member access='public' static='yes'>
              <var-decl name='_S_empty_rep_storage' type-id='type-id-24' visibility='default' filepath='/usr/lib/gcc/x86_64-redhat-linux/4.4.7/../../../../include/c++/4.4.7/bits/basic_string.tcc' line='68' column='1'/>
            </data-member>
          </class-decl>
        </member-type>
        <member-type access='private'>
          <class-decl name='_Alloc_hider' size-in-bits='64' is-struct='yes' visibility='default' filepath='/usr/lib/gcc/x86_64-redhat-linux/4.4.7/../../../../include/c++/4.4.7/bits/basic_string.h' line='258' column='1' id='type-id-173'>
            <base-class access='public' layout-offset-in-bits='0' type-id='type-id-131'/>
            <data-member access='public' layout-offset-in-bits='0'>
              <var-decl name='_M_p' type-id='type-id-47' visibility='default' filepath='/usr/lib/gcc/x86_64-redhat-linux/4.4.7/../../../../include/c++/4.4.7/bits/basic_string.h' line='262' column='1'/>
            </data-member>
            <member-function access='public' constructor='yes'>
              <function-decl name='_Alloc_hider' filepath='/usr/lib/gcc/x86_64-redhat-linux/4.4.7/../../../../include/c++/4.4.7/bits/basic_string.h' line='259' column='1' visibility='default' binding='global' size-in-bits='64'>
                <parameter type-id='type-id-174' is-artificial='yes'/>
                <parameter type-id='type-id-47'/>
                <parameter type-id='type-id-133'/>
                <return type-id='type-id-28'/>
              </function-decl>
            </member-function>
          </class-decl>
        </member-type>
        <member-type access='private'>
          <class-decl name='_Rep_base' size-in-bits='192' is-struct='yes' visibility='default' filepath='/usr/lib/gcc/x86_64-redhat-linux/4.4.7/../../../../include/c++/4.4.7/bits/basic_string.h' line='141' column='1' id='type-id-200'>
            <data-member access='public' layout-offset-in-bits='0'>
              <var-decl name='_M_length' type-id='type-id-23' visibility='default' filepath='/usr/lib/gcc/x86_64-redhat-linux/4.4.7/../../../../include/c++/4.4.7/bits/basic_string.h' line='142' column='1'/>
            </data-member>
            <data-member access='public' layout-offset-in-bits='64'>
              <var-decl name='_M_capacity' type-id='type-id-23' visibility='default' filepath='/usr/lib/gcc/x86_64-redhat-linux/4.4.7/../../../../include/c++/4.4.7/bits/basic_string.h' line='143' column='1'/>
            </data-member>
            <data-member access='public' layout-offset-in-bits='128'>
              <var-decl name='_M_refcount' type-id='type-id-30' visibility='default' filepath='/usr/lib/gcc/x86_64-redhat-linux/4.4.7/../../../../include/c++/4.4.7/bits/basic_string.h' line='144' column='1'/>
            </data-member>
          </class-decl>
        </member-type>
        <data-member access='public' static='yes'>
          <var-decl name='npos' type-id='type-id-121' visibility='default' filepath='/usr/lib/gcc/x86_64-redhat-linux/4.4.7/../../../../include/c++/4.4.7/bits/basic_string.h' line='270' column='1'/>
        </data-member>
        <data-member access='private' layout-offset-in-bits='0'>
          <var-decl name='_M_dataplus' type-id='type-id-173' visibility='default' filepath='/usr/lib/gcc/x86_64-redhat-linux/4.4.7/../../../../include/c++/4.4.7/bits/basic_string.h' line='274' column='1'/>
        </data-member>
        <member-function access='public'>
          <function-decl name='basic_string' filepath='/usr/lib/gcc/x86_64-redhat-linux/4.4.7/../../../../include/c++/4.4.7/bits/basic_string.h' line='2144' column='1' visibility='default' binding='global' size-in-bits='64'>
            <parameter type-id='type-id-171' is-artificial='yes'/>
            <return type-id='type-id-28'/>
          </function-decl>
        </member-function>
        <member-function access='public'>
          <function-decl name='basic_string' filepath='/usr/lib/gcc/x86_64-redhat-linux/4.4.7/../../../../include/c++/4.4.7/bits/basic_string.tcc' line='178' column='1' visibility='default' binding='global' size-in-bits='64'>
            <parameter type-id='type-id-171' is-artificial='yes'/>
            <parameter type-id='type-id-133'/>
            <return type-id='type-id-28'/>
          </function-decl>
        </member-function>
        <member-function access='public'>
          <function-decl name='basic_string' filepath='/usr/lib/gcc/x86_64-redhat-linux/4.4.7/../../../../include/c++/4.4.7/bits/basic_string.tcc' line='170' column='1' visibility='default' binding='global' size-in-bits='64'>
            <parameter type-id='type-id-171' is-artificial='yes'/>
            <parameter type-id='type-id-136'/>
            <return type-id='type-id-28'/>
          </function-decl>
        </member-function>
        <member-function access='public'>
          <function-decl name='basic_string' filepath='/usr/lib/gcc/x86_64-redhat-linux/4.4.7/../../../../include/c++/4.4.7/bits/basic_string.tcc' line='184' column='1' visibility='default' binding='global' size-in-bits='64'>
            <parameter type-id='type-id-171' is-artificial='yes'/>
            <parameter type-id='type-id-136'/>
            <parameter type-id='type-id-4'/>
            <parameter type-id='type-id-4'/>
            <return type-id='type-id-28'/>
          </function-decl>
        </member-function>
        <member-function access='public'>
          <function-decl name='basic_string' filepath='/usr/lib/gcc/x86_64-redhat-linux/4.4.7/../../../../include/c++/4.4.7/bits/basic_string.tcc' line='194' column='1' visibility='default' binding='global' size-in-bits='64'>
            <parameter type-id='type-id-171' is-artificial='yes'/>
            <parameter type-id='type-id-136'/>
            <parameter type-id='type-id-4'/>
            <parameter type-id='type-id-4'/>
            <parameter type-id='type-id-133'/>
            <return type-id='type-id-28'/>
          </function-decl>
        </member-function>
        <member-function access='public'>
          <function-decl name='basic_string' filepath='/usr/lib/gcc/x86_64-redhat-linux/4.4.7/../../../../include/c++/4.4.7/bits/basic_string.tcc' line='206' column='1' visibility='default' binding='global' size-in-bits='64'>
            <parameter type-id='type-id-171' is-artificial='yes'/>
            <parameter type-id='type-id-41'/>
            <parameter type-id='type-id-4'/>
            <parameter type-id='type-id-133'/>
            <return type-id='type-id-28'/>
          </function-decl>
        </member-function>
        <member-function access='public'>
          <function-decl name='basic_string' filepath='/usr/lib/gcc/x86_64-redhat-linux/4.4.7/../../../../include/c++/4.4.7/bits/basic_string.tcc' line='213' column='1' visibility='default' binding='global' size-in-bits='64'>
            <parameter type-id='type-id-171' is-artificial='yes'/>
            <parameter type-id='type-id-41'/>
            <parameter type-id='type-id-133'/>
            <return type-id='type-id-28'/>
          </function-decl>
        </member-function>
        <member-function access='public'>
          <function-decl name='basic_string' filepath='/usr/lib/gcc/x86_64-redhat-linux/4.4.7/../../../../include/c++/4.4.7/bits/basic_string.tcc' line='220' column='1' visibility='default' binding='global' size-in-bits='64'>
            <parameter type-id='type-id-171' is-artificial='yes'/>
            <parameter type-id='type-id-4'/>
            <parameter type-id='type-id-2'/>
            <parameter type-id='type-id-133'/>
            <return type-id='type-id-28'/>
          </function-decl>
        </member-function>
        <member-function access='public' destructor='yes'>
          <function-decl name='~basic_string' filepath='/usr/lib/gcc/x86_64-redhat-linux/4.4.7/../../../../include/c++/4.4.7/bits/basic_string.h' line='502' column='1' visibility='default' binding='global' size-in-bits='64'>
            <parameter type-id='type-id-171' is-artificial='yes'/>
            <parameter type-id='type-id-17' is-artificial='yes'/>
            <return type-id='type-id-28'/>
          </function-decl>
        </member-function>
        <member-function access='public'>
          <function-decl name='basic_string&lt;char*&gt;' filepath='/usr/lib/gcc/x86_64-redhat-linux/4.4.7/../../../../include/c++/4.4.7/bits/basic_string.tcc' line='228' column='1' visibility='default' binding='global' size-in-bits='64'>
            <parameter type-id='type-id-171' is-artificial='yes'/>
            <parameter type-id='type-id-47'/>
            <parameter type-id='type-id-47'/>
            <parameter type-id='type-id-133'/>
            <return type-id='type-id-28'/>
          </function-decl>
        </member-function>
        <member-function access='private' static='yes'>
          <function-decl name='_S_construct&lt;char*&gt;' mangled-name='_ZNSs12_S_constructIPcEES0_T_S1_RKSaIcESt20forward_iterator_tag' filepath='/usr/lib/gcc/x86_64-redhat-linux/4.4.7/../../../../include/c++/4.4.7/bits/basic_string.tcc' line='123' column='1' visibility='default' binding='global' size-in-bits='64' elf-symbol-id='_ZNSs12_S_constructIPcEES0_T_S1_RKSaIcESt20forward_iterator_tag'>
            <parameter type-id='type-id-47' name='__beg' filepath='/usr/lib/gcc/x86_64-redhat-linux/4.4.7/../../../../include/c++/4.4.7/bits/basic_string.tcc' line='124' column='1'/>
            <parameter type-id='type-id-47' name='__end' filepath='/usr/lib/gcc/x86_64-redhat-linux/4.4.7/../../../../include/c++/4.4.7/bits/basic_string.tcc' line='124' column='1'/>
            <parameter type-id='type-id-134' name='__a' filepath='/usr/lib/gcc/x86_64-redhat-linux/4.4.7/../../../../include/c++/4.4.7/bits/basic_string.tcc' line='124' column='1'/>
            <parameter type-id='type-id-201'/>
            <return type-id='type-id-47'/>
          </function-decl>
        </member-function>
      </class-decl>
      <enum-decl name='_Ios_Fmtflags' filepath='/usr/lib/gcc/x86_64-redhat-linux/4.4.7/../../../../include/c++/4.4.7/bits/ios_base.h' line='60' column='1' id='type-id-199'>
        <underlying-type type-id='type-id-25'/>
        <enumerator name='_S_boolalpha' value='1'/>
        <enumerator name='_S_dec' value='2'/>
        <enumerator name='_S_fixed' value='4'/>
        <enumerator name='_S_hex' value='8'/>
        <enumerator name='_S_internal' value='16'/>
        <enumerator name='_S_left' value='32'/>
        <enumerator name='_S_oct' value='64'/>
        <enumerator name='_S_right' value='128'/>
        <enumerator name='_S_scientific' value='256'/>
        <enumerator name='_S_showbase' value='512'/>
        <enumerator name='_S_showpoint' value='1024'/>
        <enumerator name='_S_showpos' value='2048'/>
        <enumerator name='_S_skipws' value='4096'/>
        <enumerator name='_S_unitbuf' value='8192'/>
        <enumerator name='_S_uppercase' value='16384'/>
        <enumerator name='_S_adjustfield' value='176'/>
        <enumerator name='_S_basefield' value='74'/>
        <enumerator name='_S_floatfield' value='260'/>
        <enumerator name='_S_ios_fmtflags_end' value='65536'/>
      </enum-decl>
      <enum-decl name='_Ios_Iostate' filepath='/usr/lib/gcc/x86_64-redhat-linux/4.4.7/../../../../include/c++/4.4.7/bits/ios_base.h' line='152' column='1' id='type-id-52'>
        <underlying-type type-id='type-id-25'/>
        <enumerator name='_S_goodbit' value='0'/>
        <enumerator name='_S_badbit' value='1'/>
        <enumerator name='_S_eofbit' value='2'/>
        <enumerator name='_S_failbit' value='4'/>
        <enumerator name='_S_ios_iostate_end' value='65536'/>
      </enum-decl>
      <typedef-decl name='__c_file' type-id='type-id-55' filepath='/usr/lib/gcc/x86_64-redhat-linux/4.4.7/../../../../include/c++/4.4.7/x86_64-redhat-linux/bits/c++io.h' line='45' column='1' id='type-id-165'/>
      <typedef-decl name='__c_lock' type-id='type-id-64' filepath='/usr/lib/gcc/x86_64-redhat-linux/4.4.7/../../../../include/c++/4.4.7/x86_64-redhat-linux/bits/c++io.h' line='42' column='1' id='type-id-167'/>
      <enum-decl name='_Ios_Openmode' filepath='/usr/lib/gcc/x86_64-redhat-linux/4.4.7/../../../../include/c++/4.4.7/bits/ios_base.h' line='112' column='1' id='type-id-202'>
        <underlying-type type-id='type-id-25'/>
        <enumerator name='_S_app' value='1'/>
        <enumerator name='_S_ate' value='2'/>
        <enumerator name='_S_bin' value='4'/>
        <enumerator name='_S_in' value='8'/>
        <enumerator name='_S_out' value='16'/>
        <enumerator name='_S_trunc' value='32'/>
        <enumerator name='_S_ios_openmode_end' value='65536'/>
      </enum-decl>
      <typedef-decl name='streamsize' type-id='type-id-69' filepath='/usr/lib/gcc/x86_64-redhat-linux/4.4.7/../../../../include/c++/4.4.7/bits/postypes.h' line='98' column='1' id='type-id-203'/>
      <typedef-decl name='streamoff' type-id='type-id-19' filepath='/usr/lib/gcc/x86_64-redhat-linux/4.4.7/../../../../include/c++/4.4.7/bits/postypes.h' line='88' column='1' id='type-id-204'/>
      <enum-decl name='_Ios_Seekdir' filepath='/usr/lib/gcc/x86_64-redhat-linux/4.4.7/../../../../include/c++/4.4.7/bits/ios_base.h' line='189' column='1' id='type-id-205'>
        <underlying-type type-id='type-id-25'/>
        <enumerator name='_S_beg' value='0'/>
        <enumerator name='_S_cur' value='1'/>
        <enumerator name='_S_end' value='2'/>
        <enumerator name='_S_ios_seekdir_end' value='65536'/>
      </enum-decl>
      <class-decl name='_Setw' size-in-bits='32' is-struct='yes' visibility='default' filepath='/usr/lib/gcc/x86_64-redhat-linux/4.4.7/../../../../include/c++/4.4.7/iomanip' line='228' column='1' id='type-id-206'>
        <data-member access='public' layout-offset-in-bits='0'>
          <var-decl name='_M_n' type-id='type-id-17' visibility='default' filepath='/usr/lib/gcc/x86_64-redhat-linux/4.4.7/../../../../include/c++/4.4.7/iomanip' line='228' column='1'/>
        </data-member>
      </class-decl>
      <class-decl name='_Setprecision' size-in-bits='32' is-struct='yes' visibility='default' filepath='/usr/lib/gcc/x86_64-redhat-linux/4.4.7/../../../../include/c++/4.4.7/iomanip' line='194' column='1' id='type-id-207'>
        <data-member access='public' layout-offset-in-bits='0'>
          <var-decl name='_M_n' type-id='type-id-17' visibility='default' filepath='/usr/lib/gcc/x86_64-redhat-linux/4.4.7/../../../../include/c++/4.4.7/iomanip' line='194' column='1'/>
        </data-member>
      </class-decl>
      <class-decl name='allocator&lt;char&gt;' size-in-bits='8' is-struct='yes' visibility='default' filepath='/usr/lib/gcc/x86_64-redhat-linux/4.4.7/../../../../include/c++/4.4.7/bits/stringfwd.h' line='45' column='1' id='type-id-131'>
        <base-class access='public' layout-offset-in-bits='0' type-id='type-id-106'/>
        <member-function access='public'>
          <function-decl name='allocator' filepath='/usr/lib/gcc/x86_64-redhat-linux/4.4.7/../../../../include/c++/4.4.7/bits/allocator.h' line='101' column='1' visibility='default' binding='global' size-in-bits='64'>
            <parameter type-id='type-id-169' is-artificial='yes'/>
            <return type-id='type-id-28'/>
          </function-decl>
        </member-function>
        <member-function access='public'>
          <function-decl name='allocator' filepath='/usr/lib/gcc/x86_64-redhat-linux/4.4.7/../../../../include/c++/4.4.7/bits/allocator.h' line='103' column='1' visibility='default' binding='global' size-in-bits='64'>
            <parameter type-id='type-id-169' is-artificial='yes'/>
            <parameter type-id='type-id-133'/>
            <return type-id='type-id-28'/>
          </function-decl>
        </member-function>
        <member-function access='public' destructor='yes'>
          <function-decl name='~allocator' filepath='/usr/lib/gcc/x86_64-redhat-linux/4.4.7/../../../../include/c++/4.4.7/bits/allocator.h' line='109' column='1' visibility='default' binding='global' size-in-bits='64'>
            <parameter type-id='type-id-169' is-artificial='yes'/>
            <parameter type-id='type-id-17' is-artificial='yes'/>
            <return type-id='type-id-28'/>
          </function-decl>
        </member-function>
      </class-decl>
      <class-decl name='char_traits&lt;char&gt;' size-in-bits='8' is-struct='yes' visibility='default' filepath='/usr/lib/gcc/x86_64-redhat-linux/4.4.7/../../../../include/c++/4.4.7/bits/char_traits.h' line='238' column='1' id='type-id-208'>
        <member-type access='public'>
          <typedef-decl name='char_type' type-id='type-id-2' filepath='/usr/lib/gcc/x86_64-redhat-linux/4.4.7/../../../../include/c++/4.4.7/bits/char_traits.h' line='239' column='1' id='type-id-83'/>
        </member-type>
        <member-type access='public'>
          <typedef-decl name='int_type' type-id='type-id-17' filepath='/usr/lib/gcc/x86_64-redhat-linux/4.4.7/../../../../include/c++/4.4.7/bits/char_traits.h' line='240' column='1' id='type-id-146'/>
        </member-type>
      </class-decl>
      <class-decl name='__basic_file&lt;char&gt;' size-in-bits='128' visibility='default' filepath='/usr/lib/gcc/x86_64-redhat-linux/4.4.7/../../../../include/c++/4.4.7/x86_64-redhat-linux/bits/basic_file.h' line='53' column='1' id='type-id-124'>
        <member-type access='private'>
          <typedef-decl name='openmode' type-id='type-id-202' filepath='/usr/lib/gcc/x86_64-redhat-linux/4.4.7/../../../../include/c++/4.4.7/bits/ios_base.h' line='369' column='1' id='type-id-127'/>
        </member-type>
        <member-type access='private'>
          <typedef-decl name='seekdir' type-id='type-id-205' filepath='/usr/lib/gcc/x86_64-redhat-linux/4.4.7/../../../../include/c++/4.4.7/bits/ios_base.h' line='401' column='1' id='type-id-129'/>
        </member-type>
        <data-member access='private' layout-offset-in-bits='0'>
          <var-decl name='_M_cfile' type-id='type-id-166' visibility='default' filepath='/usr/lib/gcc/x86_64-redhat-linux/4.4.7/../../../../include/c++/4.4.7/x86_64-redhat-linux/bits/basic_file.h' line='55' column='1'/>
        </data-member>
        <data-member access='private' layout-offset-in-bits='64'>
          <var-decl name='_M_cfile_created' type-id='type-id-1' visibility='default' filepath='/usr/lib/gcc/x86_64-redhat-linux/4.4.7/../../../../include/c++/4.4.7/x86_64-redhat-linux/bits/basic_file.h' line='58' column='1'/>
        </data-member>
        <member-function access='private'>
          <function-decl name='__basic_file' filepath='/usr/lib/gcc/x86_64-redhat-linux/4.4.7/../../../../include/c++/4.4.7/x86_64-redhat-linux/bits/basic_file.h' line='61' column='1' visibility='default' binding='global' size-in-bits='64'>
            <parameter type-id='type-id-164' is-artificial='yes'/>
            <parameter type-id='type-id-168'/>
            <return type-id='type-id-28'/>
          </function-decl>
        </member-function>
        <member-function access='private' destructor='yes'>
          <function-decl name='~__basic_file' filepath='/usr/lib/gcc/x86_64-redhat-linux/4.4.7/../../../../include/c++/4.4.7/x86_64-redhat-linux/bits/basic_file.h' line='84' column='1' visibility='default' binding='global' size-in-bits='64'>
            <parameter type-id='type-id-164' is-artificial='yes'/>
            <parameter type-id='type-id-17' is-artificial='yes'/>
            <return type-id='type-id-28'/>
          </function-decl>
        </member-function>
      </class-decl>
      <typedef-decl name='string' type-id='type-id-77' filepath='/usr/lib/gcc/x86_64-redhat-linux/4.4.7/../../../../include/c++/4.4.7/bits/stringfwd.h' line='56' column='1' id='type-id-81'/>
      <typedef-decl name='ostream' type-id='type-id-209' filepath='/usr/lib/gcc/x86_64-redhat-linux/4.4.7/../../../../include/c++/4.4.7/iosfwd' line='130' column='1' id='type-id-184'/>
      <class-decl name='ios_base' visibility='default' is-declaration-only='yes' id='type-id-180'>
        <member-type access='private'>
          <class-decl name='Init' size-in-bits='8' visibility='default' filepath='/usr/lib/gcc/x86_64-redhat-linux/4.4.7/../../../../include/c++/4.4.7/bits/ios_base.h' line='538' column='1' id='type-id-182'>
            <data-member access='private' static='yes'>
              <var-decl name='_S_refcount' type-id='type-id-30' visibility='default' filepath='/usr/lib/gcc/x86_64-redhat-linux/4.4.7/../../../../include/c++/4.4.7/bits/ios_base.h' line='545' column='1'/>
            </data-member>
            <data-member access='private' static='yes'>
              <var-decl name='_S_synced_with_stdio' type-id='type-id-1' visibility='default' filepath='/usr/lib/gcc/x86_64-redhat-linux/4.4.7/../../../../include/c++/4.4.7/bits/ios_base.h' line='546' column='1'/>
            </data-member>
            <member-function access='private' constructor='yes'>
              <function-decl name='Init' filepath='/usr/lib/gcc/x86_64-redhat-linux/4.4.7/../../../../include/c++/4.4.7/bits/ios_base.h' line='541' column='1' visibility='default' binding='global' size-in-bits='64'>
                <parameter type-id='type-id-183' is-artificial='yes'/>
                <return type-id='type-id-28'/>
              </function-decl>
            </member-function>
            <member-function access='private' destructor='yes'>
              <function-decl name='~Init' filepath='/usr/lib/gcc/x86_64-redhat-linux/4.4.7/../../../../include/c++/4.4.7/bits/ios_base.h' line='542' column='1' visibility='default' binding='global' size-in-bits='64'>
                <parameter type-id='type-id-183' is-artificial='yes'/>
                <parameter type-id='type-id-17' is-artificial='yes'/>
                <return type-id='type-id-28'/>
              </function-decl>
            </member-function>
          </class-decl>
        </member-type>
        <data-member access='private' static='yes'>
          <var-decl name='boolalpha' type-id='type-id-123' visibility='default' filepath='/usr/lib/gcc/x86_64-redhat-linux/4.4.7/../../../../include/c++/4.4.7/bits/ios_base.h' line='266' column='1'/>
        </data-member>
        <data-member access='private' static='yes'>
          <var-decl name='dec' type-id='type-id-123' visibility='default' filepath='/usr/lib/gcc/x86_64-redhat-linux/4.4.7/../../../../include/c++/4.4.7/bits/ios_base.h' line='269' column='1'/>
        </data-member>
        <data-member access='private' static='yes'>
          <var-decl name='fixed' type-id='type-id-123' visibility='default' filepath='/usr/lib/gcc/x86_64-redhat-linux/4.4.7/../../../../include/c++/4.4.7/bits/ios_base.h' line='272' column='1'/>
        </data-member>
        <data-member access='private' static='yes'>
          <var-decl name='hex' type-id='type-id-123' visibility='default' filepath='/usr/lib/gcc/x86_64-redhat-linux/4.4.7/../../../../include/c++/4.4.7/bits/ios_base.h' line='275' column='1'/>
        </data-member>
        <data-member access='private' static='yes'>
          <var-decl name='internal' type-id='type-id-123' visibility='default' filepath='/usr/lib/gcc/x86_64-redhat-linux/4.4.7/../../../../include/c++/4.4.7/bits/ios_base.h' line='280' column='1'/>
        </data-member>
        <data-member access='private' static='yes'>
          <var-decl name='left' type-id='type-id-123' visibility='default' filepath='/usr/lib/gcc/x86_64-redhat-linux/4.4.7/../../../../include/c++/4.4.7/bits/ios_base.h' line='284' column='1'/>
        </data-member>
        <data-member access='private' static='yes'>
          <var-decl name='oct' type-id='type-id-123' visibility='default' filepath='/usr/lib/gcc/x86_64-redhat-linux/4.4.7/../../../../include/c++/4.4.7/bits/ios_base.h' line='287' column='1'/>
        </data-member>
        <data-member access='private' static='yes'>
          <var-decl name='right' type-id='type-id-123' visibility='default' filepath='/usr/lib/gcc/x86_64-redhat-linux/4.4.7/../../../../include/c++/4.4.7/bits/ios_base.h' line='291' column='1'/>
        </data-member>
        <data-member access='private' static='yes'>
          <var-decl name='scientific' type-id='type-id-123' visibility='default' filepath='/usr/lib/gcc/x86_64-redhat-linux/4.4.7/../../../../include/c++/4.4.7/bits/ios_base.h' line='294' column='1'/>
        </data-member>
        <data-member access='private' static='yes'>
          <var-decl name='showbase' type-id='type-id-123' visibility='default' filepath='/usr/lib/gcc/x86_64-redhat-linux/4.4.7/../../../../include/c++/4.4.7/bits/ios_base.h' line='298' column='1'/>
        </data-member>
        <data-member access='private' static='yes'>
          <var-decl name='showpoint' type-id='type-id-123' visibility='default' filepath='/usr/lib/gcc/x86_64-redhat-linux/4.4.7/../../../../include/c++/4.4.7/bits/ios_base.h' line='302' column='1'/>
        </data-member>
        <data-member access='private' static='yes'>
          <var-decl name='showpos' type-id='type-id-123' visibility='default' filepath='/usr/lib/gcc/x86_64-redhat-linux/4.4.7/../../../../include/c++/4.4.7/bits/ios_base.h' line='305' column='1'/>
        </data-member>
        <data-member access='private' static='yes'>
          <var-decl name='skipws' type-id='type-id-123' visibility='default' filepath='/usr/lib/gcc/x86_64-redhat-linux/4.4.7/../../../../include/c++/4.4.7/bits/ios_base.h' line='308' column='1'/>
        </data-member>
        <data-member access='private' static='yes'>
          <var-decl name='unitbuf' type-id='type-id-123' visibility='default' filepath='/usr/lib/gcc/x86_64-redhat-linux/4.4.7/../../../../include/c++/4.4.7/bits/ios_base.h' line='311' column='1'/>
        </data-member>
        <data-member access='private' static='yes'>
          <var-decl name='uppercase' type-id='type-id-123' visibility='default' filepath='/usr/lib/gcc/x86_64-redhat-linux/4.4.7/../../../../include/c++/4.4.7/bits/ios_base.h' line='315' column='1'/>
        </data-member>
        <data-member access='private' static='yes'>
          <var-decl name='adjustfield' type-id='type-id-123' visibility='default' filepath='/usr/lib/gcc/x86_64-redhat-linux/4.4.7/../../../../include/c++/4.4.7/bits/ios_base.h' line='318' column='1'/>
        </data-member>
        <data-member access='private' static='yes'>
          <var-decl name='basefield' type-id='type-id-123' visibility='default' filepath='/usr/lib/gcc/x86_64-redhat-linux/4.4.7/../../../../include/c++/4.4.7/bits/ios_base.h' line='321' column='1'/>
        </data-member>
        <data-member access='private' static='yes'>
          <var-decl name='floatfield' type-id='type-id-123' visibility='default' filepath='/usr/lib/gcc/x86_64-redhat-linux/4.4.7/../../../../include/c++/4.4.7/bits/ios_base.h' line='324' column='1'/>
        </data-member>
        <data-member access='private' static='yes'>
          <var-decl name='badbit' type-id='type-id-118' visibility='default' filepath='/usr/lib/gcc/x86_64-redhat-linux/4.4.7/../../../../include/c++/4.4.7/bits/ios_base.h' line='342' column='1'/>
        </data-member>
        <data-member access='private' static='yes'>
          <var-decl name='eofbit' type-id='type-id-118' visibility='default' filepath='/usr/lib/gcc/x86_64-redhat-linux/4.4.7/../../../../include/c++/4.4.7/bits/ios_base.h' line='345' column='1'/>
        </data-member>
        <data-member access='private' static='yes'>
          <var-decl name='failbit' type-id='type-id-118' visibility='default' filepath='/usr/lib/gcc/x86_64-redhat-linux/4.4.7/../../../../include/c++/4.4.7/bits/ios_base.h' line='350' column='1'/>
        </data-member>
        <data-member access='private' static='yes'>
          <var-decl name='goodbit' type-id='type-id-118' visibility='default' filepath='/usr/lib/gcc/x86_64-redhat-linux/4.4.7/../../../../include/c++/4.4.7/bits/ios_base.h' line='353' column='1'/>
        </data-member>
        <data-member access='private' static='yes'>
          <var-decl name='ate' type-id='type-id-128' visibility='default' filepath='/usr/lib/gcc/x86_64-redhat-linux/4.4.7/../../../../include/c++/4.4.7/bits/ios_base.h' line='375' column='1'/>
        </data-member>
        <data-member access='private' static='yes'>
          <var-decl name='in' type-id='type-id-128' visibility='default' filepath='/usr/lib/gcc/x86_64-redhat-linux/4.4.7/../../../../include/c++/4.4.7/bits/ios_base.h' line='383' column='1'/>
        </data-member>
        <data-member access='private' static='yes'>
          <var-decl name='out' type-id='type-id-128' visibility='default' filepath='/usr/lib/gcc/x86_64-redhat-linux/4.4.7/../../../../include/c++/4.4.7/bits/ios_base.h' line='386' column='1'/>
        </data-member>
        <data-member access='private' static='yes'>
          <var-decl name='trunc' type-id='type-id-128' visibility='default' filepath='/usr/lib/gcc/x86_64-redhat-linux/4.4.7/../../../../include/c++/4.4.7/bits/ios_base.h' line='389' column='1'/>
        </data-member>
        <data-member access='private' static='yes'>
          <var-decl name='beg' type-id='type-id-130' visibility='default' filepath='/usr/lib/gcc/x86_64-redhat-linux/4.4.7/../../../../include/c++/4.4.7/bits/ios_base.h' line='404' column='1'/>
        </data-member>
        <data-member access='private' static='yes'>
          <var-decl name='cur' type-id='type-id-130' visibility='default' filepath='/usr/lib/gcc/x86_64-redhat-linux/4.4.7/../../../../include/c++/4.4.7/bits/ios_base.h' line='407' column='1'/>
        </data-member>
        <data-member access='private' static='yes'>
          <var-decl name='end' type-id='type-id-130' visibility='default' filepath='/usr/lib/gcc/x86_64-redhat-linux/4.4.7/../../../../include/c++/4.4.7/bits/ios_base.h' line='410' column='1'/>
        </data-member>
      </class-decl>
      <class-decl name='reverse_iterator&lt;__gnu_cxx::__normal_iterator&lt;char*, std::basic_string&lt;char, std::char_traits&lt;char&gt;, std::allocator&lt;char&gt; &gt; &gt; &gt;' visibility='default' is-declaration-only='yes' id='type-id-210'/>
      <class-decl name='reverse_iterator&lt;__gnu_cxx::__normal_iterator&lt;const char*, std::basic_string&lt;char, std::char_traits&lt;char&gt;, std::allocator&lt;char&gt; &gt; &gt; &gt;' visibility='default' is-declaration-only='yes' id='type-id-211'/>
      <function-decl name='operator==&lt;char, std::char_traits&lt;char&gt;, std::allocator&lt;char&gt; &gt;' filepath='/usr/lib/gcc/x86_64-redhat-linux/4.4.7/../../../../include/c++/4.4.7/bits/basic_string.h' line='2265' column='1' visibility='default' binding='global' size-in-bits='64'>
        <parameter type-id='type-id-136'/>
        <parameter type-id='type-id-41'/>
        <return type-id='type-id-1'/>
      </function-decl>
      <function-decl name='operator!=&lt;char, std::char_traits&lt;char&gt;, std::allocator&lt;char&gt; &gt;' filepath='/usr/lib/gcc/x86_64-redhat-linux/4.4.7/../../../../include/c++/4.4.7/bits/basic_string.h' line='2302' column='1' visibility='default' binding='global' size-in-bits='64'>
        <parameter type-id='type-id-136'/>
        <parameter type-id='type-id-41'/>
        <return type-id='type-id-1'/>
      </function-decl>
      <class-decl name='basic_ostream&lt;char, std::char_traits&lt;char&gt; &gt;' is-struct='yes' visibility='default' is-declaration-only='yes' id='type-id-209'>
        <member-function access='protected'>
          <function-decl name='basic_ostream' filepath='/usr/lib/gcc/x86_64-redhat-linux/4.4.7/../../../../include/c++/4.4.7/ostream' line='361' column='1' visibility='default' binding='global' size-in-bits='64'>
            <parameter type-id='type-id-212' is-artificial='yes'/>
            <parameter type-id='type-id-17' is-artificial='yes'/>
            <parameter type-id='type-id-213' is-artificial='yes'/>
            <return type-id='type-id-28'/>
          </function-decl>
        </member-function>
        <member-function access='public' destructor='yes' vtable-offset='-1'>
          <function-decl name='~basic_ostream' filepath='/usr/lib/gcc/x86_64-redhat-linux/4.4.7/../../../../include/c++/4.4.7/ostream' line='91' column='1' visibility='default' binding='global' size-in-bits='64'>
            <parameter type-id='type-id-212' is-artificial='yes'/>
            <parameter type-id='type-id-17' is-artificial='yes'/>
            <parameter type-id='type-id-213' is-artificial='yes'/>
            <return type-id='type-id-28'/>
          </function-decl>
        </member-function>
      </class-decl>
    </namespace-decl>
    <namespace-decl name='__gnu_cxx'>
      <class-decl name='__normal_iterator&lt;char*, std::basic_string&lt;char, std::char_traits&lt;char&gt;, std::allocator&lt;char&gt; &gt; &gt;' size-in-bits='64' visibility='default' filepath='/usr/lib/gcc/x86_64-redhat-linux/4.4.7/../../../../include/c++/4.4.7/bits/stl_iterator.h' line='669' column='1' id='type-id-79'>
        <data-member access='protected' layout-offset-in-bits='0'>
          <var-decl name='_M_current' type-id='type-id-47' visibility='default' filepath='/usr/lib/gcc/x86_64-redhat-linux/4.4.7/../../../../include/c++/4.4.7/bits/stl_iterator.h' line='671' column='1'/>
        </data-member>
        <member-function access='private'>
          <function-decl name='__normal_iterator' filepath='/usr/lib/gcc/x86_64-redhat-linux/4.4.7/../../../../include/c++/4.4.7/bits/stl_iterator.h' line='683' column='1' visibility='default' binding='global' size-in-bits='64'>
            <parameter type-id='type-id-214' is-artificial='yes'/>
            <return type-id='type-id-28'/>
          </function-decl>
        </member-function>
        <member-function access='private'>
          <function-decl name='__normal_iterator' filepath='/usr/lib/gcc/x86_64-redhat-linux/4.4.7/../../../../include/c++/4.4.7/bits/stl_iterator.h' line='686' column='1' visibility='default' binding='global' size-in-bits='64'>
            <parameter type-id='type-id-214' is-artificial='yes'/>
            <parameter type-id='type-id-215'/>
            <return type-id='type-id-28'/>
          </function-decl>
        </member-function>
      </class-decl>
      <class-decl name='new_allocator&lt;char&gt;' size-in-bits='8' visibility='default' filepath='/usr/lib/gcc/x86_64-redhat-linux/4.4.7/../../../../include/c++/4.4.7/ext/new_allocator.h' line='52' column='1' id='type-id-106'>
        <member-function access='private'>
          <function-decl name='new_allocator' filepath='/usr/lib/gcc/x86_64-redhat-linux/4.4.7/../../../../include/c++/4.4.7/ext/new_allocator.h' line='66' column='1' visibility='default' binding='global' size-in-bits='64'>
            <parameter type-id='type-id-107' is-artificial='yes'/>
            <return type-id='type-id-28'/>
          </function-decl>
        </member-function>
        <member-function access='private'>
          <function-decl name='new_allocator' filepath='/usr/lib/gcc/x86_64-redhat-linux/4.4.7/../../../../include/c++/4.4.7/ext/new_allocator.h' line='68' column='1' visibility='default' binding='global' size-in-bits='64'>
            <parameter type-id='type-id-107' is-artificial='yes'/>
            <parameter type-id='type-id-110'/>
            <return type-id='type-id-28'/>
          </function-decl>
        </member-function>
        <member-function access='private' destructor='yes'>
          <function-decl name='~new_allocator' filepath='/usr/lib/gcc/x86_64-redhat-linux/4.4.7/../../../../include/c++/4.4.7/ext/new_allocator.h' line='73' column='1' visibility='default' binding='global' size-in-bits='64'>
            <parameter type-id='type-id-107' is-artificial='yes'/>
            <parameter type-id='type-id-17' is-artificial='yes'/>
            <return type-id='type-id-28'/>
          </function-decl>
        </member-function>
      </class-decl>
      <class-decl name='__normal_iterator&lt;const char*, std::basic_string&lt;char, std::char_traits&lt;char&gt;, std::allocator&lt;char&gt; &gt; &gt;' size-in-bits='64' visibility='default' filepath='/usr/lib/gcc/x86_64-redhat-linux/4.4.7/../../../../include/c++/4.4.7/bits/stl_iterator.h' line='669' column='1' id='type-id-216'>
        <data-member access='protected' layout-offset-in-bits='0'>
          <var-decl name='_M_current' type-id='type-id-41' visibility='default' filepath='/usr/lib/gcc/x86_64-redhat-linux/4.4.7/../../../../include/c++/4.4.7/bits/stl_iterator.h' line='671' column='1'/>
        </data-member>
        <member-function access='private'>
          <function-decl name='__normal_iterator' filepath='/usr/lib/gcc/x86_64-redhat-linux/4.4.7/../../../../include/c++/4.4.7/bits/stl_iterator.h' line='683' column='1' visibility='default' binding='global' size-in-bits='64'>
            <parameter type-id='type-id-217' is-artificial='yes'/>
            <return type-id='type-id-28'/>
          </function-decl>
        </member-function>
        <member-function access='private'>
          <function-decl name='__normal_iterator' filepath='/usr/lib/gcc/x86_64-redhat-linux/4.4.7/../../../../include/c++/4.4.7/bits/stl_iterator.h' line='686' column='1' visibility='default' binding='global' size-in-bits='64'>
            <parameter type-id='type-id-217' is-artificial='yes'/>
            <parameter type-id='type-id-218'/>
            <return type-id='type-id-28'/>
          </function-decl>
        </member-function>
      </class-decl>
    </namespace-decl>
    <function-decl name='btowc' filepath='/usr/include/wchar.h' line='386' column='1' visibility='default' binding='global' size-in-bits='64'>
      <parameter type-id='type-id-17'/>
      <return type-id='type-id-71'/>
    </function-decl>
    <function-decl name='fgetwc' filepath='/usr/include/wchar.h' line='743' column='1' visibility='default' binding='global' size-in-bits='64'>
      <parameter type-id='type-id-105'/>
      <return type-id='type-id-71'/>
    </function-decl>
    <function-decl name='fgetws' filepath='/usr/include/wchar.h' line='772' column='1' visibility='default' binding='global' size-in-bits='64'>
      <parameter type-id='type-id-195'/>
      <parameter type-id='type-id-17'/>
      <parameter type-id='type-id-105'/>
      <return type-id='type-id-195'/>
    </function-decl>
    <function-decl name='fputwc' filepath='/usr/include/wchar.h' line='757' column='1' visibility='default' binding='global' size-in-bits='64'>
      <parameter type-id='type-id-29'/>
      <parameter type-id='type-id-105'/>
      <return type-id='type-id-71'/>
    </function-decl>
    <function-decl name='fputws' filepath='/usr/include/wchar.h' line='779' column='1' visibility='default' binding='global' size-in-bits='64'>
      <parameter type-id='type-id-159'/>
      <parameter type-id='type-id-105'/>
      <return type-id='type-id-17'/>
    </function-decl>
    <function-decl name='fwide' filepath='/usr/include/wchar.h' line='585' column='1' visibility='default' binding='global' size-in-bits='64'>
      <parameter type-id='type-id-105'/>
      <parameter type-id='type-id-17'/>
      <return type-id='type-id-17'/>
    </function-decl>
    <function-decl name='fwprintf' filepath='/usr/include/wchar.h' line='592' column='1' visibility='default' binding='global' size-in-bits='64'>
      <parameter type-id='type-id-105'/>
      <parameter type-id='type-id-159'/>
      <parameter is-variadic='yes'/>
      <return type-id='type-id-17'/>
    </function-decl>
    <function-decl name='fwscanf' filepath='/usr/include/wchar.h' line='633' column='1' visibility='default' binding='global' size-in-bits='64'>
      <parameter type-id='type-id-105'/>
      <parameter type-id='type-id-159'/>
      <parameter is-variadic='yes'/>
      <return type-id='type-id-17'/>
    </function-decl>
    <function-decl name='getwc' filepath='/usr/include/wchar.h' line='744' column='1' visibility='default' binding='global' size-in-bits='64'>
      <parameter type-id='type-id-105'/>
      <return type-id='type-id-71'/>
    </function-decl>
    <function-decl name='getwchar' filepath='/usr/include/wchar.h' line='750' column='1' visibility='default' binding='global' size-in-bits='64'>
      <return type-id='type-id-71'/>
    </function-decl>
    <function-decl name='mbrlen' filepath='/usr/include/wchar.h' line='397' column='1' visibility='default' binding='global' size-in-bits='64'>
      <parameter type-id='type-id-41'/>
      <parameter type-id='type-id-23'/>
      <parameter type-id='type-id-163'/>
      <return type-id='type-id-23'/>
    </function-decl>
    <function-decl name='mbrtowc' filepath='/usr/include/wchar.h' line='363' column='1' visibility='default' binding='global' size-in-bits='64'>
      <parameter type-id='type-id-195'/>
      <parameter type-id='type-id-41'/>
      <parameter type-id='type-id-23'/>
      <parameter type-id='type-id-163'/>
      <return type-id='type-id-23'/>
    </function-decl>
    <function-decl name='mbsinit' filepath='/usr/include/wchar.h' line='359' column='1' visibility='default' binding='global' size-in-bits='64'>
      <parameter type-id='type-id-120'/>
      <return type-id='type-id-17'/>
    </function-decl>
    <function-decl name='mbsrtowcs' filepath='/usr/include/wchar.h' line='406' column='1' visibility='default' binding='global' size-in-bits='64'>
      <parameter type-id='type-id-195'/>
      <parameter type-id='type-id-115'/>
      <parameter type-id='type-id-23'/>
      <parameter type-id='type-id-163'/>
      <return type-id='type-id-23'/>
    </function-decl>
    <function-decl name='putwc' filepath='/usr/include/wchar.h' line='758' column='1' visibility='default' binding='global' size-in-bits='64'>
      <parameter type-id='type-id-29'/>
      <parameter type-id='type-id-105'/>
      <return type-id='type-id-71'/>
    </function-decl>
    <function-decl name='putwchar' filepath='/usr/include/wchar.h' line='764' column='1' visibility='default' binding='global' size-in-bits='64'>
      <parameter type-id='type-id-29'/>
      <return type-id='type-id-71'/>
    </function-decl>
    <function-decl name='swprintf' filepath='/usr/include/wchar.h' line='602' column='1' visibility='default' binding='global' size-in-bits='64'>
      <parameter type-id='type-id-195'/>
      <parameter type-id='type-id-23'/>
      <parameter type-id='type-id-159'/>
      <parameter is-variadic='yes'/>
      <return type-id='type-id-17'/>
    </function-decl>
    <function-decl name='swscanf' filepath='/usr/include/wchar.h' line='643' column='1' visibility='default' binding='global' size-in-bits='64'>
      <parameter type-id='type-id-159'/>
      <parameter type-id='type-id-159'/>
      <parameter is-variadic='yes'/>
      <return type-id='type-id-17'/>
    </function-decl>
    <function-decl name='ungetwc' filepath='/usr/include/wchar.h' line='787' column='1' visibility='default' binding='global' size-in-bits='64'>
      <parameter type-id='type-id-71'/>
      <parameter type-id='type-id-105'/>
      <return type-id='type-id-71'/>
    </function-decl>
    <function-decl name='vfwprintf' filepath='/usr/include/wchar.h' line='610' column='1' visibility='default' binding='global' size-in-bits='64'>
      <parameter type-id='type-id-105'/>
      <parameter type-id='type-id-159'/>
      <parameter type-id='type-id-185'/>
      <return type-id='type-id-17'/>
    </function-decl>
    <function-decl name='vfwscanf' filepath='/usr/include/wchar.h' line='687' column='1' visibility='default' binding='global' size-in-bits='64'>
      <parameter type-id='type-id-105'/>
      <parameter type-id='type-id-159'/>
      <parameter type-id='type-id-185'/>
      <return type-id='type-id-17'/>
    </function-decl>
    <function-decl name='vswprintf' filepath='/usr/include/wchar.h' line='623' column='1' visibility='default' binding='global' size-in-bits='64'>
      <parameter type-id='type-id-195'/>
      <parameter type-id='type-id-23'/>
      <parameter type-id='type-id-159'/>
      <parameter type-id='type-id-185'/>
      <return type-id='type-id-17'/>
    </function-decl>
    <function-decl name='vswscanf' filepath='/usr/include/wchar.h' line='699' column='1' visibility='default' binding='global' size-in-bits='64'>
      <parameter type-id='type-id-159'/>
      <parameter type-id='type-id-159'/>
      <parameter type-id='type-id-185'/>
      <return type-id='type-id-17'/>
    </function-decl>
    <function-decl name='vwprintf' filepath='/usr/include/wchar.h' line='618' column='1' visibility='default' binding='global' size-in-bits='64'>
      <parameter type-id='type-id-159'/>
      <parameter type-id='type-id-185'/>
      <return type-id='type-id-17'/>
    </function-decl>
    <function-decl name='vwscanf' filepath='/usr/include/wchar.h' line='695' column='1' visibility='default' binding='global' size-in-bits='64'>
      <parameter type-id='type-id-159'/>
      <parameter type-id='type-id-185'/>
      <return type-id='type-id-17'/>
    </function-decl>
    <function-decl name='wcrtomb' filepath='/usr/include/wchar.h' line='368' column='1' visibility='default' binding='global' size-in-bits='64'>
      <parameter type-id='type-id-47'/>
      <parameter type-id='type-id-29'/>
      <parameter type-id='type-id-163'/>
      <return type-id='type-id-23'/>
    </function-decl>
    <function-decl name='wcscat' filepath='/usr/include/wchar.h' line='152' column='1' visibility='default' binding='global' size-in-bits='64'>
      <parameter type-id='type-id-195'/>
      <parameter type-id='type-id-159'/>
      <return type-id='type-id-195'/>
    </function-decl>
    <function-decl name='wcscmp' filepath='/usr/include/wchar.h' line='160' column='1' visibility='default' binding='global' size-in-bits='64'>
      <parameter type-id='type-id-159'/>
      <parameter type-id='type-id-159'/>
      <return type-id='type-id-17'/>
    </function-decl>
    <function-decl name='wcscoll' filepath='/usr/include/wchar.h' line='189' column='1' visibility='default' binding='global' size-in-bits='64'>
      <parameter type-id='type-id-159'/>
      <parameter type-id='type-id-159'/>
      <return type-id='type-id-17'/>
    </function-decl>
    <function-decl name='wcscpy' filepath='/usr/include/wchar.h' line='144' column='1' visibility='default' binding='global' size-in-bits='64'>
      <parameter type-id='type-id-195'/>
      <parameter type-id='type-id-159'/>
      <return type-id='type-id-195'/>
    </function-decl>
    <function-decl name='wcscspn' filepath='/usr/include/wchar.h' line='249' column='1' visibility='default' binding='global' size-in-bits='64'>
      <parameter type-id='type-id-159'/>
      <parameter type-id='type-id-159'/>
      <return type-id='type-id-23'/>
    </function-decl>
    <function-decl name='wcsftime' filepath='/usr/include/wchar.h' line='853' column='1' visibility='default' binding='global' size-in-bits='64'>
      <parameter type-id='type-id-195'/>
      <parameter type-id='type-id-23'/>
      <parameter type-id='type-id-159'/>
      <parameter type-id='type-id-150'/>
      <return type-id='type-id-23'/>
    </function-decl>
    <function-decl name='wcslen' filepath='/usr/include/wchar.h' line='284' column='1' visibility='default' binding='global' size-in-bits='64'>
      <parameter type-id='type-id-159'/>
      <return type-id='type-id-23'/>
    </function-decl>
    <function-decl name='wcsncat' filepath='/usr/include/wchar.h' line='155' column='1' visibility='default' binding='global' size-in-bits='64'>
      <parameter type-id='type-id-195'/>
      <parameter type-id='type-id-159'/>
      <parameter type-id='type-id-23'/>
      <return type-id='type-id-195'/>
    </function-decl>
    <function-decl name='wcsncmp' filepath='/usr/include/wchar.h' line='163' column='1' visibility='default' binding='global' size-in-bits='64'>
      <parameter type-id='type-id-159'/>
      <parameter type-id='type-id-159'/>
      <parameter type-id='type-id-23'/>
      <return type-id='type-id-17'/>
    </function-decl>
    <function-decl name='wcsncpy' filepath='/usr/include/wchar.h' line='147' column='1' visibility='default' binding='global' size-in-bits='64'>
      <parameter type-id='type-id-195'/>
      <parameter type-id='type-id-159'/>
      <parameter type-id='type-id-23'/>
      <return type-id='type-id-195'/>
    </function-decl>
    <function-decl name='wcsrtombs' filepath='/usr/include/wchar.h' line='412' column='1' visibility='default' binding='global' size-in-bits='64'>
      <parameter type-id='type-id-47'/>
      <parameter type-id='type-id-160'/>
      <parameter type-id='type-id-23'/>
      <parameter type-id='type-id-163'/>
      <return type-id='type-id-23'/>
    </function-decl>
    <function-decl name='wcsspn' filepath='/usr/include/wchar.h' line='253' column='1' visibility='default' binding='global' size-in-bits='64'>
      <parameter type-id='type-id-159'/>
      <parameter type-id='type-id-159'/>
      <return type-id='type-id-23'/>
    </function-decl>
    <function-decl name='wcstod' filepath='/usr/include/wchar.h' line='448' column='1' visibility='default' binding='global' size-in-bits='64'>
      <parameter type-id='type-id-159'/>
      <parameter type-id='type-id-196'/>
      <return type-id='type-id-15'/>
    </function-decl>
    <function-decl name='wcstof' filepath='/usr/include/wchar.h' line='455' column='1' visibility='default' binding='global' size-in-bits='64'>
      <parameter type-id='type-id-159'/>
      <parameter type-id='type-id-196'/>
      <return type-id='type-id-16'/>
    </function-decl>
    <function-decl name='wcstok' filepath='/usr/include/wchar.h' line='279' column='1' visibility='default' binding='global' size-in-bits='64'>
      <parameter type-id='type-id-195'/>
      <parameter type-id='type-id-159'/>
      <parameter type-id='type-id-196'/>
      <return type-id='type-id-195'/>
    </function-decl>
    <function-decl name='wcstol' filepath='/usr/include/wchar.h' line='466' column='1' visibility='default' binding='global' size-in-bits='64'>
      <parameter type-id='type-id-159'/>
      <parameter type-id='type-id-196'/>
      <parameter type-id='type-id-17'/>
      <return type-id='type-id-19'/>
    </function-decl>
    <function-decl name='wcstoul' filepath='/usr/include/wchar.h' line='471' column='1' visibility='default' binding='global' size-in-bits='64'>
      <parameter type-id='type-id-159'/>
      <parameter type-id='type-id-196'/>
      <parameter type-id='type-id-17'/>
      <return type-id='type-id-4'/>
    </function-decl>
    <function-decl name='wcsxfrm' filepath='/usr/include/wchar.h' line='193' column='1' visibility='default' binding='global' size-in-bits='64'>
      <parameter type-id='type-id-195'/>
      <parameter type-id='type-id-159'/>
      <parameter type-id='type-id-23'/>
      <return type-id='type-id-23'/>
    </function-decl>
    <function-decl name='wctob' filepath='/usr/include/wchar.h' line='392' column='1' visibility='default' binding='global' size-in-bits='64'>
      <parameter type-id='type-id-71'/>
      <return type-id='type-id-17'/>
    </function-decl>
    <function-decl name='wmemcmp' filepath='/usr/include/wchar.h' line='322' column='1' visibility='default' binding='global' size-in-bits='64'>
      <parameter type-id='type-id-159'/>
      <parameter type-id='type-id-159'/>
      <parameter type-id='type-id-23'/>
      <return type-id='type-id-17'/>
    </function-decl>
    <function-decl name='wmemcpy' filepath='/usr/include/wchar.h' line='327' column='1' visibility='default' binding='global' size-in-bits='64'>
      <parameter type-id='type-id-195'/>
      <parameter type-id='type-id-159'/>
      <parameter type-id='type-id-23'/>
      <return type-id='type-id-195'/>
    </function-decl>
    <function-decl name='wmemmove' filepath='/usr/include/wchar.h' line='332' column='1' visibility='default' binding='global' size-in-bits='64'>
      <parameter type-id='type-id-195'/>
      <parameter type-id='type-id-159'/>
      <parameter type-id='type-id-23'/>
      <return type-id='type-id-195'/>
    </function-decl>
    <function-decl name='wmemset' filepath='/usr/include/wchar.h' line='336' column='1' visibility='default' binding='global' size-in-bits='64'>
      <parameter type-id='type-id-195'/>
      <parameter type-id='type-id-29'/>
      <parameter type-id='type-id-23'/>
      <return type-id='type-id-195'/>
    </function-decl>
    <function-decl name='wprintf' filepath='/usr/include/wchar.h' line='599' column='1' visibility='default' binding='global' size-in-bits='64'>
      <parameter type-id='type-id-159'/>
      <parameter is-variadic='yes'/>
      <return type-id='type-id-17'/>
    </function-decl>
    <function-decl name='wscanf' filepath='/usr/include/wchar.h' line='640' column='1' visibility='default' binding='global' size-in-bits='64'>
      <parameter type-id='type-id-159'/>
      <parameter is-variadic='yes'/>
      <return type-id='type-id-17'/>
    </function-decl>
    <function-decl name='wcstold' filepath='/usr/include/wchar.h' line='457' column='1' visibility='default' binding='global' size-in-bits='64'>
      <parameter type-id='type-id-159'/>
      <parameter type-id='type-id-196'/>
      <return type-id='type-id-18'/>
    </function-decl>
    <function-decl name='wcstoll' filepath='/usr/include/wchar.h' line='481' column='1' visibility='default' binding='global' size-in-bits='64'>
      <parameter type-id='type-id-159'/>
      <parameter type-id='type-id-196'/>
      <parameter type-id='type-id-17'/>
      <return type-id='type-id-20'/>
    </function-decl>
    <function-decl name='wcstoull' filepath='/usr/include/wchar.h' line='488' column='1' visibility='default' binding='global' size-in-bits='64'>
      <parameter type-id='type-id-159'/>
      <parameter type-id='type-id-196'/>
      <parameter type-id='type-id-17'/>
      <return type-id='type-id-21'/>
    </function-decl>
    <function-decl name='setlocale' filepath='/usr/include/locale.h' line='125' column='1' visibility='default' binding='global' size-in-bits='64'>
      <parameter type-id='type-id-17'/>
      <parameter type-id='type-id-41'/>
      <return type-id='type-id-47'/>
    </function-decl>
    <function-decl name='localeconv' filepath='/usr/include/locale.h' line='128' column='1' visibility='default' binding='global' size-in-bits='64'>
      <return type-id='type-id-162'/>
    </function-decl>
    <function-decl name='iswctype' filepath='/usr/include/wctype.h' line='176' column='1' visibility='default' binding='global' size-in-bits='64'>
      <parameter type-id='type-id-71'/>
      <parameter type-id='type-id-89'/>
      <return type-id='type-id-17'/>
    </function-decl>
    <function-decl name='towctrans' filepath='/usr/include/wctype.h' line='222' column='1' visibility='default' binding='global' size-in-bits='64'>
      <parameter type-id='type-id-71'/>
      <parameter type-id='type-id-91'/>
      <return type-id='type-id-71'/>
    </function-decl>
    <function-decl name='wctrans' filepath='/usr/include/wctype.h' line='219' column='1' visibility='default' binding='global' size-in-bits='64'>
      <parameter type-id='type-id-41'/>
      <return type-id='type-id-91'/>
    </function-decl>
    <function-decl name='wctype' filepath='/usr/include/wctype.h' line='172' column='1' visibility='default' binding='global' size-in-bits='64'>
      <parameter type-id='type-id-41'/>
      <return type-id='type-id-89'/>
    </function-decl>
    <function-decl name='clearerr' filepath='/usr/include/stdio.h' line='821' column='1' visibility='default' binding='global' size-in-bits='64'>
      <parameter type-id='type-id-104'/>
      <return type-id='type-id-28'/>
    </function-decl>
    <function-decl name='fclose' filepath='/usr/include/stdio.h' line='236' column='1' visibility='default' binding='global' size-in-bits='64'>
      <parameter type-id='type-id-104'/>
      <return type-id='type-id-17'/>
    </function-decl>
    <function-decl name='feof' filepath='/usr/include/stdio.h' line='823' column='1' visibility='default' binding='global' size-in-bits='64'>
      <parameter type-id='type-id-104'/>
      <return type-id='type-id-17'/>
    </function-decl>
    <function-decl name='ferror' filepath='/usr/include/stdio.h' line='825' column='1' visibility='default' binding='global' size-in-bits='64'>
      <parameter type-id='type-id-104'/>
      <return type-id='type-id-17'/>
    </function-decl>
    <function-decl name='fflush' filepath='/usr/include/stdio.h' line='241' column='1' visibility='default' binding='global' size-in-bits='64'>
      <parameter type-id='type-id-104'/>
      <return type-id='type-id-17'/>
    </function-decl>
    <function-decl name='fgetc' filepath='/usr/include/stdio.h' line='535' column='1' visibility='default' binding='global' size-in-bits='64'>
      <parameter type-id='type-id-104'/>
      <return type-id='type-id-17'/>
    </function-decl>
    <function-decl name='fgets' filepath='/usr/include/stdio.h' line='626' column='1' visibility='default' binding='global' size-in-bits='64'>
      <parameter type-id='type-id-47'/>
      <parameter type-id='type-id-17'/>
      <parameter type-id='type-id-104'/>
      <return type-id='type-id-47'/>
    </function-decl>
    <function-decl name='fread' filepath='/usr/include/stdio.h' line='704' column='1' visibility='default' binding='global' size-in-bits='64'>
      <parameter type-id='type-id-14'/>
      <parameter type-id='type-id-23'/>
      <parameter type-id='type-id-23'/>
      <parameter type-id='type-id-104'/>
      <return type-id='type-id-23'/>
    </function-decl>
    <function-decl name='fseek' filepath='/usr/include/stdio.h' line='744' column='1' visibility='default' binding='global' size-in-bits='64'>
      <parameter type-id='type-id-104'/>
      <parameter type-id='type-id-19'/>
      <parameter type-id='type-id-17'/>
      <return type-id='type-id-17'/>
    </function-decl>
    <function-decl name='ftell' filepath='/usr/include/stdio.h' line='749' column='1' visibility='default' binding='global' size-in-bits='64'>
      <parameter type-id='type-id-104'/>
      <return type-id='type-id-19'/>
    </function-decl>
    <function-decl name='getc' filepath='/usr/include/stdio.h' line='536' column='1' visibility='default' binding='global' size-in-bits='64'>
      <parameter type-id='type-id-104'/>
      <return type-id='type-id-17'/>
    </function-decl>
    <function-decl name='getchar' filepath='/usr/include/bits/stdio.h' line='45' column='1' visibility='default' binding='global' size-in-bits='64'>
      <return type-id='type-id-17'/>
    </function-decl>
    <function-decl name='gets' filepath='/usr/include/stdio.h' line='634' column='1' visibility='default' binding='global' size-in-bits='64'>
      <parameter type-id='type-id-47'/>
      <return type-id='type-id-47'/>
    </function-decl>
    <function-decl name='perror' filepath='/usr/include/stdio.h' line='841' column='1' visibility='default' binding='global' size-in-bits='64'>
      <parameter type-id='type-id-41'/>
      <return type-id='type-id-28'/>
    </function-decl>
    <function-decl name='remove' filepath='/usr/include/stdio.h' line='177' column='1' visibility='default' binding='global' size-in-bits='64'>
      <parameter type-id='type-id-41'/>
      <return type-id='type-id-17'/>
    </function-decl>
    <function-decl name='rename' filepath='/usr/include/stdio.h' line='179' column='1' visibility='default' binding='global' size-in-bits='64'>
      <parameter type-id='type-id-41'/>
      <parameter type-id='type-id-41'/>
      <return type-id='type-id-17'/>
    </function-decl>
    <function-decl name='rewind' filepath='/usr/include/stdio.h' line='754' column='1' visibility='default' binding='global' size-in-bits='64'>
      <parameter type-id='type-id-104'/>
      <return type-id='type-id-28'/>
    </function-decl>
    <function-decl name='setbuf' filepath='/usr/include/stdio.h' line='331' column='1' visibility='default' binding='global' size-in-bits='64'>
      <parameter type-id='type-id-104'/>
      <parameter type-id='type-id-47'/>
      <return type-id='type-id-28'/>
    </function-decl>
    <function-decl name='setvbuf' filepath='/usr/include/stdio.h' line='335' column='1' visibility='default' binding='global' size-in-bits='64'>
      <parameter type-id='type-id-104'/>
      <parameter type-id='type-id-47'/>
      <parameter type-id='type-id-17'/>
      <parameter type-id='type-id-23'/>
      <return type-id='type-id-17'/>
    </function-decl>
    <function-decl name='tmpnam' filepath='/usr/include/stdio.h' line='208' column='1' visibility='default' binding='global' size-in-bits='64'>
      <parameter type-id='type-id-47'/>
      <return type-id='type-id-47'/>
    </function-decl>
    <function-decl name='ungetc' filepath='/usr/include/stdio.h' line='697' column='1' visibility='default' binding='global' size-in-bits='64'>
      <parameter type-id='type-id-17'/>
      <parameter type-id='type-id-104'/>
      <return type-id='type-id-17'/>
    </function-decl>
    <pointer-type-def type-id='type-id-79' size-in-bits='64' id='type-id-214'/>
    <pointer-type-def type-id='type-id-216' size-in-bits='64' id='type-id-217'/>
    <reference-type-def kind='lvalue' type-id='type-id-1' size-in-bits='64' id='type-id-51'/>
    <reference-type-def kind='lvalue' type-id='type-id-219' size-in-bits='64' id='type-id-215'/>
    <namespace-decl name='std'>
      <class-decl name='forward_iterator_tag' size-in-bits='8' is-struct='yes' visibility='default' filepath='/usr/lib/gcc/x86_64-redhat-linux/4.4.7/../../../../include/c++/4.4.7/bits/stl_iterator_base_types.h' line='83' column='1' id='type-id-201'>
        <base-class access='public' layout-offset-in-bits='0' type-id='type-id-220'/>
      </class-decl>
    </namespace-decl>
    <namespace-decl name='std'>
      <class-decl name='vector&lt;vtkSQLDatabase* (*)(const char*), std::allocator&lt;vtkSQLDatabase* (*)(const char*)&gt; &gt;' size-in-bits='192' visibility='default' filepath='/usr/lib/gcc/x86_64-redhat-linux/4.4.7/../../../../include/c++/4.4.7/bits/stl_vector.h' line='171' column='1' id='type-id-34'>
        <base-class access='protected' layout-offset-in-bits='0' type-id='type-id-221'/>
        <member-function access='private'>
          <function-decl name='vector' filepath='/usr/lib/gcc/x86_64-redhat-linux/4.4.7/../../../../include/c++/4.4.7/bits/stl_vector.h' line='207' column='1' visibility='default' binding='global' size-in-bits='64'>
            <parameter type-id='type-id-222' is-artificial='yes'/>
            <return type-id='type-id-28'/>
          </function-decl>
        </member-function>
        <member-function access='private'>
          <function-decl name='vector' filepath='/usr/lib/gcc/x86_64-redhat-linux/4.4.7/../../../../include/c++/4.4.7/bits/stl_vector.h' line='215' column='1' visibility='default' binding='global' size-in-bits='64'>
            <parameter type-id='type-id-222' is-artificial='yes'/>
            <parameter type-id='type-id-223'/>
            <return type-id='type-id-28'/>
          </function-decl>
        </member-function>
        <member-function access='private'>
          <function-decl name='vector' filepath='/usr/lib/gcc/x86_64-redhat-linux/4.4.7/../../../../include/c++/4.4.7/bits/stl_vector.h' line='227' column='1' visibility='default' binding='global' size-in-bits='64'>
            <parameter type-id='type-id-222' is-artificial='yes'/>
            <parameter type-id='type-id-4'/>
            <parameter type-id='type-id-224'/>
            <parameter type-id='type-id-223'/>
            <return type-id='type-id-28'/>
          </function-decl>
        </member-function>
        <member-function access='private'>
          <function-decl name='vector' filepath='/usr/lib/gcc/x86_64-redhat-linux/4.4.7/../../../../include/c++/4.4.7/bits/stl_vector.h' line='241' column='1' visibility='default' binding='global' size-in-bits='64'>
            <parameter type-id='type-id-222' is-artificial='yes'/>
            <parameter type-id='type-id-225'/>
            <return type-id='type-id-28'/>
          </function-decl>
        </member-function>
        <member-function access='private' destructor='yes'>
          <function-decl name='~vector' filepath='/usr/lib/gcc/x86_64-redhat-linux/4.4.7/../../../../include/c++/4.4.7/bits/stl_vector.h' line='312' column='1' visibility='default' binding='global' size-in-bits='64'>
            <parameter type-id='type-id-222' is-artificial='yes'/>
            <parameter type-id='type-id-17' is-artificial='yes'/>
            <return type-id='type-id-28'/>
          </function-decl>
        </member-function>
        <member-function access='protected'>
          <function-decl name='_M_insert_aux' mangled-name='_ZNSt6vectorIPFP14vtkSQLDatabasePKcESaIS5_EE13_M_insert_auxEN9__gnu_cxx17__normal_iteratorIPS5_S7_EERKS5_' filepath='/usr/lib/gcc/x86_64-redhat-linux/4.4.7/../../../../include/c++/4.4.7/bits/vector.tcc' line='295' column='1' visibility='default' binding='global' size-in-bits='64' elf-symbol-id='_ZNSt6vectorIPFP14vtkSQLDatabasePKcESaIS5_EE13_M_insert_auxEN9__gnu_cxx17__normal_iteratorIPS5_S7_EERKS5_'>
            <parameter type-id='type-id-226' name='this' is-artificial='yes'/>
            <parameter type-id='type-id-227' name='__position' filepath='/usr/lib/gcc/x86_64-redhat-linux/4.4.7/../../../../include/c++/4.4.7/bits/vector.tcc' line='296' column='1'/>
            <parameter type-id='type-id-228' name='__x' filepath='/usr/lib/gcc/x86_64-redhat-linux/4.4.7/../../../../include/c++/4.4.7/bits/vector.tcc' line='296' column='1'/>
            <return type-id='type-id-28'/>
          </function-decl>
        </member-function>
      </class-decl>
    </namespace-decl>
    <class-decl name='vtkDataObject' visibility='default' is-declaration-only='yes' id='type-id-188'/>
    <class-decl name='vtkInformation' visibility='default' is-declaration-only='yes' id='type-id-190'/>
    <class-decl name='vtkInformationVector' visibility='default' is-declaration-only='yes' id='type-id-191'/>
    <class-decl name='vtkObject' visibility='default' is-declaration-only='yes' id='type-id-32'/>
    <class-decl name='vtkProgressObserver' is-struct='yes' visibility='default' is-declaration-only='yes' id='type-id-193'/>
    <class-decl name='vtkTableAlgorithm' visibility='default' is-declaration-only='yes' id='type-id-96'/>
    <reference-type-def kind='lvalue' type-id='type-id-229' size-in-bits='64' id='type-id-218'/>
    <reference-type-def kind='lvalue' type-id='type-id-230' size-in-bits='64' id='type-id-39'/>
    <pointer-type-def type-id='type-id-230' size-in-bits='64' id='type-id-42'/>
    <pointer-type-def type-id='type-id-209' size-in-bits='64' id='type-id-212'/>
    <pointer-type-def type-id='type-id-14' size-in-bits='64' id='type-id-213'/>
    <pointer-type-def type-id='type-id-231' size-in-bits='64' id='type-id-40'/>
    <pointer-type-def type-id='type-id-232' size-in-bits='64' id='type-id-36'/>
    <pointer-type-def type-id='type-id-33' size-in-bits='64' id='type-id-37'/>
    <pointer-type-def type-id='type-id-233' size-in-bits='64' id='type-id-50'/>
    <pointer-type-def type-id='type-id-234' size-in-bits='64' id='type-id-46'/>
    <pointer-type-def type-id='type-id-235' size-in-bits='64' id='type-id-48'/>
    <qualified-type-def type-id='type-id-47' const='yes' id='type-id-219'/>
    <namespace-decl name='__gnu_cxx'>
      <class-decl name='__normal_iterator&lt;vtkSQLDatabase* (**)(const char*), std::vector&lt;vtkSQLDatabase* (*)(const char*), std::allocator&lt;vtkSQLDatabase* (*)(const char*)&gt; &gt; &gt;' size-in-bits='64' visibility='default' filepath='/usr/lib/gcc/x86_64-redhat-linux/4.4.7/../../../../include/c++/4.4.7/bits/stl_iterator.h' line='669' column='1' id='type-id-227'>
        <data-member access='protected' layout-offset-in-bits='0'>
          <var-decl name='_M_current' type-id='type-id-236' visibility='default' filepath='/usr/lib/gcc/x86_64-redhat-linux/4.4.7/../../../../include/c++/4.4.7/bits/stl_iterator.h' line='671' column='1'/>
        </data-member>
        <member-function access='private'>
          <function-decl name='__normal_iterator' filepath='/usr/lib/gcc/x86_64-redhat-linux/4.4.7/../../../../include/c++/4.4.7/bits/stl_iterator.h' line='683' column='1' visibility='default' binding='global' size-in-bits='64'>
            <parameter type-id='type-id-237' is-artificial='yes'/>
            <return type-id='type-id-28'/>
          </function-decl>
        </member-function>
        <member-function access='private'>
          <function-decl name='__normal_iterator' filepath='/usr/lib/gcc/x86_64-redhat-linux/4.4.7/../../../../include/c++/4.4.7/bits/stl_iterator.h' line='686' column='1' visibility='default' binding='global' size-in-bits='64'>
            <parameter type-id='type-id-237' is-artificial='yes'/>
            <parameter type-id='type-id-238'/>
            <return type-id='type-id-28'/>
          </function-decl>
        </member-function>
      </class-decl>
    </namespace-decl>
    <namespace-decl name='std'>
      <class-decl name='_Vector_base&lt;vtkSQLDatabase* (*)(const char*), std::allocator&lt;vtkSQLDatabase* (*)(const char*)&gt; &gt;' size-in-bits='192' is-struct='yes' visibility='default' filepath='/usr/lib/gcc/x86_64-redhat-linux/4.4.7/../../../../include/c++/4.4.7/bits/stl_vector.h' line='70' column='1' id='type-id-221'>
        <member-type access='public'>
          <class-decl name='_Vector_impl' size-in-bits='192' is-struct='yes' visibility='default' filepath='/usr/lib/gcc/x86_64-redhat-linux/4.4.7/../../../../include/c++/4.4.7/bits/stl_vector.h' line='75' column='1' id='type-id-239'>
            <base-class access='public' layout-offset-in-bits='0' type-id='type-id-240'/>
            <data-member access='public' layout-offset-in-bits='0'>
              <var-decl name='_M_start' type-id='type-id-236' visibility='default' filepath='/usr/lib/gcc/x86_64-redhat-linux/4.4.7/../../../../include/c++/4.4.7/bits/stl_vector.h' line='76' column='1'/>
            </data-member>
            <data-member access='public' layout-offset-in-bits='64'>
              <var-decl name='_M_finish' type-id='type-id-236' visibility='default' filepath='/usr/lib/gcc/x86_64-redhat-linux/4.4.7/../../../../include/c++/4.4.7/bits/stl_vector.h' line='77' column='1'/>
            </data-member>
            <data-member access='public' layout-offset-in-bits='128'>
              <var-decl name='_M_end_of_storage' type-id='type-id-236' visibility='default' filepath='/usr/lib/gcc/x86_64-redhat-linux/4.4.7/../../../../include/c++/4.4.7/bits/stl_vector.h' line='78' column='1'/>
            </data-member>
            <member-function access='public' constructor='yes'>
              <function-decl name='_Vector_impl' filepath='/usr/lib/gcc/x86_64-redhat-linux/4.4.7/../../../../include/c++/4.4.7/bits/stl_vector.h' line='80' column='1' visibility='default' binding='global' size-in-bits='64'>
                <parameter type-id='type-id-241' is-artificial='yes'/>
                <return type-id='type-id-28'/>
              </function-decl>
            </member-function>
            <member-function access='public' constructor='yes'>
              <function-decl name='_Vector_impl' filepath='/usr/lib/gcc/x86_64-redhat-linux/4.4.7/../../../../include/c++/4.4.7/bits/stl_vector.h' line='84' column='1' visibility='default' binding='global' size-in-bits='64'>
                <parameter type-id='type-id-241' is-artificial='yes'/>
                <parameter type-id='type-id-223'/>
                <return type-id='type-id-28'/>
              </function-decl>
            </member-function>
          </class-decl>
        </member-type>
        <data-member access='public' layout-offset-in-bits='0'>
          <var-decl name='_M_impl' type-id='type-id-239' visibility='default' filepath='/usr/lib/gcc/x86_64-redhat-linux/4.4.7/../../../../include/c++/4.4.7/bits/stl_vector.h' line='136' column='1'/>
        </data-member>
        <member-function access='public'>
          <function-decl name='_Vector_base' filepath='/usr/lib/gcc/x86_64-redhat-linux/4.4.7/../../../../include/c++/4.4.7/bits/stl_vector.h' line='104' column='1' visibility='default' binding='global' size-in-bits='64'>
            <parameter type-id='type-id-242' is-artificial='yes'/>
            <return type-id='type-id-28'/>
          </function-decl>
        </member-function>
        <member-function access='public'>
          <function-decl name='_Vector_base' filepath='/usr/lib/gcc/x86_64-redhat-linux/4.4.7/../../../../include/c++/4.4.7/bits/stl_vector.h' line='107' column='1' visibility='default' binding='global' size-in-bits='64'>
            <parameter type-id='type-id-242' is-artificial='yes'/>
            <parameter type-id='type-id-223'/>
            <return type-id='type-id-28'/>
          </function-decl>
        </member-function>
        <member-function access='public'>
          <function-decl name='_Vector_base' filepath='/usr/lib/gcc/x86_64-redhat-linux/4.4.7/../../../../include/c++/4.4.7/bits/stl_vector.h' line='110' column='1' visibility='default' binding='global' size-in-bits='64'>
            <parameter type-id='type-id-242' is-artificial='yes'/>
            <parameter type-id='type-id-4'/>
            <parameter type-id='type-id-223'/>
            <return type-id='type-id-28'/>
          </function-decl>
        </member-function>
        <member-function access='public' destructor='yes'>
          <function-decl name='~_Vector_base' filepath='/usr/lib/gcc/x86_64-redhat-linux/4.4.7/../../../../include/c++/4.4.7/bits/stl_vector.h' line='131' column='1' visibility='default' binding='global' size-in-bits='64'>
            <parameter type-id='type-id-242' is-artificial='yes'/>
            <parameter type-id='type-id-17' is-artificial='yes'/>
            <return type-id='type-id-28'/>
          </function-decl>
        </member-function>
      </class-decl>
    </namespace-decl>
    <namespace-decl name='std'>
      <class-decl name='input_iterator_tag' size-in-bits='8' is-struct='yes' visibility='default' filepath='/usr/lib/gcc/x86_64-redhat-linux/4.4.7/../../../../include/c++/4.4.7/bits/stl_iterator_base_types.h' line='79' column='1' id='type-id-220'/>
    </namespace-decl>
    <class-decl name='vtkInformationObjectBaseKey' visibility='default' is-declaration-only='yes' id='type-id-231'/>
    <class-decl name='vtkSQLDatabaseSchema' size-in-bits='512' visibility='default' filepath='/var/tmp/gamblin2/spack-stage/spack-stage-hrtRhh/VTK-6.1.0/IO/SQL/vtkSQLDatabaseSchema.h' line='59' column='1' id='type-id-233'>
      <base-class access='public' layout-offset-in-bits='0' type-id='type-id-32'/>
      <member-type access='private'>
        <enum-decl name='DatabaseTriggerType' filepath='/var/tmp/gamblin2/spack-stage/spack-stage-hrtRhh/VTK-6.1.0/IO/SQL/vtkSQLDatabaseSchema.h' line='95' column='1' id='type-id-243'>
          <underlying-type type-id='type-id-25'/>
          <enumerator name='BEFORE_INSERT' value='0'/>
          <enumerator name='AFTER_INSERT' value='1'/>
          <enumerator name='BEFORE_UPDATE' value='2'/>
          <enumerator name='AFTER_UPDATE' value='3'/>
          <enumerator name='BEFORE_DELETE' value='4'/>
          <enumerator name='AFTER_DELETE' value='5'/>
        </enum-decl>
      </member-type>
      <member-type access='private'>
        <enum-decl name='VarargTokens' filepath='/var/tmp/gamblin2/spack-stage/spack-stage-hrtRhh/VTK-6.1.0/IO/SQL/vtkSQLDatabaseSchema.h' line='337' column='1' id='type-id-244'>
          <underlying-type type-id='type-id-25'/>
          <enumerator name='COLUMN_TOKEN' value='58'/>
          <enumerator name='INDEX_TOKEN' value='63'/>
          <enumerator name='INDEX_COLUMN_TOKEN' value='65'/>
          <enumerator name='END_INDEX_TOKEN' value='75'/>
          <enumerator name='TRIGGER_TOKEN' value='81'/>
          <enumerator name='OPTION_TOKEN' value='86'/>
          <enumerator name='END_TABLE_TOKEN' value='99'/>
        </enum-decl>
      </member-type>
      <member-type access='private'>
        <enum-decl name='DatabaseColumnType' filepath='/var/tmp/gamblin2/spack-stage/spack-stage-hrtRhh/VTK-6.1.0/IO/SQL/vtkSQLDatabaseSchema.h' line='68' column='1' id='type-id-245'>
          <underlying-type type-id='type-id-25'/>
          <enumerator name='SERIAL' value='0'/>
          <enumerator name='SMALLINT' value='1'/>
          <enumerator name='INTEGER' value='2'/>
          <enumerator name='BIGINT' value='3'/>
          <enumerator name='VARCHAR' value='4'/>
          <enumerator name='TEXT' value='5'/>
          <enumerator name='REAL' value='6'/>
          <enumerator name='DOUBLE' value='7'/>
          <enumerator name='BLOB' value='8'/>
          <enumerator name='TIME' value='9'/>
          <enumerator name='DATE' value='10'/>
          <enumerator name='TIMESTAMP' value='11'/>
        </enum-decl>
      </member-type>
      <member-type access='private'>
        <enum-decl name='DatabaseIndexType' filepath='/var/tmp/gamblin2/spack-stage/spack-stage-hrtRhh/VTK-6.1.0/IO/SQL/vtkSQLDatabaseSchema.h' line='86' column='1' id='type-id-246'>
          <underlying-type type-id='type-id-25'/>
          <enumerator name='INDEX' value='0'/>
          <enumerator name='UNIQUE' value='1'/>
          <enumerator name='PRIMARY_KEY' value='2'/>
        </enum-decl>
      </member-type>
      <data-member access='protected' layout-offset-in-bits='384'>
        <var-decl name='Name' type-id='type-id-47' visibility='default' filepath='/var/tmp/gamblin2/spack-stage/spack-stage-hrtRhh/VTK-6.1.0/IO/SQL/vtkSQLDatabaseSchema.h' line='383' column='1'/>
      </data-member>
      <data-member access='protected' layout-offset-in-bits='448'>
        <var-decl name='Internals' type-id='type-id-247' visibility='default' filepath='/var/tmp/gamblin2/spack-stage/spack-stage-hrtRhh/VTK-6.1.0/IO/SQL/vtkSQLDatabaseSchema.h' line='385' column='1'/>
      </data-member>
      <member-function access='protected' constructor='yes'>
        <function-decl name='vtkSQLDatabaseSchema' mangled-name='_ZN20vtkSQLDatabaseSchemaC1Ev' filepath='/var/tmp/gamblin2/spack-stage/spack-stage-hrtRhh/VTK-6.1.0/IO/SQL/vtkSQLDatabaseSchema.cxx' line='88' column='1' visibility='default' binding='global' size-in-bits='64' elf-symbol-id='_ZN20vtkSQLDatabaseSchemaC1Ev'>
          <parameter type-id='type-id-50' is-artificial='yes'/>
          <return type-id='type-id-28'/>
        </function-decl>
      </member-function>
      <member-function access='private' constructor='yes'>
        <function-decl name='vtkSQLDatabaseSchema' filepath='/var/tmp/gamblin2/spack-stage/spack-stage-hrtRhh/VTK-6.1.0/IO/SQL/vtkSQLDatabaseSchema.h' line='389' column='1' visibility='default' binding='global' size-in-bits='64'>
          <parameter type-id='type-id-50' is-artificial='yes'/>
          <parameter type-id='type-id-248'/>
          <return type-id='type-id-28'/>
        </function-decl>
      </member-function>
      <member-function access='private'>
        <function-decl name='GetNumberOfPreambles' mangled-name='_ZN20vtkSQLDatabaseSchema20GetNumberOfPreamblesEv' filepath='/var/tmp/gamblin2/spack-stage/spack-stage-hrtRhh/VTK-6.1.0/IO/SQL/vtkSQLDatabaseSchema.cxx' line='748' column='1' visibility='default' binding='global' size-in-bits='64' elf-symbol-id='_ZN20vtkSQLDatabaseSchema20GetNumberOfPreamblesEv'>
          <parameter type-id='type-id-249' name='this' is-artificial='yes'/>
          <return type-id='type-id-17'/>
        </function-decl>
      </member-function>
      <member-function access='private'>
        <function-decl name='GetNumberOfTables' mangled-name='_ZN20vtkSQLDatabaseSchema17GetNumberOfTablesEv' filepath='/var/tmp/gamblin2/spack-stage/spack-stage-hrtRhh/VTK-6.1.0/IO/SQL/vtkSQLDatabaseSchema.cxx' line='754' column='1' visibility='default' binding='global' size-in-bits='64' elf-symbol-id='_ZN20vtkSQLDatabaseSchema17GetNumberOfTablesEv'>
          <parameter type-id='type-id-249' name='this' is-artificial='yes'/>
          <return type-id='type-id-17'/>
        </function-decl>
      </member-function>
      <member-function access='private'>
        <function-decl name='GetNumberOfOptionsInTable' mangled-name='_ZN20vtkSQLDatabaseSchema25GetNumberOfOptionsInTableEi' filepath='/var/tmp/gamblin2/spack-stage/spack-stage-hrtRhh/VTK-6.1.0/IO/SQL/vtkSQLDatabaseSchema.cxx' line='814' column='1' visibility='default' binding='global' size-in-bits='64' elf-symbol-id='_ZN20vtkSQLDatabaseSchema25GetNumberOfOptionsInTableEi'>
          <parameter type-id='type-id-249' name='this' is-artificial='yes'/>
          <parameter type-id='type-id-17' name='tblHandle' filepath='/var/tmp/gamblin2/spack-stage/spack-stage-hrtRhh/VTK-6.1.0/IO/SQL/vtkSQLDatabaseSchema.cxx' line='814' column='1'/>
          <return type-id='type-id-17'/>
        </function-decl>
      </member-function>
      <member-function access='private'>
        <function-decl name='GetNumberOfTriggersInTable' mangled-name='_ZN20vtkSQLDatabaseSchema26GetNumberOfTriggersInTableEi' filepath='/var/tmp/gamblin2/spack-stage/spack-stage-hrtRhh/VTK-6.1.0/IO/SQL/vtkSQLDatabaseSchema.cxx' line='802' column='1' visibility='default' binding='global' size-in-bits='64' elf-symbol-id='_ZN20vtkSQLDatabaseSchema26GetNumberOfTriggersInTableEi'>
          <parameter type-id='type-id-249' name='this' is-artificial='yes'/>
          <parameter type-id='type-id-17' name='tblHandle' filepath='/var/tmp/gamblin2/spack-stage/spack-stage-hrtRhh/VTK-6.1.0/IO/SQL/vtkSQLDatabaseSchema.cxx' line='814' column='1'/>
          <return type-id='type-id-17'/>
        </function-decl>
      </member-function>
      <member-function access='private'>
        <function-decl name='GetNumberOfColumnNamesInIndex' mangled-name='_ZN20vtkSQLDatabaseSchema29GetNumberOfColumnNamesInIndexEii' filepath='/var/tmp/gamblin2/spack-stage/spack-stage-hrtRhh/VTK-6.1.0/IO/SQL/vtkSQLDatabaseSchema.cxx' line='784' column='1' visibility='default' binding='global' size-in-bits='64' elf-symbol-id='_ZN20vtkSQLDatabaseSchema29GetNumberOfColumnNamesInIndexEii'>
          <parameter type-id='type-id-249' name='this' is-artificial='yes'/>
          <parameter type-id='type-id-17' name='tblHandle' filepath='/var/tmp/gamblin2/spack-stage/spack-stage-hrtRhh/VTK-6.1.0/IO/SQL/vtkSQLDatabaseSchema.cxx' line='784' column='1'/>
          <parameter type-id='type-id-17' name='idxHandle' filepath='/var/tmp/gamblin2/spack-stage/spack-stage-hrtRhh/VTK-6.1.0/IO/SQL/vtkSQLDatabaseSchema.cxx' line='784' column='1'/>
          <return type-id='type-id-17'/>
        </function-decl>
      </member-function>
      <member-function access='private'>
        <function-decl name='GetNumberOfIndicesInTable' mangled-name='_ZN20vtkSQLDatabaseSchema25GetNumberOfIndicesInTableEi' filepath='/var/tmp/gamblin2/spack-stage/spack-stage-hrtRhh/VTK-6.1.0/IO/SQL/vtkSQLDatabaseSchema.cxx' line='772' column='1' visibility='default' binding='global' size-in-bits='64' elf-symbol-id='_ZN20vtkSQLDatabaseSchema25GetNumberOfIndicesInTableEi'>
          <parameter type-id='type-id-249' name='this' is-artificial='yes'/>
          <parameter type-id='type-id-17' name='tblHandle' filepath='/var/tmp/gamblin2/spack-stage/spack-stage-hrtRhh/VTK-6.1.0/IO/SQL/vtkSQLDatabaseSchema.cxx' line='814' column='1'/>
          <return type-id='type-id-17'/>
        </function-decl>
      </member-function>
      <member-function access='private'>
        <function-decl name='GetNumberOfColumnsInTable' mangled-name='_ZN20vtkSQLDatabaseSchema25GetNumberOfColumnsInTableEi' filepath='/var/tmp/gamblin2/spack-stage/spack-stage-hrtRhh/VTK-6.1.0/IO/SQL/vtkSQLDatabaseSchema.cxx' line='760' column='1' visibility='default' binding='global' size-in-bits='64' elf-symbol-id='_ZN20vtkSQLDatabaseSchema25GetNumberOfColumnsInTableEi'>
          <parameter type-id='type-id-249' name='this' is-artificial='yes'/>
          <parameter type-id='type-id-17' name='tblHandle' filepath='/var/tmp/gamblin2/spack-stage/spack-stage-hrtRhh/VTK-6.1.0/IO/SQL/vtkSQLDatabaseSchema.cxx' line='814' column='1'/>
          <return type-id='type-id-17'/>
        </function-decl>
      </member-function>
      <member-function access='private'>
        <function-decl name='GetOptionBackendFromHandle' mangled-name='_ZN20vtkSQLDatabaseSchema26GetOptionBackendFromHandleEii' filepath='/var/tmp/gamblin2/spack-stage/spack-stage-hrtRhh/VTK-6.1.0/IO/SQL/vtkSQLDatabaseSchema.cxx' line='660' column='1' visibility='default' binding='global' size-in-bits='64' elf-symbol-id='_ZN20vtkSQLDatabaseSchema26GetOptionBackendFromHandleEii'>
          <parameter type-id='type-id-249' name='this' is-artificial='yes'/>
          <parameter type-id='type-id-17' name='tblHandle' filepath='/var/tmp/gamblin2/spack-stage/spack-stage-hrtRhh/VTK-6.1.0/IO/SQL/vtkSQLDatabaseSchema.cxx' line='661' column='1'/>
          <parameter type-id='type-id-17' name='optHandle' filepath='/var/tmp/gamblin2/spack-stage/spack-stage-hrtRhh/VTK-6.1.0/IO/SQL/vtkSQLDatabaseSchema.cxx' line='661' column='1'/>
          <return type-id='type-id-41'/>
        </function-decl>
      </member-function>
      <member-function access='private'>
        <function-decl name='GetOptionTextFromHandle' mangled-name='_ZN20vtkSQLDatabaseSchema23GetOptionTextFromHandleEii' filepath='/var/tmp/gamblin2/spack-stage/spack-stage-hrtRhh/VTK-6.1.0/IO/SQL/vtkSQLDatabaseSchema.cxx' line='641' column='1' visibility='default' binding='global' size-in-bits='64' elf-symbol-id='_ZN20vtkSQLDatabaseSchema23GetOptionTextFromHandleEii'>
          <parameter type-id='type-id-249' name='this' is-artificial='yes'/>
          <parameter type-id='type-id-17' name='tblHandle' filepath='/var/tmp/gamblin2/spack-stage/spack-stage-hrtRhh/VTK-6.1.0/IO/SQL/vtkSQLDatabaseSchema.cxx' line='661' column='1'/>
          <parameter type-id='type-id-17' name='optHandle' filepath='/var/tmp/gamblin2/spack-stage/spack-stage-hrtRhh/VTK-6.1.0/IO/SQL/vtkSQLDatabaseSchema.cxx' line='661' column='1'/>
          <return type-id='type-id-41'/>
        </function-decl>
      </member-function>
      <member-function access='private'>
        <function-decl name='GetTriggerBackendFromHandle' mangled-name='_ZN20vtkSQLDatabaseSchema27GetTriggerBackendFromHandleEii' filepath='/var/tmp/gamblin2/spack-stage/spack-stage-hrtRhh/VTK-6.1.0/IO/SQL/vtkSQLDatabaseSchema.cxx' line='622' column='1' visibility='default' binding='global' size-in-bits='64' elf-symbol-id='_ZN20vtkSQLDatabaseSchema27GetTriggerBackendFromHandleEii'>
          <parameter type-id='type-id-249' name='this' is-artificial='yes'/>
          <parameter type-id='type-id-17' name='tblHandle' filepath='/var/tmp/gamblin2/spack-stage/spack-stage-hrtRhh/VTK-6.1.0/IO/SQL/vtkSQLDatabaseSchema.cxx' line='661' column='1'/>
          <parameter type-id='type-id-17' name='optHandle' filepath='/var/tmp/gamblin2/spack-stage/spack-stage-hrtRhh/VTK-6.1.0/IO/SQL/vtkSQLDatabaseSchema.cxx' line='661' column='1'/>
          <return type-id='type-id-41'/>
        </function-decl>
      </member-function>
      <member-function access='private'>
        <function-decl name='GetTriggerActionFromHandle' mangled-name='_ZN20vtkSQLDatabaseSchema26GetTriggerActionFromHandleEii' filepath='/var/tmp/gamblin2/spack-stage/spack-stage-hrtRhh/VTK-6.1.0/IO/SQL/vtkSQLDatabaseSchema.cxx' line='603' column='1' visibility='default' binding='global' size-in-bits='64' elf-symbol-id='_ZN20vtkSQLDatabaseSchema26GetTriggerActionFromHandleEii'>
          <parameter type-id='type-id-249' name='this' is-artificial='yes'/>
          <parameter type-id='type-id-17' name='tblHandle' filepath='/var/tmp/gamblin2/spack-stage/spack-stage-hrtRhh/VTK-6.1.0/IO/SQL/vtkSQLDatabaseSchema.cxx' line='661' column='1'/>
          <parameter type-id='type-id-17' name='optHandle' filepath='/var/tmp/gamblin2/spack-stage/spack-stage-hrtRhh/VTK-6.1.0/IO/SQL/vtkSQLDatabaseSchema.cxx' line='661' column='1'/>
          <return type-id='type-id-41'/>
        </function-decl>
      </member-function>
      <member-function access='private'>
        <function-decl name='GetTriggerTypeFromHandle' mangled-name='_ZN20vtkSQLDatabaseSchema24GetTriggerTypeFromHandleEii' filepath='/var/tmp/gamblin2/spack-stage/spack-stage-hrtRhh/VTK-6.1.0/IO/SQL/vtkSQLDatabaseSchema.cxx' line='584' column='1' visibility='default' binding='global' size-in-bits='64' elf-symbol-id='_ZN20vtkSQLDatabaseSchema24GetTriggerTypeFromHandleEii'>
          <parameter type-id='type-id-249' name='this' is-artificial='yes'/>
          <parameter type-id='type-id-17' name='tblHandle' filepath='/var/tmp/gamblin2/spack-stage/spack-stage-hrtRhh/VTK-6.1.0/IO/SQL/vtkSQLDatabaseSchema.cxx' line='784' column='1'/>
          <parameter type-id='type-id-17' name='idxHandle' filepath='/var/tmp/gamblin2/spack-stage/spack-stage-hrtRhh/VTK-6.1.0/IO/SQL/vtkSQLDatabaseSchema.cxx' line='784' column='1'/>
          <return type-id='type-id-17'/>
        </function-decl>
      </member-function>
      <member-function access='private'>
        <function-decl name='GetTriggerNameFromHandle' mangled-name='_ZN20vtkSQLDatabaseSchema24GetTriggerNameFromHandleEii' filepath='/var/tmp/gamblin2/spack-stage/spack-stage-hrtRhh/VTK-6.1.0/IO/SQL/vtkSQLDatabaseSchema.cxx' line='565' column='1' visibility='default' binding='global' size-in-bits='64' elf-symbol-id='_ZN20vtkSQLDatabaseSchema24GetTriggerNameFromHandleEii'>
          <parameter type-id='type-id-249' name='this' is-artificial='yes'/>
          <parameter type-id='type-id-17' name='tblHandle' filepath='/var/tmp/gamblin2/spack-stage/spack-stage-hrtRhh/VTK-6.1.0/IO/SQL/vtkSQLDatabaseSchema.cxx' line='661' column='1'/>
          <parameter type-id='type-id-17' name='optHandle' filepath='/var/tmp/gamblin2/spack-stage/spack-stage-hrtRhh/VTK-6.1.0/IO/SQL/vtkSQLDatabaseSchema.cxx' line='661' column='1'/>
          <return type-id='type-id-41'/>
        </function-decl>
      </member-function>
      <member-function access='private'>
        <function-decl name='GetColumnAttributesFromHandle' mangled-name='_ZN20vtkSQLDatabaseSchema29GetColumnAttributesFromHandleEii' filepath='/var/tmp/gamblin2/spack-stage/spack-stage-hrtRhh/VTK-6.1.0/IO/SQL/vtkSQLDatabaseSchema.cxx' line='523' column='1' visibility='default' binding='global' size-in-bits='64' elf-symbol-id='_ZN20vtkSQLDatabaseSchema29GetColumnAttributesFromHandleEii'>
          <parameter type-id='type-id-249' name='this' is-artificial='yes'/>
          <parameter type-id='type-id-17' name='tblHandle' filepath='/var/tmp/gamblin2/spack-stage/spack-stage-hrtRhh/VTK-6.1.0/IO/SQL/vtkSQLDatabaseSchema.cxx' line='661' column='1'/>
          <parameter type-id='type-id-17' name='optHandle' filepath='/var/tmp/gamblin2/spack-stage/spack-stage-hrtRhh/VTK-6.1.0/IO/SQL/vtkSQLDatabaseSchema.cxx' line='661' column='1'/>
          <return type-id='type-id-41'/>
        </function-decl>
      </member-function>
      <member-function access='private'>
        <function-decl name='GetColumnSizeFromHandle' mangled-name='_ZN20vtkSQLDatabaseSchema23GetColumnSizeFromHandleEii' filepath='/var/tmp/gamblin2/spack-stage/spack-stage-hrtRhh/VTK-6.1.0/IO/SQL/vtkSQLDatabaseSchema.cxx' line='504' column='1' visibility='default' binding='global' size-in-bits='64' elf-symbol-id='_ZN20vtkSQLDatabaseSchema23GetColumnSizeFromHandleEii'>
          <parameter type-id='type-id-249' name='this' is-artificial='yes'/>
          <parameter type-id='type-id-17' name='tblHandle' filepath='/var/tmp/gamblin2/spack-stage/spack-stage-hrtRhh/VTK-6.1.0/IO/SQL/vtkSQLDatabaseSchema.cxx' line='784' column='1'/>
          <parameter type-id='type-id-17' name='idxHandle' filepath='/var/tmp/gamblin2/spack-stage/spack-stage-hrtRhh/VTK-6.1.0/IO/SQL/vtkSQLDatabaseSchema.cxx' line='784' column='1'/>
          <return type-id='type-id-17'/>
        </function-decl>
      </member-function>
      <member-function access='private'>
        <function-decl name='GetColumnTypeFromHandle' mangled-name='_ZN20vtkSQLDatabaseSchema23GetColumnTypeFromHandleEii' filepath='/var/tmp/gamblin2/spack-stage/spack-stage-hrtRhh/VTK-6.1.0/IO/SQL/vtkSQLDatabaseSchema.cxx' line='485' column='1' visibility='default' binding='global' size-in-bits='64' elf-symbol-id='_ZN20vtkSQLDatabaseSchema23GetColumnTypeFromHandleEii'>
          <parameter type-id='type-id-249' name='this' is-artificial='yes'/>
          <parameter type-id='type-id-17' name='tblHandle' filepath='/var/tmp/gamblin2/spack-stage/spack-stage-hrtRhh/VTK-6.1.0/IO/SQL/vtkSQLDatabaseSchema.cxx' line='784' column='1'/>
          <parameter type-id='type-id-17' name='idxHandle' filepath='/var/tmp/gamblin2/spack-stage/spack-stage-hrtRhh/VTK-6.1.0/IO/SQL/vtkSQLDatabaseSchema.cxx' line='784' column='1'/>
          <return type-id='type-id-17'/>
        </function-decl>
      </member-function>
      <member-function access='private'>
        <function-decl name='GetColumnNameFromHandle' mangled-name='_ZN20vtkSQLDatabaseSchema23GetColumnNameFromHandleEii' filepath='/var/tmp/gamblin2/spack-stage/spack-stage-hrtRhh/VTK-6.1.0/IO/SQL/vtkSQLDatabaseSchema.cxx' line='466' column='1' visibility='default' binding='global' size-in-bits='64' elf-symbol-id='_ZN20vtkSQLDatabaseSchema23GetColumnNameFromHandleEii'>
          <parameter type-id='type-id-249' name='this' is-artificial='yes'/>
          <parameter type-id='type-id-17' name='tblHandle' filepath='/var/tmp/gamblin2/spack-stage/spack-stage-hrtRhh/VTK-6.1.0/IO/SQL/vtkSQLDatabaseSchema.cxx' line='661' column='1'/>
          <parameter type-id='type-id-17' name='optHandle' filepath='/var/tmp/gamblin2/spack-stage/spack-stage-hrtRhh/VTK-6.1.0/IO/SQL/vtkSQLDatabaseSchema.cxx' line='661' column='1'/>
          <return type-id='type-id-41'/>
        </function-decl>
      </member-function>
      <member-function access='private'>
        <function-decl name='GetIndexColumnNameFromHandle' mangled-name='_ZN20vtkSQLDatabaseSchema28GetIndexColumnNameFromHandleEiii' filepath='/var/tmp/gamblin2/spack-stage/spack-stage-hrtRhh/VTK-6.1.0/IO/SQL/vtkSQLDatabaseSchema.cxx' line='418' column='1' visibility='default' binding='global' size-in-bits='64' elf-symbol-id='_ZN20vtkSQLDatabaseSchema28GetIndexColumnNameFromHandleEiii'>
          <parameter type-id='type-id-249' name='this' is-artificial='yes'/>
          <parameter type-id='type-id-17' name='tblHandle' filepath='/var/tmp/gamblin2/spack-stage/spack-stage-hrtRhh/VTK-6.1.0/IO/SQL/vtkSQLDatabaseSchema.cxx' line='419' column='1'/>
          <parameter type-id='type-id-17' name='idxHandle' filepath='/var/tmp/gamblin2/spack-stage/spack-stage-hrtRhh/VTK-6.1.0/IO/SQL/vtkSQLDatabaseSchema.cxx' line='419' column='1'/>
          <parameter type-id='type-id-17' name='cnmHandle' filepath='/var/tmp/gamblin2/spack-stage/spack-stage-hrtRhh/VTK-6.1.0/IO/SQL/vtkSQLDatabaseSchema.cxx' line='419' column='1'/>
          <return type-id='type-id-41'/>
        </function-decl>
      </member-function>
      <member-function access='private'>
        <function-decl name='GetIndexTypeFromHandle' mangled-name='_ZN20vtkSQLDatabaseSchema22GetIndexTypeFromHandleEii' filepath='/var/tmp/gamblin2/spack-stage/spack-stage-hrtRhh/VTK-6.1.0/IO/SQL/vtkSQLDatabaseSchema.cxx' line='399' column='1' visibility='default' binding='global' size-in-bits='64' elf-symbol-id='_ZN20vtkSQLDatabaseSchema22GetIndexTypeFromHandleEii'>
          <parameter type-id='type-id-249' name='this' is-artificial='yes'/>
          <parameter type-id='type-id-17' name='tblHandle' filepath='/var/tmp/gamblin2/spack-stage/spack-stage-hrtRhh/VTK-6.1.0/IO/SQL/vtkSQLDatabaseSchema.cxx' line='784' column='1'/>
          <parameter type-id='type-id-17' name='idxHandle' filepath='/var/tmp/gamblin2/spack-stage/spack-stage-hrtRhh/VTK-6.1.0/IO/SQL/vtkSQLDatabaseSchema.cxx' line='784' column='1'/>
          <return type-id='type-id-17'/>
        </function-decl>
      </member-function>
      <member-function access='private'>
        <function-decl name='GetIndexNameFromHandle' mangled-name='_ZN20vtkSQLDatabaseSchema22GetIndexNameFromHandleEii' filepath='/var/tmp/gamblin2/spack-stage/spack-stage-hrtRhh/VTK-6.1.0/IO/SQL/vtkSQLDatabaseSchema.cxx' line='380' column='1' visibility='default' binding='global' size-in-bits='64' elf-symbol-id='_ZN20vtkSQLDatabaseSchema22GetIndexNameFromHandleEii'>
          <parameter type-id='type-id-249' name='this' is-artificial='yes'/>
          <parameter type-id='type-id-17' name='tblHandle' filepath='/var/tmp/gamblin2/spack-stage/spack-stage-hrtRhh/VTK-6.1.0/IO/SQL/vtkSQLDatabaseSchema.cxx' line='661' column='1'/>
          <parameter type-id='type-id-17' name='optHandle' filepath='/var/tmp/gamblin2/spack-stage/spack-stage-hrtRhh/VTK-6.1.0/IO/SQL/vtkSQLDatabaseSchema.cxx' line='661' column='1'/>
          <return type-id='type-id-41'/>
        </function-decl>
      </member-function>
      <member-function access='private'>
        <function-decl name='GetTableNameFromHandle' mangled-name='_ZN20vtkSQLDatabaseSchema22GetTableNameFromHandleEi' filepath='/var/tmp/gamblin2/spack-stage/spack-stage-hrtRhh/VTK-6.1.0/IO/SQL/vtkSQLDatabaseSchema.cxx' line='345' column='1' visibility='default' binding='global' size-in-bits='64' elf-symbol-id='_ZN20vtkSQLDatabaseSchema22GetTableNameFromHandleEi'>
          <parameter type-id='type-id-249' name='this' is-artificial='yes'/>
          <parameter type-id='type-id-17' name='tblHandle' filepath='/var/tmp/gamblin2/spack-stage/spack-stage-hrtRhh/VTK-6.1.0/IO/SQL/vtkSQLDatabaseSchema.cxx' line='345' column='1'/>
          <return type-id='type-id-41'/>
        </function-decl>
      </member-function>
      <member-function access='private'>
        <function-decl name='GetPreambleBackendFromHandle' mangled-name='_ZN20vtkSQLDatabaseSchema28GetPreambleBackendFromHandleEi' filepath='/var/tmp/gamblin2/spack-stage/spack-stage-hrtRhh/VTK-6.1.0/IO/SQL/vtkSQLDatabaseSchema.cxx' line='317' column='1' visibility='default' binding='global' size-in-bits='64' elf-symbol-id='_ZN20vtkSQLDatabaseSchema28GetPreambleBackendFromHandleEi'>
          <parameter type-id='type-id-249' name='this' is-artificial='yes'/>
          <parameter type-id='type-id-17' name='tblHandle' filepath='/var/tmp/gamblin2/spack-stage/spack-stage-hrtRhh/VTK-6.1.0/IO/SQL/vtkSQLDatabaseSchema.cxx' line='345' column='1'/>
          <return type-id='type-id-41'/>
        </function-decl>
      </member-function>
      <member-function access='private'>
        <function-decl name='GetPreambleActionFromHandle' mangled-name='_ZN20vtkSQLDatabaseSchema27GetPreambleActionFromHandleEi' filepath='/var/tmp/gamblin2/spack-stage/spack-stage-hrtRhh/VTK-6.1.0/IO/SQL/vtkSQLDatabaseSchema.cxx' line='305' column='1' visibility='default' binding='global' size-in-bits='64' elf-symbol-id='_ZN20vtkSQLDatabaseSchema27GetPreambleActionFromHandleEi'>
          <parameter type-id='type-id-249' name='this' is-artificial='yes'/>
          <parameter type-id='type-id-17' name='tblHandle' filepath='/var/tmp/gamblin2/spack-stage/spack-stage-hrtRhh/VTK-6.1.0/IO/SQL/vtkSQLDatabaseSchema.cxx' line='345' column='1'/>
          <return type-id='type-id-41'/>
        </function-decl>
      </member-function>
      <member-function access='private'>
        <function-decl name='GetPreambleNameFromHandle' mangled-name='_ZN20vtkSQLDatabaseSchema25GetPreambleNameFromHandleEi' filepath='/var/tmp/gamblin2/spack-stage/spack-stage-hrtRhh/VTK-6.1.0/IO/SQL/vtkSQLDatabaseSchema.cxx' line='293' column='1' visibility='default' binding='global' size-in-bits='64' elf-symbol-id='_ZN20vtkSQLDatabaseSchema25GetPreambleNameFromHandleEi'>
          <parameter type-id='type-id-249' name='this' is-artificial='yes'/>
          <parameter type-id='type-id-17' name='tblHandle' filepath='/var/tmp/gamblin2/spack-stage/spack-stage-hrtRhh/VTK-6.1.0/IO/SQL/vtkSQLDatabaseSchema.cxx' line='345' column='1'/>
          <return type-id='type-id-41'/>
        </function-decl>
      </member-function>
      <member-function access='private' static='yes'>
        <function-decl name='New' mangled-name='_ZN20vtkSQLDatabaseSchema3NewEv' filepath='/var/tmp/gamblin2/spack-stage/spack-stage-hrtRhh/VTK-6.1.0/IO/SQL/vtkSQLDatabaseSchema.cxx' line='32' column='1' visibility='default' binding='global' size-in-bits='64' elf-symbol-id='_ZN20vtkSQLDatabaseSchema3NewEv'>
          <return type-id='type-id-50'/>
        </function-decl>
      </member-function>
      <member-function access='private'>
        <function-decl name='GetPreambleHandleFromName' mangled-name='_ZN20vtkSQLDatabaseSchema25GetPreambleHandleFromNameEPKc' filepath='/var/tmp/gamblin2/spack-stage/spack-stage-hrtRhh/VTK-6.1.0/IO/SQL/vtkSQLDatabaseSchema.cxx' line='277' column='1' visibility='default' binding='global' size-in-bits='64' elf-symbol-id='_ZN20vtkSQLDatabaseSchema25GetPreambleHandleFromNameEPKc'>
          <parameter type-id='type-id-50' is-artificial='yes'/>
          <parameter type-id='type-id-41'/>
          <return type-id='type-id-17'/>
        </function-decl>
      </member-function>
      <member-function access='private'>
        <function-decl name='GetTableHandleFromName' mangled-name='_ZN20vtkSQLDatabaseSchema22GetTableHandleFromNameEPKc' filepath='/var/tmp/gamblin2/spack-stage/spack-stage-hrtRhh/VTK-6.1.0/IO/SQL/vtkSQLDatabaseSchema.cxx' line='329' column='1' visibility='default' binding='global' size-in-bits='64' elf-symbol-id='_ZN20vtkSQLDatabaseSchema22GetTableHandleFromNameEPKc'>
          <parameter type-id='type-id-50' is-artificial='yes'/>
          <parameter type-id='type-id-41'/>
          <return type-id='type-id-17'/>
        </function-decl>
      </member-function>
      <member-function access='private'>
        <function-decl name='GetTriggerHandleFromName' mangled-name='_ZN20vtkSQLDatabaseSchema24GetTriggerHandleFromNameEPKcS1_' filepath='/var/tmp/gamblin2/spack-stage/spack-stage-hrtRhh/VTK-6.1.0/IO/SQL/vtkSQLDatabaseSchema.cxx' line='542' column='1' visibility='default' binding='global' size-in-bits='64' elf-symbol-id='_ZN20vtkSQLDatabaseSchema24GetTriggerHandleFromNameEPKcS1_'>
          <parameter type-id='type-id-249' name='this' is-artificial='yes'/>
          <parameter type-id='type-id-41' name='tblName' filepath='/var/tmp/gamblin2/spack-stage/spack-stage-hrtRhh/VTK-6.1.0/IO/SQL/vtkSQLDatabaseSchema.cxx' line='543' column='1'/>
          <parameter type-id='type-id-41' name='trgName' filepath='/var/tmp/gamblin2/spack-stage/spack-stage-hrtRhh/VTK-6.1.0/IO/SQL/vtkSQLDatabaseSchema.cxx' line='543' column='1'/>
          <return type-id='type-id-17'/>
        </function-decl>
      </member-function>
      <member-function access='private'>
        <function-decl name='GetColumnHandleFromName' mangled-name='_ZN20vtkSQLDatabaseSchema23GetColumnHandleFromNameEPKcS1_' filepath='/var/tmp/gamblin2/spack-stage/spack-stage-hrtRhh/VTK-6.1.0/IO/SQL/vtkSQLDatabaseSchema.cxx' line='443' column='1' visibility='default' binding='global' size-in-bits='64' elf-symbol-id='_ZN20vtkSQLDatabaseSchema23GetColumnHandleFromNameEPKcS1_'>
          <parameter type-id='type-id-249' name='this' is-artificial='yes'/>
          <parameter type-id='type-id-41' name='tblName' filepath='/var/tmp/gamblin2/spack-stage/spack-stage-hrtRhh/VTK-6.1.0/IO/SQL/vtkSQLDatabaseSchema.cxx' line='543' column='1'/>
          <parameter type-id='type-id-41' name='trgName' filepath='/var/tmp/gamblin2/spack-stage/spack-stage-hrtRhh/VTK-6.1.0/IO/SQL/vtkSQLDatabaseSchema.cxx' line='543' column='1'/>
          <return type-id='type-id-17'/>
        </function-decl>
      </member-function>
      <member-function access='private'>
        <function-decl name='AddTableMultipleArguments' mangled-name='_ZN20vtkSQLDatabaseSchema25AddTableMultipleArgumentsEPKcz' filepath='/var/tmp/gamblin2/spack-stage/spack-stage-hrtRhh/VTK-6.1.0/IO/SQL/vtkSQLDatabaseSchema.cxx' line='679' column='1' visibility='default' binding='global' size-in-bits='64' elf-symbol-id='_ZN20vtkSQLDatabaseSchema25AddTableMultipleArgumentsEPKcz'>
          <parameter type-id='type-id-249' name='this' is-artificial='yes'/>
          <parameter type-id='type-id-41' name='tblName' filepath='/var/tmp/gamblin2/spack-stage/spack-stage-hrtRhh/VTK-6.1.0/IO/SQL/vtkSQLDatabaseSchema.cxx' line='679' column='1'/>
          <parameter is-variadic='yes'/>
          <return type-id='type-id-17'/>
        </function-decl>
      </member-function>
      <member-function access='private'>
        <function-decl name='GetIndexHandleFromName' mangled-name='_ZN20vtkSQLDatabaseSchema22GetIndexHandleFromNameEPKcS1_' filepath='/var/tmp/gamblin2/spack-stage/spack-stage-hrtRhh/VTK-6.1.0/IO/SQL/vtkSQLDatabaseSchema.cxx' line='357' column='1' visibility='default' binding='global' size-in-bits='64' elf-symbol-id='_ZN20vtkSQLDatabaseSchema22GetIndexHandleFromNameEPKcS1_'>
          <parameter type-id='type-id-249' name='this' is-artificial='yes'/>
          <parameter type-id='type-id-41' name='tblName' filepath='/var/tmp/gamblin2/spack-stage/spack-stage-hrtRhh/VTK-6.1.0/IO/SQL/vtkSQLDatabaseSchema.cxx' line='543' column='1'/>
          <parameter type-id='type-id-41' name='trgName' filepath='/var/tmp/gamblin2/spack-stage/spack-stage-hrtRhh/VTK-6.1.0/IO/SQL/vtkSQLDatabaseSchema.cxx' line='543' column='1'/>
          <return type-id='type-id-17'/>
        </function-decl>
      </member-function>
      <member-function access='private'>
        <function-decl name='Reset' mangled-name='_ZN20vtkSQLDatabaseSchema5ResetEv' filepath='/var/tmp/gamblin2/spack-stage/spack-stage-hrtRhh/VTK-6.1.0/IO/SQL/vtkSQLDatabaseSchema.cxx' line='742' column='1' visibility='default' binding='global' size-in-bits='64' elf-symbol-id='_ZN20vtkSQLDatabaseSchema5ResetEv'>
          <parameter type-id='type-id-50' is-artificial='yes'/>
          <return type-id='type-id-28'/>
        </function-decl>
      </member-function>
      <member-function access='protected' destructor='yes' vtable-offset='-1'>
        <function-decl name='~vtkSQLDatabaseSchema' mangled-name='_ZN20vtkSQLDatabaseSchemaD1Ev' filepath='/var/tmp/gamblin2/spack-stage/spack-stage-hrtRhh/VTK-6.1.0/IO/SQL/vtkSQLDatabaseSchema.cxx' line='95' column='1' visibility='default' binding='global' size-in-bits='64' elf-symbol-id='_ZN20vtkSQLDatabaseSchemaD1Ev'>
          <parameter type-id='type-id-50' is-artificial='yes'/>
          <parameter type-id='type-id-17' is-artificial='yes'/>
          <return type-id='type-id-28'/>
        </function-decl>
      </member-function>
      <member-function access='private' vtable-offset='0'>
        <function-decl name='GetClassNameInternal' mangled-name='_ZNK20vtkSQLDatabaseSchema20GetClassNameInternalEv' filepath='/var/tmp/gamblin2/spack-stage/spack-stage-hrtRhh/VTK-6.1.0/IO/SQL/vtkSQLDatabaseSchema.h' line='61' column='1' visibility='default' binding='global' size-in-bits='64'>
          <parameter type-id='type-id-250' is-artificial='yes'/>
          <return type-id='type-id-41'/>
        </function-decl>
      </member-function>
      <member-function access='private' vtable-offset='1'>
        <function-decl name='IsA' mangled-name='_ZN20vtkSQLDatabaseSchema3IsAEPKc' filepath='/var/tmp/gamblin2/spack-stage/spack-stage-hrtRhh/VTK-6.1.0/IO/SQL/vtkSQLDatabaseSchema.h' line='61' column='1' visibility='default' binding='global' size-in-bits='64'>
          <parameter type-id='type-id-50' is-artificial='yes'/>
          <parameter type-id='type-id-41'/>
          <return type-id='type-id-17'/>
        </function-decl>
      </member-function>
      <member-function access='private' vtable-offset='4'>
        <function-decl name='PrintSelf' mangled-name='_ZN20vtkSQLDatabaseSchema9PrintSelfERSo9vtkIndent' filepath='/var/tmp/gamblin2/spack-stage/spack-stage-hrtRhh/VTK-6.1.0/IO/SQL/vtkSQLDatabaseSchema.cxx' line='102' column='1' visibility='default' binding='global' size-in-bits='64' elf-symbol-id='_ZN20vtkSQLDatabaseSchema9PrintSelfERSo9vtkIndent'>
          <parameter type-id='type-id-50' is-artificial='yes'/>
          <parameter type-id='type-id-43'/>
          <parameter type-id='type-id-44'/>
          <return type-id='type-id-28'/>
        </function-decl>
      </member-function>
      <member-function access='protected' vtable-offset='15'>
        <function-decl name='NewInstanceInternal' mangled-name='_ZNK20vtkSQLDatabaseSchema19NewInstanceInternalEv' filepath='/var/tmp/gamblin2/spack-stage/spack-stage-hrtRhh/VTK-6.1.0/IO/SQL/vtkSQLDatabaseSchema.h' line='61' column='1' visibility='default' binding='global' size-in-bits='64'>
          <parameter type-id='type-id-250' is-artificial='yes'/>
          <return type-id='type-id-45'/>
        </function-decl>
      </member-function>
      <member-function access='private' vtable-offset='20'>
        <function-decl name='AddPreamble' mangled-name='_ZN20vtkSQLDatabaseSchema11AddPreambleEPKcS1_S1_' filepath='/var/tmp/gamblin2/spack-stage/spack-stage-hrtRhh/VTK-6.1.0/IO/SQL/vtkSQLDatabaseSchema.cxx' line='118' column='1' visibility='default' binding='global' size-in-bits='64' elf-symbol-id='_ZN20vtkSQLDatabaseSchema11AddPreambleEPKcS1_S1_'>
          <parameter type-id='type-id-50' is-artificial='yes'/>
          <parameter type-id='type-id-41'/>
          <parameter type-id='type-id-41'/>
          <parameter type-id='type-id-41'/>
          <return type-id='type-id-17'/>
        </function-decl>
      </member-function>
      <member-function access='private' vtable-offset='21'>
        <function-decl name='AddTable' mangled-name='_ZN20vtkSQLDatabaseSchema8AddTableEPKc' filepath='/var/tmp/gamblin2/spack-stage/spack-stage-hrtRhh/VTK-6.1.0/IO/SQL/vtkSQLDatabaseSchema.cxx' line='137' column='1' visibility='default' binding='global' size-in-bits='64' elf-symbol-id='_ZN20vtkSQLDatabaseSchema8AddTableEPKc'>
          <parameter type-id='type-id-50' is-artificial='yes'/>
          <parameter type-id='type-id-41'/>
          <return type-id='type-id-17'/>
        </function-decl>
      </member-function>
      <member-function access='private' vtable-offset='22'>
        <function-decl name='AddColumnToTable' mangled-name='_ZN20vtkSQLDatabaseSchema16AddColumnToTableEiiPKciS1_' filepath='/var/tmp/gamblin2/spack-stage/spack-stage-hrtRhh/VTK-6.1.0/IO/SQL/vtkSQLDatabaseSchema.cxx' line='180' column='1' visibility='default' binding='global' size-in-bits='64' elf-symbol-id='_ZN20vtkSQLDatabaseSchema16AddColumnToTableEiiPKciS1_'>
          <parameter type-id='type-id-50' is-artificial='yes'/>
          <parameter type-id='type-id-17'/>
          <parameter type-id='type-id-17'/>
          <parameter type-id='type-id-41'/>
          <parameter type-id='type-id-17'/>
          <parameter type-id='type-id-41'/>
          <return type-id='type-id-17'/>
        </function-decl>
      </member-function>
      <member-function access='private' vtable-offset='23'>
        <function-decl name='AddColumnToTable' mangled-name='_ZN20vtkSQLDatabaseSchema16AddColumnToTableEPKciS1_iS1_' filepath='/var/tmp/gamblin2/spack-stage/spack-stage-hrtRhh/VTK-6.1.0/IO/SQL/vtkSQLDatabaseSchema.h' line='137' column='1' visibility='default' binding='global' size-in-bits='64'>
          <parameter type-id='type-id-50' is-artificial='yes'/>
          <parameter type-id='type-id-41'/>
          <parameter type-id='type-id-17'/>
          <parameter type-id='type-id-41'/>
          <parameter type-id='type-id-17'/>
          <parameter type-id='type-id-41'/>
          <return type-id='type-id-17'/>
        </function-decl>
      </member-function>
      <member-function access='private' vtable-offset='24'>
        <function-decl name='AddIndexToTable' mangled-name='_ZN20vtkSQLDatabaseSchema15AddIndexToTableEiiPKc' filepath='/var/tmp/gamblin2/spack-stage/spack-stage-hrtRhh/VTK-6.1.0/IO/SQL/vtkSQLDatabaseSchema.cxx' line='208' column='1' visibility='default' binding='global' size-in-bits='64' elf-symbol-id='_ZN20vtkSQLDatabaseSchema15AddIndexToTableEiiPKc'>
          <parameter type-id='type-id-50' is-artificial='yes'/>
          <parameter type-id='type-id-17'/>
          <parameter type-id='type-id-17'/>
          <parameter type-id='type-id-41'/>
          <return type-id='type-id-17'/>
        </function-decl>
      </member-function>
      <member-function access='private' vtable-offset='25'>
        <function-decl name='AddIndexToTable' mangled-name='_ZN20vtkSQLDatabaseSchema15AddIndexToTableEPKciS1_' filepath='/var/tmp/gamblin2/spack-stage/spack-stage-hrtRhh/VTK-6.1.0/IO/SQL/vtkSQLDatabaseSchema.h' line='151' column='1' visibility='default' binding='global' size-in-bits='64'>
          <parameter type-id='type-id-50' is-artificial='yes'/>
          <parameter type-id='type-id-41'/>
          <parameter type-id='type-id-17'/>
          <parameter type-id='type-id-41'/>
          <return type-id='type-id-17'/>
        </function-decl>
      </member-function>
      <member-function access='private' vtable-offset='26'>
        <function-decl name='AddColumnToIndex' mangled-name='_ZN20vtkSQLDatabaseSchema16AddColumnToIndexEiii' filepath='/var/tmp/gamblin2/spack-stage/spack-stage-hrtRhh/VTK-6.1.0/IO/SQL/vtkSQLDatabaseSchema.cxx' line='153' column='1' visibility='default' binding='global' size-in-bits='64' elf-symbol-id='_ZN20vtkSQLDatabaseSchema16AddColumnToIndexEiii'>
          <parameter type-id='type-id-50' is-artificial='yes'/>
          <parameter type-id='type-id-17'/>
          <parameter type-id='type-id-17'/>
          <parameter type-id='type-id-17'/>
          <return type-id='type-id-17'/>
        </function-decl>
      </member-function>
      <member-function access='private' vtable-offset='27'>
        <function-decl name='AddColumnToIndex' mangled-name='_ZN20vtkSQLDatabaseSchema16AddColumnToIndexEPKcS1_S1_' filepath='/var/tmp/gamblin2/spack-stage/spack-stage-hrtRhh/VTK-6.1.0/IO/SQL/vtkSQLDatabaseSchema.h' line='163' column='1' visibility='default' binding='global' size-in-bits='64'>
          <parameter type-id='type-id-50' is-artificial='yes'/>
          <parameter type-id='type-id-41'/>
          <parameter type-id='type-id-41'/>
          <parameter type-id='type-id-41'/>
          <return type-id='type-id-17'/>
        </function-decl>
      </member-function>
      <member-function access='private' vtable-offset='28'>
        <function-decl name='AddTriggerToTable' mangled-name='_ZN20vtkSQLDatabaseSchema17AddTriggerToTableEiiPKcS1_S1_' filepath='/var/tmp/gamblin2/spack-stage/spack-stage-hrtRhh/VTK-6.1.0/IO/SQL/vtkSQLDatabaseSchema.cxx' line='226' column='1' visibility='default' binding='global' size-in-bits='64' elf-symbol-id='_ZN20vtkSQLDatabaseSchema17AddTriggerToTableEiiPKcS1_S1_'>
          <parameter type-id='type-id-50' is-artificial='yes'/>
          <parameter type-id='type-id-17'/>
          <parameter type-id='type-id-17'/>
          <parameter type-id='type-id-41'/>
          <parameter type-id='type-id-41'/>
          <parameter type-id='type-id-41'/>
          <return type-id='type-id-17'/>
        </function-decl>
      </member-function>
      <member-function access='private' vtable-offset='29'>
        <function-decl name='AddTriggerToTable' mangled-name='_ZN20vtkSQLDatabaseSchema17AddTriggerToTableEPKciS1_S1_S1_' filepath='/var/tmp/gamblin2/spack-stage/spack-stage-hrtRhh/VTK-6.1.0/IO/SQL/vtkSQLDatabaseSchema.h' line='180' column='1' visibility='default' binding='global' size-in-bits='64'>
          <parameter type-id='type-id-50' is-artificial='yes'/>
          <parameter type-id='type-id-41'/>
          <parameter type-id='type-id-17'/>
          <parameter type-id='type-id-41'/>
          <parameter type-id='type-id-41'/>
          <parameter type-id='type-id-41'/>
          <return type-id='type-id-17'/>
        </function-decl>
      </member-function>
      <member-function access='private' vtable-offset='30'>
        <function-decl name='AddOptionToTable' mangled-name='_ZN20vtkSQLDatabaseSchema16AddOptionToTableEiPKcS1_' filepath='/var/tmp/gamblin2/spack-stage/spack-stage-hrtRhh/VTK-6.1.0/IO/SQL/vtkSQLDatabaseSchema.cxx' line='253' column='1' visibility='default' binding='global' size-in-bits='64' elf-symbol-id='_ZN20vtkSQLDatabaseSchema16AddOptionToTableEiPKcS1_'>
          <parameter type-id='type-id-50' is-artificial='yes'/>
          <parameter type-id='type-id-17'/>
          <parameter type-id='type-id-41'/>
          <parameter type-id='type-id-41'/>
          <return type-id='type-id-17'/>
        </function-decl>
      </member-function>
      <member-function access='private' vtable-offset='31'>
        <function-decl name='AddOptionToTable' mangled-name='_ZN20vtkSQLDatabaseSchema16AddOptionToTableEPKcS1_S1_' filepath='/var/tmp/gamblin2/spack-stage/spack-stage-hrtRhh/VTK-6.1.0/IO/SQL/vtkSQLDatabaseSchema.h' line='201' column='1' visibility='default' binding='global' size-in-bits='64'>
          <parameter type-id='type-id-50' is-artificial='yes'/>
          <parameter type-id='type-id-41'/>
          <parameter type-id='type-id-41'/>
          <parameter type-id='type-id-41'/>
          <return type-id='type-id-17'/>
        </function-decl>
      </member-function>
      <member-function access='private' vtable-offset='32'>
        <function-decl name='SetName' mangled-name='_ZN20vtkSQLDatabaseSchema7SetNameEPKc' filepath='/var/tmp/gamblin2/spack-stage/spack-stage-hrtRhh/VTK-6.1.0/IO/SQL/vtkSQLDatabaseSchema.h' line='332' column='1' visibility='default' binding='global' size-in-bits='64'>
          <parameter type-id='type-id-50' is-artificial='yes'/>
          <parameter type-id='type-id-41'/>
          <return type-id='type-id-28'/>
        </function-decl>
      </member-function>
      <member-function access='private' vtable-offset='33'>
        <function-decl name='GetName' mangled-name='_ZN20vtkSQLDatabaseSchema7GetNameEv' filepath='/var/tmp/gamblin2/spack-stage/spack-stage-hrtRhh/VTK-6.1.0/IO/SQL/vtkSQLDatabaseSchema.h' line='333' column='1' visibility='default' binding='global' size-in-bits='64'>
          <parameter type-id='type-id-50' is-artificial='yes'/>
          <return type-id='type-id-47'/>
        </function-decl>
      </member-function>
    </class-decl>
    <class-decl name='vtkSQLQuery' size-in-bits='640' visibility='default' filepath='/var/tmp/gamblin2/spack-stage/spack-stage-hrtRhh/VTK-6.1.0/IO/SQL/vtkSQLQuery.h' line='66' column='1' id='type-id-234'>
      <base-class access='public' layout-offset-in-bits='0' type-id='type-id-251'/>
      <data-member access='protected' layout-offset-in-bits='448'>
        <var-decl name='Query' type-id='type-id-47' visibility='default' filepath='/var/tmp/gamblin2/spack-stage/spack-stage-hrtRhh/VTK-6.1.0/IO/SQL/vtkSQLQuery.h' line='202' column='1'/>
      </data-member>
      <data-member access='protected' layout-offset-in-bits='512'>
        <var-decl name='Database' type-id='type-id-38' visibility='default' filepath='/var/tmp/gamblin2/spack-stage/spack-stage-hrtRhh/VTK-6.1.0/IO/SQL/vtkSQLQuery.h' line='203' column='1'/>
      </data-member>
      <data-member access='protected' layout-offset-in-bits='576'>
        <var-decl name='Active' type-id='type-id-1' visibility='default' filepath='/var/tmp/gamblin2/spack-stage/spack-stage-hrtRhh/VTK-6.1.0/IO/SQL/vtkSQLQuery.h' line='204' column='1'/>
      </data-member>
      <member-function access='protected' constructor='yes'>
        <function-decl name='vtkSQLQuery' mangled-name='_ZN11vtkSQLQueryC1Ev' filepath='/var/tmp/gamblin2/spack-stage/spack-stage-hrtRhh/VTK-6.1.0/IO/SQL/vtkSQLQuery.cxx' line='29' column='1' visibility='default' binding='global' size-in-bits='64' elf-symbol-id='_ZN11vtkSQLQueryC1Ev'>
          <parameter type-id='type-id-46' is-artificial='yes'/>
          <return type-id='type-id-28'/>
        </function-decl>
      </member-function>
      <member-function access='private' constructor='yes'>
        <function-decl name='vtkSQLQuery' filepath='/var/tmp/gamblin2/spack-stage/spack-stage-hrtRhh/VTK-6.1.0/IO/SQL/vtkSQLQuery.h' line='207' column='1' visibility='default' binding='global' size-in-bits='64'>
          <parameter type-id='type-id-46' is-artificial='yes'/>
          <parameter type-id='type-id-252'/>
          <return type-id='type-id-28'/>
        </function-decl>
      </member-function>
      <member-function access='protected'>
        <function-decl name='SetDatabase' mangled-name='_ZN11vtkSQLQuery11SetDatabaseEP14vtkSQLDatabase' filepath='/var/tmp/gamblin2/spack-stage/spack-stage-hrtRhh/VTK-6.1.0/IO/SQL/vtkSQLQuery.cxx' line='46' column='1' visibility='default' binding='global' size-in-bits='64' elf-symbol-id='_ZN11vtkSQLQuery11SetDatabaseEP14vtkSQLDatabase'>
          <parameter type-id='type-id-253' name='this' is-artificial='yes'/>
          <parameter type-id='type-id-38' name='_arg' filepath='/var/tmp/gamblin2/spack-stage/spack-stage-hrtRhh/VTK-6.1.0/IO/SQL/vtkSQLQuery.cxx' line='46' column='1'/>
          <return type-id='type-id-28'/>
        </function-decl>
      </member-function>
      <member-function access='private'>
        <function-decl name='EscapeString' mangled-name='_ZN11vtkSQLQuery12EscapeStringEPKcb' filepath='/var/tmp/gamblin2/spack-stage/spack-stage-hrtRhh/VTK-6.1.0/IO/SQL/vtkSQLQuery.cxx' line='81' column='1' visibility='default' binding='global' size-in-bits='64' elf-symbol-id='_ZN11vtkSQLQuery12EscapeStringEPKcb'>
          <parameter type-id='type-id-253' name='this' is-artificial='yes'/>
          <parameter type-id='type-id-41' name='src' filepath='/var/tmp/gamblin2/spack-stage/spack-stage-hrtRhh/VTK-6.1.0/IO/SQL/vtkSQLQuery.cxx' line='81' column='1'/>
          <parameter type-id='type-id-1' name='addSurroundingQuotes' filepath='/var/tmp/gamblin2/spack-stage/spack-stage-hrtRhh/VTK-6.1.0/IO/SQL/vtkSQLQuery.cxx' line='81' column='1'/>
          <return type-id='type-id-47'/>
        </function-decl>
      </member-function>
      <member-function access='protected' destructor='yes' vtable-offset='-1'>
        <function-decl name='~vtkSQLQuery' mangled-name='_ZN11vtkSQLQueryD1Ev' filepath='/var/tmp/gamblin2/spack-stage/spack-stage-hrtRhh/VTK-6.1.0/IO/SQL/vtkSQLQuery.cxx' line='36' column='1' visibility='default' binding='global' size-in-bits='64' elf-symbol-id='_ZN11vtkSQLQueryD1Ev'>
          <parameter type-id='type-id-46' is-artificial='yes'/>
          <parameter type-id='type-id-17' is-artificial='yes'/>
          <return type-id='type-id-28'/>
        </function-decl>
      </member-function>
      <member-function access='private' vtable-offset='0'>
        <function-decl name='GetClassNameInternal' mangled-name='_ZNK11vtkSQLQuery20GetClassNameInternalEv' filepath='/var/tmp/gamblin2/spack-stage/spack-stage-hrtRhh/VTK-6.1.0/IO/SQL/vtkSQLQuery.h' line='68' column='1' visibility='default' binding='global' size-in-bits='64'>
          <parameter type-id='type-id-254' is-artificial='yes'/>
          <return type-id='type-id-41'/>
        </function-decl>
      </member-function>
      <member-function access='private' vtable-offset='1'>
        <function-decl name='IsA' mangled-name='_ZN11vtkSQLQuery3IsAEPKc' filepath='/var/tmp/gamblin2/spack-stage/spack-stage-hrtRhh/VTK-6.1.0/IO/SQL/vtkSQLQuery.h' line='68' column='1' visibility='default' binding='global' size-in-bits='64'>
          <parameter type-id='type-id-46' is-artificial='yes'/>
          <parameter type-id='type-id-41'/>
          <return type-id='type-id-17'/>
        </function-decl>
      </member-function>
      <member-function access='private' vtable-offset='4'>
        <function-decl name='PrintSelf' mangled-name='_ZN11vtkSQLQuery9PrintSelfERSo9vtkIndent' filepath='/var/tmp/gamblin2/spack-stage/spack-stage-hrtRhh/VTK-6.1.0/IO/SQL/vtkSQLQuery.cxx' line='48' column='1' visibility='default' binding='global' size-in-bits='64' elf-symbol-id='_ZN11vtkSQLQuery9PrintSelfERSo9vtkIndent'>
          <parameter type-id='type-id-46' is-artificial='yes'/>
          <parameter type-id='type-id-43'/>
          <parameter type-id='type-id-44'/>
          <return type-id='type-id-28'/>
        </function-decl>
      </member-function>
      <member-function access='protected' vtable-offset='15'>
        <function-decl name='NewInstanceInternal' mangled-name='_ZNK11vtkSQLQuery19NewInstanceInternalEv' filepath='/var/tmp/gamblin2/spack-stage/spack-stage-hrtRhh/VTK-6.1.0/IO/SQL/vtkSQLQuery.h' line='68' column='1' visibility='default' binding='global' size-in-bits='64'>
          <parameter type-id='type-id-254' is-artificial='yes'/>
          <return type-id='type-id-45'/>
        </function-decl>
      </member-function>
      <member-function access='private' vtable-offset='20'>
        <function-decl name='Execute' mangled-name='_ZN11vtkSQLQuery7ExecuteEv' filepath='/var/tmp/gamblin2/spack-stage/spack-stage-hrtRhh/VTK-6.1.0/IO/SQL/vtkSQLQuery.h' line='88' column='1' visibility='default' binding='global' size-in-bits='64'>
          <parameter type-id='type-id-46' is-artificial='yes'/>
          <return type-id='type-id-1'/>
        </function-decl>
      </member-function>
      <member-function access='private' vtable-offset='25'>
        <function-decl name='IsActive' mangled-name='_ZN11vtkSQLQuery8IsActiveEv' filepath='/var/tmp/gamblin2/spack-stage/spack-stage-hrtRhh/VTK-6.1.0/IO/SQL/vtkSQLQuery.h' line='82' column='1' visibility='default' binding='global' size-in-bits='64'>
          <parameter type-id='type-id-46' is-artificial='yes'/>
          <return type-id='type-id-1'/>
        </function-decl>
      </member-function>
      <member-function access='private' vtable-offset='33'>
        <function-decl name='SetQuery' mangled-name='_ZN11vtkSQLQuery8SetQueryEPKc' filepath='/var/tmp/gamblin2/spack-stage/spack-stage-hrtRhh/VTK-6.1.0/IO/SQL/vtkSQLQuery.cxx' line='236' column='1' visibility='default' binding='global' size-in-bits='64' elf-symbol-id='_ZN11vtkSQLQuery8SetQueryEPKc'>
          <parameter type-id='type-id-46' is-artificial='yes'/>
          <parameter type-id='type-id-41'/>
          <return type-id='type-id-1'/>
        </function-decl>
      </member-function>
      <member-function access='private' vtable-offset='34'>
        <function-decl name='GetQuery' mangled-name='_ZN11vtkSQLQuery8GetQueryEv' filepath='/var/tmp/gamblin2/spack-stage/spack-stage-hrtRhh/VTK-6.1.0/IO/SQL/vtkSQLQuery.cxx' line='274' column='1' visibility='default' binding='global' size-in-bits='64' elf-symbol-id='_ZN11vtkSQLQuery8GetQueryEv'>
          <parameter type-id='type-id-46' is-artificial='yes'/>
          <return type-id='type-id-41'/>
        </function-decl>
      </member-function>
      <member-function access='private' vtable-offset='35'>
        <function-decl name='BeginTransaction' mangled-name='_ZN11vtkSQLQuery16BeginTransactionEv' filepath='/var/tmp/gamblin2/spack-stage/spack-stage-hrtRhh/VTK-6.1.0/IO/SQL/vtkSQLQuery.h' line='94' column='1' visibility='default' binding='global' size-in-bits='64'>
          <parameter type-id='type-id-46' is-artificial='yes'/>
          <return type-id='type-id-1'/>
        </function-decl>
      </member-function>
      <member-function access='private' vtable-offset='36'>
        <function-decl name='CommitTransaction' mangled-name='_ZN11vtkSQLQuery17CommitTransactionEv' filepath='/var/tmp/gamblin2/spack-stage/spack-stage-hrtRhh/VTK-6.1.0/IO/SQL/vtkSQLQuery.h' line='95' column='1' visibility='default' binding='global' size-in-bits='64'>
          <parameter type-id='type-id-46' is-artificial='yes'/>
          <return type-id='type-id-1'/>
        </function-decl>
      </member-function>
      <member-function access='private' vtable-offset='37'>
        <function-decl name='RollbackTransaction' mangled-name='_ZN11vtkSQLQuery19RollbackTransactionEv' filepath='/var/tmp/gamblin2/spack-stage/spack-stage-hrtRhh/VTK-6.1.0/IO/SQL/vtkSQLQuery.h' line='96' column='1' visibility='default' binding='global' size-in-bits='64'>
          <parameter type-id='type-id-46' is-artificial='yes'/>
          <return type-id='type-id-1'/>
        </function-decl>
      </member-function>
      <member-function access='private' vtable-offset='38'>
        <function-decl name='GetDatabase' mangled-name='_ZN11vtkSQLQuery11GetDatabaseEv' filepath='/var/tmp/gamblin2/spack-stage/spack-stage-hrtRhh/VTK-6.1.0/IO/SQL/vtkSQLQuery.h' line='100' column='1' visibility='default' binding='global' size-in-bits='64'>
          <parameter type-id='type-id-46' is-artificial='yes'/>
          <return type-id='type-id-38'/>
        </function-decl>
      </member-function>
      <member-function access='private' vtable-offset='39'>
        <function-decl name='BindParameter' mangled-name='_ZN11vtkSQLQuery13BindParameterEih' filepath='/var/tmp/gamblin2/spack-stage/spack-stage-hrtRhh/VTK-6.1.0/IO/SQL/vtkSQLQuery.cxx' line='88' column='1' visibility='default' binding='global' size-in-bits='64' elf-symbol-id='_ZN11vtkSQLQuery13BindParameterEih'>
          <parameter type-id='type-id-46' is-artificial='yes'/>
          <parameter type-id='type-id-17'/>
          <parameter type-id='type-id-255'/>
          <return type-id='type-id-1'/>
        </function-decl>
      </member-function>
      <member-function access='private' vtable-offset='40'>
        <function-decl name='BindParameter' mangled-name='_ZN11vtkSQLQuery13BindParameterEit' filepath='/var/tmp/gamblin2/spack-stage/spack-stage-hrtRhh/VTK-6.1.0/IO/SQL/vtkSQLQuery.cxx' line='101' column='1' visibility='default' binding='global' size-in-bits='64' elf-symbol-id='_ZN11vtkSQLQuery13BindParameterEit'>
          <parameter type-id='type-id-46' is-artificial='yes'/>
          <parameter type-id='type-id-17'/>
          <parameter type-id='type-id-26'/>
          <return type-id='type-id-1'/>
        </function-decl>
      </member-function>
      <member-function access='private' vtable-offset='41'>
        <function-decl name='BindParameter' mangled-name='_ZN11vtkSQLQuery13BindParameterEij' filepath='/var/tmp/gamblin2/spack-stage/spack-stage-hrtRhh/VTK-6.1.0/IO/SQL/vtkSQLQuery.cxx' line='113' column='1' visibility='default' binding='global' size-in-bits='64' elf-symbol-id='_ZN11vtkSQLQuery13BindParameterEij'>
          <parameter type-id='type-id-46' is-artificial='yes'/>
          <parameter type-id='type-id-17'/>
          <parameter type-id='type-id-13'/>
          <return type-id='type-id-1'/>
        </function-decl>
      </member-function>
      <member-function access='private' vtable-offset='42'>
        <function-decl name='BindParameter' mangled-name='_ZN11vtkSQLQuery13BindParameterEim' filepath='/var/tmp/gamblin2/spack-stage/spack-stage-hrtRhh/VTK-6.1.0/IO/SQL/vtkSQLQuery.cxx' line='125' column='1' visibility='default' binding='global' size-in-bits='64' elf-symbol-id='_ZN11vtkSQLQuery13BindParameterEim'>
          <parameter type-id='type-id-46' is-artificial='yes'/>
          <parameter type-id='type-id-17'/>
          <parameter type-id='type-id-4'/>
          <return type-id='type-id-1'/>
        </function-decl>
      </member-function>
      <member-function access='private' vtable-offset='43'>
        <function-decl name='BindParameter' mangled-name='_ZN11vtkSQLQuery13BindParameterEia' filepath='/var/tmp/gamblin2/spack-stage/spack-stage-hrtRhh/VTK-6.1.0/IO/SQL/vtkSQLQuery.cxx' line='94' column='1' visibility='default' binding='global' size-in-bits='64' elf-symbol-id='_ZN11vtkSQLQuery13BindParameterEia'>
          <parameter type-id='type-id-46' is-artificial='yes'/>
          <parameter type-id='type-id-17'/>
          <parameter type-id='type-id-22'/>
          <return type-id='type-id-1'/>
        </function-decl>
      </member-function>
      <member-function access='private' vtable-offset='44'>
        <function-decl name='BindParameter' mangled-name='_ZN11vtkSQLQuery13BindParameterEis' filepath='/var/tmp/gamblin2/spack-stage/spack-stage-hrtRhh/VTK-6.1.0/IO/SQL/vtkSQLQuery.cxx' line='107' column='1' visibility='default' binding='global' size-in-bits='64' elf-symbol-id='_ZN11vtkSQLQuery13BindParameterEis'>
          <parameter type-id='type-id-46' is-artificial='yes'/>
          <parameter type-id='type-id-17'/>
          <parameter type-id='type-id-256'/>
          <return type-id='type-id-1'/>
        </function-decl>
      </member-function>
      <member-function access='private' vtable-offset='45'>
        <function-decl name='BindParameter' mangled-name='_ZN11vtkSQLQuery13BindParameterEii' filepath='/var/tmp/gamblin2/spack-stage/spack-stage-hrtRhh/VTK-6.1.0/IO/SQL/vtkSQLQuery.cxx' line='119' column='1' visibility='default' binding='global' size-in-bits='64' elf-symbol-id='_ZN11vtkSQLQuery13BindParameterEii'>
          <parameter type-id='type-id-46' is-artificial='yes'/>
          <parameter type-id='type-id-17'/>
          <parameter type-id='type-id-17'/>
          <return type-id='type-id-1'/>
        </function-decl>
      </member-function>
      <member-function access='private' vtable-offset='46'>
        <function-decl name='BindParameter' mangled-name='_ZN11vtkSQLQuery13BindParameterEil' filepath='/var/tmp/gamblin2/spack-stage/spack-stage-hrtRhh/VTK-6.1.0/IO/SQL/vtkSQLQuery.cxx' line='131' column='1' visibility='default' binding='global' size-in-bits='64' elf-symbol-id='_ZN11vtkSQLQuery13BindParameterEil'>
          <parameter type-id='type-id-46' is-artificial='yes'/>
          <parameter type-id='type-id-17'/>
          <parameter type-id='type-id-19'/>
          <return type-id='type-id-1'/>
        </function-decl>
      </member-function>
      <member-function access='private' vtable-offset='47'>
        <function-decl name='BindParameter' mangled-name='_ZN11vtkSQLQuery13BindParameterEiy' filepath='/var/tmp/gamblin2/spack-stage/spack-stage-hrtRhh/VTK-6.1.0/IO/SQL/vtkSQLQuery.cxx' line='137' column='1' visibility='default' binding='global' size-in-bits='64' elf-symbol-id='_ZN11vtkSQLQuery13BindParameterEiy'>
          <parameter type-id='type-id-46' is-artificial='yes'/>
          <parameter type-id='type-id-17'/>
          <parameter type-id='type-id-257'/>
          <return type-id='type-id-1'/>
        </function-decl>
      </member-function>
      <member-function access='private' vtable-offset='48'>
        <function-decl name='BindParameter' mangled-name='_ZN11vtkSQLQuery13BindParameterEix' filepath='/var/tmp/gamblin2/spack-stage/spack-stage-hrtRhh/VTK-6.1.0/IO/SQL/vtkSQLQuery.cxx' line='143' column='1' visibility='default' binding='global' size-in-bits='64' elf-symbol-id='_ZN11vtkSQLQuery13BindParameterEix'>
          <parameter type-id='type-id-46' is-artificial='yes'/>
          <parameter type-id='type-id-17'/>
          <parameter type-id='type-id-258'/>
          <return type-id='type-id-1'/>
        </function-decl>
      </member-function>
      <member-function access='private' vtable-offset='49'>
        <function-decl name='BindParameter' mangled-name='_ZN11vtkSQLQuery13BindParameterEif' filepath='/var/tmp/gamblin2/spack-stage/spack-stage-hrtRhh/VTK-6.1.0/IO/SQL/vtkSQLQuery.cxx' line='149' column='1' visibility='default' binding='global' size-in-bits='64' elf-symbol-id='_ZN11vtkSQLQuery13BindParameterEif'>
          <parameter type-id='type-id-46' is-artificial='yes'/>
          <parameter type-id='type-id-17'/>
          <parameter type-id='type-id-16'/>
          <return type-id='type-id-1'/>
        </function-decl>
      </member-function>
      <member-function access='private' vtable-offset='50'>
        <function-decl name='BindParameter' mangled-name='_ZN11vtkSQLQuery13BindParameterEid' filepath='/var/tmp/gamblin2/spack-stage/spack-stage-hrtRhh/VTK-6.1.0/IO/SQL/vtkSQLQuery.cxx' line='155' column='1' visibility='default' binding='global' size-in-bits='64' elf-symbol-id='_ZN11vtkSQLQuery13BindParameterEid'>
          <parameter type-id='type-id-46' is-artificial='yes'/>
          <parameter type-id='type-id-17'/>
          <parameter type-id='type-id-15'/>
          <return type-id='type-id-1'/>
        </function-decl>
      </member-function>
      <member-function access='private' vtable-offset='51'>
        <function-decl name='BindParameter' mangled-name='_ZN11vtkSQLQuery13BindParameterEiPKc' filepath='/var/tmp/gamblin2/spack-stage/spack-stage-hrtRhh/VTK-6.1.0/IO/SQL/vtkSQLQuery.cxx' line='161' column='1' visibility='default' binding='global' size-in-bits='64' elf-symbol-id='_ZN11vtkSQLQuery13BindParameterEiPKc'>
          <parameter type-id='type-id-46' is-artificial='yes'/>
          <parameter type-id='type-id-17'/>
          <parameter type-id='type-id-41'/>
          <return type-id='type-id-1'/>
        </function-decl>
      </member-function>
      <member-function access='private' vtable-offset='52'>
        <function-decl name='BindParameter' mangled-name='_ZN11vtkSQLQuery13BindParameterEiPKcm' filepath='/var/tmp/gamblin2/spack-stage/spack-stage-hrtRhh/VTK-6.1.0/IO/SQL/vtkSQLQuery.cxx' line='167' column='1' visibility='default' binding='global' size-in-bits='64' elf-symbol-id='_ZN11vtkSQLQuery13BindParameterEiPKcm'>
          <parameter type-id='type-id-46' is-artificial='yes'/>
          <parameter type-id='type-id-17'/>
          <parameter type-id='type-id-41'/>
          <parameter type-id='type-id-23'/>
          <return type-id='type-id-1'/>
        </function-decl>
      </member-function>
      <member-function access='private' vtable-offset='53'>
        <function-decl name='BindParameter' mangled-name='_ZN11vtkSQLQuery13BindParameterEiRK12vtkStdString' filepath='/var/tmp/gamblin2/spack-stage/spack-stage-hrtRhh/VTK-6.1.0/IO/SQL/vtkSQLQuery.cxx' line='174' column='1' visibility='default' binding='global' size-in-bits='64' elf-symbol-id='_ZN11vtkSQLQuery13BindParameterEiRK12vtkStdString'>
          <parameter type-id='type-id-46' is-artificial='yes'/>
          <parameter type-id='type-id-17'/>
          <parameter type-id='type-id-259'/>
          <return type-id='type-id-1'/>
        </function-decl>
      </member-function>
      <member-function access='private' vtable-offset='54'>
        <function-decl name='BindParameter' mangled-name='_ZN11vtkSQLQuery13BindParameterEi10vtkVariant' filepath='/var/tmp/gamblin2/spack-stage/spack-stage-hrtRhh/VTK-6.1.0/IO/SQL/vtkSQLQuery.cxx' line='192' column='1' visibility='default' binding='global' size-in-bits='64' elf-symbol-id='_ZN11vtkSQLQuery13BindParameterEi10vtkVariant'>
          <parameter type-id='type-id-46' is-artificial='yes'/>
          <parameter type-id='type-id-17'/>
          <parameter type-id='type-id-260'/>
          <return type-id='type-id-1'/>
        </function-decl>
      </member-function>
      <member-function access='private' vtable-offset='55'>
        <function-decl name='BindParameter' mangled-name='_ZN11vtkSQLQuery13BindParameterEiPKvm' filepath='/var/tmp/gamblin2/spack-stage/spack-stage-hrtRhh/VTK-6.1.0/IO/SQL/vtkSQLQuery.cxx' line='180' column='1' visibility='default' binding='global' size-in-bits='64' elf-symbol-id='_ZN11vtkSQLQuery13BindParameterEiPKvm'>
          <parameter type-id='type-id-46' is-artificial='yes'/>
          <parameter type-id='type-id-17'/>
          <parameter type-id='type-id-14'/>
          <parameter type-id='type-id-23'/>
          <return type-id='type-id-1'/>
        </function-decl>
      </member-function>
      <member-function access='private' vtable-offset='56'>
        <function-decl name='ClearParameterBindings' mangled-name='_ZN11vtkSQLQuery22ClearParameterBindingsEv' filepath='/var/tmp/gamblin2/spack-stage/spack-stage-hrtRhh/VTK-6.1.0/IO/SQL/vtkSQLQuery.cxx' line='186' column='1' visibility='default' binding='global' size-in-bits='64' elf-symbol-id='_ZN11vtkSQLQuery22ClearParameterBindingsEv'>
          <parameter type-id='type-id-46' is-artificial='yes'/>
          <return type-id='type-id-1'/>
        </function-decl>
      </member-function>
      <member-function access='private' vtable-offset='57'>
        <function-decl name='EscapeString' mangled-name='_ZN11vtkSQLQuery12EscapeStringE12vtkStdStringb' filepath='/var/tmp/gamblin2/spack-stage/spack-stage-hrtRhh/VTK-6.1.0/IO/SQL/vtkSQLQuery.cxx' line='59' column='1' visibility='default' binding='global' size-in-bits='64' elf-symbol-id='_ZN11vtkSQLQuery12EscapeStringE12vtkStdStringb'>
          <parameter type-id='type-id-46' is-artificial='yes'/>
          <parameter type-id='type-id-49'/>
          <parameter type-id='type-id-1'/>
          <return type-id='type-id-49'/>
        </function-decl>
      </member-function>
    </class-decl>
    <class-decl name='vtkStringArray' is-struct='yes' visibility='default' is-declaration-only='yes' id='type-id-235'/>
    <qualified-type-def type-id='type-id-41' const='yes' id='type-id-229'/>
    <reference-type-def kind='lvalue' type-id='type-id-261' size-in-bits='64' id='type-id-223'/>
    <reference-type-def kind='lvalue' type-id='type-id-262' size-in-bits='64' id='type-id-225'/>
    <qualified-type-def type-id='type-id-31' const='yes' id='type-id-230'/>
    <pointer-type-def type-id='type-id-34' size-in-bits='64' id='type-id-222'/>
    <qualified-type-def type-id='type-id-222' const='yes' id='type-id-226'/>
    <reference-type-def kind='lvalue' type-id='type-id-263' size-in-bits='64' id='type-id-224'/>
    <qualified-type-def type-id='type-id-224' id='type-id-228'/>
    <pointer-type-def type-id='type-id-227' size-in-bits='64' id='type-id-237'/>
    <namespace-decl name='std'>
      <class-decl name='allocator&lt;vtkSQLDatabase* (*)(const char*)&gt;' size-in-bits='8' visibility='default' filepath='/usr/lib/gcc/x86_64-redhat-linux/4.4.7/../../../../include/c++/4.4.7/bits/allocator.h' line='87' column='1' id='type-id-240'>
        <base-class access='public' layout-offset-in-bits='0' type-id='type-id-264'/>
        <member-function access='private'>
          <function-decl name='allocator' filepath='/usr/lib/gcc/x86_64-redhat-linux/4.4.7/../../../../include/c++/4.4.7/bits/allocator.h' line='101' column='1' visibility='default' binding='global' size-in-bits='64'>
            <parameter type-id='type-id-265' is-artificial='yes'/>
            <return type-id='type-id-28'/>
          </function-decl>
        </member-function>
        <member-function access='private'>
          <function-decl name='allocator' filepath='/usr/lib/gcc/x86_64-redhat-linux/4.4.7/../../../../include/c++/4.4.7/bits/allocator.h' line='103' column='1' visibility='default' binding='global' size-in-bits='64'>
            <parameter type-id='type-id-265' is-artificial='yes'/>
            <parameter type-id='type-id-223'/>
            <return type-id='type-id-28'/>
          </function-decl>
        </member-function>
        <member-function access='private' destructor='yes'>
          <function-decl name='~allocator' filepath='/usr/lib/gcc/x86_64-redhat-linux/4.4.7/../../../../include/c++/4.4.7/bits/allocator.h' line='109' column='1' visibility='default' binding='global' size-in-bits='64'>
            <parameter type-id='type-id-265' is-artificial='yes'/>
            <parameter type-id='type-id-17' is-artificial='yes'/>
            <return type-id='type-id-28'/>
          </function-decl>
        </member-function>
      </class-decl>
    </namespace-decl>
    <class-decl name='vtkRowQuery' size-in-bits='448' visibility='default' filepath='/var/tmp/gamblin2/spack-stage/spack-stage-hrtRhh/VTK-6.1.0/IO/SQL/vtkRowQuery.h' line='60' column='1' id='type-id-251'>
      <base-class access='public' layout-offset-in-bits='0' type-id='type-id-32'/>
      <data-member access='protected' layout-offset-in-bits='384'>
        <var-decl name='CaseSensitiveFieldNames' type-id='type-id-1' visibility='default' filepath='/var/tmp/gamblin2/spack-stage/spack-stage-hrtRhh/VTK-6.1.0/IO/SQL/vtkRowQuery.h' line='130' column='1'/>
      </data-member>
      <member-function access='protected' constructor='yes'>
        <function-decl name='vtkRowQuery' mangled-name='_ZN11vtkRowQueryC1Ev' filepath='/var/tmp/gamblin2/spack-stage/spack-stage-hrtRhh/VTK-6.1.0/IO/SQL/vtkRowQuery.cxx' line='30' column='1' visibility='default' binding='global' size-in-bits='64' elf-symbol-id='_ZN11vtkRowQueryC1Ev'>
          <parameter type-id='type-id-266' is-artificial='yes'/>
          <return type-id='type-id-28'/>
        </function-decl>
      </member-function>
      <member-function access='private' constructor='yes'>
        <function-decl name='vtkRowQuery' filepath='/var/tmp/gamblin2/spack-stage/spack-stage-hrtRhh/VTK-6.1.0/IO/SQL/vtkRowQuery.h' line='132' column='1' visibility='default' binding='global' size-in-bits='64'>
          <parameter type-id='type-id-266' is-artificial='yes'/>
          <parameter type-id='type-id-267'/>
          <return type-id='type-id-28'/>
        </function-decl>
      </member-function>
      <member-function access='private'>
        <function-decl name='NextRow' mangled-name='_ZN11vtkRowQuery7NextRowEP15vtkVariantArray' filepath='/var/tmp/gamblin2/spack-stage/spack-stage-hrtRhh/VTK-6.1.0/IO/SQL/vtkRowQuery.cxx' line='88' column='1' visibility='default' binding='global' size-in-bits='64' elf-symbol-id='_ZN11vtkRowQuery7NextRowEP15vtkVariantArray'>
          <parameter type-id='type-id-268' name='this' is-artificial='yes'/>
          <parameter type-id='type-id-269' name='rowArray' filepath='/var/tmp/gamblin2/spack-stage/spack-stage-hrtRhh/VTK-6.1.0/IO/SQL/vtkRowQuery.cxx' line='88' column='1'/>
          <return type-id='type-id-1'/>
        </function-decl>
      </member-function>
      <member-function access='private'>
        <function-decl name='GetFieldIndex' mangled-name='_ZN11vtkRowQuery13GetFieldIndexEPc' filepath='/var/tmp/gamblin2/spack-stage/spack-stage-hrtRhh/VTK-6.1.0/IO/SQL/vtkRowQuery.cxx' line='46' column='1' visibility='default' binding='global' size-in-bits='64' elf-symbol-id='_ZN11vtkRowQuery13GetFieldIndexEPc'>
          <parameter type-id='type-id-268' name='this' is-artificial='yes'/>
          <parameter type-id='type-id-47' name='name' filepath='/var/tmp/gamblin2/spack-stage/spack-stage-hrtRhh/VTK-6.1.0/IO/SQL/vtkRowQuery.cxx' line='46' column='1'/>
          <return type-id='type-id-17'/>
        </function-decl>
      </member-function>
      <member-function access='protected' destructor='yes' vtable-offset='-1'>
        <function-decl name='~vtkRowQuery' mangled-name='_ZN11vtkRowQueryD1Ev' filepath='/var/tmp/gamblin2/spack-stage/spack-stage-hrtRhh/VTK-6.1.0/IO/SQL/vtkRowQuery.cxx' line='35' column='1' visibility='default' binding='global' size-in-bits='64' elf-symbol-id='_ZN11vtkRowQueryD1Ev'>
          <parameter type-id='type-id-266' is-artificial='yes'/>
          <parameter type-id='type-id-17' is-artificial='yes'/>
          <return type-id='type-id-28'/>
        </function-decl>
      </member-function>
      <member-function access='private' vtable-offset='0'>
        <function-decl name='GetClassNameInternal' mangled-name='_ZNK11vtkRowQuery20GetClassNameInternalEv' filepath='/var/tmp/gamblin2/spack-stage/spack-stage-hrtRhh/VTK-6.1.0/IO/SQL/vtkRowQuery.h' line='62' column='1' visibility='default' binding='global' size-in-bits='64'>
          <parameter type-id='type-id-270' is-artificial='yes'/>
          <return type-id='type-id-41'/>
        </function-decl>
      </member-function>
      <member-function access='private' vtable-offset='1'>
        <function-decl name='IsA' mangled-name='_ZN11vtkRowQuery3IsAEPKc' filepath='/var/tmp/gamblin2/spack-stage/spack-stage-hrtRhh/VTK-6.1.0/IO/SQL/vtkRowQuery.h' line='62' column='1' visibility='default' binding='global' size-in-bits='64'>
          <parameter type-id='type-id-266' is-artificial='yes'/>
          <parameter type-id='type-id-41'/>
          <return type-id='type-id-17'/>
        </function-decl>
      </member-function>
      <member-function access='private' vtable-offset='4'>
        <function-decl name='PrintSelf' mangled-name='_ZN11vtkRowQuery9PrintSelfERSo9vtkIndent' filepath='/var/tmp/gamblin2/spack-stage/spack-stage-hrtRhh/VTK-6.1.0/IO/SQL/vtkRowQuery.cxx' line='39' column='1' visibility='default' binding='global' size-in-bits='64' elf-symbol-id='_ZN11vtkRowQuery9PrintSelfERSo9vtkIndent'>
          <parameter type-id='type-id-266' is-artificial='yes'/>
          <parameter type-id='type-id-43'/>
          <parameter type-id='type-id-44'/>
          <return type-id='type-id-28'/>
        </function-decl>
      </member-function>
      <member-function access='protected' vtable-offset='15'>
        <function-decl name='NewInstanceInternal' mangled-name='_ZNK11vtkRowQuery19NewInstanceInternalEv' filepath='/var/tmp/gamblin2/spack-stage/spack-stage-hrtRhh/VTK-6.1.0/IO/SQL/vtkRowQuery.h' line='62' column='1' visibility='default' binding='global' size-in-bits='64'>
          <parameter type-id='type-id-270' is-artificial='yes'/>
          <return type-id='type-id-45'/>
        </function-decl>
      </member-function>
      <member-function access='private' vtable-offset='20'>
        <function-decl name='Execute' mangled-name='_ZN11vtkRowQuery7ExecuteEv' filepath='/var/tmp/gamblin2/spack-stage/spack-stage-hrtRhh/VTK-6.1.0/IO/SQL/vtkRowQuery.h' line='69' column='1' visibility='default' binding='global' size-in-bits='64'>
          <parameter type-id='type-id-266' is-artificial='yes'/>
          <return type-id='type-id-1'/>
        </function-decl>
      </member-function>
      <member-function access='private' vtable-offset='21'>
        <function-decl name='GetNumberOfFields' mangled-name='_ZN11vtkRowQuery17GetNumberOfFieldsEv' filepath='/var/tmp/gamblin2/spack-stage/spack-stage-hrtRhh/VTK-6.1.0/IO/SQL/vtkRowQuery.h' line='73' column='1' visibility='default' binding='global' size-in-bits='64'>
          <parameter type-id='type-id-266' is-artificial='yes'/>
          <return type-id='type-id-17'/>
        </function-decl>
      </member-function>
      <member-function access='private' vtable-offset='22'>
        <function-decl name='GetFieldName' mangled-name='_ZN11vtkRowQuery12GetFieldNameEi' filepath='/var/tmp/gamblin2/spack-stage/spack-stage-hrtRhh/VTK-6.1.0/IO/SQL/vtkRowQuery.h' line='77' column='1' visibility='default' binding='global' size-in-bits='64'>
          <parameter type-id='type-id-266' is-artificial='yes'/>
          <parameter type-id='type-id-17'/>
          <return type-id='type-id-41'/>
        </function-decl>
      </member-function>
      <member-function access='private' vtable-offset='23'>
        <function-decl name='GetFieldType' mangled-name='_ZN11vtkRowQuery12GetFieldTypeEi' filepath='/var/tmp/gamblin2/spack-stage/spack-stage-hrtRhh/VTK-6.1.0/IO/SQL/vtkRowQuery.h' line='81' column='1' visibility='default' binding='global' size-in-bits='64'>
          <parameter type-id='type-id-266' is-artificial='yes'/>
          <parameter type-id='type-id-17'/>
          <return type-id='type-id-17'/>
        </function-decl>
      </member-function>
      <member-function access='private' vtable-offset='24'>
        <function-decl name='NextRow' mangled-name='_ZN11vtkRowQuery7NextRowEv' filepath='/var/tmp/gamblin2/spack-stage/spack-stage-hrtRhh/VTK-6.1.0/IO/SQL/vtkRowQuery.h' line='91' column='1' visibility='default' binding='global' size-in-bits='64'>
          <parameter type-id='type-id-266' is-artificial='yes'/>
          <return type-id='type-id-1'/>
        </function-decl>
      </member-function>
      <member-function access='private' vtable-offset='25'>
        <function-decl name='IsActive' mangled-name='_ZN11vtkRowQuery8IsActiveEv' filepath='/var/tmp/gamblin2/spack-stage/spack-stage-hrtRhh/VTK-6.1.0/IO/SQL/vtkRowQuery.h' line='97' column='1' visibility='default' binding='global' size-in-bits='64'>
          <parameter type-id='type-id-266' is-artificial='yes'/>
          <return type-id='type-id-1'/>
        </function-decl>
      </member-function>
      <member-function access='private' vtable-offset='26'>
        <function-decl name='DataValue' mangled-name='_ZN11vtkRowQuery9DataValueEx' filepath='/var/tmp/gamblin2/spack-stage/spack-stage-hrtRhh/VTK-6.1.0/IO/SQL/vtkRowQuery.h' line='106' column='1' visibility='default' binding='global' size-in-bits='64'>
          <parameter type-id='type-id-266' is-artificial='yes'/>
          <parameter type-id='type-id-271'/>
          <return type-id='type-id-260'/>
        </function-decl>
      </member-function>
      <member-function access='private' vtable-offset='27'>
        <function-decl name='HasError' mangled-name='_ZN11vtkRowQuery8HasErrorEv' filepath='/var/tmp/gamblin2/spack-stage/spack-stage-hrtRhh/VTK-6.1.0/IO/SQL/vtkRowQuery.h' line='110' column='1' visibility='default' binding='global' size-in-bits='64'>
          <parameter type-id='type-id-266' is-artificial='yes'/>
          <return type-id='type-id-1'/>
        </function-decl>
      </member-function>
      <member-function access='private' vtable-offset='28'>
        <function-decl name='GetLastErrorText' mangled-name='_ZN11vtkRowQuery16GetLastErrorTextEv' filepath='/var/tmp/gamblin2/spack-stage/spack-stage-hrtRhh/VTK-6.1.0/IO/SQL/vtkRowQuery.h' line='114' column='1' visibility='default' binding='global' size-in-bits='64'>
          <parameter type-id='type-id-266' is-artificial='yes'/>
          <return type-id='type-id-41'/>
        </function-decl>
      </member-function>
      <member-function access='private' vtable-offset='29'>
        <function-decl name='SetCaseSensitiveFieldNames' mangled-name='_ZN11vtkRowQuery26SetCaseSensitiveFieldNamesEb' filepath='/var/tmp/gamblin2/spack-stage/spack-stage-hrtRhh/VTK-6.1.0/IO/SQL/vtkRowQuery.h' line='123' column='1' visibility='default' binding='global' size-in-bits='64'>
          <parameter type-id='type-id-266' is-artificial='yes'/>
          <parameter type-id='type-id-1'/>
          <return type-id='type-id-28'/>
        </function-decl>
      </member-function>
      <member-function access='private' vtable-offset='30'>
        <function-decl name='GetCaseSensitiveFieldNames' mangled-name='_ZN11vtkRowQuery26GetCaseSensitiveFieldNamesEv' filepath='/var/tmp/gamblin2/spack-stage/spack-stage-hrtRhh/VTK-6.1.0/IO/SQL/vtkRowQuery.h' line='124' column='1' visibility='default' binding='global' size-in-bits='64'>
          <parameter type-id='type-id-266' is-artificial='yes'/>
          <return type-id='type-id-1'/>
        </function-decl>
      </member-function>
      <member-function access='private' vtable-offset='31'>
        <function-decl name='CaseSensitiveFieldNamesOn' mangled-name='_ZN11vtkRowQuery25CaseSensitiveFieldNamesOnEv' filepath='/var/tmp/gamblin2/spack-stage/spack-stage-hrtRhh/VTK-6.1.0/IO/SQL/vtkRowQuery.h' line='125' column='1' visibility='default' binding='global' size-in-bits='64'>
          <parameter type-id='type-id-266' is-artificial='yes'/>
          <return type-id='type-id-28'/>
        </function-decl>
      </member-function>
      <member-function access='private' vtable-offset='32'>
        <function-decl name='CaseSensitiveFieldNamesOff' mangled-name='_ZN11vtkRowQuery26CaseSensitiveFieldNamesOffEv' filepath='/var/tmp/gamblin2/spack-stage/spack-stage-hrtRhh/VTK-6.1.0/IO/SQL/vtkRowQuery.h' line='125' column='1' visibility='default' binding='global' size-in-bits='64'>
          <parameter type-id='type-id-266' is-artificial='yes'/>
          <return type-id='type-id-28'/>
        </function-decl>
      </member-function>
    </class-decl>
    <class-decl name='vtkVariant' size-in-bits='128' visibility='default' filepath='/var/tmp/gamblin2/spack-stage/spack-stage-hrtRhh/VTK-6.1.0/Common/Core/vtkVariant.h' line='72' column='1' id='type-id-260'>
      <member-type access='private'>
        <union-decl name='__anonymous_union__' size-in-bits='64' is-anonymous='yes' visibility='default' filepath='/var/tmp/gamblin2/spack-stage/spack-stage-hrtRhh/VTK-6.1.0/Common/Core/vtkVariant.h' line='407' column='1' id='type-id-272'>
          <data-member access='public'>
            <var-decl name='String' type-id='type-id-85' visibility='default' filepath='/var/tmp/gamblin2/spack-stage/spack-stage-hrtRhh/VTK-6.1.0/Common/Core/vtkVariant.h' line='408' column='1'/>
          </data-member>
          <data-member access='public'>
            <var-decl name='UnicodeString' type-id='type-id-273' visibility='default' filepath='/var/tmp/gamblin2/spack-stage/spack-stage-hrtRhh/VTK-6.1.0/Common/Core/vtkVariant.h' line='409' column='1'/>
          </data-member>
          <data-member access='public'>
            <var-decl name='Float' type-id='type-id-16' visibility='default' filepath='/var/tmp/gamblin2/spack-stage/spack-stage-hrtRhh/VTK-6.1.0/Common/Core/vtkVariant.h' line='410' column='1'/>
          </data-member>
          <data-member access='public'>
            <var-decl name='Double' type-id='type-id-15' visibility='default' filepath='/var/tmp/gamblin2/spack-stage/spack-stage-hrtRhh/VTK-6.1.0/Common/Core/vtkVariant.h' line='411' column='1'/>
          </data-member>
          <data-member access='public'>
            <var-decl name='Char' type-id='type-id-2' visibility='default' filepath='/var/tmp/gamblin2/spack-stage/spack-stage-hrtRhh/VTK-6.1.0/Common/Core/vtkVariant.h' line='412' column='1'/>
          </data-member>
          <data-member access='public'>
            <var-decl name='UnsignedChar' type-id='type-id-255' visibility='default' filepath='/var/tmp/gamblin2/spack-stage/spack-stage-hrtRhh/VTK-6.1.0/Common/Core/vtkVariant.h' line='413' column='1'/>
          </data-member>
          <data-member access='public'>
            <var-decl name='SignedChar' type-id='type-id-22' visibility='default' filepath='/var/tmp/gamblin2/spack-stage/spack-stage-hrtRhh/VTK-6.1.0/Common/Core/vtkVariant.h' line='414' column='1'/>
          </data-member>
          <data-member access='public'>
            <var-decl name='Short' type-id='type-id-256' visibility='default' filepath='/var/tmp/gamblin2/spack-stage/spack-stage-hrtRhh/VTK-6.1.0/Common/Core/vtkVariant.h' line='415' column='1'/>
          </data-member>
          <data-member access='public'>
            <var-decl name='UnsignedShort' type-id='type-id-26' visibility='default' filepath='/var/tmp/gamblin2/spack-stage/spack-stage-hrtRhh/VTK-6.1.0/Common/Core/vtkVariant.h' line='416' column='1'/>
          </data-member>
          <data-member access='public'>
            <var-decl name='Int' type-id='type-id-17' visibility='default' filepath='/var/tmp/gamblin2/spack-stage/spack-stage-hrtRhh/VTK-6.1.0/Common/Core/vtkVariant.h' line='417' column='1'/>
          </data-member>
          <data-member access='public'>
            <var-decl name='UnsignedInt' type-id='type-id-13' visibility='default' filepath='/var/tmp/gamblin2/spack-stage/spack-stage-hrtRhh/VTK-6.1.0/Common/Core/vtkVariant.h' line='418' column='1'/>
          </data-member>
          <data-member access='public'>
            <var-decl name='Long' type-id='type-id-19' visibility='default' filepath='/var/tmp/gamblin2/spack-stage/spack-stage-hrtRhh/VTK-6.1.0/Common/Core/vtkVariant.h' line='419' column='1'/>
          </data-member>
          <data-member access='public'>
            <var-decl name='UnsignedLong' type-id='type-id-4' visibility='default' filepath='/var/tmp/gamblin2/spack-stage/spack-stage-hrtRhh/VTK-6.1.0/Common/Core/vtkVariant.h' line='420' column='1'/>
          </data-member>
          <data-member access='public'>
            <var-decl name='LongLong' type-id='type-id-20' visibility='default' filepath='/var/tmp/gamblin2/spack-stage/spack-stage-hrtRhh/VTK-6.1.0/Common/Core/vtkVariant.h' line='426' column='1'/>
          </data-member>
          <data-member access='public'>
            <var-decl name='UnsignedLongLong' type-id='type-id-21' visibility='default' filepath='/var/tmp/gamblin2/spack-stage/spack-stage-hrtRhh/VTK-6.1.0/Common/Core/vtkVariant.h' line='427' column='1'/>
          </data-member>
          <data-member access='public'>
            <var-decl name='VTKObject' type-id='type-id-45' visibility='default' filepath='/var/tmp/gamblin2/spack-stage/spack-stage-hrtRhh/VTK-6.1.0/Common/Core/vtkVariant.h' line='429' column='1'/>
          </data-member>
        </union-decl>
      </member-type>
      <data-member access='private' layout-offset-in-bits='0'>
        <var-decl name='Data' type-id='type-id-272' visibility='default' filepath='/var/tmp/gamblin2/spack-stage/spack-stage-hrtRhh/VTK-6.1.0/Common/Core/vtkVariant.h' line='430' column='1'/>
      </data-member>
      <data-member access='private' layout-offset-in-bits='64'>
        <var-decl name='Valid' type-id='type-id-255' visibility='default' filepath='/var/tmp/gamblin2/spack-stage/spack-stage-hrtRhh/VTK-6.1.0/Common/Core/vtkVariant.h' line='432' column='1'/>
      </data-member>
      <data-member access='private' layout-offset-in-bits='72'>
        <var-decl name='Type' type-id='type-id-255' visibility='default' filepath='/var/tmp/gamblin2/spack-stage/spack-stage-hrtRhh/VTK-6.1.0/Common/Core/vtkVariant.h' line='433' column='1'/>
      </data-member>
      <member-function access='private' constructor='yes'>
        <function-decl name='vtkVariant' filepath='/var/tmp/gamblin2/spack-stage/spack-stage-hrtRhh/VTK-6.1.0/Common/Core/vtkVariant.h' line='77' column='1' visibility='default' binding='global' size-in-bits='64'>
          <parameter type-id='type-id-274' is-artificial='yes'/>
          <return type-id='type-id-28'/>
        </function-decl>
      </member-function>
      <member-function access='private' destructor='yes'>
        <function-decl name='~vtkVariant' filepath='/var/tmp/gamblin2/spack-stage/spack-stage-hrtRhh/VTK-6.1.0/Common/Core/vtkVariant.h' line='81' column='1' visibility='default' binding='global' size-in-bits='64'>
          <parameter type-id='type-id-274' is-artificial='yes'/>
          <parameter type-id='type-id-17' is-artificial='yes'/>
          <return type-id='type-id-28'/>
        </function-decl>
      </member-function>
      <member-function access='private' constructor='yes'>
        <function-decl name='vtkVariant' filepath='/var/tmp/gamblin2/spack-stage/spack-stage-hrtRhh/VTK-6.1.0/Common/Core/vtkVariant.h' line='85' column='1' visibility='default' binding='global' size-in-bits='64'>
          <parameter type-id='type-id-274' is-artificial='yes'/>
          <parameter type-id='type-id-275'/>
          <return type-id='type-id-28'/>
        </function-decl>
      </member-function>
      <member-function access='private' constructor='yes'>
        <function-decl name='vtkVariant' filepath='/var/tmp/gamblin2/spack-stage/spack-stage-hrtRhh/VTK-6.1.0/Common/Core/vtkVariant.h' line='89' column='1' visibility='default' binding='global' size-in-bits='64'>
          <parameter type-id='type-id-274' is-artificial='yes'/>
          <parameter type-id='type-id-1'/>
          <return type-id='type-id-28'/>
        </function-decl>
      </member-function>
      <member-function access='private' constructor='yes'>
        <function-decl name='vtkVariant' filepath='/var/tmp/gamblin2/spack-stage/spack-stage-hrtRhh/VTK-6.1.0/Common/Core/vtkVariant.h' line='93' column='1' visibility='default' binding='global' size-in-bits='64'>
          <parameter type-id='type-id-274' is-artificial='yes'/>
          <parameter type-id='type-id-2'/>
          <return type-id='type-id-28'/>
        </function-decl>
      </member-function>
      <member-function access='private' constructor='yes'>
        <function-decl name='vtkVariant' filepath='/var/tmp/gamblin2/spack-stage/spack-stage-hrtRhh/VTK-6.1.0/Common/Core/vtkVariant.h' line='97' column='1' visibility='default' binding='global' size-in-bits='64'>
          <parameter type-id='type-id-274' is-artificial='yes'/>
          <parameter type-id='type-id-255'/>
          <return type-id='type-id-28'/>
        </function-decl>
      </member-function>
      <member-function access='private' constructor='yes'>
        <function-decl name='vtkVariant' filepath='/var/tmp/gamblin2/spack-stage/spack-stage-hrtRhh/VTK-6.1.0/Common/Core/vtkVariant.h' line='101' column='1' visibility='default' binding='global' size-in-bits='64'>
          <parameter type-id='type-id-274' is-artificial='yes'/>
          <parameter type-id='type-id-22'/>
          <return type-id='type-id-28'/>
        </function-decl>
      </member-function>
      <member-function access='private' constructor='yes'>
        <function-decl name='vtkVariant' filepath='/var/tmp/gamblin2/spack-stage/spack-stage-hrtRhh/VTK-6.1.0/Common/Core/vtkVariant.h' line='105' column='1' visibility='default' binding='global' size-in-bits='64'>
          <parameter type-id='type-id-274' is-artificial='yes'/>
          <parameter type-id='type-id-256'/>
          <return type-id='type-id-28'/>
        </function-decl>
      </member-function>
      <member-function access='private' constructor='yes'>
        <function-decl name='vtkVariant' filepath='/var/tmp/gamblin2/spack-stage/spack-stage-hrtRhh/VTK-6.1.0/Common/Core/vtkVariant.h' line='109' column='1' visibility='default' binding='global' size-in-bits='64'>
          <parameter type-id='type-id-274' is-artificial='yes'/>
          <parameter type-id='type-id-26'/>
          <return type-id='type-id-28'/>
        </function-decl>
      </member-function>
      <member-function access='private' constructor='yes'>
        <function-decl name='vtkVariant' filepath='/var/tmp/gamblin2/spack-stage/spack-stage-hrtRhh/VTK-6.1.0/Common/Core/vtkVariant.h' line='113' column='1' visibility='default' binding='global' size-in-bits='64'>
          <parameter type-id='type-id-274' is-artificial='yes'/>
          <parameter type-id='type-id-17' is-artificial='yes'/>
          <return type-id='type-id-28'/>
        </function-decl>
      </member-function>
      <member-function access='private' constructor='yes'>
        <function-decl name='vtkVariant' filepath='/var/tmp/gamblin2/spack-stage/spack-stage-hrtRhh/VTK-6.1.0/Common/Core/vtkVariant.h' line='117' column='1' visibility='default' binding='global' size-in-bits='64'>
          <parameter type-id='type-id-274' is-artificial='yes'/>
          <parameter type-id='type-id-13'/>
          <return type-id='type-id-28'/>
        </function-decl>
      </member-function>
      <member-function access='private' constructor='yes'>
        <function-decl name='vtkVariant' filepath='/var/tmp/gamblin2/spack-stage/spack-stage-hrtRhh/VTK-6.1.0/Common/Core/vtkVariant.h' line='121' column='1' visibility='default' binding='global' size-in-bits='64'>
          <parameter type-id='type-id-274' is-artificial='yes'/>
          <parameter type-id='type-id-19'/>
          <return type-id='type-id-28'/>
        </function-decl>
      </member-function>
      <member-function access='private' constructor='yes'>
        <function-decl name='vtkVariant' filepath='/var/tmp/gamblin2/spack-stage/spack-stage-hrtRhh/VTK-6.1.0/Common/Core/vtkVariant.h' line='125' column='1' visibility='default' binding='global' size-in-bits='64'>
          <parameter type-id='type-id-274' is-artificial='yes'/>
          <parameter type-id='type-id-4'/>
          <return type-id='type-id-28'/>
        </function-decl>
      </member-function>
      <member-function access='private' constructor='yes'>
        <function-decl name='vtkVariant' filepath='/var/tmp/gamblin2/spack-stage/spack-stage-hrtRhh/VTK-6.1.0/Common/Core/vtkVariant.h' line='139' column='1' visibility='default' binding='global' size-in-bits='64'>
          <parameter type-id='type-id-274' is-artificial='yes'/>
          <parameter type-id='type-id-20'/>
          <return type-id='type-id-28'/>
        </function-decl>
      </member-function>
      <member-function access='private' constructor='yes'>
        <function-decl name='vtkVariant' filepath='/var/tmp/gamblin2/spack-stage/spack-stage-hrtRhh/VTK-6.1.0/Common/Core/vtkVariant.h' line='143' column='1' visibility='default' binding='global' size-in-bits='64'>
          <parameter type-id='type-id-274' is-artificial='yes'/>
          <parameter type-id='type-id-21'/>
          <return type-id='type-id-28'/>
        </function-decl>
      </member-function>
      <member-function access='private' constructor='yes'>
        <function-decl name='vtkVariant' filepath='/var/tmp/gamblin2/spack-stage/spack-stage-hrtRhh/VTK-6.1.0/Common/Core/vtkVariant.h' line='148' column='1' visibility='default' binding='global' size-in-bits='64'>
          <parameter type-id='type-id-274' is-artificial='yes'/>
          <parameter type-id='type-id-16'/>
          <return type-id='type-id-28'/>
        </function-decl>
      </member-function>
      <member-function access='private' constructor='yes'>
        <function-decl name='vtkVariant' filepath='/var/tmp/gamblin2/spack-stage/spack-stage-hrtRhh/VTK-6.1.0/Common/Core/vtkVariant.h' line='152' column='1' visibility='default' binding='global' size-in-bits='64'>
          <parameter type-id='type-id-274' is-artificial='yes'/>
          <parameter type-id='type-id-15'/>
          <return type-id='type-id-28'/>
        </function-decl>
      </member-function>
      <member-function access='private' constructor='yes'>
        <function-decl name='vtkVariant' filepath='/var/tmp/gamblin2/spack-stage/spack-stage-hrtRhh/VTK-6.1.0/Common/Core/vtkVariant.h' line='156' column='1' visibility='default' binding='global' size-in-bits='64'>
          <parameter type-id='type-id-274' is-artificial='yes'/>
          <parameter type-id='type-id-41'/>
          <return type-id='type-id-28'/>
        </function-decl>
      </member-function>
      <member-function access='private' constructor='yes'>
        <function-decl name='vtkVariant' filepath='/var/tmp/gamblin2/spack-stage/spack-stage-hrtRhh/VTK-6.1.0/Common/Core/vtkVariant.h' line='160' column='1' visibility='default' binding='global' size-in-bits='64'>
          <parameter type-id='type-id-274' is-artificial='yes'/>
          <parameter type-id='type-id-49'/>
          <return type-id='type-id-28'/>
        </function-decl>
      </member-function>
      <member-function access='private' constructor='yes'>
        <function-decl name='vtkVariant' filepath='/var/tmp/gamblin2/spack-stage/spack-stage-hrtRhh/VTK-6.1.0/Common/Core/vtkVariant.h' line='164' column='1' visibility='default' binding='global' size-in-bits='64'>
          <parameter type-id='type-id-274' is-artificial='yes'/>
          <parameter type-id='type-id-276'/>
          <return type-id='type-id-28'/>
        </function-decl>
      </member-function>
      <member-function access='private' constructor='yes'>
        <function-decl name='vtkVariant' filepath='/var/tmp/gamblin2/spack-stage/spack-stage-hrtRhh/VTK-6.1.0/Common/Core/vtkVariant.h' line='168' column='1' visibility='default' binding='global' size-in-bits='64'>
          <parameter type-id='type-id-274' is-artificial='yes'/>
          <parameter type-id='type-id-45'/>
          <return type-id='type-id-28'/>
        </function-decl>
      </member-function>
      <member-function access='private' constructor='yes'>
        <function-decl name='vtkVariant' filepath='/var/tmp/gamblin2/spack-stage/spack-stage-hrtRhh/VTK-6.1.0/Common/Core/vtkVariant.h' line='172' column='1' visibility='default' binding='global' size-in-bits='64'>
          <parameter type-id='type-id-274' is-artificial='yes'/>
          <parameter type-id='type-id-275'/>
          <parameter type-id='type-id-13'/>
          <return type-id='type-id-28'/>
        </function-decl>
      </member-function>
    </class-decl>
    <qualified-type-def type-id='type-id-240' const='yes' id='type-id-261'/>
    <qualified-type-def type-id='type-id-34' const='yes' id='type-id-262'/>
    <reference-type-def kind='lvalue' type-id='type-id-277' size-in-bits='64' id='type-id-248'/>
    <pointer-type-def type-id='type-id-277' size-in-bits='64' id='type-id-250'/>
    <reference-type-def kind='lvalue' type-id='type-id-278' size-in-bits='64' id='type-id-252'/>
    <pointer-type-def type-id='type-id-278' size-in-bits='64' id='type-id-254'/>
    <reference-type-def kind='lvalue' type-id='type-id-279' size-in-bits='64' id='type-id-259'/>
    <type-decl name='short int' size-in-bits='16' id='type-id-256'/>
    <pointer-type-def type-id='type-id-221' size-in-bits='64' id='type-id-242'/>
    <pointer-type-def type-id='type-id-239' size-in-bits='64' id='type-id-241'/>
    <typedef-decl name='vtkTypeInt64' type-id='type-id-20' filepath='/var/tmp/gamblin2/spack-stage/spack-stage-hrtRhh/VTK-6.1.0/Common/Core/vtkType.h' line='212' column='1' id='type-id-258'/>
    <typedef-decl name='vtkTypeUInt64' type-id='type-id-21' filepath='/var/tmp/gamblin2/spack-stage/spack-stage-hrtRhh/VTK-6.1.0/Common/Core/vtkType.h' line='211' column='1' id='type-id-257'/>
    <type-decl name='unsigned char' size-in-bits='8' id='type-id-255'/>
    <qualified-type-def type-id='type-id-36' const='yes' id='type-id-263'/>
    <pointer-type-def type-id='type-id-36' size-in-bits='64' id='type-id-236'/>
    <reference-type-def kind='lvalue' type-id='type-id-280' size-in-bits='64' id='type-id-238'/>
    <qualified-type-def type-id='type-id-50' const='yes' id='type-id-249'/>
    <pointer-type-def type-id='type-id-281' size-in-bits='64' id='type-id-247'/>
    <qualified-type-def type-id='type-id-46' const='yes' id='type-id-253'/>
    <namespace-decl name='__gnu_cxx'>
      <class-decl name='new_allocator&lt;vtkSQLDatabase* (*)(const char*)&gt;' size-in-bits='8' visibility='default' filepath='/usr/lib/gcc/x86_64-redhat-linux/4.4.7/../../../../include/c++/4.4.7/ext/new_allocator.h' line='52' column='1' id='type-id-264'>
        <member-function access='private'>
          <function-decl name='new_allocator' filepath='/usr/lib/gcc/x86_64-redhat-linux/4.4.7/../../../../include/c++/4.4.7/ext/new_allocator.h' line='66' column='1' visibility='default' binding='global' size-in-bits='64'>
            <parameter type-id='type-id-282' is-artificial='yes'/>
            <return type-id='type-id-28'/>
          </function-decl>
        </member-function>
        <member-function access='private'>
          <function-decl name='new_allocator' filepath='/usr/lib/gcc/x86_64-redhat-linux/4.4.7/../../../../include/c++/4.4.7/ext/new_allocator.h' line='68' column='1' visibility='default' binding='global' size-in-bits='64'>
            <parameter type-id='type-id-282' is-artificial='yes'/>
            <parameter type-id='type-id-283'/>
            <return type-id='type-id-28'/>
          </function-decl>
        </member-function>
        <member-function access='private' destructor='yes'>
          <function-decl name='~new_allocator' filepath='/usr/lib/gcc/x86_64-redhat-linux/4.4.7/../../../../include/c++/4.4.7/ext/new_allocator.h' line='73' column='1' visibility='default' binding='global' size-in-bits='64'>
            <parameter type-id='type-id-282' is-artificial='yes'/>
            <parameter type-id='type-id-17' is-artificial='yes'/>
            <return type-id='type-id-28'/>
          </function-decl>
        </member-function>
      </class-decl>
    </namespace-decl>
    <class-decl name='vtkSQLDatabaseSchemaInternals' size-in-bits='384' visibility='default' filepath='/var/tmp/gamblin2/spack-stage/spack-stage-hrtRhh/VTK-6.1.0/IO/SQL/vtkSQLDatabaseSchema.cxx' line='36' column='1' id='type-id-281'>
      <member-type access='private'>
        <class-decl name='Statement' size-in-bits='192' is-struct='yes' visibility='default' filepath='/var/tmp/gamblin2/spack-stage/spack-stage-hrtRhh/VTK-6.1.0/IO/SQL/vtkSQLDatabaseSchema.cxx' line='39' column='1' id='type-id-284'>
          <data-member access='public' layout-offset-in-bits='0'>
            <var-decl name='Name' type-id='type-id-49' visibility='default' filepath='/var/tmp/gamblin2/spack-stage/spack-stage-hrtRhh/VTK-6.1.0/IO/SQL/vtkSQLDatabaseSchema.cxx' line='40' column='1'/>
          </data-member>
          <data-member access='public' layout-offset-in-bits='64'>
            <var-decl name='Action' type-id='type-id-49' visibility='default' filepath='/var/tmp/gamblin2/spack-stage/spack-stage-hrtRhh/VTK-6.1.0/IO/SQL/vtkSQLDatabaseSchema.cxx' line='41' column='1'/>
          </data-member>
          <data-member access='public' layout-offset-in-bits='128'>
            <var-decl name='Backend' type-id='type-id-49' visibility='default' filepath='/var/tmp/gamblin2/spack-stage/spack-stage-hrtRhh/VTK-6.1.0/IO/SQL/vtkSQLDatabaseSchema.cxx' line='42' column='1'/>
          </data-member>
        </class-decl>
      </member-type>
      <member-type access='private'>
        <class-decl name='Column' size-in-bits='192' is-struct='yes' visibility='default' filepath='/var/tmp/gamblin2/spack-stage/spack-stage-hrtRhh/VTK-6.1.0/IO/SQL/vtkSQLDatabaseSchema.cxx' line='46' column='1' id='type-id-285'>
          <data-member access='public' layout-offset-in-bits='0'>
            <var-decl name='Type' type-id='type-id-245' visibility='default' filepath='/var/tmp/gamblin2/spack-stage/spack-stage-hrtRhh/VTK-6.1.0/IO/SQL/vtkSQLDatabaseSchema.cxx' line='47' column='1'/>
          </data-member>
          <data-member access='public' layout-offset-in-bits='32'>
            <var-decl name='Size' type-id='type-id-17' visibility='default' filepath='/var/tmp/gamblin2/spack-stage/spack-stage-hrtRhh/VTK-6.1.0/IO/SQL/vtkSQLDatabaseSchema.cxx' line='48' column='1'/>
          </data-member>
          <data-member access='public' layout-offset-in-bits='64'>
            <var-decl name='Name' type-id='type-id-49' visibility='default' filepath='/var/tmp/gamblin2/spack-stage/spack-stage-hrtRhh/VTK-6.1.0/IO/SQL/vtkSQLDatabaseSchema.cxx' line='49' column='1'/>
          </data-member>
          <data-member access='public' layout-offset-in-bits='128'>
            <var-decl name='Attributes' type-id='type-id-49' visibility='default' filepath='/var/tmp/gamblin2/spack-stage/spack-stage-hrtRhh/VTK-6.1.0/IO/SQL/vtkSQLDatabaseSchema.cxx' line='50' column='1'/>
          </data-member>
        </class-decl>
      </member-type>
      <member-type access='private'>
        <class-decl name='Index' size-in-bits='320' is-struct='yes' visibility='default' filepath='/var/tmp/gamblin2/spack-stage/spack-stage-hrtRhh/VTK-6.1.0/IO/SQL/vtkSQLDatabaseSchema.cxx' line='54' column='1' id='type-id-286'>
          <data-member access='public' layout-offset-in-bits='0'>
            <var-decl name='Type' type-id='type-id-246' visibility='default' filepath='/var/tmp/gamblin2/spack-stage/spack-stage-hrtRhh/VTK-6.1.0/IO/SQL/vtkSQLDatabaseSchema.cxx' line='55' column='1'/>
          </data-member>
          <data-member access='public' layout-offset-in-bits='64'>
            <var-decl name='Name' type-id='type-id-49' visibility='default' filepath='/var/tmp/gamblin2/spack-stage/spack-stage-hrtRhh/VTK-6.1.0/IO/SQL/vtkSQLDatabaseSchema.cxx' line='56' column='1'/>
          </data-member>
          <data-member access='public' layout-offset-in-bits='128'>
            <var-decl name='ColumnNames' type-id='type-id-287' visibility='default' filepath='/var/tmp/gamblin2/spack-stage/spack-stage-hrtRhh/VTK-6.1.0/IO/SQL/vtkSQLDatabaseSchema.cxx' line='57' column='1'/>
          </data-member>
        </class-decl>
      </member-type>
      <member-type access='private'>
        <class-decl name='Option' size-in-bits='128' is-struct='yes' visibility='default' filepath='/var/tmp/gamblin2/spack-stage/spack-stage-hrtRhh/VTK-6.1.0/IO/SQL/vtkSQLDatabaseSchema.cxx' line='69' column='1' id='type-id-288'>
          <data-member access='public' layout-offset-in-bits='0'>
            <var-decl name='Text' type-id='type-id-49' visibility='default' filepath='/var/tmp/gamblin2/spack-stage/spack-stage-hrtRhh/VTK-6.1.0/IO/SQL/vtkSQLDatabaseSchema.cxx' line='70' column='1'/>
          </data-member>
          <data-member access='public' layout-offset-in-bits='64'>
            <var-decl name='Backend' type-id='type-id-49' visibility='default' filepath='/var/tmp/gamblin2/spack-stage/spack-stage-hrtRhh/VTK-6.1.0/IO/SQL/vtkSQLDatabaseSchema.cxx' line='71' column='1'/>
          </data-member>
        </class-decl>
      </member-type>
      <member-type access='private'>
        <class-decl name='Trigger' size-in-bits='256' is-struct='yes' visibility='default' filepath='/var/tmp/gamblin2/spack-stage/spack-stage-hrtRhh/VTK-6.1.0/IO/SQL/vtkSQLDatabaseSchema.cxx' line='61' column='1' id='type-id-289'>
          <data-member access='public' layout-offset-in-bits='0'>
            <var-decl name='Type' type-id='type-id-243' visibility='default' filepath='/var/tmp/gamblin2/spack-stage/spack-stage-hrtRhh/VTK-6.1.0/IO/SQL/vtkSQLDatabaseSchema.cxx' line='62' column='1'/>
          </data-member>
          <data-member access='public' layout-offset-in-bits='64'>
            <var-decl name='Name' type-id='type-id-49' visibility='default' filepath='/var/tmp/gamblin2/spack-stage/spack-stage-hrtRhh/VTK-6.1.0/IO/SQL/vtkSQLDatabaseSchema.cxx' line='63' column='1'/>
          </data-member>
          <data-member access='public' layout-offset-in-bits='128'>
            <var-decl name='Action' type-id='type-id-49' visibility='default' filepath='/var/tmp/gamblin2/spack-stage/spack-stage-hrtRhh/VTK-6.1.0/IO/SQL/vtkSQLDatabaseSchema.cxx' line='64' column='1'/>
          </data-member>
          <data-member access='public' layout-offset-in-bits='192'>
            <var-decl name='Backend' type-id='type-id-49' visibility='default' filepath='/var/tmp/gamblin2/spack-stage/spack-stage-hrtRhh/VTK-6.1.0/IO/SQL/vtkSQLDatabaseSchema.cxx' line='65' column='1'/>
          </data-member>
        </class-decl>
      </member-type>
      <member-type access='private'>
        <class-decl name='Table' size-in-bits='832' is-struct='yes' visibility='default' filepath='/var/tmp/gamblin2/spack-stage/spack-stage-hrtRhh/VTK-6.1.0/IO/SQL/vtkSQLDatabaseSchema.cxx' line='75' column='1' id='type-id-290'>
          <data-member access='public' layout-offset-in-bits='0'>
            <var-decl name='Name' type-id='type-id-49' visibility='default' filepath='/var/tmp/gamblin2/spack-stage/spack-stage-hrtRhh/VTK-6.1.0/IO/SQL/vtkSQLDatabaseSchema.cxx' line='76' column='1'/>
          </data-member>
          <data-member access='public' layout-offset-in-bits='64'>
            <var-decl name='Columns' type-id='type-id-291' visibility='default' filepath='/var/tmp/gamblin2/spack-stage/spack-stage-hrtRhh/VTK-6.1.0/IO/SQL/vtkSQLDatabaseSchema.cxx' line='77' column='1'/>
          </data-member>
          <data-member access='public' layout-offset-in-bits='256'>
            <var-decl name='Indices' type-id='type-id-292' visibility='default' filepath='/var/tmp/gamblin2/spack-stage/spack-stage-hrtRhh/VTK-6.1.0/IO/SQL/vtkSQLDatabaseSchema.cxx' line='78' column='1'/>
          </data-member>
          <data-member access='public' layout-offset-in-bits='448'>
            <var-decl name='Triggers' type-id='type-id-293' visibility='default' filepath='/var/tmp/gamblin2/spack-stage/spack-stage-hrtRhh/VTK-6.1.0/IO/SQL/vtkSQLDatabaseSchema.cxx' line='79' column='1'/>
          </data-member>
          <data-member access='public' layout-offset-in-bits='640'>
            <var-decl name='Options' type-id='type-id-294' visibility='default' filepath='/var/tmp/gamblin2/spack-stage/spack-stage-hrtRhh/VTK-6.1.0/IO/SQL/vtkSQLDatabaseSchema.cxx' line='80' column='1'/>
          </data-member>
        </class-decl>
      </member-type>
      <data-member access='private' layout-offset-in-bits='0'>
        <var-decl name='Preambles' type-id='type-id-295' visibility='default' filepath='/var/tmp/gamblin2/spack-stage/spack-stage-hrtRhh/VTK-6.1.0/IO/SQL/vtkSQLDatabaseSchema.cxx' line='83' column='1'/>
      </data-member>
      <data-member access='private' layout-offset-in-bits='192'>
        <var-decl name='Tables' type-id='type-id-296' visibility='default' filepath='/var/tmp/gamblin2/spack-stage/spack-stage-hrtRhh/VTK-6.1.0/IO/SQL/vtkSQLDatabaseSchema.cxx' line='84' column='1'/>
      </data-member>
    </class-decl>
    <reference-type-def kind='lvalue' type-id='type-id-297' size-in-bits='64' id='type-id-267'/>
    <pointer-type-def type-id='type-id-297' size-in-bits='64' id='type-id-270'/>
    <qualified-type-def type-id='type-id-233' const='yes' id='type-id-277'/>
    <qualified-type-def type-id='type-id-234' const='yes' id='type-id-278'/>
    <qualified-type-def type-id='type-id-49' const='yes' id='type-id-279'/>
    <reference-type-def kind='lvalue' type-id='type-id-298' size-in-bits='64' id='type-id-276'/>
    <reference-type-def kind='lvalue' type-id='type-id-299' size-in-bits='64' id='type-id-275'/>
    <pointer-type-def type-id='type-id-240' size-in-bits='64' id='type-id-265'/>
    <typedef-decl name='vtkIdType' type-id='type-id-20' filepath='/var/tmp/gamblin2/spack-stage/spack-stage-hrtRhh/VTK-6.1.0/Common/Core/vtkType.h' line='255' column='1' id='type-id-271'/>
    <pointer-type-def type-id='type-id-251' size-in-bits='64' id='type-id-266'/>
    <qualified-type-def type-id='type-id-266' const='yes' id='type-id-268'/>
    <qualified-type-def type-id='type-id-236' const='yes' id='type-id-280'/>
    <pointer-type-def type-id='type-id-300' size-in-bits='64' id='type-id-273'/>
    <pointer-type-def type-id='type-id-260' size-in-bits='64' id='type-id-274'/>
    <pointer-type-def type-id='type-id-301' size-in-bits='64' id='type-id-269'/>
    <pointer-type-def type-id='type-id-264' size-in-bits='64' id='type-id-282'/>
    <namespace-decl name='std'>
      <class-decl name='vector&lt;vtkSQLDatabaseSchemaInternals::Column, std::allocator&lt;vtkSQLDatabaseSchemaInternals::Column&gt; &gt;' size-in-bits='192' visibility='default' filepath='/usr/lib/gcc/x86_64-redhat-linux/4.4.7/../../../../include/c++/4.4.7/bits/stl_vector.h' line='171' column='1' id='type-id-291'>
        <base-class access='protected' layout-offset-in-bits='0' type-id='type-id-302'/>
        <member-function access='private'>
          <function-decl name='vector' filepath='/usr/lib/gcc/x86_64-redhat-linux/4.4.7/../../../../include/c++/4.4.7/bits/stl_vector.h' line='207' column='1' visibility='default' binding='global' size-in-bits='64'>
            <parameter type-id='type-id-303' is-artificial='yes'/>
            <return type-id='type-id-28'/>
          </function-decl>
        </member-function>
        <member-function access='private'>
          <function-decl name='vector' filepath='/usr/lib/gcc/x86_64-redhat-linux/4.4.7/../../../../include/c++/4.4.7/bits/stl_vector.h' line='215' column='1' visibility='default' binding='global' size-in-bits='64'>
            <parameter type-id='type-id-303' is-artificial='yes'/>
            <parameter type-id='type-id-304'/>
            <return type-id='type-id-28'/>
          </function-decl>
        </member-function>
        <member-function access='private'>
          <function-decl name='vector' filepath='/usr/lib/gcc/x86_64-redhat-linux/4.4.7/../../../../include/c++/4.4.7/bits/stl_vector.h' line='227' column='1' visibility='default' binding='global' size-in-bits='64'>
            <parameter type-id='type-id-303' is-artificial='yes'/>
            <parameter type-id='type-id-4'/>
            <parameter type-id='type-id-305'/>
            <parameter type-id='type-id-304'/>
            <return type-id='type-id-28'/>
          </function-decl>
        </member-function>
        <member-function access='private'>
          <function-decl name='vector' filepath='/usr/lib/gcc/x86_64-redhat-linux/4.4.7/../../../../include/c++/4.4.7/bits/stl_vector.h' line='241' column='1' visibility='default' binding='global' size-in-bits='64'>
            <parameter type-id='type-id-303' is-artificial='yes'/>
            <parameter type-id='type-id-306'/>
            <return type-id='type-id-28'/>
          </function-decl>
        </member-function>
        <member-function access='private' destructor='yes'>
          <function-decl name='~vector' mangled-name='_ZNSt6vectorIN29vtkSQLDatabaseSchemaInternals6ColumnESaIS1_EED1Ev' filepath='/usr/lib/gcc/x86_64-redhat-linux/4.4.7/../../../../include/c++/4.4.7/bits/stl_vector.h' line='312' column='1' visibility='default' binding='global' size-in-bits='64' elf-symbol-id='_ZNSt6vectorIN29vtkSQLDatabaseSchemaInternals6ColumnESaIS1_EED1Ev'>
            <parameter type-id='type-id-303' is-artificial='yes'/>
            <parameter type-id='type-id-17' is-artificial='yes'/>
            <return type-id='type-id-28'/>
          </function-decl>
        </member-function>
        <member-function access='protected'>
          <function-decl name='_M_allocate_and_copy&lt;__gnu_cxx::__normal_iterator&lt;const vtkSQLDatabaseSchemaInternals::Column*, std::vector&lt;vtkSQLDatabaseSchemaInternals::Column, std::allocator&lt;vtkSQLDatabaseSchemaInternals::Column&gt; &gt; &gt; &gt;' filepath='/usr/lib/gcc/x86_64-redhat-linux/4.4.7/../../../../include/c++/4.4.7/bits/stl_vector.h' line='960' column='1' visibility='default' binding='global' size-in-bits='64'>
            <parameter type-id='type-id-303' is-artificial='yes'/>
            <parameter type-id='type-id-4'/>
            <parameter type-id='type-id-307'/>
            <parameter type-id='type-id-307'/>
            <return type-id='type-id-308'/>
          </function-decl>
        </member-function>
        <member-function access='protected'>
          <function-decl name='_M_fill_insert' mangled-name='_ZNSt6vectorIN29vtkSQLDatabaseSchemaInternals6ColumnESaIS1_EE14_M_fill_insertEN9__gnu_cxx17__normal_iteratorIPS1_S3_EEmRKS1_' filepath='/usr/lib/gcc/x86_64-redhat-linux/4.4.7/../../../../include/c++/4.4.7/bits/vector.tcc' line='372' column='1' visibility='default' binding='global' size-in-bits='64' elf-symbol-id='_ZNSt6vectorIN29vtkSQLDatabaseSchemaInternals6ColumnESaIS1_EE14_M_fill_insertEN9__gnu_cxx17__normal_iteratorIPS1_S3_EEmRKS1_'>
            <parameter type-id='type-id-309' name='this' is-artificial='yes'/>
            <parameter type-id='type-id-310' name='__position' filepath='/usr/lib/gcc/x86_64-redhat-linux/4.4.7/../../../../include/c++/4.4.7/bits/stl_vector.h' line='850' column='1'/>
            <parameter type-id='type-id-23' name='__n' filepath='/usr/lib/gcc/x86_64-redhat-linux/4.4.7/../../../../include/c++/4.4.7/bits/stl_vector.h' line='850' column='1'/>
            <parameter type-id='type-id-311' name='__x' filepath='/usr/lib/gcc/x86_64-redhat-linux/4.4.7/../../../../include/c++/4.4.7/bits/stl_vector.h' line='850' column='1'/>
            <return type-id='type-id-28'/>
          </function-decl>
        </member-function>
        <member-function access='private'>
          <function-decl name='operator=' mangled-name='_ZNSt6vectorIN29vtkSQLDatabaseSchemaInternals6ColumnESaIS1_EEaSERKS3_' filepath='/usr/lib/gcc/x86_64-redhat-linux/4.4.7/../../../../include/c++/4.4.7/bits/vector.tcc' line='156' column='1' visibility='default' binding='global' size-in-bits='64' elf-symbol-id='_ZNSt6vectorIN29vtkSQLDatabaseSchemaInternals6ColumnESaIS1_EEaSERKS3_'>
            <parameter type-id='type-id-309' name='this' is-artificial='yes'/>
            <parameter type-id='type-id-312' name='__x' filepath='/usr/lib/gcc/x86_64-redhat-linux/4.4.7/../../../../include/c++/4.4.7/bits/vector.tcc' line='157' column='1'/>
            <return type-id='type-id-313'/>
          </function-decl>
        </member-function>
      </class-decl>
    </namespace-decl>
    <namespace-decl name='std'>
      <class-decl name='vector&lt;vtkSQLDatabaseSchemaInternals::Index, std::allocator&lt;vtkSQLDatabaseSchemaInternals::Index&gt; &gt;' size-in-bits='192' visibility='default' filepath='/usr/lib/gcc/x86_64-redhat-linux/4.4.7/../../../../include/c++/4.4.7/bits/stl_vector.h' line='171' column='1' id='type-id-292'>
        <base-class access='protected' layout-offset-in-bits='0' type-id='type-id-314'/>
        <member-function access='private'>
          <function-decl name='vector' filepath='/usr/lib/gcc/x86_64-redhat-linux/4.4.7/../../../../include/c++/4.4.7/bits/stl_vector.h' line='207' column='1' visibility='default' binding='global' size-in-bits='64'>
            <parameter type-id='type-id-315' is-artificial='yes'/>
            <return type-id='type-id-28'/>
          </function-decl>
        </member-function>
        <member-function access='private'>
          <function-decl name='vector' filepath='/usr/lib/gcc/x86_64-redhat-linux/4.4.7/../../../../include/c++/4.4.7/bits/stl_vector.h' line='215' column='1' visibility='default' binding='global' size-in-bits='64'>
            <parameter type-id='type-id-315' is-artificial='yes'/>
            <parameter type-id='type-id-316'/>
            <return type-id='type-id-28'/>
          </function-decl>
        </member-function>
        <member-function access='private'>
          <function-decl name='vector' filepath='/usr/lib/gcc/x86_64-redhat-linux/4.4.7/../../../../include/c++/4.4.7/bits/stl_vector.h' line='227' column='1' visibility='default' binding='global' size-in-bits='64'>
            <parameter type-id='type-id-315' is-artificial='yes'/>
            <parameter type-id='type-id-4'/>
            <parameter type-id='type-id-317'/>
            <parameter type-id='type-id-316'/>
            <return type-id='type-id-28'/>
          </function-decl>
        </member-function>
        <member-function access='private'>
          <function-decl name='vector' filepath='/usr/lib/gcc/x86_64-redhat-linux/4.4.7/../../../../include/c++/4.4.7/bits/stl_vector.h' line='241' column='1' visibility='default' binding='global' size-in-bits='64'>
            <parameter type-id='type-id-315' is-artificial='yes'/>
            <parameter type-id='type-id-318'/>
            <return type-id='type-id-28'/>
          </function-decl>
        </member-function>
        <member-function access='private' destructor='yes'>
          <function-decl name='~vector' mangled-name='_ZNSt6vectorIN29vtkSQLDatabaseSchemaInternals5IndexESaIS1_EED1Ev' filepath='/usr/lib/gcc/x86_64-redhat-linux/4.4.7/../../../../include/c++/4.4.7/bits/stl_vector.h' line='312' column='1' visibility='default' binding='global' size-in-bits='64' elf-symbol-id='_ZNSt6vectorIN29vtkSQLDatabaseSchemaInternals5IndexESaIS1_EED1Ev'>
            <parameter type-id='type-id-315' is-artificial='yes'/>
            <parameter type-id='type-id-17' is-artificial='yes'/>
            <return type-id='type-id-28'/>
          </function-decl>
        </member-function>
        <member-function access='protected'>
          <function-decl name='_M_allocate_and_copy&lt;__gnu_cxx::__normal_iterator&lt;const vtkSQLDatabaseSchemaInternals::Index*, std::vector&lt;vtkSQLDatabaseSchemaInternals::Index, std::allocator&lt;vtkSQLDatabaseSchemaInternals::Index&gt; &gt; &gt; &gt;' filepath='/usr/lib/gcc/x86_64-redhat-linux/4.4.7/../../../../include/c++/4.4.7/bits/stl_vector.h' line='960' column='1' visibility='default' binding='global' size-in-bits='64'>
            <parameter type-id='type-id-315' is-artificial='yes'/>
            <parameter type-id='type-id-4'/>
            <parameter type-id='type-id-319'/>
            <parameter type-id='type-id-319'/>
            <return type-id='type-id-320'/>
          </function-decl>
        </member-function>
        <member-function access='protected'>
          <function-decl name='_M_fill_insert' mangled-name='_ZNSt6vectorIN29vtkSQLDatabaseSchemaInternals5IndexESaIS1_EE14_M_fill_insertEN9__gnu_cxx17__normal_iteratorIPS1_S3_EEmRKS1_' filepath='/usr/lib/gcc/x86_64-redhat-linux/4.4.7/../../../../include/c++/4.4.7/bits/vector.tcc' line='372' column='1' visibility='default' binding='global' size-in-bits='64' elf-symbol-id='_ZNSt6vectorIN29vtkSQLDatabaseSchemaInternals5IndexESaIS1_EE14_M_fill_insertEN9__gnu_cxx17__normal_iteratorIPS1_S3_EEmRKS1_'>
            <parameter type-id='type-id-321' name='this' is-artificial='yes'/>
            <parameter type-id='type-id-322' name='__position' filepath='/usr/lib/gcc/x86_64-redhat-linux/4.4.7/../../../../include/c++/4.4.7/bits/stl_vector.h' line='850' column='1'/>
            <parameter type-id='type-id-23' name='__n' filepath='/usr/lib/gcc/x86_64-redhat-linux/4.4.7/../../../../include/c++/4.4.7/bits/stl_vector.h' line='850' column='1'/>
            <parameter type-id='type-id-323' name='__x' filepath='/usr/lib/gcc/x86_64-redhat-linux/4.4.7/../../../../include/c++/4.4.7/bits/stl_vector.h' line='850' column='1'/>
            <return type-id='type-id-28'/>
          </function-decl>
        </member-function>
        <member-function access='private'>
          <function-decl name='operator=' mangled-name='_ZNSt6vectorIN29vtkSQLDatabaseSchemaInternals5IndexESaIS1_EEaSERKS3_' filepath='/usr/lib/gcc/x86_64-redhat-linux/4.4.7/../../../../include/c++/4.4.7/bits/vector.tcc' line='156' column='1' visibility='default' binding='global' size-in-bits='64' elf-symbol-id='_ZNSt6vectorIN29vtkSQLDatabaseSchemaInternals5IndexESaIS1_EEaSERKS3_'>
            <parameter type-id='type-id-321' name='this' is-artificial='yes'/>
            <parameter type-id='type-id-324' name='__x' filepath='/usr/lib/gcc/x86_64-redhat-linux/4.4.7/../../../../include/c++/4.4.7/bits/vector.tcc' line='157' column='1'/>
            <return type-id='type-id-325'/>
          </function-decl>
        </member-function>
      </class-decl>
    </namespace-decl>
    <namespace-decl name='std'>
      <class-decl name='vector&lt;vtkSQLDatabaseSchemaInternals::Option, std::allocator&lt;vtkSQLDatabaseSchemaInternals::Option&gt; &gt;' size-in-bits='192' visibility='default' filepath='/usr/lib/gcc/x86_64-redhat-linux/4.4.7/../../../../include/c++/4.4.7/bits/stl_vector.h' line='171' column='1' id='type-id-294'>
        <base-class access='protected' layout-offset-in-bits='0' type-id='type-id-326'/>
        <member-function access='private'>
          <function-decl name='vector' filepath='/usr/lib/gcc/x86_64-redhat-linux/4.4.7/../../../../include/c++/4.4.7/bits/stl_vector.h' line='207' column='1' visibility='default' binding='global' size-in-bits='64'>
            <parameter type-id='type-id-327' is-artificial='yes'/>
            <return type-id='type-id-28'/>
          </function-decl>
        </member-function>
        <member-function access='private'>
          <function-decl name='vector' filepath='/usr/lib/gcc/x86_64-redhat-linux/4.4.7/../../../../include/c++/4.4.7/bits/stl_vector.h' line='215' column='1' visibility='default' binding='global' size-in-bits='64'>
            <parameter type-id='type-id-327' is-artificial='yes'/>
            <parameter type-id='type-id-328'/>
            <return type-id='type-id-28'/>
          </function-decl>
        </member-function>
        <member-function access='private'>
          <function-decl name='vector' filepath='/usr/lib/gcc/x86_64-redhat-linux/4.4.7/../../../../include/c++/4.4.7/bits/stl_vector.h' line='227' column='1' visibility='default' binding='global' size-in-bits='64'>
            <parameter type-id='type-id-327' is-artificial='yes'/>
            <parameter type-id='type-id-4'/>
            <parameter type-id='type-id-329'/>
            <parameter type-id='type-id-328'/>
            <return type-id='type-id-28'/>
          </function-decl>
        </member-function>
        <member-function access='private'>
          <function-decl name='vector' filepath='/usr/lib/gcc/x86_64-redhat-linux/4.4.7/../../../../include/c++/4.4.7/bits/stl_vector.h' line='241' column='1' visibility='default' binding='global' size-in-bits='64'>
            <parameter type-id='type-id-327' is-artificial='yes'/>
            <parameter type-id='type-id-330'/>
            <return type-id='type-id-28'/>
          </function-decl>
        </member-function>
        <member-function access='private' destructor='yes'>
          <function-decl name='~vector' filepath='/usr/lib/gcc/x86_64-redhat-linux/4.4.7/../../../../include/c++/4.4.7/bits/stl_vector.h' line='312' column='1' visibility='default' binding='global' size-in-bits='64'>
            <parameter type-id='type-id-327' is-artificial='yes'/>
            <parameter type-id='type-id-17' is-artificial='yes'/>
            <return type-id='type-id-28'/>
          </function-decl>
        </member-function>
        <member-function access='protected'>
          <function-decl name='_M_allocate_and_copy&lt;__gnu_cxx::__normal_iterator&lt;const vtkSQLDatabaseSchemaInternals::Option*, std::vector&lt;vtkSQLDatabaseSchemaInternals::Option, std::allocator&lt;vtkSQLDatabaseSchemaInternals::Option&gt; &gt; &gt; &gt;' filepath='/usr/lib/gcc/x86_64-redhat-linux/4.4.7/../../../../include/c++/4.4.7/bits/stl_vector.h' line='960' column='1' visibility='default' binding='global' size-in-bits='64'>
            <parameter type-id='type-id-327' is-artificial='yes'/>
            <parameter type-id='type-id-4'/>
            <parameter type-id='type-id-331'/>
            <parameter type-id='type-id-331'/>
            <return type-id='type-id-332'/>
          </function-decl>
        </member-function>
        <member-function access='protected'>
          <function-decl name='_M_fill_insert' mangled-name='_ZNSt6vectorIN29vtkSQLDatabaseSchemaInternals6OptionESaIS1_EE14_M_fill_insertEN9__gnu_cxx17__normal_iteratorIPS1_S3_EEmRKS1_' filepath='/usr/lib/gcc/x86_64-redhat-linux/4.4.7/../../../../include/c++/4.4.7/bits/vector.tcc' line='372' column='1' visibility='default' binding='global' size-in-bits='64' elf-symbol-id='_ZNSt6vectorIN29vtkSQLDatabaseSchemaInternals6OptionESaIS1_EE14_M_fill_insertEN9__gnu_cxx17__normal_iteratorIPS1_S3_EEmRKS1_'>
            <parameter type-id='type-id-333' name='this' is-artificial='yes'/>
            <parameter type-id='type-id-334' name='__position' filepath='/usr/lib/gcc/x86_64-redhat-linux/4.4.7/../../../../include/c++/4.4.7/bits/stl_vector.h' line='850' column='1'/>
            <parameter type-id='type-id-23' name='__n' filepath='/usr/lib/gcc/x86_64-redhat-linux/4.4.7/../../../../include/c++/4.4.7/bits/stl_vector.h' line='850' column='1'/>
            <parameter type-id='type-id-335' name='__x' filepath='/usr/lib/gcc/x86_64-redhat-linux/4.4.7/../../../../include/c++/4.4.7/bits/stl_vector.h' line='850' column='1'/>
            <return type-id='type-id-28'/>
          </function-decl>
        </member-function>
        <member-function access='private'>
          <function-decl name='operator=' mangled-name='_ZNSt6vectorIN29vtkSQLDatabaseSchemaInternals6OptionESaIS1_EEaSERKS3_' filepath='/usr/lib/gcc/x86_64-redhat-linux/4.4.7/../../../../include/c++/4.4.7/bits/vector.tcc' line='156' column='1' visibility='default' binding='global' size-in-bits='64' elf-symbol-id='_ZNSt6vectorIN29vtkSQLDatabaseSchemaInternals6OptionESaIS1_EEaSERKS3_'>
            <parameter type-id='type-id-333' name='this' is-artificial='yes'/>
            <parameter type-id='type-id-336' name='__x' filepath='/usr/lib/gcc/x86_64-redhat-linux/4.4.7/../../../../include/c++/4.4.7/bits/vector.tcc' line='157' column='1'/>
            <return type-id='type-id-337'/>
          </function-decl>
        </member-function>
      </class-decl>
    </namespace-decl>
    <namespace-decl name='std'>
      <class-decl name='vector&lt;vtkSQLDatabaseSchemaInternals::Statement, std::allocator&lt;vtkSQLDatabaseSchemaInternals::Statement&gt; &gt;' size-in-bits='192' visibility='default' filepath='/usr/lib/gcc/x86_64-redhat-linux/4.4.7/../../../../include/c++/4.4.7/bits/stl_vector.h' line='171' column='1' id='type-id-295'>
        <base-class access='protected' layout-offset-in-bits='0' type-id='type-id-338'/>
        <member-function access='private'>
          <function-decl name='vector' filepath='/usr/lib/gcc/x86_64-redhat-linux/4.4.7/../../../../include/c++/4.4.7/bits/stl_vector.h' line='207' column='1' visibility='default' binding='global' size-in-bits='64'>
            <parameter type-id='type-id-339' is-artificial='yes'/>
            <return type-id='type-id-28'/>
          </function-decl>
        </member-function>
        <member-function access='private'>
          <function-decl name='vector' filepath='/usr/lib/gcc/x86_64-redhat-linux/4.4.7/../../../../include/c++/4.4.7/bits/stl_vector.h' line='215' column='1' visibility='default' binding='global' size-in-bits='64'>
            <parameter type-id='type-id-339' is-artificial='yes'/>
            <parameter type-id='type-id-340'/>
            <return type-id='type-id-28'/>
          </function-decl>
        </member-function>
        <member-function access='private'>
          <function-decl name='vector' filepath='/usr/lib/gcc/x86_64-redhat-linux/4.4.7/../../../../include/c++/4.4.7/bits/stl_vector.h' line='227' column='1' visibility='default' binding='global' size-in-bits='64'>
            <parameter type-id='type-id-339' is-artificial='yes'/>
            <parameter type-id='type-id-4'/>
            <parameter type-id='type-id-341'/>
            <parameter type-id='type-id-340'/>
            <return type-id='type-id-28'/>
          </function-decl>
        </member-function>
        <member-function access='private'>
          <function-decl name='vector' filepath='/usr/lib/gcc/x86_64-redhat-linux/4.4.7/../../../../include/c++/4.4.7/bits/stl_vector.h' line='241' column='1' visibility='default' binding='global' size-in-bits='64'>
            <parameter type-id='type-id-339' is-artificial='yes'/>
            <parameter type-id='type-id-342'/>
            <return type-id='type-id-28'/>
          </function-decl>
        </member-function>
        <member-function access='private' destructor='yes'>
          <function-decl name='~vector' mangled-name='_ZNSt6vectorIN29vtkSQLDatabaseSchemaInternals9StatementESaIS1_EED1Ev' filepath='/usr/lib/gcc/x86_64-redhat-linux/4.4.7/../../../../include/c++/4.4.7/bits/stl_vector.h' line='312' column='1' visibility='default' binding='global' size-in-bits='64' elf-symbol-id='_ZNSt6vectorIN29vtkSQLDatabaseSchemaInternals9StatementESaIS1_EED1Ev'>
            <parameter type-id='type-id-339' is-artificial='yes'/>
            <parameter type-id='type-id-17' is-artificial='yes'/>
            <return type-id='type-id-28'/>
          </function-decl>
        </member-function>
        <member-function access='protected'>
          <function-decl name='_M_insert_aux' mangled-name='_ZNSt6vectorIN29vtkSQLDatabaseSchemaInternals9StatementESaIS1_EE13_M_insert_auxEN9__gnu_cxx17__normal_iteratorIPS1_S3_EERKS1_' filepath='/usr/lib/gcc/x86_64-redhat-linux/4.4.7/../../../../include/c++/4.4.7/bits/vector.tcc' line='295' column='1' visibility='default' binding='global' size-in-bits='64' elf-symbol-id='_ZNSt6vectorIN29vtkSQLDatabaseSchemaInternals9StatementESaIS1_EE13_M_insert_auxEN9__gnu_cxx17__normal_iteratorIPS1_S3_EERKS1_'>
            <parameter type-id='type-id-343' name='this' is-artificial='yes'/>
            <parameter type-id='type-id-344' name='__position' filepath='/usr/lib/gcc/x86_64-redhat-linux/4.4.7/../../../../include/c++/4.4.7/bits/vector.tcc' line='296' column='1'/>
            <parameter type-id='type-id-345' name='__x' filepath='/usr/lib/gcc/x86_64-redhat-linux/4.4.7/../../../../include/c++/4.4.7/bits/vector.tcc' line='296' column='1'/>
            <return type-id='type-id-28'/>
          </function-decl>
        </member-function>
      </class-decl>
    </namespace-decl>
    <namespace-decl name='std'>
      <class-decl name='vector&lt;vtkSQLDatabaseSchemaInternals::Table, std::allocator&lt;vtkSQLDatabaseSchemaInternals::Table&gt; &gt;' size-in-bits='192' visibility='default' filepath='/usr/lib/gcc/x86_64-redhat-linux/4.4.7/../../../../include/c++/4.4.7/bits/stl_vector.h' line='171' column='1' id='type-id-296'>
        <base-class access='protected' layout-offset-in-bits='0' type-id='type-id-346'/>
        <member-function access='private'>
          <function-decl name='vector' filepath='/usr/lib/gcc/x86_64-redhat-linux/4.4.7/../../../../include/c++/4.4.7/bits/stl_vector.h' line='207' column='1' visibility='default' binding='global' size-in-bits='64'>
            <parameter type-id='type-id-347' is-artificial='yes'/>
            <return type-id='type-id-28'/>
          </function-decl>
        </member-function>
        <member-function access='private'>
          <function-decl name='vector' filepath='/usr/lib/gcc/x86_64-redhat-linux/4.4.7/../../../../include/c++/4.4.7/bits/stl_vector.h' line='215' column='1' visibility='default' binding='global' size-in-bits='64'>
            <parameter type-id='type-id-347' is-artificial='yes'/>
            <parameter type-id='type-id-348'/>
            <return type-id='type-id-28'/>
          </function-decl>
        </member-function>
        <member-function access='private'>
          <function-decl name='vector' filepath='/usr/lib/gcc/x86_64-redhat-linux/4.4.7/../../../../include/c++/4.4.7/bits/stl_vector.h' line='227' column='1' visibility='default' binding='global' size-in-bits='64'>
            <parameter type-id='type-id-347' is-artificial='yes'/>
            <parameter type-id='type-id-4'/>
            <parameter type-id='type-id-349'/>
            <parameter type-id='type-id-348'/>
            <return type-id='type-id-28'/>
          </function-decl>
        </member-function>
        <member-function access='private'>
          <function-decl name='vector' filepath='/usr/lib/gcc/x86_64-redhat-linux/4.4.7/../../../../include/c++/4.4.7/bits/stl_vector.h' line='241' column='1' visibility='default' binding='global' size-in-bits='64'>
            <parameter type-id='type-id-347' is-artificial='yes'/>
            <parameter type-id='type-id-350'/>
            <return type-id='type-id-28'/>
          </function-decl>
        </member-function>
        <member-function access='private' destructor='yes'>
          <function-decl name='~vector' filepath='/usr/lib/gcc/x86_64-redhat-linux/4.4.7/../../../../include/c++/4.4.7/bits/stl_vector.h' line='312' column='1' visibility='default' binding='global' size-in-bits='64'>
            <parameter type-id='type-id-347' is-artificial='yes'/>
            <parameter type-id='type-id-17' is-artificial='yes'/>
            <return type-id='type-id-28'/>
          </function-decl>
        </member-function>
        <member-function access='protected'>
          <function-decl name='_M_insert_aux' mangled-name='_ZNSt6vectorIN29vtkSQLDatabaseSchemaInternals5TableESaIS1_EE13_M_insert_auxEN9__gnu_cxx17__normal_iteratorIPS1_S3_EERKS1_' filepath='/usr/lib/gcc/x86_64-redhat-linux/4.4.7/../../../../include/c++/4.4.7/bits/vector.tcc' line='295' column='1' visibility='default' binding='global' size-in-bits='64' elf-symbol-id='_ZNSt6vectorIN29vtkSQLDatabaseSchemaInternals5TableESaIS1_EE13_M_insert_auxEN9__gnu_cxx17__normal_iteratorIPS1_S3_EERKS1_'>
            <parameter type-id='type-id-351' name='this' is-artificial='yes'/>
            <parameter type-id='type-id-352' name='__position' filepath='/usr/lib/gcc/x86_64-redhat-linux/4.4.7/../../../../include/c++/4.4.7/bits/vector.tcc' line='296' column='1'/>
            <parameter type-id='type-id-353' name='__x' filepath='/usr/lib/gcc/x86_64-redhat-linux/4.4.7/../../../../include/c++/4.4.7/bits/vector.tcc' line='296' column='1'/>
            <return type-id='type-id-28'/>
          </function-decl>
        </member-function>
      </class-decl>
    </namespace-decl>
    <namespace-decl name='std'>
      <class-decl name='vector&lt;vtkSQLDatabaseSchemaInternals::Trigger, std::allocator&lt;vtkSQLDatabaseSchemaInternals::Trigger&gt; &gt;' size-in-bits='192' visibility='default' filepath='/usr/lib/gcc/x86_64-redhat-linux/4.4.7/../../../../include/c++/4.4.7/bits/stl_vector.h' line='171' column='1' id='type-id-293'>
        <base-class access='protected' layout-offset-in-bits='0' type-id='type-id-354'/>
        <member-function access='private'>
          <function-decl name='vector' filepath='/usr/lib/gcc/x86_64-redhat-linux/4.4.7/../../../../include/c++/4.4.7/bits/stl_vector.h' line='207' column='1' visibility='default' binding='global' size-in-bits='64'>
            <parameter type-id='type-id-355' is-artificial='yes'/>
            <return type-id='type-id-28'/>
          </function-decl>
        </member-function>
        <member-function access='private'>
          <function-decl name='vector' filepath='/usr/lib/gcc/x86_64-redhat-linux/4.4.7/../../../../include/c++/4.4.7/bits/stl_vector.h' line='215' column='1' visibility='default' binding='global' size-in-bits='64'>
            <parameter type-id='type-id-355' is-artificial='yes'/>
            <parameter type-id='type-id-356'/>
            <return type-id='type-id-28'/>
          </function-decl>
        </member-function>
        <member-function access='private'>
          <function-decl name='vector' filepath='/usr/lib/gcc/x86_64-redhat-linux/4.4.7/../../../../include/c++/4.4.7/bits/stl_vector.h' line='227' column='1' visibility='default' binding='global' size-in-bits='64'>
            <parameter type-id='type-id-355' is-artificial='yes'/>
            <parameter type-id='type-id-4'/>
            <parameter type-id='type-id-357'/>
            <parameter type-id='type-id-356'/>
            <return type-id='type-id-28'/>
          </function-decl>
        </member-function>
        <member-function access='private'>
          <function-decl name='vector' filepath='/usr/lib/gcc/x86_64-redhat-linux/4.4.7/../../../../include/c++/4.4.7/bits/stl_vector.h' line='241' column='1' visibility='default' binding='global' size-in-bits='64'>
            <parameter type-id='type-id-355' is-artificial='yes'/>
            <parameter type-id='type-id-358'/>
            <return type-id='type-id-28'/>
          </function-decl>
        </member-function>
        <member-function access='private' destructor='yes'>
          <function-decl name='~vector' mangled-name='_ZNSt6vectorIN29vtkSQLDatabaseSchemaInternals7TriggerESaIS1_EED1Ev' filepath='/usr/lib/gcc/x86_64-redhat-linux/4.4.7/../../../../include/c++/4.4.7/bits/stl_vector.h' line='312' column='1' visibility='default' binding='global' size-in-bits='64' elf-symbol-id='_ZNSt6vectorIN29vtkSQLDatabaseSchemaInternals7TriggerESaIS1_EED1Ev'>
            <parameter type-id='type-id-355' is-artificial='yes'/>
            <parameter type-id='type-id-17' is-artificial='yes'/>
            <return type-id='type-id-28'/>
          </function-decl>
        </member-function>
        <member-function access='protected'>
          <function-decl name='_M_allocate_and_copy&lt;__gnu_cxx::__normal_iterator&lt;const vtkSQLDatabaseSchemaInternals::Trigger*, std::vector&lt;vtkSQLDatabaseSchemaInternals::Trigger, std::allocator&lt;vtkSQLDatabaseSchemaInternals::Trigger&gt; &gt; &gt; &gt;' filepath='/usr/lib/gcc/x86_64-redhat-linux/4.4.7/../../../../include/c++/4.4.7/bits/stl_vector.h' line='960' column='1' visibility='default' binding='global' size-in-bits='64'>
            <parameter type-id='type-id-355' is-artificial='yes'/>
            <parameter type-id='type-id-4'/>
            <parameter type-id='type-id-359'/>
            <parameter type-id='type-id-359'/>
            <return type-id='type-id-360'/>
          </function-decl>
        </member-function>
        <member-function access='protected'>
          <function-decl name='_M_fill_insert' mangled-name='_ZNSt6vectorIN29vtkSQLDatabaseSchemaInternals7TriggerESaIS1_EE14_M_fill_insertEN9__gnu_cxx17__normal_iteratorIPS1_S3_EEmRKS1_' filepath='/usr/lib/gcc/x86_64-redhat-linux/4.4.7/../../../../include/c++/4.4.7/bits/vector.tcc' line='372' column='1' visibility='default' binding='global' size-in-bits='64' elf-symbol-id='_ZNSt6vectorIN29vtkSQLDatabaseSchemaInternals7TriggerESaIS1_EE14_M_fill_insertEN9__gnu_cxx17__normal_iteratorIPS1_S3_EEmRKS1_'>
            <parameter type-id='type-id-361' name='this' is-artificial='yes'/>
            <parameter type-id='type-id-362' name='__position' filepath='/usr/lib/gcc/x86_64-redhat-linux/4.4.7/../../../../include/c++/4.4.7/bits/stl_vector.h' line='850' column='1'/>
            <parameter type-id='type-id-23' name='__n' filepath='/usr/lib/gcc/x86_64-redhat-linux/4.4.7/../../../../include/c++/4.4.7/bits/stl_vector.h' line='850' column='1'/>
            <parameter type-id='type-id-363' name='__x' filepath='/usr/lib/gcc/x86_64-redhat-linux/4.4.7/../../../../include/c++/4.4.7/bits/stl_vector.h' line='850' column='1'/>
            <return type-id='type-id-28'/>
          </function-decl>
        </member-function>
        <member-function access='private'>
          <function-decl name='operator=' mangled-name='_ZNSt6vectorIN29vtkSQLDatabaseSchemaInternals7TriggerESaIS1_EEaSERKS3_' filepath='/usr/lib/gcc/x86_64-redhat-linux/4.4.7/../../../../include/c++/4.4.7/bits/vector.tcc' line='156' column='1' visibility='default' binding='global' size-in-bits='64' elf-symbol-id='_ZNSt6vectorIN29vtkSQLDatabaseSchemaInternals7TriggerESaIS1_EEaSERKS3_'>
            <parameter type-id='type-id-361' name='this' is-artificial='yes'/>
            <parameter type-id='type-id-364' name='__x' filepath='/usr/lib/gcc/x86_64-redhat-linux/4.4.7/../../../../include/c++/4.4.7/bits/vector.tcc' line='157' column='1'/>
            <return type-id='type-id-365'/>
          </function-decl>
        </member-function>
      </class-decl>
    </namespace-decl>
    <namespace-decl name='std'>
      <class-decl name='vector&lt;vtkStdString, std::allocator&lt;vtkStdString&gt; &gt;' size-in-bits='192' visibility='default' filepath='/usr/lib/gcc/x86_64-redhat-linux/4.4.7/../../../../include/c++/4.4.7/bits/stl_vector.h' line='171' column='1' id='type-id-287'>
        <base-class access='protected' layout-offset-in-bits='0' type-id='type-id-366'/>
        <member-function access='private'>
          <function-decl name='vector' filepath='/usr/lib/gcc/x86_64-redhat-linux/4.4.7/../../../../include/c++/4.4.7/bits/stl_vector.h' line='207' column='1' visibility='default' binding='global' size-in-bits='64'>
            <parameter type-id='type-id-367' is-artificial='yes'/>
            <return type-id='type-id-28'/>
          </function-decl>
        </member-function>
        <member-function access='private'>
          <function-decl name='vector' filepath='/usr/lib/gcc/x86_64-redhat-linux/4.4.7/../../../../include/c++/4.4.7/bits/stl_vector.h' line='215' column='1' visibility='default' binding='global' size-in-bits='64'>
            <parameter type-id='type-id-367' is-artificial='yes'/>
            <parameter type-id='type-id-368'/>
            <return type-id='type-id-28'/>
          </function-decl>
        </member-function>
        <member-function access='private'>
          <function-decl name='vector' filepath='/usr/lib/gcc/x86_64-redhat-linux/4.4.7/../../../../include/c++/4.4.7/bits/stl_vector.h' line='227' column='1' visibility='default' binding='global' size-in-bits='64'>
            <parameter type-id='type-id-367' is-artificial='yes'/>
            <parameter type-id='type-id-4'/>
            <parameter type-id='type-id-259'/>
            <parameter type-id='type-id-368'/>
            <return type-id='type-id-28'/>
          </function-decl>
        </member-function>
        <member-function access='private'>
          <function-decl name='vector' filepath='/usr/lib/gcc/x86_64-redhat-linux/4.4.7/../../../../include/c++/4.4.7/bits/stl_vector.h' line='241' column='1' visibility='default' binding='global' size-in-bits='64'>
            <parameter type-id='type-id-367' is-artificial='yes'/>
            <parameter type-id='type-id-369'/>
            <return type-id='type-id-28'/>
          </function-decl>
        </member-function>
        <member-function access='private' destructor='yes'>
          <function-decl name='~vector' mangled-name='_ZNSt6vectorI12vtkStdStringSaIS0_EED1Ev' filepath='/usr/lib/gcc/x86_64-redhat-linux/4.4.7/../../../../include/c++/4.4.7/bits/stl_vector.h' line='312' column='1' visibility='default' binding='global' size-in-bits='64' elf-symbol-id='_ZNSt6vectorI12vtkStdStringSaIS0_EED1Ev'>
            <parameter type-id='type-id-367' is-artificial='yes'/>
            <parameter type-id='type-id-17' is-artificial='yes'/>
            <return type-id='type-id-28'/>
          </function-decl>
        </member-function>
        <member-function access='protected'>
          <function-decl name='_M_insert_aux' mangled-name='_ZNSt6vectorI12vtkStdStringSaIS0_EE13_M_insert_auxEN9__gnu_cxx17__normal_iteratorIPS0_S2_EERKS0_' filepath='/usr/lib/gcc/x86_64-redhat-linux/4.4.7/../../../../include/c++/4.4.7/bits/vector.tcc' line='295' column='1' visibility='default' binding='global' size-in-bits='64' elf-symbol-id='_ZNSt6vectorI12vtkStdStringSaIS0_EE13_M_insert_auxEN9__gnu_cxx17__normal_iteratorIPS0_S2_EERKS0_'>
            <parameter type-id='type-id-370' name='this' is-artificial='yes'/>
            <parameter type-id='type-id-371' name='__position' filepath='/usr/lib/gcc/x86_64-redhat-linux/4.4.7/../../../../include/c++/4.4.7/bits/vector.tcc' line='296' column='1'/>
            <parameter type-id='type-id-372' name='__x' filepath='/usr/lib/gcc/x86_64-redhat-linux/4.4.7/../../../../include/c++/4.4.7/bits/vector.tcc' line='296' column='1'/>
            <return type-id='type-id-28'/>
          </function-decl>
        </member-function>
        <member-function access='protected'>
          <function-decl name='_M_allocate_and_copy&lt;__gnu_cxx::__normal_iterator&lt;const vtkStdString*, std::vector&lt;vtkStdString, std::allocator&lt;vtkStdString&gt; &gt; &gt; &gt;' filepath='/usr/lib/gcc/x86_64-redhat-linux/4.4.7/../../../../include/c++/4.4.7/bits/stl_vector.h' line='960' column='1' visibility='default' binding='global' size-in-bits='64'>
            <parameter type-id='type-id-367' is-artificial='yes'/>
            <parameter type-id='type-id-4'/>
            <parameter type-id='type-id-373'/>
            <parameter type-id='type-id-373'/>
            <return type-id='type-id-85'/>
          </function-decl>
        </member-function>
        <member-function access='private'>
          <function-decl name='operator=' mangled-name='_ZNSt6vectorI12vtkStdStringSaIS0_EEaSERKS2_' filepath='/usr/lib/gcc/x86_64-redhat-linux/4.4.7/../../../../include/c++/4.4.7/bits/vector.tcc' line='156' column='1' visibility='default' binding='global' size-in-bits='64' elf-symbol-id='_ZNSt6vectorI12vtkStdStringSaIS0_EEaSERKS2_'>
            <parameter type-id='type-id-370' name='this' is-artificial='yes'/>
            <parameter type-id='type-id-374' name='__x' filepath='/usr/lib/gcc/x86_64-redhat-linux/4.4.7/../../../../include/c++/4.4.7/bits/vector.tcc' line='157' column='1'/>
            <return type-id='type-id-375'/>
          </function-decl>
        </member-function>
      </class-decl>
    </namespace-decl>
    <class-decl name='vtkUnicodeString' size-in-bits='64' visibility='default' filepath='/var/tmp/gamblin2/spack-stage/spack-stage-hrtRhh/VTK-6.1.0/Common/Core/vtkUnicodeString.h' line='67' column='1' id='type-id-300'>
      <member-type access='private'>
        <class-decl name='const_iterator' size-in-bits='64' visibility='default' filepath='/var/tmp/gamblin2/spack-stage/spack-stage-hrtRhh/VTK-6.1.0/Common/Core/vtkUnicodeString.h' line='73' column='1' id='type-id-376'>
          <member-type access='private'>
            <typedef-decl name='value_type' type-id='type-id-378' filepath='/var/tmp/gamblin2/spack-stage/spack-stage-hrtRhh/VTK-6.1.0/Common/Core/vtkUnicodeString.h' line='76' column='1' id='type-id-377'/>
          </member-type>
          <data-member access='private' layout-offset-in-bits='0'>
            <var-decl name='Position' type-id='type-id-216' visibility='default' filepath='/var/tmp/gamblin2/spack-stage/spack-stage-hrtRhh/VTK-6.1.0/Common/Core/vtkUnicodeString.h' line='94' column='1'/>
          </data-member>
          <member-function access='private' constructor='yes'>
            <function-decl name='const_iterator' filepath='/var/tmp/gamblin2/spack-stage/spack-stage-hrtRhh/VTK-6.1.0/Common/Core/vtkUnicodeString.h' line='81' column='1' visibility='default' binding='global' size-in-bits='64'>
              <parameter type-id='type-id-379' is-artificial='yes'/>
              <return type-id='type-id-28'/>
            </function-decl>
          </member-function>
          <member-function access='private' constructor='yes'>
            <function-decl name='const_iterator' filepath='/var/tmp/gamblin2/spack-stage/spack-stage-hrtRhh/VTK-6.1.0/Common/Core/vtkUnicodeString.h' line='92' column='1' visibility='default' binding='global' size-in-bits='64'>
              <parameter type-id='type-id-379' is-artificial='yes'/>
              <parameter type-id='type-id-216'/>
              <return type-id='type-id-28'/>
            </function-decl>
          </member-function>
        </class-decl>
      </member-type>
      <member-type access='private'>
        <typedef-decl name='size_type' type-id='type-id-23' filepath='/var/tmp/gamblin2/spack-stage/spack-stage-hrtRhh/VTK-6.1.0/Common/Core/vtkUnicodeString.h' line='70' column='1' id='type-id-380'/>
      </member-type>
      <member-type access='private'>
        <typedef-decl name='value_type' type-id='type-id-378' filepath='/var/tmp/gamblin2/spack-stage/spack-stage-hrtRhh/VTK-6.1.0/Common/Core/vtkUnicodeString.h' line='69' column='1' id='type-id-381'/>
      </member-type>
      <data-member access='private' static='yes'>
        <var-decl name='npos' type-id='type-id-382' visibility='default' filepath='/var/tmp/gamblin2/spack-stage/spack-stage-hrtRhh/VTK-6.1.0/Common/Core/vtkUnicodeString.h' line='175' column='1'/>
      </data-member>
      <data-member access='private' layout-offset-in-bits='0'>
        <var-decl name='Storage' type-id='type-id-81' visibility='default' filepath='/var/tmp/gamblin2/spack-stage/spack-stage-hrtRhh/VTK-6.1.0/Common/Core/vtkUnicodeString.h' line='231' column='1'/>
      </data-member>
      <member-function access='private' constructor='yes'>
        <function-decl name='vtkUnicodeString' filepath='/var/tmp/gamblin2/spack-stage/spack-stage-hrtRhh/VTK-6.1.0/Common/Core/vtkUnicodeString.h' line='99' column='1' visibility='default' binding='global' size-in-bits='64'>
          <parameter type-id='type-id-273' is-artificial='yes'/>
          <return type-id='type-id-28'/>
        </function-decl>
      </member-function>
      <member-function access='private' constructor='yes'>
        <function-decl name='vtkUnicodeString' filepath='/var/tmp/gamblin2/spack-stage/spack-stage-hrtRhh/VTK-6.1.0/Common/Core/vtkUnicodeString.h' line='102' column='1' visibility='default' binding='global' size-in-bits='64'>
          <parameter type-id='type-id-273' is-artificial='yes'/>
          <parameter type-id='type-id-276'/>
          <return type-id='type-id-28'/>
        </function-decl>
      </member-function>
      <member-function access='private' constructor='yes'>
        <function-decl name='vtkUnicodeString' filepath='/var/tmp/gamblin2/spack-stage/spack-stage-hrtRhh/VTK-6.1.0/Common/Core/vtkUnicodeString.h' line='106' column='1' visibility='default' binding='global' size-in-bits='64'>
          <parameter type-id='type-id-273' is-artificial='yes'/>
          <parameter type-id='type-id-380'/>
          <parameter type-id='type-id-381'/>
          <return type-id='type-id-28'/>
        </function-decl>
      </member-function>
      <member-function access='private' constructor='yes'>
        <function-decl name='vtkUnicodeString' filepath='/var/tmp/gamblin2/spack-stage/spack-stage-hrtRhh/VTK-6.1.0/Common/Core/vtkUnicodeString.h' line='109' column='1' visibility='default' binding='global' size-in-bits='64'>
          <parameter type-id='type-id-273' is-artificial='yes'/>
          <parameter type-id='type-id-376'/>
          <parameter type-id='type-id-376'/>
          <return type-id='type-id-28'/>
        </function-decl>
      </member-function>
    </class-decl>
    <class-decl name='vtkVariantArray' visibility='default' is-declaration-only='yes' id='type-id-301'/>
    <reference-type-def kind='lvalue' type-id='type-id-383' size-in-bits='64' id='type-id-283'/>
    <qualified-type-def type-id='type-id-251' const='yes' id='type-id-297'/>
    <qualified-type-def type-id='type-id-300' const='yes' id='type-id-298'/>
    <qualified-type-def type-id='type-id-260' const='yes' id='type-id-299'/>
    <namespace-decl name='__gnu_cxx'>
      <class-decl name='__normal_iterator&lt;const vtkSQLDatabaseSchemaInternals::Column*, std::vector&lt;vtkSQLDatabaseSchemaInternals::Column, std::allocator&lt;vtkSQLDatabaseSchemaInternals::Column&gt; &gt; &gt;' size-in-bits='64' visibility='default' filepath='/usr/lib/gcc/x86_64-redhat-linux/4.4.7/../../../../include/c++/4.4.7/bits/stl_iterator.h' line='669' column='1' id='type-id-307'>
        <data-member access='protected' layout-offset-in-bits='0'>
          <var-decl name='_M_current' type-id='type-id-384' visibility='default' filepath='/usr/lib/gcc/x86_64-redhat-linux/4.4.7/../../../../include/c++/4.4.7/bits/stl_iterator.h' line='671' column='1'/>
        </data-member>
        <member-function access='private'>
          <function-decl name='__normal_iterator' filepath='/usr/lib/gcc/x86_64-redhat-linux/4.4.7/../../../../include/c++/4.4.7/bits/stl_iterator.h' line='683' column='1' visibility='default' binding='global' size-in-bits='64'>
            <parameter type-id='type-id-385' is-artificial='yes'/>
            <return type-id='type-id-28'/>
          </function-decl>
        </member-function>
        <member-function access='private'>
          <function-decl name='__normal_iterator' filepath='/usr/lib/gcc/x86_64-redhat-linux/4.4.7/../../../../include/c++/4.4.7/bits/stl_iterator.h' line='686' column='1' visibility='default' binding='global' size-in-bits='64'>
            <parameter type-id='type-id-385' is-artificial='yes'/>
            <parameter type-id='type-id-386'/>
            <return type-id='type-id-28'/>
          </function-decl>
        </member-function>
      </class-decl>
    </namespace-decl>
    <namespace-decl name='__gnu_cxx'>
      <class-decl name='__normal_iterator&lt;const vtkSQLDatabaseSchemaInternals::Index*, std::vector&lt;vtkSQLDatabaseSchemaInternals::Index, std::allocator&lt;vtkSQLDatabaseSchemaInternals::Index&gt; &gt; &gt;' size-in-bits='64' visibility='default' filepath='/usr/lib/gcc/x86_64-redhat-linux/4.4.7/../../../../include/c++/4.4.7/bits/stl_iterator.h' line='669' column='1' id='type-id-319'>
        <data-member access='protected' layout-offset-in-bits='0'>
          <var-decl name='_M_current' type-id='type-id-387' visibility='default' filepath='/usr/lib/gcc/x86_64-redhat-linux/4.4.7/../../../../include/c++/4.4.7/bits/stl_iterator.h' line='671' column='1'/>
        </data-member>
        <member-function access='private'>
          <function-decl name='__normal_iterator' filepath='/usr/lib/gcc/x86_64-redhat-linux/4.4.7/../../../../include/c++/4.4.7/bits/stl_iterator.h' line='683' column='1' visibility='default' binding='global' size-in-bits='64'>
            <parameter type-id='type-id-388' is-artificial='yes'/>
            <return type-id='type-id-28'/>
          </function-decl>
        </member-function>
        <member-function access='private'>
          <function-decl name='__normal_iterator' filepath='/usr/lib/gcc/x86_64-redhat-linux/4.4.7/../../../../include/c++/4.4.7/bits/stl_iterator.h' line='686' column='1' visibility='default' binding='global' size-in-bits='64'>
            <parameter type-id='type-id-388' is-artificial='yes'/>
            <parameter type-id='type-id-389'/>
            <return type-id='type-id-28'/>
          </function-decl>
        </member-function>
      </class-decl>
    </namespace-decl>
    <namespace-decl name='__gnu_cxx'>
      <class-decl name='__normal_iterator&lt;const vtkSQLDatabaseSchemaInternals::Option*, std::vector&lt;vtkSQLDatabaseSchemaInternals::Option, std::allocator&lt;vtkSQLDatabaseSchemaInternals::Option&gt; &gt; &gt;' size-in-bits='64' visibility='default' filepath='/usr/lib/gcc/x86_64-redhat-linux/4.4.7/../../../../include/c++/4.4.7/bits/stl_iterator.h' line='669' column='1' id='type-id-331'>
        <data-member access='protected' layout-offset-in-bits='0'>
          <var-decl name='_M_current' type-id='type-id-390' visibility='default' filepath='/usr/lib/gcc/x86_64-redhat-linux/4.4.7/../../../../include/c++/4.4.7/bits/stl_iterator.h' line='671' column='1'/>
        </data-member>
        <member-function access='private'>
          <function-decl name='__normal_iterator' filepath='/usr/lib/gcc/x86_64-redhat-linux/4.4.7/../../../../include/c++/4.4.7/bits/stl_iterator.h' line='683' column='1' visibility='default' binding='global' size-in-bits='64'>
            <parameter type-id='type-id-391' is-artificial='yes'/>
            <return type-id='type-id-28'/>
          </function-decl>
        </member-function>
        <member-function access='private'>
          <function-decl name='__normal_iterator' filepath='/usr/lib/gcc/x86_64-redhat-linux/4.4.7/../../../../include/c++/4.4.7/bits/stl_iterator.h' line='686' column='1' visibility='default' binding='global' size-in-bits='64'>
            <parameter type-id='type-id-391' is-artificial='yes'/>
            <parameter type-id='type-id-392'/>
            <return type-id='type-id-28'/>
          </function-decl>
        </member-function>
      </class-decl>
    </namespace-decl>
    <namespace-decl name='__gnu_cxx'>
      <class-decl name='__normal_iterator&lt;const vtkSQLDatabaseSchemaInternals::Trigger*, std::vector&lt;vtkSQLDatabaseSchemaInternals::Trigger, std::allocator&lt;vtkSQLDatabaseSchemaInternals::Trigger&gt; &gt; &gt;' size-in-bits='64' visibility='default' filepath='/usr/lib/gcc/x86_64-redhat-linux/4.4.7/../../../../include/c++/4.4.7/bits/stl_iterator.h' line='669' column='1' id='type-id-359'>
        <data-member access='protected' layout-offset-in-bits='0'>
          <var-decl name='_M_current' type-id='type-id-393' visibility='default' filepath='/usr/lib/gcc/x86_64-redhat-linux/4.4.7/../../../../include/c++/4.4.7/bits/stl_iterator.h' line='671' column='1'/>
        </data-member>
        <member-function access='private'>
          <function-decl name='__normal_iterator' filepath='/usr/lib/gcc/x86_64-redhat-linux/4.4.7/../../../../include/c++/4.4.7/bits/stl_iterator.h' line='683' column='1' visibility='default' binding='global' size-in-bits='64'>
            <parameter type-id='type-id-394' is-artificial='yes'/>
            <return type-id='type-id-28'/>
          </function-decl>
        </member-function>
        <member-function access='private'>
          <function-decl name='__normal_iterator' filepath='/usr/lib/gcc/x86_64-redhat-linux/4.4.7/../../../../include/c++/4.4.7/bits/stl_iterator.h' line='686' column='1' visibility='default' binding='global' size-in-bits='64'>
            <parameter type-id='type-id-394' is-artificial='yes'/>
            <parameter type-id='type-id-395'/>
            <return type-id='type-id-28'/>
          </function-decl>
        </member-function>
      </class-decl>
    </namespace-decl>
    <namespace-decl name='__gnu_cxx'>
      <class-decl name='__normal_iterator&lt;const vtkStdString*, std::vector&lt;vtkStdString, std::allocator&lt;vtkStdString&gt; &gt; &gt;' size-in-bits='64' visibility='default' filepath='/usr/lib/gcc/x86_64-redhat-linux/4.4.7/../../../../include/c++/4.4.7/bits/stl_iterator.h' line='669' column='1' id='type-id-373'>
        <data-member access='protected' layout-offset-in-bits='0'>
          <var-decl name='_M_current' type-id='type-id-396' visibility='default' filepath='/usr/lib/gcc/x86_64-redhat-linux/4.4.7/../../../../include/c++/4.4.7/bits/stl_iterator.h' line='671' column='1'/>
        </data-member>
        <member-function access='private'>
          <function-decl name='__normal_iterator' filepath='/usr/lib/gcc/x86_64-redhat-linux/4.4.7/../../../../include/c++/4.4.7/bits/stl_iterator.h' line='683' column='1' visibility='default' binding='global' size-in-bits='64'>
            <parameter type-id='type-id-397' is-artificial='yes'/>
            <return type-id='type-id-28'/>
          </function-decl>
        </member-function>
        <member-function access='private'>
          <function-decl name='__normal_iterator' filepath='/usr/lib/gcc/x86_64-redhat-linux/4.4.7/../../../../include/c++/4.4.7/bits/stl_iterator.h' line='686' column='1' visibility='default' binding='global' size-in-bits='64'>
            <parameter type-id='type-id-397' is-artificial='yes'/>
            <parameter type-id='type-id-398'/>
            <return type-id='type-id-28'/>
          </function-decl>
        </member-function>
      </class-decl>
    </namespace-decl>
    <namespace-decl name='__gnu_cxx'>
      <class-decl name='__normal_iterator&lt;vtkSQLDatabaseSchemaInternals::Column*, std::vector&lt;vtkSQLDatabaseSchemaInternals::Column, std::allocator&lt;vtkSQLDatabaseSchemaInternals::Column&gt; &gt; &gt;' size-in-bits='64' visibility='default' filepath='/usr/lib/gcc/x86_64-redhat-linux/4.4.7/../../../../include/c++/4.4.7/bits/stl_iterator.h' line='669' column='1' id='type-id-310'>
        <data-member access='protected' layout-offset-in-bits='0'>
          <var-decl name='_M_current' type-id='type-id-308' visibility='default' filepath='/usr/lib/gcc/x86_64-redhat-linux/4.4.7/../../../../include/c++/4.4.7/bits/stl_iterator.h' line='671' column='1'/>
        </data-member>
        <member-function access='private'>
          <function-decl name='__normal_iterator' filepath='/usr/lib/gcc/x86_64-redhat-linux/4.4.7/../../../../include/c++/4.4.7/bits/stl_iterator.h' line='683' column='1' visibility='default' binding='global' size-in-bits='64'>
            <parameter type-id='type-id-399' is-artificial='yes'/>
            <return type-id='type-id-28'/>
          </function-decl>
        </member-function>
        <member-function access='private'>
          <function-decl name='__normal_iterator' filepath='/usr/lib/gcc/x86_64-redhat-linux/4.4.7/../../../../include/c++/4.4.7/bits/stl_iterator.h' line='686' column='1' visibility='default' binding='global' size-in-bits='64'>
            <parameter type-id='type-id-399' is-artificial='yes'/>
            <parameter type-id='type-id-400'/>
            <return type-id='type-id-28'/>
          </function-decl>
        </member-function>
      </class-decl>
    </namespace-decl>
    <namespace-decl name='__gnu_cxx'>
      <class-decl name='__normal_iterator&lt;vtkSQLDatabaseSchemaInternals::Index*, std::vector&lt;vtkSQLDatabaseSchemaInternals::Index, std::allocator&lt;vtkSQLDatabaseSchemaInternals::Index&gt; &gt; &gt;' size-in-bits='64' visibility='default' filepath='/usr/lib/gcc/x86_64-redhat-linux/4.4.7/../../../../include/c++/4.4.7/bits/stl_iterator.h' line='669' column='1' id='type-id-322'>
        <data-member access='protected' layout-offset-in-bits='0'>
          <var-decl name='_M_current' type-id='type-id-320' visibility='default' filepath='/usr/lib/gcc/x86_64-redhat-linux/4.4.7/../../../../include/c++/4.4.7/bits/stl_iterator.h' line='671' column='1'/>
        </data-member>
        <member-function access='private'>
          <function-decl name='__normal_iterator' filepath='/usr/lib/gcc/x86_64-redhat-linux/4.4.7/../../../../include/c++/4.4.7/bits/stl_iterator.h' line='683' column='1' visibility='default' binding='global' size-in-bits='64'>
            <parameter type-id='type-id-401' is-artificial='yes'/>
            <return type-id='type-id-28'/>
          </function-decl>
        </member-function>
        <member-function access='private'>
          <function-decl name='__normal_iterator' filepath='/usr/lib/gcc/x86_64-redhat-linux/4.4.7/../../../../include/c++/4.4.7/bits/stl_iterator.h' line='686' column='1' visibility='default' binding='global' size-in-bits='64'>
            <parameter type-id='type-id-401' is-artificial='yes'/>
            <parameter type-id='type-id-402'/>
            <return type-id='type-id-28'/>
          </function-decl>
        </member-function>
      </class-decl>
    </namespace-decl>
    <namespace-decl name='__gnu_cxx'>
      <class-decl name='__normal_iterator&lt;vtkSQLDatabaseSchemaInternals::Option*, std::vector&lt;vtkSQLDatabaseSchemaInternals::Option, std::allocator&lt;vtkSQLDatabaseSchemaInternals::Option&gt; &gt; &gt;' size-in-bits='64' visibility='default' filepath='/usr/lib/gcc/x86_64-redhat-linux/4.4.7/../../../../include/c++/4.4.7/bits/stl_iterator.h' line='669' column='1' id='type-id-334'>
        <data-member access='protected' layout-offset-in-bits='0'>
          <var-decl name='_M_current' type-id='type-id-332' visibility='default' filepath='/usr/lib/gcc/x86_64-redhat-linux/4.4.7/../../../../include/c++/4.4.7/bits/stl_iterator.h' line='671' column='1'/>
        </data-member>
        <member-function access='private'>
          <function-decl name='__normal_iterator' filepath='/usr/lib/gcc/x86_64-redhat-linux/4.4.7/../../../../include/c++/4.4.7/bits/stl_iterator.h' line='683' column='1' visibility='default' binding='global' size-in-bits='64'>
            <parameter type-id='type-id-403' is-artificial='yes'/>
            <return type-id='type-id-28'/>
          </function-decl>
        </member-function>
        <member-function access='private'>
          <function-decl name='__normal_iterator' filepath='/usr/lib/gcc/x86_64-redhat-linux/4.4.7/../../../../include/c++/4.4.7/bits/stl_iterator.h' line='686' column='1' visibility='default' binding='global' size-in-bits='64'>
            <parameter type-id='type-id-403' is-artificial='yes'/>
            <parameter type-id='type-id-404'/>
            <return type-id='type-id-28'/>
          </function-decl>
        </member-function>
      </class-decl>
    </namespace-decl>
    <namespace-decl name='__gnu_cxx'>
      <class-decl name='__normal_iterator&lt;vtkSQLDatabaseSchemaInternals::Statement*, std::vector&lt;vtkSQLDatabaseSchemaInternals::Statement, std::allocator&lt;vtkSQLDatabaseSchemaInternals::Statement&gt; &gt; &gt;' size-in-bits='64' visibility='default' filepath='/usr/lib/gcc/x86_64-redhat-linux/4.4.7/../../../../include/c++/4.4.7/bits/stl_iterator.h' line='669' column='1' id='type-id-344'>
        <data-member access='protected' layout-offset-in-bits='0'>
          <var-decl name='_M_current' type-id='type-id-405' visibility='default' filepath='/usr/lib/gcc/x86_64-redhat-linux/4.4.7/../../../../include/c++/4.4.7/bits/stl_iterator.h' line='671' column='1'/>
        </data-member>
        <member-function access='private'>
          <function-decl name='__normal_iterator' filepath='/usr/lib/gcc/x86_64-redhat-linux/4.4.7/../../../../include/c++/4.4.7/bits/stl_iterator.h' line='683' column='1' visibility='default' binding='global' size-in-bits='64'>
            <parameter type-id='type-id-406' is-artificial='yes'/>
            <return type-id='type-id-28'/>
          </function-decl>
        </member-function>
        <member-function access='private'>
          <function-decl name='__normal_iterator' filepath='/usr/lib/gcc/x86_64-redhat-linux/4.4.7/../../../../include/c++/4.4.7/bits/stl_iterator.h' line='686' column='1' visibility='default' binding='global' size-in-bits='64'>
            <parameter type-id='type-id-406' is-artificial='yes'/>
            <parameter type-id='type-id-407'/>
            <return type-id='type-id-28'/>
          </function-decl>
        </member-function>
      </class-decl>
    </namespace-decl>
    <namespace-decl name='__gnu_cxx'>
      <class-decl name='__normal_iterator&lt;vtkSQLDatabaseSchemaInternals::Table*, std::vector&lt;vtkSQLDatabaseSchemaInternals::Table, std::allocator&lt;vtkSQLDatabaseSchemaInternals::Table&gt; &gt; &gt;' size-in-bits='64' visibility='default' filepath='/usr/lib/gcc/x86_64-redhat-linux/4.4.7/../../../../include/c++/4.4.7/bits/stl_iterator.h' line='669' column='1' id='type-id-352'>
        <data-member access='protected' layout-offset-in-bits='0'>
          <var-decl name='_M_current' type-id='type-id-408' visibility='default' filepath='/usr/lib/gcc/x86_64-redhat-linux/4.4.7/../../../../include/c++/4.4.7/bits/stl_iterator.h' line='671' column='1'/>
        </data-member>
        <member-function access='private'>
          <function-decl name='__normal_iterator' filepath='/usr/lib/gcc/x86_64-redhat-linux/4.4.7/../../../../include/c++/4.4.7/bits/stl_iterator.h' line='683' column='1' visibility='default' binding='global' size-in-bits='64'>
            <parameter type-id='type-id-409' is-artificial='yes'/>
            <return type-id='type-id-28'/>
          </function-decl>
        </member-function>
        <member-function access='private'>
          <function-decl name='__normal_iterator' filepath='/usr/lib/gcc/x86_64-redhat-linux/4.4.7/../../../../include/c++/4.4.7/bits/stl_iterator.h' line='686' column='1' visibility='default' binding='global' size-in-bits='64'>
            <parameter type-id='type-id-409' is-artificial='yes'/>
            <parameter type-id='type-id-410'/>
            <return type-id='type-id-28'/>
          </function-decl>
        </member-function>
      </class-decl>
    </namespace-decl>
    <namespace-decl name='__gnu_cxx'>
      <class-decl name='__normal_iterator&lt;vtkSQLDatabaseSchemaInternals::Trigger*, std::vector&lt;vtkSQLDatabaseSchemaInternals::Trigger, std::allocator&lt;vtkSQLDatabaseSchemaInternals::Trigger&gt; &gt; &gt;' size-in-bits='64' visibility='default' filepath='/usr/lib/gcc/x86_64-redhat-linux/4.4.7/../../../../include/c++/4.4.7/bits/stl_iterator.h' line='669' column='1' id='type-id-362'>
        <data-member access='protected' layout-offset-in-bits='0'>
          <var-decl name='_M_current' type-id='type-id-360' visibility='default' filepath='/usr/lib/gcc/x86_64-redhat-linux/4.4.7/../../../../include/c++/4.4.7/bits/stl_iterator.h' line='671' column='1'/>
        </data-member>
        <member-function access='private'>
          <function-decl name='__normal_iterator' filepath='/usr/lib/gcc/x86_64-redhat-linux/4.4.7/../../../../include/c++/4.4.7/bits/stl_iterator.h' line='683' column='1' visibility='default' binding='global' size-in-bits='64'>
            <parameter type-id='type-id-411' is-artificial='yes'/>
            <return type-id='type-id-28'/>
          </function-decl>
        </member-function>
        <member-function access='private'>
          <function-decl name='__normal_iterator' filepath='/usr/lib/gcc/x86_64-redhat-linux/4.4.7/../../../../include/c++/4.4.7/bits/stl_iterator.h' line='686' column='1' visibility='default' binding='global' size-in-bits='64'>
            <parameter type-id='type-id-411' is-artificial='yes'/>
            <parameter type-id='type-id-412'/>
            <return type-id='type-id-28'/>
          </function-decl>
        </member-function>
      </class-decl>
    </namespace-decl>
    <namespace-decl name='__gnu_cxx'>
      <class-decl name='__normal_iterator&lt;vtkStdString*, std::vector&lt;vtkStdString, std::allocator&lt;vtkStdString&gt; &gt; &gt;' size-in-bits='64' visibility='default' filepath='/usr/lib/gcc/x86_64-redhat-linux/4.4.7/../../../../include/c++/4.4.7/bits/stl_iterator.h' line='669' column='1' id='type-id-371'>
        <data-member access='protected' layout-offset-in-bits='0'>
          <var-decl name='_M_current' type-id='type-id-85' visibility='default' filepath='/usr/lib/gcc/x86_64-redhat-linux/4.4.7/../../../../include/c++/4.4.7/bits/stl_iterator.h' line='671' column='1'/>
        </data-member>
        <member-function access='private'>
          <function-decl name='__normal_iterator' filepath='/usr/lib/gcc/x86_64-redhat-linux/4.4.7/../../../../include/c++/4.4.7/bits/stl_iterator.h' line='683' column='1' visibility='default' binding='global' size-in-bits='64'>
            <parameter type-id='type-id-413' is-artificial='yes'/>
            <return type-id='type-id-28'/>
          </function-decl>
        </member-function>
        <member-function access='private'>
          <function-decl name='__normal_iterator' filepath='/usr/lib/gcc/x86_64-redhat-linux/4.4.7/../../../../include/c++/4.4.7/bits/stl_iterator.h' line='686' column='1' visibility='default' binding='global' size-in-bits='64'>
            <parameter type-id='type-id-413' is-artificial='yes'/>
            <parameter type-id='type-id-414'/>
            <return type-id='type-id-28'/>
          </function-decl>
        </member-function>
      </class-decl>
    </namespace-decl>
    <namespace-decl name='std'>
      <class-decl name='_Vector_base&lt;vtkSQLDatabaseSchemaInternals::Column, std::allocator&lt;vtkSQLDatabaseSchemaInternals::Column&gt; &gt;' size-in-bits='192' is-struct='yes' visibility='default' filepath='/usr/lib/gcc/x86_64-redhat-linux/4.4.7/../../../../include/c++/4.4.7/bits/stl_vector.h' line='70' column='1' id='type-id-302'>
        <member-type access='public'>
          <class-decl name='_Vector_impl' size-in-bits='192' is-struct='yes' visibility='default' filepath='/usr/lib/gcc/x86_64-redhat-linux/4.4.7/../../../../include/c++/4.4.7/bits/stl_vector.h' line='75' column='1' id='type-id-415'>
            <base-class access='public' layout-offset-in-bits='0' type-id='type-id-416'/>
            <data-member access='public' layout-offset-in-bits='0'>
              <var-decl name='_M_start' type-id='type-id-308' visibility='default' filepath='/usr/lib/gcc/x86_64-redhat-linux/4.4.7/../../../../include/c++/4.4.7/bits/stl_vector.h' line='76' column='1'/>
            </data-member>
            <data-member access='public' layout-offset-in-bits='64'>
              <var-decl name='_M_finish' type-id='type-id-308' visibility='default' filepath='/usr/lib/gcc/x86_64-redhat-linux/4.4.7/../../../../include/c++/4.4.7/bits/stl_vector.h' line='77' column='1'/>
            </data-member>
            <data-member access='public' layout-offset-in-bits='128'>
              <var-decl name='_M_end_of_storage' type-id='type-id-308' visibility='default' filepath='/usr/lib/gcc/x86_64-redhat-linux/4.4.7/../../../../include/c++/4.4.7/bits/stl_vector.h' line='78' column='1'/>
            </data-member>
            <member-function access='public' constructor='yes'>
              <function-decl name='_Vector_impl' filepath='/usr/lib/gcc/x86_64-redhat-linux/4.4.7/../../../../include/c++/4.4.7/bits/stl_vector.h' line='80' column='1' visibility='default' binding='global' size-in-bits='64'>
                <parameter type-id='type-id-417' is-artificial='yes'/>
                <return type-id='type-id-28'/>
              </function-decl>
            </member-function>
            <member-function access='public' constructor='yes'>
              <function-decl name='_Vector_impl' filepath='/usr/lib/gcc/x86_64-redhat-linux/4.4.7/../../../../include/c++/4.4.7/bits/stl_vector.h' line='84' column='1' visibility='default' binding='global' size-in-bits='64'>
                <parameter type-id='type-id-417' is-artificial='yes'/>
                <parameter type-id='type-id-304'/>
                <return type-id='type-id-28'/>
              </function-decl>
            </member-function>
          </class-decl>
        </member-type>
        <data-member access='public' layout-offset-in-bits='0'>
          <var-decl name='_M_impl' type-id='type-id-415' visibility='default' filepath='/usr/lib/gcc/x86_64-redhat-linux/4.4.7/../../../../include/c++/4.4.7/bits/stl_vector.h' line='136' column='1'/>
        </data-member>
        <member-function access='public'>
          <function-decl name='_Vector_base' filepath='/usr/lib/gcc/x86_64-redhat-linux/4.4.7/../../../../include/c++/4.4.7/bits/stl_vector.h' line='104' column='1' visibility='default' binding='global' size-in-bits='64'>
            <parameter type-id='type-id-418' is-artificial='yes'/>
            <return type-id='type-id-28'/>
          </function-decl>
        </member-function>
        <member-function access='public'>
          <function-decl name='_Vector_base' filepath='/usr/lib/gcc/x86_64-redhat-linux/4.4.7/../../../../include/c++/4.4.7/bits/stl_vector.h' line='107' column='1' visibility='default' binding='global' size-in-bits='64'>
            <parameter type-id='type-id-418' is-artificial='yes'/>
            <parameter type-id='type-id-304'/>
            <return type-id='type-id-28'/>
          </function-decl>
        </member-function>
        <member-function access='public'>
          <function-decl name='_Vector_base' filepath='/usr/lib/gcc/x86_64-redhat-linux/4.4.7/../../../../include/c++/4.4.7/bits/stl_vector.h' line='110' column='1' visibility='default' binding='global' size-in-bits='64'>
            <parameter type-id='type-id-418' is-artificial='yes'/>
            <parameter type-id='type-id-4'/>
            <parameter type-id='type-id-304'/>
            <return type-id='type-id-28'/>
          </function-decl>
        </member-function>
        <member-function access='public' destructor='yes'>
          <function-decl name='~_Vector_base' filepath='/usr/lib/gcc/x86_64-redhat-linux/4.4.7/../../../../include/c++/4.4.7/bits/stl_vector.h' line='131' column='1' visibility='default' binding='global' size-in-bits='64'>
            <parameter type-id='type-id-418' is-artificial='yes'/>
            <parameter type-id='type-id-17' is-artificial='yes'/>
            <return type-id='type-id-28'/>
          </function-decl>
        </member-function>
      </class-decl>
    </namespace-decl>
    <namespace-decl name='std'>
      <class-decl name='_Vector_base&lt;vtkSQLDatabaseSchemaInternals::Index, std::allocator&lt;vtkSQLDatabaseSchemaInternals::Index&gt; &gt;' size-in-bits='192' is-struct='yes' visibility='default' filepath='/usr/lib/gcc/x86_64-redhat-linux/4.4.7/../../../../include/c++/4.4.7/bits/stl_vector.h' line='70' column='1' id='type-id-314'>
        <member-type access='public'>
          <class-decl name='_Vector_impl' size-in-bits='192' is-struct='yes' visibility='default' filepath='/usr/lib/gcc/x86_64-redhat-linux/4.4.7/../../../../include/c++/4.4.7/bits/stl_vector.h' line='75' column='1' id='type-id-419'>
            <base-class access='public' layout-offset-in-bits='0' type-id='type-id-420'/>
            <data-member access='public' layout-offset-in-bits='0'>
              <var-decl name='_M_start' type-id='type-id-320' visibility='default' filepath='/usr/lib/gcc/x86_64-redhat-linux/4.4.7/../../../../include/c++/4.4.7/bits/stl_vector.h' line='76' column='1'/>
            </data-member>
            <data-member access='public' layout-offset-in-bits='64'>
              <var-decl name='_M_finish' type-id='type-id-320' visibility='default' filepath='/usr/lib/gcc/x86_64-redhat-linux/4.4.7/../../../../include/c++/4.4.7/bits/stl_vector.h' line='77' column='1'/>
            </data-member>
            <data-member access='public' layout-offset-in-bits='128'>
              <var-decl name='_M_end_of_storage' type-id='type-id-320' visibility='default' filepath='/usr/lib/gcc/x86_64-redhat-linux/4.4.7/../../../../include/c++/4.4.7/bits/stl_vector.h' line='78' column='1'/>
            </data-member>
            <member-function access='public' constructor='yes'>
              <function-decl name='_Vector_impl' filepath='/usr/lib/gcc/x86_64-redhat-linux/4.4.7/../../../../include/c++/4.4.7/bits/stl_vector.h' line='80' column='1' visibility='default' binding='global' size-in-bits='64'>
                <parameter type-id='type-id-421' is-artificial='yes'/>
                <return type-id='type-id-28'/>
              </function-decl>
            </member-function>
            <member-function access='public' constructor='yes'>
              <function-decl name='_Vector_impl' filepath='/usr/lib/gcc/x86_64-redhat-linux/4.4.7/../../../../include/c++/4.4.7/bits/stl_vector.h' line='84' column='1' visibility='default' binding='global' size-in-bits='64'>
                <parameter type-id='type-id-421' is-artificial='yes'/>
                <parameter type-id='type-id-316'/>
                <return type-id='type-id-28'/>
              </function-decl>
            </member-function>
          </class-decl>
        </member-type>
        <data-member access='public' layout-offset-in-bits='0'>
          <var-decl name='_M_impl' type-id='type-id-419' visibility='default' filepath='/usr/lib/gcc/x86_64-redhat-linux/4.4.7/../../../../include/c++/4.4.7/bits/stl_vector.h' line='136' column='1'/>
        </data-member>
        <member-function access='public'>
          <function-decl name='_Vector_base' filepath='/usr/lib/gcc/x86_64-redhat-linux/4.4.7/../../../../include/c++/4.4.7/bits/stl_vector.h' line='104' column='1' visibility='default' binding='global' size-in-bits='64'>
            <parameter type-id='type-id-422' is-artificial='yes'/>
            <return type-id='type-id-28'/>
          </function-decl>
        </member-function>
        <member-function access='public'>
          <function-decl name='_Vector_base' filepath='/usr/lib/gcc/x86_64-redhat-linux/4.4.7/../../../../include/c++/4.4.7/bits/stl_vector.h' line='107' column='1' visibility='default' binding='global' size-in-bits='64'>
            <parameter type-id='type-id-422' is-artificial='yes'/>
            <parameter type-id='type-id-316'/>
            <return type-id='type-id-28'/>
          </function-decl>
        </member-function>
        <member-function access='public'>
          <function-decl name='_Vector_base' filepath='/usr/lib/gcc/x86_64-redhat-linux/4.4.7/../../../../include/c++/4.4.7/bits/stl_vector.h' line='110' column='1' visibility='default' binding='global' size-in-bits='64'>
            <parameter type-id='type-id-422' is-artificial='yes'/>
            <parameter type-id='type-id-4'/>
            <parameter type-id='type-id-316'/>
            <return type-id='type-id-28'/>
          </function-decl>
        </member-function>
        <member-function access='public' destructor='yes'>
          <function-decl name='~_Vector_base' filepath='/usr/lib/gcc/x86_64-redhat-linux/4.4.7/../../../../include/c++/4.4.7/bits/stl_vector.h' line='131' column='1' visibility='default' binding='global' size-in-bits='64'>
            <parameter type-id='type-id-422' is-artificial='yes'/>
            <parameter type-id='type-id-17' is-artificial='yes'/>
            <return type-id='type-id-28'/>
          </function-decl>
        </member-function>
      </class-decl>
    </namespace-decl>
    <namespace-decl name='std'>
      <class-decl name='_Vector_base&lt;vtkSQLDatabaseSchemaInternals::Option, std::allocator&lt;vtkSQLDatabaseSchemaInternals::Option&gt; &gt;' size-in-bits='192' is-struct='yes' visibility='default' filepath='/usr/lib/gcc/x86_64-redhat-linux/4.4.7/../../../../include/c++/4.4.7/bits/stl_vector.h' line='70' column='1' id='type-id-326'>
        <member-type access='public'>
          <class-decl name='_Vector_impl' size-in-bits='192' is-struct='yes' visibility='default' filepath='/usr/lib/gcc/x86_64-redhat-linux/4.4.7/../../../../include/c++/4.4.7/bits/stl_vector.h' line='75' column='1' id='type-id-423'>
            <base-class access='public' layout-offset-in-bits='0' type-id='type-id-424'/>
            <data-member access='public' layout-offset-in-bits='0'>
              <var-decl name='_M_start' type-id='type-id-332' visibility='default' filepath='/usr/lib/gcc/x86_64-redhat-linux/4.4.7/../../../../include/c++/4.4.7/bits/stl_vector.h' line='76' column='1'/>
            </data-member>
            <data-member access='public' layout-offset-in-bits='64'>
              <var-decl name='_M_finish' type-id='type-id-332' visibility='default' filepath='/usr/lib/gcc/x86_64-redhat-linux/4.4.7/../../../../include/c++/4.4.7/bits/stl_vector.h' line='77' column='1'/>
            </data-member>
            <data-member access='public' layout-offset-in-bits='128'>
              <var-decl name='_M_end_of_storage' type-id='type-id-332' visibility='default' filepath='/usr/lib/gcc/x86_64-redhat-linux/4.4.7/../../../../include/c++/4.4.7/bits/stl_vector.h' line='78' column='1'/>
            </data-member>
            <member-function access='public' constructor='yes'>
              <function-decl name='_Vector_impl' filepath='/usr/lib/gcc/x86_64-redhat-linux/4.4.7/../../../../include/c++/4.4.7/bits/stl_vector.h' line='80' column='1' visibility='default' binding='global' size-in-bits='64'>
                <parameter type-id='type-id-425' is-artificial='yes'/>
                <return type-id='type-id-28'/>
              </function-decl>
            </member-function>
            <member-function access='public' constructor='yes'>
              <function-decl name='_Vector_impl' filepath='/usr/lib/gcc/x86_64-redhat-linux/4.4.7/../../../../include/c++/4.4.7/bits/stl_vector.h' line='84' column='1' visibility='default' binding='global' size-in-bits='64'>
                <parameter type-id='type-id-425' is-artificial='yes'/>
                <parameter type-id='type-id-328'/>
                <return type-id='type-id-28'/>
              </function-decl>
            </member-function>
          </class-decl>
        </member-type>
        <data-member access='public' layout-offset-in-bits='0'>
          <var-decl name='_M_impl' type-id='type-id-423' visibility='default' filepath='/usr/lib/gcc/x86_64-redhat-linux/4.4.7/../../../../include/c++/4.4.7/bits/stl_vector.h' line='136' column='1'/>
        </data-member>
        <member-function access='public'>
          <function-decl name='_Vector_base' filepath='/usr/lib/gcc/x86_64-redhat-linux/4.4.7/../../../../include/c++/4.4.7/bits/stl_vector.h' line='104' column='1' visibility='default' binding='global' size-in-bits='64'>
            <parameter type-id='type-id-426' is-artificial='yes'/>
            <return type-id='type-id-28'/>
          </function-decl>
        </member-function>
        <member-function access='public'>
          <function-decl name='_Vector_base' filepath='/usr/lib/gcc/x86_64-redhat-linux/4.4.7/../../../../include/c++/4.4.7/bits/stl_vector.h' line='107' column='1' visibility='default' binding='global' size-in-bits='64'>
            <parameter type-id='type-id-426' is-artificial='yes'/>
            <parameter type-id='type-id-328'/>
            <return type-id='type-id-28'/>
          </function-decl>
        </member-function>
        <member-function access='public'>
          <function-decl name='_Vector_base' filepath='/usr/lib/gcc/x86_64-redhat-linux/4.4.7/../../../../include/c++/4.4.7/bits/stl_vector.h' line='110' column='1' visibility='default' binding='global' size-in-bits='64'>
            <parameter type-id='type-id-426' is-artificial='yes'/>
            <parameter type-id='type-id-4'/>
            <parameter type-id='type-id-328'/>
            <return type-id='type-id-28'/>
          </function-decl>
        </member-function>
        <member-function access='public' destructor='yes'>
          <function-decl name='~_Vector_base' filepath='/usr/lib/gcc/x86_64-redhat-linux/4.4.7/../../../../include/c++/4.4.7/bits/stl_vector.h' line='131' column='1' visibility='default' binding='global' size-in-bits='64'>
            <parameter type-id='type-id-426' is-artificial='yes'/>
            <parameter type-id='type-id-17' is-artificial='yes'/>
            <return type-id='type-id-28'/>
          </function-decl>
        </member-function>
      </class-decl>
    </namespace-decl>
    <namespace-decl name='std'>
      <class-decl name='_Vector_base&lt;vtkSQLDatabaseSchemaInternals::Statement, std::allocator&lt;vtkSQLDatabaseSchemaInternals::Statement&gt; &gt;' size-in-bits='192' is-struct='yes' visibility='default' filepath='/usr/lib/gcc/x86_64-redhat-linux/4.4.7/../../../../include/c++/4.4.7/bits/stl_vector.h' line='70' column='1' id='type-id-338'>
        <member-type access='public'>
          <class-decl name='_Vector_impl' size-in-bits='192' is-struct='yes' visibility='default' filepath='/usr/lib/gcc/x86_64-redhat-linux/4.4.7/../../../../include/c++/4.4.7/bits/stl_vector.h' line='75' column='1' id='type-id-427'>
            <base-class access='public' layout-offset-in-bits='0' type-id='type-id-428'/>
            <data-member access='public' layout-offset-in-bits='0'>
              <var-decl name='_M_start' type-id='type-id-405' visibility='default' filepath='/usr/lib/gcc/x86_64-redhat-linux/4.4.7/../../../../include/c++/4.4.7/bits/stl_vector.h' line='76' column='1'/>
            </data-member>
            <data-member access='public' layout-offset-in-bits='64'>
              <var-decl name='_M_finish' type-id='type-id-405' visibility='default' filepath='/usr/lib/gcc/x86_64-redhat-linux/4.4.7/../../../../include/c++/4.4.7/bits/stl_vector.h' line='77' column='1'/>
            </data-member>
            <data-member access='public' layout-offset-in-bits='128'>
              <var-decl name='_M_end_of_storage' type-id='type-id-405' visibility='default' filepath='/usr/lib/gcc/x86_64-redhat-linux/4.4.7/../../../../include/c++/4.4.7/bits/stl_vector.h' line='78' column='1'/>
            </data-member>
            <member-function access='public' constructor='yes'>
              <function-decl name='_Vector_impl' filepath='/usr/lib/gcc/x86_64-redhat-linux/4.4.7/../../../../include/c++/4.4.7/bits/stl_vector.h' line='80' column='1' visibility='default' binding='global' size-in-bits='64'>
                <parameter type-id='type-id-429' is-artificial='yes'/>
                <return type-id='type-id-28'/>
              </function-decl>
            </member-function>
            <member-function access='public' constructor='yes'>
              <function-decl name='_Vector_impl' filepath='/usr/lib/gcc/x86_64-redhat-linux/4.4.7/../../../../include/c++/4.4.7/bits/stl_vector.h' line='84' column='1' visibility='default' binding='global' size-in-bits='64'>
                <parameter type-id='type-id-429' is-artificial='yes'/>
                <parameter type-id='type-id-340'/>
                <return type-id='type-id-28'/>
              </function-decl>
            </member-function>
          </class-decl>
        </member-type>
        <data-member access='public' layout-offset-in-bits='0'>
          <var-decl name='_M_impl' type-id='type-id-427' visibility='default' filepath='/usr/lib/gcc/x86_64-redhat-linux/4.4.7/../../../../include/c++/4.4.7/bits/stl_vector.h' line='136' column='1'/>
        </data-member>
        <member-function access='public'>
          <function-decl name='_Vector_base' filepath='/usr/lib/gcc/x86_64-redhat-linux/4.4.7/../../../../include/c++/4.4.7/bits/stl_vector.h' line='104' column='1' visibility='default' binding='global' size-in-bits='64'>
            <parameter type-id='type-id-430' is-artificial='yes'/>
            <return type-id='type-id-28'/>
          </function-decl>
        </member-function>
        <member-function access='public'>
          <function-decl name='_Vector_base' filepath='/usr/lib/gcc/x86_64-redhat-linux/4.4.7/../../../../include/c++/4.4.7/bits/stl_vector.h' line='107' column='1' visibility='default' binding='global' size-in-bits='64'>
            <parameter type-id='type-id-430' is-artificial='yes'/>
            <parameter type-id='type-id-340'/>
            <return type-id='type-id-28'/>
          </function-decl>
        </member-function>
        <member-function access='public'>
          <function-decl name='_Vector_base' filepath='/usr/lib/gcc/x86_64-redhat-linux/4.4.7/../../../../include/c++/4.4.7/bits/stl_vector.h' line='110' column='1' visibility='default' binding='global' size-in-bits='64'>
            <parameter type-id='type-id-430' is-artificial='yes'/>
            <parameter type-id='type-id-4'/>
            <parameter type-id='type-id-340'/>
            <return type-id='type-id-28'/>
          </function-decl>
        </member-function>
        <member-function access='public' destructor='yes'>
          <function-decl name='~_Vector_base' filepath='/usr/lib/gcc/x86_64-redhat-linux/4.4.7/../../../../include/c++/4.4.7/bits/stl_vector.h' line='131' column='1' visibility='default' binding='global' size-in-bits='64'>
            <parameter type-id='type-id-430' is-artificial='yes'/>
            <parameter type-id='type-id-17' is-artificial='yes'/>
            <return type-id='type-id-28'/>
          </function-decl>
        </member-function>
      </class-decl>
    </namespace-decl>
    <namespace-decl name='std'>
      <class-decl name='_Vector_base&lt;vtkSQLDatabaseSchemaInternals::Table, std::allocator&lt;vtkSQLDatabaseSchemaInternals::Table&gt; &gt;' size-in-bits='192' is-struct='yes' visibility='default' filepath='/usr/lib/gcc/x86_64-redhat-linux/4.4.7/../../../../include/c++/4.4.7/bits/stl_vector.h' line='70' column='1' id='type-id-346'>
        <member-type access='public'>
          <class-decl name='_Vector_impl' size-in-bits='192' is-struct='yes' visibility='default' filepath='/usr/lib/gcc/x86_64-redhat-linux/4.4.7/../../../../include/c++/4.4.7/bits/stl_vector.h' line='75' column='1' id='type-id-431'>
            <base-class access='public' layout-offset-in-bits='0' type-id='type-id-432'/>
            <data-member access='public' layout-offset-in-bits='0'>
              <var-decl name='_M_start' type-id='type-id-408' visibility='default' filepath='/usr/lib/gcc/x86_64-redhat-linux/4.4.7/../../../../include/c++/4.4.7/bits/stl_vector.h' line='76' column='1'/>
            </data-member>
            <data-member access='public' layout-offset-in-bits='64'>
              <var-decl name='_M_finish' type-id='type-id-408' visibility='default' filepath='/usr/lib/gcc/x86_64-redhat-linux/4.4.7/../../../../include/c++/4.4.7/bits/stl_vector.h' line='77' column='1'/>
            </data-member>
            <data-member access='public' layout-offset-in-bits='128'>
              <var-decl name='_M_end_of_storage' type-id='type-id-408' visibility='default' filepath='/usr/lib/gcc/x86_64-redhat-linux/4.4.7/../../../../include/c++/4.4.7/bits/stl_vector.h' line='78' column='1'/>
            </data-member>
            <member-function access='public' constructor='yes'>
              <function-decl name='_Vector_impl' filepath='/usr/lib/gcc/x86_64-redhat-linux/4.4.7/../../../../include/c++/4.4.7/bits/stl_vector.h' line='80' column='1' visibility='default' binding='global' size-in-bits='64'>
                <parameter type-id='type-id-433' is-artificial='yes'/>
                <return type-id='type-id-28'/>
              </function-decl>
            </member-function>
            <member-function access='public' constructor='yes'>
              <function-decl name='_Vector_impl' filepath='/usr/lib/gcc/x86_64-redhat-linux/4.4.7/../../../../include/c++/4.4.7/bits/stl_vector.h' line='84' column='1' visibility='default' binding='global' size-in-bits='64'>
                <parameter type-id='type-id-433' is-artificial='yes'/>
                <parameter type-id='type-id-348'/>
                <return type-id='type-id-28'/>
              </function-decl>
            </member-function>
          </class-decl>
        </member-type>
        <data-member access='public' layout-offset-in-bits='0'>
          <var-decl name='_M_impl' type-id='type-id-431' visibility='default' filepath='/usr/lib/gcc/x86_64-redhat-linux/4.4.7/../../../../include/c++/4.4.7/bits/stl_vector.h' line='136' column='1'/>
        </data-member>
        <member-function access='public'>
          <function-decl name='_Vector_base' filepath='/usr/lib/gcc/x86_64-redhat-linux/4.4.7/../../../../include/c++/4.4.7/bits/stl_vector.h' line='104' column='1' visibility='default' binding='global' size-in-bits='64'>
            <parameter type-id='type-id-434' is-artificial='yes'/>
            <return type-id='type-id-28'/>
          </function-decl>
        </member-function>
        <member-function access='public'>
          <function-decl name='_Vector_base' filepath='/usr/lib/gcc/x86_64-redhat-linux/4.4.7/../../../../include/c++/4.4.7/bits/stl_vector.h' line='107' column='1' visibility='default' binding='global' size-in-bits='64'>
            <parameter type-id='type-id-434' is-artificial='yes'/>
            <parameter type-id='type-id-348'/>
            <return type-id='type-id-28'/>
          </function-decl>
        </member-function>
        <member-function access='public'>
          <function-decl name='_Vector_base' filepath='/usr/lib/gcc/x86_64-redhat-linux/4.4.7/../../../../include/c++/4.4.7/bits/stl_vector.h' line='110' column='1' visibility='default' binding='global' size-in-bits='64'>
            <parameter type-id='type-id-434' is-artificial='yes'/>
            <parameter type-id='type-id-4'/>
            <parameter type-id='type-id-348'/>
            <return type-id='type-id-28'/>
          </function-decl>
        </member-function>
        <member-function access='public' destructor='yes'>
          <function-decl name='~_Vector_base' filepath='/usr/lib/gcc/x86_64-redhat-linux/4.4.7/../../../../include/c++/4.4.7/bits/stl_vector.h' line='131' column='1' visibility='default' binding='global' size-in-bits='64'>
            <parameter type-id='type-id-434' is-artificial='yes'/>
            <parameter type-id='type-id-17' is-artificial='yes'/>
            <return type-id='type-id-28'/>
          </function-decl>
        </member-function>
      </class-decl>
    </namespace-decl>
    <namespace-decl name='std'>
      <class-decl name='_Vector_base&lt;vtkSQLDatabaseSchemaInternals::Trigger, std::allocator&lt;vtkSQLDatabaseSchemaInternals::Trigger&gt; &gt;' size-in-bits='192' is-struct='yes' visibility='default' filepath='/usr/lib/gcc/x86_64-redhat-linux/4.4.7/../../../../include/c++/4.4.7/bits/stl_vector.h' line='70' column='1' id='type-id-354'>
        <member-type access='public'>
          <class-decl name='_Vector_impl' size-in-bits='192' is-struct='yes' visibility='default' filepath='/usr/lib/gcc/x86_64-redhat-linux/4.4.7/../../../../include/c++/4.4.7/bits/stl_vector.h' line='75' column='1' id='type-id-435'>
            <base-class access='public' layout-offset-in-bits='0' type-id='type-id-436'/>
            <data-member access='public' layout-offset-in-bits='0'>
              <var-decl name='_M_start' type-id='type-id-360' visibility='default' filepath='/usr/lib/gcc/x86_64-redhat-linux/4.4.7/../../../../include/c++/4.4.7/bits/stl_vector.h' line='76' column='1'/>
            </data-member>
            <data-member access='public' layout-offset-in-bits='64'>
              <var-decl name='_M_finish' type-id='type-id-360' visibility='default' filepath='/usr/lib/gcc/x86_64-redhat-linux/4.4.7/../../../../include/c++/4.4.7/bits/stl_vector.h' line='77' column='1'/>
            </data-member>
            <data-member access='public' layout-offset-in-bits='128'>
              <var-decl name='_M_end_of_storage' type-id='type-id-360' visibility='default' filepath='/usr/lib/gcc/x86_64-redhat-linux/4.4.7/../../../../include/c++/4.4.7/bits/stl_vector.h' line='78' column='1'/>
            </data-member>
            <member-function access='public' constructor='yes'>
              <function-decl name='_Vector_impl' filepath='/usr/lib/gcc/x86_64-redhat-linux/4.4.7/../../../../include/c++/4.4.7/bits/stl_vector.h' line='80' column='1' visibility='default' binding='global' size-in-bits='64'>
                <parameter type-id='type-id-437' is-artificial='yes'/>
                <return type-id='type-id-28'/>
              </function-decl>
            </member-function>
            <member-function access='public' constructor='yes'>
              <function-decl name='_Vector_impl' filepath='/usr/lib/gcc/x86_64-redhat-linux/4.4.7/../../../../include/c++/4.4.7/bits/stl_vector.h' line='84' column='1' visibility='default' binding='global' size-in-bits='64'>
                <parameter type-id='type-id-437' is-artificial='yes'/>
                <parameter type-id='type-id-356'/>
                <return type-id='type-id-28'/>
              </function-decl>
            </member-function>
          </class-decl>
        </member-type>
        <data-member access='public' layout-offset-in-bits='0'>
          <var-decl name='_M_impl' type-id='type-id-435' visibility='default' filepath='/usr/lib/gcc/x86_64-redhat-linux/4.4.7/../../../../include/c++/4.4.7/bits/stl_vector.h' line='136' column='1'/>
        </data-member>
        <member-function access='public'>
          <function-decl name='_Vector_base' filepath='/usr/lib/gcc/x86_64-redhat-linux/4.4.7/../../../../include/c++/4.4.7/bits/stl_vector.h' line='104' column='1' visibility='default' binding='global' size-in-bits='64'>
            <parameter type-id='type-id-438' is-artificial='yes'/>
            <return type-id='type-id-28'/>
          </function-decl>
        </member-function>
        <member-function access='public'>
          <function-decl name='_Vector_base' filepath='/usr/lib/gcc/x86_64-redhat-linux/4.4.7/../../../../include/c++/4.4.7/bits/stl_vector.h' line='107' column='1' visibility='default' binding='global' size-in-bits='64'>
            <parameter type-id='type-id-438' is-artificial='yes'/>
            <parameter type-id='type-id-356'/>
            <return type-id='type-id-28'/>
          </function-decl>
        </member-function>
        <member-function access='public'>
          <function-decl name='_Vector_base' filepath='/usr/lib/gcc/x86_64-redhat-linux/4.4.7/../../../../include/c++/4.4.7/bits/stl_vector.h' line='110' column='1' visibility='default' binding='global' size-in-bits='64'>
            <parameter type-id='type-id-438' is-artificial='yes'/>
            <parameter type-id='type-id-4'/>
            <parameter type-id='type-id-356'/>
            <return type-id='type-id-28'/>
          </function-decl>
        </member-function>
        <member-function access='public' destructor='yes'>
          <function-decl name='~_Vector_base' filepath='/usr/lib/gcc/x86_64-redhat-linux/4.4.7/../../../../include/c++/4.4.7/bits/stl_vector.h' line='131' column='1' visibility='default' binding='global' size-in-bits='64'>
            <parameter type-id='type-id-438' is-artificial='yes'/>
            <parameter type-id='type-id-17' is-artificial='yes'/>
            <return type-id='type-id-28'/>
          </function-decl>
        </member-function>
      </class-decl>
    </namespace-decl>
    <namespace-decl name='std'>
      <class-decl name='_Vector_base&lt;vtkStdString, std::allocator&lt;vtkStdString&gt; &gt;' size-in-bits='192' is-struct='yes' visibility='default' filepath='/usr/lib/gcc/x86_64-redhat-linux/4.4.7/../../../../include/c++/4.4.7/bits/stl_vector.h' line='70' column='1' id='type-id-366'>
        <member-type access='public'>
          <class-decl name='_Vector_impl' size-in-bits='192' is-struct='yes' visibility='default' filepath='/usr/lib/gcc/x86_64-redhat-linux/4.4.7/../../../../include/c++/4.4.7/bits/stl_vector.h' line='75' column='1' id='type-id-439'>
            <base-class access='public' layout-offset-in-bits='0' type-id='type-id-440'/>
            <data-member access='public' layout-offset-in-bits='0'>
              <var-decl name='_M_start' type-id='type-id-85' visibility='default' filepath='/usr/lib/gcc/x86_64-redhat-linux/4.4.7/../../../../include/c++/4.4.7/bits/stl_vector.h' line='76' column='1'/>
            </data-member>
            <data-member access='public' layout-offset-in-bits='64'>
              <var-decl name='_M_finish' type-id='type-id-85' visibility='default' filepath='/usr/lib/gcc/x86_64-redhat-linux/4.4.7/../../../../include/c++/4.4.7/bits/stl_vector.h' line='77' column='1'/>
            </data-member>
            <data-member access='public' layout-offset-in-bits='128'>
              <var-decl name='_M_end_of_storage' type-id='type-id-85' visibility='default' filepath='/usr/lib/gcc/x86_64-redhat-linux/4.4.7/../../../../include/c++/4.4.7/bits/stl_vector.h' line='78' column='1'/>
            </data-member>
            <member-function access='public' constructor='yes'>
              <function-decl name='_Vector_impl' filepath='/usr/lib/gcc/x86_64-redhat-linux/4.4.7/../../../../include/c++/4.4.7/bits/stl_vector.h' line='80' column='1' visibility='default' binding='global' size-in-bits='64'>
                <parameter type-id='type-id-441' is-artificial='yes'/>
                <return type-id='type-id-28'/>
              </function-decl>
            </member-function>
            <member-function access='public' constructor='yes'>
              <function-decl name='_Vector_impl' filepath='/usr/lib/gcc/x86_64-redhat-linux/4.4.7/../../../../include/c++/4.4.7/bits/stl_vector.h' line='84' column='1' visibility='default' binding='global' size-in-bits='64'>
                <parameter type-id='type-id-441' is-artificial='yes'/>
                <parameter type-id='type-id-368'/>
                <return type-id='type-id-28'/>
              </function-decl>
            </member-function>
          </class-decl>
        </member-type>
        <data-member access='public' layout-offset-in-bits='0'>
          <var-decl name='_M_impl' type-id='type-id-439' visibility='default' filepath='/usr/lib/gcc/x86_64-redhat-linux/4.4.7/../../../../include/c++/4.4.7/bits/stl_vector.h' line='136' column='1'/>
        </data-member>
        <member-function access='public'>
          <function-decl name='_Vector_base' filepath='/usr/lib/gcc/x86_64-redhat-linux/4.4.7/../../../../include/c++/4.4.7/bits/stl_vector.h' line='104' column='1' visibility='default' binding='global' size-in-bits='64'>
            <parameter type-id='type-id-442' is-artificial='yes'/>
            <return type-id='type-id-28'/>
          </function-decl>
        </member-function>
        <member-function access='public'>
          <function-decl name='_Vector_base' filepath='/usr/lib/gcc/x86_64-redhat-linux/4.4.7/../../../../include/c++/4.4.7/bits/stl_vector.h' line='107' column='1' visibility='default' binding='global' size-in-bits='64'>
            <parameter type-id='type-id-442' is-artificial='yes'/>
            <parameter type-id='type-id-368'/>
            <return type-id='type-id-28'/>
          </function-decl>
        </member-function>
        <member-function access='public'>
          <function-decl name='_Vector_base' filepath='/usr/lib/gcc/x86_64-redhat-linux/4.4.7/../../../../include/c++/4.4.7/bits/stl_vector.h' line='110' column='1' visibility='default' binding='global' size-in-bits='64'>
            <parameter type-id='type-id-442' is-artificial='yes'/>
            <parameter type-id='type-id-4'/>
            <parameter type-id='type-id-368'/>
            <return type-id='type-id-28'/>
          </function-decl>
        </member-function>
        <member-function access='public' destructor='yes'>
          <function-decl name='~_Vector_base' filepath='/usr/lib/gcc/x86_64-redhat-linux/4.4.7/../../../../include/c++/4.4.7/bits/stl_vector.h' line='131' column='1' visibility='default' binding='global' size-in-bits='64'>
            <parameter type-id='type-id-442' is-artificial='yes'/>
            <parameter type-id='type-id-17' is-artificial='yes'/>
            <return type-id='type-id-28'/>
          </function-decl>
        </member-function>
      </class-decl>
    </namespace-decl>
    <qualified-type-def type-id='type-id-264' const='yes' id='type-id-383'/>
    <reference-type-def kind='lvalue' type-id='type-id-443' size-in-bits='64' id='type-id-304'/>
    <reference-type-def kind='lvalue' type-id='type-id-444' size-in-bits='64' id='type-id-316'/>
    <reference-type-def kind='lvalue' type-id='type-id-445' size-in-bits='64' id='type-id-328'/>
    <reference-type-def kind='lvalue' type-id='type-id-446' size-in-bits='64' id='type-id-340'/>
    <reference-type-def kind='lvalue' type-id='type-id-447' size-in-bits='64' id='type-id-348'/>
    <reference-type-def kind='lvalue' type-id='type-id-448' size-in-bits='64' id='type-id-356'/>
    <reference-type-def kind='lvalue' type-id='type-id-449' size-in-bits='64' id='type-id-368'/>
    <reference-type-def kind='lvalue' type-id='type-id-450' size-in-bits='64' id='type-id-306'/>
    <qualified-type-def type-id='type-id-306' id='type-id-312'/>
    <reference-type-def kind='lvalue' type-id='type-id-451' size-in-bits='64' id='type-id-318'/>
    <qualified-type-def type-id='type-id-318' id='type-id-324'/>
    <reference-type-def kind='lvalue' type-id='type-id-452' size-in-bits='64' id='type-id-330'/>
    <qualified-type-def type-id='type-id-330' id='type-id-336'/>
    <reference-type-def kind='lvalue' type-id='type-id-453' size-in-bits='64' id='type-id-342'/>
    <reference-type-def kind='lvalue' type-id='type-id-454' size-in-bits='64' id='type-id-350'/>
    <reference-type-def kind='lvalue' type-id='type-id-455' size-in-bits='64' id='type-id-358'/>
    <qualified-type-def type-id='type-id-358' id='type-id-364'/>
    <reference-type-def kind='lvalue' type-id='type-id-456' size-in-bits='64' id='type-id-369'/>
    <qualified-type-def type-id='type-id-369' id='type-id-374'/>
    <reference-type-def kind='lvalue' type-id='type-id-457' size-in-bits='64' id='type-id-305'/>
    <qualified-type-def type-id='type-id-305' id='type-id-311'/>
    <reference-type-def kind='lvalue' type-id='type-id-458' size-in-bits='64' id='type-id-317'/>
    <qualified-type-def type-id='type-id-317' id='type-id-323'/>
    <reference-type-def kind='lvalue' type-id='type-id-459' size-in-bits='64' id='type-id-329'/>
    <qualified-type-def type-id='type-id-329' id='type-id-335'/>
    <reference-type-def kind='lvalue' type-id='type-id-460' size-in-bits='64' id='type-id-341'/>
    <qualified-type-def type-id='type-id-341' id='type-id-345'/>
    <reference-type-def kind='lvalue' type-id='type-id-461' size-in-bits='64' id='type-id-349'/>
    <qualified-type-def type-id='type-id-349' id='type-id-353'/>
    <reference-type-def kind='lvalue' type-id='type-id-462' size-in-bits='64' id='type-id-357'/>
    <qualified-type-def type-id='type-id-357' id='type-id-363'/>
    <qualified-type-def type-id='type-id-259' id='type-id-372'/>
    <qualified-type-def type-id='type-id-380' const='yes' id='type-id-382'/>
    <reference-type-def kind='lvalue' type-id='type-id-291' size-in-bits='64' id='type-id-313'/>
    <pointer-type-def type-id='type-id-291' size-in-bits='64' id='type-id-303'/>
    <qualified-type-def type-id='type-id-303' const='yes' id='type-id-309'/>
    <reference-type-def kind='lvalue' type-id='type-id-292' size-in-bits='64' id='type-id-325'/>
    <pointer-type-def type-id='type-id-292' size-in-bits='64' id='type-id-315'/>
    <qualified-type-def type-id='type-id-315' const='yes' id='type-id-321'/>
    <reference-type-def kind='lvalue' type-id='type-id-294' size-in-bits='64' id='type-id-337'/>
    <pointer-type-def type-id='type-id-294' size-in-bits='64' id='type-id-327'/>
    <qualified-type-def type-id='type-id-327' const='yes' id='type-id-333'/>
    <pointer-type-def type-id='type-id-295' size-in-bits='64' id='type-id-339'/>
    <qualified-type-def type-id='type-id-339' const='yes' id='type-id-343'/>
    <pointer-type-def type-id='type-id-296' size-in-bits='64' id='type-id-347'/>
    <qualified-type-def type-id='type-id-347' const='yes' id='type-id-351'/>
    <reference-type-def kind='lvalue' type-id='type-id-293' size-in-bits='64' id='type-id-365'/>
    <pointer-type-def type-id='type-id-293' size-in-bits='64' id='type-id-355'/>
    <qualified-type-def type-id='type-id-355' const='yes' id='type-id-361'/>
    <reference-type-def kind='lvalue' type-id='type-id-287' size-in-bits='64' id='type-id-375'/>
    <pointer-type-def type-id='type-id-287' size-in-bits='64' id='type-id-367'/>
    <qualified-type-def type-id='type-id-367' const='yes' id='type-id-370'/>
    <typedef-decl name='vtkUnicodeStringValueType' type-id='type-id-463' filepath='/var/tmp/gamblin2/spack-stage/spack-stage-hrtRhh/VTK-6.1.0/Common/Core/vtkUnicodeString.h' line='54' column='1' id='type-id-378'/>
    <pointer-type-def type-id='type-id-285' size-in-bits='64' id='type-id-308'/>
    <pointer-type-def type-id='type-id-286' size-in-bits='64' id='type-id-320'/>
    <pointer-type-def type-id='type-id-288' size-in-bits='64' id='type-id-332'/>
    <pointer-type-def type-id='type-id-289' size-in-bits='64' id='type-id-360'/>
    <pointer-type-def type-id='type-id-376' size-in-bits='64' id='type-id-379'/>
    <pointer-type-def type-id='type-id-307' size-in-bits='64' id='type-id-385'/>
    <pointer-type-def type-id='type-id-319' size-in-bits='64' id='type-id-388'/>
    <pointer-type-def type-id='type-id-331' size-in-bits='64' id='type-id-391'/>
    <pointer-type-def type-id='type-id-359' size-in-bits='64' id='type-id-394'/>
    <pointer-type-def type-id='type-id-373' size-in-bits='64' id='type-id-397'/>
    <pointer-type-def type-id='type-id-310' size-in-bits='64' id='type-id-399'/>
    <pointer-type-def type-id='type-id-322' size-in-bits='64' id='type-id-401'/>
    <pointer-type-def type-id='type-id-334' size-in-bits='64' id='type-id-403'/>
    <pointer-type-def type-id='type-id-344' size-in-bits='64' id='type-id-406'/>
    <pointer-type-def type-id='type-id-352' size-in-bits='64' id='type-id-409'/>
    <pointer-type-def type-id='type-id-362' size-in-bits='64' id='type-id-411'/>
    <pointer-type-def type-id='type-id-371' size-in-bits='64' id='type-id-413'/>
    <namespace-decl name='std'>
      <class-decl name='allocator&lt;vtkSQLDatabaseSchemaInternals::Column&gt;' size-in-bits='8' visibility='default' filepath='/usr/lib/gcc/x86_64-redhat-linux/4.4.7/../../../../include/c++/4.4.7/bits/allocator.h' line='87' column='1' id='type-id-416'>
        <base-class access='public' layout-offset-in-bits='0' type-id='type-id-464'/>
        <member-function access='private'>
          <function-decl name='allocator' filepath='/usr/lib/gcc/x86_64-redhat-linux/4.4.7/../../../../include/c++/4.4.7/bits/allocator.h' line='101' column='1' visibility='default' binding='global' size-in-bits='64'>
            <parameter type-id='type-id-465' is-artificial='yes'/>
            <return type-id='type-id-28'/>
          </function-decl>
        </member-function>
        <member-function access='private'>
          <function-decl name='allocator' filepath='/usr/lib/gcc/x86_64-redhat-linux/4.4.7/../../../../include/c++/4.4.7/bits/allocator.h' line='103' column='1' visibility='default' binding='global' size-in-bits='64'>
            <parameter type-id='type-id-465' is-artificial='yes'/>
            <parameter type-id='type-id-304'/>
            <return type-id='type-id-28'/>
          </function-decl>
        </member-function>
        <member-function access='private' destructor='yes'>
          <function-decl name='~allocator' filepath='/usr/lib/gcc/x86_64-redhat-linux/4.4.7/../../../../include/c++/4.4.7/bits/allocator.h' line='109' column='1' visibility='default' binding='global' size-in-bits='64'>
            <parameter type-id='type-id-465' is-artificial='yes'/>
            <parameter type-id='type-id-17' is-artificial='yes'/>
            <return type-id='type-id-28'/>
          </function-decl>
        </member-function>
      </class-decl>
    </namespace-decl>
    <namespace-decl name='std'>
      <class-decl name='allocator&lt;vtkSQLDatabaseSchemaInternals::Index&gt;' size-in-bits='8' visibility='default' filepath='/usr/lib/gcc/x86_64-redhat-linux/4.4.7/../../../../include/c++/4.4.7/bits/allocator.h' line='87' column='1' id='type-id-420'>
        <base-class access='public' layout-offset-in-bits='0' type-id='type-id-466'/>
        <member-function access='private'>
          <function-decl name='allocator' filepath='/usr/lib/gcc/x86_64-redhat-linux/4.4.7/../../../../include/c++/4.4.7/bits/allocator.h' line='101' column='1' visibility='default' binding='global' size-in-bits='64'>
            <parameter type-id='type-id-467' is-artificial='yes'/>
            <return type-id='type-id-28'/>
          </function-decl>
        </member-function>
        <member-function access='private'>
          <function-decl name='allocator' filepath='/usr/lib/gcc/x86_64-redhat-linux/4.4.7/../../../../include/c++/4.4.7/bits/allocator.h' line='103' column='1' visibility='default' binding='global' size-in-bits='64'>
            <parameter type-id='type-id-467' is-artificial='yes'/>
            <parameter type-id='type-id-316'/>
            <return type-id='type-id-28'/>
          </function-decl>
        </member-function>
        <member-function access='private' destructor='yes'>
          <function-decl name='~allocator' filepath='/usr/lib/gcc/x86_64-redhat-linux/4.4.7/../../../../include/c++/4.4.7/bits/allocator.h' line='109' column='1' visibility='default' binding='global' size-in-bits='64'>
            <parameter type-id='type-id-467' is-artificial='yes'/>
            <parameter type-id='type-id-17' is-artificial='yes'/>
            <return type-id='type-id-28'/>
          </function-decl>
        </member-function>
      </class-decl>
    </namespace-decl>
    <namespace-decl name='std'>
      <class-decl name='allocator&lt;vtkSQLDatabaseSchemaInternals::Option&gt;' size-in-bits='8' visibility='default' filepath='/usr/lib/gcc/x86_64-redhat-linux/4.4.7/../../../../include/c++/4.4.7/bits/allocator.h' line='87' column='1' id='type-id-424'>
        <base-class access='public' layout-offset-in-bits='0' type-id='type-id-468'/>
        <member-function access='private'>
          <function-decl name='allocator' filepath='/usr/lib/gcc/x86_64-redhat-linux/4.4.7/../../../../include/c++/4.4.7/bits/allocator.h' line='101' column='1' visibility='default' binding='global' size-in-bits='64'>
            <parameter type-id='type-id-469' is-artificial='yes'/>
            <return type-id='type-id-28'/>
          </function-decl>
        </member-function>
        <member-function access='private'>
          <function-decl name='allocator' filepath='/usr/lib/gcc/x86_64-redhat-linux/4.4.7/../../../../include/c++/4.4.7/bits/allocator.h' line='103' column='1' visibility='default' binding='global' size-in-bits='64'>
            <parameter type-id='type-id-469' is-artificial='yes'/>
            <parameter type-id='type-id-328'/>
            <return type-id='type-id-28'/>
          </function-decl>
        </member-function>
        <member-function access='private' destructor='yes'>
          <function-decl name='~allocator' filepath='/usr/lib/gcc/x86_64-redhat-linux/4.4.7/../../../../include/c++/4.4.7/bits/allocator.h' line='109' column='1' visibility='default' binding='global' size-in-bits='64'>
            <parameter type-id='type-id-469' is-artificial='yes'/>
            <parameter type-id='type-id-17' is-artificial='yes'/>
            <return type-id='type-id-28'/>
          </function-decl>
        </member-function>
      </class-decl>
    </namespace-decl>
    <namespace-decl name='std'>
      <class-decl name='allocator&lt;vtkSQLDatabaseSchemaInternals::Statement&gt;' size-in-bits='8' visibility='default' filepath='/usr/lib/gcc/x86_64-redhat-linux/4.4.7/../../../../include/c++/4.4.7/bits/allocator.h' line='87' column='1' id='type-id-428'>
        <base-class access='public' layout-offset-in-bits='0' type-id='type-id-470'/>
        <member-function access='private'>
          <function-decl name='allocator' filepath='/usr/lib/gcc/x86_64-redhat-linux/4.4.7/../../../../include/c++/4.4.7/bits/allocator.h' line='101' column='1' visibility='default' binding='global' size-in-bits='64'>
            <parameter type-id='type-id-471' is-artificial='yes'/>
            <return type-id='type-id-28'/>
          </function-decl>
        </member-function>
        <member-function access='private'>
          <function-decl name='allocator' filepath='/usr/lib/gcc/x86_64-redhat-linux/4.4.7/../../../../include/c++/4.4.7/bits/allocator.h' line='103' column='1' visibility='default' binding='global' size-in-bits='64'>
            <parameter type-id='type-id-471' is-artificial='yes'/>
            <parameter type-id='type-id-340'/>
            <return type-id='type-id-28'/>
          </function-decl>
        </member-function>
        <member-function access='private' destructor='yes'>
          <function-decl name='~allocator' filepath='/usr/lib/gcc/x86_64-redhat-linux/4.4.7/../../../../include/c++/4.4.7/bits/allocator.h' line='109' column='1' visibility='default' binding='global' size-in-bits='64'>
            <parameter type-id='type-id-471' is-artificial='yes'/>
            <parameter type-id='type-id-17' is-artificial='yes'/>
            <return type-id='type-id-28'/>
          </function-decl>
        </member-function>
      </class-decl>
    </namespace-decl>
    <namespace-decl name='std'>
      <class-decl name='allocator&lt;vtkSQLDatabaseSchemaInternals::Table&gt;' size-in-bits='8' visibility='default' filepath='/usr/lib/gcc/x86_64-redhat-linux/4.4.7/../../../../include/c++/4.4.7/bits/allocator.h' line='87' column='1' id='type-id-432'>
        <base-class access='public' layout-offset-in-bits='0' type-id='type-id-472'/>
        <member-function access='private'>
          <function-decl name='allocator' filepath='/usr/lib/gcc/x86_64-redhat-linux/4.4.7/../../../../include/c++/4.4.7/bits/allocator.h' line='101' column='1' visibility='default' binding='global' size-in-bits='64'>
            <parameter type-id='type-id-473' is-artificial='yes'/>
            <return type-id='type-id-28'/>
          </function-decl>
        </member-function>
        <member-function access='private'>
          <function-decl name='allocator' filepath='/usr/lib/gcc/x86_64-redhat-linux/4.4.7/../../../../include/c++/4.4.7/bits/allocator.h' line='103' column='1' visibility='default' binding='global' size-in-bits='64'>
            <parameter type-id='type-id-473' is-artificial='yes'/>
            <parameter type-id='type-id-348'/>
            <return type-id='type-id-28'/>
          </function-decl>
        </member-function>
        <member-function access='private' destructor='yes'>
          <function-decl name='~allocator' filepath='/usr/lib/gcc/x86_64-redhat-linux/4.4.7/../../../../include/c++/4.4.7/bits/allocator.h' line='109' column='1' visibility='default' binding='global' size-in-bits='64'>
            <parameter type-id='type-id-473' is-artificial='yes'/>
            <parameter type-id='type-id-17' is-artificial='yes'/>
            <return type-id='type-id-28'/>
          </function-decl>
        </member-function>
      </class-decl>
    </namespace-decl>
    <namespace-decl name='std'>
      <class-decl name='allocator&lt;vtkSQLDatabaseSchemaInternals::Trigger&gt;' size-in-bits='8' visibility='default' filepath='/usr/lib/gcc/x86_64-redhat-linux/4.4.7/../../../../include/c++/4.4.7/bits/allocator.h' line='87' column='1' id='type-id-436'>
        <base-class access='public' layout-offset-in-bits='0' type-id='type-id-474'/>
        <member-function access='private'>
          <function-decl name='allocator' filepath='/usr/lib/gcc/x86_64-redhat-linux/4.4.7/../../../../include/c++/4.4.7/bits/allocator.h' line='101' column='1' visibility='default' binding='global' size-in-bits='64'>
            <parameter type-id='type-id-475' is-artificial='yes'/>
            <return type-id='type-id-28'/>
          </function-decl>
        </member-function>
        <member-function access='private'>
          <function-decl name='allocator' filepath='/usr/lib/gcc/x86_64-redhat-linux/4.4.7/../../../../include/c++/4.4.7/bits/allocator.h' line='103' column='1' visibility='default' binding='global' size-in-bits='64'>
            <parameter type-id='type-id-475' is-artificial='yes'/>
            <parameter type-id='type-id-356'/>
            <return type-id='type-id-28'/>
          </function-decl>
        </member-function>
        <member-function access='private' destructor='yes'>
          <function-decl name='~allocator' filepath='/usr/lib/gcc/x86_64-redhat-linux/4.4.7/../../../../include/c++/4.4.7/bits/allocator.h' line='109' column='1' visibility='default' binding='global' size-in-bits='64'>
            <parameter type-id='type-id-475' is-artificial='yes'/>
            <parameter type-id='type-id-17' is-artificial='yes'/>
            <return type-id='type-id-28'/>
          </function-decl>
        </member-function>
      </class-decl>
    </namespace-decl>
    <namespace-decl name='std'>
      <class-decl name='allocator&lt;vtkStdString&gt;' size-in-bits='8' visibility='default' filepath='/usr/lib/gcc/x86_64-redhat-linux/4.4.7/../../../../include/c++/4.4.7/bits/allocator.h' line='87' column='1' id='type-id-440'>
        <base-class access='public' layout-offset-in-bits='0' type-id='type-id-476'/>
        <member-function access='private'>
          <function-decl name='allocator' filepath='/usr/lib/gcc/x86_64-redhat-linux/4.4.7/../../../../include/c++/4.4.7/bits/allocator.h' line='101' column='1' visibility='default' binding='global' size-in-bits='64'>
            <parameter type-id='type-id-477' is-artificial='yes'/>
            <return type-id='type-id-28'/>
          </function-decl>
        </member-function>
        <member-function access='private'>
          <function-decl name='allocator' filepath='/usr/lib/gcc/x86_64-redhat-linux/4.4.7/../../../../include/c++/4.4.7/bits/allocator.h' line='103' column='1' visibility='default' binding='global' size-in-bits='64'>
            <parameter type-id='type-id-477' is-artificial='yes'/>
            <parameter type-id='type-id-368'/>
            <return type-id='type-id-28'/>
          </function-decl>
        </member-function>
        <member-function access='private' destructor='yes'>
          <function-decl name='~allocator' filepath='/usr/lib/gcc/x86_64-redhat-linux/4.4.7/../../../../include/c++/4.4.7/bits/allocator.h' line='109' column='1' visibility='default' binding='global' size-in-bits='64'>
            <parameter type-id='type-id-477' is-artificial='yes'/>
            <parameter type-id='type-id-17' is-artificial='yes'/>
            <return type-id='type-id-28'/>
          </function-decl>
        </member-function>
      </class-decl>
    </namespace-decl>
    <qualified-type-def type-id='type-id-416' const='yes' id='type-id-443'/>
    <qualified-type-def type-id='type-id-420' const='yes' id='type-id-444'/>
    <qualified-type-def type-id='type-id-424' const='yes' id='type-id-445'/>
    <qualified-type-def type-id='type-id-428' const='yes' id='type-id-446'/>
    <qualified-type-def type-id='type-id-432' const='yes' id='type-id-447'/>
    <qualified-type-def type-id='type-id-436' const='yes' id='type-id-448'/>
    <qualified-type-def type-id='type-id-440' const='yes' id='type-id-449'/>
    <qualified-type-def type-id='type-id-291' const='yes' id='type-id-450'/>
    <qualified-type-def type-id='type-id-292' const='yes' id='type-id-451'/>
    <qualified-type-def type-id='type-id-294' const='yes' id='type-id-452'/>
    <qualified-type-def type-id='type-id-295' const='yes' id='type-id-453'/>
    <qualified-type-def type-id='type-id-296' const='yes' id='type-id-454'/>
    <qualified-type-def type-id='type-id-293' const='yes' id='type-id-455'/>
    <qualified-type-def type-id='type-id-287' const='yes' id='type-id-456'/>
    <qualified-type-def type-id='type-id-285' const='yes' id='type-id-457'/>
    <pointer-type-def type-id='type-id-457' size-in-bits='64' id='type-id-384'/>
    <reference-type-def kind='lvalue' type-id='type-id-478' size-in-bits='64' id='type-id-386'/>
    <qualified-type-def type-id='type-id-286' const='yes' id='type-id-458'/>
    <pointer-type-def type-id='type-id-458' size-in-bits='64' id='type-id-387'/>
    <reference-type-def kind='lvalue' type-id='type-id-479' size-in-bits='64' id='type-id-389'/>
    <qualified-type-def type-id='type-id-288' const='yes' id='type-id-459'/>
    <pointer-type-def type-id='type-id-459' size-in-bits='64' id='type-id-390'/>
    <reference-type-def kind='lvalue' type-id='type-id-480' size-in-bits='64' id='type-id-392'/>
    <qualified-type-def type-id='type-id-284' const='yes' id='type-id-460'/>
    <qualified-type-def type-id='type-id-290' const='yes' id='type-id-461'/>
    <qualified-type-def type-id='type-id-289' const='yes' id='type-id-462'/>
    <pointer-type-def type-id='type-id-462' size-in-bits='64' id='type-id-393'/>
    <reference-type-def kind='lvalue' type-id='type-id-481' size-in-bits='64' id='type-id-395'/>
    <pointer-type-def type-id='type-id-279' size-in-bits='64' id='type-id-396'/>
    <reference-type-def kind='lvalue' type-id='type-id-482' size-in-bits='64' id='type-id-398'/>
    <pointer-type-def type-id='type-id-302' size-in-bits='64' id='type-id-418'/>
    <pointer-type-def type-id='type-id-415' size-in-bits='64' id='type-id-417'/>
    <pointer-type-def type-id='type-id-314' size-in-bits='64' id='type-id-422'/>
    <pointer-type-def type-id='type-id-419' size-in-bits='64' id='type-id-421'/>
    <pointer-type-def type-id='type-id-326' size-in-bits='64' id='type-id-426'/>
    <pointer-type-def type-id='type-id-423' size-in-bits='64' id='type-id-425'/>
    <pointer-type-def type-id='type-id-338' size-in-bits='64' id='type-id-430'/>
    <pointer-type-def type-id='type-id-427' size-in-bits='64' id='type-id-429'/>
    <pointer-type-def type-id='type-id-346' size-in-bits='64' id='type-id-434'/>
    <pointer-type-def type-id='type-id-431' size-in-bits='64' id='type-id-433'/>
    <pointer-type-def type-id='type-id-354' size-in-bits='64' id='type-id-438'/>
    <pointer-type-def type-id='type-id-435' size-in-bits='64' id='type-id-437'/>
    <pointer-type-def type-id='type-id-366' size-in-bits='64' id='type-id-442'/>
    <pointer-type-def type-id='type-id-439' size-in-bits='64' id='type-id-441'/>
    <typedef-decl name='vtkTypeUInt32' type-id='type-id-13' filepath='/var/tmp/gamblin2/spack-stage/spack-stage-hrtRhh/VTK-6.1.0/Common/Core/vtkType.h' line='196' column='1' id='type-id-463'/>
    <reference-type-def kind='lvalue' type-id='type-id-483' size-in-bits='64' id='type-id-400'/>
    <reference-type-def kind='lvalue' type-id='type-id-484' size-in-bits='64' id='type-id-402'/>
    <reference-type-def kind='lvalue' type-id='type-id-485' size-in-bits='64' id='type-id-404'/>
    <pointer-type-def type-id='type-id-284' size-in-bits='64' id='type-id-405'/>
    <reference-type-def kind='lvalue' type-id='type-id-486' size-in-bits='64' id='type-id-407'/>
    <pointer-type-def type-id='type-id-290' size-in-bits='64' id='type-id-408'/>
    <reference-type-def kind='lvalue' type-id='type-id-487' size-in-bits='64' id='type-id-410'/>
    <reference-type-def kind='lvalue' type-id='type-id-488' size-in-bits='64' id='type-id-412'/>
    <reference-type-def kind='lvalue' type-id='type-id-489' size-in-bits='64' id='type-id-414'/>
    <namespace-decl name='__gnu_cxx'>
      <class-decl name='new_allocator&lt;vtkSQLDatabaseSchemaInternals::Column&gt;' size-in-bits='8' visibility='default' filepath='/usr/lib/gcc/x86_64-redhat-linux/4.4.7/../../../../include/c++/4.4.7/ext/new_allocator.h' line='52' column='1' id='type-id-464'>
        <member-function access='private'>
          <function-decl name='new_allocator' filepath='/usr/lib/gcc/x86_64-redhat-linux/4.4.7/../../../../include/c++/4.4.7/ext/new_allocator.h' line='66' column='1' visibility='default' binding='global' size-in-bits='64'>
            <parameter type-id='type-id-490' is-artificial='yes'/>
            <return type-id='type-id-28'/>
          </function-decl>
        </member-function>
        <member-function access='private'>
          <function-decl name='new_allocator' filepath='/usr/lib/gcc/x86_64-redhat-linux/4.4.7/../../../../include/c++/4.4.7/ext/new_allocator.h' line='68' column='1' visibility='default' binding='global' size-in-bits='64'>
            <parameter type-id='type-id-490' is-artificial='yes'/>
            <parameter type-id='type-id-491'/>
            <return type-id='type-id-28'/>
          </function-decl>
        </member-function>
        <member-function access='private' destructor='yes'>
          <function-decl name='~new_allocator' filepath='/usr/lib/gcc/x86_64-redhat-linux/4.4.7/../../../../include/c++/4.4.7/ext/new_allocator.h' line='73' column='1' visibility='default' binding='global' size-in-bits='64'>
            <parameter type-id='type-id-490' is-artificial='yes'/>
            <parameter type-id='type-id-17' is-artificial='yes'/>
            <return type-id='type-id-28'/>
          </function-decl>
        </member-function>
      </class-decl>
    </namespace-decl>
    <namespace-decl name='__gnu_cxx'>
      <class-decl name='new_allocator&lt;vtkSQLDatabaseSchemaInternals::Index&gt;' size-in-bits='8' visibility='default' filepath='/usr/lib/gcc/x86_64-redhat-linux/4.4.7/../../../../include/c++/4.4.7/ext/new_allocator.h' line='52' column='1' id='type-id-466'>
        <member-function access='private'>
          <function-decl name='new_allocator' filepath='/usr/lib/gcc/x86_64-redhat-linux/4.4.7/../../../../include/c++/4.4.7/ext/new_allocator.h' line='66' column='1' visibility='default' binding='global' size-in-bits='64'>
            <parameter type-id='type-id-492' is-artificial='yes'/>
            <return type-id='type-id-28'/>
          </function-decl>
        </member-function>
        <member-function access='private'>
          <function-decl name='new_allocator' filepath='/usr/lib/gcc/x86_64-redhat-linux/4.4.7/../../../../include/c++/4.4.7/ext/new_allocator.h' line='68' column='1' visibility='default' binding='global' size-in-bits='64'>
            <parameter type-id='type-id-492' is-artificial='yes'/>
            <parameter type-id='type-id-493'/>
            <return type-id='type-id-28'/>
          </function-decl>
        </member-function>
        <member-function access='private' destructor='yes'>
          <function-decl name='~new_allocator' filepath='/usr/lib/gcc/x86_64-redhat-linux/4.4.7/../../../../include/c++/4.4.7/ext/new_allocator.h' line='73' column='1' visibility='default' binding='global' size-in-bits='64'>
            <parameter type-id='type-id-492' is-artificial='yes'/>
            <parameter type-id='type-id-17' is-artificial='yes'/>
            <return type-id='type-id-28'/>
          </function-decl>
        </member-function>
      </class-decl>
    </namespace-decl>
    <namespace-decl name='__gnu_cxx'>
      <class-decl name='new_allocator&lt;vtkSQLDatabaseSchemaInternals::Option&gt;' size-in-bits='8' visibility='default' filepath='/usr/lib/gcc/x86_64-redhat-linux/4.4.7/../../../../include/c++/4.4.7/ext/new_allocator.h' line='52' column='1' id='type-id-468'>
        <member-function access='private'>
          <function-decl name='new_allocator' filepath='/usr/lib/gcc/x86_64-redhat-linux/4.4.7/../../../../include/c++/4.4.7/ext/new_allocator.h' line='66' column='1' visibility='default' binding='global' size-in-bits='64'>
            <parameter type-id='type-id-494' is-artificial='yes'/>
            <return type-id='type-id-28'/>
          </function-decl>
        </member-function>
        <member-function access='private'>
          <function-decl name='new_allocator' filepath='/usr/lib/gcc/x86_64-redhat-linux/4.4.7/../../../../include/c++/4.4.7/ext/new_allocator.h' line='68' column='1' visibility='default' binding='global' size-in-bits='64'>
            <parameter type-id='type-id-494' is-artificial='yes'/>
            <parameter type-id='type-id-495'/>
            <return type-id='type-id-28'/>
          </function-decl>
        </member-function>
        <member-function access='private' destructor='yes'>
          <function-decl name='~new_allocator' filepath='/usr/lib/gcc/x86_64-redhat-linux/4.4.7/../../../../include/c++/4.4.7/ext/new_allocator.h' line='73' column='1' visibility='default' binding='global' size-in-bits='64'>
            <parameter type-id='type-id-494' is-artificial='yes'/>
            <parameter type-id='type-id-17' is-artificial='yes'/>
            <return type-id='type-id-28'/>
          </function-decl>
        </member-function>
      </class-decl>
    </namespace-decl>
    <namespace-decl name='__gnu_cxx'>
      <class-decl name='new_allocator&lt;vtkSQLDatabaseSchemaInternals::Statement&gt;' size-in-bits='8' visibility='default' filepath='/usr/lib/gcc/x86_64-redhat-linux/4.4.7/../../../../include/c++/4.4.7/ext/new_allocator.h' line='52' column='1' id='type-id-470'>
        <member-function access='private'>
          <function-decl name='new_allocator' filepath='/usr/lib/gcc/x86_64-redhat-linux/4.4.7/../../../../include/c++/4.4.7/ext/new_allocator.h' line='66' column='1' visibility='default' binding='global' size-in-bits='64'>
            <parameter type-id='type-id-496' is-artificial='yes'/>
            <return type-id='type-id-28'/>
          </function-decl>
        </member-function>
        <member-function access='private'>
          <function-decl name='new_allocator' filepath='/usr/lib/gcc/x86_64-redhat-linux/4.4.7/../../../../include/c++/4.4.7/ext/new_allocator.h' line='68' column='1' visibility='default' binding='global' size-in-bits='64'>
            <parameter type-id='type-id-496' is-artificial='yes'/>
            <parameter type-id='type-id-497'/>
            <return type-id='type-id-28'/>
          </function-decl>
        </member-function>
        <member-function access='private' destructor='yes'>
          <function-decl name='~new_allocator' filepath='/usr/lib/gcc/x86_64-redhat-linux/4.4.7/../../../../include/c++/4.4.7/ext/new_allocator.h' line='73' column='1' visibility='default' binding='global' size-in-bits='64'>
            <parameter type-id='type-id-496' is-artificial='yes'/>
            <parameter type-id='type-id-17' is-artificial='yes'/>
            <return type-id='type-id-28'/>
          </function-decl>
        </member-function>
      </class-decl>
    </namespace-decl>
    <namespace-decl name='__gnu_cxx'>
      <class-decl name='new_allocator&lt;vtkSQLDatabaseSchemaInternals::Table&gt;' size-in-bits='8' visibility='default' filepath='/usr/lib/gcc/x86_64-redhat-linux/4.4.7/../../../../include/c++/4.4.7/ext/new_allocator.h' line='52' column='1' id='type-id-472'>
        <member-function access='private'>
          <function-decl name='new_allocator' filepath='/usr/lib/gcc/x86_64-redhat-linux/4.4.7/../../../../include/c++/4.4.7/ext/new_allocator.h' line='66' column='1' visibility='default' binding='global' size-in-bits='64'>
            <parameter type-id='type-id-498' is-artificial='yes'/>
            <return type-id='type-id-28'/>
          </function-decl>
        </member-function>
        <member-function access='private'>
          <function-decl name='new_allocator' filepath='/usr/lib/gcc/x86_64-redhat-linux/4.4.7/../../../../include/c++/4.4.7/ext/new_allocator.h' line='68' column='1' visibility='default' binding='global' size-in-bits='64'>
            <parameter type-id='type-id-498' is-artificial='yes'/>
            <parameter type-id='type-id-499'/>
            <return type-id='type-id-28'/>
          </function-decl>
        </member-function>
        <member-function access='private' destructor='yes'>
          <function-decl name='~new_allocator' filepath='/usr/lib/gcc/x86_64-redhat-linux/4.4.7/../../../../include/c++/4.4.7/ext/new_allocator.h' line='73' column='1' visibility='default' binding='global' size-in-bits='64'>
            <parameter type-id='type-id-498' is-artificial='yes'/>
            <parameter type-id='type-id-17' is-artificial='yes'/>
            <return type-id='type-id-28'/>
          </function-decl>
        </member-function>
      </class-decl>
    </namespace-decl>
    <namespace-decl name='__gnu_cxx'>
      <class-decl name='new_allocator&lt;vtkSQLDatabaseSchemaInternals::Trigger&gt;' size-in-bits='8' visibility='default' filepath='/usr/lib/gcc/x86_64-redhat-linux/4.4.7/../../../../include/c++/4.4.7/ext/new_allocator.h' line='52' column='1' id='type-id-474'>
        <member-function access='private'>
          <function-decl name='new_allocator' filepath='/usr/lib/gcc/x86_64-redhat-linux/4.4.7/../../../../include/c++/4.4.7/ext/new_allocator.h' line='66' column='1' visibility='default' binding='global' size-in-bits='64'>
            <parameter type-id='type-id-500' is-artificial='yes'/>
            <return type-id='type-id-28'/>
          </function-decl>
        </member-function>
        <member-function access='private'>
          <function-decl name='new_allocator' filepath='/usr/lib/gcc/x86_64-redhat-linux/4.4.7/../../../../include/c++/4.4.7/ext/new_allocator.h' line='68' column='1' visibility='default' binding='global' size-in-bits='64'>
            <parameter type-id='type-id-500' is-artificial='yes'/>
            <parameter type-id='type-id-501'/>
            <return type-id='type-id-28'/>
          </function-decl>
        </member-function>
        <member-function access='private' destructor='yes'>
          <function-decl name='~new_allocator' filepath='/usr/lib/gcc/x86_64-redhat-linux/4.4.7/../../../../include/c++/4.4.7/ext/new_allocator.h' line='73' column='1' visibility='default' binding='global' size-in-bits='64'>
            <parameter type-id='type-id-500' is-artificial='yes'/>
            <parameter type-id='type-id-17' is-artificial='yes'/>
            <return type-id='type-id-28'/>
          </function-decl>
        </member-function>
      </class-decl>
    </namespace-decl>
    <namespace-decl name='__gnu_cxx'>
      <class-decl name='new_allocator&lt;vtkStdString&gt;' size-in-bits='8' visibility='default' filepath='/usr/lib/gcc/x86_64-redhat-linux/4.4.7/../../../../include/c++/4.4.7/ext/new_allocator.h' line='52' column='1' id='type-id-476'>
        <member-function access='private'>
          <function-decl name='new_allocator' filepath='/usr/lib/gcc/x86_64-redhat-linux/4.4.7/../../../../include/c++/4.4.7/ext/new_allocator.h' line='66' column='1' visibility='default' binding='global' size-in-bits='64'>
            <parameter type-id='type-id-502' is-artificial='yes'/>
            <return type-id='type-id-28'/>
          </function-decl>
        </member-function>
        <member-function access='private'>
          <function-decl name='new_allocator' filepath='/usr/lib/gcc/x86_64-redhat-linux/4.4.7/../../../../include/c++/4.4.7/ext/new_allocator.h' line='68' column='1' visibility='default' binding='global' size-in-bits='64'>
            <parameter type-id='type-id-502' is-artificial='yes'/>
            <parameter type-id='type-id-503'/>
            <return type-id='type-id-28'/>
          </function-decl>
        </member-function>
        <member-function access='private' destructor='yes'>
          <function-decl name='~new_allocator' filepath='/usr/lib/gcc/x86_64-redhat-linux/4.4.7/../../../../include/c++/4.4.7/ext/new_allocator.h' line='73' column='1' visibility='default' binding='global' size-in-bits='64'>
            <parameter type-id='type-id-502' is-artificial='yes'/>
            <parameter type-id='type-id-17' is-artificial='yes'/>
            <return type-id='type-id-28'/>
          </function-decl>
        </member-function>
      </class-decl>
    </namespace-decl>
    <qualified-type-def type-id='type-id-384' const='yes' id='type-id-478'/>
    <qualified-type-def type-id='type-id-387' const='yes' id='type-id-479'/>
    <qualified-type-def type-id='type-id-390' const='yes' id='type-id-480'/>
    <qualified-type-def type-id='type-id-393' const='yes' id='type-id-481'/>
    <qualified-type-def type-id='type-id-396' const='yes' id='type-id-482'/>
    <pointer-type-def type-id='type-id-416' size-in-bits='64' id='type-id-465'/>
    <pointer-type-def type-id='type-id-420' size-in-bits='64' id='type-id-467'/>
    <pointer-type-def type-id='type-id-424' size-in-bits='64' id='type-id-469'/>
    <pointer-type-def type-id='type-id-428' size-in-bits='64' id='type-id-471'/>
    <pointer-type-def type-id='type-id-432' size-in-bits='64' id='type-id-473'/>
    <pointer-type-def type-id='type-id-436' size-in-bits='64' id='type-id-475'/>
    <pointer-type-def type-id='type-id-440' size-in-bits='64' id='type-id-477'/>
    <qualified-type-def type-id='type-id-308' const='yes' id='type-id-483'/>
    <qualified-type-def type-id='type-id-320' const='yes' id='type-id-484'/>
    <qualified-type-def type-id='type-id-332' const='yes' id='type-id-485'/>
    <qualified-type-def type-id='type-id-405' const='yes' id='type-id-486'/>
    <qualified-type-def type-id='type-id-408' const='yes' id='type-id-487'/>
    <qualified-type-def type-id='type-id-360' const='yes' id='type-id-488'/>
    <qualified-type-def type-id='type-id-85' const='yes' id='type-id-489'/>
    <pointer-type-def type-id='type-id-464' size-in-bits='64' id='type-id-490'/>
    <pointer-type-def type-id='type-id-466' size-in-bits='64' id='type-id-492'/>
    <pointer-type-def type-id='type-id-468' size-in-bits='64' id='type-id-494'/>
    <pointer-type-def type-id='type-id-470' size-in-bits='64' id='type-id-496'/>
    <pointer-type-def type-id='type-id-472' size-in-bits='64' id='type-id-498'/>
    <pointer-type-def type-id='type-id-474' size-in-bits='64' id='type-id-500'/>
    <pointer-type-def type-id='type-id-476' size-in-bits='64' id='type-id-502'/>
    <reference-type-def kind='lvalue' type-id='type-id-504' size-in-bits='64' id='type-id-491'/>
    <reference-type-def kind='lvalue' type-id='type-id-505' size-in-bits='64' id='type-id-493'/>
    <reference-type-def kind='lvalue' type-id='type-id-506' size-in-bits='64' id='type-id-495'/>
    <reference-type-def kind='lvalue' type-id='type-id-507' size-in-bits='64' id='type-id-497'/>
    <reference-type-def kind='lvalue' type-id='type-id-508' size-in-bits='64' id='type-id-499'/>
    <reference-type-def kind='lvalue' type-id='type-id-509' size-in-bits='64' id='type-id-501'/>
    <reference-type-def kind='lvalue' type-id='type-id-510' size-in-bits='64' id='type-id-503'/>
    <qualified-type-def type-id='type-id-464' const='yes' id='type-id-504'/>
    <qualified-type-def type-id='type-id-466' const='yes' id='type-id-505'/>
    <qualified-type-def type-id='type-id-468' const='yes' id='type-id-506'/>
    <qualified-type-def type-id='type-id-470' const='yes' id='type-id-507'/>
    <qualified-type-def type-id='type-id-472' const='yes' id='type-id-508'/>
    <qualified-type-def type-id='type-id-474' const='yes' id='type-id-509'/>
    <qualified-type-def type-id='type-id-476' const='yes' id='type-id-510'/>
  </abi-instr>
  <abi-instr address-size='64' path='/var/tmp/gamblin2/spack-stage/spack-stage-hrtRhh/VTK-6.1.0/IO/SQL/vtkRowQuery.cxx' comp-dir-path='/var/tmp/gamblin2/spack-stage/spack-stage-hrtRhh/VTK-6.1.0/spack-build/IO/SQL' language='LANG_C_plus_plus'>
    <type-decl name='short int' size-in-bits='16' id='type-id-256'/>
    <type-decl name='unsigned char' size-in-bits='8' id='type-id-255'/>
    <class-decl name='lldiv_t' size-in-bits='128' is-struct='yes' visibility='default' filepath='/usr/include/stdlib.h' line='119' column='1' id='type-id-511'>
      <data-member access='public' layout-offset-in-bits='0'>
        <var-decl name='quot' type-id='type-id-20' visibility='default' filepath='/usr/include/stdlib.h' line='120' column='1'/>
      </data-member>
      <data-member access='public' layout-offset-in-bits='64'>
        <var-decl name='rem' type-id='type-id-20' visibility='default' filepath='/usr/include/stdlib.h' line='121' column='1'/>
      </data-member>
    </class-decl>
    <typedef-decl name='__compar_fn_t' type-id='type-id-512' filepath='/usr/include/stdlib.h' line='742' column='1' id='type-id-513'/>
    <class-decl name='div_t' size-in-bits='64' is-struct='yes' visibility='default' filepath='/usr/include/stdlib.h' line='99' column='1' id='type-id-514'>
      <data-member access='public' layout-offset-in-bits='0'>
        <var-decl name='quot' type-id='type-id-17' visibility='default' filepath='/usr/include/stdlib.h' line='100' column='1'/>
      </data-member>
      <data-member access='public' layout-offset-in-bits='32'>
        <var-decl name='rem' type-id='type-id-17' visibility='default' filepath='/usr/include/stdlib.h' line='101' column='1'/>
      </data-member>
    </class-decl>
    <class-decl name='ldiv_t' size-in-bits='128' is-struct='yes' visibility='default' filepath='/usr/include/stdlib.h' line='107' column='1' id='type-id-515'>
      <data-member access='public' layout-offset-in-bits='0'>
        <var-decl name='quot' type-id='type-id-19' visibility='default' filepath='/usr/include/stdlib.h' line='108' column='1'/>
      </data-member>
      <data-member access='public' layout-offset-in-bits='64'>
        <var-decl name='rem' type-id='type-id-19' visibility='default' filepath='/usr/include/stdlib.h' line='109' column='1'/>
      </data-member>
    </class-decl>
    <class-decl name='vtkRowQuery' size-in-bits='448' visibility='default' filepath='/var/tmp/gamblin2/spack-stage/spack-stage-hrtRhh/VTK-6.1.0/IO/SQL/vtkRowQuery.h' line='60' column='1' id='type-id-251'>
      <base-class access='public' layout-offset-in-bits='0' type-id='type-id-32'/>
      <data-member access='protected' layout-offset-in-bits='384'>
        <var-decl name='CaseSensitiveFieldNames' type-id='type-id-1' visibility='default' filepath='/var/tmp/gamblin2/spack-stage/spack-stage-hrtRhh/VTK-6.1.0/IO/SQL/vtkRowQuery.h' line='130' column='1'/>
      </data-member>
      <member-function access='protected' constructor='yes'>
        <function-decl name='vtkRowQuery' mangled-name='_ZN11vtkRowQueryC1Ev' filepath='/var/tmp/gamblin2/spack-stage/spack-stage-hrtRhh/VTK-6.1.0/IO/SQL/vtkRowQuery.cxx' line='30' column='1' visibility='default' binding='global' size-in-bits='64' elf-symbol-id='_ZN11vtkRowQueryC1Ev'>
          <parameter type-id='type-id-266' is-artificial='yes'/>
          <return type-id='type-id-28'/>
        </function-decl>
      </member-function>
      <member-function access='private' constructor='yes'>
        <function-decl name='vtkRowQuery' filepath='/var/tmp/gamblin2/spack-stage/spack-stage-hrtRhh/VTK-6.1.0/IO/SQL/vtkRowQuery.h' line='132' column='1' visibility='default' binding='global' size-in-bits='64'>
          <parameter type-id='type-id-266' is-artificial='yes'/>
          <parameter type-id='type-id-267'/>
          <return type-id='type-id-28'/>
        </function-decl>
      </member-function>
      <member-function access='private'>
        <function-decl name='NextRow' mangled-name='_ZN11vtkRowQuery7NextRowEP15vtkVariantArray' filepath='/var/tmp/gamblin2/spack-stage/spack-stage-hrtRhh/VTK-6.1.0/IO/SQL/vtkRowQuery.cxx' line='88' column='1' visibility='default' binding='global' size-in-bits='64' elf-symbol-id='_ZN11vtkRowQuery7NextRowEP15vtkVariantArray'>
          <parameter type-id='type-id-268' name='this' is-artificial='yes'/>
          <parameter type-id='type-id-269' name='rowArray' filepath='/var/tmp/gamblin2/spack-stage/spack-stage-hrtRhh/VTK-6.1.0/IO/SQL/vtkRowQuery.cxx' line='88' column='1'/>
          <return type-id='type-id-1'/>
        </function-decl>
      </member-function>
      <member-function access='private'>
        <function-decl name='GetFieldIndex' mangled-name='_ZN11vtkRowQuery13GetFieldIndexEPc' filepath='/var/tmp/gamblin2/spack-stage/spack-stage-hrtRhh/VTK-6.1.0/IO/SQL/vtkRowQuery.cxx' line='46' column='1' visibility='default' binding='global' size-in-bits='64' elf-symbol-id='_ZN11vtkRowQuery13GetFieldIndexEPc'>
          <parameter type-id='type-id-268' name='this' is-artificial='yes'/>
          <parameter type-id='type-id-47' name='name' filepath='/var/tmp/gamblin2/spack-stage/spack-stage-hrtRhh/VTK-6.1.0/IO/SQL/vtkRowQuery.cxx' line='46' column='1'/>
          <return type-id='type-id-17'/>
        </function-decl>
      </member-function>
      <member-function access='protected' destructor='yes' vtable-offset='-1'>
        <function-decl name='~vtkRowQuery' mangled-name='_ZN11vtkRowQueryD1Ev' filepath='/var/tmp/gamblin2/spack-stage/spack-stage-hrtRhh/VTK-6.1.0/IO/SQL/vtkRowQuery.cxx' line='35' column='1' visibility='default' binding='global' size-in-bits='64' elf-symbol-id='_ZN11vtkRowQueryD1Ev'>
          <parameter type-id='type-id-266' is-artificial='yes'/>
          <parameter type-id='type-id-17' is-artificial='yes'/>
          <return type-id='type-id-28'/>
        </function-decl>
      </member-function>
      <member-function access='private' vtable-offset='0'>
        <function-decl name='GetClassNameInternal' mangled-name='_ZNK11vtkRowQuery20GetClassNameInternalEv' filepath='/var/tmp/gamblin2/spack-stage/spack-stage-hrtRhh/VTK-6.1.0/IO/SQL/vtkRowQuery.h' line='62' column='1' visibility='default' binding='global' size-in-bits='64'>
          <parameter type-id='type-id-270' is-artificial='yes'/>
          <return type-id='type-id-41'/>
        </function-decl>
      </member-function>
      <member-function access='private' vtable-offset='1'>
        <function-decl name='IsA' mangled-name='_ZN11vtkRowQuery3IsAEPKc' filepath='/var/tmp/gamblin2/spack-stage/spack-stage-hrtRhh/VTK-6.1.0/IO/SQL/vtkRowQuery.h' line='62' column='1' visibility='default' binding='global' size-in-bits='64'>
          <parameter type-id='type-id-266' is-artificial='yes'/>
          <parameter type-id='type-id-41'/>
          <return type-id='type-id-17'/>
        </function-decl>
      </member-function>
      <member-function access='private' vtable-offset='4'>
        <function-decl name='PrintSelf' mangled-name='_ZN11vtkRowQuery9PrintSelfERSo9vtkIndent' filepath='/var/tmp/gamblin2/spack-stage/spack-stage-hrtRhh/VTK-6.1.0/IO/SQL/vtkRowQuery.cxx' line='39' column='1' visibility='default' binding='global' size-in-bits='64' elf-symbol-id='_ZN11vtkRowQuery9PrintSelfERSo9vtkIndent'>
          <parameter type-id='type-id-266' is-artificial='yes'/>
          <parameter type-id='type-id-43'/>
          <parameter type-id='type-id-44'/>
          <return type-id='type-id-28'/>
        </function-decl>
      </member-function>
      <member-function access='protected' vtable-offset='15'>
        <function-decl name='NewInstanceInternal' mangled-name='_ZNK11vtkRowQuery19NewInstanceInternalEv' filepath='/var/tmp/gamblin2/spack-stage/spack-stage-hrtRhh/VTK-6.1.0/IO/SQL/vtkRowQuery.h' line='62' column='1' visibility='default' binding='global' size-in-bits='64'>
          <parameter type-id='type-id-270' is-artificial='yes'/>
          <return type-id='type-id-45'/>
        </function-decl>
      </member-function>
      <member-function access='private' vtable-offset='20'>
        <function-decl name='Execute' mangled-name='_ZN11vtkRowQuery7ExecuteEv' filepath='/var/tmp/gamblin2/spack-stage/spack-stage-hrtRhh/VTK-6.1.0/IO/SQL/vtkRowQuery.h' line='69' column='1' visibility='default' binding='global' size-in-bits='64'>
          <parameter type-id='type-id-266' is-artificial='yes'/>
          <return type-id='type-id-1'/>
        </function-decl>
      </member-function>
      <member-function access='private' vtable-offset='21'>
        <function-decl name='GetNumberOfFields' mangled-name='_ZN11vtkRowQuery17GetNumberOfFieldsEv' filepath='/var/tmp/gamblin2/spack-stage/spack-stage-hrtRhh/VTK-6.1.0/IO/SQL/vtkRowQuery.h' line='73' column='1' visibility='default' binding='global' size-in-bits='64'>
          <parameter type-id='type-id-266' is-artificial='yes'/>
          <return type-id='type-id-17'/>
        </function-decl>
      </member-function>
      <member-function access='private' vtable-offset='22'>
        <function-decl name='GetFieldName' mangled-name='_ZN11vtkRowQuery12GetFieldNameEi' filepath='/var/tmp/gamblin2/spack-stage/spack-stage-hrtRhh/VTK-6.1.0/IO/SQL/vtkRowQuery.h' line='77' column='1' visibility='default' binding='global' size-in-bits='64'>
          <parameter type-id='type-id-266' is-artificial='yes'/>
          <parameter type-id='type-id-17'/>
          <return type-id='type-id-41'/>
        </function-decl>
      </member-function>
      <member-function access='private' vtable-offset='23'>
        <function-decl name='GetFieldType' mangled-name='_ZN11vtkRowQuery12GetFieldTypeEi' filepath='/var/tmp/gamblin2/spack-stage/spack-stage-hrtRhh/VTK-6.1.0/IO/SQL/vtkRowQuery.h' line='81' column='1' visibility='default' binding='global' size-in-bits='64'>
          <parameter type-id='type-id-266' is-artificial='yes'/>
          <parameter type-id='type-id-17'/>
          <return type-id='type-id-17'/>
        </function-decl>
      </member-function>
      <member-function access='private' vtable-offset='24'>
        <function-decl name='NextRow' mangled-name='_ZN11vtkRowQuery7NextRowEv' filepath='/var/tmp/gamblin2/spack-stage/spack-stage-hrtRhh/VTK-6.1.0/IO/SQL/vtkRowQuery.h' line='91' column='1' visibility='default' binding='global' size-in-bits='64'>
          <parameter type-id='type-id-266' is-artificial='yes'/>
          <return type-id='type-id-1'/>
        </function-decl>
      </member-function>
      <member-function access='private' vtable-offset='25'>
        <function-decl name='IsActive' mangled-name='_ZN11vtkRowQuery8IsActiveEv' filepath='/var/tmp/gamblin2/spack-stage/spack-stage-hrtRhh/VTK-6.1.0/IO/SQL/vtkRowQuery.h' line='97' column='1' visibility='default' binding='global' size-in-bits='64'>
          <parameter type-id='type-id-266' is-artificial='yes'/>
          <return type-id='type-id-1'/>
        </function-decl>
      </member-function>
      <member-function access='private' vtable-offset='26'>
        <function-decl name='DataValue' mangled-name='_ZN11vtkRowQuery9DataValueEx' filepath='/var/tmp/gamblin2/spack-stage/spack-stage-hrtRhh/VTK-6.1.0/IO/SQL/vtkRowQuery.h' line='106' column='1' visibility='default' binding='global' size-in-bits='64'>
          <parameter type-id='type-id-266' is-artificial='yes'/>
          <parameter type-id='type-id-271'/>
          <return type-id='type-id-260'/>
        </function-decl>
      </member-function>
      <member-function access='private' vtable-offset='27'>
        <function-decl name='HasError' mangled-name='_ZN11vtkRowQuery8HasErrorEv' filepath='/var/tmp/gamblin2/spack-stage/spack-stage-hrtRhh/VTK-6.1.0/IO/SQL/vtkRowQuery.h' line='110' column='1' visibility='default' binding='global' size-in-bits='64'>
          <parameter type-id='type-id-266' is-artificial='yes'/>
          <return type-id='type-id-1'/>
        </function-decl>
      </member-function>
      <member-function access='private' vtable-offset='28'>
        <function-decl name='GetLastErrorText' mangled-name='_ZN11vtkRowQuery16GetLastErrorTextEv' filepath='/var/tmp/gamblin2/spack-stage/spack-stage-hrtRhh/VTK-6.1.0/IO/SQL/vtkRowQuery.h' line='114' column='1' visibility='default' binding='global' size-in-bits='64'>
          <parameter type-id='type-id-266' is-artificial='yes'/>
          <return type-id='type-id-41'/>
        </function-decl>
      </member-function>
      <member-function access='private' vtable-offset='29'>
        <function-decl name='SetCaseSensitiveFieldNames' mangled-name='_ZN11vtkRowQuery26SetCaseSensitiveFieldNamesEb' filepath='/var/tmp/gamblin2/spack-stage/spack-stage-hrtRhh/VTK-6.1.0/IO/SQL/vtkRowQuery.h' line='123' column='1' visibility='default' binding='global' size-in-bits='64'>
          <parameter type-id='type-id-266' is-artificial='yes'/>
          <parameter type-id='type-id-1'/>
          <return type-id='type-id-28'/>
        </function-decl>
      </member-function>
      <member-function access='private' vtable-offset='30'>
        <function-decl name='GetCaseSensitiveFieldNames' mangled-name='_ZN11vtkRowQuery26GetCaseSensitiveFieldNamesEv' filepath='/var/tmp/gamblin2/spack-stage/spack-stage-hrtRhh/VTK-6.1.0/IO/SQL/vtkRowQuery.h' line='124' column='1' visibility='default' binding='global' size-in-bits='64'>
          <parameter type-id='type-id-266' is-artificial='yes'/>
          <return type-id='type-id-1'/>
        </function-decl>
      </member-function>
      <member-function access='private' vtable-offset='31'>
        <function-decl name='CaseSensitiveFieldNamesOn' mangled-name='_ZN11vtkRowQuery25CaseSensitiveFieldNamesOnEv' filepath='/var/tmp/gamblin2/spack-stage/spack-stage-hrtRhh/VTK-6.1.0/IO/SQL/vtkRowQuery.h' line='125' column='1' visibility='default' binding='global' size-in-bits='64'>
          <parameter type-id='type-id-266' is-artificial='yes'/>
          <return type-id='type-id-28'/>
        </function-decl>
      </member-function>
      <member-function access='private' vtable-offset='32'>
        <function-decl name='CaseSensitiveFieldNamesOff' mangled-name='_ZN11vtkRowQuery26CaseSensitiveFieldNamesOffEv' filepath='/var/tmp/gamblin2/spack-stage/spack-stage-hrtRhh/VTK-6.1.0/IO/SQL/vtkRowQuery.h' line='125' column='1' visibility='default' binding='global' size-in-bits='64'>
          <parameter type-id='type-id-266' is-artificial='yes'/>
          <return type-id='type-id-28'/>
        </function-decl>
      </member-function>
    </class-decl>
    <class-decl name='vtkUnicodeString' size-in-bits='64' visibility='default' filepath='/var/tmp/gamblin2/spack-stage/spack-stage-hrtRhh/VTK-6.1.0/Common/Core/vtkUnicodeString.h' line='67' column='1' id='type-id-300'>
      <member-type access='private'>
        <class-decl name='const_iterator' size-in-bits='64' visibility='default' filepath='/var/tmp/gamblin2/spack-stage/spack-stage-hrtRhh/VTK-6.1.0/Common/Core/vtkUnicodeString.h' line='73' column='1' id='type-id-376'>
          <member-type access='private'>
            <typedef-decl name='value_type' type-id='type-id-378' filepath='/var/tmp/gamblin2/spack-stage/spack-stage-hrtRhh/VTK-6.1.0/Common/Core/vtkUnicodeString.h' line='76' column='1' id='type-id-377'/>
          </member-type>
          <data-member access='private' layout-offset-in-bits='0'>
            <var-decl name='Position' type-id='type-id-216' visibility='default' filepath='/var/tmp/gamblin2/spack-stage/spack-stage-hrtRhh/VTK-6.1.0/Common/Core/vtkUnicodeString.h' line='94' column='1'/>
          </data-member>
          <member-function access='private' constructor='yes'>
            <function-decl name='const_iterator' filepath='/var/tmp/gamblin2/spack-stage/spack-stage-hrtRhh/VTK-6.1.0/Common/Core/vtkUnicodeString.h' line='81' column='1' visibility='default' binding='global' size-in-bits='64'>
              <parameter type-id='type-id-379' is-artificial='yes'/>
              <return type-id='type-id-28'/>
            </function-decl>
          </member-function>
          <member-function access='private' constructor='yes'>
            <function-decl name='const_iterator' filepath='/var/tmp/gamblin2/spack-stage/spack-stage-hrtRhh/VTK-6.1.0/Common/Core/vtkUnicodeString.h' line='92' column='1' visibility='default' binding='global' size-in-bits='64'>
              <parameter type-id='type-id-379' is-artificial='yes'/>
              <parameter type-id='type-id-216'/>
              <return type-id='type-id-28'/>
            </function-decl>
          </member-function>
        </class-decl>
      </member-type>
      <member-type access='private'>
        <typedef-decl name='size_type' type-id='type-id-23' filepath='/var/tmp/gamblin2/spack-stage/spack-stage-hrtRhh/VTK-6.1.0/Common/Core/vtkUnicodeString.h' line='70' column='1' id='type-id-380'/>
      </member-type>
      <member-type access='private'>
        <typedef-decl name='value_type' type-id='type-id-378' filepath='/var/tmp/gamblin2/spack-stage/spack-stage-hrtRhh/VTK-6.1.0/Common/Core/vtkUnicodeString.h' line='69' column='1' id='type-id-381'/>
      </member-type>
      <data-member access='private' static='yes'>
        <var-decl name='npos' type-id='type-id-382' visibility='default' filepath='/var/tmp/gamblin2/spack-stage/spack-stage-hrtRhh/VTK-6.1.0/Common/Core/vtkUnicodeString.h' line='175' column='1'/>
      </data-member>
      <data-member access='private' layout-offset-in-bits='0'>
        <var-decl name='Storage' type-id='type-id-81' visibility='default' filepath='/var/tmp/gamblin2/spack-stage/spack-stage-hrtRhh/VTK-6.1.0/Common/Core/vtkUnicodeString.h' line='231' column='1'/>
      </data-member>
      <member-function access='private' constructor='yes'>
        <function-decl name='vtkUnicodeString' filepath='/var/tmp/gamblin2/spack-stage/spack-stage-hrtRhh/VTK-6.1.0/Common/Core/vtkUnicodeString.h' line='99' column='1' visibility='default' binding='global' size-in-bits='64'>
          <parameter type-id='type-id-273' is-artificial='yes'/>
          <return type-id='type-id-28'/>
        </function-decl>
      </member-function>
      <member-function access='private' constructor='yes'>
        <function-decl name='vtkUnicodeString' filepath='/var/tmp/gamblin2/spack-stage/spack-stage-hrtRhh/VTK-6.1.0/Common/Core/vtkUnicodeString.h' line='102' column='1' visibility='default' binding='global' size-in-bits='64'>
          <parameter type-id='type-id-273' is-artificial='yes'/>
          <parameter type-id='type-id-276'/>
          <return type-id='type-id-28'/>
        </function-decl>
      </member-function>
      <member-function access='private' constructor='yes'>
        <function-decl name='vtkUnicodeString' filepath='/var/tmp/gamblin2/spack-stage/spack-stage-hrtRhh/VTK-6.1.0/Common/Core/vtkUnicodeString.h' line='106' column='1' visibility='default' binding='global' size-in-bits='64'>
          <parameter type-id='type-id-273' is-artificial='yes'/>
          <parameter type-id='type-id-380'/>
          <parameter type-id='type-id-381'/>
          <return type-id='type-id-28'/>
        </function-decl>
      </member-function>
      <member-function access='private' constructor='yes'>
        <function-decl name='vtkUnicodeString' filepath='/var/tmp/gamblin2/spack-stage/spack-stage-hrtRhh/VTK-6.1.0/Common/Core/vtkUnicodeString.h' line='109' column='1' visibility='default' binding='global' size-in-bits='64'>
          <parameter type-id='type-id-273' is-artificial='yes'/>
          <parameter type-id='type-id-376'/>
          <parameter type-id='type-id-376'/>
          <return type-id='type-id-28'/>
        </function-decl>
      </member-function>
    </class-decl>
    <typedef-decl name='vtkUnicodeStringValueType' type-id='type-id-463' filepath='/var/tmp/gamblin2/spack-stage/spack-stage-hrtRhh/VTK-6.1.0/Common/Core/vtkUnicodeString.h' line='54' column='1' id='type-id-378'/>
    <typedef-decl name='vtkTypeUInt32' type-id='type-id-13' filepath='/var/tmp/gamblin2/spack-stage/spack-stage-hrtRhh/VTK-6.1.0/Common/Core/vtkType.h' line='196' column='1' id='type-id-463'/>
    <typedef-decl name='vtkTypeUInt16' type-id='type-id-26' filepath='/var/tmp/gamblin2/spack-stage/spack-stage-hrtRhh/VTK-6.1.0/Common/Core/vtkType.h' line='181' column='1' id='type-id-516'/>
    <typedef-decl name='vtkTypeInt64' type-id='type-id-20' filepath='/var/tmp/gamblin2/spack-stage/spack-stage-hrtRhh/VTK-6.1.0/Common/Core/vtkType.h' line='212' column='1' id='type-id-258'/>
    <typedef-decl name='vtkTypeUInt64' type-id='type-id-21' filepath='/var/tmp/gamblin2/spack-stage/spack-stage-hrtRhh/VTK-6.1.0/Common/Core/vtkType.h' line='211' column='1' id='type-id-257'/>
    <typedef-decl name='vtkIdType' type-id='type-id-20' filepath='/var/tmp/gamblin2/spack-stage/spack-stage-hrtRhh/VTK-6.1.0/Common/Core/vtkType.h' line='255' column='1' id='type-id-271'/>
    <class-decl name='vtkVariant' size-in-bits='128' visibility='default' filepath='/var/tmp/gamblin2/spack-stage/spack-stage-hrtRhh/VTK-6.1.0/Common/Core/vtkVariant.h' line='72' column='1' id='type-id-260'>
      <member-type access='private'>
        <union-decl name='__anonymous_union__' size-in-bits='64' is-anonymous='yes' visibility='default' filepath='/var/tmp/gamblin2/spack-stage/spack-stage-hrtRhh/VTK-6.1.0/Common/Core/vtkVariant.h' line='407' column='1' id='type-id-272'>
          <data-member access='public'>
            <var-decl name='String' type-id='type-id-85' visibility='default' filepath='/var/tmp/gamblin2/spack-stage/spack-stage-hrtRhh/VTK-6.1.0/Common/Core/vtkVariant.h' line='408' column='1'/>
          </data-member>
          <data-member access='public'>
            <var-decl name='UnicodeString' type-id='type-id-273' visibility='default' filepath='/var/tmp/gamblin2/spack-stage/spack-stage-hrtRhh/VTK-6.1.0/Common/Core/vtkVariant.h' line='409' column='1'/>
          </data-member>
          <data-member access='public'>
            <var-decl name='Float' type-id='type-id-16' visibility='default' filepath='/var/tmp/gamblin2/spack-stage/spack-stage-hrtRhh/VTK-6.1.0/Common/Core/vtkVariant.h' line='410' column='1'/>
          </data-member>
          <data-member access='public'>
            <var-decl name='Double' type-id='type-id-15' visibility='default' filepath='/var/tmp/gamblin2/spack-stage/spack-stage-hrtRhh/VTK-6.1.0/Common/Core/vtkVariant.h' line='411' column='1'/>
          </data-member>
          <data-member access='public'>
            <var-decl name='Char' type-id='type-id-2' visibility='default' filepath='/var/tmp/gamblin2/spack-stage/spack-stage-hrtRhh/VTK-6.1.0/Common/Core/vtkVariant.h' line='412' column='1'/>
          </data-member>
          <data-member access='public'>
            <var-decl name='UnsignedChar' type-id='type-id-255' visibility='default' filepath='/var/tmp/gamblin2/spack-stage/spack-stage-hrtRhh/VTK-6.1.0/Common/Core/vtkVariant.h' line='413' column='1'/>
          </data-member>
          <data-member access='public'>
            <var-decl name='SignedChar' type-id='type-id-22' visibility='default' filepath='/var/tmp/gamblin2/spack-stage/spack-stage-hrtRhh/VTK-6.1.0/Common/Core/vtkVariant.h' line='414' column='1'/>
          </data-member>
          <data-member access='public'>
            <var-decl name='Short' type-id='type-id-256' visibility='default' filepath='/var/tmp/gamblin2/spack-stage/spack-stage-hrtRhh/VTK-6.1.0/Common/Core/vtkVariant.h' line='415' column='1'/>
          </data-member>
          <data-member access='public'>
            <var-decl name='UnsignedShort' type-id='type-id-26' visibility='default' filepath='/var/tmp/gamblin2/spack-stage/spack-stage-hrtRhh/VTK-6.1.0/Common/Core/vtkVariant.h' line='416' column='1'/>
          </data-member>
          <data-member access='public'>
            <var-decl name='Int' type-id='type-id-17' visibility='default' filepath='/var/tmp/gamblin2/spack-stage/spack-stage-hrtRhh/VTK-6.1.0/Common/Core/vtkVariant.h' line='417' column='1'/>
          </data-member>
          <data-member access='public'>
            <var-decl name='UnsignedInt' type-id='type-id-13' visibility='default' filepath='/var/tmp/gamblin2/spack-stage/spack-stage-hrtRhh/VTK-6.1.0/Common/Core/vtkVariant.h' line='418' column='1'/>
          </data-member>
          <data-member access='public'>
            <var-decl name='Long' type-id='type-id-19' visibility='default' filepath='/var/tmp/gamblin2/spack-stage/spack-stage-hrtRhh/VTK-6.1.0/Common/Core/vtkVariant.h' line='419' column='1'/>
          </data-member>
          <data-member access='public'>
            <var-decl name='UnsignedLong' type-id='type-id-4' visibility='default' filepath='/var/tmp/gamblin2/spack-stage/spack-stage-hrtRhh/VTK-6.1.0/Common/Core/vtkVariant.h' line='420' column='1'/>
          </data-member>
          <data-member access='public'>
            <var-decl name='LongLong' type-id='type-id-20' visibility='default' filepath='/var/tmp/gamblin2/spack-stage/spack-stage-hrtRhh/VTK-6.1.0/Common/Core/vtkVariant.h' line='426' column='1'/>
          </data-member>
          <data-member access='public'>
            <var-decl name='UnsignedLongLong' type-id='type-id-21' visibility='default' filepath='/var/tmp/gamblin2/spack-stage/spack-stage-hrtRhh/VTK-6.1.0/Common/Core/vtkVariant.h' line='427' column='1'/>
          </data-member>
          <data-member access='public'>
            <var-decl name='VTKObject' type-id='type-id-45' visibility='default' filepath='/var/tmp/gamblin2/spack-stage/spack-stage-hrtRhh/VTK-6.1.0/Common/Core/vtkVariant.h' line='429' column='1'/>
          </data-member>
        </union-decl>
      </member-type>
      <data-member access='private' layout-offset-in-bits='0'>
        <var-decl name='Data' type-id='type-id-272' visibility='default' filepath='/var/tmp/gamblin2/spack-stage/spack-stage-hrtRhh/VTK-6.1.0/Common/Core/vtkVariant.h' line='430' column='1'/>
      </data-member>
      <data-member access='private' layout-offset-in-bits='64'>
        <var-decl name='Valid' type-id='type-id-255' visibility='default' filepath='/var/tmp/gamblin2/spack-stage/spack-stage-hrtRhh/VTK-6.1.0/Common/Core/vtkVariant.h' line='432' column='1'/>
      </data-member>
      <data-member access='private' layout-offset-in-bits='72'>
        <var-decl name='Type' type-id='type-id-255' visibility='default' filepath='/var/tmp/gamblin2/spack-stage/spack-stage-hrtRhh/VTK-6.1.0/Common/Core/vtkVariant.h' line='433' column='1'/>
      </data-member>
      <member-function access='private' constructor='yes'>
        <function-decl name='vtkVariant' filepath='/var/tmp/gamblin2/spack-stage/spack-stage-hrtRhh/VTK-6.1.0/Common/Core/vtkVariant.h' line='77' column='1' visibility='default' binding='global' size-in-bits='64'>
          <parameter type-id='type-id-274' is-artificial='yes'/>
          <return type-id='type-id-28'/>
        </function-decl>
      </member-function>
      <member-function access='private' destructor='yes'>
        <function-decl name='~vtkVariant' filepath='/var/tmp/gamblin2/spack-stage/spack-stage-hrtRhh/VTK-6.1.0/Common/Core/vtkVariant.h' line='81' column='1' visibility='default' binding='global' size-in-bits='64'>
          <parameter type-id='type-id-274' is-artificial='yes'/>
          <parameter type-id='type-id-17' is-artificial='yes'/>
          <return type-id='type-id-28'/>
        </function-decl>
      </member-function>
      <member-function access='private' constructor='yes'>
        <function-decl name='vtkVariant' filepath='/var/tmp/gamblin2/spack-stage/spack-stage-hrtRhh/VTK-6.1.0/Common/Core/vtkVariant.h' line='85' column='1' visibility='default' binding='global' size-in-bits='64'>
          <parameter type-id='type-id-274' is-artificial='yes'/>
          <parameter type-id='type-id-275'/>
          <return type-id='type-id-28'/>
        </function-decl>
      </member-function>
      <member-function access='private' constructor='yes'>
        <function-decl name='vtkVariant' filepath='/var/tmp/gamblin2/spack-stage/spack-stage-hrtRhh/VTK-6.1.0/Common/Core/vtkVariant.h' line='89' column='1' visibility='default' binding='global' size-in-bits='64'>
          <parameter type-id='type-id-274' is-artificial='yes'/>
          <parameter type-id='type-id-1'/>
          <return type-id='type-id-28'/>
        </function-decl>
      </member-function>
      <member-function access='private' constructor='yes'>
        <function-decl name='vtkVariant' filepath='/var/tmp/gamblin2/spack-stage/spack-stage-hrtRhh/VTK-6.1.0/Common/Core/vtkVariant.h' line='93' column='1' visibility='default' binding='global' size-in-bits='64'>
          <parameter type-id='type-id-274' is-artificial='yes'/>
          <parameter type-id='type-id-2'/>
          <return type-id='type-id-28'/>
        </function-decl>
      </member-function>
      <member-function access='private' constructor='yes'>
        <function-decl name='vtkVariant' filepath='/var/tmp/gamblin2/spack-stage/spack-stage-hrtRhh/VTK-6.1.0/Common/Core/vtkVariant.h' line='97' column='1' visibility='default' binding='global' size-in-bits='64'>
          <parameter type-id='type-id-274' is-artificial='yes'/>
          <parameter type-id='type-id-255'/>
          <return type-id='type-id-28'/>
        </function-decl>
      </member-function>
      <member-function access='private' constructor='yes'>
        <function-decl name='vtkVariant' filepath='/var/tmp/gamblin2/spack-stage/spack-stage-hrtRhh/VTK-6.1.0/Common/Core/vtkVariant.h' line='101' column='1' visibility='default' binding='global' size-in-bits='64'>
          <parameter type-id='type-id-274' is-artificial='yes'/>
          <parameter type-id='type-id-22'/>
          <return type-id='type-id-28'/>
        </function-decl>
      </member-function>
      <member-function access='private' constructor='yes'>
        <function-decl name='vtkVariant' filepath='/var/tmp/gamblin2/spack-stage/spack-stage-hrtRhh/VTK-6.1.0/Common/Core/vtkVariant.h' line='105' column='1' visibility='default' binding='global' size-in-bits='64'>
          <parameter type-id='type-id-274' is-artificial='yes'/>
          <parameter type-id='type-id-256'/>
          <return type-id='type-id-28'/>
        </function-decl>
      </member-function>
      <member-function access='private' constructor='yes'>
        <function-decl name='vtkVariant' filepath='/var/tmp/gamblin2/spack-stage/spack-stage-hrtRhh/VTK-6.1.0/Common/Core/vtkVariant.h' line='109' column='1' visibility='default' binding='global' size-in-bits='64'>
          <parameter type-id='type-id-274' is-artificial='yes'/>
          <parameter type-id='type-id-26'/>
          <return type-id='type-id-28'/>
        </function-decl>
      </member-function>
      <member-function access='private' constructor='yes'>
        <function-decl name='vtkVariant' filepath='/var/tmp/gamblin2/spack-stage/spack-stage-hrtRhh/VTK-6.1.0/Common/Core/vtkVariant.h' line='113' column='1' visibility='default' binding='global' size-in-bits='64'>
          <parameter type-id='type-id-274' is-artificial='yes'/>
          <parameter type-id='type-id-17' is-artificial='yes'/>
          <return type-id='type-id-28'/>
        </function-decl>
      </member-function>
      <member-function access='private' constructor='yes'>
        <function-decl name='vtkVariant' filepath='/var/tmp/gamblin2/spack-stage/spack-stage-hrtRhh/VTK-6.1.0/Common/Core/vtkVariant.h' line='117' column='1' visibility='default' binding='global' size-in-bits='64'>
          <parameter type-id='type-id-274' is-artificial='yes'/>
          <parameter type-id='type-id-13'/>
          <return type-id='type-id-28'/>
        </function-decl>
      </member-function>
      <member-function access='private' constructor='yes'>
        <function-decl name='vtkVariant' filepath='/var/tmp/gamblin2/spack-stage/spack-stage-hrtRhh/VTK-6.1.0/Common/Core/vtkVariant.h' line='121' column='1' visibility='default' binding='global' size-in-bits='64'>
          <parameter type-id='type-id-274' is-artificial='yes'/>
          <parameter type-id='type-id-19'/>
          <return type-id='type-id-28'/>
        </function-decl>
      </member-function>
      <member-function access='private' constructor='yes'>
        <function-decl name='vtkVariant' filepath='/var/tmp/gamblin2/spack-stage/spack-stage-hrtRhh/VTK-6.1.0/Common/Core/vtkVariant.h' line='125' column='1' visibility='default' binding='global' size-in-bits='64'>
          <parameter type-id='type-id-274' is-artificial='yes'/>
          <parameter type-id='type-id-4'/>
          <return type-id='type-id-28'/>
        </function-decl>
      </member-function>
      <member-function access='private' constructor='yes'>
        <function-decl name='vtkVariant' filepath='/var/tmp/gamblin2/spack-stage/spack-stage-hrtRhh/VTK-6.1.0/Common/Core/vtkVariant.h' line='139' column='1' visibility='default' binding='global' size-in-bits='64'>
          <parameter type-id='type-id-274' is-artificial='yes'/>
          <parameter type-id='type-id-20'/>
          <return type-id='type-id-28'/>
        </function-decl>
      </member-function>
      <member-function access='private' constructor='yes'>
        <function-decl name='vtkVariant' filepath='/var/tmp/gamblin2/spack-stage/spack-stage-hrtRhh/VTK-6.1.0/Common/Core/vtkVariant.h' line='143' column='1' visibility='default' binding='global' size-in-bits='64'>
          <parameter type-id='type-id-274' is-artificial='yes'/>
          <parameter type-id='type-id-21'/>
          <return type-id='type-id-28'/>
        </function-decl>
      </member-function>
      <member-function access='private' constructor='yes'>
        <function-decl name='vtkVariant' filepath='/var/tmp/gamblin2/spack-stage/spack-stage-hrtRhh/VTK-6.1.0/Common/Core/vtkVariant.h' line='148' column='1' visibility='default' binding='global' size-in-bits='64'>
          <parameter type-id='type-id-274' is-artificial='yes'/>
          <parameter type-id='type-id-16'/>
          <return type-id='type-id-28'/>
        </function-decl>
      </member-function>
      <member-function access='private' constructor='yes'>
        <function-decl name='vtkVariant' filepath='/var/tmp/gamblin2/spack-stage/spack-stage-hrtRhh/VTK-6.1.0/Common/Core/vtkVariant.h' line='152' column='1' visibility='default' binding='global' size-in-bits='64'>
          <parameter type-id='type-id-274' is-artificial='yes'/>
          <parameter type-id='type-id-15'/>
          <return type-id='type-id-28'/>
        </function-decl>
      </member-function>
      <member-function access='private' constructor='yes'>
        <function-decl name='vtkVariant' filepath='/var/tmp/gamblin2/spack-stage/spack-stage-hrtRhh/VTK-6.1.0/Common/Core/vtkVariant.h' line='156' column='1' visibility='default' binding='global' size-in-bits='64'>
          <parameter type-id='type-id-274' is-artificial='yes'/>
          <parameter type-id='type-id-41'/>
          <return type-id='type-id-28'/>
        </function-decl>
      </member-function>
      <member-function access='private' constructor='yes'>
        <function-decl name='vtkVariant' filepath='/var/tmp/gamblin2/spack-stage/spack-stage-hrtRhh/VTK-6.1.0/Common/Core/vtkVariant.h' line='160' column='1' visibility='default' binding='global' size-in-bits='64'>
          <parameter type-id='type-id-274' is-artificial='yes'/>
          <parameter type-id='type-id-49'/>
          <return type-id='type-id-28'/>
        </function-decl>
      </member-function>
      <member-function access='private' constructor='yes'>
        <function-decl name='vtkVariant' filepath='/var/tmp/gamblin2/spack-stage/spack-stage-hrtRhh/VTK-6.1.0/Common/Core/vtkVariant.h' line='164' column='1' visibility='default' binding='global' size-in-bits='64'>
          <parameter type-id='type-id-274' is-artificial='yes'/>
          <parameter type-id='type-id-276'/>
          <return type-id='type-id-28'/>
        </function-decl>
      </member-function>
      <member-function access='private' constructor='yes'>
        <function-decl name='vtkVariant' filepath='/var/tmp/gamblin2/spack-stage/spack-stage-hrtRhh/VTK-6.1.0/Common/Core/vtkVariant.h' line='168' column='1' visibility='default' binding='global' size-in-bits='64'>
          <parameter type-id='type-id-274' is-artificial='yes'/>
          <parameter type-id='type-id-45'/>
          <return type-id='type-id-28'/>
        </function-decl>
      </member-function>
      <member-function access='private' constructor='yes'>
        <function-decl name='vtkVariant' filepath='/var/tmp/gamblin2/spack-stage/spack-stage-hrtRhh/VTK-6.1.0/Common/Core/vtkVariant.h' line='172' column='1' visibility='default' binding='global' size-in-bits='64'>
          <parameter type-id='type-id-274' is-artificial='yes'/>
          <parameter type-id='type-id-275'/>
          <parameter type-id='type-id-13'/>
          <return type-id='type-id-28'/>
        </function-decl>
      </member-function>
    </class-decl>
    <reference-type-def kind='lvalue' type-id='type-id-79' size-in-bits='64' id='type-id-517'/>
    <pointer-type-def type-id='type-id-79' size-in-bits='64' id='type-id-214'/>
    <qualified-type-def type-id='type-id-214' const='yes' id='type-id-518'/>
    <reference-type-def kind='lvalue' type-id='type-id-216' size-in-bits='64' id='type-id-519'/>
    <pointer-type-def type-id='type-id-216' size-in-bits='64' id='type-id-217'/>
    <pointer-type-def type-id='type-id-1' size-in-bits='64' id='type-id-520'/>
    <qualified-type-def type-id='type-id-47' const='yes' id='type-id-219'/>
    <reference-type-def kind='lvalue' type-id='type-id-219' size-in-bits='64' id='type-id-215'/>
    <pointer-type-def type-id='type-id-47' size-in-bits='64' id='type-id-521'/>
    <qualified-type-def type-id='type-id-79' const='yes' id='type-id-522'/>
    <reference-type-def kind='lvalue' type-id='type-id-522' size-in-bits='64' id='type-id-523'/>
    <pointer-type-def type-id='type-id-522' size-in-bits='64' id='type-id-524'/>
    <qualified-type-def type-id='type-id-524' const='yes' id='type-id-525'/>
    <qualified-type-def type-id='type-id-216' const='yes' id='type-id-526'/>
    <pointer-type-def type-id='type-id-526' size-in-bits='64' id='type-id-527'/>
    <qualified-type-def type-id='type-id-41' const='yes' id='type-id-229'/>
    <reference-type-def kind='lvalue' type-id='type-id-229' size-in-bits='64' id='type-id-218'/>
    <qualified-type-def type-id='type-id-69' const='yes' id='type-id-528'/>
    <reference-type-def kind='lvalue' type-id='type-id-528' size-in-bits='64' id='type-id-529'/>
    <qualified-type-def type-id='type-id-530' const='yes' id='type-id-531'/>
    <pointer-type-def type-id='type-id-531' size-in-bits='64' id='type-id-532'/>
    <qualified-type-def type-id='type-id-532' const='yes' id='type-id-533'/>
    <qualified-type-def type-id='type-id-142' const='yes' id='type-id-534'/>
    <qualified-type-def type-id='type-id-535' const='yes' id='type-id-536'/>
    <reference-type-def kind='lvalue' type-id='type-id-536' size-in-bits='64' id='type-id-537'/>
    <pointer-type-def type-id='type-id-536' size-in-bits='64' id='type-id-538'/>
    <qualified-type-def type-id='type-id-538' const='yes' id='type-id-539'/>
    <qualified-type-def type-id='type-id-81' const='yes' id='type-id-540'/>
    <reference-type-def kind='lvalue' type-id='type-id-540' size-in-bits='64' id='type-id-541'/>
    <qualified-type-def type-id='type-id-251' const='yes' id='type-id-297'/>
    <reference-type-def kind='lvalue' type-id='type-id-297' size-in-bits='64' id='type-id-267'/>
    <pointer-type-def type-id='type-id-297' size-in-bits='64' id='type-id-270'/>
    <qualified-type-def type-id='type-id-516' const='yes' id='type-id-542'/>
    <pointer-type-def type-id='type-id-542' size-in-bits='64' id='type-id-543'/>
    <qualified-type-def type-id='type-id-300' const='yes' id='type-id-298'/>
    <reference-type-def kind='lvalue' type-id='type-id-298' size-in-bits='64' id='type-id-276'/>
    <pointer-type-def type-id='type-id-298' size-in-bits='64' id='type-id-544'/>
    <qualified-type-def type-id='type-id-376' const='yes' id='type-id-545'/>
    <reference-type-def kind='lvalue' type-id='type-id-545' size-in-bits='64' id='type-id-546'/>
    <pointer-type-def type-id='type-id-545' size-in-bits='64' id='type-id-547'/>
    <qualified-type-def type-id='type-id-380' const='yes' id='type-id-382'/>
    <qualified-type-def type-id='type-id-260' const='yes' id='type-id-299'/>
    <reference-type-def kind='lvalue' type-id='type-id-299' size-in-bits='64' id='type-id-275'/>
    <pointer-type-def type-id='type-id-299' size-in-bits='64' id='type-id-548'/>
    <pointer-type-def type-id='type-id-549' size-in-bits='64' id='type-id-550'/>
    <pointer-type-def type-id='type-id-551' size-in-bits='64' id='type-id-512'/>
    <pointer-type-def type-id='type-id-530' size-in-bits='64' id='type-id-552'/>
    <qualified-type-def type-id='type-id-552' const='yes' id='type-id-553'/>
    <reference-type-def kind='lvalue' type-id='type-id-209' size-in-bits='64' id='type-id-554'/>
    <pointer-type-def type-id='type-id-555' size-in-bits='64' id='type-id-556'/>
    <pointer-type-def type-id='type-id-209' size-in-bits='64' id='type-id-212'/>
    <qualified-type-def type-id='type-id-212' const='yes' id='type-id-557'/>
    <reference-type-def kind='lvalue' type-id='type-id-81' size-in-bits='64' id='type-id-558'/>
    <reference-type-def kind='lvalue' type-id='type-id-559' size-in-bits='64' id='type-id-560'/>
    <pointer-type-def type-id='type-id-561' size-in-bits='64' id='type-id-562'/>
    <pointer-type-def type-id='type-id-563' size-in-bits='64' id='type-id-564'/>
    <qualified-type-def type-id='type-id-564' const='yes' id='type-id-565'/>
    <pointer-type-def type-id='type-id-251' size-in-bits='64' id='type-id-266'/>
    <qualified-type-def type-id='type-id-266' const='yes' id='type-id-268'/>
    <reference-type-def kind='lvalue' type-id='type-id-300' size-in-bits='64' id='type-id-566'/>
    <pointer-type-def type-id='type-id-300' size-in-bits='64' id='type-id-273'/>
    <reference-type-def kind='lvalue' type-id='type-id-376' size-in-bits='64' id='type-id-567'/>
    <pointer-type-def type-id='type-id-376' size-in-bits='64' id='type-id-379'/>
    <pointer-type-def type-id='type-id-260' size-in-bits='64' id='type-id-274'/>
    <pointer-type-def type-id='type-id-301' size-in-bits='64' id='type-id-269'/>
    <namespace-decl name='std'>
      <function-decl name='transform&lt;__gnu_cxx::__normal_iterator&lt;char*, std::basic_string&lt;char, std::char_traits&lt;char&gt;, std::allocator&lt;char&gt; &gt; &gt;, __gnu_cxx::__normal_iterator&lt;char*, std::basic_string&lt;char, std::char_traits&lt;char&gt;, std::allocator&lt;char&gt; &gt; &gt;, int (*)(int)throw ()&gt;' filepath='/usr/lib/gcc/x86_64-redhat-linux/4.4.7/../../../../include/c++/4.4.7/bits/stl_algo.h' line='4693' column='1' visibility='default' binding='global' size-in-bits='64'>
        <parameter type-id='type-id-79'/>
        <parameter type-id='type-id-79'/>
        <parameter type-id='type-id-79'/>
        <parameter type-id='type-id-550'/>
        <return type-id='type-id-79'/>
      </function-decl>
      <function-decl name='operator==&lt;char&gt;' filepath='/usr/lib/gcc/x86_64-redhat-linux/4.4.7/../../../../include/c++/4.4.7/bits/basic_string.h' line='2239' column='1' visibility='default' binding='global' size-in-bits='64'>
        <parameter type-id='type-id-136'/>
        <parameter type-id='type-id-136'/>
        <return type-id='type-id-1'/>
      </function-decl>
      <function-decl name='operator|' filepath='/usr/lib/gcc/x86_64-redhat-linux/4.4.7/../../../../include/c++/4.4.7/bits/ios_base.h' line='166' column='1' visibility='default' binding='global' size-in-bits='64'>
        <parameter type-id='type-id-52'/>
        <parameter type-id='type-id-52'/>
        <return type-id='type-id-52'/>
      </function-decl>
      <class-decl name='ctype&lt;char&gt;' visibility='default' is-declaration-only='yes' id='type-id-535'>
        <member-type access='private'>
          <typedef-decl name='char_type' type-id='type-id-2' filepath='/usr/lib/gcc/x86_64-redhat-linux/4.4.7/../../../../include/c++/4.4.7/bits/locale_facets.h' line='679' column='1' id='type-id-568'/>
        </member-type>
      </class-decl>
      <function-decl name='__check_facet&lt;std::ctype&lt;char&gt; &gt;' filepath='/usr/lib/gcc/x86_64-redhat-linux/4.4.7/../../../../include/c++/4.4.7/bits/basic_ios.h' line='46' column='1' visibility='default' binding='global' size-in-bits='64'>
        <parameter type-id='type-id-538'/>
        <return type-id='type-id-537'/>
      </function-decl>
      <function-decl name='flush&lt;char, std::char_traits&lt;char&gt; &gt;' filepath='/usr/lib/gcc/x86_64-redhat-linux/4.4.7/../../../../include/c++/4.4.7/ostream' line='559' column='1' visibility='default' binding='global' size-in-bits='64'>
        <parameter type-id='type-id-554'/>
        <return type-id='type-id-554'/>
      </function-decl>
      <function-decl name='operator&lt;&lt; &lt;std::char_traits&lt;char&gt; &gt;' filepath='/usr/lib/gcc/x86_64-redhat-linux/4.4.7/../../../../include/c++/4.4.7/ostream' line='505' column='1' visibility='default' binding='global' size-in-bits='64'>
        <parameter type-id='type-id-554'/>
        <parameter type-id='type-id-41'/>
        <return type-id='type-id-554'/>
      </function-decl>
      <function-decl name='endl&lt;char, std::char_traits&lt;char&gt; &gt;' filepath='/usr/lib/gcc/x86_64-redhat-linux/4.4.7/../../../../include/c++/4.4.7/ostream' line='538' column='1' visibility='default' binding='global' size-in-bits='64'>
        <parameter type-id='type-id-554'/>
        <return type-id='type-id-554'/>
      </function-decl>
      <class-decl name='vector&lt;short unsigned int, std::allocator&lt;short unsigned int&gt; &gt;' visibility='default' is-declaration-only='yes' id='type-id-559'/>
      <class-decl name='basic_ios&lt;char, std::char_traits&lt;char&gt; &gt;' is-struct='yes' visibility='default' is-declaration-only='yes' id='type-id-530'>
        <member-type access='public'>
          <typedef-decl name='iostate' type-id='type-id-52' filepath='/usr/lib/gcc/x86_64-redhat-linux/4.4.7/../../../../include/c++/4.4.7/bits/ios_base.h' line='338' column='1' id='type-id-569'/>
        </member-type>
        <member-function access='protected'>
          <function-decl name='basic_ios' filepath='/usr/lib/gcc/x86_64-redhat-linux/4.4.7/../../../../include/c++/4.4.7/bits/basic_ios.h' line='450' column='1' visibility='default' binding='global' size-in-bits='64'>
            <parameter type-id='type-id-552' is-artificial='yes'/>
            <return type-id='type-id-28'/>
          </function-decl>
        </member-function>
        <member-function access='public' destructor='yes' vtable-offset='-1'>
          <function-decl name='~basic_ios' filepath='/usr/lib/gcc/x86_64-redhat-linux/4.4.7/../../../../include/c++/4.4.7/bits/basic_ios.h' line='272' column='1' visibility='default' binding='global' size-in-bits='64'>
            <parameter type-id='type-id-552' is-artificial='yes'/>
            <parameter type-id='type-id-17' is-artificial='yes'/>
            <return type-id='type-id-28'/>
          </function-decl>
        </member-function>
      </class-decl>
    </namespace-decl>
    <namespace-decl name='__gnu_cxx'>
      <function-decl name='operator!=&lt;char*, std::basic_string&lt;char, std::char_traits&lt;char&gt;, std::allocator&lt;char&gt; &gt; &gt;' filepath='/usr/lib/gcc/x86_64-redhat-linux/4.4.7/../../../../include/c++/4.4.7/bits/stl_iterator.h' line='783' column='1' visibility='default' binding='global' size-in-bits='64'>
        <parameter type-id='type-id-523'/>
        <parameter type-id='type-id-523'/>
        <return type-id='type-id-1'/>
      </function-decl>
    </namespace-decl>
    <function-decl name='atexit' filepath='/usr/include/stdlib.h' line='518' column='1' visibility='default' binding='global' size-in-bits='64'>
      <parameter type-id='type-id-562'/>
      <return type-id='type-id-17'/>
    </function-decl>
    <function-decl name='atof' filepath='/usr/include/stdlib.h' line='279' column='1' visibility='default' binding='global' size-in-bits='64'>
      <parameter type-id='type-id-41'/>
      <return type-id='type-id-15'/>
    </function-decl>
    <function-decl name='atoi' filepath='/usr/include/stdlib.h' line='284' column='1' visibility='default' binding='global' size-in-bits='64'>
      <parameter type-id='type-id-41'/>
      <return type-id='type-id-17'/>
    </function-decl>
    <function-decl name='atol' filepath='/usr/include/stdlib.h' line='289' column='1' visibility='default' binding='global' size-in-bits='64'>
      <parameter type-id='type-id-41'/>
      <return type-id='type-id-19'/>
    </function-decl>
    <function-decl name='bsearch' filepath='/usr/include/stdlib.h' line='755' column='1' visibility='default' binding='global' size-in-bits='64'>
      <parameter type-id='type-id-14'/>
      <parameter type-id='type-id-14'/>
      <parameter type-id='type-id-23'/>
      <parameter type-id='type-id-23'/>
      <parameter type-id='type-id-513'/>
      <return type-id='type-id-14'/>
    </function-decl>
    <function-decl name='div' filepath='/usr/include/stdlib.h' line='785' column='1' visibility='default' binding='global' size-in-bits='64'>
      <parameter type-id='type-id-17'/>
      <parameter type-id='type-id-17'/>
      <return type-id='type-id-514'/>
    </function-decl>
    <function-decl name='getenv' filepath='/usr/include/stdlib.h' line='567' column='1' visibility='default' binding='global' size-in-bits='64'>
      <parameter type-id='type-id-41'/>
      <return type-id='type-id-47'/>
    </function-decl>
    <function-decl name='ldiv' filepath='/usr/include/stdlib.h' line='787' column='1' visibility='default' binding='global' size-in-bits='64'>
      <parameter type-id='type-id-19'/>
      <parameter type-id='type-id-19'/>
      <return type-id='type-id-515'/>
    </function-decl>
    <function-decl name='mblen' filepath='/usr/include/stdlib.h' line='860' column='1' visibility='default' binding='global' size-in-bits='64'>
      <parameter type-id='type-id-41'/>
      <parameter type-id='type-id-23'/>
      <return type-id='type-id-17'/>
    </function-decl>
    <function-decl name='mbstowcs' filepath='/usr/include/stdlib.h' line='871' column='1' visibility='default' binding='global' size-in-bits='64'>
      <parameter type-id='type-id-195'/>
      <parameter type-id='type-id-41'/>
      <parameter type-id='type-id-23'/>
      <return type-id='type-id-23'/>
    </function-decl>
    <function-decl name='mbtowc' filepath='/usr/include/stdlib.h' line='863' column='1' visibility='default' binding='global' size-in-bits='64'>
      <parameter type-id='type-id-195'/>
      <parameter type-id='type-id-41'/>
      <parameter type-id='type-id-23'/>
      <return type-id='type-id-17'/>
    </function-decl>
    <function-decl name='qsort' filepath='/usr/include/stdlib.h' line='761' column='1' visibility='default' binding='global' size-in-bits='64'>
      <parameter type-id='type-id-14'/>
      <parameter type-id='type-id-23'/>
      <parameter type-id='type-id-23'/>
      <parameter type-id='type-id-513'/>
      <return type-id='type-id-28'/>
    </function-decl>
    <function-decl name='rand' filepath='/usr/include/stdlib.h' line='380' column='1' visibility='default' binding='global' size-in-bits='64'>
      <return type-id='type-id-17'/>
    </function-decl>
    <function-decl name='srand' filepath='/usr/include/stdlib.h' line='382' column='1' visibility='default' binding='global' size-in-bits='64'>
      <parameter type-id='type-id-13'/>
      <return type-id='type-id-28'/>
    </function-decl>
    <function-decl name='strtod' filepath='/usr/include/stdlib.h' line='165' column='1' visibility='default' binding='global' size-in-bits='64'>
      <parameter type-id='type-id-41'/>
      <parameter type-id='type-id-521'/>
      <return type-id='type-id-15'/>
    </function-decl>
    <function-decl name='strtol' filepath='/usr/include/stdlib.h' line='184' column='1' visibility='default' binding='global' size-in-bits='64'>
      <parameter type-id='type-id-41'/>
      <parameter type-id='type-id-521'/>
      <parameter type-id='type-id-17'/>
      <return type-id='type-id-19'/>
    </function-decl>
    <function-decl name='strtoul' filepath='/usr/include/stdlib.h' line='188' column='1' visibility='default' binding='global' size-in-bits='64'>
      <parameter type-id='type-id-41'/>
      <parameter type-id='type-id-521'/>
      <parameter type-id='type-id-17'/>
      <return type-id='type-id-4'/>
    </function-decl>
    <function-decl name='system' filepath='/usr/include/stdlib.h' line='717' column='1' visibility='default' binding='global' size-in-bits='64'>
      <parameter type-id='type-id-41'/>
      <return type-id='type-id-17'/>
    </function-decl>
    <function-decl name='wcstombs' filepath='/usr/include/stdlib.h' line='874' column='1' visibility='default' binding='global' size-in-bits='64'>
      <parameter type-id='type-id-47'/>
      <parameter type-id='type-id-159'/>
      <parameter type-id='type-id-23'/>
      <return type-id='type-id-23'/>
    </function-decl>
    <function-decl name='wctomb' filepath='/usr/include/stdlib.h' line='867' column='1' visibility='default' binding='global' size-in-bits='64'>
      <parameter type-id='type-id-47'/>
      <parameter type-id='type-id-29'/>
      <return type-id='type-id-17'/>
    </function-decl>
    <function-decl name='lldiv' filepath='/usr/include/stdlib.h' line='793' column='1' visibility='default' binding='global' size-in-bits='64'>
      <parameter type-id='type-id-20'/>
      <parameter type-id='type-id-20'/>
      <return type-id='type-id-511'/>
    </function-decl>
    <function-decl name='atoll' filepath='/usr/include/stdlib.h' line='298' column='1' visibility='default' binding='global' size-in-bits='64'>
      <parameter type-id='type-id-41'/>
      <return type-id='type-id-20'/>
    </function-decl>
    <function-decl name='strtoll' filepath='/usr/include/stdlib.h' line='210' column='1' visibility='default' binding='global' size-in-bits='64'>
      <parameter type-id='type-id-41'/>
      <parameter type-id='type-id-521'/>
      <parameter type-id='type-id-17'/>
      <return type-id='type-id-20'/>
