{
 "array_types" :
 [
  {
   "alignment" : 8,
   "linker_set_key" : "_ZTIA2_y",
   "name" : "unsigned long long [2]",
   "referenced_type" : "_ZTIy",
   "self_type" : "_ZTIA2_y",
   "size" : 16,
   "source_file" : "system/unwinding/libunwindstack/include/unwindstack/DwarfLocation.h"
  }
 ],
 "builtin_types" :
 [
  {
   "alignment" : 1,
   "is_integral" : true,
   "is_unsigned" : true,
   "linker_set_key" : "_ZTIb",
   "name" : "bool",
   "referenced_type" : "_ZTIb",
   "self_type" : "_ZTIb",
   "size" : 1
  },
  {
   "alignment" : 1,
   "is_integral" : true,
   "is_unsigned" : true,
   "linker_set_key" : "_ZTIc",
   "name" : "char",
   "referenced_type" : "_ZTIc",
   "self_type" : "_ZTIc",
   "size" : 1
  },
  {
   "alignment" : 1,
   "is_integral" : true,
   "is_unsigned" : true,
   "linker_set_key" : "_ZTIh",
   "name" : "unsigned char",
   "referenced_type" : "_ZTIh",
   "self_type" : "_ZTIh",
   "size" : 1
  },
  {
   "alignment" : 4,
   "is_integral" : true,
   "linker_set_key" : "_ZTIi",
   "name" : "int",
   "referenced_type" : "_ZTIi",
   "self_type" : "_ZTIi",
   "size" : 4
  },
  {
   "alignment" : 4,
   "is_integral" : true,
   "is_unsigned" : true,
   "linker_set_key" : "_ZTIj",
   "name" : "unsigned int",
   "referenced_type" : "_ZTIj",
   "self_type" : "_ZTIj",
   "size" : 4
  },
  {
   "alignment" : 4,
   "is_integral" : true,
   "linker_set_key" : "_ZTIl",
   "name" : "long",
   "referenced_type" : "_ZTIl",
   "self_type" : "_ZTIl",
   "size" : 4
  },
  {
   "alignment" : 2,
   "is_integral" : true,
   "linker_set_key" : "_ZTIs",
   "name" : "short",
   "referenced_type" : "_ZTIs",
   "self_type" : "_ZTIs",
   "size" : 2
  },
  {
   "alignment" : 2,
   "is_integral" : true,
   "is_unsigned" : true,
   "linker_set_key" : "_ZTIt",
   "name" : "unsigned short",
   "referenced_type" : "_ZTIt",
   "self_type" : "_ZTIt",
   "size" : 2
  },
  {
   "linker_set_key" : "_ZTIv",
   "name" : "void",
   "referenced_type" : "_ZTIv",
   "self_type" : "_ZTIv"
  },
  {
   "alignment" : 8,
   "is_integral" : true,
   "linker_set_key" : "_ZTIx",
   "name" : "long long",
   "referenced_type" : "_ZTIx",
   "self_type" : "_ZTIx",
   "size" : 8
  },
  {
   "alignment" : 8,
   "is_integral" : true,
   "is_unsigned" : true,
   "linker_set_key" : "_ZTIy",
   "name" : "unsigned long long",
   "referenced_type" : "_ZTIy",
   "self_type" : "_ZTIy",
   "size" : 8
  }
 ],
 "elf_functions" : [],
 "elf_objects" : [],
 "enum_types" :
 [
  {
   "alignment" : 8,
   "enum_fields" :
   [
    {
     "enum_field_value" : 0,
     "name" : "unwindstack::WARNING_NONE"
    },
    {
     "enum_field_value" : 1,
     "name" : "unwindstack::WARNING_DEX_PC_NOT_IN_MAP"
    }
   ],
   "linker_set_key" : "_ZTIN11unwindstack11WarningCodeE",
   "name" : "unwindstack::WarningCode",
   "referenced_type" : "_ZTIN11unwindstack11WarningCodeE",
   "self_type" : "_ZTIN11unwindstack11WarningCodeE",
   "size" : 8,
   "source_file" : "system/unwinding/libunwindstack/include/unwindstack/Error.h",
   "underlying_type" : "_ZTIy"
  },
  {
   "alignment" : 1,
   "enum_fields" :
   [
    {
     "enum_field_value" : 0,
     "name" : "unwindstack::DWARF_ERROR_NONE"
    },
    {
     "enum_field_value" : 1,
     "name" : "unwindstack::DWARF_ERROR_MEMORY_INVALID"
    },
    {
     "enum_field_value" : 2,
     "name" : "unwindstack::DWARF_ERROR_ILLEGAL_VALUE"
    },
    {
     "enum_field_value" : 3,
     "name" : "unwindstack::DWARF_ERROR_ILLEGAL_STATE"
    },
    {
     "enum_field_value" : 4,
     "name" : "unwindstack::DWARF_ERROR_STACK_INDEX_NOT_VALID"
    },
    {
     "enum_field_value" : 5,
     "name" : "unwindstack::DWARF_ERROR_NOT_IMPLEMENTED"
    },
    {
     "enum_field_value" : 6,
     "name" : "unwindstack::DWARF_ERROR_TOO_MANY_ITERATIONS"
    },
    {
     "enum_field_value" : 7,
     "name" : "unwindstack::DWARF_ERROR_CFA_NOT_DEFINED"
    },
    {
     "enum_field_value" : 8,
     "name" : "unwindstack::DWARF_ERROR_UNSUPPORTED_VERSION"
    },
    {
     "enum_field_value" : 9,
     "name" : "unwindstack::DWARF_ERROR_NO_FDES"
    }
   ],
   "linker_set_key" : "_ZTIN11unwindstack14DwarfErrorCodeE",
   "name" : "unwindstack::DwarfErrorCode",
   "referenced_type" : "_ZTIN11unwindstack14DwarfErrorCodeE",
   "self_type" : "_ZTIN11unwindstack14DwarfErrorCodeE",
   "size" : 1,
   "source_file" : "system/unwinding/libunwindstack/include/unwindstack/DwarfError.h",
   "underlying_type" : "_ZTIh"
  },
  {
   "alignment" : 1,
   "enum_fields" :
   [
    {
     "enum_field_value" : 0,
     "name" : "unwindstack::SONAME_UNKNOWN"
    },
    {
     "enum_field_value" : 1,
     "name" : "unwindstack::SONAME_VALID"
    },
    {
     "enum_field_value" : 2,
     "name" : "unwindstack::SONAME_INVALID"
    }
   ],
   "linker_set_key" : "_ZTIN11unwindstack15$SONAME_INVALIDE",
   "name" : "unwindstack::(anonymous enum at system/unwinding/libunwindstack/include/unwindstack/ElfInterface.h:45:1)",
   "referenced_type" : "_ZTIN11unwindstack15$SONAME_INVALIDE",
   "self_type" : "_ZTIN11unwindstack15$SONAME_INVALIDE",
   "size" : 1,
   "source_file" : "system/unwinding/libunwindstack/include/unwindstack/ElfInterface.h",
   "underlying_type" : "_ZTIh"
  },
  {
   "alignment" : 1,
   "enum_fields" :
   [
    {
     "enum_field_value" : 0,
     "name" : "unwindstack::DWARF_LOCATION_INVALID"
    },
    {
     "enum_field_value" : 1,
     "name" : "unwindstack::DWARF_LOCATION_UNDEFINED"
    },
    {
     "enum_field_value" : 2,
     "name" : "unwindstack::DWARF_LOCATION_OFFSET"
    },
    {
     "enum_field_value" : 3,
     "name" : "unwindstack::DWARF_LOCATION_VAL_OFFSET"
    },
    {
     "enum_field_value" : 4,
     "name" : "unwindstack::DWARF_LOCATION_REGISTER"
    },
    {
     "enum_field_value" : 5,
     "name" : "unwindstack::DWARF_LOCATION_EXPRESSION"
    },
    {
     "enum_field_value" : 6,
     "name" : "unwindstack::DWARF_LOCATION_VAL_EXPRESSION"
    },
    {
     "enum_field_value" : 7,
     "name" : "unwindstack::DWARF_LOCATION_PSEUDO_REGISTER"
    }
   ],
   "linker_set_key" : "_ZTIN11unwindstack17DwarfLocationEnumE",
   "name" : "unwindstack::DwarfLocationEnum",
   "referenced_type" : "_ZTIN11unwindstack17DwarfLocationEnumE",
   "self_type" : "_ZTIN11unwindstack17DwarfLocationEnumE",
   "size" : 1,
   "source_file" : "system/unwinding/libunwindstack/include/unwindstack/DwarfLocation.h",
   "underlying_type" : "_ZTIh"
  },
  {
   "alignment" : 1,
   "enum_fields" :
   [
    {
     "enum_field_value" : 0,
     "name" : "unwindstack::Regs::LOCATION_UNKNOWN"
    },
    {
     "enum_field_value" : 1,
     "name" : "unwindstack::Regs::LOCATION_REGISTER"
    },
    {
     "enum_field_value" : 2,
     "name" : "unwindstack::Regs::LOCATION_SP_OFFSET"
    }
   ],
   "linker_set_key" : "_ZTIN11unwindstack4Regs12LocationEnumE",
   "name" : "unwindstack::Regs::LocationEnum",
   "referenced_type" : "_ZTIN11unwindstack4Regs12LocationEnumE",
   "self_type" : "_ZTIN11unwindstack4Regs12LocationEnumE",
   "size" : 1,
   "source_file" : "system/unwinding/libunwindstack/include/unwindstack/Regs.h",
   "underlying_type" : "_ZTIh"
  },
  {
   "alignment" : 1,
   "enum_fields" :
   [
    {
     "enum_field_value" : 0,
     "name" : "unwindstack::ARCH_UNKNOWN"
    },
    {
     "enum_field_value" : 1,
     "name" : "unwindstack::ARCH_ARM"
    },
    {
     "enum_field_value" : 2,
     "name" : "unwindstack::ARCH_ARM64"
    },
    {
     "enum_field_value" : 3,
     "name" : "unwindstack::ARCH_X86"
    },
    {
     "enum_field_value" : 4,
     "name" : "unwindstack::ARCH_X86_64"
    },
    {
     "enum_field_value" : 5,
     "name" : "unwindstack::ARCH_MIPS"
    },
    {
     "enum_field_value" : 6,
     "name" : "unwindstack::ARCH_MIPS64"
    }
   ],
   "linker_set_key" : "_ZTIN11unwindstack8ArchEnumE",
   "name" : "unwindstack::ArchEnum",
   "referenced_type" : "_ZTIN11unwindstack8ArchEnumE",
   "self_type" : "_ZTIN11unwindstack8ArchEnumE",
   "size" : 1,
   "source_file" : "system/unwinding/libunwindstack/include/unwindstack/Arch.h",
   "underlying_type" : "_ZTIh"
  },
  {
   "alignment" : 1,
   "enum_fields" :
   [
    {
     "enum_field_value" : 0,
     "name" : "unwindstack::ERROR_NONE"
    },
    {
     "enum_field_value" : 1,
     "name" : "unwindstack::ERROR_MEMORY_INVALID"
    },
    {
     "enum_field_value" : 2,
     "name" : "unwindstack::ERROR_UNWIND_INFO"
    },
    {
     "enum_field_value" : 3,
     "name" : "unwindstack::ERROR_UNSUPPORTED"
    },
    {
     "enum_field_value" : 4,
     "name" : "unwindstack::ERROR_INVALID_MAP"
    },
    {
     "enum_field_value" : 5,
     "name" : "unwindstack::ERROR_MAX_FRAMES_EXCEEDED"
    },
    {
     "enum_field_value" : 6,
     "name" : "unwindstack::ERROR_REPEATED_FRAME"
    },
    {
     "enum_field_value" : 7,
     "name" : "unwindstack::ERROR_INVALID_ELF"
    },
    {
     "enum_field_value" : 8,
     "name" : "unwindstack::ERROR_THREAD_DOES_NOT_EXIST"
    },
    {
     "enum_field_value" : 9,
     "name" : "unwindstack::ERROR_THREAD_TIMEOUT"
    },
    {
     "enum_field_value" : 10,
     "name" : "unwindstack::ERROR_SYSTEM_CALL"
    },
    {
     "enum_field_value" : 10,
     "name" : "unwindstack::ERROR_MAX"
    }
   ],
   "linker_set_key" : "_ZTIN11unwindstack9ErrorCodeE",
   "name" : "unwindstack::ErrorCode",
   "referenced_type" : "_ZTIN11unwindstack9ErrorCodeE",
   "self_type" : "_ZTIN11unwindstack9ErrorCodeE",
   "size" : 1,
   "source_file" : "system/unwinding/libunwindstack/include/unwindstack/Error.h",
   "underlying_type" : "_ZTIh"
  }
 ],
 "function_types" : [],
 "functions" :
 [
  {
   "function_name" : "unwindstack::DwarfMemory::cur_offset",
   "linker_set_key" : "_ZN11unwindstack11DwarfMemory10cur_offsetEv",
   "parameters" :
   [
    {
     "is_this_ptr" : true,
     "referenced_type" : "_ZTIPN11unwindstack11DwarfMemoryE"
    }
   ],
   "return_type" : "_ZTIy",
   "source_file" : "system/unwinding/libunwindstack/include/unwindstack/DwarfMemory.h"
  },
  {
   "function_name" : "unwindstack::DwarfMemory::set_pc_offset",
   "linker_set_key" : "_ZN11unwindstack11DwarfMemory13set_pc_offsetEx",
   "parameters" :
   [
    {
     "is_this_ptr" : true,
     "referenced_type" : "_ZTIPN11unwindstack11DwarfMemoryE"
    },
    {
     "referenced_type" : "_ZTIx"
    }
   ],
   "return_type" : "_ZTIv",
   "source_file" : "system/unwinding/libunwindstack/include/unwindstack/DwarfMemory.h"
  },
  {
   "function_name" : "unwindstack::DwarfMemory::set_cur_offset",
   "linker_set_key" : "_ZN11unwindstack11DwarfMemory14set_cur_offsetEy",
   "parameters" :
   [
    {
     "is_this_ptr" : true,
     "referenced_type" : "_ZTIPN11unwindstack11DwarfMemoryE"
    },
    {
     "referenced_type" : "_ZTIy"
    }
   ],
   "return_type" : "_ZTIv",
   "source_file" : "system/unwinding/libunwindstack/include/unwindstack/DwarfMemory.h"
  },
  {
   "function_name" : "unwindstack::DwarfMemory::clear_pc_offset",
   "linker_set_key" : "_ZN11unwindstack11DwarfMemory15clear_pc_offsetEv",
   "parameters" :
   [
    {
     "is_this_ptr" : true,
     "referenced_type" : "_ZTIPN11unwindstack11DwarfMemoryE"
    }
   ],
   "return_type" : "_ZTIv",
   "source_file" : "system/unwinding/libunwindstack/include/unwindstack/DwarfMemory.h"
  },
  {
   "function_name" : "unwindstack::DwarfMemory::set_data_offset",
   "linker_set_key" : "_ZN11unwindstack11DwarfMemory15set_data_offsetEy",
   "parameters" :
   [
    {
     "is_this_ptr" : true,
     "referenced_type" : "_ZTIPN11unwindstack11DwarfMemoryE"
    },
    {
     "referenced_type" : "_ZTIy"
    }
   ],
   "return_type" : "_ZTIv",
   "source_file" : "system/unwinding/libunwindstack/include/unwindstack/DwarfMemory.h"
  },
  {
   "function_name" : "unwindstack::DwarfMemory::set_func_offset",
   "linker_set_key" : "_ZN11unwindstack11DwarfMemory15set_func_offsetEy",
   "parameters" :
   [
    {
     "is_this_ptr" : true,
     "referenced_type" : "_ZTIPN11unwindstack11DwarfMemoryE"
    },
    {
     "referenced_type" : "_ZTIy"
    }
   ],
   "return_type" : "_ZTIv",
   "source_file" : "system/unwinding/libunwindstack/include/unwindstack/DwarfMemory.h"
  },
  {
   "function_name" : "unwindstack::DwarfMemory::set_text_offset",
   "linker_set_key" : "_ZN11unwindstack11DwarfMemory15set_text_offsetEy",
   "parameters" :
   [
    {
     "is_this_ptr" : true,
     "referenced_type" : "_ZTIPN11unwindstack11DwarfMemoryE"
    },
    {
     "referenced_type" : "_ZTIy"
    }
   ],
   "return_type" : "_ZTIv",
   "source_file" : "system/unwinding/libunwindstack/include/unwindstack/DwarfMemory.h"
  },
  {
   "function_name" : "unwindstack::DwarfMemory::clear_data_offset",
   "linker_set_key" : "_ZN11unwindstack11DwarfMemory17clear_data_offsetEv",
   "parameters" :
   [
    {
     "is_this_ptr" : true,
     "referenced_type" : "_ZTIPN11unwindstack11DwarfMemoryE"
    }
   ],
   "return_type" : "_ZTIv",
   "source_file" : "system/unwinding/libunwindstack/include/unwindstack/DwarfMemory.h"
  },
  {
   "function_name" : "unwindstack::DwarfMemory::clear_func_offset",
   "linker_set_key" : "_ZN11unwindstack11DwarfMemory17clear_func_offsetEv",
   "parameters" :
   [
    {
     "is_this_ptr" : true,
     "referenced_type" : "_ZTIPN11unwindstack11DwarfMemoryE"
    }
   ],
   "return_type" : "_ZTIv",
   "source_file" : "system/unwinding/libunwindstack/include/unwindstack/DwarfMemory.h"
  },
  {
   "function_name" : "unwindstack::DwarfMemory::clear_text_offset",
   "linker_set_key" : "_ZN11unwindstack11DwarfMemory17clear_text_offsetEv",
   "parameters" :
   [
    {
     "is_this_ptr" : true,
     "referenced_type" : "_ZTIPN11unwindstack11DwarfMemoryE"
    }
   ],
   "return_type" : "_ZTIv",
   "source_file" : "system/unwinding/libunwindstack/include/unwindstack/DwarfMemory.h"
  },
  {
   "function_name" : "unwindstack::DwarfMemory::DwarfMemory",
   "linker_set_key" : "_ZN11unwindstack11DwarfMemoryC1EPNS_6MemoryE",
   "parameters" :
   [
    {
     "is_this_ptr" : true,
     "referenced_type" : "_ZTIPN11unwindstack11DwarfMemoryE"
    },
    {
     "referenced_type" : "_ZTIPN11unwindstack6MemoryE"
    }
   ],
   "return_type" : "_ZTIv",
   "source_file" : "system/unwinding/libunwindstack/include/unwindstack/DwarfMemory.h"
  },
  {
   "function_name" : "unwindstack::DwarfMemory::DwarfMemory",
   "linker_set_key" : "_ZN11unwindstack11DwarfMemoryC2EPNS_6MemoryE",
   "parameters" :
   [
    {
     "is_this_ptr" : true,
     "referenced_type" : "_ZTIPN11unwindstack11DwarfMemoryE"
    },
    {
     "referenced_type" : "_ZTIPN11unwindstack6MemoryE"
    }
   ],
   "return_type" : "_ZTIv",
   "source_file" : "system/unwinding/libunwindstack/include/unwindstack/DwarfMemory.h"
  },
  {
   "function_name" : "unwindstack::DwarfMemory::~DwarfMemory",
   "linker_set_key" : "_ZN11unwindstack11DwarfMemoryD0Ev",
   "parameters" :
   [
    {
     "is_this_ptr" : true,
     "referenced_type" : "_ZTIPN11unwindstack11DwarfMemoryE"
    }
   ],
   "return_type" : "_ZTIv",
   "source_file" : "system/unwinding/libunwindstack/include/unwindstack/DwarfMemory.h"
  },
  {
   "function_name" : "unwindstack::DwarfMemory::~DwarfMemory",
   "linker_set_key" : "_ZN11unwindstack11DwarfMemoryD1Ev",
   "parameters" :
   [
    {
     "is_this_ptr" : true,
     "referenced_type" : "_ZTIPN11unwindstack11DwarfMemoryE"
    }
   ],
   "return_type" : "_ZTIv",
   "source_file" : "system/unwinding/libunwindstack/include/unwindstack/DwarfMemory.h"
  },
  {
   "function_name" : "unwindstack::DwarfMemory::~DwarfMemory",
   "linker_set_key" : "_ZN11unwindstack11DwarfMemoryD2Ev",
   "parameters" :
   [
    {
     "is_this_ptr" : true,
     "referenced_type" : "_ZTIPN11unwindstack11DwarfMemoryE"
    }
   ],
   "return_type" : "_ZTIv",
   "source_file" : "system/unwinding/libunwindstack/include/unwindstack/DwarfMemory.h"
  },
  {
   "function_name" : "unwindstack::DwarfSection::LastErrorCode",
   "linker_set_key" : "_ZN11unwindstack12DwarfSection13LastErrorCodeEv",
   "parameters" :
   [
    {
     "is_this_ptr" : true,
     "referenced_type" : "_ZTIPN11unwindstack12DwarfSectionE"
    }
   ],
   "return_type" : "_ZTIN11unwindstack14DwarfErrorCodeE",
   "source_file" : "system/unwinding/libunwindstack/include/unwindstack/DwarfSection.h"
  },
  {
   "function_name" : "unwindstack::DwarfSection::LastErrorAddress",
   "linker_set_key" : "_ZN11unwindstack12DwarfSection16LastErrorAddressEv",
   "parameters" :
   [
    {
     "is_this_ptr" : true,
     "referenced_type" : "_ZTIPN11unwindstack12DwarfSectionE"
    }
   ],
   "return_type" : "_ZTIy",
   "source_file" : "system/unwinding/libunwindstack/include/unwindstack/DwarfSection.h"
  },
  {
   "function_name" : "unwindstack::DwarfSection::end",
   "linker_set_key" : "_ZN11unwindstack12DwarfSection3endEv",
   "parameters" :
   [
    {
     "is_this_ptr" : true,
     "referenced_type" : "_ZTIPN11unwindstack12DwarfSectionE"
    }
   ],
   "return_type" : "_ZTIN11unwindstack12DwarfSection8iteratorE",
   "source_file" : "system/unwinding/libunwindstack/include/unwindstack/DwarfSection.h"
  },
  {
   "function_name" : "unwindstack::DwarfSection::Step",
   "linker_set_key" : "_ZN11unwindstack12DwarfSection4StepEyPNS_4RegsEPNS_6MemoryEPbS5_",
   "parameters" :
   [
    {
     "is_this_ptr" : true,
     "referenced_type" : "_ZTIPN11unwindstack12DwarfSectionE"
    },
    {
     "referenced_type" : "_ZTIy"
    },
    {
     "referenced_type" : "_ZTIPN11unwindstack4RegsE"
    },
    {
     "referenced_type" : "_ZTIPN11unwindstack6MemoryE"
    },
    {
     "referenced_type" : "_ZTIPb"
    },
    {
     "referenced_type" : "_ZTIPb"
    }
   ],
   "return_type" : "_ZTIb",
   "source_file" : "system/unwinding/libunwindstack/include/unwindstack/DwarfSection.h"
  },
  {
   "function_name" : "unwindstack::DwarfSection::begin",
   "linker_set_key" : "_ZN11unwindstack12DwarfSection5beginEv",
   "parameters" :
   [
    {
     "is_this_ptr" : true,
     "referenced_type" : "_ZTIPN11unwindstack12DwarfSectionE"
    }
   ],
   "return_type" : "_ZTIN11unwindstack12DwarfSection8iteratorE",
   "source_file" : "system/unwinding/libunwindstack/include/unwindstack/DwarfSection.h"
  },
  {
   "function_name" : "unwindstack::DwarfSection::iterator::iterator",
   "linker_set_key" : "_ZN11unwindstack12DwarfSection8iteratorC1EPS0_j",
   "parameters" :
   [
    {
     "is_this_ptr" : true,
     "referenced_type" : "_ZTIPN11unwindstack12DwarfSection8iteratorE"
    },
    {
     "referenced_type" : "_ZTIPN11unwindstack12DwarfSectionE"
    },
    {
     "referenced_type" : "_ZTIj"
    }
   ],
   "return_type" : "_ZTIv",
   "source_file" : "system/unwinding/libunwindstack/include/unwindstack/DwarfSection.h"
  },
  {
   "function_name" : "unwindstack::DwarfSection::iterator::iterator",
   "linker_set_key" : "_ZN11unwindstack12DwarfSection8iteratorC2EPS0_j",
   "parameters" :
   [
    {
     "is_this_ptr" : true,
     "referenced_type" : "_ZTIPN11unwindstack12DwarfSection8iteratorE"
    },
    {
     "referenced_type" : "_ZTIPN11unwindstack12DwarfSectionE"
    },
    {
     "referenced_type" : "_ZTIj"
    }
   ],
   "return_type" : "_ZTIv",
   "source_file" : "system/unwinding/libunwindstack/include/unwindstack/DwarfSection.h"
  },
  {
   "function_name" : "unwindstack::DwarfSection::iterator::operator*",
   "linker_set_key" : "_ZN11unwindstack12DwarfSection8iteratordeEv",
   "parameters" :
   [
    {
     "is_this_ptr" : true,
     "referenced_type" : "_ZTIPN11unwindstack12DwarfSection8iteratorE"
    }
   ],
   "return_type" : "_ZTIPKN11unwindstack8DwarfFdeE",
   "source_file" : "system/unwinding/libunwindstack/include/unwindstack/DwarfSection.h"
  },
  {
   "function_name" : "unwindstack::DwarfSection::iterator::operator==",
   "linker_set_key" : "_ZN11unwindstack12DwarfSection8iteratoreqERKS1_",
   "parameters" :
   [
    {
     "is_this_ptr" : true,
     "referenced_type" : "_ZTIPN11unwindstack12DwarfSection8iteratorE"
    },
    {
     "referenced_type" : "_ZTIRKN11unwindstack12DwarfSection8iteratorE"
    }
   ],
   "return_type" : "_ZTIb",
   "source_file" : "system/unwinding/libunwindstack/include/unwindstack/DwarfSection.h"
  },
  {
   "function_name" : "unwindstack::DwarfSection::iterator::operator--",
   "linker_set_key" : "_ZN11unwindstack12DwarfSection8iteratormmEi",
   "parameters" :
   [
    {
     "is_this_ptr" : true,
     "referenced_type" : "_ZTIPN11unwindstack12DwarfSection8iteratorE"
    },
    {
     "referenced_type" : "_ZTIi"
    }
   ],
   "return_type" : "_ZTIRN11unwindstack12DwarfSection8iteratorE",
   "source_file" : "system/unwinding/libunwindstack/include/unwindstack/DwarfSection.h"
  },
  {
   "function_name" : "unwindstack::DwarfSection::iterator::operator--",
   "linker_set_key" : "_ZN11unwindstack12DwarfSection8iteratormmEv",
   "parameters" :
   [
    {
     "is_this_ptr" : true,
     "referenced_type" : "_ZTIPN11unwindstack12DwarfSection8iteratorE"
    }
   ],
   "return_type" : "_ZTIRN11unwindstack12DwarfSection8iteratorE",
   "source_file" : "system/unwinding/libunwindstack/include/unwindstack/DwarfSection.h"
  },
  {
   "function_name" : "unwindstack::DwarfSection::iterator::operator!=",
   "linker_set_key" : "_ZN11unwindstack12DwarfSection8iteratorneERKS1_",
   "parameters" :
   [
    {
     "is_this_ptr" : true,
     "referenced_type" : "_ZTIPN11unwindstack12DwarfSection8iteratorE"
    },
    {
     "referenced_type" : "_ZTIRKN11unwindstack12DwarfSection8iteratorE"
    }
   ],
   "return_type" : "_ZTIb",
   "source_file" : "system/unwinding/libunwindstack/include/unwindstack/DwarfSection.h"
  },
  {
   "function_name" : "unwindstack::DwarfSection::iterator::operator++",
   "linker_set_key" : "_ZN11unwindstack12DwarfSection8iteratorppEi",
   "parameters" :
   [
    {
     "is_this_ptr" : true,
     "referenced_type" : "_ZTIPN11unwindstack12DwarfSection8iteratorE"
    },
    {
     "referenced_type" : "_ZTIi"
    }
   ],
   "return_type" : "_ZTIRN11unwindstack12DwarfSection8iteratorE",
   "source_file" : "system/unwinding/libunwindstack/include/unwindstack/DwarfSection.h"
  },
  {
   "function_name" : "unwindstack::DwarfSection::iterator::operator++",
   "linker_set_key" : "_ZN11unwindstack12DwarfSection8iteratorppEv",
   "parameters" :
   [
    {
     "is_this_ptr" : true,
     "referenced_type" : "_ZTIPN11unwindstack12DwarfSection8iteratorE"
    }
   ],
   "return_type" : "_ZTIRN11unwindstack12DwarfSection8iteratorE",
   "source_file" : "system/unwinding/libunwindstack/include/unwindstack/DwarfSection.h"
  },
  {
   "function_name" : "unwindstack::DwarfSection::DwarfSection",
   "linker_set_key" : "_ZN11unwindstack12DwarfSectionC2EPNS_6MemoryE",
   "parameters" :
   [
    {
     "is_this_ptr" : true,
     "referenced_type" : "_ZTIPN11unwindstack12DwarfSectionE"
    },
    {
     "referenced_type" : "_ZTIPN11unwindstack6MemoryE"
    }
   ],
   "return_type" : "_ZTIv",
   "source_file" : "system/unwinding/libunwindstack/include/unwindstack/DwarfSection.h"
  },
  {
   "function_name" : "unwindstack::DwarfSection::~DwarfSection",
   "linker_set_key" : "_ZN11unwindstack12DwarfSectionD0Ev",
   "parameters" :
   [
    {
     "is_this_ptr" : true,
     "referenced_type" : "_ZTIPN11unwindstack12DwarfSectionE"
    }
   ],
   "return_type" : "_ZTIv",
   "source_file" : "system/unwinding/libunwindstack/include/unwindstack/DwarfSection.h"
  },
  {
   "function_name" : "unwindstack::DwarfSection::~DwarfSection",
   "linker_set_key" : "_ZN11unwindstack12DwarfSectionD1Ev",
   "parameters" :
   [
    {
     "is_this_ptr" : true,
     "referenced_type" : "_ZTIPN11unwindstack12DwarfSectionE"
    }
   ],
   "return_type" : "_ZTIv",
   "source_file" : "system/unwinding/libunwindstack/include/unwindstack/DwarfSection.h"
  },
  {
   "function_name" : "unwindstack::DwarfSection::~DwarfSection",
   "linker_set_key" : "_ZN11unwindstack12DwarfSectionD2Ev",
   "parameters" :
   [
    {
     "is_this_ptr" : true,
     "referenced_type" : "_ZTIPN11unwindstack12DwarfSectionE"
    }
   ],
   "return_type" : "_ZTIv",
   "source_file" : "system/unwinding/libunwindstack/include/unwindstack/DwarfSection.h"
  },
  {
   "function_name" : "unwindstack::ElfInterface::last_error",
   "linker_set_key" : "_ZN11unwindstack12ElfInterface10last_errorEv",
   "parameters" :
   [
    {
     "is_this_ptr" : true,
     "referenced_type" : "_ZTIPN11unwindstack12ElfInterfaceE"
    }
   ],
   "return_type" : "_ZTIRKN11unwindstack9ErrorDataE",
   "source_file" : "system/unwinding/libunwindstack/include/unwindstack/ElfInterface.h"
  },
  {
   "function_name" : "unwindstack::ElfInterface::data_offset",
   "linker_set_key" : "_ZN11unwindstack12ElfInterface11data_offsetEv",
   "parameters" :
   [
    {
     "is_this_ptr" : true,
     "referenced_type" : "_ZTIPN11unwindstack12ElfInterfaceE"
    }
   ],
   "return_type" : "_ZTIy",
   "source_file" : "system/unwinding/libunwindstack/include/unwindstack/ElfInterface.h"
  },
  {
   "function_name" : "unwindstack::ElfInterface::debug_frame",
   "linker_set_key" : "_ZN11unwindstack12ElfInterface11debug_frameEv",
   "parameters" :
   [
    {
     "is_this_ptr" : true,
     "referenced_type" : "_ZTIPN11unwindstack12ElfInterfaceE"
    }
   ],
   "return_type" : "_ZTIPN11unwindstack12DwarfSectionE",
   "source_file" : "system/unwinding/libunwindstack/include/unwindstack/ElfInterface.h"
  },
  {
   "function_name" : "unwindstack::ElfInterface::LastErrorCode",
   "linker_set_key" : "_ZN11unwindstack12ElfInterface13LastErrorCodeEv",
   "parameters" :
   [
    {
     "is_this_ptr" : true,
     "referenced_type" : "_ZTIPN11unwindstack12ElfInterfaceE"
    }
   ],
   "return_type" : "_ZTIN11unwindstack9ErrorCodeE",
   "source_file" : "system/unwinding/libunwindstack/include/unwindstack/ElfInterface.h"
  },
  {
   "function_name" : "unwindstack::ElfInterface::eh_frame_size",
   "linker_set_key" : "_ZN11unwindstack12ElfInterface13eh_frame_sizeEv",
   "parameters" :
   [
    {
     "is_this_ptr" : true,
     "referenced_type" : "_ZTIPN11unwindstack12ElfInterfaceE"
    }
   ],
   "return_type" : "_ZTIy",
   "source_file" : "system/unwinding/libunwindstack/include/unwindstack/ElfInterface.h"
  },
  {
   "function_name" : "unwindstack::ElfInterface::data_vaddr_end",
   "linker_set_key" : "_ZN11unwindstack12ElfInterface14data_vaddr_endEv",
   "parameters" :
   [
    {
     "is_this_ptr" : true,
     "referenced_type" : "_ZTIPN11unwindstack12ElfInterfaceE"
    }
   ],
   "return_type" : "_ZTIy",
   "source_file" : "system/unwinding/libunwindstack/include/unwindstack/ElfInterface.h"
  },
  {
   "function_name" : "unwindstack::ElfInterface::dynamic_offset",
   "linker_set_key" : "_ZN11unwindstack12ElfInterface14dynamic_offsetEv",
   "parameters" :
   [
    {
     "is_this_ptr" : true,
     "referenced_type" : "_ZTIPN11unwindstack12ElfInterfaceE"
    }
   ],
   "return_type" : "_ZTIy",
   "source_file" : "system/unwinding/libunwindstack/include/unwindstack/ElfInterface.h"
  },
  {
   "function_name" : "unwindstack::ElfInterface::eh_frame_offset",
   "linker_set_key" : "_ZN11unwindstack12ElfInterface15eh_frame_offsetEv",
   "parameters" :
   [
    {
     "is_this_ptr" : true,
     "referenced_type" : "_ZTIPN11unwindstack12ElfInterfaceE"
    }
   ],
   "return_type" : "_ZTIy",
   "source_file" : "system/unwinding/libunwindstack/include/unwindstack/ElfInterface.h"
  },
  {
   "function_name" : "unwindstack::ElfInterface::LastErrorAddress",
   "linker_set_key" : "_ZN11unwindstack12ElfInterface16LastErrorAddressEv",
   "parameters" :
   [
    {
     "is_this_ptr" : true,
     "referenced_type" : "_ZTIPN11unwindstack12ElfInterfaceE"
    }
   ],
   "return_type" : "_ZTIy",
   "source_file" : "system/unwinding/libunwindstack/include/unwindstack/ElfInterface.h"
  },
  {
   "function_name" : "unwindstack::ElfInterface::data_vaddr_start",
   "linker_set_key" : "_ZN11unwindstack12ElfInterface16data_vaddr_startEv",
   "parameters" :
   [
    {
     "is_this_ptr" : true,
     "referenced_type" : "_ZTIPN11unwindstack12ElfInterfaceE"
    }
   ],
   "return_type" : "_ZTIy",
   "source_file" : "system/unwinding/libunwindstack/include/unwindstack/ElfInterface.h"
  },
  {
   "function_name" : "unwindstack::ElfInterface::debug_frame_size",
   "linker_set_key" : "_ZN11unwindstack12ElfInterface16debug_frame_sizeEv",
   "parameters" :
   [
    {
     "is_this_ptr" : true,
     "referenced_type" : "_ZTIPN11unwindstack12ElfInterfaceE"
    }
   ],
   "return_type" : "_ZTIy",
   "source_file" : "system/unwinding/libunwindstack/include/unwindstack/ElfInterface.h"
  },
  {
   "access" : "protected",
   "function_name" : "unwindstack::ElfInterface::HandleUnknownType",
   "linker_set_key" : "_ZN11unwindstack12ElfInterface17HandleUnknownTypeEjyy",
   "parameters" :
   [
    {
     "is_this_ptr" : true,
     "referenced_type" : "_ZTIPN11unwindstack12ElfInterfaceE"
    },
    {
     "referenced_type" : "_ZTIj"
    },
    {
     "referenced_type" : "_ZTIy"
    },
    {
     "referenced_type" : "_ZTIy"
    }
   ],
   "return_type" : "_ZTIv",
   "source_file" : "system/unwinding/libunwindstack/include/unwindstack/ElfInterface.h"
  },
  {
   "function_name" : "unwindstack::ElfInterface::dynamic_vaddr_end",
   "linker_set_key" : "_ZN11unwindstack12ElfInterface17dynamic_vaddr_endEv",
   "parameters" :
   [
    {
     "is_this_ptr" : true,
     "referenced_type" : "_ZTIPN11unwindstack12ElfInterfaceE"
    }
   ],
   "return_type" : "_ZTIy",
   "source_file" : "system/unwinding/libunwindstack/include/unwindstack/ElfInterface.h"
  },
  {
   "function_name" : "unwindstack::ElfInterface::eh_frame_hdr_size",
   "linker_set_key" : "_ZN11unwindstack12ElfInterface17eh_frame_hdr_sizeEv",
   "parameters" :
   [
    {
     "is_this_ptr" : true,
     "referenced_type" : "_ZTIPN11unwindstack12ElfInterfaceE"
    }
   ],
   "return_type" : "_ZTIy",
   "source_file" : "system/unwinding/libunwindstack/include/unwindstack/ElfInterface.h"
  },
  {
   "function_name" : "unwindstack::ElfInterface::gnu_build_id_size",
   "linker_set_key" : "_ZN11unwindstack12ElfInterface17gnu_build_id_sizeEv",
   "parameters" :
   [
    {
     "is_this_ptr" : true,
     "referenced_type" : "_ZTIPN11unwindstack12ElfInterfaceE"
    }
   ],
   "return_type" : "_ZTIy",
   "source_file" : "system/unwinding/libunwindstack/include/unwindstack/ElfInterface.h"
  },
  {
   "function_name" : "unwindstack::ElfInterface::debug_frame_offset",
   "linker_set_key" : "_ZN11unwindstack12ElfInterface18debug_frame_offsetEv",
   "parameters" :
   [
    {
     "is_this_ptr" : true,
     "referenced_type" : "_ZTIPN11unwindstack12ElfInterfaceE"
    }
   ],
   "return_type" : "_ZTIy",
   "source_file" : "system/unwinding/libunwindstack/include/unwindstack/ElfInterface.h"
  },
  {
   "function_name" : "unwindstack::ElfInterface::gnu_debugdata_size",
   "linker_set_key" : "_ZN11unwindstack12ElfInterface18gnu_debugdata_sizeEv",
   "parameters" :
   [
    {
     "is_this_ptr" : true,
     "referenced_type" : "_ZTIPN11unwindstack12ElfInterfaceE"
    }
   ],
   "return_type" : "_ZTIy",
   "source_file" : "system/unwinding/libunwindstack/include/unwindstack/ElfInterface.h"
  },
  {
   "function_name" : "unwindstack::ElfInterface::dynamic_vaddr_start",
   "linker_set_key" : "_ZN11unwindstack12ElfInterface19dynamic_vaddr_startEv",
   "parameters" :
   [
    {
     "is_this_ptr" : true,
     "referenced_type" : "_ZTIPN11unwindstack12ElfInterfaceE"
    }
   ],
   "return_type" : "_ZTIy",
   "source_file" : "system/unwinding/libunwindstack/include/unwindstack/ElfInterface.h"
  },
  {
   "function_name" : "unwindstack::ElfInterface::eh_frame_hdr_offset",
   "linker_set_key" : "_ZN11unwindstack12ElfInterface19eh_frame_hdr_offsetEv",
   "parameters" :
   [
    {
     "is_this_ptr" : true,
     "referenced_type" : "_ZTIPN11unwindstack12ElfInterfaceE"
    }
   ],
   "return_type" : "_ZTIy",
   "source_file" : "system/unwinding/libunwindstack/include/unwindstack/ElfInterface.h"
  },
  {
   "function_name" : "unwindstack::ElfInterface::gnu_build_id_offset",
   "linker_set_key" : "_ZN11unwindstack12ElfInterface19gnu_build_id_offsetEv",
   "parameters" :
   [
    {
     "is_this_ptr" : true,
     "referenced_type" : "_ZTIPN11unwindstack12ElfInterfaceE"
    }
   ],
   "return_type" : "_ZTIy",
   "source_file" : "system/unwinding/libunwindstack/include/unwindstack/ElfInterface.h"
  },
  {
   "function_name" : "unwindstack::ElfInterface::gnu_debugdata_offset",
   "linker_set_key" : "_ZN11unwindstack12ElfInterface20gnu_debugdata_offsetEv",
   "parameters" :
   [
    {
     "is_this_ptr" : true,
     "referenced_type" : "_ZTIPN11unwindstack12ElfInterfaceE"
    }
   ],
   "return_type" : "_ZTIy",
   "source_file" : "system/unwinding/libunwindstack/include/unwindstack/ElfInterface.h"
  },
  {
   "function_name" : "unwindstack::ElfInterface::eh_frame_section_bias",
   "linker_set_key" : "_ZN11unwindstack12ElfInterface21eh_frame_section_biasEv",
   "parameters" :
   [
    {
     "is_this_ptr" : true,
     "referenced_type" : "_ZTIPN11unwindstack12ElfInterfaceE"
    }
   ],
   "return_type" : "_ZTIx",
   "source_file" : "system/unwinding/libunwindstack/include/unwindstack/ElfInterface.h"
  },
  {
   "function_name" : "unwindstack::ElfInterface::SetGnuDebugdataInterface",
   "linker_set_key" : "_ZN11unwindstack12ElfInterface24SetGnuDebugdataInterfaceEPS0_",
   "parameters" :
   [
    {
     "is_this_ptr" : true,
     "referenced_type" : "_ZTIPN11unwindstack12ElfInterfaceE"
    },
    {
     "referenced_type" : "_ZTIPN11unwindstack12ElfInterfaceE"
    }
   ],
   "return_type" : "_ZTIv",
   "source_file" : "system/unwinding/libunwindstack/include/unwindstack/ElfInterface.h"
  },
  {
   "function_name" : "unwindstack::ElfInterface::debug_frame_section_bias",
   "linker_set_key" : "_ZN11unwindstack12ElfInterface24debug_frame_section_biasEv",
   "parameters" :
   [
    {
     "is_this_ptr" : true,
     "referenced_type" : "_ZTIPN11unwindstack12ElfInterfaceE"
    }
   ],
   "return_type" : "_ZTIx",
   "source_file" : "system/unwinding/libunwindstack/include/unwindstack/ElfInterface.h"
  },
  {
   "function_name" : "unwindstack::ElfInterface::eh_frame_hdr_section_bias",
   "linker_set_key" : "_ZN11unwindstack12ElfInterface25eh_frame_hdr_section_biasEv",
   "parameters" :
   [
    {
     "is_this_ptr" : true,
     "referenced_type" : "_ZTIPN11unwindstack12ElfInterfaceE"
    }
   ],
   "return_type" : "_ZTIx",
   "source_file" : "system/unwinding/libunwindstack/include/unwindstack/ElfInterface.h"
  },
  {
   "function_name" : "unwindstack::ElfInterface::memory",
   "linker_set_key" : "_ZN11unwindstack12ElfInterface6memoryEv",
   "parameters" :
   [
    {
     "is_this_ptr" : true,
     "referenced_type" : "_ZTIPN11unwindstack12ElfInterfaceE"
    }
   ],
   "return_type" : "_ZTIPN11unwindstack6MemoryE",
   "source_file" : "system/unwinding/libunwindstack/include/unwindstack/ElfInterface.h"
  },
  {
   "function_name" : "unwindstack::ElfInterface::eh_frame",
   "linker_set_key" : "_ZN11unwindstack12ElfInterface8eh_frameEv",
   "parameters" :
   [
    {
     "is_this_ptr" : true,
     "referenced_type" : "_ZTIPN11unwindstack12ElfInterfaceE"
    }
   ],
   "return_type" : "_ZTIPN11unwindstack12DwarfSectionE",
   "source_file" : "system/unwinding/libunwindstack/include/unwindstack/ElfInterface.h"
  },
  {
   "function_name" : "unwindstack::ElfInterface::pt_loads",
   "linker_set_key" : "_ZN11unwindstack12ElfInterface8pt_loadsEv",
   "parameters" :
   [
    {
     "is_this_ptr" : true,
     "referenced_type" : "_ZTIPN11unwindstack12ElfInterfaceE"
    }
   ],
   "return_type" : "_ZTIRKNSt3__113unordered_mapIyN11unwindstack8LoadInfoENS_4hashIyEENS_8equal_toIyEENS_9allocatorINS_4pairIKyS2_EEEEEE",
   "source_file" : "system/unwinding/libunwindstack/include/unwindstack/ElfInterface.h"
  },
  {
   "function_name" : "unwindstack::ElfInterface::ElfInterface",
   "linker_set_key" : "_ZN11unwindstack12ElfInterfaceC2EPNS_6MemoryE",
   "parameters" :
   [
    {
     "is_this_ptr" : true,
     "referenced_type" : "_ZTIPN11unwindstack12ElfInterfaceE"
    },
    {
     "referenced_type" : "_ZTIPN11unwindstack6MemoryE"
    }
   ],
   "return_type" : "_ZTIv",
   "source_file" : "system/unwinding/libunwindstack/include/unwindstack/ElfInterface.h"
  },
  {
   "function_name" : "unwindstack::SharedString::clear",
   "linker_set_key" : "_ZN11unwindstack12SharedString5clearEv",
   "parameters" :
   [
    {
     "is_this_ptr" : true,
     "referenced_type" : "_ZTIPN11unwindstack12SharedStringE"
    }
   ],
   "return_type" : "_ZTIv",
   "source_file" : "system/unwinding/libunwindstack/include/unwindstack/SharedString.h"
  },
  {
   "function_name" : "unwindstack::SharedString::SharedString",
   "linker_set_key" : "_ZN11unwindstack12SharedStringC1EONSt3__112basic_stringIcNS1_11char_traitsIcEENS1_9allocatorIcEEEE",
   "parameters" :
   [
    {
     "is_this_ptr" : true,
     "referenced_type" : "_ZTIPN11unwindstack12SharedStringE"
    },
    {
     "referenced_type" : "_ZTIONSt3__112basic_stringIcNS_11char_traitsIcEENS_9allocatorIcEEEE"
    }
   ],
   "return_type" : "_ZTIv",
   "source_file" : "system/unwinding/libunwindstack/include/unwindstack/SharedString.h"
  },
  {
   "function_name" : "unwindstack::SharedString::SharedString",
   "linker_set_key" : "_ZN11unwindstack12SharedStringC1EPKc",
   "parameters" :
   [
    {
     "is_this_ptr" : true,
     "referenced_type" : "_ZTIPN11unwindstack12SharedStringE"
    },
    {
     "referenced_type" : "_ZTIPKc"
    }
   ],
   "return_type" : "_ZTIv",
   "source_file" : "system/unwinding/libunwindstack/include/unwindstack/SharedString.h"
  },
  {
   "function_name" : "unwindstack::SharedString::SharedString",
   "linker_set_key" : "_ZN11unwindstack12SharedStringC1ERKNSt3__112basic_stringIcNS1_11char_traitsIcEENS1_9allocatorIcEEEE",
   "parameters" :
   [
    {
     "is_this_ptr" : true,
     "referenced_type" : "_ZTIPN11unwindstack12SharedStringE"
    },
    {
     "referenced_type" : "_ZTIRKNSt3__112basic_stringIcNS_11char_traitsIcEENS_9allocatorIcEEEE"
    }
   ],
   "return_type" : "_ZTIv",
   "source_file" : "system/unwinding/libunwindstack/include/unwindstack/SharedString.h"
  },
  {
   "function_name" : "unwindstack::SharedString::SharedString",
   "linker_set_key" : "_ZN11unwindstack12SharedStringC1Ev",
   "parameters" :
   [
    {
     "is_this_ptr" : true,
     "referenced_type" : "_ZTIPN11unwindstack12SharedStringE"
    }
   ],
   "return_type" : "_ZTIv",
   "source_file" : "system/unwinding/libunwindstack/include/unwindstack/SharedString.h"
  },
  {
   "function_name" : "unwindstack::SharedString::SharedString",
   "linker_set_key" : "_ZN11unwindstack12SharedStringC2EONSt3__112basic_stringIcNS1_11char_traitsIcEENS1_9allocatorIcEEEE",
   "parameters" :
   [
    {
     "is_this_ptr" : true,
     "referenced_type" : "_ZTIPN11unwindstack12SharedStringE"
    },
    {
     "referenced_type" : "_ZTIONSt3__112basic_stringIcNS_11char_traitsIcEENS_9allocatorIcEEEE"
    }
   ],
   "return_type" : "_ZTIv",
   "source_file" : "system/unwinding/libunwindstack/include/unwindstack/SharedString.h"
  },
  {
   "function_name" : "unwindstack::SharedString::SharedString",
   "linker_set_key" : "_ZN11unwindstack12SharedStringC2EPKc",
   "parameters" :
   [
    {
     "is_this_ptr" : true,
     "referenced_type" : "_ZTIPN11unwindstack12SharedStringE"
    },
    {
     "referenced_type" : "_ZTIPKc"
    }
   ],
   "return_type" : "_ZTIv",
   "source_file" : "system/unwinding/libunwindstack/include/unwindstack/SharedString.h"
  },
  {
   "function_name" : "unwindstack::SharedString::SharedString",
   "linker_set_key" : "_ZN11unwindstack12SharedStringC2ERKNSt3__112basic_stringIcNS1_11char_traitsIcEENS1_9allocatorIcEEEE",
   "parameters" :
   [
    {
     "is_this_ptr" : true,
     "referenced_type" : "_ZTIPN11unwindstack12SharedStringE"
    },
    {
     "referenced_type" : "_ZTIRKNSt3__112basic_stringIcNS_11char_traitsIcEENS_9allocatorIcEEEE"
    }
   ],
   "return_type" : "_ZTIv",
   "source_file" : "system/unwinding/libunwindstack/include/unwindstack/SharedString.h"
  },
  {
   "function_name" : "unwindstack::SharedString::SharedString",
   "linker_set_key" : "_ZN11unwindstack12SharedStringC2Ev",
   "parameters" :
   [
    {
     "is_this_ptr" : true,
     "referenced_type" : "_ZTIPN11unwindstack12SharedStringE"
    }
   ],
   "return_type" : "_ZTIv",
   "source_file" : "system/unwinding/libunwindstack/include/unwindstack/SharedString.h"
  },
  {
   "function_name" : "unwindstack::Elf::class_type",
   "linker_set_key" : "_ZN11unwindstack3Elf10class_typeEv",
   "parameters" :
   [
    {
     "is_this_ptr" : true,
     "referenced_type" : "_ZTIPN11unwindstack3ElfE"
    }
   ],
   "return_type" : "_ZTIh",
   "source_file" : "system/unwinding/libunwindstack/include/unwindstack/Elf.h"
  },
  {
   "function_name" : "unwindstack::Elf::GetLoadBias",
   "linker_set_key" : "_ZN11unwindstack3Elf11GetLoadBiasEv",
   "parameters" :
   [
    {
     "is_this_ptr" : true,
     "referenced_type" : "_ZTIPN11unwindstack3ElfE"
    }
   ],
   "return_type" : "_ZTIx",
   "source_file" : "system/unwinding/libunwindstack/include/unwindstack/Elf.h"
  },
  {
   "function_name" : "unwindstack::Elf::machine_type",
   "linker_set_key" : "_ZN11unwindstack3Elf12machine_typeEv",
   "parameters" :
   [
    {
     "is_this_ptr" : true,
     "referenced_type" : "_ZTIPN11unwindstack3ElfE"
    }
   ],
   "return_type" : "_ZTIj",
   "source_file" : "system/unwinding/libunwindstack/include/unwindstack/Elf.h"
  },
  {
   "function_name" : "unwindstack::Elf::CachingEnabled",
   "linker_set_key" : "_ZN11unwindstack3Elf14CachingEnabledEv",
   "return_type" : "_ZTIb",
   "source_file" : "system/unwinding/libunwindstack/include/unwindstack/Elf.h"
  },
  {
   "function_name" : "unwindstack::Elf::gnu_debugdata_interface",
   "linker_set_key" : "_ZN11unwindstack3Elf23gnu_debugdata_interfaceEv",
   "parameters" :
   [
    {
     "is_this_ptr" : true,
     "referenced_type" : "_ZTIPN11unwindstack3ElfE"
    }
   ],
   "return_type" : "_ZTIPN11unwindstack12ElfInterfaceE",
   "source_file" : "system/unwinding/libunwindstack/include/unwindstack/Elf.h"
  },
  {
   "function_name" : "unwindstack::Elf::arch",
   "linker_set_key" : "_ZN11unwindstack3Elf4archEv",
   "parameters" :
   [
    {
     "is_this_ptr" : true,
     "referenced_type" : "_ZTIPN11unwindstack3ElfE"
    }
   ],
   "return_type" : "_ZTIN11unwindstack8ArchEnumE",
   "source_file" : "system/unwinding/libunwindstack/include/unwindstack/Elf.h"
  },
  {
   "function_name" : "unwindstack::Elf::valid",
   "linker_set_key" : "_ZN11unwindstack3Elf5validEv",
   "parameters" :
   [
    {
     "is_this_ptr" : true,
     "referenced_type" : "_ZTIPN11unwindstack3ElfE"
    }
   ],
   "return_type" : "_ZTIb",
   "source_file" : "system/unwinding/libunwindstack/include/unwindstack/Elf.h"
  },
  {
   "function_name" : "unwindstack::Elf::memory",
   "linker_set_key" : "_ZN11unwindstack3Elf6memoryEv",
   "parameters" :
   [
    {
     "is_this_ptr" : true,
     "referenced_type" : "_ZTIPN11unwindstack3ElfE"
    }
   ],
   "return_type" : "_ZTIPN11unwindstack6MemoryE",
   "source_file" : "system/unwinding/libunwindstack/include/unwindstack/Elf.h"
  },
  {
   "function_name" : "unwindstack::Elf::interface",
   "linker_set_key" : "_ZN11unwindstack3Elf9interfaceEv",
   "parameters" :
   [
    {
     "is_this_ptr" : true,
     "referenced_type" : "_ZTIPN11unwindstack3ElfE"
    }
   ],
   "return_type" : "_ZTIPN11unwindstack12ElfInterfaceE",
   "source_file" : "system/unwinding/libunwindstack/include/unwindstack/Elf.h"
  },
  {
   "function_name" : "unwindstack::Elf::Elf",
   "linker_set_key" : "_ZN11unwindstack3ElfC1EPNS_6MemoryE",
   "parameters" :
   [
    {
     "is_this_ptr" : true,
     "referenced_type" : "_ZTIPN11unwindstack3ElfE"
    },
    {
     "referenced_type" : "_ZTIPN11unwindstack6MemoryE"
    }
   ],
   "return_type" : "_ZTIv",
   "source_file" : "system/unwinding/libunwindstack/include/unwindstack/Elf.h"
  },
  {
   "function_name" : "unwindstack::Elf::Elf",
   "linker_set_key" : "_ZN11unwindstack3ElfC2EPNS_6MemoryE",
   "parameters" :
   [
    {
     "is_this_ptr" : true,
     "referenced_type" : "_ZTIPN11unwindstack3ElfE"
    },
    {
     "referenced_type" : "_ZTIPN11unwindstack6MemoryE"
    }
   ],
   "return_type" : "_ZTIv",
   "source_file" : "system/unwinding/libunwindstack/include/unwindstack/Elf.h"
  },
  {
   "function_name" : "unwindstack::Elf::~Elf",
   "linker_set_key" : "_ZN11unwindstack3ElfD0Ev",
   "parameters" :
   [
    {
     "is_this_ptr" : true,
     "referenced_type" : "_ZTIPN11unwindstack3ElfE"
    }
   ],
   "return_type" : "_ZTIv",
   "source_file" : "system/unwinding/libunwindstack/include/unwindstack/Elf.h"
  },
  {
   "function_name" : "unwindstack::Elf::~Elf",
   "linker_set_key" : "_ZN11unwindstack3ElfD1Ev",
   "parameters" :
   [
    {
     "is_this_ptr" : true,
     "referenced_type" : "_ZTIPN11unwindstack3ElfE"
    }
   ],
   "return_type" : "_ZTIv",
   "source_file" : "system/unwinding/libunwindstack/include/unwindstack/Elf.h"
  },
  {
   "function_name" : "unwindstack::Elf::~Elf",
   "linker_set_key" : "_ZN11unwindstack3ElfD2Ev",
   "parameters" :
   [
    {
     "is_this_ptr" : true,
     "referenced_type" : "_ZTIPN11unwindstack3ElfE"
    }
   ],
   "return_type" : "_ZTIv",
   "source_file" : "system/unwinding/libunwindstack/include/unwindstack/Elf.h"
  },
  {
   "function_name" : "unwindstack::Regs::set_dex_pc",
   "linker_set_key" : "_ZN11unwindstack4Regs10set_dex_pcEy",
   "parameters" :
   [
    {
     "is_this_ptr" : true,
     "referenced_type" : "_ZTIPN11unwindstack4RegsE"
    },
    {
     "referenced_type" : "_ZTIy"
    }
   ],
   "return_type" : "_ZTIv",
   "source_file" : "system/unwinding/libunwindstack/include/unwindstack/Regs.h"
  },
  {
   "function_name" : "unwindstack::Regs::total_regs",
   "linker_set_key" : "_ZN11unwindstack4Regs10total_regsEv",
   "parameters" :
   [
    {
     "is_this_ptr" : true,
     "referenced_type" : "_ZTIPN11unwindstack4RegsE"
    }
   ],
   "return_type" : "_ZTIt",
   "source_file" : "system/unwinding/libunwindstack/include/unwindstack/Regs.h"
  },
  {
   "function_name" : "unwindstack::Regs::fallback_pc",
   "linker_set_key" : "_ZN11unwindstack4Regs11fallback_pcEv",
   "parameters" :
   [
    {
     "is_this_ptr" : true,
     "referenced_type" : "_ZTIPN11unwindstack4RegsE"
    }
   ],
   "return_type" : "_ZTIv",
   "source_file" : "system/unwinding/libunwindstack/include/unwindstack/Regs.h"
  },
  {
   "function_name" : "unwindstack::Regs::GetPseudoRegister",
   "linker_set_key" : "_ZN11unwindstack4Regs17GetPseudoRegisterEtPy",
   "parameters" :
   [
    {
     "is_this_ptr" : true,
     "referenced_type" : "_ZTIPN11unwindstack4RegsE"
    },
    {
     "referenced_type" : "_ZTIt"
    },
    {
     "referenced_type" : "_ZTIPy"
    }
   ],
   "return_type" : "_ZTIb",
   "source_file" : "system/unwinding/libunwindstack/include/unwindstack/Regs.h"
  },
  {
   "function_name" : "unwindstack::Regs::SetPseudoRegister",
   "linker_set_key" : "_ZN11unwindstack4Regs17SetPseudoRegisterEty",
   "parameters" :
   [
    {
     "is_this_ptr" : true,
     "referenced_type" : "_ZTIPN11unwindstack4RegsE"
    },
    {
     "referenced_type" : "_ZTIt"
    },
    {
     "referenced_type" : "_ZTIy"
    }
   ],
   "return_type" : "_ZTIb",
   "source_file" : "system/unwinding/libunwindstack/include/unwindstack/Regs.h"
  },
  {
   "function_name" : "unwindstack::Regs::ResetPseudoRegisters",
   "linker_set_key" : "_ZN11unwindstack4Regs20ResetPseudoRegistersEv",
   "parameters" :
   [
    {
     "is_this_ptr" : true,
     "referenced_type" : "_ZTIPN11unwindstack4RegsE"
    }
   ],
   "return_type" : "_ZTIv",
   "source_file" : "system/unwinding/libunwindstack/include/unwindstack/Regs.h"
  },
  {
   "function_name" : "unwindstack::Regs::dex_pc",
   "linker_set_key" : "_ZN11unwindstack4Regs6dex_pcEv",
   "parameters" :
   [
    {
     "is_this_ptr" : true,
     "referenced_type" : "_ZTIPN11unwindstack4RegsE"
    }
   ],
   "return_type" : "_ZTIy",
   "source_file" : "system/unwinding/libunwindstack/include/unwindstack/Regs.h"
  },
  {
   "function_name" : "unwindstack::Regs::Is32Bit",
   "linker_set_key" : "_ZN11unwindstack4Regs7Is32BitEv",
   "parameters" :
   [
    {
     "is_this_ptr" : true,
     "referenced_type" : "_ZTIPN11unwindstack4RegsE"
    }
   ],
   "return_type" : "_ZTIb",
   "source_file" : "system/unwinding/libunwindstack/include/unwindstack/Regs.h"
  },
  {
   "function_name" : "unwindstack::Regs::Location::Location",
   "linker_set_key" : "_ZN11unwindstack4Regs8LocationC1ENS0_12LocationEnumEs",
   "parameters" :
   [
    {
     "is_this_ptr" : true,
     "referenced_type" : "_ZTIPN11unwindstack4Regs8LocationE"
    },
    {
     "referenced_type" : "_ZTIN11unwindstack4Regs12LocationEnumE"
    },
    {
     "referenced_type" : "_ZTIs"
    }
   ],
   "return_type" : "_ZTIv",
   "source_file" : "system/unwinding/libunwindstack/include/unwindstack/Regs.h"
  },
  {
   "function_name" : "unwindstack::Regs::Location::Location",
   "linker_set_key" : "_ZN11unwindstack4Regs8LocationC2ENS0_12LocationEnumEs",
   "parameters" :
   [
    {
     "is_this_ptr" : true,
     "referenced_type" : "_ZTIPN11unwindstack4Regs8LocationE"
    },
    {
     "referenced_type" : "_ZTIN11unwindstack4Regs12LocationEnumE"
    },
    {
     "referenced_type" : "_ZTIs"
    }
   ],
   "return_type" : "_ZTIv",
   "source_file" : "system/unwinding/libunwindstack/include/unwindstack/Regs.h"
  },
  {
   "function_name" : "unwindstack::Regs::Regs",
   "linker_set_key" : "_ZN11unwindstack4RegsC2EtRKNS0_8LocationE",
   "parameters" :
   [
    {
     "is_this_ptr" : true,
     "referenced_type" : "_ZTIPN11unwindstack4RegsE"
    },
    {
     "referenced_type" : "_ZTIt"
    },
    {
     "referenced_type" : "_ZTIRKN11unwindstack4Regs8LocationE"
    }
   ],
   "return_type" : "_ZTIv",
   "source_file" : "system/unwinding/libunwindstack/include/unwindstack/Regs.h"
  },
  {
   "function_name" : "unwindstack::Regs::~Regs",
   "linker_set_key" : "_ZN11unwindstack4RegsD0Ev",
   "parameters" :
   [
    {
     "is_this_ptr" : true,
     "referenced_type" : "_ZTIPN11unwindstack4RegsE"
    }
   ],
   "return_type" : "_ZTIv",
   "source_file" : "system/unwinding/libunwindstack/include/unwindstack/Regs.h"
  },
  {
   "function_name" : "unwindstack::Regs::~Regs",
   "linker_set_key" : "_ZN11unwindstack4RegsD1Ev",
   "parameters" :
   [
    {
     "is_this_ptr" : true,
     "referenced_type" : "_ZTIPN11unwindstack4RegsE"
    }
   ],
   "return_type" : "_ZTIv",
   "source_file" : "system/unwinding/libunwindstack/include/unwindstack/Regs.h"
  },
  {
   "function_name" : "unwindstack::Regs::~Regs",
   "linker_set_key" : "_ZN11unwindstack4RegsD2Ev",
   "parameters" :
   [
    {
     "is_this_ptr" : true,
     "referenced_type" : "_ZTIPN11unwindstack4RegsE"
    }
   ],
   "return_type" : "_ZTIv",
   "source_file" : "system/unwinding/libunwindstack/include/unwindstack/Regs.h"
  },
  {
   "function_name" : "unwindstack::Memory::AsMemoryCacheBase",
   "linker_set_key" : "_ZN11unwindstack6Memory17AsMemoryCacheBaseEv",
   "parameters" :
   [
    {
     "is_this_ptr" : true,
     "referenced_type" : "_ZTIPN11unwindstack6MemoryE"
    }
   ],
   "return_type" : "_ZTIPN11unwindstack15MemoryCacheBaseE",
   "source_file" : "system/unwinding/libunwindstack/include/unwindstack/Memory.h"
  },
  {
   "function_name" : "unwindstack::Memory::Clear",
   "linker_set_key" : "_ZN11unwindstack6Memory5ClearEv",
   "parameters" :
   [
    {
     "is_this_ptr" : true,
     "referenced_type" : "_ZTIPN11unwindstack6MemoryE"
    }
   ],
   "return_type" : "_ZTIv",
   "source_file" : "system/unwinding/libunwindstack/include/unwindstack/Memory.h"
  },
  {
   "function_name" : "unwindstack::Memory::GetPtr",
   "linker_set_key" : "_ZN11unwindstack6Memory6GetPtrEj",
   "parameters" :
   [
    {
     "is_this_ptr" : true,
     "referenced_type" : "_ZTIPN11unwindstack6MemoryE"
    },
    {
     "default_arg" : true,
     "referenced_type" : "_ZTIj"
    }
   ],
   "return_type" : "_ZTIPh",
   "source_file" : "system/unwinding/libunwindstack/include/unwindstack/Memory.h"
  },
  {
   "function_name" : "unwindstack::Memory::Read32",
   "linker_set_key" : "_ZN11unwindstack6Memory6Read32EyPj",
   "parameters" :
   [
    {
     "is_this_ptr" : true,
     "referenced_type" : "_ZTIPN11unwindstack6MemoryE"
    },
    {
     "referenced_type" : "_ZTIy"
    },
    {
     "referenced_type" : "_ZTIPj"
    }
   ],
   "return_type" : "_ZTIb",
   "source_file" : "system/unwinding/libunwindstack/include/unwindstack/Memory.h"
  },
  {
   "function_name" : "unwindstack::Memory::Read64",
   "linker_set_key" : "_ZN11unwindstack6Memory6Read64EyPy",
   "parameters" :
   [
    {
     "is_this_ptr" : true,
     "referenced_type" : "_ZTIPN11unwindstack6MemoryE"
    },
    {
     "referenced_type" : "_ZTIy"
    },
    {
     "referenced_type" : "_ZTIPy"
    }
   ],
   "return_type" : "_ZTIb",
   "source_file" : "system/unwinding/libunwindstack/include/unwindstack/Memory.h"
  },
  {
   "function_name" : "unwindstack::Memory::ReadTag",
   "linker_set_key" : "_ZN11unwindstack6Memory7ReadTagEy",
   "parameters" :
   [
    {
     "is_this_ptr" : true,
     "referenced_type" : "_ZTIPN11unwindstack6MemoryE"
    },
    {
     "referenced_type" : "_ZTIy"
    }
   ],
   "return_type" : "_ZTIl",
   "source_file" : "system/unwinding/libunwindstack/include/unwindstack/Memory.h"
  },
  {
   "function_name" : "unwindstack::Memory::Memory",
   "linker_set_key" : "_ZN11unwindstack6MemoryC2Ev",
   "parameters" :
   [
    {
     "is_this_ptr" : true,
     "referenced_type" : "_ZTIPN11unwindstack6MemoryE"
    }
   ],
   "return_type" : "_ZTIv",
   "source_file" : "system/unwinding/libunwindstack/include/unwindstack/Memory.h"
  },
  {
   "function_name" : "unwindstack::Memory::~Memory",
   "linker_set_key" : "_ZN11unwindstack6MemoryD0Ev",
   "parameters" :
   [
    {
     "is_this_ptr" : true,
     "referenced_type" : "_ZTIPN11unwindstack6MemoryE"
    }
   ],
   "return_type" : "_ZTIv",
   "source_file" : "system/unwinding/libunwindstack/include/unwindstack/Memory.h"
  },
  {
   "function_name" : "unwindstack::Memory::~Memory",
   "linker_set_key" : "_ZN11unwindstack6MemoryD1Ev",
   "parameters" :
   [
    {
     "is_this_ptr" : true,
     "referenced_type" : "_ZTIPN11unwindstack6MemoryE"
    }
   ],
   "return_type" : "_ZTIv",
   "source_file" : "system/unwinding/libunwindstack/include/unwindstack/Memory.h"
  },
  {
   "function_name" : "unwindstack::Memory::~Memory",
   "linker_set_key" : "_ZN11unwindstack6MemoryD2Ev",
   "parameters" :
   [
    {
     "is_this_ptr" : true,
     "referenced_type" : "_ZTIPN11unwindstack6MemoryE"
    }
   ],
   "return_type" : "_ZTIv",
   "source_file" : "system/unwinding/libunwindstack/include/unwindstack/Memory.h"
  },
  {
   "function_name" : "unwindstack::RegsImpl<unsigned int>::~RegsImpl",
   "linker_set_key" : "_ZN11unwindstack8RegsImplIjED0Ev",
   "parameters" :
   [
    {
     "is_this_ptr" : true,
     "referenced_type" : "_ZTIPN11unwindstack8RegsImplIjEE"
    }
   ],
   "return_type" : "_ZTIv",
   "source_file" : "system/unwinding/libunwindstack/include/unwindstack/Regs.h"
  },
  {
   "function_name" : "unwindstack::RegsImpl<unsigned int>::~RegsImpl",
   "linker_set_key" : "_ZN11unwindstack8RegsImplIjED1Ev",
   "parameters" :
   [
    {
     "is_this_ptr" : true,
     "referenced_type" : "_ZTIPN11unwindstack8RegsImplIjEE"
    }
   ],
   "return_type" : "_ZTIv",
   "source_file" : "system/unwinding/libunwindstack/include/unwindstack/Regs.h"
  },
  {
   "function_name" : "unwindstack::RegsImpl<unsigned int>::~RegsImpl",
   "linker_set_key" : "_ZN11unwindstack8RegsImplIjED2Ev",
   "parameters" :
   [
    {
     "is_this_ptr" : true,
     "referenced_type" : "_ZTIPN11unwindstack8RegsImplIjEE"
    }
   ],
   "return_type" : "_ZTIv",
   "source_file" : "system/unwinding/libunwindstack/include/unwindstack/Regs.h"
  },
  {
   "function_name" : "unwindstack::RegsImpl<unsigned int>::operator[]",
   "linker_set_key" : "_ZN11unwindstack8RegsImplIjEixEj",
   "parameters" :
   [
    {
     "is_this_ptr" : true,
     "referenced_type" : "_ZTIPN11unwindstack8RegsImplIjEE"
    },
    {
     "referenced_type" : "_ZTIj"
    }
   ],
   "return_type" : "_ZTIRj",
   "source_file" : "system/unwinding/libunwindstack/include/unwindstack/Regs.h"
  },
  {
   "function_name" : "unwindstack::RegsImpl<unsigned long long>::~RegsImpl",
   "linker_set_key" : "_ZN11unwindstack8RegsImplIyED0Ev",
   "parameters" :
   [
    {
     "is_this_ptr" : true,
     "referenced_type" : "_ZTIPN11unwindstack8RegsImplIyEE"
    }
   ],
   "return_type" : "_ZTIv",
   "source_file" : "system/unwinding/libunwindstack/include/unwindstack/Regs.h"
  },
  {
   "function_name" : "unwindstack::RegsImpl<unsigned long long>::~RegsImpl",
   "linker_set_key" : "_ZN11unwindstack8RegsImplIyED1Ev",
   "parameters" :
   [
    {
     "is_this_ptr" : true,
     "referenced_type" : "_ZTIPN11unwindstack8RegsImplIyEE"
    }
   ],
   "return_type" : "_ZTIv",
   "source_file" : "system/unwinding/libunwindstack/include/unwindstack/Regs.h"
  },
  {
   "function_name" : "unwindstack::RegsImpl<unsigned long long>::~RegsImpl",
   "linker_set_key" : "_ZN11unwindstack8RegsImplIyED2Ev",
   "parameters" :
   [
    {
     "is_this_ptr" : true,
     "referenced_type" : "_ZTIPN11unwindstack8RegsImplIyEE"
    }
   ],
   "return_type" : "_ZTIv",
   "source_file" : "system/unwinding/libunwindstack/include/unwindstack/Regs.h"
  },
  {
   "function_name" : "unwindstack::RegsImpl<unsigned long long>::operator[]",
   "linker_set_key" : "_ZN11unwindstack8RegsImplIyEixEj",
   "parameters" :
   [
    {
     "is_this_ptr" : true,
     "referenced_type" : "_ZTIPN11unwindstack8RegsImplIyEE"
    },
    {
     "referenced_type" : "_ZTIj"
    }
   ],
   "return_type" : "_ZTIRy",
   "source_file" : "system/unwinding/libunwindstack/include/unwindstack/Regs.h"
  },
  {
   "function_name" : "unwindstack::SharedString::c_str",
   "linker_set_key" : "_ZNK11unwindstack12SharedString5c_strEv",
   "parameters" :
   [
    {
     "is_this_ptr" : true,
     "referenced_type" : "_ZTIPKN11unwindstack12SharedStringE"
    }
   ],
   "return_type" : "_ZTIPKc",
   "source_file" : "system/unwinding/libunwindstack/include/unwindstack/SharedString.h"
  },
  {
   "function_name" : "unwindstack::SharedString::empty",
   "linker_set_key" : "_ZNK11unwindstack12SharedString5emptyEv",
   "parameters" :
   [
    {
     "is_this_ptr" : true,
     "referenced_type" : "_ZTIPKN11unwindstack12SharedStringE"
    }
   ],
   "return_type" : "_ZTIb",
   "source_file" : "system/unwinding/libunwindstack/include/unwindstack/SharedString.h"
  },
  {
   "function_name" : "unwindstack::SharedString::is_null",
   "linker_set_key" : "_ZNK11unwindstack12SharedString7is_nullEv",
   "parameters" :
   [
    {
     "is_this_ptr" : true,
     "referenced_type" : "_ZTIPKN11unwindstack12SharedStringE"
    }
   ],
   "return_type" : "_ZTIb",
   "source_file" : "system/unwinding/libunwindstack/include/unwindstack/SharedString.h"
  },
  {
   "function_name" : "unwindstack::SharedString::operator basic_string_view",
   "linker_set_key" : "_ZNK11unwindstack12SharedStringcvNSt3__117basic_string_viewIcNS1_11char_traitsIcEEEEEv",
   "parameters" :
   [
    {
     "is_this_ptr" : true,
     "referenced_type" : "_ZTIPKN11unwindstack12SharedStringE"
    }
   ],
   "return_type" : "_ZTINSt3__117basic_string_viewIcNS_11char_traitsIcEEEE",
   "source_file" : "system/unwinding/libunwindstack/include/unwindstack/SharedString.h"
  },
  {
   "function_name" : "unwindstack::SharedString::operator const std::__1::basic_string<char> &",
   "linker_set_key" : "_ZNK11unwindstack12SharedStringcvRKNSt3__112basic_stringIcNS1_11char_traitsIcEENS1_9allocatorIcEEEEEv",
   "parameters" :
   [
    {
     "is_this_ptr" : true,
     "referenced_type" : "_ZTIPKN11unwindstack12SharedStringE"
    }
   ],
   "return_type" : "_ZTIRKNSt3__112basic_stringIcNS_11char_traitsIcEENS_9allocatorIcEEEE",
   "source_file" : "system/unwinding/libunwindstack/include/unwindstack/SharedString.h"
  }
 ],
 "global_vars" :
 [
  {
   "access" : "protected",
   "linker_set_key" : "_ZN11unwindstack3Elf11cache_lock_E",
   "name" : "unwindstack::Elf::cache_lock_",
   "referenced_type" : "_ZTIPNSt3__15mutexE",
   "source_file" : "system/unwinding/libunwindstack/include/unwindstack/Elf.h"
  },
  {
   "access" : "protected",
   "linker_set_key" : "_ZN11unwindstack3Elf14cache_enabled_E",
   "name" : "unwindstack::Elf::cache_enabled_",
   "referenced_type" : "_ZTIb",
   "source_file" : "system/unwinding/libunwindstack/include/unwindstack/Elf.h"
  },
  {
   "access" : "protected",
   "linker_set_key" : "_ZN11unwindstack3Elf6cache_E",
   "name" : "unwindstack::Elf::cache_",
   "referenced_type" : "_ZTIPNSt3__113unordered_mapINS_12basic_stringIcNS_11char_traitsIcEENS_9allocatorIcEEEENS_4pairINS_10shared_ptrIN11unwindstack3ElfEEEbEENS_4hashIS6_EENS_8equal_toIS6_EENS4_INS7_IKS6_SC_EEEEEE",
   "source_file" : "system/unwinding/libunwindstack/include/unwindstack/Elf.h"
  },
  {
   "linker_set_key" : "_ZN11unwindstackL7CFA_REGE",
   "name" : "unwindstack::CFA_REG",
   "referenced_type" : "_ZTIKt",
   "source_file" : "system/unwinding/libunwindstack/include/unwindstack/DwarfStructs.h"
  },
  {
   "linker_set_key" : "_ZZNK11unwindstack12SharedStringcvRKNSt3__112basic_stringIcNS1_11char_traitsIcEENS1_9allocatorIcEEEEEvE5empty",
   "name" : "empty",
   "referenced_type" : "_ZTIKNSt3__112basic_stringIcNS_11char_traitsIcEENS_9allocatorIcEEEE",
   "source_file" : "system/unwinding/libunwindstack/include/unwindstack/SharedString.h"
  }
 ],
 "lvalue_reference_types" :
 [
  {
   "alignment" : 4,
   "linker_set_key" : "_ZTIRKN11unwindstack12DwarfSection8iteratorE",
   "name" : "const unwindstack::DwarfSection::iterator &",
   "referenced_type" : "_ZTIKN11unwindstack12DwarfSection8iteratorE",
   "self_type" : "_ZTIRKN11unwindstack12DwarfSection8iteratorE",
   "size" : 4,
   "source_file" : "system/unwinding/libunwindstack/include/unwindstack/DwarfSection.h"
  },
  {
   "alignment" : 4,
   "linker_set_key" : "_ZTIRKN11unwindstack4Regs8LocationE",
   "name" : "const unwindstack::Regs::Location &",
   "referenced_type" : "_ZTIKN11unwindstack4Regs8LocationE",
   "self_type" : "_ZTIRKN11unwindstack4Regs8LocationE",
   "size" : 4,
   "source_file" : "system/unwinding/libunwindstack/include/unwindstack/Regs.h"
  },
  {
   "alignment" : 4,
   "linker_set_key" : "_ZTIRKN11unwindstack9ErrorDataE",
   "name" : "const unwindstack::ErrorData &",
   "referenced_type" : "_ZTIKN11unwindstack9ErrorDataE",
   "self_type" : "_ZTIRKN11unwindstack9ErrorDataE",
   "size" : 4,
   "source_file" : "system/unwinding/libunwindstack/include/unwindstack/ElfInterface.h"
  },
  {
   "alignment" : 4,
   "linker_set_key" : "_ZTIRKNSt3__112basic_stringIcNS_11char_traitsIcEENS_9allocatorIcEEEE",
   "name" : "const std::basic_string<char, std::char_traits<char>, std::allocator<char>> &",
   "referenced_type" : "_ZTIKNSt3__112basic_stringIcNS_11char_traitsIcEENS_9allocatorIcEEEE",
   "self_type" : "_ZTIRKNSt3__112basic_stringIcNS_11char_traitsIcEENS_9allocatorIcEEEE",
   "size" : 4,
   "source_file" : "system/unwinding/libunwindstack/include/unwindstack/SharedString.h"
  },
  {
   "alignment" : 4,
   "linker_set_key" : "_ZTIRKNSt3__113unordered_mapIyN11unwindstack8LoadInfoENS_4hashIyEENS_8equal_toIyEENS_9allocatorINS_4pairIKyS2_EEEEEE",
   "name" : "const std::unordered_map<unsigned long long, unwindstack::LoadInfo, std::hash<unsigned long long>, std::equal_to<unsigned long long>, std::allocator<std::pair<const unsigned long long, unwindstack::LoadInfo>>> &",
   "referenced_type" : "_ZTIKNSt3__113unordered_mapIyN11unwindstack8LoadInfoENS_4hashIyEENS_8equal_toIyEENS_9allocatorINS_4pairIKyS2_EEEEEE",
   "self_type" : "_ZTIRKNSt3__113unordered_mapIyN11unwindstack8LoadInfoENS_4hashIyEENS_8equal_toIyEENS_9allocatorINS_4pairIKyS2_EEEEEE",
   "size" : 4,
   "source_file" : "system/unwinding/libunwindstack/include/unwindstack/ElfInterface.h"
  },
  {
   "alignment" : 4,
   "linker_set_key" : "_ZTIRN11unwindstack12DwarfSection8iteratorE",
   "name" : "unwindstack::DwarfSection::iterator &",
   "referenced_type" : "_ZTIN11unwindstack12DwarfSection8iteratorE",
   "self_type" : "_ZTIRN11unwindstack12DwarfSection8iteratorE",
   "size" : 4,
   "source_file" : "system/unwinding/libunwindstack/include/unwindstack/DwarfSection.h"
  },
  {
   "alignment" : 4,
   "linker_set_key" : "_ZTIRj",
   "name" : "unsigned int &",
   "referenced_type" : "_ZTIj",
   "self_type" : "_ZTIRj",
   "size" : 4,
   "source_file" : "system/unwinding/libunwindstack/include/unwindstack/Regs.h"
  },
  {
   "alignment" : 4,
   "linker_set_key" : "_ZTIRy",
   "name" : "unsigned long long &",
   "referenced_type" : "_ZTIy",
   "self_type" : "_ZTIRy",
   "size" : 4,
   "source_file" : "system/unwinding/libunwindstack/include/unwindstack/Regs.h"
  }
 ],
 "pointer_types" :
 [
  {
   "alignment" : 4,
   "linker_set_key" : "_ZTIPKN11unwindstack12SharedStringE",
   "name" : "const unwindstack::SharedString *",
   "referenced_type" : "_ZTIKN11unwindstack12SharedStringE",
   "self_type" : "_ZTIPKN11unwindstack12SharedStringE",
   "size" : 4,
   "source_file" : "system/unwinding/libunwindstack/include/unwindstack/SharedString.h"
  },
  {
   "alignment" : 4,
   "linker_set_key" : "_ZTIPKN11unwindstack8DwarfCieE",
   "name" : "const unwindstack::DwarfCie *",
   "referenced_type" : "_ZTIKN11unwindstack8DwarfCieE",
   "self_type" : "_ZTIPKN11unwindstack8DwarfCieE",
   "size" : 4,
   "source_file" : "system/unwinding/libunwindstack/include/unwindstack/DwarfLocation.h"
  },
  {
   "alignment" : 4,
   "linker_set_key" : "_ZTIPKN11unwindstack8DwarfFdeE",
   "name" : "const unwindstack::DwarfFde *",
   "referenced_type" : "_ZTIKN11unwindstack8DwarfFdeE",
   "self_type" : "_ZTIPKN11unwindstack8DwarfFdeE",
   "size" : 4,
   "source_file" : "system/unwinding/libunwindstack/include/unwindstack/DwarfSection.h"
  },
  {
   "alignment" : 4,
   "linker_set_key" : "_ZTIPKc",
   "name" : "const char *",
   "referenced_type" : "_ZTIKc",
   "self_type" : "_ZTIPKc",
   "size" : 4,
   "source_file" : "system/unwinding/libunwindstack/include/unwindstack/SharedString.h"
  },
  {
   "alignment" : 4,
   "linker_set_key" : "_ZTIPN11unwindstack11DwarfMemoryE",
   "name" : "unwindstack::DwarfMemory *",
   "referenced_type" : "_ZTIN11unwindstack11DwarfMemoryE",
   "self_type" : "_ZTIPN11unwindstack11DwarfMemoryE",
   "size" : 4,
   "source_file" : "system/unwinding/libunwindstack/include/unwindstack/DwarfMemory.h"
  },
  {
   "alignment" : 4,
   "linker_set_key" : "_ZTIPN11unwindstack12DwarfSection8iteratorE",
   "name" : "unwindstack::DwarfSection::iterator *",
   "referenced_type" : "_ZTIN11unwindstack12DwarfSection8iteratorE",
   "self_type" : "_ZTIPN11unwindstack12DwarfSection8iteratorE",
   "size" : 4,
   "source_file" : "system/unwinding/libunwindstack/include/unwindstack/DwarfSection.h"
  },
  {
   "alignment" : 4,
   "linker_set_key" : "_ZTIPN11unwindstack12DwarfSectionE",
   "name" : "unwindstack::DwarfSection *",
   "referenced_type" : "_ZTIN11unwindstack12DwarfSectionE",
   "self_type" : "_ZTIPN11unwindstack12DwarfSectionE",
   "size" : 4,
   "source_file" : "system/unwinding/libunwindstack/include/unwindstack/DwarfSection.h"
  },
  {
   "alignment" : 4,
   "linker_set_key" : "_ZTIPN11unwindstack12ElfInterfaceE",
   "name" : "unwindstack::ElfInterface *",
   "referenced_type" : "_ZTIN11unwindstack12ElfInterfaceE",
   "self_type" : "_ZTIPN11unwindstack12ElfInterfaceE",
   "size" : 4,
   "source_file" : "system/unwinding/libunwindstack/include/unwindstack/ElfInterface.h"
  },
  {
   "alignment" : 4,
   "linker_set_key" : "_ZTIPN11unwindstack12SharedStringE",
   "name" : "unwindstack::SharedString *",
   "referenced_type" : "_ZTIN11unwindstack12SharedStringE",
   "self_type" : "_ZTIPN11unwindstack12SharedStringE",
   "size" : 4,
   "source_file" : "system/unwinding/libunwindstack/include/unwindstack/SharedString.h"
  },
  {
   "alignment" : 4,
   "linker_set_key" : "_ZTIPN11unwindstack15MemoryCacheBaseE",
   "name" : "unwindstack::MemoryCacheBase *",
   "referenced_type" : "_ZTIN11unwindstack15MemoryCacheBaseE",
   "self_type" : "_ZTIPN11unwindstack15MemoryCacheBaseE",
   "size" : 4,
   "source_file" : "system/unwinding/libunwindstack/include/unwindstack/Memory.h"
  },
  {
   "alignment" : 4,
   "linker_set_key" : "_ZTIPN11unwindstack3ElfE",
   "name" : "unwindstack::Elf *",
   "referenced_type" : "_ZTIN11unwindstack3ElfE",
   "self_type" : "_ZTIPN11unwindstack3ElfE",
   "size" : 4,
   "source_file" : "system/unwinding/libunwindstack/include/unwindstack/Elf.h"
  },
  {
   "alignment" : 4,
   "linker_set_key" : "_ZTIPN11unwindstack4Regs8LocationE",
   "name" : "unwindstack::Regs::Location *",
   "referenced_type" : "_ZTIN11unwindstack4Regs8LocationE",
   "self_type" : "_ZTIPN11unwindstack4Regs8LocationE",
   "size" : 4,
   "source_file" : "system/unwinding/libunwindstack/include/unwindstack/Regs.h"
  },
  {
   "alignment" : 4,
   "linker_set_key" : "_ZTIPN11unwindstack4RegsE",
   "name" : "unwindstack::Regs *",
   "referenced_type" : "_ZTIN11unwindstack4RegsE",
   "self_type" : "_ZTIPN11unwindstack4RegsE",
   "size" : 4,
   "source_file" : "system/unwinding/libunwindstack/include/unwindstack/DwarfSection.h"
  },
  {
   "alignment" : 4,
   "linker_set_key" : "_ZTIPN11unwindstack6MemoryE",
   "name" : "unwindstack::Memory *",
   "referenced_type" : "_ZTIN11unwindstack6MemoryE",
   "self_type" : "_ZTIPN11unwindstack6MemoryE",
   "size" : 4,
   "source_file" : "system/unwinding/libunwindstack/include/unwindstack/DwarfMemory.h"
  },
  {
   "alignment" : 4,
   "linker_set_key" : "_ZTIPN11unwindstack8RegsImplIjEE",
   "name" : "unwindstack::RegsImpl<unsigned int> *",
   "referenced_type" : "_ZTIN11unwindstack8RegsImplIjEE",
   "self_type" : "_ZTIPN11unwindstack8RegsImplIjEE",
   "size" : 4,
   "source_file" : "system/unwinding/libunwindstack/include/unwindstack/Regs.h"
  },
  {
   "alignment" : 4,
   "linker_set_key" : "_ZTIPN11unwindstack8RegsImplIyEE",
   "name" : "unwindstack::RegsImpl<unsigned long long> *",
   "referenced_type" : "_ZTIN11unwindstack8RegsImplIyEE",
   "self_type" : "_ZTIPN11unwindstack8RegsImplIyEE",
   "size" : 4,
   "source_file" : "system/unwinding/libunwindstack/include/unwindstack/Regs.h"
  },
  {
   "alignment" : 4,
   "linker_set_key" : "_ZTIPNSt3__113unordered_mapINS_12basic_stringIcNS_11char_traitsIcEENS_9allocatorIcEEEENS_4pairINS_10shared_ptrIN11unwindstack3ElfEEEbEENS_4hashIS6_EENS_8equal_toIS6_EENS4_INS7_IKS6_SC_EEEEEE",
   "name" : "std::unordered_map<std::basic_string<char, std::char_traits<char>, std::allocator<char>>, std::pair<std::shared_ptr<unwindstack::Elf>, bool>, std::hash<std::basic_string<char, std::char_traits<char>, std::allocator<char>>>, std::equal_to<std::basic_string<char, std::char_traits<char>, std::allocator<char>>>, std::allocator<std::pair<const std::basic_string<char, std::char_traits<char>, std::allocator<char>>, std::pair<std::shared_ptr<unwindstack::Elf>, bool>>>> *",
   "referenced_type" : "_ZTINSt3__113unordered_mapINS_12basic_stringIcNS_11char_traitsIcEENS_9allocatorIcEEEENS_4pairINS_10shared_ptrIN11unwindstack3ElfEEEbEENS_4hashIS6_EENS_8equal_toIS6_EENS4_INS7_IKS6_SC_EEEEEE",
   "self_type" : "_ZTIPNSt3__113unordered_mapINS_12basic_stringIcNS_11char_traitsIcEENS_9allocatorIcEEEENS_4pairINS_10shared_ptrIN11unwindstack3ElfEEEbEENS_4hashIS6_EENS_8equal_toIS6_EENS4_INS7_IKS6_SC_EEEEEE",
   "size" : 4,
   "source_file" : "system/unwinding/libunwindstack/include/unwindstack/Elf.h"
  },
  {
   "alignment" : 4,
   "linker_set_key" : "_ZTIPNSt3__15mutexE",
   "name" : "std::mutex *",
   "referenced_type" : "_ZTINSt3__15mutexE",
   "self_type" : "_ZTIPNSt3__15mutexE",
   "size" : 4,
   "source_file" : "system/unwinding/libunwindstack/include/unwindstack/Elf.h"
  },
  {
   "alignment" : 4,
   "linker_set_key" : "_ZTIPb",
   "name" : "bool *",
   "referenced_type" : "_ZTIb",
   "self_type" : "_ZTIPb",
   "size" : 4,
   "source_file" : "system/unwinding/libunwindstack/include/unwindstack/DwarfSection.h"
  },
  {
   "alignment" : 4,
   "linker_set_key" : "_ZTIPh",
   "name" : "unsigned char *",
   "referenced_type" : "_ZTIh",
   "self_type" : "_ZTIPh",
   "size" : 4,
   "source_file" : "system/unwinding/libunwindstack/include/unwindstack/Memory.h"
  },
  {
   "alignment" : 4,
   "linker_set_key" : "_ZTIPj",
   "name" : "unsigned int *",
   "referenced_type" : "_ZTIj",
   "self_type" : "_ZTIPj",
   "size" : 4,
   "source_file" : "system/unwinding/libunwindstack/include/unwindstack/Memory.h"
  },
  {
   "alignment" : 4,
   "linker_set_key" : "_ZTIPy",
   "name" : "unsigned long long *",
   "referenced_type" : "_ZTIy",
   "self_type" : "_ZTIPy",
   "size" : 4,
   "source_file" : "system/unwinding/libunwindstack/include/unwindstack/Memory.h"
  }
 ],
 "qualified_types" :
 [
  {
   "alignment" : 4,
   "is_const" : true,
   "linker_set_key" : "_ZTIKN11unwindstack12DwarfSection8iteratorE",
   "name" : "const unwindstack::DwarfSection::iterator",
   "referenced_type" : "_ZTIN11unwindstack12DwarfSection8iteratorE",
   "self_type" : "_ZTIKN11unwindstack12DwarfSection8iteratorE",
   "size" : 16,
   "source_file" : "system/unwinding/libunwindstack/include/unwindstack/DwarfSection.h"
  },
  {
   "alignment" : 4,
   "is_const" : true,
   "linker_set_key" : "_ZTIKN11unwindstack12SharedStringE",
   "name" : "const unwindstack::SharedString",
   "referenced_type" : "_ZTIN11unwindstack12SharedStringE",
   "self_type" : "_ZTIKN11unwindstack12SharedStringE",
   "size" : 8,
   "source_file" : "system/unwinding/libunwindstack/include/unwindstack/SharedString.h"
  },
  {
   "alignment" : 2,
   "is_const" : true,
   "linker_set_key" : "_ZTIKN11unwindstack4Regs8LocationE",
   "name" : "const unwindstack::Regs::Location",
   "referenced_type" : "_ZTIN11unwindstack4Regs8LocationE",
   "self_type" : "_ZTIKN11unwindstack4Regs8LocationE",
   "size" : 4,
   "source_file" : "system/unwinding/libunwindstack/include/unwindstack/Regs.h"
  },
  {
   "alignment" : 8,
   "is_const" : true,
   "linker_set_key" : "_ZTIKN11unwindstack8DwarfCieE",
   "name" : "const unwindstack::DwarfCie",
   "referenced_type" : "_ZTIN11unwindstack8DwarfCieE",
   "self_type" : "_ZTIKN11unwindstack8DwarfCieE",
   "size" : 72,
   "source_file" : "system/unwinding/libunwindstack/include/unwindstack/DwarfLocation.h"
  },
  {
   "alignment" : 8,
   "is_const" : true,
   "linker_set_key" : "_ZTIKN11unwindstack8DwarfFdeE",
   "name" : "const unwindstack::DwarfFde",
   "referenced_type" : "_ZTIN11unwindstack8DwarfFdeE",
   "self_type" : "_ZTIKN11unwindstack8DwarfFdeE",
   "size" : 56,
   "source_file" : "system/unwinding/libunwindstack/include/unwindstack/DwarfSection.h"
  },
  {
   "alignment" : 8,
   "is_const" : true,
   "linker_set_key" : "_ZTIKN11unwindstack9ErrorDataE",
   "name" : "const unwindstack::ErrorData",
   "referenced_type" : "_ZTIN11unwindstack9ErrorDataE",
   "self_type" : "_ZTIKN11unwindstack9ErrorDataE",
   "size" : 16,
   "source_file" : "system/unwinding/libunwindstack/include/unwindstack/ElfInterface.h"
  },
  {
   "alignment" : 4,
   "is_const" : true,
   "linker_set_key" : "_ZTIKNSt3__112basic_stringIcNS_11char_traitsIcEENS_9allocatorIcEEEE",
   "name" : "const std::basic_string<char, std::char_traits<char>, std::allocator<char>>",
   "referenced_type" : "_ZTINSt3__112basic_stringIcNS_11char_traitsIcEENS_9allocatorIcEEEE",
   "self_type" : "_ZTIKNSt3__112basic_stringIcNS_11char_traitsIcEENS_9allocatorIcEEEE",
   "size" : 12,
   "source_file" : "system/unwinding/libunwindstack/include/unwindstack/SharedString.h"
  },
  {
   "alignment" : 4,
   "is_const" : true,
   "linker_set_key" : "_ZTIKNSt3__113unordered_mapIyN11unwindstack8LoadInfoENS_4hashIyEENS_8equal_toIyEENS_9allocatorINS_4pairIKyS2_EEEEEE",
   "name" : "const std::unordered_map<unsigned long long, unwindstack::LoadInfo, std::hash<unsigned long long>, std::equal_to<unsigned long long>, std::allocator<std::pair<const unsigned long long, unwindstack::LoadInfo>>>",
   "referenced_type" : "_ZTINSt3__113unordered_mapIyN11unwindstack8LoadInfoENS_4hashIyEENS_8equal_toIyEENS_9allocatorINS_4pairIKyS2_EEEEEE",
   "self_type" : "_ZTIKNSt3__113unordered_mapIyN11unwindstack8LoadInfoENS_4hashIyEENS_8equal_toIyEENS_9allocatorINS_4pairIKyS2_EEEEEE",
   "size" : 20,
   "source_file" : "system/unwinding/libunwindstack/include/unwindstack/ElfInterface.h"
  },
  {
   "alignment" : 1,
   "is_const" : true,
   "linker_set_key" : "_ZTIKc",
   "name" : "const char",
   "referenced_type" : "_ZTIc",
   "self_type" : "_ZTIKc",
   "size" : 1,
   "source_file" : "system/unwinding/libunwindstack/include/unwindstack/SharedString.h"
  },
  {
   "alignment" : 2,
   "is_const" : true,
   "linker_set_key" : "_ZTIKt",
   "name" : "const unsigned short",
   "referenced_type" : "_ZTIt",
   "self_type" : "_ZTIKt",
   "size" : 2,
   "source_file" : "system/unwinding/libunwindstack/include/unwindstack/DwarfStructs.h"
  }
 ],
 "record_types" :
 [
  {
   "alignment" : 1,
   "linker_set_key" : "_ZTIN11unwindstack10ElfTypes32E",
   "name" : "unwindstack::ElfTypes32",
   "referenced_type" : "_ZTIN11unwindstack10ElfTypes32E",
   "self_type" : "_ZTIN11unwindstack10ElfTypes32E",
   "size" : 1,
   "source_file" : "system/unwinding/libunwindstack/include/unwindstack/ElfInterface.h"
  },
  {
   "alignment" : 1,
   "linker_set_key" : "_ZTIN11unwindstack10ElfTypes64E",
   "name" : "unwindstack::ElfTypes64",
   "referenced_type" : "_ZTIN11unwindstack10ElfTypes64E",
   "self_type" : "_ZTIN11unwindstack10ElfTypes64E",
   "size" : 1,
   "source_file" : "system/unwinding/libunwindstack/include/unwindstack/ElfInterface.h"
  },
  {
   "alignment" : 8,
   "fields" :
   [
    {
     "access" : "private",
     "field_name" : "memory_",
     "field_offset" : 32,
     "referenced_type" : "_ZTIPN11unwindstack6MemoryE"
    },
    {
     "access" : "private",
     "field_name" : "cur_offset_",
     "field_offset" : 64,
     "referenced_type" : "_ZTIy"
    },
    {
     "access" : "private",
     "field_name" : "pc_offset_",
     "field_offset" : 128,
     "referenced_type" : "_ZTIx"
    },
    {
     "access" : "private",
     "field_name" : "data_offset_",
     "field_offset" : 192,
     "referenced_type" : "_ZTIy"
    },
    {
     "access" : "private",
     "field_name" : "func_offset_",
     "field_offset" : 256,
     "referenced_type" : "_ZTIy"
    },
    {
     "access" : "private",
     "field_name" : "text_offset_",
     "field_offset" : 320,
     "referenced_type" : "_ZTIy"
    }
   ],
   "linker_set_key" : "_ZTIN11unwindstack11DwarfMemoryE",
   "name" : "unwindstack::DwarfMemory",
   "record_kind" : "class",
   "referenced_type" : "_ZTIN11unwindstack11DwarfMemoryE",
   "self_type" : "_ZTIN11unwindstack11DwarfMemoryE",
   "size" : 48,
   "source_file" : "system/unwinding/libunwindstack/include/unwindstack/DwarfMemory.h",
   "vtable_components" :
   [
    {
     "kind" : "offset_to_top"
    },
    {
     "kind" : "rtti",
     "mangled_component_name" : "_ZTIN11unwindstack11DwarfMemoryE"
    },
    {
     "kind" : "complete_dtor_pointer",
     "mangled_component_name" : "_ZN11unwindstack11DwarfMemoryD1Ev"
    },
    {
     "kind" : "deleting_dtor_pointer",
     "mangled_component_name" : "_ZN11unwindstack11DwarfMemoryD0Ev"
    }
   ]
  },
  {
   "alignment" : 4,
   "base_specifiers" :
   [
    {
     "referenced_type" : "_ZTINSt3__18iteratorINS_26bidirectional_iterator_tagEPN11unwindstack8DwarfFdeEiPS4_RS4_EE"
    }
   ],
   "fields" :
   [
    {
     "access" : "private",
     "field_name" : "fdes_",
     "referenced_type" : "_ZTINSt3__16vectorIPKN11unwindstack8DwarfFdeENS_9allocatorIS4_EEEE"
    },
    {
     "access" : "private",
     "field_name" : "index_",
     "field_offset" : 96,
     "referenced_type" : "_ZTIj"
    }
   ],
   "linker_set_key" : "_ZTIN11unwindstack12DwarfSection8iteratorE",
   "name" : "unwindstack::DwarfSection::iterator",
   "record_kind" : "class",
   "referenced_type" : "_ZTIN11unwindstack12DwarfSection8iteratorE",
   "self_type" : "_ZTIN11unwindstack12DwarfSection8iteratorE",
   "size" : 16,
   "source_file" : "system/unwinding/libunwindstack/include/unwindstack/DwarfSection.h"
  },
  {
   "alignment" : 8,
   "fields" :
   [
    {
     "access" : "protected",
     "field_name" : "memory_",
     "field_offset" : 64,
     "referenced_type" : "_ZTIN11unwindstack11DwarfMemoryE"
    },
    {
     "access" : "protected",
     "field_name" : "last_error_",
     "field_offset" : 448,
     "referenced_type" : "_ZTIN11unwindstack14DwarfErrorDataE"
    },
    {
     "access" : "protected",
     "field_name" : "cie32_value_",
     "field_offset" : 576,
     "referenced_type" : "_ZTIj"
    },
    {
     "access" : "protected",
     "field_name" : "cie64_value_",
     "field_offset" : 640,
     "referenced_type" : "_ZTIy"
    },
    {
     "access" : "protected",
     "field_name" : "fde_entries_",
     "field_offset" : 704,
     "referenced_type" : "_ZTINSt3__113unordered_mapIyN11unwindstack8DwarfFdeENS_4hashIyEENS_8equal_toIyEENS_9allocatorINS_4pairIKyS2_EEEEEE"
    },
    {
     "access" : "protected",
     "field_name" : "cie_entries_",
     "field_offset" : 864,
     "referenced_type" : "_ZTINSt3__113unordered_mapIyN11unwindstack8DwarfCieENS_4hashIyEENS_8equal_toIyEENS_9allocatorINS_4pairIKyS2_EEEEEE"
    },
    {
     "access" : "protected",
     "field_name" : "cie_loc_regs_",
     "field_offset" : 1024,
     "referenced_type" : "_ZTINSt3__113unordered_mapIyN11unwindstack14DwarfLocationsENS_4hashIyEENS_8equal_toIyEENS_9allocatorINS_4pairIKyS2_EEEEEE"
    },
    {
     "access" : "protected",
     "field_name" : "loc_regs_",
     "field_offset" : 1184,
     "referenced_type" : "_ZTINSt3__13mapIyN11unwindstack14DwarfLocationsENS_4lessIyEENS_9allocatorINS_4pairIKyS2_EEEEEE"
    }
   ],
   "linker_set_key" : "_ZTIN11unwindstack12DwarfSectionE",
   "name" : "unwindstack::DwarfSection",
   "record_kind" : "class",
   "referenced_type" : "_ZTIN11unwindstack12DwarfSectionE",
   "self_type" : "_ZTIN11unwindstack12DwarfSectionE",
   "size" : 160,
   "source_file" : "system/unwinding/libunwindstack/include/unwindstack/DwarfSection.h",
   "vtable_components" :
   [
    {
     "kind" : "offset_to_top"
    },
    {
     "kind" : "rtti",
     "mangled_component_name" : "_ZTIN11unwindstack12DwarfSectionE"
    },
    {
     "kind" : "complete_dtor_pointer",
     "mangled_component_name" : "_ZN11unwindstack12DwarfSectionD1Ev"
    },
    {
     "kind" : "deleting_dtor_pointer",
     "mangled_component_name" : "_ZN11unwindstack12DwarfSectionD0Ev"
    },
    {
     "is_pure" : true,
     "mangled_component_name" : "_ZN11unwindstack12DwarfSection4InitEyyx"
    },
    {
     "is_pure" : true,
     "mangled_component_name" : "_ZN11unwindstack12DwarfSection4EvalEPKNS_8DwarfCieEPNS_6MemoryERKNS_14DwarfLocationsEPNS_4RegsEPb"
    },
    {
     "is_pure" : true,
     "mangled_component_name" : "_ZN11unwindstack12DwarfSection3LogEhyPKNS_8DwarfFdeENS_8ArchEnumE"
    },
    {
     "is_pure" : true,
     "mangled_component_name" : "_ZN11unwindstack12DwarfSection7GetFdesEPNSt3__16vectorIPKNS_8DwarfFdeENS1_9allocatorIS5_EEEE"
    },
    {
     "is_pure" : true,
     "mangled_component_name" : "_ZN11unwindstack12DwarfSection12GetFdeFromPcEy"
    },
    {
     "is_pure" : true,
     "mangled_component_name" : "_ZN11unwindstack12DwarfSection18GetCfaLocationInfoEyPKNS_8DwarfFdeEPNS_14DwarfLocationsENS_8ArchEnumE"
    },
    {
     "is_pure" : true,
     "mangled_component_name" : "_ZN11unwindstack12DwarfSection21GetCieOffsetFromFde32Ej"
    },
    {
     "is_pure" : true,
     "mangled_component_name" : "_ZN11unwindstack12DwarfSection21GetCieOffsetFromFde64Ey"
    },
    {
     "is_pure" : true,
     "mangled_component_name" : "_ZN11unwindstack12DwarfSection15AdjustPcFromFdeEy"
    }
   ]
  },
  {
   "alignment" : 8,
   "fields" :
   [
    {
     "access" : "protected",
     "field_name" : "memory_",
     "field_offset" : 32,
     "referenced_type" : "_ZTIPN11unwindstack6MemoryE"
    },
    {
     "access" : "protected",
     "field_name" : "pt_loads_",
     "field_offset" : 64,
     "referenced_type" : "_ZTINSt3__113unordered_mapIyN11unwindstack8LoadInfoENS_4hashIyEENS_8equal_toIyEENS_9allocatorINS_4pairIKyS2_EEEEEE"
    },
    {
     "access" : "protected",
     "field_name" : "dynamic_offset_",
     "field_offset" : 256,
     "referenced_type" : "_ZTIy"
    },
    {
     "access" : "protected",
     "field_name" : "dynamic_vaddr_start_",
     "field_offset" : 320,
     "referenced_type" : "_ZTIy"
    },
    {
     "access" : "protected",
     "field_name" : "dynamic_vaddr_end_",
     "field_offset" : 384,
     "referenced_type" : "_ZTIy"
    },
    {
     "access" : "protected",
     "field_name" : "data_offset_",
     "field_offset" : 448,
     "referenced_type" : "_ZTIy"
    },
    {
     "access" : "protected",
     "field_name" : "data_vaddr_start_",
     "field_offset" : 512,
     "referenced_type" : "_ZTIy"
    },
    {
     "access" : "protected",
     "field_name" : "data_vaddr_end_",
     "field_offset" : 576,
     "referenced_type" : "_ZTIy"
    },
    {
     "access" : "protected",
     "field_name" : "eh_frame_hdr_offset_",
     "field_offset" : 640,
     "referenced_type" : "_ZTIy"
    },
    {
     "access" : "protected",
     "field_name" : "eh_frame_hdr_section_bias_",
     "field_offset" : 704,
     "referenced_type" : "_ZTIx"
    },
    {
     "access" : "protected",
     "field_name" : "eh_frame_hdr_size_",
     "field_offset" : 768,
     "referenced_type" : "_ZTIy"
    },
    {
     "access" : "protected",
     "field_name" : "eh_frame_offset_",
     "field_offset" : 832,
     "referenced_type" : "_ZTIy"
    },
    {
     "access" : "protected",
     "field_name" : "eh_frame_section_bias_",
     "field_offset" : 896,
     "referenced_type" : "_ZTIx"
    },
    {
     "access" : "protected",
     "field_name" : "eh_frame_size_",
     "field_offset" : 960,
     "referenced_type" : "_ZTIy"
    },
    {
     "access" : "protected",
     "field_name" : "debug_frame_offset_",
     "field_offset" : 1024,
     "referenced_type" : "_ZTIy"
    },
    {
     "access" : "protected",
     "field_name" : "debug_frame_section_bias_",
     "field_offset" : 1088,
     "referenced_type" : "_ZTIx"
    },
    {
     "access" : "protected",
     "field_name" : "debug_frame_size_",
     "field_offset" : 1152,
     "referenced_type" : "_ZTIy"
    },
    {
     "access" : "protected",
     "field_name" : "gnu_debugdata_offset_",
     "field_offset" : 1216,
     "referenced_type" : "_ZTIy"
    },
    {
     "access" : "protected",
     "field_name" : "gnu_debugdata_size_",
     "field_offset" : 1280,
     "referenced_type" : "_ZTIy"
    },
    {
     "access" : "protected",
     "field_name" : "gnu_build_id_offset_",
     "field_offset" : 1344,
     "referenced_type" : "_ZTIy"
    },
    {
     "access" : "protected",
     "field_name" : "gnu_build_id_size_",
     "field_offset" : 1408,
     "referenced_type" : "_ZTIy"
    },
    {
     "access" : "protected",
     "field_name" : "text_addr_",
     "field_offset" : 1472,
     "referenced_type" : "_ZTIy"
    },
    {
     "access" : "protected",
     "field_name" : "text_size_",
     "field_offset" : 1536,
     "referenced_type" : "_ZTIy"
    },
    {
     "access" : "protected",
     "field_name" : "soname_type_",
     "field_offset" : 1600,
     "referenced_type" : "_ZTIh"
    },
    {
     "access" : "protected",
     "field_name" : "soname_",
     "field_offset" : 1632,
     "referenced_type" : "_ZTINSt3__112basic_stringIcNS_11char_traitsIcEENS_9allocatorIcEEEE"
    },
    {
     "access" : "protected",
     "field_name" : "last_error_",
     "field_offset" : 1728,
     "referenced_type" : "_ZTIN11unwindstack9ErrorDataE"
    },
    {
     "access" : "protected",
     "field_name" : "eh_frame_",
     "field_offset" : 1856,
     "referenced_type" : "_ZTINSt3__110unique_ptrIN11unwindstack12DwarfSectionENS_14default_deleteIS2_EEEE"
    },
    {
     "access" : "protected",
     "field_name" : "debug_frame_",
     "field_offset" : 1888,
     "referenced_type" : "_ZTINSt3__110unique_ptrIN11unwindstack12DwarfSectionENS_14default_deleteIS2_EEEE"
    },
    {
     "access" : "protected",
     "field_name" : "gnu_debugdata_interface_",
     "field_offset" : 1920,
     "referenced_type" : "_ZTIPN11unwindstack12ElfInterfaceE"
    },
    {
     "access" : "protected",
     "field_name" : "symbols_",
     "field_offset" : 1952,
     "referenced_type" : "_ZTINSt3__16vectorIPN11unwindstack7SymbolsENS_9allocatorIS3_EEEE"
    },
    {
     "access" : "protected",
     "field_name" : "strtabs_",
     "field_offset" : 2048,
     "referenced_type" : "_ZTINSt3__16vectorINS_4pairIyyEENS_9allocatorIS2_EEEE"
    }
   ],
   "linker_set_key" : "_ZTIN11unwindstack12ElfInterfaceE",
   "name" : "unwindstack::ElfInterface",
   "record_kind" : "class",
   "referenced_type" : "_ZTIN11unwindstack12ElfInterfaceE",
   "self_type" : "_ZTIN11unwindstack12ElfInterfaceE",
   "size" : 272,
   "source_file" : "system/unwinding/libunwindstack/include/unwindstack/ElfInterface.h",
   "vtable_components" :
   [
    {
     "kind" : "offset_to_top"
    },
    {
     "kind" : "rtti",
     "mangled_component_name" : "_ZTIN11unwindstack12ElfInterfaceE"
    },
    {
     "kind" : "complete_dtor_pointer",
     "mangled_component_name" : "_ZN11unwindstack12ElfInterfaceD1Ev"
    },
    {
     "kind" : "deleting_dtor_pointer",
     "mangled_component_name" : "_ZN11unwindstack12ElfInterfaceD0Ev"
    },
    {
     "is_pure" : true,
     "mangled_component_name" : "_ZN11unwindstack12ElfInterface4InitEPx"
    },
    {
     "is_pure" : true,
     "mangled_component_name" : "_ZN11unwindstack12ElfInterface11InitHeadersEv"
    },
    {
     "is_pure" : true,
     "mangled_component_name" : "_ZN11unwindstack12ElfInterface9GetSonameEv"
    },
    {
     "is_pure" : true,
     "mangled_component_name" : "_ZN11unwindstack12ElfInterface15GetFunctionNameEyPNS_12SharedStringEPy"
    },
    {
     "is_pure" : true,
     "mangled_component_name" : "_ZN11unwindstack12ElfInterface17GetGlobalVariableERKNSt3__112basic_stringIcNS1_11char_traitsIcEENS1_9allocatorIcEEEEPy"
    },
    {
     "is_pure" : true,
     "mangled_component_name" : "_ZN11unwindstack12ElfInterface10GetBuildIDEv"
    },
    {
     "mangled_component_name" : "_ZN11unwindstack12ElfInterface4StepEyPNS_4RegsEPNS_6MemoryEPbS5_"
    },
    {
     "mangled_component_name" : "_ZN11unwindstack12ElfInterface9IsValidPcEy"
    },
    {
     "mangled_component_name" : "_ZN11unwindstack12ElfInterface17HandleUnknownTypeEjyy"
    }
   ]
  },
  {
   "alignment" : 4,
   "fields" :
   [
    {
     "access" : "private",
     "field_name" : "data_",
     "referenced_type" : "_ZTINSt3__110shared_ptrIKNS_12basic_stringIcNS_11char_traitsIcEENS_9allocatorIcEEEEEE"
    }
   ],
   "linker_set_key" : "_ZTIN11unwindstack12SharedStringE",
   "name" : "unwindstack::SharedString",
   "record_kind" : "class",
   "referenced_type" : "_ZTIN11unwindstack12SharedStringE",
   "self_type" : "_ZTIN11unwindstack12SharedStringE",
   "size" : 8,
   "source_file" : "system/unwinding/libunwindstack/include/unwindstack/SharedString.h"
  },
  {
   "alignment" : 8,
   "fields" :
   [
    {
     "field_name" : "type",
     "referenced_type" : "_ZTIN11unwindstack17DwarfLocationEnumE"
    },
    {
     "field_name" : "values",
     "field_offset" : 64,
     "referenced_type" : "_ZTIA2_y"
    }
   ],
   "linker_set_key" : "_ZTIN11unwindstack13DwarfLocationE",
   "name" : "unwindstack::DwarfLocation",
   "referenced_type" : "_ZTIN11unwindstack13DwarfLocationE",
   "self_type" : "_ZTIN11unwindstack13DwarfLocationE",
   "size" : 24,
   "source_file" : "system/unwinding/libunwindstack/include/unwindstack/DwarfLocation.h"
  },
  {
   "alignment" : 8,
   "fields" :
   [
    {
     "field_name" : "code",
     "referenced_type" : "_ZTIN11unwindstack14DwarfErrorCodeE"
    },
    {
     "field_name" : "address",
     "field_offset" : 64,
     "referenced_type" : "_ZTIy"
    }
   ],
   "linker_set_key" : "_ZTIN11unwindstack14DwarfErrorDataE",
   "name" : "unwindstack::DwarfErrorData",
   "referenced_type" : "_ZTIN11unwindstack14DwarfErrorDataE",
   "self_type" : "_ZTIN11unwindstack14DwarfErrorDataE",
   "size" : 16,
   "source_file" : "system/unwinding/libunwindstack/include/unwindstack/DwarfError.h"
  },
  {
   "alignment" : 8,
   "base_specifiers" :
   [
    {
     "referenced_type" : "_ZTINSt3__113unordered_mapIjN11unwindstack13DwarfLocationENS_4hashIjEENS_8equal_toIjEENS_9allocatorINS_4pairIKjS2_EEEEEE"
    }
   ],
   "fields" :
   [
    {
     "field_name" : "cie",
     "field_offset" : 160,
     "referenced_type" : "_ZTIPKN11unwindstack8DwarfCieE"
    },
    {
     "field_name" : "pc_start",
     "field_offset" : 192,
     "referenced_type" : "_ZTIy"
    },
    {
     "field_name" : "pc_end",
     "field_offset" : 256,
     "referenced_type" : "_ZTIy"
    }
   ],
   "linker_set_key" : "_ZTIN11unwindstack14DwarfLocationsE",
   "name" : "unwindstack::DwarfLocations",
   "referenced_type" : "_ZTIN11unwindstack14DwarfLocationsE",
   "self_type" : "_ZTIN11unwindstack14DwarfLocationsE",
   "size" : 40,
   "source_file" : "system/unwinding/libunwindstack/include/unwindstack/DwarfLocation.h"
  },
  {
   "alignment" : 8,
   "fields" :
   [
    {
     "access" : "protected",
     "field_name" : "valid_",
     "field_offset" : 32,
     "referenced_type" : "_ZTIb"
    },
    {
     "access" : "protected",
     "field_name" : "load_bias_",
     "field_offset" : 64,
     "referenced_type" : "_ZTIx"
    },
    {
     "access" : "protected",
     "field_name" : "interface_",
     "field_offset" : 128,
     "referenced_type" : "_ZTINSt3__110unique_ptrIN11unwindstack12ElfInterfaceENS_14default_deleteIS2_EEEE"
    },
    {
     "access" : "protected",
     "field_name" : "memory_",
     "field_offset" : 160,
     "referenced_type" : "_ZTINSt3__110unique_ptrIN11unwindstack6MemoryENS_14default_deleteIS2_EEEE"
    },
    {
     "access" : "protected",
     "field_name" : "machine_type_",
     "field_offset" : 192,
     "referenced_type" : "_ZTIj"
    },
    {
     "access" : "protected",
     "field_name" : "class_type_",
     "field_offset" : 224,
     "referenced_type" : "_ZTIh"
    },
    {
     "access" : "protected",
     "field_name" : "arch_",
     "field_offset" : 232,
     "referenced_type" : "_ZTIN11unwindstack8ArchEnumE"
    },
    {
     "access" : "protected",
     "field_name" : "lock_",
     "field_offset" : 256,
     "referenced_type" : "_ZTINSt3__15mutexE"
    },
    {
     "access" : "protected",
     "field_name" : "gnu_debugdata_memory_",
     "field_offset" : 288,
     "referenced_type" : "_ZTINSt3__110unique_ptrIN11unwindstack6MemoryENS_14default_deleteIS2_EEEE"
    },
    {
     "access" : "protected",
     "field_name" : "gnu_debugdata_interface_",
     "field_offset" : 320,
     "referenced_type" : "_ZTINSt3__110unique_ptrIN11unwindstack12ElfInterfaceENS_14default_deleteIS2_EEEE"
    }
   ],
   "linker_set_key" : "_ZTIN11unwindstack3ElfE",
   "name" : "unwindstack::Elf",
   "record_kind" : "class",
   "referenced_type" : "_ZTIN11unwindstack3ElfE",
   "self_type" : "_ZTIN11unwindstack3ElfE",
   "size" : 48,
   "source_file" : "system/unwinding/libunwindstack/include/unwindstack/Elf.h",
   "vtable_components" :
   [
    {
     "kind" : "offset_to_top"
    },
    {
     "kind" : "rtti",
     "mangled_component_name" : "_ZTIN11unwindstack3ElfE"
    },
    {
     "kind" : "complete_dtor_pointer",
     "mangled_component_name" : "_ZN11unwindstack3ElfD1Ev"
    },
    {
     "kind" : "deleting_dtor_pointer",
     "mangled_component_name" : "_ZN11unwindstack3ElfD0Ev"
    }
   ]
  },
  {
   "alignment" : 2,
   "fields" :
   [
    {
     "field_name" : "type",
     "referenced_type" : "_ZTIN11unwindstack4Regs12LocationEnumE"
    },
    {
     "field_name" : "value",
     "field_offset" : 16,
     "referenced_type" : "_ZTIs"
    }
   ],
   "linker_set_key" : "_ZTIN11unwindstack4Regs8LocationE",
   "name" : "unwindstack::Regs::Location",
   "referenced_type" : "_ZTIN11unwindstack4Regs8LocationE",
   "self_type" : "_ZTIN11unwindstack4Regs8LocationE",
   "size" : 4,
   "source_file" : "system/unwinding/libunwindstack/include/unwindstack/Regs.h"
  },
  {
   "alignment" : 8,
   "fields" :
   [
    {
     "access" : "protected",
     "field_name" : "total_regs_",
     "field_offset" : 32,
     "referenced_type" : "_ZTIt"
    },
    {
     "access" : "protected",
     "field_name" : "return_loc_",
     "field_offset" : 48,
     "referenced_type" : "_ZTIN11unwindstack4Regs8LocationE"
    },
    {
     "access" : "protected",
     "field_name" : "dex_pc_",
     "field_offset" : 128,
     "referenced_type" : "_ZTIy"
    }
   ],
   "linker_set_key" : "_ZTIN11unwindstack4RegsE",
   "name" : "unwindstack::Regs",
   "record_kind" : "class",
   "referenced_type" : "_ZTIN11unwindstack4RegsE",
   "self_type" : "_ZTIN11unwindstack4RegsE",
   "size" : 24,
   "source_file" : "system/unwinding/libunwindstack/include/unwindstack/Regs.h",
   "vtable_components" :
   [
    {
     "kind" : "offset_to_top"
    },
    {
     "kind" : "rtti",
     "mangled_component_name" : "_ZTIN11unwindstack4RegsE"
    },
    {
     "kind" : "complete_dtor_pointer",
     "mangled_component_name" : "_ZN11unwindstack4RegsD1Ev"
    },
    {
     "kind" : "deleting_dtor_pointer",
     "mangled_component_name" : "_ZN11unwindstack4RegsD0Ev"
    },
    {
     "is_pure" : true,
     "mangled_component_name" : "_ZN11unwindstack4Regs4ArchEv"
    },
    {
     "is_pure" : true,
     "mangled_component_name" : "_ZN11unwindstack4Regs7RawDataEv"
    },
    {
     "is_pure" : true,
     "mangled_component_name" : "_ZN11unwindstack4Regs2pcEv"
    },
    {
     "is_pure" : true,
     "mangled_component_name" : "_ZN11unwindstack4Regs2spEv"
    },
    {
     "is_pure" : true,
     "mangled_component_name" : "_ZN11unwindstack4Regs6set_pcEy"
    },
    {
     "is_pure" : true,
     "mangled_component_name" : "_ZN11unwindstack4Regs6set_spEy"
    },
    {
     "mangled_component_name" : "_ZN11unwindstack4Regs11fallback_pcEv"
    },
    {
     "mangled_component_name" : "_ZN11unwindstack4Regs20ResetPseudoRegistersEv"
    },
    {
     "mangled_component_name" : "_ZN11unwindstack4Regs17SetPseudoRegisterEty"
    },
    {
     "mangled_component_name" : "_ZN11unwindstack4Regs17GetPseudoRegisterEtPy"
    },
    {
     "is_pure" : true,
     "mangled_component_name" : "_ZN11unwindstack4Regs19StepIfSignalHandlerEyPNS_3ElfEPNS_6MemoryE"
    },
    {
     "is_pure" : true,
     "mangled_component_name" : "_ZN11unwindstack4Regs22SetPcFromReturnAddressEPNS_6MemoryE"
    },
    {
     "is_pure" : true,
     "mangled_component_name" : "_ZN11unwindstack4Regs16IterateRegistersENSt3__18functionIFvPKcyEEE"
    },
    {
     "is_pure" : true,
     "mangled_component_name" : "_ZN11unwindstack4Regs5CloneEv"
    }
   ]
  },
  {
   "alignment" : 4,
   "linker_set_key" : "_ZTIN11unwindstack6MemoryE",
   "name" : "unwindstack::Memory",
   "record_kind" : "class",
   "referenced_type" : "_ZTIN11unwindstack6MemoryE",
   "self_type" : "_ZTIN11unwindstack6MemoryE",
   "size" : 4,
   "source_file" : "system/unwinding/libunwindstack/include/unwindstack/Memory.h",
   "vtable_components" :
   [
    {
     "kind" : "offset_to_top"
    },
    {
     "kind" : "rtti",
     "mangled_component_name" : "_ZTIN11unwindstack6MemoryE"
    },
    {
     "kind" : "complete_dtor_pointer",
     "mangled_component_name" : "_ZN11unwindstack6MemoryD1Ev"
    },
    {
     "kind" : "deleting_dtor_pointer",
     "mangled_component_name" : "_ZN11unwindstack6MemoryD0Ev"
    },
    {
     "mangled_component_name" : "_ZN11unwindstack6Memory17AsMemoryCacheBaseEv"
    },
    {
     "mangled_component_name" : "_ZN11unwindstack6Memory10ReadStringEyPNSt3__112basic_stringIcNS1_11char_traitsIcEENS1_9allocatorIcEEEEj"
    },
    {
     "mangled_component_name" : "_ZN11unwindstack6Memory5ClearEv"
    },
    {
     "mangled_component_name" : "_ZN11unwindstack6Memory6GetPtrEj"
    },
    {
     "is_pure" : true,
     "mangled_component_name" : "_ZN11unwindstack6Memory4ReadEyPvj"
    },
    {
     "mangled_component_name" : "_ZN11unwindstack6Memory7ReadTagEy"
    }
   ]
  },
  {
   "alignment" : 8,
   "fields" :
   [
    {
     "field_name" : "version",
     "referenced_type" : "_ZTIh"
    },
    {
     "field_name" : "fde_address_encoding",
     "field_offset" : 8,
     "referenced_type" : "_ZTIh"
    },
    {
     "field_name" : "lsda_encoding",
     "field_offset" : 16,
     "referenced_type" : "_ZTIh"
    },
    {
     "field_name" : "segment_size",
     "field_offset" : 24,
     "referenced_type" : "_ZTIh"
    },
    {
     "field_name" : "augmentation_string",
     "field_offset" : 32,
     "referenced_type" : "_ZTINSt3__16vectorIcNS_9allocatorIcEEEE"
    },
    {
     "field_name" : "personality_handler",
     "field_offset" : 128,
     "referenced_type" : "_ZTIy"
    },
    {
     "field_name" : "cfa_instructions_offset",
     "field_offset" : 192,
     "referenced_type" : "_ZTIy"
    },
    {
     "field_name" : "cfa_instructions_end",
     "field_offset" : 256,
     "referenced_type" : "_ZTIy"
    },
    {
     "field_name" : "code_alignment_factor",
     "field_offset" : 320,
     "referenced_type" : "_ZTIy"
    },
    {
     "field_name" : "data_alignment_factor",
     "field_offset" : 384,
     "referenced_type" : "_ZTIx"
    },
    {
     "field_name" : "return_address_register",
     "field_offset" : 448,
     "referenced_type" : "_ZTIy"
    },
    {
     "field_name" : "is_signal_frame",
     "field_offset" : 512,
     "referenced_type" : "_ZTIb"
    }
   ],
   "linker_set_key" : "_ZTIN11unwindstack8DwarfCieE",
   "name" : "unwindstack::DwarfCie",
   "referenced_type" : "_ZTIN11unwindstack8DwarfCieE",
   "self_type" : "_ZTIN11unwindstack8DwarfCieE",
   "size" : 72,
   "source_file" : "system/unwinding/libunwindstack/include/unwindstack/DwarfStructs.h"
  },
  {
   "alignment" : 8,
   "fields" :
   [
    {
     "field_name" : "cie_offset",
     "referenced_type" : "_ZTIy"
    },
    {
     "field_name" : "cfa_instructions_offset",
     "field_offset" : 64,
     "referenced_type" : "_ZTIy"
    },
    {
     "field_name" : "cfa_instructions_end",
     "field_offset" : 128,
     "referenced_type" : "_ZTIy"
    },
    {
     "field_name" : "pc_start",
     "field_offset" : 192,
     "referenced_type" : "_ZTIy"
    },
    {
     "field_name" : "pc_end",
     "field_offset" : 256,
     "referenced_type" : "_ZTIy"
    },
    {
     "field_name" : "lsda_address",
     "field_offset" : 320,
     "referenced_type" : "_ZTIy"
    },
    {
     "field_name" : "cie",
     "field_offset" : 384,
     "referenced_type" : "_ZTIPKN11unwindstack8DwarfCieE"
    }
   ],
   "linker_set_key" : "_ZTIN11unwindstack8DwarfFdeE",
   "name" : "unwindstack::DwarfFde",
   "referenced_type" : "_ZTIN11unwindstack8DwarfFdeE",
   "self_type" : "_ZTIN11unwindstack8DwarfFdeE",
   "size" : 56,
   "source_file" : "system/unwinding/libunwindstack/include/unwindstack/DwarfStructs.h"
  },
  {
   "alignment" : 8,
   "fields" :
   [
    {
     "field_name" : "offset",
     "referenced_type" : "_ZTIy"
    },
    {
     "field_name" : "table_offset",
     "field_offset" : 64,
     "referenced_type" : "_ZTIy"
    },
    {
     "field_name" : "table_size",
     "field_offset" : 128,
     "referenced_type" : "_ZTIj"
    }
   ],
   "linker_set_key" : "_ZTIN11unwindstack8LoadInfoE",
   "name" : "unwindstack::LoadInfo",
   "referenced_type" : "_ZTIN11unwindstack8LoadInfoE",
   "self_type" : "_ZTIN11unwindstack8LoadInfoE",
   "size" : 24,
   "source_file" : "system/unwinding/libunwindstack/include/unwindstack/ElfInterface.h"
  },
  {
   "alignment" : 8,
   "base_specifiers" :
   [
    {
     "referenced_type" : "_ZTIN11unwindstack4RegsE"
    }
   ],
   "fields" :
   [
    {
     "access" : "protected",
     "field_name" : "regs_",
     "field_offset" : 192,
     "referenced_type" : "_ZTINSt3__16vectorIjNS_9allocatorIjEEEE"
    }
   ],
   "linker_set_key" : "_ZTIN11unwindstack8RegsImplIjEE",
   "name" : "unwindstack::RegsImpl<unsigned int>",
   "record_kind" : "class",
   "referenced_type" : "_ZTIN11unwindstack8RegsImplIjEE",
   "self_type" : "_ZTIN11unwindstack8RegsImplIjEE",
   "size" : 40,
   "source_file" : "system/unwinding/libunwindstack/include/unwindstack/Regs.h",
   "template_args" : [ "_ZTIj" ],
   "vtable_components" :
   [
    {
     "kind" : "offset_to_top"
    },
    {
     "kind" : "rtti",
     "mangled_component_name" : "_ZTIN11unwindstack8RegsImplIjEE"
    },
    {
     "kind" : "complete_dtor_pointer",
     "mangled_component_name" : "_ZN11unwindstack8RegsImplIjED1Ev"
    },
    {
     "kind" : "deleting_dtor_pointer",
     "mangled_component_name" : "_ZN11unwindstack8RegsImplIjED0Ev"
    },
    {
     "is_pure" : true,
     "mangled_component_name" : "_ZN11unwindstack4Regs4ArchEv"
    },
    {
     "mangled_component_name" : "_ZN11unwindstack8RegsImplIjE7RawDataEv"
    },
    {
     "is_pure" : true,
     "mangled_component_name" : "_ZN11unwindstack4Regs2pcEv"
    },
    {
     "is_pure" : true,
     "mangled_component_name" : "_ZN11unwindstack4Regs2spEv"
    },
    {
     "is_pure" : true,
     "mangled_component_name" : "_ZN11unwindstack4Regs6set_pcEy"
    },
    {
     "is_pure" : true,
     "mangled_component_name" : "_ZN11unwindstack4Regs6set_spEy"
    },
    {
     "mangled_component_name" : "_ZN11unwindstack4Regs11fallback_pcEv"
    },
    {
     "mangled_component_name" : "_ZN11unwindstack4Regs20ResetPseudoRegistersEv"
    },
    {
     "mangled_component_name" : "_ZN11unwindstack4Regs17SetPseudoRegisterEty"
    },
    {
     "mangled_component_name" : "_ZN11unwindstack4Regs17GetPseudoRegisterEtPy"
    },
    {
     "is_pure" : true,
     "mangled_component_name" : "_ZN11unwindstack4Regs19StepIfSignalHandlerEyPNS_3ElfEPNS_6MemoryE"
    },
    {
     "is_pure" : true,
     "mangled_component_name" : "_ZN11unwindstack4Regs22SetPcFromReturnAddressEPNS_6MemoryE"
    },
    {
     "mangled_component_name" : "_ZN11unwindstack8RegsImplIjE16IterateRegistersENSt3__18functionIFvPKcyEEE"
    },
    {
     "is_pure" : true,
     "mangled_component_name" : "_ZN11unwindstack4Regs5CloneEv"
    }
   ]
  },
  {
   "alignment" : 8,
   "base_specifiers" :
   [
    {
     "referenced_type" : "_ZTIN11unwindstack4RegsE"
    }
   ],
   "fields" :
   [
    {
     "access" : "protected",
     "field_name" : "regs_",
     "field_offset" : 192,
     "referenced_type" : "_ZTINSt3__16vectorIyNS_9allocatorIyEEEE"
    }
   ],
   "linker_set_key" : "_ZTIN11unwindstack8RegsImplIyEE",
   "name" : "unwindstack::RegsImpl<unsigned long long>",
   "record_kind" : "class",
   "referenced_type" : "_ZTIN11unwindstack8RegsImplIyEE",
   "self_type" : "_ZTIN11unwindstack8RegsImplIyEE",
   "size" : 40,
   "source_file" : "system/unwinding/libunwindstack/include/unwindstack/Regs.h",
   "template_args" : [ "_ZTIy" ],
   "vtable_components" :
   [
    {
     "kind" : "offset_to_top"
    },
    {
     "kind" : "rtti",
     "mangled_component_name" : "_ZTIN11unwindstack8RegsImplIyEE"
    },
    {
     "kind" : "complete_dtor_pointer",
     "mangled_component_name" : "_ZN11unwindstack8RegsImplIyED1Ev"
    },
    {
     "kind" : "deleting_dtor_pointer",
     "mangled_component_name" : "_ZN11unwindstack8RegsImplIyED0Ev"
    },
    {
     "is_pure" : true,
     "mangled_component_name" : "_ZN11unwindstack4Regs4ArchEv"
    },
    {
     "mangled_component_name" : "_ZN11unwindstack8RegsImplIyE7RawDataEv"
    },
    {
     "is_pure" : true,
     "mangled_component_name" : "_ZN11unwindstack4Regs2pcEv"
    },
    {
     "is_pure" : true,
     "mangled_component_name" : "_ZN11unwindstack4Regs2spEv"
    },
    {
     "is_pure" : true,
     "mangled_component_name" : "_ZN11unwindstack4Regs6set_pcEy"
    },
    {
     "is_pure" : true,
     "mangled_component_name" : "_ZN11unwindstack4Regs6set_spEy"
    },
    {
     "mangled_component_name" : "_ZN11unwindstack4Regs11fallback_pcEv"
    },
    {
     "mangled_component_name" : "_ZN11unwindstack4Regs20ResetPseudoRegistersEv"
    },
    {
     "mangled_component_name" : "_ZN11unwindstack4Regs17SetPseudoRegisterEty"
    },
    {
     "mangled_component_name" : "_ZN11unwindstack4Regs17GetPseudoRegisterEtPy"
    },
    {
     "is_pure" : true,
     "mangled_component_name" : "_ZN11unwindstack4Regs19StepIfSignalHandlerEyPNS_3ElfEPNS_6MemoryE"
    },
    {
     "is_pure" : true,
     "mangled_component_name" : "_ZN11unwindstack4Regs22SetPcFromReturnAddressEPNS_6MemoryE"
    },
    {
     "mangled_component_name" : "_ZN11unwindstack8RegsImplIyE16IterateRegistersENSt3__18functionIFvPKcyEEE"
    },
    {
     "is_pure" : true,
     "mangled_component_name" : "_ZN11unwindstack4Regs5CloneEv"
    }
   ]
  },
  {
   "alignment" : 8,
   "fields" :
   [
    {
     "field_name" : "code",
     "referenced_type" : "_ZTIN11unwindstack9ErrorCodeE"
    },
    {
     "field_name" : "address",
     "field_offset" : 64,
     "referenced_type" : "_ZTIy"
    }
   ],
   "linker_set_key" : "_ZTIN11unwindstack9ErrorDataE",
   "name" : "unwindstack::ErrorData",
   "referenced_type" : "_ZTIN11unwindstack9ErrorDataE",
   "self_type" : "_ZTIN11unwindstack9ErrorDataE",
   "size" : 16,
   "source_file" : "system/unwinding/libunwindstack/include/unwindstack/Error.h"
  }
 ],
 "rvalue_reference_types" :
 [
  {
   "alignment" : 4,
   "linker_set_key" : "_ZTIONSt3__112basic_stringIcNS_11char_traitsIcEENS_9allocatorIcEEEE",
   "name" : "std::basic_string<char, std::char_traits<char>, std::allocator<char>> &&",
   "referenced_type" : "_ZTINSt3__112basic_stringIcNS_11char_traitsIcEENS_9allocatorIcEEEE",
   "self_type" : "_ZTIONSt3__112basic_stringIcNS_11char_traitsIcEENS_9allocatorIcEEEE",
   "size" : 4,
   "source_file" : "system/unwinding/libunwindstack/include/unwindstack/SharedString.h"
  }
 ]
}
