{
 "array_types" :
 [
  {
   "alignment" : 4,
   "linker_set_key" : "_ZTIA10_j",
   "name" : "unsigned int [10]",
   "referenced_type" : "_ZTIj",
   "self_type" : "_ZTIA10_j",
   "size" : 40,
   "source_file" : "external/libcxx/include/charconv"
  },
  {
   "alignment" : 8,
   "linker_set_key" : "_ZTIA20_m",
   "name" : "unsigned long [20]",
   "referenced_type" : "_ZTIm",
   "self_type" : "_ZTIA20_m",
   "size" : 160,
   "source_file" : "external/libcxx/include/charconv"
  },
  {
   "alignment" : 1,
   "linker_set_key" : "_ZTIA2_c",
   "name" : "char [2]",
   "referenced_type" : "_ZTIc",
   "self_type" : "_ZTIA2_c",
   "size" : 2,
   "source_file" : "external/libcxx/include/type_traits"
  },
  {
   "alignment" : 8,
   "linker_set_key" : "_ZTIA4_d",
   "name" : "double [4]",
   "referenced_type" : "_ZTId",
   "self_type" : "_ZTIA4_d",
   "size" : 32,
   "source_file" : "external/libcxx/include/type_traits"
  }
 ],
 "builtin_types" :
 [
  {
   "alignment" : 4,
   "is_integral" : true,
   "is_unsigned" : true,
   "linker_set_key" : "_ZTIDi",
   "name" : "char32_t",
   "referenced_type" : "_ZTIDi",
   "self_type" : "_ZTIDi",
   "size" : 4
  },
  {
   "alignment" : 8,
   "linker_set_key" : "_ZTIDn",
   "name" : "nullptr_t",
   "referenced_type" : "_ZTIDn",
   "self_type" : "_ZTIDn",
   "size" : 8
  },
  {
   "alignment" : 2,
   "is_integral" : true,
   "is_unsigned" : true,
   "linker_set_key" : "_ZTIDs",
   "name" : "char16_t",
   "referenced_type" : "_ZTIDs",
   "self_type" : "_ZTIDs",
   "size" : 2
  },
  {
   "alignment" : 1,
   "is_integral" : true,
   "linker_set_key" : "_ZTIa",
   "name" : "signed char",
   "referenced_type" : "_ZTIa",
   "self_type" : "_ZTIa",
   "size" : 1
  },
  {
   "alignment" : 1,
   "is_integral" : true,
   "is_unsigned" : true,
   "linker_set_key" : "_ZTIb",
   "name" : "bool",
   "referenced_type" : "_ZTIb",
   "self_type" : "_ZTIb",
   "size" : 1
  },
  {
   "alignment" : 1,
   "is_integral" : true,
   "is_unsigned" : true,
   "linker_set_key" : "_ZTIc",
   "name" : "char",
   "referenced_type" : "_ZTIc",
   "self_type" : "_ZTIc",
   "size" : 1
  },
  {
   "alignment" : 8,
   "linker_set_key" : "_ZTId",
   "name" : "double",
   "referenced_type" : "_ZTId",
   "self_type" : "_ZTId",
   "size" : 8
  },
  {
   "alignment" : 16,
   "linker_set_key" : "_ZTIe",
   "name" : "long double",
   "referenced_type" : "_ZTIe",
   "self_type" : "_ZTIe",
   "size" : 16
  },
  {
   "alignment" : 4,
   "linker_set_key" : "_ZTIf",
   "name" : "float",
   "referenced_type" : "_ZTIf",
   "self_type" : "_ZTIf",
   "size" : 4
  },
  {
   "alignment" : 1,
   "is_integral" : true,
   "is_unsigned" : true,
   "linker_set_key" : "_ZTIh",
   "name" : "unsigned char",
   "referenced_type" : "_ZTIh",
   "self_type" : "_ZTIh",
   "size" : 1
  },
  {
   "alignment" : 4,
   "is_integral" : true,
   "linker_set_key" : "_ZTIi",
   "name" : "int",
   "referenced_type" : "_ZTIi",
   "self_type" : "_ZTIi",
   "size" : 4
  },
  {
   "alignment" : 4,
   "is_integral" : true,
   "is_unsigned" : true,
   "linker_set_key" : "_ZTIj",
   "name" : "unsigned int",
   "referenced_type" : "_ZTIj",
   "self_type" : "_ZTIj",
   "size" : 4
  },
  {
   "alignment" : 8,
   "is_integral" : true,
   "linker_set_key" : "_ZTIl",
   "name" : "long",
   "referenced_type" : "_ZTIl",
   "self_type" : "_ZTIl",
   "size" : 8
  },
  {
   "alignment" : 8,
   "is_integral" : true,
   "is_unsigned" : true,
   "linker_set_key" : "_ZTIm",
   "name" : "unsigned long",
   "referenced_type" : "_ZTIm",
   "self_type" : "_ZTIm",
   "size" : 8
  },
  {
   "alignment" : 16,
   "is_integral" : true,
   "linker_set_key" : "_ZTIn",
   "name" : "__int128",
   "referenced_type" : "_ZTIn",
   "self_type" : "_ZTIn",
   "size" : 16
  },
  {
   "alignment" : 16,
   "is_integral" : true,
   "is_unsigned" : true,
   "linker_set_key" : "_ZTIo",
   "name" : "unsigned __int128",
   "referenced_type" : "_ZTIo",
   "self_type" : "_ZTIo",
   "size" : 16
  },
  {
   "alignment" : 2,
   "is_integral" : true,
   "linker_set_key" : "_ZTIs",
   "name" : "short",
   "referenced_type" : "_ZTIs",
   "self_type" : "_ZTIs",
   "size" : 2
  },
  {
   "alignment" : 2,
   "is_integral" : true,
   "is_unsigned" : true,
   "linker_set_key" : "_ZTIt",
   "name" : "unsigned short",
   "referenced_type" : "_ZTIt",
   "self_type" : "_ZTIt",
   "size" : 2
  },
  {
   "linker_set_key" : "_ZTIv",
   "name" : "void",
   "referenced_type" : "_ZTIv",
   "self_type" : "_ZTIv"
  },
  {
   "alignment" : 4,
   "is_integral" : true,
   "is_unsigned" : true,
   "linker_set_key" : "_ZTIw",
   "name" : "wchar_t",
   "referenced_type" : "_ZTIw",
   "self_type" : "_ZTIw",
   "size" : 4
  },
  {
   "alignment" : 8,
   "is_integral" : true,
   "linker_set_key" : "_ZTIx",
   "name" : "long long",
   "referenced_type" : "_ZTIx",
   "self_type" : "_ZTIx",
   "size" : 8
  },
  {
   "alignment" : 8,
   "is_integral" : true,
   "is_unsigned" : true,
   "linker_set_key" : "_ZTIy",
   "name" : "unsigned long long",
   "referenced_type" : "_ZTIy",
   "self_type" : "_ZTIy",
   "size" : 8
  }
 ],
 "elf_functions" : [],
 "elf_objects" : [],
 "enum_types" :
 [
  {
   "alignment" : 4,
   "enum_fields" :
   [
    {
     "enum_field_value" : 1,
     "name" : "std::__1::chars_format::scientific"
    },
    {
     "enum_field_value" : 2,
     "name" : "std::__1::chars_format::fixed"
    },
    {
     "enum_field_value" : 4,
     "name" : "std::__1::chars_format::hex"
    },
    {
     "enum_field_value" : 3,
     "name" : "std::__1::chars_format::general"
    }
   ],
   "linker_set_key" : "_ZTINSt3__112chars_formatE",
   "name" : "std::chars_format",
   "referenced_type" : "_ZTINSt3__112chars_formatE",
   "self_type" : "_ZTINSt3__112chars_formatE",
   "size" : 4,
   "source_file" : "external/libcxx/include/charconv",
   "underlying_type" : "_ZTIi"
  },
  {
   "alignment" : 4,
   "enum_fields" :
   [
    {
     "enum_field_value" : -1,
     "name" : "std::__1::round_indeterminate"
    },
    {
     "enum_field_value" : 0,
     "name" : "std::__1::round_toward_zero"
    },
    {
     "enum_field_value" : 1,
     "name" : "std::__1::round_to_nearest"
    },
    {
     "enum_field_value" : 2,
     "name" : "std::__1::round_toward_infinity"
    },
    {
     "enum_field_value" : 3,
     "name" : "std::__1::round_toward_neg_infinity"
    }
   ],
   "linker_set_key" : "_ZTINSt3__117float_round_styleE",
   "name" : "std::float_round_style",
   "referenced_type" : "_ZTINSt3__117float_round_styleE",
   "self_type" : "_ZTINSt3__117float_round_styleE",
   "size" : 4,
   "source_file" : "external/libcxx/include/limits",
   "underlying_type" : "_ZTIi"
  },
  {
   "alignment" : 4,
   "enum_fields" :
   [
    {
     "enum_field_value" : -1,
     "name" : "std::__1::denorm_indeterminate"
    },
    {
     "enum_field_value" : 0,
     "name" : "std::__1::denorm_absent"
    },
    {
     "enum_field_value" : 1,
     "name" : "std::__1::denorm_present"
    }
   ],
   "linker_set_key" : "_ZTINSt3__118float_denorm_styleE",
   "name" : "std::float_denorm_style",
   "referenced_type" : "_ZTINSt3__118float_denorm_styleE",
   "self_type" : "_ZTINSt3__118float_denorm_styleE",
   "size" : 4,
   "source_file" : "external/libcxx/include/limits",
   "underlying_type" : "_ZTIi"
  },
  {
   "alignment" : 4,
   "enum_fields" :
   [
    {
     "enum_field_value" : 97,
     "name" : "std::__1::errc::address_family_not_supported"
    },
    {
     "enum_field_value" : 98,
     "name" : "std::__1::errc::address_in_use"
    },
    {
     "enum_field_value" : 99,
     "name" : "std::__1::errc::address_not_available"
    },
    {
     "enum_field_value" : 106,
     "name" : "std::__1::errc::already_connected"
    },
    {
     "enum_field_value" : 7,
     "name" : "std::__1::errc::argument_list_too_long"
    },
    {
     "enum_field_value" : 33,
     "name" : "std::__1::errc::argument_out_of_domain"
    },
    {
     "enum_field_value" : 14,
     "name" : "std::__1::errc::bad_address"
    },
    {
     "enum_field_value" : 9,
     "name" : "std::__1::errc::bad_file_descriptor"
    },
    {
     "enum_field_value" : 74,
     "name" : "std::__1::errc::bad_message"
    },
    {
     "enum_field_value" : 32,
     "name" : "std::__1::errc::broken_pipe"
    },
    {
     "enum_field_value" : 103,
     "name" : "std::__1::errc::connection_aborted"
    },
    {
     "enum_field_value" : 114,
     "name" : "std::__1::errc::connection_already_in_progress"
    },
    {
     "enum_field_value" : 111,
     "name" : "std::__1::errc::connection_refused"
    },
    {
     "enum_field_value" : 104,
     "name" : "std::__1::errc::connection_reset"
    },
    {
     "enum_field_value" : 18,
     "name" : "std::__1::errc::cross_device_link"
    },
    {
     "enum_field_value" : 89,
     "name" : "std::__1::errc::destination_address_required"
    },
    {
     "enum_field_value" : 16,
     "name" : "std::__1::errc::device_or_resource_busy"
    },
    {
     "enum_field_value" : 39,
     "name" : "std::__1::errc::directory_not_empty"
    },
    {
     "enum_field_value" : 8,
     "name" : "std::__1::errc::executable_format_error"
    },
    {
     "enum_field_value" : 17,
     "name" : "std::__1::errc::file_exists"
    },
    {
     "enum_field_value" : 27,
     "name" : "std::__1::errc::file_too_large"
    },
    {
     "enum_field_value" : 36,
     "name" : "std::__1::errc::filename_too_long"
    },
    {
     "enum_field_value" : 38,
     "name" : "std::__1::errc::function_not_supported"
    },
    {
     "enum_field_value" : 113,
     "name" : "std::__1::errc::host_unreachable"
    },
    {
     "enum_field_value" : 43,
     "name" : "std::__1::errc::identifier_removed"
    },
    {
     "enum_field_value" : 84,
     "name" : "std::__1::errc::illegal_byte_sequence"
    },
    {
     "enum_field_value" : 25,
     "name" : "std::__1::errc::inappropriate_io_control_operation"
    },
    {
     "enum_field_value" : 4,
     "name" : "std::__1::errc::interrupted"
    },
    {
     "enum_field_value" : 22,
     "name" : "std::__1::errc::invalid_argument"
    },
    {
     "enum_field_value" : 29,
     "name" : "std::__1::errc::invalid_seek"
    },
    {
     "enum_field_value" : 5,
     "name" : "std::__1::errc::io_error"
    },
    {
     "enum_field_value" : 21,
     "name" : "std::__1::errc::is_a_directory"
    },
    {
     "enum_field_value" : 90,
     "name" : "std::__1::errc::message_size"
    },
    {
     "enum_field_value" : 100,
     "name" : "std::__1::errc::network_down"
    },
    {
     "enum_field_value" : 102,
     "name" : "std::__1::errc::network_reset"
    },
    {
     "enum_field_value" : 101,
     "name" : "std::__1::errc::network_unreachable"
    },
    {
     "enum_field_value" : 105,
     "name" : "std::__1::errc::no_buffer_space"
    },
    {
     "enum_field_value" : 10,
     "name" : "std::__1::errc::no_child_process"
    },
    {
     "enum_field_value" : 67,
     "name" : "std::__1::errc::no_link"
    },
    {
     "enum_field_value" : 37,
     "name" : "std::__1::errc::no_lock_available"
    },
    {
     "enum_field_value" : 61,
     "name" : "std::__1::errc::no_message_available"
    },
    {
     "enum_field_value" : 42,
     "name" : "std::__1::errc::no_message"
    },
    {
     "enum_field_value" : 92,
     "name" : "std::__1::errc::no_protocol_option"
    },
    {
     "enum_field_value" : 28,
     "name" : "std::__1::errc::no_space_on_device"
    },
    {
     "enum_field_value" : 63,
     "name" : "std::__1::errc::no_stream_resources"
    },
    {
     "enum_field_value" : 6,
     "name" : "std::__1::errc::no_such_device_or_address"
    },
    {
     "enum_field_value" : 19,
     "name" : "std::__1::errc::no_such_device"
    },
    {
     "enum_field_value" : 2,
     "name" : "std::__1::errc::no_such_file_or_directory"
    },
    {
     "enum_field_value" : 3,
     "name" : "std::__1::errc::no_such_process"
    },
    {
     "enum_field_value" : 20,
     "name" : "std::__1::errc::not_a_directory"
    },
    {
     "enum_field_value" : 88,
     "name" : "std::__1::errc::not_a_socket"
    },
    {
     "enum_field_value" : 60,
     "name" : "std::__1::errc::not_a_stream"
    },
    {
     "enum_field_value" : 107,
     "name" : "std::__1::errc::not_connected"
    },
    {
     "enum_field_value" : 12,
     "name" : "std::__1::errc::not_enough_memory"
    },
    {
     "enum_field_value" : 95,
     "name" : "std::__1::errc::not_supported"
    },
    {
     "enum_field_value" : 125,
     "name" : "std::__1::errc::operation_canceled"
    },
    {
     "enum_field_value" : 115,
     "name" : "std::__1::errc::operation_in_progress"
    },
    {
     "enum_field_value" : 1,
     "name" : "std::__1::errc::operation_not_permitted"
    },
    {
     "enum_field_value" : 95,
     "name" : "std::__1::errc::operation_not_supported"
    },
    {
     "enum_field_value" : 11,
     "name" : "std::__1::errc::operation_would_block"
    },
    {
     "enum_field_value" : 130,
     "name" : "std::__1::errc::owner_dead"
    },
    {
     "enum_field_value" : 13,
     "name" : "std::__1::errc::permission_denied"
    },
    {
     "enum_field_value" : 71,
     "name" : "std::__1::errc::protocol_error"
    },
    {
     "enum_field_value" : 93,
     "name" : "std::__1::errc::protocol_not_supported"
    },
    {
     "enum_field_value" : 30,
     "name" : "std::__1::errc::read_only_file_system"
    },
    {
     "enum_field_value" : 35,
     "name" : "std::__1::errc::resource_deadlock_would_occur"
    },
    {
     "enum_field_value" : 11,
     "name" : "std::__1::errc::resource_unavailable_try_again"
    },
    {
     "enum_field_value" : 34,
     "name" : "std::__1::errc::result_out_of_range"
    },
    {
     "enum_field_value" : 131,
     "name" : "std::__1::errc::state_not_recoverable"
    },
    {
     "enum_field_value" : 62,
     "name" : "std::__1::errc::stream_timeout"
    },
    {
     "enum_field_value" : 26,
     "name" : "std::__1::errc::text_file_busy"
    },
    {
     "enum_field_value" : 110,
     "name" : "std::__1::errc::timed_out"
    },
    {
     "enum_field_value" : 23,
     "name" : "std::__1::errc::too_many_files_open_in_system"
    },
    {
     "enum_field_value" : 24,
     "name" : "std::__1::errc::too_many_files_open"
    },
    {
     "enum_field_value" : 31,
     "name" : "std::__1::errc::too_many_links"
    },
    {
     "enum_field_value" : 40,
     "name" : "std::__1::errc::too_many_symbolic_link_levels"
    },
    {
     "enum_field_value" : 75,
     "name" : "std::__1::errc::value_too_large"
    },
    {
     "enum_field_value" : 91,
     "name" : "std::__1::errc::wrong_protocol_type"
    }
   ],
   "linker_set_key" : "_ZTINSt3__14errcE",
   "name" : "std::errc",
   "referenced_type" : "_ZTINSt3__14errcE",
   "self_type" : "_ZTINSt3__14errcE",
   "size" : 4,
   "source_file" : "external/libcxx/include/__errc",
   "underlying_type" : "_ZTIi"
  }
 ],
 "function_types" :
 [
  {
   "alignment" : 4,
   "linker_set_key" : "_ZTIFvRKNSt3__119__libcpp_debug_infoEE",
   "name" : "void (const std::__1::__libcpp_debug_info &)",
   "parameters" :
   [
    {
     "referenced_type" : "_ZTIRKNSt3__119__libcpp_debug_infoE"
    }
   ],
   "referenced_type" : "_ZTIFvRKNSt3__119__libcpp_debug_infoEE",
   "return_type" : "_ZTIv",
   "self_type" : "_ZTIFvRKNSt3__119__libcpp_debug_infoEE",
   "source_file" : "external/libcxx/include/__debug"
  }
 ],
 "functions" :
 [
  {
   "function_name" : "nexttoward",
   "linker_set_key" : "_Z10nexttowardee",
   "parameters" :
   [
    {
     "referenced_type" : "_ZTIe"
    },
    {
     "referenced_type" : "_ZTIe"
    }
   ],
   "return_type" : "_ZTIe",
   "source_file" : "external/libcxx/include/math.h"
  },
  {
   "function_name" : "nexttoward",
   "linker_set_key" : "_Z10nexttowardfe",
   "parameters" :
   [
    {
     "referenced_type" : "_ZTIf"
    },
    {
     "referenced_type" : "_ZTIe"
    }
   ],
   "return_type" : "_ZTIf",
   "source_file" : "external/libcxx/include/math.h"
  },
  {
   "function_name" : "__libcpp_isinf",
   "linker_set_key" : "_Z14__libcpp_isinfIdEbT_",
   "parameters" :
   [
    {
     "referenced_type" : "_ZTId"
    }
   ],
   "return_type" : "_ZTIb",
   "source_file" : "external/libcxx/include/math.h",
   "template_args" : [ "_ZTId" ]
  },
  {
   "function_name" : "__libcpp_isinf",
   "linker_set_key" : "_Z14__libcpp_isinfIeEbT_",
   "parameters" :
   [
    {
     "referenced_type" : "_ZTIe"
    }
   ],
   "return_type" : "_ZTIb",
   "source_file" : "external/libcxx/include/math.h",
   "template_args" : [ "_ZTIe" ]
  },
  {
   "function_name" : "__libcpp_isinf",
   "linker_set_key" : "_Z14__libcpp_isinfIfEbT_",
   "parameters" :
   [
    {
     "referenced_type" : "_ZTIf"
    }
   ],
   "return_type" : "_ZTIb",
   "source_file" : "external/libcxx/include/math.h",
   "template_args" : [ "_ZTIf" ]
  },
  {
   "function_name" : "__libcpp_isnan",
   "linker_set_key" : "_Z14__libcpp_isnanIdEbT_",
   "parameters" :
   [
    {
     "referenced_type" : "_ZTId"
    }
   ],
   "return_type" : "_ZTIb",
   "source_file" : "external/libcxx/include/math.h",
   "template_args" : [ "_ZTId" ]
  },
  {
   "function_name" : "__libcpp_isnan",
   "linker_set_key" : "_Z14__libcpp_isnanIeEbT_",
   "parameters" :
   [
    {
     "referenced_type" : "_ZTIe"
    }
   ],
   "return_type" : "_ZTIb",
   "source_file" : "external/libcxx/include/math.h",
   "template_args" : [ "_ZTIe" ]
  },
  {
   "function_name" : "__libcpp_isnan",
   "linker_set_key" : "_Z14__libcpp_isnanIfEbT_",
   "parameters" :
   [
    {
     "referenced_type" : "_ZTIf"
    }
   ],
   "return_type" : "_ZTIb",
   "source_file" : "external/libcxx/include/math.h",
   "template_args" : [ "_ZTIf" ]
  },
  {
   "function_name" : "__libcpp_memchr",
   "linker_set_key" : "_Z15__libcpp_memchrPKvim",
   "parameters" :
   [
    {
     "referenced_type" : "_ZTIPKv"
    },
    {
     "referenced_type" : "_ZTIi"
    },
    {
     "referenced_type" : "_ZTIm"
    }
   ],
   "return_type" : "_ZTIPv",
   "source_file" : "external/libcxx/include/string.h"
  },
  {
   "function_name" : "__libcpp_strchr",
   "linker_set_key" : "_Z15__libcpp_strchrPKci",
   "parameters" :
   [
    {
     "referenced_type" : "_ZTIPKc"
    },
    {
     "referenced_type" : "_ZTIi"
    }
   ],
   "return_type" : "_ZTIPc",
   "source_file" : "external/libcxx/include/string.h"
  },
  {
   "function_name" : "__libcpp_strstr",
   "linker_set_key" : "_Z15__libcpp_strstrPKcS0_",
   "parameters" :
   [
    {
     "referenced_type" : "_ZTIPKc"
    },
    {
     "referenced_type" : "_ZTIPKc"
    }
   ],
   "return_type" : "_ZTIPc",
   "source_file" : "external/libcxx/include/string.h"
  },
  {
   "function_name" : "__libcpp_strpbrk",
   "linker_set_key" : "_Z16__libcpp_strpbrkPKcS0_",
   "parameters" :
   [
    {
     "referenced_type" : "_ZTIPKc"
    },
    {
     "referenced_type" : "_ZTIPKc"
    }
   ],
   "return_type" : "_ZTIPc",
   "source_file" : "external/libcxx/include/string.h"
  },
  {
   "function_name" : "__libcpp_strrchr",
   "linker_set_key" : "_Z16__libcpp_strrchrPKci",
   "parameters" :
   [
    {
     "referenced_type" : "_ZTIPKc"
    },
    {
     "referenced_type" : "_ZTIi"
    }
   ],
   "return_type" : "_ZTIPc",
   "source_file" : "external/libcxx/include/string.h"
  },
  {
   "function_name" : "abs",
   "linker_set_key" : "_Z3absd",
   "parameters" :
   [
    {
     "referenced_type" : "_ZTId"
    }
   ],
   "return_type" : "_ZTId",
   "source_file" : "external/libcxx/include/math.h"
  },
  {
   "function_name" : "abs",
   "linker_set_key" : "_Z3abse",
   "parameters" :
   [
    {
     "referenced_type" : "_ZTIe"
    }
   ],
   "return_type" : "_ZTIe",
   "source_file" : "external/libcxx/include/math.h"
  },
  {
   "function_name" : "abs",
   "linker_set_key" : "_Z3absf",
   "parameters" :
   [
    {
     "referenced_type" : "_ZTIf"
    }
   ],
   "return_type" : "_ZTIf",
   "source_file" : "external/libcxx/include/math.h"
  },
  {
   "function_name" : "abs",
   "linker_set_key" : "_Z3absl",
   "parameters" :
   [
    {
     "referenced_type" : "_ZTIl"
    }
   ],
   "return_type" : "_ZTIl",
   "source_file" : "external/libcxx/include/stdlib.h"
  },
  {
   "function_name" : "abs",
   "linker_set_key" : "_Z3absx",
   "parameters" :
   [
    {
     "referenced_type" : "_ZTIx"
    }
   ],
   "return_type" : "_ZTIx",
   "source_file" : "external/libcxx/include/stdlib.h"
  },
  {
   "function_name" : "cos",
   "linker_set_key" : "_Z3cose",
   "parameters" :
   [
    {
     "referenced_type" : "_ZTIe"
    }
   ],
   "return_type" : "_ZTIe",
   "source_file" : "external/libcxx/include/math.h"
  },
  {
   "function_name" : "cos",
   "linker_set_key" : "_Z3cosf",
   "parameters" :
   [
    {
     "referenced_type" : "_ZTIf"
    }
   ],
   "return_type" : "_ZTIf",
   "source_file" : "external/libcxx/include/math.h"
  },
  {
   "function_name" : "div",
   "linker_set_key" : "_Z3divll",
   "parameters" :
   [
    {
     "referenced_type" : "_ZTIl"
    },
    {
     "referenced_type" : "_ZTIl"
    }
   ],
   "return_type" : "_ZTI6ldiv_t",
   "source_file" : "external/libcxx/include/stdlib.h"
  },
  {
   "function_name" : "div",
   "linker_set_key" : "_Z3divxx",
   "parameters" :
   [
    {
     "referenced_type" : "_ZTIx"
    },
    {
     "referenced_type" : "_ZTIx"
    }
   ],
   "return_type" : "_ZTI7lldiv_t",
   "source_file" : "external/libcxx/include/stdlib.h"
  },
  {
   "function_name" : "erf",
   "linker_set_key" : "_Z3erfe",
   "parameters" :
   [
    {
     "referenced_type" : "_ZTIe"
    }
   ],
   "return_type" : "_ZTIe",
   "source_file" : "external/libcxx/include/math.h"
  },
  {
   "function_name" : "erf",
   "linker_set_key" : "_Z3erff",
   "parameters" :
   [
    {
     "referenced_type" : "_ZTIf"
    }
   ],
   "return_type" : "_ZTIf",
   "source_file" : "external/libcxx/include/math.h"
  },
  {
   "function_name" : "exp",
   "linker_set_key" : "_Z3expe",
   "parameters" :
   [
    {
     "referenced_type" : "_ZTIe"
    }
   ],
   "return_type" : "_ZTIe",
   "source_file" : "external/libcxx/include/math.h"
  },
  {
   "function_name" : "exp",
   "linker_set_key" : "_Z3expf",
   "parameters" :
   [
    {
     "referenced_type" : "_ZTIf"
    }
   ],
   "return_type" : "_ZTIf",
   "source_file" : "external/libcxx/include/math.h"
  },
  {
   "function_name" : "fma",
   "linker_set_key" : "_Z3fmaeee",
   "parameters" :
   [
    {
     "referenced_type" : "_ZTIe"
    },
    {
     "referenced_type" : "_ZTIe"
    },
    {
     "referenced_type" : "_ZTIe"
    }
   ],
   "return_type" : "_ZTIe",
   "source_file" : "external/libcxx/include/math.h"
  },
  {
   "function_name" : "fma",
   "linker_set_key" : "_Z3fmafff",
   "parameters" :
   [
    {
     "referenced_type" : "_ZTIf"
    },
    {
     "referenced_type" : "_ZTIf"
    },
    {
     "referenced_type" : "_ZTIf"
    }
   ],
   "return_type" : "_ZTIf",
   "source_file" : "external/libcxx/include/math.h"
  },
  {
   "function_name" : "log",
   "linker_set_key" : "_Z3loge",
   "parameters" :
   [
    {
     "referenced_type" : "_ZTIe"
    }
   ],
   "return_type" : "_ZTIe",
   "source_file" : "external/libcxx/include/math.h"
  },
  {
   "function_name" : "log",
   "linker_set_key" : "_Z3logf",
   "parameters" :
   [
    {
     "referenced_type" : "_ZTIf"
    }
   ],
   "return_type" : "_ZTIf",
   "source_file" : "external/libcxx/include/math.h"
  },
  {
   "function_name" : "pow",
   "linker_set_key" : "_Z3powee",
   "parameters" :
   [
    {
     "referenced_type" : "_ZTIe"
    },
    {
     "referenced_type" : "_ZTIe"
    }
   ],
   "return_type" : "_ZTIe",
   "source_file" : "external/libcxx/include/math.h"
  },
  {
   "function_name" : "pow",
   "linker_set_key" : "_Z3powff",
   "parameters" :
   [
    {
     "referenced_type" : "_ZTIf"
    },
    {
     "referenced_type" : "_ZTIf"
    }
   ],
   "return_type" : "_ZTIf",
   "source_file" : "external/libcxx/include/math.h"
  },
  {
   "function_name" : "sin",
   "linker_set_key" : "_Z3sine",
   "parameters" :
   [
    {
     "referenced_type" : "_ZTIe"
    }
   ],
   "return_type" : "_ZTIe",
   "source_file" : "external/libcxx/include/math.h"
  },
  {
   "function_name" : "sin",
   "linker_set_key" : "_Z3sinf",
   "parameters" :
   [
    {
     "referenced_type" : "_ZTIf"
    }
   ],
   "return_type" : "_ZTIf",
   "source_file" : "external/libcxx/include/math.h"
  },
  {
   "function_name" : "tan",
   "linker_set_key" : "_Z3tane",
   "parameters" :
   [
    {
     "referenced_type" : "_ZTIe"
    }
   ],
   "return_type" : "_ZTIe",
   "source_file" : "external/libcxx/include/math.h"
  },
  {
   "function_name" : "tan",
   "linker_set_key" : "_Z3tanf",
   "parameters" :
   [
    {
     "referenced_type" : "_ZTIf"
    }
   ],
   "return_type" : "_ZTIf",
   "source_file" : "external/libcxx/include/math.h"
  },
  {
   "function_name" : "acos",
   "linker_set_key" : "_Z4acose",
   "parameters" :
   [
    {
     "referenced_type" : "_ZTIe"
    }
   ],
   "return_type" : "_ZTIe",
   "source_file" : "external/libcxx/include/math.h"
  },
  {
   "function_name" : "acos",
   "linker_set_key" : "_Z4acosf",
   "parameters" :
   [
    {
     "referenced_type" : "_ZTIf"
    }
   ],
   "return_type" : "_ZTIf",
   "source_file" : "external/libcxx/include/math.h"
  },
  {
   "function_name" : "asin",
   "linker_set_key" : "_Z4asine",
   "parameters" :
   [
    {
     "referenced_type" : "_ZTIe"
    }
   ],
   "return_type" : "_ZTIe",
   "source_file" : "external/libcxx/include/math.h"
  },
  {
   "function_name" : "asin",
   "linker_set_key" : "_Z4asinf",
   "parameters" :
   [
    {
     "referenced_type" : "_ZTIf"
    }
   ],
   "return_type" : "_ZTIf",
   "source_file" : "external/libcxx/include/math.h"
  },
  {
   "function_name" : "atan",
   "linker_set_key" : "_Z4atane",
   "parameters" :
   [
    {
     "referenced_type" : "_ZTIe"
    }
   ],
   "return_type" : "_ZTIe",
   "source_file" : "external/libcxx/include/math.h"
  },
  {
   "function_name" : "atan",
   "linker_set_key" : "_Z4atanf",
   "parameters" :
   [
    {
     "referenced_type" : "_ZTIf"
    }
   ],
   "return_type" : "_ZTIf",
   "source_file" : "external/libcxx/include/math.h"
  },
  {
   "function_name" : "cbrt",
   "linker_set_key" : "_Z4cbrte",
   "parameters" :
   [
    {
     "referenced_type" : "_ZTIe"
    }
   ],
   "return_type" : "_ZTIe",
   "source_file" : "external/libcxx/include/math.h"
  },
  {
   "function_name" : "cbrt",
   "linker_set_key" : "_Z4cbrtf",
   "parameters" :
   [
    {
     "referenced_type" : "_ZTIf"
    }
   ],
   "return_type" : "_ZTIf",
   "source_file" : "external/libcxx/include/math.h"
  },
  {
   "function_name" : "ceil",
   "linker_set_key" : "_Z4ceile",
   "parameters" :
   [
    {
     "referenced_type" : "_ZTIe"
    }
   ],
   "return_type" : "_ZTIe",
   "source_file" : "external/libcxx/include/math.h"
  },
  {
   "function_name" : "ceil",
   "linker_set_key" : "_Z4ceilf",
   "parameters" :
   [
    {
     "referenced_type" : "_ZTIf"
    }
   ],
   "return_type" : "_ZTIf",
   "source_file" : "external/libcxx/include/math.h"
  },
  {
   "function_name" : "cosh",
   "linker_set_key" : "_Z4coshe",
   "parameters" :
   [
    {
     "referenced_type" : "_ZTIe"
    }
   ],
   "return_type" : "_ZTIe",
   "source_file" : "external/libcxx/include/math.h"
  },
  {
   "function_name" : "cosh",
   "linker_set_key" : "_Z4coshf",
   "parameters" :
   [
    {
     "referenced_type" : "_ZTIf"
    }
   ],
   "return_type" : "_ZTIf",
   "source_file" : "external/libcxx/include/math.h"
  },
  {
   "function_name" : "erfc",
   "linker_set_key" : "_Z4erfce",
   "parameters" :
   [
    {
     "referenced_type" : "_ZTIe"
    }
   ],
   "return_type" : "_ZTIe",
   "source_file" : "external/libcxx/include/math.h"
  },
  {
   "function_name" : "erfc",
   "linker_set_key" : "_Z4erfcf",
   "parameters" :
   [
    {
     "referenced_type" : "_ZTIf"
    }
   ],
   "return_type" : "_ZTIf",
   "source_file" : "external/libcxx/include/math.h"
  },
  {
   "function_name" : "exp2",
   "linker_set_key" : "_Z4exp2e",
   "parameters" :
   [
    {
     "referenced_type" : "_ZTIe"
    }
   ],
   "return_type" : "_ZTIe",
   "source_file" : "external/libcxx/include/math.h"
  },
  {
   "function_name" : "exp2",
   "linker_set_key" : "_Z4exp2f",
   "parameters" :
   [
    {
     "referenced_type" : "_ZTIf"
    }
   ],
   "return_type" : "_ZTIf",
   "source_file" : "external/libcxx/include/math.h"
  },
  {
   "function_name" : "fabs",
   "linker_set_key" : "_Z4fabse",
   "parameters" :
   [
    {
     "referenced_type" : "_ZTIe"
    }
   ],
   "return_type" : "_ZTIe",
   "source_file" : "external/libcxx/include/math.h"
  },
  {
   "function_name" : "fabs",
   "linker_set_key" : "_Z4fabsf",
   "parameters" :
   [
    {
     "referenced_type" : "_ZTIf"
    }
   ],
   "return_type" : "_ZTIf",
   "source_file" : "external/libcxx/include/math.h"
  },
  {
   "function_name" : "fdim",
   "linker_set_key" : "_Z4fdimee",
   "parameters" :
   [
    {
     "referenced_type" : "_ZTIe"
    },
    {
     "referenced_type" : "_ZTIe"
    }
   ],
   "return_type" : "_ZTIe",
   "source_file" : "external/libcxx/include/math.h"
  },
  {
   "function_name" : "fdim",
   "linker_set_key" : "_Z4fdimff",
   "parameters" :
   [
    {
     "referenced_type" : "_ZTIf"
    },
    {
     "referenced_type" : "_ZTIf"
    }
   ],
   "return_type" : "_ZTIf",
   "source_file" : "external/libcxx/include/math.h"
  },
  {
   "function_name" : "fmax",
   "linker_set_key" : "_Z4fmaxee",
   "parameters" :
   [
    {
     "referenced_type" : "_ZTIe"
    },
    {
     "referenced_type" : "_ZTIe"
    }
   ],
   "return_type" : "_ZTIe",
   "source_file" : "external/libcxx/include/math.h"
  },
  {
   "function_name" : "fmax",
   "linker_set_key" : "_Z4fmaxff",
   "parameters" :
   [
    {
     "referenced_type" : "_ZTIf"
    },
    {
     "referenced_type" : "_ZTIf"
    }
   ],
   "return_type" : "_ZTIf",
   "source_file" : "external/libcxx/include/math.h"
  },
  {
   "function_name" : "fmin",
   "linker_set_key" : "_Z4fminee",
   "parameters" :
   [
    {
     "referenced_type" : "_ZTIe"
    },
    {
     "referenced_type" : "_ZTIe"
    }
   ],
   "return_type" : "_ZTIe",
   "source_file" : "external/libcxx/include/math.h"
  },
  {
   "function_name" : "fmin",
   "linker_set_key" : "_Z4fminff",
   "parameters" :
   [
    {
     "referenced_type" : "_ZTIf"
    },
    {
     "referenced_type" : "_ZTIf"
    }
   ],
   "return_type" : "_ZTIf",
   "source_file" : "external/libcxx/include/math.h"
  },
  {
   "function_name" : "fmod",
   "linker_set_key" : "_Z4fmodee",
   "parameters" :
   [
    {
     "referenced_type" : "_ZTIe"
    },
    {
     "referenced_type" : "_ZTIe"
    }
   ],
   "return_type" : "_ZTIe",
   "source_file" : "external/libcxx/include/math.h"
  },
  {
   "function_name" : "fmod",
   "linker_set_key" : "_Z4fmodff",
   "parameters" :
   [
    {
     "referenced_type" : "_ZTIf"
    },
    {
     "referenced_type" : "_ZTIf"
    }
   ],
   "return_type" : "_ZTIf",
   "source_file" : "external/libcxx/include/math.h"
  },
  {
   "function_name" : "log2",
   "linker_set_key" : "_Z4log2e",
   "parameters" :
   [
    {
     "referenced_type" : "_ZTIe"
    }
   ],
   "return_type" : "_ZTIe",
   "source_file" : "external/libcxx/include/math.h"
  },
  {
   "function_name" : "log2",
   "linker_set_key" : "_Z4log2f",
   "parameters" :
   [
    {
     "referenced_type" : "_ZTIf"
    }
   ],
   "return_type" : "_ZTIf",
   "source_file" : "external/libcxx/include/math.h"
  },
  {
   "function_name" : "logb",
   "linker_set_key" : "_Z4logbe",
   "parameters" :
   [
    {
     "referenced_type" : "_ZTIe"
    }
   ],
   "return_type" : "_ZTIe",
   "source_file" : "external/libcxx/include/math.h"
  },
  {
   "function_name" : "logb",
   "linker_set_key" : "_Z4logbf",
   "parameters" :
   [
    {
     "referenced_type" : "_ZTIf"
    }
   ],
   "return_type" : "_ZTIf",
   "source_file" : "external/libcxx/include/math.h"
  },
  {
   "function_name" : "modf",
   "linker_set_key" : "_Z4modfePe",
   "parameters" :
   [
    {
     "referenced_type" : "_ZTIe"
    },
    {
     "referenced_type" : "_ZTIPe"
    }
   ],
   "return_type" : "_ZTIe",
   "source_file" : "external/libcxx/include/math.h"
  },
  {
   "function_name" : "modf",
   "linker_set_key" : "_Z4modffPf",
   "parameters" :
   [
    {
     "referenced_type" : "_ZTIf"
    },
    {
     "referenced_type" : "_ZTIPf"
    }
   ],
   "return_type" : "_ZTIf",
   "source_file" : "external/libcxx/include/math.h"
  },
  {
   "function_name" : "rint",
   "linker_set_key" : "_Z4rinte",
   "parameters" :
   [
    {
     "referenced_type" : "_ZTIe"
    }
   ],
   "return_type" : "_ZTIe",
   "source_file" : "external/libcxx/include/math.h"
  },
  {
   "function_name" : "rint",
   "linker_set_key" : "_Z4rintf",
   "parameters" :
   [
    {
     "referenced_type" : "_ZTIf"
    }
   ],
   "return_type" : "_ZTIf",
   "source_file" : "external/libcxx/include/math.h"
  },
  {
   "function_name" : "sinh",
   "linker_set_key" : "_Z4sinhe",
   "parameters" :
   [
    {
     "referenced_type" : "_ZTIe"
    }
   ],
   "return_type" : "_ZTIe",
   "source_file" : "external/libcxx/include/math.h"
  },
  {
   "function_name" : "sinh",
   "linker_set_key" : "_Z4sinhf",
   "parameters" :
   [
    {
     "referenced_type" : "_ZTIf"
    }
   ],
   "return_type" : "_ZTIf",
   "source_file" : "external/libcxx/include/math.h"
  },
  {
   "function_name" : "sqrt",
   "linker_set_key" : "_Z4sqrte",
   "parameters" :
   [
    {
     "referenced_type" : "_ZTIe"
    }
   ],
   "return_type" : "_ZTIe",
   "source_file" : "external/libcxx/include/math.h"
  },
  {
   "function_name" : "sqrt",
   "linker_set_key" : "_Z4sqrtf",
   "parameters" :
   [
    {
     "referenced_type" : "_ZTIf"
    }
   ],
   "return_type" : "_ZTIf",
   "source_file" : "external/libcxx/include/math.h"
  },
  {
   "function_name" : "tanh",
   "linker_set_key" : "_Z4tanhe",
   "parameters" :
   [
    {
     "referenced_type" : "_ZTIe"
    }
   ],
   "return_type" : "_ZTIe",
   "source_file" : "external/libcxx/include/math.h"
  },
  {
   "function_name" : "tanh",
   "linker_set_key" : "_Z4tanhf",
   "parameters" :
   [
    {
     "referenced_type" : "_ZTIf"
    }
   ],
   "return_type" : "_ZTIf",
   "source_file" : "external/libcxx/include/math.h"
  },
  {
   "function_name" : "acosh",
   "linker_set_key" : "_Z5acoshe",
   "parameters" :
   [
    {
     "referenced_type" : "_ZTIe"
    }
   ],
   "return_type" : "_ZTIe",
   "source_file" : "external/libcxx/include/math.h"
  },
  {
   "function_name" : "acosh",
   "linker_set_key" : "_Z5acoshf",
   "parameters" :
   [
    {
     "referenced_type" : "_ZTIf"
    }
   ],
   "return_type" : "_ZTIf",
   "source_file" : "external/libcxx/include/math.h"
  },
  {
   "function_name" : "asinh",
   "linker_set_key" : "_Z5asinhe",
   "parameters" :
   [
    {
     "referenced_type" : "_ZTIe"
    }
   ],
   "return_type" : "_ZTIe",
   "source_file" : "external/libcxx/include/math.h"
  },
  {
   "function_name" : "asinh",
   "linker_set_key" : "_Z5asinhf",
   "parameters" :
   [
    {
     "referenced_type" : "_ZTIf"
    }
   ],
   "return_type" : "_ZTIf",
   "source_file" : "external/libcxx/include/math.h"
  },
  {
   "function_name" : "atan2",
   "linker_set_key" : "_Z5atan2ee",
   "parameters" :
   [
    {
     "referenced_type" : "_ZTIe"
    },
    {
     "referenced_type" : "_ZTIe"
    }
   ],
   "return_type" : "_ZTIe",
   "source_file" : "external/libcxx/include/math.h"
  },
  {
   "function_name" : "atan2",
   "linker_set_key" : "_Z5atan2ff",
   "parameters" :
   [
    {
     "referenced_type" : "_ZTIf"
    },
    {
     "referenced_type" : "_ZTIf"
    }
   ],
   "return_type" : "_ZTIf",
   "source_file" : "external/libcxx/include/math.h"
  },
  {
   "function_name" : "atanh",
   "linker_set_key" : "_Z5atanhe",
   "parameters" :
   [
    {
     "referenced_type" : "_ZTIe"
    }
   ],
   "return_type" : "_ZTIe",
   "source_file" : "external/libcxx/include/math.h"
  },
  {
   "function_name" : "atanh",
   "linker_set_key" : "_Z5atanhf",
   "parameters" :
   [
    {
     "referenced_type" : "_ZTIf"
    }
   ],
   "return_type" : "_ZTIf",
   "source_file" : "external/libcxx/include/math.h"
  },
  {
   "function_name" : "expm1",
   "linker_set_key" : "_Z5expm1e",
   "parameters" :
   [
    {
     "referenced_type" : "_ZTIe"
    }
   ],
   "return_type" : "_ZTIe",
   "source_file" : "external/libcxx/include/math.h"
  },
  {
   "function_name" : "expm1",
   "linker_set_key" : "_Z5expm1f",
   "parameters" :
   [
    {
     "referenced_type" : "_ZTIf"
    }
   ],
   "return_type" : "_ZTIf",
   "source_file" : "external/libcxx/include/math.h"
  },
  {
   "function_name" : "floor",
   "linker_set_key" : "_Z5floore",
   "parameters" :
   [
    {
     "referenced_type" : "_ZTIe"
    }
   ],
   "return_type" : "_ZTIe",
   "source_file" : "external/libcxx/include/math.h"
  },
  {
   "function_name" : "floor",
   "linker_set_key" : "_Z5floorf",
   "parameters" :
   [
    {
     "referenced_type" : "_ZTIf"
    }
   ],
   "return_type" : "_ZTIf",
   "source_file" : "external/libcxx/include/math.h"
  },
  {
   "function_name" : "frexp",
   "linker_set_key" : "_Z5frexpePi",
   "parameters" :
   [
    {
     "referenced_type" : "_ZTIe"
    },
    {
     "referenced_type" : "_ZTIPi"
    }
   ],
   "return_type" : "_ZTIe",
   "source_file" : "external/libcxx/include/math.h"
  },
  {
   "function_name" : "frexp",
   "linker_set_key" : "_Z5frexpfPi",
   "parameters" :
   [
    {
     "referenced_type" : "_ZTIf"
    },
    {
     "referenced_type" : "_ZTIPi"
    }
   ],
   "return_type" : "_ZTIf",
   "source_file" : "external/libcxx/include/math.h"
  },
  {
   "function_name" : "hypot",
   "linker_set_key" : "_Z5hypotee",
   "parameters" :
   [
    {
     "referenced_type" : "_ZTIe"
    },
    {
     "referenced_type" : "_ZTIe"
    }
   ],
   "return_type" : "_ZTIe",
   "source_file" : "external/libcxx/include/math.h"
  },
  {
   "function_name" : "hypot",
   "linker_set_key" : "_Z5hypotff",
   "parameters" :
   [
    {
     "referenced_type" : "_ZTIf"
    },
    {
     "referenced_type" : "_ZTIf"
    }
   ],
   "return_type" : "_ZTIf",
   "source_file" : "external/libcxx/include/math.h"
  },
  {
   "function_name" : "ilogb",
   "linker_set_key" : "_Z5ilogbe",
   "parameters" :
   [
    {
     "referenced_type" : "_ZTIe"
    }
   ],
   "return_type" : "_ZTIi",
   "source_file" : "external/libcxx/include/math.h"
  },
  {
   "function_name" : "ilogb",
   "linker_set_key" : "_Z5ilogbf",
   "parameters" :
   [
    {
     "referenced_type" : "_ZTIf"
    }
   ],
   "return_type" : "_ZTIi",
   "source_file" : "external/libcxx/include/math.h"
  },
  {
   "function_name" : "isinf",
   "linker_set_key" : "_Z5isinfUa9enable_ifIXLb1EEEd",
   "parameters" :
   [
    {
     "referenced_type" : "_ZTId"
    }
   ],
   "return_type" : "_ZTIb",
   "source_file" : "external/libcxx/include/math.h"
  },
  {
   "function_name" : "isinf",
   "linker_set_key" : "_Z5isinfe",
   "parameters" :
   [
    {
     "referenced_type" : "_ZTIe"
    }
   ],
   "return_type" : "_ZTIb",
   "source_file" : "external/libcxx/include/math.h"
  },
  {
   "function_name" : "isinf",
   "linker_set_key" : "_Z5isinff",
   "parameters" :
   [
    {
     "referenced_type" : "_ZTIf"
    }
   ],
   "return_type" : "_ZTIb",
   "source_file" : "external/libcxx/include/math.h"
  },
  {
   "function_name" : "isnan",
   "linker_set_key" : "_Z5isnanUa9enable_ifIXLb1EEEd",
   "parameters" :
   [
    {
     "referenced_type" : "_ZTId"
    }
   ],
   "return_type" : "_ZTIb",
   "source_file" : "external/libcxx/include/math.h"
  },
  {
   "function_name" : "isnan",
   "linker_set_key" : "_Z5isnane",
   "parameters" :
   [
    {
     "referenced_type" : "_ZTIe"
    }
   ],
   "return_type" : "_ZTIb",
   "source_file" : "external/libcxx/include/math.h"
  },
  {
   "function_name" : "isnan",
   "linker_set_key" : "_Z5isnanf",
   "parameters" :
   [
    {
     "referenced_type" : "_ZTIf"
    }
   ],
   "return_type" : "_ZTIb",
   "source_file" : "external/libcxx/include/math.h"
  },
  {
   "function_name" : "ldexp",
   "linker_set_key" : "_Z5ldexpei",
   "parameters" :
   [
    {
     "referenced_type" : "_ZTIe"
    },
    {
     "referenced_type" : "_ZTIi"
    }
   ],
   "return_type" : "_ZTIe",
   "source_file" : "external/libcxx/include/math.h"
  },
  {
   "function_name" : "ldexp",
   "linker_set_key" : "_Z5ldexpfi",
   "parameters" :
   [
    {
     "referenced_type" : "_ZTIf"
    },
    {
     "referenced_type" : "_ZTIi"
    }
   ],
   "return_type" : "_ZTIf",
   "source_file" : "external/libcxx/include/math.h"
  },
  {
   "function_name" : "log10",
   "linker_set_key" : "_Z5log10e",
   "parameters" :
   [
    {
     "referenced_type" : "_ZTIe"
    }
   ],
   "return_type" : "_ZTIe",
   "source_file" : "external/libcxx/include/math.h"
  },
  {
   "function_name" : "log10",
   "linker_set_key" : "_Z5log10f",
   "parameters" :
   [
    {
     "referenced_type" : "_ZTIf"
    }
   ],
   "return_type" : "_ZTIf",
   "source_file" : "external/libcxx/include/math.h"
  },
  {
   "function_name" : "log1p",
   "linker_set_key" : "_Z5log1pe",
   "parameters" :
   [
    {
     "referenced_type" : "_ZTIe"
    }
   ],
   "return_type" : "_ZTIe",
   "source_file" : "external/libcxx/include/math.h"
  },
  {
   "function_name" : "log1p",
   "linker_set_key" : "_Z5log1pf",
   "parameters" :
   [
    {
     "referenced_type" : "_ZTIf"
    }
   ],
   "return_type" : "_ZTIf",
   "source_file" : "external/libcxx/include/math.h"
  },
  {
   "function_name" : "lrint",
   "linker_set_key" : "_Z5lrinte",
   "parameters" :
   [
    {
     "referenced_type" : "_ZTIe"
    }
   ],
   "return_type" : "_ZTIl",
   "source_file" : "external/libcxx/include/math.h"
  },
  {
   "function_name" : "lrint",
   "linker_set_key" : "_Z5lrintf",
   "parameters" :
   [
    {
     "referenced_type" : "_ZTIf"
    }
   ],
   "return_type" : "_ZTIl",
   "source_file" : "external/libcxx/include/math.h"
  },
  {
   "function_name" : "round",
   "linker_set_key" : "_Z5rounde",
   "parameters" :
   [
    {
     "referenced_type" : "_ZTIe"
    }
   ],
   "return_type" : "_ZTIe",
   "source_file" : "external/libcxx/include/math.h"
  },
  {
   "function_name" : "round",
   "linker_set_key" : "_Z5roundf",
   "parameters" :
   [
    {
     "referenced_type" : "_ZTIf"
    }
   ],
   "return_type" : "_ZTIf",
   "source_file" : "external/libcxx/include/math.h"
  },
  {
   "function_name" : "trunc",
   "linker_set_key" : "_Z5trunce",
   "parameters" :
   [
    {
     "referenced_type" : "_ZTIe"
    }
   ],
   "return_type" : "_ZTIe",
   "source_file" : "external/libcxx/include/math.h"
  },
  {
   "function_name" : "trunc",
   "linker_set_key" : "_Z5truncf",
   "parameters" :
   [
    {
     "referenced_type" : "_ZTIf"
    }
   ],
   "return_type" : "_ZTIf",
   "source_file" : "external/libcxx/include/math.h"
  },
  {
   "function_name" : "lgamma",
   "linker_set_key" : "_Z6lgammae",
   "parameters" :
   [
    {
     "referenced_type" : "_ZTIe"
    }
   ],
   "return_type" : "_ZTIe",
   "source_file" : "external/libcxx/include/math.h"
  },
  {
   "function_name" : "lgamma",
   "linker_set_key" : "_Z6lgammaf",
   "parameters" :
   [
    {
     "referenced_type" : "_ZTIf"
    }
   ],
   "return_type" : "_ZTIf",
   "source_file" : "external/libcxx/include/math.h"
  },
  {
   "function_name" : "llrint",
   "linker_set_key" : "_Z6llrinte",
   "parameters" :
   [
    {
     "referenced_type" : "_ZTIe"
    }
   ],
   "return_type" : "_ZTIx",
   "source_file" : "external/libcxx/include/math.h"
  },
  {
   "function_name" : "llrint",
   "linker_set_key" : "_Z6llrintf",
   "parameters" :
   [
    {
     "referenced_type" : "_ZTIf"
    }
   ],
   "return_type" : "_ZTIx",
   "source_file" : "external/libcxx/include/math.h"
  },
  {
   "function_name" : "lround",
   "linker_set_key" : "_Z6lrounde",
   "parameters" :
   [
    {
     "referenced_type" : "_ZTIe"
    }
   ],
   "return_type" : "_ZTIl",
   "source_file" : "external/libcxx/include/math.h"
  },
  {
   "function_name" : "lround",
   "linker_set_key" : "_Z6lroundf",
   "parameters" :
   [
    {
     "referenced_type" : "_ZTIf"
    }
   ],
   "return_type" : "_ZTIl",
   "source_file" : "external/libcxx/include/math.h"
  },
  {
   "function_name" : "memchr",
   "linker_set_key" : "_Z6memchrUa9enable_ifIXLb1EEEPKvim",
   "parameters" :
   [
    {
     "referenced_type" : "_ZTIPKv"
    },
    {
     "referenced_type" : "_ZTIi"
    },
    {
     "referenced_type" : "_ZTIm"
    }
   ],
   "return_type" : "_ZTIPKv",
   "source_file" : "external/libcxx/include/string.h"
  },
  {
   "function_name" : "memchr",
   "linker_set_key" : "_Z6memchrUa9enable_ifIXLb1EEEPvim",
   "parameters" :
   [
    {
     "referenced_type" : "_ZTIPv"
    },
    {
     "referenced_type" : "_ZTIi"
    },
    {
     "referenced_type" : "_ZTIm"
    }
   ],
   "return_type" : "_ZTIPv",
   "source_file" : "external/libcxx/include/string.h"
  },
  {
   "function_name" : "remquo",
   "linker_set_key" : "_Z6remquoeePi",
   "parameters" :
   [
    {
     "referenced_type" : "_ZTIe"
    },
    {
     "referenced_type" : "_ZTIe"
    },
    {
     "referenced_type" : "_ZTIPi"
    }
   ],
   "return_type" : "_ZTIe",
   "source_file" : "external/libcxx/include/math.h"
  },
  {
   "function_name" : "remquo",
   "linker_set_key" : "_Z6remquoffPi",
   "parameters" :
   [
    {
     "referenced_type" : "_ZTIf"
    },
    {
     "referenced_type" : "_ZTIf"
    },
    {
     "referenced_type" : "_ZTIPi"
    }
   ],
   "return_type" : "_ZTIf",
   "source_file" : "external/libcxx/include/math.h"
  },
  {
   "function_name" : "scalbn",
   "linker_set_key" : "_Z6scalbnei",
   "parameters" :
   [
    {
     "referenced_type" : "_ZTIe"
    },
    {
     "referenced_type" : "_ZTIi"
    }
   ],
   "return_type" : "_ZTIe",
   "source_file" : "external/libcxx/include/math.h"
  },
  {
   "function_name" : "scalbn",
   "linker_set_key" : "_Z6scalbnfi",
   "parameters" :
   [
    {
     "referenced_type" : "_ZTIf"
    },
    {
     "referenced_type" : "_ZTIi"
    }
   ],
   "return_type" : "_ZTIf",
   "source_file" : "external/libcxx/include/math.h"
  },
  {
   "function_name" : "strchr",
   "linker_set_key" : "_Z6strchrUa9enable_ifIXLb1EEEPKci",
   "parameters" :
   [
    {
     "referenced_type" : "_ZTIPKc"
    },
    {
     "referenced_type" : "_ZTIi"
    }
   ],
   "return_type" : "_ZTIPKc",
   "source_file" : "external/libcxx/include/string.h"
  },
  {
   "function_name" : "strchr",
   "linker_set_key" : "_Z6strchrUa9enable_ifIXLb1EEEPci",
   "parameters" :
   [
    {
     "referenced_type" : "_ZTIPc"
    },
    {
     "referenced_type" : "_ZTIi"
    }
   ],
   "return_type" : "_ZTIPc",
   "source_file" : "external/libcxx/include/string.h"
  },
  {
   "function_name" : "strstr",
   "linker_set_key" : "_Z6strstrUa9enable_ifIXLb1EEEPKcS0_",
   "parameters" :
   [
    {
     "referenced_type" : "_ZTIPKc"
    },
    {
     "referenced_type" : "_ZTIPKc"
    }
   ],
   "return_type" : "_ZTIPKc",
   "source_file" : "external/libcxx/include/string.h"
  },
  {
   "function_name" : "strstr",
   "linker_set_key" : "_Z6strstrUa9enable_ifIXLb1EEEPcPKc",
   "parameters" :
   [
    {
     "referenced_type" : "_ZTIPc"
    },
    {
     "referenced_type" : "_ZTIPKc"
    }
   ],
   "return_type" : "_ZTIPc",
   "source_file" : "external/libcxx/include/string.h"
  },
  {
   "function_name" : "tgamma",
   "linker_set_key" : "_Z6tgammae",
   "parameters" :
   [
    {
     "referenced_type" : "_ZTIe"
    }
   ],
   "return_type" : "_ZTIe",
   "source_file" : "external/libcxx/include/math.h"
  },
  {
   "function_name" : "tgamma",
   "linker_set_key" : "_Z6tgammaf",
   "parameters" :
   [
    {
     "referenced_type" : "_ZTIf"
    }
   ],
   "return_type" : "_ZTIf",
   "source_file" : "external/libcxx/include/math.h"
  },
  {
   "function_name" : "llround",
   "linker_set_key" : "_Z7llrounde",
   "parameters" :
   [
    {
     "referenced_type" : "_ZTIe"
    }
   ],
   "return_type" : "_ZTIx",
   "source_file" : "external/libcxx/include/math.h"
  },
  {
   "function_name" : "llround",
   "linker_set_key" : "_Z7llroundf",
   "parameters" :
   [
    {
     "referenced_type" : "_ZTIf"
    }
   ],
   "return_type" : "_ZTIx",
   "source_file" : "external/libcxx/include/math.h"
  },
  {
   "function_name" : "scalbln",
   "linker_set_key" : "_Z7scalblnel",
   "parameters" :
   [
    {
     "referenced_type" : "_ZTIe"
    },
    {
     "referenced_type" : "_ZTIl"
    }
   ],
   "return_type" : "_ZTIe",
   "source_file" : "external/libcxx/include/math.h"
  },
  {
   "function_name" : "scalbln",
   "linker_set_key" : "_Z7scalblnfl",
   "parameters" :
   [
    {
     "referenced_type" : "_ZTIf"
    },
    {
     "referenced_type" : "_ZTIl"
    }
   ],
   "return_type" : "_ZTIf",
   "source_file" : "external/libcxx/include/math.h"
  },
  {
   "function_name" : "strpbrk",
   "linker_set_key" : "_Z7strpbrkUa9enable_ifIXLb1EEEPKcS0_",
   "parameters" :
   [
    {
     "referenced_type" : "_ZTIPKc"
    },
    {
     "referenced_type" : "_ZTIPKc"
    }
   ],
   "return_type" : "_ZTIPKc",
   "source_file" : "external/libcxx/include/string.h"
  },
  {
   "function_name" : "strpbrk",
   "linker_set_key" : "_Z7strpbrkUa9enable_ifIXLb1EEEPcPKc",
   "parameters" :
   [
    {
     "referenced_type" : "_ZTIPc"
    },
    {
     "referenced_type" : "_ZTIPKc"
    }
   ],
   "return_type" : "_ZTIPc",
   "source_file" : "external/libcxx/include/string.h"
  },
  {
   "function_name" : "strrchr",
   "linker_set_key" : "_Z7strrchrUa9enable_ifIXLb1EEEPKci",
   "parameters" :
   [
    {
     "referenced_type" : "_ZTIPKc"
    },
    {
     "referenced_type" : "_ZTIi"
    }
   ],
   "return_type" : "_ZTIPKc",
   "source_file" : "external/libcxx/include/string.h"
  },
  {
   "function_name" : "strrchr",
   "linker_set_key" : "_Z7strrchrUa9enable_ifIXLb1EEEPci",
   "parameters" :
   [
    {
     "referenced_type" : "_ZTIPc"
    },
    {
     "referenced_type" : "_ZTIi"
    }
   ],
   "return_type" : "_ZTIPc",
   "source_file" : "external/libcxx/include/string.h"
  },
  {
   "function_name" : "copysign",
   "linker_set_key" : "_Z8copysignee",
   "parameters" :
   [
    {
     "referenced_type" : "_ZTIe"
    },
    {
     "referenced_type" : "_ZTIe"
    }
   ],
   "return_type" : "_ZTIe",
   "source_file" : "external/libcxx/include/math.h"
  },
  {
   "function_name" : "copysign",
   "linker_set_key" : "_Z8copysignff",
   "parameters" :
   [
    {
     "referenced_type" : "_ZTIf"
    },
    {
     "referenced_type" : "_ZTIf"
    }
   ],
   "return_type" : "_ZTIf",
   "source_file" : "external/libcxx/include/math.h"
  },
  {
   "function_name" : "nearbyint",
   "linker_set_key" : "_Z9nearbyinte",
   "parameters" :
   [
    {
     "referenced_type" : "_ZTIe"
    }
   ],
   "return_type" : "_ZTIe",
   "source_file" : "external/libcxx/include/math.h"
  },
  {
   "function_name" : "nearbyint",
   "linker_set_key" : "_Z9nearbyintf",
   "parameters" :
   [
    {
     "referenced_type" : "_ZTIf"
    }
   ],
   "return_type" : "_ZTIf",
   "source_file" : "external/libcxx/include/math.h"
  },
  {
   "function_name" : "nextafter",
   "linker_set_key" : "_Z9nextafteree",
   "parameters" :
   [
    {
     "referenced_type" : "_ZTIe"
    },
    {
     "referenced_type" : "_ZTIe"
    }
   ],
   "return_type" : "_ZTIe",
   "source_file" : "external/libcxx/include/math.h"
  },
  {
   "function_name" : "nextafter",
   "linker_set_key" : "_Z9nextafterff",
   "parameters" :
   [
    {
     "referenced_type" : "_ZTIf"
    },
    {
     "referenced_type" : "_ZTIf"
    }
   ],
   "return_type" : "_ZTIf",
   "source_file" : "external/libcxx/include/math.h"
  },
  {
   "function_name" : "remainder",
   "linker_set_key" : "_Z9remainderee",
   "parameters" :
   [
    {
     "referenced_type" : "_ZTIe"
    },
    {
     "referenced_type" : "_ZTIe"
    }
   ],
   "return_type" : "_ZTIe",
   "source_file" : "external/libcxx/include/math.h"
  },
  {
   "function_name" : "remainder",
   "linker_set_key" : "_Z9remainderff",
   "parameters" :
   [
    {
     "referenced_type" : "_ZTIf"
    },
    {
     "referenced_type" : "_ZTIf"
    }
   ],
   "return_type" : "_ZTIf",
   "source_file" : "external/libcxx/include/math.h"
  },
  {
   "function_name" : "std::exception_ptr::operator bool",
   "linker_set_key" : "_ZNKSt13exception_ptrcvbEv",
   "parameters" :
   [
    {
     "is_this_ptr" : true,
     "referenced_type" : "_ZTIPKSt13exception_ptr"
    }
   ],
   "return_type" : "_ZTIb",
   "source_file" : "external/libcxx/include/exception"
  },
  {
   "function_name" : "std::nested_exception::nested_ptr",
   "linker_set_key" : "_ZNKSt16nested_exception10nested_ptrEv",
   "parameters" :
   [
    {
     "is_this_ptr" : true,
     "referenced_type" : "_ZTIPKSt16nested_exception"
    }
   ],
   "return_type" : "_ZTISt13exception_ptr",
   "source_file" : "external/libcxx/include/exception"
  },
  {
   "function_name" : "std::__1::__in_pattern_result::operator bool",
   "linker_set_key" : "_ZNKSt3__119__in_pattern_resultcvbEv",
   "parameters" :
   [
    {
     "is_this_ptr" : true,
     "referenced_type" : "_ZTIPKNSt3__119__in_pattern_resultE"
    }
   ],
   "return_type" : "_ZTIb",
   "source_file" : "external/libcxx/include/charconv"
  },
  {
   "function_name" : "std::bad_exception::bad_exception",
   "linker_set_key" : "_ZNSt13bad_exceptionC1Ev",
   "parameters" :
   [
    {
     "is_this_ptr" : true,
     "referenced_type" : "_ZTIPSt13bad_exception"
    }
   ],
   "return_type" : "_ZTIv",
   "source_file" : "external/libcxx/include/exception"
  },
  {
   "function_name" : "std::bad_exception::bad_exception",
   "linker_set_key" : "_ZNSt13bad_exceptionC2Ev",
   "parameters" :
   [
    {
     "is_this_ptr" : true,
     "referenced_type" : "_ZTIPSt13bad_exception"
    }
   ],
   "return_type" : "_ZTIv",
   "source_file" : "external/libcxx/include/exception"
  },
  {
   "function_name" : "std::exception_ptr::exception_ptr",
   "linker_set_key" : "_ZNSt13exception_ptrC1EDn",
   "parameters" :
   [
    {
     "is_this_ptr" : true,
     "referenced_type" : "_ZTIPSt13exception_ptr"
    },
    {
     "referenced_type" : "_ZTIDn"
    }
   ],
   "return_type" : "_ZTIv",
   "source_file" : "external/libcxx/include/exception"
  },
  {
   "function_name" : "std::exception_ptr::exception_ptr",
   "linker_set_key" : "_ZNSt13exception_ptrC1Ev",
   "parameters" :
   [
    {
     "is_this_ptr" : true,
     "referenced_type" : "_ZTIPSt13exception_ptr"
    }
   ],
   "return_type" : "_ZTIv",
   "source_file" : "external/libcxx/include/exception"
  },
  {
   "function_name" : "std::exception_ptr::exception_ptr",
   "linker_set_key" : "_ZNSt13exception_ptrC2EDn",
   "parameters" :
   [
    {
     "is_this_ptr" : true,
     "referenced_type" : "_ZTIPSt13exception_ptr"
    },
    {
     "referenced_type" : "_ZTIDn"
    }
   ],
   "return_type" : "_ZTIv",
   "source_file" : "external/libcxx/include/exception"
  },
  {
   "function_name" : "std::exception_ptr::exception_ptr",
   "linker_set_key" : "_ZNSt13exception_ptrC2Ev",
   "parameters" :
   [
    {
     "is_this_ptr" : true,
     "referenced_type" : "_ZTIPSt13exception_ptr"
    }
   ],
   "return_type" : "_ZTIv",
   "source_file" : "external/libcxx/include/exception"
  },
  {
   "function_name" : "std::__1::numeric_limits<unsigned char>::max",
   "linker_set_key" : "_ZNSt3__114numeric_limitsIhE3maxEv",
   "return_type" : "_ZTIh",
   "source_file" : "external/libcxx/include/limits"
  },
  {
   "function_name" : "std::__1::numeric_limits<unsigned short>::max",
   "linker_set_key" : "_ZNSt3__114numeric_limitsItE3maxEv",
   "return_type" : "_ZTIt",
   "source_file" : "external/libcxx/include/limits"
  },
  {
   "function_name" : "std::__1::__libcpp_debug_info::__libcpp_debug_info",
   "linker_set_key" : "_ZNSt3__119__libcpp_debug_infoC1EPKciS2_S2_",
   "parameters" :
   [
    {
     "is_this_ptr" : true,
     "referenced_type" : "_ZTIPNSt3__119__libcpp_debug_infoE"
    },
    {
     "referenced_type" : "_ZTIPKc"
    },
    {
     "referenced_type" : "_ZTIi"
    },
    {
     "referenced_type" : "_ZTIPKc"
    },
    {
     "referenced_type" : "_ZTIPKc"
    }
   ],
   "return_type" : "_ZTIv",
   "source_file" : "external/libcxx/include/__debug"
  },
  {
   "function_name" : "std::__1::__libcpp_debug_info::__libcpp_debug_info",
   "linker_set_key" : "_ZNSt3__119__libcpp_debug_infoC1Ev",
   "parameters" :
   [
    {
     "is_this_ptr" : true,
     "referenced_type" : "_ZTIPNSt3__119__libcpp_debug_infoE"
    }
   ],
   "return_type" : "_ZTIv",
   "source_file" : "external/libcxx/include/__debug"
  },
  {
   "function_name" : "std::__1::__libcpp_debug_info::__libcpp_debug_info",
   "linker_set_key" : "_ZNSt3__119__libcpp_debug_infoC2EPKciS2_S2_",
   "parameters" :
   [
    {
     "is_this_ptr" : true,
     "referenced_type" : "_ZTIPNSt3__119__libcpp_debug_infoE"
    },
    {
     "referenced_type" : "_ZTIPKc"
    },
    {
     "referenced_type" : "_ZTIi"
    },
    {
     "referenced_type" : "_ZTIPKc"
    },
    {
     "referenced_type" : "_ZTIPKc"
    }
   ],
   "return_type" : "_ZTIv",
   "source_file" : "external/libcxx/include/__debug"
  },
  {
   "function_name" : "std::__1::__libcpp_debug_info::__libcpp_debug_info",
   "linker_set_key" : "_ZNSt3__119__libcpp_debug_infoC2Ev",
   "parameters" :
   [
    {
     "is_this_ptr" : true,
     "referenced_type" : "_ZTIPNSt3__119__libcpp_debug_infoE"
    }
   ],
   "return_type" : "_ZTIv",
   "source_file" : "external/libcxx/include/__debug"
  },
  {
   "function_name" : "std::__1::__convert_to_integral",
   "linker_set_key" : "_ZNSt3__121__convert_to_integralEi",
   "parameters" :
   [
    {
     "referenced_type" : "_ZTIi"
    }
   ],
   "return_type" : "_ZTIi",
   "source_file" : "external/libcxx/include/type_traits"
  },
  {
   "function_name" : "std::__1::__convert_to_integral",
   "linker_set_key" : "_ZNSt3__121__convert_to_integralEj",
   "parameters" :
   [
    {
     "referenced_type" : "_ZTIj"
    }
   ],
   "return_type" : "_ZTIj",
   "source_file" : "external/libcxx/include/type_traits"
  },
  {
   "function_name" : "std::__1::__convert_to_integral",
   "linker_set_key" : "_ZNSt3__121__convert_to_integralEl",
   "parameters" :
   [
    {
     "referenced_type" : "_ZTIl"
    }
   ],
   "return_type" : "_ZTIl",
   "source_file" : "external/libcxx/include/type_traits"
  },
  {
   "function_name" : "std::__1::__convert_to_integral",
   "linker_set_key" : "_ZNSt3__121__convert_to_integralEm",
   "parameters" :
   [
    {
     "referenced_type" : "_ZTIm"
    }
   ],
   "return_type" : "_ZTIm",
   "source_file" : "external/libcxx/include/type_traits"
  },
  {
   "function_name" : "std::__1::__convert_to_integral",
   "linker_set_key" : "_ZNSt3__121__convert_to_integralEn",
   "parameters" :
   [
    {
     "referenced_type" : "_ZTIn"
    }
   ],
   "return_type" : "_ZTIn",
   "source_file" : "external/libcxx/include/type_traits"
  },
  {
   "function_name" : "std::__1::__convert_to_integral",
   "linker_set_key" : "_ZNSt3__121__convert_to_integralEo",
   "parameters" :
   [
    {
     "referenced_type" : "_ZTIo"
    }
   ],
   "return_type" : "_ZTIo",
   "source_file" : "external/libcxx/include/type_traits"
  },
  {
   "function_name" : "std::__1::__convert_to_integral",
   "linker_set_key" : "_ZNSt3__121__convert_to_integralEx",
   "parameters" :
   [
    {
     "referenced_type" : "_ZTIx"
    }
   ],
   "return_type" : "_ZTIx",
   "source_file" : "external/libcxx/include/type_traits"
  },
  {
   "function_name" : "std::__1::__convert_to_integral",
   "linker_set_key" : "_ZNSt3__121__convert_to_integralEy",
   "parameters" :
   [
    {
     "referenced_type" : "_ZTIy"
    }
   ],
   "return_type" : "_ZTIy",
   "source_file" : "external/libcxx/include/type_traits"
  },
  {
   "access" : "protected",
   "function_name" : "std::__1::__libcpp_numeric_limits<bool, true>::denorm_min",
   "linker_set_key" : "_ZNSt3__123__libcpp_numeric_limitsIbLb1EE10denorm_minEv",
   "return_type" : "_ZTIb",
   "source_file" : "external/libcxx/include/limits"
  },
  {
   "access" : "protected",
   "function_name" : "std::__1::__libcpp_numeric_limits<bool, true>::round_error",
   "linker_set_key" : "_ZNSt3__123__libcpp_numeric_limitsIbLb1EE11round_errorEv",
   "return_type" : "_ZTIb",
   "source_file" : "external/libcxx/include/limits"
  },
  {
   "access" : "protected",
   "function_name" : "std::__1::__libcpp_numeric_limits<bool, true>::signaling_NaN",
   "linker_set_key" : "_ZNSt3__123__libcpp_numeric_limitsIbLb1EE13signaling_NaNEv",
   "return_type" : "_ZTIb",
   "source_file" : "external/libcxx/include/limits"
  },
  {
   "access" : "protected",
   "function_name" : "std::__1::__libcpp_numeric_limits<bool, true>::max",
   "linker_set_key" : "_ZNSt3__123__libcpp_numeric_limitsIbLb1EE3maxEv",
   "return_type" : "_ZTIb",
   "source_file" : "external/libcxx/include/limits"
  },
  {
   "access" : "protected",
   "function_name" : "std::__1::__libcpp_numeric_limits<bool, true>::min",
   "linker_set_key" : "_ZNSt3__123__libcpp_numeric_limitsIbLb1EE3minEv",
   "return_type" : "_ZTIb",
   "source_file" : "external/libcxx/include/limits"
  },
  {
   "access" : "protected",
   "function_name" : "std::__1::__libcpp_numeric_limits<bool, true>::lowest",
   "linker_set_key" : "_ZNSt3__123__libcpp_numeric_limitsIbLb1EE6lowestEv",
   "return_type" : "_ZTIb",
   "source_file" : "external/libcxx/include/limits"
  },
  {
   "access" : "protected",
   "function_name" : "std::__1::__libcpp_numeric_limits<bool, true>::epsilon",
   "linker_set_key" : "_ZNSt3__123__libcpp_numeric_limitsIbLb1EE7epsilonEv",
   "return_type" : "_ZTIb",
   "source_file" : "external/libcxx/include/limits"
  },
  {
   "access" : "protected",
   "function_name" : "std::__1::__libcpp_numeric_limits<bool, true>::infinity",
   "linker_set_key" : "_ZNSt3__123__libcpp_numeric_limitsIbLb1EE8infinityEv",
   "return_type" : "_ZTIb",
   "source_file" : "external/libcxx/include/limits"
  },
  {
   "access" : "protected",
   "function_name" : "std::__1::__libcpp_numeric_limits<bool, true>::quiet_NaN",
   "linker_set_key" : "_ZNSt3__123__libcpp_numeric_limitsIbLb1EE9quiet_NaNEv",
   "return_type" : "_ZTIb",
   "source_file" : "external/libcxx/include/limits"
  },
  {
   "access" : "protected",
   "function_name" : "std::__1::__libcpp_numeric_limits<double, true>::denorm_min",
   "linker_set_key" : "_ZNSt3__123__libcpp_numeric_limitsIdLb1EE10denorm_minEv",
   "return_type" : "_ZTId",
   "source_file" : "external/libcxx/include/limits"
  },
  {
   "access" : "protected",
   "function_name" : "std::__1::__libcpp_numeric_limits<double, true>::round_error",
   "linker_set_key" : "_ZNSt3__123__libcpp_numeric_limitsIdLb1EE11round_errorEv",
   "return_type" : "_ZTId",
   "source_file" : "external/libcxx/include/limits"
  },
  {
   "access" : "protected",
   "function_name" : "std::__1::__libcpp_numeric_limits<double, true>::signaling_NaN",
   "linker_set_key" : "_ZNSt3__123__libcpp_numeric_limitsIdLb1EE13signaling_NaNEv",
   "return_type" : "_ZTId",
   "source_file" : "external/libcxx/include/limits"
  },
  {
   "access" : "protected",
   "function_name" : "std::__1::__libcpp_numeric_limits<double, true>::max",
   "linker_set_key" : "_ZNSt3__123__libcpp_numeric_limitsIdLb1EE3maxEv",
   "return_type" : "_ZTId",
   "source_file" : "external/libcxx/include/limits"
  },
  {
   "access" : "protected",
   "function_name" : "std::__1::__libcpp_numeric_limits<double, true>::min",
   "linker_set_key" : "_ZNSt3__123__libcpp_numeric_limitsIdLb1EE3minEv",
   "return_type" : "_ZTId",
   "source_file" : "external/libcxx/include/limits"
  },
  {
   "access" : "protected",
   "function_name" : "std::__1::__libcpp_numeric_limits<double, true>::lowest",
   "linker_set_key" : "_ZNSt3__123__libcpp_numeric_limitsIdLb1EE6lowestEv",
   "return_type" : "_ZTId",
   "source_file" : "external/libcxx/include/limits"
  },
  {
   "access" : "protected",
   "function_name" : "std::__1::__libcpp_numeric_limits<double, true>::epsilon",
   "linker_set_key" : "_ZNSt3__123__libcpp_numeric_limitsIdLb1EE7epsilonEv",
   "return_type" : "_ZTId",
   "source_file" : "external/libcxx/include/limits"
  },
  {
   "access" : "protected",
   "function_name" : "std::__1::__libcpp_numeric_limits<double, true>::infinity",
   "linker_set_key" : "_ZNSt3__123__libcpp_numeric_limitsIdLb1EE8infinityEv",
   "return_type" : "_ZTId",
   "source_file" : "external/libcxx/include/limits"
  },
  {
   "access" : "protected",
   "function_name" : "std::__1::__libcpp_numeric_limits<double, true>::quiet_NaN",
   "linker_set_key" : "_ZNSt3__123__libcpp_numeric_limitsIdLb1EE9quiet_NaNEv",
   "return_type" : "_ZTId",
   "source_file" : "external/libcxx/include/limits"
  },
  {
   "access" : "protected",
   "function_name" : "std::__1::__libcpp_numeric_limits<long double, true>::denorm_min",
   "linker_set_key" : "_ZNSt3__123__libcpp_numeric_limitsIeLb1EE10denorm_minEv",
   "return_type" : "_ZTIe",
   "source_file" : "external/libcxx/include/limits"
  },
  {
   "access" : "protected",
   "function_name" : "std::__1::__libcpp_numeric_limits<long double, true>::round_error",
   "linker_set_key" : "_ZNSt3__123__libcpp_numeric_limitsIeLb1EE11round_errorEv",
   "return_type" : "_ZTIe",
   "source_file" : "external/libcxx/include/limits"
  },
  {
   "access" : "protected",
   "function_name" : "std::__1::__libcpp_numeric_limits<long double, true>::signaling_NaN",
   "linker_set_key" : "_ZNSt3__123__libcpp_numeric_limitsIeLb1EE13signaling_NaNEv",
   "return_type" : "_ZTIe",
   "source_file" : "external/libcxx/include/limits"
  },
  {
   "access" : "protected",
   "function_name" : "std::__1::__libcpp_numeric_limits<long double, true>::max",
   "linker_set_key" : "_ZNSt3__123__libcpp_numeric_limitsIeLb1EE3maxEv",
   "return_type" : "_ZTIe",
   "source_file" : "external/libcxx/include/limits"
  },
  {
   "access" : "protected",
   "function_name" : "std::__1::__libcpp_numeric_limits<long double, true>::min",
   "linker_set_key" : "_ZNSt3__123__libcpp_numeric_limitsIeLb1EE3minEv",
   "return_type" : "_ZTIe",
   "source_file" : "external/libcxx/include/limits"
  },
  {
   "access" : "protected",
   "function_name" : "std::__1::__libcpp_numeric_limits<long double, true>::lowest",
   "linker_set_key" : "_ZNSt3__123__libcpp_numeric_limitsIeLb1EE6lowestEv",
   "return_type" : "_ZTIe",
   "source_file" : "external/libcxx/include/limits"
  },
  {
   "access" : "protected",
   "function_name" : "std::__1::__libcpp_numeric_limits<long double, true>::epsilon",
   "linker_set_key" : "_ZNSt3__123__libcpp_numeric_limitsIeLb1EE7epsilonEv",
   "return_type" : "_ZTIe",
   "source_file" : "external/libcxx/include/limits"
  },
  {
   "access" : "protected",
   "function_name" : "std::__1::__libcpp_numeric_limits<long double, true>::infinity",
   "linker_set_key" : "_ZNSt3__123__libcpp_numeric_limitsIeLb1EE8infinityEv",
   "return_type" : "_ZTIe",
   "source_file" : "external/libcxx/include/limits"
  },
  {
   "access" : "protected",
   "function_name" : "std::__1::__libcpp_numeric_limits<long double, true>::quiet_NaN",
   "linker_set_key" : "_ZNSt3__123__libcpp_numeric_limitsIeLb1EE9quiet_NaNEv",
   "return_type" : "_ZTIe",
   "source_file" : "external/libcxx/include/limits"
  },
  {
   "access" : "protected",
   "function_name" : "std::__1::__libcpp_numeric_limits<float, true>::denorm_min",
   "linker_set_key" : "_ZNSt3__123__libcpp_numeric_limitsIfLb1EE10denorm_minEv",
   "return_type" : "_ZTIf",
   "source_file" : "external/libcxx/include/limits"
  },
  {
   "access" : "protected",
   "function_name" : "std::__1::__libcpp_numeric_limits<float, true>::round_error",
   "linker_set_key" : "_ZNSt3__123__libcpp_numeric_limitsIfLb1EE11round_errorEv",
   "return_type" : "_ZTIf",
   "source_file" : "external/libcxx/include/limits"
  },
  {
   "access" : "protected",
   "function_name" : "std::__1::__libcpp_numeric_limits<float, true>::signaling_NaN",
   "linker_set_key" : "_ZNSt3__123__libcpp_numeric_limitsIfLb1EE13signaling_NaNEv",
   "return_type" : "_ZTIf",
   "source_file" : "external/libcxx/include/limits"
  },
  {
   "access" : "protected",
   "function_name" : "std::__1::__libcpp_numeric_limits<float, true>::max",
   "linker_set_key" : "_ZNSt3__123__libcpp_numeric_limitsIfLb1EE3maxEv",
   "return_type" : "_ZTIf",
   "source_file" : "external/libcxx/include/limits"
  },
  {
   "access" : "protected",
   "function_name" : "std::__1::__libcpp_numeric_limits<float, true>::min",
   "linker_set_key" : "_ZNSt3__123__libcpp_numeric_limitsIfLb1EE3minEv",
   "return_type" : "_ZTIf",
   "source_file" : "external/libcxx/include/limits"
  },
  {
   "access" : "protected",
   "function_name" : "std::__1::__libcpp_numeric_limits<float, true>::lowest",
   "linker_set_key" : "_ZNSt3__123__libcpp_numeric_limitsIfLb1EE6lowestEv",
   "return_type" : "_ZTIf",
   "source_file" : "external/libcxx/include/limits"
  },
  {
   "access" : "protected",
   "function_name" : "std::__1::__libcpp_numeric_limits<float, true>::epsilon",
   "linker_set_key" : "_ZNSt3__123__libcpp_numeric_limitsIfLb1EE7epsilonEv",
   "return_type" : "_ZTIf",
   "source_file" : "external/libcxx/include/limits"
  },
  {
   "access" : "protected",
   "function_name" : "std::__1::__libcpp_numeric_limits<float, true>::infinity",
   "linker_set_key" : "_ZNSt3__123__libcpp_numeric_limitsIfLb1EE8infinityEv",
   "return_type" : "_ZTIf",
   "source_file" : "external/libcxx/include/limits"
  },
  {
   "access" : "protected",
   "function_name" : "std::__1::__libcpp_numeric_limits<float, true>::quiet_NaN",
   "linker_set_key" : "_ZNSt3__123__libcpp_numeric_limitsIfLb1EE9quiet_NaNEv",
   "return_type" : "_ZTIf",
   "source_file" : "external/libcxx/include/limits"
  },
  {
   "access" : "protected",
   "function_name" : "std::__1::__libcpp_numeric_limits<unsigned char, true>::max",
   "linker_set_key" : "_ZNSt3__123__libcpp_numeric_limitsIhLb1EE3maxEv",
   "return_type" : "_ZTIh",
   "source_file" : "external/libcxx/include/limits"
  },
  {
   "access" : "protected",
   "function_name" : "std::__1::__libcpp_numeric_limits<unsigned short, true>::max",
   "linker_set_key" : "_ZNSt3__123__libcpp_numeric_limitsItLb1EE3maxEv",
   "return_type" : "_ZTIt",
   "source_file" : "external/libcxx/include/limits"
  },
  {
   "function_name" : "std::__1::__itoa::__u32toa",
   "linker_set_key" : "_ZNSt3__16__itoa8__u32toaEjPc",
   "parameters" :
   [
    {
     "referenced_type" : "_ZTIj"
    },
    {
     "referenced_type" : "_ZTIPc"
    }
   ],
   "return_type" : "_ZTIPc",
   "source_file" : "external/libcxx/include/charconv"
  },
  {
   "function_name" : "std::__1::__itoa::__u64toa",
   "linker_set_key" : "_ZNSt3__16__itoa8__u64toaEmPc",
   "parameters" :
   [
    {
     "referenced_type" : "_ZTIm"
    },
    {
     "referenced_type" : "_ZTIPc"
    }
   ],
   "return_type" : "_ZTIPc",
   "source_file" : "external/libcxx/include/charconv"
  },
  {
   "function_name" : "std::__1::__c_node::__c_node",
   "linker_set_key" : "_ZNSt3__18__c_nodeC2EPvPS0_",
   "parameters" :
   [
    {
     "is_this_ptr" : true,
     "referenced_type" : "_ZTIPNSt3__18__c_nodeE"
    },
    {
     "referenced_type" : "_ZTIPv"
    },
    {
     "referenced_type" : "_ZTIPNSt3__18__c_nodeE"
    }
   ],
   "return_type" : "_ZTIv",
   "source_file" : "external/libcxx/include/__debug"
  },
  {
   "function_name" : "std::__1::__i_node::__i_node",
   "linker_set_key" : "_ZNSt3__18__i_nodeC1EPvPS0_PNS_8__c_nodeE",
   "parameters" :
   [
    {
     "is_this_ptr" : true,
     "referenced_type" : "_ZTIPNSt3__18__i_nodeE"
    },
    {
     "referenced_type" : "_ZTIPv"
    },
    {
     "referenced_type" : "_ZTIPNSt3__18__i_nodeE"
    },
    {
     "referenced_type" : "_ZTIPNSt3__18__c_nodeE"
    }
   ],
   "return_type" : "_ZTIv",
   "source_file" : "external/libcxx/include/__debug"
  },
  {
   "function_name" : "std::__1::__i_node::__i_node",
   "linker_set_key" : "_ZNSt3__18__i_nodeC2EPvPS0_PNS_8__c_nodeE",
   "parameters" :
   [
    {
     "is_this_ptr" : true,
     "referenced_type" : "_ZTIPNSt3__18__i_nodeE"
    },
    {
     "referenced_type" : "_ZTIPv"
    },
    {
     "referenced_type" : "_ZTIPNSt3__18__i_nodeE"
    },
    {
     "referenced_type" : "_ZTIPNSt3__18__c_nodeE"
    }
   ],
   "return_type" : "_ZTIv",
   "source_file" : "external/libcxx/include/__debug"
  },
  {
   "function_name" : "std::exception::exception",
   "linker_set_key" : "_ZNSt9exceptionC1Ev",
   "parameters" :
   [
    {
     "is_this_ptr" : true,
     "referenced_type" : "_ZTIPSt9exception"
    }
   ],
   "return_type" : "_ZTIv",
   "source_file" : "external/libcxx/include/exception"
  },
  {
   "function_name" : "std::exception::exception",
   "linker_set_key" : "_ZNSt9exceptionC2Ev",
   "parameters" :
   [
    {
     "is_this_ptr" : true,
     "referenced_type" : "_ZTIPSt9exception"
    }
   ],
   "return_type" : "_ZTIv",
   "source_file" : "external/libcxx/include/exception"
  },
  {
   "function_name" : "std::operator==",
   "linker_set_key" : "_ZSteqRKSt13exception_ptrS1_",
   "parameters" :
   [
    {
     "referenced_type" : "_ZTIRKSt13exception_ptr"
    },
    {
     "referenced_type" : "_ZTIRKSt13exception_ptr"
    }
   ],
   "return_type" : "_ZTIb",
   "source_file" : "external/libcxx/include/exception"
  },
  {
   "function_name" : "std::operator!=",
   "linker_set_key" : "_ZStneRKSt13exception_ptrS1_",
   "parameters" :
   [
    {
     "referenced_type" : "_ZTIRKSt13exception_ptr"
    },
    {
     "referenced_type" : "_ZTIRKSt13exception_ptr"
    }
   ],
   "return_type" : "_ZTIb",
   "source_file" : "external/libcxx/include/exception"
  }
 ],
 "global_vars" :
 [
  {
   "linker_set_key" : "_ZNSt3__112__align_type5valueE",
   "name" : "std::__1::__align_type::value",
   "referenced_type" : "_ZTIKm",
   "source_file" : "external/libcxx/include/type_traits"
  },
  {
   "linker_set_key" : "_ZNSt3__112__static_maxIXT_EJEE5valueE",
   "name" : "std::__1::__static_max<_I0>::value",
   "referenced_type" : "_ZTIKm",
   "source_file" : "external/libcxx/include/type_traits"
  },
  {
   "linker_set_key" : "_ZNSt3__112__static_maxIXT_EJXT0_EXspT1_EEE5valueE",
   "name" : "std::__1::__static_max<_I0, _I1, _In...>::value",
   "referenced_type" : "_ZTIKm",
   "source_file" : "external/libcxx/include/type_traits"
  },
  {
   "linker_set_key" : "_ZNSt3__113__invokable_r5valueE",
   "name" : "std::__1::__invokable_r::value",
   "referenced_type" : "_ZTIKb",
   "source_file" : "external/libcxx/include/type_traits"
  },
  {
   "linker_set_key" : "_ZNSt3__113__promote_imp5valueE",
   "name" : "std::__1::__promote_imp::value",
   "referenced_type" : "_ZTIKb",
   "source_file" : "external/libcxx/include/type_traits"
  },
  {
   "linker_set_key" : "_ZNSt3__113__promote_impIT_T0_T1_Lb1EE5valueE",
   "name" : "std::__1::__promote_imp<type-parameter-0-0, type-parameter-0-1, type-parameter-0-2, true>::value",
   "referenced_type" : "_ZTIKb",
   "source_file" : "external/libcxx/include/type_traits"
  },
  {
   "linker_set_key" : "_ZNSt3__113__promote_impIT_T0_vLb1EE5valueE",
   "name" : "std::__1::__promote_imp<type-parameter-0-0, type-parameter-0-1, void, true>::value",
   "referenced_type" : "_ZTIKb",
   "source_file" : "external/libcxx/include/type_traits"
  },
  {
   "linker_set_key" : "_ZNSt3__113__promote_impIT_vvLb1EE5valueE",
   "name" : "std::__1::__promote_imp<type-parameter-0-0, void, void, true>::value",
   "referenced_type" : "_ZTIKb",
   "source_file" : "external/libcxx/include/type_traits"
  },
  {
   "linker_set_key" : "_ZNSt3__113aligned_union15alignment_valueE",
   "name" : "std::__1::aligned_union::alignment_value",
   "referenced_type" : "_ZTIKm",
   "source_file" : "external/libcxx/include/type_traits"
  },
  {
   "linker_set_key" : "_ZNSt3__113aligned_union5__lenE",
   "name" : "std::__1::aligned_union::__len",
   "referenced_type" : "_ZTIKm",
   "source_file" : "external/libcxx/include/type_traits"
  },
  {
   "linker_set_key" : "_ZNSt3__114__numeric_type5valueE",
   "name" : "std::__1::__numeric_type::value",
   "referenced_type" : "_ZTIKb",
   "source_file" : "external/libcxx/include/type_traits"
  },
  {
   "linker_set_key" : "_ZNSt3__114__numeric_typeIvE5valueE",
   "name" : "std::__1::__numeric_type<void>::value",
   "referenced_type" : "_ZTIKb",
   "source_file" : "external/libcxx/include/type_traits"
  },
  {
   "access" : "private",
   "linker_set_key" : "_ZNSt3__114__select_align5__maxE",
   "name" : "std::__1::__select_align::__max",
   "referenced_type" : "_ZTIKm",
   "source_file" : "external/libcxx/include/type_traits"
  },
  {
   "access" : "private",
   "linker_set_key" : "_ZNSt3__114__select_align5__minE",
   "name" : "std::__1::__select_align::__min",
   "referenced_type" : "_ZTIKm",
   "source_file" : "external/libcxx/include/type_traits"
  },
  {
   "linker_set_key" : "_ZNSt3__114__select_align5valueE",
   "name" : "std::__1::__select_align::value",
   "referenced_type" : "_ZTIKm",
   "source_file" : "external/libcxx/include/type_traits"
  },
  {
   "linker_set_key" : "_ZNSt3__114numeric_limits10has_denormE",
   "name" : "std::__1::numeric_limits::has_denorm",
   "referenced_type" : "_ZTIKNSt3__118float_denorm_styleE",
   "source_file" : "external/libcxx/include/limits"
  },
  {
   "linker_set_key" : "_ZNSt3__114numeric_limits10is_boundedE",
   "name" : "std::__1::numeric_limits::is_bounded",
   "referenced_type" : "_ZTIKb",
   "source_file" : "external/libcxx/include/limits"
  },
  {
   "linker_set_key" : "_ZNSt3__114numeric_limits10is_integerE",
   "name" : "std::__1::numeric_limits::is_integer",
   "referenced_type" : "_ZTIKb",
   "source_file" : "external/libcxx/include/limits"
  },
  {
   "linker_set_key" : "_ZNSt3__114numeric_limits11round_styleE",
   "name" : "std::__1::numeric_limits::round_style",
   "referenced_type" : "_ZTIKNSt3__117float_round_styleE",
   "source_file" : "external/libcxx/include/limits"
  },
  {
   "linker_set_key" : "_ZNSt3__114numeric_limits12has_infinityE",
   "name" : "std::__1::numeric_limits::has_infinity",
   "referenced_type" : "_ZTIKb",
   "source_file" : "external/libcxx/include/limits"
  },
  {
   "linker_set_key" : "_ZNSt3__114numeric_limits12max_digits10E",
   "name" : "std::__1::numeric_limits::max_digits10",
   "referenced_type" : "_ZTIKi",
   "source_file" : "external/libcxx/include/limits"
  },
  {
   "linker_set_key" : "_ZNSt3__114numeric_limits12max_exponentE",
   "name" : "std::__1::numeric_limits::max_exponent",
   "referenced_type" : "_ZTIKi",
   "source_file" : "external/libcxx/include/limits"
  },
  {
   "linker_set_key" : "_ZNSt3__114numeric_limits12min_exponentE",
   "name" : "std::__1::numeric_limits::min_exponent",
   "referenced_type" : "_ZTIKi",
   "source_file" : "external/libcxx/include/limits"
  },
  {
   "linker_set_key" : "_ZNSt3__114numeric_limits13has_quiet_NaNE",
   "name" : "std::__1::numeric_limits::has_quiet_NaN",
   "referenced_type" : "_ZTIKb",
   "source_file" : "external/libcxx/include/limits"
  },
  {
   "linker_set_key" : "_ZNSt3__114numeric_limits14is_specializedE",
   "name" : "std::__1::numeric_limits::is_specialized",
   "referenced_type" : "_ZTIKb",
   "source_file" : "external/libcxx/include/limits"
  },
  {
   "linker_set_key" : "_ZNSt3__114numeric_limits14max_exponent10E",
   "name" : "std::__1::numeric_limits::max_exponent10",
   "referenced_type" : "_ZTIKi",
   "source_file" : "external/libcxx/include/limits"
  },
  {
   "linker_set_key" : "_ZNSt3__114numeric_limits14min_exponent10E",
   "name" : "std::__1::numeric_limits::min_exponent10",
   "referenced_type" : "_ZTIKi",
   "source_file" : "external/libcxx/include/limits"
  },
  {
   "linker_set_key" : "_ZNSt3__114numeric_limits15has_denorm_lossE",
   "name" : "std::__1::numeric_limits::has_denorm_loss",
   "referenced_type" : "_ZTIKb",
   "source_file" : "external/libcxx/include/limits"
  },
  {
   "linker_set_key" : "_ZNSt3__114numeric_limits15tinyness_beforeE",
   "name" : "std::__1::numeric_limits::tinyness_before",
   "referenced_type" : "_ZTIKb",
   "source_file" : "external/libcxx/include/limits"
  },
  {
   "linker_set_key" : "_ZNSt3__114numeric_limits17has_signaling_NaNE",
   "name" : "std::__1::numeric_limits::has_signaling_NaN",
   "referenced_type" : "_ZTIKb",
   "source_file" : "external/libcxx/include/limits"
  },
  {
   "linker_set_key" : "_ZNSt3__114numeric_limits5radixE",
   "name" : "std::__1::numeric_limits::radix",
   "referenced_type" : "_ZTIKi",
   "source_file" : "external/libcxx/include/limits"
  },
  {
   "linker_set_key" : "_ZNSt3__114numeric_limits5trapsE",
   "name" : "std::__1::numeric_limits::traps",
   "referenced_type" : "_ZTIKb",
   "source_file" : "external/libcxx/include/limits"
  },
  {
   "linker_set_key" : "_ZNSt3__114numeric_limits6digitsE",
   "name" : "std::__1::numeric_limits::digits",
   "referenced_type" : "_ZTIKi",
   "source_file" : "external/libcxx/include/limits"
  },
  {
   "linker_set_key" : "_ZNSt3__114numeric_limits8digits10E",
   "name" : "std::__1::numeric_limits::digits10",
   "referenced_type" : "_ZTIKi",
   "source_file" : "external/libcxx/include/limits"
  },
  {
   "linker_set_key" : "_ZNSt3__114numeric_limits8is_exactE",
   "name" : "std::__1::numeric_limits::is_exact",
   "referenced_type" : "_ZTIKb",
   "source_file" : "external/libcxx/include/limits"
  },
  {
   "linker_set_key" : "_ZNSt3__114numeric_limits9is_iec559E",
   "name" : "std::__1::numeric_limits::is_iec559",
   "referenced_type" : "_ZTIKb",
   "source_file" : "external/libcxx/include/limits"
  },
  {
   "linker_set_key" : "_ZNSt3__114numeric_limits9is_moduloE",
   "name" : "std::__1::numeric_limits::is_modulo",
   "referenced_type" : "_ZTIKb",
   "source_file" : "external/libcxx/include/limits"
  },
  {
   "linker_set_key" : "_ZNSt3__114numeric_limits9is_signedE",
   "name" : "std::__1::numeric_limits::is_signed",
   "referenced_type" : "_ZTIKb",
   "source_file" : "external/libcxx/include/limits"
  },
  {
   "linker_set_key" : "_ZNSt3__114numeric_limitsIKT_E10has_denormE",
   "name" : "std::__1::numeric_limits<const type-parameter-0-0>::has_denorm",
   "referenced_type" : "_ZTIKNSt3__118float_denorm_styleE",
   "source_file" : "external/libcxx/include/limits"
  },
  {
   "linker_set_key" : "_ZNSt3__114numeric_limitsIKT_E10is_boundedE",
   "name" : "std::__1::numeric_limits<const type-parameter-0-0>::is_bounded",
   "referenced_type" : "_ZTIKb",
   "source_file" : "external/libcxx/include/limits"
  },
  {
   "linker_set_key" : "_ZNSt3__114numeric_limitsIKT_E10is_integerE",
   "name" : "std::__1::numeric_limits<const type-parameter-0-0>::is_integer",
   "referenced_type" : "_ZTIKb",
   "source_file" : "external/libcxx/include/limits"
  },
  {
   "linker_set_key" : "_ZNSt3__114numeric_limitsIKT_E11round_styleE",
   "name" : "std::__1::numeric_limits<const type-parameter-0-0>::round_style",
   "referenced_type" : "_ZTIKNSt3__117float_round_styleE",
   "source_file" : "external/libcxx/include/limits"
  },
  {
   "linker_set_key" : "_ZNSt3__114numeric_limitsIKT_E12has_infinityE",
   "name" : "std::__1::numeric_limits<const type-parameter-0-0>::has_infinity",
   "referenced_type" : "_ZTIKb",
   "source_file" : "external/libcxx/include/limits"
  },
  {
   "linker_set_key" : "_ZNSt3__114numeric_limitsIKT_E12max_digits10E",
   "name" : "std::__1::numeric_limits<const type-parameter-0-0>::max_digits10",
   "referenced_type" : "_ZTIKi",
   "source_file" : "external/libcxx/include/limits"
  },
  {
   "linker_set_key" : "_ZNSt3__114numeric_limitsIKT_E12max_exponentE",
   "name" : "std::__1::numeric_limits<const type-parameter-0-0>::max_exponent",
   "referenced_type" : "_ZTIKi",
   "source_file" : "external/libcxx/include/limits"
  },
  {
   "linker_set_key" : "_ZNSt3__114numeric_limitsIKT_E12min_exponentE",
   "name" : "std::__1::numeric_limits<const type-parameter-0-0>::min_exponent",
   "referenced_type" : "_ZTIKi",
   "source_file" : "external/libcxx/include/limits"
  },
  {
   "linker_set_key" : "_ZNSt3__114numeric_limitsIKT_E13has_quiet_NaNE",
   "name" : "std::__1::numeric_limits<const type-parameter-0-0>::has_quiet_NaN",
   "referenced_type" : "_ZTIKb",
   "source_file" : "external/libcxx/include/limits"
  },
  {
   "linker_set_key" : "_ZNSt3__114numeric_limitsIKT_E14is_specializedE",
   "name" : "std::__1::numeric_limits<const type-parameter-0-0>::is_specialized",
   "referenced_type" : "_ZTIKb",
   "source_file" : "external/libcxx/include/limits"
  },
  {
   "linker_set_key" : "_ZNSt3__114numeric_limitsIKT_E14max_exponent10E",
   "name" : "std::__1::numeric_limits<const type-parameter-0-0>::max_exponent10",
   "referenced_type" : "_ZTIKi",
   "source_file" : "external/libcxx/include/limits"
  },
  {
   "linker_set_key" : "_ZNSt3__114numeric_limitsIKT_E14min_exponent10E",
   "name" : "std::__1::numeric_limits<const type-parameter-0-0>::min_exponent10",
   "referenced_type" : "_ZTIKi",
   "source_file" : "external/libcxx/include/limits"
  },
  {
   "linker_set_key" : "_ZNSt3__114numeric_limitsIKT_E15has_denorm_lossE",
   "name" : "std::__1::numeric_limits<const type-parameter-0-0>::has_denorm_loss",
   "referenced_type" : "_ZTIKb",
   "source_file" : "external/libcxx/include/limits"
  },
  {
   "linker_set_key" : "_ZNSt3__114numeric_limitsIKT_E15tinyness_beforeE",
   "name" : "std::__1::numeric_limits<const type-parameter-0-0>::tinyness_before",
   "referenced_type" : "_ZTIKb",
   "source_file" : "external/libcxx/include/limits"
  },
  {
   "linker_set_key" : "_ZNSt3__114numeric_limitsIKT_E17has_signaling_NaNE",
   "name" : "std::__1::numeric_limits<const type-parameter-0-0>::has_signaling_NaN",
   "referenced_type" : "_ZTIKb",
   "source_file" : "external/libcxx/include/limits"
  },
  {
   "linker_set_key" : "_ZNSt3__114numeric_limitsIKT_E5radixE",
   "name" : "std::__1::numeric_limits<const type-parameter-0-0>::radix",
   "referenced_type" : "_ZTIKi",
   "source_file" : "external/libcxx/include/limits"
  },
  {
   "linker_set_key" : "_ZNSt3__114numeric_limitsIKT_E5trapsE",
   "name" : "std::__1::numeric_limits<const type-parameter-0-0>::traps",
   "referenced_type" : "_ZTIKb",
   "source_file" : "external/libcxx/include/limits"
  },
  {
   "linker_set_key" : "_ZNSt3__114numeric_limitsIKT_E6digitsE",
   "name" : "std::__1::numeric_limits<const type-parameter-0-0>::digits",
   "referenced_type" : "_ZTIKi",
   "source_file" : "external/libcxx/include/limits"
  },
  {
   "linker_set_key" : "_ZNSt3__114numeric_limitsIKT_E8digits10E",
   "name" : "std::__1::numeric_limits<const type-parameter-0-0>::digits10",
   "referenced_type" : "_ZTIKi",
   "source_file" : "external/libcxx/include/limits"
  },
  {
   "linker_set_key" : "_ZNSt3__114numeric_limitsIKT_E8is_exactE",
   "name" : "std::__1::numeric_limits<const type-parameter-0-0>::is_exact",
   "referenced_type" : "_ZTIKb",
   "source_file" : "external/libcxx/include/limits"
  },
  {
   "linker_set_key" : "_ZNSt3__114numeric_limitsIKT_E9is_iec559E",
   "name" : "std::__1::numeric_limits<const type-parameter-0-0>::is_iec559",
   "referenced_type" : "_ZTIKb",
   "source_file" : "external/libcxx/include/limits"
  },
  {
   "linker_set_key" : "_ZNSt3__114numeric_limitsIKT_E9is_moduloE",
   "name" : "std::__1::numeric_limits<const type-parameter-0-0>::is_modulo",
   "referenced_type" : "_ZTIKb",
   "source_file" : "external/libcxx/include/limits"
  },
  {
   "linker_set_key" : "_ZNSt3__114numeric_limitsIKT_E9is_signedE",
   "name" : "std::__1::numeric_limits<const type-parameter-0-0>::is_signed",
   "referenced_type" : "_ZTIKb",
   "source_file" : "external/libcxx/include/limits"
  },
  {
   "linker_set_key" : "_ZNSt3__114numeric_limitsIVKT_E10has_denormE",
   "name" : "std::__1::numeric_limits<const volatile type-parameter-0-0>::has_denorm",
   "referenced_type" : "_ZTIKNSt3__118float_denorm_styleE",
   "source_file" : "external/libcxx/include/limits"
  },
  {
   "linker_set_key" : "_ZNSt3__114numeric_limitsIVKT_E10is_boundedE",
   "name" : "std::__1::numeric_limits<const volatile type-parameter-0-0>::is_bounded",
   "referenced_type" : "_ZTIKb",
   "source_file" : "external/libcxx/include/limits"
  },
  {
   "linker_set_key" : "_ZNSt3__114numeric_limitsIVKT_E10is_integerE",
   "name" : "std::__1::numeric_limits<const volatile type-parameter-0-0>::is_integer",
   "referenced_type" : "_ZTIKb",
   "source_file" : "external/libcxx/include/limits"
  },
  {
   "linker_set_key" : "_ZNSt3__114numeric_limitsIVKT_E11round_styleE",
   "name" : "std::__1::numeric_limits<const volatile type-parameter-0-0>::round_style",
   "referenced_type" : "_ZTIKNSt3__117float_round_styleE",
   "source_file" : "external/libcxx/include/limits"
  },
  {
   "linker_set_key" : "_ZNSt3__114numeric_limitsIVKT_E12has_infinityE",
   "name" : "std::__1::numeric_limits<const volatile type-parameter-0-0>::has_infinity",
   "referenced_type" : "_ZTIKb",
   "source_file" : "external/libcxx/include/limits"
  },
  {
   "linker_set_key" : "_ZNSt3__114numeric_limitsIVKT_E12max_digits10E",
   "name" : "std::__1::numeric_limits<const volatile type-parameter-0-0>::max_digits10",
   "referenced_type" : "_ZTIKi",
   "source_file" : "external/libcxx/include/limits"
  },
  {
   "linker_set_key" : "_ZNSt3__114numeric_limitsIVKT_E12max_exponentE",
   "name" : "std::__1::numeric_limits<const volatile type-parameter-0-0>::max_exponent",
   "referenced_type" : "_ZTIKi",
   "source_file" : "external/libcxx/include/limits"
  },
  {
   "linker_set_key" : "_ZNSt3__114numeric_limitsIVKT_E12min_exponentE",
   "name" : "std::__1::numeric_limits<const volatile type-parameter-0-0>::min_exponent",
   "referenced_type" : "_ZTIKi",
   "source_file" : "external/libcxx/include/limits"
  },
  {
   "linker_set_key" : "_ZNSt3__114numeric_limitsIVKT_E13has_quiet_NaNE",
   "name" : "std::__1::numeric_limits<const volatile type-parameter-0-0>::has_quiet_NaN",
   "referenced_type" : "_ZTIKb",
   "source_file" : "external/libcxx/include/limits"
  },
  {
   "linker_set_key" : "_ZNSt3__114numeric_limitsIVKT_E14is_specializedE",
   "name" : "std::__1::numeric_limits<const volatile type-parameter-0-0>::is_specialized",
   "referenced_type" : "_ZTIKb",
   "source_file" : "external/libcxx/include/limits"
  },
  {
   "linker_set_key" : "_ZNSt3__114numeric_limitsIVKT_E14max_exponent10E",
   "name" : "std::__1::numeric_limits<const volatile type-parameter-0-0>::max_exponent10",
   "referenced_type" : "_ZTIKi",
   "source_file" : "external/libcxx/include/limits"
  },
  {
   "linker_set_key" : "_ZNSt3__114numeric_limitsIVKT_E14min_exponent10E",
   "name" : "std::__1::numeric_limits<const volatile type-parameter-0-0>::min_exponent10",
   "referenced_type" : "_ZTIKi",
   "source_file" : "external/libcxx/include/limits"
  },
  {
   "linker_set_key" : "_ZNSt3__114numeric_limitsIVKT_E15has_denorm_lossE",
   "name" : "std::__1::numeric_limits<const volatile type-parameter-0-0>::has_denorm_loss",
   "referenced_type" : "_ZTIKb",
   "source_file" : "external/libcxx/include/limits"
  },
  {
   "linker_set_key" : "_ZNSt3__114numeric_limitsIVKT_E15tinyness_beforeE",
   "name" : "std::__1::numeric_limits<const volatile type-parameter-0-0>::tinyness_before",
   "referenced_type" : "_ZTIKb",
   "source_file" : "external/libcxx/include/limits"
  },
  {
   "linker_set_key" : "_ZNSt3__114numeric_limitsIVKT_E17has_signaling_NaNE",
   "name" : "std::__1::numeric_limits<const volatile type-parameter-0-0>::has_signaling_NaN",
   "referenced_type" : "_ZTIKb",
   "source_file" : "external/libcxx/include/limits"
  },
  {
   "linker_set_key" : "_ZNSt3__114numeric_limitsIVKT_E5radixE",
   "name" : "std::__1::numeric_limits<const volatile type-parameter-0-0>::radix",
   "referenced_type" : "_ZTIKi",
   "source_file" : "external/libcxx/include/limits"
  },
  {
   "linker_set_key" : "_ZNSt3__114numeric_limitsIVKT_E5trapsE",
   "name" : "std::__1::numeric_limits<const volatile type-parameter-0-0>::traps",
   "referenced_type" : "_ZTIKb",
   "source_file" : "external/libcxx/include/limits"
  },
  {
   "linker_set_key" : "_ZNSt3__114numeric_limitsIVKT_E6digitsE",
   "name" : "std::__1::numeric_limits<const volatile type-parameter-0-0>::digits",
   "referenced_type" : "_ZTIKi",
   "source_file" : "external/libcxx/include/limits"
  },
  {
   "linker_set_key" : "_ZNSt3__114numeric_limitsIVKT_E8digits10E",
   "name" : "std::__1::numeric_limits<const volatile type-parameter-0-0>::digits10",
   "referenced_type" : "_ZTIKi",
   "source_file" : "external/libcxx/include/limits"
  },
  {
   "linker_set_key" : "_ZNSt3__114numeric_limitsIVKT_E8is_exactE",
   "name" : "std::__1::numeric_limits<const volatile type-parameter-0-0>::is_exact",
   "referenced_type" : "_ZTIKb",
   "source_file" : "external/libcxx/include/limits"
  },
  {
   "linker_set_key" : "_ZNSt3__114numeric_limitsIVKT_E9is_iec559E",
   "name" : "std::__1::numeric_limits<const volatile type-parameter-0-0>::is_iec559",
   "referenced_type" : "_ZTIKb",
   "source_file" : "external/libcxx/include/limits"
  },
  {
   "linker_set_key" : "_ZNSt3__114numeric_limitsIVKT_E9is_moduloE",
   "name" : "std::__1::numeric_limits<const volatile type-parameter-0-0>::is_modulo",
   "referenced_type" : "_ZTIKb",
   "source_file" : "external/libcxx/include/limits"
  },
  {
   "linker_set_key" : "_ZNSt3__114numeric_limitsIVKT_E9is_signedE",
   "name" : "std::__1::numeric_limits<const volatile type-parameter-0-0>::is_signed",
   "referenced_type" : "_ZTIKb",
   "source_file" : "external/libcxx/include/limits"
  },
  {
   "linker_set_key" : "_ZNSt3__114numeric_limitsIVT_E10has_denormE",
   "name" : "std::__1::numeric_limits<volatile type-parameter-0-0>::has_denorm",
   "referenced_type" : "_ZTIKNSt3__118float_denorm_styleE",
   "source_file" : "external/libcxx/include/limits"
  },
  {
   "linker_set_key" : "_ZNSt3__114numeric_limitsIVT_E10is_boundedE",
   "name" : "std::__1::numeric_limits<volatile type-parameter-0-0>::is_bounded",
   "referenced_type" : "_ZTIKb",
   "source_file" : "external/libcxx/include/limits"
  },
  {
   "linker_set_key" : "_ZNSt3__114numeric_limitsIVT_E10is_integerE",
   "name" : "std::__1::numeric_limits<volatile type-parameter-0-0>::is_integer",
   "referenced_type" : "_ZTIKb",
   "source_file" : "external/libcxx/include/limits"
  },
  {
   "linker_set_key" : "_ZNSt3__114numeric_limitsIVT_E11round_styleE",
   "name" : "std::__1::numeric_limits<volatile type-parameter-0-0>::round_style",
   "referenced_type" : "_ZTIKNSt3__117float_round_styleE",
   "source_file" : "external/libcxx/include/limits"
  },
  {
   "linker_set_key" : "_ZNSt3__114numeric_limitsIVT_E12has_infinityE",
   "name" : "std::__1::numeric_limits<volatile type-parameter-0-0>::has_infinity",
   "referenced_type" : "_ZTIKb",
   "source_file" : "external/libcxx/include/limits"
  },
  {
   "linker_set_key" : "_ZNSt3__114numeric_limitsIVT_E12max_digits10E",
   "name" : "std::__1::numeric_limits<volatile type-parameter-0-0>::max_digits10",
   "referenced_type" : "_ZTIKi",
   "source_file" : "external/libcxx/include/limits"
  },
  {
   "linker_set_key" : "_ZNSt3__114numeric_limitsIVT_E12max_exponentE",
   "name" : "std::__1::numeric_limits<volatile type-parameter-0-0>::max_exponent",
   "referenced_type" : "_ZTIKi",
   "source_file" : "external/libcxx/include/limits"
  },
  {
   "linker_set_key" : "_ZNSt3__114numeric_limitsIVT_E12min_exponentE",
   "name" : "std::__1::numeric_limits<volatile type-parameter-0-0>::min_exponent",
   "referenced_type" : "_ZTIKi",
   "source_file" : "external/libcxx/include/limits"
  },
  {
   "linker_set_key" : "_ZNSt3__114numeric_limitsIVT_E13has_quiet_NaNE",
   "name" : "std::__1::numeric_limits<volatile type-parameter-0-0>::has_quiet_NaN",
   "referenced_type" : "_ZTIKb",
   "source_file" : "external/libcxx/include/limits"
  },
  {
   "linker_set_key" : "_ZNSt3__114numeric_limitsIVT_E14is_specializedE",
   "name" : "std::__1::numeric_limits<volatile type-parameter-0-0>::is_specialized",
   "referenced_type" : "_ZTIKb",
   "source_file" : "external/libcxx/include/limits"
  },
  {
   "linker_set_key" : "_ZNSt3__114numeric_limitsIVT_E14max_exponent10E",
   "name" : "std::__1::numeric_limits<volatile type-parameter-0-0>::max_exponent10",
   "referenced_type" : "_ZTIKi",
   "source_file" : "external/libcxx/include/limits"
  },
  {
   "linker_set_key" : "_ZNSt3__114numeric_limitsIVT_E14min_exponent10E",
   "name" : "std::__1::numeric_limits<volatile type-parameter-0-0>::min_exponent10",
   "referenced_type" : "_ZTIKi",
   "source_file" : "external/libcxx/include/limits"
  },
  {
   "linker_set_key" : "_ZNSt3__114numeric_limitsIVT_E15has_denorm_lossE",
   "name" : "std::__1::numeric_limits<volatile type-parameter-0-0>::has_denorm_loss",
   "referenced_type" : "_ZTIKb",
   "source_file" : "external/libcxx/include/limits"
  },
  {
   "linker_set_key" : "_ZNSt3__114numeric_limitsIVT_E15tinyness_beforeE",
   "name" : "std::__1::numeric_limits<volatile type-parameter-0-0>::tinyness_before",
   "referenced_type" : "_ZTIKb",
   "source_file" : "external/libcxx/include/limits"
  },
  {
   "linker_set_key" : "_ZNSt3__114numeric_limitsIVT_E17has_signaling_NaNE",
   "name" : "std::__1::numeric_limits<volatile type-parameter-0-0>::has_signaling_NaN",
   "referenced_type" : "_ZTIKb",
   "source_file" : "external/libcxx/include/limits"
  },
  {
   "linker_set_key" : "_ZNSt3__114numeric_limitsIVT_E5radixE",
   "name" : "std::__1::numeric_limits<volatile type-parameter-0-0>::radix",
   "referenced_type" : "_ZTIKi",
   "source_file" : "external/libcxx/include/limits"
  },
  {
   "linker_set_key" : "_ZNSt3__114numeric_limitsIVT_E5trapsE",
   "name" : "std::__1::numeric_limits<volatile type-parameter-0-0>::traps",
   "referenced_type" : "_ZTIKb",
   "source_file" : "external/libcxx/include/limits"
  },
  {
   "linker_set_key" : "_ZNSt3__114numeric_limitsIVT_E6digitsE",
   "name" : "std::__1::numeric_limits<volatile type-parameter-0-0>::digits",
   "referenced_type" : "_ZTIKi",
   "source_file" : "external/libcxx/include/limits"
  },
  {
   "linker_set_key" : "_ZNSt3__114numeric_limitsIVT_E8digits10E",
   "name" : "std::__1::numeric_limits<volatile type-parameter-0-0>::digits10",
   "referenced_type" : "_ZTIKi",
   "source_file" : "external/libcxx/include/limits"
  },
  {
   "linker_set_key" : "_ZNSt3__114numeric_limitsIVT_E8is_exactE",
   "name" : "std::__1::numeric_limits<volatile type-parameter-0-0>::is_exact",
   "referenced_type" : "_ZTIKb",
   "source_file" : "external/libcxx/include/limits"
  },
  {
   "linker_set_key" : "_ZNSt3__114numeric_limitsIVT_E9is_iec559E",
   "name" : "std::__1::numeric_limits<volatile type-parameter-0-0>::is_iec559",
   "referenced_type" : "_ZTIKb",
   "source_file" : "external/libcxx/include/limits"
  },
  {
   "linker_set_key" : "_ZNSt3__114numeric_limitsIVT_E9is_moduloE",
   "name" : "std::__1::numeric_limits<volatile type-parameter-0-0>::is_modulo",
   "referenced_type" : "_ZTIKb",
   "source_file" : "external/libcxx/include/limits"
  },
  {
   "linker_set_key" : "_ZNSt3__114numeric_limitsIVT_E9is_signedE",
   "name" : "std::__1::numeric_limits<volatile type-parameter-0-0>::is_signed",
   "referenced_type" : "_ZTIKb",
   "source_file" : "external/libcxx/include/limits"
  },
  {
   "linker_set_key" : "_ZNSt3__114numeric_limitsIhE10has_denormE",
   "name" : "std::__1::numeric_limits<unsigned char>::has_denorm",
   "referenced_type" : "_ZTIKNSt3__118float_denorm_styleE",
   "source_file" : "external/libcxx/include/limits"
  },
  {
   "linker_set_key" : "_ZNSt3__114numeric_limitsIhE10is_boundedE",
   "name" : "std::__1::numeric_limits<unsigned char>::is_bounded",
   "referenced_type" : "_ZTIKb",
   "source_file" : "external/libcxx/include/limits"
  },
  {
   "linker_set_key" : "_ZNSt3__114numeric_limitsIhE10is_integerE",
   "name" : "std::__1::numeric_limits<unsigned char>::is_integer",
   "referenced_type" : "_ZTIKb",
   "source_file" : "external/libcxx/include/limits"
  },
  {
   "linker_set_key" : "_ZNSt3__114numeric_limitsIhE11round_styleE",
   "name" : "std::__1::numeric_limits<unsigned char>::round_style",
   "referenced_type" : "_ZTIKNSt3__117float_round_styleE",
   "source_file" : "external/libcxx/include/limits"
  },
  {
   "linker_set_key" : "_ZNSt3__114numeric_limitsIhE12has_infinityE",
   "name" : "std::__1::numeric_limits<unsigned char>::has_infinity",
   "referenced_type" : "_ZTIKb",
   "source_file" : "external/libcxx/include/limits"
  },
  {
   "linker_set_key" : "_ZNSt3__114numeric_limitsIhE12max_digits10E",
   "name" : "std::__1::numeric_limits<unsigned char>::max_digits10",
   "referenced_type" : "_ZTIKi",
   "source_file" : "external/libcxx/include/limits"
  },
  {
   "linker_set_key" : "_ZNSt3__114numeric_limitsIhE12max_exponentE",
   "name" : "std::__1::numeric_limits<unsigned char>::max_exponent",
   "referenced_type" : "_ZTIKi",
   "source_file" : "external/libcxx/include/limits"
  },
  {
   "linker_set_key" : "_ZNSt3__114numeric_limitsIhE12min_exponentE",
   "name" : "std::__1::numeric_limits<unsigned char>::min_exponent",
   "referenced_type" : "_ZTIKi",
   "source_file" : "external/libcxx/include/limits"
  },
  {
   "linker_set_key" : "_ZNSt3__114numeric_limitsIhE13has_quiet_NaNE",
   "name" : "std::__1::numeric_limits<unsigned char>::has_quiet_NaN",
   "referenced_type" : "_ZTIKb",
   "source_file" : "external/libcxx/include/limits"
  },
  {
   "linker_set_key" : "_ZNSt3__114numeric_limitsIhE14is_specializedE",
   "name" : "std::__1::numeric_limits<unsigned char>::is_specialized",
   "referenced_type" : "_ZTIKb",
   "source_file" : "external/libcxx/include/limits"
  },
  {
   "linker_set_key" : "_ZNSt3__114numeric_limitsIhE14max_exponent10E",
   "name" : "std::__1::numeric_limits<unsigned char>::max_exponent10",
   "referenced_type" : "_ZTIKi",
   "source_file" : "external/libcxx/include/limits"
  },
  {
   "linker_set_key" : "_ZNSt3__114numeric_limitsIhE14min_exponent10E",
   "name" : "std::__1::numeric_limits<unsigned char>::min_exponent10",
   "referenced_type" : "_ZTIKi",
   "source_file" : "external/libcxx/include/limits"
  },
  {
   "linker_set_key" : "_ZNSt3__114numeric_limitsIhE15has_denorm_lossE",
   "name" : "std::__1::numeric_limits<unsigned char>::has_denorm_loss",
   "referenced_type" : "_ZTIKb",
   "source_file" : "external/libcxx/include/limits"
  },
  {
   "linker_set_key" : "_ZNSt3__114numeric_limitsIhE15tinyness_beforeE",
   "name" : "std::__1::numeric_limits<unsigned char>::tinyness_before",
   "referenced_type" : "_ZTIKb",
   "source_file" : "external/libcxx/include/limits"
  },
  {
   "linker_set_key" : "_ZNSt3__114numeric_limitsIhE17has_signaling_NaNE",
   "name" : "std::__1::numeric_limits<unsigned char>::has_signaling_NaN",
   "referenced_type" : "_ZTIKb",
   "source_file" : "external/libcxx/include/limits"
  },
  {
   "linker_set_key" : "_ZNSt3__114numeric_limitsIhE5radixE",
   "name" : "std::__1::numeric_limits<unsigned char>::radix",
   "referenced_type" : "_ZTIKi",
   "source_file" : "external/libcxx/include/limits"
  },
  {
   "linker_set_key" : "_ZNSt3__114numeric_limitsIhE5trapsE",
   "name" : "std::__1::numeric_limits<unsigned char>::traps",
   "referenced_type" : "_ZTIKb",
   "source_file" : "external/libcxx/include/limits"
  },
  {
   "linker_set_key" : "_ZNSt3__114numeric_limitsIhE6digitsE",
   "name" : "std::__1::numeric_limits<unsigned char>::digits",
   "referenced_type" : "_ZTIKi",
   "source_file" : "external/libcxx/include/limits"
  },
  {
   "linker_set_key" : "_ZNSt3__114numeric_limitsIhE8digits10E",
   "name" : "std::__1::numeric_limits<unsigned char>::digits10",
   "referenced_type" : "_ZTIKi",
   "source_file" : "external/libcxx/include/limits"
  },
  {
   "linker_set_key" : "_ZNSt3__114numeric_limitsIhE8is_exactE",
   "name" : "std::__1::numeric_limits<unsigned char>::is_exact",
   "referenced_type" : "_ZTIKb",
   "source_file" : "external/libcxx/include/limits"
  },
  {
   "linker_set_key" : "_ZNSt3__114numeric_limitsIhE9is_iec559E",
   "name" : "std::__1::numeric_limits<unsigned char>::is_iec559",
   "referenced_type" : "_ZTIKb",
   "source_file" : "external/libcxx/include/limits"
  },
  {
   "linker_set_key" : "_ZNSt3__114numeric_limitsIhE9is_moduloE",
   "name" : "std::__1::numeric_limits<unsigned char>::is_modulo",
   "referenced_type" : "_ZTIKb",
   "source_file" : "external/libcxx/include/limits"
  },
  {
   "linker_set_key" : "_ZNSt3__114numeric_limitsIhE9is_signedE",
   "name" : "std::__1::numeric_limits<unsigned char>::is_signed",
   "referenced_type" : "_ZTIKb",
   "source_file" : "external/libcxx/include/limits"
  },
  {
   "linker_set_key" : "_ZNSt3__114numeric_limitsItE10has_denormE",
   "name" : "std::__1::numeric_limits<unsigned short>::has_denorm",
   "referenced_type" : "_ZTIKNSt3__118float_denorm_styleE",
   "source_file" : "external/libcxx/include/limits"
  },
  {
   "linker_set_key" : "_ZNSt3__114numeric_limitsItE10is_boundedE",
   "name" : "std::__1::numeric_limits<unsigned short>::is_bounded",
   "referenced_type" : "_ZTIKb",
   "source_file" : "external/libcxx/include/limits"
  },
  {
   "linker_set_key" : "_ZNSt3__114numeric_limitsItE10is_integerE",
   "name" : "std::__1::numeric_limits<unsigned short>::is_integer",
   "referenced_type" : "_ZTIKb",
   "source_file" : "external/libcxx/include/limits"
  },
  {
   "linker_set_key" : "_ZNSt3__114numeric_limitsItE11round_styleE",
   "name" : "std::__1::numeric_limits<unsigned short>::round_style",
   "referenced_type" : "_ZTIKNSt3__117float_round_styleE",
   "source_file" : "external/libcxx/include/limits"
  },
  {
   "linker_set_key" : "_ZNSt3__114numeric_limitsItE12has_infinityE",
   "name" : "std::__1::numeric_limits<unsigned short>::has_infinity",
   "referenced_type" : "_ZTIKb",
   "source_file" : "external/libcxx/include/limits"
  },
  {
   "linker_set_key" : "_ZNSt3__114numeric_limitsItE12max_digits10E",
   "name" : "std::__1::numeric_limits<unsigned short>::max_digits10",
   "referenced_type" : "_ZTIKi",
   "source_file" : "external/libcxx/include/limits"
  },
  {
   "linker_set_key" : "_ZNSt3__114numeric_limitsItE12max_exponentE",
   "name" : "std::__1::numeric_limits<unsigned short>::max_exponent",
   "referenced_type" : "_ZTIKi",
   "source_file" : "external/libcxx/include/limits"
  },
  {
   "linker_set_key" : "_ZNSt3__114numeric_limitsItE12min_exponentE",
   "name" : "std::__1::numeric_limits<unsigned short>::min_exponent",
   "referenced_type" : "_ZTIKi",
   "source_file" : "external/libcxx/include/limits"
  },
  {
   "linker_set_key" : "_ZNSt3__114numeric_limitsItE13has_quiet_NaNE",
   "name" : "std::__1::numeric_limits<unsigned short>::has_quiet_NaN",
   "referenced_type" : "_ZTIKb",
   "source_file" : "external/libcxx/include/limits"
  },
  {
   "linker_set_key" : "_ZNSt3__114numeric_limitsItE14is_specializedE",
   "name" : "std::__1::numeric_limits<unsigned short>::is_specialized",
   "referenced_type" : "_ZTIKb",
   "source_file" : "external/libcxx/include/limits"
  },
  {
   "linker_set_key" : "_ZNSt3__114numeric_limitsItE14max_exponent10E",
   "name" : "std::__1::numeric_limits<unsigned short>::max_exponent10",
   "referenced_type" : "_ZTIKi",
   "source_file" : "external/libcxx/include/limits"
  },
  {
   "linker_set_key" : "_ZNSt3__114numeric_limitsItE14min_exponent10E",
   "name" : "std::__1::numeric_limits<unsigned short>::min_exponent10",
   "referenced_type" : "_ZTIKi",
   "source_file" : "external/libcxx/include/limits"
  },
  {
   "linker_set_key" : "_ZNSt3__114numeric_limitsItE15has_denorm_lossE",
   "name" : "std::__1::numeric_limits<unsigned short>::has_denorm_loss",
   "referenced_type" : "_ZTIKb",
   "source_file" : "external/libcxx/include/limits"
  },
  {
   "linker_set_key" : "_ZNSt3__114numeric_limitsItE15tinyness_beforeE",
   "name" : "std::__1::numeric_limits<unsigned short>::tinyness_before",
   "referenced_type" : "_ZTIKb",
   "source_file" : "external/libcxx/include/limits"
  },
  {
   "linker_set_key" : "_ZNSt3__114numeric_limitsItE17has_signaling_NaNE",
   "name" : "std::__1::numeric_limits<unsigned short>::has_signaling_NaN",
   "referenced_type" : "_ZTIKb",
   "source_file" : "external/libcxx/include/limits"
  },
  {
   "linker_set_key" : "_ZNSt3__114numeric_limitsItE5radixE",
   "name" : "std::__1::numeric_limits<unsigned short>::radix",
   "referenced_type" : "_ZTIKi",
   "source_file" : "external/libcxx/include/limits"
  },
  {
   "linker_set_key" : "_ZNSt3__114numeric_limitsItE5trapsE",
   "name" : "std::__1::numeric_limits<unsigned short>::traps",
   "referenced_type" : "_ZTIKb",
   "source_file" : "external/libcxx/include/limits"
  },
  {
   "linker_set_key" : "_ZNSt3__114numeric_limitsItE6digitsE",
   "name" : "std::__1::numeric_limits<unsigned short>::digits",
   "referenced_type" : "_ZTIKi",
   "source_file" : "external/libcxx/include/limits"
  },
  {
   "linker_set_key" : "_ZNSt3__114numeric_limitsItE8digits10E",
   "name" : "std::__1::numeric_limits<unsigned short>::digits10",
   "referenced_type" : "_ZTIKi",
   "source_file" : "external/libcxx/include/limits"
  },
  {
   "linker_set_key" : "_ZNSt3__114numeric_limitsItE8is_exactE",
   "name" : "std::__1::numeric_limits<unsigned short>::is_exact",
   "referenced_type" : "_ZTIKb",
   "source_file" : "external/libcxx/include/limits"
  },
  {
   "linker_set_key" : "_ZNSt3__114numeric_limitsItE9is_iec559E",
   "name" : "std::__1::numeric_limits<unsigned short>::is_iec559",
   "referenced_type" : "_ZTIKb",
   "source_file" : "external/libcxx/include/limits"
  },
  {
   "linker_set_key" : "_ZNSt3__114numeric_limitsItE9is_moduloE",
   "name" : "std::__1::numeric_limits<unsigned short>::is_modulo",
   "referenced_type" : "_ZTIKb",
   "source_file" : "external/libcxx/include/limits"
  },
  {
   "linker_set_key" : "_ZNSt3__114numeric_limitsItE9is_signedE",
   "name" : "std::__1::numeric_limits<unsigned short>::is_signed",
   "referenced_type" : "_ZTIKb",
   "source_file" : "external/libcxx/include/limits"
  },
  {
   "linker_set_key" : "_ZNSt3__117integral_constantIbLb0EE5valueE",
   "name" : "std::__1::integral_constant<bool, false>::value",
   "referenced_type" : "_ZTIKb",
   "source_file" : "external/libcxx/include/type_traits"
  },
  {
   "linker_set_key" : "_ZNSt3__117integral_constantIbLb1EE5valueE",
   "name" : "std::__1::integral_constant<bool, true>::value",
   "referenced_type" : "_ZTIKb",
   "source_file" : "external/libcxx/include/type_traits"
  },
  {
   "linker_set_key" : "_ZNSt3__117integral_constantImLm0EE5valueE",
   "name" : "std::__1::integral_constant<unsigned long, 0>::value",
   "referenced_type" : "_ZTIKm",
   "source_file" : "external/libcxx/include/type_traits"
  },
  {
   "linker_set_key" : "_ZNSt3__120__libcpp_compute_minIhLi8ELb0EE5valueE",
   "name" : "std::__1::__libcpp_compute_min<unsigned char, 8, false>::value",
   "referenced_type" : "_ZTIKh",
   "source_file" : "external/libcxx/include/limits"
  },
  {
   "linker_set_key" : "_ZNSt3__120__libcpp_compute_minItLi16ELb0EE5valueE",
   "name" : "std::__1::__libcpp_compute_min<unsigned short, 16, false>::value",
   "referenced_type" : "_ZTIKt",
   "source_file" : "external/libcxx/include/limits"
  },
  {
   "linker_set_key" : "_ZNSt3__123__libcpp_debug_functionE",
   "name" : "std::__1::__libcpp_debug_function",
   "referenced_type" : "_ZTIPFvRKNSt3__119__libcpp_debug_infoEE",
   "source_file" : "external/libcxx/include/__debug"
  },
  {
   "access" : "protected",
   "linker_set_key" : "_ZNSt3__123__libcpp_numeric_limits10has_denormE",
   "name" : "std::__1::__libcpp_numeric_limits::has_denorm",
   "referenced_type" : "_ZTIKNSt3__118float_denorm_styleE",
   "source_file" : "external/libcxx/include/limits"
  },
  {
   "access" : "protected",
   "linker_set_key" : "_ZNSt3__123__libcpp_numeric_limits10is_boundedE",
   "name" : "std::__1::__libcpp_numeric_limits::is_bounded",
   "referenced_type" : "_ZTIKb",
   "source_file" : "external/libcxx/include/limits"
  },
  {
   "access" : "protected",
   "linker_set_key" : "_ZNSt3__123__libcpp_numeric_limits10is_integerE",
   "name" : "std::__1::__libcpp_numeric_limits::is_integer",
   "referenced_type" : "_ZTIKb",
   "source_file" : "external/libcxx/include/limits"
  },
  {
   "access" : "protected",
   "linker_set_key" : "_ZNSt3__123__libcpp_numeric_limits11round_styleE",
   "name" : "std::__1::__libcpp_numeric_limits::round_style",
   "referenced_type" : "_ZTIKNSt3__117float_round_styleE",
   "source_file" : "external/libcxx/include/limits"
  },
  {
   "access" : "protected",
   "linker_set_key" : "_ZNSt3__123__libcpp_numeric_limits12has_infinityE",
   "name" : "std::__1::__libcpp_numeric_limits::has_infinity",
   "referenced_type" : "_ZTIKb",
   "source_file" : "external/libcxx/include/limits"
  },
  {
   "access" : "protected",
   "linker_set_key" : "_ZNSt3__123__libcpp_numeric_limits12max_digits10E",
   "name" : "std::__1::__libcpp_numeric_limits::max_digits10",
   "referenced_type" : "_ZTIKi",
   "source_file" : "external/libcxx/include/limits"
  },
  {
   "access" : "protected",
   "linker_set_key" : "_ZNSt3__123__libcpp_numeric_limits12max_exponentE",
   "name" : "std::__1::__libcpp_numeric_limits::max_exponent",
   "referenced_type" : "_ZTIKi",
   "source_file" : "external/libcxx/include/limits"
  },
  {
   "access" : "protected",
   "linker_set_key" : "_ZNSt3__123__libcpp_numeric_limits12min_exponentE",
   "name" : "std::__1::__libcpp_numeric_limits::min_exponent",
   "referenced_type" : "_ZTIKi",
   "source_file" : "external/libcxx/include/limits"
  },
  {
   "access" : "protected",
   "linker_set_key" : "_ZNSt3__123__libcpp_numeric_limits13has_quiet_NaNE",
   "name" : "std::__1::__libcpp_numeric_limits::has_quiet_NaN",
   "referenced_type" : "_ZTIKb",
   "source_file" : "external/libcxx/include/limits"
  },
  {
   "access" : "protected",
   "linker_set_key" : "_ZNSt3__123__libcpp_numeric_limits14is_specializedE",
   "name" : "std::__1::__libcpp_numeric_limits::is_specialized",
   "referenced_type" : "_ZTIKb",
   "source_file" : "external/libcxx/include/limits"
  },
  {
   "access" : "protected",
   "linker_set_key" : "_ZNSt3__123__libcpp_numeric_limits14max_exponent10E",
   "name" : "std::__1::__libcpp_numeric_limits::max_exponent10",
   "referenced_type" : "_ZTIKi",
   "source_file" : "external/libcxx/include/limits"
  },
  {
   "access" : "protected",
   "linker_set_key" : "_ZNSt3__123__libcpp_numeric_limits14min_exponent10E",
   "name" : "std::__1::__libcpp_numeric_limits::min_exponent10",
   "referenced_type" : "_ZTIKi",
   "source_file" : "external/libcxx/include/limits"
  },
  {
   "access" : "protected",
   "linker_set_key" : "_ZNSt3__123__libcpp_numeric_limits15has_denorm_lossE",
   "name" : "std::__1::__libcpp_numeric_limits::has_denorm_loss",
   "referenced_type" : "_ZTIKb",
   "source_file" : "external/libcxx/include/limits"
  },
  {
   "access" : "protected",
   "linker_set_key" : "_ZNSt3__123__libcpp_numeric_limits15tinyness_beforeE",
   "name" : "std::__1::__libcpp_numeric_limits::tinyness_before",
   "referenced_type" : "_ZTIKb",
   "source_file" : "external/libcxx/include/limits"
  },
  {
   "access" : "protected",
   "linker_set_key" : "_ZNSt3__123__libcpp_numeric_limits17has_signaling_NaNE",
   "name" : "std::__1::__libcpp_numeric_limits::has_signaling_NaN",
   "referenced_type" : "_ZTIKb",
   "source_file" : "external/libcxx/include/limits"
  },
  {
   "access" : "protected",
   "linker_set_key" : "_ZNSt3__123__libcpp_numeric_limits5radixE",
   "name" : "std::__1::__libcpp_numeric_limits::radix",
   "referenced_type" : "_ZTIKi",
   "source_file" : "external/libcxx/include/limits"
  },
  {
   "access" : "protected",
   "linker_set_key" : "_ZNSt3__123__libcpp_numeric_limits5trapsE",
   "name" : "std::__1::__libcpp_numeric_limits::traps",
   "referenced_type" : "_ZTIKb",
   "source_file" : "external/libcxx/include/limits"
  },
  {
   "access" : "protected",
   "linker_set_key" : "_ZNSt3__123__libcpp_numeric_limits6digitsE",
   "name" : "std::__1::__libcpp_numeric_limits::digits",
   "referenced_type" : "_ZTIKi",
   "source_file" : "external/libcxx/include/limits"
  },
  {
   "access" : "protected",
   "linker_set_key" : "_ZNSt3__123__libcpp_numeric_limits8digits10E",
   "name" : "std::__1::__libcpp_numeric_limits::digits10",
   "referenced_type" : "_ZTIKi",
   "source_file" : "external/libcxx/include/limits"
  },
  {
   "access" : "protected",
   "linker_set_key" : "_ZNSt3__123__libcpp_numeric_limits8is_exactE",
   "name" : "std::__1::__libcpp_numeric_limits::is_exact",
   "referenced_type" : "_ZTIKb",
   "source_file" : "external/libcxx/include/limits"
  },
  {
   "access" : "protected",
   "linker_set_key" : "_ZNSt3__123__libcpp_numeric_limits9is_iec559E",
   "name" : "std::__1::__libcpp_numeric_limits::is_iec559",
   "referenced_type" : "_ZTIKb",
   "source_file" : "external/libcxx/include/limits"
  },
  {
   "access" : "protected",
   "linker_set_key" : "_ZNSt3__123__libcpp_numeric_limits9is_moduloE",
   "name" : "std::__1::__libcpp_numeric_limits::is_modulo",
   "referenced_type" : "_ZTIKb",
   "source_file" : "external/libcxx/include/limits"
  },
  {
   "access" : "protected",
   "linker_set_key" : "_ZNSt3__123__libcpp_numeric_limits9is_signedE",
   "name" : "std::__1::__libcpp_numeric_limits::is_signed",
   "referenced_type" : "_ZTIKb",
   "source_file" : "external/libcxx/include/limits"
  },
  {
   "access" : "protected",
   "linker_set_key" : "_ZNSt3__123__libcpp_numeric_limitsIT_Lb1EE10has_denormE",
   "name" : "std::__1::__libcpp_numeric_limits<type-parameter-0-0, true>::has_denorm",
   "referenced_type" : "_ZTIKNSt3__118float_denorm_styleE",
   "source_file" : "external/libcxx/include/limits"
  },
  {
   "access" : "protected",
   "linker_set_key" : "_ZNSt3__123__libcpp_numeric_limitsIT_Lb1EE10is_boundedE",
   "name" : "std::__1::__libcpp_numeric_limits<type-parameter-0-0, true>::is_bounded",
   "referenced_type" : "_ZTIKb",
   "source_file" : "external/libcxx/include/limits"
  },
  {
   "access" : "protected",
   "linker_set_key" : "_ZNSt3__123__libcpp_numeric_limitsIT_Lb1EE10is_integerE",
   "name" : "std::__1::__libcpp_numeric_limits<type-parameter-0-0, true>::is_integer",
   "referenced_type" : "_ZTIKb",
   "source_file" : "external/libcxx/include/limits"
  },
  {
   "access" : "protected",
   "linker_set_key" : "_ZNSt3__123__libcpp_numeric_limitsIT_Lb1EE11round_styleE",
   "name" : "std::__1::__libcpp_numeric_limits<type-parameter-0-0, true>::round_style",
   "referenced_type" : "_ZTIKNSt3__117float_round_styleE",
   "source_file" : "external/libcxx/include/limits"
  },
  {
   "access" : "protected",
   "linker_set_key" : "_ZNSt3__123__libcpp_numeric_limitsIT_Lb1EE12has_infinityE",
   "name" : "std::__1::__libcpp_numeric_limits<type-parameter-0-0, true>::has_infinity",
   "referenced_type" : "_ZTIKb",
   "source_file" : "external/libcxx/include/limits"
  },
  {
   "access" : "protected",
   "linker_set_key" : "_ZNSt3__123__libcpp_numeric_limitsIT_Lb1EE12max_digits10E",
   "name" : "std::__1::__libcpp_numeric_limits<type-parameter-0-0, true>::max_digits10",
   "referenced_type" : "_ZTIKi",
   "source_file" : "external/libcxx/include/limits"
  },
  {
   "access" : "protected",
   "linker_set_key" : "_ZNSt3__123__libcpp_numeric_limitsIT_Lb1EE12max_exponentE",
   "name" : "std::__1::__libcpp_numeric_limits<type-parameter-0-0, true>::max_exponent",
   "referenced_type" : "_ZTIKi",
   "source_file" : "external/libcxx/include/limits"
  },
  {
   "access" : "protected",
   "linker_set_key" : "_ZNSt3__123__libcpp_numeric_limitsIT_Lb1EE12min_exponentE",
   "name" : "std::__1::__libcpp_numeric_limits<type-parameter-0-0, true>::min_exponent",
   "referenced_type" : "_ZTIKi",
   "source_file" : "external/libcxx/include/limits"
  },
  {
   "access" : "protected",
   "linker_set_key" : "_ZNSt3__123__libcpp_numeric_limitsIT_Lb1EE13has_quiet_NaNE",
   "name" : "std::__1::__libcpp_numeric_limits<type-parameter-0-0, true>::has_quiet_NaN",
   "referenced_type" : "_ZTIKb",
   "source_file" : "external/libcxx/include/limits"
  },
  {
   "access" : "protected",
   "linker_set_key" : "_ZNSt3__123__libcpp_numeric_limitsIT_Lb1EE14is_specializedE",
   "name" : "std::__1::__libcpp_numeric_limits<type-parameter-0-0, true>::is_specialized",
   "referenced_type" : "_ZTIKb",
   "source_file" : "external/libcxx/include/limits"
  },
  {
   "access" : "protected",
   "linker_set_key" : "_ZNSt3__123__libcpp_numeric_limitsIT_Lb1EE14max_exponent10E",
   "name" : "std::__1::__libcpp_numeric_limits<type-parameter-0-0, true>::max_exponent10",
   "referenced_type" : "_ZTIKi",
   "source_file" : "external/libcxx/include/limits"
  },
  {
   "access" : "protected",
   "linker_set_key" : "_ZNSt3__123__libcpp_numeric_limitsIT_Lb1EE14min_exponent10E",
   "name" : "std::__1::__libcpp_numeric_limits<type-parameter-0-0, true>::min_exponent10",
   "referenced_type" : "_ZTIKi",
   "source_file" : "external/libcxx/include/limits"
  },
  {
   "access" : "protected",
   "linker_set_key" : "_ZNSt3__123__libcpp_numeric_limitsIT_Lb1EE15has_denorm_lossE",
   "name" : "std::__1::__libcpp_numeric_limits<type-parameter-0-0, true>::has_denorm_loss",
   "referenced_type" : "_ZTIKb",
   "source_file" : "external/libcxx/include/limits"
  },
  {
   "access" : "protected",
   "linker_set_key" : "_ZNSt3__123__libcpp_numeric_limitsIT_Lb1EE15tinyness_beforeE",
   "name" : "std::__1::__libcpp_numeric_limits<type-parameter-0-0, true>::tinyness_before",
   "referenced_type" : "_ZTIKb",
   "source_file" : "external/libcxx/include/limits"
  },
  {
   "access" : "protected",
   "linker_set_key" : "_ZNSt3__123__libcpp_numeric_limitsIT_Lb1EE17has_signaling_NaNE",
   "name" : "std::__1::__libcpp_numeric_limits<type-parameter-0-0, true>::has_signaling_NaN",
   "referenced_type" : "_ZTIKb",
   "source_file" : "external/libcxx/include/limits"
  },
  {
   "access" : "protected",
   "linker_set_key" : "_ZNSt3__123__libcpp_numeric_limitsIT_Lb1EE5radixE",
   "name" : "std::__1::__libcpp_numeric_limits<type-parameter-0-0, true>::radix",
   "referenced_type" : "_ZTIKi",
   "source_file" : "external/libcxx/include/limits"
  },
  {
   "access" : "protected",
   "linker_set_key" : "_ZNSt3__123__libcpp_numeric_limitsIT_Lb1EE5trapsE",
   "name" : "std::__1::__libcpp_numeric_limits<type-parameter-0-0, true>::traps",
   "referenced_type" : "_ZTIKb",
   "source_file" : "external/libcxx/include/limits"
  },
  {
   "access" : "protected",
   "linker_set_key" : "_ZNSt3__123__libcpp_numeric_limitsIT_Lb1EE6digitsE",
   "name" : "std::__1::__libcpp_numeric_limits<type-parameter-0-0, true>::digits",
   "referenced_type" : "_ZTIKi",
   "source_file" : "external/libcxx/include/limits"
  },
  {
   "access" : "protected",
   "linker_set_key" : "_ZNSt3__123__libcpp_numeric_limitsIT_Lb1EE8digits10E",
   "name" : "std::__1::__libcpp_numeric_limits<type-parameter-0-0, true>::digits10",
   "referenced_type" : "_ZTIKi",
   "source_file" : "external/libcxx/include/limits"
  },
  {
   "access" : "protected",
   "linker_set_key" : "_ZNSt3__123__libcpp_numeric_limitsIT_Lb1EE8is_exactE",
   "name" : "std::__1::__libcpp_numeric_limits<type-parameter-0-0, true>::is_exact",
   "referenced_type" : "_ZTIKb",
   "source_file" : "external/libcxx/include/limits"
  },
  {
   "access" : "protected",
   "linker_set_key" : "_ZNSt3__123__libcpp_numeric_limitsIT_Lb1EE9is_iec559E",
   "name" : "std::__1::__libcpp_numeric_limits<type-parameter-0-0, true>::is_iec559",
   "referenced_type" : "_ZTIKb",
   "source_file" : "external/libcxx/include/limits"
  },
  {
   "access" : "protected",
   "linker_set_key" : "_ZNSt3__123__libcpp_numeric_limitsIT_Lb1EE9is_moduloE",
   "name" : "std::__1::__libcpp_numeric_limits<type-parameter-0-0, true>::is_modulo",
   "referenced_type" : "_ZTIKb",
   "source_file" : "external/libcxx/include/limits"
  },
  {
   "access" : "protected",
   "linker_set_key" : "_ZNSt3__123__libcpp_numeric_limitsIT_Lb1EE9is_signedE",
   "name" : "std::__1::__libcpp_numeric_limits<type-parameter-0-0, true>::is_signed",
   "referenced_type" : "_ZTIKb",
   "source_file" : "external/libcxx/include/limits"
  },
  {
   "access" : "protected",
   "linker_set_key" : "_ZNSt3__123__libcpp_numeric_limitsIbLb1EE10has_denormE",
   "name" : "std::__1::__libcpp_numeric_limits<bool, true>::has_denorm",
   "referenced_type" : "_ZTIKNSt3__118float_denorm_styleE",
   "source_file" : "external/libcxx/include/limits"
  },
  {
   "access" : "protected",
   "linker_set_key" : "_ZNSt3__123__libcpp_numeric_limitsIbLb1EE10is_boundedE",
   "name" : "std::__1::__libcpp_numeric_limits<bool, true>::is_bounded",
   "referenced_type" : "_ZTIKb",
   "source_file" : "external/libcxx/include/limits"
  },
  {
   "access" : "protected",
   "linker_set_key" : "_ZNSt3__123__libcpp_numeric_limitsIbLb1EE10is_integerE",
   "name" : "std::__1::__libcpp_numeric_limits<bool, true>::is_integer",
   "referenced_type" : "_ZTIKb",
   "source_file" : "external/libcxx/include/limits"
  },
  {
   "access" : "protected",
   "linker_set_key" : "_ZNSt3__123__libcpp_numeric_limitsIbLb1EE11round_styleE",
   "name" : "std::__1::__libcpp_numeric_limits<bool, true>::round_style",
   "referenced_type" : "_ZTIKNSt3__117float_round_styleE",
   "source_file" : "external/libcxx/include/limits"
  },
  {
   "access" : "protected",
   "linker_set_key" : "_ZNSt3__123__libcpp_numeric_limitsIbLb1EE12has_infinityE",
   "name" : "std::__1::__libcpp_numeric_limits<bool, true>::has_infinity",
   "referenced_type" : "_ZTIKb",
   "source_file" : "external/libcxx/include/limits"
  },
  {
   "access" : "protected",
   "linker_set_key" : "_ZNSt3__123__libcpp_numeric_limitsIbLb1EE12max_digits10E",
   "name" : "std::__1::__libcpp_numeric_limits<bool, true>::max_digits10",
   "referenced_type" : "_ZTIKi",
   "source_file" : "external/libcxx/include/limits"
  },
  {
   "access" : "protected",
   "linker_set_key" : "_ZNSt3__123__libcpp_numeric_limitsIbLb1EE12max_exponentE",
   "name" : "std::__1::__libcpp_numeric_limits<bool, true>::max_exponent",
   "referenced_type" : "_ZTIKi",
   "source_file" : "external/libcxx/include/limits"
  },
  {
   "access" : "protected",
   "linker_set_key" : "_ZNSt3__123__libcpp_numeric_limitsIbLb1EE12min_exponentE",
   "name" : "std::__1::__libcpp_numeric_limits<bool, true>::min_exponent",
   "referenced_type" : "_ZTIKi",
   "source_file" : "external/libcxx/include/limits"
  },
  {
   "access" : "protected",
   "linker_set_key" : "_ZNSt3__123__libcpp_numeric_limitsIbLb1EE13has_quiet_NaNE",
   "name" : "std::__1::__libcpp_numeric_limits<bool, true>::has_quiet_NaN",
   "referenced_type" : "_ZTIKb",
   "source_file" : "external/libcxx/include/limits"
  },
  {
   "access" : "protected",
   "linker_set_key" : "_ZNSt3__123__libcpp_numeric_limitsIbLb1EE14is_specializedE",
   "name" : "std::__1::__libcpp_numeric_limits<bool, true>::is_specialized",
   "referenced_type" : "_ZTIKb",
   "source_file" : "external/libcxx/include/limits"
  },
  {
   "access" : "protected",
   "linker_set_key" : "_ZNSt3__123__libcpp_numeric_limitsIbLb1EE14max_exponent10E",
   "name" : "std::__1::__libcpp_numeric_limits<bool, true>::max_exponent10",
   "referenced_type" : "_ZTIKi",
   "source_file" : "external/libcxx/include/limits"
  },
  {
   "access" : "protected",
   "linker_set_key" : "_ZNSt3__123__libcpp_numeric_limitsIbLb1EE14min_exponent10E",
   "name" : "std::__1::__libcpp_numeric_limits<bool, true>::min_exponent10",
   "referenced_type" : "_ZTIKi",
   "source_file" : "external/libcxx/include/limits"
  },
  {
   "access" : "protected",
   "linker_set_key" : "_ZNSt3__123__libcpp_numeric_limitsIbLb1EE15has_denorm_lossE",
   "name" : "std::__1::__libcpp_numeric_limits<bool, true>::has_denorm_loss",
   "referenced_type" : "_ZTIKb",
   "source_file" : "external/libcxx/include/limits"
  },
  {
   "access" : "protected",
   "linker_set_key" : "_ZNSt3__123__libcpp_numeric_limitsIbLb1EE15tinyness_beforeE",
   "name" : "std::__1::__libcpp_numeric_limits<bool, true>::tinyness_before",
   "referenced_type" : "_ZTIKb",
   "source_file" : "external/libcxx/include/limits"
  },
  {
   "access" : "protected",
   "linker_set_key" : "_ZNSt3__123__libcpp_numeric_limitsIbLb1EE17has_signaling_NaNE",
   "name" : "std::__1::__libcpp_numeric_limits<bool, true>::has_signaling_NaN",
   "referenced_type" : "_ZTIKb",
   "source_file" : "external/libcxx/include/limits"
  },
  {
   "access" : "protected",
   "linker_set_key" : "_ZNSt3__123__libcpp_numeric_limitsIbLb1EE5__maxE",
   "name" : "std::__1::__libcpp_numeric_limits<bool, true>::__max",
   "referenced_type" : "_ZTIKb",
   "source_file" : "external/libcxx/include/limits"
  },
  {
   "access" : "protected",
   "linker_set_key" : "_ZNSt3__123__libcpp_numeric_limitsIbLb1EE5__minE",
   "name" : "std::__1::__libcpp_numeric_limits<bool, true>::__min",
   "referenced_type" : "_ZTIKb",
   "source_file" : "external/libcxx/include/limits"
  },
  {
   "access" : "protected",
   "linker_set_key" : "_ZNSt3__123__libcpp_numeric_limitsIbLb1EE5radixE",
   "name" : "std::__1::__libcpp_numeric_limits<bool, true>::radix",
   "referenced_type" : "_ZTIKi",
   "source_file" : "external/libcxx/include/limits"
  },
  {
   "access" : "protected",
   "linker_set_key" : "_ZNSt3__123__libcpp_numeric_limitsIbLb1EE5trapsE",
   "name" : "std::__1::__libcpp_numeric_limits<bool, true>::traps",
   "referenced_type" : "_ZTIKb",
   "source_file" : "external/libcxx/include/limits"
  },
  {
   "access" : "protected",
   "linker_set_key" : "_ZNSt3__123__libcpp_numeric_limitsIbLb1EE6digitsE",
   "name" : "std::__1::__libcpp_numeric_limits<bool, true>::digits",
   "referenced_type" : "_ZTIKi",
   "source_file" : "external/libcxx/include/limits"
  },
  {
   "access" : "protected",
   "linker_set_key" : "_ZNSt3__123__libcpp_numeric_limitsIbLb1EE8digits10E",
   "name" : "std::__1::__libcpp_numeric_limits<bool, true>::digits10",
   "referenced_type" : "_ZTIKi",
   "source_file" : "external/libcxx/include/limits"
  },
  {
   "access" : "protected",
   "linker_set_key" : "_ZNSt3__123__libcpp_numeric_limitsIbLb1EE8is_exactE",
   "name" : "std::__1::__libcpp_numeric_limits<bool, true>::is_exact",
   "referenced_type" : "_ZTIKb",
   "source_file" : "external/libcxx/include/limits"
  },
  {
   "access" : "protected",
   "linker_set_key" : "_ZNSt3__123__libcpp_numeric_limitsIbLb1EE9is_iec559E",
   "name" : "std::__1::__libcpp_numeric_limits<bool, true>::is_iec559",
   "referenced_type" : "_ZTIKb",
   "source_file" : "external/libcxx/include/limits"
  },
  {
   "access" : "protected",
   "linker_set_key" : "_ZNSt3__123__libcpp_numeric_limitsIbLb1EE9is_moduloE",
   "name" : "std::__1::__libcpp_numeric_limits<bool, true>::is_modulo",
   "referenced_type" : "_ZTIKb",
   "source_file" : "external/libcxx/include/limits"
  },
  {
   "access" : "protected",
   "linker_set_key" : "_ZNSt3__123__libcpp_numeric_limitsIbLb1EE9is_signedE",
   "name" : "std::__1::__libcpp_numeric_limits<bool, true>::is_signed",
   "referenced_type" : "_ZTIKb",
   "source_file" : "external/libcxx/include/limits"
  },
  {
   "access" : "protected",
   "linker_set_key" : "_ZNSt3__123__libcpp_numeric_limitsIdLb1EE10has_denormE",
   "name" : "std::__1::__libcpp_numeric_limits<double, true>::has_denorm",
   "referenced_type" : "_ZTIKNSt3__118float_denorm_styleE",
   "source_file" : "external/libcxx/include/limits"
  },
  {
   "access" : "protected",
   "linker_set_key" : "_ZNSt3__123__libcpp_numeric_limitsIdLb1EE10is_boundedE",
   "name" : "std::__1::__libcpp_numeric_limits<double, true>::is_bounded",
   "referenced_type" : "_ZTIKb",
   "source_file" : "external/libcxx/include/limits"
  },
  {
   "access" : "protected",
   "linker_set_key" : "_ZNSt3__123__libcpp_numeric_limitsIdLb1EE10is_integerE",
   "name" : "std::__1::__libcpp_numeric_limits<double, true>::is_integer",
   "referenced_type" : "_ZTIKb",
   "source_file" : "external/libcxx/include/limits"
  },
  {
   "access" : "protected",
   "linker_set_key" : "_ZNSt3__123__libcpp_numeric_limitsIdLb1EE11round_styleE",
   "name" : "std::__1::__libcpp_numeric_limits<double, true>::round_style",
   "referenced_type" : "_ZTIKNSt3__117float_round_styleE",
   "source_file" : "external/libcxx/include/limits"
  },
  {
   "access" : "protected",
   "linker_set_key" : "_ZNSt3__123__libcpp_numeric_limitsIdLb1EE12has_infinityE",
   "name" : "std::__1::__libcpp_numeric_limits<double, true>::has_infinity",
   "referenced_type" : "_ZTIKb",
   "source_file" : "external/libcxx/include/limits"
  },
  {
   "access" : "protected",
   "linker_set_key" : "_ZNSt3__123__libcpp_numeric_limitsIdLb1EE12max_digits10E",
   "name" : "std::__1::__libcpp_numeric_limits<double, true>::max_digits10",
   "referenced_type" : "_ZTIKi",
   "source_file" : "external/libcxx/include/limits"
  },
  {
   "access" : "protected",
   "linker_set_key" : "_ZNSt3__123__libcpp_numeric_limitsIdLb1EE12max_exponentE",
   "name" : "std::__1::__libcpp_numeric_limits<double, true>::max_exponent",
   "referenced_type" : "_ZTIKi",
   "source_file" : "external/libcxx/include/limits"
  },
  {
   "access" : "protected",
   "linker_set_key" : "_ZNSt3__123__libcpp_numeric_limitsIdLb1EE12min_exponentE",
   "name" : "std::__1::__libcpp_numeric_limits<double, true>::min_exponent",
   "referenced_type" : "_ZTIKi",
   "source_file" : "external/libcxx/include/limits"
  },
  {
   "access" : "protected",
   "linker_set_key" : "_ZNSt3__123__libcpp_numeric_limitsIdLb1EE13has_quiet_NaNE",
   "name" : "std::__1::__libcpp_numeric_limits<double, true>::has_quiet_NaN",
   "referenced_type" : "_ZTIKb",
   "source_file" : "external/libcxx/include/limits"
  },
  {
   "access" : "protected",
   "linker_set_key" : "_ZNSt3__123__libcpp_numeric_limitsIdLb1EE14is_specializedE",
   "name" : "std::__1::__libcpp_numeric_limits<double, true>::is_specialized",
   "referenced_type" : "_ZTIKb",
   "source_file" : "external/libcxx/include/limits"
  },
  {
   "access" : "protected",
   "linker_set_key" : "_ZNSt3__123__libcpp_numeric_limitsIdLb1EE14max_exponent10E",
   "name" : "std::__1::__libcpp_numeric_limits<double, true>::max_exponent10",
   "referenced_type" : "_ZTIKi",
   "source_file" : "external/libcxx/include/limits"
  },
  {
   "access" : "protected",
   "linker_set_key" : "_ZNSt3__123__libcpp_numeric_limitsIdLb1EE14min_exponent10E",
   "name" : "std::__1::__libcpp_numeric_limits<double, true>::min_exponent10",
   "referenced_type" : "_ZTIKi",
   "source_file" : "external/libcxx/include/limits"
  },
  {
   "access" : "protected",
   "linker_set_key" : "_ZNSt3__123__libcpp_numeric_limitsIdLb1EE15has_denorm_lossE",
   "name" : "std::__1::__libcpp_numeric_limits<double, true>::has_denorm_loss",
   "referenced_type" : "_ZTIKb",
   "source_file" : "external/libcxx/include/limits"
  },
  {
   "access" : "protected",
   "linker_set_key" : "_ZNSt3__123__libcpp_numeric_limitsIdLb1EE15tinyness_beforeE",
   "name" : "std::__1::__libcpp_numeric_limits<double, true>::tinyness_before",
   "referenced_type" : "_ZTIKb",
   "source_file" : "external/libcxx/include/limits"
  },
  {
   "access" : "protected",
   "linker_set_key" : "_ZNSt3__123__libcpp_numeric_limitsIdLb1EE17has_signaling_NaNE",
   "name" : "std::__1::__libcpp_numeric_limits<double, true>::has_signaling_NaN",
   "referenced_type" : "_ZTIKb",
   "source_file" : "external/libcxx/include/limits"
  },
  {
   "access" : "protected",
   "linker_set_key" : "_ZNSt3__123__libcpp_numeric_limitsIdLb1EE5radixE",
   "name" : "std::__1::__libcpp_numeric_limits<double, true>::radix",
   "referenced_type" : "_ZTIKi",
   "source_file" : "external/libcxx/include/limits"
  },
  {
   "access" : "protected",
   "linker_set_key" : "_ZNSt3__123__libcpp_numeric_limitsIdLb1EE5trapsE",
   "name" : "std::__1::__libcpp_numeric_limits<double, true>::traps",
   "referenced_type" : "_ZTIKb",
   "source_file" : "external/libcxx/include/limits"
  },
  {
   "access" : "protected",
   "linker_set_key" : "_ZNSt3__123__libcpp_numeric_limitsIdLb1EE6digitsE",
   "name" : "std::__1::__libcpp_numeric_limits<double, true>::digits",
   "referenced_type" : "_ZTIKi",
   "source_file" : "external/libcxx/include/limits"
  },
  {
   "access" : "protected",
   "linker_set_key" : "_ZNSt3__123__libcpp_numeric_limitsIdLb1EE8digits10E",
   "name" : "std::__1::__libcpp_numeric_limits<double, true>::digits10",
   "referenced_type" : "_ZTIKi",
   "source_file" : "external/libcxx/include/limits"
  },
  {
   "access" : "protected",
   "linker_set_key" : "_ZNSt3__123__libcpp_numeric_limitsIdLb1EE8is_exactE",
   "name" : "std::__1::__libcpp_numeric_limits<double, true>::is_exact",
   "referenced_type" : "_ZTIKb",
   "source_file" : "external/libcxx/include/limits"
  },
  {
   "access" : "protected",
   "linker_set_key" : "_ZNSt3__123__libcpp_numeric_limitsIdLb1EE9is_iec559E",
   "name" : "std::__1::__libcpp_numeric_limits<double, true>::is_iec559",
   "referenced_type" : "_ZTIKb",
   "source_file" : "external/libcxx/include/limits"
  },
  {
   "access" : "protected",
   "linker_set_key" : "_ZNSt3__123__libcpp_numeric_limitsIdLb1EE9is_moduloE",
   "name" : "std::__1::__libcpp_numeric_limits<double, true>::is_modulo",
   "referenced_type" : "_ZTIKb",
   "source_file" : "external/libcxx/include/limits"
  },
  {
   "access" : "protected",
   "linker_set_key" : "_ZNSt3__123__libcpp_numeric_limitsIdLb1EE9is_signedE",
   "name" : "std::__1::__libcpp_numeric_limits<double, true>::is_signed",
   "referenced_type" : "_ZTIKb",
   "source_file" : "external/libcxx/include/limits"
  },
  {
   "access" : "protected",
   "linker_set_key" : "_ZNSt3__123__libcpp_numeric_limitsIeLb1EE10has_denormE",
   "name" : "std::__1::__libcpp_numeric_limits<long double, true>::has_denorm",
   "referenced_type" : "_ZTIKNSt3__118float_denorm_styleE",
   "source_file" : "external/libcxx/include/limits"
  },
  {
   "access" : "protected",
   "linker_set_key" : "_ZNSt3__123__libcpp_numeric_limitsIeLb1EE10is_boundedE",
   "name" : "std::__1::__libcpp_numeric_limits<long double, true>::is_bounded",
   "referenced_type" : "_ZTIKb",
   "source_file" : "external/libcxx/include/limits"
  },
  {
   "access" : "protected",
   "linker_set_key" : "_ZNSt3__123__libcpp_numeric_limitsIeLb1EE10is_integerE",
   "name" : "std::__1::__libcpp_numeric_limits<long double, true>::is_integer",
   "referenced_type" : "_ZTIKb",
   "source_file" : "external/libcxx/include/limits"
  },
  {
   "access" : "protected",
   "linker_set_key" : "_ZNSt3__123__libcpp_numeric_limitsIeLb1EE11round_styleE",
   "name" : "std::__1::__libcpp_numeric_limits<long double, true>::round_style",
   "referenced_type" : "_ZTIKNSt3__117float_round_styleE",
   "source_file" : "external/libcxx/include/limits"
  },
  {
   "access" : "protected",
   "linker_set_key" : "_ZNSt3__123__libcpp_numeric_limitsIeLb1EE12has_infinityE",
   "name" : "std::__1::__libcpp_numeric_limits<long double, true>::has_infinity",
   "referenced_type" : "_ZTIKb",
   "source_file" : "external/libcxx/include/limits"
  },
  {
   "access" : "protected",
   "linker_set_key" : "_ZNSt3__123__libcpp_numeric_limitsIeLb1EE12max_digits10E",
   "name" : "std::__1::__libcpp_numeric_limits<long double, true>::max_digits10",
   "referenced_type" : "_ZTIKi",
   "source_file" : "external/libcxx/include/limits"
  },
  {
   "access" : "protected",
   "linker_set_key" : "_ZNSt3__123__libcpp_numeric_limitsIeLb1EE12max_exponentE",
   "name" : "std::__1::__libcpp_numeric_limits<long double, true>::max_exponent",
   "referenced_type" : "_ZTIKi",
   "source_file" : "external/libcxx/include/limits"
  },
  {
   "access" : "protected",
   "linker_set_key" : "_ZNSt3__123__libcpp_numeric_limitsIeLb1EE12min_exponentE",
   "name" : "std::__1::__libcpp_numeric_limits<long double, true>::min_exponent",
   "referenced_type" : "_ZTIKi",
   "source_file" : "external/libcxx/include/limits"
  },
  {
   "access" : "protected",
   "linker_set_key" : "_ZNSt3__123__libcpp_numeric_limitsIeLb1EE13has_quiet_NaNE",
   "name" : "std::__1::__libcpp_numeric_limits<long double, true>::has_quiet_NaN",
   "referenced_type" : "_ZTIKb",
   "source_file" : "external/libcxx/include/limits"
  },
  {
   "access" : "protected",
   "linker_set_key" : "_ZNSt3__123__libcpp_numeric_limitsIeLb1EE14is_specializedE",
   "name" : "std::__1::__libcpp_numeric_limits<long double, true>::is_specialized",
   "referenced_type" : "_ZTIKb",
   "source_file" : "external/libcxx/include/limits"
  },
  {
   "access" : "protected",
   "linker_set_key" : "_ZNSt3__123__libcpp_numeric_limitsIeLb1EE14max_exponent10E",
   "name" : "std::__1::__libcpp_numeric_limits<long double, true>::max_exponent10",
   "referenced_type" : "_ZTIKi",
   "source_file" : "external/libcxx/include/limits"
  },
  {
   "access" : "protected",
   "linker_set_key" : "_ZNSt3__123__libcpp_numeric_limitsIeLb1EE14min_exponent10E",
   "name" : "std::__1::__libcpp_numeric_limits<long double, true>::min_exponent10",
   "referenced_type" : "_ZTIKi",
   "source_file" : "external/libcxx/include/limits"
  },
  {
   "access" : "protected",
   "linker_set_key" : "_ZNSt3__123__libcpp_numeric_limitsIeLb1EE15has_denorm_lossE",
   "name" : "std::__1::__libcpp_numeric_limits<long double, true>::has_denorm_loss",
   "referenced_type" : "_ZTIKb",
   "source_file" : "external/libcxx/include/limits"
  },
  {
   "access" : "protected",
   "linker_set_key" : "_ZNSt3__123__libcpp_numeric_limitsIeLb1EE15tinyness_beforeE",
   "name" : "std::__1::__libcpp_numeric_limits<long double, true>::tinyness_before",
   "referenced_type" : "_ZTIKb",
   "source_file" : "external/libcxx/include/limits"
  },
  {
   "access" : "protected",
   "linker_set_key" : "_ZNSt3__123__libcpp_numeric_limitsIeLb1EE17has_signaling_NaNE",
   "name" : "std::__1::__libcpp_numeric_limits<long double, true>::has_signaling_NaN",
   "referenced_type" : "_ZTIKb",
   "source_file" : "external/libcxx/include/limits"
  },
  {
   "access" : "protected",
   "linker_set_key" : "_ZNSt3__123__libcpp_numeric_limitsIeLb1EE5radixE",
   "name" : "std::__1::__libcpp_numeric_limits<long double, true>::radix",
   "referenced_type" : "_ZTIKi",
   "source_file" : "external/libcxx/include/limits"
  },
  {
   "access" : "protected",
   "linker_set_key" : "_ZNSt3__123__libcpp_numeric_limitsIeLb1EE5trapsE",
   "name" : "std::__1::__libcpp_numeric_limits<long double, true>::traps",
   "referenced_type" : "_ZTIKb",
   "source_file" : "external/libcxx/include/limits"
  },
  {
   "access" : "protected",
   "linker_set_key" : "_ZNSt3__123__libcpp_numeric_limitsIeLb1EE6digitsE",
   "name" : "std::__1::__libcpp_numeric_limits<long double, true>::digits",
   "referenced_type" : "_ZTIKi",
   "source_file" : "external/libcxx/include/limits"
  },
  {
   "access" : "protected",
   "linker_set_key" : "_ZNSt3__123__libcpp_numeric_limitsIeLb1EE8digits10E",
   "name" : "std::__1::__libcpp_numeric_limits<long double, true>::digits10",
   "referenced_type" : "_ZTIKi",
   "source_file" : "external/libcxx/include/limits"
  },
  {
   "access" : "protected",
   "linker_set_key" : "_ZNSt3__123__libcpp_numeric_limitsIeLb1EE8is_exactE",
   "name" : "std::__1::__libcpp_numeric_limits<long double, true>::is_exact",
   "referenced_type" : "_ZTIKb",
   "source_file" : "external/libcxx/include/limits"
  },
  {
   "access" : "protected",
   "linker_set_key" : "_ZNSt3__123__libcpp_numeric_limitsIeLb1EE9is_iec559E",
   "name" : "std::__1::__libcpp_numeric_limits<long double, true>::is_iec559",
   "referenced_type" : "_ZTIKb",
   "source_file" : "external/libcxx/include/limits"
  },
  {
   "access" : "protected",
   "linker_set_key" : "_ZNSt3__123__libcpp_numeric_limitsIeLb1EE9is_moduloE",
   "name" : "std::__1::__libcpp_numeric_limits<long double, true>::is_modulo",
   "referenced_type" : "_ZTIKb",
   "source_file" : "external/libcxx/include/limits"
  },
  {
   "access" : "protected",
   "linker_set_key" : "_ZNSt3__123__libcpp_numeric_limitsIeLb1EE9is_signedE",
   "name" : "std::__1::__libcpp_numeric_limits<long double, true>::is_signed",
   "referenced_type" : "_ZTIKb",
   "source_file" : "external/libcxx/include/limits"
  },
  {
   "access" : "protected",
   "linker_set_key" : "_ZNSt3__123__libcpp_numeric_limitsIfLb1EE10has_denormE",
   "name" : "std::__1::__libcpp_numeric_limits<float, true>::has_denorm",
   "referenced_type" : "_ZTIKNSt3__118float_denorm_styleE",
   "source_file" : "external/libcxx/include/limits"
  },
  {
   "access" : "protected",
   "linker_set_key" : "_ZNSt3__123__libcpp_numeric_limitsIfLb1EE10is_boundedE",
   "name" : "std::__1::__libcpp_numeric_limits<float, true>::is_bounded",
   "referenced_type" : "_ZTIKb",
   "source_file" : "external/libcxx/include/limits"
  },
  {
   "access" : "protected",
   "linker_set_key" : "_ZNSt3__123__libcpp_numeric_limitsIfLb1EE10is_integerE",
   "name" : "std::__1::__libcpp_numeric_limits<float, true>::is_integer",
   "referenced_type" : "_ZTIKb",
   "source_file" : "external/libcxx/include/limits"
  },
  {
   "access" : "protected",
   "linker_set_key" : "_ZNSt3__123__libcpp_numeric_limitsIfLb1EE11round_styleE",
   "name" : "std::__1::__libcpp_numeric_limits<float, true>::round_style",
   "referenced_type" : "_ZTIKNSt3__117float_round_styleE",
   "source_file" : "external/libcxx/include/limits"
  },
  {
   "access" : "protected",
   "linker_set_key" : "_ZNSt3__123__libcpp_numeric_limitsIfLb1EE12has_infinityE",
   "name" : "std::__1::__libcpp_numeric_limits<float, true>::has_infinity",
   "referenced_type" : "_ZTIKb",
   "source_file" : "external/libcxx/include/limits"
  },
  {
   "access" : "protected",
   "linker_set_key" : "_ZNSt3__123__libcpp_numeric_limitsIfLb1EE12max_digits10E",
   "name" : "std::__1::__libcpp_numeric_limits<float, true>::max_digits10",
   "referenced_type" : "_ZTIKi",
   "source_file" : "external/libcxx/include/limits"
  },
  {
   "access" : "protected",
   "linker_set_key" : "_ZNSt3__123__libcpp_numeric_limitsIfLb1EE12max_exponentE",
   "name" : "std::__1::__libcpp_numeric_limits<float, true>::max_exponent",
   "referenced_type" : "_ZTIKi",
   "source_file" : "external/libcxx/include/limits"
  },
  {
   "access" : "protected",
   "linker_set_key" : "_ZNSt3__123__libcpp_numeric_limitsIfLb1EE12min_exponentE",
   "name" : "std::__1::__libcpp_numeric_limits<float, true>::min_exponent",
   "referenced_type" : "_ZTIKi",
   "source_file" : "external/libcxx/include/limits"
  },
  {
   "access" : "protected",
   "linker_set_key" : "_ZNSt3__123__libcpp_numeric_limitsIfLb1EE13has_quiet_NaNE",
   "name" : "std::__1::__libcpp_numeric_limits<float, true>::has_quiet_NaN",
   "referenced_type" : "_ZTIKb",
   "source_file" : "external/libcxx/include/limits"
  },
  {
   "access" : "protected",
   "linker_set_key" : "_ZNSt3__123__libcpp_numeric_limitsIfLb1EE14is_specializedE",
   "name" : "std::__1::__libcpp_numeric_limits<float, true>::is_specialized",
   "referenced_type" : "_ZTIKb",
   "source_file" : "external/libcxx/include/limits"
  },
  {
   "access" : "protected",
   "linker_set_key" : "_ZNSt3__123__libcpp_numeric_limitsIfLb1EE14max_exponent10E",
   "name" : "std::__1::__libcpp_numeric_limits<float, true>::max_exponent10",
   "referenced_type" : "_ZTIKi",
   "source_file" : "external/libcxx/include/limits"
  },
  {
   "access" : "protected",
   "linker_set_key" : "_ZNSt3__123__libcpp_numeric_limitsIfLb1EE14min_exponent10E",
   "name" : "std::__1::__libcpp_numeric_limits<float, true>::min_exponent10",
   "referenced_type" : "_ZTIKi",
   "source_file" : "external/libcxx/include/limits"
  },
  {
   "access" : "protected",
   "linker_set_key" : "_ZNSt3__123__libcpp_numeric_limitsIfLb1EE15has_denorm_lossE",
   "name" : "std::__1::__libcpp_numeric_limits<float, true>::has_denorm_loss",
   "referenced_type" : "_ZTIKb",
   "source_file" : "external/libcxx/include/limits"
  },
  {
   "access" : "protected",
   "linker_set_key" : "_ZNSt3__123__libcpp_numeric_limitsIfLb1EE15tinyness_beforeE",
   "name" : "std::__1::__libcpp_numeric_limits<float, true>::tinyness_before",
   "referenced_type" : "_ZTIKb",
   "source_file" : "external/libcxx/include/limits"
  },
  {
   "access" : "protected",
   "linker_set_key" : "_ZNSt3__123__libcpp_numeric_limitsIfLb1EE17has_signaling_NaNE",
   "name" : "std::__1::__libcpp_numeric_limits<float, true>::has_signaling_NaN",
   "referenced_type" : "_ZTIKb",
   "source_file" : "external/libcxx/include/limits"
  },
  {
   "access" : "protected",
   "linker_set_key" : "_ZNSt3__123__libcpp_numeric_limitsIfLb1EE5radixE",
   "name" : "std::__1::__libcpp_numeric_limits<float, true>::radix",
   "referenced_type" : "_ZTIKi",
   "source_file" : "external/libcxx/include/limits"
  },
  {
   "access" : "protected",
   "linker_set_key" : "_ZNSt3__123__libcpp_numeric_limitsIfLb1EE5trapsE",
   "name" : "std::__1::__libcpp_numeric_limits<float, true>::traps",
   "referenced_type" : "_ZTIKb",
   "source_file" : "external/libcxx/include/limits"
  },
  {
   "access" : "protected",
   "linker_set_key" : "_ZNSt3__123__libcpp_numeric_limitsIfLb1EE6digitsE",
   "name" : "std::__1::__libcpp_numeric_limits<float, true>::digits",
   "referenced_type" : "_ZTIKi",
   "source_file" : "external/libcxx/include/limits"
  },
  {
   "access" : "protected",
   "linker_set_key" : "_ZNSt3__123__libcpp_numeric_limitsIfLb1EE8digits10E",
   "name" : "std::__1::__libcpp_numeric_limits<float, true>::digits10",
   "referenced_type" : "_ZTIKi",
   "source_file" : "external/libcxx/include/limits"
  },
  {
   "access" : "protected",
   "linker_set_key" : "_ZNSt3__123__libcpp_numeric_limitsIfLb1EE8is_exactE",
   "name" : "std::__1::__libcpp_numeric_limits<float, true>::is_exact",
   "referenced_type" : "_ZTIKb",
   "source_file" : "external/libcxx/include/limits"
  },
  {
   "access" : "protected",
   "linker_set_key" : "_ZNSt3__123__libcpp_numeric_limitsIfLb1EE9is_iec559E",
   "name" : "std::__1::__libcpp_numeric_limits<float, true>::is_iec559",
   "referenced_type" : "_ZTIKb",
   "source_file" : "external/libcxx/include/limits"
  },
  {
   "access" : "protected",
   "linker_set_key" : "_ZNSt3__123__libcpp_numeric_limitsIfLb1EE9is_moduloE",
   "name" : "std::__1::__libcpp_numeric_limits<float, true>::is_modulo",
   "referenced_type" : "_ZTIKb",
   "source_file" : "external/libcxx/include/limits"
  },
  {
   "access" : "protected",
   "linker_set_key" : "_ZNSt3__123__libcpp_numeric_limitsIfLb1EE9is_signedE",
   "name" : "std::__1::__libcpp_numeric_limits<float, true>::is_signed",
   "referenced_type" : "_ZTIKb",
   "source_file" : "external/libcxx/include/limits"
  },
  {
   "access" : "protected",
   "linker_set_key" : "_ZNSt3__123__libcpp_numeric_limitsIhLb1EE10has_denormE",
   "name" : "std::__1::__libcpp_numeric_limits<unsigned char, true>::has_denorm",
   "referenced_type" : "_ZTIKNSt3__118float_denorm_styleE",
   "source_file" : "external/libcxx/include/limits"
  },
  {
   "access" : "protected",
   "linker_set_key" : "_ZNSt3__123__libcpp_numeric_limitsIhLb1EE10is_boundedE",
   "name" : "std::__1::__libcpp_numeric_limits<unsigned char, true>::is_bounded",
   "referenced_type" : "_ZTIKb",
   "source_file" : "external/libcxx/include/limits"
  },
  {
   "access" : "protected",
   "linker_set_key" : "_ZNSt3__123__libcpp_numeric_limitsIhLb1EE10is_integerE",
   "name" : "std::__1::__libcpp_numeric_limits<unsigned char, true>::is_integer",
   "referenced_type" : "_ZTIKb",
   "source_file" : "external/libcxx/include/limits"
  },
  {
   "access" : "protected",
   "linker_set_key" : "_ZNSt3__123__libcpp_numeric_limitsIhLb1EE11round_styleE",
   "name" : "std::__1::__libcpp_numeric_limits<unsigned char, true>::round_style",
   "referenced_type" : "_ZTIKNSt3__117float_round_styleE",
   "source_file" : "external/libcxx/include/limits"
  },
  {
   "access" : "protected",
   "linker_set_key" : "_ZNSt3__123__libcpp_numeric_limitsIhLb1EE12has_infinityE",
   "name" : "std::__1::__libcpp_numeric_limits<unsigned char, true>::has_infinity",
   "referenced_type" : "_ZTIKb",
   "source_file" : "external/libcxx/include/limits"
  },
  {
   "access" : "protected",
   "linker_set_key" : "_ZNSt3__123__libcpp_numeric_limitsIhLb1EE12max_digits10E",
   "name" : "std::__1::__libcpp_numeric_limits<unsigned char, true>::max_digits10",
   "referenced_type" : "_ZTIKi",
   "source_file" : "external/libcxx/include/limits"
  },
  {
   "access" : "protected",
   "linker_set_key" : "_ZNSt3__123__libcpp_numeric_limitsIhLb1EE12max_exponentE",
   "name" : "std::__1::__libcpp_numeric_limits<unsigned char, true>::max_exponent",
   "referenced_type" : "_ZTIKi",
   "source_file" : "external/libcxx/include/limits"
  },
  {
   "access" : "protected",
   "linker_set_key" : "_ZNSt3__123__libcpp_numeric_limitsIhLb1EE12min_exponentE",
   "name" : "std::__1::__libcpp_numeric_limits<unsigned char, true>::min_exponent",
   "referenced_type" : "_ZTIKi",
   "source_file" : "external/libcxx/include/limits"
  },
  {
   "access" : "protected",
   "linker_set_key" : "_ZNSt3__123__libcpp_numeric_limitsIhLb1EE13has_quiet_NaNE",
   "name" : "std::__1::__libcpp_numeric_limits<unsigned char, true>::has_quiet_NaN",
   "referenced_type" : "_ZTIKb",
   "source_file" : "external/libcxx/include/limits"
  },
  {
   "access" : "protected",
   "linker_set_key" : "_ZNSt3__123__libcpp_numeric_limitsIhLb1EE14is_specializedE",
   "name" : "std::__1::__libcpp_numeric_limits<unsigned char, true>::is_specialized",
   "referenced_type" : "_ZTIKb",
   "source_file" : "external/libcxx/include/limits"
  },
  {
   "access" : "protected",
   "linker_set_key" : "_ZNSt3__123__libcpp_numeric_limitsIhLb1EE14max_exponent10E",
   "name" : "std::__1::__libcpp_numeric_limits<unsigned char, true>::max_exponent10",
   "referenced_type" : "_ZTIKi",
   "source_file" : "external/libcxx/include/limits"
  },
  {
   "access" : "protected",
   "linker_set_key" : "_ZNSt3__123__libcpp_numeric_limitsIhLb1EE14min_exponent10E",
   "name" : "std::__1::__libcpp_numeric_limits<unsigned char, true>::min_exponent10",
   "referenced_type" : "_ZTIKi",
   "source_file" : "external/libcxx/include/limits"
  },
  {
   "access" : "protected",
   "linker_set_key" : "_ZNSt3__123__libcpp_numeric_limitsIhLb1EE15has_denorm_lossE",
   "name" : "std::__1::__libcpp_numeric_limits<unsigned char, true>::has_denorm_loss",
   "referenced_type" : "_ZTIKb",
   "source_file" : "external/libcxx/include/limits"
  },
  {
   "access" : "protected",
   "linker_set_key" : "_ZNSt3__123__libcpp_numeric_limitsIhLb1EE15tinyness_beforeE",
   "name" : "std::__1::__libcpp_numeric_limits<unsigned char, true>::tinyness_before",
   "referenced_type" : "_ZTIKb",
   "source_file" : "external/libcxx/include/limits"
  },
  {
   "access" : "protected",
   "linker_set_key" : "_ZNSt3__123__libcpp_numeric_limitsIhLb1EE17has_signaling_NaNE",
   "name" : "std::__1::__libcpp_numeric_limits<unsigned char, true>::has_signaling_NaN",
   "referenced_type" : "_ZTIKb",
   "source_file" : "external/libcxx/include/limits"
  },
  {
   "access" : "protected",
   "linker_set_key" : "_ZNSt3__123__libcpp_numeric_limitsIhLb1EE5__maxE",
   "name" : "std::__1::__libcpp_numeric_limits<unsigned char, true>::__max",
   "referenced_type" : "_ZTIKh",
   "source_file" : "external/libcxx/include/limits"
  },
  {
   "access" : "protected",
   "linker_set_key" : "_ZNSt3__123__libcpp_numeric_limitsIhLb1EE5__minE",
   "name" : "std::__1::__libcpp_numeric_limits<unsigned char, true>::__min",
   "referenced_type" : "_ZTIKh",
   "source_file" : "external/libcxx/include/limits"
  },
  {
   "access" : "protected",
   "linker_set_key" : "_ZNSt3__123__libcpp_numeric_limitsIhLb1EE5radixE",
   "name" : "std::__1::__libcpp_numeric_limits<unsigned char, true>::radix",
   "referenced_type" : "_ZTIKi",
   "source_file" : "external/libcxx/include/limits"
  },
  {
   "access" : "protected",
   "linker_set_key" : "_ZNSt3__123__libcpp_numeric_limitsIhLb1EE5trapsE",
   "name" : "std::__1::__libcpp_numeric_limits<unsigned char, true>::traps",
   "referenced_type" : "_ZTIKb",
   "source_file" : "external/libcxx/include/limits"
  },
  {
   "access" : "protected",
   "linker_set_key" : "_ZNSt3__123__libcpp_numeric_limitsIhLb1EE6digitsE",
   "name" : "std::__1::__libcpp_numeric_limits<unsigned char, true>::digits",
   "referenced_type" : "_ZTIKi",
   "source_file" : "external/libcxx/include/limits"
  },
  {
   "access" : "protected",
   "linker_set_key" : "_ZNSt3__123__libcpp_numeric_limitsIhLb1EE8digits10E",
   "name" : "std::__1::__libcpp_numeric_limits<unsigned char, true>::digits10",
   "referenced_type" : "_ZTIKi",
   "source_file" : "external/libcxx/include/limits"
  },
  {
   "access" : "protected",
   "linker_set_key" : "_ZNSt3__123__libcpp_numeric_limitsIhLb1EE8is_exactE",
   "name" : "std::__1::__libcpp_numeric_limits<unsigned char, true>::is_exact",
   "referenced_type" : "_ZTIKb",
   "source_file" : "external/libcxx/include/limits"
  },
  {
   "access" : "protected",
   "linker_set_key" : "_ZNSt3__123__libcpp_numeric_limitsIhLb1EE9is_iec559E",
   "name" : "std::__1::__libcpp_numeric_limits<unsigned char, true>::is_iec559",
   "referenced_type" : "_ZTIKb",
   "source_file" : "external/libcxx/include/limits"
  },
  {
   "access" : "protected",
   "linker_set_key" : "_ZNSt3__123__libcpp_numeric_limitsIhLb1EE9is_moduloE",
   "name" : "std::__1::__libcpp_numeric_limits<unsigned char, true>::is_modulo",
   "referenced_type" : "_ZTIKb",
   "source_file" : "external/libcxx/include/limits"
  },
  {
   "access" : "protected",
   "linker_set_key" : "_ZNSt3__123__libcpp_numeric_limitsIhLb1EE9is_signedE",
   "name" : "std::__1::__libcpp_numeric_limits<unsigned char, true>::is_signed",
   "referenced_type" : "_ZTIKb",
   "source_file" : "external/libcxx/include/limits"
  },
  {
   "access" : "protected",
   "linker_set_key" : "_ZNSt3__123__libcpp_numeric_limitsItLb1EE10has_denormE",
   "name" : "std::__1::__libcpp_numeric_limits<unsigned short, true>::has_denorm",
   "referenced_type" : "_ZTIKNSt3__118float_denorm_styleE",
   "source_file" : "external/libcxx/include/limits"
  },
  {
   "access" : "protected",
   "linker_set_key" : "_ZNSt3__123__libcpp_numeric_limitsItLb1EE10is_boundedE",
   "name" : "std::__1::__libcpp_numeric_limits<unsigned short, true>::is_bounded",
   "referenced_type" : "_ZTIKb",
   "source_file" : "external/libcxx/include/limits"
  },
  {
   "access" : "protected",
   "linker_set_key" : "_ZNSt3__123__libcpp_numeric_limitsItLb1EE10is_integerE",
   "name" : "std::__1::__libcpp_numeric_limits<unsigned short, true>::is_integer",
   "referenced_type" : "_ZTIKb",
   "source_file" : "external/libcxx/include/limits"
  },
  {
   "access" : "protected",
   "linker_set_key" : "_ZNSt3__123__libcpp_numeric_limitsItLb1EE11round_styleE",
   "name" : "std::__1::__libcpp_numeric_limits<unsigned short, true>::round_style",
   "referenced_type" : "_ZTIKNSt3__117float_round_styleE",
   "source_file" : "external/libcxx/include/limits"
  },
  {
   "access" : "protected",
   "linker_set_key" : "_ZNSt3__123__libcpp_numeric_limitsItLb1EE12has_infinityE",
   "name" : "std::__1::__libcpp_numeric_limits<unsigned short, true>::has_infinity",
   "referenced_type" : "_ZTIKb",
   "source_file" : "external/libcxx/include/limits"
  },
  {
   "access" : "protected",
   "linker_set_key" : "_ZNSt3__123__libcpp_numeric_limitsItLb1EE12max_digits10E",
   "name" : "std::__1::__libcpp_numeric_limits<unsigned short, true>::max_digits10",
   "referenced_type" : "_ZTIKi",
   "source_file" : "external/libcxx/include/limits"
  },
  {
   "access" : "protected",
   "linker_set_key" : "_ZNSt3__123__libcpp_numeric_limitsItLb1EE12max_exponentE",
   "name" : "std::__1::__libcpp_numeric_limits<unsigned short, true>::max_exponent",
   "referenced_type" : "_ZTIKi",
   "source_file" : "external/libcxx/include/limits"
  },
  {
   "access" : "protected",
   "linker_set_key" : "_ZNSt3__123__libcpp_numeric_limitsItLb1EE12min_exponentE",
   "name" : "std::__1::__libcpp_numeric_limits<unsigned short, true>::min_exponent",
   "referenced_type" : "_ZTIKi",
   "source_file" : "external/libcxx/include/limits"
  },
  {
   "access" : "protected",
   "linker_set_key" : "_ZNSt3__123__libcpp_numeric_limitsItLb1EE13has_quiet_NaNE",
   "name" : "std::__1::__libcpp_numeric_limits<unsigned short, true>::has_quiet_NaN",
   "referenced_type" : "_ZTIKb",
   "source_file" : "external/libcxx/include/limits"
  },
  {
   "access" : "protected",
   "linker_set_key" : "_ZNSt3__123__libcpp_numeric_limitsItLb1EE14is_specializedE",
   "name" : "std::__1::__libcpp_numeric_limits<unsigned short, true>::is_specialized",
   "referenced_type" : "_ZTIKb",
   "source_file" : "external/libcxx/include/limits"
  },
  {
   "access" : "protected",
   "linker_set_key" : "_ZNSt3__123__libcpp_numeric_limitsItLb1EE14max_exponent10E",
   "name" : "std::__1::__libcpp_numeric_limits<unsigned short, true>::max_exponent10",
   "referenced_type" : "_ZTIKi",
   "source_file" : "external/libcxx/include/limits"
  },
  {
   "access" : "protected",
   "linker_set_key" : "_ZNSt3__123__libcpp_numeric_limitsItLb1EE14min_exponent10E",
   "name" : "std::__1::__libcpp_numeric_limits<unsigned short, true>::min_exponent10",
   "referenced_type" : "_ZTIKi",
   "source_file" : "external/libcxx/include/limits"
  },
  {
   "access" : "protected",
   "linker_set_key" : "_ZNSt3__123__libcpp_numeric_limitsItLb1EE15has_denorm_lossE",
   "name" : "std::__1::__libcpp_numeric_limits<unsigned short, true>::has_denorm_loss",
   "referenced_type" : "_ZTIKb",
   "source_file" : "external/libcxx/include/limits"
  },
  {
   "access" : "protected",
   "linker_set_key" : "_ZNSt3__123__libcpp_numeric_limitsItLb1EE15tinyness_beforeE",
   "name" : "std::__1::__libcpp_numeric_limits<unsigned short, true>::tinyness_before",
   "referenced_type" : "_ZTIKb",
   "source_file" : "external/libcxx/include/limits"
  },
  {
   "access" : "protected",
   "linker_set_key" : "_ZNSt3__123__libcpp_numeric_limitsItLb1EE17has_signaling_NaNE",
   "name" : "std::__1::__libcpp_numeric_limits<unsigned short, true>::has_signaling_NaN",
   "referenced_type" : "_ZTIKb",
   "source_file" : "external/libcxx/include/limits"
  },
  {
   "access" : "protected",
   "linker_set_key" : "_ZNSt3__123__libcpp_numeric_limitsItLb1EE5__maxE",
   "name" : "std::__1::__libcpp_numeric_limits<unsigned short, true>::__max",
   "referenced_type" : "_ZTIKt",
   "source_file" : "external/libcxx/include/limits"
  },
  {
   "access" : "protected",
   "linker_set_key" : "_ZNSt3__123__libcpp_numeric_limitsItLb1EE5__minE",
   "name" : "std::__1::__libcpp_numeric_limits<unsigned short, true>::__min",
   "referenced_type" : "_ZTIKt",
   "source_file" : "external/libcxx/include/limits"
  },
  {
   "access" : "protected",
   "linker_set_key" : "_ZNSt3__123__libcpp_numeric_limitsItLb1EE5radixE",
   "name" : "std::__1::__libcpp_numeric_limits<unsigned short, true>::radix",
   "referenced_type" : "_ZTIKi",
   "source_file" : "external/libcxx/include/limits"
  },
  {
   "access" : "protected",
   "linker_set_key" : "_ZNSt3__123__libcpp_numeric_limitsItLb1EE5trapsE",
   "name" : "std::__1::__libcpp_numeric_limits<unsigned short, true>::traps",
   "referenced_type" : "_ZTIKb",
   "source_file" : "external/libcxx/include/limits"
  },
  {
   "access" : "protected",
   "linker_set_key" : "_ZNSt3__123__libcpp_numeric_limitsItLb1EE6digitsE",
   "name" : "std::__1::__libcpp_numeric_limits<unsigned short, true>::digits",
   "referenced_type" : "_ZTIKi",
   "source_file" : "external/libcxx/include/limits"
  },
  {
   "access" : "protected",
   "linker_set_key" : "_ZNSt3__123__libcpp_numeric_limitsItLb1EE8digits10E",
   "name" : "std::__1::__libcpp_numeric_limits<unsigned short, true>::digits10",
   "referenced_type" : "_ZTIKi",
   "source_file" : "external/libcxx/include/limits"
  },
  {
   "access" : "protected",
   "linker_set_key" : "_ZNSt3__123__libcpp_numeric_limitsItLb1EE8is_exactE",
   "name" : "std::__1::__libcpp_numeric_limits<unsigned short, true>::is_exact",
   "referenced_type" : "_ZTIKb",
   "source_file" : "external/libcxx/include/limits"
  },
  {
   "access" : "protected",
   "linker_set_key" : "_ZNSt3__123__libcpp_numeric_limitsItLb1EE9is_iec559E",
   "name" : "std::__1::__libcpp_numeric_limits<unsigned short, true>::is_iec559",
   "referenced_type" : "_ZTIKb",
   "source_file" : "external/libcxx/include/limits"
  },
  {
   "access" : "protected",
   "linker_set_key" : "_ZNSt3__123__libcpp_numeric_limitsItLb1EE9is_moduloE",
   "name" : "std::__1::__libcpp_numeric_limits<unsigned short, true>::is_modulo",
   "referenced_type" : "_ZTIKb",
   "source_file" : "external/libcxx/include/limits"
  },
  {
   "access" : "protected",
   "linker_set_key" : "_ZNSt3__123__libcpp_numeric_limitsItLb1EE9is_signedE",
   "name" : "std::__1::__libcpp_numeric_limits<unsigned short, true>::is_signed",
   "referenced_type" : "_ZTIKb",
   "source_file" : "external/libcxx/include/limits"
  },
  {
   "linker_set_key" : "_ZNSt3__125__nothrow_invokable_r_imp5valueE",
   "name" : "std::__1::__nothrow_invokable_r_imp::value",
   "referenced_type" : "_ZTIKb",
   "source_file" : "external/libcxx/include/type_traits"
  },
  {
   "linker_set_key" : "_ZNSt3__125__nothrow_invokable_r_impILb1ELb0ET_T0_JDpT1_EE5valueE",
   "name" : "std::__1::__nothrow_invokable_r_imp<true, false, type-parameter-0-0, type-parameter-0-1, type-parameter-0-2...>::value",
   "referenced_type" : "_ZTIKb",
   "source_file" : "external/libcxx/include/type_traits"
  },
  {
   "linker_set_key" : "_ZNSt3__125__nothrow_invokable_r_impILb1ELb1ET_T0_JDpT1_EE5valueE",
   "name" : "std::__1::__nothrow_invokable_r_imp<true, true, type-parameter-0-0, type-parameter-0-1, type-parameter-0-2...>::value",
   "referenced_type" : "_ZTIKb",
   "source_file" : "external/libcxx/include/type_traits"
  },
  {
   "linker_set_key" : "_ZNSt3__126__is_destructor_wellformed5valueE",
   "name" : "std::__1::__is_destructor_wellformed::value",
   "referenced_type" : "_ZTIKb",
   "source_file" : "external/libcxx/include/type_traits"
  },
  {
   "linker_set_key" : "_ZNSt3__133__has_operator_addressof_free_imp5valueE",
   "name" : "std::__1::__has_operator_addressof_free_imp::value",
   "referenced_type" : "_ZTIKb",
   "source_file" : "external/libcxx/include/type_traits"
  },
  {
   "linker_set_key" : "_ZNSt3__135__has_operator_addressof_member_imp5valueE",
   "name" : "std::__1::__has_operator_addressof_member_imp::value",
   "referenced_type" : "_ZTIKb",
   "source_file" : "external/libcxx/include/type_traits"
  },
  {
   "linker_set_key" : "_ZNSt3__16__itoa8__traits6digitsE",
   "name" : "std::__1::__itoa::__traits::digits",
   "referenced_type" : "_ZTIKi",
   "source_file" : "external/libcxx/include/charconv"
  },
  {
   "linker_set_key" : "_ZNSt3__16__itoaL10__pow10_32E",
   "name" : "std::__1::__itoa::__pow10_32",
   "referenced_type" : "_ZTIA10_Kj",
   "source_file" : "external/libcxx/include/charconv"
  },
  {
   "linker_set_key" : "_ZNSt3__16__itoaL10__pow10_64E",
   "name" : "std::__1::__itoa::__pow10_64",
   "referenced_type" : "_ZTIA20_Km",
   "source_file" : "external/libcxx/include/charconv"
  },
  {
   "linker_set_key" : "_ZNSt3__18__detail16__swappable_with5valueE",
   "name" : "std::__1::__detail::__swappable_with::value",
   "referenced_type" : "_ZTIKb",
   "source_file" : "external/libcxx/include/type_traits"
  },
  {
   "linker_set_key" : "_ZNSt3__18__detail24__nothrow_swappable_with5valueE",
   "name" : "std::__1::__detail::__nothrow_swappable_with::value",
   "referenced_type" : "_ZTIKb",
   "source_file" : "external/libcxx/include/type_traits"
  }
 ],
 "lvalue_reference_types" :
 [
  {
   "alignment" : 8,
   "linker_set_key" : "_ZTIRKNSt3__119__libcpp_debug_infoE",
   "name" : "const std::__libcpp_debug_info &",
   "referenced_type" : "_ZTIKNSt3__119__libcpp_debug_infoE",
   "self_type" : "_ZTIRKNSt3__119__libcpp_debug_infoE",
   "size" : 8,
   "source_file" : "external/libcxx/include/__debug"
  },
  {
   "alignment" : 8,
   "linker_set_key" : "_ZTIRKSt13exception_ptr",
   "name" : "const std::exception_ptr &",
   "referenced_type" : "_ZTIKSt13exception_ptr",
   "self_type" : "_ZTIRKSt13exception_ptr",
   "size" : 8,
   "source_file" : "external/libcxx/include/exception"
  }
 ],
 "pointer_types" :
 [
  {
   "alignment" : 8,
   "linker_set_key" : "_ZTIPFvRKNSt3__119__libcpp_debug_infoEE",
   "name" : "void (*)(const std::__1::__libcpp_debug_info &)",
   "referenced_type" : "_ZTIFvRKNSt3__119__libcpp_debug_infoEE",
   "self_type" : "_ZTIPFvRKNSt3__119__libcpp_debug_infoEE",
   "size" : 8,
   "source_file" : "external/libcxx/include/__debug"
  },
  {
   "alignment" : 8,
   "linker_set_key" : "_ZTIPKNSt3__119__in_pattern_resultE",
   "name" : "const std::__in_pattern_result *",
   "referenced_type" : "_ZTIKNSt3__119__in_pattern_resultE",
   "self_type" : "_ZTIPKNSt3__119__in_pattern_resultE",
   "size" : 8,
   "source_file" : "external/libcxx/include/charconv"
  },
  {
   "alignment" : 8,
   "linker_set_key" : "_ZTIPKSt13exception_ptr",
   "name" : "const std::exception_ptr *",
   "referenced_type" : "_ZTIKSt13exception_ptr",
   "self_type" : "_ZTIPKSt13exception_ptr",
   "size" : 8,
   "source_file" : "external/libcxx/include/exception"
  },
  {
   "alignment" : 8,
   "linker_set_key" : "_ZTIPKSt16nested_exception",
   "name" : "const std::nested_exception *",
   "referenced_type" : "_ZTIKSt16nested_exception",
   "self_type" : "_ZTIPKSt16nested_exception",
   "size" : 8,
   "source_file" : "external/libcxx/include/exception"
  },
  {
   "alignment" : 8,
   "linker_set_key" : "_ZTIPKc",
   "name" : "const char *",
   "referenced_type" : "_ZTIKc",
   "self_type" : "_ZTIPKc",
   "size" : 8,
   "source_file" : "external/libcxx/include/string.h"
  },
  {
   "alignment" : 8,
   "linker_set_key" : "_ZTIPKv",
   "name" : "const void *",
   "referenced_type" : "_ZTIKv",
   "self_type" : "_ZTIPKv",
   "size" : 8,
   "source_file" : "external/libcxx/include/string.h"
  },
  {
   "alignment" : 8,
   "linker_set_key" : "_ZTIPNSt3__119__libcpp_debug_infoE",
   "name" : "std::__libcpp_debug_info *",
   "referenced_type" : "_ZTINSt3__119__libcpp_debug_infoE",
   "self_type" : "_ZTIPNSt3__119__libcpp_debug_infoE",
   "size" : 8,
   "source_file" : "external/libcxx/include/__debug"
  },
  {
   "alignment" : 8,
   "linker_set_key" : "_ZTIPNSt3__124__libcpp_debug_exception28__libcpp_debug_exception_impE",
   "name" : "std::__libcpp_debug_exception::__libcpp_debug_exception_imp *",
   "referenced_type" : "_ZTINSt3__124__libcpp_debug_exception28__libcpp_debug_exception_impE",
   "self_type" : "_ZTIPNSt3__124__libcpp_debug_exception28__libcpp_debug_exception_impE",
   "size" : 8,
   "source_file" : "external/libcxx/include/__debug"
  },
  {
   "alignment" : 8,
   "linker_set_key" : "_ZTIPNSt3__18__c_nodeE",
   "name" : "std::__c_node *",
   "referenced_type" : "_ZTINSt3__18__c_nodeE",
   "self_type" : "_ZTIPNSt3__18__c_nodeE",
   "size" : 8,
   "source_file" : "external/libcxx/include/__debug"
  },
  {
   "alignment" : 8,
   "linker_set_key" : "_ZTIPNSt3__18__i_nodeE",
   "name" : "std::__i_node *",
   "referenced_type" : "_ZTINSt3__18__i_nodeE",
   "self_type" : "_ZTIPNSt3__18__i_nodeE",
   "size" : 8,
   "source_file" : "external/libcxx/include/__debug"
  },
  {
   "alignment" : 8,
   "linker_set_key" : "_ZTIPPNSt3__18__c_nodeE",
   "name" : "std::__c_node **",
   "referenced_type" : "_ZTIPNSt3__18__c_nodeE",
   "self_type" : "_ZTIPPNSt3__18__c_nodeE",
   "size" : 8,
   "source_file" : "external/libcxx/include/__debug"
  },
  {
   "alignment" : 8,
   "linker_set_key" : "_ZTIPPNSt3__18__i_nodeE",
   "name" : "std::__i_node **",
   "referenced_type" : "_ZTIPNSt3__18__i_nodeE",
   "self_type" : "_ZTIPPNSt3__18__i_nodeE",
   "size" : 8,
   "source_file" : "external/libcxx/include/__debug"
  },
  {
   "alignment" : 8,
   "linker_set_key" : "_ZTIPSt13bad_exception",
   "name" : "std::bad_exception *",
   "referenced_type" : "_ZTISt13bad_exception",
   "self_type" : "_ZTIPSt13bad_exception",
   "size" : 8,
   "source_file" : "external/libcxx/include/exception"
  },
  {
   "alignment" : 8,
   "linker_set_key" : "_ZTIPSt13exception_ptr",
   "name" : "std::exception_ptr *",
   "referenced_type" : "_ZTISt13exception_ptr",
   "self_type" : "_ZTIPSt13exception_ptr",
   "size" : 8,
   "source_file" : "external/libcxx/include/exception"
  },
  {
   "alignment" : 8,
   "linker_set_key" : "_ZTIPSt9exception",
   "name" : "std::exception *",
   "referenced_type" : "_ZTISt9exception",
   "self_type" : "_ZTIPSt9exception",
   "size" : 8,
   "source_file" : "external/libcxx/include/exception"
  },
  {
   "alignment" : 8,
   "linker_set_key" : "_ZTIPc",
   "name" : "char *",
   "referenced_type" : "_ZTIc",
   "self_type" : "_ZTIPc",
   "size" : 8,
   "source_file" : "external/libcxx/include/string.h"
  },
  {
   "alignment" : 8,
   "linker_set_key" : "_ZTIPe",
   "name" : "long double *",
   "referenced_type" : "_ZTIe",
   "self_type" : "_ZTIPe",
   "size" : 8,
   "source_file" : "external/libcxx/include/math.h"
  },
  {
   "alignment" : 8,
   "linker_set_key" : "_ZTIPf",
   "name" : "float *",
   "referenced_type" : "_ZTIf",
   "self_type" : "_ZTIPf",
   "size" : 8,
   "source_file" : "external/libcxx/include/math.h"
  },
  {
   "alignment" : 8,
   "linker_set_key" : "_ZTIPi",
   "name" : "int *",
   "referenced_type" : "_ZTIi",
   "self_type" : "_ZTIPi",
   "size" : 8,
   "source_file" : "external/libcxx/include/math.h"
  },
  {
   "alignment" : 8,
   "linker_set_key" : "_ZTIPv",
   "name" : "void *",
   "referenced_type" : "_ZTIv",
   "self_type" : "_ZTIPv",
   "size" : 8,
   "source_file" : "external/libcxx/include/string.h"
  }
 ],
 "qualified_types" :
 [
  {
   "alignment" : 4,
   "is_const" : true,
   "linker_set_key" : "_ZTIA10_Kj",
   "name" : "unsigned int const[10]",
   "referenced_type" : "_ZTIA10_j",
   "self_type" : "_ZTIA10_Kj",
   "size" : 40,
   "source_file" : "external/libcxx/include/charconv"
  },
  {
   "alignment" : 8,
   "is_const" : true,
   "linker_set_key" : "_ZTIA20_Km",
   "name" : "unsigned long const[20]",
   "referenced_type" : "_ZTIA20_m",
   "self_type" : "_ZTIA20_Km",
   "size" : 160,
   "source_file" : "external/libcxx/include/charconv"
  },
  {
   "alignment" : 4,
   "is_const" : true,
   "linker_set_key" : "_ZTIKNSt3__117float_round_styleE",
   "name" : "const std::float_round_style",
   "referenced_type" : "_ZTINSt3__117float_round_styleE",
   "self_type" : "_ZTIKNSt3__117float_round_styleE",
   "size" : 4,
   "source_file" : "external/libcxx/include/limits"
  },
  {
   "alignment" : 4,
   "is_const" : true,
   "linker_set_key" : "_ZTIKNSt3__118float_denorm_styleE",
   "name" : "const std::float_denorm_style",
   "referenced_type" : "_ZTINSt3__118float_denorm_styleE",
   "self_type" : "_ZTIKNSt3__118float_denorm_styleE",
   "size" : 4,
   "source_file" : "external/libcxx/include/limits"
  },
  {
   "alignment" : 4,
   "is_const" : true,
   "linker_set_key" : "_ZTIKNSt3__119__in_pattern_resultE",
   "name" : "const std::__in_pattern_result",
   "referenced_type" : "_ZTINSt3__119__in_pattern_resultE",
   "self_type" : "_ZTIKNSt3__119__in_pattern_resultE",
   "size" : 8,
   "source_file" : "external/libcxx/include/charconv"
  },
  {
   "alignment" : 8,
   "is_const" : true,
   "linker_set_key" : "_ZTIKNSt3__119__libcpp_debug_infoE",
   "name" : "const std::__libcpp_debug_info",
   "referenced_type" : "_ZTINSt3__119__libcpp_debug_infoE",
   "self_type" : "_ZTIKNSt3__119__libcpp_debug_infoE",
   "size" : 32,
   "source_file" : "external/libcxx/include/__debug"
  },
  {
   "alignment" : 8,
   "is_const" : true,
   "linker_set_key" : "_ZTIKSt13exception_ptr",
   "name" : "const std::exception_ptr",
   "referenced_type" : "_ZTISt13exception_ptr",
   "self_type" : "_ZTIKSt13exception_ptr",
   "size" : 8,
   "source_file" : "external/libcxx/include/exception"
  },
  {
   "alignment" : 8,
   "is_const" : true,
   "linker_set_key" : "_ZTIKSt16nested_exception",
   "name" : "const std::nested_exception",
   "referenced_type" : "_ZTISt16nested_exception",
   "self_type" : "_ZTIKSt16nested_exception",
   "size" : 16,
   "source_file" : "external/libcxx/include/exception"
  },
  {
   "alignment" : 1,
   "is_const" : true,
   "linker_set_key" : "_ZTIKb",
   "name" : "const bool",
   "referenced_type" : "_ZTIb",
   "self_type" : "_ZTIKb",
   "size" : 1,
   "source_file" : "external/libcxx/include/type_traits"
  },
  {
   "alignment" : 1,
   "is_const" : true,
   "linker_set_key" : "_ZTIKc",
   "name" : "const char",
   "referenced_type" : "_ZTIc",
   "self_type" : "_ZTIKc",
   "size" : 1,
   "source_file" : "external/libcxx/include/string.h"
  },
  {
   "alignment" : 1,
   "is_const" : true,
   "linker_set_key" : "_ZTIKh",
   "name" : "const unsigned char",
   "referenced_type" : "_ZTIh",
   "self_type" : "_ZTIKh",
   "size" : 1,
   "source_file" : "external/libcxx/include/limits"
  },
  {
   "alignment" : 4,
   "is_const" : true,
   "linker_set_key" : "_ZTIKi",
   "name" : "const int",
   "referenced_type" : "_ZTIi",
   "self_type" : "_ZTIKi",
   "size" : 4,
   "source_file" : "external/libcxx/include/limits"
  },
  {
   "alignment" : 8,
   "is_const" : true,
   "linker_set_key" : "_ZTIKm",
   "name" : "const unsigned long",
   "referenced_type" : "_ZTIm",
   "self_type" : "_ZTIKm",
   "size" : 8,
   "source_file" : "external/libcxx/include/type_traits"
  },
  {
   "alignment" : 2,
   "is_const" : true,
   "linker_set_key" : "_ZTIKt",
   "name" : "const unsigned short",
   "referenced_type" : "_ZTIt",
   "self_type" : "_ZTIKt",
   "size" : 2,
   "source_file" : "external/libcxx/include/limits"
  },
  {
   "is_const" : true,
   "linker_set_key" : "_ZTIKv",
   "name" : "const void",
   "referenced_type" : "_ZTIv",
   "self_type" : "_ZTIKv",
   "source_file" : "external/libcxx/include/string.h"
  }
 ],
 "record_types" :
 [
  {
   "alignment" : 8,
   "fields" :
   [
    {
     "access" : "private",
     "field_name" : "__cbeg_",
     "referenced_type" : "_ZTIPPNSt3__18__c_nodeE"
    },
    {
     "access" : "private",
     "field_name" : "__cend_",
     "field_offset" : 64,
     "referenced_type" : "_ZTIPPNSt3__18__c_nodeE"
    },
    {
     "access" : "private",
     "field_name" : "__csz_",
     "field_offset" : 128,
     "referenced_type" : "_ZTIm"
    },
    {
     "access" : "private",
     "field_name" : "__ibeg_",
     "field_offset" : 192,
     "referenced_type" : "_ZTIPPNSt3__18__i_nodeE"
    },
    {
     "access" : "private",
     "field_name" : "__iend_",
     "field_offset" : 256,
     "referenced_type" : "_ZTIPPNSt3__18__i_nodeE"
    },
    {
     "access" : "private",
     "field_name" : "__isz_",
     "field_offset" : 320,
     "referenced_type" : "_ZTIm"
    }
   ],
   "linker_set_key" : "_ZTINSt3__111__libcpp_dbE",
   "name" : "std::__libcpp_db",
   "record_kind" : "class",
   "referenced_type" : "_ZTINSt3__111__libcpp_dbE",
   "self_type" : "_ZTINSt3__111__libcpp_dbE",
   "size" : 48,
   "source_file" : "external/libcxx/include/__debug"
  },
  {
   "alignment" : 1,
   "linker_set_key" : "_ZTINSt3__111__type_listIaNS0_IsNS0_IiNS0_IlNS0_IxNS0_InNS_5__natEEEEEEEEEEEEE",
   "name" : "std::__type_list<signed char, std::__type_list<short, std::__type_list<int, std::__type_list<long, std::__type_list<long long, std::__type_list<__int128, std::__nat>>>>>>",
   "referenced_type" : "_ZTINSt3__111__type_listIaNS0_IsNS0_IiNS0_IlNS0_IxNS0_InNS_5__natEEEEEEEEEEEEE",
   "self_type" : "_ZTINSt3__111__type_listIaNS0_IsNS0_IiNS0_IlNS0_IxNS0_InNS_5__natEEEEEEEEEEEEE",
   "size" : 1,
   "source_file" : "external/libcxx/include/type_traits",
   "template_args" :
   [
    "_ZTIa",
    "_ZTINSt3__111__type_listIsNS0_IiNS0_IlNS0_IxNS0_InNS_5__natEEEEEEEEEEE"
   ]
  },
  {
   "alignment" : 1,
   "linker_set_key" : "_ZTINSt3__111__type_listIhNS0_ItNS0_IjNS0_ImNS0_IyNS0_IoNS_5__natEEEEEEEEEEEEE",
   "name" : "std::__type_list<unsigned char, std::__type_list<unsigned short, std::__type_list<unsigned int, std::__type_list<unsigned long, std::__type_list<unsigned long long, std::__type_list<unsigned __int128, std::__nat>>>>>>",
   "referenced_type" : "_ZTINSt3__111__type_listIhNS0_ItNS0_IjNS0_ImNS0_IyNS0_IoNS_5__natEEEEEEEEEEEEE",
   "self_type" : "_ZTINSt3__111__type_listIhNS0_ItNS0_IjNS0_ImNS0_IyNS0_IoNS_5__natEEEEEEEEEEEEE",
   "size" : 1,
   "source_file" : "external/libcxx/include/type_traits",
   "template_args" :
   [
    "_ZTIh",
    "_ZTINSt3__111__type_listItNS0_IjNS0_ImNS0_IyNS0_IoNS_5__natEEEEEEEEEEE"
   ]
  },
  {
   "alignment" : 1,
   "base_specifiers" :
   [
    {
     "referenced_type" : "_ZTINSt3__120__libcpp_is_integralIdEE"
    }
   ],
   "linker_set_key" : "_ZTINSt3__111is_integralIdEE",
   "name" : "std::is_integral<double>",
   "referenced_type" : "_ZTINSt3__111is_integralIdEE",
   "self_type" : "_ZTINSt3__111is_integralIdEE",
   "size" : 1,
   "source_file" : "external/libcxx/include/type_traits",
   "template_args" : [ "_ZTId" ]
  },
  {
   "alignment" : 1,
   "base_specifiers" :
   [
    {
     "referenced_type" : "_ZTINSt3__120__libcpp_is_integralIhEE"
    }
   ],
   "linker_set_key" : "_ZTINSt3__111is_integralIhEE",
   "name" : "std::is_integral<unsigned char>",
   "referenced_type" : "_ZTINSt3__111is_integralIhEE",
   "self_type" : "_ZTINSt3__111is_integralIhEE",
   "size" : 1,
   "source_file" : "external/libcxx/include/type_traits",
   "template_args" : [ "_ZTIh" ]
  },
  {
   "alignment" : 1,
   "base_specifiers" :
   [
    {
     "referenced_type" : "_ZTINSt3__120__libcpp_is_integralItEE"
    }
   ],
   "linker_set_key" : "_ZTINSt3__111is_integralItEE",
   "name" : "std::is_integral<unsigned short>",
   "referenced_type" : "_ZTINSt3__111is_integralItEE",
   "self_type" : "_ZTINSt3__111is_integralItEE",
   "size" : 1,
   "source_file" : "external/libcxx/include/type_traits",
   "template_args" : [ "_ZTIt" ]
  },
  {
   "alignment" : 1,
   "linker_set_key" : "_ZTINSt3__112remove_constIdEE",
   "name" : "std::remove_const<double>",
   "referenced_type" : "_ZTINSt3__112remove_constIdEE",
   "self_type" : "_ZTINSt3__112remove_constIdEE",
   "size" : 1,
   "source_file" : "external/libcxx/include/type_traits",
   "template_args" : [ "_ZTId" ]
  },
  {
   "alignment" : 1,
   "linker_set_key" : "_ZTINSt3__112remove_constIhEE",
   "name" : "std::remove_const<unsigned char>",
   "referenced_type" : "_ZTINSt3__112remove_constIhEE",
   "self_type" : "_ZTINSt3__112remove_constIhEE",
   "size" : 1,
   "source_file" : "external/libcxx/include/type_traits",
   "template_args" : [ "_ZTIh" ]
  },
  {
   "alignment" : 1,
   "linker_set_key" : "_ZTINSt3__112remove_constItEE",
   "name" : "std::remove_const<unsigned short>",
   "referenced_type" : "_ZTINSt3__112remove_constItEE",
   "self_type" : "_ZTINSt3__112remove_constItEE",
   "size" : 1,
   "source_file" : "external/libcxx/include/type_traits",
   "template_args" : [ "_ZTIt" ]
  },
  {
   "alignment" : 1,
   "linker_set_key" : "_ZTINSt3__113__make_signedIbLb1EEE",
   "name" : "std::__make_signed<bool, true>",
   "referenced_type" : "_ZTINSt3__113__make_signedIbLb1EEE",
   "self_type" : "_ZTINSt3__113__make_signedIbLb1EEE",
   "size" : 1,
   "source_file" : "external/libcxx/include/type_traits",
   "template_args" : [ "_ZTIb" ]
  },
  {
   "alignment" : 1,
   "linker_set_key" : "_ZTINSt3__113__make_signedIiLb1EEE",
   "name" : "std::__make_signed<int, true>",
   "referenced_type" : "_ZTINSt3__113__make_signedIiLb1EEE",
   "self_type" : "_ZTINSt3__113__make_signedIiLb1EEE",
   "size" : 1,
   "source_file" : "external/libcxx/include/type_traits",
   "template_args" : [ "_ZTIi" ]
  },
  {
   "alignment" : 1,
   "linker_set_key" : "_ZTINSt3__113__make_signedIjLb1EEE",
   "name" : "std::__make_signed<unsigned int, true>",
   "referenced_type" : "_ZTINSt3__113__make_signedIjLb1EEE",
   "self_type" : "_ZTINSt3__113__make_signedIjLb1EEE",
   "size" : 1,
   "source_file" : "external/libcxx/include/type_traits",
   "template_args" : [ "_ZTIj" ]
  },
  {
   "alignment" : 1,
   "linker_set_key" : "_ZTINSt3__113__make_signedIlLb1EEE",
   "name" : "std::__make_signed<long, true>",
   "referenced_type" : "_ZTINSt3__113__make_signedIlLb1EEE",
   "self_type" : "_ZTINSt3__113__make_signedIlLb1EEE",
   "size" : 1,
   "source_file" : "external/libcxx/include/type_traits",
   "template_args" : [ "_ZTIl" ]
  },
  {
   "alignment" : 1,
   "linker_set_key" : "_ZTINSt3__113__make_signedImLb1EEE",
   "name" : "std::__make_signed<unsigned long, true>",
   "referenced_type" : "_ZTINSt3__113__make_signedImLb1EEE",
   "self_type" : "_ZTINSt3__113__make_signedImLb1EEE",
   "size" : 1,
   "source_file" : "external/libcxx/include/type_traits",
   "template_args" : [ "_ZTIm" ]
  },
  {
   "alignment" : 1,
   "linker_set_key" : "_ZTINSt3__113__make_signedInLb1EEE",
   "name" : "std::__make_signed<__int128_t, true>",
   "referenced_type" : "_ZTINSt3__113__make_signedInLb1EEE",
   "self_type" : "_ZTINSt3__113__make_signedInLb1EEE",
   "size" : 1,
   "source_file" : "external/libcxx/include/type_traits",
   "template_args" : [ "_ZTIn" ]
  },
  {
   "alignment" : 1,
   "linker_set_key" : "_ZTINSt3__113__make_signedIoLb1EEE",
   "name" : "std::__make_signed<__uint128_t, true>",
   "referenced_type" : "_ZTINSt3__113__make_signedIoLb1EEE",
   "self_type" : "_ZTINSt3__113__make_signedIoLb1EEE",
   "size" : 1,
   "source_file" : "external/libcxx/include/type_traits",
   "template_args" : [ "_ZTIo" ]
  },
  {
   "alignment" : 1,
   "linker_set_key" : "_ZTINSt3__113__make_signedIsLb1EEE",
   "name" : "std::__make_signed<short, true>",
   "referenced_type" : "_ZTINSt3__113__make_signedIsLb1EEE",
   "self_type" : "_ZTINSt3__113__make_signedIsLb1EEE",
   "size" : 1,
   "source_file" : "external/libcxx/include/type_traits",
   "template_args" : [ "_ZTIs" ]
  },
  {
   "alignment" : 1,
   "linker_set_key" : "_ZTINSt3__113__make_signedItLb1EEE",
   "name" : "std::__make_signed<unsigned short, true>",
   "referenced_type" : "_ZTINSt3__113__make_signedItLb1EEE",
   "self_type" : "_ZTINSt3__113__make_signedItLb1EEE",
   "size" : 1,
   "source_file" : "external/libcxx/include/type_traits",
   "template_args" : [ "_ZTIt" ]
  },
  {
   "alignment" : 1,
   "linker_set_key" : "_ZTINSt3__113__make_signedIxLb1EEE",
   "name" : "std::__make_signed<long long, true>",
   "referenced_type" : "_ZTINSt3__113__make_signedIxLb1EEE",
   "self_type" : "_ZTINSt3__113__make_signedIxLb1EEE",
   "size" : 1,
   "source_file" : "external/libcxx/include/type_traits",
   "template_args" : [ "_ZTIx" ]
  },
  {
   "alignment" : 1,
   "linker_set_key" : "_ZTINSt3__113__make_signedIyLb1EEE",
   "name" : "std::__make_signed<unsigned long long, true>",
   "referenced_type" : "_ZTINSt3__113__make_signedIyLb1EEE",
   "self_type" : "_ZTINSt3__113__make_signedIyLb1EEE",
   "size" : 1,
   "source_file" : "external/libcxx/include/type_traits",
   "template_args" : [ "_ZTIy" ]
  },
  {
   "alignment" : 1,
   "base_specifiers" :
   [
    {
     "referenced_type" : "_ZTINSt3__117integral_constantIbLb1EEE"
    }
   ],
   "linker_set_key" : "_ZTINSt3__113is_arithmeticIhEE",
   "name" : "std::is_arithmetic<unsigned char>",
   "referenced_type" : "_ZTINSt3__113is_arithmeticIhEE",
   "self_type" : "_ZTINSt3__113is_arithmeticIhEE",
   "size" : 1,
   "source_file" : "external/libcxx/include/type_traits",
   "template_args" : [ "_ZTIh" ]
  },
  {
   "alignment" : 1,
   "base_specifiers" :
   [
    {
     "referenced_type" : "_ZTINSt3__117integral_constantIbLb1EEE"
    }
   ],
   "linker_set_key" : "_ZTINSt3__113is_arithmeticItEE",
   "name" : "std::is_arithmetic<unsigned short>",
   "referenced_type" : "_ZTINSt3__113is_arithmeticItEE",
   "self_type" : "_ZTINSt3__113is_arithmeticItEE",
   "size" : 1,
   "source_file" : "external/libcxx/include/type_traits",
   "template_args" : [ "_ZTIt" ]
  },
  {
   "alignment" : 1,
   "linker_set_key" : "_ZTINSt3__114__is_construct5__natE",
   "name" : "std::__is_construct::__nat",
   "referenced_type" : "_ZTINSt3__114__is_construct5__natE",
   "self_type" : "_ZTINSt3__114__is_construct5__natE",
   "size" : 1,
   "source_file" : "external/libcxx/include/type_traits"
  },
  {
   "alignment" : 1,
   "base_specifiers" :
   [
    {
     "referenced_type" : "_ZTINSt3__117integral_constantIbLb0EEE"
    }
   ],
   "linker_set_key" : "_ZTINSt3__114__lazy_or_implILb0EJEEE",
   "name" : "std::__lazy_or_impl<false>",
   "referenced_type" : "_ZTINSt3__114__lazy_or_implILb0EJEEE",
   "self_type" : "_ZTINSt3__114__lazy_or_implILb0EJEEE",
   "size" : 1,
   "source_file" : "external/libcxx/include/type_traits"
  },
  {
   "alignment" : 1,
   "linker_set_key" : "_ZTINSt3__114__numeric_typeIvEE",
   "name" : "std::__numeric_type<void>",
   "referenced_type" : "_ZTINSt3__114__numeric_typeIvEE",
   "self_type" : "_ZTINSt3__114__numeric_typeIvEE",
   "size" : 1,
   "source_file" : "external/libcxx/include/type_traits",
   "template_args" : [ "_ZTIv" ]
  },
  {
   "alignment" : 1,
   "base_specifiers" :
   [
    {
     "access" : "private",
     "referenced_type" : "_ZTINSt3__123__libcpp_numeric_limitsIhLb1EEE"
    }
   ],
   "linker_set_key" : "_ZTINSt3__114numeric_limitsIhEE",
   "name" : "std::numeric_limits<unsigned char>",
   "record_kind" : "class",
   "referenced_type" : "_ZTINSt3__114numeric_limitsIhEE",
   "self_type" : "_ZTINSt3__114numeric_limitsIhEE",
   "size" : 1,
   "source_file" : "external/libcxx/include/limits",
   "template_args" : [ "_ZTIh" ]
  },
  {
   "alignment" : 1,
   "base_specifiers" :
   [
    {
     "access" : "private",
     "referenced_type" : "_ZTINSt3__123__libcpp_numeric_limitsItLb1EEE"
    }
   ],
   "linker_set_key" : "_ZTINSt3__114numeric_limitsItEE",
   "name" : "std::numeric_limits<unsigned short>",
   "record_kind" : "class",
   "referenced_type" : "_ZTINSt3__114numeric_limitsItEE",
   "self_type" : "_ZTINSt3__114numeric_limitsItEE",
   "size" : 1,
   "source_file" : "external/libcxx/include/limits",
   "template_args" : [ "_ZTIt" ]
  },
  {
   "alignment" : 1,
   "base_specifiers" :
   [
    {
     "referenced_type" : "_ZTINSt3__117integral_constantIbLb1EEE"
    }
   ],
   "linker_set_key" : "_ZTINSt3__115__lazy_and_implILb1EJEEE",
   "name" : "std::__lazy_and_impl<true>",
   "referenced_type" : "_ZTINSt3__115__lazy_and_implILb1EJEEE",
   "self_type" : "_ZTINSt3__115__lazy_and_implILb1EJEEE",
   "size" : 1,
   "source_file" : "external/libcxx/include/type_traits"
  },
  {
   "alignment" : 1,
   "linker_set_key" : "_ZTINSt3__115__make_unsignedIbLb1EEE",
   "name" : "std::__make_unsigned<bool, true>",
   "referenced_type" : "_ZTINSt3__115__make_unsignedIbLb1EEE",
   "self_type" : "_ZTINSt3__115__make_unsignedIbLb1EEE",
   "size" : 1,
   "source_file" : "external/libcxx/include/type_traits",
   "template_args" : [ "_ZTIb" ]
  },
  {
   "alignment" : 1,
   "linker_set_key" : "_ZTINSt3__115__make_unsignedIiLb1EEE",
   "name" : "std::__make_unsigned<int, true>",
   "referenced_type" : "_ZTINSt3__115__make_unsignedIiLb1EEE",
   "self_type" : "_ZTINSt3__115__make_unsignedIiLb1EEE",
   "size" : 1,
   "source_file" : "external/libcxx/include/type_traits",
   "template_args" : [ "_ZTIi" ]
  },
  {
   "alignment" : 1,
   "linker_set_key" : "_ZTINSt3__115__make_unsignedIjLb1EEE",
   "name" : "std::__make_unsigned<unsigned int, true>",
   "referenced_type" : "_ZTINSt3__115__make_unsignedIjLb1EEE",
   "self_type" : "_ZTINSt3__115__make_unsignedIjLb1EEE",
   "size" : 1,
   "source_file" : "external/libcxx/include/type_traits",
   "template_args" : [ "_ZTIj" ]
  },
  {
   "alignment" : 1,
   "linker_set_key" : "_ZTINSt3__115__make_unsignedIlLb1EEE",
   "name" : "std::__make_unsigned<long, true>",
   "referenced_type" : "_ZTINSt3__115__make_unsignedIlLb1EEE",
   "self_type" : "_ZTINSt3__115__make_unsignedIlLb1EEE",
   "size" : 1,
   "source_file" : "external/libcxx/include/type_traits",
   "template_args" : [ "_ZTIl" ]
  },
  {
   "alignment" : 1,
   "linker_set_key" : "_ZTINSt3__115__make_unsignedImLb1EEE",
   "name" : "std::__make_unsigned<unsigned long, true>",
   "referenced_type" : "_ZTINSt3__115__make_unsignedImLb1EEE",
   "self_type" : "_ZTINSt3__115__make_unsignedImLb1EEE",
   "size" : 1,
   "source_file" : "external/libcxx/include/type_traits",
   "template_args" : [ "_ZTIm" ]
  },
  {
   "alignment" : 1,
   "linker_set_key" : "_ZTINSt3__115__make_unsignedInLb1EEE",
   "name" : "std::__make_unsigned<__int128_t, true>",
   "referenced_type" : "_ZTINSt3__115__make_unsignedInLb1EEE",
   "self_type" : "_ZTINSt3__115__make_unsignedInLb1EEE",
   "size" : 1,
   "source_file" : "external/libcxx/include/type_traits",
   "template_args" : [ "_ZTIn" ]
  },
  {
   "alignment" : 1,
   "linker_set_key" : "_ZTINSt3__115__make_unsignedIoLb1EEE",
   "name" : "std::__make_unsigned<__uint128_t, true>",
   "referenced_type" : "_ZTINSt3__115__make_unsignedIoLb1EEE",
   "self_type" : "_ZTINSt3__115__make_unsignedIoLb1EEE",
   "size" : 1,
   "source_file" : "external/libcxx/include/type_traits",
   "template_args" : [ "_ZTIo" ]
  },
  {
   "alignment" : 1,
   "linker_set_key" : "_ZTINSt3__115__make_unsignedIsLb1EEE",
   "name" : "std::__make_unsigned<short, true>",
   "referenced_type" : "_ZTINSt3__115__make_unsignedIsLb1EEE",
   "self_type" : "_ZTINSt3__115__make_unsignedIsLb1EEE",
   "size" : 1,
   "source_file" : "external/libcxx/include/type_traits",
   "template_args" : [ "_ZTIs" ]
  },
  {
   "alignment" : 1,
   "linker_set_key" : "_ZTINSt3__115__make_unsignedItLb1EEE",
   "name" : "std::__make_unsigned<unsigned short, true>",
   "referenced_type" : "_ZTINSt3__115__make_unsignedItLb1EEE",
   "self_type" : "_ZTINSt3__115__make_unsignedItLb1EEE",
   "size" : 1,
   "source_file" : "external/libcxx/include/type_traits",
   "template_args" : [ "_ZTIt" ]
  },
  {
   "alignment" : 1,
   "linker_set_key" : "_ZTINSt3__115__make_unsignedIxLb1EEE",
   "name" : "std::__make_unsigned<long long, true>",
   "referenced_type" : "_ZTINSt3__115__make_unsignedIxLb1EEE",
   "self_type" : "_ZTINSt3__115__make_unsignedIxLb1EEE",
   "size" : 1,
   "source_file" : "external/libcxx/include/type_traits",
   "template_args" : [ "_ZTIx" ]
  },
  {
   "alignment" : 1,
   "linker_set_key" : "_ZTINSt3__115__make_unsignedIyLb1EEE",
   "name" : "std::__make_unsigned<unsigned long long, true>",
   "referenced_type" : "_ZTINSt3__115__make_unsignedIyLb1EEE",
   "self_type" : "_ZTINSt3__115__make_unsignedIyLb1EEE",
   "size" : 1,
   "source_file" : "external/libcxx/include/type_traits",
   "template_args" : [ "_ZTIy" ]
  },
  {
   "alignment" : 16,
   "fields" :
   [
    {
     "field_name" : "__lx",
     "referenced_type" : "_ZTIe"
    }
   ],
   "linker_set_key" : "_ZTINSt3__115__struct_doubleE",
   "name" : "std::__struct_double",
   "referenced_type" : "_ZTINSt3__115__struct_doubleE",
   "self_type" : "_ZTINSt3__115__struct_doubleE",
   "size" : 16,
   "source_file" : "external/libcxx/include/type_traits"
  },
  {
   "alignment" : 1,
   "base_specifiers" :
   [
    {
     "referenced_type" : "_ZTINSt3__117integral_constantIbLb0EEE"
    }
   ],
   "linker_set_key" : "_ZTINSt3__115is_destructibleIvEE",
   "name" : "std::is_destructible<void>",
   "referenced_type" : "_ZTINSt3__115is_destructibleIvEE",
   "self_type" : "_ZTINSt3__115is_destructibleIvEE",
   "size" : 1,
   "source_file" : "external/libcxx/include/type_traits",
   "template_args" : [ "_ZTIv" ]
  },
  {
   "alignment" : 1,
   "linker_set_key" : "_ZTINSt3__115remove_volatileIdEE",
   "name" : "std::remove_volatile<double>",
   "referenced_type" : "_ZTINSt3__115remove_volatileIdEE",
   "self_type" : "_ZTINSt3__115remove_volatileIdEE",
   "size" : 1,
   "source_file" : "external/libcxx/include/type_traits",
   "template_args" : [ "_ZTId" ]
  },
  {
   "alignment" : 1,
   "linker_set_key" : "_ZTINSt3__115remove_volatileIhEE",
   "name" : "std::remove_volatile<unsigned char>",
   "referenced_type" : "_ZTINSt3__115remove_volatileIhEE",
   "self_type" : "_ZTINSt3__115remove_volatileIhEE",
   "size" : 1,
   "source_file" : "external/libcxx/include/type_traits",
   "template_args" : [ "_ZTIh" ]
  },
  {
   "alignment" : 1,
   "linker_set_key" : "_ZTINSt3__115remove_volatileItEE",
   "name" : "std::remove_volatile<unsigned short>",
   "referenced_type" : "_ZTINSt3__115remove_volatileItEE",
   "self_type" : "_ZTINSt3__115remove_volatileItEE",
   "size" : 1,
   "source_file" : "external/libcxx/include/type_traits",
   "template_args" : [ "_ZTIt" ]
  },
  {
   "alignment" : 8,
   "fields" :
   [
    {
     "field_name" : "ptr",
     "referenced_type" : "_ZTIPc"
    },
    {
     "field_name" : "ec",
     "field_offset" : 64,
     "referenced_type" : "_ZTINSt3__14errcE"
    }
   ],
   "linker_set_key" : "_ZTINSt3__115to_chars_resultE",
   "name" : "std::to_chars_result",
   "referenced_type" : "_ZTINSt3__115to_chars_resultE",
   "self_type" : "_ZTINSt3__115to_chars_resultE",
   "size" : 16,
   "source_file" : "external/libcxx/include/charconv"
  },
  {
   "alignment" : 1,
   "base_specifiers" :
   [
    {
     "referenced_type" : "_ZTINSt3__117integral_constantIbLb1EEE"
    }
   ],
   "linker_set_key" : "_ZTINSt3__116__libcpp_is_voidIvEE",
   "name" : "std::__libcpp_is_void<void>",
   "referenced_type" : "_ZTINSt3__116__libcpp_is_voidIvEE",
   "self_type" : "_ZTINSt3__116__libcpp_is_voidIvEE",
   "size" : 1,
   "source_file" : "external/libcxx/include/type_traits",
   "template_args" : [ "_ZTIv" ]
  },
  {
   "alignment" : 8,
   "fields" :
   [
    {
     "field_name" : "__lx",
     "referenced_type" : "_ZTIA4_d"
    }
   ],
   "linker_set_key" : "_ZTINSt3__116__struct_double4E",
   "name" : "std::__struct_double4",
   "referenced_type" : "_ZTINSt3__116__struct_double4E",
   "self_type" : "_ZTINSt3__116__struct_double4E",
   "size" : 32,
   "source_file" : "external/libcxx/include/type_traits"
  },
  {
   "alignment" : 8,
   "fields" :
   [
    {
     "field_name" : "ptr",
     "referenced_type" : "_ZTIPKc"
    },
    {
     "field_name" : "ec",
     "field_offset" : 64,
     "referenced_type" : "_ZTINSt3__14errcE"
    }
   ],
   "linker_set_key" : "_ZTINSt3__117from_chars_resultE",
   "name" : "std::from_chars_result",
   "referenced_type" : "_ZTINSt3__117from_chars_resultE",
   "self_type" : "_ZTINSt3__117from_chars_resultE",
   "size" : 16,
   "source_file" : "external/libcxx/include/charconv"
  },
  {
   "alignment" : 1,
   "linker_set_key" : "_ZTINSt3__117integral_constantIbLb0EEE",
   "name" : "std::integral_constant<bool, false>",
   "referenced_type" : "_ZTINSt3__117integral_constantIbLb0EEE",
   "self_type" : "_ZTINSt3__117integral_constantIbLb0EEE",
   "size" : 1,
   "source_file" : "external/libcxx/include/type_traits",
   "template_args" : [ "_ZTIb" ]
  },
  {
   "alignment" : 1,
   "linker_set_key" : "_ZTINSt3__117integral_constantIbLb1EEE",
   "name" : "std::integral_constant<bool, true>",
   "referenced_type" : "_ZTINSt3__117integral_constantIbLb1EEE",
   "self_type" : "_ZTINSt3__117integral_constantIbLb1EEE",
   "size" : 1,
   "source_file" : "external/libcxx/include/type_traits",
   "template_args" : [ "_ZTIb" ]
  },
  {
   "alignment" : 1,
   "linker_set_key" : "_ZTINSt3__117integral_constantImLm0EEE",
   "name" : "std::integral_constant<unsigned long, 0>",
   "referenced_type" : "_ZTINSt3__117integral_constantImLm0EEE",
   "self_type" : "_ZTINSt3__117integral_constantImLm0EEE",
   "size" : 1,
   "source_file" : "external/libcxx/include/type_traits",
   "template_args" : [ "_ZTIm" ]
  },
  {
   "alignment" : 1,
   "base_specifiers" :
   [
    {
     "referenced_type" : "_ZTINSt3__126__libcpp_is_floating_pointIhEE"
    }
   ],
   "linker_set_key" : "_ZTINSt3__117is_floating_pointIhEE",
   "name" : "std::is_floating_point<unsigned char>",
   "referenced_type" : "_ZTINSt3__117is_floating_pointIhEE",
   "self_type" : "_ZTINSt3__117is_floating_pointIhEE",
   "size" : 1,
   "source_file" : "external/libcxx/include/type_traits",
   "template_args" : [ "_ZTIh" ]
  },
  {
   "alignment" : 1,
   "base_specifiers" :
   [
    {
     "referenced_type" : "_ZTINSt3__126__libcpp_is_floating_pointItEE"
    }
   ],
   "linker_set_key" : "_ZTINSt3__117is_floating_pointItEE",
   "name" : "std::is_floating_point<unsigned short>",
   "referenced_type" : "_ZTINSt3__117is_floating_pointItEE",
   "self_type" : "_ZTINSt3__117is_floating_pointItEE",
   "size" : 1,
   "source_file" : "external/libcxx/include/type_traits",
   "template_args" : [ "_ZTIt" ]
  },
  {
   "alignment" : 1,
   "base_specifiers" :
   [
    {
     "referenced_type" : "_ZTINSt3__123__libcpp_is_signed_implIhLb1EEE"
    }
   ],
   "linker_set_key" : "_ZTINSt3__118__libcpp_is_signedIhLb1EEE",
   "name" : "std::__libcpp_is_signed<unsigned char, true>",
   "referenced_type" : "_ZTINSt3__118__libcpp_is_signedIhLb1EEE",
   "self_type" : "_ZTINSt3__118__libcpp_is_signedIhLb1EEE",
   "size" : 1,
   "source_file" : "external/libcxx/include/type_traits",
   "template_args" : [ "_ZTIh" ]
  },
  {
   "alignment" : 1,
   "base_specifiers" :
   [
    {
     "referenced_type" : "_ZTINSt3__123__libcpp_is_signed_implItLb1EEE"
    }
   ],
   "linker_set_key" : "_ZTINSt3__118__libcpp_is_signedItLb1EEE",
   "name" : "std::__libcpp_is_signed<unsigned short, true>",
   "referenced_type" : "_ZTINSt3__118__libcpp_is_signedItLb1EEE",
   "self_type" : "_ZTINSt3__118__libcpp_is_signedItLb1EEE",
   "size" : 1,
   "source_file" : "external/libcxx/include/type_traits",
   "template_args" : [ "_ZTIt" ]
  },
  {
   "alignment" : 4,
   "fields" :
   [
    {
     "field_name" : "__ok",
     "referenced_type" : "_ZTIb"
    },
    {
     "field_name" : "__val",
     "field_offset" : 32,
     "referenced_type" : "_ZTIi"
    }
   ],
   "linker_set_key" : "_ZTINSt3__119__in_pattern_resultE",
   "name" : "std::__in_pattern_result",
   "referenced_type" : "_ZTINSt3__119__in_pattern_resultE",
   "self_type" : "_ZTINSt3__119__in_pattern_resultE",
   "size" : 8,
   "source_file" : "external/libcxx/include/charconv"
  },
  {
   "alignment" : 1,
   "base_specifiers" :
   [
    {
     "referenced_type" : "_ZTINSt3__117integral_constantIbLb1EEE"
    }
   ],
   "linker_set_key" : "_ZTINSt3__119__is_nullptr_t_implIDnEE",
   "name" : "std::__is_nullptr_t_impl<nullptr_t>",
   "referenced_type" : "_ZTINSt3__119__is_nullptr_t_implIDnEE",
   "self_type" : "_ZTINSt3__119__is_nullptr_t_implIDnEE",
   "size" : 1,
   "source_file" : "external/libcxx/include/type_traits",
   "template_args" : [ "_ZTIDn" ]
  },
  {
   "alignment" : 8,
   "fields" :
   [
    {
     "field_name" : "__file_",
     "referenced_type" : "_ZTIPKc"
    },
    {
     "field_name" : "__line_",
     "field_offset" : 64,
     "referenced_type" : "_ZTIi"
    },
    {
     "field_name" : "__pred_",
     "field_offset" : 128,
     "referenced_type" : "_ZTIPKc"
    },
    {
     "field_name" : "__msg_",
     "field_offset" : 192,
     "referenced_type" : "_ZTIPKc"
    }
   ],
   "linker_set_key" : "_ZTINSt3__119__libcpp_debug_infoE",
   "name" : "std::__libcpp_debug_info",
   "referenced_type" : "_ZTINSt3__119__libcpp_debug_infoE",
   "self_type" : "_ZTINSt3__119__libcpp_debug_infoE",
   "size" : 32,
   "source_file" : "external/libcxx/include/__debug"
  },
  {
   "alignment" : 1,
   "linker_set_key" : "_ZTINSt3__120__libcpp_compute_minIhLi8ELb0EEE",
   "name" : "std::__libcpp_compute_min<unsigned char, 8, false>",
   "referenced_type" : "_ZTINSt3__120__libcpp_compute_minIhLi8ELb0EEE",
   "self_type" : "_ZTINSt3__120__libcpp_compute_minIhLi8ELb0EEE",
   "size" : 1,
   "source_file" : "external/libcxx/include/limits",
   "template_args" : [ "_ZTIh" ]
  },
  {
   "alignment" : 1,
   "linker_set_key" : "_ZTINSt3__120__libcpp_compute_minItLi16ELb0EEE",
   "name" : "std::__libcpp_compute_min<unsigned short, 16, false>",
   "referenced_type" : "_ZTINSt3__120__libcpp_compute_minItLi16ELb0EEE",
   "self_type" : "_ZTINSt3__120__libcpp_compute_minItLi16ELb0EEE",
   "size" : 1,
   "source_file" : "external/libcxx/include/limits",
   "template_args" : [ "_ZTIt" ]
  },
  {
   "alignment" : 1,
   "base_specifiers" :
   [
    {
     "referenced_type" : "_ZTINSt3__117integral_constantIbLb1EEE"
    }
   ],
   "linker_set_key" : "_ZTINSt3__120__libcpp_is_integralIDiEE",
   "name" : "std::__libcpp_is_integral<char32_t>",
   "referenced_type" : "_ZTINSt3__120__libcpp_is_integralIDiEE",
   "self_type" : "_ZTINSt3__120__libcpp_is_integralIDiEE",
   "size" : 1,
   "source_file" : "external/libcxx/include/type_traits",
   "template_args" : [ "_ZTIDi" ]
  },
  {
   "alignment" : 1,
   "base_specifiers" :
   [
    {
     "referenced_type" : "_ZTINSt3__117integral_constantIbLb1EEE"
    }
   ],
   "linker_set_key" : "_ZTINSt3__120__libcpp_is_integralIDsEE",
   "name" : "std::__libcpp_is_integral<char16_t>",
   "referenced_type" : "_ZTINSt3__120__libcpp_is_integralIDsEE",
   "self_type" : "_ZTINSt3__120__libcpp_is_integralIDsEE",
   "size" : 1,
   "source_file" : "external/libcxx/include/type_traits",
   "template_args" : [ "_ZTIDs" ]
  },
  {
   "alignment" : 1,
   "base_specifiers" :
   [
    {
     "referenced_type" : "_ZTINSt3__117integral_constantIbLb1EEE"
    }
   ],
   "linker_set_key" : "_ZTINSt3__120__libcpp_is_integralIaEE",
   "name" : "std::__libcpp_is_integral<signed char>",
   "referenced_type" : "_ZTINSt3__120__libcpp_is_integralIaEE",
   "self_type" : "_ZTINSt3__120__libcpp_is_integralIaEE",
   "size" : 1,
   "source_file" : "external/libcxx/include/type_traits",
   "template_args" : [ "_ZTIa" ]
  },
  {
   "alignment" : 1,
   "base_specifiers" :
   [
    {
     "referenced_type" : "_ZTINSt3__117integral_constantIbLb1EEE"
    }
   ],
   "linker_set_key" : "_ZTINSt3__120__libcpp_is_integralIbEE",
   "name" : "std::__libcpp_is_integral<bool>",
   "referenced_type" : "_ZTINSt3__120__libcpp_is_integralIbEE",
   "self_type" : "_ZTINSt3__120__libcpp_is_integralIbEE",
   "size" : 1,
   "source_file" : "external/libcxx/include/type_traits",
   "template_args" : [ "_ZTIb" ]
  },
  {
   "alignment" : 1,
   "base_specifiers" :
   [
    {
     "referenced_type" : "_ZTINSt3__117integral_constantIbLb1EEE"
    }
   ],
   "linker_set_key" : "_ZTINSt3__120__libcpp_is_integralIcEE",
   "name" : "std::__libcpp_is_integral<char>",
   "referenced_type" : "_ZTINSt3__120__libcpp_is_integralIcEE",
   "self_type" : "_ZTINSt3__120__libcpp_is_integralIcEE",
   "size" : 1,
   "source_file" : "external/libcxx/include/type_traits",
   "template_args" : [ "_ZTIc" ]
  },
  {
   "alignment" : 1,
   "base_specifiers" :
   [
    {
     "referenced_type" : "_ZTINSt3__117integral_constantIbLb0EEE"
    }
   ],
   "linker_set_key" : "_ZTINSt3__120__libcpp_is_integralIdEE",
   "name" : "std::__libcpp_is_integral<double>",
   "referenced_type" : "_ZTINSt3__120__libcpp_is_integralIdEE",
   "self_type" : "_ZTINSt3__120__libcpp_is_integralIdEE",
   "size" : 1,
   "source_file" : "external/libcxx/include/type_traits",
   "template_args" : [ "_ZTId" ]
  },
  {
   "alignment" : 1,
   "base_specifiers" :
   [
    {
     "referenced_type" : "_ZTINSt3__117integral_constantIbLb1EEE"
    }
   ],
   "linker_set_key" : "_ZTINSt3__120__libcpp_is_integralIhEE",
   "name" : "std::__libcpp_is_integral<unsigned char>",
   "referenced_type" : "_ZTINSt3__120__libcpp_is_integralIhEE",
   "self_type" : "_ZTINSt3__120__libcpp_is_integralIhEE",
   "size" : 1,
   "source_file" : "external/libcxx/include/type_traits",
   "template_args" : [ "_ZTIh" ]
  },
  {
   "alignment" : 1,
   "base_specifiers" :
   [
    {
     "referenced_type" : "_ZTINSt3__117integral_constantIbLb1EEE"
    }
   ],
   "linker_set_key" : "_ZTINSt3__120__libcpp_is_integralIiEE",
   "name" : "std::__libcpp_is_integral<int>",
   "referenced_type" : "_ZTINSt3__120__libcpp_is_integralIiEE",
   "self_type" : "_ZTINSt3__120__libcpp_is_integralIiEE",
   "size" : 1,
   "source_file" : "external/libcxx/include/type_traits",
   "template_args" : [ "_ZTIi" ]
  },
  {
   "alignment" : 1,
   "base_specifiers" :
   [
    {
     "referenced_type" : "_ZTINSt3__117integral_constantIbLb1EEE"
    }
   ],
   "linker_set_key" : "_ZTINSt3__120__libcpp_is_integralIjEE",
   "name" : "std::__libcpp_is_integral<unsigned int>",
   "referenced_type" : "_ZTINSt3__120__libcpp_is_integralIjEE",
   "self_type" : "_ZTINSt3__120__libcpp_is_integralIjEE",
   "size" : 1,
   "source_file" : "external/libcxx/include/type_traits",
   "template_args" : [ "_ZTIj" ]
  },
  {
   "alignment" : 1,
   "base_specifiers" :
   [
    {
     "referenced_type" : "_ZTINSt3__117integral_constantIbLb1EEE"
    }
   ],
   "linker_set_key" : "_ZTINSt3__120__libcpp_is_integralIlEE",
   "name" : "std::__libcpp_is_integral<long>",
   "referenced_type" : "_ZTINSt3__120__libcpp_is_integralIlEE",
   "self_type" : "_ZTINSt3__120__libcpp_is_integralIlEE",
   "size" : 1,
   "source_file" : "external/libcxx/include/type_traits",
   "template_args" : [ "_ZTIl" ]
  },
  {
   "alignment" : 1,
   "base_specifiers" :
   [
    {
     "referenced_type" : "_ZTINSt3__117integral_constantIbLb1EEE"
    }
   ],
   "linker_set_key" : "_ZTINSt3__120__libcpp_is_integralImEE",
   "name" : "std::__libcpp_is_integral<unsigned long>",
   "referenced_type" : "_ZTINSt3__120__libcpp_is_integralImEE",
   "self_type" : "_ZTINSt3__120__libcpp_is_integralImEE",
   "size" : 1,
   "source_file" : "external/libcxx/include/type_traits",
   "template_args" : [ "_ZTIm" ]
  },
  {
   "alignment" : 1,
   "base_specifiers" :
   [
    {
     "referenced_type" : "_ZTINSt3__117integral_constantIbLb1EEE"
    }
   ],
   "linker_set_key" : "_ZTINSt3__120__libcpp_is_integralInEE",
   "name" : "std::__libcpp_is_integral<__int128_t>",
   "referenced_type" : "_ZTINSt3__120__libcpp_is_integralInEE",
   "self_type" : "_ZTINSt3__120__libcpp_is_integralInEE",
   "size" : 1,
   "source_file" : "external/libcxx/include/type_traits",
   "template_args" : [ "_ZTIn" ]
  },
  {
   "alignment" : 1,
   "base_specifiers" :
   [
    {
     "referenced_type" : "_ZTINSt3__117integral_constantIbLb1EEE"
    }
   ],
   "linker_set_key" : "_ZTINSt3__120__libcpp_is_integralIoEE",
   "name" : "std::__libcpp_is_integral<__uint128_t>",
   "referenced_type" : "_ZTINSt3__120__libcpp_is_integralIoEE",
   "self_type" : "_ZTINSt3__120__libcpp_is_integralIoEE",
   "size" : 1,
   "source_file" : "external/libcxx/include/type_traits",
   "template_args" : [ "_ZTIo" ]
  },
  {
   "alignment" : 1,
   "base_specifiers" :
   [
    {
     "referenced_type" : "_ZTINSt3__117integral_constantIbLb1EEE"
    }
   ],
   "linker_set_key" : "_ZTINSt3__120__libcpp_is_integralIsEE",
   "name" : "std::__libcpp_is_integral<short>",
   "referenced_type" : "_ZTINSt3__120__libcpp_is_integralIsEE",
   "self_type" : "_ZTINSt3__120__libcpp_is_integralIsEE",
   "size" : 1,
   "source_file" : "external/libcxx/include/type_traits",
   "template_args" : [ "_ZTIs" ]
  },
  {
   "alignment" : 1,
   "base_specifiers" :
   [
    {
     "referenced_type" : "_ZTINSt3__117integral_constantIbLb1EEE"
    }
   ],
   "linker_set_key" : "_ZTINSt3__120__libcpp_is_integralItEE",
   "name" : "std::__libcpp_is_integral<unsigned short>",
   "referenced_type" : "_ZTINSt3__120__libcpp_is_integralItEE",
   "self_type" : "_ZTINSt3__120__libcpp_is_integralItEE",
   "size" : 1,
   "source_file" : "external/libcxx/include/type_traits",
   "template_args" : [ "_ZTIt" ]
  },
  {
   "alignment" : 1,
   "base_specifiers" :
   [
    {
     "referenced_type" : "_ZTINSt3__117integral_constantIbLb1EEE"
    }
   ],
   "linker_set_key" : "_ZTINSt3__120__libcpp_is_integralIwEE",
   "name" : "std::__libcpp_is_integral<wchar_t>",
   "referenced_type" : "_ZTINSt3__120__libcpp_is_integralIwEE",
   "self_type" : "_ZTINSt3__120__libcpp_is_integralIwEE",
   "size" : 1,
   "source_file" : "external/libcxx/include/type_traits",
   "template_args" : [ "_ZTIw" ]
  },
  {
   "alignment" : 1,
   "base_specifiers" :
   [
    {
     "referenced_type" : "_ZTINSt3__117integral_constantIbLb1EEE"
    }
   ],
   "linker_set_key" : "_ZTINSt3__120__libcpp_is_integralIxEE",
   "name" : "std::__libcpp_is_integral<long long>",
   "referenced_type" : "_ZTINSt3__120__libcpp_is_integralIxEE",
   "self_type" : "_ZTINSt3__120__libcpp_is_integralIxEE",
   "size" : 1,
   "source_file" : "external/libcxx/include/type_traits",
   "template_args" : [ "_ZTIx" ]
  },
  {
   "alignment" : 1,
   "base_specifiers" :
   [
    {
     "referenced_type" : "_ZTINSt3__117integral_constantIbLb1EEE"
    }
   ],
   "linker_set_key" : "_ZTINSt3__120__libcpp_is_integralIyEE",
   "name" : "std::__libcpp_is_integral<unsigned long long>",
   "referenced_type" : "_ZTINSt3__120__libcpp_is_integralIyEE",
   "self_type" : "_ZTINSt3__120__libcpp_is_integralIyEE",
   "size" : 1,
   "source_file" : "external/libcxx/include/type_traits",
   "template_args" : [ "_ZTIy" ]
  },
  {
   "alignment" : 1,
   "linker_set_key" : "_ZTINSt3__122__extract_key_fail_tagE",
   "name" : "std::__extract_key_fail_tag",
   "referenced_type" : "_ZTINSt3__122__extract_key_fail_tagE",
   "self_type" : "_ZTINSt3__122__extract_key_fail_tagE",
   "size" : 1,
   "source_file" : "external/libcxx/include/type_traits"
  },
  {
   "alignment" : 1,
   "linker_set_key" : "_ZTINSt3__122__extract_key_self_tagE",
   "name" : "std::__extract_key_self_tag",
   "referenced_type" : "_ZTINSt3__122__extract_key_self_tagE",
   "self_type" : "_ZTINSt3__122__extract_key_self_tagE",
   "size" : 1,
   "source_file" : "external/libcxx/include/type_traits"
  },
  {
   "alignment" : 1,
   "linker_set_key" : "_ZTINSt3__123__extract_key_first_tagE",
   "name" : "std::__extract_key_first_tag",
   "referenced_type" : "_ZTINSt3__123__extract_key_first_tagE",
   "self_type" : "_ZTINSt3__123__extract_key_first_tagE",
   "size" : 1,
   "source_file" : "external/libcxx/include/type_traits"
  },
  {
   "alignment" : 1,
   "linker_set_key" : "_ZTINSt3__123__is_referenceable_implE",
   "name" : "std::__is_referenceable_impl",
   "referenced_type" : "_ZTINSt3__123__is_referenceable_implE",
   "self_type" : "_ZTINSt3__123__is_referenceable_implE",
   "size" : 1,
   "source_file" : "external/libcxx/include/type_traits"
  },
  {
   "alignment" : 1,
   "base_specifiers" :
   [
    {
     "referenced_type" : "_ZTINSt3__117integral_constantIbLb0EEE"
    }
   ],
   "linker_set_key" : "_ZTINSt3__123__libcpp_is_signed_implIhLb1EEE",
   "name" : "std::__libcpp_is_signed_impl<unsigned char, true>",
   "referenced_type" : "_ZTINSt3__123__libcpp_is_signed_implIhLb1EEE",
   "self_type" : "_ZTINSt3__123__libcpp_is_signed_implIhLb1EEE",
   "size" : 1,
   "source_file" : "external/libcxx/include/type_traits",
   "template_args" : [ "_ZTIh" ]
  },
  {
   "alignment" : 1,
   "base_specifiers" :
   [
    {
     "referenced_type" : "_ZTINSt3__117integral_constantIbLb0EEE"
    }
   ],
   "linker_set_key" : "_ZTINSt3__123__libcpp_is_signed_implItLb1EEE",
   "name" : "std::__libcpp_is_signed_impl<unsigned short, true>",
   "referenced_type" : "_ZTINSt3__123__libcpp_is_signed_implItLb1EEE",
   "self_type" : "_ZTINSt3__123__libcpp_is_signed_implItLb1EEE",
   "size" : 1,
   "source_file" : "external/libcxx/include/type_traits",
   "template_args" : [ "_ZTIt" ]
  },
  {
   "alignment" : 1,
   "linker_set_key" : "_ZTINSt3__123__libcpp_numeric_limitsIbLb1EEE",
   "name" : "std::__libcpp_numeric_limits<bool, true>",
   "record_kind" : "class",
   "referenced_type" : "_ZTINSt3__123__libcpp_numeric_limitsIbLb1EEE",
   "self_type" : "_ZTINSt3__123__libcpp_numeric_limitsIbLb1EEE",
   "size" : 1,
   "source_file" : "external/libcxx/include/limits",
   "template_args" : [ "_ZTIb" ]
  },
  {
   "alignment" : 1,
   "linker_set_key" : "_ZTINSt3__123__libcpp_numeric_limitsIdLb1EEE",
   "name" : "std::__libcpp_numeric_limits<double, true>",
   "record_kind" : "class",
   "referenced_type" : "_ZTINSt3__123__libcpp_numeric_limitsIdLb1EEE",
   "self_type" : "_ZTINSt3__123__libcpp_numeric_limitsIdLb1EEE",
   "size" : 1,
   "source_file" : "external/libcxx/include/limits",
   "template_args" : [ "_ZTId" ]
  },
  {
   "alignment" : 1,
   "linker_set_key" : "_ZTINSt3__123__libcpp_numeric_limitsIeLb1EEE",
   "name" : "std::__libcpp_numeric_limits<long double, true>",
   "record_kind" : "class",
   "referenced_type" : "_ZTINSt3__123__libcpp_numeric_limitsIeLb1EEE",
   "self_type" : "_ZTINSt3__123__libcpp_numeric_limitsIeLb1EEE",
   "size" : 1,
   "source_file" : "external/libcxx/include/limits",
   "template_args" : [ "_ZTIe" ]
  },
  {
   "alignment" : 1,
   "linker_set_key" : "_ZTINSt3__123__libcpp_numeric_limitsIfLb1EEE",
   "name" : "std::__libcpp_numeric_limits<float, true>",
   "record_kind" : "class",
   "referenced_type" : "_ZTINSt3__123__libcpp_numeric_limitsIfLb1EEE",
   "self_type" : "_ZTINSt3__123__libcpp_numeric_limitsIfLb1EEE",
   "size" : 1,
   "source_file" : "external/libcxx/include/limits",
   "template_args" : [ "_ZTIf" ]
  },
  {
   "alignment" : 1,
   "linker_set_key" : "_ZTINSt3__123__libcpp_numeric_limitsIhLb1EEE",
   "name" : "std::__libcpp_numeric_limits<unsigned char, true>",
   "record_kind" : "class",
   "referenced_type" : "_ZTINSt3__123__libcpp_numeric_limitsIhLb1EEE",
   "self_type" : "_ZTINSt3__123__libcpp_numeric_limitsIhLb1EEE",
   "size" : 1,
   "source_file" : "external/libcxx/include/limits",
   "template_args" : [ "_ZTIh" ]
  },
  {
   "alignment" : 1,
   "linker_set_key" : "_ZTINSt3__123__libcpp_numeric_limitsItLb1EEE",
   "name" : "std::__libcpp_numeric_limits<unsigned short, true>",
   "record_kind" : "class",
   "referenced_type" : "_ZTINSt3__123__libcpp_numeric_limitsItLb1EEE",
   "self_type" : "_ZTINSt3__123__libcpp_numeric_limitsItLb1EEE",
   "size" : 1,
   "source_file" : "external/libcxx/include/limits",
   "template_args" : [ "_ZTIt" ]
  },
  {
   "alignment" : 8,
   "base_specifiers" :
   [
    {
     "referenced_type" : "_ZTISt9exception"
    }
   ],
   "fields" :
   [
    {
     "access" : "private",
     "field_name" : "__imp_",
     "field_offset" : 64,
     "referenced_type" : "_ZTIPNSt3__124__libcpp_debug_exception28__libcpp_debug_exception_impE"
    }
   ],
   "linker_set_key" : "_ZTINSt3__124__libcpp_debug_exceptionE",
   "name" : "std::__libcpp_debug_exception",
   "record_kind" : "class",
   "referenced_type" : "_ZTINSt3__124__libcpp_debug_exceptionE",
   "self_type" : "_ZTINSt3__124__libcpp_debug_exceptionE",
   "size" : 16,
   "source_file" : "external/libcxx/include/__debug",
   "vtable_components" :
   [
    {
     "kind" : "offset_to_top"
    },
    {
     "kind" : "rtti",
     "mangled_component_name" : "_ZTINSt3__124__libcpp_debug_exceptionE"
    },
    {
     "kind" : "complete_dtor_pointer",
     "mangled_component_name" : "_ZNSt3__124__libcpp_debug_exceptionD1Ev"
    },
    {
     "kind" : "deleting_dtor_pointer",
     "mangled_component_name" : "_ZNSt3__124__libcpp_debug_exceptionD0Ev"
    },
    {
     "mangled_component_name" : "_ZNKSt3__124__libcpp_debug_exception4whatEv"
    }
   ]
  },
  {
   "alignment" : 1,
   "linker_set_key" : "_ZTINSt3__124__libcpp_is_function_imp12__dummy_typeE",
   "name" : "std::__libcpp_is_function_imp::__dummy_type",
   "referenced_type" : "_ZTINSt3__124__libcpp_is_function_imp12__dummy_typeE",
   "self_type" : "_ZTINSt3__124__libcpp_is_function_imp12__dummy_typeE",
   "size" : 1,
   "source_file" : "external/libcxx/include/type_traits"
  },
  {
   "alignment" : 1,
   "base_specifiers" :
   [
    {
     "referenced_type" : "_ZTINSt3__117integral_constantIbLb1EEE"
    }
   ],
   "linker_set_key" : "_ZTINSt3__126__libcpp_is_floating_pointIdEE",
   "name" : "std::__libcpp_is_floating_point<double>",
   "referenced_type" : "_ZTINSt3__126__libcpp_is_floating_pointIdEE",
   "self_type" : "_ZTINSt3__126__libcpp_is_floating_pointIdEE",
   "size" : 1,
   "source_file" : "external/libcxx/include/type_traits",
   "template_args" : [ "_ZTId" ]
  },
  {
   "alignment" : 1,
   "base_specifiers" :
   [
    {
     "referenced_type" : "_ZTINSt3__117integral_constantIbLb1EEE"
    }
   ],
   "linker_set_key" : "_ZTINSt3__126__libcpp_is_floating_pointIeEE",
   "name" : "std::__libcpp_is_floating_point<long double>",
   "referenced_type" : "_ZTINSt3__126__libcpp_is_floating_pointIeEE",
   "self_type" : "_ZTINSt3__126__libcpp_is_floating_pointIeEE",
   "size" : 1,
   "source_file" : "external/libcxx/include/type_traits",
   "template_args" : [ "_ZTIe" ]
  },
  {
   "alignment" : 1,
   "base_specifiers" :
   [
    {
     "referenced_type" : "_ZTINSt3__117integral_constantIbLb1EEE"
    }
   ],
   "linker_set_key" : "_ZTINSt3__126__libcpp_is_floating_pointIfEE",
   "name" : "std::__libcpp_is_floating_point<float>",
   "referenced_type" : "_ZTINSt3__126__libcpp_is_floating_pointIfEE",
   "self_type" : "_ZTINSt3__126__libcpp_is_floating_pointIfEE",
   "size" : 1,
   "source_file" : "external/libcxx/include/type_traits",
   "template_args" : [ "_ZTIf" ]
  },
  {
   "alignment" : 1,
   "base_specifiers" :
   [
    {
     "referenced_type" : "_ZTINSt3__117integral_constantIbLb0EEE"
    }
   ],
   "linker_set_key" : "_ZTINSt3__126__libcpp_is_floating_pointIhEE",
   "name" : "std::__libcpp_is_floating_point<unsigned char>",
   "referenced_type" : "_ZTINSt3__126__libcpp_is_floating_pointIhEE",
   "self_type" : "_ZTINSt3__126__libcpp_is_floating_pointIhEE",
   "size" : 1,
   "source_file" : "external/libcxx/include/type_traits",
   "template_args" : [ "_ZTIh" ]
  },
  {
   "alignment" : 1,
   "base_specifiers" :
   [
    {
     "referenced_type" : "_ZTINSt3__117integral_constantIbLb0EEE"
    }
   ],
   "linker_set_key" : "_ZTINSt3__126__libcpp_is_floating_pointItEE",
   "name" : "std::__libcpp_is_floating_point<unsigned short>",
   "referenced_type" : "_ZTINSt3__126__libcpp_is_floating_pointItEE",
   "self_type" : "_ZTINSt3__126__libcpp_is_floating_pointItEE",
   "size" : 1,
   "source_file" : "external/libcxx/include/type_traits",
   "template_args" : [ "_ZTIt" ]
  },
  {
   "alignment" : 1,
   "linker_set_key" : "_ZTINSt3__15__anyE",
   "name" : "std::__any",
   "referenced_type" : "_ZTINSt3__15__anyE",
   "self_type" : "_ZTINSt3__15__anyE",
   "size" : 1,
   "source_file" : "external/libcxx/include/type_traits"
  },
  {
   "alignment" : 1,
   "linker_set_key" : "_ZTINSt3__15__natE",
   "name" : "std::__nat",
   "referenced_type" : "_ZTINSt3__15__natE",
   "self_type" : "_ZTINSt3__15__natE",
   "size" : 1,
   "source_file" : "external/libcxx/include/type_traits"
  },
  {
   "alignment" : 1,
   "base_specifiers" :
   [
    {
     "referenced_type" : "_ZTINSt3__117integral_constantIbLb0EEE"
    }
   ],
   "linker_set_key" : "_ZTINSt3__15__or_IJEEE",
   "name" : "std::__or_<>",
   "referenced_type" : "_ZTINSt3__15__or_IJEEE",
   "self_type" : "_ZTINSt3__15__or_IJEEE",
   "size" : 1,
   "source_file" : "external/libcxx/include/type_traits"
  },
  {
   "alignment" : 1,
   "fields" :
   [
    {
     "field_name" : "__lx",
     "referenced_type" : "_ZTIA2_c"
    }
   ],
   "linker_set_key" : "_ZTINSt3__15__twoE",
   "name" : "std::__two",
   "referenced_type" : "_ZTINSt3__15__twoE",
   "self_type" : "_ZTINSt3__15__twoE",
   "size" : 2,
   "source_file" : "external/libcxx/include/type_traits"
  },
  {
   "alignment" : 1,
   "base_specifiers" :
   [
    {
     "referenced_type" : "_ZTINSt3__117integral_constantIbLb1EEE"
    }
   ],
   "linker_set_key" : "_ZTINSt3__16__and_IJEEE",
   "name" : "std::__and_<>",
   "referenced_type" : "_ZTINSt3__16__and_IJEEE",
   "self_type" : "_ZTINSt3__16__and_IJEEE",
   "size" : 1,
   "source_file" : "external/libcxx/include/type_traits"
  },
  {
   "alignment" : 8,
   "fields" :
   [
    {
     "field_name" : "__c_",
     "field_offset" : 64,
     "referenced_type" : "_ZTIPv"
    },
    {
     "field_name" : "__next_",
     "field_offset" : 128,
     "referenced_type" : "_ZTIPNSt3__18__c_nodeE"
    },
    {
     "field_name" : "beg_",
     "field_offset" : 192,
     "referenced_type" : "_ZTIPPNSt3__18__i_nodeE"
    },
    {
     "field_name" : "end_",
     "field_offset" : 256,
     "referenced_type" : "_ZTIPPNSt3__18__i_nodeE"
    },
    {
     "field_name" : "cap_",
     "field_offset" : 320,
     "referenced_type" : "_ZTIPPNSt3__18__i_nodeE"
    }
   ],
   "linker_set_key" : "_ZTINSt3__18__c_nodeE",
   "name" : "std::__c_node",
   "referenced_type" : "_ZTINSt3__18__c_nodeE",
   "self_type" : "_ZTINSt3__18__c_nodeE",
   "size" : 48,
   "source_file" : "external/libcxx/include/__debug",
   "vtable_components" :
   [
    {
     "kind" : "offset_to_top"
    },
    {
     "kind" : "rtti",
     "mangled_component_name" : "_ZTINSt3__18__c_nodeE"
    },
    {
     "kind" : "complete_dtor_pointer",
     "mangled_component_name" : "_ZNSt3__18__c_nodeD1Ev"
    },
    {
     "kind" : "deleting_dtor_pointer",
     "mangled_component_name" : "_ZNSt3__18__c_nodeD0Ev"
    },
    {
     "is_pure" : true,
     "mangled_component_name" : "_ZNKSt3__18__c_node17__dereferenceableEPKv"
    },
    {
     "is_pure" : true,
     "mangled_component_name" : "_ZNKSt3__18__c_node15__decrementableEPKv"
    },
    {
     "is_pure" : true,
     "mangled_component_name" : "_ZNKSt3__18__c_node9__addableEPKvl"
    },
    {
     "is_pure" : true,
     "mangled_component_name" : "_ZNKSt3__18__c_node15__subscriptableEPKvl"
    }
   ]
  },
  {
   "alignment" : 8,
   "fields" :
   [
    {
     "field_name" : "__i_",
     "referenced_type" : "_ZTIPv"
    },
    {
     "field_name" : "__next_",
     "field_offset" : 64,
     "referenced_type" : "_ZTIPNSt3__18__i_nodeE"
    },
    {
     "field_name" : "__c_",
     "field_offset" : 128,
     "referenced_type" : "_ZTIPNSt3__18__c_nodeE"
    }
   ],
   "linker_set_key" : "_ZTINSt3__18__i_nodeE",
   "name" : "std::__i_node",
   "referenced_type" : "_ZTINSt3__18__i_nodeE",
   "self_type" : "_ZTINSt3__18__i_nodeE",
   "size" : 24,
   "source_file" : "external/libcxx/include/__debug"
  },
  {
   "alignment" : 1,
   "linker_set_key" : "_ZTINSt3__19enable_ifILb0EdEE",
   "name" : "std::enable_if<false, double>",
   "referenced_type" : "_ZTINSt3__19enable_ifILb0EdEE",
   "self_type" : "_ZTINSt3__19enable_ifILb0EdEE",
   "size" : 1,
   "source_file" : "external/libcxx/include/type_traits",
   "template_args" : [ "_ZTId" ]
  },
  {
   "alignment" : 1,
   "linker_set_key" : "_ZTINSt3__19enable_ifILb0EiEE",
   "name" : "std::enable_if<false, int>",
   "referenced_type" : "_ZTINSt3__19enable_ifILb0EiEE",
   "self_type" : "_ZTINSt3__19enable_ifILb0EiEE",
   "size" : 1,
   "source_file" : "external/libcxx/include/type_traits",
   "template_args" : [ "_ZTIi" ]
  },
  {
   "alignment" : 1,
   "linker_set_key" : "_ZTINSt3__19enable_ifILb0ElEE",
   "name" : "std::enable_if<false, long>",
   "referenced_type" : "_ZTINSt3__19enable_ifILb0ElEE",
   "self_type" : "_ZTINSt3__19enable_ifILb0ElEE",
   "size" : 1,
   "source_file" : "external/libcxx/include/type_traits",
   "template_args" : [ "_ZTIl" ]
  },
  {
   "alignment" : 1,
   "linker_set_key" : "_ZTINSt3__19enable_ifILb0ExEE",
   "name" : "std::enable_if<false, long long>",
   "referenced_type" : "_ZTINSt3__19enable_ifILb0ExEE",
   "self_type" : "_ZTINSt3__19enable_ifILb0ExEE",
   "size" : 1,
   "source_file" : "external/libcxx/include/type_traits",
   "template_args" : [ "_ZTIx" ]
  },
  {
   "alignment" : 1,
   "base_specifiers" :
   [
    {
     "referenced_type" : "_ZTINSt3__117integral_constantIbLb1EEE"
    }
   ],
   "linker_set_key" : "_ZTINSt3__19is_scalarIDnEE",
   "name" : "std::is_scalar<nullptr_t>",
   "referenced_type" : "_ZTINSt3__19is_scalarIDnEE",
   "self_type" : "_ZTINSt3__19is_scalarIDnEE",
   "size" : 1,
   "source_file" : "external/libcxx/include/type_traits",
   "template_args" : [ "_ZTIDn" ]
  },
  {
   "alignment" : 1,
   "base_specifiers" :
   [
    {
     "referenced_type" : "_ZTINSt3__118__libcpp_is_signedIhLb1EEE"
    }
   ],
   "linker_set_key" : "_ZTINSt3__19is_signedIhEE",
   "name" : "std::is_signed<unsigned char>",
   "referenced_type" : "_ZTINSt3__19is_signedIhEE",
   "self_type" : "_ZTINSt3__19is_signedIhEE",
   "size" : 1,
   "source_file" : "external/libcxx/include/type_traits",
   "template_args" : [ "_ZTIh" ]
  },
  {
   "alignment" : 1,
   "base_specifiers" :
   [
    {
     "referenced_type" : "_ZTINSt3__118__libcpp_is_signedItLb1EEE"
    }
   ],
   "linker_set_key" : "_ZTINSt3__19is_signedItEE",
   "name" : "std::is_signed<unsigned short>",
   "referenced_type" : "_ZTINSt3__19is_signedItEE",
   "self_type" : "_ZTINSt3__19is_signedItEE",
   "size" : 1,
   "source_file" : "external/libcxx/include/type_traits",
   "template_args" : [ "_ZTIt" ]
  },
  {
   "alignment" : 1,
   "linker_set_key" : "_ZTINSt3__19remove_cvIdEE",
   "name" : "std::remove_cv<double>",
   "referenced_type" : "_ZTINSt3__19remove_cvIdEE",
   "self_type" : "_ZTINSt3__19remove_cvIdEE",
   "size" : 1,
   "source_file" : "external/libcxx/include/type_traits",
   "template_args" : [ "_ZTId" ]
  },
  {
   "alignment" : 1,
   "linker_set_key" : "_ZTINSt3__19remove_cvIhEE",
   "name" : "std::remove_cv<unsigned char>",
   "referenced_type" : "_ZTINSt3__19remove_cvIhEE",
   "self_type" : "_ZTINSt3__19remove_cvIhEE",
   "size" : 1,
   "source_file" : "external/libcxx/include/type_traits",
   "template_args" : [ "_ZTIh" ]
  },
  {
   "alignment" : 1,
   "linker_set_key" : "_ZTINSt3__19remove_cvItEE",
   "name" : "std::remove_cv<unsigned short>",
   "referenced_type" : "_ZTINSt3__19remove_cvItEE",
   "self_type" : "_ZTINSt3__19remove_cvItEE",
   "size" : 1,
   "source_file" : "external/libcxx/include/type_traits",
   "template_args" : [ "_ZTIt" ]
  },
  {
   "alignment" : 8,
   "base_specifiers" :
   [
    {
     "referenced_type" : "_ZTISt9exception"
    }
   ],
   "linker_set_key" : "_ZTISt13bad_exception",
   "name" : "std::bad_exception",
   "record_kind" : "class",
   "referenced_type" : "_ZTISt13bad_exception",
   "self_type" : "_ZTISt13bad_exception",
   "size" : 8,
   "source_file" : "external/libcxx/include/exception",
   "vtable_components" :
   [
    {
     "kind" : "offset_to_top"
    },
    {
     "kind" : "rtti",
     "mangled_component_name" : "_ZTISt13bad_exception"
    },
    {
     "kind" : "complete_dtor_pointer",
     "mangled_component_name" : "_ZNSt13bad_exceptionD1Ev"
    },
    {
     "kind" : "deleting_dtor_pointer",
     "mangled_component_name" : "_ZNSt13bad_exceptionD0Ev"
    },
    {
     "mangled_component_name" : "_ZNKSt13bad_exception4whatEv"
    }
   ]
  },
  {
   "alignment" : 8,
   "fields" :
   [
    {
     "access" : "private",
     "field_name" : "__ptr_",
     "referenced_type" : "_ZTIPv"
    }
   ],
   "linker_set_key" : "_ZTISt13exception_ptr",
   "name" : "std::exception_ptr",
   "record_kind" : "class",
   "referenced_type" : "_ZTISt13exception_ptr",
   "self_type" : "_ZTISt13exception_ptr",
   "size" : 8,
   "source_file" : "external/libcxx/include/exception"
  },
  {
   "alignment" : 8,
   "fields" :
   [
    {
     "access" : "private",
     "field_name" : "__ptr_",
     "field_offset" : 64,
     "referenced_type" : "_ZTISt13exception_ptr"
    }
   ],
   "linker_set_key" : "_ZTISt16nested_exception",
   "name" : "std::nested_exception",
   "record_kind" : "class",
   "referenced_type" : "_ZTISt16nested_exception",
   "self_type" : "_ZTISt16nested_exception",
   "size" : 16,
   "source_file" : "external/libcxx/include/exception",
   "vtable_components" :
   [
    {
     "kind" : "offset_to_top"
    },
    {
     "kind" : "rtti",
     "mangled_component_name" : "_ZTISt16nested_exception"
    },
    {
     "kind" : "complete_dtor_pointer",
     "mangled_component_name" : "_ZNSt16nested_exceptionD1Ev"
    },
    {
     "kind" : "deleting_dtor_pointer",
     "mangled_component_name" : "_ZNSt16nested_exceptionD0Ev"
    }
   ]
  },
  {
   "alignment" : 8,
   "linker_set_key" : "_ZTISt9exception",
   "name" : "std::exception",
   "record_kind" : "class",
   "referenced_type" : "_ZTISt9exception",
   "self_type" : "_ZTISt9exception",
   "size" : 8,
   "source_file" : "external/libcxx/include/exception",
   "vtable_components" :
   [
    {
     "kind" : "offset_to_top"
    },
    {
     "kind" : "rtti",
     "mangled_component_name" : "_ZTISt9exception"
    },
    {
     "kind" : "complete_dtor_pointer",
     "mangled_component_name" : "_ZNSt9exceptionD1Ev"
    },
    {
     "kind" : "deleting_dtor_pointer",
     "mangled_component_name" : "_ZNSt9exceptionD0Ev"
    },
    {
     "mangled_component_name" : "_ZNKSt9exception4whatEv"
    }
   ]
  }
 ],
 "rvalue_reference_types" : []
}
