{
 "array_types" :
 [
  {
   "alignment" : 2,
   "linker_set_key" : "_ZTIA16_Ds",
   "name" : "char16_t [16]",
   "referenced_type" : "_ZTIDs",
   "self_type" : "_ZTIA16_Ds",
   "size" : 32,
   "source_file" : "external/icu/icu4c/source/common/unicode/parseerr.h"
  },
  {
   "alignment" : 2,
   "linker_set_key" : "_ZTIA8_t",
   "name" : "unsigned short [8]",
   "referenced_type" : "_ZTIt",
   "self_type" : "_ZTIA8_t",
   "size" : 16,
   "source_file" : "external/icu/icu4c/source/common/unicode/uset.h"
  },
  {
   "linker_set_key" : "_ZTIA_h",
   "name" : "unsigned char []",
   "referenced_type" : "_ZTIh",
   "self_type" : "_ZTIA_h",
   "source_file" : "external/icu/icu4c/source/common/unicode/utf_old.h"
  }
 ],
 "builtin_types" :
 [
  {
   "alignment" : 2,
   "is_integral" : true,
   "is_unsigned" : true,
   "linker_set_key" : "_ZTIDs",
   "name" : "char16_t",
   "referenced_type" : "_ZTIDs",
   "self_type" : "_ZTIDs",
   "size" : 2
  },
  {
   "alignment" : 1,
   "is_integral" : true,
   "linker_set_key" : "_ZTIa",
   "name" : "signed char",
   "referenced_type" : "_ZTIa",
   "self_type" : "_ZTIa",
   "size" : 1
  },
  {
   "alignment" : 1,
   "is_integral" : true,
   "is_unsigned" : true,
   "linker_set_key" : "_ZTIc",
   "name" : "char",
   "referenced_type" : "_ZTIc",
   "self_type" : "_ZTIc",
   "size" : 1
  },
  {
   "alignment" : 8,
   "linker_set_key" : "_ZTId",
   "name" : "double",
   "referenced_type" : "_ZTId",
   "self_type" : "_ZTId",
   "size" : 8
  },
  {
   "alignment" : 16,
   "linker_set_key" : "_ZTIe",
   "name" : "long double",
   "referenced_type" : "_ZTIe",
   "self_type" : "_ZTIe",
   "size" : 16
  },
  {
   "alignment" : 1,
   "is_integral" : true,
   "is_unsigned" : true,
   "linker_set_key" : "_ZTIh",
   "name" : "unsigned char",
   "referenced_type" : "_ZTIh",
   "self_type" : "_ZTIh",
   "size" : 1
  },
  {
   "alignment" : 4,
   "is_integral" : true,
   "linker_set_key" : "_ZTIi",
   "name" : "int",
   "referenced_type" : "_ZTIi",
   "self_type" : "_ZTIi",
   "size" : 4
  },
  {
   "alignment" : 4,
   "is_integral" : true,
   "is_unsigned" : true,
   "linker_set_key" : "_ZTIj",
   "name" : "unsigned int",
   "referenced_type" : "_ZTIj",
   "self_type" : "_ZTIj",
   "size" : 4
  },
  {
   "alignment" : 8,
   "is_integral" : true,
   "linker_set_key" : "_ZTIl",
   "name" : "long",
   "referenced_type" : "_ZTIl",
   "self_type" : "_ZTIl",
   "size" : 8
  },
  {
   "alignment" : 2,
   "is_integral" : true,
   "is_unsigned" : true,
   "linker_set_key" : "_ZTIt",
   "name" : "unsigned short",
   "referenced_type" : "_ZTIt",
   "self_type" : "_ZTIt",
   "size" : 2
  },
  {
   "linker_set_key" : "_ZTIv",
   "name" : "void",
   "referenced_type" : "_ZTIv",
   "self_type" : "_ZTIv"
  },
  {
   "alignment" : 8,
   "is_integral" : true,
   "linker_set_key" : "_ZTIx",
   "name" : "long long",
   "referenced_type" : "_ZTIx",
   "self_type" : "_ZTIx",
   "size" : 8
  }
 ],
 "elf_functions" : [],
 "elf_objects" : [],
 "enum_types" :
 [
  {
   "alignment" : 4,
   "enum_fields" :
   [
    {
     "enum_field_value" : 0,
     "name" : "UBLOCK_NO_BLOCK"
    },
    {
     "enum_field_value" : 1,
     "name" : "UBLOCK_BASIC_LATIN"
    },
    {
     "enum_field_value" : 2,
     "name" : "UBLOCK_LATIN_1_SUPPLEMENT"
    },
    {
     "enum_field_value" : 3,
     "name" : "UBLOCK_LATIN_EXTENDED_A"
    },
    {
     "enum_field_value" : 4,
     "name" : "UBLOCK_LATIN_EXTENDED_B"
    },
    {
     "enum_field_value" : 5,
     "name" : "UBLOCK_IPA_EXTENSIONS"
    },
    {
     "enum_field_value" : 6,
     "name" : "UBLOCK_SPACING_MODIFIER_LETTERS"
    },
    {
     "enum_field_value" : 7,
     "name" : "UBLOCK_COMBINING_DIACRITICAL_MARKS"
    },
    {
     "enum_field_value" : 8,
     "name" : "UBLOCK_GREEK"
    },
    {
     "enum_field_value" : 9,
     "name" : "UBLOCK_CYRILLIC"
    },
    {
     "enum_field_value" : 10,
     "name" : "UBLOCK_ARMENIAN"
    },
    {
     "enum_field_value" : 11,
     "name" : "UBLOCK_HEBREW"
    },
    {
     "enum_field_value" : 12,
     "name" : "UBLOCK_ARABIC"
    },
    {
     "enum_field_value" : 13,
     "name" : "UBLOCK_SYRIAC"
    },
    {
     "enum_field_value" : 14,
     "name" : "UBLOCK_THAANA"
    },
    {
     "enum_field_value" : 15,
     "name" : "UBLOCK_DEVANAGARI"
    },
    {
     "enum_field_value" : 16,
     "name" : "UBLOCK_BENGALI"
    },
    {
     "enum_field_value" : 17,
     "name" : "UBLOCK_GURMUKHI"
    },
    {
     "enum_field_value" : 18,
     "name" : "UBLOCK_GUJARATI"
    },
    {
     "enum_field_value" : 19,
     "name" : "UBLOCK_ORIYA"
    },
    {
     "enum_field_value" : 20,
     "name" : "UBLOCK_TAMIL"
    },
    {
     "enum_field_value" : 21,
     "name" : "UBLOCK_TELUGU"
    },
    {
     "enum_field_value" : 22,
     "name" : "UBLOCK_KANNADA"
    },
    {
     "enum_field_value" : 23,
     "name" : "UBLOCK_MALAYALAM"
    },
    {
     "enum_field_value" : 24,
     "name" : "UBLOCK_SINHALA"
    },
    {
     "enum_field_value" : 25,
     "name" : "UBLOCK_THAI"
    },
    {
     "enum_field_value" : 26,
     "name" : "UBLOCK_LAO"
    },
    {
     "enum_field_value" : 27,
     "name" : "UBLOCK_TIBETAN"
    },
    {
     "enum_field_value" : 28,
     "name" : "UBLOCK_MYANMAR"
    },
    {
     "enum_field_value" : 29,
     "name" : "UBLOCK_GEORGIAN"
    },
    {
     "enum_field_value" : 30,
     "name" : "UBLOCK_HANGUL_JAMO"
    },
    {
     "enum_field_value" : 31,
     "name" : "UBLOCK_ETHIOPIC"
    },
    {
     "enum_field_value" : 32,
     "name" : "UBLOCK_CHEROKEE"
    },
    {
     "enum_field_value" : 33,
     "name" : "UBLOCK_UNIFIED_CANADIAN_ABORIGINAL_SYLLABICS"
    },
    {
     "enum_field_value" : 34,
     "name" : "UBLOCK_OGHAM"
    },
    {
     "enum_field_value" : 35,
     "name" : "UBLOCK_RUNIC"
    },
    {
     "enum_field_value" : 36,
     "name" : "UBLOCK_KHMER"
    },
    {
     "enum_field_value" : 37,
     "name" : "UBLOCK_MONGOLIAN"
    },
    {
     "enum_field_value" : 38,
     "name" : "UBLOCK_LATIN_EXTENDED_ADDITIONAL"
    },
    {
     "enum_field_value" : 39,
     "name" : "UBLOCK_GREEK_EXTENDED"
    },
    {
     "enum_field_value" : 40,
     "name" : "UBLOCK_GENERAL_PUNCTUATION"
    },
    {
     "enum_field_value" : 41,
     "name" : "UBLOCK_SUPERSCRIPTS_AND_SUBSCRIPTS"
    },
    {
     "enum_field_value" : 42,
     "name" : "UBLOCK_CURRENCY_SYMBOLS"
    },
    {
     "enum_field_value" : 43,
     "name" : "UBLOCK_COMBINING_MARKS_FOR_SYMBOLS"
    },
    {
     "enum_field_value" : 44,
     "name" : "UBLOCK_LETTERLIKE_SYMBOLS"
    },
    {
     "enum_field_value" : 45,
     "name" : "UBLOCK_NUMBER_FORMS"
    },
    {
     "enum_field_value" : 46,
     "name" : "UBLOCK_ARROWS"
    },
    {
     "enum_field_value" : 47,
     "name" : "UBLOCK_MATHEMATICAL_OPERATORS"
    },
    {
     "enum_field_value" : 48,
     "name" : "UBLOCK_MISCELLANEOUS_TECHNICAL"
    },
    {
     "enum_field_value" : 49,
     "name" : "UBLOCK_CONTROL_PICTURES"
    },
    {
     "enum_field_value" : 50,
     "name" : "UBLOCK_OPTICAL_CHARACTER_RECOGNITION"
    },
    {
     "enum_field_value" : 51,
     "name" : "UBLOCK_ENCLOSED_ALPHANUMERICS"
    },
    {
     "enum_field_value" : 52,
     "name" : "UBLOCK_BOX_DRAWING"
    },
    {
     "enum_field_value" : 53,
     "name" : "UBLOCK_BLOCK_ELEMENTS"
    },
    {
     "enum_field_value" : 54,
     "name" : "UBLOCK_GEOMETRIC_SHAPES"
    },
    {
     "enum_field_value" : 55,
     "name" : "UBLOCK_MISCELLANEOUS_SYMBOLS"
    },
    {
     "enum_field_value" : 56,
     "name" : "UBLOCK_DINGBATS"
    },
    {
     "enum_field_value" : 57,
     "name" : "UBLOCK_BRAILLE_PATTERNS"
    },
    {
     "enum_field_value" : 58,
     "name" : "UBLOCK_CJK_RADICALS_SUPPLEMENT"
    },
    {
     "enum_field_value" : 59,
     "name" : "UBLOCK_KANGXI_RADICALS"
    },
    {
     "enum_field_value" : 60,
     "name" : "UBLOCK_IDEOGRAPHIC_DESCRIPTION_CHARACTERS"
    },
    {
     "enum_field_value" : 61,
     "name" : "UBLOCK_CJK_SYMBOLS_AND_PUNCTUATION"
    },
    {
     "enum_field_value" : 62,
     "name" : "UBLOCK_HIRAGANA"
    },
    {
     "enum_field_value" : 63,
     "name" : "UBLOCK_KATAKANA"
    },
    {
     "enum_field_value" : 64,
     "name" : "UBLOCK_BOPOMOFO"
    },
    {
     "enum_field_value" : 65,
     "name" : "UBLOCK_HANGUL_COMPATIBILITY_JAMO"
    },
    {
     "enum_field_value" : 66,
     "name" : "UBLOCK_KANBUN"
    },
    {
     "enum_field_value" : 67,
     "name" : "UBLOCK_BOPOMOFO_EXTENDED"
    },
    {
     "enum_field_value" : 68,
     "name" : "UBLOCK_ENCLOSED_CJK_LETTERS_AND_MONTHS"
    },
    {
     "enum_field_value" : 69,
     "name" : "UBLOCK_CJK_COMPATIBILITY"
    },
    {
     "enum_field_value" : 70,
     "name" : "UBLOCK_CJK_UNIFIED_IDEOGRAPHS_EXTENSION_A"
    },
    {
     "enum_field_value" : 71,
     "name" : "UBLOCK_CJK_UNIFIED_IDEOGRAPHS"
    },
    {
     "enum_field_value" : 72,
     "name" : "UBLOCK_YI_SYLLABLES"
    },
    {
     "enum_field_value" : 73,
     "name" : "UBLOCK_YI_RADICALS"
    },
    {
     "enum_field_value" : 74,
     "name" : "UBLOCK_HANGUL_SYLLABLES"
    },
    {
     "enum_field_value" : 75,
     "name" : "UBLOCK_HIGH_SURROGATES"
    },
    {
     "enum_field_value" : 76,
     "name" : "UBLOCK_HIGH_PRIVATE_USE_SURROGATES"
    },
    {
     "enum_field_value" : 77,
     "name" : "UBLOCK_LOW_SURROGATES"
    },
    {
     "enum_field_value" : 78,
     "name" : "UBLOCK_PRIVATE_USE_AREA"
    },
    {
     "enum_field_value" : 78,
     "name" : "UBLOCK_PRIVATE_USE"
    },
    {
     "enum_field_value" : 79,
     "name" : "UBLOCK_CJK_COMPATIBILITY_IDEOGRAPHS"
    },
    {
     "enum_field_value" : 80,
     "name" : "UBLOCK_ALPHABETIC_PRESENTATION_FORMS"
    },
    {
     "enum_field_value" : 81,
     "name" : "UBLOCK_ARABIC_PRESENTATION_FORMS_A"
    },
    {
     "enum_field_value" : 82,
     "name" : "UBLOCK_COMBINING_HALF_MARKS"
    },
    {
     "enum_field_value" : 83,
     "name" : "UBLOCK_CJK_COMPATIBILITY_FORMS"
    },
    {
     "enum_field_value" : 84,
     "name" : "UBLOCK_SMALL_FORM_VARIANTS"
    },
    {
     "enum_field_value" : 85,
     "name" : "UBLOCK_ARABIC_PRESENTATION_FORMS_B"
    },
    {
     "enum_field_value" : 86,
     "name" : "UBLOCK_SPECIALS"
    },
    {
     "enum_field_value" : 87,
     "name" : "UBLOCK_HALFWIDTH_AND_FULLWIDTH_FORMS"
    },
    {
     "enum_field_value" : 88,
     "name" : "UBLOCK_OLD_ITALIC"
    },
    {
     "enum_field_value" : 89,
     "name" : "UBLOCK_GOTHIC"
    },
    {
     "enum_field_value" : 90,
     "name" : "UBLOCK_DESERET"
    },
    {
     "enum_field_value" : 91,
     "name" : "UBLOCK_BYZANTINE_MUSICAL_SYMBOLS"
    },
    {
     "enum_field_value" : 92,
     "name" : "UBLOCK_MUSICAL_SYMBOLS"
    },
    {
     "enum_field_value" : 93,
     "name" : "UBLOCK_MATHEMATICAL_ALPHANUMERIC_SYMBOLS"
    },
    {
     "enum_field_value" : 94,
     "name" : "UBLOCK_CJK_UNIFIED_IDEOGRAPHS_EXTENSION_B"
    },
    {
     "enum_field_value" : 95,
     "name" : "UBLOCK_CJK_COMPATIBILITY_IDEOGRAPHS_SUPPLEMENT"
    },
    {
     "enum_field_value" : 96,
     "name" : "UBLOCK_TAGS"
    },
    {
     "enum_field_value" : 97,
     "name" : "UBLOCK_CYRILLIC_SUPPLEMENT"
    },
    {
     "enum_field_value" : 97,
     "name" : "UBLOCK_CYRILLIC_SUPPLEMENTARY"
    },
    {
     "enum_field_value" : 98,
     "name" : "UBLOCK_TAGALOG"
    },
    {
     "enum_field_value" : 99,
     "name" : "UBLOCK_HANUNOO"
    },
    {
     "enum_field_value" : 100,
     "name" : "UBLOCK_BUHID"
    },
    {
     "enum_field_value" : 101,
     "name" : "UBLOCK_TAGBANWA"
    },
    {
     "enum_field_value" : 102,
     "name" : "UBLOCK_MISCELLANEOUS_MATHEMATICAL_SYMBOLS_A"
    },
    {
     "enum_field_value" : 103,
     "name" : "UBLOCK_SUPPLEMENTAL_ARROWS_A"
    },
    {
     "enum_field_value" : 104,
     "name" : "UBLOCK_SUPPLEMENTAL_ARROWS_B"
    },
    {
     "enum_field_value" : 105,
     "name" : "UBLOCK_MISCELLANEOUS_MATHEMATICAL_SYMBOLS_B"
    },
    {
     "enum_field_value" : 106,
     "name" : "UBLOCK_SUPPLEMENTAL_MATHEMATICAL_OPERATORS"
    },
    {
     "enum_field_value" : 107,
     "name" : "UBLOCK_KATAKANA_PHONETIC_EXTENSIONS"
    },
    {
     "enum_field_value" : 108,
     "name" : "UBLOCK_VARIATION_SELECTORS"
    },
    {
     "enum_field_value" : 109,
     "name" : "UBLOCK_SUPPLEMENTARY_PRIVATE_USE_AREA_A"
    },
    {
     "enum_field_value" : 110,
     "name" : "UBLOCK_SUPPLEMENTARY_PRIVATE_USE_AREA_B"
    },
    {
     "enum_field_value" : 111,
     "name" : "UBLOCK_LIMBU"
    },
    {
     "enum_field_value" : 112,
     "name" : "UBLOCK_TAI_LE"
    },
    {
     "enum_field_value" : 113,
     "name" : "UBLOCK_KHMER_SYMBOLS"
    },
    {
     "enum_field_value" : 114,
     "name" : "UBLOCK_PHONETIC_EXTENSIONS"
    },
    {
     "enum_field_value" : 115,
     "name" : "UBLOCK_MISCELLANEOUS_SYMBOLS_AND_ARROWS"
    },
    {
     "enum_field_value" : 116,
     "name" : "UBLOCK_YIJING_HEXAGRAM_SYMBOLS"
    },
    {
     "enum_field_value" : 117,
     "name" : "UBLOCK_LINEAR_B_SYLLABARY"
    },
    {
     "enum_field_value" : 118,
     "name" : "UBLOCK_LINEAR_B_IDEOGRAMS"
    },
    {
     "enum_field_value" : 119,
     "name" : "UBLOCK_AEGEAN_NUMBERS"
    },
    {
     "enum_field_value" : 120,
     "name" : "UBLOCK_UGARITIC"
    },
    {
     "enum_field_value" : 121,
     "name" : "UBLOCK_SHAVIAN"
    },
    {
     "enum_field_value" : 122,
     "name" : "UBLOCK_OSMANYA"
    },
    {
     "enum_field_value" : 123,
     "name" : "UBLOCK_CYPRIOT_SYLLABARY"
    },
    {
     "enum_field_value" : 124,
     "name" : "UBLOCK_TAI_XUAN_JING_SYMBOLS"
    },
    {
     "enum_field_value" : 125,
     "name" : "UBLOCK_VARIATION_SELECTORS_SUPPLEMENT"
    },
    {
     "enum_field_value" : 126,
     "name" : "UBLOCK_ANCIENT_GREEK_MUSICAL_NOTATION"
    },
    {
     "enum_field_value" : 127,
     "name" : "UBLOCK_ANCIENT_GREEK_NUMBERS"
    },
    {
     "enum_field_value" : 128,
     "name" : "UBLOCK_ARABIC_SUPPLEMENT"
    },
    {
     "enum_field_value" : 129,
     "name" : "UBLOCK_BUGINESE"
    },
    {
     "enum_field_value" : 130,
     "name" : "UBLOCK_CJK_STROKES"
    },
    {
     "enum_field_value" : 131,
     "name" : "UBLOCK_COMBINING_DIACRITICAL_MARKS_SUPPLEMENT"
    },
    {
     "enum_field_value" : 132,
     "name" : "UBLOCK_COPTIC"
    },
    {
     "enum_field_value" : 133,
     "name" : "UBLOCK_ETHIOPIC_EXTENDED"
    },
    {
     "enum_field_value" : 134,
     "name" : "UBLOCK_ETHIOPIC_SUPPLEMENT"
    },
    {
     "enum_field_value" : 135,
     "name" : "UBLOCK_GEORGIAN_SUPPLEMENT"
    },
    {
     "enum_field_value" : 136,
     "name" : "UBLOCK_GLAGOLITIC"
    },
    {
     "enum_field_value" : 137,
     "name" : "UBLOCK_KHAROSHTHI"
    },
    {
     "enum_field_value" : 138,
     "name" : "UBLOCK_MODIFIER_TONE_LETTERS"
    },
    {
     "enum_field_value" : 139,
     "name" : "UBLOCK_NEW_TAI_LUE"
    },
    {
     "enum_field_value" : 140,
     "name" : "UBLOCK_OLD_PERSIAN"
    },
    {
     "enum_field_value" : 141,
     "name" : "UBLOCK_PHONETIC_EXTENSIONS_SUPPLEMENT"
    },
    {
     "enum_field_value" : 142,
     "name" : "UBLOCK_SUPPLEMENTAL_PUNCTUATION"
    },
    {
     "enum_field_value" : 143,
     "name" : "UBLOCK_SYLOTI_NAGRI"
    },
    {
     "enum_field_value" : 144,
     "name" : "UBLOCK_TIFINAGH"
    },
    {
     "enum_field_value" : 145,
     "name" : "UBLOCK_VERTICAL_FORMS"
    },
    {
     "enum_field_value" : 146,
     "name" : "UBLOCK_NKO"
    },
    {
     "enum_field_value" : 147,
     "name" : "UBLOCK_BALINESE"
    },
    {
     "enum_field_value" : 148,
     "name" : "UBLOCK_LATIN_EXTENDED_C"
    },
    {
     "enum_field_value" : 149,
     "name" : "UBLOCK_LATIN_EXTENDED_D"
    },
    {
     "enum_field_value" : 150,
     "name" : "UBLOCK_PHAGS_PA"
    },
    {
     "enum_field_value" : 151,
     "name" : "UBLOCK_PHOENICIAN"
    },
    {
     "enum_field_value" : 152,
     "name" : "UBLOCK_CUNEIFORM"
    },
    {
     "enum_field_value" : 153,
     "name" : "UBLOCK_CUNEIFORM_NUMBERS_AND_PUNCTUATION"
    },
    {
     "enum_field_value" : 154,
     "name" : "UBLOCK_COUNTING_ROD_NUMERALS"
    },
    {
     "enum_field_value" : 155,
     "name" : "UBLOCK_SUNDANESE"
    },
    {
     "enum_field_value" : 156,
     "name" : "UBLOCK_LEPCHA"
    },
    {
     "enum_field_value" : 157,
     "name" : "UBLOCK_OL_CHIKI"
    },
    {
     "enum_field_value" : 158,
     "name" : "UBLOCK_CYRILLIC_EXTENDED_A"
    },
    {
     "enum_field_value" : 159,
     "name" : "UBLOCK_VAI"
    },
    {
     "enum_field_value" : 160,
     "name" : "UBLOCK_CYRILLIC_EXTENDED_B"
    },
    {
     "enum_field_value" : 161,
     "name" : "UBLOCK_SAURASHTRA"
    },
    {
     "enum_field_value" : 162,
     "name" : "UBLOCK_KAYAH_LI"
    },
    {
     "enum_field_value" : 163,
     "name" : "UBLOCK_REJANG"
    },
    {
     "enum_field_value" : 164,
     "name" : "UBLOCK_CHAM"
    },
    {
     "enum_field_value" : 165,
     "name" : "UBLOCK_ANCIENT_SYMBOLS"
    },
    {
     "enum_field_value" : 166,
     "name" : "UBLOCK_PHAISTOS_DISC"
    },
    {
     "enum_field_value" : 167,
     "name" : "UBLOCK_LYCIAN"
    },
    {
     "enum_field_value" : 168,
     "name" : "UBLOCK_CARIAN"
    },
    {
     "enum_field_value" : 169,
     "name" : "UBLOCK_LYDIAN"
    },
    {
     "enum_field_value" : 170,
     "name" : "UBLOCK_MAHJONG_TILES"
    },
    {
     "enum_field_value" : 171,
     "name" : "UBLOCK_DOMINO_TILES"
    },
    {
     "enum_field_value" : 172,
     "name" : "UBLOCK_SAMARITAN"
    },
    {
     "enum_field_value" : 173,
     "name" : "UBLOCK_UNIFIED_CANADIAN_ABORIGINAL_SYLLABICS_EXTENDED"
    },
    {
     "enum_field_value" : 174,
     "name" : "UBLOCK_TAI_THAM"
    },
    {
     "enum_field_value" : 175,
     "name" : "UBLOCK_VEDIC_EXTENSIONS"
    },
    {
     "enum_field_value" : 176,
     "name" : "UBLOCK_LISU"
    },
    {
     "enum_field_value" : 177,
     "name" : "UBLOCK_BAMUM"
    },
    {
     "enum_field_value" : 178,
     "name" : "UBLOCK_COMMON_INDIC_NUMBER_FORMS"
    },
    {
     "enum_field_value" : 179,
     "name" : "UBLOCK_DEVANAGARI_EXTENDED"
    },
    {
     "enum_field_value" : 180,
     "name" : "UBLOCK_HANGUL_JAMO_EXTENDED_A"
    },
    {
     "enum_field_value" : 181,
     "name" : "UBLOCK_JAVANESE"
    },
    {
     "enum_field_value" : 182,
     "name" : "UBLOCK_MYANMAR_EXTENDED_A"
    },
    {
     "enum_field_value" : 183,
     "name" : "UBLOCK_TAI_VIET"
    },
    {
     "enum_field_value" : 184,
     "name" : "UBLOCK_MEETEI_MAYEK"
    },
    {
     "enum_field_value" : 185,
     "name" : "UBLOCK_HANGUL_JAMO_EXTENDED_B"
    },
    {
     "enum_field_value" : 186,
     "name" : "UBLOCK_IMPERIAL_ARAMAIC"
    },
    {
     "enum_field_value" : 187,
     "name" : "UBLOCK_OLD_SOUTH_ARABIAN"
    },
    {
     "enum_field_value" : 188,
     "name" : "UBLOCK_AVESTAN"
    },
    {
     "enum_field_value" : 189,
     "name" : "UBLOCK_INSCRIPTIONAL_PARTHIAN"
    },
    {
     "enum_field_value" : 190,
     "name" : "UBLOCK_INSCRIPTIONAL_PAHLAVI"
    },
    {
     "enum_field_value" : 191,
     "name" : "UBLOCK_OLD_TURKIC"
    },
    {
     "enum_field_value" : 192,
     "name" : "UBLOCK_RUMI_NUMERAL_SYMBOLS"
    },
    {
     "enum_field_value" : 193,
     "name" : "UBLOCK_KAITHI"
    },
    {
     "enum_field_value" : 194,
     "name" : "UBLOCK_EGYPTIAN_HIEROGLYPHS"
    },
    {
     "enum_field_value" : 195,
     "name" : "UBLOCK_ENCLOSED_ALPHANUMERIC_SUPPLEMENT"
    },
    {
     "enum_field_value" : 196,
     "name" : "UBLOCK_ENCLOSED_IDEOGRAPHIC_SUPPLEMENT"
    },
    {
     "enum_field_value" : 197,
     "name" : "UBLOCK_CJK_UNIFIED_IDEOGRAPHS_EXTENSION_C"
    },
    {
     "enum_field_value" : 198,
     "name" : "UBLOCK_MANDAIC"
    },
    {
     "enum_field_value" : 199,
     "name" : "UBLOCK_BATAK"
    },
    {
     "enum_field_value" : 200,
     "name" : "UBLOCK_ETHIOPIC_EXTENDED_A"
    },
    {
     "enum_field_value" : 201,
     "name" : "UBLOCK_BRAHMI"
    },
    {
     "enum_field_value" : 202,
     "name" : "UBLOCK_BAMUM_SUPPLEMENT"
    },
    {
     "enum_field_value" : 203,
     "name" : "UBLOCK_KANA_SUPPLEMENT"
    },
    {
     "enum_field_value" : 204,
     "name" : "UBLOCK_PLAYING_CARDS"
    },
    {
     "enum_field_value" : 205,
     "name" : "UBLOCK_MISCELLANEOUS_SYMBOLS_AND_PICTOGRAPHS"
    },
    {
     "enum_field_value" : 206,
     "name" : "UBLOCK_EMOTICONS"
    },
    {
     "enum_field_value" : 207,
     "name" : "UBLOCK_TRANSPORT_AND_MAP_SYMBOLS"
    },
    {
     "enum_field_value" : 208,
     "name" : "UBLOCK_ALCHEMICAL_SYMBOLS"
    },
    {
     "enum_field_value" : 209,
     "name" : "UBLOCK_CJK_UNIFIED_IDEOGRAPHS_EXTENSION_D"
    },
    {
     "enum_field_value" : 210,
     "name" : "UBLOCK_ARABIC_EXTENDED_A"
    },
    {
     "enum_field_value" : 211,
     "name" : "UBLOCK_ARABIC_MATHEMATICAL_ALPHABETIC_SYMBOLS"
    },
    {
     "enum_field_value" : 212,
     "name" : "UBLOCK_CHAKMA"
    },
    {
     "enum_field_value" : 213,
     "name" : "UBLOCK_MEETEI_MAYEK_EXTENSIONS"
    },
    {
     "enum_field_value" : 214,
     "name" : "UBLOCK_MEROITIC_CURSIVE"
    },
    {
     "enum_field_value" : 215,
     "name" : "UBLOCK_MEROITIC_HIEROGLYPHS"
    },
    {
     "enum_field_value" : 216,
     "name" : "UBLOCK_MIAO"
    },
    {
     "enum_field_value" : 217,
     "name" : "UBLOCK_SHARADA"
    },
    {
     "enum_field_value" : 218,
     "name" : "UBLOCK_SORA_SOMPENG"
    },
    {
     "enum_field_value" : 219,
     "name" : "UBLOCK_SUNDANESE_SUPPLEMENT"
    },
    {
     "enum_field_value" : 220,
     "name" : "UBLOCK_TAKRI"
    },
    {
     "enum_field_value" : 221,
     "name" : "UBLOCK_BASSA_VAH"
    },
    {
     "enum_field_value" : 222,
     "name" : "UBLOCK_CAUCASIAN_ALBANIAN"
    },
    {
     "enum_field_value" : 223,
     "name" : "UBLOCK_COPTIC_EPACT_NUMBERS"
    },
    {
     "enum_field_value" : 224,
     "name" : "UBLOCK_COMBINING_DIACRITICAL_MARKS_EXTENDED"
    },
    {
     "enum_field_value" : 225,
     "name" : "UBLOCK_DUPLOYAN"
    },
    {
     "enum_field_value" : 226,
     "name" : "UBLOCK_ELBASAN"
    },
    {
     "enum_field_value" : 227,
     "name" : "UBLOCK_GEOMETRIC_SHAPES_EXTENDED"
    },
    {
     "enum_field_value" : 228,
     "name" : "UBLOCK_GRANTHA"
    },
    {
     "enum_field_value" : 229,
     "name" : "UBLOCK_KHOJKI"
    },
    {
     "enum_field_value" : 230,
     "name" : "UBLOCK_KHUDAWADI"
    },
    {
     "enum_field_value" : 231,
     "name" : "UBLOCK_LATIN_EXTENDED_E"
    },
    {
     "enum_field_value" : 232,
     "name" : "UBLOCK_LINEAR_A"
    },
    {
     "enum_field_value" : 233,
     "name" : "UBLOCK_MAHAJANI"
    },
    {
     "enum_field_value" : 234,
     "name" : "UBLOCK_MANICHAEAN"
    },
    {
     "enum_field_value" : 235,
     "name" : "UBLOCK_MENDE_KIKAKUI"
    },
    {
     "enum_field_value" : 236,
     "name" : "UBLOCK_MODI"
    },
    {
     "enum_field_value" : 237,
     "name" : "UBLOCK_MRO"
    },
    {
     "enum_field_value" : 238,
     "name" : "UBLOCK_MYANMAR_EXTENDED_B"
    },
    {
     "enum_field_value" : 239,
     "name" : "UBLOCK_NABATAEAN"
    },
    {
     "enum_field_value" : 240,
     "name" : "UBLOCK_OLD_NORTH_ARABIAN"
    },
    {
     "enum_field_value" : 241,
     "name" : "UBLOCK_OLD_PERMIC"
    },
    {
     "enum_field_value" : 242,
     "name" : "UBLOCK_ORNAMENTAL_DINGBATS"
    },
    {
     "enum_field_value" : 243,
     "name" : "UBLOCK_PAHAWH_HMONG"
    },
    {
     "enum_field_value" : 244,
     "name" : "UBLOCK_PALMYRENE"
    },
    {
     "enum_field_value" : 245,
     "name" : "UBLOCK_PAU_CIN_HAU"
    },
    {
     "enum_field_value" : 246,
     "name" : "UBLOCK_PSALTER_PAHLAVI"
    },
    {
     "enum_field_value" : 247,
     "name" : "UBLOCK_SHORTHAND_FORMAT_CONTROLS"
    },
    {
     "enum_field_value" : 248,
     "name" : "UBLOCK_SIDDHAM"
    },
    {
     "enum_field_value" : 249,
     "name" : "UBLOCK_SINHALA_ARCHAIC_NUMBERS"
    },
    {
     "enum_field_value" : 250,
     "name" : "UBLOCK_SUPPLEMENTAL_ARROWS_C"
    },
    {
     "enum_field_value" : 251,
     "name" : "UBLOCK_TIRHUTA"
    },
    {
     "enum_field_value" : 252,
     "name" : "UBLOCK_WARANG_CITI"
    },
    {
     "enum_field_value" : 253,
     "name" : "UBLOCK_AHOM"
    },
    {
     "enum_field_value" : 254,
     "name" : "UBLOCK_ANATOLIAN_HIEROGLYPHS"
    },
    {
     "enum_field_value" : 255,
     "name" : "UBLOCK_CHEROKEE_SUPPLEMENT"
    },
    {
     "enum_field_value" : 256,
     "name" : "UBLOCK_CJK_UNIFIED_IDEOGRAPHS_EXTENSION_E"
    },
    {
     "enum_field_value" : 257,
     "name" : "UBLOCK_EARLY_DYNASTIC_CUNEIFORM"
    },
    {
     "enum_field_value" : 258,
     "name" : "UBLOCK_HATRAN"
    },
    {
     "enum_field_value" : 259,
     "name" : "UBLOCK_MULTANI"
    },
    {
     "enum_field_value" : 260,
     "name" : "UBLOCK_OLD_HUNGARIAN"
    },
    {
     "enum_field_value" : 261,
     "name" : "UBLOCK_SUPPLEMENTAL_SYMBOLS_AND_PICTOGRAPHS"
    },
    {
     "enum_field_value" : 262,
     "name" : "UBLOCK_SUTTON_SIGNWRITING"
    },
    {
     "enum_field_value" : 263,
     "name" : "UBLOCK_ADLAM"
    },
    {
     "enum_field_value" : 264,
     "name" : "UBLOCK_BHAIKSUKI"
    },
    {
     "enum_field_value" : 265,
     "name" : "UBLOCK_CYRILLIC_EXTENDED_C"
    },
    {
     "enum_field_value" : 266,
     "name" : "UBLOCK_GLAGOLITIC_SUPPLEMENT"
    },
    {
     "enum_field_value" : 267,
     "name" : "UBLOCK_IDEOGRAPHIC_SYMBOLS_AND_PUNCTUATION"
    },
    {
     "enum_field_value" : 268,
     "name" : "UBLOCK_MARCHEN"
    },
    {
     "enum_field_value" : 269,
     "name" : "UBLOCK_MONGOLIAN_SUPPLEMENT"
    },
    {
     "enum_field_value" : 270,
     "name" : "UBLOCK_NEWA"
    },
    {
     "enum_field_value" : 271,
     "name" : "UBLOCK_OSAGE"
    },
    {
     "enum_field_value" : 272,
     "name" : "UBLOCK_TANGUT"
    },
    {
     "enum_field_value" : 273,
     "name" : "UBLOCK_TANGUT_COMPONENTS"
    },
    {
     "enum_field_value" : 274,
     "name" : "UBLOCK_CJK_UNIFIED_IDEOGRAPHS_EXTENSION_F"
    },
    {
     "enum_field_value" : 275,
     "name" : "UBLOCK_KANA_EXTENDED_A"
    },
    {
     "enum_field_value" : 276,
     "name" : "UBLOCK_MASARAM_GONDI"
    },
    {
     "enum_field_value" : 277,
     "name" : "UBLOCK_NUSHU"
    },
    {
     "enum_field_value" : 278,
     "name" : "UBLOCK_SOYOMBO"
    },
    {
     "enum_field_value" : 279,
     "name" : "UBLOCK_SYRIAC_SUPPLEMENT"
    },
    {
     "enum_field_value" : 280,
     "name" : "UBLOCK_ZANABAZAR_SQUARE"
    },
    {
     "enum_field_value" : 281,
     "name" : "UBLOCK_CHESS_SYMBOLS"
    },
    {
     "enum_field_value" : 282,
     "name" : "UBLOCK_DOGRA"
    },
    {
     "enum_field_value" : 283,
     "name" : "UBLOCK_GEORGIAN_EXTENDED"
    },
    {
     "enum_field_value" : 284,
     "name" : "UBLOCK_GUNJALA_GONDI"
    },
    {
     "enum_field_value" : 285,
     "name" : "UBLOCK_HANIFI_ROHINGYA"
    },
    {
     "enum_field_value" : 286,
     "name" : "UBLOCK_INDIC_SIYAQ_NUMBERS"
    },
    {
     "enum_field_value" : 287,
     "name" : "UBLOCK_MAKASAR"
    },
    {
     "enum_field_value" : 288,
     "name" : "UBLOCK_MAYAN_NUMERALS"
    },
    {
     "enum_field_value" : 289,
     "name" : "UBLOCK_MEDEFAIDRIN"
    },
    {
     "enum_field_value" : 290,
     "name" : "UBLOCK_OLD_SOGDIAN"
    },
    {
     "enum_field_value" : 291,
     "name" : "UBLOCK_SOGDIAN"
    },
    {
     "enum_field_value" : 292,
     "name" : "UBLOCK_EGYPTIAN_HIEROGLYPH_FORMAT_CONTROLS"
    },
    {
     "enum_field_value" : 293,
     "name" : "UBLOCK_ELYMAIC"
    },
    {
     "enum_field_value" : 294,
     "name" : "UBLOCK_NANDINAGARI"
    },
    {
     "enum_field_value" : 295,
     "name" : "UBLOCK_NYIAKENG_PUACHUE_HMONG"
    },
    {
     "enum_field_value" : 296,
     "name" : "UBLOCK_OTTOMAN_SIYAQ_NUMBERS"
    },
    {
     "enum_field_value" : 297,
     "name" : "UBLOCK_SMALL_KANA_EXTENSION"
    },
    {
     "enum_field_value" : 298,
     "name" : "UBLOCK_SYMBOLS_AND_PICTOGRAPHS_EXTENDED_A"
    },
    {
     "enum_field_value" : 299,
     "name" : "UBLOCK_TAMIL_SUPPLEMENT"
    },
    {
     "enum_field_value" : 300,
     "name" : "UBLOCK_WANCHO"
    },
    {
     "enum_field_value" : 301,
     "name" : "UBLOCK_CHORASMIAN"
    },
    {
     "enum_field_value" : 302,
     "name" : "UBLOCK_CJK_UNIFIED_IDEOGRAPHS_EXTENSION_G"
    },
    {
     "enum_field_value" : 303,
     "name" : "UBLOCK_DIVES_AKURU"
    },
    {
     "enum_field_value" : 304,
     "name" : "UBLOCK_KHITAN_SMALL_SCRIPT"
    },
    {
     "enum_field_value" : 305,
     "name" : "UBLOCK_LISU_SUPPLEMENT"
    },
    {
     "enum_field_value" : 306,
     "name" : "UBLOCK_SYMBOLS_FOR_LEGACY_COMPUTING"
    },
    {
     "enum_field_value" : 307,
     "name" : "UBLOCK_TANGUT_SUPPLEMENT"
    },
    {
     "enum_field_value" : 308,
     "name" : "UBLOCK_YEZIDI"
    },
    {
     "enum_field_value" : 309,
     "name" : "UBLOCK_COUNT"
    },
    {
     "enum_field_value" : -1,
     "name" : "UBLOCK_INVALID_CODE"
    }
   ],
   "linker_set_key" : "_ZTI10UBlockCode",
   "name" : "UBlockCode",
   "referenced_type" : "_ZTI10UBlockCode",
   "self_type" : "_ZTI10UBlockCode",
   "size" : 4,
   "source_file" : "external/icu/icu4c/source/common/unicode/uchar.h",
   "underlying_type" : "_ZTIi"
  },
  {
   "alignment" : 4,
   "enum_fields" :
   [
    {
     "enum_field_value" : -128,
     "name" : "U_USING_FALLBACK_WARNING"
    },
    {
     "enum_field_value" : -128,
     "name" : "U_ERROR_WARNING_START"
    },
    {
     "enum_field_value" : -127,
     "name" : "U_USING_DEFAULT_WARNING"
    },
    {
     "enum_field_value" : -126,
     "name" : "U_SAFECLONE_ALLOCATED_WARNING"
    },
    {
     "enum_field_value" : -125,
     "name" : "U_STATE_OLD_WARNING"
    },
    {
     "enum_field_value" : -124,
     "name" : "U_STRING_NOT_TERMINATED_WARNING"
    },
    {
     "enum_field_value" : -123,
     "name" : "U_SORT_KEY_TOO_SHORT_WARNING"
    },
    {
     "enum_field_value" : -122,
     "name" : "U_AMBIGUOUS_ALIAS_WARNING"
    },
    {
     "enum_field_value" : -121,
     "name" : "U_DIFFERENT_UCA_VERSION"
    },
    {
     "enum_field_value" : -120,
     "name" : "U_PLUGIN_CHANGED_LEVEL_WARNING"
    },
    {
     "enum_field_value" : -119,
     "name" : "U_ERROR_WARNING_LIMIT"
    },
    {
     "enum_field_value" : 0,
     "name" : "U_ZERO_ERROR"
    },
    {
     "enum_field_value" : 1,
     "name" : "U_ILLEGAL_ARGUMENT_ERROR"
    },
    {
     "enum_field_value" : 2,
     "name" : "U_MISSING_RESOURCE_ERROR"
    },
    {
     "enum_field_value" : 3,
     "name" : "U_INVALID_FORMAT_ERROR"
    },
    {
     "enum_field_value" : 4,
     "name" : "U_FILE_ACCESS_ERROR"
    },
    {
     "enum_field_value" : 5,
     "name" : "U_INTERNAL_PROGRAM_ERROR"
    },
    {
     "enum_field_value" : 6,
     "name" : "U_MESSAGE_PARSE_ERROR"
    },
    {
     "enum_field_value" : 7,
     "name" : "U_MEMORY_ALLOCATION_ERROR"
    },
    {
     "enum_field_value" : 8,
     "name" : "U_INDEX_OUTOFBOUNDS_ERROR"
    },
    {
     "enum_field_value" : 9,
     "name" : "U_PARSE_ERROR"
    },
    {
     "enum_field_value" : 10,
     "name" : "U_INVALID_CHAR_FOUND"
    },
    {
     "enum_field_value" : 11,
     "name" : "U_TRUNCATED_CHAR_FOUND"
    },
    {
     "enum_field_value" : 12,
     "name" : "U_ILLEGAL_CHAR_FOUND"
    },
    {
     "enum_field_value" : 13,
     "name" : "U_INVALID_TABLE_FORMAT"
    },
    {
     "enum_field_value" : 14,
     "name" : "U_INVALID_TABLE_FILE"
    },
    {
     "enum_field_value" : 15,
     "name" : "U_BUFFER_OVERFLOW_ERROR"
    },
    {
     "enum_field_value" : 16,
     "name" : "U_UNSUPPORTED_ERROR"
    },
    {
     "enum_field_value" : 17,
     "name" : "U_RESOURCE_TYPE_MISMATCH"
    },
    {
     "enum_field_value" : 18,
     "name" : "U_ILLEGAL_ESCAPE_SEQUENCE"
    },
    {
     "enum_field_value" : 19,
     "name" : "U_UNSUPPORTED_ESCAPE_SEQUENCE"
    },
    {
     "enum_field_value" : 20,
     "name" : "U_NO_SPACE_AVAILABLE"
    },
    {
     "enum_field_value" : 21,
     "name" : "U_CE_NOT_FOUND_ERROR"
    },
    {
     "enum_field_value" : 22,
     "name" : "U_PRIMARY_TOO_LONG_ERROR"
    },
    {
     "enum_field_value" : 23,
     "name" : "U_STATE_TOO_OLD_ERROR"
    },
    {
     "enum_field_value" : 24,
     "name" : "U_TOO_MANY_ALIASES_ERROR"
    },
    {
     "enum_field_value" : 25,
     "name" : "U_ENUM_OUT_OF_SYNC_ERROR"
    },
    {
     "enum_field_value" : 26,
     "name" : "U_INVARIANT_CONVERSION_ERROR"
    },
    {
     "enum_field_value" : 27,
     "name" : "U_INVALID_STATE_ERROR"
    },
    {
     "enum_field_value" : 28,
     "name" : "U_COLLATOR_VERSION_MISMATCH"
    },
    {
     "enum_field_value" : 29,
     "name" : "U_USELESS_COLLATOR_ERROR"
    },
    {
     "enum_field_value" : 30,
     "name" : "U_NO_WRITE_PERMISSION"
    },
    {
     "enum_field_value" : 31,
     "name" : "U_INPUT_TOO_LONG_ERROR"
    },
    {
     "enum_field_value" : 32,
     "name" : "U_STANDARD_ERROR_LIMIT"
    },
    {
     "enum_field_value" : 65536,
     "name" : "U_BAD_VARIABLE_DEFINITION"
    },
    {
     "enum_field_value" : 65536,
     "name" : "U_PARSE_ERROR_START"
    },
    {
     "enum_field_value" : 65537,
     "name" : "U_MALFORMED_RULE"
    },
    {
     "enum_field_value" : 65538,
     "name" : "U_MALFORMED_SET"
    },
    {
     "enum_field_value" : 65539,
     "name" : "U_MALFORMED_SYMBOL_REFERENCE"
    },
    {
     "enum_field_value" : 65540,
     "name" : "U_MALFORMED_UNICODE_ESCAPE"
    },
    {
     "enum_field_value" : 65541,
     "name" : "U_MALFORMED_VARIABLE_DEFINITION"
    },
    {
     "enum_field_value" : 65542,
     "name" : "U_MALFORMED_VARIABLE_REFERENCE"
    },
    {
     "enum_field_value" : 65543,
     "name" : "U_MISMATCHED_SEGMENT_DELIMITERS"
    },
    {
     "enum_field_value" : 65544,
     "name" : "U_MISPLACED_ANCHOR_START"
    },
    {
     "enum_field_value" : 65545,
     "name" : "U_MISPLACED_CURSOR_OFFSET"
    },
    {
     "enum_field_value" : 65546,
     "name" : "U_MISPLACED_QUANTIFIER"
    },
    {
     "enum_field_value" : 65547,
     "name" : "U_MISSING_OPERATOR"
    },
    {
     "enum_field_value" : 65548,
     "name" : "U_MISSING_SEGMENT_CLOSE"
    },
    {
     "enum_field_value" : 65549,
     "name" : "U_MULTIPLE_ANTE_CONTEXTS"
    },
    {
     "enum_field_value" : 65550,
     "name" : "U_MULTIPLE_CURSORS"
    },
    {
     "enum_field_value" : 65551,
     "name" : "U_MULTIPLE_POST_CONTEXTS"
    },
    {
     "enum_field_value" : 65552,
     "name" : "U_TRAILING_BACKSLASH"
    },
    {
     "enum_field_value" : 65553,
     "name" : "U_UNDEFINED_SEGMENT_REFERENCE"
    },
    {
     "enum_field_value" : 65554,
     "name" : "U_UNDEFINED_VARIABLE"
    },
    {
     "enum_field_value" : 65555,
     "name" : "U_UNQUOTED_SPECIAL"
    },
    {
     "enum_field_value" : 65556,
     "name" : "U_UNTERMINATED_QUOTE"
    },
    {
     "enum_field_value" : 65557,
     "name" : "U_RULE_MASK_ERROR"
    },
    {
     "enum_field_value" : 65558,
     "name" : "U_MISPLACED_COMPOUND_FILTER"
    },
    {
     "enum_field_value" : 65559,
     "name" : "U_MULTIPLE_COMPOUND_FILTERS"
    },
    {
     "enum_field_value" : 65560,
     "name" : "U_INVALID_RBT_SYNTAX"
    },
    {
     "enum_field_value" : 65561,
     "name" : "U_INVALID_PROPERTY_PATTERN"
    },
    {
     "enum_field_value" : 65562,
     "name" : "U_MALFORMED_PRAGMA"
    },
    {
     "enum_field_value" : 65563,
     "name" : "U_UNCLOSED_SEGMENT"
    },
    {
     "enum_field_value" : 65564,
     "name" : "U_ILLEGAL_CHAR_IN_SEGMENT"
    },
    {
     "enum_field_value" : 65565,
     "name" : "U_VARIABLE_RANGE_EXHAUSTED"
    },
    {
     "enum_field_value" : 65566,
     "name" : "U_VARIABLE_RANGE_OVERLAP"
    },
    {
     "enum_field_value" : 65567,
     "name" : "U_ILLEGAL_CHARACTER"
    },
    {
     "enum_field_value" : 65568,
     "name" : "U_INTERNAL_TRANSLITERATOR_ERROR"
    },
    {
     "enum_field_value" : 65569,
     "name" : "U_INVALID_ID"
    },
    {
     "enum_field_value" : 65570,
     "name" : "U_INVALID_FUNCTION"
    },
    {
     "enum_field_value" : 65571,
     "name" : "U_PARSE_ERROR_LIMIT"
    },
    {
     "enum_field_value" : 65792,
     "name" : "U_UNEXPECTED_TOKEN"
    },
    {
     "enum_field_value" : 65792,
     "name" : "U_FMT_PARSE_ERROR_START"
    },
    {
     "enum_field_value" : 65793,
     "name" : "U_MULTIPLE_DECIMAL_SEPARATORS"
    },
    {
     "enum_field_value" : 65793,
     "name" : "U_MULTIPLE_DECIMAL_SEPERATORS"
    },
    {
     "enum_field_value" : 65794,
     "name" : "U_MULTIPLE_EXPONENTIAL_SYMBOLS"
    },
    {
     "enum_field_value" : 65795,
     "name" : "U_MALFORMED_EXPONENTIAL_PATTERN"
    },
    {
     "enum_field_value" : 65796,
     "name" : "U_MULTIPLE_PERCENT_SYMBOLS"
    },
    {
     "enum_field_value" : 65797,
     "name" : "U_MULTIPLE_PERMILL_SYMBOLS"
    },
    {
     "enum_field_value" : 65798,
     "name" : "U_MULTIPLE_PAD_SPECIFIERS"
    },
    {
     "enum_field_value" : 65799,
     "name" : "U_PATTERN_SYNTAX_ERROR"
    },
    {
     "enum_field_value" : 65800,
     "name" : "U_ILLEGAL_PAD_POSITION"
    },
    {
     "enum_field_value" : 65801,
     "name" : "U_UNMATCHED_BRACES"
    },
    {
     "enum_field_value" : 65802,
     "name" : "U_UNSUPPORTED_PROPERTY"
    },
    {
     "enum_field_value" : 65803,
     "name" : "U_UNSUPPORTED_ATTRIBUTE"
    },
    {
     "enum_field_value" : 65804,
     "name" : "U_ARGUMENT_TYPE_MISMATCH"
    },
    {
     "enum_field_value" : 65805,
     "name" : "U_DUPLICATE_KEYWORD"
    },
    {
     "enum_field_value" : 65806,
     "name" : "U_UNDEFINED_KEYWORD"
    },
    {
     "enum_field_value" : 65807,
     "name" : "U_DEFAULT_KEYWORD_MISSING"
    },
    {
     "enum_field_value" : 65808,
     "name" : "U_DECIMAL_NUMBER_SYNTAX_ERROR"
    },
    {
     "enum_field_value" : 65809,
     "name" : "U_FORMAT_INEXACT_ERROR"
    },
    {
     "enum_field_value" : 65810,
     "name" : "U_NUMBER_ARG_OUTOFBOUNDS_ERROR"
    },
    {
     "enum_field_value" : 65811,
     "name" : "U_NUMBER_SKELETON_SYNTAX_ERROR"
    },
    {
     "enum_field_value" : 65812,
     "name" : "U_FMT_PARSE_ERROR_LIMIT"
    },
    {
     "enum_field_value" : 66048,
     "name" : "U_BRK_INTERNAL_ERROR"
    },
    {
     "enum_field_value" : 66048,
     "name" : "U_BRK_ERROR_START"
    },
    {
     "enum_field_value" : 66049,
     "name" : "U_BRK_HEX_DIGITS_EXPECTED"
    },
    {
     "enum_field_value" : 66050,
     "name" : "U_BRK_SEMICOLON_EXPECTED"
    },
    {
     "enum_field_value" : 66051,
     "name" : "U_BRK_RULE_SYNTAX"
    },
    {
     "enum_field_value" : 66052,
     "name" : "U_BRK_UNCLOSED_SET"
    },
    {
     "enum_field_value" : 66053,
     "name" : "U_BRK_ASSIGN_ERROR"
    },
    {
     "enum_field_value" : 66054,
     "name" : "U_BRK_VARIABLE_REDFINITION"
    },
    {
     "enum_field_value" : 66055,
     "name" : "U_BRK_MISMATCHED_PAREN"
    },
    {
     "enum_field_value" : 66056,
     "name" : "U_BRK_NEW_LINE_IN_QUOTED_STRING"
    },
    {
     "enum_field_value" : 66057,
     "name" : "U_BRK_UNDEFINED_VARIABLE"
    },
    {
     "enum_field_value" : 66058,
     "name" : "U_BRK_INIT_ERROR"
    },
    {
     "enum_field_value" : 66059,
     "name" : "U_BRK_RULE_EMPTY_SET"
    },
    {
     "enum_field_value" : 66060,
     "name" : "U_BRK_UNRECOGNIZED_OPTION"
    },
    {
     "enum_field_value" : 66061,
     "name" : "U_BRK_MALFORMED_RULE_TAG"
    },
    {
     "enum_field_value" : 66062,
     "name" : "U_BRK_ERROR_LIMIT"
    },
    {
     "enum_field_value" : 66304,
     "name" : "U_REGEX_INTERNAL_ERROR"
    },
    {
     "enum_field_value" : 66304,
     "name" : "U_REGEX_ERROR_START"
    },
    {
     "enum_field_value" : 66305,
     "name" : "U_REGEX_RULE_SYNTAX"
    },
    {
     "enum_field_value" : 66306,
     "name" : "U_REGEX_INVALID_STATE"
    },
    {
     "enum_field_value" : 66307,
     "name" : "U_REGEX_BAD_ESCAPE_SEQUENCE"
    },
    {
     "enum_field_value" : 66308,
     "name" : "U_REGEX_PROPERTY_SYNTAX"
    },
    {
     "enum_field_value" : 66309,
     "name" : "U_REGEX_UNIMPLEMENTED"
    },
    {
     "enum_field_value" : 66310,
     "name" : "U_REGEX_MISMATCHED_PAREN"
    },
    {
     "enum_field_value" : 66311,
     "name" : "U_REGEX_NUMBER_TOO_BIG"
    },
    {
     "enum_field_value" : 66312,
     "name" : "U_REGEX_BAD_INTERVAL"
    },
    {
     "enum_field_value" : 66313,
     "name" : "U_REGEX_MAX_LT_MIN"
    },
    {
     "enum_field_value" : 66314,
     "name" : "U_REGEX_INVALID_BACK_REF"
    },
    {
     "enum_field_value" : 66315,
     "name" : "U_REGEX_INVALID_FLAG"
    },
    {
     "enum_field_value" : 66316,
     "name" : "U_REGEX_LOOK_BEHIND_LIMIT"
    },
    {
     "enum_field_value" : 66317,
     "name" : "U_REGEX_SET_CONTAINS_STRING"
    },
    {
     "enum_field_value" : 66318,
     "name" : "U_REGEX_OCTAL_TOO_BIG"
    },
    {
     "enum_field_value" : 66319,
     "name" : "U_REGEX_MISSING_CLOSE_BRACKET"
    },
    {
     "enum_field_value" : 66320,
     "name" : "U_REGEX_INVALID_RANGE"
    },
    {
     "enum_field_value" : 66321,
     "name" : "U_REGEX_STACK_OVERFLOW"
    },
    {
     "enum_field_value" : 66322,
     "name" : "U_REGEX_TIME_OUT"
    },
    {
     "enum_field_value" : 66323,
     "name" : "U_REGEX_STOPPED_BY_CALLER"
    },
    {
     "enum_field_value" : 66324,
     "name" : "U_REGEX_PATTERN_TOO_BIG"
    },
    {
     "enum_field_value" : 66325,
     "name" : "U_REGEX_INVALID_CAPTURE_GROUP_NAME"
    },
    {
     "enum_field_value" : 66326,
     "name" : "U_REGEX_ERROR_LIMIT"
    },
    {
     "enum_field_value" : 66560,
     "name" : "U_IDNA_PROHIBITED_ERROR"
    },
    {
     "enum_field_value" : 66560,
     "name" : "U_IDNA_ERROR_START"
    },
    {
     "enum_field_value" : 66561,
     "name" : "U_IDNA_UNASSIGNED_ERROR"
    },
    {
     "enum_field_value" : 66562,
     "name" : "U_IDNA_CHECK_BIDI_ERROR"
    },
    {
     "enum_field_value" : 66563,
     "name" : "U_IDNA_STD3_ASCII_RULES_ERROR"
    },
    {
     "enum_field_value" : 66564,
     "name" : "U_IDNA_ACE_PREFIX_ERROR"
    },
    {
     "enum_field_value" : 66565,
     "name" : "U_IDNA_VERIFICATION_ERROR"
    },
    {
     "enum_field_value" : 66566,
     "name" : "U_IDNA_LABEL_TOO_LONG_ERROR"
    },
    {
     "enum_field_value" : 66567,
     "name" : "U_IDNA_ZERO_LENGTH_LABEL_ERROR"
    },
    {
     "enum_field_value" : 66568,
     "name" : "U_IDNA_DOMAIN_NAME_TOO_LONG_ERROR"
    },
    {
     "enum_field_value" : 66569,
     "name" : "U_IDNA_ERROR_LIMIT"
    },
    {
     "enum_field_value" : 66560,
     "name" : "U_STRINGPREP_PROHIBITED_ERROR"
    },
    {
     "enum_field_value" : 66561,
     "name" : "U_STRINGPREP_UNASSIGNED_ERROR"
    },
    {
     "enum_field_value" : 66562,
     "name" : "U_STRINGPREP_CHECK_BIDI_ERROR"
    },
    {
     "enum_field_value" : 66816,
     "name" : "U_PLUGIN_ERROR_START"
    },
    {
     "enum_field_value" : 66816,
     "name" : "U_PLUGIN_TOO_HIGH"
    },
    {
     "enum_field_value" : 66817,
     "name" : "U_PLUGIN_DIDNT_SET_LEVEL"
    },
    {
     "enum_field_value" : 66818,
     "name" : "U_PLUGIN_ERROR_LIMIT"
    },
    {
     "enum_field_value" : 66818,
     "name" : "U_ERROR_LIMIT"
    }
   ],
   "linker_set_key" : "_ZTI10UErrorCode",
   "name" : "UErrorCode",
   "referenced_type" : "_ZTI10UErrorCode",
   "self_type" : "_ZTI10UErrorCode",
   "size" : 4,
   "source_file" : "external/icu/icu4c/source/common/unicode/utypes.h",
   "underlying_type" : "_ZTIi"
  },
  {
   "alignment" : 4,
   "enum_fields" :
   [
    {
     "enum_field_value" : 0,
     "name" : "U_LB_UNKNOWN"
    },
    {
     "enum_field_value" : 1,
     "name" : "U_LB_AMBIGUOUS"
    },
    {
     "enum_field_value" : 2,
     "name" : "U_LB_ALPHABETIC"
    },
    {
     "enum_field_value" : 3,
     "name" : "U_LB_BREAK_BOTH"
    },
    {
     "enum_field_value" : 4,
     "name" : "U_LB_BREAK_AFTER"
    },
    {
     "enum_field_value" : 5,
     "name" : "U_LB_BREAK_BEFORE"
    },
    {
     "enum_field_value" : 6,
     "name" : "U_LB_MANDATORY_BREAK"
    },
    {
     "enum_field_value" : 7,
     "name" : "U_LB_CONTINGENT_BREAK"
    },
    {
     "enum_field_value" : 8,
     "name" : "U_LB_CLOSE_PUNCTUATION"
    },
    {
     "enum_field_value" : 9,
     "name" : "U_LB_COMBINING_MARK"
    },
    {
     "enum_field_value" : 10,
     "name" : "U_LB_CARRIAGE_RETURN"
    },
    {
     "enum_field_value" : 11,
     "name" : "U_LB_EXCLAMATION"
    },
    {
     "enum_field_value" : 12,
     "name" : "U_LB_GLUE"
    },
    {
     "enum_field_value" : 13,
     "name" : "U_LB_HYPHEN"
    },
    {
     "enum_field_value" : 14,
     "name" : "U_LB_IDEOGRAPHIC"
    },
    {
     "enum_field_value" : 15,
     "name" : "U_LB_INSEPARABLE"
    },
    {
     "enum_field_value" : 15,
     "name" : "U_LB_INSEPERABLE"
    },
    {
     "enum_field_value" : 16,
     "name" : "U_LB_INFIX_NUMERIC"
    },
    {
     "enum_field_value" : 17,
     "name" : "U_LB_LINE_FEED"
    },
    {
     "enum_field_value" : 18,
     "name" : "U_LB_NONSTARTER"
    },
    {
     "enum_field_value" : 19,
     "name" : "U_LB_NUMERIC"
    },
    {
     "enum_field_value" : 20,
     "name" : "U_LB_OPEN_PUNCTUATION"
    },
    {
     "enum_field_value" : 21,
     "name" : "U_LB_POSTFIX_NUMERIC"
    },
    {
     "enum_field_value" : 22,
     "name" : "U_LB_PREFIX_NUMERIC"
    },
    {
     "enum_field_value" : 23,
     "name" : "U_LB_QUOTATION"
    },
    {
     "enum_field_value" : 24,
     "name" : "U_LB_COMPLEX_CONTEXT"
    },
    {
     "enum_field_value" : 25,
     "name" : "U_LB_SURROGATE"
    },
    {
     "enum_field_value" : 26,
     "name" : "U_LB_SPACE"
    },
    {
     "enum_field_value" : 27,
     "name" : "U_LB_BREAK_SYMBOLS"
    },
    {
     "enum_field_value" : 28,
     "name" : "U_LB_ZWSPACE"
    },
    {
     "enum_field_value" : 29,
     "name" : "U_LB_NEXT_LINE"
    },
    {
     "enum_field_value" : 30,
     "name" : "U_LB_WORD_JOINER"
    },
    {
     "enum_field_value" : 31,
     "name" : "U_LB_H2"
    },
    {
     "enum_field_value" : 32,
     "name" : "U_LB_H3"
    },
    {
     "enum_field_value" : 33,
     "name" : "U_LB_JL"
    },
    {
     "enum_field_value" : 34,
     "name" : "U_LB_JT"
    },
    {
     "enum_field_value" : 35,
     "name" : "U_LB_JV"
    },
    {
     "enum_field_value" : 36,
     "name" : "U_LB_CLOSE_PARENTHESIS"
    },
    {
     "enum_field_value" : 37,
     "name" : "U_LB_CONDITIONAL_JAPANESE_STARTER"
    },
    {
     "enum_field_value" : 38,
     "name" : "U_LB_HEBREW_LETTER"
    },
    {
     "enum_field_value" : 39,
     "name" : "U_LB_REGIONAL_INDICATOR"
    },
    {
     "enum_field_value" : 40,
     "name" : "U_LB_E_BASE"
    },
    {
     "enum_field_value" : 41,
     "name" : "U_LB_E_MODIFIER"
    },
    {
     "enum_field_value" : 42,
     "name" : "U_LB_ZWJ"
    },
    {
     "enum_field_value" : 43,
     "name" : "U_LB_COUNT"
    }
   ],
   "linker_set_key" : "_ZTI10ULineBreak",
   "name" : "ULineBreak",
   "referenced_type" : "_ZTI10ULineBreak",
   "self_type" : "_ZTI10ULineBreak",
   "size" : 4,
   "source_file" : "external/icu/icu4c/source/common/unicode/uchar.h",
   "underlying_type" : "_ZTIj"
  },
  {
   "alignment" : 4,
   "enum_fields" :
   [
    {
     "enum_field_value" : 0,
     "name" : "UBRK_WORD_NONE"
    },
    {
     "enum_field_value" : 100,
     "name" : "UBRK_WORD_NONE_LIMIT"
    },
    {
     "enum_field_value" : 100,
     "name" : "UBRK_WORD_NUMBER"
    },
    {
     "enum_field_value" : 200,
     "name" : "UBRK_WORD_NUMBER_LIMIT"
    },
    {
     "enum_field_value" : 200,
     "name" : "UBRK_WORD_LETTER"
    },
    {
     "enum_field_value" : 300,
     "name" : "UBRK_WORD_LETTER_LIMIT"
    },
    {
     "enum_field_value" : 300,
     "name" : "UBRK_WORD_KANA"
    },
    {
     "enum_field_value" : 400,
     "name" : "UBRK_WORD_KANA_LIMIT"
    },
    {
     "enum_field_value" : 400,
     "name" : "UBRK_WORD_IDEO"
    },
    {
     "enum_field_value" : 500,
     "name" : "UBRK_WORD_IDEO_LIMIT"
    }
   ],
   "linker_set_key" : "_ZTI10UWordBreak",
   "name" : "UWordBreak",
   "referenced_type" : "_ZTI10UWordBreak",
   "self_type" : "_ZTI10UWordBreak",
   "size" : 4,
   "source_file" : "external/icu/icu4c/source/common/unicode/ubrk.h",
   "underlying_type" : "_ZTIj"
  },
  {
   "alignment" : 4,
   "enum_fields" :
   [
    {
     "enum_field_value" : 0,
     "name" : "ULOC_LAYOUT_LTR"
    },
    {
     "enum_field_value" : 1,
     "name" : "ULOC_LAYOUT_RTL"
    },
    {
     "enum_field_value" : 2,
     "name" : "ULOC_LAYOUT_TTB"
    },
    {
     "enum_field_value" : 3,
     "name" : "ULOC_LAYOUT_BTT"
    },
    {
     "enum_field_value" : 4,
     "name" : "ULOC_LAYOUT_UNKNOWN"
    }
   ],
   "linker_set_key" : "_ZTI11ULayoutType",
   "name" : "ULayoutType",
   "referenced_type" : "_ZTI11ULayoutType",
   "self_type" : "_ZTI11ULayoutType",
   "size" : 4,
   "source_file" : "external/icu/icu4c/source/common/unicode/uloc.h",
   "underlying_type" : "_ZTIj"
  },
  {
   "alignment" : 4,
   "enum_fields" :
   [
    {
     "enum_field_value" : -1,
     "name" : "USCRIPT_INVALID_CODE"
    },
    {
     "enum_field_value" : 0,
     "name" : "USCRIPT_COMMON"
    },
    {
     "enum_field_value" : 1,
     "name" : "USCRIPT_INHERITED"
    },
    {
     "enum_field_value" : 2,
     "name" : "USCRIPT_ARABIC"
    },
    {
     "enum_field_value" : 3,
     "name" : "USCRIPT_ARMENIAN"
    },
    {
     "enum_field_value" : 4,
     "name" : "USCRIPT_BENGALI"
    },
    {
     "enum_field_value" : 5,
     "name" : "USCRIPT_BOPOMOFO"
    },
    {
     "enum_field_value" : 6,
     "name" : "USCRIPT_CHEROKEE"
    },
    {
     "enum_field_value" : 7,
     "name" : "USCRIPT_COPTIC"
    },
    {
     "enum_field_value" : 8,
     "name" : "USCRIPT_CYRILLIC"
    },
    {
     "enum_field_value" : 9,
     "name" : "USCRIPT_DESERET"
    },
    {
     "enum_field_value" : 10,
     "name" : "USCRIPT_DEVANAGARI"
    },
    {
     "enum_field_value" : 11,
     "name" : "USCRIPT_ETHIOPIC"
    },
    {
     "enum_field_value" : 12,
     "name" : "USCRIPT_GEORGIAN"
    },
    {
     "enum_field_value" : 13,
     "name" : "USCRIPT_GOTHIC"
    },
    {
     "enum_field_value" : 14,
     "name" : "USCRIPT_GREEK"
    },
    {
     "enum_field_value" : 15,
     "name" : "USCRIPT_GUJARATI"
    },
    {
     "enum_field_value" : 16,
     "name" : "USCRIPT_GURMUKHI"
    },
    {
     "enum_field_value" : 17,
     "name" : "USCRIPT_HAN"
    },
    {
     "enum_field_value" : 18,
     "name" : "USCRIPT_HANGUL"
    },
    {
     "enum_field_value" : 19,
     "name" : "USCRIPT_HEBREW"
    },
    {
     "enum_field_value" : 20,
     "name" : "USCRIPT_HIRAGANA"
    },
    {
     "enum_field_value" : 21,
     "name" : "USCRIPT_KANNADA"
    },
    {
     "enum_field_value" : 22,
     "name" : "USCRIPT_KATAKANA"
    },
    {
     "enum_field_value" : 23,
     "name" : "USCRIPT_KHMER"
    },
    {
     "enum_field_value" : 24,
     "name" : "USCRIPT_LAO"
    },
    {
     "enum_field_value" : 25,
     "name" : "USCRIPT_LATIN"
    },
    {
     "enum_field_value" : 26,
     "name" : "USCRIPT_MALAYALAM"
    },
    {
     "enum_field_value" : 27,
     "name" : "USCRIPT_MONGOLIAN"
    },
    {
     "enum_field_value" : 28,
     "name" : "USCRIPT_MYANMAR"
    },
    {
     "enum_field_value" : 29,
     "name" : "USCRIPT_OGHAM"
    },
    {
     "enum_field_value" : 30,
     "name" : "USCRIPT_OLD_ITALIC"
    },
    {
     "enum_field_value" : 31,
     "name" : "USCRIPT_ORIYA"
    },
    {
     "enum_field_value" : 32,
     "name" : "USCRIPT_RUNIC"
    },
    {
     "enum_field_value" : 33,
     "name" : "USCRIPT_SINHALA"
    },
    {
     "enum_field_value" : 34,
     "name" : "USCRIPT_SYRIAC"
    },
    {
     "enum_field_value" : 35,
     "name" : "USCRIPT_TAMIL"
    },
    {
     "enum_field_value" : 36,
     "name" : "USCRIPT_TELUGU"
    },
    {
     "enum_field_value" : 37,
     "name" : "USCRIPT_THAANA"
    },
    {
     "enum_field_value" : 38,
     "name" : "USCRIPT_THAI"
    },
    {
     "enum_field_value" : 39,
     "name" : "USCRIPT_TIBETAN"
    },
    {
     "enum_field_value" : 40,
     "name" : "USCRIPT_CANADIAN_ABORIGINAL"
    },
    {
     "enum_field_value" : 40,
     "name" : "USCRIPT_UCAS"
    },
    {
     "enum_field_value" : 41,
     "name" : "USCRIPT_YI"
    },
    {
     "enum_field_value" : 42,
     "name" : "USCRIPT_TAGALOG"
    },
    {
     "enum_field_value" : 43,
     "name" : "USCRIPT_HANUNOO"
    },
    {
     "enum_field_value" : 44,
     "name" : "USCRIPT_BUHID"
    },
    {
     "enum_field_value" : 45,
     "name" : "USCRIPT_TAGBANWA"
    },
    {
     "enum_field_value" : 46,
     "name" : "USCRIPT_BRAILLE"
    },
    {
     "enum_field_value" : 47,
     "name" : "USCRIPT_CYPRIOT"
    },
    {
     "enum_field_value" : 48,
     "name" : "USCRIPT_LIMBU"
    },
    {
     "enum_field_value" : 49,
     "name" : "USCRIPT_LINEAR_B"
    },
    {
     "enum_field_value" : 50,
     "name" : "USCRIPT_OSMANYA"
    },
    {
     "enum_field_value" : 51,
     "name" : "USCRIPT_SHAVIAN"
    },
    {
     "enum_field_value" : 52,
     "name" : "USCRIPT_TAI_LE"
    },
    {
     "enum_field_value" : 53,
     "name" : "USCRIPT_UGARITIC"
    },
    {
     "enum_field_value" : 54,
     "name" : "USCRIPT_KATAKANA_OR_HIRAGANA"
    },
    {
     "enum_field_value" : 55,
     "name" : "USCRIPT_BUGINESE"
    },
    {
     "enum_field_value" : 56,
     "name" : "USCRIPT_GLAGOLITIC"
    },
    {
     "enum_field_value" : 57,
     "name" : "USCRIPT_KHAROSHTHI"
    },
    {
     "enum_field_value" : 58,
     "name" : "USCRIPT_SYLOTI_NAGRI"
    },
    {
     "enum_field_value" : 59,
     "name" : "USCRIPT_NEW_TAI_LUE"
    },
    {
     "enum_field_value" : 60,
     "name" : "USCRIPT_TIFINAGH"
    },
    {
     "enum_field_value" : 61,
     "name" : "USCRIPT_OLD_PERSIAN"
    },
    {
     "enum_field_value" : 62,
     "name" : "USCRIPT_BALINESE"
    },
    {
     "enum_field_value" : 63,
     "name" : "USCRIPT_BATAK"
    },
    {
     "enum_field_value" : 64,
     "name" : "USCRIPT_BLISSYMBOLS"
    },
    {
     "enum_field_value" : 65,
     "name" : "USCRIPT_BRAHMI"
    },
    {
     "enum_field_value" : 66,
     "name" : "USCRIPT_CHAM"
    },
    {
     "enum_field_value" : 67,
     "name" : "USCRIPT_CIRTH"
    },
    {
     "enum_field_value" : 68,
     "name" : "USCRIPT_OLD_CHURCH_SLAVONIC_CYRILLIC"
    },
    {
     "enum_field_value" : 69,
     "name" : "USCRIPT_DEMOTIC_EGYPTIAN"
    },
    {
     "enum_field_value" : 70,
     "name" : "USCRIPT_HIERATIC_EGYPTIAN"
    },
    {
     "enum_field_value" : 71,
     "name" : "USCRIPT_EGYPTIAN_HIEROGLYPHS"
    },
    {
     "enum_field_value" : 72,
     "name" : "USCRIPT_KHUTSURI"
    },
    {
     "enum_field_value" : 73,
     "name" : "USCRIPT_SIMPLIFIED_HAN"
    },
    {
     "enum_field_value" : 74,
     "name" : "USCRIPT_TRADITIONAL_HAN"
    },
    {
     "enum_field_value" : 75,
     "name" : "USCRIPT_PAHAWH_HMONG"
    },
    {
     "enum_field_value" : 76,
     "name" : "USCRIPT_OLD_HUNGARIAN"
    },
    {
     "enum_field_value" : 77,
     "name" : "USCRIPT_HARAPPAN_INDUS"
    },
    {
     "enum_field_value" : 78,
     "name" : "USCRIPT_JAVANESE"
    },
    {
     "enum_field_value" : 79,
     "name" : "USCRIPT_KAYAH_LI"
    },
    {
     "enum_field_value" : 80,
     "name" : "USCRIPT_LATIN_FRAKTUR"
    },
    {
     "enum_field_value" : 81,
     "name" : "USCRIPT_LATIN_GAELIC"
    },
    {
     "enum_field_value" : 82,
     "name" : "USCRIPT_LEPCHA"
    },
    {
     "enum_field_value" : 83,
     "name" : "USCRIPT_LINEAR_A"
    },
    {
     "enum_field_value" : 84,
     "name" : "USCRIPT_MANDAIC"
    },
    {
     "enum_field_value" : 84,
     "name" : "USCRIPT_MANDAEAN"
    },
    {
     "enum_field_value" : 85,
     "name" : "USCRIPT_MAYAN_HIEROGLYPHS"
    },
    {
     "enum_field_value" : 86,
     "name" : "USCRIPT_MEROITIC_HIEROGLYPHS"
    },
    {
     "enum_field_value" : 86,
     "name" : "USCRIPT_MEROITIC"
    },
    {
     "enum_field_value" : 87,
     "name" : "USCRIPT_NKO"
    },
    {
     "enum_field_value" : 88,
     "name" : "USCRIPT_ORKHON"
    },
    {
     "enum_field_value" : 89,
     "name" : "USCRIPT_OLD_PERMIC"
    },
    {
     "enum_field_value" : 90,
     "name" : "USCRIPT_PHAGS_PA"
    },
    {
     "enum_field_value" : 91,
     "name" : "USCRIPT_PHOENICIAN"
    },
    {
     "enum_field_value" : 92,
     "name" : "USCRIPT_MIAO"
    },
    {
     "enum_field_value" : 92,
     "name" : "USCRIPT_PHONETIC_POLLARD"
    },
    {
     "enum_field_value" : 93,
     "name" : "USCRIPT_RONGORONGO"
    },
    {
     "enum_field_value" : 94,
     "name" : "USCRIPT_SARATI"
    },
    {
     "enum_field_value" : 95,
     "name" : "USCRIPT_ESTRANGELO_SYRIAC"
    },
    {
     "enum_field_value" : 96,
     "name" : "USCRIPT_WESTERN_SYRIAC"
    },
    {
     "enum_field_value" : 97,
     "name" : "USCRIPT_EASTERN_SYRIAC"
    },
    {
     "enum_field_value" : 98,
     "name" : "USCRIPT_TENGWAR"
    },
    {
     "enum_field_value" : 99,
     "name" : "USCRIPT_VAI"
    },
    {
     "enum_field_value" : 100,
     "name" : "USCRIPT_VISIBLE_SPEECH"
    },
    {
     "enum_field_value" : 101,
     "name" : "USCRIPT_CUNEIFORM"
    },
    {
     "enum_field_value" : 102,
     "name" : "USCRIPT_UNWRITTEN_LANGUAGES"
    },
    {
     "enum_field_value" : 103,
     "name" : "USCRIPT_UNKNOWN"
    },
    {
     "enum_field_value" : 104,
     "name" : "USCRIPT_CARIAN"
    },
    {
     "enum_field_value" : 105,
     "name" : "USCRIPT_JAPANESE"
    },
    {
     "enum_field_value" : 106,
     "name" : "USCRIPT_LANNA"
    },
    {
     "enum_field_value" : 107,
     "name" : "USCRIPT_LYCIAN"
    },
    {
     "enum_field_value" : 108,
     "name" : "USCRIPT_LYDIAN"
    },
    {
     "enum_field_value" : 109,
     "name" : "USCRIPT_OL_CHIKI"
    },
    {
     "enum_field_value" : 110,
     "name" : "USCRIPT_REJANG"
    },
    {
     "enum_field_value" : 111,
     "name" : "USCRIPT_SAURASHTRA"
    },
    {
     "enum_field_value" : 112,
     "name" : "USCRIPT_SIGN_WRITING"
    },
    {
     "enum_field_value" : 113,
     "name" : "USCRIPT_SUNDANESE"
    },
    {
     "enum_field_value" : 114,
     "name" : "USCRIPT_MOON"
    },
    {
     "enum_field_value" : 115,
     "name" : "USCRIPT_MEITEI_MAYEK"
    },
    {
     "enum_field_value" : 116,
     "name" : "USCRIPT_IMPERIAL_ARAMAIC"
    },
    {
     "enum_field_value" : 117,
     "name" : "USCRIPT_AVESTAN"
    },
    {
     "enum_field_value" : 118,
     "name" : "USCRIPT_CHAKMA"
    },
    {
     "enum_field_value" : 119,
     "name" : "USCRIPT_KOREAN"
    },
    {
     "enum_field_value" : 120,
     "name" : "USCRIPT_KAITHI"
    },
    {
     "enum_field_value" : 121,
     "name" : "USCRIPT_MANICHAEAN"
    },
    {
     "enum_field_value" : 122,
     "name" : "USCRIPT_INSCRIPTIONAL_PAHLAVI"
    },
    {
     "enum_field_value" : 123,
     "name" : "USCRIPT_PSALTER_PAHLAVI"
    },
    {
     "enum_field_value" : 124,
     "name" : "USCRIPT_BOOK_PAHLAVI"
    },
    {
     "enum_field_value" : 125,
     "name" : "USCRIPT_INSCRIPTIONAL_PARTHIAN"
    },
    {
     "enum_field_value" : 126,
     "name" : "USCRIPT_SAMARITAN"
    },
    {
     "enum_field_value" : 127,
     "name" : "USCRIPT_TAI_VIET"
    },
    {
     "enum_field_value" : 128,
     "name" : "USCRIPT_MATHEMATICAL_NOTATION"
    },
    {
     "enum_field_value" : 129,
     "name" : "USCRIPT_SYMBOLS"
    },
    {
     "enum_field_value" : 130,
     "name" : "USCRIPT_BAMUM"
    },
    {
     "enum_field_value" : 131,
     "name" : "USCRIPT_LISU"
    },
    {
     "enum_field_value" : 132,
     "name" : "USCRIPT_NAKHI_GEBA"
    },
    {
     "enum_field_value" : 133,
     "name" : "USCRIPT_OLD_SOUTH_ARABIAN"
    },
    {
     "enum_field_value" : 134,
     "name" : "USCRIPT_BASSA_VAH"
    },
    {
     "enum_field_value" : 135,
     "name" : "USCRIPT_DUPLOYAN"
    },
    {
     "enum_field_value" : 135,
     "name" : "USCRIPT_DUPLOYAN_SHORTAND"
    },
    {
     "enum_field_value" : 136,
     "name" : "USCRIPT_ELBASAN"
    },
    {
     "enum_field_value" : 137,
     "name" : "USCRIPT_GRANTHA"
    },
    {
     "enum_field_value" : 138,
     "name" : "USCRIPT_KPELLE"
    },
    {
     "enum_field_value" : 139,
     "name" : "USCRIPT_LOMA"
    },
    {
     "enum_field_value" : 140,
     "name" : "USCRIPT_MENDE"
    },
    {
     "enum_field_value" : 141,
     "name" : "USCRIPT_MEROITIC_CURSIVE"
    },
    {
     "enum_field_value" : 142,
     "name" : "USCRIPT_OLD_NORTH_ARABIAN"
    },
    {
     "enum_field_value" : 143,
     "name" : "USCRIPT_NABATAEAN"
    },
    {
     "enum_field_value" : 144,
     "name" : "USCRIPT_PALMYRENE"
    },
    {
     "enum_field_value" : 145,
     "name" : "USCRIPT_KHUDAWADI"
    },
    {
     "enum_field_value" : 145,
     "name" : "USCRIPT_SINDHI"
    },
    {
     "enum_field_value" : 146,
     "name" : "USCRIPT_WARANG_CITI"
    },
    {
     "enum_field_value" : 147,
     "name" : "USCRIPT_AFAKA"
    },
    {
     "enum_field_value" : 148,
     "name" : "USCRIPT_JURCHEN"
    },
    {
     "enum_field_value" : 149,
     "name" : "USCRIPT_MRO"
    },
    {
     "enum_field_value" : 150,
     "name" : "USCRIPT_NUSHU"
    },
    {
     "enum_field_value" : 151,
     "name" : "USCRIPT_SHARADA"
    },
    {
     "enum_field_value" : 152,
     "name" : "USCRIPT_SORA_SOMPENG"
    },
    {
     "enum_field_value" : 153,
     "name" : "USCRIPT_TAKRI"
    },
    {
     "enum_field_value" : 154,
     "name" : "USCRIPT_TANGUT"
    },
    {
     "enum_field_value" : 155,
     "name" : "USCRIPT_WOLEAI"
    },
    {
     "enum_field_value" : 156,
     "name" : "USCRIPT_ANATOLIAN_HIEROGLYPHS"
    },
    {
     "enum_field_value" : 157,
     "name" : "USCRIPT_KHOJKI"
    },
    {
     "enum_field_value" : 158,
     "name" : "USCRIPT_TIRHUTA"
    },
    {
     "enum_field_value" : 159,
     "name" : "USCRIPT_CAUCASIAN_ALBANIAN"
    },
    {
     "enum_field_value" : 160,
     "name" : "USCRIPT_MAHAJANI"
    },
    {
     "enum_field_value" : 161,
     "name" : "USCRIPT_AHOM"
    },
    {
     "enum_field_value" : 162,
     "name" : "USCRIPT_HATRAN"
    },
    {
     "enum_field_value" : 163,
     "name" : "USCRIPT_MODI"
    },
    {
     "enum_field_value" : 164,
     "name" : "USCRIPT_MULTANI"
    },
    {
     "enum_field_value" : 165,
     "name" : "USCRIPT_PAU_CIN_HAU"
    },
    {
     "enum_field_value" : 166,
     "name" : "USCRIPT_SIDDHAM"
    },
    {
     "enum_field_value" : 167,
     "name" : "USCRIPT_ADLAM"
    },
    {
     "enum_field_value" : 168,
     "name" : "USCRIPT_BHAIKSUKI"
    },
    {
     "enum_field_value" : 169,
     "name" : "USCRIPT_MARCHEN"
    },
    {
     "enum_field_value" : 170,
     "name" : "USCRIPT_NEWA"
    },
    {
     "enum_field_value" : 171,
     "name" : "USCRIPT_OSAGE"
    },
    {
     "enum_field_value" : 172,
     "name" : "USCRIPT_HAN_WITH_BOPOMOFO"
    },
    {
     "enum_field_value" : 173,
     "name" : "USCRIPT_JAMO"
    },
    {
     "enum_field_value" : 174,
     "name" : "USCRIPT_SYMBOLS_EMOJI"
    },
    {
     "enum_field_value" : 175,
     "name" : "USCRIPT_MASARAM_GONDI"
    },
    {
     "enum_field_value" : 176,
     "name" : "USCRIPT_SOYOMBO"
    },
    {
     "enum_field_value" : 177,
     "name" : "USCRIPT_ZANABAZAR_SQUARE"
    },
    {
     "enum_field_value" : 178,
     "name" : "USCRIPT_DOGRA"
    },
    {
     "enum_field_value" : 179,
     "name" : "USCRIPT_GUNJALA_GONDI"
    },
    {
     "enum_field_value" : 180,
     "name" : "USCRIPT_MAKASAR"
    },
    {
     "enum_field_value" : 181,
     "name" : "USCRIPT_MEDEFAIDRIN"
    },
    {
     "enum_field_value" : 182,
     "name" : "USCRIPT_HANIFI_ROHINGYA"
    },
    {
     "enum_field_value" : 183,
     "name" : "USCRIPT_SOGDIAN"
    },
    {
     "enum_field_value" : 184,
     "name" : "USCRIPT_OLD_SOGDIAN"
    },
    {
     "enum_field_value" : 185,
     "name" : "USCRIPT_ELYMAIC"
    },
    {
     "enum_field_value" : 186,
     "name" : "USCRIPT_NYIAKENG_PUACHUE_HMONG"
    },
    {
     "enum_field_value" : 187,
     "name" : "USCRIPT_NANDINAGARI"
    },
    {
     "enum_field_value" : 188,
     "name" : "USCRIPT_WANCHO"
    },
    {
     "enum_field_value" : 189,
     "name" : "USCRIPT_CHORASMIAN"
    },
    {
     "enum_field_value" : 190,
     "name" : "USCRIPT_DIVES_AKURU"
    },
    {
     "enum_field_value" : 191,
     "name" : "USCRIPT_KHITAN_SMALL_SCRIPT"
    },
    {
     "enum_field_value" : 192,
     "name" : "USCRIPT_YEZIDI"
    },
    {
     "enum_field_value" : 193,
     "name" : "USCRIPT_CODE_LIMIT"
    }
   ],
   "linker_set_key" : "_ZTI11UScriptCode",
   "name" : "UScriptCode",
   "referenced_type" : "_ZTI11UScriptCode",
   "self_type" : "_ZTI11UScriptCode",
   "size" : 4,
   "source_file" : "external/icu/icu4c/source/common/unicode/uscript.h",
   "underlying_type" : "_ZTIi"
  },
  {
   "alignment" : 4,
   "enum_fields" :
   [
    {
     "enum_field_value" : 878368812,
     "name" : "UTEXT_MAGIC"
    }
   ],
   "linker_set_key" : "_ZTI12$UTEXT_MAGIC",
   "name" : "(anonymous enum at external/icu/icu4c/source/common/unicode/utext.h:1547:1)",
   "referenced_type" : "_ZTI12$UTEXT_MAGIC",
   "self_type" : "_ZTI12$UTEXT_MAGIC",
   "size" : 4,
   "source_file" : "external/icu/icu4c/source/common/unicode/utext.h",
   "underlying_type" : "_ZTIj"
  },
  {
   "alignment" : 4,
   "enum_fields" :
   [
    {
     "enum_field_value" : 0,
     "name" : "U_JT_NON_JOINING"
    },
    {
     "enum_field_value" : 1,
     "name" : "U_JT_JOIN_CAUSING"
    },
    {
     "enum_field_value" : 2,
     "name" : "U_JT_DUAL_JOINING"
    },
    {
     "enum_field_value" : 3,
     "name" : "U_JT_LEFT_JOINING"
    },
    {
     "enum_field_value" : 4,
     "name" : "U_JT_RIGHT_JOINING"
    },
    {
     "enum_field_value" : 5,
     "name" : "U_JT_TRANSPARENT"
    },
    {
     "enum_field_value" : 6,
     "name" : "U_JT_COUNT"
    }
   ],
   "linker_set_key" : "_ZTI12UJoiningType",
   "name" : "UJoiningType",
   "referenced_type" : "_ZTI12UJoiningType",
   "self_type" : "_ZTI12UJoiningType",
   "size" : 4,
   "source_file" : "external/icu/icu4c/source/common/unicode/uchar.h",
   "underlying_type" : "_ZTIj"
  },
  {
   "alignment" : 4,
   "enum_fields" :
   [
    {
     "enum_field_value" : 0,
     "name" : "U_NT_NONE"
    },
    {
     "enum_field_value" : 1,
     "name" : "U_NT_DECIMAL"
    },
    {
     "enum_field_value" : 2,
     "name" : "U_NT_DIGIT"
    },
    {
     "enum_field_value" : 3,
     "name" : "U_NT_NUMERIC"
    },
    {
     "enum_field_value" : 4,
     "name" : "U_NT_COUNT"
    }
   ],
   "linker_set_key" : "_ZTI12UNumericType",
   "name" : "UNumericType",
   "referenced_type" : "_ZTI12UNumericType",
   "self_type" : "_ZTI12UNumericType",
   "size" : 4,
   "source_file" : "external/icu/icu4c/source/common/unicode/uchar.h",
   "underlying_type" : "_ZTIj"
  },
  {
   "alignment" : 4,
   "enum_fields" :
   [
    {
     "enum_field_value" : 0,
     "name" : "USCRIPT_USAGE_NOT_ENCODED"
    },
    {
     "enum_field_value" : 1,
     "name" : "USCRIPT_USAGE_UNKNOWN"
    },
    {
     "enum_field_value" : 2,
     "name" : "USCRIPT_USAGE_EXCLUDED"
    },
    {
     "enum_field_value" : 3,
     "name" : "USCRIPT_USAGE_LIMITED_USE"
    },
    {
     "enum_field_value" : 4,
     "name" : "USCRIPT_USAGE_ASPIRATIONAL"
    },
    {
     "enum_field_value" : 5,
     "name" : "USCRIPT_USAGE_RECOMMENDED"
    }
   ],
   "linker_set_key" : "_ZTI12UScriptUsage",
   "name" : "UScriptUsage",
   "referenced_type" : "_ZTI12UScriptUsage",
   "self_type" : "_ZTI12UScriptUsage",
   "size" : 4,
   "source_file" : "external/icu/icu4c/source/common/unicode/uscript.h",
   "underlying_type" : "_ZTIj"
  },
  {
   "alignment" : 4,
   "enum_fields" :
   [
    {
     "enum_field_value" : 0,
     "name" : "ULOC_ACCEPT_FAILED"
    },
    {
     "enum_field_value" : 1,
     "name" : "ULOC_ACCEPT_VALID"
    },
    {
     "enum_field_value" : 2,
     "name" : "ULOC_ACCEPT_FALLBACK"
    }
   ],
   "linker_set_key" : "_ZTI13UAcceptResult",
   "name" : "UAcceptResult",
   "referenced_type" : "_ZTI13UAcceptResult",
   "self_type" : "_ZTI13UAcceptResult",
   "size" : 4,
   "source_file" : "external/icu/icu4c/source/common/unicode/uloc.h",
   "underlying_type" : "_ZTIj"
  },
  {
   "alignment" : 4,
   "enum_fields" :
   [
    {
     "enum_field_value" : 0,
     "name" : "U_UNASSIGNED"
    },
    {
     "enum_field_value" : 0,
     "name" : "U_GENERAL_OTHER_TYPES"
    },
    {
     "enum_field_value" : 1,
     "name" : "U_UPPERCASE_LETTER"
    },
    {
     "enum_field_value" : 2,
     "name" : "U_LOWERCASE_LETTER"
    },
    {
     "enum_field_value" : 3,
     "name" : "U_TITLECASE_LETTER"
    },
    {
     "enum_field_value" : 4,
     "name" : "U_MODIFIER_LETTER"
    },
    {
     "enum_field_value" : 5,
     "name" : "U_OTHER_LETTER"
    },
    {
     "enum_field_value" : 6,
     "name" : "U_NON_SPACING_MARK"
    },
    {
     "enum_field_value" : 7,
     "name" : "U_ENCLOSING_MARK"
    },
    {
     "enum_field_value" : 8,
     "name" : "U_COMBINING_SPACING_MARK"
    },
    {
     "enum_field_value" : 9,
     "name" : "U_DECIMAL_DIGIT_NUMBER"
    },
    {
     "enum_field_value" : 10,
     "name" : "U_LETTER_NUMBER"
    },
    {
     "enum_field_value" : 11,
     "name" : "U_OTHER_NUMBER"
    },
    {
     "enum_field_value" : 12,
     "name" : "U_SPACE_SEPARATOR"
    },
    {
     "enum_field_value" : 13,
     "name" : "U_LINE_SEPARATOR"
    },
    {
     "enum_field_value" : 14,
     "name" : "U_PARAGRAPH_SEPARATOR"
    },
    {
     "enum_field_value" : 15,
     "name" : "U_CONTROL_CHAR"
    },
    {
     "enum_field_value" : 16,
     "name" : "U_FORMAT_CHAR"
    },
    {
     "enum_field_value" : 17,
     "name" : "U_PRIVATE_USE_CHAR"
    },
    {
     "enum_field_value" : 18,
     "name" : "U_SURROGATE"
    },
    {
     "enum_field_value" : 19,
     "name" : "U_DASH_PUNCTUATION"
    },
    {
     "enum_field_value" : 20,
     "name" : "U_START_PUNCTUATION"
    },
    {
     "enum_field_value" : 21,
     "name" : "U_END_PUNCTUATION"
    },
    {
     "enum_field_value" : 22,
     "name" : "U_CONNECTOR_PUNCTUATION"
    },
    {
     "enum_field_value" : 23,
     "name" : "U_OTHER_PUNCTUATION"
    },
    {
     "enum_field_value" : 24,
     "name" : "U_MATH_SYMBOL"
    },
    {
     "enum_field_value" : 25,
     "name" : "U_CURRENCY_SYMBOL"
    },
    {
     "enum_field_value" : 26,
     "name" : "U_MODIFIER_SYMBOL"
    },
    {
     "enum_field_value" : 27,
     "name" : "U_OTHER_SYMBOL"
    },
    {
     "enum_field_value" : 28,
     "name" : "U_INITIAL_PUNCTUATION"
    },
    {
     "enum_field_value" : 29,
     "name" : "U_FINAL_PUNCTUATION"
    },
    {
     "enum_field_value" : 30,
     "name" : "U_CHAR_CATEGORY_COUNT"
    }
   ],
   "linker_set_key" : "_ZTI13UCharCategory",
   "name" : "UCharCategory",
   "referenced_type" : "_ZTI13UCharCategory",
   "self_type" : "_ZTI13UCharCategory",
   "size" : 4,
   "source_file" : "external/icu/icu4c/source/common/unicode/uchar.h",
   "underlying_type" : "_ZTIj"
  },
  {
   "alignment" : 4,
   "enum_fields" :
   [
    {
     "enum_field_value" : 0,
     "name" : "U_JG_NO_JOINING_GROUP"
    },
    {
     "enum_field_value" : 1,
     "name" : "U_JG_AIN"
    },
    {
     "enum_field_value" : 2,
     "name" : "U_JG_ALAPH"
    },
    {
     "enum_field_value" : 3,
     "name" : "U_JG_ALEF"
    },
    {
     "enum_field_value" : 4,
     "name" : "U_JG_BEH"
    },
    {
     "enum_field_value" : 5,
     "name" : "U_JG_BETH"
    },
    {
     "enum_field_value" : 6,
     "name" : "U_JG_DAL"
    },
    {
     "enum_field_value" : 7,
     "name" : "U_JG_DALATH_RISH"
    },
    {
     "enum_field_value" : 8,
     "name" : "U_JG_E"
    },
    {
     "enum_field_value" : 9,
     "name" : "U_JG_FEH"
    },
    {
     "enum_field_value" : 10,
     "name" : "U_JG_FINAL_SEMKATH"
    },
    {
     "enum_field_value" : 11,
     "name" : "U_JG_GAF"
    },
    {
     "enum_field_value" : 12,
     "name" : "U_JG_GAMAL"
    },
    {
     "enum_field_value" : 13,
     "name" : "U_JG_HAH"
    },
    {
     "enum_field_value" : 14,
     "name" : "U_JG_TEH_MARBUTA_GOAL"
    },
    {
     "enum_field_value" : 14,
     "name" : "U_JG_HAMZA_ON_HEH_GOAL"
    },
    {
     "enum_field_value" : 15,
     "name" : "U_JG_HE"
    },
    {
     "enum_field_value" : 16,
     "name" : "U_JG_HEH"
    },
    {
     "enum_field_value" : 17,
     "name" : "U_JG_HEH_GOAL"
    },
    {
     "enum_field_value" : 18,
     "name" : "U_JG_HETH"
    },
    {
     "enum_field_value" : 19,
     "name" : "U_JG_KAF"
    },
    {
     "enum_field_value" : 20,
     "name" : "U_JG_KAPH"
    },
    {
     "enum_field_value" : 21,
     "name" : "U_JG_KNOTTED_HEH"
    },
    {
     "enum_field_value" : 22,
     "name" : "U_JG_LAM"
    },
    {
     "enum_field_value" : 23,
     "name" : "U_JG_LAMADH"
    },
    {
     "enum_field_value" : 24,
     "name" : "U_JG_MEEM"
    },
    {
     "enum_field_value" : 25,
     "name" : "U_JG_MIM"
    },
    {
     "enum_field_value" : 26,
     "name" : "U_JG_NOON"
    },
    {
     "enum_field_value" : 27,
     "name" : "U_JG_NUN"
    },
    {
     "enum_field_value" : 28,
     "name" : "U_JG_PE"
    },
    {
     "enum_field_value" : 29,
     "name" : "U_JG_QAF"
    },
    {
     "enum_field_value" : 30,
     "name" : "U_JG_QAPH"
    },
    {
     "enum_field_value" : 31,
     "name" : "U_JG_REH"
    },
    {
     "enum_field_value" : 32,
     "name" : "U_JG_REVERSED_PE"
    },
    {
     "enum_field_value" : 33,
     "name" : "U_JG_SAD"
    },
    {
     "enum_field_value" : 34,
     "name" : "U_JG_SADHE"
    },
    {
     "enum_field_value" : 35,
     "name" : "U_JG_SEEN"
    },
    {
     "enum_field_value" : 36,
     "name" : "U_JG_SEMKATH"
    },
    {
     "enum_field_value" : 37,
     "name" : "U_JG_SHIN"
    },
    {
     "enum_field_value" : 38,
     "name" : "U_JG_SWASH_KAF"
    },
    {
     "enum_field_value" : 39,
     "name" : "U_JG_SYRIAC_WAW"
    },
    {
     "enum_field_value" : 40,
     "name" : "U_JG_TAH"
    },
    {
     "enum_field_value" : 41,
     "name" : "U_JG_TAW"
    },
    {
     "enum_field_value" : 42,
     "name" : "U_JG_TEH_MARBUTA"
    },
    {
     "enum_field_value" : 43,
     "name" : "U_JG_TETH"
    },
    {
     "enum_field_value" : 44,
     "name" : "U_JG_WAW"
    },
    {
     "enum_field_value" : 45,
     "name" : "U_JG_YEH"
    },
    {
     "enum_field_value" : 46,
     "name" : "U_JG_YEH_BARREE"
    },
    {
     "enum_field_value" : 47,
     "name" : "U_JG_YEH_WITH_TAIL"
    },
    {
     "enum_field_value" : 48,
     "name" : "U_JG_YUDH"
    },
    {
     "enum_field_value" : 49,
     "name" : "U_JG_YUDH_HE"
    },
    {
     "enum_field_value" : 50,
     "name" : "U_JG_ZAIN"
    },
    {
     "enum_field_value" : 51,
     "name" : "U_JG_FE"
    },
    {
     "enum_field_value" : 52,
     "name" : "U_JG_KHAPH"
    },
    {
     "enum_field_value" : 53,
     "name" : "U_JG_ZHAIN"
    },
    {
     "enum_field_value" : 54,
     "name" : "U_JG_BURUSHASKI_YEH_BARREE"
    },
    {
     "enum_field_value" : 55,
     "name" : "U_JG_FARSI_YEH"
    },
    {
     "enum_field_value" : 56,
     "name" : "U_JG_NYA"
    },
    {
     "enum_field_value" : 57,
     "name" : "U_JG_ROHINGYA_YEH"
    },
    {
     "enum_field_value" : 58,
     "name" : "U_JG_MANICHAEAN_ALEPH"
    },
    {
     "enum_field_value" : 59,
     "name" : "U_JG_MANICHAEAN_AYIN"
    },
    {
     "enum_field_value" : 60,
     "name" : "U_JG_MANICHAEAN_BETH"
    },
    {
     "enum_field_value" : 61,
     "name" : "U_JG_MANICHAEAN_DALETH"
    },
    {
     "enum_field_value" : 62,
     "name" : "U_JG_MANICHAEAN_DHAMEDH"
    },
    {
     "enum_field_value" : 63,
     "name" : "U_JG_MANICHAEAN_FIVE"
    },
    {
     "enum_field_value" : 64,
     "name" : "U_JG_MANICHAEAN_GIMEL"
    },
    {
     "enum_field_value" : 65,
     "name" : "U_JG_MANICHAEAN_HETH"
    },
    {
     "enum_field_value" : 66,
     "name" : "U_JG_MANICHAEAN_HUNDRED"
    },
    {
     "enum_field_value" : 67,
     "name" : "U_JG_MANICHAEAN_KAPH"
    },
    {
     "enum_field_value" : 68,
     "name" : "U_JG_MANICHAEAN_LAMEDH"
    },
    {
     "enum_field_value" : 69,
     "name" : "U_JG_MANICHAEAN_MEM"
    },
    {
     "enum_field_value" : 70,
     "name" : "U_JG_MANICHAEAN_NUN"
    },
    {
     "enum_field_value" : 71,
     "name" : "U_JG_MANICHAEAN_ONE"
    },
    {
     "enum_field_value" : 72,
     "name" : "U_JG_MANICHAEAN_PE"
    },
    {
     "enum_field_value" : 73,
     "name" : "U_JG_MANICHAEAN_QOPH"
    },
    {
     "enum_field_value" : 74,
     "name" : "U_JG_MANICHAEAN_RESH"
    },
    {
     "enum_field_value" : 75,
     "name" : "U_JG_MANICHAEAN_SADHE"
    },
    {
     "enum_field_value" : 76,
     "name" : "U_JG_MANICHAEAN_SAMEKH"
    },
    {
     "enum_field_value" : 77,
     "name" : "U_JG_MANICHAEAN_TAW"
    },
    {
     "enum_field_value" : 78,
     "name" : "U_JG_MANICHAEAN_TEN"
    },
    {
     "enum_field_value" : 79,
     "name" : "U_JG_MANICHAEAN_TETH"
    },
    {
     "enum_field_value" : 80,
     "name" : "U_JG_MANICHAEAN_THAMEDH"
    },
    {
     "enum_field_value" : 81,
     "name" : "U_JG_MANICHAEAN_TWENTY"
    },
    {
     "enum_field_value" : 82,
     "name" : "U_JG_MANICHAEAN_WAW"
    },
    {
     "enum_field_value" : 83,
     "name" : "U_JG_MANICHAEAN_YODH"
    },
    {
     "enum_field_value" : 84,
     "name" : "U_JG_MANICHAEAN_ZAYIN"
    },
    {
     "enum_field_value" : 85,
     "name" : "U_JG_STRAIGHT_WAW"
    },
    {
     "enum_field_value" : 86,
     "name" : "U_JG_AFRICAN_FEH"
    },
    {
     "enum_field_value" : 87,
     "name" : "U_JG_AFRICAN_NOON"
    },
    {
     "enum_field_value" : 88,
     "name" : "U_JG_AFRICAN_QAF"
    },
    {
     "enum_field_value" : 89,
     "name" : "U_JG_MALAYALAM_BHA"
    },
    {
     "enum_field_value" : 90,
     "name" : "U_JG_MALAYALAM_JA"
    },
    {
     "enum_field_value" : 91,
     "name" : "U_JG_MALAYALAM_LLA"
    },
    {
     "enum_field_value" : 92,
     "name" : "U_JG_MALAYALAM_LLLA"
    },
    {
     "enum_field_value" : 93,
     "name" : "U_JG_MALAYALAM_NGA"
    },
    {
     "enum_field_value" : 94,
     "name" : "U_JG_MALAYALAM_NNA"
    },
    {
     "enum_field_value" : 95,
     "name" : "U_JG_MALAYALAM_NNNA"
    },
    {
     "enum_field_value" : 96,
     "name" : "U_JG_MALAYALAM_NYA"
    },
    {
     "enum_field_value" : 97,
     "name" : "U_JG_MALAYALAM_RA"
    },
    {
     "enum_field_value" : 98,
     "name" : "U_JG_MALAYALAM_SSA"
    },
    {
     "enum_field_value" : 99,
     "name" : "U_JG_MALAYALAM_TTA"
    },
    {
     "enum_field_value" : 100,
     "name" : "U_JG_HANIFI_ROHINGYA_KINNA_YA"
    },
    {
     "enum_field_value" : 101,
     "name" : "U_JG_HANIFI_ROHINGYA_PA"
    },
    {
     "enum_field_value" : 102,
     "name" : "U_JG_COUNT"
    }
   ],
   "linker_set_key" : "_ZTI13UJoiningGroup",
   "name" : "UJoiningGroup",
   "referenced_type" : "_ZTI13UJoiningGroup",
   "self_type" : "_ZTI13UJoiningGroup",
   "size" : 4,
   "source_file" : "external/icu/icu4c/source/common/unicode/uchar.h",
   "underlying_type" : "_ZTIj"
  },
  {
   "alignment" : 4,
   "enum_fields" :
   [
    {
     "enum_field_value" : 0,
     "name" : "UBRK_LINE_SOFT"
    },
    {
     "enum_field_value" : 100,
     "name" : "UBRK_LINE_SOFT_LIMIT"
    },
    {
     "enum_field_value" : 100,
     "name" : "UBRK_LINE_HARD"
    },
    {
     "enum_field_value" : 200,
     "name" : "UBRK_LINE_HARD_LIMIT"
    }
   ],
   "linker_set_key" : "_ZTI13ULineBreakTag",
   "name" : "ULineBreakTag",
   "referenced_type" : "_ZTI13ULineBreakTag",
   "self_type" : "_ZTI13ULineBreakTag",
   "size" : 4,
   "source_file" : "external/icu/icu4c/source/common/unicode/ubrk.h",
   "underlying_type" : "_ZTIj"
  },
  {
   "alignment" : 4,
   "enum_fields" :
   [
    {
     "enum_field_value" : 0,
     "name" : "UBIDI_LTR"
    },
    {
     "enum_field_value" : 1,
     "name" : "UBIDI_RTL"
    },
    {
     "enum_field_value" : 2,
     "name" : "UBIDI_MIXED"
    },
    {
     "enum_field_value" : 3,
     "name" : "UBIDI_NEUTRAL"
    }
   ],
   "linker_set_key" : "_ZTI14UBiDiDirection",
   "name" : "UBiDiDirection",
   "referenced_type" : "_ZTI14UBiDiDirection",
   "self_type" : "_ZTI14UBiDiDirection",
   "size" : 4,
   "source_file" : "external/icu/icu4c/source/common/unicode/ubidi.h",
   "underlying_type" : "_ZTIj"
  },
  {
   "alignment" : 4,
   "enum_fields" :
   [
    {
     "enum_field_value" : 0,
     "name" : "U_LEFT_TO_RIGHT"
    },
    {
     "enum_field_value" : 1,
     "name" : "U_RIGHT_TO_LEFT"
    },
    {
     "enum_field_value" : 2,
     "name" : "U_EUROPEAN_NUMBER"
    },
    {
     "enum_field_value" : 3,
     "name" : "U_EUROPEAN_NUMBER_SEPARATOR"
    },
    {
     "enum_field_value" : 4,
     "name" : "U_EUROPEAN_NUMBER_TERMINATOR"
    },
    {
     "enum_field_value" : 5,
     "name" : "U_ARABIC_NUMBER"
    },
    {
     "enum_field_value" : 6,
     "name" : "U_COMMON_NUMBER_SEPARATOR"
    },
    {
     "enum_field_value" : 7,
     "name" : "U_BLOCK_SEPARATOR"
    },
    {
     "enum_field_value" : 8,
     "name" : "U_SEGMENT_SEPARATOR"
    },
    {
     "enum_field_value" : 9,
     "name" : "U_WHITE_SPACE_NEUTRAL"
    },
    {
     "enum_field_value" : 10,
     "name" : "U_OTHER_NEUTRAL"
    },
    {
     "enum_field_value" : 11,
     "name" : "U_LEFT_TO_RIGHT_EMBEDDING"
    },
    {
     "enum_field_value" : 12,
     "name" : "U_LEFT_TO_RIGHT_OVERRIDE"
    },
    {
     "enum_field_value" : 13,
     "name" : "U_RIGHT_TO_LEFT_ARABIC"
    },
    {
     "enum_field_value" : 14,
     "name" : "U_RIGHT_TO_LEFT_EMBEDDING"
    },
    {
     "enum_field_value" : 15,
     "name" : "U_RIGHT_TO_LEFT_OVERRIDE"
    },
    {
     "enum_field_value" : 16,
     "name" : "U_POP_DIRECTIONAL_FORMAT"
    },
    {
     "enum_field_value" : 17,
     "name" : "U_DIR_NON_SPACING_MARK"
    },
    {
     "enum_field_value" : 18,
     "name" : "U_BOUNDARY_NEUTRAL"
    },
    {
     "enum_field_value" : 19,
     "name" : "U_FIRST_STRONG_ISOLATE"
    },
    {
     "enum_field_value" : 20,
     "name" : "U_LEFT_TO_RIGHT_ISOLATE"
    },
    {
     "enum_field_value" : 21,
     "name" : "U_RIGHT_TO_LEFT_ISOLATE"
    },
    {
     "enum_field_value" : 22,
     "name" : "U_POP_DIRECTIONAL_ISOLATE"
    },
    {
     "enum_field_value" : 23,
     "name" : "U_CHAR_DIRECTION_COUNT"
    }
   ],
   "linker_set_key" : "_ZTI14UCharDirection",
   "name" : "UCharDirection",
   "referenced_type" : "_ZTI14UCharDirection",
   "self_type" : "_ZTI14UCharDirection",
   "size" : 4,
   "source_file" : "external/icu/icu4c/source/common/unicode/uchar.h",
   "underlying_type" : "_ZTIj"
  },
  {
   "alignment" : 4,
   "enum_fields" :
   [
    {
     "enum_field_value" : 0,
     "name" : "U_SB_OTHER"
    },
    {
     "enum_field_value" : 1,
     "name" : "U_SB_ATERM"
    },
    {
     "enum_field_value" : 2,
     "name" : "U_SB_CLOSE"
    },
    {
     "enum_field_value" : 3,
     "name" : "U_SB_FORMAT"
    },
    {
     "enum_field_value" : 4,
     "name" : "U_SB_LOWER"
    },
    {
     "enum_field_value" : 5,
     "name" : "U_SB_NUMERIC"
    },
    {
     "enum_field_value" : 6,
     "name" : "U_SB_OLETTER"
    },
    {
     "enum_field_value" : 7,
     "name" : "U_SB_SEP"
    },
    {
     "enum_field_value" : 8,
     "name" : "U_SB_SP"
    },
    {
     "enum_field_value" : 9,
     "name" : "U_SB_STERM"
    },
    {
     "enum_field_value" : 10,
     "name" : "U_SB_UPPER"
    },
    {
     "enum_field_value" : 11,
     "name" : "U_SB_CR"
    },
    {
     "enum_field_value" : 12,
     "name" : "U_SB_EXTEND"
    },
    {
     "enum_field_value" : 13,
     "name" : "U_SB_LF"
    },
    {
     "enum_field_value" : 14,
     "name" : "U_SB_SCONTINUE"
    },
    {
     "enum_field_value" : 15,
     "name" : "U_SB_COUNT"
    }
   ],
   "linker_set_key" : "_ZTI14USentenceBreak",
   "name" : "USentenceBreak",
   "referenced_type" : "_ZTI14USentenceBreak",
   "self_type" : "_ZTI14USentenceBreak",
   "size" : 4,
   "source_file" : "external/icu/icu4c/source/common/unicode/uchar.h",
   "underlying_type" : "_ZTIj"
  },
  {
   "alignment" : 4,
   "enum_fields" :
   [
    {
     "enum_field_value" : 0,
     "name" : "U_UNICODE_CHAR_NAME"
    },
    {
     "enum_field_value" : 1,
     "name" : "U_UNICODE_10_CHAR_NAME"
    },
    {
     "enum_field_value" : 2,
     "name" : "U_EXTENDED_CHAR_NAME"
    },
    {
     "enum_field_value" : 3,
     "name" : "U_CHAR_NAME_ALIAS"
    },
    {
     "enum_field_value" : 4,
     "name" : "U_CHAR_NAME_CHOICE_COUNT"
    }
   ],
   "linker_set_key" : "_ZTI15UCharNameChoice",
   "name" : "UCharNameChoice",
   "referenced_type" : "_ZTI15UCharNameChoice",
   "self_type" : "_ZTI15UCharNameChoice",
   "size" : 4,
   "source_file" : "external/icu/icu4c/source/common/unicode/uchar.h",
   "underlying_type" : "_ZTIj"
  },
  {
   "alignment" : 4,
   "enum_fields" :
   [
    {
     "enum_field_value" : 0,
     "name" : "UDISPCTX_STANDARD_NAMES"
    },
    {
     "enum_field_value" : 1,
     "name" : "UDISPCTX_DIALECT_NAMES"
    },
    {
     "enum_field_value" : 256,
     "name" : "UDISPCTX_CAPITALIZATION_NONE"
    },
    {
     "enum_field_value" : 257,
     "name" : "UDISPCTX_CAPITALIZATION_FOR_MIDDLE_OF_SENTENCE"
    },
    {
     "enum_field_value" : 258,
     "name" : "UDISPCTX_CAPITALIZATION_FOR_BEGINNING_OF_SENTENCE"
    },
    {
     "enum_field_value" : 259,
     "name" : "UDISPCTX_CAPITALIZATION_FOR_UI_LIST_OR_MENU"
    },
    {
     "enum_field_value" : 260,
     "name" : "UDISPCTX_CAPITALIZATION_FOR_STANDALONE"
    },
    {
     "enum_field_value" : 512,
     "name" : "UDISPCTX_LENGTH_FULL"
    },
    {
     "enum_field_value" : 513,
     "name" : "UDISPCTX_LENGTH_SHORT"
    },
    {
     "enum_field_value" : 768,
     "name" : "UDISPCTX_SUBSTITUTE"
    },
    {
     "enum_field_value" : 769,
     "name" : "UDISPCTX_NO_SUBSTITUTE"
    }
   ],
   "linker_set_key" : "_ZTI15UDisplayContext",
   "name" : "UDisplayContext",
   "referenced_type" : "_ZTI15UDisplayContext",
   "self_type" : "_ZTI15UDisplayContext",
   "size" : 4,
   "source_file" : "external/icu/icu4c/source/common/unicode/udisplaycontext.h",
   "underlying_type" : "_ZTIj"
  },
  {
   "alignment" : 4,
   "enum_fields" :
   [
    {
     "enum_field_value" : 0,
     "name" : "U_EA_NEUTRAL"
    },
    {
     "enum_field_value" : 1,
     "name" : "U_EA_AMBIGUOUS"
    },
    {
     "enum_field_value" : 2,
     "name" : "U_EA_HALFWIDTH"
    },
    {
     "enum_field_value" : 3,
     "name" : "U_EA_FULLWIDTH"
    },
    {
     "enum_field_value" : 4,
     "name" : "U_EA_NARROW"
    },
    {
     "enum_field_value" : 5,
     "name" : "U_EA_WIDE"
    },
    {
     "enum_field_value" : 6,
     "name" : "U_EA_COUNT"
    }
   ],
   "linker_set_key" : "_ZTI15UEastAsianWidth",
   "name" : "UEastAsianWidth",
   "referenced_type" : "_ZTI15UEastAsianWidth",
   "self_type" : "_ZTI15UEastAsianWidth",
   "size" : 4,
   "source_file" : "external/icu/icu4c/source/common/unicode/uchar.h",
   "underlying_type" : "_ZTIj"
  },
  {
   "alignment" : 4,
   "enum_fields" :
   [
    {
     "enum_field_value" : 0,
     "name" : "ULDN_STANDARD_NAMES"
    },
    {
     "enum_field_value" : 1,
     "name" : "ULDN_DIALECT_NAMES"
    }
   ],
   "linker_set_key" : "_ZTI16UDialectHandling",
   "name" : "UDialectHandling",
   "referenced_type" : "_ZTI16UDialectHandling",
   "self_type" : "_ZTI16UDialectHandling",
   "size" : 4,
   "source_file" : "external/icu/icu4c/source/common/unicode/uldnames.h",
   "underlying_type" : "_ZTIj"
  },
  {
   "alignment" : 4,
   "enum_fields" :
   [
    {
     "enum_field_value" : 0,
     "name" : "U_WB_OTHER"
    },
    {
     "enum_field_value" : 1,
     "name" : "U_WB_ALETTER"
    },
    {
     "enum_field_value" : 2,
     "name" : "U_WB_FORMAT"
    },
    {
     "enum_field_value" : 3,
     "name" : "U_WB_KATAKANA"
    },
    {
     "enum_field_value" : 4,
     "name" : "U_WB_MIDLETTER"
    },
    {
     "enum_field_value" : 5,
     "name" : "U_WB_MIDNUM"
    },
    {
     "enum_field_value" : 6,
     "name" : "U_WB_NUMERIC"
    },
    {
     "enum_field_value" : 7,
     "name" : "U_WB_EXTENDNUMLET"
    },
    {
     "enum_field_value" : 8,
     "name" : "U_WB_CR"
    },
    {
     "enum_field_value" : 9,
     "name" : "U_WB_EXTEND"
    },
    {
     "enum_field_value" : 10,
     "name" : "U_WB_LF"
    },
    {
     "enum_field_value" : 11,
     "name" : "U_WB_MIDNUMLET"
    },
    {
     "enum_field_value" : 12,
     "name" : "U_WB_NEWLINE"
    },
    {
     "enum_field_value" : 13,
     "name" : "U_WB_REGIONAL_INDICATOR"
    },
    {
     "enum_field_value" : 14,
     "name" : "U_WB_HEBREW_LETTER"
    },
    {
     "enum_field_value" : 15,
     "name" : "U_WB_SINGLE_QUOTE"
    },
    {
     "enum_field_value" : 16,
     "name" : "U_WB_DOUBLE_QUOTE"
    },
    {
     "enum_field_value" : 17,
     "name" : "U_WB_E_BASE"
    },
    {
     "enum_field_value" : 18,
     "name" : "U_WB_E_BASE_GAZ"
    },
    {
     "enum_field_value" : 19,
     "name" : "U_WB_E_MODIFIER"
    },
    {
     "enum_field_value" : 20,
     "name" : "U_WB_GLUE_AFTER_ZWJ"
    },
    {
     "enum_field_value" : 21,
     "name" : "U_WB_ZWJ"
    },
    {
     "enum_field_value" : 22,
     "name" : "U_WB_WSEGSPACE"
    },
    {
     "enum_field_value" : 23,
     "name" : "U_WB_COUNT"
    }
   ],
   "linker_set_key" : "_ZTI16UWordBreakValues",
   "name" : "UWordBreakValues",
   "referenced_type" : "_ZTI16UWordBreakValues",
   "self_type" : "_ZTI16UWordBreakValues",
   "size" : 4,
   "source_file" : "external/icu/icu4c/source/common/unicode/uchar.h",
   "underlying_type" : "_ZTIj"
  },
  {
   "alignment" : 4,
   "enum_fields" :
   [
    {
     "enum_field_value" : 0,
     "name" : "UCPMAP_RANGE_NORMAL"
    },
    {
     "enum_field_value" : 1,
     "name" : "UCPMAP_RANGE_FIXED_LEAD_SURROGATES"
    },
    {
     "enum_field_value" : 2,
     "name" : "UCPMAP_RANGE_FIXED_ALL_SURROGATES"
    }
   ],
   "linker_set_key" : "_ZTI17UCPMapRangeOption",
   "name" : "UCPMapRangeOption",
   "referenced_type" : "_ZTI17UCPMapRangeOption",
   "self_type" : "_ZTI17UCPMapRangeOption",
   "size" : 4,
   "source_file" : "external/icu/icu4c/source/common/unicode/ucpmap.h",
   "underlying_type" : "_ZTIj"
  },
  {
   "alignment" : 4,
   "enum_fields" :
   [
    {
     "enum_field_value" : 0,
     "name" : "ULOC_AVAILABLE_DEFAULT"
    },
    {
     "enum_field_value" : 1,
     "name" : "ULOC_AVAILABLE_ONLY_LEGACY_ALIASES"
    },
    {
     "enum_field_value" : 2,
     "name" : "ULOC_AVAILABLE_WITH_LEGACY_ALIASES"
    },
    {
     "enum_field_value" : 3,
     "name" : "ULOC_AVAILABLE_COUNT"
    }
   ],
   "linker_set_key" : "_ZTI17ULocAvailableType",
   "name" : "ULocAvailableType",
   "referenced_type" : "_ZTI17ULocAvailableType",
   "self_type" : "_ZTI17ULocAvailableType",
   "size" : 4,
   "source_file" : "external/icu/icu4c/source/common/unicode/uloc.h",
   "underlying_type" : "_ZTIj"
  },
  {
   "alignment" : 4,
   "enum_fields" :
   [
    {
     "enum_field_value" : 0,
     "name" : "UBRK_SENTENCE_TERM"
    },
    {
     "enum_field_value" : 100,
     "name" : "UBRK_SENTENCE_TERM_LIMIT"
    },
    {
     "enum_field_value" : 100,
     "name" : "UBRK_SENTENCE_SEP"
    },
    {
     "enum_field_value" : 200,
     "name" : "UBRK_SENTENCE_SEP_LIMIT"
    }
   ],
   "linker_set_key" : "_ZTI17USentenceBreakTag",
   "name" : "USentenceBreakTag",
   "referenced_type" : "_ZTI17USentenceBreakTag",
   "self_type" : "_ZTI17USentenceBreakTag",
   "size" : 4,
   "source_file" : "external/icu/icu4c/source/common/unicode/ubrk.h",
   "underlying_type" : "_ZTIj"
  },
  {
   "alignment" : 4,
   "enum_fields" :
   [
    {
     "enum_field_value" : 0,
     "name" : "USET_SPAN_NOT_CONTAINED"
    },
    {
     "enum_field_value" : 1,
     "name" : "USET_SPAN_CONTAINED"
    },
    {
     "enum_field_value" : 2,
     "name" : "USET_SPAN_SIMPLE"
    },
    {
     "enum_field_value" : 3,
     "name" : "USET_SPAN_CONDITION_COUNT"
    }
   ],
   "linker_set_key" : "_ZTI17USetSpanCondition",
   "name" : "USetSpanCondition",
   "referenced_type" : "_ZTI17USetSpanCondition",
   "self_type" : "_ZTI17USetSpanCondition",
   "size" : 4,
   "source_file" : "external/icu/icu4c/source/common/unicode/uset.h",
   "underlying_type" : "_ZTIj"
  },
  {
   "alignment" : 4,
   "enum_fields" :
   [
    {
     "enum_field_value" : 0,
     "name" : "UBRK_CHARACTER"
    },
    {
     "enum_field_value" : 1,
     "name" : "UBRK_WORD"
    },
    {
     "enum_field_value" : 2,
     "name" : "UBRK_LINE"
    },
    {
     "enum_field_value" : 3,
     "name" : "UBRK_SENTENCE"
    },
    {
     "enum_field_value" : 4,
     "name" : "UBRK_TITLE"
    },
    {
     "enum_field_value" : 5,
     "name" : "UBRK_COUNT"
    }
   ],
   "linker_set_key" : "_ZTI18UBreakIteratorType",
   "name" : "UBreakIteratorType",
   "referenced_type" : "_ZTI18UBreakIteratorType",
   "self_type" : "_ZTI18UBreakIteratorType",
   "size" : 4,
   "source_file" : "external/icu/icu4c/source/common/unicode/ubrk.h",
   "underlying_type" : "_ZTIj"
  },
  {
   "alignment" : 4,
   "enum_fields" :
   [
    {
     "enum_field_value" : 0,
     "name" : "U_DT_NONE"
    },
    {
     "enum_field_value" : 1,
     "name" : "U_DT_CANONICAL"
    },
    {
     "enum_field_value" : 2,
     "name" : "U_DT_COMPAT"
    },
    {
     "enum_field_value" : 3,
     "name" : "U_DT_CIRCLE"
    },
    {
     "enum_field_value" : 4,
     "name" : "U_DT_FINAL"
    },
    {
     "enum_field_value" : 5,
     "name" : "U_DT_FONT"
    },
    {
     "enum_field_value" : 6,
     "name" : "U_DT_FRACTION"
    },
    {
     "enum_field_value" : 7,
     "name" : "U_DT_INITIAL"
    },
    {
     "enum_field_value" : 8,
     "name" : "U_DT_ISOLATED"
    },
    {
     "enum_field_value" : 9,
     "name" : "U_DT_MEDIAL"
    },
    {
     "enum_field_value" : 10,
     "name" : "U_DT_NARROW"
    },
    {
     "enum_field_value" : 11,
     "name" : "U_DT_NOBREAK"
    },
    {
     "enum_field_value" : 12,
     "name" : "U_DT_SMALL"
    },
    {
     "enum_field_value" : 13,
     "name" : "U_DT_SQUARE"
    },
    {
     "enum_field_value" : 14,
     "name" : "U_DT_SUB"
    },
    {
     "enum_field_value" : 15,
     "name" : "U_DT_SUPER"
    },
    {
     "enum_field_value" : 16,
     "name" : "U_DT_VERTICAL"
    },
    {
     "enum_field_value" : 17,
     "name" : "U_DT_WIDE"
    },
    {
     "enum_field_value" : 18,
     "name" : "U_DT_COUNT"
    }
   ],
   "linker_set_key" : "_ZTI18UDecompositionType",
   "name" : "UDecompositionType",
   "referenced_type" : "_ZTI18UDecompositionType",
   "self_type" : "_ZTI18UDecompositionType",
   "size" : 4,
   "source_file" : "external/icu/icu4c/source/common/unicode/uchar.h",
   "underlying_type" : "_ZTIj"
  },
  {
   "alignment" : 4,
   "enum_fields" :
   [
    {
     "enum_field_value" : 0,
     "name" : "ULOC_ACTUAL_LOCALE"
    },
    {
     "enum_field_value" : 1,
     "name" : "ULOC_VALID_LOCALE"
    },
    {
     "enum_field_value" : 2,
     "name" : "ULOC_REQUESTED_LOCALE"
    },
    {
     "enum_field_value" : 3,
     "name" : "ULOC_DATA_LOCALE_TYPE_LIMIT"
    }
   ],
   "linker_set_key" : "_ZTI18ULocDataLocaleType",
   "name" : "ULocDataLocaleType",
   "referenced_type" : "_ZTI18ULocDataLocaleType",
   "self_type" : "_ZTI18ULocDataLocaleType",
   "size" : 4,
   "source_file" : "external/icu/icu4c/source/common/unicode/uloc.h",
   "underlying_type" : "_ZTIj"
  },
  {
   "alignment" : 4,
   "enum_fields" :
   [
    {
     "enum_field_value" : 0,
     "name" : "UMS_SI"
    },
    {
     "enum_field_value" : 1,
     "name" : "UMS_US"
    },
    {
     "enum_field_value" : 2,
     "name" : "UMS_UK"
    },
    {
     "enum_field_value" : 3,
     "name" : "UMS_LIMIT"
    }
   ],
   "linker_set_key" : "_ZTI18UMeasurementSystem",
   "name" : "UMeasurementSystem",
   "referenced_type" : "_ZTI18UMeasurementSystem",
   "self_type" : "_ZTI18UMeasurementSystem",
   "size" : 4,
   "source_file" : "external/icu/icu4c/source/i18n/unicode/ulocdata.h",
   "underlying_type" : "_ZTIj"
  },
  {
   "alignment" : 4,
   "enum_fields" :
   [
    {
     "enum_field_value" : 0,
     "name" : "UBIDI_REORDER_DEFAULT"
    },
    {
     "enum_field_value" : 1,
     "name" : "UBIDI_REORDER_NUMBERS_SPECIAL"
    },
    {
     "enum_field_value" : 2,
     "name" : "UBIDI_REORDER_GROUP_NUMBERS_WITH_R"
    },
    {
     "enum_field_value" : 3,
     "name" : "UBIDI_REORDER_RUNS_ONLY"
    },
    {
     "enum_field_value" : 4,
     "name" : "UBIDI_REORDER_INVERSE_NUMBERS_AS_L"
    },
    {
     "enum_field_value" : 5,
     "name" : "UBIDI_REORDER_INVERSE_LIKE_DIRECT"
    },
    {
     "enum_field_value" : 6,
     "name" : "UBIDI_REORDER_INVERSE_FOR_NUMBERS_SPECIAL"
    },
    {
     "enum_field_value" : 7,
     "name" : "UBIDI_REORDER_COUNT"
    }
   ],
   "linker_set_key" : "_ZTI19UBiDiReorderingMode",
   "name" : "UBiDiReorderingMode",
   "referenced_type" : "_ZTI19UBiDiReorderingMode",
   "self_type" : "_ZTI19UBiDiReorderingMode",
   "size" : 4,
   "source_file" : "external/icu/icu4c/source/common/unicode/ubidi.h",
   "underlying_type" : "_ZTIj"
  },
  {
   "alignment" : 4,
   "enum_fields" :
   [
    {
     "enum_field_value" : 0,
     "name" : "UITER_START"
    },
    {
     "enum_field_value" : 1,
     "name" : "UITER_CURRENT"
    },
    {
     "enum_field_value" : 2,
     "name" : "UITER_LIMIT"
    },
    {
     "enum_field_value" : 3,
     "name" : "UITER_ZERO"
    },
    {
     "enum_field_value" : 4,
     "name" : "UITER_LENGTH"
    }
   ],
   "linker_set_key" : "_ZTI19UCharIteratorOrigin",
   "name" : "UCharIteratorOrigin",
   "referenced_type" : "_ZTI19UCharIteratorOrigin",
   "self_type" : "_ZTI19UCharIteratorOrigin",
   "size" : 4,
   "source_file" : "external/icu/icu4c/source/common/unicode/uiter.h",
   "underlying_type" : "_ZTIj"
  },
  {
   "alignment" : 4,
   "enum_fields" :
   [
    {
     "enum_field_value" : 0,
     "name" : "UDISPCTX_TYPE_DIALECT_HANDLING"
    },
    {
     "enum_field_value" : 1,
     "name" : "UDISPCTX_TYPE_CAPITALIZATION"
    },
    {
     "enum_field_value" : 2,
     "name" : "UDISPCTX_TYPE_DISPLAY_LENGTH"
    },
    {
     "enum_field_value" : 3,
     "name" : "UDISPCTX_TYPE_SUBSTITUTE_HANDLING"
    }
   ],
   "linker_set_key" : "_ZTI19UDisplayContextType",
   "name" : "UDisplayContextType",
   "referenced_type" : "_ZTI19UDisplayContextType",
   "self_type" : "_ZTI19UDisplayContextType",
   "size" : 4,
   "source_file" : "external/icu/icu4c/source/common/unicode/udisplaycontext.h",
   "underlying_type" : "_ZTIj"
  },
  {
   "alignment" : 4,
   "enum_fields" :
   [
    {
     "enum_field_value" : 0,
     "name" : "U_HST_NOT_APPLICABLE"
    },
    {
     "enum_field_value" : 1,
     "name" : "U_HST_LEADING_JAMO"
    },
    {
     "enum_field_value" : 2,
     "name" : "U_HST_VOWEL_JAMO"
    },
    {
     "enum_field_value" : 3,
     "name" : "U_HST_TRAILING_JAMO"
    },
    {
     "enum_field_value" : 4,
     "name" : "U_HST_LV_SYLLABLE"
    },
    {
     "enum_field_value" : 5,
     "name" : "U_HST_LVT_SYLLABLE"
    },
    {
     "enum_field_value" : 6,
     "name" : "U_HST_COUNT"
    }
   ],
   "linker_set_key" : "_ZTI19UHangulSyllableType",
   "name" : "UHangulSyllableType",
   "referenced_type" : "_ZTI19UHangulSyllableType",
   "self_type" : "_ZTI19UHangulSyllableType",
   "size" : 4,
   "source_file" : "external/icu/icu4c/source/common/unicode/uchar.h",
   "underlying_type" : "_ZTIj"
  },
  {
   "alignment" : 4,
   "enum_fields" :
   [
    {
     "enum_field_value" : 0,
     "name" : "UNORM2_COMPOSE"
    },
    {
     "enum_field_value" : 1,
     "name" : "UNORM2_DECOMPOSE"
    },
    {
     "enum_field_value" : 2,
     "name" : "UNORM2_FCD"
    },
    {
     "enum_field_value" : 3,
     "name" : "UNORM2_COMPOSE_CONTIGUOUS"
    }
   ],
   "linker_set_key" : "_ZTI19UNormalization2Mode",
   "name" : "UNormalization2Mode",
   "referenced_type" : "_ZTI19UNormalization2Mode",
   "self_type" : "_ZTI19UNormalization2Mode",
   "size" : 4,
   "source_file" : "external/icu/icu4c/source/common/unicode/unorm2.h",
   "underlying_type" : "_ZTIj"
  },
  {
   "alignment" : 4,
   "enum_fields" :
   [
    {
     "enum_field_value" : 0,
     "name" : "U_SHORT_PROPERTY_NAME"
    },
    {
     "enum_field_value" : 1,
     "name" : "U_LONG_PROPERTY_NAME"
    },
    {
     "enum_field_value" : 2,
     "name" : "U_PROPERTY_NAME_CHOICE_COUNT"
    }
   ],
   "linker_set_key" : "_ZTI19UPropertyNameChoice",
   "name" : "UPropertyNameChoice",
   "referenced_type" : "_ZTI19UPropertyNameChoice",
   "self_type" : "_ZTI19UPropertyNameChoice",
   "size" : 4,
   "source_file" : "external/icu/icu4c/source/common/unicode/uchar.h",
   "underlying_type" : "_ZTIj"
  },
  {
   "alignment" : 4,
   "enum_fields" :
   [
    {
     "enum_field_value" : -2,
     "name" : "UITER_UNKNOWN_INDEX"
    }
   ],
   "linker_set_key" : "_ZTI20$UITER_UNKNOWN_INDEX",
   "name" : "(anonymous enum at external/icu/icu4c/source/common/unicode/uiter.h:56:1)",
   "referenced_type" : "_ZTI20$UITER_UNKNOWN_INDEX",
   "self_type" : "_ZTI20$UITER_UNKNOWN_INDEX",
   "size" : 4,
   "source_file" : "external/icu/icu4c/source/common/unicode/uiter.h",
   "underlying_type" : "_ZTIi"
  },
  {
   "alignment" : 4,
   "enum_fields" :
   [
    {
     "enum_field_value" : 16,
     "name" : "U_PARSE_CONTEXT_LEN"
    }
   ],
   "linker_set_key" : "_ZTI20$U_PARSE_CONTEXT_LEN",
   "name" : "(anonymous enum at external/icu/icu4c/source/common/unicode/parseerr.h:27:1)",
   "referenced_type" : "_ZTI20$U_PARSE_CONTEXT_LEN",
   "self_type" : "_ZTI20$U_PARSE_CONTEXT_LEN",
   "size" : 4,
   "source_file" : "external/icu/icu4c/source/common/unicode/parseerr.h",
   "underlying_type" : "_ZTIj"
  },
  {
   "alignment" : 4,
   "enum_fields" :
   [
    {
     "enum_field_value" : 0,
     "name" : "U_VO_ROTATED"
    },
    {
     "enum_field_value" : 1,
     "name" : "U_VO_TRANSFORMED_ROTATED"
    },
    {
     "enum_field_value" : 2,
     "name" : "U_VO_TRANSFORMED_UPRIGHT"
    },
    {
     "enum_field_value" : 3,
     "name" : "U_VO_UPRIGHT"
    }
   ],
   "linker_set_key" : "_ZTI20UVerticalOrientation",
   "name" : "UVerticalOrientation",
   "referenced_type" : "_ZTI20UVerticalOrientation",
   "self_type" : "_ZTI20UVerticalOrientation",
   "size" : 4,
   "source_file" : "external/icu/icu4c/source/common/unicode/uchar.h",
   "underlying_type" : "_ZTIj"
  },
  {
   "alignment" : 4,
   "enum_fields" :
   [
    {
     "enum_field_value" : 0,
     "name" : "UBIDI_OPTION_DEFAULT"
    },
    {
     "enum_field_value" : 1,
     "name" : "UBIDI_OPTION_INSERT_MARKS"
    },
    {
     "enum_field_value" : 2,
     "name" : "UBIDI_OPTION_REMOVE_CONTROLS"
    },
    {
     "enum_field_value" : 4,
     "name" : "UBIDI_OPTION_STREAMING"
    }
   ],
   "linker_set_key" : "_ZTI21UBiDiReorderingOption",
   "name" : "UBiDiReorderingOption",
   "referenced_type" : "_ZTI21UBiDiReorderingOption",
   "self_type" : "_ZTI21UBiDiReorderingOption",
   "size" : 4,
   "source_file" : "external/icu/icu4c/source/common/unicode/ubidi.h",
   "underlying_type" : "_ZTIj"
  },
  {
   "alignment" : 4,
   "enum_fields" :
   [
    {
     "enum_field_value" : 0,
     "name" : "U_GCB_OTHER"
    },
    {
     "enum_field_value" : 1,
     "name" : "U_GCB_CONTROL"
    },
    {
     "enum_field_value" : 2,
     "name" : "U_GCB_CR"
    },
    {
     "enum_field_value" : 3,
     "name" : "U_GCB_EXTEND"
    },
    {
     "enum_field_value" : 4,
     "name" : "U_GCB_L"
    },
    {
     "enum_field_value" : 5,
     "name" : "U_GCB_LF"
    },
    {
     "enum_field_value" : 6,
     "name" : "U_GCB_LV"
    },
    {
     "enum_field_value" : 7,
     "name" : "U_GCB_LVT"
    },
    {
     "enum_field_value" : 8,
     "name" : "U_GCB_T"
    },
    {
     "enum_field_value" : 9,
     "name" : "U_GCB_V"
    },
    {
     "enum_field_value" : 10,
     "name" : "U_GCB_SPACING_MARK"
    },
    {
     "enum_field_value" : 11,
     "name" : "U_GCB_PREPEND"
    },
    {
     "enum_field_value" : 12,
     "name" : "U_GCB_REGIONAL_INDICATOR"
    },
    {
     "enum_field_value" : 13,
     "name" : "U_GCB_E_BASE"
    },
    {
     "enum_field_value" : 14,
     "name" : "U_GCB_E_BASE_GAZ"
    },
    {
     "enum_field_value" : 15,
     "name" : "U_GCB_E_MODIFIER"
    },
    {
     "enum_field_value" : 16,
     "name" : "U_GCB_GLUE_AFTER_ZWJ"
    },
    {
     "enum_field_value" : 17,
     "name" : "U_GCB_ZWJ"
    },
    {
     "enum_field_value" : 18,
     "name" : "U_GCB_COUNT"
    }
   ],
   "linker_set_key" : "_ZTI21UGraphemeClusterBreak",
   "name" : "UGraphemeClusterBreak",
   "referenced_type" : "_ZTI21UGraphemeClusterBreak",
   "self_type" : "_ZTI21UGraphemeClusterBreak",
   "size" : 4,
   "source_file" : "external/icu/icu4c/source/common/unicode/uchar.h",
   "underlying_type" : "_ZTIj"
  },
  {
   "alignment" : 4,
   "enum_fields" :
   [
    {
     "enum_field_value" : 0,
     "name" : "U_BPT_NONE"
    },
    {
     "enum_field_value" : 1,
     "name" : "U_BPT_OPEN"
    },
    {
     "enum_field_value" : 2,
     "name" : "U_BPT_CLOSE"
    },
    {
     "enum_field_value" : 3,
     "name" : "U_BPT_COUNT"
    }
   ],
   "linker_set_key" : "_ZTI22UBidiPairedBracketType",
   "name" : "UBidiPairedBracketType",
   "referenced_type" : "_ZTI22UBidiPairedBracketType",
   "self_type" : "_ZTI22UBidiPairedBracketType",
   "size" : 4,
   "source_file" : "external/icu/icu4c/source/common/unicode/uchar.h",
   "underlying_type" : "_ZTIj"
  },
  {
   "alignment" : 4,
   "enum_fields" :
   [
    {
     "enum_field_value" : 0,
     "name" : "U_INSC_OTHER"
    },
    {
     "enum_field_value" : 1,
     "name" : "U_INSC_AVAGRAHA"
    },
    {
     "enum_field_value" : 2,
     "name" : "U_INSC_BINDU"
    },
    {
     "enum_field_value" : 3,
     "name" : "U_INSC_BRAHMI_JOINING_NUMBER"
    },
    {
     "enum_field_value" : 4,
     "name" : "U_INSC_CANTILLATION_MARK"
    },
    {
     "enum_field_value" : 5,
     "name" : "U_INSC_CONSONANT"
    },
    {
     "enum_field_value" : 6,
     "name" : "U_INSC_CONSONANT_DEAD"
    },
    {
     "enum_field_value" : 7,
     "name" : "U_INSC_CONSONANT_FINAL"
    },
    {
     "enum_field_value" : 8,
     "name" : "U_INSC_CONSONANT_HEAD_LETTER"
    },
    {
     "enum_field_value" : 9,
     "name" : "U_INSC_CONSONANT_INITIAL_POSTFIXED"
    },
    {
     "enum_field_value" : 10,
     "name" : "U_INSC_CONSONANT_KILLER"
    },
    {
     "enum_field_value" : 11,
     "name" : "U_INSC_CONSONANT_MEDIAL"
    },
    {
     "enum_field_value" : 12,
     "name" : "U_INSC_CONSONANT_PLACEHOLDER"
    },
    {
     "enum_field_value" : 13,
     "name" : "U_INSC_CONSONANT_PRECEDING_REPHA"
    },
    {
     "enum_field_value" : 14,
     "name" : "U_INSC_CONSONANT_PREFIXED"
    },
    {
     "enum_field_value" : 15,
     "name" : "U_INSC_CONSONANT_SUBJOINED"
    },
    {
     "enum_field_value" : 16,
     "name" : "U_INSC_CONSONANT_SUCCEEDING_REPHA"
    },
    {
     "enum_field_value" : 17,
     "name" : "U_INSC_CONSONANT_WITH_STACKER"
    },
    {
     "enum_field_value" : 18,
     "name" : "U_INSC_GEMINATION_MARK"
    },
    {
     "enum_field_value" : 19,
     "name" : "U_INSC_INVISIBLE_STACKER"
    },
    {
     "enum_field_value" : 20,
     "name" : "U_INSC_JOINER"
    },
    {
     "enum_field_value" : 21,
     "name" : "U_INSC_MODIFYING_LETTER"
    },
    {
     "enum_field_value" : 22,
     "name" : "U_INSC_NON_JOINER"
    },
    {
     "enum_field_value" : 23,
     "name" : "U_INSC_NUKTA"
    },
    {
     "enum_field_value" : 24,
     "name" : "U_INSC_NUMBER"
    },
    {
     "enum_field_value" : 25,
     "name" : "U_INSC_NUMBER_JOINER"
    },
    {
     "enum_field_value" : 26,
     "name" : "U_INSC_PURE_KILLER"
    },
    {
     "enum_field_value" : 27,
     "name" : "U_INSC_REGISTER_SHIFTER"
    },
    {
     "enum_field_value" : 28,
     "name" : "U_INSC_SYLLABLE_MODIFIER"
    },
    {
     "enum_field_value" : 29,
     "name" : "U_INSC_TONE_LETTER"
    },
    {
     "enum_field_value" : 30,
     "name" : "U_INSC_TONE_MARK"
    },
    {
     "enum_field_value" : 31,
     "name" : "U_INSC_VIRAMA"
    },
    {
     "enum_field_value" : 32,
     "name" : "U_INSC_VISARGA"
    },
    {
     "enum_field_value" : 33,
     "name" : "U_INSC_VOWEL"
    },
    {
     "enum_field_value" : 34,
     "name" : "U_INSC_VOWEL_DEPENDENT"
    },
    {
     "enum_field_value" : 35,
     "name" : "U_INSC_VOWEL_INDEPENDENT"
    }
   ],
   "linker_set_key" : "_ZTI22UIndicSyllabicCategory",
   "name" : "UIndicSyllabicCategory",
   "referenced_type" : "_ZTI22UIndicSyllabicCategory",
   "self_type" : "_ZTI22UIndicSyllabicCategory",
   "size" : 4,
   "source_file" : "external/icu/icu4c/source/common/unicode/uchar.h",
   "underlying_type" : "_ZTIj"
  },
  {
   "alignment" : 4,
   "enum_fields" :
   [
    {
     "enum_field_value" : 1,
     "name" : "USET_IGNORE_SPACE"
    },
    {
     "enum_field_value" : 2,
     "name" : "USET_CASE_INSENSITIVE"
    },
    {
     "enum_field_value" : 4,
     "name" : "USET_ADD_CASE_MAPPINGS"
    }
   ],
   "linker_set_key" : "_ZTI23$USET_ADD_CASE_MAPPINGS",
   "name" : "(anonymous enum at external/icu/icu4c/source/common/unicode/uset.h:58:1)",
   "referenced_type" : "_ZTI23$USET_ADD_CASE_MAPPINGS",
   "self_type" : "_ZTI23$USET_ADD_CASE_MAPPINGS",
   "size" : 4,
   "source_file" : "external/icu/icu4c/source/common/unicode/uset.h",
   "underlying_type" : "_ZTIj"
  },
  {
   "alignment" : 4,
   "enum_fields" :
   [
    {
     "enum_field_value" : 0,
     "name" : "U_INPC_NA"
    },
    {
     "enum_field_value" : 1,
     "name" : "U_INPC_BOTTOM"
    },
    {
     "enum_field_value" : 2,
     "name" : "U_INPC_BOTTOM_AND_LEFT"
    },
    {
     "enum_field_value" : 3,
     "name" : "U_INPC_BOTTOM_AND_RIGHT"
    },
    {
     "enum_field_value" : 4,
     "name" : "U_INPC_LEFT"
    },
    {
     "enum_field_value" : 5,
     "name" : "U_INPC_LEFT_AND_RIGHT"
    },
    {
     "enum_field_value" : 6,
     "name" : "U_INPC_OVERSTRUCK"
    },
    {
     "enum_field_value" : 7,
     "name" : "U_INPC_RIGHT"
    },
    {
     "enum_field_value" : 8,
     "name" : "U_INPC_TOP"
    },
    {
     "enum_field_value" : 9,
     "name" : "U_INPC_TOP_AND_BOTTOM"
    },
    {
     "enum_field_value" : 10,
     "name" : "U_INPC_TOP_AND_BOTTOM_AND_RIGHT"
    },
    {
     "enum_field_value" : 11,
     "name" : "U_INPC_TOP_AND_LEFT"
    },
    {
     "enum_field_value" : 12,
     "name" : "U_INPC_TOP_AND_LEFT_AND_RIGHT"
    },
    {
     "enum_field_value" : 13,
     "name" : "U_INPC_TOP_AND_RIGHT"
    },
    {
     "enum_field_value" : 14,
     "name" : "U_INPC_VISUAL_ORDER_LEFT"
    },
    {
     "enum_field_value" : 15,
     "name" : "U_INPC_TOP_AND_BOTTOM_AND_LEFT"
    }
   ],
   "linker_set_key" : "_ZTI24UIndicPositionalCategory",
   "name" : "UIndicPositionalCategory",
   "referenced_type" : "_ZTI24UIndicPositionalCategory",
   "self_type" : "_ZTI24UIndicPositionalCategory",
   "size" : 4,
   "source_file" : "external/icu/icu4c/source/common/unicode/uchar.h",
   "underlying_type" : "_ZTIj"
  },
  {
   "alignment" : 4,
   "enum_fields" :
   [
    {
     "enum_field_value" : 0,
     "name" : "ULOCDATA_QUOTATION_START"
    },
    {
     "enum_field_value" : 1,
     "name" : "ULOCDATA_QUOTATION_END"
    },
    {
     "enum_field_value" : 2,
     "name" : "ULOCDATA_ALT_QUOTATION_START"
    },
    {
     "enum_field_value" : 3,
     "name" : "ULOCDATA_ALT_QUOTATION_END"
    },
    {
     "enum_field_value" : 4,
     "name" : "ULOCDATA_DELIMITER_COUNT"
    }
   ],
   "linker_set_key" : "_ZTI24ULocaleDataDelimiterType",
   "name" : "ULocaleDataDelimiterType",
   "referenced_type" : "_ZTI24ULocaleDataDelimiterType",
   "self_type" : "_ZTI24ULocaleDataDelimiterType",
   "size" : 4,
   "source_file" : "external/icu/icu4c/source/i18n/unicode/ulocdata.h",
   "underlying_type" : "_ZTIj"
  },
  {
   "alignment" : 4,
   "enum_fields" :
   [
    {
     "enum_field_value" : 0,
     "name" : "UNORM_NO"
    },
    {
     "enum_field_value" : 1,
     "name" : "UNORM_YES"
    },
    {
     "enum_field_value" : 2,
     "name" : "UNORM_MAYBE"
    }
   ],
   "linker_set_key" : "_ZTI25UNormalizationCheckResult",
   "name" : "UNormalizationCheckResult",
   "referenced_type" : "_ZTI25UNormalizationCheckResult",
   "self_type" : "_ZTI25UNormalizationCheckResult",
   "size" : 4,
   "source_file" : "external/icu/icu4c/source/common/unicode/unorm2.h",
   "underlying_type" : "_ZTIj"
  },
  {
   "alignment" : 4,
   "enum_fields" :
   [
    {
     "enum_field_value" : 0,
     "name" : "ULOCDATA_ES_STANDARD"
    },
    {
     "enum_field_value" : 1,
     "name" : "ULOCDATA_ES_AUXILIARY"
    },
    {
     "enum_field_value" : 2,
     "name" : "ULOCDATA_ES_INDEX"
    },
    {
     "enum_field_value" : 3,
     "name" : "ULOCDATA_ES_PUNCTUATION"
    },
    {
     "enum_field_value" : 4,
     "name" : "ULOCDATA_ES_COUNT"
    }
   ],
   "linker_set_key" : "_ZTI26ULocaleDataExemplarSetType",
   "name" : "ULocaleDataExemplarSetType",
   "referenced_type" : "_ZTI26ULocaleDataExemplarSetType",
   "self_type" : "_ZTI26ULocaleDataExemplarSetType",
   "size" : 4,
   "source_file" : "external/icu/icu4c/source/i18n/unicode/ulocdata.h",
   "underlying_type" : "_ZTIj"
  },
  {
   "alignment" : 4,
   "enum_fields" :
   [
    {
     "enum_field_value" : 1,
     "name" : "UTEXT_PROVIDER_LENGTH_IS_EXPENSIVE"
    },
    {
     "enum_field_value" : 2,
     "name" : "UTEXT_PROVIDER_STABLE_CHUNKS"
    },
    {
     "enum_field_value" : 3,
     "name" : "UTEXT_PROVIDER_WRITABLE"
    },
    {
     "enum_field_value" : 4,
     "name" : "UTEXT_PROVIDER_HAS_META_DATA"
    },
    {
     "enum_field_value" : 5,
     "name" : "UTEXT_PROVIDER_OWNS_TEXT"
    }
   ],
   "linker_set_key" : "_ZTI29$UTEXT_PROVIDER_HAS_META_DATA",
   "name" : "(anonymous enum at external/icu/icu4c/source/common/unicode/utext.h:910:1)",
   "referenced_type" : "_ZTI29$UTEXT_PROVIDER_HAS_META_DATA",
   "self_type" : "_ZTI29$UTEXT_PROVIDER_HAS_META_DATA",
   "size" : 4,
   "source_file" : "external/icu/icu4c/source/common/unicode/utext.h",
   "underlying_type" : "_ZTIj"
  },
  {
   "alignment" : 4,
   "enum_fields" :
   [
    {
     "enum_field_value" : 8,
     "name" : "USET_SERIALIZED_STATIC_ARRAY_CAPACITY"
    }
   ],
   "linker_set_key" : "_ZTI38$USET_SERIALIZED_STATIC_ARRAY_CAPACITY",
   "name" : "(anonymous enum at external/icu/icu4c/source/common/unicode/uset.h:217:1)",
   "referenced_type" : "_ZTI38$USET_SERIALIZED_STATIC_ARRAY_CAPACITY",
   "self_type" : "_ZTI38$USET_SERIALIZED_STATIC_ARRAY_CAPACITY",
   "size" : 4,
   "source_file" : "external/icu/icu4c/source/common/unicode/uset.h",
   "underlying_type" : "_ZTIj"
  },
  {
   "alignment" : 4,
   "enum_fields" :
   [
    {
     "enum_field_value" : -1,
     "name" : "URES_NONE"
    },
    {
     "enum_field_value" : 0,
     "name" : "URES_STRING"
    },
    {
     "enum_field_value" : 1,
     "name" : "URES_BINARY"
    },
    {
     "enum_field_value" : 2,
     "name" : "URES_TABLE"
    },
    {
     "enum_field_value" : 3,
     "name" : "URES_ALIAS"
    },
    {
     "enum_field_value" : 7,
     "name" : "URES_INT"
    },
    {
     "enum_field_value" : 8,
     "name" : "URES_ARRAY"
    },
    {
     "enum_field_value" : 14,
     "name" : "URES_INT_VECTOR"
    },
    {
     "enum_field_value" : -1,
     "name" : "RES_NONE"
    },
    {
     "enum_field_value" : 0,
     "name" : "RES_STRING"
    },
    {
     "enum_field_value" : 1,
     "name" : "RES_BINARY"
    },
    {
     "enum_field_value" : 2,
     "name" : "RES_TABLE"
    },
    {
     "enum_field_value" : 3,
     "name" : "RES_ALIAS"
    },
    {
     "enum_field_value" : 7,
     "name" : "RES_INT"
    },
    {
     "enum_field_value" : 8,
     "name" : "RES_ARRAY"
    },
    {
     "enum_field_value" : 14,
     "name" : "RES_INT_VECTOR"
    },
    {
     "enum_field_value" : 15,
     "name" : "RES_RESERVED"
    },
    {
     "enum_field_value" : 16,
     "name" : "URES_LIMIT"
    }
   ],
   "linker_set_key" : "_ZTI8UResType",
   "name" : "UResType",
   "referenced_type" : "_ZTI8UResType",
   "self_type" : "_ZTI8UResType",
   "size" : 4,
   "source_file" : "external/icu/icu4c/source/common/unicode/ures.h",
   "underlying_type" : "_ZTIi"
  },
  {
   "alignment" : 4,
   "enum_fields" :
   [
    {
     "enum_field_value" : 0,
     "name" : "UCHAR_ALPHABETIC"
    },
    {
     "enum_field_value" : 0,
     "name" : "UCHAR_BINARY_START"
    },
    {
     "enum_field_value" : 1,
     "name" : "UCHAR_ASCII_HEX_DIGIT"
    },
    {
     "enum_field_value" : 2,
     "name" : "UCHAR_BIDI_CONTROL"
    },
    {
     "enum_field_value" : 3,
     "name" : "UCHAR_BIDI_MIRRORED"
    },
    {
     "enum_field_value" : 4,
     "name" : "UCHAR_DASH"
    },
    {
     "enum_field_value" : 5,
     "name" : "UCHAR_DEFAULT_IGNORABLE_CODE_POINT"
    },
    {
     "enum_field_value" : 6,
     "name" : "UCHAR_DEPRECATED"
    },
    {
     "enum_field_value" : 7,
     "name" : "UCHAR_DIACRITIC"
    },
    {
     "enum_field_value" : 8,
     "name" : "UCHAR_EXTENDER"
    },
    {
     "enum_field_value" : 9,
     "name" : "UCHAR_FULL_COMPOSITION_EXCLUSION"
    },
    {
     "enum_field_value" : 10,
     "name" : "UCHAR_GRAPHEME_BASE"
    },
    {
     "enum_field_value" : 11,
     "name" : "UCHAR_GRAPHEME_EXTEND"
    },
    {
     "enum_field_value" : 12,
     "name" : "UCHAR_GRAPHEME_LINK"
    },
    {
     "enum_field_value" : 13,
     "name" : "UCHAR_HEX_DIGIT"
    },
    {
     "enum_field_value" : 14,
     "name" : "UCHAR_HYPHEN"
    },
    {
     "enum_field_value" : 15,
     "name" : "UCHAR_ID_CONTINUE"
    },
    {
     "enum_field_value" : 16,
     "name" : "UCHAR_ID_START"
    },
    {
     "enum_field_value" : 17,
     "name" : "UCHAR_IDEOGRAPHIC"
    },
    {
     "enum_field_value" : 18,
     "name" : "UCHAR_IDS_BINARY_OPERATOR"
    },
    {
     "enum_field_value" : 19,
     "name" : "UCHAR_IDS_TRINARY_OPERATOR"
    },
    {
     "enum_field_value" : 20,
     "name" : "UCHAR_JOIN_CONTROL"
    },
    {
     "enum_field_value" : 21,
     "name" : "UCHAR_LOGICAL_ORDER_EXCEPTION"
    },
    {
     "enum_field_value" : 22,
     "name" : "UCHAR_LOWERCASE"
    },
    {
     "enum_field_value" : 23,
     "name" : "UCHAR_MATH"
    },
    {
     "enum_field_value" : 24,
     "name" : "UCHAR_NONCHARACTER_CODE_POINT"
    },
    {
     "enum_field_value" : 25,
     "name" : "UCHAR_QUOTATION_MARK"
    },
    {
     "enum_field_value" : 26,
     "name" : "UCHAR_RADICAL"
    },
    {
     "enum_field_value" : 27,
     "name" : "UCHAR_SOFT_DOTTED"
    },
    {
     "enum_field_value" : 28,
     "name" : "UCHAR_TERMINAL_PUNCTUATION"
    },
    {
     "enum_field_value" : 29,
     "name" : "UCHAR_UNIFIED_IDEOGRAPH"
    },
    {
     "enum_field_value" : 30,
     "name" : "UCHAR_UPPERCASE"
    },
    {
     "enum_field_value" : 31,
     "name" : "UCHAR_WHITE_SPACE"
    },
    {
     "enum_field_value" : 32,
     "name" : "UCHAR_XID_CONTINUE"
    },
    {
     "enum_field_value" : 33,
     "name" : "UCHAR_XID_START"
    },
    {
     "enum_field_value" : 34,
     "name" : "UCHAR_CASE_SENSITIVE"
    },
    {
     "enum_field_value" : 35,
     "name" : "UCHAR_S_TERM"
    },
    {
     "enum_field_value" : 36,
     "name" : "UCHAR_VARIATION_SELECTOR"
    },
    {
     "enum_field_value" : 37,
     "name" : "UCHAR_NFD_INERT"
    },
    {
     "enum_field_value" : 38,
     "name" : "UCHAR_NFKD_INERT"
    },
    {
     "enum_field_value" : 39,
     "name" : "UCHAR_NFC_INERT"
    },
    {
     "enum_field_value" : 40,
     "name" : "UCHAR_NFKC_INERT"
    },
    {
     "enum_field_value" : 41,
     "name" : "UCHAR_SEGMENT_STARTER"
    },
    {
     "enum_field_value" : 42,
     "name" : "UCHAR_PATTERN_SYNTAX"
    },
    {
     "enum_field_value" : 43,
     "name" : "UCHAR_PATTERN_WHITE_SPACE"
    },
    {
     "enum_field_value" : 44,
     "name" : "UCHAR_POSIX_ALNUM"
    },
    {
     "enum_field_value" : 45,
     "name" : "UCHAR_POSIX_BLANK"
    },
    {
     "enum_field_value" : 46,
     "name" : "UCHAR_POSIX_GRAPH"
    },
    {
     "enum_field_value" : 47,
     "name" : "UCHAR_POSIX_PRINT"
    },
    {
     "enum_field_value" : 48,
     "name" : "UCHAR_POSIX_XDIGIT"
    },
    {
     "enum_field_value" : 49,
     "name" : "UCHAR_CASED"
    },
    {
     "enum_field_value" : 50,
     "name" : "UCHAR_CASE_IGNORABLE"
    },
    {
     "enum_field_value" : 51,
     "name" : "UCHAR_CHANGES_WHEN_LOWERCASED"
    },
    {
     "enum_field_value" : 52,
     "name" : "UCHAR_CHANGES_WHEN_UPPERCASED"
    },
    {
     "enum_field_value" : 53,
     "name" : "UCHAR_CHANGES_WHEN_TITLECASED"
    },
    {
     "enum_field_value" : 54,
     "name" : "UCHAR_CHANGES_WHEN_CASEFOLDED"
    },
    {
     "enum_field_value" : 55,
     "name" : "UCHAR_CHANGES_WHEN_CASEMAPPED"
    },
    {
     "enum_field_value" : 56,
     "name" : "UCHAR_CHANGES_WHEN_NFKC_CASEFOLDED"
    },
    {
     "enum_field_value" : 57,
     "name" : "UCHAR_EMOJI"
    },
    {
     "enum_field_value" : 58,
     "name" : "UCHAR_EMOJI_PRESENTATION"
    },
    {
     "enum_field_value" : 59,
     "name" : "UCHAR_EMOJI_MODIFIER"
    },
    {
     "enum_field_value" : 60,
     "name" : "UCHAR_EMOJI_MODIFIER_BASE"
    },
    {
     "enum_field_value" : 61,
     "name" : "UCHAR_EMOJI_COMPONENT"
    },
    {
     "enum_field_value" : 62,
     "name" : "UCHAR_REGIONAL_INDICATOR"
    },
    {
     "enum_field_value" : 63,
     "name" : "UCHAR_PREPENDED_CONCATENATION_MARK"
    },
    {
     "enum_field_value" : 64,
     "name" : "UCHAR_EXTENDED_PICTOGRAPHIC"
    },
    {
     "enum_field_value" : 65,
     "name" : "UCHAR_BINARY_LIMIT"
    },
    {
     "enum_field_value" : 4096,
     "name" : "UCHAR_BIDI_CLASS"
    },
    {
     "enum_field_value" : 4096,
     "name" : "UCHAR_INT_START"
    },
    {
     "enum_field_value" : 4097,
     "name" : "UCHAR_BLOCK"
    },
    {
     "enum_field_value" : 4098,
     "name" : "UCHAR_CANONICAL_COMBINING_CLASS"
    },
    {
     "enum_field_value" : 4099,
     "name" : "UCHAR_DECOMPOSITION_TYPE"
    },
    {
     "enum_field_value" : 4100,
     "name" : "UCHAR_EAST_ASIAN_WIDTH"
    },
    {
     "enum_field_value" : 4101,
     "name" : "UCHAR_GENERAL_CATEGORY"
    },
    {
     "enum_field_value" : 4102,
     "name" : "UCHAR_JOINING_GROUP"
    },
    {
     "enum_field_value" : 4103,
     "name" : "UCHAR_JOINING_TYPE"
    },
    {
     "enum_field_value" : 4104,
     "name" : "UCHAR_LINE_BREAK"
    },
    {
     "enum_field_value" : 4105,
     "name" : "UCHAR_NUMERIC_TYPE"
    },
    {
     "enum_field_value" : 4106,
     "name" : "UCHAR_SCRIPT"
    },
    {
     "enum_field_value" : 4107,
     "name" : "UCHAR_HANGUL_SYLLABLE_TYPE"
    },
    {
     "enum_field_value" : 4108,
     "name" : "UCHAR_NFD_QUICK_CHECK"
    },
    {
     "enum_field_value" : 4109,
     "name" : "UCHAR_NFKD_QUICK_CHECK"
    },
    {
     "enum_field_value" : 4110,
     "name" : "UCHAR_NFC_QUICK_CHECK"
    },
    {
     "enum_field_value" : 4111,
     "name" : "UCHAR_NFKC_QUICK_CHECK"
    },
    {
     "enum_field_value" : 4112,
     "name" : "UCHAR_LEAD_CANONICAL_COMBINING_CLASS"
    },
    {
     "enum_field_value" : 4113,
     "name" : "UCHAR_TRAIL_CANONICAL_COMBINING_CLASS"
    },
    {
     "enum_field_value" : 4114,
     "name" : "UCHAR_GRAPHEME_CLUSTER_BREAK"
    },
    {
     "enum_field_value" : 4115,
     "name" : "UCHAR_SENTENCE_BREAK"
    },
    {
     "enum_field_value" : 4116,
     "name" : "UCHAR_WORD_BREAK"
    },
    {
     "enum_field_value" : 4117,
     "name" : "UCHAR_BIDI_PAIRED_BRACKET_TYPE"
    },
    {
     "enum_field_value" : 4118,
     "name" : "UCHAR_INDIC_POSITIONAL_CATEGORY"
    },
    {
     "enum_field_value" : 4119,
     "name" : "UCHAR_INDIC_SYLLABIC_CATEGORY"
    },
    {
     "enum_field_value" : 4120,
     "name" : "UCHAR_VERTICAL_ORIENTATION"
    },
    {
     "enum_field_value" : 4121,
     "name" : "UCHAR_INT_LIMIT"
    },
    {
     "enum_field_value" : 8192,
     "name" : "UCHAR_GENERAL_CATEGORY_MASK"
    },
    {
     "enum_field_value" : 8192,
     "name" : "UCHAR_MASK_START"
    },
    {
     "enum_field_value" : 8193,
     "name" : "UCHAR_MASK_LIMIT"
    },
    {
     "enum_field_value" : 12288,
     "name" : "UCHAR_NUMERIC_VALUE"
    },
    {
     "enum_field_value" : 12288,
     "name" : "UCHAR_DOUBLE_START"
    },
    {
     "enum_field_value" : 12289,
     "name" : "UCHAR_DOUBLE_LIMIT"
    },
    {
     "enum_field_value" : 16384,
     "name" : "UCHAR_AGE"
    },
    {
     "enum_field_value" : 16384,
     "name" : "UCHAR_STRING_START"
    },
    {
     "enum_field_value" : 16385,
     "name" : "UCHAR_BIDI_MIRRORING_GLYPH"
    },
    {
     "enum_field_value" : 16386,
     "name" : "UCHAR_CASE_FOLDING"
    },
    {
     "enum_field_value" : 16387,
     "name" : "UCHAR_ISO_COMMENT"
    },
    {
     "enum_field_value" : 16388,
     "name" : "UCHAR_LOWERCASE_MAPPING"
    },
    {
     "enum_field_value" : 16389,
     "name" : "UCHAR_NAME"
    },
    {
     "enum_field_value" : 16390,
     "name" : "UCHAR_SIMPLE_CASE_FOLDING"
    },
    {
     "enum_field_value" : 16391,
     "name" : "UCHAR_SIMPLE_LOWERCASE_MAPPING"
    },
    {
     "enum_field_value" : 16392,
     "name" : "UCHAR_SIMPLE_TITLECASE_MAPPING"
    },
    {
     "enum_field_value" : 16393,
     "name" : "UCHAR_SIMPLE_UPPERCASE_MAPPING"
    },
    {
     "enum_field_value" : 16394,
     "name" : "UCHAR_TITLECASE_MAPPING"
    },
    {
     "enum_field_value" : 16395,
     "name" : "UCHAR_UNICODE_1_NAME"
    },
    {
     "enum_field_value" : 16396,
     "name" : "UCHAR_UPPERCASE_MAPPING"
    },
    {
     "enum_field_value" : 16397,
     "name" : "UCHAR_BIDI_PAIRED_BRACKET"
    },
    {
     "enum_field_value" : 16398,
     "name" : "UCHAR_STRING_LIMIT"
    },
    {
     "enum_field_value" : 28672,
     "name" : "UCHAR_SCRIPT_EXTENSIONS"
    },
    {
     "enum_field_value" : 28672,
     "name" : "UCHAR_OTHER_PROPERTY_START"
    },
    {
     "enum_field_value" : 28673,
     "name" : "UCHAR_OTHER_PROPERTY_LIMIT"
    },
    {
     "enum_field_value" : -1,
     "name" : "UCHAR_INVALID_CODE"
    }
   ],
   "linker_set_key" : "_ZTI9UProperty",
   "name" : "UProperty",
   "referenced_type" : "_ZTI9UProperty",
   "self_type" : "_ZTI9UProperty",
   "size" : 4,
   "source_file" : "external/icu/icu4c/source/common/unicode/uchar.h",
   "underlying_type" : "_ZTIi"
  }
 ],
 "function_types" :
 [
  {
   "alignment" : 4,
   "linker_set_key" : "_ZTIF14UCharDirectionPKviE",
   "name" : "UCharDirection (const void *, int)",
   "parameters" :
   [
    {
     "referenced_type" : "_ZTIPKv"
    },
    {
     "referenced_type" : "_ZTIi"
    }
   ],
   "referenced_type" : "_ZTIF14UCharDirectionPKviE",
   "return_type" : "_ZTI14UCharDirection",
   "self_type" : "_ZTIF14UCharDirectionPKviE",
   "source_file" : "external/icu/libicu/src/shim.cpp"
  },
  {
   "alignment" : 4,
   "linker_set_key" : "_ZTIFP5UTextS0_PKS_aP10UErrorCodeE",
   "name" : "UText *(UText *, const UText *, signed char, UErrorCode *)",
   "parameters" :
   [
    {
     "referenced_type" : "_ZTIP5UText"
    },
    {
     "referenced_type" : "_ZTIPK5UText"
    },
    {
     "referenced_type" : "_ZTIa"
    },
    {
     "referenced_type" : "_ZTIP10UErrorCode"
    }
   ],
   "referenced_type" : "_ZTIFP5UTextS0_PKS_aP10UErrorCodeE",
   "return_type" : "_ZTIP5UText",
   "self_type" : "_ZTIFP5UTextS0_PKS_aP10UErrorCodeE",
   "source_file" : "external/icu/icu4c/source/common/unicode/utext.h"
  },
  {
   "alignment" : 4,
   "linker_set_key" : "_ZTIFaP13UCharIteratorE",
   "name" : "signed char (UCharIterator *)",
   "parameters" :
   [
    {
     "referenced_type" : "_ZTIP13UCharIterator"
    }
   ],
   "referenced_type" : "_ZTIFaP13UCharIteratorE",
   "return_type" : "_ZTIa",
   "self_type" : "_ZTIFaP13UCharIteratorE",
   "source_file" : "external/icu/icu4c/source/common/unicode/uiter.h"
  },
  {
   "alignment" : 4,
   "linker_set_key" : "_ZTIFaP5UTextlaE",
   "name" : "signed char (UText *, long, signed char)",
   "parameters" :
   [
    {
     "referenced_type" : "_ZTIP5UText"
    },
    {
     "referenced_type" : "_ZTIl"
    },
    {
     "referenced_type" : "_ZTIa"
    }
   ],
   "referenced_type" : "_ZTIFaP5UTextlaE",
   "return_type" : "_ZTIa",
   "self_type" : "_ZTIFaP5UTextlaE",
   "source_file" : "external/icu/icu4c/source/common/unicode/utext.h"
  },
  {
   "alignment" : 4,
   "linker_set_key" : "_ZTIFaPKvii13UCharCategoryE",
   "name" : "signed char (const void *, int, int, UCharCategory)",
   "parameters" :
   [
    {
     "referenced_type" : "_ZTIPKv"
    },
    {
     "referenced_type" : "_ZTIi"
    },
    {
     "referenced_type" : "_ZTIi"
    },
    {
     "referenced_type" : "_ZTI13UCharCategory"
    }
   ],
   "referenced_type" : "_ZTIFaPKvii13UCharCategoryE",
   "return_type" : "_ZTIa",
   "self_type" : "_ZTIFaPKvii13UCharCategoryE",
   "source_file" : "external/icu/libicu/src/shim.cpp"
  },
  {
   "alignment" : 4,
   "linker_set_key" : "_ZTIFaPvi15UCharNameChoicePKciE",
   "name" : "signed char (void *, int, UCharNameChoice, const char *, int)",
   "parameters" :
   [
    {
     "referenced_type" : "_ZTIPv"
    },
    {
     "referenced_type" : "_ZTIi"
    },
    {
     "referenced_type" : "_ZTI15UCharNameChoice"
    },
    {
     "referenced_type" : "_ZTIPKc"
    },
    {
     "referenced_type" : "_ZTIi"
    }
   ],
   "referenced_type" : "_ZTIFaPvi15UCharNameChoicePKciE",
   "return_type" : "_ZTIa",
   "self_type" : "_ZTIFaPvi15UCharNameChoicePKciE",
   "source_file" : "external/icu/libicu/src/shim.cpp"
  },
  {
   "alignment" : 4,
   "linker_set_key" : "_ZTIFiP13UCharIterator19UCharIteratorOriginE",
   "name" : "int (UCharIterator *, UCharIteratorOrigin)",
   "parameters" :
   [
    {
     "referenced_type" : "_ZTIP13UCharIterator"
    },
    {
     "referenced_type" : "_ZTI19UCharIteratorOrigin"
    }
   ],
   "referenced_type" : "_ZTIFiP13UCharIterator19UCharIteratorOriginE",
   "return_type" : "_ZTIi",
   "self_type" : "_ZTIFiP13UCharIterator19UCharIteratorOriginE",
   "source_file" : "external/icu/icu4c/source/common/unicode/uiter.h"
  },
  {
   "alignment" : 4,
   "linker_set_key" : "_ZTIFiP13UCharIteratorE",
   "name" : "int (UCharIterator *)",
   "parameters" :
   [
    {
     "referenced_type" : "_ZTIP13UCharIterator"
    }
   ],
   "referenced_type" : "_ZTIFiP13UCharIteratorE",
   "return_type" : "_ZTIi",
   "self_type" : "_ZTIFiP13UCharIteratorE",
   "source_file" : "external/icu/icu4c/source/common/unicode/uiter.h"
  },
  {
   "alignment" : 4,
   "linker_set_key" : "_ZTIFiP13UCharIteratori19UCharIteratorOriginE",
   "name" : "int (UCharIterator *, int, UCharIteratorOrigin)",
   "parameters" :
   [
    {
     "referenced_type" : "_ZTIP13UCharIterator"
    },
    {
     "referenced_type" : "_ZTIi"
    },
    {
     "referenced_type" : "_ZTI19UCharIteratorOrigin"
    }
   ],
   "referenced_type" : "_ZTIFiP13UCharIteratori19UCharIteratorOriginE",
   "return_type" : "_ZTIi",
   "self_type" : "_ZTIFiP13UCharIteratori19UCharIteratorOriginE",
   "source_file" : "external/icu/icu4c/source/common/unicode/uiter.h"
  },
  {
   "alignment" : 4,
   "linker_set_key" : "_ZTIFiP13UCharIteratoriE",
   "name" : "int (UCharIterator *, int)",
   "parameters" :
   [
    {
     "referenced_type" : "_ZTIP13UCharIterator"
    },
    {
     "referenced_type" : "_ZTIi"
    }
   ],
   "referenced_type" : "_ZTIFiP13UCharIteratoriE",
   "return_type" : "_ZTIi",
   "self_type" : "_ZTIFiP13UCharIteratoriE",
   "source_file" : "external/icu/icu4c/source/common/unicode/uiter.h"
  },
  {
   "alignment" : 4,
   "linker_set_key" : "_ZTIFiP5UTextllPDsiP10UErrorCodeE",
   "name" : "int (UText *, long, long, char16_t *, int, UErrorCode *)",
   "parameters" :
   [
    {
     "referenced_type" : "_ZTIP5UText"
    },
    {
     "referenced_type" : "_ZTIl"
    },
    {
     "referenced_type" : "_ZTIl"
    },
    {
     "referenced_type" : "_ZTIPDs"
    },
    {
     "referenced_type" : "_ZTIi"
    },
    {
     "referenced_type" : "_ZTIP10UErrorCode"
    }
   ],
   "referenced_type" : "_ZTIFiP5UTextllPDsiP10UErrorCodeE",
   "return_type" : "_ZTIi",
   "self_type" : "_ZTIFiP5UTextllPDsiP10UErrorCodeE",
   "source_file" : "external/icu/icu4c/source/common/unicode/utext.h"
  },
  {
   "alignment" : 4,
   "linker_set_key" : "_ZTIFiP5UTextllPKDsiP10UErrorCodeE",
   "name" : "int (UText *, long, long, const char16_t *, int, UErrorCode *)",
   "parameters" :
   [
    {
     "referenced_type" : "_ZTIP5UText"
    },
    {
     "referenced_type" : "_ZTIl"
    },
    {
     "referenced_type" : "_ZTIl"
    },
    {
     "referenced_type" : "_ZTIPKDs"
    },
    {
     "referenced_type" : "_ZTIi"
    },
    {
     "referenced_type" : "_ZTIP10UErrorCode"
    }
   ],
   "referenced_type" : "_ZTIFiP5UTextllPKDsiP10UErrorCodeE",
   "return_type" : "_ZTIi",
   "self_type" : "_ZTIFiP5UTextllPKDsiP10UErrorCodeE",
   "source_file" : "external/icu/icu4c/source/common/unicode/utext.h"
  },
  {
   "alignment" : 4,
   "linker_set_key" : "_ZTIFiPK5UTextlE",
   "name" : "int (const UText *, long)",
   "parameters" :
   [
    {
     "referenced_type" : "_ZTIPK5UText"
    },
    {
     "referenced_type" : "_ZTIl"
    }
   ],
   "referenced_type" : "_ZTIFiPK5UTextlE",
   "return_type" : "_ZTIi",
   "self_type" : "_ZTIFiPK5UTextlE",
   "source_file" : "external/icu/icu4c/source/common/unicode/utext.h"
  },
  {
   "alignment" : 4,
   "linker_set_key" : "_ZTIFjPK13UCharIteratorE",
   "name" : "unsigned int (const UCharIterator *)",
   "parameters" :
   [
    {
     "referenced_type" : "_ZTIPK13UCharIterator"
    }
   ],
   "referenced_type" : "_ZTIFjPK13UCharIteratorE",
   "return_type" : "_ZTIj",
   "self_type" : "_ZTIFjPK13UCharIteratorE",
   "source_file" : "external/icu/icu4c/source/common/unicode/uiter.h"
  },
  {
   "alignment" : 4,
   "linker_set_key" : "_ZTIFlP5UTextE",
   "name" : "long (UText *)",
   "parameters" :
   [
    {
     "referenced_type" : "_ZTIP5UText"
    }
   ],
   "referenced_type" : "_ZTIFlP5UTextE",
   "return_type" : "_ZTIl",
   "self_type" : "_ZTIFlP5UTextE",
   "source_file" : "external/icu/icu4c/source/common/unicode/utext.h"
  },
  {
   "alignment" : 4,
   "linker_set_key" : "_ZTIFlPK5UTextE",
   "name" : "long (const UText *)",
   "parameters" :
   [
    {
     "referenced_type" : "_ZTIPK5UText"
    }
   ],
   "referenced_type" : "_ZTIFlPK5UTextE",
   "return_type" : "_ZTIl",
   "self_type" : "_ZTIFlPK5UTextE",
   "source_file" : "external/icu/icu4c/source/common/unicode/utext.h"
  },
  {
   "alignment" : 4,
   "linker_set_key" : "_ZTIFvP13UCharIteratorjP10UErrorCodeE",
   "name" : "void (UCharIterator *, unsigned int, UErrorCode *)",
   "parameters" :
   [
    {
     "referenced_type" : "_ZTIP13UCharIterator"
    },
    {
     "referenced_type" : "_ZTIj"
    },
    {
     "referenced_type" : "_ZTIP10UErrorCode"
    }
   ],
   "referenced_type" : "_ZTIFvP13UCharIteratorjP10UErrorCodeE",
   "return_type" : "_ZTIv",
   "self_type" : "_ZTIFvP13UCharIteratorjP10UErrorCodeE",
   "source_file" : "external/icu/icu4c/source/common/unicode/uiter.h"
  },
  {
   "alignment" : 4,
   "linker_set_key" : "_ZTIFvP5UTextE",
   "name" : "void (UText *)",
   "parameters" :
   [
    {
     "referenced_type" : "_ZTIP5UText"
    }
   ],
   "referenced_type" : "_ZTIFvP5UTextE",
   "return_type" : "_ZTIv",
   "self_type" : "_ZTIFvP5UTextE",
   "source_file" : "external/icu/icu4c/source/common/unicode/utext.h"
  },
  {
   "alignment" : 4,
   "linker_set_key" : "_ZTIFvP5UTextlllaP10UErrorCodeE",
   "name" : "void (UText *, long, long, long, signed char, UErrorCode *)",
   "parameters" :
   [
    {
     "referenced_type" : "_ZTIP5UText"
    },
    {
     "referenced_type" : "_ZTIl"
    },
    {
     "referenced_type" : "_ZTIl"
    },
    {
     "referenced_type" : "_ZTIl"
    },
    {
     "referenced_type" : "_ZTIa"
    },
    {
     "referenced_type" : "_ZTIP10UErrorCode"
    }
   ],
   "referenced_type" : "_ZTIFvP5UTextlllaP10UErrorCodeE",
   "return_type" : "_ZTIv",
   "self_type" : "_ZTIFvP5UTextlllaP10UErrorCodeE",
   "source_file" : "external/icu/icu4c/source/common/unicode/utext.h"
  }
 ],
 "functions" :
 [
  {
   "function_name" : "u_charAge",
   "linker_set_key" : "u_charAge",
   "parameters" :
   [
    {
     "referenced_type" : "_ZTIi"
    },
    {
     "referenced_type" : "_ZTIPh"
    }
   ],
   "return_type" : "_ZTIv",
   "source_file" : "external/icu/libicu/src/shim.cpp"
  },
  {
   "function_name" : "u_charDigitValue",
   "linker_set_key" : "u_charDigitValue",
   "parameters" :
   [
    {
     "referenced_type" : "_ZTIi"
    }
   ],
   "return_type" : "_ZTIi",
   "source_file" : "external/icu/libicu/src/shim.cpp"
  },
  {
   "function_name" : "u_charDirection",
   "linker_set_key" : "u_charDirection",
   "parameters" :
   [
    {
     "referenced_type" : "_ZTIi"
    }
   ],
   "return_type" : "_ZTI14UCharDirection",
   "source_file" : "external/icu/libicu/src/shim.cpp"
  },
  {
   "function_name" : "u_charFromName",
   "linker_set_key" : "u_charFromName",
   "parameters" :
   [
    {
     "referenced_type" : "_ZTI15UCharNameChoice"
    },
    {
     "referenced_type" : "_ZTIPKc"
    },
    {
     "referenced_type" : "_ZTIP10UErrorCode"
    }
   ],
   "return_type" : "_ZTIi",
   "source_file" : "external/icu/libicu/src/shim.cpp"
  },
  {
   "function_name" : "u_charMirror",
   "linker_set_key" : "u_charMirror",
   "parameters" :
   [
    {
     "referenced_type" : "_ZTIi"
    }
   ],
   "return_type" : "_ZTIi",
   "source_file" : "external/icu/libicu/src/shim.cpp"
  },
  {
   "function_name" : "u_charName",
   "linker_set_key" : "u_charName",
   "parameters" :
   [
    {
     "referenced_type" : "_ZTIi"
    },
    {
     "referenced_type" : "_ZTI15UCharNameChoice"
    },
    {
     "referenced_type" : "_ZTIPc"
    },
    {
     "referenced_type" : "_ZTIi"
    },
    {
     "referenced_type" : "_ZTIP10UErrorCode"
    }
   ],
   "return_type" : "_ZTIi",
   "source_file" : "external/icu/libicu/src/shim.cpp"
  },
  {
   "function_name" : "u_charType",
   "linker_set_key" : "u_charType",
   "parameters" :
   [
    {
     "referenced_type" : "_ZTIi"
    }
   ],
   "return_type" : "_ZTIa",
   "source_file" : "external/icu/libicu/src/shim.cpp"
  },
  {
   "function_name" : "u_countChar32",
   "linker_set_key" : "u_countChar32",
   "parameters" :
   [
    {
     "referenced_type" : "_ZTIPKDs"
    },
    {
     "referenced_type" : "_ZTIi"
    }
   ],
   "return_type" : "_ZTIi",
   "source_file" : "external/icu/libicu/src/shim.cpp"
  },
  {
   "function_name" : "u_digit",
   "linker_set_key" : "u_digit",
   "parameters" :
   [
    {
     "referenced_type" : "_ZTIi"
    },
    {
     "referenced_type" : "_ZTIa"
    }
   ],
   "return_type" : "_ZTIi",
   "source_file" : "external/icu/libicu/src/shim.cpp"
  },
  {
   "function_name" : "u_enumCharNames",
   "linker_set_key" : "u_enumCharNames",
   "parameters" :
   [
    {
     "referenced_type" : "_ZTIi"
    },
    {
     "referenced_type" : "_ZTIi"
    },
    {
     "referenced_type" : "_ZTIPFaPvi15UCharNameChoicePKciE"
    },
    {
     "referenced_type" : "_ZTIPv"
    },
    {
     "referenced_type" : "_ZTI15UCharNameChoice"
    },
    {
     "referenced_type" : "_ZTIP10UErrorCode"
    }
   ],
   "return_type" : "_ZTIv",
   "source_file" : "external/icu/libicu/src/shim.cpp"
  },
  {
   "function_name" : "u_enumCharTypes",
   "linker_set_key" : "u_enumCharTypes",
   "parameters" :
   [
    {
     "referenced_type" : "_ZTIPFaPKvii13UCharCategoryE"
    },
    {
     "referenced_type" : "_ZTIPKv"
    }
   ],
   "return_type" : "_ZTIv",
   "source_file" : "external/icu/libicu/src/shim.cpp"
  },
  {
   "function_name" : "u_errorName",
   "linker_set_key" : "u_errorName",
   "parameters" :
   [
    {
     "referenced_type" : "_ZTI10UErrorCode"
    }
   ],
   "return_type" : "_ZTIPKc",
   "source_file" : "external/icu/libicu/src/shim.cpp"
  },
  {
   "function_name" : "u_foldCase",
   "linker_set_key" : "u_foldCase",
   "parameters" :
   [
    {
     "referenced_type" : "_ZTIi"
    },
    {
     "referenced_type" : "_ZTIj"
    }
   ],
   "return_type" : "_ZTIi",
   "source_file" : "external/icu/libicu/src/shim.cpp"
  },
  {
   "function_name" : "u_forDigit",
   "linker_set_key" : "u_forDigit",
   "parameters" :
   [
    {
     "referenced_type" : "_ZTIi"
    },
    {
     "referenced_type" : "_ZTIa"
    }
   ],
   "return_type" : "_ZTIi",
   "source_file" : "external/icu/libicu/src/shim.cpp"
  },
  {
   "function_name" : "u_getBidiPairedBracket",
   "linker_set_key" : "u_getBidiPairedBracket",
   "parameters" :
   [
    {
     "referenced_type" : "_ZTIi"
    }
   ],
   "return_type" : "_ZTIi",
   "source_file" : "external/icu/libicu/src/shim.cpp"
  },
  {
   "function_name" : "u_getCombiningClass",
   "linker_set_key" : "u_getCombiningClass",
   "parameters" :
   [
    {
     "referenced_type" : "_ZTIi"
    }
   ],
   "return_type" : "_ZTIh",
   "source_file" : "external/icu/libicu/src/shim.cpp"
  },
  {
   "function_name" : "u_getIntPropertyMaxValue",
   "linker_set_key" : "u_getIntPropertyMaxValue",
   "parameters" :
   [
    {
     "referenced_type" : "_ZTI9UProperty"
    }
   ],
   "return_type" : "_ZTIi",
   "source_file" : "external/icu/libicu/src/shim.cpp"
  },
  {
   "function_name" : "u_getIntPropertyMinValue",
   "linker_set_key" : "u_getIntPropertyMinValue",
   "parameters" :
   [
    {
     "referenced_type" : "_ZTI9UProperty"
    }
   ],
   "return_type" : "_ZTIi",
   "source_file" : "external/icu/libicu/src/shim.cpp"
  },
  {
   "function_name" : "u_getIntPropertyValue",
   "linker_set_key" : "u_getIntPropertyValue",
   "parameters" :
   [
    {
     "referenced_type" : "_ZTIi"
    },
    {
     "referenced_type" : "_ZTI9UProperty"
    }
   ],
   "return_type" : "_ZTIi",
   "source_file" : "external/icu/libicu/src/shim.cpp"
  },
  {
   "function_name" : "u_getNumericValue",
   "linker_set_key" : "u_getNumericValue",
   "parameters" :
   [
    {
     "referenced_type" : "_ZTIi"
    }
   ],
   "return_type" : "_ZTId",
   "source_file" : "external/icu/libicu/src/shim.cpp"
  },
  {
   "function_name" : "u_getPropertyEnum",
   "linker_set_key" : "u_getPropertyEnum",
   "parameters" :
   [
    {
     "referenced_type" : "_ZTIPKc"
    }
   ],
   "return_type" : "_ZTI9UProperty",
   "source_file" : "external/icu/libicu/src/shim.cpp"
  },
  {
   "function_name" : "u_getPropertyName",
   "linker_set_key" : "u_getPropertyName",
   "parameters" :
   [
    {
     "referenced_type" : "_ZTI9UProperty"
    },
    {
     "referenced_type" : "_ZTI19UPropertyNameChoice"
    }
   ],
   "return_type" : "_ZTIPKc",
   "source_file" : "external/icu/libicu/src/shim.cpp"
  },
  {
   "function_name" : "u_getPropertyValueEnum",
   "linker_set_key" : "u_getPropertyValueEnum",
   "parameters" :
   [
    {
     "referenced_type" : "_ZTI9UProperty"
    },
    {
     "referenced_type" : "_ZTIPKc"
    }
   ],
   "return_type" : "_ZTIi",
   "source_file" : "external/icu/libicu/src/shim.cpp"
  },
  {
   "function_name" : "u_getPropertyValueName",
   "linker_set_key" : "u_getPropertyValueName",
   "parameters" :
   [
    {
     "referenced_type" : "_ZTI9UProperty"
    },
    {
     "referenced_type" : "_ZTIi"
    },
    {
     "referenced_type" : "_ZTI19UPropertyNameChoice"
    }
   ],
   "return_type" : "_ZTIPKc",
   "source_file" : "external/icu/libicu/src/shim.cpp"
  },
  {
   "function_name" : "u_getUnicodeVersion",
   "linker_set_key" : "u_getUnicodeVersion",
   "parameters" :
   [
    {
     "referenced_type" : "_ZTIPh"
    }
   ],
   "return_type" : "_ZTIv",
   "source_file" : "external/icu/libicu/src/shim.cpp"
  },
  {
   "function_name" : "u_getVersion",
   "linker_set_key" : "u_getVersion",
   "parameters" :
   [
    {
     "referenced_type" : "_ZTIPh"
    }
   ],
   "return_type" : "_ZTIv",
   "source_file" : "external/icu/libicu/src/shim.cpp"
  },
  {
   "function_name" : "u_hasBinaryProperty",
   "linker_set_key" : "u_hasBinaryProperty",
   "parameters" :
   [
    {
     "referenced_type" : "_ZTIi"
    },
    {
     "referenced_type" : "_ZTI9UProperty"
    }
   ],
   "return_type" : "_ZTIa",
   "source_file" : "external/icu/libicu/src/shim.cpp"
  },
  {
   "function_name" : "u_isIDIgnorable",
   "linker_set_key" : "u_isIDIgnorable",
   "parameters" :
   [
    {
     "referenced_type" : "_ZTIi"
    }
   ],
   "return_type" : "_ZTIa",
   "source_file" : "external/icu/libicu/src/shim.cpp"
  },
  {
   "function_name" : "u_isIDPart",
   "linker_set_key" : "u_isIDPart",
   "parameters" :
   [
    {
     "referenced_type" : "_ZTIi"
    }
   ],
   "return_type" : "_ZTIa",
   "source_file" : "external/icu/libicu/src/shim.cpp"
  },
  {
   "function_name" : "u_isIDStart",
   "linker_set_key" : "u_isIDStart",
   "parameters" :
   [
    {
     "referenced_type" : "_ZTIi"
    }
   ],
   "return_type" : "_ZTIa",
   "source_file" : "external/icu/libicu/src/shim.cpp"
  },
  {
   "function_name" : "u_isISOControl",
   "linker_set_key" : "u_isISOControl",
   "parameters" :
   [
    {
     "referenced_type" : "_ZTIi"
    }
   ],
   "return_type" : "_ZTIa",
   "source_file" : "external/icu/libicu/src/shim.cpp"
  },
  {
   "function_name" : "u_isJavaIDPart",
   "linker_set_key" : "u_isJavaIDPart",
   "parameters" :
   [
    {
     "referenced_type" : "_ZTIi"
    }
   ],
   "return_type" : "_ZTIa",
   "source_file" : "external/icu/libicu/src/shim.cpp"
  },
  {
   "function_name" : "u_isJavaIDStart",
   "linker_set_key" : "u_isJavaIDStart",
   "parameters" :
   [
    {
     "referenced_type" : "_ZTIi"
    }
   ],
   "return_type" : "_ZTIa",
   "source_file" : "external/icu/libicu/src/shim.cpp"
  },
  {
   "function_name" : "u_isJavaSpaceChar",
   "linker_set_key" : "u_isJavaSpaceChar",
   "parameters" :
   [
    {
     "referenced_type" : "_ZTIi"
    }
   ],
   "return_type" : "_ZTIa",
   "source_file" : "external/icu/libicu/src/shim.cpp"
  },
  {
   "function_name" : "u_isMirrored",
   "linker_set_key" : "u_isMirrored",
   "parameters" :
   [
    {
     "referenced_type" : "_ZTIi"
    }
   ],
   "return_type" : "_ZTIa",
   "source_file" : "external/icu/libicu/src/shim.cpp"
  },
  {
   "function_name" : "u_isUAlphabetic",
   "linker_set_key" : "u_isUAlphabetic",
   "parameters" :
   [
    {
     "referenced_type" : "_ZTIi"
    }
   ],
   "return_type" : "_ZTIa",
   "source_file" : "external/icu/libicu/src/shim.cpp"
  },
  {
   "function_name" : "u_isULowercase",
   "linker_set_key" : "u_isULowercase",
   "parameters" :
   [
    {
     "referenced_type" : "_ZTIi"
    }
   ],
   "return_type" : "_ZTIa",
   "source_file" : "external/icu/libicu/src/shim.cpp"
  },
  {
   "function_name" : "u_isUUppercase",
   "linker_set_key" : "u_isUUppercase",
   "parameters" :
   [
    {
     "referenced_type" : "_ZTIi"
    }
   ],
   "return_type" : "_ZTIa",
   "source_file" : "external/icu/libicu/src/shim.cpp"
  },
  {
   "function_name" : "u_isUWhiteSpace",
   "linker_set_key" : "u_isUWhiteSpace",
   "parameters" :
   [
    {
     "referenced_type" : "_ZTIi"
    }
   ],
   "return_type" : "_ZTIa",
   "source_file" : "external/icu/libicu/src/shim.cpp"
  },
  {
   "function_name" : "u_isWhitespace",
   "linker_set_key" : "u_isWhitespace",
   "parameters" :
   [
    {
     "referenced_type" : "_ZTIi"
    }
   ],
   "return_type" : "_ZTIa",
   "source_file" : "external/icu/libicu/src/shim.cpp"
  },
  {
   "function_name" : "u_isalnum",
   "linker_set_key" : "u_isalnum",
   "parameters" :
   [
    {
     "referenced_type" : "_ZTIi"
    }
   ],
   "return_type" : "_ZTIa",
   "source_file" : "external/icu/libicu/src/shim.cpp"
  },
  {
   "function_name" : "u_isalpha",
   "linker_set_key" : "u_isalpha",
   "parameters" :
   [
    {
     "referenced_type" : "_ZTIi"
    }
   ],
   "return_type" : "_ZTIa",
   "source_file" : "external/icu/libicu/src/shim.cpp"
  },
  {
   "function_name" : "u_isbase",
   "linker_set_key" : "u_isbase",
   "parameters" :
   [
    {
     "referenced_type" : "_ZTIi"
    }
   ],
   "return_type" : "_ZTIa",
   "source_file" : "external/icu/libicu/src/shim.cpp"
  },
  {
   "function_name" : "u_isblank",
   "linker_set_key" : "u_isblank",
   "parameters" :
   [
    {
     "referenced_type" : "_ZTIi"
    }
   ],
   "return_type" : "_ZTIa",
   "source_file" : "external/icu/libicu/src/shim.cpp"
  },
  {
   "function_name" : "u_iscntrl",
   "linker_set_key" : "u_iscntrl",
   "parameters" :
   [
    {
     "referenced_type" : "_ZTIi"
    }
   ],
   "return_type" : "_ZTIa",
   "source_file" : "external/icu/libicu/src/shim.cpp"
  },
  {
   "function_name" : "u_isdefined",
   "linker_set_key" : "u_isdefined",
   "parameters" :
   [
    {
     "referenced_type" : "_ZTIi"
    }
   ],
   "return_type" : "_ZTIa",
   "source_file" : "external/icu/libicu/src/shim.cpp"
  },
  {
   "function_name" : "u_isdigit",
   "linker_set_key" : "u_isdigit",
   "parameters" :
   [
    {
     "referenced_type" : "_ZTIi"
    }
   ],
   "return_type" : "_ZTIa",
   "source_file" : "external/icu/libicu/src/shim.cpp"
  },
  {
   "function_name" : "u_isgraph",
   "linker_set_key" : "u_isgraph",
   "parameters" :
   [
    {
     "referenced_type" : "_ZTIi"
    }
   ],
   "return_type" : "_ZTIa",
   "source_file" : "external/icu/libicu/src/shim.cpp"
  },
  {
   "function_name" : "u_islower",
   "linker_set_key" : "u_islower",
   "parameters" :
   [
    {
     "referenced_type" : "_ZTIi"
    }
   ],
   "return_type" : "_ZTIa",
   "source_file" : "external/icu/libicu/src/shim.cpp"
  },
  {
   "function_name" : "u_isprint",
   "linker_set_key" : "u_isprint",
   "parameters" :
   [
    {
     "referenced_type" : "_ZTIi"
    }
   ],
   "return_type" : "_ZTIa",
   "source_file" : "external/icu/libicu/src/shim.cpp"
  },
  {
   "function_name" : "u_ispunct",
   "linker_set_key" : "u_ispunct",
   "parameters" :
   [
    {
     "referenced_type" : "_ZTIi"
    }
   ],
   "return_type" : "_ZTIa",
   "source_file" : "external/icu/libicu/src/shim.cpp"
  },
  {
   "function_name" : "u_isspace",
   "linker_set_key" : "u_isspace",
   "parameters" :
   [
    {
     "referenced_type" : "_ZTIi"
    }
   ],
   "return_type" : "_ZTIa",
   "source_file" : "external/icu/libicu/src/shim.cpp"
  },
  {
   "function_name" : "u_istitle",
   "linker_set_key" : "u_istitle",
   "parameters" :
   [
    {
     "referenced_type" : "_ZTIi"
    }
   ],
   "return_type" : "_ZTIa",
   "source_file" : "external/icu/libicu/src/shim.cpp"
  },
  {
   "function_name" : "u_isupper",
   "linker_set_key" : "u_isupper",
   "parameters" :
   [
    {
     "referenced_type" : "_ZTIi"
    }
   ],
   "return_type" : "_ZTIa",
   "source_file" : "external/icu/libicu/src/shim.cpp"
  },
  {
   "function_name" : "u_isxdigit",
   "linker_set_key" : "u_isxdigit",
   "parameters" :
   [
    {
     "referenced_type" : "_ZTIi"
    }
   ],
   "return_type" : "_ZTIa",
   "source_file" : "external/icu/libicu/src/shim.cpp"
  },
  {
   "function_name" : "u_memcasecmp",
   "linker_set_key" : "u_memcasecmp",
   "parameters" :
   [
    {
     "referenced_type" : "_ZTIPKDs"
    },
    {
     "referenced_type" : "_ZTIPKDs"
    },
    {
     "referenced_type" : "_ZTIi"
    },
    {
     "referenced_type" : "_ZTIj"
    }
   ],
   "return_type" : "_ZTIi",
   "source_file" : "external/icu/libicu/src/shim.cpp"
  },
  {
   "function_name" : "u_memchr",
   "linker_set_key" : "u_memchr",
   "parameters" :
   [
    {
     "referenced_type" : "_ZTIPKDs"
    },
    {
     "referenced_type" : "_ZTIDs"
    },
    {
     "referenced_type" : "_ZTIi"
    }
   ],
   "return_type" : "_ZTIPDs",
   "source_file" : "external/icu/libicu/src/shim.cpp"
  },
  {
   "function_name" : "u_memchr32",
   "linker_set_key" : "u_memchr32",
   "parameters" :
   [
    {
     "referenced_type" : "_ZTIPKDs"
    },
    {
     "referenced_type" : "_ZTIi"
    },
    {
     "referenced_type" : "_ZTIi"
    }
   ],
   "return_type" : "_ZTIPDs",
   "source_file" : "external/icu/libicu/src/shim.cpp"
  },
  {
   "function_name" : "u_memcmp",
   "linker_set_key" : "u_memcmp",
   "parameters" :
   [
    {
     "referenced_type" : "_ZTIPKDs"
    },
    {
     "referenced_type" : "_ZTIPKDs"
    },
    {
     "referenced_type" : "_ZTIi"
    }
   ],
   "return_type" : "_ZTIi",
   "source_file" : "external/icu/libicu/src/shim.cpp"
  },
  {
   "function_name" : "u_memcmpCodePointOrder",
   "linker_set_key" : "u_memcmpCodePointOrder",
   "parameters" :
   [
    {
     "referenced_type" : "_ZTIPKDs"
    },
    {
     "referenced_type" : "_ZTIPKDs"
    },
    {
     "referenced_type" : "_ZTIi"
    }
   ],
   "return_type" : "_ZTIi",
   "source_file" : "external/icu/libicu/src/shim.cpp"
  },
  {
   "function_name" : "u_memcpy",
   "linker_set_key" : "u_memcpy",
   "parameters" :
   [
    {
     "referenced_type" : "_ZTIPDs"
    },
    {
     "referenced_type" : "_ZTIPKDs"
    },
    {
     "referenced_type" : "_ZTIi"
    }
   ],
   "return_type" : "_ZTIPDs",
   "source_file" : "external/icu/libicu/src/shim.cpp"
  },
  {
   "function_name" : "u_memmove",
   "linker_set_key" : "u_memmove",
   "parameters" :
   [
    {
     "referenced_type" : "_ZTIPDs"
    },
    {
     "referenced_type" : "_ZTIPKDs"
    },
    {
     "referenced_type" : "_ZTIi"
    }
   ],
   "return_type" : "_ZTIPDs",
   "source_file" : "external/icu/libicu/src/shim.cpp"
  },
  {
   "function_name" : "u_memrchr",
   "linker_set_key" : "u_memrchr",
   "parameters" :
   [
    {
     "referenced_type" : "_ZTIPKDs"
    },
    {
     "referenced_type" : "_ZTIDs"
    },
    {
     "referenced_type" : "_ZTIi"
    }
   ],
   "return_type" : "_ZTIPDs",
   "source_file" : "external/icu/libicu/src/shim.cpp"
  },
  {
   "function_name" : "u_memrchr32",
   "linker_set_key" : "u_memrchr32",
   "parameters" :
   [
    {
     "referenced_type" : "_ZTIPKDs"
    },
    {
     "referenced_type" : "_ZTIi"
    },
    {
     "referenced_type" : "_ZTIi"
    }
   ],
   "return_type" : "_ZTIPDs",
   "source_file" : "external/icu/libicu/src/shim.cpp"
  },
  {
   "function_name" : "u_memset",
   "linker_set_key" : "u_memset",
   "parameters" :
   [
    {
     "referenced_type" : "_ZTIPDs"
    },
    {
     "referenced_type" : "_ZTIDs"
    },
    {
     "referenced_type" : "_ZTIi"
    }
   ],
   "return_type" : "_ZTIPDs",
   "source_file" : "external/icu/libicu/src/shim.cpp"
  },
  {
   "function_name" : "u_strCaseCompare",
   "linker_set_key" : "u_strCaseCompare",
   "parameters" :
   [
    {
     "referenced_type" : "_ZTIPKDs"
    },
    {
     "referenced_type" : "_ZTIi"
    },
    {
     "referenced_type" : "_ZTIPKDs"
    },
    {
     "referenced_type" : "_ZTIi"
    },
    {
     "referenced_type" : "_ZTIj"
    },
    {
     "referenced_type" : "_ZTIP10UErrorCode"
    }
   ],
   "return_type" : "_ZTIi",
   "source_file" : "external/icu/libicu/src/shim.cpp"
  },
  {
   "function_name" : "u_strCompare",
   "linker_set_key" : "u_strCompare",
   "parameters" :
   [
    {
     "referenced_type" : "_ZTIPKDs"
    },
    {
     "referenced_type" : "_ZTIi"
    },
    {
     "referenced_type" : "_ZTIPKDs"
    },
    {
     "referenced_type" : "_ZTIi"
    },
    {
     "referenced_type" : "_ZTIa"
    }
   ],
   "return_type" : "_ZTIi",
   "source_file" : "external/icu/libicu/src/shim.cpp"
  },
  {
   "function_name" : "u_strFindFirst",
   "linker_set_key" : "u_strFindFirst",
   "parameters" :
   [
    {
     "referenced_type" : "_ZTIPKDs"
    },
    {
     "referenced_type" : "_ZTIi"
    },
    {
     "referenced_type" : "_ZTIPKDs"
    },
    {
     "referenced_type" : "_ZTIi"
    }
   ],
   "return_type" : "_ZTIPDs",
   "source_file" : "external/icu/libicu/src/shim.cpp"
  },
  {
   "function_name" : "u_strFindLast",
   "linker_set_key" : "u_strFindLast",
   "parameters" :
   [
    {
     "referenced_type" : "_ZTIPKDs"
    },
    {
     "referenced_type" : "_ZTIi"
    },
    {
     "referenced_type" : "_ZTIPKDs"
    },
    {
     "referenced_type" : "_ZTIi"
    }
   ],
   "return_type" : "_ZTIPDs",
   "source_file" : "external/icu/libicu/src/shim.cpp"
  },
  {
   "function_name" : "u_strFoldCase",
   "linker_set_key" : "u_strFoldCase",
   "parameters" :
   [
    {
     "referenced_type" : "_ZTIPDs"
    },
    {
     "referenced_type" : "_ZTIi"
    },
    {
     "referenced_type" : "_ZTIPKDs"
    },
    {
     "referenced_type" : "_ZTIi"
    },
    {
     "referenced_type" : "_ZTIj"
    },
    {
     "referenced_type" : "_ZTIP10UErrorCode"
    }
   ],
   "return_type" : "_ZTIi",
   "source_file" : "external/icu/libicu/src/shim.cpp"
  },
  {
   "function_name" : "u_strFromUTF32",
   "linker_set_key" : "u_strFromUTF32",
   "parameters" :
   [
    {
     "referenced_type" : "_ZTIPDs"
    },
    {
     "referenced_type" : "_ZTIi"
    },
    {
     "referenced_type" : "_ZTIPi"
    },
    {
     "referenced_type" : "_ZTIPKi"
    },
    {
     "referenced_type" : "_ZTIi"
    },
    {
     "referenced_type" : "_ZTIP10UErrorCode"
    }
   ],
   "return_type" : "_ZTIPDs",
   "source_file" : "external/icu/libicu/src/shim.cpp"
  },
  {
   "function_name" : "u_strFromUTF32WithSub",
   "linker_set_key" : "u_strFromUTF32WithSub",
   "parameters" :
   [
    {
     "referenced_type" : "_ZTIPDs"
    },
    {
     "referenced_type" : "_ZTIi"
    },
    {
     "referenced_type" : "_ZTIPi"
    },
    {
     "referenced_type" : "_ZTIPKi"
    },
    {
     "referenced_type" : "_ZTIi"
    },
    {
     "referenced_type" : "_ZTIi"
    },
    {
     "referenced_type" : "_ZTIPi"
    },
    {
     "referenced_type" : "_ZTIP10UErrorCode"
    }
   ],
   "return_type" : "_ZTIPDs",
   "source_file" : "external/icu/libicu/src/shim.cpp"
  },
  {
   "function_name" : "u_strFromUTF8",
   "linker_set_key" : "u_strFromUTF8",
   "parameters" :
   [
    {
     "referenced_type" : "_ZTIPDs"
    },
    {
     "referenced_type" : "_ZTIi"
    },
    {
     "referenced_type" : "_ZTIPi"
    },
    {
     "referenced_type" : "_ZTIPKc"
    },
    {
     "referenced_type" : "_ZTIi"
    },
    {
     "referenced_type" : "_ZTIP10UErrorCode"
    }
   ],
   "return_type" : "_ZTIPDs",
   "source_file" : "external/icu/libicu/src/shim.cpp"
  },
  {
   "function_name" : "u_strFromUTF8Lenient",
   "linker_set_key" : "u_strFromUTF8Lenient",
   "parameters" :
   [
    {
     "referenced_type" : "_ZTIPDs"
    },
    {
     "referenced_type" : "_ZTIi"
    },
    {
     "referenced_type" : "_ZTIPi"
    },
    {
     "referenced_type" : "_ZTIPKc"
    },
    {
     "referenced_type" : "_ZTIi"
    },
    {
     "referenced_type" : "_ZTIP10UErrorCode"
    }
   ],
   "return_type" : "_ZTIPDs",
   "source_file" : "external/icu/libicu/src/shim.cpp"
  },
  {
   "function_name" : "u_strFromUTF8WithSub",
   "linker_set_key" : "u_strFromUTF8WithSub",
   "parameters" :
   [
    {
     "referenced_type" : "_ZTIPDs"
    },
    {
     "referenced_type" : "_ZTIi"
    },
    {
     "referenced_type" : "_ZTIPi"
    },
    {
     "referenced_type" : "_ZTIPKc"
    },
    {
     "referenced_type" : "_ZTIi"
    },
    {
     "referenced_type" : "_ZTIi"
    },
    {
     "referenced_type" : "_ZTIPi"
    },
    {
     "referenced_type" : "_ZTIP10UErrorCode"
    }
   ],
   "return_type" : "_ZTIPDs",
   "source_file" : "external/icu/libicu/src/shim.cpp"
  },
  {
   "function_name" : "u_strHasMoreChar32Than",
   "linker_set_key" : "u_strHasMoreChar32Than",
   "parameters" :
   [
    {
     "referenced_type" : "_ZTIPKDs"
    },
    {
     "referenced_type" : "_ZTIi"
    },
    {
     "referenced_type" : "_ZTIi"
    }
   ],
   "return_type" : "_ZTIa",
   "source_file" : "external/icu/libicu/src/shim.cpp"
  },
  {
   "function_name" : "u_strToLower",
   "linker_set_key" : "u_strToLower",
   "parameters" :
   [
    {
     "referenced_type" : "_ZTIPDs"
    },
    {
     "referenced_type" : "_ZTIi"
    },
    {
     "referenced_type" : "_ZTIPKDs"
    },
    {
     "referenced_type" : "_ZTIi"
    },
    {
     "referenced_type" : "_ZTIPKc"
    },
    {
     "referenced_type" : "_ZTIP10UErrorCode"
    }
   ],
   "return_type" : "_ZTIi",
   "source_file" : "external/icu/libicu/src/shim.cpp"
  },
  {
   "function_name" : "u_strToTitle",
   "linker_set_key" : "u_strToTitle",
   "parameters" :
   [
    {
     "referenced_type" : "_ZTIPDs"
    },
    {
     "referenced_type" : "_ZTIi"
    },
    {
     "referenced_type" : "_ZTIPKDs"
    },
    {
     "referenced_type" : "_ZTIi"
    },
    {
     "referenced_type" : "_ZTIP14UBreakIterator"
    },
    {
     "referenced_type" : "_ZTIPKc"
    },
    {
     "referenced_type" : "_ZTIP10UErrorCode"
    }
   ],
   "return_type" : "_ZTIi",
   "source_file" : "external/icu/libicu/src/shim.cpp"
  },
  {
   "function_name" : "u_strToUTF32",
   "linker_set_key" : "u_strToUTF32",
   "parameters" :
   [
    {
     "referenced_type" : "_ZTIPi"
    },
    {
     "referenced_type" : "_ZTIi"
    },
    {
     "referenced_type" : "_ZTIPi"
    },
    {
     "referenced_type" : "_ZTIPKDs"
    },
    {
     "referenced_type" : "_ZTIi"
    },
    {
     "referenced_type" : "_ZTIP10UErrorCode"
    }
   ],
   "return_type" : "_ZTIPi",
   "source_file" : "external/icu/libicu/src/shim.cpp"
  },
  {
   "function_name" : "u_strToUTF32WithSub",
   "linker_set_key" : "u_strToUTF32WithSub",
   "parameters" :
   [
    {
     "referenced_type" : "_ZTIPi"
    },
    {
     "referenced_type" : "_ZTIi"
    },
    {
     "referenced_type" : "_ZTIPi"
    },
    {
     "referenced_type" : "_ZTIPKDs"
    },
    {
     "referenced_type" : "_ZTIi"
    },
    {
     "referenced_type" : "_ZTIi"
    },
    {
     "referenced_type" : "_ZTIPi"
    },
    {
     "referenced_type" : "_ZTIP10UErrorCode"
    }
   ],
   "return_type" : "_ZTIPi",
   "source_file" : "external/icu/libicu/src/shim.cpp"
  },
  {
   "function_name" : "u_strToUTF8",
   "linker_set_key" : "u_strToUTF8",
   "parameters" :
   [
    {
     "referenced_type" : "_ZTIPc"
    },
    {
     "referenced_type" : "_ZTIi"
    },
    {
     "referenced_type" : "_ZTIPi"
    },
    {
     "referenced_type" : "_ZTIPKDs"
    },
    {
     "referenced_type" : "_ZTIi"
    },
    {
     "referenced_type" : "_ZTIP10UErrorCode"
    }
   ],
   "return_type" : "_ZTIPc",
   "source_file" : "external/icu/libicu/src/shim.cpp"
  },
  {
   "function_name" : "u_strToUTF8WithSub",
   "linker_set_key" : "u_strToUTF8WithSub",
   "parameters" :
   [
    {
     "referenced_type" : "_ZTIPc"
    },
    {
     "referenced_type" : "_ZTIi"
    },
    {
     "referenced_type" : "_ZTIPi"
    },
    {
     "referenced_type" : "_ZTIPKDs"
    },
    {
     "referenced_type" : "_ZTIi"
    },
    {
     "referenced_type" : "_ZTIi"
    },
    {
     "referenced_type" : "_ZTIPi"
    },
    {
     "referenced_type" : "_ZTIP10UErrorCode"
    }
   ],
   "return_type" : "_ZTIPc",
   "source_file" : "external/icu/libicu/src/shim.cpp"
  },
  {
   "function_name" : "u_strToUpper",
   "linker_set_key" : "u_strToUpper",
   "parameters" :
   [
    {
     "referenced_type" : "_ZTIPDs"
    },
    {
     "referenced_type" : "_ZTIi"
    },
    {
     "referenced_type" : "_ZTIPKDs"
    },
    {
     "referenced_type" : "_ZTIi"
    },
    {
     "referenced_type" : "_ZTIPKc"
    },
    {
     "referenced_type" : "_ZTIP10UErrorCode"
    }
   ],
   "return_type" : "_ZTIi",
   "source_file" : "external/icu/libicu/src/shim.cpp"
  },
  {
   "function_name" : "u_strcasecmp",
   "linker_set_key" : "u_strcasecmp",
   "parameters" :
   [
    {
     "referenced_type" : "_ZTIPKDs"
    },
    {
     "referenced_type" : "_ZTIPKDs"
    },
    {
     "referenced_type" : "_ZTIj"
    }
   ],
   "return_type" : "_ZTIi",
   "source_file" : "external/icu/libicu/src/shim.cpp"
  },
  {
   "function_name" : "u_strcat",
   "linker_set_key" : "u_strcat",
   "parameters" :
   [
    {
     "referenced_type" : "_ZTIPDs"
    },
    {
     "referenced_type" : "_ZTIPKDs"
    }
   ],
   "return_type" : "_ZTIPDs",
   "source_file" : "external/icu/libicu/src/shim.cpp"
  },
  {
   "function_name" : "u_strchr",
   "linker_set_key" : "u_strchr",
   "parameters" :
   [
    {
     "referenced_type" : "_ZTIPKDs"
    },
    {
     "referenced_type" : "_ZTIDs"
    }
   ],
   "return_type" : "_ZTIPDs",
   "source_file" : "external/icu/libicu/src/shim.cpp"
  },
  {
   "function_name" : "u_strchr32",
   "linker_set_key" : "u_strchr32",
   "parameters" :
   [
    {
     "referenced_type" : "_ZTIPKDs"
    },
    {
     "referenced_type" : "_ZTIi"
    }
   ],
   "return_type" : "_ZTIPDs",
   "source_file" : "external/icu/libicu/src/shim.cpp"
  },
  {
   "function_name" : "u_strcmp",
   "linker_set_key" : "u_strcmp",
   "parameters" :
   [
    {
     "referenced_type" : "_ZTIPKDs"
    },
    {
     "referenced_type" : "_ZTIPKDs"
    }
   ],
   "return_type" : "_ZTIi",
   "source_file" : "external/icu/libicu/src/shim.cpp"
  },
  {
   "function_name" : "u_strcmpCodePointOrder",
   "linker_set_key" : "u_strcmpCodePointOrder",
   "parameters" :
   [
    {
     "referenced_type" : "_ZTIPKDs"
    },
    {
     "referenced_type" : "_ZTIPKDs"
    }
   ],
   "return_type" : "_ZTIi",
   "source_file" : "external/icu/libicu/src/shim.cpp"
  },
  {
   "function_name" : "u_strcpy",
   "linker_set_key" : "u_strcpy",
   "parameters" :
   [
    {
     "referenced_type" : "_ZTIPDs"
    },
    {
     "referenced_type" : "_ZTIPKDs"
    }
   ],
   "return_type" : "_ZTIPDs",
   "source_file" : "external/icu/libicu/src/shim.cpp"
  },
  {
   "function_name" : "u_strcspn",
   "linker_set_key" : "u_strcspn",
   "parameters" :
   [
    {
     "referenced_type" : "_ZTIPKDs"
    },
    {
     "referenced_type" : "_ZTIPKDs"
    }
   ],
   "return_type" : "_ZTIi",
   "source_file" : "external/icu/libicu/src/shim.cpp"
  },
  {
   "function_name" : "u_strlen",
   "linker_set_key" : "u_strlen",
   "parameters" :
   [
    {
     "referenced_type" : "_ZTIPKDs"
    }
   ],
   "return_type" : "_ZTIi",
   "source_file" : "external/icu/libicu/src/shim.cpp"
  },
  {
   "function_name" : "u_strncasecmp",
   "linker_set_key" : "u_strncasecmp",
   "parameters" :
   [
    {
     "referenced_type" : "_ZTIPKDs"
    },
    {
     "referenced_type" : "_ZTIPKDs"
    },
    {
     "referenced_type" : "_ZTIi"
    },
    {
     "referenced_type" : "_ZTIj"
    }
   ],
   "return_type" : "_ZTIi",
   "source_file" : "external/icu/libicu/src/shim.cpp"
  },
  {
   "function_name" : "u_strncat",
   "linker_set_key" : "u_strncat",
   "parameters" :
   [
    {
     "referenced_type" : "_ZTIPDs"
    },
    {
     "referenced_type" : "_ZTIPKDs"
    },
    {
     "referenced_type" : "_ZTIi"
    }
   ],
   "return_type" : "_ZTIPDs",
   "source_file" : "external/icu/libicu/src/shim.cpp"
  },
  {
   "function_name" : "u_strncmp",
   "linker_set_key" : "u_strncmp",
   "parameters" :
   [
    {
     "referenced_type" : "_ZTIPKDs"
    },
    {
     "referenced_type" : "_ZTIPKDs"
    },
    {
     "referenced_type" : "_ZTIi"
    }
   ],
   "return_type" : "_ZTIi",
   "source_file" : "external/icu/libicu/src/shim.cpp"
  },
  {
   "function_name" : "u_strncmpCodePointOrder",
   "linker_set_key" : "u_strncmpCodePointOrder",
   "parameters" :
   [
    {
     "referenced_type" : "_ZTIPKDs"
    },
    {
     "referenced_type" : "_ZTIPKDs"
    },
    {
     "referenced_type" : "_ZTIi"
    }
   ],
   "return_type" : "_ZTIi",
   "source_file" : "external/icu/libicu/src/shim.cpp"
  },
  {
   "function_name" : "u_strncpy",
   "linker_set_key" : "u_strncpy",
   "parameters" :
   [
    {
     "referenced_type" : "_ZTIPDs"
    },
    {
     "referenced_type" : "_ZTIPKDs"
    },
    {
     "referenced_type" : "_ZTIi"
    }
   ],
   "return_type" : "_ZTIPDs",
   "source_file" : "external/icu/libicu/src/shim.cpp"
  },
  {
   "function_name" : "u_strpbrk",
   "linker_set_key" : "u_strpbrk",
   "parameters" :
   [
    {
     "referenced_type" : "_ZTIPKDs"
    },
    {
     "referenced_type" : "_ZTIPKDs"
    }
   ],
   "return_type" : "_ZTIPDs",
   "source_file" : "external/icu/libicu/src/shim.cpp"
  },
  {
   "function_name" : "u_strrchr",
   "linker_set_key" : "u_strrchr",
   "parameters" :
   [
    {
     "referenced_type" : "_ZTIPKDs"
    },
    {
     "referenced_type" : "_ZTIDs"
    }
   ],
   "return_type" : "_ZTIPDs",
   "source_file" : "external/icu/libicu/src/shim.cpp"
  },
  {
   "function_name" : "u_strrchr32",
   "linker_set_key" : "u_strrchr32",
   "parameters" :
   [
    {
     "referenced_type" : "_ZTIPKDs"
    },
    {
     "referenced_type" : "_ZTIi"
    }
   ],
   "return_type" : "_ZTIPDs",
   "source_file" : "external/icu/libicu/src/shim.cpp"
  },
  {
   "function_name" : "u_strrstr",
   "linker_set_key" : "u_strrstr",
   "parameters" :
   [
    {
     "referenced_type" : "_ZTIPKDs"
    },
    {
     "referenced_type" : "_ZTIPKDs"
    }
   ],
   "return_type" : "_ZTIPDs",
   "source_file" : "external/icu/libicu/src/shim.cpp"
  },
  {
   "function_name" : "u_strspn",
   "linker_set_key" : "u_strspn",
   "parameters" :
   [
    {
     "referenced_type" : "_ZTIPKDs"
    },
    {
     "referenced_type" : "_ZTIPKDs"
    }
   ],
   "return_type" : "_ZTIi",
   "source_file" : "external/icu/libicu/src/shim.cpp"
  },
  {
   "function_name" : "u_strstr",
   "linker_set_key" : "u_strstr",
   "parameters" :
   [
    {
     "referenced_type" : "_ZTIPKDs"
    },
    {
     "referenced_type" : "_ZTIPKDs"
    }
   ],
   "return_type" : "_ZTIPDs",
   "source_file" : "external/icu/libicu/src/shim.cpp"
  },
  {
   "function_name" : "u_strtok_r",
   "linker_set_key" : "u_strtok_r",
   "parameters" :
   [
    {
     "referenced_type" : "_ZTIPDs"
    },
    {
     "referenced_type" : "_ZTIPKDs"
    },
    {
     "referenced_type" : "_ZTIPPDs"
    }
   ],
   "return_type" : "_ZTIPDs",
   "source_file" : "external/icu/libicu/src/shim.cpp"
  },
  {
   "function_name" : "u_tolower",
   "linker_set_key" : "u_tolower",
   "parameters" :
   [
    {
     "referenced_type" : "_ZTIi"
    }
   ],
   "return_type" : "_ZTIi",
   "source_file" : "external/icu/libicu/src/shim.cpp"
  },
  {
   "function_name" : "u_totitle",
   "linker_set_key" : "u_totitle",
   "parameters" :
   [
    {
     "referenced_type" : "_ZTIi"
    }
   ],
   "return_type" : "_ZTIi",
   "source_file" : "external/icu/libicu/src/shim.cpp"
  },
  {
   "function_name" : "u_toupper",
   "linker_set_key" : "u_toupper",
   "parameters" :
   [
    {
     "referenced_type" : "_ZTIi"
    }
   ],
   "return_type" : "_ZTIi",
   "source_file" : "external/icu/libicu/src/shim.cpp"
  },
  {
   "function_name" : "u_versionToString",
   "linker_set_key" : "u_versionToString",
   "parameters" :
   [
    {
     "referenced_type" : "_ZTIPKh"
    },
    {
     "referenced_type" : "_ZTIPc"
    }
   ],
   "return_type" : "_ZTIv",
   "source_file" : "external/icu/libicu/src/shim.cpp"
  },
  {
   "function_name" : "ubidi_close",
   "linker_set_key" : "ubidi_close",
   "parameters" :
   [
    {
     "referenced_type" : "_ZTIP5UBiDi"
    }
   ],
   "return_type" : "_ZTIv",
   "source_file" : "external/icu/libicu/src/shim.cpp"
  },
  {
   "function_name" : "ubidi_countParagraphs",
   "linker_set_key" : "ubidi_countParagraphs",
   "parameters" :
   [
    {
     "referenced_type" : "_ZTIP5UBiDi"
    }
   ],
   "return_type" : "_ZTIi",
   "source_file" : "external/icu/libicu/src/shim.cpp"
  },
  {
   "function_name" : "ubidi_countRuns",
   "linker_set_key" : "ubidi_countRuns",
   "parameters" :
   [
    {
     "referenced_type" : "_ZTIP5UBiDi"
    },
    {
     "referenced_type" : "_ZTIP10UErrorCode"
    }
   ],
   "return_type" : "_ZTIi",
   "source_file" : "external/icu/libicu/src/shim.cpp"
  },
  {
   "function_name" : "ubidi_getBaseDirection",
   "linker_set_key" : "ubidi_getBaseDirection",
   "parameters" :
   [
    {
     "referenced_type" : "_ZTIPKDs"
    },
    {
     "referenced_type" : "_ZTIi"
    }
   ],
   "return_type" : "_ZTI14UBiDiDirection",
   "source_file" : "external/icu/libicu/src/shim.cpp"
  },
  {
   "function_name" : "ubidi_getClassCallback",
   "linker_set_key" : "ubidi_getClassCallback",
   "parameters" :
   [
    {
     "referenced_type" : "_ZTIP5UBiDi"
    },
    {
     "referenced_type" : "_ZTIPPF14UCharDirectionPKviE"
    },
    {
     "referenced_type" : "_ZTIPPKv"
    }
   ],
   "return_type" : "_ZTIv",
   "source_file" : "external/icu/libicu/src/shim.cpp"
  },
  {
   "function_name" : "ubidi_getCustomizedClass",
   "linker_set_key" : "ubidi_getCustomizedClass",
   "parameters" :
   [
    {
     "referenced_type" : "_ZTIP5UBiDi"
    },
    {
     "referenced_type" : "_ZTIi"
    }
   ],
   "return_type" : "_ZTI14UCharDirection",
   "source_file" : "external/icu/libicu/src/shim.cpp"
  },
  {
   "function_name" : "ubidi_getDirection",
   "linker_set_key" : "ubidi_getDirection",
   "parameters" :
   [
    {
     "referenced_type" : "_ZTIPK5UBiDi"
    }
   ],
   "return_type" : "_ZTI14UBiDiDirection",
   "source_file" : "external/icu/libicu/src/shim.cpp"
  },
  {
   "function_name" : "ubidi_getLength",
   "linker_set_key" : "ubidi_getLength",
   "parameters" :
   [
    {
     "referenced_type" : "_ZTIPK5UBiDi"
    }
   ],
   "return_type" : "_ZTIi",
   "source_file" : "external/icu/libicu/src/shim.cpp"
  },
  {
   "function_name" : "ubidi_getLevelAt",
   "linker_set_key" : "ubidi_getLevelAt",
   "parameters" :
   [
    {
     "referenced_type" : "_ZTIPK5UBiDi"
    },
    {
     "referenced_type" : "_ZTIi"
    }
   ],
   "return_type" : "_ZTIh",
   "source_file" : "external/icu/libicu/src/shim.cpp"
  },
  {
   "function_name" : "ubidi_getLevels",
   "linker_set_key" : "ubidi_getLevels",
   "parameters" :
   [
    {
     "referenced_type" : "_ZTIP5UBiDi"
    },
    {
     "referenced_type" : "_ZTIP10UErrorCode"
    }
   ],
   "return_type" : "_ZTIPKh",
   "source_file" : "external/icu/libicu/src/shim.cpp"
  },
  {
   "function_name" : "ubidi_getLogicalIndex",
   "linker_set_key" : "ubidi_getLogicalIndex",
   "parameters" :
   [
    {
     "referenced_type" : "_ZTIP5UBiDi"
    },
    {
     "referenced_type" : "_ZTIi"
    },
    {
     "referenced_type" : "_ZTIP10UErrorCode"
    }
   ],
   "return_type" : "_ZTIi",
   "source_file" : "external/icu/libicu/src/shim.cpp"
  },
  {
   "function_name" : "ubidi_getLogicalMap",
   "linker_set_key" : "ubidi_getLogicalMap",
   "parameters" :
   [
    {
     "referenced_type" : "_ZTIP5UBiDi"
    },
    {
     "referenced_type" : "_ZTIPi"
    },
    {
     "referenced_type" : "_ZTIP10UErrorCode"
    }
   ],
   "return_type" : "_ZTIv",
   "source_file" : "external/icu/libicu/src/shim.cpp"
  },
  {
   "function_name" : "ubidi_getLogicalRun",
   "linker_set_key" : "ubidi_getLogicalRun",
   "parameters" :
   [
    {
     "referenced_type" : "_ZTIPK5UBiDi"
    },
    {
     "referenced_type" : "_ZTIi"
    },
    {
     "referenced_type" : "_ZTIPi"
    },
    {
     "referenced_type" : "_ZTIPh"
    }
   ],
   "return_type" : "_ZTIv",
   "source_file" : "external/icu/libicu/src/shim.cpp"
  },
  {
   "function_name" : "ubidi_getParaLevel",
   "linker_set_key" : "ubidi_getParaLevel",
   "parameters" :
   [
    {
     "referenced_type" : "_ZTIPK5UBiDi"
    }
   ],
   "return_type" : "_ZTIh",
   "source_file" : "external/icu/libicu/src/shim.cpp"
  },
  {
   "function_name" : "ubidi_getParagraph",
   "linker_set_key" : "ubidi_getParagraph",
   "parameters" :
   [
    {
     "referenced_type" : "_ZTIPK5UBiDi"
    },
    {
     "referenced_type" : "_ZTIi"
    },
    {
     "referenced_type" : "_ZTIPi"
    },
    {
     "referenced_type" : "_ZTIPi"
    },
    {
     "referenced_type" : "_ZTIPh"
    },
    {
     "referenced_type" : "_ZTIP10UErrorCode"
    }
   ],
   "return_type" : "_ZTIi",
   "source_file" : "external/icu/libicu/src/shim.cpp"
  },
  {
   "function_name" : "ubidi_getParagraphByIndex",
   "linker_set_key" : "ubidi_getParagraphByIndex",
   "parameters" :
   [
    {
     "referenced_type" : "_ZTIPK5UBiDi"
    },
    {
     "referenced_type" : "_ZTIi"
    },
    {
     "referenced_type" : "_ZTIPi"
    },
    {
     "referenced_type" : "_ZTIPi"
    },
    {
     "referenced_type" : "_ZTIPh"
    },
    {
     "referenced_type" : "_ZTIP10UErrorCode"
    }
   ],
   "return_type" : "_ZTIv",
   "source_file" : "external/icu/libicu/src/shim.cpp"
  },
  {
   "function_name" : "ubidi_getProcessedLength",
   "linker_set_key" : "ubidi_getProcessedLength",
   "parameters" :
   [
    {
     "referenced_type" : "_ZTIPK5UBiDi"
    }
   ],
   "return_type" : "_ZTIi",
   "source_file" : "external/icu/libicu/src/shim.cpp"
  },
  {
   "function_name" : "ubidi_getReorderingMode",
   "linker_set_key" : "ubidi_getReorderingMode",
   "parameters" :
   [
    {
     "referenced_type" : "_ZTIP5UBiDi"
    }
   ],
   "return_type" : "_ZTI19UBiDiReorderingMode",
   "source_file" : "external/icu/libicu/src/shim.cpp"
  },
  {
   "function_name" : "ubidi_getReorderingOptions",
   "linker_set_key" : "ubidi_getReorderingOptions",
   "parameters" :
   [
    {
     "referenced_type" : "_ZTIP5UBiDi"
    }
   ],
   "return_type" : "_ZTIj",
   "source_file" : "external/icu/libicu/src/shim.cpp"
  },
  {
   "function_name" : "ubidi_getResultLength",
   "linker_set_key" : "ubidi_getResultLength",
   "parameters" :
   [
    {
     "referenced_type" : "_ZTIPK5UBiDi"
    }
   ],
   "return_type" : "_ZTIi",
   "source_file" : "external/icu/libicu/src/shim.cpp"
  },
  {
   "function_name" : "ubidi_getText",
   "linker_set_key" : "ubidi_getText",
   "parameters" :
   [
    {
     "referenced_type" : "_ZTIPK5UBiDi"
    }
   ],
   "return_type" : "_ZTIPKDs",
   "source_file" : "external/icu/libicu/src/shim.cpp"
  },
  {
   "function_name" : "ubidi_getVisualIndex",
   "linker_set_key" : "ubidi_getVisualIndex",
   "parameters" :
   [
    {
     "referenced_type" : "_ZTIP5UBiDi"
    },
    {
     "referenced_type" : "_ZTIi"
    },
    {
     "referenced_type" : "_ZTIP10UErrorCode"
    }
   ],
   "return_type" : "_ZTIi",
   "source_file" : "external/icu/libicu/src/shim.cpp"
  },
  {
   "function_name" : "ubidi_getVisualMap",
   "linker_set_key" : "ubidi_getVisualMap",
   "parameters" :
   [
    {
     "referenced_type" : "_ZTIP5UBiDi"
    },
    {
     "referenced_type" : "_ZTIPi"
    },
    {
     "referenced_type" : "_ZTIP10UErrorCode"
    }
   ],
   "return_type" : "_ZTIv",
   "source_file" : "external/icu/libicu/src/shim.cpp"
  },
  {
   "function_name" : "ubidi_getVisualRun",
   "linker_set_key" : "ubidi_getVisualRun",
   "parameters" :
   [
    {
     "referenced_type" : "_ZTIP5UBiDi"
    },
    {
     "referenced_type" : "_ZTIi"
    },
    {
     "referenced_type" : "_ZTIPi"
    },
    {
     "referenced_type" : "_ZTIPi"
    }
   ],
   "return_type" : "_ZTI14UBiDiDirection",
   "source_file" : "external/icu/libicu/src/shim.cpp"
  },
  {
   "function_name" : "ubidi_invertMap",
   "linker_set_key" : "ubidi_invertMap",
   "parameters" :
   [
    {
     "referenced_type" : "_ZTIPKi"
    },
    {
     "referenced_type" : "_ZTIPi"
    },
    {
     "referenced_type" : "_ZTIi"
    }
   ],
   "return_type" : "_ZTIv",
   "source_file" : "external/icu/libicu/src/shim.cpp"
  },
  {
   "function_name" : "ubidi_isInverse",
   "linker_set_key" : "ubidi_isInverse",
   "parameters" :
   [
    {
     "referenced_type" : "_ZTIP5UBiDi"
    }
   ],
   "return_type" : "_ZTIa",
   "source_file" : "external/icu/libicu/src/shim.cpp"
  },
  {
   "function_name" : "ubidi_isOrderParagraphsLTR",
   "linker_set_key" : "ubidi_isOrderParagraphsLTR",
   "parameters" :
   [
    {
     "referenced_type" : "_ZTIP5UBiDi"
    }
   ],
   "return_type" : "_ZTIa",
   "source_file" : "external/icu/libicu/src/shim.cpp"
  },
  {
   "function_name" : "ubidi_open",
   "linker_set_key" : "ubidi_open",
   "return_type" : "_ZTIP5UBiDi",
   "source_file" : "external/icu/libicu/src/shim.cpp"
  },
  {
   "function_name" : "ubidi_openSized",
   "linker_set_key" : "ubidi_openSized",
   "parameters" :
   [
    {
     "referenced_type" : "_ZTIi"
    },
    {
     "referenced_type" : "_ZTIi"
    },
    {
     "referenced_type" : "_ZTIP10UErrorCode"
    }
   ],
   "return_type" : "_ZTIP5UBiDi",
   "source_file" : "external/icu/libicu/src/shim.cpp"
  },
  {
   "function_name" : "ubidi_orderParagraphsLTR",
   "linker_set_key" : "ubidi_orderParagraphsLTR",
   "parameters" :
   [
    {
     "referenced_type" : "_ZTIP5UBiDi"
    },
    {
     "referenced_type" : "_ZTIa"
    }
   ],
   "return_type" : "_ZTIv",
   "source_file" : "external/icu/libicu/src/shim.cpp"
  },
  {
   "function_name" : "ubidi_reorderLogical",
   "linker_set_key" : "ubidi_reorderLogical",
   "parameters" :
   [
    {
     "referenced_type" : "_ZTIPKh"
    },
    {
     "referenced_type" : "_ZTIi"
    },
    {
     "referenced_type" : "_ZTIPi"
    }
   ],
   "return_type" : "_ZTIv",
   "source_file" : "external/icu/libicu/src/shim.cpp"
  },
  {
   "function_name" : "ubidi_reorderVisual",
   "linker_set_key" : "ubidi_reorderVisual",
   "parameters" :
   [
    {
     "referenced_type" : "_ZTIPKh"
    },
    {
     "referenced_type" : "_ZTIi"
    },
    {
     "referenced_type" : "_ZTIPi"
    }
   ],
   "return_type" : "_ZTIv",
   "source_file" : "external/icu/libicu/src/shim.cpp"
  },
  {
   "function_name" : "ubidi_setClassCallback",
   "linker_set_key" : "ubidi_setClassCallback",
   "parameters" :
   [
    {
     "referenced_type" : "_ZTIP5UBiDi"
    },
    {
     "referenced_type" : "_ZTIPF14UCharDirectionPKviE"
    },
    {
     "referenced_type" : "_ZTIPKv"
    },
    {
     "referenced_type" : "_ZTIPPF14UCharDirectionPKviE"
    },
    {
     "referenced_type" : "_ZTIPPKv"
    },
    {
     "referenced_type" : "_ZTIP10UErrorCode"
    }
   ],
   "return_type" : "_ZTIv",
   "source_file" : "external/icu/libicu/src/shim.cpp"
  },
  {
   "function_name" : "ubidi_setContext",
   "linker_set_key" : "ubidi_setContext",
   "parameters" :
   [
    {
     "referenced_type" : "_ZTIP5UBiDi"
    },
    {
     "referenced_type" : "_ZTIPKDs"
    },
    {
     "referenced_type" : "_ZTIi"
    },
    {
     "referenced_type" : "_ZTIPKDs"
    },
    {
     "referenced_type" : "_ZTIi"
    },
    {
     "referenced_type" : "_ZTIP10UErrorCode"
    }
   ],
   "return_type" : "_ZTIv",
   "source_file" : "external/icu/libicu/src/shim.cpp"
  },
  {
   "function_name" : "ubidi_setInverse",
   "linker_set_key" : "ubidi_setInverse",
   "parameters" :
   [
    {
     "referenced_type" : "_ZTIP5UBiDi"
    },
    {
     "referenced_type" : "_ZTIa"
    }
   ],
   "return_type" : "_ZTIv",
   "source_file" : "external/icu/libicu/src/shim.cpp"
  },
  {
   "function_name" : "ubidi_setLine",
   "linker_set_key" : "ubidi_setLine",
   "parameters" :
   [
    {
     "referenced_type" : "_ZTIPK5UBiDi"
    },
    {
     "referenced_type" : "_ZTIi"
    },
    {
     "referenced_type" : "_ZTIi"
    },
    {
     "referenced_type" : "_ZTIP5UBiDi"
    },
    {
     "referenced_type" : "_ZTIP10UErrorCode"
    }
   ],
   "return_type" : "_ZTIv",
   "source_file" : "external/icu/libicu/src/shim.cpp"
  },
  {
   "function_name" : "ubidi_setPara",
   "linker_set_key" : "ubidi_setPara",
   "parameters" :
   [
    {
     "referenced_type" : "_ZTIP5UBiDi"
    },
    {
     "referenced_type" : "_ZTIPKDs"
    },
    {
     "referenced_type" : "_ZTIi"
    },
    {
     "referenced_type" : "_ZTIh"
    },
    {
     "referenced_type" : "_ZTIPh"
    },
    {
     "referenced_type" : "_ZTIP10UErrorCode"
    }
   ],
   "return_type" : "_ZTIv",
   "source_file" : "external/icu/libicu/src/shim.cpp"
  },
  {
   "function_name" : "ubidi_setReorderingMode",
   "linker_set_key" : "ubidi_setReorderingMode",
   "parameters" :
   [
    {
     "referenced_type" : "_ZTIP5UBiDi"
    },
    {
     "referenced_type" : "_ZTI19UBiDiReorderingMode"
    }
   ],
   "return_type" : "_ZTIv",
   "source_file" : "external/icu/libicu/src/shim.cpp"
  },
  {
   "function_name" : "ubidi_setReorderingOptions",
   "linker_set_key" : "ubidi_setReorderingOptions",
   "parameters" :
   [
    {
     "referenced_type" : "_ZTIP5UBiDi"
    },
    {
     "referenced_type" : "_ZTIj"
    }
   ],
   "return_type" : "_ZTIv",
   "source_file" : "external/icu/libicu/src/shim.cpp"
  },
  {
   "function_name" : "ubidi_writeReordered",
   "linker_set_key" : "ubidi_writeReordered",
   "parameters" :
   [
    {
     "referenced_type" : "_ZTIP5UBiDi"
    },
    {
     "referenced_type" : "_ZTIPDs"
    },
    {
     "referenced_type" : "_ZTIi"
    },
    {
     "referenced_type" : "_ZTIt"
    },
    {
     "referenced_type" : "_ZTIP10UErrorCode"
    }
   ],
   "return_type" : "_ZTIi",
   "source_file" : "external/icu/libicu/src/shim.cpp"
  },
  {
   "function_name" : "ubidi_writeReverse",
   "linker_set_key" : "ubidi_writeReverse",
   "parameters" :
   [
    {
     "referenced_type" : "_ZTIPKDs"
    },
    {
     "referenced_type" : "_ZTIi"
    },
    {
     "referenced_type" : "_ZTIPDs"
    },
    {
     "referenced_type" : "_ZTIi"
    },
    {
     "referenced_type" : "_ZTIt"
    },
    {
     "referenced_type" : "_ZTIP10UErrorCode"
    }
   ],
   "return_type" : "_ZTIi",
   "source_file" : "external/icu/libicu/src/shim.cpp"
  },
  {
   "function_name" : "ubrk_clone",
   "linker_set_key" : "ubrk_clone",
   "parameters" :
   [
    {
     "referenced_type" : "_ZTIPK14UBreakIterator"
    },
    {
     "referenced_type" : "_ZTIP10UErrorCode"
    }
   ],
   "return_type" : "_ZTIP14UBreakIterator",
   "source_file" : "external/icu/libicu/src/shim.cpp"
  },
  {
   "function_name" : "ubrk_close",
   "linker_set_key" : "ubrk_close",
   "parameters" :
   [
    {
     "referenced_type" : "_ZTIP14UBreakIterator"
    }
   ],
   "return_type" : "_ZTIv",
   "source_file" : "external/icu/libicu/src/shim.cpp"
  },
  {
   "function_name" : "ubrk_countAvailable",
   "linker_set_key" : "ubrk_countAvailable",
   "return_type" : "_ZTIi",
   "source_file" : "external/icu/libicu/src/shim.cpp"
  },
  {
   "function_name" : "ubrk_current",
   "linker_set_key" : "ubrk_current",
   "parameters" :
   [
    {
     "referenced_type" : "_ZTIPK14UBreakIterator"
    }
   ],
   "return_type" : "_ZTIi",
   "source_file" : "external/icu/libicu/src/shim.cpp"
  },
  {
   "function_name" : "ubrk_first",
   "linker_set_key" : "ubrk_first",
   "parameters" :
   [
    {
     "referenced_type" : "_ZTIP14UBreakIterator"
    }
   ],
   "return_type" : "_ZTIi",
   "source_file" : "external/icu/libicu/src/shim.cpp"
  },
  {
   "function_name" : "ubrk_following",
   "linker_set_key" : "ubrk_following",
   "parameters" :
   [
    {
     "referenced_type" : "_ZTIP14UBreakIterator"
    },
    {
     "referenced_type" : "_ZTIi"
    }
   ],
   "return_type" : "_ZTIi",
   "source_file" : "external/icu/libicu/src/shim.cpp"
  },
  {
   "function_name" : "ubrk_getAvailable",
   "linker_set_key" : "ubrk_getAvailable",
   "parameters" :
   [
    {
     "referenced_type" : "_ZTIi"
    }
   ],
   "return_type" : "_ZTIPKc",
   "source_file" : "external/icu/libicu/src/shim.cpp"
  },
  {
   "function_name" : "ubrk_getRuleStatus",
   "linker_set_key" : "ubrk_getRuleStatus",
   "parameters" :
   [
    {
     "referenced_type" : "_ZTIP14UBreakIterator"
    }
   ],
   "return_type" : "_ZTIi",
   "source_file" : "external/icu/libicu/src/shim.cpp"
  },
  {
   "function_name" : "ubrk_getRuleStatusVec",
   "linker_set_key" : "ubrk_getRuleStatusVec",
   "parameters" :
   [
    {
     "referenced_type" : "_ZTIP14UBreakIterator"
    },
    {
     "referenced_type" : "_ZTIPi"
    },
    {
     "referenced_type" : "_ZTIi"
    },
    {
     "referenced_type" : "_ZTIP10UErrorCode"
    }
   ],
   "return_type" : "_ZTIi",
   "source_file" : "external/icu/libicu/src/shim.cpp"
  },
  {
   "function_name" : "ubrk_isBoundary",
   "linker_set_key" : "ubrk_isBoundary",
   "parameters" :
   [
    {
     "referenced_type" : "_ZTIP14UBreakIterator"
    },
    {
     "referenced_type" : "_ZTIi"
    }
   ],
   "return_type" : "_ZTIa",
   "source_file" : "external/icu/libicu/src/shim.cpp"
  },
  {
   "function_name" : "ubrk_last",
   "linker_set_key" : "ubrk_last",
   "parameters" :
   [
    {
     "referenced_type" : "_ZTIP14UBreakIterator"
    }
   ],
   "return_type" : "_ZTIi",
   "source_file" : "external/icu/libicu/src/shim.cpp"
  },
  {
   "function_name" : "ubrk_next",
   "linker_set_key" : "ubrk_next",
   "parameters" :
   [
    {
     "referenced_type" : "_ZTIP14UBreakIterator"
    }
   ],
   "return_type" : "_ZTIi",
   "source_file" : "external/icu/libicu/src/shim.cpp"
  },
  {
   "function_name" : "ubrk_open",
   "linker_set_key" : "ubrk_open",
   "parameters" :
   [
    {
     "referenced_type" : "_ZTI18UBreakIteratorType"
    },
    {
     "referenced_type" : "_ZTIPKc"
    },
    {
     "referenced_type" : "_ZTIPKDs"
    },
    {
     "referenced_type" : "_ZTIi"
    },
    {
     "referenced_type" : "_ZTIP10UErrorCode"
    }
   ],
   "return_type" : "_ZTIP14UBreakIterator",
   "source_file" : "external/icu/libicu/src/shim.cpp"
  },
  {
   "function_name" : "ubrk_preceding",
   "linker_set_key" : "ubrk_preceding",
   "parameters" :
   [
    {
     "referenced_type" : "_ZTIP14UBreakIterator"
    },
    {
     "referenced_type" : "_ZTIi"
    }
   ],
   "return_type" : "_ZTIi",
   "source_file" : "external/icu/libicu/src/shim.cpp"
  },
  {
   "function_name" : "ubrk_previous",
   "linker_set_key" : "ubrk_previous",
   "parameters" :
   [
    {
     "referenced_type" : "_ZTIP14UBreakIterator"
    }
   ],
   "return_type" : "_ZTIi",
   "source_file" : "external/icu/libicu/src/shim.cpp"
  },
  {
   "function_name" : "ubrk_setText",
   "linker_set_key" : "ubrk_setText",
   "parameters" :
   [
    {
     "referenced_type" : "_ZTIP14UBreakIterator"
    },
    {
     "referenced_type" : "_ZTIPKDs"
    },
    {
     "referenced_type" : "_ZTIi"
    },
    {
     "referenced_type" : "_ZTIP10UErrorCode"
    }
   ],
   "return_type" : "_ZTIv",
   "source_file" : "external/icu/libicu/src/shim.cpp"
  },
  {
   "function_name" : "ubrk_setUText",
   "linker_set_key" : "ubrk_setUText",
   "parameters" :
   [
    {
     "referenced_type" : "_ZTIP14UBreakIterator"
    },
    {
     "referenced_type" : "_ZTIP5UText"
    },
    {
     "referenced_type" : "_ZTIP10UErrorCode"
    }
   ],
   "return_type" : "_ZTIv",
   "source_file" : "external/icu/libicu/src/shim.cpp"
  },
  {
   "function_name" : "uenum_close",
   "linker_set_key" : "uenum_close",
   "parameters" :
   [
    {
     "referenced_type" : "_ZTIP12UEnumeration"
    }
   ],
   "return_type" : "_ZTIv",
   "source_file" : "external/icu/libicu/src/shim.cpp"
  },
  {
   "function_name" : "uenum_count",
   "linker_set_key" : "uenum_count",
   "parameters" :
   [
    {
     "referenced_type" : "_ZTIP12UEnumeration"
    },
    {
     "referenced_type" : "_ZTIP10UErrorCode"
    }
   ],
   "return_type" : "_ZTIi",
   "source_file" : "external/icu/libicu/src/shim.cpp"
  },
  {
   "function_name" : "uenum_next",
   "linker_set_key" : "uenum_next",
   "parameters" :
   [
    {
     "referenced_type" : "_ZTIP12UEnumeration"
    },
    {
     "referenced_type" : "_ZTIPi"
    },
    {
     "referenced_type" : "_ZTIP10UErrorCode"
    }
   ],
   "return_type" : "_ZTIPKc",
   "source_file" : "external/icu/libicu/src/shim.cpp"
  },
  {
   "function_name" : "uenum_openCharStringsEnumeration",
   "linker_set_key" : "uenum_openCharStringsEnumeration",
   "parameters" :
   [
    {
     "referenced_type" : "_ZTIPKPKc"
    },
    {
     "referenced_type" : "_ZTIi"
    },
    {
     "referenced_type" : "_ZTIP10UErrorCode"
    }
   ],
   "return_type" : "_ZTIP12UEnumeration",
   "source_file" : "external/icu/libicu/src/shim.cpp"
  },
  {
   "function_name" : "uenum_openUCharStringsEnumeration",
   "linker_set_key" : "uenum_openUCharStringsEnumeration",
   "parameters" :
   [
    {
     "referenced_type" : "_ZTIPKPKDs"
    },
    {
     "referenced_type" : "_ZTIi"
    },
    {
     "referenced_type" : "_ZTIP10UErrorCode"
    }
   ],
   "return_type" : "_ZTIP12UEnumeration",
   "source_file" : "external/icu/libicu/src/shim.cpp"
  },
  {
   "function_name" : "uenum_reset",
   "linker_set_key" : "uenum_reset",
   "parameters" :
   [
    {
     "referenced_type" : "_ZTIP12UEnumeration"
    },
    {
     "referenced_type" : "_ZTIP10UErrorCode"
    }
   ],
   "return_type" : "_ZTIv",
   "source_file" : "external/icu/libicu/src/shim.cpp"
  },
  {
   "function_name" : "uenum_unext",
   "linker_set_key" : "uenum_unext",
   "parameters" :
   [
    {
     "referenced_type" : "_ZTIP12UEnumeration"
    },
    {
     "referenced_type" : "_ZTIPi"
    },
    {
     "referenced_type" : "_ZTIP10UErrorCode"
    }
   ],
   "return_type" : "_ZTIPKDs",
   "source_file" : "external/icu/libicu/src/shim.cpp"
  },
  {
   "function_name" : "uldn_close",
   "linker_set_key" : "uldn_close",
   "parameters" :
   [
    {
     "referenced_type" : "_ZTIP19ULocaleDisplayNames"
    }
   ],
   "return_type" : "_ZTIv",
   "source_file" : "external/icu/libicu/src/shim.cpp"
  },
  {
   "function_name" : "uldn_getContext",
   "linker_set_key" : "uldn_getContext",
   "parameters" :
   [
    {
     "referenced_type" : "_ZTIPK19ULocaleDisplayNames"
    },
    {
     "referenced_type" : "_ZTI19UDisplayContextType"
    },
    {
     "referenced_type" : "_ZTIP10UErrorCode"
    }
   ],
   "return_type" : "_ZTI15UDisplayContext",
   "source_file" : "external/icu/libicu/src/shim.cpp"
  },
  {
   "function_name" : "uldn_getDialectHandling",
   "linker_set_key" : "uldn_getDialectHandling",
   "parameters" :
   [
    {
     "referenced_type" : "_ZTIPK19ULocaleDisplayNames"
    }
   ],
   "return_type" : "_ZTI16UDialectHandling",
   "source_file" : "external/icu/libicu/src/shim.cpp"
  },
  {
   "function_name" : "uldn_getLocale",
   "linker_set_key" : "uldn_getLocale",
   "parameters" :
   [
    {
     "referenced_type" : "_ZTIPK19ULocaleDisplayNames"
    }
   ],
   "return_type" : "_ZTIPKc",
   "source_file" : "external/icu/libicu/src/shim.cpp"
  },
  {
   "function_name" : "uldn_keyDisplayName",
   "linker_set_key" : "uldn_keyDisplayName",
   "parameters" :
   [
    {
     "referenced_type" : "_ZTIPK19ULocaleDisplayNames"
    },
    {
     "referenced_type" : "_ZTIPKc"
    },
    {
     "referenced_type" : "_ZTIPDs"
    },
    {
     "referenced_type" : "_ZTIi"
    },
    {
     "referenced_type" : "_ZTIP10UErrorCode"
    }
   ],
   "return_type" : "_ZTIi",
   "source_file" : "external/icu/libicu/src/shim.cpp"
  },
  {
   "function_name" : "uldn_keyValueDisplayName",
   "linker_set_key" : "uldn_keyValueDisplayName",
   "parameters" :
   [
    {
     "referenced_type" : "_ZTIPK19ULocaleDisplayNames"
    },
    {
     "referenced_type" : "_ZTIPKc"
    },
    {
     "referenced_type" : "_ZTIPKc"
    },
    {
     "referenced_type" : "_ZTIPDs"
    },
    {
     "referenced_type" : "_ZTIi"
    },
    {
     "referenced_type" : "_ZTIP10UErrorCode"
    }
   ],
   "return_type" : "_ZTIi",
   "source_file" : "external/icu/libicu/src/shim.cpp"
  },
  {
   "function_name" : "uldn_languageDisplayName",
   "linker_set_key" : "uldn_languageDisplayName",
   "parameters" :
   [
    {
     "referenced_type" : "_ZTIPK19ULocaleDisplayNames"
    },
    {
     "referenced_type" : "_ZTIPKc"
    },
    {
     "referenced_type" : "_ZTIPDs"
    },
    {
     "referenced_type" : "_ZTIi"
    },
    {
     "referenced_type" : "_ZTIP10UErrorCode"
    }
   ],
   "return_type" : "_ZTIi",
   "source_file" : "external/icu/libicu/src/shim.cpp"
  },
  {
   "function_name" : "uldn_localeDisplayName",
   "linker_set_key" : "uldn_localeDisplayName",
   "parameters" :
   [
    {
     "referenced_type" : "_ZTIPK19ULocaleDisplayNames"
    },
    {
     "referenced_type" : "_ZTIPKc"
    },
    {
     "referenced_type" : "_ZTIPDs"
    },
    {
     "referenced_type" : "_ZTIi"
    },
    {
     "referenced_type" : "_ZTIP10UErrorCode"
    }
   ],
   "return_type" : "_ZTIi",
   "source_file" : "external/icu/libicu/src/shim.cpp"
  },
  {
   "function_name" : "uldn_open",
   "linker_set_key" : "uldn_open",
   "parameters" :
   [
    {
     "referenced_type" : "_ZTIPKc"
    },
    {
     "referenced_type" : "_ZTI16UDialectHandling"
    },
    {
     "referenced_type" : "_ZTIP10UErrorCode"
    }
   ],
   "return_type" : "_ZTIP19ULocaleDisplayNames",
   "source_file" : "external/icu/libicu/src/shim.cpp"
  },
  {
   "function_name" : "uldn_openForContext",
   "linker_set_key" : "uldn_openForContext",
   "parameters" :
   [
    {
     "referenced_type" : "_ZTIPKc"
    },
    {
     "referenced_type" : "_ZTIP15UDisplayContext"
    },
    {
     "referenced_type" : "_ZTIi"
    },
    {
     "referenced_type" : "_ZTIP10UErrorCode"
    }
   ],
   "return_type" : "_ZTIP19ULocaleDisplayNames",
   "source_file" : "external/icu/libicu/src/shim.cpp"
  },
  {
   "function_name" : "uldn_regionDisplayName",
   "linker_set_key" : "uldn_regionDisplayName",
   "parameters" :
   [
    {
     "referenced_type" : "_ZTIPK19ULocaleDisplayNames"
    },
    {
     "referenced_type" : "_ZTIPKc"
    },
    {
     "referenced_type" : "_ZTIPDs"
    },
    {
     "referenced_type" : "_ZTIi"
    },
    {
     "referenced_type" : "_ZTIP10UErrorCode"
    }
   ],
   "return_type" : "_ZTIi",
   "source_file" : "external/icu/libicu/src/shim.cpp"
  },
  {
   "function_name" : "uldn_scriptCodeDisplayName",
   "linker_set_key" : "uldn_scriptCodeDisplayName",
   "parameters" :
   [
    {
     "referenced_type" : "_ZTIPK19ULocaleDisplayNames"
    },
    {
     "referenced_type" : "_ZTI11UScriptCode"
    },
    {
     "referenced_type" : "_ZTIPDs"
    },
    {
     "referenced_type" : "_ZTIi"
    },
    {
     "referenced_type" : "_ZTIP10UErrorCode"
    }
   ],
   "return_type" : "_ZTIi",
   "source_file" : "external/icu/libicu/src/shim.cpp"
  },
  {
   "function_name" : "uldn_scriptDisplayName",
   "linker_set_key" : "uldn_scriptDisplayName",
   "parameters" :
   [
    {
     "referenced_type" : "_ZTIPK19ULocaleDisplayNames"
    },
    {
     "referenced_type" : "_ZTIPKc"
    },
    {
     "referenced_type" : "_ZTIPDs"
    },
    {
     "referenced_type" : "_ZTIi"
    },
    {
     "referenced_type" : "_ZTIP10UErrorCode"
    }
   ],
   "return_type" : "_ZTIi",
   "source_file" : "external/icu/libicu/src/shim.cpp"
  },
  {
   "function_name" : "uldn_variantDisplayName",
   "linker_set_key" : "uldn_variantDisplayName",
   "parameters" :
   [
    {
     "referenced_type" : "_ZTIPK19ULocaleDisplayNames"
    },
    {
     "referenced_type" : "_ZTIPKc"
    },
    {
     "referenced_type" : "_ZTIPDs"
    },
    {
     "referenced_type" : "_ZTIi"
    },
    {
     "referenced_type" : "_ZTIP10UErrorCode"
    }
   ],
   "return_type" : "_ZTIi",
   "source_file" : "external/icu/libicu/src/shim.cpp"
  },
  {
   "function_name" : "uloc_acceptLanguage",
   "linker_set_key" : "uloc_acceptLanguage",
   "parameters" :
   [
    {
     "referenced_type" : "_ZTIPc"
    },
    {
     "referenced_type" : "_ZTIi"
    },
    {
     "referenced_type" : "_ZTIP13UAcceptResult"
    },
    {
     "referenced_type" : "_ZTIPPKc"
    },
    {
     "referenced_type" : "_ZTIi"
    },
    {
     "referenced_type" : "_ZTIP12UEnumeration"
    },
    {
     "referenced_type" : "_ZTIP10UErrorCode"
    }
   ],
   "return_type" : "_ZTIi",
   "source_file" : "external/icu/libicu/src/shim.cpp"
  },
  {
   "function_name" : "uloc_addLikelySubtags",
   "linker_set_key" : "uloc_addLikelySubtags",
   "parameters" :
   [
    {
     "referenced_type" : "_ZTIPKc"
    },
    {
     "referenced_type" : "_ZTIPc"
    },
    {
     "referenced_type" : "_ZTIi"
    },
    {
     "referenced_type" : "_ZTIP10UErrorCode"
    }
   ],
   "return_type" : "_ZTIi",
   "source_file" : "external/icu/libicu/src/shim.cpp"
  },
  {
   "function_name" : "uloc_canonicalize",
   "linker_set_key" : "uloc_canonicalize",
   "parameters" :
   [
    {
     "referenced_type" : "_ZTIPKc"
    },
    {
     "referenced_type" : "_ZTIPc"
    },
    {
     "referenced_type" : "_ZTIi"
    },
    {
     "referenced_type" : "_ZTIP10UErrorCode"
    }
   ],
   "return_type" : "_ZTIi",
   "source_file" : "external/icu/libicu/src/shim.cpp"
  },
  {
   "function_name" : "uloc_countAvailable",
   "linker_set_key" : "uloc_countAvailable",
   "return_type" : "_ZTIi",
   "source_file" : "external/icu/libicu/src/shim.cpp"
  },
  {
   "function_name" : "uloc_forLanguageTag",
   "linker_set_key" : "uloc_forLanguageTag",
   "parameters" :
   [
    {
     "referenced_type" : "_ZTIPKc"
    },
    {
     "referenced_type" : "_ZTIPc"
    },
    {
     "referenced_type" : "_ZTIi"
    },
    {
     "referenced_type" : "_ZTIPi"
    },
    {
     "referenced_type" : "_ZTIP10UErrorCode"
    }
   ],
   "return_type" : "_ZTIi",
   "source_file" : "external/icu/libicu/src/shim.cpp"
  },
  {
   "function_name" : "uloc_getAvailable",
   "linker_set_key" : "uloc_getAvailable",
   "parameters" :
   [
    {
     "referenced_type" : "_ZTIi"
    }
   ],
   "return_type" : "_ZTIPKc",
   "source_file" : "external/icu/libicu/src/shim.cpp"
  },
  {
   "function_name" : "uloc_getBaseName",
   "linker_set_key" : "uloc_getBaseName",
   "parameters" :
   [
    {
     "referenced_type" : "_ZTIPKc"
    },
    {
     "referenced_type" : "_ZTIPc"
    },
    {
     "referenced_type" : "_ZTIi"
    },
    {
     "referenced_type" : "_ZTIP10UErrorCode"
    }
   ],
   "return_type" : "_ZTIi",
   "source_file" : "external/icu/libicu/src/shim.cpp"
  },
  {
   "function_name" : "uloc_getCharacterOrientation",
   "linker_set_key" : "uloc_getCharacterOrientation",
   "parameters" :
   [
    {
     "referenced_type" : "_ZTIPKc"
    },
    {
     "referenced_type" : "_ZTIP10UErrorCode"
    }
   ],
   "return_type" : "_ZTI11ULayoutType",
   "source_file" : "external/icu/libicu/src/shim.cpp"
  },
  {
   "function_name" : "uloc_getCountry",
   "linker_set_key" : "uloc_getCountry",
   "parameters" :
   [
    {
     "referenced_type" : "_ZTIPKc"
    },
    {
     "referenced_type" : "_ZTIPc"
    },
    {
     "referenced_type" : "_ZTIi"
    },
    {
     "referenced_type" : "_ZTIP10UErrorCode"
    }
   ],
   "return_type" : "_ZTIi",
   "source_file" : "external/icu/libicu/src/shim.cpp"
  },
  {
   "function_name" : "uloc_getDefault",
   "linker_set_key" : "uloc_getDefault",
   "return_type" : "_ZTIPKc",
   "source_file" : "external/icu/libicu/src/shim.cpp"
  },
  {
   "function_name" : "uloc_getDisplayCountry",
   "linker_set_key" : "uloc_getDisplayCountry",
   "parameters" :
   [
    {
     "referenced_type" : "_ZTIPKc"
    },
    {
     "referenced_type" : "_ZTIPKc"
    },
    {
     "referenced_type" : "_ZTIPDs"
    },
    {
     "referenced_type" : "_ZTIi"
    },
    {
     "referenced_type" : "_ZTIP10UErrorCode"
    }
   ],
   "return_type" : "_ZTIi",
   "source_file" : "external/icu/libicu/src/shim.cpp"
  },
  {
   "function_name" : "uloc_getDisplayKeyword",
   "linker_set_key" : "uloc_getDisplayKeyword",
   "parameters" :
   [
    {
     "referenced_type" : "_ZTIPKc"
    },
    {
     "referenced_type" : "_ZTIPKc"
    },
    {
     "referenced_type" : "_ZTIPDs"
    },
    {
     "referenced_type" : "_ZTIi"
    },
    {
     "referenced_type" : "_ZTIP10UErrorCode"
    }
   ],
   "return_type" : "_ZTIi",
   "source_file" : "external/icu/libicu/src/shim.cpp"
  },
  {
   "function_name" : "uloc_getDisplayKeywordValue",
   "linker_set_key" : "uloc_getDisplayKeywordValue",
   "parameters" :
   [
    {
     "referenced_type" : "_ZTIPKc"
    },
    {
     "referenced_type" : "_ZTIPKc"
    },
    {
     "referenced_type" : "_ZTIPKc"
    },
    {
     "referenced_type" : "_ZTIPDs"
    },
    {
     "referenced_type" : "_ZTIi"
    },
    {
     "referenced_type" : "_ZTIP10UErrorCode"
    }
   ],
   "return_type" : "_ZTIi",
   "source_file" : "external/icu/libicu/src/shim.cpp"
  },
  {
   "function_name" : "uloc_getDisplayLanguage",
   "linker_set_key" : "uloc_getDisplayLanguage",
   "parameters" :
   [
    {
     "referenced_type" : "_ZTIPKc"
    },
    {
     "referenced_type" : "_ZTIPKc"
    },
    {
     "referenced_type" : "_ZTIPDs"
    },
    {
     "referenced_type" : "_ZTIi"
    },
    {
     "referenced_type" : "_ZTIP10UErrorCode"
    }
   ],
   "return_type" : "_ZTIi",
   "source_file" : "external/icu/libicu/src/shim.cpp"
  },
  {
   "function_name" : "uloc_getDisplayName",
   "linker_set_key" : "uloc_getDisplayName",
   "parameters" :
   [
    {
     "referenced_type" : "_ZTIPKc"
    },
    {
     "referenced_type" : "_ZTIPKc"
    },
    {
     "referenced_type" : "_ZTIPDs"
    },
    {
     "referenced_type" : "_ZTIi"
    },
    {
     "referenced_type" : "_ZTIP10UErrorCode"
    }
   ],
   "return_type" : "_ZTIi",
   "source_file" : "external/icu/libicu/src/shim.cpp"
  },
  {
   "function_name" : "uloc_getDisplayScript",
   "linker_set_key" : "uloc_getDisplayScript",
   "parameters" :
   [
    {
     "referenced_type" : "_ZTIPKc"
    },
    {
     "referenced_type" : "_ZTIPKc"
    },
    {
     "referenced_type" : "_ZTIPDs"
    },
    {
     "referenced_type" : "_ZTIi"
    },
    {
     "referenced_type" : "_ZTIP10UErrorCode"
    }
   ],
   "return_type" : "_ZTIi",
   "source_file" : "external/icu/libicu/src/shim.cpp"
  },
  {
   "function_name" : "uloc_getDisplayVariant",
   "linker_set_key" : "uloc_getDisplayVariant",
   "parameters" :
   [
    {
     "referenced_type" : "_ZTIPKc"
    },
    {
     "referenced_type" : "_ZTIPKc"
    },
    {
     "referenced_type" : "_ZTIPDs"
    },
    {
     "referenced_type" : "_ZTIi"
    },
    {
     "referenced_type" : "_ZTIP10UErrorCode"
    }
   ],
   "return_type" : "_ZTIi",
   "source_file" : "external/icu/libicu/src/shim.cpp"
  },
  {
   "function_name" : "uloc_getISO3Country",
   "linker_set_key" : "uloc_getISO3Country",
   "parameters" :
   [
    {
     "referenced_type" : "_ZTIPKc"
    }
   ],
   "return_type" : "_ZTIPKc",
   "source_file" : "external/icu/libicu/src/shim.cpp"
  },
  {
   "function_name" : "uloc_getISO3Language",
   "linker_set_key" : "uloc_getISO3Language",
   "parameters" :
   [
    {
     "referenced_type" : "_ZTIPKc"
    }
   ],
   "return_type" : "_ZTIPKc",
   "source_file" : "external/icu/libicu/src/shim.cpp"
  },
  {
   "function_name" : "uloc_getISOCountries",
   "linker_set_key" : "uloc_getISOCountries",
   "return_type" : "_ZTIPKPKc",
   "source_file" : "external/icu/libicu/src/shim.cpp"
  },
  {
   "function_name" : "uloc_getISOLanguages",
   "linker_set_key" : "uloc_getISOLanguages",
   "return_type" : "_ZTIPKPKc",
   "source_file" : "external/icu/libicu/src/shim.cpp"
  },
  {
   "function_name" : "uloc_getKeywordValue",
   "linker_set_key" : "uloc_getKeywordValue",
   "parameters" :
   [
    {
     "referenced_type" : "_ZTIPKc"
    },
    {
     "referenced_type" : "_ZTIPKc"
    },
    {
     "referenced_type" : "_ZTIPc"
    },
    {
     "referenced_type" : "_ZTIi"
    },
    {
     "referenced_type" : "_ZTIP10UErrorCode"
    }
   ],
   "return_type" : "_ZTIi",
   "source_file" : "external/icu/libicu/src/shim.cpp"
  },
  {
   "function_name" : "uloc_getLanguage",
   "linker_set_key" : "uloc_getLanguage",
   "parameters" :
   [
    {
     "referenced_type" : "_ZTIPKc"
    },
    {
     "referenced_type" : "_ZTIPc"
    },
    {
     "referenced_type" : "_ZTIi"
    },
    {
     "referenced_type" : "_ZTIP10UErrorCode"
    }
   ],
   "return_type" : "_ZTIi",
   "source_file" : "external/icu/libicu/src/shim.cpp"
  },
  {
   "function_name" : "uloc_getLineOrientation",
   "linker_set_key" : "uloc_getLineOrientation",
   "parameters" :
   [
    {
     "referenced_type" : "_ZTIPKc"
    },
    {
     "referenced_type" : "_ZTIP10UErrorCode"
    }
   ],
   "return_type" : "_ZTI11ULayoutType",
   "source_file" : "external/icu/libicu/src/shim.cpp"
  },
  {
   "function_name" : "uloc_getName",
   "linker_set_key" : "uloc_getName",
   "parameters" :
   [
    {
     "referenced_type" : "_ZTIPKc"
    },
    {
     "referenced_type" : "_ZTIPc"
    },
    {
     "referenced_type" : "_ZTIi"
    },
    {
     "referenced_type" : "_ZTIP10UErrorCode"
    }
   ],
   "return_type" : "_ZTIi",
   "source_file" : "external/icu/libicu/src/shim.cpp"
  },
  {
   "function_name" : "uloc_getScript",
   "linker_set_key" : "uloc_getScript",
   "parameters" :
   [
    {
     "referenced_type" : "_ZTIPKc"
    },
    {
     "referenced_type" : "_ZTIPc"
    },
    {
     "referenced_type" : "_ZTIi"
    },
    {
     "referenced_type" : "_ZTIP10UErrorCode"
    }
   ],
   "return_type" : "_ZTIi",
   "source_file" : "external/icu/libicu/src/shim.cpp"
  },
  {
   "function_name" : "uloc_getVariant",
   "linker_set_key" : "uloc_getVariant",
   "parameters" :
   [
    {
     "referenced_type" : "_ZTIPKc"
    },
    {
     "referenced_type" : "_ZTIPc"
    },
    {
     "referenced_type" : "_ZTIi"
    },
    {
     "referenced_type" : "_ZTIP10UErrorCode"
    }
   ],
   "return_type" : "_ZTIi",
   "source_file" : "external/icu/libicu/src/shim.cpp"
  },
  {
   "function_name" : "uloc_isRightToLeft",
   "linker_set_key" : "uloc_isRightToLeft",
   "parameters" :
   [
    {
     "referenced_type" : "_ZTIPKc"
    }
   ],
   "return_type" : "_ZTIa",
   "source_file" : "external/icu/libicu/src/shim.cpp"
  },
  {
   "function_name" : "uloc_minimizeSubtags",
   "linker_set_key" : "uloc_minimizeSubtags",
   "parameters" :
   [
    {
     "referenced_type" : "_ZTIPKc"
    },
    {
     "referenced_type" : "_ZTIPc"
    },
    {
     "referenced_type" : "_ZTIi"
    },
    {
     "referenced_type" : "_ZTIP10UErrorCode"
    }
   ],
   "return_type" : "_ZTIi",
   "source_file" : "external/icu/libicu/src/shim.cpp"
  },
  {
   "function_name" : "uloc_openKeywords",
   "linker_set_key" : "uloc_openKeywords",
   "parameters" :
   [
    {
     "referenced_type" : "_ZTIPKc"
    },
    {
     "referenced_type" : "_ZTIP10UErrorCode"
    }
   ],
   "return_type" : "_ZTIP12UEnumeration",
   "source_file" : "external/icu/libicu/src/shim.cpp"
  },
  {
   "function_name" : "uloc_setKeywordValue",
   "linker_set_key" : "uloc_setKeywordValue",
   "parameters" :
   [
    {
     "referenced_type" : "_ZTIPKc"
    },
    {
     "referenced_type" : "_ZTIPKc"
    },
    {
     "referenced_type" : "_ZTIPc"
    },
    {
     "referenced_type" : "_ZTIi"
    },
    {
     "referenced_type" : "_ZTIP10UErrorCode"
    }
   ],
   "return_type" : "_ZTIi",
   "source_file" : "external/icu/libicu/src/shim.cpp"
  },
  {
   "function_name" : "uloc_toLanguageTag",
   "linker_set_key" : "uloc_toLanguageTag",
   "parameters" :
   [
    {
     "referenced_type" : "_ZTIPKc"
    },
    {
     "referenced_type" : "_ZTIPc"
    },
    {
     "referenced_type" : "_ZTIi"
    },
    {
     "referenced_type" : "_ZTIa"
    },
    {
     "referenced_type" : "_ZTIP10UErrorCode"
    }
   ],
   "return_type" : "_ZTIi",
   "source_file" : "external/icu/libicu/src/shim.cpp"
  },
  {
   "function_name" : "uloc_toLegacyKey",
   "linker_set_key" : "uloc_toLegacyKey",
   "parameters" :
   [
    {
     "referenced_type" : "_ZTIPKc"
    }
   ],
   "return_type" : "_ZTIPKc",
   "source_file" : "external/icu/libicu/src/shim.cpp"
  },
  {
   "function_name" : "uloc_toLegacyType",
   "linker_set_key" : "uloc_toLegacyType",
   "parameters" :
   [
    {
     "referenced_type" : "_ZTIPKc"
    },
    {
     "referenced_type" : "_ZTIPKc"
    }
   ],
   "return_type" : "_ZTIPKc",
   "source_file" : "external/icu/libicu/src/shim.cpp"
  },
  {
   "function_name" : "uloc_toUnicodeLocaleKey",
   "linker_set_key" : "uloc_toUnicodeLocaleKey",
   "parameters" :
   [
    {
     "referenced_type" : "_ZTIPKc"
    }
   ],
   "return_type" : "_ZTIPKc",
   "source_file" : "external/icu/libicu/src/shim.cpp"
  },
  {
   "function_name" : "uloc_toUnicodeLocaleType",
   "linker_set_key" : "uloc_toUnicodeLocaleType",
   "parameters" :
   [
    {
     "referenced_type" : "_ZTIPKc"
    },
    {
     "referenced_type" : "_ZTIPKc"
    }
   ],
   "return_type" : "_ZTIPKc",
   "source_file" : "external/icu/libicu/src/shim.cpp"
  },
  {
   "function_name" : "ulocdata_getCLDRVersion",
   "linker_set_key" : "ulocdata_getCLDRVersion",
   "parameters" :
   [
    {
     "referenced_type" : "_ZTIPh"
    },
    {
     "referenced_type" : "_ZTIP10UErrorCode"
    }
   ],
   "return_type" : "_ZTIv",
   "source_file" : "external/icu/libicu/src/shim.cpp"
  },
  {
   "function_name" : "unorm2_append",
   "linker_set_key" : "unorm2_append",
   "parameters" :
   [
    {
     "referenced_type" : "_ZTIPK12UNormalizer2"
    },
    {
     "referenced_type" : "_ZTIPDs"
    },
    {
     "referenced_type" : "_ZTIi"
    },
    {
     "referenced_type" : "_ZTIi"
    },
    {
     "referenced_type" : "_ZTIPKDs"
    },
    {
     "referenced_type" : "_ZTIi"
    },
    {
     "referenced_type" : "_ZTIP10UErrorCode"
    }
   ],
   "return_type" : "_ZTIi",
   "source_file" : "external/icu/libicu/src/shim.cpp"
  },
  {
   "function_name" : "unorm2_close",
   "linker_set_key" : "unorm2_close",
   "parameters" :
   [
    {
     "referenced_type" : "_ZTIP12UNormalizer2"
    }
   ],
   "return_type" : "_ZTIv",
   "source_file" : "external/icu/libicu/src/shim.cpp"
  },
  {
   "function_name" : "unorm2_composePair",
   "linker_set_key" : "unorm2_composePair",
   "parameters" :
   [
    {
     "referenced_type" : "_ZTIPK12UNormalizer2"
    },
    {
     "referenced_type" : "_ZTIi"
    },
    {
     "referenced_type" : "_ZTIi"
    }
   ],
   "return_type" : "_ZTIi",
   "source_file" : "external/icu/libicu/src/shim.cpp"
  },
  {
   "function_name" : "unorm2_getCombiningClass",
   "linker_set_key" : "unorm2_getCombiningClass",
   "parameters" :
   [
    {
     "referenced_type" : "_ZTIPK12UNormalizer2"
    },
    {
     "referenced_type" : "_ZTIi"
    }
   ],
   "return_type" : "_ZTIh",
   "source_file" : "external/icu/libicu/src/shim.cpp"
  },
  {
   "function_name" : "unorm2_getDecomposition",
   "linker_set_key" : "unorm2_getDecomposition",
   "parameters" :
   [
    {
     "referenced_type" : "_ZTIPK12UNormalizer2"
    },
    {
     "referenced_type" : "_ZTIi"
    },
    {
     "referenced_type" : "_ZTIPDs"
    },
    {
     "referenced_type" : "_ZTIi"
    },
    {
     "referenced_type" : "_ZTIP10UErrorCode"
    }
   ],
   "return_type" : "_ZTIi",
   "source_file" : "external/icu/libicu/src/shim.cpp"
  },
  {
   "function_name" : "unorm2_getNFCInstance",
   "linker_set_key" : "unorm2_getNFCInstance",
   "parameters" :
   [
    {
     "referenced_type" : "_ZTIP10UErrorCode"
    }
   ],
   "return_type" : "_ZTIPK12UNormalizer2",
   "source_file" : "external/icu/libicu/src/shim.cpp"
  },
  {
   "function_name" : "unorm2_getNFDInstance",
   "linker_set_key" : "unorm2_getNFDInstance",
   "parameters" :
   [
    {
     "referenced_type" : "_ZTIP10UErrorCode"
    }
   ],
   "return_type" : "_ZTIPK12UNormalizer2",
   "source_file" : "external/icu/libicu/src/shim.cpp"
  },
  {
   "function_name" : "unorm2_getNFKCCasefoldInstance",
   "linker_set_key" : "unorm2_getNFKCCasefoldInstance",
   "parameters" :
   [
    {
     "referenced_type" : "_ZTIP10UErrorCode"
    }
   ],
   "return_type" : "_ZTIPK12UNormalizer2",
   "source_file" : "external/icu/libicu/src/shim.cpp"
  },
  {
   "function_name" : "unorm2_getNFKCInstance",
   "linker_set_key" : "unorm2_getNFKCInstance",
   "parameters" :
   [
    {
     "referenced_type" : "_ZTIP10UErrorCode"
    }
   ],
   "return_type" : "_ZTIPK12UNormalizer2",
   "source_file" : "external/icu/libicu/src/shim.cpp"
  },
  {
   "function_name" : "unorm2_getNFKDInstance",
   "linker_set_key" : "unorm2_getNFKDInstance",
   "parameters" :
   [
    {
     "referenced_type" : "_ZTIP10UErrorCode"
    }
   ],
   "return_type" : "_ZTIPK12UNormalizer2",
   "source_file" : "external/icu/libicu/src/shim.cpp"
  },
  {
   "function_name" : "unorm2_getRawDecomposition",
   "linker_set_key" : "unorm2_getRawDecomposition",
   "parameters" :
   [
    {
     "referenced_type" : "_ZTIPK12UNormalizer2"
    },
    {
     "referenced_type" : "_ZTIi"
    },
    {
     "referenced_type" : "_ZTIPDs"
    },
    {
     "referenced_type" : "_ZTIi"
    },
    {
     "referenced_type" : "_ZTIP10UErrorCode"
    }
   ],
   "return_type" : "_ZTIi",
   "source_file" : "external/icu/libicu/src/shim.cpp"
  },
  {
   "function_name" : "unorm2_hasBoundaryAfter",
   "linker_set_key" : "unorm2_hasBoundaryAfter",
   "parameters" :
   [
    {
     "referenced_type" : "_ZTIPK12UNormalizer2"
    },
    {
     "referenced_type" : "_ZTIi"
    }
   ],
   "return_type" : "_ZTIa",
   "source_file" : "external/icu/libicu/src/shim.cpp"
  },
  {
   "function_name" : "unorm2_hasBoundaryBefore",
   "linker_set_key" : "unorm2_hasBoundaryBefore",
   "parameters" :
   [
    {
     "referenced_type" : "_ZTIPK12UNormalizer2"
    },
    {
     "referenced_type" : "_ZTIi"
    }
   ],
   "return_type" : "_ZTIa",
   "source_file" : "external/icu/libicu/src/shim.cpp"
  },
  {
   "function_name" : "unorm2_isInert",
   "linker_set_key" : "unorm2_isInert",
   "parameters" :
   [
    {
     "referenced_type" : "_ZTIPK12UNormalizer2"
    },
    {
     "referenced_type" : "_ZTIi"
    }
   ],
   "return_type" : "_ZTIa",
   "source_file" : "external/icu/libicu/src/shim.cpp"
  },
  {
   "function_name" : "unorm2_isNormalized",
   "linker_set_key" : "unorm2_isNormalized",
   "parameters" :
   [
    {
     "referenced_type" : "_ZTIPK12UNormalizer2"
    },
    {
     "referenced_type" : "_ZTIPKDs"
    },
    {
     "referenced_type" : "_ZTIi"
    },
    {
     "referenced_type" : "_ZTIP10UErrorCode"
    }
   ],
   "return_type" : "_ZTIa",
   "source_file" : "external/icu/libicu/src/shim.cpp"
  },
  {
   "function_name" : "unorm2_normalize",
   "linker_set_key" : "unorm2_normalize",
   "parameters" :
   [
    {
     "referenced_type" : "_ZTIPK12UNormalizer2"
    },
    {
     "referenced_type" : "_ZTIPKDs"
    },
    {
     "referenced_type" : "_ZTIi"
    },
    {
     "referenced_type" : "_ZTIPDs"
    },
    {
     "referenced_type" : "_ZTIi"
    },
    {
     "referenced_type" : "_ZTIP10UErrorCode"
    }
   ],
   "return_type" : "_ZTIi",
   "source_file" : "external/icu/libicu/src/shim.cpp"
  },
  {
   "function_name" : "unorm2_normalizeSecondAndAppend",
   "linker_set_key" : "unorm2_normalizeSecondAndAppend",
   "parameters" :
   [
    {
     "referenced_type" : "_ZTIPK12UNormalizer2"
    },
    {
     "referenced_type" : "_ZTIPDs"
    },
    {
     "referenced_type" : "_ZTIi"
    },
    {
     "referenced_type" : "_ZTIi"
    },
    {
     "referenced_type" : "_ZTIPKDs"
    },
    {
     "referenced_type" : "_ZTIi"
    },
    {
     "referenced_type" : "_ZTIP10UErrorCode"
    }
   ],
   "return_type" : "_ZTIi",
   "source_file" : "external/icu/libicu/src/shim.cpp"
  },
  {
   "function_name" : "unorm2_quickCheck",
   "linker_set_key" : "unorm2_quickCheck",
   "parameters" :
   [
    {
     "referenced_type" : "_ZTIPK12UNormalizer2"
    },
    {
     "referenced_type" : "_ZTIPKDs"
    },
    {
     "referenced_type" : "_ZTIi"
    },
    {
     "referenced_type" : "_ZTIP10UErrorCode"
    }
   ],
   "return_type" : "_ZTI25UNormalizationCheckResult",
   "source_file" : "external/icu/libicu/src/shim.cpp"
  },
  {
   "function_name" : "unorm2_spanQuickCheckYes",
   "linker_set_key" : "unorm2_spanQuickCheckYes",
   "parameters" :
   [
    {
     "referenced_type" : "_ZTIPK12UNormalizer2"
    },
    {
     "referenced_type" : "_ZTIPKDs"
    },
    {
     "referenced_type" : "_ZTIi"
    },
    {
     "referenced_type" : "_ZTIP10UErrorCode"
    }
   ],
   "return_type" : "_ZTIi",
   "source_file" : "external/icu/libicu/src/shim.cpp"
  },
  {
   "function_name" : "uscript_breaksBetweenLetters",
   "linker_set_key" : "uscript_breaksBetweenLetters",
   "parameters" :
   [
    {
     "referenced_type" : "_ZTI11UScriptCode"
    }
   ],
   "return_type" : "_ZTIa",
   "source_file" : "external/icu/libicu/src/shim.cpp"
  },
  {
   "function_name" : "uscript_getCode",
   "linker_set_key" : "uscript_getCode",
   "parameters" :
   [
    {
     "referenced_type" : "_ZTIPKc"
    },
    {
     "referenced_type" : "_ZTIP11UScriptCode"
    },
    {
     "referenced_type" : "_ZTIi"
    },
    {
     "referenced_type" : "_ZTIP10UErrorCode"
    }
   ],
   "return_type" : "_ZTIi",
   "source_file" : "external/icu/libicu/src/shim.cpp"
  },
  {
   "function_name" : "uscript_getName",
   "linker_set_key" : "uscript_getName",
   "parameters" :
   [
    {
     "referenced_type" : "_ZTI11UScriptCode"
    }
   ],
   "return_type" : "_ZTIPKc",
   "source_file" : "external/icu/libicu/src/shim.cpp"
  },
  {
   "function_name" : "uscript_getSampleString",
   "linker_set_key" : "uscript_getSampleString",
   "parameters" :
   [
    {
     "referenced_type" : "_ZTI11UScriptCode"
    },
    {
     "referenced_type" : "_ZTIPDs"
    },
    {
     "referenced_type" : "_ZTIi"
    },
    {
     "referenced_type" : "_ZTIP10UErrorCode"
    }
   ],
   "return_type" : "_ZTIi",
   "source_file" : "external/icu/libicu/src/shim.cpp"
  },
  {
   "function_name" : "uscript_getScript",
   "linker_set_key" : "uscript_getScript",
   "parameters" :
   [
    {
     "referenced_type" : "_ZTIi"
    },
    {
     "referenced_type" : "_ZTIP10UErrorCode"
    }
   ],
   "return_type" : "_ZTI11UScriptCode",
   "source_file" : "external/icu/libicu/src/shim.cpp"
  },
  {
   "function_name" : "uscript_getScriptExtensions",
   "linker_set_key" : "uscript_getScriptExtensions",
   "parameters" :
   [
    {
     "referenced_type" : "_ZTIi"
    },
    {
     "referenced_type" : "_ZTIP11UScriptCode"
    },
    {
     "referenced_type" : "_ZTIi"
    },
    {
     "referenced_type" : "_ZTIP10UErrorCode"
    }
   ],
   "return_type" : "_ZTIi",
   "source_file" : "external/icu/libicu/src/shim.cpp"
  },
  {
   "function_name" : "uscript_getShortName",
   "linker_set_key" : "uscript_getShortName",
   "parameters" :
   [
    {
     "referenced_type" : "_ZTI11UScriptCode"
    }
   ],
   "return_type" : "_ZTIPKc",
   "source_file" : "external/icu/libicu/src/shim.cpp"
  },
  {
   "function_name" : "uscript_getUsage",
   "linker_set_key" : "uscript_getUsage",
   "parameters" :
   [
    {
     "referenced_type" : "_ZTI11UScriptCode"
    }
   ],
   "return_type" : "_ZTI12UScriptUsage",
   "source_file" : "external/icu/libicu/src/shim.cpp"
  },
  {
   "function_name" : "uscript_hasScript",
   "linker_set_key" : "uscript_hasScript",
   "parameters" :
   [
    {
     "referenced_type" : "_ZTIi"
    },
    {
     "referenced_type" : "_ZTI11UScriptCode"
    }
   ],
   "return_type" : "_ZTIa",
   "source_file" : "external/icu/libicu/src/shim.cpp"
  },
  {
   "function_name" : "uscript_isCased",
   "linker_set_key" : "uscript_isCased",
   "parameters" :
   [
    {
     "referenced_type" : "_ZTI11UScriptCode"
    }
   ],
   "return_type" : "_ZTIa",
   "source_file" : "external/icu/libicu/src/shim.cpp"
  },
  {
   "function_name" : "uscript_isRightToLeft",
   "linker_set_key" : "uscript_isRightToLeft",
   "parameters" :
   [
    {
     "referenced_type" : "_ZTI11UScriptCode"
    }
   ],
   "return_type" : "_ZTIa",
   "source_file" : "external/icu/libicu/src/shim.cpp"
  },
  {
   "function_name" : "utext_char32At",
   "linker_set_key" : "utext_char32At",
   "parameters" :
   [
    {
     "referenced_type" : "_ZTIP5UText"
    },
    {
     "referenced_type" : "_ZTIl"
    }
   ],
   "return_type" : "_ZTIi",
   "source_file" : "external/icu/libicu/src/shim.cpp"
  },
  {
   "function_name" : "utext_clone",
   "linker_set_key" : "utext_clone",
   "parameters" :
   [
    {
     "referenced_type" : "_ZTIP5UText"
    },
    {
     "referenced_type" : "_ZTIPK5UText"
    },
    {
     "referenced_type" : "_ZTIa"
    },
    {
     "referenced_type" : "_ZTIa"
    },
    {
     "referenced_type" : "_ZTIP10UErrorCode"
    }
   ],
   "return_type" : "_ZTIP5UText",
   "source_file" : "external/icu/libicu/src/shim.cpp"
  },
  {
   "function_name" : "utext_close",
   "linker_set_key" : "utext_close",
   "parameters" :
   [
    {
     "referenced_type" : "_ZTIP5UText"
    }
   ],
   "return_type" : "_ZTIP5UText",
   "source_file" : "external/icu/libicu/src/shim.cpp"
  },
  {
   "function_name" : "utext_current32",
   "linker_set_key" : "utext_current32",
   "parameters" :
   [
    {
     "referenced_type" : "_ZTIP5UText"
    }
   ],
   "return_type" : "_ZTIi",
   "source_file" : "external/icu/libicu/src/shim.cpp"
  },
  {
   "function_name" : "utext_equals",
   "linker_set_key" : "utext_equals",
   "parameters" :
   [
    {
     "referenced_type" : "_ZTIPK5UText"
    },
    {
     "referenced_type" : "_ZTIPK5UText"
    }
   ],
   "return_type" : "_ZTIa",
   "source_file" : "external/icu/libicu/src/shim.cpp"
  },
  {
   "function_name" : "utext_extract",
   "linker_set_key" : "utext_extract",
   "parameters" :
   [
    {
     "referenced_type" : "_ZTIP5UText"
    },
    {
     "referenced_type" : "_ZTIl"
    },
    {
     "referenced_type" : "_ZTIl"
    },
    {
     "referenced_type" : "_ZTIPDs"
    },
    {
     "referenced_type" : "_ZTIi"
    },
    {
     "referenced_type" : "_ZTIP10UErrorCode"
    }
   ],
   "return_type" : "_ZTIi",
   "source_file" : "external/icu/libicu/src/shim.cpp"
  },
  {
   "function_name" : "utext_getNativeIndex",
   "linker_set_key" : "utext_getNativeIndex",
   "parameters" :
   [
    {
     "referenced_type" : "_ZTIPK5UText"
    }
   ],
   "return_type" : "_ZTIl",
   "source_file" : "external/icu/libicu/src/shim.cpp"
  },
  {
   "function_name" : "utext_moveIndex32",
   "linker_set_key" : "utext_moveIndex32",
   "parameters" :
   [
    {
     "referenced_type" : "_ZTIP5UText"
    },
    {
     "referenced_type" : "_ZTIi"
    }
   ],
   "return_type" : "_ZTIa",
   "source_file" : "external/icu/libicu/src/shim.cpp"
  },
  {
   "function_name" : "utext_nativeLength",
   "linker_set_key" : "utext_nativeLength",
   "parameters" :
   [
    {
     "referenced_type" : "_ZTIP5UText"
    }
   ],
   "return_type" : "_ZTIl",
   "source_file" : "external/icu/libicu/src/shim.cpp"
  },
  {
   "function_name" : "utext_next32",
   "linker_set_key" : "utext_next32",
   "parameters" :
   [
    {
     "referenced_type" : "_ZTIP5UText"
    }
   ],
   "return_type" : "_ZTIi",
   "source_file" : "external/icu/libicu/src/shim.cpp"
  },
  {
   "function_name" : "utext_next32From",
   "linker_set_key" : "utext_next32From",
   "parameters" :
   [
    {
     "referenced_type" : "_ZTIP5UText"
    },
    {
     "referenced_type" : "_ZTIl"
    }
   ],
   "return_type" : "_ZTIi",
   "source_file" : "external/icu/libicu/src/shim.cpp"
  },
  {
   "function_name" : "utext_openUChars",
   "linker_set_key" : "utext_openUChars",
   "parameters" :
   [
    {
     "referenced_type" : "_ZTIP5UText"
    },
    {
     "referenced_type" : "_ZTIPKDs"
    },
    {
     "referenced_type" : "_ZTIl"
    },
    {
     "referenced_type" : "_ZTIP10UErrorCode"
    }
   ],
   "return_type" : "_ZTIP5UText",
   "source_file" : "external/icu/libicu/src/shim.cpp"
  },
  {
   "function_name" : "utext_openUTF8",
   "linker_set_key" : "utext_openUTF8",
   "parameters" :
   [
    {
     "referenced_type" : "_ZTIP5UText"
    },
    {
     "referenced_type" : "_ZTIPKc"
    },
    {
     "referenced_type" : "_ZTIl"
    },
    {
     "referenced_type" : "_ZTIP10UErrorCode"
    }
   ],
   "return_type" : "_ZTIP5UText",
   "source_file" : "external/icu/libicu/src/shim.cpp"
  },
  {
   "function_name" : "utext_previous32",
   "linker_set_key" : "utext_previous32",
   "parameters" :
   [
    {
     "referenced_type" : "_ZTIP5UText"
    }
   ],
   "return_type" : "_ZTIi",
   "source_file" : "external/icu/libicu/src/shim.cpp"
  },
  {
   "function_name" : "utext_previous32From",
   "linker_set_key" : "utext_previous32From",
   "parameters" :
   [
    {
     "referenced_type" : "_ZTIP5UText"
    },
    {
     "referenced_type" : "_ZTIl"
    }
   ],
   "return_type" : "_ZTIi",
   "source_file" : "external/icu/libicu/src/shim.cpp"
  },
  {
   "function_name" : "utext_setNativeIndex",
   "linker_set_key" : "utext_setNativeIndex",
   "parameters" :
   [
    {
     "referenced_type" : "_ZTIP5UText"
    },
    {
     "referenced_type" : "_ZTIl"
    }
   ],
   "return_type" : "_ZTIv",
   "source_file" : "external/icu/libicu/src/shim.cpp"
  }
 ],
 "global_vars" :
 [
  {
   "linker_set_key" : "utf8_countTrailBytes_68",
   "name" : "utf8_countTrailBytes_68",
   "referenced_type" : "_ZTIA_Kh",
   "source_file" : "external/icu/icu4c/source/common/unicode/utf_old.h"
  }
 ],
 "lvalue_reference_types" : [],
 "pointer_types" :
 [
  {
   "alignment" : 8,
   "linker_set_key" : "_ZTIP10UErrorCode",
   "name" : "UErrorCode *",
   "referenced_type" : "_ZTI10UErrorCode",
   "self_type" : "_ZTIP10UErrorCode",
   "size" : 8,
   "source_file" : "external/icu/icu4c/source/common/unicode/utext.h"
  },
  {
   "alignment" : 8,
   "linker_set_key" : "_ZTIP11UScriptCode",
   "name" : "UScriptCode *",
   "referenced_type" : "_ZTI11UScriptCode",
   "self_type" : "_ZTIP11UScriptCode",
   "size" : 8,
   "source_file" : "external/icu/libicu/src/shim.cpp"
  },
  {
   "alignment" : 8,
   "linker_set_key" : "_ZTIP12UEnumeration",
   "name" : "UEnumeration *",
   "referenced_type" : "_ZTI12UEnumeration",
   "self_type" : "_ZTIP12UEnumeration",
   "size" : 8,
   "source_file" : "external/icu/libicu/src/shim.cpp"
  },
  {
   "alignment" : 8,
   "linker_set_key" : "_ZTIP12UNormalizer2",
   "name" : "UNormalizer2 *",
   "referenced_type" : "_ZTI12UNormalizer2",
   "self_type" : "_ZTIP12UNormalizer2",
   "size" : 8,
   "source_file" : "external/icu/libicu/src/shim.cpp"
  },
  {
   "alignment" : 8,
   "linker_set_key" : "_ZTIP13UAcceptResult",
   "name" : "UAcceptResult *",
   "referenced_type" : "_ZTI13UAcceptResult",
   "self_type" : "_ZTIP13UAcceptResult",
   "size" : 8,
   "source_file" : "external/icu/libicu/src/shim.cpp"
  },
  {
   "alignment" : 8,
   "linker_set_key" : "_ZTIP13UCharIterator",
   "name" : "UCharIterator *",
   "referenced_type" : "_ZTI13UCharIterator",
   "self_type" : "_ZTIP13UCharIterator",
   "size" : 8,
   "source_file" : "external/icu/icu4c/source/common/unicode/uiter.h"
  },
  {
   "alignment" : 8,
   "linker_set_key" : "_ZTIP14UBreakIterator",
   "name" : "UBreakIterator *",
   "referenced_type" : "_ZTI14UBreakIterator",
   "self_type" : "_ZTIP14UBreakIterator",
   "size" : 8,
   "source_file" : "external/icu/libicu/src/shim.cpp"
  },
  {
   "alignment" : 8,
   "linker_set_key" : "_ZTIP15UDisplayContext",
   "name" : "UDisplayContext *",
   "referenced_type" : "_ZTI15UDisplayContext",
   "self_type" : "_ZTIP15UDisplayContext",
   "size" : 8,
   "source_file" : "external/icu/libicu/src/shim.cpp"
  },
  {
   "alignment" : 8,
   "linker_set_key" : "_ZTIP19ULocaleDisplayNames",
   "name" : "ULocaleDisplayNames *",
   "referenced_type" : "_ZTI19ULocaleDisplayNames",
   "self_type" : "_ZTIP19ULocaleDisplayNames",
   "size" : 8,
   "source_file" : "external/icu/libicu/src/shim.cpp"
  },
  {
   "alignment" : 8,
   "linker_set_key" : "_ZTIP5UBiDi",
   "name" : "UBiDi *",
   "referenced_type" : "_ZTI5UBiDi",
   "self_type" : "_ZTIP5UBiDi",
   "size" : 8,
   "source_file" : "external/icu/libicu/src/shim.cpp"
  },
  {
   "alignment" : 8,
   "linker_set_key" : "_ZTIP5UText",
   "name" : "UText *",
   "referenced_type" : "_ZTI5UText",
   "self_type" : "_ZTIP5UText",
   "size" : 8,
   "source_file" : "external/icu/icu4c/source/common/unicode/utext.h"
  },
  {
   "alignment" : 8,
   "linker_set_key" : "_ZTIPDs",
   "name" : "char16_t *",
   "referenced_type" : "_ZTIDs",
   "self_type" : "_ZTIPDs",
   "size" : 8,
   "source_file" : "external/icu/icu4c/source/common/unicode/utext.h"
  },
  {
   "alignment" : 8,
   "linker_set_key" : "_ZTIPF14UCharDirectionPKviE",
   "name" : "UCharDirection (*)(const void *, int)",
   "referenced_type" : "_ZTIF14UCharDirectionPKviE",
   "self_type" : "_ZTIPF14UCharDirectionPKviE",
   "size" : 8,
   "source_file" : "external/icu/libicu/src/shim.cpp"
  },
  {
   "alignment" : 8,
   "linker_set_key" : "_ZTIPFP5UTextS0_PKS_aP10UErrorCodeE",
   "name" : "UText *(*)(UText *, const UText *, signed char, UErrorCode *)",
   "referenced_type" : "_ZTIFP5UTextS0_PKS_aP10UErrorCodeE",
   "self_type" : "_ZTIPFP5UTextS0_PKS_aP10UErrorCodeE",
   "size" : 8,
   "source_file" : "external/icu/icu4c/source/common/unicode/utext.h"
  },
  {
   "alignment" : 8,
   "linker_set_key" : "_ZTIPFaP13UCharIteratorE",
   "name" : "signed char (*)(UCharIterator *)",
   "referenced_type" : "_ZTIFaP13UCharIteratorE",
   "self_type" : "_ZTIPFaP13UCharIteratorE",
   "size" : 8,
   "source_file" : "external/icu/icu4c/source/common/unicode/uiter.h"
  },
  {
   "alignment" : 8,
   "linker_set_key" : "_ZTIPFaP5UTextlaE",
   "name" : "signed char (*)(UText *, long, signed char)",
   "referenced_type" : "_ZTIFaP5UTextlaE",
   "self_type" : "_ZTIPFaP5UTextlaE",
   "size" : 8,
   "source_file" : "external/icu/icu4c/source/common/unicode/utext.h"
  },
  {
   "alignment" : 8,
   "linker_set_key" : "_ZTIPFaPKvii13UCharCategoryE",
   "name" : "signed char (*)(const void *, int, int, UCharCategory)",
   "referenced_type" : "_ZTIFaPKvii13UCharCategoryE",
   "self_type" : "_ZTIPFaPKvii13UCharCategoryE",
   "size" : 8,
   "source_file" : "external/icu/libicu/src/shim.cpp"
  },
  {
   "alignment" : 8,
   "linker_set_key" : "_ZTIPFaPvi15UCharNameChoicePKciE",
   "name" : "signed char (*)(void *, int, UCharNameChoice, const char *, int)",
   "referenced_type" : "_ZTIFaPvi15UCharNameChoicePKciE",
   "self_type" : "_ZTIPFaPvi15UCharNameChoicePKciE",
   "size" : 8,
   "source_file" : "external/icu/libicu/src/shim.cpp"
  },
  {
   "alignment" : 8,
   "linker_set_key" : "_ZTIPFiP13UCharIterator19UCharIteratorOriginE",
   "name" : "int (*)(UCharIterator *, UCharIteratorOrigin)",
   "referenced_type" : "_ZTIFiP13UCharIterator19UCharIteratorOriginE",
   "self_type" : "_ZTIPFiP13UCharIterator19UCharIteratorOriginE",
   "size" : 8,
   "source_file" : "external/icu/icu4c/source/common/unicode/uiter.h"
  },
  {
   "alignment" : 8,
   "linker_set_key" : "_ZTIPFiP13UCharIteratorE",
   "name" : "int (*)(UCharIterator *)",
   "referenced_type" : "_ZTIFiP13UCharIteratorE",
   "self_type" : "_ZTIPFiP13UCharIteratorE",
   "size" : 8,
   "source_file" : "external/icu/icu4c/source/common/unicode/uiter.h"
  },
  {
   "alignment" : 8,
   "linker_set_key" : "_ZTIPFiP13UCharIteratori19UCharIteratorOriginE",
   "name" : "int (*)(UCharIterator *, int, UCharIteratorOrigin)",
   "referenced_type" : "_ZTIFiP13UCharIteratori19UCharIteratorOriginE",
   "self_type" : "_ZTIPFiP13UCharIteratori19UCharIteratorOriginE",
   "size" : 8,
   "source_file" : "external/icu/icu4c/source/common/unicode/uiter.h"
  },
  {
   "alignment" : 8,
   "linker_set_key" : "_ZTIPFiP13UCharIteratoriE",
   "name" : "int (*)(UCharIterator *, int)",
   "referenced_type" : "_ZTIFiP13UCharIteratoriE",
   "self_type" : "_ZTIPFiP13UCharIteratoriE",
   "size" : 8,
   "source_file" : "external/icu/icu4c/source/common/unicode/uiter.h"
  },
  {
   "alignment" : 8,
   "linker_set_key" : "_ZTIPFiP5UTextllPDsiP10UErrorCodeE",
   "name" : "int (*)(UText *, long, long, char16_t *, int, UErrorCode *)",
   "referenced_type" : "_ZTIFiP5UTextllPDsiP10UErrorCodeE",
   "self_type" : "_ZTIPFiP5UTextllPDsiP10UErrorCodeE",
   "size" : 8,
   "source_file" : "external/icu/icu4c/source/common/unicode/utext.h"
  },
  {
   "alignment" : 8,
   "linker_set_key" : "_ZTIPFiP5UTextllPKDsiP10UErrorCodeE",
   "name" : "int (*)(UText *, long, long, const char16_t *, int, UErrorCode *)",
   "referenced_type" : "_ZTIFiP5UTextllPKDsiP10UErrorCodeE",
   "self_type" : "_ZTIPFiP5UTextllPKDsiP10UErrorCodeE",
   "size" : 8,
   "source_file" : "external/icu/icu4c/source/common/unicode/utext.h"
  },
  {
   "alignment" : 8,
   "linker_set_key" : "_ZTIPFiPK5UTextlE",
   "name" : "int (*)(const UText *, long)",
   "referenced_type" : "_ZTIFiPK5UTextlE",
   "self_type" : "_ZTIPFiPK5UTextlE",
   "size" : 8,
   "source_file" : "external/icu/icu4c/source/common/unicode/utext.h"
  },
  {
   "alignment" : 8,
   "linker_set_key" : "_ZTIPFjPK13UCharIteratorE",
   "name" : "unsigned int (*)(const UCharIterator *)",
   "referenced_type" : "_ZTIFjPK13UCharIteratorE",
   "self_type" : "_ZTIPFjPK13UCharIteratorE",
   "size" : 8,
   "source_file" : "external/icu/icu4c/source/common/unicode/uiter.h"
  },
  {
   "alignment" : 8,
   "linker_set_key" : "_ZTIPFlP5UTextE",
   "name" : "long (*)(UText *)",
   "referenced_type" : "_ZTIFlP5UTextE",
   "self_type" : "_ZTIPFlP5UTextE",
   "size" : 8,
   "source_file" : "external/icu/icu4c/source/common/unicode/utext.h"
  },
  {
   "alignment" : 8,
   "linker_set_key" : "_ZTIPFlPK5UTextE",
   "name" : "long (*)(const UText *)",
   "referenced_type" : "_ZTIFlPK5UTextE",
   "self_type" : "_ZTIPFlPK5UTextE",
   "size" : 8,
   "source_file" : "external/icu/icu4c/source/common/unicode/utext.h"
  },
  {
   "alignment" : 8,
   "linker_set_key" : "_ZTIPFvP13UCharIteratorjP10UErrorCodeE",
   "name" : "void (*)(UCharIterator *, unsigned int, UErrorCode *)",
   "referenced_type" : "_ZTIFvP13UCharIteratorjP10UErrorCodeE",
   "self_type" : "_ZTIPFvP13UCharIteratorjP10UErrorCodeE",
   "size" : 8,
   "source_file" : "external/icu/icu4c/source/common/unicode/uiter.h"
  },
  {
   "alignment" : 8,
   "linker_set_key" : "_ZTIPFvP5UTextE",
   "name" : "void (*)(UText *)",
   "referenced_type" : "_ZTIFvP5UTextE",
   "self_type" : "_ZTIPFvP5UTextE",
   "size" : 8,
   "source_file" : "external/icu/icu4c/source/common/unicode/utext.h"
  },
  {
   "alignment" : 8,
   "linker_set_key" : "_ZTIPFvP5UTextlllaP10UErrorCodeE",
   "name" : "void (*)(UText *, long, long, long, signed char, UErrorCode *)",
   "referenced_type" : "_ZTIFvP5UTextlllaP10UErrorCodeE",
   "self_type" : "_ZTIPFvP5UTextlllaP10UErrorCodeE",
   "size" : 8,
   "source_file" : "external/icu/icu4c/source/common/unicode/utext.h"
  },
  {
   "alignment" : 8,
   "linker_set_key" : "_ZTIPK10UTextFuncs",
   "name" : "const UTextFuncs *",
   "referenced_type" : "_ZTIK10UTextFuncs",
   "self_type" : "_ZTIPK10UTextFuncs",
   "size" : 8,
   "source_file" : "external/icu/icu4c/source/common/unicode/utext.h"
  },
  {
   "alignment" : 8,
   "linker_set_key" : "_ZTIPK12UNormalizer2",
   "name" : "const UNormalizer2 *",
   "referenced_type" : "_ZTIK12UNormalizer2",
   "self_type" : "_ZTIPK12UNormalizer2",
   "size" : 8,
   "source_file" : "external/icu/libicu/src/shim.cpp"
  },
  {
   "alignment" : 8,
   "linker_set_key" : "_ZTIPK13UCharIterator",
   "name" : "const UCharIterator *",
   "referenced_type" : "_ZTIK13UCharIterator",
   "self_type" : "_ZTIPK13UCharIterator",
   "size" : 8,
   "source_file" : "external/icu/icu4c/source/common/unicode/uiter.h"
  },
  {
   "alignment" : 8,
   "linker_set_key" : "_ZTIPK14UBreakIterator",
   "name" : "const UBreakIterator *",
   "referenced_type" : "_ZTIK14UBreakIterator",
   "self_type" : "_ZTIPK14UBreakIterator",
   "size" : 8,
   "source_file" : "external/icu/libicu/src/shim.cpp"
  },
  {
   "alignment" : 8,
   "linker_set_key" : "_ZTIPK19ULocaleDisplayNames",
   "name" : "const ULocaleDisplayNames *",
   "referenced_type" : "_ZTIK19ULocaleDisplayNames",
   "self_type" : "_ZTIPK19ULocaleDisplayNames",
   "size" : 8,
   "source_file" : "external/icu/libicu/src/shim.cpp"
  },
  {
   "alignment" : 8,
   "linker_set_key" : "_ZTIPK5UBiDi",
   "name" : "const UBiDi *",
   "referenced_type" : "_ZTIK5UBiDi",
   "self_type" : "_ZTIPK5UBiDi",
   "size" : 8,
   "source_file" : "external/icu/libicu/src/shim.cpp"
  },
  {
   "alignment" : 8,
   "linker_set_key" : "_ZTIPK5UText",
   "name" : "const UText *",
   "referenced_type" : "_ZTIK5UText",
   "self_type" : "_ZTIPK5UText",
   "size" : 8,
   "source_file" : "external/icu/icu4c/source/common/unicode/utext.h"
  },
  {
   "alignment" : 8,
   "linker_set_key" : "_ZTIPKDs",
   "name" : "const char16_t *",
   "referenced_type" : "_ZTIKDs",
   "self_type" : "_ZTIPKDs",
   "size" : 8,
   "source_file" : "external/icu/icu4c/source/common/unicode/utext.h"
  },
  {
   "alignment" : 8,
   "linker_set_key" : "_ZTIPKPKDs",
   "name" : "const char16_t *const *",
   "referenced_type" : "_ZTIKPKDs",
   "self_type" : "_ZTIPKPKDs",
   "size" : 8,
   "source_file" : "external/icu/libicu/src/shim.cpp"
  },
  {
   "alignment" : 8,
   "linker_set_key" : "_ZTIPKPKc",
   "name" : "const char *const *",
   "referenced_type" : "_ZTIKPKc",
   "self_type" : "_ZTIPKPKc",
   "size" : 8,
   "source_file" : "external/icu/libicu/src/shim.cpp"
  },
  {
   "alignment" : 8,
   "linker_set_key" : "_ZTIPKc",
   "name" : "const char *",
   "referenced_type" : "_ZTIKc",
   "self_type" : "_ZTIPKc",
   "size" : 8,
   "source_file" : "external/icu/libicu/src/shim.cpp"
  },
  {
   "alignment" : 8,
   "linker_set_key" : "_ZTIPKh",
   "name" : "const unsigned char *",
   "referenced_type" : "_ZTIKh",
   "self_type" : "_ZTIPKh",
   "size" : 8,
   "source_file" : "external/icu/libicu/src/shim.cpp"
  },
  {
   "alignment" : 8,
   "linker_set_key" : "_ZTIPKi",
   "name" : "const int *",
   "referenced_type" : "_ZTIKi",
   "self_type" : "_ZTIPKi",
   "size" : 8,
   "source_file" : "external/icu/libicu/src/shim.cpp"
  },
  {
   "alignment" : 8,
   "linker_set_key" : "_ZTIPKt",
   "name" : "const unsigned short *",
   "referenced_type" : "_ZTIKt",
   "self_type" : "_ZTIPKt",
   "size" : 8,
   "source_file" : "external/icu/icu4c/source/common/unicode/uset.h"
  },
  {
   "alignment" : 8,
   "linker_set_key" : "_ZTIPKv",
   "name" : "const void *",
   "referenced_type" : "_ZTIKv",
   "self_type" : "_ZTIPKv",
   "size" : 8,
   "source_file" : "external/icu/icu4c/source/common/unicode/utext.h"
  },
  {
   "alignment" : 8,
   "linker_set_key" : "_ZTIPPDs",
   "name" : "char16_t **",
   "referenced_type" : "_ZTIPDs",
   "self_type" : "_ZTIPPDs",
   "size" : 8,
   "source_file" : "external/icu/libicu/src/shim.cpp"
  },
  {
   "alignment" : 8,
   "linker_set_key" : "_ZTIPPF14UCharDirectionPKviE",
   "name" : "UCharDirection (**)(const void *, int)",
   "referenced_type" : "_ZTIPF14UCharDirectionPKviE",
   "self_type" : "_ZTIPPF14UCharDirectionPKviE",
   "size" : 8,
   "source_file" : "external/icu/libicu/src/shim.cpp"
  },
  {
   "alignment" : 8,
   "linker_set_key" : "_ZTIPPKc",
   "name" : "const char **",
   "referenced_type" : "_ZTIPKc",
   "self_type" : "_ZTIPPKc",
   "size" : 8,
   "source_file" : "external/icu/libicu/src/shim.cpp"
  },
  {
   "alignment" : 8,
   "linker_set_key" : "_ZTIPPKv",
   "name" : "const void **",
   "referenced_type" : "_ZTIPKv",
   "self_type" : "_ZTIPPKv",
   "size" : 8,
   "source_file" : "external/icu/libicu/src/shim.cpp"
  },
  {
   "alignment" : 8,
   "linker_set_key" : "_ZTIPc",
   "name" : "char *",
   "referenced_type" : "_ZTIc",
   "self_type" : "_ZTIPc",
   "size" : 8,
   "source_file" : "external/icu/libicu/src/shim.cpp"
  },
  {
   "alignment" : 8,
   "linker_set_key" : "_ZTIPh",
   "name" : "unsigned char *",
   "referenced_type" : "_ZTIh",
   "self_type" : "_ZTIPh",
   "size" : 8,
   "source_file" : "external/icu/libicu/src/shim.cpp"
  },
  {
   "alignment" : 8,
   "linker_set_key" : "_ZTIPi",
   "name" : "int *",
   "referenced_type" : "_ZTIi",
   "self_type" : "_ZTIPi",
   "size" : 8,
   "source_file" : "external/icu/libicu/src/shim.cpp"
  },
  {
   "alignment" : 8,
   "linker_set_key" : "_ZTIPv",
   "name" : "void *",
   "referenced_type" : "_ZTIv",
   "self_type" : "_ZTIPv",
   "size" : 8,
   "source_file" : "external/icu/icu4c/source/common/unicode/utext.h"
  }
 ],
 "qualified_types" :
 [
  {
   "is_const" : true,
   "linker_set_key" : "_ZTIA_Kh",
   "name" : "unsigned char const[]",
   "referenced_type" : "_ZTIA_h",
   "self_type" : "_ZTIA_Kh",
   "source_file" : "external/icu/icu4c/source/common/unicode/utf_old.h"
  },
  {
   "alignment" : 8,
   "is_const" : true,
   "linker_set_key" : "_ZTIK10UTextFuncs",
   "name" : "const UTextFuncs",
   "referenced_type" : "_ZTI10UTextFuncs",
   "self_type" : "_ZTIK10UTextFuncs",
   "size" : 112,
   "source_file" : "external/icu/icu4c/source/common/unicode/utext.h"
  },
  {
   "is_const" : true,
   "linker_set_key" : "_ZTIK12UNormalizer2",
   "name" : "const UNormalizer2",
   "referenced_type" : "_ZTI12UNormalizer2",
   "self_type" : "_ZTIK12UNormalizer2",
   "source_file" : "external/icu/libicu/src/shim.cpp"
  },
  {
   "alignment" : 8,
   "is_const" : true,
   "linker_set_key" : "_ZTIK13UCharIterator",
   "name" : "const UCharIterator",
   "referenced_type" : "_ZTI13UCharIterator",
   "self_type" : "_ZTIK13UCharIterator",
   "size" : 112,
   "source_file" : "external/icu/icu4c/source/common/unicode/uiter.h"
  },
  {
   "is_const" : true,
   "linker_set_key" : "_ZTIK14UBreakIterator",
   "name" : "const UBreakIterator",
   "referenced_type" : "_ZTI14UBreakIterator",
   "self_type" : "_ZTIK14UBreakIterator",
   "source_file" : "external/icu/libicu/src/shim.cpp"
  },
  {
   "is_const" : true,
   "linker_set_key" : "_ZTIK19ULocaleDisplayNames",
   "name" : "const ULocaleDisplayNames",
   "referenced_type" : "_ZTI19ULocaleDisplayNames",
   "self_type" : "_ZTIK19ULocaleDisplayNames",
   "source_file" : "external/icu/libicu/src/shim.cpp"
  },
  {
   "is_const" : true,
   "linker_set_key" : "_ZTIK5UBiDi",
   "name" : "const UBiDi",
   "referenced_type" : "_ZTI5UBiDi",
   "self_type" : "_ZTIK5UBiDi",
   "source_file" : "external/icu/libicu/src/shim.cpp"
  },
  {
   "alignment" : 8,
   "is_const" : true,
   "linker_set_key" : "_ZTIK5UText",
   "name" : "const UText",
   "referenced_type" : "_ZTI5UText",
   "self_type" : "_ZTIK5UText",
   "size" : 144,
   "source_file" : "external/icu/icu4c/source/common/unicode/utext.h"
  },
  {
   "alignment" : 2,
   "is_const" : true,
   "linker_set_key" : "_ZTIKDs",
   "name" : "const char16_t",
   "referenced_type" : "_ZTIDs",
   "self_type" : "_ZTIKDs",
   "size" : 2,
   "source_file" : "external/icu/icu4c/source/common/unicode/utext.h"
  },
  {
   "alignment" : 8,
   "is_const" : true,
   "linker_set_key" : "_ZTIKPKDs",
   "name" : "const char16_t *const",
   "referenced_type" : "_ZTIPKDs",
   "self_type" : "_ZTIKPKDs",
   "size" : 8,
   "source_file" : "external/icu/libicu/src/shim.cpp"
  },
  {
   "alignment" : 8,
   "is_const" : true,
   "linker_set_key" : "_ZTIKPKc",
   "name" : "const char *const",
   "referenced_type" : "_ZTIPKc",
   "self_type" : "_ZTIKPKc",
   "size" : 8,
   "source_file" : "external/icu/libicu/src/shim.cpp"
  },
  {
   "alignment" : 1,
   "is_const" : true,
   "linker_set_key" : "_ZTIKc",
   "name" : "const char",
   "referenced_type" : "_ZTIc",
   "self_type" : "_ZTIKc",
   "size" : 1,
   "source_file" : "external/icu/libicu/src/shim.cpp"
  },
  {
   "alignment" : 1,
   "is_const" : true,
   "linker_set_key" : "_ZTIKh",
   "name" : "const unsigned char",
   "referenced_type" : "_ZTIh",
   "self_type" : "_ZTIKh",
   "size" : 1,
   "source_file" : "external/icu/libicu/src/shim.cpp"
  },
  {
   "alignment" : 4,
   "is_const" : true,
   "linker_set_key" : "_ZTIKi",
   "name" : "const int",
   "referenced_type" : "_ZTIi",
   "self_type" : "_ZTIKi",
   "size" : 4,
   "source_file" : "external/icu/libicu/src/shim.cpp"
  },
  {
   "alignment" : 2,
   "is_const" : true,
   "linker_set_key" : "_ZTIKt",
   "name" : "const unsigned short",
   "referenced_type" : "_ZTIt",
   "self_type" : "_ZTIKt",
   "size" : 2,
   "source_file" : "external/icu/icu4c/source/common/unicode/uset.h"
  },
  {
   "is_const" : true,
   "linker_set_key" : "_ZTIKv",
   "name" : "const void",
   "referenced_type" : "_ZTIv",
   "self_type" : "_ZTIKv",
   "source_file" : "external/icu/icu4c/source/common/unicode/utext.h"
  }
 ],
 "record_types" :
 [
  {
   "alignment" : 8,
   "fields" :
   [
    {
     "field_name" : "tableSize",
     "referenced_type" : "_ZTIi"
    },
    {
     "field_name" : "reserved1",
     "field_offset" : 32,
     "referenced_type" : "_ZTIi"
    },
    {
     "field_name" : "reserved2",
     "field_offset" : 64,
     "referenced_type" : "_ZTIi"
    },
    {
     "field_name" : "reserved3",
     "field_offset" : 96,
     "referenced_type" : "_ZTIi"
    },
    {
     "field_name" : "clone",
     "field_offset" : 128,
     "referenced_type" : "_ZTIPFP5UTextS0_PKS_aP10UErrorCodeE"
    },
    {
     "field_name" : "nativeLength",
     "field_offset" : 192,
     "referenced_type" : "_ZTIPFlP5UTextE"
    },
    {
     "field_name" : "access",
     "field_offset" : 256,
     "referenced_type" : "_ZTIPFaP5UTextlaE"
    },
    {
     "field_name" : "extract",
     "field_offset" : 320,
     "referenced_type" : "_ZTIPFiP5UTextllPDsiP10UErrorCodeE"
    },
    {
     "field_name" : "replace",
     "field_offset" : 384,
     "referenced_type" : "_ZTIPFiP5UTextllPKDsiP10UErrorCodeE"
    },
    {
     "field_name" : "copy",
     "field_offset" : 448,
     "referenced_type" : "_ZTIPFvP5UTextlllaP10UErrorCodeE"
    },
    {
     "field_name" : "mapOffsetToNative",
     "field_offset" : 512,
     "referenced_type" : "_ZTIPFlPK5UTextE"
    },
    {
     "field_name" : "mapNativeIndexToUTF16",
     "field_offset" : 576,
     "referenced_type" : "_ZTIPFiPK5UTextlE"
    },
    {
     "field_name" : "close",
     "field_offset" : 640,
     "referenced_type" : "_ZTIPFvP5UTextE"
    },
    {
     "field_name" : "spare1",
     "field_offset" : 704,
     "referenced_type" : "_ZTIPFvP5UTextE"
    },
    {
     "field_name" : "spare2",
     "field_offset" : 768,
     "referenced_type" : "_ZTIPFvP5UTextE"
    },
    {
     "field_name" : "spare3",
     "field_offset" : 832,
     "referenced_type" : "_ZTIPFvP5UTextE"
    }
   ],
   "linker_set_key" : "_ZTI10UTextFuncs",
   "name" : "UTextFuncs",
   "referenced_type" : "_ZTI10UTextFuncs",
   "self_type" : "_ZTI10UTextFuncs",
   "size" : 112,
   "source_file" : "external/icu/icu4c/source/common/unicode/utext.h"
  },
  {
   "alignment" : 4,
   "fields" :
   [
    {
     "field_name" : "line",
     "referenced_type" : "_ZTIi"
    },
    {
     "field_name" : "offset",
     "field_offset" : 32,
     "referenced_type" : "_ZTIi"
    },
    {
     "field_name" : "preContext",
     "field_offset" : 64,
     "referenced_type" : "_ZTIA16_Ds"
    },
    {
     "field_name" : "postContext",
     "field_offset" : 320,
     "referenced_type" : "_ZTIA16_Ds"
    }
   ],
   "linker_set_key" : "_ZTI11UParseError",
   "name" : "UParseError",
   "referenced_type" : "_ZTI11UParseError",
   "self_type" : "_ZTI11UParseError",
   "size" : 72,
   "source_file" : "external/icu/icu4c/source/common/unicode/parseerr.h"
  },
  {
   "alignment" : 16,
   "fields" :
   [
    {
     "field_name" : "__clang_max_align_nonce1",
     "referenced_type" : "_ZTIx"
    },
    {
     "field_name" : "__clang_max_align_nonce2",
     "field_offset" : 128,
     "referenced_type" : "_ZTIe"
    }
   ],
   "linker_set_key" : "_ZTI11max_align_t",
   "name" : "max_align_t",
   "referenced_type" : "_ZTI11max_align_t",
   "self_type" : "_ZTI11max_align_t",
   "size" : 32,
   "source_file" : "prebuilts/clang-tools/linux-x86/clang-headers/__stddef_max_align_t.h"
  },
  {
   "alignment" : 8,
   "fields" :
   [
    {
     "field_name" : "context",
     "referenced_type" : "_ZTIPKv"
    },
    {
     "field_name" : "length",
     "field_offset" : 64,
     "referenced_type" : "_ZTIi"
    },
    {
     "field_name" : "start",
     "field_offset" : 96,
     "referenced_type" : "_ZTIi"
    },
    {
     "field_name" : "index",
     "field_offset" : 128,
     "referenced_type" : "_ZTIi"
    },
    {
     "field_name" : "limit",
     "field_offset" : 160,
     "referenced_type" : "_ZTIi"
    },
    {
     "field_name" : "reservedField",
     "field_offset" : 192,
     "referenced_type" : "_ZTIi"
    },
    {
     "field_name" : "getIndex",
     "field_offset" : 256,
     "referenced_type" : "_ZTIPFiP13UCharIterator19UCharIteratorOriginE"
    },
    {
     "field_name" : "move",
     "field_offset" : 320,
     "referenced_type" : "_ZTIPFiP13UCharIteratori19UCharIteratorOriginE"
    },
    {
     "field_name" : "hasNext",
     "field_offset" : 384,
     "referenced_type" : "_ZTIPFaP13UCharIteratorE"
    },
    {
     "field_name" : "hasPrevious",
     "field_offset" : 448,
     "referenced_type" : "_ZTIPFaP13UCharIteratorE"
    },
    {
     "field_name" : "current",
     "field_offset" : 512,
     "referenced_type" : "_ZTIPFiP13UCharIteratorE"
    },
    {
     "field_name" : "next",
     "field_offset" : 576,
     "referenced_type" : "_ZTIPFiP13UCharIteratorE"
    },
    {
     "field_name" : "previous",
     "field_offset" : 640,
     "referenced_type" : "_ZTIPFiP13UCharIteratorE"
    },
    {
     "field_name" : "reservedFn",
     "field_offset" : 704,
     "referenced_type" : "_ZTIPFiP13UCharIteratoriE"
    },
    {
     "field_name" : "getState",
     "field_offset" : 768,
     "referenced_type" : "_ZTIPFjPK13UCharIteratorE"
    },
    {
     "field_name" : "setState",
     "field_offset" : 832,
     "referenced_type" : "_ZTIPFvP13UCharIteratorjP10UErrorCodeE"
    }
   ],
   "linker_set_key" : "_ZTI13UCharIterator",
   "name" : "UCharIterator",
   "referenced_type" : "_ZTI13UCharIterator",
   "self_type" : "_ZTI13UCharIterator",
   "size" : 112,
   "source_file" : "external/icu/icu4c/source/common/unicode/uiter.h"
  },
  {
   "alignment" : 8,
   "fields" :
   [
    {
     "field_name" : "array",
     "referenced_type" : "_ZTIPKt"
    },
    {
     "field_name" : "bmpLength",
     "field_offset" : 64,
     "referenced_type" : "_ZTIi"
    },
    {
     "field_name" : "length",
     "field_offset" : 96,
     "referenced_type" : "_ZTIi"
    },
    {
     "field_name" : "staticArray",
     "field_offset" : 128,
     "referenced_type" : "_ZTIA8_t"
    }
   ],
   "linker_set_key" : "_ZTI14USerializedSet",
   "name" : "USerializedSet",
   "referenced_type" : "_ZTI14USerializedSet",
   "self_type" : "_ZTI14USerializedSet",
   "size" : 32,
   "source_file" : "external/icu/icu4c/source/common/unicode/uset.h"
  },
  {
   "alignment" : 8,
   "fields" :
   [
    {
     "field_name" : "magic",
     "referenced_type" : "_ZTIj"
    },
    {
     "field_name" : "flags",
     "field_offset" : 32,
     "referenced_type" : "_ZTIi"
    },
    {
     "field_name" : "providerProperties",
     "field_offset" : 64,
     "referenced_type" : "_ZTIi"
    },
    {
     "field_name" : "sizeOfStruct",
     "field_offset" : 96,
     "referenced_type" : "_ZTIi"
    },
    {
     "field_name" : "chunkNativeLimit",
     "field_offset" : 128,
     "referenced_type" : "_ZTIl"
    },
    {
     "field_name" : "extraSize",
     "field_offset" : 192,
     "referenced_type" : "_ZTIi"
    },
    {
     "field_name" : "nativeIndexingLimit",
     "field_offset" : 224,
     "referenced_type" : "_ZTIi"
    },
    {
     "field_name" : "chunkNativeStart",
     "field_offset" : 256,
     "referenced_type" : "_ZTIl"
    },
    {
     "field_name" : "chunkOffset",
     "field_offset" : 320,
     "referenced_type" : "_ZTIi"
    },
    {
     "field_name" : "chunkLength",
     "field_offset" : 352,
     "referenced_type" : "_ZTIi"
    },
    {
     "field_name" : "chunkContents",
     "field_offset" : 384,
     "referenced_type" : "_ZTIPKDs"
    },
    {
     "field_name" : "pFuncs",
     "field_offset" : 448,
     "referenced_type" : "_ZTIPK10UTextFuncs"
    },
    {
     "field_name" : "pExtra",
     "field_offset" : 512,
     "referenced_type" : "_ZTIPv"
    },
    {
     "field_name" : "context",
     "field_offset" : 576,
     "referenced_type" : "_ZTIPKv"
    },
    {
     "field_name" : "p",
     "field_offset" : 640,
     "referenced_type" : "_ZTIPKv"
    },
    {
     "field_name" : "q",
     "field_offset" : 704,
     "referenced_type" : "_ZTIPKv"
    },
    {
     "field_name" : "r",
     "field_offset" : 768,
     "referenced_type" : "_ZTIPKv"
    },
    {
     "field_name" : "privP",
     "field_offset" : 832,
     "referenced_type" : "_ZTIPv"
    },
    {
     "field_name" : "a",
     "field_offset" : 896,
     "referenced_type" : "_ZTIl"
    },
    {
     "field_name" : "b",
     "field_offset" : 960,
     "referenced_type" : "_ZTIi"
    },
    {
     "field_name" : "c",
     "field_offset" : 992,
     "referenced_type" : "_ZTIi"
    },
    {
     "field_name" : "privA",
     "field_offset" : 1024,
     "referenced_type" : "_ZTIl"
    },
    {
     "field_name" : "privB",
     "field_offset" : 1088,
     "referenced_type" : "_ZTIi"
    },
    {
     "field_name" : "privC",
     "field_offset" : 1120,
     "referenced_type" : "_ZTIi"
    }
   ],
   "linker_set_key" : "_ZTI5UText",
   "name" : "UText",
   "referenced_type" : "_ZTI5UText",
   "self_type" : "_ZTI5UText",
   "size" : 144,
   "source_file" : "external/icu/icu4c/source/common/unicode/utext.h"
  }
 ],
 "rvalue_reference_types" : []
}
