{
 "array_types" : [],
 "builtin_types" : [],
 "elf_functions" : [],
 "elf_objects" : [],
 "enum_types" : [],
 "function_types" : [],
 "functions" :
 [
  {
   "function_name" : "android::nn::unvalidatedConvert",
   "linker_set_key" : "_ZN7android2nn18unvalidatedConvertERKNS_8hardware14neuralnetworks4V1_310BufferDescE",
   "parameters" :
   [
    {
     "referenced_type" : "_ZTIRKN7android8hardware14neuralnetworks4V1_310BufferDescE"
    }
   ],
   "return_type" : "_ZTIN7android4base8expectedINS_2nn10BufferDescENS2_12GeneralErrorEEE",
   "source_file" : "hardware/interfaces/neuralnetworks/1.3/utils/include/nnapi/hal/1.3/Conversions.h"
  },
  {
   "function_name" : "android::nn::unvalidatedConvert",
   "linker_set_key" : "_ZN7android2nn18unvalidatedConvertERKNS_8hardware14neuralnetworks4V1_310BufferRoleE",
   "parameters" :
   [
    {
     "referenced_type" : "_ZTIRKN7android8hardware14neuralnetworks4V1_310BufferRoleE"
    }
   ],
   "return_type" : "_ZTIN7android4base8expectedINS_2nn10BufferRoleENS2_12GeneralErrorEEE",
   "source_file" : "hardware/interfaces/neuralnetworks/1.3/utils/include/nnapi/hal/1.3/Conversions.h"
  },
  {
   "function_name" : "android::nn::unvalidatedConvert",
   "linker_set_key" : "_ZN7android2nn18unvalidatedConvertERKNS_8hardware14neuralnetworks4V1_311ErrorStatusE",
   "parameters" :
   [
    {
     "referenced_type" : "_ZTIRKN7android8hardware14neuralnetworks4V1_311ErrorStatusE"
    }
   ],
   "return_type" : "_ZTIN7android4base8expectedINS_2nn11ErrorStatusENS2_12GeneralErrorEEE",
   "source_file" : "hardware/interfaces/neuralnetworks/1.3/utils/include/nnapi/hal/1.3/Conversions.h"
  },
  {
   "function_name" : "android::nn::unvalidatedConvert",
   "linker_set_key" : "_ZN7android2nn18unvalidatedConvertERKNS_8hardware14neuralnetworks4V1_311OperandTypeE",
   "parameters" :
   [
    {
     "referenced_type" : "_ZTIRKN7android8hardware14neuralnetworks4V1_311OperandTypeE"
    }
   ],
   "return_type" : "_ZTIN7android4base8expectedINS_2nn11OperandTypeENS2_12GeneralErrorEEE",
   "source_file" : "hardware/interfaces/neuralnetworks/1.3/utils/include/nnapi/hal/1.3/Conversions.h"
  },
  {
   "function_name" : "android::nn::unvalidatedConvert",
   "linker_set_key" : "_ZN7android2nn18unvalidatedConvertERKNS_8hardware14neuralnetworks4V1_312Capabilities18OperandPerformanceE",
   "parameters" :
   [
    {
     "referenced_type" : "_ZTIRKN7android8hardware14neuralnetworks4V1_312Capabilities18OperandPerformanceE"
    }
   ],
   "return_type" : "_ZTIN7android4base8expectedINS_2nn12Capabilities18OperandPerformanceENS2_12GeneralErrorEEE",
   "source_file" : "hardware/interfaces/neuralnetworks/1.3/utils/include/nnapi/hal/1.3/Conversions.h"
  },
  {
   "function_name" : "android::nn::unvalidatedConvert",
   "linker_set_key" : "_ZN7android2nn18unvalidatedConvertERKNS_8hardware14neuralnetworks4V1_312CapabilitiesE",
   "parameters" :
   [
    {
     "referenced_type" : "_ZTIRKN7android8hardware14neuralnetworks4V1_312CapabilitiesE"
    }
   ],
   "return_type" : "_ZTIN7android4base8expectedINS_2nn12CapabilitiesENS2_12GeneralErrorEEE",
   "source_file" : "hardware/interfaces/neuralnetworks/1.3/utils/include/nnapi/hal/1.3/Conversions.h"
  },
  {
   "function_name" : "android::nn::unvalidatedConvert",
   "linker_set_key" : "_ZN7android2nn18unvalidatedConvertERKNS_8hardware14neuralnetworks4V1_313OperationTypeE",
   "parameters" :
   [
    {
     "referenced_type" : "_ZTIRKN7android8hardware14neuralnetworks4V1_313OperationTypeE"
    }
   ],
   "return_type" : "_ZTIN7android4base8expectedINS_2nn13OperationTypeENS2_12GeneralErrorEEE",
   "source_file" : "hardware/interfaces/neuralnetworks/1.3/utils/include/nnapi/hal/1.3/Conversions.h"
  },
  {
   "function_name" : "android::nn::unvalidatedConvert",
   "linker_set_key" : "_ZN7android2nn18unvalidatedConvertERKNS_8hardware14neuralnetworks4V1_315OperandLifeTimeE",
   "parameters" :
   [
    {
     "referenced_type" : "_ZTIRKN7android8hardware14neuralnetworks4V1_315OperandLifeTimeE"
    }
   ],
   "return_type" : "_ZTIN7android4base8expectedINS_2nn7Operand8LifeTimeENS2_12GeneralErrorEEE",
   "source_file" : "hardware/interfaces/neuralnetworks/1.3/utils/include/nnapi/hal/1.3/Conversions.h"
  },
  {
   "function_name" : "android::nn::unvalidatedConvert",
   "linker_set_key" : "_ZN7android2nn18unvalidatedConvertERKNS_8hardware14neuralnetworks4V1_317OptionalTimePointE",
   "parameters" :
   [
    {
     "referenced_type" : "_ZTIRKN7android8hardware14neuralnetworks4V1_317OptionalTimePointE"
    }
   ],
   "return_type" : "_ZTIN7android4base8expectedINSt3__18optionalINS2_6chrono10time_pointINS0_10boot_clockENS4_8durationIxNS2_5ratioILx1ELx1000000000EEEEEEEEENS_2nn12GeneralErrorEEE",
   "source_file" : "hardware/interfaces/neuralnetworks/1.3/utils/include/nnapi/hal/1.3/Conversions.h"
  },
  {
   "function_name" : "android::nn::unvalidatedConvert",
   "linker_set_key" : "_ZN7android2nn18unvalidatedConvertERKNS_8hardware14neuralnetworks4V1_323OptionalTimeoutDurationE",
   "parameters" :
   [
    {
     "referenced_type" : "_ZTIRKN7android8hardware14neuralnetworks4V1_323OptionalTimeoutDurationE"
    }
   ],
   "return_type" : "_ZTIN7android4base8expectedINSt3__18optionalINS2_6chrono8durationIxNS2_5ratioILx1ELx1000000000EEEEEEENS_2nn12GeneralErrorEEE",
   "source_file" : "hardware/interfaces/neuralnetworks/1.3/utils/include/nnapi/hal/1.3/Conversions.h"
  },
  {
   "function_name" : "android::nn::unvalidatedConvert",
   "linker_set_key" : "_ZN7android2nn18unvalidatedConvertERKNS_8hardware14neuralnetworks4V1_35ModelE",
   "parameters" :
   [
    {
     "referenced_type" : "_ZTIRKN7android8hardware14neuralnetworks4V1_35ModelE"
    }
   ],
   "return_type" : "_ZTIN7android4base8expectedINS_2nn5ModelENS2_12GeneralErrorEEE",
   "source_file" : "hardware/interfaces/neuralnetworks/1.3/utils/include/nnapi/hal/1.3/Conversions.h"
  },
  {
   "function_name" : "android::nn::unvalidatedConvert",
   "linker_set_key" : "_ZN7android2nn18unvalidatedConvertERKNS_8hardware14neuralnetworks4V1_37OperandE",
   "parameters" :
   [
    {
     "referenced_type" : "_ZTIRKN7android8hardware14neuralnetworks4V1_37OperandE"
    }
   ],
   "return_type" : "_ZTIN7android4base8expectedINS_2nn7OperandENS2_12GeneralErrorEEE",
   "source_file" : "hardware/interfaces/neuralnetworks/1.3/utils/include/nnapi/hal/1.3/Conversions.h"
  },
  {
   "function_name" : "android::nn::unvalidatedConvert",
   "linker_set_key" : "_ZN7android2nn18unvalidatedConvertERKNS_8hardware14neuralnetworks4V1_37Request10MemoryPoolE",
   "parameters" :
   [
    {
     "referenced_type" : "_ZTIRKN7android8hardware14neuralnetworks4V1_37Request10MemoryPoolE"
    }
   ],
   "return_type" : "_ZTIN7android4base8expectedINSt3__17variantIJNS2_10shared_ptrIKNS_2nn6MemoryEEENS5_7Request17MemoryDomainTokenENS4_IKNS5_7IBufferEEEEEENS5_12GeneralErrorEEE",
   "source_file" : "hardware/interfaces/neuralnetworks/1.3/utils/include/nnapi/hal/1.3/Conversions.h"
  },
  {
   "function_name" : "android::nn::unvalidatedConvert",
   "linker_set_key" : "_ZN7android2nn18unvalidatedConvertERKNS_8hardware14neuralnetworks4V1_37RequestE",
   "parameters" :
   [
    {
     "referenced_type" : "_ZTIRKN7android8hardware14neuralnetworks4V1_37RequestE"
    }
   ],
   "return_type" : "_ZTIN7android4base8expectedINS_2nn7RequestENS2_12GeneralErrorEEE",
   "source_file" : "hardware/interfaces/neuralnetworks/1.3/utils/include/nnapi/hal/1.3/Conversions.h"
  },
  {
   "function_name" : "android::nn::unvalidatedConvert",
   "linker_set_key" : "_ZN7android2nn18unvalidatedConvertERKNS_8hardware14neuralnetworks4V1_38PriorityE",
   "parameters" :
   [
    {
     "referenced_type" : "_ZTIRKN7android8hardware14neuralnetworks4V1_38PriorityE"
    }
   ],
   "return_type" : "_ZTIN7android4base8expectedINS_2nn8PriorityENS2_12GeneralErrorEEE",
   "source_file" : "hardware/interfaces/neuralnetworks/1.3/utils/include/nnapi/hal/1.3/Conversions.h"
  },
  {
   "function_name" : "android::nn::unvalidatedConvert",
   "linker_set_key" : "_ZN7android2nn18unvalidatedConvertERKNS_8hardware14neuralnetworks4V1_38SubgraphE",
   "parameters" :
   [
    {
     "referenced_type" : "_ZTIRKN7android8hardware14neuralnetworks4V1_38SubgraphE"
    }
   ],
   "return_type" : "_ZTIN7android4base8expectedINS_2nn5Model8SubgraphENS2_12GeneralErrorEEE",
   "source_file" : "hardware/interfaces/neuralnetworks/1.3/utils/include/nnapi/hal/1.3/Conversions.h"
  },
  {
   "function_name" : "android::nn::unvalidatedConvert",
   "linker_set_key" : "_ZN7android2nn18unvalidatedConvertERKNS_8hardware14neuralnetworks4V1_39OperationE",
   "parameters" :
   [
    {
     "referenced_type" : "_ZTIRKN7android8hardware14neuralnetworks4V1_39OperationE"
    }
   ],
   "return_type" : "_ZTIN7android4base8expectedINS_2nn9OperationENS2_12GeneralErrorEEE",
   "source_file" : "hardware/interfaces/neuralnetworks/1.3/utils/include/nnapi/hal/1.3/Conversions.h"
  },
  {
   "function_name" : "android::nn::convert",
   "linker_set_key" : "_ZN7android2nn7convertERKNS_8hardware11hidl_handleE",
   "parameters" :
   [
    {
     "referenced_type" : "_ZTIRKN7android8hardware11hidl_handleE"
    }
   ],
   "return_type" : "_ZTIN7android4base8expectedINSt3__110shared_ptrIKNS_2nn6HandleEEENS4_12GeneralErrorEEE",
   "source_file" : "hardware/interfaces/neuralnetworks/1.3/utils/include/nnapi/hal/1.3/Conversions.h"
  },
  {
   "function_name" : "android::nn::convert",
   "linker_set_key" : "_ZN7android2nn7convertERKNS_8hardware14neuralnetworks4V1_310BufferDescE",
   "parameters" :
   [
    {
     "referenced_type" : "_ZTIRKN7android8hardware14neuralnetworks4V1_310BufferDescE"
    }
   ],
   "return_type" : "_ZTIN7android4base8expectedINS_2nn10BufferDescENS2_12GeneralErrorEEE",
   "source_file" : "hardware/interfaces/neuralnetworks/1.3/utils/include/nnapi/hal/1.3/Conversions.h"
  },
  {
   "function_name" : "android::nn::convert",
   "linker_set_key" : "_ZN7android2nn7convertERKNS_8hardware14neuralnetworks4V1_311ErrorStatusE",
   "parameters" :
   [
    {
     "referenced_type" : "_ZTIRKN7android8hardware14neuralnetworks4V1_311ErrorStatusE"
    }
   ],
   "return_type" : "_ZTIN7android4base8expectedINS_2nn11ErrorStatusENS2_12GeneralErrorEEE",
   "source_file" : "hardware/interfaces/neuralnetworks/1.3/utils/include/nnapi/hal/1.3/Conversions.h"
  },
  {
   "function_name" : "android::nn::convert",
   "linker_set_key" : "_ZN7android2nn7convertERKNS_8hardware14neuralnetworks4V1_312CapabilitiesE",
   "parameters" :
   [
    {
     "referenced_type" : "_ZTIRKN7android8hardware14neuralnetworks4V1_312CapabilitiesE"
    }
   ],
   "return_type" : "_ZTIN7android4base8expectedINS_2nn12CapabilitiesENS2_12GeneralErrorEEE",
   "source_file" : "hardware/interfaces/neuralnetworks/1.3/utils/include/nnapi/hal/1.3/Conversions.h"
  },
  {
   "function_name" : "android::nn::convert",
   "linker_set_key" : "_ZN7android2nn7convertERKNS_8hardware14neuralnetworks4V1_317OptionalTimePointE",
   "parameters" :
   [
    {
     "referenced_type" : "_ZTIRKN7android8hardware14neuralnetworks4V1_317OptionalTimePointE"
    }
   ],
   "return_type" : "_ZTIN7android4base8expectedINSt3__18optionalINS2_6chrono10time_pointINS0_10boot_clockENS4_8durationIxNS2_5ratioILx1ELx1000000000EEEEEEEEENS_2nn12GeneralErrorEEE",
   "source_file" : "hardware/interfaces/neuralnetworks/1.3/utils/include/nnapi/hal/1.3/Conversions.h"
  },
  {
   "function_name" : "android::nn::convert",
   "linker_set_key" : "_ZN7android2nn7convertERKNS_8hardware14neuralnetworks4V1_323OptionalTimeoutDurationE",
   "parameters" :
   [
    {
     "referenced_type" : "_ZTIRKN7android8hardware14neuralnetworks4V1_323OptionalTimeoutDurationE"
    }
   ],
   "return_type" : "_ZTIN7android4base8expectedINSt3__18optionalINS2_6chrono8durationIxNS2_5ratioILx1ELx1000000000EEEEEEENS_2nn12GeneralErrorEEE",
   "source_file" : "hardware/interfaces/neuralnetworks/1.3/utils/include/nnapi/hal/1.3/Conversions.h"
  },
  {
   "function_name" : "android::nn::convert",
   "linker_set_key" : "_ZN7android2nn7convertERKNS_8hardware14neuralnetworks4V1_35ModelE",
   "parameters" :
   [
    {
     "referenced_type" : "_ZTIRKN7android8hardware14neuralnetworks4V1_35ModelE"
    }
   ],
   "return_type" : "_ZTIN7android4base8expectedINS_2nn5ModelENS2_12GeneralErrorEEE",
   "source_file" : "hardware/interfaces/neuralnetworks/1.3/utils/include/nnapi/hal/1.3/Conversions.h"
  },
  {
   "function_name" : "android::nn::convert",
   "linker_set_key" : "_ZN7android2nn7convertERKNS_8hardware14neuralnetworks4V1_37RequestE",
   "parameters" :
   [
    {
     "referenced_type" : "_ZTIRKN7android8hardware14neuralnetworks4V1_37RequestE"
    }
   ],
   "return_type" : "_ZTIN7android4base8expectedINS_2nn7RequestENS2_12GeneralErrorEEE",
   "source_file" : "hardware/interfaces/neuralnetworks/1.3/utils/include/nnapi/hal/1.3/Conversions.h"
  },
  {
   "function_name" : "android::nn::convert",
   "linker_set_key" : "_ZN7android2nn7convertERKNS_8hardware14neuralnetworks4V1_38PriorityE",
   "parameters" :
   [
    {
     "referenced_type" : "_ZTIRKN7android8hardware14neuralnetworks4V1_38PriorityE"
    }
   ],
   "return_type" : "_ZTIN7android4base8expectedINS_2nn8PriorityENS2_12GeneralErrorEEE",
   "source_file" : "hardware/interfaces/neuralnetworks/1.3/utils/include/nnapi/hal/1.3/Conversions.h"
  },
  {
   "function_name" : "android::nn::convert",
   "linker_set_key" : "_ZN7android2nn7convertERKNS_8hardware8hidl_vecINS1_14neuralnetworks4V1_310BufferRoleEEE",
   "parameters" :
   [
    {
     "referenced_type" : "_ZTIRKN7android8hardware8hidl_vecINS0_14neuralnetworks4V1_310BufferRoleEEE"
    }
   ],
   "return_type" : "_ZTIN7android4base8expectedINSt3__16vectorINS_2nn10BufferRoleENS2_9allocatorIS5_EEEENS4_12GeneralErrorEEE",
   "source_file" : "hardware/interfaces/neuralnetworks/1.3/utils/include/nnapi/hal/1.3/Conversions.h"
  },
  {
   "function_name" : "android::hardware::neuralnetworks::V1_3::utils::compliantVersion",
   "linker_set_key" : "_ZN7android8hardware14neuralnetworks4V1_35utils16compliantVersionINS_2nn10BufferDescEEENS_4base8expectedIvNS5_12GeneralErrorEEERKT_",
   "parameters" :
   [
    {
     "referenced_type" : "_ZTIRKN7android2nn10BufferDescE"
    }
   ],
   "return_type" : "_ZTIN7android4base8expectedIvNS_2nn12GeneralErrorEEE",
   "source_file" : "hardware/interfaces/neuralnetworks/1.3/utils/include/nnapi/hal/1.3/Utils.h",
   "template_args" : [ "_ZTIN7android2nn10BufferDescE" ]
  },
  {
   "function_name" : "android::hardware::neuralnetworks::V1_3::utils::compliantVersion",
   "linker_set_key" : "_ZN7android8hardware14neuralnetworks4V1_35utils16compliantVersionINS_2nn10BufferRoleEEENS_4base8expectedIvNS5_12GeneralErrorEEERKT_",
   "parameters" :
   [
    {
     "referenced_type" : "_ZTIRKN7android2nn10BufferRoleE"
    }
   ],
   "return_type" : "_ZTIN7android4base8expectedIvNS_2nn12GeneralErrorEEE",
   "source_file" : "hardware/interfaces/neuralnetworks/1.3/utils/include/nnapi/hal/1.3/Utils.h",
   "template_args" : [ "_ZTIN7android2nn10BufferRoleE" ]
  },
  {
   "function_name" : "android::hardware::neuralnetworks::V1_3::utils::compliantVersion",
   "linker_set_key" : "_ZN7android8hardware14neuralnetworks4V1_35utils16compliantVersionINS_2nn11ErrorStatusEEENS_4base8expectedIvNS5_12GeneralErrorEEERKT_",
   "parameters" :
   [
    {
     "referenced_type" : "_ZTIRKN7android2nn11ErrorStatusE"
    }
   ],
   "return_type" : "_ZTIN7android4base8expectedIvNS_2nn12GeneralErrorEEE",
   "source_file" : "hardware/interfaces/neuralnetworks/1.3/utils/include/nnapi/hal/1.3/Utils.h",
   "template_args" : [ "_ZTIN7android2nn11ErrorStatusE" ]
  },
  {
   "function_name" : "android::hardware::neuralnetworks::V1_3::utils::compliantVersion",
   "linker_set_key" : "_ZN7android8hardware14neuralnetworks4V1_35utils16compliantVersionINS_2nn11OperandTypeEEENS_4base8expectedIvNS5_12GeneralErrorEEERKT_",
   "parameters" :
   [
    {
     "referenced_type" : "_ZTIRKN7android2nn11OperandTypeE"
    }
   ],
   "return_type" : "_ZTIN7android4base8expectedIvNS_2nn12GeneralErrorEEE",
   "source_file" : "hardware/interfaces/neuralnetworks/1.3/utils/include/nnapi/hal/1.3/Utils.h",
   "template_args" : [ "_ZTIN7android2nn11OperandTypeE" ]
  },
  {
   "function_name" : "android::hardware::neuralnetworks::V1_3::utils::compliantVersion",
   "linker_set_key" : "_ZN7android8hardware14neuralnetworks4V1_35utils16compliantVersionINS_2nn12CapabilitiesEEENS_4base8expectedIvNS5_12GeneralErrorEEERKT_",
   "parameters" :
   [
    {
     "referenced_type" : "_ZTIRKN7android2nn12CapabilitiesE"
    }
   ],
   "return_type" : "_ZTIN7android4base8expectedIvNS_2nn12GeneralErrorEEE",
   "source_file" : "hardware/interfaces/neuralnetworks/1.3/utils/include/nnapi/hal/1.3/Utils.h",
   "template_args" : [ "_ZTIN7android2nn12CapabilitiesE" ]
  },
  {
   "function_name" : "android::hardware::neuralnetworks::V1_3::utils::compliantVersion",
   "linker_set_key" : "_ZN7android8hardware14neuralnetworks4V1_35utils16compliantVersionINS_2nn5ModelEEENS_4base8expectedIvNS5_12GeneralErrorEEERKT_",
   "parameters" :
   [
    {
     "referenced_type" : "_ZTIRKN7android2nn5ModelE"
    }
   ],
   "return_type" : "_ZTIN7android4base8expectedIvNS_2nn12GeneralErrorEEE",
   "source_file" : "hardware/interfaces/neuralnetworks/1.3/utils/include/nnapi/hal/1.3/Utils.h",
   "template_args" : [ "_ZTIN7android2nn5ModelE" ]
  },
  {
   "function_name" : "android::hardware::neuralnetworks::V1_3::utils::compliantVersion",
   "linker_set_key" : "_ZN7android8hardware14neuralnetworks4V1_35utils16compliantVersionINS_2nn7RequestEEENS_4base8expectedIvNS5_12GeneralErrorEEERKT_",
   "parameters" :
   [
    {
     "referenced_type" : "_ZTIRKN7android2nn7RequestE"
    }
   ],
   "return_type" : "_ZTIN7android4base8expectedIvNS_2nn12GeneralErrorEEE",
   "source_file" : "hardware/interfaces/neuralnetworks/1.3/utils/include/nnapi/hal/1.3/Utils.h",
   "template_args" : [ "_ZTIN7android2nn7RequestE" ]
  },
  {
   "function_name" : "android::hardware::neuralnetworks::V1_3::utils::compliantVersion",
   "linker_set_key" : "_ZN7android8hardware14neuralnetworks4V1_35utils16compliantVersionINS_2nn8PriorityEEENS_4base8expectedIvNS5_12GeneralErrorEEERKT_",
   "parameters" :
   [
    {
     "referenced_type" : "_ZTIRKN7android2nn8PriorityE"
    }
   ],
   "return_type" : "_ZTIN7android4base8expectedIvNS_2nn12GeneralErrorEEE",
   "source_file" : "hardware/interfaces/neuralnetworks/1.3/utils/include/nnapi/hal/1.3/Utils.h",
   "template_args" : [ "_ZTIN7android2nn8PriorityE" ]
  },
  {
   "function_name" : "android::hardware::neuralnetworks::V1_3::utils::compliantVersion",
   "linker_set_key" : "_ZN7android8hardware14neuralnetworks4V1_35utils16compliantVersionINSt3__110shared_ptrIKNS_2nn6HandleEEEEENS_4base8expectedIvNS7_12GeneralErrorEEERKT_",
   "parameters" :
   [
    {
     "referenced_type" : "_ZTIRKNSt3__110shared_ptrIKN7android2nn6HandleEEE"
    }
   ],
   "return_type" : "_ZTIN7android4base8expectedIvNS_2nn12GeneralErrorEEE",
   "source_file" : "hardware/interfaces/neuralnetworks/1.3/utils/include/nnapi/hal/1.3/Utils.h",
   "template_args" : [ "_ZTINSt3__110shared_ptrIKN7android2nn6HandleEEE" ]
  },
  {
   "function_name" : "android::hardware::neuralnetworks::V1_3::utils::compliantVersion",
   "linker_set_key" : "_ZN7android8hardware14neuralnetworks4V1_35utils16compliantVersionINSt3__110shared_ptrIKNS_2nn6MemoryEEEEENS_4base8expectedIvNS7_12GeneralErrorEEERKT_",
   "parameters" :
   [
    {
     "referenced_type" : "_ZTIRKNSt3__110shared_ptrIKN7android2nn6MemoryEEE"
    }
   ],
   "return_type" : "_ZTIN7android4base8expectedIvNS_2nn12GeneralErrorEEE",
   "source_file" : "hardware/interfaces/neuralnetworks/1.3/utils/include/nnapi/hal/1.3/Utils.h",
   "template_args" : [ "_ZTINSt3__110shared_ptrIKN7android2nn6MemoryEEE" ]
  },
  {
   "function_name" : "android::hardware::neuralnetworks::V1_3::utils::compliantVersion",
   "linker_set_key" : "_ZN7android8hardware14neuralnetworks4V1_35utils16compliantVersionINSt3__18optionalINS5_6chrono10time_pointINS_4base10boot_clockENS7_8durationIxNS5_5ratioILx1ELx1000000000EEEEEEEEEEENS9_8expectedIvNS_2nn12GeneralErrorEEERKT_",
   "parameters" :
   [
    {
     "referenced_type" : "_ZTIRKNSt3__18optionalINS_6chrono10time_pointIN7android4base10boot_clockENS1_8durationIxNS_5ratioILx1ELx1000000000EEEEEEEEE"
    }
   ],
   "return_type" : "_ZTIN7android4base8expectedIvNS_2nn12GeneralErrorEEE",
   "source_file" : "hardware/interfaces/neuralnetworks/1.3/utils/include/nnapi/hal/1.3/Utils.h",
   "template_args" :
   [
    "_ZTINSt3__18optionalINS_6chrono10time_pointIN7android4base10boot_clockENS1_8durationIxNS_5ratioILx1ELx1000000000EEEEEEEEE"
   ]
  },
  {
   "function_name" : "android::hardware::neuralnetworks::V1_3::utils::compliantVersion",
   "linker_set_key" : "_ZN7android8hardware14neuralnetworks4V1_35utils16compliantVersionINSt3__18optionalINS5_6chrono8durationIxNS5_5ratioILx1ELx1000000000EEEEEEEEENS_4base8expectedIvNS_2nn12GeneralErrorEEERKT_",
   "parameters" :
   [
    {
     "referenced_type" : "_ZTIRKNSt3__18optionalINS_6chrono8durationIxNS_5ratioILx1ELx1000000000EEEEEEE"
    }
   ],
   "return_type" : "_ZTIN7android4base8expectedIvNS_2nn12GeneralErrorEEE",
   "source_file" : "hardware/interfaces/neuralnetworks/1.3/utils/include/nnapi/hal/1.3/Utils.h",
   "template_args" :
   [
    "_ZTINSt3__18optionalINS_6chrono8durationIxNS_5ratioILx1ELx1000000000EEEEEEE"
   ]
  },
  {
   "function_name" : "android::hardware::neuralnetworks::V1_3::utils::unvalidatedConvert",
   "linker_set_key" : "_ZN7android8hardware14neuralnetworks4V1_35utils18unvalidatedConvertERKNS_2nn10BufferDescE",
   "parameters" :
   [
    {
     "referenced_type" : "_ZTIRKN7android2nn10BufferDescE"
    }
   ],
   "return_type" : "_ZTIN7android4base8expectedINS_8hardware14neuralnetworks4V1_310BufferDescENS_2nn12GeneralErrorEEE",
   "source_file" : "hardware/interfaces/neuralnetworks/1.3/utils/include/nnapi/hal/1.3/Conversions.h"
  },
  {
   "function_name" : "android::hardware::neuralnetworks::V1_3::utils::unvalidatedConvert",
   "linker_set_key" : "_ZN7android8hardware14neuralnetworks4V1_35utils18unvalidatedConvertERKNS_2nn10BufferRoleE",
   "parameters" :
   [
    {
     "referenced_type" : "_ZTIRKN7android2nn10BufferRoleE"
    }
   ],
   "return_type" : "_ZTIN7android4base8expectedINS_8hardware14neuralnetworks4V1_310BufferRoleENS_2nn12GeneralErrorEEE",
   "source_file" : "hardware/interfaces/neuralnetworks/1.3/utils/include/nnapi/hal/1.3/Conversions.h"
  },
  {
   "function_name" : "android::hardware::neuralnetworks::V1_3::utils::unvalidatedConvert",
   "linker_set_key" : "_ZN7android8hardware14neuralnetworks4V1_35utils18unvalidatedConvertERKNS_2nn11OperandTypeE",
   "parameters" :
   [
    {
     "referenced_type" : "_ZTIRKN7android2nn11OperandTypeE"
    }
   ],
   "return_type" : "_ZTIN7android4base8expectedINS_8hardware14neuralnetworks4V1_311OperandTypeENS_2nn12GeneralErrorEEE",
   "source_file" : "hardware/interfaces/neuralnetworks/1.3/utils/include/nnapi/hal/1.3/Conversions.h"
  },
  {
   "function_name" : "android::hardware::neuralnetworks::V1_3::utils::unvalidatedConvert",
   "linker_set_key" : "_ZN7android8hardware14neuralnetworks4V1_35utils18unvalidatedConvertERKNS_2nn12Capabilities18OperandPerformanceE",
   "parameters" :
   [
    {
     "referenced_type" : "_ZTIRKN7android2nn12Capabilities18OperandPerformanceE"
    }
   ],
   "return_type" : "_ZTIN7android4base8expectedINS_8hardware14neuralnetworks4V1_312Capabilities18OperandPerformanceENS_2nn12GeneralErrorEEE",
   "source_file" : "hardware/interfaces/neuralnetworks/1.3/utils/include/nnapi/hal/1.3/Conversions.h"
  },
  {
   "function_name" : "android::hardware::neuralnetworks::V1_3::utils::unvalidatedConvert",
   "linker_set_key" : "_ZN7android8hardware14neuralnetworks4V1_35utils18unvalidatedConvertERKNS_2nn12CapabilitiesE",
   "parameters" :
   [
    {
     "referenced_type" : "_ZTIRKN7android2nn12CapabilitiesE"
    }
   ],
   "return_type" : "_ZTIN7android4base8expectedINS_8hardware14neuralnetworks4V1_312CapabilitiesENS_2nn12GeneralErrorEEE",
   "source_file" : "hardware/interfaces/neuralnetworks/1.3/utils/include/nnapi/hal/1.3/Conversions.h"
  },
  {
   "function_name" : "android::hardware::neuralnetworks::V1_3::utils::unvalidatedConvert",
   "linker_set_key" : "_ZN7android8hardware14neuralnetworks4V1_35utils18unvalidatedConvertERKNS_2nn13OperationTypeE",
   "parameters" :
   [
    {
     "referenced_type" : "_ZTIRKN7android2nn13OperationTypeE"
    }
   ],
   "return_type" : "_ZTIN7android4base8expectedINS_8hardware14neuralnetworks4V1_313OperationTypeENS_2nn12GeneralErrorEEE",
   "source_file" : "hardware/interfaces/neuralnetworks/1.3/utils/include/nnapi/hal/1.3/Conversions.h"
  },
  {
   "function_name" : "android::hardware::neuralnetworks::V1_3::utils::unvalidatedConvert",
   "linker_set_key" : "_ZN7android8hardware14neuralnetworks4V1_35utils18unvalidatedConvertERKNS_2nn5Model8SubgraphE",
   "parameters" :
   [
    {
     "referenced_type" : "_ZTIRKN7android2nn5Model8SubgraphE"
    }
   ],
   "return_type" : "_ZTIN7android4base8expectedINS_8hardware14neuralnetworks4V1_38SubgraphENS_2nn12GeneralErrorEEE",
   "source_file" : "hardware/interfaces/neuralnetworks/1.3/utils/include/nnapi/hal/1.3/Conversions.h"
  },
  {
   "function_name" : "android::hardware::neuralnetworks::V1_3::utils::unvalidatedConvert",
   "linker_set_key" : "_ZN7android8hardware14neuralnetworks4V1_35utils18unvalidatedConvertERKNS_2nn5ModelE",
   "parameters" :
   [
    {
     "referenced_type" : "_ZTIRKN7android2nn5ModelE"
    }
   ],
   "return_type" : "_ZTIN7android4base8expectedINS_8hardware14neuralnetworks4V1_35ModelENS_2nn12GeneralErrorEEE",
   "source_file" : "hardware/interfaces/neuralnetworks/1.3/utils/include/nnapi/hal/1.3/Conversions.h"
  },
  {
   "function_name" : "android::hardware::neuralnetworks::V1_3::utils::unvalidatedConvert",
   "linker_set_key" : "_ZN7android8hardware14neuralnetworks4V1_35utils18unvalidatedConvertERKNS_2nn7Operand8LifeTimeE",
   "parameters" :
   [
    {
     "referenced_type" : "_ZTIRKN7android2nn7Operand8LifeTimeE"
    }
   ],
   "return_type" : "_ZTIN7android4base8expectedINS_8hardware14neuralnetworks4V1_315OperandLifeTimeENS_2nn12GeneralErrorEEE",
   "source_file" : "hardware/interfaces/neuralnetworks/1.3/utils/include/nnapi/hal/1.3/Conversions.h"
  },
  {
   "function_name" : "android::hardware::neuralnetworks::V1_3::utils::unvalidatedConvert",
   "linker_set_key" : "_ZN7android8hardware14neuralnetworks4V1_35utils18unvalidatedConvertERKNS_2nn7OperandE",
   "parameters" :
   [
    {
     "referenced_type" : "_ZTIRKN7android2nn7OperandE"
    }
   ],
   "return_type" : "_ZTIN7android4base8expectedINS_8hardware14neuralnetworks4V1_37OperandENS_2nn12GeneralErrorEEE",
   "source_file" : "hardware/interfaces/neuralnetworks/1.3/utils/include/nnapi/hal/1.3/Conversions.h"
  },
  {
   "function_name" : "android::hardware::neuralnetworks::V1_3::utils::unvalidatedConvert",
   "linker_set_key" : "_ZN7android8hardware14neuralnetworks4V1_35utils18unvalidatedConvertERKNS_2nn7RequestE",
   "parameters" :
   [
    {
     "referenced_type" : "_ZTIRKN7android2nn7RequestE"
    }
   ],
   "return_type" : "_ZTIN7android4base8expectedINS_8hardware14neuralnetworks4V1_37RequestENS_2nn12GeneralErrorEEE",
   "source_file" : "hardware/interfaces/neuralnetworks/1.3/utils/include/nnapi/hal/1.3/Conversions.h"
  },
  {
   "function_name" : "android::hardware::neuralnetworks::V1_3::utils::unvalidatedConvert",
   "linker_set_key" : "_ZN7android8hardware14neuralnetworks4V1_35utils18unvalidatedConvertERKNS_2nn8PriorityE",
   "parameters" :
   [
    {
     "referenced_type" : "_ZTIRKN7android2nn8PriorityE"
    }
   ],
   "return_type" : "_ZTIN7android4base8expectedINS_8hardware14neuralnetworks4V1_38PriorityENS_2nn12GeneralErrorEEE",
   "source_file" : "hardware/interfaces/neuralnetworks/1.3/utils/include/nnapi/hal/1.3/Conversions.h"
  },
  {
   "function_name" : "android::hardware::neuralnetworks::V1_3::utils::unvalidatedConvert",
   "linker_set_key" : "_ZN7android8hardware14neuralnetworks4V1_35utils18unvalidatedConvertERKNS_2nn9OperationE",
   "parameters" :
   [
    {
     "referenced_type" : "_ZTIRKN7android2nn9OperationE"
    }
   ],
   "return_type" : "_ZTIN7android4base8expectedINS_8hardware14neuralnetworks4V1_39OperationENS_2nn12GeneralErrorEEE",
   "source_file" : "hardware/interfaces/neuralnetworks/1.3/utils/include/nnapi/hal/1.3/Conversions.h"
  },
  {
   "function_name" : "android::hardware::neuralnetworks::V1_3::utils::convert",
   "linker_set_key" : "_ZN7android8hardware14neuralnetworks4V1_35utils7convertERKNS_2nn10BufferDescE",
   "parameters" :
   [
    {
     "referenced_type" : "_ZTIRKN7android2nn10BufferDescE"
    }
   ],
   "return_type" : "_ZTIN7android4base8expectedINS_8hardware14neuralnetworks4V1_310BufferDescENS_2nn12GeneralErrorEEE",
   "source_file" : "hardware/interfaces/neuralnetworks/1.3/utils/include/nnapi/hal/1.3/Conversions.h"
  },
  {
   "function_name" : "android::hardware::neuralnetworks::V1_3::utils::convert",
   "linker_set_key" : "_ZN7android8hardware14neuralnetworks4V1_35utils7convertERKNS_2nn10DeviceTypeE",
   "parameters" :
   [
    {
     "referenced_type" : "_ZTIRKN7android2nn10DeviceTypeE"
    }
   ],
   "return_type" : "_ZTIN7android4base8expectedINS_8hardware14neuralnetworks4V1_210DeviceTypeENS_2nn12GeneralErrorEEE",
   "source_file" : "hardware/interfaces/neuralnetworks/1.3/utils/include/nnapi/hal/1.3/Conversions.h"
  },
  {
   "function_name" : "android::hardware::neuralnetworks::V1_3::utils::convert",
   "linker_set_key" : "_ZN7android8hardware14neuralnetworks4V1_35utils7convertERKNS_2nn11ErrorStatusE",
   "parameters" :
   [
    {
     "referenced_type" : "_ZTIRKN7android2nn11ErrorStatusE"
    }
   ],
   "return_type" : "_ZTIN7android4base8expectedINS_8hardware14neuralnetworks4V1_311ErrorStatusENS_2nn12GeneralErrorEEE",
   "source_file" : "hardware/interfaces/neuralnetworks/1.3/utils/include/nnapi/hal/1.3/Conversions.h"
  },
  {
   "function_name" : "android::hardware::neuralnetworks::V1_3::utils::convert",
   "linker_set_key" : "_ZN7android8hardware14neuralnetworks4V1_35utils7convertERKNS_2nn12CapabilitiesE",
   "parameters" :
   [
    {
     "referenced_type" : "_ZTIRKN7android2nn12CapabilitiesE"
    }
   ],
   "return_type" : "_ZTIN7android4base8expectedINS_8hardware14neuralnetworks4V1_312CapabilitiesENS_2nn12GeneralErrorEEE",
   "source_file" : "hardware/interfaces/neuralnetworks/1.3/utils/include/nnapi/hal/1.3/Conversions.h"
  },
  {
   "function_name" : "android::hardware::neuralnetworks::V1_3::utils::convert",
   "linker_set_key" : "_ZN7android8hardware14neuralnetworks4V1_35utils7convertERKNS_2nn12DeviceStatusE",
   "parameters" :
   [
    {
     "referenced_type" : "_ZTIRKN7android2nn12DeviceStatusE"
    }
   ],
   "return_type" : "_ZTIN7android4base8expectedINS_8hardware14neuralnetworks4V1_012DeviceStatusENS_2nn12GeneralErrorEEE",
   "source_file" : "hardware/interfaces/neuralnetworks/1.3/utils/include/nnapi/hal/1.3/Conversions.h"
  },
  {
   "function_name" : "android::hardware::neuralnetworks::V1_3::utils::convert",
   "linker_set_key" : "_ZN7android8hardware14neuralnetworks4V1_35utils7convertERKNS_2nn13MeasureTimingE",
   "parameters" :
   [
    {
     "referenced_type" : "_ZTIRKN7android2nn13MeasureTimingE"
    }
   ],
   "return_type" : "_ZTIN7android4base8expectedINS_8hardware14neuralnetworks4V1_213MeasureTimingENS_2nn12GeneralErrorEEE",
   "source_file" : "hardware/interfaces/neuralnetworks/1.3/utils/include/nnapi/hal/1.3/Conversions.h"
  },
  {
   "function_name" : "android::hardware::neuralnetworks::V1_3::utils::convert",
   "linker_set_key" : "_ZN7android8hardware14neuralnetworks4V1_35utils7convertERKNS_2nn19ExecutionPreferenceE",
   "parameters" :
   [
    {
     "referenced_type" : "_ZTIRKN7android2nn19ExecutionPreferenceE"
    }
   ],
   "return_type" : "_ZTIN7android4base8expectedINS_8hardware14neuralnetworks4V1_119ExecutionPreferenceENS_2nn12GeneralErrorEEE",
   "source_file" : "hardware/interfaces/neuralnetworks/1.3/utils/include/nnapi/hal/1.3/Conversions.h"
  },
  {
   "function_name" : "android::hardware::neuralnetworks::V1_3::utils::convert",
   "linker_set_key" : "_ZN7android8hardware14neuralnetworks4V1_35utils7convertERKNS_2nn5ModelE",
   "parameters" :
   [
    {
     "referenced_type" : "_ZTIRKN7android2nn5ModelE"
    }
   ],
   "return_type" : "_ZTIN7android4base8expectedINS_8hardware14neuralnetworks4V1_35ModelENS_2nn12GeneralErrorEEE",
   "source_file" : "hardware/interfaces/neuralnetworks/1.3/utils/include/nnapi/hal/1.3/Conversions.h"
  },
  {
   "function_name" : "android::hardware::neuralnetworks::V1_3::utils::convert",
   "linker_set_key" : "_ZN7android8hardware14neuralnetworks4V1_35utils7convertERKNS_2nn6TimingE",
   "parameters" :
   [
    {
     "referenced_type" : "_ZTIRKN7android2nn6TimingE"
    }
   ],
   "return_type" : "_ZTIN7android4base8expectedINS_8hardware14neuralnetworks4V1_26TimingENS_2nn12GeneralErrorEEE",
   "source_file" : "hardware/interfaces/neuralnetworks/1.3/utils/include/nnapi/hal/1.3/Conversions.h"
  },
  {
   "function_name" : "android::hardware::neuralnetworks::V1_3::utils::convert",
   "linker_set_key" : "_ZN7android8hardware14neuralnetworks4V1_35utils7convertERKNS_2nn7RequestE",
   "parameters" :
   [
    {
     "referenced_type" : "_ZTIRKN7android2nn7RequestE"
    }
   ],
   "return_type" : "_ZTIN7android4base8expectedINS_8hardware14neuralnetworks4V1_37RequestENS_2nn12GeneralErrorEEE",
   "source_file" : "hardware/interfaces/neuralnetworks/1.3/utils/include/nnapi/hal/1.3/Conversions.h"
  },
  {
   "function_name" : "android::hardware::neuralnetworks::V1_3::utils::convert",
   "linker_set_key" : "_ZN7android8hardware14neuralnetworks4V1_35utils7convertERKNS_2nn8PriorityE",
   "parameters" :
   [
    {
     "referenced_type" : "_ZTIRKN7android2nn8PriorityE"
    }
   ],
   "return_type" : "_ZTIN7android4base8expectedINS_8hardware14neuralnetworks4V1_38PriorityENS_2nn12GeneralErrorEEE",
   "source_file" : "hardware/interfaces/neuralnetworks/1.3/utils/include/nnapi/hal/1.3/Conversions.h"
  },
  {
   "function_name" : "android::hardware::neuralnetworks::V1_3::utils::convert",
   "linker_set_key" : "_ZN7android8hardware14neuralnetworks4V1_35utils7convertERKNSt3__110shared_ptrIKNS_2nn6HandleEEE",
   "parameters" :
   [
    {
     "referenced_type" : "_ZTIRKNSt3__110shared_ptrIKN7android2nn6HandleEEE"
    }
   ],
   "return_type" : "_ZTIN7android4base8expectedINS_8hardware11hidl_handleENS_2nn12GeneralErrorEEE",
   "source_file" : "hardware/interfaces/neuralnetworks/1.3/utils/include/nnapi/hal/1.3/Conversions.h"
  },
  {
   "function_name" : "android::hardware::neuralnetworks::V1_3::utils::convert",
   "linker_set_key" : "_ZN7android8hardware14neuralnetworks4V1_35utils7convertERKNSt3__110shared_ptrIKNS_2nn6MemoryEEE",
   "parameters" :
   [
    {
     "referenced_type" : "_ZTIRKNSt3__110shared_ptrIKN7android2nn6MemoryEEE"
    }
   ],
   "return_type" : "_ZTIN7android4base8expectedINS_8hardware11hidl_memoryENS_2nn12GeneralErrorEEE",
   "source_file" : "hardware/interfaces/neuralnetworks/1.3/utils/include/nnapi/hal/1.3/Conversions.h"
  },
  {
   "function_name" : "android::hardware::neuralnetworks::V1_3::utils::convert",
   "linker_set_key" : "_ZN7android8hardware14neuralnetworks4V1_35utils7convertERKNSt3__16vectorINS4_10shared_ptrIKNS_2nn6HandleEEENS4_9allocatorISA_EEEE",
   "parameters" :
   [
    {
     "referenced_type" : "_ZTIRKNSt3__16vectorINS_10shared_ptrIKN7android2nn6HandleEEENS_9allocatorIS6_EEEE"
    }
   ],
   "return_type" : "_ZTIN7android4base8expectedINS_8hardware8hidl_vecINS2_11hidl_handleEEENS_2nn12GeneralErrorEEE",
   "source_file" : "hardware/interfaces/neuralnetworks/1.3/utils/include/nnapi/hal/1.3/Conversions.h"
  },
  {
   "function_name" : "android::hardware::neuralnetworks::V1_3::utils::convert",
   "linker_set_key" : "_ZN7android8hardware14neuralnetworks4V1_35utils7convertERKNSt3__16vectorINS_2nn10BufferRoleENS4_9allocatorIS7_EEEE",
   "parameters" :
   [
    {
     "referenced_type" : "_ZTIRKNSt3__16vectorIN7android2nn10BufferRoleENS_9allocatorIS3_EEEE"
    }
   ],
   "return_type" : "_ZTIN7android4base8expectedINS_8hardware8hidl_vecINS2_14neuralnetworks4V1_310BufferRoleEEENS_2nn12GeneralErrorEEE",
   "source_file" : "hardware/interfaces/neuralnetworks/1.3/utils/include/nnapi/hal/1.3/Conversions.h"
  },
  {
   "function_name" : "android::hardware::neuralnetworks::V1_3::utils::convert",
   "linker_set_key" : "_ZN7android8hardware14neuralnetworks4V1_35utils7convertERKNSt3__16vectorINS_2nn11OutputShapeENS4_9allocatorIS7_EEEE",
   "parameters" :
   [
    {
     "referenced_type" : "_ZTIRKNSt3__16vectorIN7android2nn11OutputShapeENS_9allocatorIS3_EEEE"
    }
   ],
   "return_type" : "_ZTIN7android4base8expectedINS_8hardware8hidl_vecINS2_14neuralnetworks4V1_211OutputShapeEEENS_2nn12GeneralErrorEEE",
   "source_file" : "hardware/interfaces/neuralnetworks/1.3/utils/include/nnapi/hal/1.3/Conversions.h"
  },
  {
   "function_name" : "android::hardware::neuralnetworks::V1_3::utils::convert",
   "linker_set_key" : "_ZN7android8hardware14neuralnetworks4V1_35utils7convertERKNSt3__16vectorINS_2nn9ExtensionENS4_9allocatorIS7_EEEE",
   "parameters" :
   [
    {
     "referenced_type" : "_ZTIRKNSt3__16vectorIN7android2nn9ExtensionENS_9allocatorIS3_EEEE"
    }
   ],
   "return_type" : "_ZTIN7android4base8expectedINS_8hardware8hidl_vecINS2_14neuralnetworks4V1_29ExtensionEEENS_2nn12GeneralErrorEEE",
   "source_file" : "hardware/interfaces/neuralnetworks/1.3/utils/include/nnapi/hal/1.3/Conversions.h"
  },
  {
   "function_name" : "android::hardware::neuralnetworks::V1_3::utils::convert",
   "linker_set_key" : "_ZN7android8hardware14neuralnetworks4V1_35utils7convertERKNSt3__18optionalINS4_6chrono10time_pointINS_4base10boot_clockENS6_8durationIxNS4_5ratioILx1ELx1000000000EEEEEEEEE",
   "parameters" :
   [
    {
     "referenced_type" : "_ZTIRKNSt3__18optionalINS_6chrono10time_pointIN7android4base10boot_clockENS1_8durationIxNS_5ratioILx1ELx1000000000EEEEEEEEE"
    }
   ],
   "return_type" : "_ZTIN7android4base8expectedINS_8hardware14neuralnetworks4V1_317OptionalTimePointENS_2nn12GeneralErrorEEE",
   "source_file" : "hardware/interfaces/neuralnetworks/1.3/utils/include/nnapi/hal/1.3/Conversions.h"
  },
  {
   "function_name" : "android::hardware::neuralnetworks::V1_3::utils::convert",
   "linker_set_key" : "_ZN7android8hardware14neuralnetworks4V1_35utils7convertERKNSt3__18optionalINS4_6chrono8durationIxNS4_5ratioILx1ELx1000000000EEEEEEE",
   "parameters" :
   [
    {
     "referenced_type" : "_ZTIRKNSt3__18optionalINS_6chrono8durationIxNS_5ratioILx1ELx1000000000EEEEEEE"
    }
   ],
   "return_type" : "_ZTIN7android4base8expectedINS_8hardware14neuralnetworks4V1_323OptionalTimeoutDurationENS_2nn12GeneralErrorEEE",
   "source_file" : "hardware/interfaces/neuralnetworks/1.3/utils/include/nnapi/hal/1.3/Conversions.h"
  },
  {
   "function_name" : "android::hardware::neuralnetworks::utils::makeGeneralFailure",
   "linker_set_key" : "_ZN7android8hardware14neuralnetworks5utils18makeGeneralFailureINS_2nn12Capabilities23OperandPerformanceTableEEENS_4base8expectedIT_NS4_12GeneralErrorEEENS8_IS9_NSt3__112basic_stringIcNSC_11char_traitsIcEENSC_9allocatorIcEEEEEENS4_11ErrorStatusE",
   "parameters" :
   [
    {
     "referenced_type" : "_ZTIN7android4base8expectedINS_2nn12Capabilities23OperandPerformanceTableENSt3__112basic_stringIcNS5_11char_traitsIcEENS5_9allocatorIcEEEEEE"
    },
    {
     "default_arg" : true,
     "referenced_type" : "_ZTIN7android2nn11ErrorStatusE"
    }
   ],
   "return_type" : "_ZTIN7android4base8expectedINS_2nn12Capabilities23OperandPerformanceTableENS2_12GeneralErrorEEE",
   "source_file" : "hardware/interfaces/neuralnetworks/utils/common/include/nnapi/hal/HandleError.h",
   "template_args" : [ "_ZTIN7android2nn12Capabilities23OperandPerformanceTableE" ]
  },
  {
   "function_name" : "android::hardware::neuralnetworks::utils::makeGeneralFailure",
   "linker_set_key" : "_ZN7android8hardware14neuralnetworks5utils18makeGeneralFailureINS_2nn7VersionEEENS_4base8expectedIT_NS4_12GeneralErrorEEENS7_IS8_NSt3__112basic_stringIcNSB_11char_traitsIcEENSB_9allocatorIcEEEEEENS4_11ErrorStatusE",
   "parameters" :
   [
    {
     "referenced_type" : "_ZTIN7android4base8expectedINS_2nn7VersionENSt3__112basic_stringIcNS4_11char_traitsIcEENS4_9allocatorIcEEEEEE"
    },
    {
     "default_arg" : true,
     "referenced_type" : "_ZTIN7android2nn11ErrorStatusE"
    }
   ],
   "return_type" : "_ZTIN7android4base8expectedINS_2nn7VersionENS2_12GeneralErrorEEE",
   "source_file" : "hardware/interfaces/neuralnetworks/utils/common/include/nnapi/hal/HandleError.h",
   "template_args" : [ "_ZTIN7android2nn7VersionE" ]
  }
 ],
 "global_vars" :
 [
  {
   "linker_set_key" : "_ZN7android8hardware14neuralnetworks4V1_35utilsL16kDefaultPriorityE",
   "name" : "android::hardware::neuralnetworks::V1_3::utils::kDefaultPriority",
   "referenced_type" : "_ZTIKN7android8hardware14neuralnetworks4V1_38PriorityE",
   "source_file" : "hardware/interfaces/neuralnetworks/1.3/utils/include/nnapi/hal/1.3/Utils.h"
  },
  {
   "linker_set_key" : "_ZN7android8hardware14neuralnetworks4V1_35utilsL8kVersionE",
   "name" : "android::hardware::neuralnetworks::V1_3::utils::kVersion",
   "referenced_type" : "_ZTIKN7android2nn7VersionE",
   "source_file" : "hardware/interfaces/neuralnetworks/1.3/utils/include/nnapi/hal/1.3/Utils.h"
  }
 ],
 "lvalue_reference_types" :
 [
  {
   "alignment" : 4,
   "linker_set_key" : "_ZTIRKN7android2nn10BufferDescE",
   "name" : "const android::nn::BufferDesc &",
   "referenced_type" : "_ZTIKN7android2nn10BufferDescE",
   "self_type" : "_ZTIRKN7android2nn10BufferDescE",
   "size" : 4,
   "source_file" : "hardware/interfaces/neuralnetworks/1.3/utils/include/nnapi/hal/1.3/Conversions.h"
  },
  {
   "alignment" : 4,
   "linker_set_key" : "_ZTIRKN7android2nn10BufferRoleE",
   "name" : "const android::nn::BufferRole &",
   "referenced_type" : "_ZTIKN7android2nn10BufferRoleE",
   "self_type" : "_ZTIRKN7android2nn10BufferRoleE",
   "size" : 4,
   "source_file" : "hardware/interfaces/neuralnetworks/1.3/utils/include/nnapi/hal/1.3/Conversions.h"
  },
  {
   "alignment" : 4,
   "linker_set_key" : "_ZTIRKN7android2nn10DeviceTypeE",
   "name" : "const android::nn::DeviceType &",
   "referenced_type" : "_ZTIKN7android2nn10DeviceTypeE",
   "self_type" : "_ZTIRKN7android2nn10DeviceTypeE",
   "size" : 4,
   "source_file" : "hardware/interfaces/neuralnetworks/1.3/utils/include/nnapi/hal/1.3/Conversions.h"
  },
  {
   "alignment" : 4,
   "linker_set_key" : "_ZTIRKN7android2nn11ErrorStatusE",
   "name" : "const android::nn::ErrorStatus &",
   "referenced_type" : "_ZTIKN7android2nn11ErrorStatusE",
   "self_type" : "_ZTIRKN7android2nn11ErrorStatusE",
   "size" : 4,
   "source_file" : "hardware/interfaces/neuralnetworks/1.3/utils/include/nnapi/hal/1.3/Conversions.h"
  },
  {
   "alignment" : 4,
   "linker_set_key" : "_ZTIRKN7android2nn11OperandTypeE",
   "name" : "const android::nn::OperandType &",
   "referenced_type" : "_ZTIKN7android2nn11OperandTypeE",
   "self_type" : "_ZTIRKN7android2nn11OperandTypeE",
   "size" : 4,
   "source_file" : "hardware/interfaces/neuralnetworks/1.3/utils/include/nnapi/hal/1.3/Conversions.h"
  },
  {
   "alignment" : 4,
   "linker_set_key" : "_ZTIRKN7android2nn12Capabilities18OperandPerformanceE",
   "name" : "const android::nn::Capabilities::OperandPerformance &",
   "referenced_type" : "_ZTIKN7android2nn12Capabilities18OperandPerformanceE",
   "self_type" : "_ZTIRKN7android2nn12Capabilities18OperandPerformanceE",
   "size" : 4,
   "source_file" : "hardware/interfaces/neuralnetworks/1.3/utils/include/nnapi/hal/1.3/Conversions.h"
  },
  {
   "alignment" : 4,
   "linker_set_key" : "_ZTIRKN7android2nn12CapabilitiesE",
   "name" : "const android::nn::Capabilities &",
   "referenced_type" : "_ZTIKN7android2nn12CapabilitiesE",
   "self_type" : "_ZTIRKN7android2nn12CapabilitiesE",
   "size" : 4,
   "source_file" : "hardware/interfaces/neuralnetworks/1.3/utils/include/nnapi/hal/1.3/Conversions.h"
  },
  {
   "alignment" : 4,
   "linker_set_key" : "_ZTIRKN7android2nn12DeviceStatusE",
   "name" : "const android::nn::DeviceStatus &",
   "referenced_type" : "_ZTIKN7android2nn12DeviceStatusE",
   "self_type" : "_ZTIRKN7android2nn12DeviceStatusE",
   "size" : 4,
   "source_file" : "hardware/interfaces/neuralnetworks/1.3/utils/include/nnapi/hal/1.3/Conversions.h"
  },
  {
   "alignment" : 4,
   "linker_set_key" : "_ZTIRKN7android2nn13MeasureTimingE",
   "name" : "const android::nn::MeasureTiming &",
   "referenced_type" : "_ZTIKN7android2nn13MeasureTimingE",
   "self_type" : "_ZTIRKN7android2nn13MeasureTimingE",
   "size" : 4,
   "source_file" : "hardware/interfaces/neuralnetworks/1.3/utils/include/nnapi/hal/1.3/Conversions.h"
  },
  {
   "alignment" : 4,
   "linker_set_key" : "_ZTIRKN7android2nn13OperationTypeE",
   "name" : "const android::nn::OperationType &",
   "referenced_type" : "_ZTIKN7android2nn13OperationTypeE",
   "self_type" : "_ZTIRKN7android2nn13OperationTypeE",
   "size" : 4,
   "source_file" : "hardware/interfaces/neuralnetworks/1.3/utils/include/nnapi/hal/1.3/Conversions.h"
  },
  {
   "alignment" : 4,
   "linker_set_key" : "_ZTIRKN7android2nn19ExecutionPreferenceE",
   "name" : "const android::nn::ExecutionPreference &",
   "referenced_type" : "_ZTIKN7android2nn19ExecutionPreferenceE",
   "self_type" : "_ZTIRKN7android2nn19ExecutionPreferenceE",
   "size" : 4,
   "source_file" : "hardware/interfaces/neuralnetworks/1.3/utils/include/nnapi/hal/1.3/Conversions.h"
  },
  {
   "alignment" : 4,
   "linker_set_key" : "_ZTIRKN7android2nn5Model8SubgraphE",
   "name" : "const android::nn::Model::Subgraph &",
   "referenced_type" : "_ZTIKN7android2nn5Model8SubgraphE",
   "self_type" : "_ZTIRKN7android2nn5Model8SubgraphE",
   "size" : 4,
   "source_file" : "hardware/interfaces/neuralnetworks/1.3/utils/include/nnapi/hal/1.3/Conversions.h"
  },
  {
   "alignment" : 4,
   "linker_set_key" : "_ZTIRKN7android2nn5ModelE",
   "name" : "const android::nn::Model &",
   "referenced_type" : "_ZTIKN7android2nn5ModelE",
   "self_type" : "_ZTIRKN7android2nn5ModelE",
   "size" : 4,
   "source_file" : "hardware/interfaces/neuralnetworks/1.3/utils/include/nnapi/hal/1.3/Conversions.h"
  },
  {
   "alignment" : 4,
   "linker_set_key" : "_ZTIRKN7android2nn6TimingE",
   "name" : "const android::nn::Timing &",
   "referenced_type" : "_ZTIKN7android2nn6TimingE",
   "self_type" : "_ZTIRKN7android2nn6TimingE",
   "size" : 4,
   "source_file" : "hardware/interfaces/neuralnetworks/1.3/utils/include/nnapi/hal/1.3/Conversions.h"
  },
  {
   "alignment" : 4,
   "linker_set_key" : "_ZTIRKN7android2nn7Operand8LifeTimeE",
   "name" : "const android::nn::Operand::LifeTime &",
   "referenced_type" : "_ZTIKN7android2nn7Operand8LifeTimeE",
   "self_type" : "_ZTIRKN7android2nn7Operand8LifeTimeE",
   "size" : 4,
   "source_file" : "hardware/interfaces/neuralnetworks/1.3/utils/include/nnapi/hal/1.3/Conversions.h"
  },
  {
   "alignment" : 4,
   "linker_set_key" : "_ZTIRKN7android2nn7OperandE",
   "name" : "const android::nn::Operand &",
   "referenced_type" : "_ZTIKN7android2nn7OperandE",
   "self_type" : "_ZTIRKN7android2nn7OperandE",
   "size" : 4,
   "source_file" : "hardware/interfaces/neuralnetworks/1.3/utils/include/nnapi/hal/1.3/Conversions.h"
  },
  {
   "alignment" : 4,
   "linker_set_key" : "_ZTIRKN7android2nn7RequestE",
   "name" : "const android::nn::Request &",
   "referenced_type" : "_ZTIKN7android2nn7RequestE",
   "self_type" : "_ZTIRKN7android2nn7RequestE",
   "size" : 4,
   "source_file" : "hardware/interfaces/neuralnetworks/1.3/utils/include/nnapi/hal/1.3/Conversions.h"
  },
  {
   "alignment" : 4,
   "linker_set_key" : "_ZTIRKN7android2nn8PriorityE",
   "name" : "const android::nn::Priority &",
   "referenced_type" : "_ZTIKN7android2nn8PriorityE",
   "self_type" : "_ZTIRKN7android2nn8PriorityE",
   "size" : 4,
   "source_file" : "hardware/interfaces/neuralnetworks/1.3/utils/include/nnapi/hal/1.3/Conversions.h"
  },
  {
   "alignment" : 4,
   "linker_set_key" : "_ZTIRKN7android2nn9OperationE",
   "name" : "const android::nn::Operation &",
   "referenced_type" : "_ZTIKN7android2nn9OperationE",
   "self_type" : "_ZTIRKN7android2nn9OperationE",
   "size" : 4,
   "source_file" : "hardware/interfaces/neuralnetworks/1.3/utils/include/nnapi/hal/1.3/Conversions.h"
  },
  {
   "alignment" : 4,
   "linker_set_key" : "_ZTIRKN7android8hardware11hidl_handleE",
   "name" : "const android::hardware::hidl_handle &",
   "referenced_type" : "_ZTIKN7android8hardware11hidl_handleE",
   "self_type" : "_ZTIRKN7android8hardware11hidl_handleE",
   "size" : 4,
   "source_file" : "hardware/interfaces/neuralnetworks/1.3/utils/include/nnapi/hal/1.3/Conversions.h"
  },
  {
   "alignment" : 4,
   "linker_set_key" : "_ZTIRKN7android8hardware14neuralnetworks4V1_310BufferDescE",
   "name" : "const android::hardware::neuralnetworks::V1_3::BufferDesc &",
   "referenced_type" : "_ZTIKN7android8hardware14neuralnetworks4V1_310BufferDescE",
   "self_type" : "_ZTIRKN7android8hardware14neuralnetworks4V1_310BufferDescE",
   "size" : 4,
   "source_file" : "hardware/interfaces/neuralnetworks/1.3/utils/include/nnapi/hal/1.3/Conversions.h"
  },
  {
   "alignment" : 4,
   "linker_set_key" : "_ZTIRKN7android8hardware14neuralnetworks4V1_310BufferRoleE",
   "name" : "const android::hardware::neuralnetworks::V1_3::BufferRole &",
   "referenced_type" : "_ZTIKN7android8hardware14neuralnetworks4V1_310BufferRoleE",
   "self_type" : "_ZTIRKN7android8hardware14neuralnetworks4V1_310BufferRoleE",
   "size" : 4,
   "source_file" : "hardware/interfaces/neuralnetworks/1.3/utils/include/nnapi/hal/1.3/Conversions.h"
  },
  {
   "alignment" : 4,
   "linker_set_key" : "_ZTIRKN7android8hardware14neuralnetworks4V1_311ErrorStatusE",
   "name" : "const android::hardware::neuralnetworks::V1_3::ErrorStatus &",
   "referenced_type" : "_ZTIKN7android8hardware14neuralnetworks4V1_311ErrorStatusE",
   "self_type" : "_ZTIRKN7android8hardware14neuralnetworks4V1_311ErrorStatusE",
   "size" : 4,
   "source_file" : "hardware/interfaces/neuralnetworks/1.3/utils/include/nnapi/hal/1.3/Conversions.h"
  },
  {
   "alignment" : 4,
   "linker_set_key" : "_ZTIRKN7android8hardware14neuralnetworks4V1_311OperandTypeE",
   "name" : "const android::hardware::neuralnetworks::V1_3::OperandType &",
   "referenced_type" : "_ZTIKN7android8hardware14neuralnetworks4V1_311OperandTypeE",
   "self_type" : "_ZTIRKN7android8hardware14neuralnetworks4V1_311OperandTypeE",
   "size" : 4,
   "source_file" : "hardware/interfaces/neuralnetworks/1.3/utils/include/nnapi/hal/1.3/Conversions.h"
  },
  {
   "alignment" : 4,
   "linker_set_key" : "_ZTIRKN7android8hardware14neuralnetworks4V1_312Capabilities18OperandPerformanceE",
   "name" : "const android::hardware::neuralnetworks::V1_3::Capabilities::OperandPerformance &",
   "referenced_type" : "_ZTIKN7android8hardware14neuralnetworks4V1_312Capabilities18OperandPerformanceE",
   "self_type" : "_ZTIRKN7android8hardware14neuralnetworks4V1_312Capabilities18OperandPerformanceE",
   "size" : 4,
   "source_file" : "hardware/interfaces/neuralnetworks/1.3/utils/include/nnapi/hal/1.3/Conversions.h"
  },
  {
   "alignment" : 4,
   "linker_set_key" : "_ZTIRKN7android8hardware14neuralnetworks4V1_312CapabilitiesE",
   "name" : "const android::hardware::neuralnetworks::V1_3::Capabilities &",
   "referenced_type" : "_ZTIKN7android8hardware14neuralnetworks4V1_312CapabilitiesE",
   "self_type" : "_ZTIRKN7android8hardware14neuralnetworks4V1_312CapabilitiesE",
   "size" : 4,
   "source_file" : "hardware/interfaces/neuralnetworks/1.3/utils/include/nnapi/hal/1.3/Conversions.h"
  },
  {
   "alignment" : 4,
   "linker_set_key" : "_ZTIRKN7android8hardware14neuralnetworks4V1_313OperationTypeE",
   "name" : "const android::hardware::neuralnetworks::V1_3::OperationType &",
   "referenced_type" : "_ZTIKN7android8hardware14neuralnetworks4V1_313OperationTypeE",
   "self_type" : "_ZTIRKN7android8hardware14neuralnetworks4V1_313OperationTypeE",
   "size" : 4,
   "source_file" : "hardware/interfaces/neuralnetworks/1.3/utils/include/nnapi/hal/1.3/Conversions.h"
  },
  {
   "alignment" : 4,
   "linker_set_key" : "_ZTIRKN7android8hardware14neuralnetworks4V1_315OperandLifeTimeE",
   "name" : "const android::hardware::neuralnetworks::V1_3::OperandLifeTime &",
   "referenced_type" : "_ZTIKN7android8hardware14neuralnetworks4V1_315OperandLifeTimeE",
   "self_type" : "_ZTIRKN7android8hardware14neuralnetworks4V1_315OperandLifeTimeE",
   "size" : 4,
   "source_file" : "hardware/interfaces/neuralnetworks/1.3/utils/include/nnapi/hal/1.3/Conversions.h"
  },
  {
   "alignment" : 4,
   "linker_set_key" : "_ZTIRKN7android8hardware14neuralnetworks4V1_317OptionalTimePointE",
   "name" : "const android::hardware::neuralnetworks::V1_3::OptionalTimePoint &",
   "referenced_type" : "_ZTIKN7android8hardware14neuralnetworks4V1_317OptionalTimePointE",
   "self_type" : "_ZTIRKN7android8hardware14neuralnetworks4V1_317OptionalTimePointE",
   "size" : 4,
   "source_file" : "hardware/interfaces/neuralnetworks/1.3/utils/include/nnapi/hal/1.3/Conversions.h"
  },
  {
   "alignment" : 4,
   "linker_set_key" : "_ZTIRKN7android8hardware14neuralnetworks4V1_323OptionalTimeoutDurationE",
   "name" : "const android::hardware::neuralnetworks::V1_3::OptionalTimeoutDuration &",
   "referenced_type" : "_ZTIKN7android8hardware14neuralnetworks4V1_323OptionalTimeoutDurationE",
   "self_type" : "_ZTIRKN7android8hardware14neuralnetworks4V1_323OptionalTimeoutDurationE",
   "size" : 4,
   "source_file" : "hardware/interfaces/neuralnetworks/1.3/utils/include/nnapi/hal/1.3/Conversions.h"
  },
  {
   "alignment" : 4,
   "linker_set_key" : "_ZTIRKN7android8hardware14neuralnetworks4V1_35ModelE",
   "name" : "const android::hardware::neuralnetworks::V1_3::Model &",
   "referenced_type" : "_ZTIKN7android8hardware14neuralnetworks4V1_35ModelE",
   "self_type" : "_ZTIRKN7android8hardware14neuralnetworks4V1_35ModelE",
   "size" : 4,
   "source_file" : "hardware/interfaces/neuralnetworks/1.3/utils/include/nnapi/hal/1.3/Conversions.h"
  },
  {
   "alignment" : 4,
   "linker_set_key" : "_ZTIRKN7android8hardware14neuralnetworks4V1_37OperandE",
   "name" : "const android::hardware::neuralnetworks::V1_3::Operand &",
   "referenced_type" : "_ZTIKN7android8hardware14neuralnetworks4V1_37OperandE",
   "self_type" : "_ZTIRKN7android8hardware14neuralnetworks4V1_37OperandE",
   "size" : 4,
   "source_file" : "hardware/interfaces/neuralnetworks/1.3/utils/include/nnapi/hal/1.3/Conversions.h"
  },
  {
   "alignment" : 4,
   "linker_set_key" : "_ZTIRKN7android8hardware14neuralnetworks4V1_37Request10MemoryPoolE",
   "name" : "const android::hardware::neuralnetworks::V1_3::Request::MemoryPool &",
   "referenced_type" : "_ZTIKN7android8hardware14neuralnetworks4V1_37Request10MemoryPoolE",
   "self_type" : "_ZTIRKN7android8hardware14neuralnetworks4V1_37Request10MemoryPoolE",
   "size" : 4,
   "source_file" : "hardware/interfaces/neuralnetworks/1.3/utils/include/nnapi/hal/1.3/Conversions.h"
  },
  {
   "alignment" : 4,
   "linker_set_key" : "_ZTIRKN7android8hardware14neuralnetworks4V1_37RequestE",
   "name" : "const android::hardware::neuralnetworks::V1_3::Request &",
   "referenced_type" : "_ZTIKN7android8hardware14neuralnetworks4V1_37RequestE",
   "self_type" : "_ZTIRKN7android8hardware14neuralnetworks4V1_37RequestE",
   "size" : 4,
   "source_file" : "hardware/interfaces/neuralnetworks/1.3/utils/include/nnapi/hal/1.3/Conversions.h"
  },
  {
   "alignment" : 4,
   "linker_set_key" : "_ZTIRKN7android8hardware14neuralnetworks4V1_38PriorityE",
   "name" : "const android::hardware::neuralnetworks::V1_3::Priority &",
   "referenced_type" : "_ZTIKN7android8hardware14neuralnetworks4V1_38PriorityE",
   "self_type" : "_ZTIRKN7android8hardware14neuralnetworks4V1_38PriorityE",
   "size" : 4,
   "source_file" : "hardware/interfaces/neuralnetworks/1.3/utils/include/nnapi/hal/1.3/Conversions.h"
  },
  {
   "alignment" : 4,
   "linker_set_key" : "_ZTIRKN7android8hardware14neuralnetworks4V1_38SubgraphE",
   "name" : "const android::hardware::neuralnetworks::V1_3::Subgraph &",
   "referenced_type" : "_ZTIKN7android8hardware14neuralnetworks4V1_38SubgraphE",
   "self_type" : "_ZTIRKN7android8hardware14neuralnetworks4V1_38SubgraphE",
   "size" : 4,
   "source_file" : "hardware/interfaces/neuralnetworks/1.3/utils/include/nnapi/hal/1.3/Conversions.h"
  },
  {
   "alignment" : 4,
   "linker_set_key" : "_ZTIRKN7android8hardware14neuralnetworks4V1_39OperationE",
   "name" : "const android::hardware::neuralnetworks::V1_3::Operation &",
   "referenced_type" : "_ZTIKN7android8hardware14neuralnetworks4V1_39OperationE",
   "self_type" : "_ZTIRKN7android8hardware14neuralnetworks4V1_39OperationE",
   "size" : 4,
   "source_file" : "hardware/interfaces/neuralnetworks/1.3/utils/include/nnapi/hal/1.3/Conversions.h"
  },
  {
   "alignment" : 4,
   "linker_set_key" : "_ZTIRKN7android8hardware8hidl_vecINS0_14neuralnetworks4V1_310BufferRoleEEE",
   "name" : "const android::hardware::hidl_vec<android::hardware::neuralnetworks::V1_3::BufferRole> &",
   "referenced_type" : "_ZTIKN7android8hardware8hidl_vecINS0_14neuralnetworks4V1_310BufferRoleEEE",
   "self_type" : "_ZTIRKN7android8hardware8hidl_vecINS0_14neuralnetworks4V1_310BufferRoleEEE",
   "size" : 4,
   "source_file" : "hardware/interfaces/neuralnetworks/1.3/utils/include/nnapi/hal/1.3/Conversions.h"
  },
  {
   "alignment" : 4,
   "linker_set_key" : "_ZTIRKNSt3__110shared_ptrIKN7android2nn6HandleEEE",
   "name" : "const std::shared_ptr<const android::nn::Handle> &",
   "referenced_type" : "_ZTIKNSt3__110shared_ptrIKN7android2nn6HandleEEE",
   "self_type" : "_ZTIRKNSt3__110shared_ptrIKN7android2nn6HandleEEE",
   "size" : 4,
   "source_file" : "hardware/interfaces/neuralnetworks/1.3/utils/include/nnapi/hal/1.3/Conversions.h"
  },
  {
   "alignment" : 4,
   "linker_set_key" : "_ZTIRKNSt3__110shared_ptrIKN7android2nn6MemoryEEE",
   "name" : "const std::shared_ptr<const android::nn::Memory> &",
   "referenced_type" : "_ZTIKNSt3__110shared_ptrIKN7android2nn6MemoryEEE",
   "self_type" : "_ZTIRKNSt3__110shared_ptrIKN7android2nn6MemoryEEE",
   "size" : 4,
   "source_file" : "hardware/interfaces/neuralnetworks/1.3/utils/include/nnapi/hal/1.3/Conversions.h"
  },
  {
   "alignment" : 4,
   "linker_set_key" : "_ZTIRKNSt3__16vectorIN7android2nn10BufferRoleENS_9allocatorIS3_EEEE",
   "name" : "const std::vector<android::nn::BufferRole, std::allocator<android::nn::BufferRole>> &",
   "referenced_type" : "_ZTIKNSt3__16vectorIN7android2nn10BufferRoleENS_9allocatorIS3_EEEE",
   "self_type" : "_ZTIRKNSt3__16vectorIN7android2nn10BufferRoleENS_9allocatorIS3_EEEE",
   "size" : 4,
   "source_file" : "hardware/interfaces/neuralnetworks/1.3/utils/include/nnapi/hal/1.3/Conversions.h"
  },
  {
   "alignment" : 4,
   "linker_set_key" : "_ZTIRKNSt3__16vectorIN7android2nn11OutputShapeENS_9allocatorIS3_EEEE",
   "name" : "const std::vector<android::nn::OutputShape, std::allocator<android::nn::OutputShape>> &",
   "referenced_type" : "_ZTIKNSt3__16vectorIN7android2nn11OutputShapeENS_9allocatorIS3_EEEE",
   "self_type" : "_ZTIRKNSt3__16vectorIN7android2nn11OutputShapeENS_9allocatorIS3_EEEE",
   "size" : 4,
   "source_file" : "hardware/interfaces/neuralnetworks/1.3/utils/include/nnapi/hal/1.3/Conversions.h"
  },
  {
   "alignment" : 4,
   "linker_set_key" : "_ZTIRKNSt3__16vectorIN7android2nn9ExtensionENS_9allocatorIS3_EEEE",
   "name" : "const std::vector<android::nn::Extension, std::allocator<android::nn::Extension>> &",
   "referenced_type" : "_ZTIKNSt3__16vectorIN7android2nn9ExtensionENS_9allocatorIS3_EEEE",
   "self_type" : "_ZTIRKNSt3__16vectorIN7android2nn9ExtensionENS_9allocatorIS3_EEEE",
   "size" : 4,
   "source_file" : "hardware/interfaces/neuralnetworks/1.3/utils/include/nnapi/hal/1.3/Conversions.h"
  },
  {
   "alignment" : 4,
   "linker_set_key" : "_ZTIRKNSt3__16vectorINS_10shared_ptrIKN7android2nn6HandleEEENS_9allocatorIS6_EEEE",
   "name" : "const std::vector<std::shared_ptr<const android::nn::Handle>, std::allocator<std::shared_ptr<const android::nn::Handle>>> &",
   "referenced_type" : "_ZTIKNSt3__16vectorINS_10shared_ptrIKN7android2nn6HandleEEENS_9allocatorIS6_EEEE",
   "self_type" : "_ZTIRKNSt3__16vectorINS_10shared_ptrIKN7android2nn6HandleEEENS_9allocatorIS6_EEEE",
   "size" : 4,
   "source_file" : "hardware/interfaces/neuralnetworks/1.3/utils/include/nnapi/hal/1.3/Conversions.h"
  },
  {
   "alignment" : 4,
   "linker_set_key" : "_ZTIRKNSt3__18optionalINS_6chrono10time_pointIN7android4base10boot_clockENS1_8durationIxNS_5ratioILx1ELx1000000000EEEEEEEEE",
   "name" : "const std::optional<std::chrono::time_point<android::base::boot_clock, std::chrono::duration<long long, std::ratio<1, 1000000000>>>> &",
   "referenced_type" : "_ZTIKNSt3__18optionalINS_6chrono10time_pointIN7android4base10boot_clockENS1_8durationIxNS_5ratioILx1ELx1000000000EEEEEEEEE",
   "self_type" : "_ZTIRKNSt3__18optionalINS_6chrono10time_pointIN7android4base10boot_clockENS1_8durationIxNS_5ratioILx1ELx1000000000EEEEEEEEE",
   "size" : 4,
   "source_file" : "hardware/interfaces/neuralnetworks/1.3/utils/include/nnapi/hal/1.3/Conversions.h"
  },
  {
   "alignment" : 4,
   "linker_set_key" : "_ZTIRKNSt3__18optionalINS_6chrono8durationIxNS_5ratioILx1ELx1000000000EEEEEEE",
   "name" : "const std::optional<std::chrono::duration<long long, std::ratio<1, 1000000000>>> &",
   "referenced_type" : "_ZTIKNSt3__18optionalINS_6chrono8durationIxNS_5ratioILx1ELx1000000000EEEEEEE",
   "self_type" : "_ZTIRKNSt3__18optionalINS_6chrono8durationIxNS_5ratioILx1ELx1000000000EEEEEEE",
   "size" : 4,
   "source_file" : "hardware/interfaces/neuralnetworks/1.3/utils/include/nnapi/hal/1.3/Conversions.h"
  }
 ],
 "pointer_types" : [],
 "qualified_types" :
 [
  {
   "alignment" : 4,
   "is_const" : true,
   "linker_set_key" : "_ZTIKN7android2nn10BufferDescE",
   "name" : "const android::nn::BufferDesc",
   "referenced_type" : "_ZTIN7android2nn10BufferDescE",
   "self_type" : "_ZTIKN7android2nn10BufferDescE",
   "size" : 12,
   "source_file" : "hardware/interfaces/neuralnetworks/1.3/utils/include/nnapi/hal/1.3/Conversions.h"
  },
  {
   "alignment" : 4,
   "is_const" : true,
   "linker_set_key" : "_ZTIKN7android2nn10BufferRoleE",
   "name" : "const android::nn::BufferRole",
   "referenced_type" : "_ZTIN7android2nn10BufferRoleE",
   "self_type" : "_ZTIKN7android2nn10BufferRoleE",
   "size" : 12,
   "source_file" : "hardware/interfaces/neuralnetworks/1.3/utils/include/nnapi/hal/1.3/Conversions.h"
  },
  {
   "alignment" : 4,
   "is_const" : true,
   "linker_set_key" : "_ZTIKN7android2nn10DeviceTypeE",
   "name" : "const android::nn::DeviceType",
   "referenced_type" : "_ZTIN7android2nn10DeviceTypeE",
   "self_type" : "_ZTIKN7android2nn10DeviceTypeE",
   "size" : 4,
   "source_file" : "hardware/interfaces/neuralnetworks/1.3/utils/include/nnapi/hal/1.3/Conversions.h"
  },
  {
   "alignment" : 4,
   "is_const" : true,
   "linker_set_key" : "_ZTIKN7android2nn11ErrorStatusE",
   "name" : "const android::nn::ErrorStatus",
   "referenced_type" : "_ZTIN7android2nn11ErrorStatusE",
   "self_type" : "_ZTIKN7android2nn11ErrorStatusE",
   "size" : 4,
   "source_file" : "hardware/interfaces/neuralnetworks/1.3/utils/include/nnapi/hal/1.3/Conversions.h"
  },
  {
   "alignment" : 4,
   "is_const" : true,
   "linker_set_key" : "_ZTIKN7android2nn11OperandTypeE",
   "name" : "const android::nn::OperandType",
   "referenced_type" : "_ZTIN7android2nn11OperandTypeE",
   "self_type" : "_ZTIKN7android2nn11OperandTypeE",
   "size" : 4,
   "source_file" : "hardware/interfaces/neuralnetworks/1.3/utils/include/nnapi/hal/1.3/Conversions.h"
  },
  {
   "alignment" : 4,
   "is_const" : true,
   "linker_set_key" : "_ZTIKN7android2nn12Capabilities18OperandPerformanceE",
   "name" : "const android::nn::Capabilities::OperandPerformance",
   "referenced_type" : "_ZTIN7android2nn12Capabilities18OperandPerformanceE",
   "self_type" : "_ZTIKN7android2nn12Capabilities18OperandPerformanceE",
   "size" : 12,
   "source_file" : "hardware/interfaces/neuralnetworks/1.3/utils/include/nnapi/hal/1.3/Conversions.h"
  },
  {
   "alignment" : 4,
   "is_const" : true,
   "linker_set_key" : "_ZTIKN7android2nn12CapabilitiesE",
   "name" : "const android::nn::Capabilities",
   "referenced_type" : "_ZTIN7android2nn12CapabilitiesE",
   "self_type" : "_ZTIKN7android2nn12CapabilitiesE",
   "size" : 44,
   "source_file" : "hardware/interfaces/neuralnetworks/1.3/utils/include/nnapi/hal/1.3/Conversions.h"
  },
  {
   "alignment" : 4,
   "is_const" : true,
   "linker_set_key" : "_ZTIKN7android2nn12DeviceStatusE",
   "name" : "const android::nn::DeviceStatus",
   "referenced_type" : "_ZTIN7android2nn12DeviceStatusE",
   "self_type" : "_ZTIKN7android2nn12DeviceStatusE",
   "size" : 4,
   "source_file" : "hardware/interfaces/neuralnetworks/1.3/utils/include/nnapi/hal/1.3/Conversions.h"
  },
  {
   "alignment" : 4,
   "is_const" : true,
   "linker_set_key" : "_ZTIKN7android2nn13MeasureTimingE",
   "name" : "const android::nn::MeasureTiming",
   "referenced_type" : "_ZTIN7android2nn13MeasureTimingE",
   "self_type" : "_ZTIKN7android2nn13MeasureTimingE",
   "size" : 4,
   "source_file" : "hardware/interfaces/neuralnetworks/1.3/utils/include/nnapi/hal/1.3/Conversions.h"
  },
  {
   "alignment" : 4,
   "is_const" : true,
   "linker_set_key" : "_ZTIKN7android2nn13OperationTypeE",
   "name" : "const android::nn::OperationType",
   "referenced_type" : "_ZTIN7android2nn13OperationTypeE",
   "self_type" : "_ZTIKN7android2nn13OperationTypeE",
   "size" : 4,
   "source_file" : "hardware/interfaces/neuralnetworks/1.3/utils/include/nnapi/hal/1.3/Conversions.h"
  },
  {
   "alignment" : 4,
   "is_const" : true,
   "linker_set_key" : "_ZTIKN7android2nn19ExecutionPreferenceE",
   "name" : "const android::nn::ExecutionPreference",
   "referenced_type" : "_ZTIN7android2nn19ExecutionPreferenceE",
   "self_type" : "_ZTIKN7android2nn19ExecutionPreferenceE",
   "size" : 4,
   "source_file" : "hardware/interfaces/neuralnetworks/1.3/utils/include/nnapi/hal/1.3/Conversions.h"
  },
  {
   "alignment" : 4,
   "is_const" : true,
   "linker_set_key" : "_ZTIKN7android2nn5Model8SubgraphE",
   "name" : "const android::nn::Model::Subgraph",
   "referenced_type" : "_ZTIN7android2nn5Model8SubgraphE",
   "self_type" : "_ZTIKN7android2nn5Model8SubgraphE",
   "size" : 48,
   "source_file" : "hardware/interfaces/neuralnetworks/1.3/utils/include/nnapi/hal/1.3/Conversions.h"
  },
  {
   "alignment" : 4,
   "is_const" : true,
   "linker_set_key" : "_ZTIKN7android2nn5ModelE",
   "name" : "const android::nn::Model",
   "referenced_type" : "_ZTIN7android2nn5ModelE",
   "self_type" : "_ZTIKN7android2nn5ModelE",
   "size" : 100,
   "source_file" : "hardware/interfaces/neuralnetworks/1.3/utils/include/nnapi/hal/1.3/Conversions.h"
  },
  {
   "alignment" : 8,
   "is_const" : true,
   "linker_set_key" : "_ZTIKN7android2nn6TimingE",
   "name" : "const android::nn::Timing",
   "referenced_type" : "_ZTIN7android2nn6TimingE",
   "self_type" : "_ZTIKN7android2nn6TimingE",
   "size" : 32,
   "source_file" : "hardware/interfaces/neuralnetworks/1.3/utils/include/nnapi/hal/1.3/Conversions.h"
  },
  {
   "alignment" : 4,
   "is_const" : true,
   "linker_set_key" : "_ZTIKN7android2nn7Operand8LifeTimeE",
   "name" : "const android::nn::Operand::LifeTime",
   "referenced_type" : "_ZTIN7android2nn7Operand8LifeTimeE",
   "self_type" : "_ZTIKN7android2nn7Operand8LifeTimeE",
   "size" : 4,
   "source_file" : "hardware/interfaces/neuralnetworks/1.3/utils/include/nnapi/hal/1.3/Conversions.h"
  },
  {
   "alignment" : 4,
   "is_const" : true,
   "linker_set_key" : "_ZTIKN7android2nn7OperandE",
   "name" : "const android::nn::Operand",
   "referenced_type" : "_ZTIN7android2nn7OperandE",
   "self_type" : "_ZTIKN7android2nn7OperandE",
   "size" : 72,
   "source_file" : "hardware/interfaces/neuralnetworks/1.3/utils/include/nnapi/hal/1.3/Conversions.h"
  },
  {
   "alignment" : 4,
   "is_const" : true,
   "linker_set_key" : "_ZTIKN7android2nn7RequestE",
   "name" : "const android::nn::Request",
   "referenced_type" : "_ZTIN7android2nn7RequestE",
   "self_type" : "_ZTIKN7android2nn7RequestE",
   "size" : 36,
   "source_file" : "hardware/interfaces/neuralnetworks/1.3/utils/include/nnapi/hal/1.3/Conversions.h"
  },
  {
   "alignment" : 4,
   "is_const" : true,
   "linker_set_key" : "_ZTIKN7android2nn7VersionE",
   "name" : "const android::nn::Version",
   "referenced_type" : "_ZTIN7android2nn7VersionE",
   "self_type" : "_ZTIKN7android2nn7VersionE",
   "size" : 4,
   "source_file" : "hardware/interfaces/neuralnetworks/1.3/utils/include/nnapi/hal/1.3/Utils.h"
  },
  {
   "alignment" : 4,
   "is_const" : true,
   "linker_set_key" : "_ZTIKN7android2nn8PriorityE",
   "name" : "const android::nn::Priority",
   "referenced_type" : "_ZTIN7android2nn8PriorityE",
   "self_type" : "_ZTIKN7android2nn8PriorityE",
   "size" : 4,
   "source_file" : "hardware/interfaces/neuralnetworks/1.3/utils/include/nnapi/hal/1.3/Conversions.h"
  },
  {
   "alignment" : 4,
   "is_const" : true,
   "linker_set_key" : "_ZTIKN7android2nn9OperationE",
   "name" : "const android::nn::Operation",
   "referenced_type" : "_ZTIN7android2nn9OperationE",
   "self_type" : "_ZTIKN7android2nn9OperationE",
   "size" : 28,
   "source_file" : "hardware/interfaces/neuralnetworks/1.3/utils/include/nnapi/hal/1.3/Conversions.h"
  },
  {
   "alignment" : 8,
   "is_const" : true,
   "linker_set_key" : "_ZTIKN7android8hardware11hidl_handleE",
   "name" : "const android::hardware::hidl_handle",
   "referenced_type" : "_ZTIN7android8hardware11hidl_handleE",
   "self_type" : "_ZTIKN7android8hardware11hidl_handleE",
   "size" : 16,
   "source_file" : "hardware/interfaces/neuralnetworks/1.3/utils/include/nnapi/hal/1.3/Conversions.h"
  },
  {
   "alignment" : 8,
   "is_const" : true,
   "linker_set_key" : "_ZTIKN7android8hardware14neuralnetworks4V1_310BufferDescE",
   "name" : "const android::hardware::neuralnetworks::V1_3::BufferDesc",
   "referenced_type" : "_ZTIN7android8hardware14neuralnetworks4V1_310BufferDescE",
   "self_type" : "_ZTIKN7android8hardware14neuralnetworks4V1_310BufferDescE",
   "size" : 16,
   "source_file" : "hardware/interfaces/neuralnetworks/1.3/utils/include/nnapi/hal/1.3/Conversions.h"
  },
  {
   "alignment" : 4,
   "is_const" : true,
   "linker_set_key" : "_ZTIKN7android8hardware14neuralnetworks4V1_310BufferRoleE",
   "name" : "const android::hardware::neuralnetworks::V1_3::BufferRole",
   "referenced_type" : "_ZTIN7android8hardware14neuralnetworks4V1_310BufferRoleE",
   "self_type" : "_ZTIKN7android8hardware14neuralnetworks4V1_310BufferRoleE",
   "size" : 12,
   "source_file" : "hardware/interfaces/neuralnetworks/1.3/utils/include/nnapi/hal/1.3/Conversions.h"
  },
  {
   "alignment" : 4,
   "is_const" : true,
   "linker_set_key" : "_ZTIKN7android8hardware14neuralnetworks4V1_311ErrorStatusE",
   "name" : "const android::hardware::neuralnetworks::V1_3::ErrorStatus",
   "referenced_type" : "_ZTIN7android8hardware14neuralnetworks4V1_311ErrorStatusE",
   "self_type" : "_ZTIKN7android8hardware14neuralnetworks4V1_311ErrorStatusE",
   "size" : 4,
   "source_file" : "hardware/interfaces/neuralnetworks/1.3/utils/include/nnapi/hal/1.3/Conversions.h"
  },
  {
   "alignment" : 4,
   "is_const" : true,
   "linker_set_key" : "_ZTIKN7android8hardware14neuralnetworks4V1_311OperandTypeE",
   "name" : "const android::hardware::neuralnetworks::V1_3::OperandType",
   "referenced_type" : "_ZTIN7android8hardware14neuralnetworks4V1_311OperandTypeE",
   "self_type" : "_ZTIKN7android8hardware14neuralnetworks4V1_311OperandTypeE",
   "size" : 4,
   "source_file" : "hardware/interfaces/neuralnetworks/1.3/utils/include/nnapi/hal/1.3/Conversions.h"
  },
  {
   "alignment" : 4,
   "is_const" : true,
   "linker_set_key" : "_ZTIKN7android8hardware14neuralnetworks4V1_312Capabilities18OperandPerformanceE",
   "name" : "const android::hardware::neuralnetworks::V1_3::Capabilities::OperandPerformance",
   "referenced_type" : "_ZTIN7android8hardware14neuralnetworks4V1_312Capabilities18OperandPerformanceE",
   "self_type" : "_ZTIKN7android8hardware14neuralnetworks4V1_312Capabilities18OperandPerformanceE",
   "size" : 12,
   "source_file" : "hardware/interfaces/neuralnetworks/1.3/utils/include/nnapi/hal/1.3/Conversions.h"
  },
  {
   "alignment" : 8,
   "is_const" : true,
   "linker_set_key" : "_ZTIKN7android8hardware14neuralnetworks4V1_312CapabilitiesE",
   "name" : "const android::hardware::neuralnetworks::V1_3::Capabilities",
   "referenced_type" : "_ZTIN7android8hardware14neuralnetworks4V1_312CapabilitiesE",
   "self_type" : "_ZTIKN7android8hardware14neuralnetworks4V1_312CapabilitiesE",
   "size" : 48,
   "source_file" : "hardware/interfaces/neuralnetworks/1.3/utils/include/nnapi/hal/1.3/Conversions.h"
  },
  {
   "alignment" : 4,
   "is_const" : true,
   "linker_set_key" : "_ZTIKN7android8hardware14neuralnetworks4V1_313OperationTypeE",
   "name" : "const android::hardware::neuralnetworks::V1_3::OperationType",
   "referenced_type" : "_ZTIN7android8hardware14neuralnetworks4V1_313OperationTypeE",
   "self_type" : "_ZTIKN7android8hardware14neuralnetworks4V1_313OperationTypeE",
   "size" : 4,
   "source_file" : "hardware/interfaces/neuralnetworks/1.3/utils/include/nnapi/hal/1.3/Conversions.h"
  },
  {
   "alignment" : 4,
   "is_const" : true,
   "linker_set_key" : "_ZTIKN7android8hardware14neuralnetworks4V1_315OperandLifeTimeE",
   "name" : "const android::hardware::neuralnetworks::V1_3::OperandLifeTime",
   "referenced_type" : "_ZTIN7android8hardware14neuralnetworks4V1_315OperandLifeTimeE",
   "self_type" : "_ZTIKN7android8hardware14neuralnetworks4V1_315OperandLifeTimeE",
   "size" : 4,
   "source_file" : "hardware/interfaces/neuralnetworks/1.3/utils/include/nnapi/hal/1.3/Conversions.h"
  },
  {
   "alignment" : 8,
   "is_const" : true,
   "linker_set_key" : "_ZTIKN7android8hardware14neuralnetworks4V1_317OptionalTimePointE",
   "name" : "const android::hardware::neuralnetworks::V1_3::OptionalTimePoint",
   "referenced_type" : "_ZTIN7android8hardware14neuralnetworks4V1_317OptionalTimePointE",
   "self_type" : "_ZTIKN7android8hardware14neuralnetworks4V1_317OptionalTimePointE",
   "size" : 16,
   "source_file" : "hardware/interfaces/neuralnetworks/1.3/utils/include/nnapi/hal/1.3/Conversions.h"
  },
  {
   "alignment" : 8,
   "is_const" : true,
   "linker_set_key" : "_ZTIKN7android8hardware14neuralnetworks4V1_323OptionalTimeoutDurationE",
   "name" : "const android::hardware::neuralnetworks::V1_3::OptionalTimeoutDuration",
   "referenced_type" : "_ZTIN7android8hardware14neuralnetworks4V1_323OptionalTimeoutDurationE",
   "self_type" : "_ZTIKN7android8hardware14neuralnetworks4V1_323OptionalTimeoutDurationE",
   "size" : 16,
   "source_file" : "hardware/interfaces/neuralnetworks/1.3/utils/include/nnapi/hal/1.3/Conversions.h"
  },
  {
   "alignment" : 8,
   "is_const" : true,
   "linker_set_key" : "_ZTIKN7android8hardware14neuralnetworks4V1_35ModelE",
   "name" : "const android::hardware::neuralnetworks::V1_3::Model",
   "referenced_type" : "_ZTIN7android8hardware14neuralnetworks4V1_35ModelE",
   "self_type" : "_ZTIKN7android8hardware14neuralnetworks4V1_35ModelE",
   "size" : 136,
   "source_file" : "hardware/interfaces/neuralnetworks/1.3/utils/include/nnapi/hal/1.3/Conversions.h"
  },
  {
   "alignment" : 8,
   "is_const" : true,
   "linker_set_key" : "_ZTIKN7android8hardware14neuralnetworks4V1_37OperandE",
   "name" : "const android::hardware::neuralnetworks::V1_3::Operand",
   "referenced_type" : "_ZTIN7android8hardware14neuralnetworks4V1_37OperandE",
   "self_type" : "_ZTIKN7android8hardware14neuralnetworks4V1_37OperandE",
   "size" : 88,
   "source_file" : "hardware/interfaces/neuralnetworks/1.3/utils/include/nnapi/hal/1.3/Conversions.h"
  },
  {
   "alignment" : 8,
   "is_const" : true,
   "linker_set_key" : "_ZTIKN7android8hardware14neuralnetworks4V1_37Request10MemoryPoolE",
   "name" : "const android::hardware::neuralnetworks::V1_3::Request::MemoryPool",
   "referenced_type" : "_ZTIN7android8hardware14neuralnetworks4V1_37Request10MemoryPoolE",
   "self_type" : "_ZTIKN7android8hardware14neuralnetworks4V1_37Request10MemoryPoolE",
   "size" : 48,
   "source_file" : "hardware/interfaces/neuralnetworks/1.3/utils/include/nnapi/hal/1.3/Conversions.h"
  },
  {
   "alignment" : 8,
   "is_const" : true,
   "linker_set_key" : "_ZTIKN7android8hardware14neuralnetworks4V1_37RequestE",
   "name" : "const android::hardware::neuralnetworks::V1_3::Request",
   "referenced_type" : "_ZTIN7android8hardware14neuralnetworks4V1_37RequestE",
   "self_type" : "_ZTIKN7android8hardware14neuralnetworks4V1_37RequestE",
   "size" : 48,
   "source_file" : "hardware/interfaces/neuralnetworks/1.3/utils/include/nnapi/hal/1.3/Conversions.h"
  },
  {
   "alignment" : 4,
   "is_const" : true,
   "linker_set_key" : "_ZTIKN7android8hardware14neuralnetworks4V1_38PriorityE",
   "name" : "const android::hardware::neuralnetworks::V1_3::Priority",
   "referenced_type" : "_ZTIN7android8hardware14neuralnetworks4V1_38PriorityE",
   "self_type" : "_ZTIKN7android8hardware14neuralnetworks4V1_38PriorityE",
   "size" : 4,
   "source_file" : "hardware/interfaces/neuralnetworks/1.3/utils/include/nnapi/hal/1.3/Conversions.h"
  },
  {
   "alignment" : 8,
   "is_const" : true,
   "linker_set_key" : "_ZTIKN7android8hardware14neuralnetworks4V1_38SubgraphE",
   "name" : "const android::hardware::neuralnetworks::V1_3::Subgraph",
   "referenced_type" : "_ZTIN7android8hardware14neuralnetworks4V1_38SubgraphE",
   "self_type" : "_ZTIKN7android8hardware14neuralnetworks4V1_38SubgraphE",
   "size" : 64,
   "source_file" : "hardware/interfaces/neuralnetworks/1.3/utils/include/nnapi/hal/1.3/Conversions.h"
  },
  {
   "alignment" : 8,
   "is_const" : true,
   "linker_set_key" : "_ZTIKN7android8hardware14neuralnetworks4V1_39OperationE",
   "name" : "const android::hardware::neuralnetworks::V1_3::Operation",
   "referenced_type" : "_ZTIN7android8hardware14neuralnetworks4V1_39OperationE",
   "self_type" : "_ZTIKN7android8hardware14neuralnetworks4V1_39OperationE",
   "size" : 40,
   "source_file" : "hardware/interfaces/neuralnetworks/1.3/utils/include/nnapi/hal/1.3/Conversions.h"
  },
  {
   "alignment" : 8,
   "is_const" : true,
   "linker_set_key" : "_ZTIKN7android8hardware8hidl_vecINS0_14neuralnetworks4V1_310BufferRoleEEE",
   "name" : "const android::hardware::hidl_vec<android::hardware::neuralnetworks::V1_3::BufferRole>",
   "referenced_type" : "_ZTIN7android8hardware8hidl_vecINS0_14neuralnetworks4V1_310BufferRoleEEE",
   "self_type" : "_ZTIKN7android8hardware8hidl_vecINS0_14neuralnetworks4V1_310BufferRoleEEE",
   "size" : 16,
   "source_file" : "hardware/interfaces/neuralnetworks/1.3/utils/include/nnapi/hal/1.3/Conversions.h"
  },
  {
   "alignment" : 4,
   "is_const" : true,
   "linker_set_key" : "_ZTIKNSt3__110shared_ptrIKN7android2nn6HandleEEE",
   "name" : "const std::shared_ptr<const android::nn::Handle>",
   "referenced_type" : "_ZTINSt3__110shared_ptrIKN7android2nn6HandleEEE",
   "self_type" : "_ZTIKNSt3__110shared_ptrIKN7android2nn6HandleEEE",
   "size" : 8,
   "source_file" : "hardware/interfaces/neuralnetworks/1.3/utils/include/nnapi/hal/1.3/Conversions.h"
  },
  {
   "alignment" : 4,
   "is_const" : true,
   "linker_set_key" : "_ZTIKNSt3__110shared_ptrIKN7android2nn6MemoryEEE",
   "name" : "const std::shared_ptr<const android::nn::Memory>",
   "referenced_type" : "_ZTINSt3__110shared_ptrIKN7android2nn6MemoryEEE",
   "self_type" : "_ZTIKNSt3__110shared_ptrIKN7android2nn6MemoryEEE",
   "size" : 8,
   "source_file" : "hardware/interfaces/neuralnetworks/1.3/utils/include/nnapi/hal/1.3/Conversions.h"
  },
  {
   "alignment" : 4,
   "is_const" : true,
   "linker_set_key" : "_ZTIKNSt3__16vectorIN7android2nn10BufferRoleENS_9allocatorIS3_EEEE",
   "name" : "const std::vector<android::nn::BufferRole, std::allocator<android::nn::BufferRole>>",
   "referenced_type" : "_ZTINSt3__16vectorIN7android2nn10BufferRoleENS_9allocatorIS3_EEEE",
   "self_type" : "_ZTIKNSt3__16vectorIN7android2nn10BufferRoleENS_9allocatorIS3_EEEE",
   "size" : 12,
   "source_file" : "hardware/interfaces/neuralnetworks/1.3/utils/include/nnapi/hal/1.3/Conversions.h"
  },
  {
   "alignment" : 4,
   "is_const" : true,
   "linker_set_key" : "_ZTIKNSt3__16vectorIN7android2nn11OutputShapeENS_9allocatorIS3_EEEE",
   "name" : "const std::vector<android::nn::OutputShape, std::allocator<android::nn::OutputShape>>",
   "referenced_type" : "_ZTINSt3__16vectorIN7android2nn11OutputShapeENS_9allocatorIS3_EEEE",
   "self_type" : "_ZTIKNSt3__16vectorIN7android2nn11OutputShapeENS_9allocatorIS3_EEEE",
   "size" : 12,
   "source_file" : "hardware/interfaces/neuralnetworks/1.3/utils/include/nnapi/hal/1.3/Conversions.h"
  },
  {
   "alignment" : 4,
   "is_const" : true,
   "linker_set_key" : "_ZTIKNSt3__16vectorIN7android2nn9ExtensionENS_9allocatorIS3_EEEE",
   "name" : "const std::vector<android::nn::Extension, std::allocator<android::nn::Extension>>",
   "referenced_type" : "_ZTINSt3__16vectorIN7android2nn9ExtensionENS_9allocatorIS3_EEEE",
   "self_type" : "_ZTIKNSt3__16vectorIN7android2nn9ExtensionENS_9allocatorIS3_EEEE",
   "size" : 12,
   "source_file" : "hardware/interfaces/neuralnetworks/1.3/utils/include/nnapi/hal/1.3/Conversions.h"
  },
  {
   "alignment" : 4,
   "is_const" : true,
   "linker_set_key" : "_ZTIKNSt3__16vectorINS_10shared_ptrIKN7android2nn6HandleEEENS_9allocatorIS6_EEEE",
   "name" : "const std::vector<std::shared_ptr<const android::nn::Handle>, std::allocator<std::shared_ptr<const android::nn::Handle>>>",
   "referenced_type" : "_ZTINSt3__16vectorINS_10shared_ptrIKN7android2nn6HandleEEENS_9allocatorIS6_EEEE",
   "self_type" : "_ZTIKNSt3__16vectorINS_10shared_ptrIKN7android2nn6HandleEEENS_9allocatorIS6_EEEE",
   "size" : 12,
   "source_file" : "hardware/interfaces/neuralnetworks/1.3/utils/include/nnapi/hal/1.3/Conversions.h"
  },
  {
   "alignment" : 8,
   "is_const" : true,
   "linker_set_key" : "_ZTIKNSt3__18optionalINS_6chrono10time_pointIN7android4base10boot_clockENS1_8durationIxNS_5ratioILx1ELx1000000000EEEEEEEEE",
   "name" : "const std::optional<std::chrono::time_point<android::base::boot_clock, std::chrono::duration<long long, std::ratio<1, 1000000000>>>>",
   "referenced_type" : "_ZTINSt3__18optionalINS_6chrono10time_pointIN7android4base10boot_clockENS1_8durationIxNS_5ratioILx1ELx1000000000EEEEEEEEE",
   "self_type" : "_ZTIKNSt3__18optionalINS_6chrono10time_pointIN7android4base10boot_clockENS1_8durationIxNS_5ratioILx1ELx1000000000EEEEEEEEE",
   "size" : 16,
   "source_file" : "hardware/interfaces/neuralnetworks/1.3/utils/include/nnapi/hal/1.3/Conversions.h"
  },
  {
   "alignment" : 8,
   "is_const" : true,
   "linker_set_key" : "_ZTIKNSt3__18optionalINS_6chrono8durationIxNS_5ratioILx1ELx1000000000EEEEEEE",
   "name" : "const std::optional<std::chrono::duration<long long, std::ratio<1, 1000000000>>>",
   "referenced_type" : "_ZTINSt3__18optionalINS_6chrono8durationIxNS_5ratioILx1ELx1000000000EEEEEEE",
   "self_type" : "_ZTIKNSt3__18optionalINS_6chrono8durationIxNS_5ratioILx1ELx1000000000EEEEEEE",
   "size" : 16,
   "source_file" : "hardware/interfaces/neuralnetworks/1.3/utils/include/nnapi/hal/1.3/Conversions.h"
  }
 ],
 "record_types" :
 [
  {
   "alignment" : 4,
   "fields" :
   [
    {
     "field_name" : "input",
     "referenced_type" : "_ZTINSt3__110unique_ptrIN7android8hardware14neuralnetworks5utils17RelocationTrackerINS4_14RelocationInfoIPKvEEEENS_14default_deleteISA_EEEE"
    },
    {
     "field_name" : "output",
     "field_offset" : 32,
     "referenced_type" : "_ZTINSt3__110unique_ptrIN7android8hardware14neuralnetworks5utils17RelocationTrackerINS4_14RelocationInfoIPvEEEENS_14default_deleteIS9_EEEE"
    }
   ],
   "linker_set_key" : "_ZTIN7android8hardware14neuralnetworks5utils17RequestRelocationE",
   "name" : "android::hardware::neuralnetworks::utils::RequestRelocation",
   "referenced_type" : "_ZTIN7android8hardware14neuralnetworks5utils17RequestRelocationE",
   "self_type" : "_ZTIN7android8hardware14neuralnetworks5utils17RequestRelocationE",
   "size" : 8,
   "source_file" : "hardware/interfaces/neuralnetworks/utils/common/include/nnapi/hal/CommonUtils.h"
  }
 ],
 "rvalue_reference_types" : []
}
