{
 "array_types" :
 [
  {
   "alignment" : 8,
   "linker_set_key" : "_ZTIA10_PKc",
   "name" : "const char *[10]",
   "referenced_type" : "_ZTIPKc",
   "self_type" : "_ZTIA10_PKc",
   "size" : 80,
   "source_file" : "external/zlib/zutil.h"
  },
  {
   "alignment" : 2,
   "linker_set_key" : "_ZTIA16_t",
   "name" : "unsigned short [16]",
   "referenced_type" : "_ZTIt",
   "self_type" : "_ZTIA16_t",
   "size" : 32,
   "source_file" : "external/zlib/deflate.h"
  },
  {
   "alignment" : 4,
   "linker_set_key" : "_ZTIA20_j",
   "name" : "unsigned int [20]",
   "referenced_type" : "_ZTIj",
   "self_type" : "_ZTIA20_j",
   "size" : 80,
   "source_file" : "external/zlib/deflate.h"
  },
  {
   "alignment" : 4,
   "linker_set_key" : "_ZTIA256_j",
   "name" : "unsigned int [256]",
   "referenced_type" : "_ZTIj",
   "self_type" : "_ZTIA256_j",
   "size" : 1024,
   "source_file" : "external/zlib/crc32.h"
  },
  {
   "alignment" : 2,
   "linker_set_key" : "_ZTIA39_9ct_data_s",
   "name" : "ct_data_s [39]",
   "referenced_type" : "_ZTI9ct_data_s",
   "self_type" : "_ZTIA39_9ct_data_s",
   "size" : 156,
   "source_file" : "external/zlib/deflate.h"
  },
  {
   "alignment" : 2,
   "linker_set_key" : "_ZTIA573_9ct_data_s",
   "name" : "ct_data_s [573]",
   "referenced_type" : "_ZTI9ct_data_s",
   "self_type" : "_ZTIA573_9ct_data_s",
   "size" : 2292,
   "source_file" : "external/zlib/deflate.h"
  },
  {
   "alignment" : 1,
   "linker_set_key" : "_ZTIA573_h",
   "name" : "unsigned char [573]",
   "referenced_type" : "_ZTIh",
   "self_type" : "_ZTIA573_h",
   "size" : 573,
   "source_file" : "external/zlib/deflate.h"
  },
  {
   "alignment" : 4,
   "linker_set_key" : "_ZTIA573_i",
   "name" : "int [573]",
   "referenced_type" : "_ZTIi",
   "self_type" : "_ZTIA573_i",
   "size" : 2292,
   "source_file" : "external/zlib/deflate.h"
  },
  {
   "alignment" : 2,
   "linker_set_key" : "_ZTIA61_9ct_data_s",
   "name" : "ct_data_s [61]",
   "referenced_type" : "_ZTI9ct_data_s",
   "self_type" : "_ZTIA61_9ct_data_s",
   "size" : 244,
   "source_file" : "external/zlib/deflate.h"
  },
  {
   "alignment" : 4,
   "linker_set_key" : "_ZTIA8_A256_j",
   "name" : "unsigned int [8][256]",
   "referenced_type" : "_ZTIA256_j",
   "self_type" : "_ZTIA8_A256_j",
   "size" : 8192,
   "source_file" : "external/zlib/crc32.h"
  },
  {
   "linker_set_key" : "_ZTIA_h",
   "name" : "unsigned char []",
   "referenced_type" : "_ZTIh",
   "self_type" : "_ZTIA_h",
   "source_file" : "external/zlib/deflate.h"
  }
 ],
 "builtin_types" :
 [
  {
   "alignment" : 1,
   "is_integral" : true,
   "is_unsigned" : true,
   "linker_set_key" : "_ZTIc",
   "name" : "char",
   "referenced_type" : "_ZTIc",
   "self_type" : "_ZTIc",
   "size" : 1
  },
  {
   "alignment" : 1,
   "is_integral" : true,
   "is_unsigned" : true,
   "linker_set_key" : "_ZTIh",
   "name" : "unsigned char",
   "referenced_type" : "_ZTIh",
   "self_type" : "_ZTIh",
   "size" : 1
  },
  {
   "alignment" : 4,
   "is_integral" : true,
   "linker_set_key" : "_ZTIi",
   "name" : "int",
   "referenced_type" : "_ZTIi",
   "self_type" : "_ZTIi",
   "size" : 4
  },
  {
   "alignment" : 4,
   "is_integral" : true,
   "is_unsigned" : true,
   "linker_set_key" : "_ZTIj",
   "name" : "unsigned int",
   "referenced_type" : "_ZTIj",
   "self_type" : "_ZTIj",
   "size" : 4
  },
  {
   "alignment" : 8,
   "is_integral" : true,
   "linker_set_key" : "_ZTIl",
   "name" : "long",
   "referenced_type" : "_ZTIl",
   "self_type" : "_ZTIl",
   "size" : 8
  },
  {
   "alignment" : 8,
   "is_integral" : true,
   "is_unsigned" : true,
   "linker_set_key" : "_ZTIm",
   "name" : "unsigned long",
   "referenced_type" : "_ZTIm",
   "self_type" : "_ZTIm",
   "size" : 8
  },
  {
   "alignment" : 2,
   "is_integral" : true,
   "is_unsigned" : true,
   "linker_set_key" : "_ZTIt",
   "name" : "unsigned short",
   "referenced_type" : "_ZTIt",
   "self_type" : "_ZTIt",
   "size" : 2
  },
  {
   "linker_set_key" : "_ZTIv",
   "name" : "void",
   "referenced_type" : "_ZTIv",
   "self_type" : "_ZTIv"
  }
 ],
 "elf_functions" : [],
 "elf_objects" : [],
 "enum_types" : [],
 "function_types" :
 [
  {
   "alignment" : 4,
   "linker_set_key" : "_ZTIFPvS_jjE",
   "name" : "void *(void *, unsigned int, unsigned int)",
   "parameters" :
   [
    {
     "referenced_type" : "_ZTIPv"
    },
    {
     "referenced_type" : "_ZTIj"
    },
    {
     "referenced_type" : "_ZTIj"
    }
   ],
   "referenced_type" : "_ZTIFPvS_jjE",
   "return_type" : "_ZTIPv",
   "self_type" : "_ZTIFPvS_jjE",
   "source_file" : "external/zlib/zlib.h"
  },
  {
   "alignment" : 4,
   "linker_set_key" : "_ZTIFvPvS_E",
   "name" : "void (void *, void *)",
   "parameters" :
   [
    {
     "referenced_type" : "_ZTIPv"
    },
    {
     "referenced_type" : "_ZTIPv"
    }
   ],
   "referenced_type" : "_ZTIFvPvS_E",
   "return_type" : "_ZTIv",
   "self_type" : "_ZTIFvPvS_E",
   "source_file" : "external/zlib/zlib.h"
  }
 ],
 "functions" :
 [
  {
   "function_name" : "crc32",
   "linker_set_key" : "crc32",
   "parameters" :
   [
    {
     "referenced_type" : "_ZTIm"
    },
    {
     "referenced_type" : "_ZTIPKh"
    },
    {
     "referenced_type" : "_ZTIj"
    }
   ],
   "return_type" : "_ZTIm",
   "source_file" : "external/zlib/zlib.h"
  },
  {
   "function_name" : "crc32_combine",
   "linker_set_key" : "crc32_combine",
   "parameters" :
   [
    {
     "referenced_type" : "_ZTIm"
    },
    {
     "referenced_type" : "_ZTIm"
    },
    {
     "referenced_type" : "_ZTIl"
    }
   ],
   "return_type" : "_ZTIm",
   "source_file" : "external/zlib/zlib.h"
  },
  {
   "function_name" : "crc32_combine64",
   "linker_set_key" : "crc32_combine64",
   "parameters" :
   [
    {
     "referenced_type" : "_ZTIm"
    },
    {
     "referenced_type" : "_ZTIm"
    },
    {
     "referenced_type" : "_ZTIl"
    }
   ],
   "return_type" : "_ZTIm",
   "source_file" : "external/zlib/zutil.h"
  },
  {
   "function_name" : "crc32_z",
   "linker_set_key" : "crc32_z",
   "parameters" :
   [
    {
     "referenced_type" : "_ZTIm"
    },
    {
     "referenced_type" : "_ZTIPKh"
    },
    {
     "referenced_type" : "_ZTIm"
    }
   ],
   "return_type" : "_ZTIm",
   "source_file" : "external/zlib/zlib.h"
  },
  {
   "function_name" : "get_crc_table",
   "linker_set_key" : "get_crc_table",
   "return_type" : "_ZTIPKj",
   "source_file" : "external/zlib/zlib.h"
  }
 ],
 "global_vars" :
 [
  {
   "linker_set_key" : "_dist_code",
   "name" : "_dist_code",
   "referenced_type" : "_ZTIA_Kh",
   "source_file" : "external/zlib/deflate.h"
  },
  {
   "linker_set_key" : "_length_code",
   "name" : "_length_code",
   "referenced_type" : "_ZTIA_Kh",
   "source_file" : "external/zlib/deflate.h"
  },
  {
   "linker_set_key" : "arm_cpu_enable_crc32",
   "name" : "arm_cpu_enable_crc32",
   "referenced_type" : "_ZTIi",
   "source_file" : "external/zlib/cpu_features.h"
  },
  {
   "linker_set_key" : "arm_cpu_enable_pmull",
   "name" : "arm_cpu_enable_pmull",
   "referenced_type" : "_ZTIi",
   "source_file" : "external/zlib/cpu_features.h"
  },
  {
   "linker_set_key" : "crc_table",
   "name" : "crc_table",
   "referenced_type" : "_ZTIA8_A256_Kj",
   "source_file" : "external/zlib/crc32.h"
  },
  {
   "linker_set_key" : "x86_cpu_enable_simd",
   "name" : "x86_cpu_enable_simd",
   "referenced_type" : "_ZTIi",
   "source_file" : "external/zlib/cpu_features.h"
  },
  {
   "linker_set_key" : "x86_cpu_enable_sse2",
   "name" : "x86_cpu_enable_sse2",
   "referenced_type" : "_ZTIi",
   "source_file" : "external/zlib/cpu_features.h"
  },
  {
   "linker_set_key" : "x86_cpu_enable_ssse3",
   "name" : "x86_cpu_enable_ssse3",
   "referenced_type" : "_ZTIi",
   "source_file" : "external/zlib/cpu_features.h"
  },
  {
   "linker_set_key" : "z_errmsg",
   "name" : "z_errmsg",
   "referenced_type" : "_ZTIA10_KPKc",
   "source_file" : "external/zlib/zutil.h"
  }
 ],
 "lvalue_reference_types" : [],
 "pointer_types" :
 [
  {
   "alignment" : 8,
   "linker_set_key" : "_ZTIP10z_stream_s",
   "name" : "z_stream_s *",
   "referenced_type" : "_ZTI10z_stream_s",
   "self_type" : "_ZTIP10z_stream_s",
   "size" : 8,
   "source_file" : "external/zlib/deflate.h"
  },
  {
   "alignment" : 8,
   "linker_set_key" : "_ZTIP11gz_header_s",
   "name" : "gz_header_s *",
   "referenced_type" : "_ZTI11gz_header_s",
   "self_type" : "_ZTIP11gz_header_s",
   "size" : 8,
   "source_file" : "external/zlib/deflate.h"
  },
  {
   "alignment" : 8,
   "linker_set_key" : "_ZTIP14internal_state",
   "name" : "internal_state *",
   "referenced_type" : "_ZTI14internal_state",
   "self_type" : "_ZTIP14internal_state",
   "size" : 8,
   "source_file" : "external/zlib/zlib.h"
  },
  {
   "alignment" : 8,
   "linker_set_key" : "_ZTIP9ct_data_s",
   "name" : "ct_data_s *",
   "referenced_type" : "_ZTI9ct_data_s",
   "self_type" : "_ZTIP9ct_data_s",
   "size" : 8,
   "source_file" : "external/zlib/deflate.h"
  },
  {
   "alignment" : 8,
   "linker_set_key" : "_ZTIPFPvS_jjE",
   "name" : "void *(*)(void *, unsigned int, unsigned int)",
   "referenced_type" : "_ZTIFPvS_jjE",
   "self_type" : "_ZTIPFPvS_jjE",
   "size" : 8,
   "source_file" : "external/zlib/zlib.h"
  },
  {
   "alignment" : 8,
   "linker_set_key" : "_ZTIPFvPvS_E",
   "name" : "void (*)(void *, void *)",
   "referenced_type" : "_ZTIFvPvS_E",
   "self_type" : "_ZTIPFvPvS_E",
   "size" : 8,
   "source_file" : "external/zlib/zlib.h"
  },
  {
   "alignment" : 8,
   "linker_set_key" : "_ZTIPK18static_tree_desc_s",
   "name" : "const static_tree_desc_s *",
   "referenced_type" : "_ZTIK18static_tree_desc_s",
   "self_type" : "_ZTIPK18static_tree_desc_s",
   "size" : 8,
   "source_file" : "external/zlib/deflate.h"
  },
  {
   "alignment" : 8,
   "linker_set_key" : "_ZTIPKc",
   "name" : "const char *",
   "referenced_type" : "_ZTIKc",
   "self_type" : "_ZTIPKc",
   "size" : 8,
   "source_file" : "external/zlib/zlib.h"
  },
  {
   "alignment" : 8,
   "linker_set_key" : "_ZTIPKh",
   "name" : "const unsigned char *",
   "referenced_type" : "_ZTIKh",
   "self_type" : "_ZTIPKh",
   "size" : 8,
   "source_file" : "external/zlib/zlib.h"
  },
  {
   "alignment" : 8,
   "linker_set_key" : "_ZTIPKj",
   "name" : "const unsigned int *",
   "referenced_type" : "_ZTIKj",
   "self_type" : "_ZTIPKj",
   "size" : 8,
   "source_file" : "external/zlib/zlib.h"
  },
  {
   "alignment" : 8,
   "linker_set_key" : "_ZTIPh",
   "name" : "unsigned char *",
   "referenced_type" : "_ZTIh",
   "self_type" : "_ZTIPh",
   "size" : 8,
   "source_file" : "external/zlib/zlib.h"
  },
  {
   "alignment" : 8,
   "linker_set_key" : "_ZTIPt",
   "name" : "unsigned short *",
   "referenced_type" : "_ZTIt",
   "self_type" : "_ZTIPt",
   "size" : 8,
   "source_file" : "external/zlib/deflate.h"
  },
  {
   "alignment" : 8,
   "linker_set_key" : "_ZTIPv",
   "name" : "void *",
   "referenced_type" : "_ZTIv",
   "self_type" : "_ZTIPv",
   "size" : 8,
   "source_file" : "external/zlib/zlib.h"
  }
 ],
 "qualified_types" :
 [
  {
   "alignment" : 8,
   "is_const" : true,
   "linker_set_key" : "_ZTIA10_KPKc",
   "name" : "const char *const[10]",
   "referenced_type" : "_ZTIA10_PKc",
   "self_type" : "_ZTIA10_KPKc",
   "size" : 80,
   "source_file" : "external/zlib/zutil.h"
  },
  {
   "alignment" : 4,
   "is_const" : true,
   "linker_set_key" : "_ZTIA8_A256_Kj",
   "name" : "unsigned int const[8][256]",
   "referenced_type" : "_ZTIA8_A256_j",
   "self_type" : "_ZTIA8_A256_Kj",
   "size" : 8192,
   "source_file" : "external/zlib/crc32.h"
  },
  {
   "is_const" : true,
   "linker_set_key" : "_ZTIA_Kh",
   "name" : "unsigned char const[]",
   "referenced_type" : "_ZTIA_h",
   "self_type" : "_ZTIA_Kh",
   "source_file" : "external/zlib/deflate.h"
  },
  {
   "is_const" : true,
   "linker_set_key" : "_ZTIK18static_tree_desc_s",
   "name" : "const static_tree_desc_s",
   "referenced_type" : "_ZTI18static_tree_desc_s",
   "self_type" : "_ZTIK18static_tree_desc_s",
   "source_file" : "external/zlib/deflate.h"
  },
  {
   "alignment" : 1,
   "is_const" : true,
   "linker_set_key" : "_ZTIKc",
   "name" : "const char",
   "referenced_type" : "_ZTIc",
   "self_type" : "_ZTIKc",
   "size" : 1,
   "source_file" : "external/zlib/zlib.h"
  },
  {
   "alignment" : 1,
   "is_const" : true,
   "linker_set_key" : "_ZTIKh",
   "name" : "const unsigned char",
   "referenced_type" : "_ZTIh",
   "self_type" : "_ZTIKh",
   "size" : 1,
   "source_file" : "external/zlib/zlib.h"
  },
  {
   "alignment" : 4,
   "is_const" : true,
   "linker_set_key" : "_ZTIKj",
   "name" : "const unsigned int",
   "referenced_type" : "_ZTIj",
   "self_type" : "_ZTIKj",
   "size" : 4,
   "source_file" : "external/zlib/zlib.h"
  }
 ],
 "record_types" :
 [
  {
   "alignment" : 8,
   "fields" :
   [
    {
     "field_name" : "next_in",
     "referenced_type" : "_ZTIPKh"
    },
    {
     "field_name" : "avail_in",
     "field_offset" : 64,
     "referenced_type" : "_ZTIj"
    },
    {
     "field_name" : "total_in",
     "field_offset" : 128,
     "referenced_type" : "_ZTIm"
    },
    {
     "field_name" : "next_out",
     "field_offset" : 192,
     "referenced_type" : "_ZTIPh"
    },
    {
     "field_name" : "avail_out",
     "field_offset" : 256,
     "referenced_type" : "_ZTIj"
    },
    {
     "field_name" : "total_out",
     "field_offset" : 320,
     "referenced_type" : "_ZTIm"
    },
    {
     "field_name" : "msg",
     "field_offset" : 384,
     "referenced_type" : "_ZTIPKc"
    },
    {
     "field_name" : "state",
     "field_offset" : 448,
     "referenced_type" : "_ZTIP14internal_state"
    },
    {
     "field_name" : "zalloc",
     "field_offset" : 512,
     "referenced_type" : "_ZTIPFPvS_jjE"
    },
    {
     "field_name" : "zfree",
     "field_offset" : 576,
     "referenced_type" : "_ZTIPFvPvS_E"
    },
    {
     "field_name" : "opaque",
     "field_offset" : 640,
     "referenced_type" : "_ZTIPv"
    },
    {
     "field_name" : "data_type",
     "field_offset" : 704,
     "referenced_type" : "_ZTIi"
    },
    {
     "field_name" : "adler",
     "field_offset" : 768,
     "referenced_type" : "_ZTIm"
    },
    {
     "field_name" : "reserved",
     "field_offset" : 832,
     "referenced_type" : "_ZTIm"
    }
   ],
   "linker_set_key" : "_ZTI10z_stream_s",
   "name" : "z_stream_s",
   "referenced_type" : "_ZTI10z_stream_s",
   "self_type" : "_ZTI10z_stream_s",
   "size" : 112,
   "source_file" : "external/zlib/zlib.h"
  },
  {
   "alignment" : 8,
   "fields" :
   [
    {
     "field_name" : "text",
     "referenced_type" : "_ZTIi"
    },
    {
     "field_name" : "time",
     "field_offset" : 64,
     "referenced_type" : "_ZTIm"
    },
    {
     "field_name" : "xflags",
     "field_offset" : 128,
     "referenced_type" : "_ZTIi"
    },
    {
     "field_name" : "os",
     "field_offset" : 160,
     "referenced_type" : "_ZTIi"
    },
    {
     "field_name" : "extra",
     "field_offset" : 192,
     "referenced_type" : "_ZTIPh"
    },
    {
     "field_name" : "extra_len",
     "field_offset" : 256,
     "referenced_type" : "_ZTIj"
    },
    {
     "field_name" : "extra_max",
     "field_offset" : 288,
     "referenced_type" : "_ZTIj"
    },
    {
     "field_name" : "name",
     "field_offset" : 320,
     "referenced_type" : "_ZTIPh"
    },
    {
     "field_name" : "name_max",
     "field_offset" : 384,
     "referenced_type" : "_ZTIj"
    },
    {
     "field_name" : "comment",
     "field_offset" : 448,
     "referenced_type" : "_ZTIPh"
    },
    {
     "field_name" : "comm_max",
     "field_offset" : 512,
     "referenced_type" : "_ZTIj"
    },
    {
     "field_name" : "hcrc",
     "field_offset" : 544,
     "referenced_type" : "_ZTIi"
    },
    {
     "field_name" : "done",
     "field_offset" : 576,
     "referenced_type" : "_ZTIi"
    }
   ],
   "linker_set_key" : "_ZTI11gz_header_s",
   "name" : "gz_header_s",
   "referenced_type" : "_ZTI11gz_header_s",
   "self_type" : "_ZTI11gz_header_s",
   "size" : 80,
   "source_file" : "external/zlib/zlib.h"
  },
  {
   "alignment" : 8,
   "fields" :
   [
    {
     "field_name" : "dyn_tree",
     "referenced_type" : "_ZTIP9ct_data_s"
    },
    {
     "field_name" : "max_code",
     "field_offset" : 64,
     "referenced_type" : "_ZTIi"
    },
    {
     "field_name" : "stat_desc",
     "field_offset" : 128,
     "referenced_type" : "_ZTIPK18static_tree_desc_s"
    }
   ],
   "linker_set_key" : "_ZTI11tree_desc_s",
   "name" : "tree_desc_s",
   "referenced_type" : "_ZTI11tree_desc_s",
   "self_type" : "_ZTI11tree_desc_s",
   "size" : 24,
   "source_file" : "external/zlib/deflate.h"
  },
  {
   "alignment" : 8,
   "fields" :
   [
    {
     "field_name" : "strm",
     "referenced_type" : "_ZTIP10z_stream_s"
    },
    {
     "field_name" : "status",
     "field_offset" : 64,
     "referenced_type" : "_ZTIi"
    },
    {
     "field_name" : "pending_buf",
     "field_offset" : 128,
     "referenced_type" : "_ZTIPh"
    },
    {
     "field_name" : "pending_buf_size",
     "field_offset" : 192,
     "referenced_type" : "_ZTIm"
    },
    {
     "field_name" : "pending_out",
     "field_offset" : 256,
     "referenced_type" : "_ZTIPh"
    },
    {
     "field_name" : "pending",
     "field_offset" : 320,
     "referenced_type" : "_ZTIm"
    },
    {
     "field_name" : "wrap",
     "field_offset" : 384,
     "referenced_type" : "_ZTIi"
    },
    {
     "field_name" : "gzhead",
     "field_offset" : 448,
     "referenced_type" : "_ZTIP11gz_header_s"
    },
    {
     "field_name" : "gzindex",
     "field_offset" : 512,
     "referenced_type" : "_ZTIm"
    },
    {
     "field_name" : "method",
     "field_offset" : 576,
     "referenced_type" : "_ZTIh"
    },
    {
     "field_name" : "last_flush",
     "field_offset" : 608,
     "referenced_type" : "_ZTIi"
    },
    {
     "field_name" : "crc0",
     "field_offset" : 640,
     "referenced_type" : "_ZTIA20_j"
    },
    {
     "field_name" : "w_size",
     "field_offset" : 1280,
     "referenced_type" : "_ZTIj"
    },
    {
     "field_name" : "w_bits",
     "field_offset" : 1312,
     "referenced_type" : "_ZTIj"
    },
    {
     "field_name" : "w_mask",
     "field_offset" : 1344,
     "referenced_type" : "_ZTIj"
    },
    {
     "field_name" : "window",
     "field_offset" : 1408,
     "referenced_type" : "_ZTIPh"
    },
    {
     "field_name" : "window_size",
     "field_offset" : 1472,
     "referenced_type" : "_ZTIm"
    },
    {
     "field_name" : "prev",
     "field_offset" : 1536,
     "referenced_type" : "_ZTIPt"
    },
    {
     "field_name" : "head",
     "field_offset" : 1600,
     "referenced_type" : "_ZTIPt"
    },
    {
     "field_name" : "ins_h",
     "field_offset" : 1664,
     "referenced_type" : "_ZTIj"
    },
    {
     "field_name" : "hash_size",
     "field_offset" : 1696,
     "referenced_type" : "_ZTIj"
    },
    {
     "field_name" : "hash_bits",
     "field_offset" : 1728,
     "referenced_type" : "_ZTIj"
    },
    {
     "field_name" : "hash_mask",
     "field_offset" : 1760,
     "referenced_type" : "_ZTIj"
    },
    {
     "field_name" : "hash_shift",
     "field_offset" : 1792,
     "referenced_type" : "_ZTIj"
    },
    {
     "field_name" : "block_start",
     "field_offset" : 1856,
     "referenced_type" : "_ZTIl"
    },
    {
     "field_name" : "match_length",
     "field_offset" : 1920,
     "referenced_type" : "_ZTIj"
    },
    {
     "field_name" : "prev_match",
     "field_offset" : 1952,
     "referenced_type" : "_ZTIj"
    },
    {
     "field_name" : "match_available",
     "field_offset" : 1984,
     "referenced_type" : "_ZTIi"
    },
    {
     "field_name" : "strstart",
     "field_offset" : 2016,
     "referenced_type" : "_ZTIj"
    },
    {
     "field_name" : "match_start",
     "field_offset" : 2048,
     "referenced_type" : "_ZTIj"
    },
    {
     "field_name" : "lookahead",
     "field_offset" : 2080,
     "referenced_type" : "_ZTIj"
    },
    {
     "field_name" : "prev_length",
     "field_offset" : 2112,
     "referenced_type" : "_ZTIj"
    },
    {
     "field_name" : "max_chain_length",
     "field_offset" : 2144,
     "referenced_type" : "_ZTIj"
    },
    {
     "field_name" : "max_lazy_match",
     "field_offset" : 2176,
     "referenced_type" : "_ZTIj"
    },
    {
     "field_name" : "level",
     "field_offset" : 2208,
     "referenced_type" : "_ZTIi"
    },
    {
     "field_name" : "strategy",
     "field_offset" : 2240,
     "referenced_type" : "_ZTIi"
    },
    {
     "field_name" : "good_match",
     "field_offset" : 2272,
     "referenced_type" : "_ZTIj"
    },
    {
     "field_name" : "nice_match",
     "field_offset" : 2304,
     "referenced_type" : "_ZTIi"
    },
    {
     "field_name" : "dyn_ltree",
     "field_offset" : 2336,
     "referenced_type" : "_ZTIA573_9ct_data_s"
    },
    {
     "field_name" : "dyn_dtree",
     "field_offset" : 20672,
     "referenced_type" : "_ZTIA61_9ct_data_s"
    },
    {
     "field_name" : "bl_tree",
     "field_offset" : 22624,
     "referenced_type" : "_ZTIA39_9ct_data_s"
    },
    {
     "field_name" : "l_desc",
     "field_offset" : 23872,
     "referenced_type" : "_ZTI11tree_desc_s"
    },
    {
     "field_name" : "d_desc",
     "field_offset" : 24064,
     "referenced_type" : "_ZTI11tree_desc_s"
    },
    {
     "field_name" : "bl_desc",
     "field_offset" : 24256,
     "referenced_type" : "_ZTI11tree_desc_s"
    },
    {
     "field_name" : "bl_count",
     "field_offset" : 24448,
     "referenced_type" : "_ZTIA16_t"
    },
    {
     "field_name" : "heap",
     "field_offset" : 24704,
     "referenced_type" : "_ZTIA573_i"
    },
    {
     "field_name" : "heap_len",
     "field_offset" : 43040,
     "referenced_type" : "_ZTIi"
    },
    {
     "field_name" : "heap_max",
     "field_offset" : 43072,
     "referenced_type" : "_ZTIi"
    },
    {
     "field_name" : "depth",
     "field_offset" : 43104,
     "referenced_type" : "_ZTIA573_h"
    },
    {
     "field_name" : "sym_buf",
     "field_offset" : 47744,
     "referenced_type" : "_ZTIPh"
    },
    {
     "field_name" : "lit_bufsize",
     "field_offset" : 47808,
     "referenced_type" : "_ZTIj"
    },
    {
     "field_name" : "sym_next",
     "field_offset" : 47840,
     "referenced_type" : "_ZTIj"
    },
    {
     "field_name" : "sym_end",
     "field_offset" : 47872,
     "referenced_type" : "_ZTIj"
    },
    {
     "field_name" : "opt_len",
     "field_offset" : 47936,
     "referenced_type" : "_ZTIm"
    },
    {
     "field_name" : "static_len",
     "field_offset" : 48000,
     "referenced_type" : "_ZTIm"
    },
    {
     "field_name" : "matches",
     "field_offset" : 48064,
     "referenced_type" : "_ZTIj"
    },
    {
     "field_name" : "insert",
     "field_offset" : 48096,
     "referenced_type" : "_ZTIj"
    },
    {
     "field_name" : "bi_buf",
     "field_offset" : 48128,
     "referenced_type" : "_ZTIt"
    },
    {
     "field_name" : "bi_valid",
     "field_offset" : 48160,
     "referenced_type" : "_ZTIi"
    },
    {
     "field_name" : "high_water",
     "field_offset" : 48192,
     "referenced_type" : "_ZTIm"
    }
   ],
   "linker_set_key" : "_ZTI14internal_state",
   "name" : "internal_state",
   "referenced_type" : "_ZTI14internal_state",
   "self_type" : "_ZTI14internal_state",
   "size" : 6032,
   "source_file" : "external/zlib/deflate.h"
  },
  {
   "alignment" : 8,
   "fields" :
   [
    {
     "field_name" : "have",
     "referenced_type" : "_ZTIj"
    },
    {
     "field_name" : "next",
     "field_offset" : 64,
     "referenced_type" : "_ZTIPh"
    },
    {
     "field_name" : "pos",
     "field_offset" : 128,
     "referenced_type" : "_ZTIl"
    }
   ],
   "linker_set_key" : "_ZTI8gzFile_s",
   "name" : "gzFile_s",
   "referenced_type" : "_ZTI8gzFile_s",
   "self_type" : "_ZTI8gzFile_s",
   "size" : 24,
   "source_file" : "external/zlib/zlib.h"
  },
  {
   "alignment" : 2,
   "fields" :
   [
    {
     "field_name" : "fc",
     "referenced_type" : "_ZTIN9ct_data_sUt_E"
    },
    {
     "field_name" : "dl",
     "field_offset" : 16,
     "referenced_type" : "_ZTIN9ct_data_sUt_E"
    }
   ],
   "linker_set_key" : "_ZTI9ct_data_s",
   "name" : "ct_data_s",
   "referenced_type" : "_ZTI9ct_data_s",
   "self_type" : "_ZTI9ct_data_s",
   "size" : 4,
   "source_file" : "external/zlib/deflate.h"
  },
  {
   "alignment" : 2,
   "fields" :
   [
    {
     "field_name" : "freq",
     "referenced_type" : "_ZTIt"
    },
    {
     "field_name" : "code",
     "referenced_type" : "_ZTIt"
    }
   ],
   "is_anonymous" : true,
   "linker_set_key" : "_ZTIN9ct_data_sUt_E",
   "name" : "ct_data_s::(anonymous union at external/zlib/deflate.h:69:5)",
   "record_kind" : "union",
   "referenced_type" : "_ZTIN9ct_data_sUt_E",
   "self_type" : "_ZTIN9ct_data_sUt_E",
   "size" : 2,
   "source_file" : "external/zlib/deflate.h"
  }
 ],
 "rvalue_reference_types" : []
}
