{
 "array_types" : [],
 "builtin_types" :
 [
  {
   "alignment" : 1,
   "is_integral" : true,
   "is_unsigned" : true,
   "linker_set_key" : "_ZTIb",
   "name" : "bool",
   "referenced_type" : "_ZTIb",
   "self_type" : "_ZTIb",
   "size" : 1
  },
  {
   "alignment" : 1,
   "is_integral" : true,
   "is_unsigned" : true,
   "linker_set_key" : "_ZTIc",
   "name" : "char",
   "referenced_type" : "_ZTIc",
   "self_type" : "_ZTIc",
   "size" : 1
  },
  {
   "alignment" : 8,
   "linker_set_key" : "_ZTId",
   "name" : "double",
   "referenced_type" : "_ZTId",
   "self_type" : "_ZTId",
   "size" : 8
  },
  {
   "alignment" : 4,
   "linker_set_key" : "_ZTIf",
   "name" : "float",
   "referenced_type" : "_ZTIf",
   "self_type" : "_ZTIf",
   "size" : 4
  },
  {
   "alignment" : 1,
   "is_integral" : true,
   "is_unsigned" : true,
   "linker_set_key" : "_ZTIh",
   "name" : "unsigned char",
   "referenced_type" : "_ZTIh",
   "self_type" : "_ZTIh",
   "size" : 1
  },
  {
   "alignment" : 4,
   "is_integral" : true,
   "linker_set_key" : "_ZTIi",
   "name" : "int",
   "referenced_type" : "_ZTIi",
   "self_type" : "_ZTIi",
   "size" : 4
  },
  {
   "alignment" : 4,
   "is_integral" : true,
   "is_unsigned" : true,
   "linker_set_key" : "_ZTIj",
   "name" : "unsigned int",
   "referenced_type" : "_ZTIj",
   "self_type" : "_ZTIj",
   "size" : 4
  },
  {
   "linker_set_key" : "_ZTIv",
   "name" : "void",
   "referenced_type" : "_ZTIv",
   "self_type" : "_ZTIv"
  },
  {
   "alignment" : 8,
   "is_integral" : true,
   "linker_set_key" : "_ZTIx",
   "name" : "long long",
   "referenced_type" : "_ZTIx",
   "self_type" : "_ZTIx",
   "size" : 8
  }
 ],
 "elf_functions" : [],
 "elf_objects" : [],
 "enum_types" : [],
 "function_types" : [],
 "functions" :
 [
  {
   "function_name" : "audio_metadata_get",
   "linker_set_key" : "_Z18audio_metadata_getP16audio_metadata_tPKcPPc",
   "parameters" :
   [
    {
     "referenced_type" : "_ZTIP16audio_metadata_t"
    },
    {
     "referenced_type" : "_ZTIPKc"
    },
    {
     "referenced_type" : "_ZTIPPc"
    }
   ],
   "return_type" : "_ZTIi",
   "source_file" : "system/media/audio_utils/include/audio_utils/Metadata.h"
  },
  {
   "function_name" : "audio_metadata_get",
   "linker_set_key" : "_Z18audio_metadata_getP16audio_metadata_tPKcPS0_",
   "parameters" :
   [
    {
     "referenced_type" : "_ZTIP16audio_metadata_t"
    },
    {
     "referenced_type" : "_ZTIPKc"
    },
    {
     "referenced_type" : "_ZTIPP16audio_metadata_t"
    }
   ],
   "return_type" : "_ZTIi",
   "source_file" : "system/media/audio_utils/include/audio_utils/Metadata.h"
  },
  {
   "function_name" : "audio_metadata_get",
   "linker_set_key" : "_Z18audio_metadata_getP16audio_metadata_tPKcPd",
   "parameters" :
   [
    {
     "referenced_type" : "_ZTIP16audio_metadata_t"
    },
    {
     "referenced_type" : "_ZTIPKc"
    },
    {
     "referenced_type" : "_ZTIPd"
    }
   ],
   "return_type" : "_ZTIi",
   "source_file" : "system/media/audio_utils/include/audio_utils/Metadata.h"
  },
  {
   "function_name" : "audio_metadata_get",
   "linker_set_key" : "_Z18audio_metadata_getP16audio_metadata_tPKcPf",
   "parameters" :
   [
    {
     "referenced_type" : "_ZTIP16audio_metadata_t"
    },
    {
     "referenced_type" : "_ZTIPKc"
    },
    {
     "referenced_type" : "_ZTIPf"
    }
   ],
   "return_type" : "_ZTIi",
   "source_file" : "system/media/audio_utils/include/audio_utils/Metadata.h"
  },
  {
   "function_name" : "audio_metadata_get",
   "linker_set_key" : "_Z18audio_metadata_getP16audio_metadata_tPKcPi",
   "parameters" :
   [
    {
     "referenced_type" : "_ZTIP16audio_metadata_t"
    },
    {
     "referenced_type" : "_ZTIPKc"
    },
    {
     "referenced_type" : "_ZTIPi"
    }
   ],
   "return_type" : "_ZTIi",
   "source_file" : "system/media/audio_utils/include/audio_utils/Metadata.h"
  },
  {
   "function_name" : "audio_metadata_get",
   "linker_set_key" : "_Z18audio_metadata_getP16audio_metadata_tPKcPx",
   "parameters" :
   [
    {
     "referenced_type" : "_ZTIP16audio_metadata_t"
    },
    {
     "referenced_type" : "_ZTIPKc"
    },
    {
     "referenced_type" : "_ZTIPx"
    }
   ],
   "return_type" : "_ZTIi",
   "source_file" : "system/media/audio_utils/include/audio_utils/Metadata.h"
  },
  {
   "function_name" : "audio_metadata_put",
   "linker_set_key" : "_Z18audio_metadata_putP16audio_metadata_tPKcS0_",
   "parameters" :
   [
    {
     "referenced_type" : "_ZTIP16audio_metadata_t"
    },
    {
     "referenced_type" : "_ZTIPKc"
    },
    {
     "referenced_type" : "_ZTIP16audio_metadata_t"
    }
   ],
   "return_type" : "_ZTIi",
   "source_file" : "system/media/audio_utils/include/audio_utils/Metadata.h"
  },
  {
   "function_name" : "audio_metadata_put",
   "linker_set_key" : "_Z18audio_metadata_putP16audio_metadata_tPKcS2_",
   "parameters" :
   [
    {
     "referenced_type" : "_ZTIP16audio_metadata_t"
    },
    {
     "referenced_type" : "_ZTIPKc"
    },
    {
     "referenced_type" : "_ZTIPKc"
    }
   ],
   "return_type" : "_ZTIi",
   "source_file" : "system/media/audio_utils/include/audio_utils/Metadata.h"
  },
  {
   "function_name" : "audio_metadata_put",
   "linker_set_key" : "_Z18audio_metadata_putP16audio_metadata_tPKcd",
   "parameters" :
   [
    {
     "referenced_type" : "_ZTIP16audio_metadata_t"
    },
    {
     "referenced_type" : "_ZTIPKc"
    },
    {
     "referenced_type" : "_ZTId"
    }
   ],
   "return_type" : "_ZTIi",
   "source_file" : "system/media/audio_utils/include/audio_utils/Metadata.h"
  },
  {
   "function_name" : "audio_metadata_put",
   "linker_set_key" : "_Z18audio_metadata_putP16audio_metadata_tPKcf",
   "parameters" :
   [
    {
     "referenced_type" : "_ZTIP16audio_metadata_t"
    },
    {
     "referenced_type" : "_ZTIPKc"
    },
    {
     "referenced_type" : "_ZTIf"
    }
   ],
   "return_type" : "_ZTIi",
   "source_file" : "system/media/audio_utils/include/audio_utils/Metadata.h"
  },
  {
   "function_name" : "audio_metadata_put",
   "linker_set_key" : "_Z18audio_metadata_putP16audio_metadata_tPKci",
   "parameters" :
   [
    {
     "referenced_type" : "_ZTIP16audio_metadata_t"
    },
    {
     "referenced_type" : "_ZTIPKc"
    },
    {
     "referenced_type" : "_ZTIi"
    }
   ],
   "return_type" : "_ZTIi",
   "source_file" : "system/media/audio_utils/include/audio_utils/Metadata.h"
  },
  {
   "function_name" : "audio_metadata_put",
   "linker_set_key" : "_Z18audio_metadata_putP16audio_metadata_tPKcx",
   "parameters" :
   [
    {
     "referenced_type" : "_ZTIP16audio_metadata_t"
    },
    {
     "referenced_type" : "_ZTIPKc"
    },
    {
     "referenced_type" : "_ZTIx"
    }
   ],
   "return_type" : "_ZTIi",
   "source_file" : "system/media/audio_utils/include/audio_utils/Metadata.h"
  },
  {
   "function_name" : "android::audio_utils::metadata::type_index",
   "linker_set_key" : "_ZN7android11audio_utils8metadata10type_indexINS1_4DataEJEEEiv",
   "return_type" : "_ZTIi",
   "source_file" : "system/media/audio_utils/include/audio_utils/Metadata.h",
   "template_args" : [ "_ZTIN7android11audio_utils8metadata4DataE" ]
  },
  {
   "function_name" : "android::audio_utils::metadata::type_index",
   "linker_set_key" : "_ZN7android11audio_utils8metadata10type_indexINS1_4DataEJixfdEEEiv",
   "return_type" : "_ZTIi",
   "source_file" : "system/media/audio_utils/include/audio_utils/Metadata.h",
   "template_args" : [ "_ZTIN7android11audio_utils8metadata4DataE" ]
  },
  {
   "function_name" : "android::audio_utils::metadata::type_index",
   "linker_set_key" : "_ZN7android11audio_utils8metadata10type_indexINS1_4DataEJixfdNSt3__112basic_stringIcNS4_11char_traitsIcEENS4_9allocatorIcEEEES3_EEEiv",
   "return_type" : "_ZTIi",
   "source_file" : "system/media/audio_utils/include/audio_utils/Metadata.h",
   "template_args" : [ "_ZTIN7android11audio_utils8metadata4DataE" ]
  },
  {
   "function_name" : "android::audio_utils::metadata::type_index",
   "linker_set_key" : "_ZN7android11audio_utils8metadata10type_indexINS1_5DatumEJEEEiv",
   "return_type" : "_ZTIi",
   "source_file" : "system/media/audio_utils/include/audio_utils/Metadata.h",
   "template_args" : [ "_ZTIN7android11audio_utils8metadata5DatumE" ]
  },
  {
   "function_name" : "android::audio_utils::metadata::type_index",
   "linker_set_key" : "_ZN7android11audio_utils8metadata10type_indexINS1_5DatumEJixfdEEEiv",
   "return_type" : "_ZTIi",
   "source_file" : "system/media/audio_utils/include/audio_utils/Metadata.h",
   "template_args" : [ "_ZTIN7android11audio_utils8metadata5DatumE" ]
  },
  {
   "function_name" : "android::audio_utils::metadata::type_index",
   "linker_set_key" : "_ZN7android11audio_utils8metadata10type_indexINS1_5DatumEJixfdNSt3__112basic_stringIcNS4_11char_traitsIcEENS4_9allocatorIcEEEENS1_4DataEEEEiv",
   "return_type" : "_ZTIi",
   "source_file" : "system/media/audio_utils/include/audio_utils/Metadata.h",
   "template_args" : [ "_ZTIN7android11audio_utils8metadata5DatumE" ]
  },
  {
   "function_name" : "android::audio_utils::metadata::type_index",
   "linker_set_key" : "_ZN7android11audio_utils8metadata10type_indexINSt3__112basic_stringIcNS3_11char_traitsIcEENS3_9allocatorIcEEEEJEEEiv",
   "return_type" : "_ZTIi",
   "source_file" : "system/media/audio_utils/include/audio_utils/Metadata.h",
   "template_args" : [ "_ZTINSt3__112basic_stringIcNS_11char_traitsIcEENS_9allocatorIcEEEE" ]
  },
  {
   "function_name" : "android::audio_utils::metadata::type_index",
   "linker_set_key" : "_ZN7android11audio_utils8metadata10type_indexINSt3__112basic_stringIcNS3_11char_traitsIcEENS3_9allocatorIcEEEEJixfdEEEiv",
   "return_type" : "_ZTIi",
   "source_file" : "system/media/audio_utils/include/audio_utils/Metadata.h",
   "template_args" : [ "_ZTINSt3__112basic_stringIcNS_11char_traitsIcEENS_9allocatorIcEEEE" ]
  },
  {
   "function_name" : "android::audio_utils::metadata::type_index",
   "linker_set_key" : "_ZN7android11audio_utils8metadata10type_indexINSt3__112basic_stringIcNS3_11char_traitsIcEENS3_9allocatorIcEEEEJixfdS9_NS1_4DataEEEEiv",
   "return_type" : "_ZTIi",
   "source_file" : "system/media/audio_utils/include/audio_utils/Metadata.h",
   "template_args" : [ "_ZTINSt3__112basic_stringIcNS_11char_traitsIcEENS_9allocatorIcEEEE" ]
  },
  {
   "function_name" : "android::audio_utils::metadata::type_index",
   "linker_set_key" : "_ZN7android11audio_utils8metadata10type_indexINSt3__14pairIKNS3_12basic_stringIcNS3_11char_traitsIcEENS3_9allocatorIcEEEENS1_5DatumEEEJEEEiv",
   "return_type" : "_ZTIi",
   "source_file" : "system/media/audio_utils/include/audio_utils/Metadata.h",
   "template_args" :
   [
    "_ZTINSt3__14pairIKNS_12basic_stringIcNS_11char_traitsIcEENS_9allocatorIcEEEEN7android11audio_utils8metadata5DatumEEE"
   ]
  },
  {
   "function_name" : "android::audio_utils::metadata::type_index",
   "linker_set_key" : "_ZN7android11audio_utils8metadata10type_indexINSt3__14pairIKNS3_12basic_stringIcNS3_11char_traitsIcEENS3_9allocatorIcEEEENS1_5DatumEEEJixfdEEEiv",
   "return_type" : "_ZTIi",
   "source_file" : "system/media/audio_utils/include/audio_utils/Metadata.h",
   "template_args" :
   [
    "_ZTINSt3__14pairIKNS_12basic_stringIcNS_11char_traitsIcEENS_9allocatorIcEEEEN7android11audio_utils8metadata5DatumEEE"
   ]
  },
  {
   "function_name" : "android::audio_utils::metadata::type_index",
   "linker_set_key" : "_ZN7android11audio_utils8metadata10type_indexIRKNS1_4DataEJixfdNSt3__112basic_stringIcNS6_11char_traitsIcEENS6_9allocatorIcEEEES3_EEEiv",
   "return_type" : "_ZTIi",
   "source_file" : "system/media/audio_utils/include/audio_utils/Metadata.h",
   "template_args" : [ "_ZTIRKN7android11audio_utils8metadata4DataE" ]
  },
  {
   "function_name" : "android::audio_utils::metadata::type_index",
   "linker_set_key" : "_ZN7android11audio_utils8metadata10type_indexIRKNS1_5DatumEJixfdNSt3__112basic_stringIcNS6_11char_traitsIcEENS6_9allocatorIcEEEENS1_4DataEEEEiv",
   "return_type" : "_ZTIi",
   "source_file" : "system/media/audio_utils/include/audio_utils/Metadata.h",
   "template_args" : [ "_ZTIRKN7android11audio_utils8metadata5DatumE" ]
  },
  {
   "function_name" : "android::audio_utils::metadata::type_index",
   "linker_set_key" : "_ZN7android11audio_utils8metadata10type_indexIRKNSt3__112basic_stringIcNS3_11char_traitsIcEENS3_9allocatorIcEEEEJixfdS9_NS1_4DataEEEEiv",
   "return_type" : "_ZTIi",
   "source_file" : "system/media/audio_utils/include/audio_utils/Metadata.h",
   "template_args" :
   [
    "_ZTIRKNSt3__112basic_stringIcNS_11char_traitsIcEENS_9allocatorIcEEEE"
   ]
  },
  {
   "function_name" : "android::audio_utils::metadata::type_index",
   "linker_set_key" : "_ZN7android11audio_utils8metadata10type_indexIRKNSt3__14pairIKNS3_12basic_stringIcNS3_11char_traitsIcEENS3_9allocatorIcEEEENS1_5DatumEEEJixfdSA_NS1_4DataEEEEiv",
   "return_type" : "_ZTIi",
   "source_file" : "system/media/audio_utils/include/audio_utils/Metadata.h",
   "template_args" :
   [
    "_ZTIRKNSt3__14pairIKNS_12basic_stringIcNS_11char_traitsIcEENS_9allocatorIcEEEEN7android11audio_utils8metadata5DatumEEE"
   ]
  },
  {
   "function_name" : "android::audio_utils::metadata::type_index",
   "linker_set_key" : "_ZN7android11audio_utils8metadata10type_indexIRKdJixfdNSt3__112basic_stringIcNS5_11char_traitsIcEENS5_9allocatorIcEEEENS1_4DataEEEEiv",
   "return_type" : "_ZTIi",
   "source_file" : "system/media/audio_utils/include/audio_utils/Metadata.h",
   "template_args" : [ "_ZTIRKd" ]
  },
  {
   "function_name" : "android::audio_utils::metadata::type_index",
   "linker_set_key" : "_ZN7android11audio_utils8metadata10type_indexIRKfJixfdNSt3__112basic_stringIcNS5_11char_traitsIcEENS5_9allocatorIcEEEENS1_4DataEEEEiv",
   "return_type" : "_ZTIi",
   "source_file" : "system/media/audio_utils/include/audio_utils/Metadata.h",
   "template_args" : [ "_ZTIRKf" ]
  },
  {
   "function_name" : "android::audio_utils::metadata::type_index",
   "linker_set_key" : "_ZN7android11audio_utils8metadata10type_indexIRKiJixfdNSt3__112basic_stringIcNS5_11char_traitsIcEENS5_9allocatorIcEEEENS1_4DataEEEEiv",
   "return_type" : "_ZTIi",
   "source_file" : "system/media/audio_utils/include/audio_utils/Metadata.h",
   "template_args" : [ "_ZTIRKi" ]
  },
  {
   "function_name" : "android::audio_utils::metadata::type_index",
   "linker_set_key" : "_ZN7android11audio_utils8metadata10type_indexIRKjJixfdNSt3__112basic_stringIcNS5_11char_traitsIcEENS5_9allocatorIcEEEENS1_4DataEEEEiv",
   "return_type" : "_ZTIi",
   "source_file" : "system/media/audio_utils/include/audio_utils/Metadata.h",
   "template_args" : [ "_ZTIRKj" ]
  },
  {
   "function_name" : "android::audio_utils::metadata::type_index",
   "linker_set_key" : "_ZN7android11audio_utils8metadata10type_indexIRKxJixfdNSt3__112basic_stringIcNS5_11char_traitsIcEENS5_9allocatorIcEEEENS1_4DataEEEEiv",
   "return_type" : "_ZTIi",
   "source_file" : "system/media/audio_utils/include/audio_utils/Metadata.h",
   "template_args" : [ "_ZTIRKx" ]
  },
  {
   "function_name" : "android::audio_utils::metadata::type_index",
   "linker_set_key" : "_ZN7android11audio_utils8metadata10type_indexIRNS1_4DataEJixfdNSt3__112basic_stringIcNS5_11char_traitsIcEENS5_9allocatorIcEEEES3_EEEiv",
   "return_type" : "_ZTIi",
   "source_file" : "system/media/audio_utils/include/audio_utils/Metadata.h",
   "template_args" : [ "_ZTIRN7android11audio_utils8metadata4DataE" ]
  },
  {
   "function_name" : "android::audio_utils::metadata::type_index",
   "linker_set_key" : "_ZN7android11audio_utils8metadata10type_indexIRNSt3__112basic_stringIcNS3_11char_traitsIcEENS3_9allocatorIcEEEEJixfdS9_NS1_4DataEEEEiv",
   "return_type" : "_ZTIi",
   "source_file" : "system/media/audio_utils/include/audio_utils/Metadata.h",
   "template_args" : [ "_ZTIRNSt3__112basic_stringIcNS_11char_traitsIcEENS_9allocatorIcEEEE" ]
  },
  {
   "function_name" : "android::audio_utils::metadata::type_index",
   "linker_set_key" : "_ZN7android11audio_utils8metadata10type_indexIRPKcJixfdNSt3__112basic_stringIcNS6_11char_traitsIcEENS6_9allocatorIcEEEENS1_4DataEEEEiv",
   "return_type" : "_ZTIi",
   "source_file" : "system/media/audio_utils/include/audio_utils/Metadata.h",
   "template_args" : [ "_ZTIRPKc" ]
  },
  {
   "function_name" : "android::audio_utils::metadata::type_index",
   "linker_set_key" : "_ZN7android11audio_utils8metadata10type_indexIRdJixfdNSt3__112basic_stringIcNS4_11char_traitsIcEENS4_9allocatorIcEEEENS1_4DataEEEEiv",
   "return_type" : "_ZTIi",
   "source_file" : "system/media/audio_utils/include/audio_utils/Metadata.h",
   "template_args" : [ "_ZTIRd" ]
  },
  {
   "function_name" : "android::audio_utils::metadata::type_index",
   "linker_set_key" : "_ZN7android11audio_utils8metadata10type_indexIRfJixfdNSt3__112basic_stringIcNS4_11char_traitsIcEENS4_9allocatorIcEEEENS1_4DataEEEEiv",
   "return_type" : "_ZTIi",
   "source_file" : "system/media/audio_utils/include/audio_utils/Metadata.h",
   "template_args" : [ "_ZTIRf" ]
  },
  {
   "function_name" : "android::audio_utils::metadata::type_index",
   "linker_set_key" : "_ZN7android11audio_utils8metadata10type_indexIRiJixfdNSt3__112basic_stringIcNS4_11char_traitsIcEENS4_9allocatorIcEEEENS1_4DataEEEEiv",
   "return_type" : "_ZTIi",
   "source_file" : "system/media/audio_utils/include/audio_utils/Metadata.h",
   "template_args" : [ "_ZTIRi" ]
  },
  {
   "function_name" : "android::audio_utils::metadata::type_index",
   "linker_set_key" : "_ZN7android11audio_utils8metadata10type_indexIRjJixfdNSt3__112basic_stringIcNS4_11char_traitsIcEENS4_9allocatorIcEEEENS1_4DataEEEEiv",
   "return_type" : "_ZTIi",
   "source_file" : "system/media/audio_utils/include/audio_utils/Metadata.h",
   "template_args" : [ "_ZTIRj" ]
  },
  {
   "function_name" : "android::audio_utils::metadata::type_index",
   "linker_set_key" : "_ZN7android11audio_utils8metadata10type_indexIRxJixfdNSt3__112basic_stringIcNS4_11char_traitsIcEENS4_9allocatorIcEEEENS1_4DataEEEEiv",
   "return_type" : "_ZTIi",
   "source_file" : "system/media/audio_utils/include/audio_utils/Metadata.h",
   "template_args" : [ "_ZTIRx" ]
  },
  {
   "function_name" : "android::audio_utils::metadata::type_index",
   "linker_set_key" : "_ZN7android11audio_utils8metadata10type_indexIdJEEEiv",
   "return_type" : "_ZTIi",
   "source_file" : "system/media/audio_utils/include/audio_utils/Metadata.h",
   "template_args" : [ "_ZTId" ]
  },
  {
   "function_name" : "android::audio_utils::metadata::type_index",
   "linker_set_key" : "_ZN7android11audio_utils8metadata10type_indexIdJixfdEEEiv",
   "return_type" : "_ZTIi",
   "source_file" : "system/media/audio_utils/include/audio_utils/Metadata.h",
   "template_args" : [ "_ZTId" ]
  },
  {
   "function_name" : "android::audio_utils::metadata::type_index",
   "linker_set_key" : "_ZN7android11audio_utils8metadata10type_indexIdJixfdNSt3__112basic_stringIcNS3_11char_traitsIcEENS3_9allocatorIcEEEENS1_4DataEEEEiv",
   "return_type" : "_ZTIi",
   "source_file" : "system/media/audio_utils/include/audio_utils/Metadata.h",
   "template_args" : [ "_ZTId" ]
  },
  {
   "function_name" : "android::audio_utils::metadata::type_index",
   "linker_set_key" : "_ZN7android11audio_utils8metadata10type_indexIfJEEEiv",
   "return_type" : "_ZTIi",
   "source_file" : "system/media/audio_utils/include/audio_utils/Metadata.h",
   "template_args" : [ "_ZTIf" ]
  },
  {
   "function_name" : "android::audio_utils::metadata::type_index",
   "linker_set_key" : "_ZN7android11audio_utils8metadata10type_indexIfJixfdEEEiv",
   "return_type" : "_ZTIi",
   "source_file" : "system/media/audio_utils/include/audio_utils/Metadata.h",
   "template_args" : [ "_ZTIf" ]
  },
  {
   "function_name" : "android::audio_utils::metadata::type_index",
   "linker_set_key" : "_ZN7android11audio_utils8metadata10type_indexIfJixfdNSt3__112basic_stringIcNS3_11char_traitsIcEENS3_9allocatorIcEEEENS1_4DataEEEEiv",
   "return_type" : "_ZTIi",
   "source_file" : "system/media/audio_utils/include/audio_utils/Metadata.h",
   "template_args" : [ "_ZTIf" ]
  },
  {
   "function_name" : "android::audio_utils::metadata::type_index",
   "linker_set_key" : "_ZN7android11audio_utils8metadata10type_indexIiJEEEiv",
   "return_type" : "_ZTIi",
   "source_file" : "system/media/audio_utils/include/audio_utils/Metadata.h",
   "template_args" : [ "_ZTIi" ]
  },
  {
   "function_name" : "android::audio_utils::metadata::type_index",
   "linker_set_key" : "_ZN7android11audio_utils8metadata10type_indexIiJixfdEEEiv",
   "return_type" : "_ZTIi",
   "source_file" : "system/media/audio_utils/include/audio_utils/Metadata.h",
   "template_args" : [ "_ZTIi" ]
  },
  {
   "function_name" : "android::audio_utils::metadata::type_index",
   "linker_set_key" : "_ZN7android11audio_utils8metadata10type_indexIiJixfdNSt3__112basic_stringIcNS3_11char_traitsIcEENS3_9allocatorIcEEEENS1_4DataEEEEiv",
   "return_type" : "_ZTIi",
   "source_file" : "system/media/audio_utils/include/audio_utils/Metadata.h",
   "template_args" : [ "_ZTIi" ]
  },
  {
   "function_name" : "android::audio_utils::metadata::type_index",
   "linker_set_key" : "_ZN7android11audio_utils8metadata10type_indexIjJEEEiv",
   "return_type" : "_ZTIi",
   "source_file" : "system/media/audio_utils/include/audio_utils/Metadata.h",
   "template_args" : [ "_ZTIj" ]
  },
  {
   "function_name" : "android::audio_utils::metadata::type_index",
   "linker_set_key" : "_ZN7android11audio_utils8metadata10type_indexIjJixfdEEEiv",
   "return_type" : "_ZTIi",
   "source_file" : "system/media/audio_utils/include/audio_utils/Metadata.h",
   "template_args" : [ "_ZTIj" ]
  },
  {
   "function_name" : "android::audio_utils::metadata::type_index",
   "linker_set_key" : "_ZN7android11audio_utils8metadata10type_indexIxJEEEiv",
   "return_type" : "_ZTIi",
   "source_file" : "system/media/audio_utils/include/audio_utils/Metadata.h",
   "template_args" : [ "_ZTIx" ]
  },
  {
   "function_name" : "android::audio_utils::metadata::type_index",
   "linker_set_key" : "_ZN7android11audio_utils8metadata10type_indexIxJixfdEEEiv",
   "return_type" : "_ZTIi",
   "source_file" : "system/media/audio_utils/include/audio_utils/Metadata.h",
   "template_args" : [ "_ZTIx" ]
  },
  {
   "function_name" : "android::audio_utils::metadata::type_index",
   "linker_set_key" : "_ZN7android11audio_utils8metadata10type_indexIxJixfdNSt3__112basic_stringIcNS3_11char_traitsIcEENS3_9allocatorIcEEEENS1_4DataEEEEiv",
   "return_type" : "_ZTIi",
   "source_file" : "system/media/audio_utils/include/audio_utils/Metadata.h",
   "template_args" : [ "_ZTIx" ]
  },
  {
   "function_name" : "android::audio_utils::metadata::compound_type<int, long long, float, double, std::__1::basic_string<char>, android::audio_utils::metadata::Data>::index_of",
   "linker_set_key" : "_ZN7android11audio_utils8metadata13compound_typeIJixfdNSt3__112basic_stringIcNS3_11char_traitsIcEENS3_9allocatorIcEEEENS1_4DataEEE8index_ofIRKS9_EEiv",
   "return_type" : "_ZTIi",
   "source_file" : "system/media/audio_utils/include/audio_utils/Metadata.h",
   "template_args" :
   [
    "_ZTIRKNSt3__112basic_stringIcNS_11char_traitsIcEENS_9allocatorIcEEEE"
   ]
  },
  {
   "function_name" : "android::audio_utils::metadata::compound_type<int, long long, float, double, std::__1::basic_string<char>, android::audio_utils::metadata::Data>::index_of",
   "linker_set_key" : "_ZN7android11audio_utils8metadata13compound_typeIJixfdNSt3__112basic_stringIcNS3_11char_traitsIcEENS3_9allocatorIcEEEENS1_4DataEEE8index_ofIRKSA_EEiv",
   "return_type" : "_ZTIi",
   "source_file" : "system/media/audio_utils/include/audio_utils/Metadata.h",
   "template_args" : [ "_ZTIRKN7android11audio_utils8metadata4DataE" ]
  },
  {
   "function_name" : "android::audio_utils::metadata::compound_type<int, long long, float, double, std::__1::basic_string<char>, android::audio_utils::metadata::Data>::index_of",
   "linker_set_key" : "_ZN7android11audio_utils8metadata13compound_typeIJixfdNSt3__112basic_stringIcNS3_11char_traitsIcEENS3_9allocatorIcEEEENS1_4DataEEE8index_ofIRKdEEiv",
   "return_type" : "_ZTIi",
   "source_file" : "system/media/audio_utils/include/audio_utils/Metadata.h",
   "template_args" : [ "_ZTIRKd" ]
  },
  {
   "function_name" : "android::audio_utils::metadata::compound_type<int, long long, float, double, std::__1::basic_string<char>, android::audio_utils::metadata::Data>::index_of",
   "linker_set_key" : "_ZN7android11audio_utils8metadata13compound_typeIJixfdNSt3__112basic_stringIcNS3_11char_traitsIcEENS3_9allocatorIcEEEENS1_4DataEEE8index_ofIRKfEEiv",
   "return_type" : "_ZTIi",
   "source_file" : "system/media/audio_utils/include/audio_utils/Metadata.h",
   "template_args" : [ "_ZTIRKf" ]
  },
  {
   "function_name" : "android::audio_utils::metadata::compound_type<int, long long, float, double, std::__1::basic_string<char>, android::audio_utils::metadata::Data>::index_of",
   "linker_set_key" : "_ZN7android11audio_utils8metadata13compound_typeIJixfdNSt3__112basic_stringIcNS3_11char_traitsIcEENS3_9allocatorIcEEEENS1_4DataEEE8index_ofIRKiEEiv",
   "return_type" : "_ZTIi",
   "source_file" : "system/media/audio_utils/include/audio_utils/Metadata.h",
   "template_args" : [ "_ZTIRKi" ]
  },
  {
   "function_name" : "android::audio_utils::metadata::compound_type<int, long long, float, double, std::__1::basic_string<char>, android::audio_utils::metadata::Data>::index_of",
   "linker_set_key" : "_ZN7android11audio_utils8metadata13compound_typeIJixfdNSt3__112basic_stringIcNS3_11char_traitsIcEENS3_9allocatorIcEEEENS1_4DataEEE8index_ofIRKxEEiv",
   "return_type" : "_ZTIi",
   "source_file" : "system/media/audio_utils/include/audio_utils/Metadata.h",
   "template_args" : [ "_ZTIRKx" ]
  },
  {
   "function_name" : "android::audio_utils::metadata::compound_type<int, long long, float, double, std::__1::basic_string<char>, android::audio_utils::metadata::Data>::index_of",
   "linker_set_key" : "_ZN7android11audio_utils8metadata13compound_typeIJixfdNSt3__112basic_stringIcNS3_11char_traitsIcEENS3_9allocatorIcEEEENS1_4DataEEE8index_ofIRS9_EEiv",
   "return_type" : "_ZTIi",
   "source_file" : "system/media/audio_utils/include/audio_utils/Metadata.h",
   "template_args" : [ "_ZTIRNSt3__112basic_stringIcNS_11char_traitsIcEENS_9allocatorIcEEEE" ]
  },
  {
   "function_name" : "android::audio_utils::metadata::compound_type<int, long long, float, double, std::__1::basic_string<char>, android::audio_utils::metadata::Data>::index_of",
   "linker_set_key" : "_ZN7android11audio_utils8metadata13compound_typeIJixfdNSt3__112basic_stringIcNS3_11char_traitsIcEENS3_9allocatorIcEEEENS1_4DataEEE8index_ofIRSA_EEiv",
   "return_type" : "_ZTIi",
   "source_file" : "system/media/audio_utils/include/audio_utils/Metadata.h",
   "template_args" : [ "_ZTIRN7android11audio_utils8metadata4DataE" ]
  },
  {
   "function_name" : "android::audio_utils::metadata::compound_type<int, long long, float, double, std::__1::basic_string<char>, android::audio_utils::metadata::Data>::index_of",
   "linker_set_key" : "_ZN7android11audio_utils8metadata13compound_typeIJixfdNSt3__112basic_stringIcNS3_11char_traitsIcEENS3_9allocatorIcEEEENS1_4DataEEE8index_ofIRdEEiv",
   "return_type" : "_ZTIi",
   "source_file" : "system/media/audio_utils/include/audio_utils/Metadata.h",
   "template_args" : [ "_ZTIRd" ]
  },
  {
   "function_name" : "android::audio_utils::metadata::compound_type<int, long long, float, double, std::__1::basic_string<char>, android::audio_utils::metadata::Data>::index_of",
   "linker_set_key" : "_ZN7android11audio_utils8metadata13compound_typeIJixfdNSt3__112basic_stringIcNS3_11char_traitsIcEENS3_9allocatorIcEEEENS1_4DataEEE8index_ofIRfEEiv",
   "return_type" : "_ZTIi",
   "source_file" : "system/media/audio_utils/include/audio_utils/Metadata.h",
   "template_args" : [ "_ZTIRf" ]
  },
  {
   "function_name" : "android::audio_utils::metadata::compound_type<int, long long, float, double, std::__1::basic_string<char>, android::audio_utils::metadata::Data>::index_of",
   "linker_set_key" : "_ZN7android11audio_utils8metadata13compound_typeIJixfdNSt3__112basic_stringIcNS3_11char_traitsIcEENS3_9allocatorIcEEEENS1_4DataEEE8index_ofIRiEEiv",
   "return_type" : "_ZTIi",
   "source_file" : "system/media/audio_utils/include/audio_utils/Metadata.h",
   "template_args" : [ "_ZTIRi" ]
  },
  {
   "function_name" : "android::audio_utils::metadata::compound_type<int, long long, float, double, std::__1::basic_string<char>, android::audio_utils::metadata::Data>::index_of",
   "linker_set_key" : "_ZN7android11audio_utils8metadata13compound_typeIJixfdNSt3__112basic_stringIcNS3_11char_traitsIcEENS3_9allocatorIcEEEENS1_4DataEEE8index_ofIRxEEiv",
   "return_type" : "_ZTIi",
   "source_file" : "system/media/audio_utils/include/audio_utils/Metadata.h",
   "template_args" : [ "_ZTIRx" ]
  },
  {
   "function_name" : "android::audio_utils::metadata::tedious_details::copyFromByteString",
   "linker_set_key" : "_ZN7android11audio_utils8metadata15tedious_details18copyFromByteStringINS1_13compound_typeIJixfdNSt3__112basic_stringIcNS5_11char_traitsIcEENS5_9allocatorIcEEEENS1_4DataEEEEEEbPNS1_5DatumERKNS6_IhNS7_IhEENS9_IhEEEERjjPNS5_6vectorIjNS9_IjEEEEj",
   "parameters" :
   [
    {
     "referenced_type" : "_ZTIPN7android11audio_utils8metadata5DatumE"
    },
    {
     "referenced_type" : "_ZTIRKNSt3__112basic_stringIhNS_11char_traitsIhEENS_9allocatorIhEEEE"
    },
    {
     "referenced_type" : "_ZTIRj"
    },
    {
     "referenced_type" : "_ZTIj"
    },
    {
     "referenced_type" : "_ZTIPNSt3__16vectorIjNS_9allocatorIjEEEE"
    },
    {
     "referenced_type" : "_ZTIj"
    }
   ],
   "return_type" : "_ZTIb",
   "source_file" : "system/media/audio_utils/include/audio_utils/Metadata.h",
   "template_args" :
   [
    "_ZTIN7android11audio_utils8metadata13compound_typeIJixfdNSt3__112basic_stringIcNS3_11char_traitsIcEENS3_9allocatorIcEEEENS1_4DataEEEE"
   ]
  },
  {
   "function_name" : "android::audio_utils::metadata::tedious_details::copyFromByteString",
   "linker_set_key" : "_ZN7android11audio_utils8metadata15tedious_details18copyFromByteStringINS1_13compound_typeIJixfdNSt3__112basic_stringIcNS5_11char_traitsIcEENS5_9allocatorIcEEEENS1_4DataEEEEJLj0ELj1ELj2ELj3ELj4ELj5EEEEbPNS1_5DatumERKNS6_IhNS7_IhEENS9_IhEEEERjjPNS5_6vectorIjNS9_IjEEEEjNS5_16integer_sequenceIjJXspT0_EEEE",
   "parameters" :
   [
    {
     "referenced_type" : "_ZTIPN7android11audio_utils8metadata5DatumE"
    },
    {
     "referenced_type" : "_ZTIRKNSt3__112basic_stringIhNS_11char_traitsIhEENS_9allocatorIhEEEE"
    },
    {
     "referenced_type" : "_ZTIRj"
    },
    {
     "referenced_type" : "_ZTIj"
    },
    {
     "referenced_type" : "_ZTIPNSt3__16vectorIjNS_9allocatorIjEEEE"
    },
    {
     "referenced_type" : "_ZTIj"
    },
    {
     "referenced_type" : "_ZTINSt3__116integer_sequenceIjJLj0ELj1ELj2ELj3ELj4ELj5EEEE"
    }
   ],
   "return_type" : "_ZTIb",
   "source_file" : "system/media/audio_utils/include/audio_utils/Metadata.h",
   "template_args" :
   [
    "_ZTIN7android11audio_utils8metadata13compound_typeIJixfdNSt3__112basic_stringIcNS3_11char_traitsIcEENS3_9allocatorIcEEEENS1_4DataEEEE"
   ]
  },
  {
   "function_name" : "android::audio_utils::metadata::tedious_details::copyFromByteString",
   "linker_set_key" : "_ZN7android11audio_utils8metadata15tedious_details18copyFromByteStringINS1_13compound_typeIJixfdNSt3__112basic_stringIcNS5_11char_traitsIcEENS5_9allocatorIcEEEENS1_4DataEEEELj0EEEbPNS1_5DatumERKNS6_IhNS7_IhEENS9_IhEEEERjjPNS5_6vectorIjNS9_IjEEEE",
   "parameters" :
   [
    {
     "referenced_type" : "_ZTIPN7android11audio_utils8metadata5DatumE"
    },
    {
     "referenced_type" : "_ZTIRKNSt3__112basic_stringIhNS_11char_traitsIhEENS_9allocatorIhEEEE"
    },
    {
     "referenced_type" : "_ZTIRj"
    },
    {
     "referenced_type" : "_ZTIj"
    },
    {
     "referenced_type" : "_ZTIPNSt3__16vectorIjNS_9allocatorIjEEEE"
    }
   ],
   "return_type" : "_ZTIb",
   "source_file" : "system/media/audio_utils/include/audio_utils/Metadata.h",
   "template_args" :
   [
    "_ZTIN7android11audio_utils8metadata13compound_typeIJixfdNSt3__112basic_stringIcNS3_11char_traitsIcEENS3_9allocatorIcEEEENS1_4DataEEEE"
   ]
  },
  {
   "function_name" : "android::audio_utils::metadata::tedious_details::copyFromByteString",
   "linker_set_key" : "_ZN7android11audio_utils8metadata15tedious_details18copyFromByteStringINS1_13compound_typeIJixfdNSt3__112basic_stringIcNS5_11char_traitsIcEENS5_9allocatorIcEEEENS1_4DataEEEELj1EEEbPNS1_5DatumERKNS6_IhNS7_IhEENS9_IhEEEERjjPNS5_6vectorIjNS9_IjEEEE",
   "parameters" :
   [
    {
     "referenced_type" : "_ZTIPN7android11audio_utils8metadata5DatumE"
    },
    {
     "referenced_type" : "_ZTIRKNSt3__112basic_stringIhNS_11char_traitsIhEENS_9allocatorIhEEEE"
    },
    {
     "referenced_type" : "_ZTIRj"
    },
    {
     "referenced_type" : "_ZTIj"
    },
    {
     "referenced_type" : "_ZTIPNSt3__16vectorIjNS_9allocatorIjEEEE"
    }
   ],
   "return_type" : "_ZTIb",
   "source_file" : "system/media/audio_utils/include/audio_utils/Metadata.h",
   "template_args" :
   [
    "_ZTIN7android11audio_utils8metadata13compound_typeIJixfdNSt3__112basic_stringIcNS3_11char_traitsIcEENS3_9allocatorIcEEEENS1_4DataEEEE"
   ]
  },
  {
   "function_name" : "android::audio_utils::metadata::tedious_details::copyFromByteString",
   "linker_set_key" : "_ZN7android11audio_utils8metadata15tedious_details18copyFromByteStringINS1_13compound_typeIJixfdNSt3__112basic_stringIcNS5_11char_traitsIcEENS5_9allocatorIcEEEENS1_4DataEEEELj2EEEbPNS1_5DatumERKNS6_IhNS7_IhEENS9_IhEEEERjjPNS5_6vectorIjNS9_IjEEEE",
   "parameters" :
   [
    {
     "referenced_type" : "_ZTIPN7android11audio_utils8metadata5DatumE"
    },
    {
     "referenced_type" : "_ZTIRKNSt3__112basic_stringIhNS_11char_traitsIhEENS_9allocatorIhEEEE"
    },
    {
     "referenced_type" : "_ZTIRj"
    },
    {
     "referenced_type" : "_ZTIj"
    },
    {
     "referenced_type" : "_ZTIPNSt3__16vectorIjNS_9allocatorIjEEEE"
    }
   ],
   "return_type" : "_ZTIb",
   "source_file" : "system/media/audio_utils/include/audio_utils/Metadata.h",
   "template_args" :
   [
    "_ZTIN7android11audio_utils8metadata13compound_typeIJixfdNSt3__112basic_stringIcNS3_11char_traitsIcEENS3_9allocatorIcEEEENS1_4DataEEEE"
   ]
  },
  {
   "function_name" : "android::audio_utils::metadata::tedious_details::copyFromByteString",
   "linker_set_key" : "_ZN7android11audio_utils8metadata15tedious_details18copyFromByteStringINS1_13compound_typeIJixfdNSt3__112basic_stringIcNS5_11char_traitsIcEENS5_9allocatorIcEEEENS1_4DataEEEELj3EEEbPNS1_5DatumERKNS6_IhNS7_IhEENS9_IhEEEERjjPNS5_6vectorIjNS9_IjEEEE",
   "parameters" :
   [
    {
     "referenced_type" : "_ZTIPN7android11audio_utils8metadata5DatumE"
    },
    {
     "referenced_type" : "_ZTIRKNSt3__112basic_stringIhNS_11char_traitsIhEENS_9allocatorIhEEEE"
    },
    {
     "referenced_type" : "_ZTIRj"
    },
    {
     "referenced_type" : "_ZTIj"
    },
    {
     "referenced_type" : "_ZTIPNSt3__16vectorIjNS_9allocatorIjEEEE"
    }
   ],
   "return_type" : "_ZTIb",
   "source_file" : "system/media/audio_utils/include/audio_utils/Metadata.h",
   "template_args" :
   [
    "_ZTIN7android11audio_utils8metadata13compound_typeIJixfdNSt3__112basic_stringIcNS3_11char_traitsIcEENS3_9allocatorIcEEEENS1_4DataEEEE"
   ]
  },
  {
   "function_name" : "android::audio_utils::metadata::tedious_details::copyFromByteString",
   "linker_set_key" : "_ZN7android11audio_utils8metadata15tedious_details18copyFromByteStringINS1_13compound_typeIJixfdNSt3__112basic_stringIcNS5_11char_traitsIcEENS5_9allocatorIcEEEENS1_4DataEEEELj4EEEbPNS1_5DatumERKNS6_IhNS7_IhEENS9_IhEEEERjjPNS5_6vectorIjNS9_IjEEEE",
   "parameters" :
   [
    {
     "referenced_type" : "_ZTIPN7android11audio_utils8metadata5DatumE"
    },
    {
     "referenced_type" : "_ZTIRKNSt3__112basic_stringIhNS_11char_traitsIhEENS_9allocatorIhEEEE"
    },
    {
     "referenced_type" : "_ZTIRj"
    },
    {
     "referenced_type" : "_ZTIj"
    },
    {
     "referenced_type" : "_ZTIPNSt3__16vectorIjNS_9allocatorIjEEEE"
    }
   ],
   "return_type" : "_ZTIb",
   "source_file" : "system/media/audio_utils/include/audio_utils/Metadata.h",
   "template_args" :
   [
    "_ZTIN7android11audio_utils8metadata13compound_typeIJixfdNSt3__112basic_stringIcNS3_11char_traitsIcEENS3_9allocatorIcEEEENS1_4DataEEEE"
   ]
  },
  {
   "function_name" : "android::audio_utils::metadata::tedious_details::copyFromByteString",
   "linker_set_key" : "_ZN7android11audio_utils8metadata15tedious_details18copyFromByteStringINS1_13compound_typeIJixfdNSt3__112basic_stringIcNS5_11char_traitsIcEENS5_9allocatorIcEEEENS1_4DataEEEELj5EEEbPNS1_5DatumERKNS6_IhNS7_IhEENS9_IhEEEERjjPNS5_6vectorIjNS9_IjEEEE",
   "parameters" :
   [
    {
     "referenced_type" : "_ZTIPN7android11audio_utils8metadata5DatumE"
    },
    {
     "referenced_type" : "_ZTIRKNSt3__112basic_stringIhNS_11char_traitsIhEENS_9allocatorIhEEEE"
    },
    {
     "referenced_type" : "_ZTIRj"
    },
    {
     "referenced_type" : "_ZTIj"
    },
    {
     "referenced_type" : "_ZTIPNSt3__16vectorIjNS_9allocatorIjEEEE"
    }
   ],
   "return_type" : "_ZTIb",
   "source_file" : "system/media/audio_utils/include/audio_utils/Metadata.h",
   "template_args" :
   [
    "_ZTIN7android11audio_utils8metadata13compound_typeIJixfdNSt3__112basic_stringIcNS3_11char_traitsIcEENS3_9allocatorIcEEEENS1_4DataEEEE"
   ]
  },
  {
   "function_name" : "android::audio_utils::metadata::copyToByteString",
   "linker_set_key" : "_ZN7android11audio_utils8metadata16copyToByteStringERKNS1_5DatumERNSt3__112basic_stringIhNS5_11char_traitsIhEENS5_9allocatorIhEEEE",
   "parameters" :
   [
    {
     "referenced_type" : "_ZTIRKN7android11audio_utils8metadata5DatumE"
    },
    {
     "referenced_type" : "_ZTIRNSt3__112basic_stringIhNS_11char_traitsIhEENS_9allocatorIhEEEE"
    }
   ],
   "return_type" : "_ZTIb",
   "source_file" : "system/media/audio_utils/include/audio_utils/Metadata.h"
  },
  {
   "function_name" : "android::audio_utils::metadata::copyToByteString",
   "linker_set_key" : "_ZN7android11audio_utils8metadata16copyToByteStringIKNSt3__112basic_stringIcNS3_11char_traitsIcEENS3_9allocatorIcEEEENS1_5DatumEEEbRKNS3_4pairIT_T0_EERNS4_IhNS5_IhEENS7_IhEEEE",
   "parameters" :
   [
    {
     "referenced_type" : "_ZTIRKNSt3__14pairIKNS_12basic_stringIcNS_11char_traitsIcEENS_9allocatorIcEEEEN7android11audio_utils8metadata5DatumEEE"
    },
    {
     "referenced_type" : "_ZTIRNSt3__112basic_stringIhNS_11char_traitsIhEENS_9allocatorIhEEEE"
    }
   ],
   "return_type" : "_ZTIb",
   "source_file" : "system/media/audio_utils/include/audio_utils/Metadata.h",
   "template_args" :
   [
    "_ZTIKNSt3__112basic_stringIcNS_11char_traitsIcEENS_9allocatorIcEEEE",
    "_ZTIN7android11audio_utils8metadata5DatumE"
   ]
  },
  {
   "function_name" : "android::audio_utils::metadata::copyToByteString",
   "linker_set_key" : "_ZN7android11audio_utils8metadata16copyToByteStringINSt3__112basic_stringEJcNS3_11char_traitsIcEENS3_9allocatorIcEEEEEbRKT_IJDpT0_EERNS4_IhNS5_IhEENS7_IhEEEE",
   "parameters" :
   [
    {
     "referenced_type" : "_ZTIRKNSt3__112basic_stringIcNS_11char_traitsIcEENS_9allocatorIcEEEE"
    },
    {
     "referenced_type" : "_ZTIRNSt3__112basic_stringIhNS_11char_traitsIhEENS_9allocatorIhEEEE"
    }
   ],
   "return_type" : "_ZTIb",
   "source_file" : "system/media/audio_utils/include/audio_utils/Metadata.h"
  },
  {
   "function_name" : "android::audio_utils::metadata::copyToByteString",
   "linker_set_key" : "_ZN7android11audio_utils8metadata16copyToByteStringINSt3__13mapEJNS3_12basic_stringIcNS3_11char_traitsIcEENS3_9allocatorIcEEEENS1_5DatumENS3_4lessISA_EENS8_INS3_4pairIKSA_SB_EEEEEEEbRKT_IJDpT0_EERNS5_IhNS6_IhEENS8_IhEEEE",
   "parameters" :
   [
    {
     "referenced_type" : "_ZTIRKNSt3__13mapINS_12basic_stringIcNS_11char_traitsIcEENS_9allocatorIcEEEEN7android11audio_utils8metadata5DatumENS_4lessIS6_EENS4_INS_4pairIKS6_SA_EEEEEE"
    },
    {
     "referenced_type" : "_ZTIRNSt3__112basic_stringIhNS_11char_traitsIhEENS_9allocatorIhEEEE"
    }
   ],
   "return_type" : "_ZTIb",
   "source_file" : "system/media/audio_utils/include/audio_utils/Metadata.h"
  },
  {
   "function_name" : "android::audio_utils::metadata::copyToByteString",
   "linker_set_key" : "_ZN7android11audio_utils8metadata16copyToByteStringIdEENSt3__19enable_ifIXoo28is_primitive_metadata_type_vIT_Esr3stdE15is_arithmetic_vINS3_5decayIS5_E4typeEEEbE4typeERKS5_RNS3_12basic_stringIhNS3_11char_traitsIhEENS3_9allocatorIhEEEE",
   "parameters" :
   [
    {
     "referenced_type" : "_ZTIRKd"
    },
    {
     "referenced_type" : "_ZTIRNSt3__112basic_stringIhNS_11char_traitsIhEENS_9allocatorIhEEEE"
    }
   ],
   "return_type" : "_ZTIb",
   "source_file" : "system/media/audio_utils/include/audio_utils/Metadata.h",
   "template_args" : [ "_ZTId" ]
  },
  {
   "function_name" : "android::audio_utils::metadata::copyToByteString",
   "linker_set_key" : "_ZN7android11audio_utils8metadata16copyToByteStringIfEENSt3__19enable_ifIXoo28is_primitive_metadata_type_vIT_Esr3stdE15is_arithmetic_vINS3_5decayIS5_E4typeEEEbE4typeERKS5_RNS3_12basic_stringIhNS3_11char_traitsIhEENS3_9allocatorIhEEEE",
   "parameters" :
   [
    {
     "referenced_type" : "_ZTIRKf"
    },
    {
     "referenced_type" : "_ZTIRNSt3__112basic_stringIhNS_11char_traitsIhEENS_9allocatorIhEEEE"
    }
   ],
   "return_type" : "_ZTIb",
   "source_file" : "system/media/audio_utils/include/audio_utils/Metadata.h",
   "template_args" : [ "_ZTIf" ]
  },
  {
   "function_name" : "android::audio_utils::metadata::copyToByteString",
   "linker_set_key" : "_ZN7android11audio_utils8metadata16copyToByteStringIiEENSt3__19enable_ifIXoo28is_primitive_metadata_type_vIT_Esr3stdE15is_arithmetic_vINS3_5decayIS5_E4typeEEEbE4typeERKS5_RNS3_12basic_stringIhNS3_11char_traitsIhEENS3_9allocatorIhEEEE",
   "parameters" :
   [
    {
     "referenced_type" : "_ZTIRKi"
    },
    {
     "referenced_type" : "_ZTIRNSt3__112basic_stringIhNS_11char_traitsIhEENS_9allocatorIhEEEE"
    }
   ],
   "return_type" : "_ZTIb",
   "source_file" : "system/media/audio_utils/include/audio_utils/Metadata.h",
   "template_args" : [ "_ZTIi" ]
  },
  {
   "function_name" : "android::audio_utils::metadata::copyToByteString",
   "linker_set_key" : "_ZN7android11audio_utils8metadata16copyToByteStringIjEENSt3__19enable_ifIXoo28is_primitive_metadata_type_vIT_Esr3stdE15is_arithmetic_vINS3_5decayIS5_E4typeEEEbE4typeERKS5_RNS3_12basic_stringIhNS3_11char_traitsIhEENS3_9allocatorIhEEEE",
   "parameters" :
   [
    {
     "referenced_type" : "_ZTIRKj"
    },
    {
     "referenced_type" : "_ZTIRNSt3__112basic_stringIhNS_11char_traitsIhEENS_9allocatorIhEEEE"
    }
   ],
   "return_type" : "_ZTIb",
   "source_file" : "system/media/audio_utils/include/audio_utils/Metadata.h",
   "template_args" : [ "_ZTIj" ]
  },
  {
   "function_name" : "android::audio_utils::metadata::copyToByteString",
   "linker_set_key" : "_ZN7android11audio_utils8metadata16copyToByteStringIxEENSt3__19enable_ifIXoo28is_primitive_metadata_type_vIT_Esr3stdE15is_arithmetic_vINS3_5decayIS5_E4typeEEEbE4typeERKS5_RNS3_12basic_stringIhNS3_11char_traitsIhEENS3_9allocatorIhEEEE",
   "parameters" :
   [
    {
     "referenced_type" : "_ZTIRKx"
    },
    {
     "referenced_type" : "_ZTIRNSt3__112basic_stringIhNS_11char_traitsIhEENS_9allocatorIhEEEE"
    }
   ],
   "return_type" : "_ZTIb",
   "source_file" : "system/media/audio_utils/include/audio_utils/Metadata.h",
   "template_args" : [ "_ZTIx" ]
  },
  {
   "function_name" : "android::audio_utils::metadata::dataByteStringLen",
   "linker_set_key" : "_ZN7android11audio_utils8metadata17dataByteStringLenEPKh",
   "parameters" :
   [
    {
     "referenced_type" : "_ZTIPKh"
    }
   ],
   "return_type" : "_ZTIj",
   "source_file" : "system/media/audio_utils/include/audio_utils/Metadata.h"
  },
  {
   "function_name" : "android::audio_utils::metadata::get_type_as_value",
   "linker_set_key" : "_ZN7android11audio_utils8metadata17get_type_as_valueIRKNS1_4DataEEEjv",
   "return_type" : "_ZTIj",
   "source_file" : "system/media/audio_utils/include/audio_utils/Metadata.h",
   "template_args" : [ "_ZTIRKN7android11audio_utils8metadata4DataE" ]
  },
  {
   "function_name" : "android::audio_utils::metadata::get_type_as_value",
   "linker_set_key" : "_ZN7android11audio_utils8metadata17get_type_as_valueIRKNSt3__112basic_stringIcNS3_11char_traitsIcEENS3_9allocatorIcEEEEEEjv",
   "return_type" : "_ZTIj",
   "source_file" : "system/media/audio_utils/include/audio_utils/Metadata.h",
   "template_args" :
   [
    "_ZTIRKNSt3__112basic_stringIcNS_11char_traitsIcEENS_9allocatorIcEEEE"
   ]
  },
  {
   "function_name" : "android::audio_utils::metadata::get_type_as_value",
   "linker_set_key" : "_ZN7android11audio_utils8metadata17get_type_as_valueIRKdEEjv",
   "return_type" : "_ZTIj",
   "source_file" : "system/media/audio_utils/include/audio_utils/Metadata.h",
   "template_args" : [ "_ZTIRKd" ]
  },
  {
   "function_name" : "android::audio_utils::metadata::get_type_as_value",
   "linker_set_key" : "_ZN7android11audio_utils8metadata17get_type_as_valueIRKfEEjv",
   "return_type" : "_ZTIj",
   "source_file" : "system/media/audio_utils/include/audio_utils/Metadata.h",
   "template_args" : [ "_ZTIRKf" ]
  },
  {
   "function_name" : "android::audio_utils::metadata::get_type_as_value",
   "linker_set_key" : "_ZN7android11audio_utils8metadata17get_type_as_valueIRKiEEjv",
   "return_type" : "_ZTIj",
   "source_file" : "system/media/audio_utils/include/audio_utils/Metadata.h",
   "template_args" : [ "_ZTIRKi" ]
  },
  {
   "function_name" : "android::audio_utils::metadata::get_type_as_value",
   "linker_set_key" : "_ZN7android11audio_utils8metadata17get_type_as_valueIRKxEEjv",
   "return_type" : "_ZTIj",
   "source_file" : "system/media/audio_utils/include/audio_utils/Metadata.h",
   "template_args" : [ "_ZTIRKx" ]
  },
  {
   "function_name" : "android::audio_utils::metadata::get_type_as_value",
   "linker_set_key" : "_ZN7android11audio_utils8metadata17get_type_as_valueIRNS1_4DataEEEjv",
   "return_type" : "_ZTIj",
   "source_file" : "system/media/audio_utils/include/audio_utils/Metadata.h",
   "template_args" : [ "_ZTIRN7android11audio_utils8metadata4DataE" ]
  },
  {
   "function_name" : "android::audio_utils::metadata::get_type_as_value",
   "linker_set_key" : "_ZN7android11audio_utils8metadata17get_type_as_valueIRNSt3__112basic_stringIcNS3_11char_traitsIcEENS3_9allocatorIcEEEEEEjv",
   "return_type" : "_ZTIj",
   "source_file" : "system/media/audio_utils/include/audio_utils/Metadata.h",
   "template_args" : [ "_ZTIRNSt3__112basic_stringIcNS_11char_traitsIcEENS_9allocatorIcEEEE" ]
  },
  {
   "function_name" : "android::audio_utils::metadata::get_type_as_value",
   "linker_set_key" : "_ZN7android11audio_utils8metadata17get_type_as_valueIRdEEjv",
   "return_type" : "_ZTIj",
   "source_file" : "system/media/audio_utils/include/audio_utils/Metadata.h",
   "template_args" : [ "_ZTIRd" ]
  },
  {
   "function_name" : "android::audio_utils::metadata::get_type_as_value",
   "linker_set_key" : "_ZN7android11audio_utils8metadata17get_type_as_valueIRfEEjv",
   "return_type" : "_ZTIj",
   "source_file" : "system/media/audio_utils/include/audio_utils/Metadata.h",
   "template_args" : [ "_ZTIRf" ]
  },
  {
   "function_name" : "android::audio_utils::metadata::get_type_as_value",
   "linker_set_key" : "_ZN7android11audio_utils8metadata17get_type_as_valueIRiEEjv",
   "return_type" : "_ZTIj",
   "source_file" : "system/media/audio_utils/include/audio_utils/Metadata.h",
   "template_args" : [ "_ZTIRi" ]
  },
  {
   "function_name" : "android::audio_utils::metadata::get_type_as_value",
   "linker_set_key" : "_ZN7android11audio_utils8metadata17get_type_as_valueIRxEEjv",
   "return_type" : "_ZTIj",
   "source_file" : "system/media/audio_utils/include/audio_utils/Metadata.h",
   "template_args" : [ "_ZTIRx" ]
  },
  {
   "function_name" : "android::audio_utils::metadata::byteStringFromData",
   "linker_set_key" : "_ZN7android11audio_utils8metadata18byteStringFromDataERKNS1_4DataE",
   "parameters" :
   [
    {
     "referenced_type" : "_ZTIRKN7android11audio_utils8metadata4DataE"
    }
   ],
   "return_type" : "_ZTINSt3__112basic_stringIhNS_11char_traitsIhEENS_9allocatorIhEEEE",
   "source_file" : "system/media/audio_utils/include/audio_utils/Metadata.h"
  },
  {
   "function_name" : "android::audio_utils::metadata::copyFromByteString",
   "linker_set_key" : "_ZN7android11audio_utils8metadata18copyFromByteStringEPNS1_5DatumERKNSt3__112basic_stringIhNS4_11char_traitsIhEENS4_9allocatorIhEEEERjPNS4_6vectorIjNS8_IjEEEE",
   "parameters" :
   [
    {
     "referenced_type" : "_ZTIPN7android11audio_utils8metadata5DatumE"
    },
    {
     "referenced_type" : "_ZTIRKNSt3__112basic_stringIhNS_11char_traitsIhEENS_9allocatorIhEEEE"
    },
    {
     "referenced_type" : "_ZTIRj"
    },
    {
     "referenced_type" : "_ZTIPNSt3__16vectorIjNS_9allocatorIjEEEE"
    }
   ],
   "return_type" : "_ZTIb",
   "source_file" : "system/media/audio_utils/include/audio_utils/Metadata.h"
  },
  {
   "function_name" : "android::audio_utils::metadata::copyFromByteString",
   "linker_set_key" : "_ZN7android11audio_utils8metadata18copyFromByteStringINSt3__112basic_stringEJcNS3_11char_traitsIcEENS3_9allocatorIcEEEEEbPT_IJDpT0_EERKNS4_IhNS5_IhEENS7_IhEEEERjPNS3_6vectorIjNS7_IjEEEE",
   "parameters" :
   [
    {
     "referenced_type" : "_ZTIPNSt3__112basic_stringIcNS_11char_traitsIcEENS_9allocatorIcEEEE"
    },
    {
     "referenced_type" : "_ZTIRKNSt3__112basic_stringIhNS_11char_traitsIhEENS_9allocatorIhEEEE"
    },
    {
     "referenced_type" : "_ZTIRj"
    },
    {
     "referenced_type" : "_ZTIPNSt3__16vectorIjNS_9allocatorIjEEEE"
    }
   ],
   "return_type" : "_ZTIb",
   "source_file" : "system/media/audio_utils/include/audio_utils/Metadata.h"
  },
  {
   "function_name" : "android::audio_utils::metadata::copyFromByteString",
   "linker_set_key" : "_ZN7android11audio_utils8metadata18copyFromByteStringINSt3__13mapEJNS3_12basic_stringIcNS3_11char_traitsIcEENS3_9allocatorIcEEEENS1_5DatumENS3_4lessISA_EENS8_INS3_4pairIKSA_SB_EEEEEEEbPT_IJDpT0_EERKNS5_IhNS6_IhEENS8_IhEEEERjPNS3_6vectorIjNS8_IjEEEE",
   "parameters" :
   [
    {
     "referenced_type" : "_ZTIPNSt3__13mapINS_12basic_stringIcNS_11char_traitsIcEENS_9allocatorIcEEEEN7android11audio_utils8metadata5DatumENS_4lessIS6_EENS4_INS_4pairIKS6_SA_EEEEEE"
    },
    {
     "referenced_type" : "_ZTIRKNSt3__112basic_stringIhNS_11char_traitsIhEENS_9allocatorIhEEEE"
    },
    {
     "referenced_type" : "_ZTIRj"
    },
    {
     "referenced_type" : "_ZTIPNSt3__16vectorIjNS_9allocatorIjEEEE"
    }
   ],
   "return_type" : "_ZTIb",
   "source_file" : "system/media/audio_utils/include/audio_utils/Metadata.h"
  },
  {
   "function_name" : "android::audio_utils::metadata::copyFromByteString",
   "linker_set_key" : "_ZN7android11audio_utils8metadata18copyFromByteStringIdEENSt3__19enable_ifIXoo28is_primitive_metadata_type_vIT_Esr3stdE15is_arithmetic_vINS3_5decayIS5_E4typeEEEbE4typeEPS5_RKNS3_12basic_stringIhNS3_11char_traitsIhEENS3_9allocatorIhEEEERjPNS3_6vectorIjNSF_IjEEEE",
   "parameters" :
   [
    {
     "referenced_type" : "_ZTIPd"
    },
    {
     "referenced_type" : "_ZTIRKNSt3__112basic_stringIhNS_11char_traitsIhEENS_9allocatorIhEEEE"
    },
    {
     "referenced_type" : "_ZTIRj"
    },
    {
     "referenced_type" : "_ZTIPNSt3__16vectorIjNS_9allocatorIjEEEE"
    }
   ],
   "return_type" : "_ZTIb",
   "source_file" : "system/media/audio_utils/include/audio_utils/Metadata.h",
   "template_args" : [ "_ZTId" ]
  },
  {
   "function_name" : "android::audio_utils::metadata::copyFromByteString",
   "linker_set_key" : "_ZN7android11audio_utils8metadata18copyFromByteStringIfEENSt3__19enable_ifIXoo28is_primitive_metadata_type_vIT_Esr3stdE15is_arithmetic_vINS3_5decayIS5_E4typeEEEbE4typeEPS5_RKNS3_12basic_stringIhNS3_11char_traitsIhEENS3_9allocatorIhEEEERjPNS3_6vectorIjNSF_IjEEEE",
   "parameters" :
   [
    {
     "referenced_type" : "_ZTIPf"
    },
    {
     "referenced_type" : "_ZTIRKNSt3__112basic_stringIhNS_11char_traitsIhEENS_9allocatorIhEEEE"
    },
    {
     "referenced_type" : "_ZTIRj"
    },
    {
     "referenced_type" : "_ZTIPNSt3__16vectorIjNS_9allocatorIjEEEE"
    }
   ],
   "return_type" : "_ZTIb",
   "source_file" : "system/media/audio_utils/include/audio_utils/Metadata.h",
   "template_args" : [ "_ZTIf" ]
  },
  {
   "function_name" : "android::audio_utils::metadata::copyFromByteString",
   "linker_set_key" : "_ZN7android11audio_utils8metadata18copyFromByteStringIiEENSt3__19enable_ifIXoo28is_primitive_metadata_type_vIT_Esr3stdE15is_arithmetic_vINS3_5decayIS5_E4typeEEEbE4typeEPS5_RKNS3_12basic_stringIhNS3_11char_traitsIhEENS3_9allocatorIhEEEERjPNS3_6vectorIjNSF_IjEEEE",
   "parameters" :
   [
    {
     "referenced_type" : "_ZTIPi"
    },
    {
     "referenced_type" : "_ZTIRKNSt3__112basic_stringIhNS_11char_traitsIhEENS_9allocatorIhEEEE"
    },
    {
     "referenced_type" : "_ZTIRj"
    },
    {
     "referenced_type" : "_ZTIPNSt3__16vectorIjNS_9allocatorIjEEEE"
    }
   ],
   "return_type" : "_ZTIb",
   "source_file" : "system/media/audio_utils/include/audio_utils/Metadata.h",
   "template_args" : [ "_ZTIi" ]
  },
  {
   "function_name" : "android::audio_utils::metadata::copyFromByteString",
   "linker_set_key" : "_ZN7android11audio_utils8metadata18copyFromByteStringIjEENSt3__19enable_ifIXoo28is_primitive_metadata_type_vIT_Esr3stdE15is_arithmetic_vINS3_5decayIS5_E4typeEEEbE4typeEPS5_RKNS3_12basic_stringIhNS3_11char_traitsIhEENS3_9allocatorIhEEEERjPNS3_6vectorIjNSF_IjEEEE",
   "parameters" :
   [
    {
     "referenced_type" : "_ZTIPj"
    },
    {
     "referenced_type" : "_ZTIRKNSt3__112basic_stringIhNS_11char_traitsIhEENS_9allocatorIhEEEE"
    },
    {
     "referenced_type" : "_ZTIRj"
    },
    {
     "referenced_type" : "_ZTIPNSt3__16vectorIjNS_9allocatorIjEEEE"
    }
   ],
   "return_type" : "_ZTIb",
   "source_file" : "system/media/audio_utils/include/audio_utils/Metadata.h",
   "template_args" : [ "_ZTIj" ]
  },
  {
   "function_name" : "android::audio_utils::metadata::copyFromByteString",
   "linker_set_key" : "_ZN7android11audio_utils8metadata18copyFromByteStringIxEENSt3__19enable_ifIXoo28is_primitive_metadata_type_vIT_Esr3stdE15is_arithmetic_vINS3_5decayIS5_E4typeEEEbE4typeEPS5_RKNS3_12basic_stringIhNS3_11char_traitsIhEENS3_9allocatorIhEEEERjPNS3_6vectorIjNSF_IjEEEE",
   "parameters" :
   [
    {
     "referenced_type" : "_ZTIPx"
    },
    {
     "referenced_type" : "_ZTIRKNSt3__112basic_stringIhNS_11char_traitsIhEENS_9allocatorIhEEEE"
    },
    {
     "referenced_type" : "_ZTIRj"
    },
    {
     "referenced_type" : "_ZTIPNSt3__16vectorIjNS_9allocatorIjEEEE"
    }
   ],
   "return_type" : "_ZTIb",
   "source_file" : "system/media/audio_utils/include/audio_utils/Metadata.h",
   "template_args" : [ "_ZTIx" ]
  },
  {
   "function_name" : "android::audio_utils::metadata::dataFromByteString",
   "linker_set_key" : "_ZN7android11audio_utils8metadata18dataFromByteStringERKNSt3__112basic_stringIhNS2_11char_traitsIhEENS2_9allocatorIhEEEEPNS2_6vectorIjNS6_IjEEEE",
   "parameters" :
   [
    {
     "referenced_type" : "_ZTIRKNSt3__112basic_stringIhNS_11char_traitsIhEENS_9allocatorIhEEEE"
    },
    {
     "default_arg" : true,
     "referenced_type" : "_ZTIPNSt3__16vectorIjNS_9allocatorIjEEEE"
    }
   ],
   "return_type" : "_ZTIN7android11audio_utils8metadata4DataE",
   "source_file" : "system/media/audio_utils/include/audio_utils/Metadata.h"
  },
  {
   "function_name" : "android::audio_utils::metadata::Data::get_ptr",
   "linker_set_key" : "_ZN7android11audio_utils8metadata4Data7get_ptrINS1_3KeyENSt3__112basic_stringIcNS5_11char_traitsIcEENS5_9allocatorIcEEEEEEPT0_RKT_ISC_JEEb",
   "parameters" :
   [
    {
     "is_this_ptr" : true,
     "referenced_type" : "_ZTIPN7android11audio_utils8metadata4DataE"
    },
    {
     "referenced_type" : "_ZTIRKN7android11audio_utils8metadata3KeyINSt3__112basic_stringIcNS3_11char_traitsIcEENS3_9allocatorIcEEEEvEE"
    },
    {
     "default_arg" : true,
     "referenced_type" : "_ZTIb"
    }
   ],
   "return_type" : "_ZTIPNSt3__112basic_stringIcNS_11char_traitsIcEENS_9allocatorIcEEEE",
   "source_file" : "system/media/audio_utils/include/audio_utils/Metadata.h",
   "template_args" : [ "_ZTINSt3__112basic_stringIcNS_11char_traitsIcEENS_9allocatorIcEEEE" ]
  },
  {
   "function_name" : "android::audio_utils::metadata::Data::get_ptr",
   "linker_set_key" : "_ZN7android11audio_utils8metadata4Data7get_ptrINS1_3KeyES2_EEPT0_RKT_IS5_JEEb",
   "parameters" :
   [
    {
     "is_this_ptr" : true,
     "referenced_type" : "_ZTIPN7android11audio_utils8metadata4DataE"
    },
    {
     "referenced_type" : "_ZTIRKN7android11audio_utils8metadata3KeyINS1_4DataEvEE"
    },
    {
     "default_arg" : true,
     "referenced_type" : "_ZTIb"
    }
   ],
   "return_type" : "_ZTIPN7android11audio_utils8metadata4DataE",
   "source_file" : "system/media/audio_utils/include/audio_utils/Metadata.h",
   "template_args" : [ "_ZTIN7android11audio_utils8metadata4DataE" ]
  },
  {
   "function_name" : "android::audio_utils::metadata::Data::get_ptr",
   "linker_set_key" : "_ZN7android11audio_utils8metadata4Data7get_ptrINS1_3KeyEdEEPT0_RKT_IS5_JEEb",
   "parameters" :
   [
    {
     "is_this_ptr" : true,
     "referenced_type" : "_ZTIPN7android11audio_utils8metadata4DataE"
    },
    {
     "referenced_type" : "_ZTIRKN7android11audio_utils8metadata3KeyIdvEE"
    },
    {
     "default_arg" : true,
     "referenced_type" : "_ZTIb"
    }
   ],
   "return_type" : "_ZTIPd",
   "source_file" : "system/media/audio_utils/include/audio_utils/Metadata.h",
   "template_args" : [ "_ZTId" ]
  },
  {
   "function_name" : "android::audio_utils::metadata::Data::get_ptr",
   "linker_set_key" : "_ZN7android11audio_utils8metadata4Data7get_ptrINS1_3KeyEfEEPT0_RKT_IS5_JEEb",
   "parameters" :
   [
    {
     "is_this_ptr" : true,
     "referenced_type" : "_ZTIPN7android11audio_utils8metadata4DataE"
    },
    {
     "referenced_type" : "_ZTIRKN7android11audio_utils8metadata3KeyIfvEE"
    },
    {
     "default_arg" : true,
     "referenced_type" : "_ZTIb"
    }
   ],
   "return_type" : "_ZTIPf",
   "source_file" : "system/media/audio_utils/include/audio_utils/Metadata.h",
   "template_args" : [ "_ZTIf" ]
  },
  {
   "function_name" : "android::audio_utils::metadata::Data::get_ptr",
   "linker_set_key" : "_ZN7android11audio_utils8metadata4Data7get_ptrINS1_3KeyEiEEPT0_RKT_IS5_JEEb",
   "parameters" :
   [
    {
     "is_this_ptr" : true,
     "referenced_type" : "_ZTIPN7android11audio_utils8metadata4DataE"
    },
    {
     "referenced_type" : "_ZTIRKN7android11audio_utils8metadata3KeyIivEE"
    },
    {
     "default_arg" : true,
     "referenced_type" : "_ZTIb"
    }
   ],
   "return_type" : "_ZTIPi",
   "source_file" : "system/media/audio_utils/include/audio_utils/Metadata.h",
   "template_args" : [ "_ZTIi" ]
  },
  {
   "function_name" : "android::audio_utils::metadata::Data::get_ptr",
   "linker_set_key" : "_ZN7android11audio_utils8metadata4Data7get_ptrINS1_3KeyExEEPT0_RKT_IS5_JEEb",
   "parameters" :
   [
    {
     "is_this_ptr" : true,
     "referenced_type" : "_ZTIPN7android11audio_utils8metadata4DataE"
    },
    {
     "referenced_type" : "_ZTIRKN7android11audio_utils8metadata3KeyIxvEE"
    },
    {
     "default_arg" : true,
     "referenced_type" : "_ZTIb"
    }
   ],
   "return_type" : "_ZTIPx",
   "source_file" : "system/media/audio_utils/include/audio_utils/Metadata.h",
   "template_args" : [ "_ZTIx" ]
  },
  {
   "function_name" : "android::audio_utils::metadata::Datum::Datum",
   "linker_set_key" : "_ZN7android11audio_utils8metadata5DatumC1EPKc",
   "parameters" :
   [
    {
     "is_this_ptr" : true,
     "referenced_type" : "_ZTIPN7android11audio_utils8metadata5DatumE"
    },
    {
     "referenced_type" : "_ZTIPKc"
    }
   ],
   "return_type" : "_ZTIv",
   "source_file" : "system/media/audio_utils/include/audio_utils/Metadata.h"
  },
  {
   "function_name" : "android::audio_utils::metadata::Datum::Datum",
   "linker_set_key" : "_ZN7android11audio_utils8metadata5DatumC1Ev",
   "parameters" :
   [
    {
     "is_this_ptr" : true,
     "referenced_type" : "_ZTIPN7android11audio_utils8metadata5DatumE"
    }
   ],
   "return_type" : "_ZTIv",
   "source_file" : "system/media/audio_utils/include/audio_utils/Metadata.h"
  },
  {
   "function_name" : "android::audio_utils::metadata::Datum::Datum",
   "linker_set_key" : "_ZN7android11audio_utils8metadata5DatumC1INS1_4DataEvEEOT_",
   "parameters" :
   [
    {
     "is_this_ptr" : true,
     "referenced_type" : "_ZTIPN7android11audio_utils8metadata5DatumE"
    },
    {
     "referenced_type" : "_ZTION7android11audio_utils8metadata4DataE"
    }
   ],
   "return_type" : "_ZTIv",
   "source_file" : "system/media/audio_utils/include/audio_utils/Metadata.h",
   "template_args" : [ "_ZTIN7android11audio_utils8metadata4DataE", "_ZTIv" ]
  },
  {
   "function_name" : "android::audio_utils::metadata::Datum::Datum",
   "linker_set_key" : "_ZN7android11audio_utils8metadata5DatumC1INSt3__112basic_stringIcNS4_11char_traitsIcEENS4_9allocatorIcEEEEvEEOT_",
   "parameters" :
   [
    {
     "is_this_ptr" : true,
     "referenced_type" : "_ZTIPN7android11audio_utils8metadata5DatumE"
    },
    {
     "referenced_type" : "_ZTIONSt3__112basic_stringIcNS_11char_traitsIcEENS_9allocatorIcEEEE"
    }
   ],
   "return_type" : "_ZTIv",
   "source_file" : "system/media/audio_utils/include/audio_utils/Metadata.h",
   "template_args" :
   [
    "_ZTINSt3__112basic_stringIcNS_11char_traitsIcEENS_9allocatorIcEEEE",
    "_ZTIv"
   ]
  },
  {
   "function_name" : "android::audio_utils::metadata::Datum::Datum",
   "linker_set_key" : "_ZN7android11audio_utils8metadata5DatumC1IRNS1_4DataEvEEOT_",
   "parameters" :
   [
    {
     "is_this_ptr" : true,
     "referenced_type" : "_ZTIPN7android11audio_utils8metadata5DatumE"
    },
    {
     "referenced_type" : "_ZTIRN7android11audio_utils8metadata4DataE"
    }
   ],
   "return_type" : "_ZTIv",
   "source_file" : "system/media/audio_utils/include/audio_utils/Metadata.h",
   "template_args" : [ "_ZTIRN7android11audio_utils8metadata4DataE", "_ZTIv" ]
  },
  {
   "function_name" : "android::audio_utils::metadata::Datum::Datum",
   "linker_set_key" : "_ZN7android11audio_utils8metadata5DatumC1IRdvEEOT_",
   "parameters" :
   [
    {
     "is_this_ptr" : true,
     "referenced_type" : "_ZTIPN7android11audio_utils8metadata5DatumE"
    },
    {
     "referenced_type" : "_ZTIRd"
    }
   ],
   "return_type" : "_ZTIv",
   "source_file" : "system/media/audio_utils/include/audio_utils/Metadata.h",
   "template_args" : [ "_ZTIRd", "_ZTIv" ]
  },
  {
   "function_name" : "android::audio_utils::metadata::Datum::Datum",
   "linker_set_key" : "_ZN7android11audio_utils8metadata5DatumC1IRfvEEOT_",
   "parameters" :
   [
    {
     "is_this_ptr" : true,
     "referenced_type" : "_ZTIPN7android11audio_utils8metadata5DatumE"
    },
    {
     "referenced_type" : "_ZTIRf"
    }
   ],
   "return_type" : "_ZTIv",
   "source_file" : "system/media/audio_utils/include/audio_utils/Metadata.h",
   "template_args" : [ "_ZTIRf", "_ZTIv" ]
  },
  {
   "function_name" : "android::audio_utils::metadata::Datum::Datum",
   "linker_set_key" : "_ZN7android11audio_utils8metadata5DatumC1IRivEEOT_",
   "parameters" :
   [
    {
     "is_this_ptr" : true,
     "referenced_type" : "_ZTIPN7android11audio_utils8metadata5DatumE"
    },
    {
     "referenced_type" : "_ZTIRi"
    }
   ],
   "return_type" : "_ZTIv",
   "source_file" : "system/media/audio_utils/include/audio_utils/Metadata.h",
   "template_args" : [ "_ZTIRi", "_ZTIv" ]
  },
  {
   "function_name" : "android::audio_utils::metadata::Datum::Datum",
   "linker_set_key" : "_ZN7android11audio_utils8metadata5DatumC1IRxvEEOT_",
   "parameters" :
   [
    {
     "is_this_ptr" : true,
     "referenced_type" : "_ZTIPN7android11audio_utils8metadata5DatumE"
    },
    {
     "referenced_type" : "_ZTIRx"
    }
   ],
   "return_type" : "_ZTIv",
   "source_file" : "system/media/audio_utils/include/audio_utils/Metadata.h",
   "template_args" : [ "_ZTIRx", "_ZTIv" ]
  },
  {
   "function_name" : "android::audio_utils::metadata::Datum::Datum",
   "linker_set_key" : "_ZN7android11audio_utils8metadata5DatumC1IdvEEOT_",
   "parameters" :
   [
    {
     "is_this_ptr" : true,
     "referenced_type" : "_ZTIPN7android11audio_utils8metadata5DatumE"
    },
    {
     "referenced_type" : "_ZTIOd"
    }
   ],
   "return_type" : "_ZTIv",
   "source_file" : "system/media/audio_utils/include/audio_utils/Metadata.h",
   "template_args" : [ "_ZTId", "_ZTIv" ]
  },
  {
   "function_name" : "android::audio_utils::metadata::Datum::Datum",
   "linker_set_key" : "_ZN7android11audio_utils8metadata5DatumC1IfvEEOT_",
   "parameters" :
   [
    {
     "is_this_ptr" : true,
     "referenced_type" : "_ZTIPN7android11audio_utils8metadata5DatumE"
    },
    {
     "referenced_type" : "_ZTIOf"
    }
   ],
   "return_type" : "_ZTIv",
   "source_file" : "system/media/audio_utils/include/audio_utils/Metadata.h",
   "template_args" : [ "_ZTIf", "_ZTIv" ]
  },
  {
   "function_name" : "android::audio_utils::metadata::Datum::Datum",
   "linker_set_key" : "_ZN7android11audio_utils8metadata5DatumC1IivEEOT_",
   "parameters" :
   [
    {
     "is_this_ptr" : true,
     "referenced_type" : "_ZTIPN7android11audio_utils8metadata5DatumE"
    },
    {
     "referenced_type" : "_ZTIOi"
    }
   ],
   "return_type" : "_ZTIv",
   "source_file" : "system/media/audio_utils/include/audio_utils/Metadata.h",
   "template_args" : [ "_ZTIi", "_ZTIv" ]
  },
  {
   "function_name" : "android::audio_utils::metadata::Datum::Datum",
   "linker_set_key" : "_ZN7android11audio_utils8metadata5DatumC1IxvEEOT_",
   "parameters" :
   [
    {
     "is_this_ptr" : true,
     "referenced_type" : "_ZTIPN7android11audio_utils8metadata5DatumE"
    },
    {
     "referenced_type" : "_ZTIOx"
    }
   ],
   "return_type" : "_ZTIv",
   "source_file" : "system/media/audio_utils/include/audio_utils/Metadata.h",
   "template_args" : [ "_ZTIx", "_ZTIv" ]
  },
  {
   "function_name" : "android::audio_utils::metadata::Datum::Datum",
   "linker_set_key" : "_ZN7android11audio_utils8metadata5DatumC2EPKc",
   "parameters" :
   [
    {
     "is_this_ptr" : true,
     "referenced_type" : "_ZTIPN7android11audio_utils8metadata5DatumE"
    },
    {
     "referenced_type" : "_ZTIPKc"
    }
   ],
   "return_type" : "_ZTIv",
   "source_file" : "system/media/audio_utils/include/audio_utils/Metadata.h"
  },
  {
   "function_name" : "android::audio_utils::metadata::Datum::Datum",
   "linker_set_key" : "_ZN7android11audio_utils8metadata5DatumC2Ev",
   "parameters" :
   [
    {
     "is_this_ptr" : true,
     "referenced_type" : "_ZTIPN7android11audio_utils8metadata5DatumE"
    }
   ],
   "return_type" : "_ZTIv",
   "source_file" : "system/media/audio_utils/include/audio_utils/Metadata.h"
  },
  {
   "function_name" : "android::audio_utils::metadata::Datum::Datum",
   "linker_set_key" : "_ZN7android11audio_utils8metadata5DatumC2INS1_4DataEvEEOT_",
   "parameters" :
   [
    {
     "is_this_ptr" : true,
     "referenced_type" : "_ZTIPN7android11audio_utils8metadata5DatumE"
    },
    {
     "referenced_type" : "_ZTION7android11audio_utils8metadata4DataE"
    }
   ],
   "return_type" : "_ZTIv",
   "source_file" : "system/media/audio_utils/include/audio_utils/Metadata.h",
   "template_args" : [ "_ZTIN7android11audio_utils8metadata4DataE", "_ZTIv" ]
  },
  {
   "function_name" : "android::audio_utils::metadata::Datum::Datum",
   "linker_set_key" : "_ZN7android11audio_utils8metadata5DatumC2INSt3__112basic_stringIcNS4_11char_traitsIcEENS4_9allocatorIcEEEEvEEOT_",
   "parameters" :
   [
    {
     "is_this_ptr" : true,
     "referenced_type" : "_ZTIPN7android11audio_utils8metadata5DatumE"
    },
    {
     "referenced_type" : "_ZTIONSt3__112basic_stringIcNS_11char_traitsIcEENS_9allocatorIcEEEE"
    }
   ],
   "return_type" : "_ZTIv",
   "source_file" : "system/media/audio_utils/include/audio_utils/Metadata.h",
   "template_args" :
   [
    "_ZTINSt3__112basic_stringIcNS_11char_traitsIcEENS_9allocatorIcEEEE",
    "_ZTIv"
   ]
  },
  {
   "function_name" : "android::audio_utils::metadata::Datum::Datum",
   "linker_set_key" : "_ZN7android11audio_utils8metadata5DatumC2IRNS1_4DataEvEEOT_",
   "parameters" :
   [
    {
     "is_this_ptr" : true,
     "referenced_type" : "_ZTIPN7android11audio_utils8metadata5DatumE"
    },
    {
     "referenced_type" : "_ZTIRN7android11audio_utils8metadata4DataE"
    }
   ],
   "return_type" : "_ZTIv",
   "source_file" : "system/media/audio_utils/include/audio_utils/Metadata.h",
   "template_args" : [ "_ZTIRN7android11audio_utils8metadata4DataE", "_ZTIv" ]
  },
  {
   "function_name" : "android::audio_utils::metadata::Datum::Datum",
   "linker_set_key" : "_ZN7android11audio_utils8metadata5DatumC2IRdvEEOT_",
   "parameters" :
   [
    {
     "is_this_ptr" : true,
     "referenced_type" : "_ZTIPN7android11audio_utils8metadata5DatumE"
    },
    {
     "referenced_type" : "_ZTIRd"
    }
   ],
   "return_type" : "_ZTIv",
   "source_file" : "system/media/audio_utils/include/audio_utils/Metadata.h",
   "template_args" : [ "_ZTIRd", "_ZTIv" ]
  },
  {
   "function_name" : "android::audio_utils::metadata::Datum::Datum",
   "linker_set_key" : "_ZN7android11audio_utils8metadata5DatumC2IRfvEEOT_",
   "parameters" :
   [
    {
     "is_this_ptr" : true,
     "referenced_type" : "_ZTIPN7android11audio_utils8metadata5DatumE"
    },
    {
     "referenced_type" : "_ZTIRf"
    }
   ],
   "return_type" : "_ZTIv",
   "source_file" : "system/media/audio_utils/include/audio_utils/Metadata.h",
   "template_args" : [ "_ZTIRf", "_ZTIv" ]
  },
  {
   "function_name" : "android::audio_utils::metadata::Datum::Datum",
   "linker_set_key" : "_ZN7android11audio_utils8metadata5DatumC2IRivEEOT_",
   "parameters" :
   [
    {
     "is_this_ptr" : true,
     "referenced_type" : "_ZTIPN7android11audio_utils8metadata5DatumE"
    },
    {
     "referenced_type" : "_ZTIRi"
    }
   ],
   "return_type" : "_ZTIv",
   "source_file" : "system/media/audio_utils/include/audio_utils/Metadata.h",
   "template_args" : [ "_ZTIRi", "_ZTIv" ]
  },
  {
   "function_name" : "android::audio_utils::metadata::Datum::Datum",
   "linker_set_key" : "_ZN7android11audio_utils8metadata5DatumC2IRxvEEOT_",
   "parameters" :
   [
    {
     "is_this_ptr" : true,
     "referenced_type" : "_ZTIPN7android11audio_utils8metadata5DatumE"
    },
    {
     "referenced_type" : "_ZTIRx"
    }
   ],
   "return_type" : "_ZTIv",
   "source_file" : "system/media/audio_utils/include/audio_utils/Metadata.h",
   "template_args" : [ "_ZTIRx", "_ZTIv" ]
  },
  {
   "function_name" : "android::audio_utils::metadata::Datum::Datum",
   "linker_set_key" : "_ZN7android11audio_utils8metadata5DatumC2IdvEEOT_",
   "parameters" :
   [
    {
     "is_this_ptr" : true,
     "referenced_type" : "_ZTIPN7android11audio_utils8metadata5DatumE"
    },
    {
     "referenced_type" : "_ZTIOd"
    }
   ],
   "return_type" : "_ZTIv",
   "source_file" : "system/media/audio_utils/include/audio_utils/Metadata.h",
   "template_args" : [ "_ZTId", "_ZTIv" ]
  },
  {
   "function_name" : "android::audio_utils::metadata::Datum::Datum",
   "linker_set_key" : "_ZN7android11audio_utils8metadata5DatumC2IfvEEOT_",
   "parameters" :
   [
    {
     "is_this_ptr" : true,
     "referenced_type" : "_ZTIPN7android11audio_utils8metadata5DatumE"
    },
    {
     "referenced_type" : "_ZTIOf"
    }
   ],
   "return_type" : "_ZTIv",
   "source_file" : "system/media/audio_utils/include/audio_utils/Metadata.h",
   "template_args" : [ "_ZTIf", "_ZTIv" ]
  },
  {
   "function_name" : "android::audio_utils::metadata::Datum::Datum",
   "linker_set_key" : "_ZN7android11audio_utils8metadata5DatumC2IivEEOT_",
   "parameters" :
   [
    {
     "is_this_ptr" : true,
     "referenced_type" : "_ZTIPN7android11audio_utils8metadata5DatumE"
    },
    {
     "referenced_type" : "_ZTIOi"
    }
   ],
   "return_type" : "_ZTIv",
   "source_file" : "system/media/audio_utils/include/audio_utils/Metadata.h",
   "template_args" : [ "_ZTIi", "_ZTIv" ]
  },
  {
   "function_name" : "android::audio_utils::metadata::Datum::Datum",
   "linker_set_key" : "_ZN7android11audio_utils8metadata5DatumC2IxvEEOT_",
   "parameters" :
   [
    {
     "is_this_ptr" : true,
     "referenced_type" : "_ZTIPN7android11audio_utils8metadata5DatumE"
    },
    {
     "referenced_type" : "_ZTIOx"
    }
   ],
   "return_type" : "_ZTIv",
   "source_file" : "system/media/audio_utils/include/audio_utils/Metadata.h",
   "template_args" : [ "_ZTIx", "_ZTIv" ]
  },
  {
   "function_name" : "android::audio_utils::metadata::Datum::operator=",
   "linker_set_key" : "_ZN7android11audio_utils8metadata5DatumaSINS1_4DataEvEERS2_OT_",
   "parameters" :
   [
    {
     "is_this_ptr" : true,
     "referenced_type" : "_ZTIPN7android11audio_utils8metadata5DatumE"
    },
    {
     "referenced_type" : "_ZTION7android11audio_utils8metadata4DataE"
    }
   ],
   "return_type" : "_ZTIRN7android11audio_utils8metadata5DatumE",
   "source_file" : "system/media/audio_utils/include/audio_utils/Metadata.h",
   "template_args" : [ "_ZTIN7android11audio_utils8metadata4DataE", "_ZTIv" ]
  },
  {
   "function_name" : "android::audio_utils::metadata::Datum::operator=",
   "linker_set_key" : "_ZN7android11audio_utils8metadata5DatumaSINSt3__112basic_stringIcNS4_11char_traitsIcEENS4_9allocatorIcEEEEvEERS2_OT_",
   "parameters" :
   [
    {
     "is_this_ptr" : true,
     "referenced_type" : "_ZTIPN7android11audio_utils8metadata5DatumE"
    },
    {
     "referenced_type" : "_ZTIONSt3__112basic_stringIcNS_11char_traitsIcEENS_9allocatorIcEEEE"
    }
   ],
   "return_type" : "_ZTIRN7android11audio_utils8metadata5DatumE",
   "source_file" : "system/media/audio_utils/include/audio_utils/Metadata.h",
   "template_args" :
   [
    "_ZTINSt3__112basic_stringIcNS_11char_traitsIcEENS_9allocatorIcEEEE",
    "_ZTIv"
   ]
  },
  {
   "function_name" : "android::audio_utils::metadata::Datum::operator=",
   "linker_set_key" : "_ZN7android11audio_utils8metadata5DatumaSIdvEERS2_OT_",
   "parameters" :
   [
    {
     "is_this_ptr" : true,
     "referenced_type" : "_ZTIPN7android11audio_utils8metadata5DatumE"
    },
    {
     "referenced_type" : "_ZTIOd"
    }
   ],
   "return_type" : "_ZTIRN7android11audio_utils8metadata5DatumE",
   "source_file" : "system/media/audio_utils/include/audio_utils/Metadata.h",
   "template_args" : [ "_ZTId", "_ZTIv" ]
  },
  {
   "function_name" : "android::audio_utils::metadata::Datum::operator=",
   "linker_set_key" : "_ZN7android11audio_utils8metadata5DatumaSIfvEERS2_OT_",
   "parameters" :
   [
    {
     "is_this_ptr" : true,
     "referenced_type" : "_ZTIPN7android11audio_utils8metadata5DatumE"
    },
    {
     "referenced_type" : "_ZTIOf"
    }
   ],
   "return_type" : "_ZTIRN7android11audio_utils8metadata5DatumE",
   "source_file" : "system/media/audio_utils/include/audio_utils/Metadata.h",
   "template_args" : [ "_ZTIf", "_ZTIv" ]
  },
  {
   "function_name" : "android::audio_utils::metadata::Datum::operator=",
   "linker_set_key" : "_ZN7android11audio_utils8metadata5DatumaSIivEERS2_OT_",
   "parameters" :
   [
    {
     "is_this_ptr" : true,
     "referenced_type" : "_ZTIPN7android11audio_utils8metadata5DatumE"
    },
    {
     "referenced_type" : "_ZTIOi"
    }
   ],
   "return_type" : "_ZTIRN7android11audio_utils8metadata5DatumE",
   "source_file" : "system/media/audio_utils/include/audio_utils/Metadata.h",
   "template_args" : [ "_ZTIi", "_ZTIv" ]
  },
  {
   "function_name" : "android::audio_utils::metadata::Datum::operator=",
   "linker_set_key" : "_ZN7android11audio_utils8metadata5DatumaSIxvEERS2_OT_",
   "parameters" :
   [
    {
     "is_this_ptr" : true,
     "referenced_type" : "_ZTIPN7android11audio_utils8metadata5DatumE"
    },
    {
     "referenced_type" : "_ZTIOx"
    }
   ],
   "return_type" : "_ZTIRN7android11audio_utils8metadata5DatumE",
   "source_file" : "system/media/audio_utils/include/audio_utils/Metadata.h",
   "template_args" : [ "_ZTIx", "_ZTIv" ]
  },
  {
   "function_name" : "android::audio_utils::metadata::Key<android::audio_utils::metadata::Data, void>::getName",
   "linker_set_key" : "_ZNK7android11audio_utils8metadata3KeyINS1_4DataEvE7getNameEv",
   "parameters" :
   [
    {
     "is_this_ptr" : true,
     "referenced_type" : "_ZTIPKN7android11audio_utils8metadata3KeyINS1_4DataEvEE"
    }
   ],
   "return_type" : "_ZTIPKc",
   "source_file" : "system/media/audio_utils/include/audio_utils/Metadata.h"
  },
  {
   "function_name" : "android::audio_utils::metadata::Key<std::__1::basic_string<char>, void>::getName",
   "linker_set_key" : "_ZNK7android11audio_utils8metadata3KeyINSt3__112basic_stringIcNS3_11char_traitsIcEENS3_9allocatorIcEEEEvE7getNameEv",
   "parameters" :
   [
    {
     "is_this_ptr" : true,
     "referenced_type" : "_ZTIPKN7android11audio_utils8metadata3KeyINSt3__112basic_stringIcNS3_11char_traitsIcEENS3_9allocatorIcEEEEvEE"
    }
   ],
   "return_type" : "_ZTIPKc",
   "source_file" : "system/media/audio_utils/include/audio_utils/Metadata.h"
  },
  {
   "function_name" : "android::audio_utils::metadata::Key<double, void>::getName",
   "linker_set_key" : "_ZNK7android11audio_utils8metadata3KeyIdvE7getNameEv",
   "parameters" :
   [
    {
     "is_this_ptr" : true,
     "referenced_type" : "_ZTIPKN7android11audio_utils8metadata3KeyIdvEE"
    }
   ],
   "return_type" : "_ZTIPKc",
   "source_file" : "system/media/audio_utils/include/audio_utils/Metadata.h"
  },
  {
   "function_name" : "android::audio_utils::metadata::Key<float, void>::getName",
   "linker_set_key" : "_ZNK7android11audio_utils8metadata3KeyIfvE7getNameEv",
   "parameters" :
   [
    {
     "is_this_ptr" : true,
     "referenced_type" : "_ZTIPKN7android11audio_utils8metadata3KeyIfvEE"
    }
   ],
   "return_type" : "_ZTIPKc",
   "source_file" : "system/media/audio_utils/include/audio_utils/Metadata.h"
  },
  {
   "function_name" : "android::audio_utils::metadata::Key<int, void>::getName",
   "linker_set_key" : "_ZNK7android11audio_utils8metadata3KeyIivE7getNameEv",
   "parameters" :
   [
    {
     "is_this_ptr" : true,
     "referenced_type" : "_ZTIPKN7android11audio_utils8metadata3KeyIivEE"
    }
   ],
   "return_type" : "_ZTIPKc",
   "source_file" : "system/media/audio_utils/include/audio_utils/Metadata.h"
  },
  {
   "function_name" : "android::audio_utils::metadata::Key<long long, void>::getName",
   "linker_set_key" : "_ZNK7android11audio_utils8metadata3KeyIxvE7getNameEv",
   "parameters" :
   [
    {
     "is_this_ptr" : true,
     "referenced_type" : "_ZTIPKN7android11audio_utils8metadata3KeyIxvEE"
    }
   ],
   "return_type" : "_ZTIPKc",
   "source_file" : "system/media/audio_utils/include/audio_utils/Metadata.h"
  },
  {
   "function_name" : "audio_metadata_byte_string_len",
   "linker_set_key" : "audio_metadata_byte_string_len",
   "parameters" :
   [
    {
     "referenced_type" : "_ZTIPKh"
    }
   ],
   "return_type" : "_ZTIj",
   "source_file" : "system/media/audio_utils/include/audio_utils/Metadata.h"
  },
  {
   "function_name" : "audio_metadata_create",
   "linker_set_key" : "audio_metadata_create",
   "return_type" : "_ZTIP16audio_metadata_t",
   "source_file" : "system/media/audio_utils/include/audio_utils/Metadata.h"
  },
  {
   "function_name" : "audio_metadata_destroy",
   "linker_set_key" : "audio_metadata_destroy",
   "parameters" :
   [
    {
     "referenced_type" : "_ZTIP16audio_metadata_t"
    }
   ],
   "return_type" : "_ZTIv",
   "source_file" : "system/media/audio_utils/include/audio_utils/Metadata.h"
  },
  {
   "function_name" : "audio_metadata_erase",
   "linker_set_key" : "audio_metadata_erase",
   "parameters" :
   [
    {
     "referenced_type" : "_ZTIP16audio_metadata_t"
    },
    {
     "referenced_type" : "_ZTIPKc"
    }
   ],
   "return_type" : "_ZTIi",
   "source_file" : "system/media/audio_utils/include/audio_utils/Metadata.h"
  },
  {
   "function_name" : "audio_metadata_from_byte_string",
   "linker_set_key" : "audio_metadata_from_byte_string",
   "parameters" :
   [
    {
     "referenced_type" : "_ZTIPKh"
    },
    {
     "referenced_type" : "_ZTIj"
    }
   ],
   "return_type" : "_ZTIP16audio_metadata_t",
   "source_file" : "system/media/audio_utils/include/audio_utils/Metadata.h"
  },
  {
   "function_name" : "audio_metadata_get_data",
   "linker_set_key" : "audio_metadata_get_data",
   "parameters" :
   [
    {
     "referenced_type" : "_ZTIP16audio_metadata_t"
    },
    {
     "referenced_type" : "_ZTIPKc"
    },
    {
     "referenced_type" : "_ZTIPP16audio_metadata_t"
    }
   ],
   "return_type" : "_ZTIi",
   "source_file" : "system/media/audio_utils/include/audio_utils/Metadata.h"
  },
  {
   "function_name" : "audio_metadata_get_double",
   "linker_set_key" : "audio_metadata_get_double",
   "parameters" :
   [
    {
     "referenced_type" : "_ZTIP16audio_metadata_t"
    },
    {
     "referenced_type" : "_ZTIPKc"
    },
    {
     "referenced_type" : "_ZTIPd"
    }
   ],
   "return_type" : "_ZTIi",
   "source_file" : "system/media/audio_utils/include/audio_utils/Metadata.h"
  },
  {
   "function_name" : "audio_metadata_get_float",
   "linker_set_key" : "audio_metadata_get_float",
   "parameters" :
   [
    {
     "referenced_type" : "_ZTIP16audio_metadata_t"
    },
    {
     "referenced_type" : "_ZTIPKc"
    },
    {
     "referenced_type" : "_ZTIPf"
    }
   ],
   "return_type" : "_ZTIi",
   "source_file" : "system/media/audio_utils/include/audio_utils/Metadata.h"
  },
  {
   "function_name" : "audio_metadata_get_int32",
   "linker_set_key" : "audio_metadata_get_int32",
   "parameters" :
   [
    {
     "referenced_type" : "_ZTIP16audio_metadata_t"
    },
    {
     "referenced_type" : "_ZTIPKc"
    },
    {
     "referenced_type" : "_ZTIPi"
    }
   ],
   "return_type" : "_ZTIi",
   "source_file" : "system/media/audio_utils/include/audio_utils/Metadata.h"
  },
  {
   "function_name" : "audio_metadata_get_int64",
   "linker_set_key" : "audio_metadata_get_int64",
   "parameters" :
   [
    {
     "referenced_type" : "_ZTIP16audio_metadata_t"
    },
    {
     "referenced_type" : "_ZTIPKc"
    },
    {
     "referenced_type" : "_ZTIPx"
    }
   ],
   "return_type" : "_ZTIi",
   "source_file" : "system/media/audio_utils/include/audio_utils/Metadata.h"
  },
  {
   "function_name" : "audio_metadata_get_string",
   "linker_set_key" : "audio_metadata_get_string",
   "parameters" :
   [
    {
     "referenced_type" : "_ZTIP16audio_metadata_t"
    },
    {
     "referenced_type" : "_ZTIPKc"
    },
    {
     "referenced_type" : "_ZTIPPc"
    }
   ],
   "return_type" : "_ZTIi",
   "source_file" : "system/media/audio_utils/include/audio_utils/Metadata.h"
  },
  {
   "function_name" : "audio_metadata_put_data",
   "linker_set_key" : "audio_metadata_put_data",
   "parameters" :
   [
    {
     "referenced_type" : "_ZTIP16audio_metadata_t"
    },
    {
     "referenced_type" : "_ZTIPKc"
    },
    {
     "referenced_type" : "_ZTIP16audio_metadata_t"
    }
   ],
   "return_type" : "_ZTIi",
   "source_file" : "system/media/audio_utils/include/audio_utils/Metadata.h"
  },
  {
   "function_name" : "audio_metadata_put_double",
   "linker_set_key" : "audio_metadata_put_double",
   "parameters" :
   [
    {
     "referenced_type" : "_ZTIP16audio_metadata_t"
    },
    {
     "referenced_type" : "_ZTIPKc"
    },
    {
     "referenced_type" : "_ZTId"
    }
   ],
   "return_type" : "_ZTIi",
   "source_file" : "system/media/audio_utils/include/audio_utils/Metadata.h"
  },
  {
   "function_name" : "audio_metadata_put_float",
   "linker_set_key" : "audio_metadata_put_float",
   "parameters" :
   [
    {
     "referenced_type" : "_ZTIP16audio_metadata_t"
    },
    {
     "referenced_type" : "_ZTIPKc"
    },
    {
     "referenced_type" : "_ZTIf"
    }
   ],
   "return_type" : "_ZTIi",
   "source_file" : "system/media/audio_utils/include/audio_utils/Metadata.h"
  },
  {
   "function_name" : "audio_metadata_put_int32",
   "linker_set_key" : "audio_metadata_put_int32",
   "parameters" :
   [
    {
     "referenced_type" : "_ZTIP16audio_metadata_t"
    },
    {
     "referenced_type" : "_ZTIPKc"
    },
    {
     "referenced_type" : "_ZTIi"
    }
   ],
   "return_type" : "_ZTIi",
   "source_file" : "system/media/audio_utils/include/audio_utils/Metadata.h"
  },
  {
   "function_name" : "audio_metadata_put_int64",
   "linker_set_key" : "audio_metadata_put_int64",
   "parameters" :
   [
    {
     "referenced_type" : "_ZTIP16audio_metadata_t"
    },
    {
     "referenced_type" : "_ZTIPKc"
    },
    {
     "referenced_type" : "_ZTIx"
    }
   ],
   "return_type" : "_ZTIi",
   "source_file" : "system/media/audio_utils/include/audio_utils/Metadata.h"
  },
  {
   "function_name" : "audio_metadata_put_string",
   "linker_set_key" : "audio_metadata_put_string",
   "parameters" :
   [
    {
     "referenced_type" : "_ZTIP16audio_metadata_t"
    },
    {
     "referenced_type" : "_ZTIPKc"
    },
    {
     "referenced_type" : "_ZTIPKc"
    }
   ],
   "return_type" : "_ZTIi",
   "source_file" : "system/media/audio_utils/include/audio_utils/Metadata.h"
  },
  {
   "function_name" : "byte_string_from_audio_metadata",
   "linker_set_key" : "byte_string_from_audio_metadata",
   "parameters" :
   [
    {
     "referenced_type" : "_ZTIP16audio_metadata_t"
    },
    {
     "referenced_type" : "_ZTIPPh"
    }
   ],
   "return_type" : "_ZTIi",
   "source_file" : "system/media/audio_utils/include/audio_utils/Metadata.h"
  }
 ],
 "global_vars" :
 [
  {
   "linker_set_key" : "_ZN7android11audio_utils8metadata13compound_type10contains_vE",
   "name" : "android::audio_utils::metadata::compound_type::contains_v",
   "referenced_type" : "_ZTIKb",
   "source_file" : "system/media/audio_utils/include/audio_utils/Metadata.h"
  },
  {
   "linker_set_key" : "_ZN7android11audio_utils8metadata13compound_type6size_vE",
   "name" : "android::audio_utils::metadata::compound_type::size_v",
   "referenced_type" : "_ZTIKj",
   "source_file" : "system/media/audio_utils/include/audio_utils/Metadata.h"
  },
  {
   "linker_set_key" : "_ZN7android11audio_utils8metadata13compound_typeIJEE10contains_vE",
   "name" : "android::audio_utils::metadata::compound_type<>::contains_v",
   "referenced_type" : "_ZTIKb",
   "source_file" : "system/media/audio_utils/include/audio_utils/Metadata.h"
  },
  {
   "linker_set_key" : "_ZN7android11audio_utils8metadata13compound_typeIJEE10contains_vINS1_4DataEEE",
   "name" : "android::audio_utils::metadata::compound_type<>::contains_v",
   "referenced_type" : "_ZTIKb",
   "source_file" : "system/media/audio_utils/include/audio_utils/Metadata.h"
  },
  {
   "linker_set_key" : "_ZN7android11audio_utils8metadata13compound_typeIJEE10contains_vINS1_5DatumEEE",
   "name" : "android::audio_utils::metadata::compound_type<>::contains_v",
   "referenced_type" : "_ZTIKb",
   "source_file" : "system/media/audio_utils/include/audio_utils/Metadata.h"
  },
  {
   "linker_set_key" : "_ZN7android11audio_utils8metadata13compound_typeIJEE10contains_vINSt3__112basic_stringIcNS5_11char_traitsIcEENS5_9allocatorIcEEEEEE",
   "name" : "android::audio_utils::metadata::compound_type<>::contains_v",
   "referenced_type" : "_ZTIKb",
   "source_file" : "system/media/audio_utils/include/audio_utils/Metadata.h"
  },
  {
   "linker_set_key" : "_ZN7android11audio_utils8metadata13compound_typeIJEE10contains_vINSt3__14pairIKNS5_12basic_stringIcNS5_11char_traitsIcEENS5_9allocatorIcEEEENS1_5DatumEEEEE",
   "name" : "android::audio_utils::metadata::compound_type<>::contains_v",
   "referenced_type" : "_ZTIKb",
   "source_file" : "system/media/audio_utils/include/audio_utils/Metadata.h"
  },
  {
   "linker_set_key" : "_ZN7android11audio_utils8metadata13compound_typeIJEE10contains_vIdEE",
   "name" : "android::audio_utils::metadata::compound_type<>::contains_v",
   "referenced_type" : "_ZTIKb",
   "source_file" : "system/media/audio_utils/include/audio_utils/Metadata.h"
  },
  {
   "linker_set_key" : "_ZN7android11audio_utils8metadata13compound_typeIJEE10contains_vIfEE",
   "name" : "android::audio_utils::metadata::compound_type<>::contains_v",
   "referenced_type" : "_ZTIKb",
   "source_file" : "system/media/audio_utils/include/audio_utils/Metadata.h"
  },
  {
   "linker_set_key" : "_ZN7android11audio_utils8metadata13compound_typeIJEE10contains_vIiEE",
   "name" : "android::audio_utils::metadata::compound_type<>::contains_v",
   "referenced_type" : "_ZTIKb",
   "source_file" : "system/media/audio_utils/include/audio_utils/Metadata.h"
  },
  {
   "linker_set_key" : "_ZN7android11audio_utils8metadata13compound_typeIJEE10contains_vIjEE",
   "name" : "android::audio_utils::metadata::compound_type<>::contains_v",
   "referenced_type" : "_ZTIKb",
   "source_file" : "system/media/audio_utils/include/audio_utils/Metadata.h"
  },
  {
   "linker_set_key" : "_ZN7android11audio_utils8metadata13compound_typeIJEE10contains_vIxEE",
   "name" : "android::audio_utils::metadata::compound_type<>::contains_v",
   "referenced_type" : "_ZTIKb",
   "source_file" : "system/media/audio_utils/include/audio_utils/Metadata.h"
  },
  {
   "linker_set_key" : "_ZN7android11audio_utils8metadata13compound_typeIJEE6size_vE",
   "name" : "android::audio_utils::metadata::compound_type<>::size_v",
   "referenced_type" : "_ZTIKj",
   "source_file" : "system/media/audio_utils/include/audio_utils/Metadata.h"
  },
  {
   "linker_set_key" : "_ZN7android11audio_utils8metadata13compound_typeIJixfdEE10contains_vE",
   "name" : "android::audio_utils::metadata::compound_type<int, long long, float, double>::contains_v",
   "referenced_type" : "_ZTIKb",
   "source_file" : "system/media/audio_utils/include/audio_utils/Metadata.h"
  },
  {
   "linker_set_key" : "_ZN7android11audio_utils8metadata13compound_typeIJixfdEE10contains_vINS1_4DataEEE",
   "name" : "android::audio_utils::metadata::compound_type<int, long long, float, double>::contains_v",
   "referenced_type" : "_ZTIKb",
   "source_file" : "system/media/audio_utils/include/audio_utils/Metadata.h"
  },
  {
   "linker_set_key" : "_ZN7android11audio_utils8metadata13compound_typeIJixfdEE10contains_vINS1_5DatumEEE",
   "name" : "android::audio_utils::metadata::compound_type<int, long long, float, double>::contains_v",
   "referenced_type" : "_ZTIKb",
   "source_file" : "system/media/audio_utils/include/audio_utils/Metadata.h"
  },
  {
   "linker_set_key" : "_ZN7android11audio_utils8metadata13compound_typeIJixfdEE10contains_vINSt3__112basic_stringIcNS5_11char_traitsIcEENS5_9allocatorIcEEEEEE",
   "name" : "android::audio_utils::metadata::compound_type<int, long long, float, double>::contains_v",
   "referenced_type" : "_ZTIKb",
   "source_file" : "system/media/audio_utils/include/audio_utils/Metadata.h"
  },
  {
   "linker_set_key" : "_ZN7android11audio_utils8metadata13compound_typeIJixfdEE10contains_vINSt3__14pairIKNS5_12basic_stringIcNS5_11char_traitsIcEENS5_9allocatorIcEEEENS1_5DatumEEEEE",
   "name" : "android::audio_utils::metadata::compound_type<int, long long, float, double>::contains_v",
   "referenced_type" : "_ZTIKb",
   "source_file" : "system/media/audio_utils/include/audio_utils/Metadata.h"
  },
  {
   "linker_set_key" : "_ZN7android11audio_utils8metadata13compound_typeIJixfdEE10contains_vIdEE",
   "name" : "android::audio_utils::metadata::compound_type<int, long long, float, double>::contains_v",
   "referenced_type" : "_ZTIKb",
   "source_file" : "system/media/audio_utils/include/audio_utils/Metadata.h"
  },
  {
   "linker_set_key" : "_ZN7android11audio_utils8metadata13compound_typeIJixfdEE10contains_vIfEE",
   "name" : "android::audio_utils::metadata::compound_type<int, long long, float, double>::contains_v",
   "referenced_type" : "_ZTIKb",
   "source_file" : "system/media/audio_utils/include/audio_utils/Metadata.h"
  },
  {
   "linker_set_key" : "_ZN7android11audio_utils8metadata13compound_typeIJixfdEE10contains_vIiEE",
   "name" : "android::audio_utils::metadata::compound_type<int, long long, float, double>::contains_v",
   "referenced_type" : "_ZTIKb",
   "source_file" : "system/media/audio_utils/include/audio_utils/Metadata.h"
  },
  {
   "linker_set_key" : "_ZN7android11audio_utils8metadata13compound_typeIJixfdEE10contains_vIjEE",
   "name" : "android::audio_utils::metadata::compound_type<int, long long, float, double>::contains_v",
   "referenced_type" : "_ZTIKb",
   "source_file" : "system/media/audio_utils/include/audio_utils/Metadata.h"
  },
  {
   "linker_set_key" : "_ZN7android11audio_utils8metadata13compound_typeIJixfdEE10contains_vIxEE",
   "name" : "android::audio_utils::metadata::compound_type<int, long long, float, double>::contains_v",
   "referenced_type" : "_ZTIKb",
   "source_file" : "system/media/audio_utils/include/audio_utils/Metadata.h"
  },
  {
   "linker_set_key" : "_ZN7android11audio_utils8metadata13compound_typeIJixfdEE6size_vE",
   "name" : "android::audio_utils::metadata::compound_type<int, long long, float, double>::size_v",
   "referenced_type" : "_ZTIKj",
   "source_file" : "system/media/audio_utils/include/audio_utils/Metadata.h"
  },
  {
   "linker_set_key" : "_ZN7android11audio_utils8metadata13compound_typeIJixfdNSt3__112basic_stringIcNS3_11char_traitsIcEENS3_9allocatorIcEEEENS1_4DataEEE10contains_vE",
   "name" : "android::audio_utils::metadata::compound_type<int, long long, float, double, std::__1::basic_string<char>, android::audio_utils::metadata::Data>::contains_v",
   "referenced_type" : "_ZTIKb",
   "source_file" : "system/media/audio_utils/include/audio_utils/Metadata.h"
  },
  {
   "linker_set_key" : "_ZN7android11audio_utils8metadata13compound_typeIJixfdNSt3__112basic_stringIcNS3_11char_traitsIcEENS3_9allocatorIcEEEENS1_4DataEEE10contains_vINS1_5DatumEEE",
   "name" : "android::audio_utils::metadata::compound_type<int, long long, float, double, std::__1::basic_string<char>, android::audio_utils::metadata::Data>::contains_v",
   "referenced_type" : "_ZTIKb",
   "source_file" : "system/media/audio_utils/include/audio_utils/Metadata.h"
  },
  {
   "linker_set_key" : "_ZN7android11audio_utils8metadata13compound_typeIJixfdNSt3__112basic_stringIcNS3_11char_traitsIcEENS3_9allocatorIcEEEENS1_4DataEEE10contains_vIRKNS1_5DatumEEE",
   "name" : "android::audio_utils::metadata::compound_type<int, long long, float, double, std::__1::basic_string<char>, android::audio_utils::metadata::Data>::contains_v",
   "referenced_type" : "_ZTIKb",
   "source_file" : "system/media/audio_utils/include/audio_utils/Metadata.h"
  },
  {
   "linker_set_key" : "_ZN7android11audio_utils8metadata13compound_typeIJixfdNSt3__112basic_stringIcNS3_11char_traitsIcEENS3_9allocatorIcEEEENS1_4DataEEE10contains_vIRKNS3_4pairIKS9_NS1_5DatumEEEEE",
   "name" : "android::audio_utils::metadata::compound_type<int, long long, float, double, std::__1::basic_string<char>, android::audio_utils::metadata::Data>::contains_v",
   "referenced_type" : "_ZTIKb",
   "source_file" : "system/media/audio_utils/include/audio_utils/Metadata.h"
  },
  {
   "linker_set_key" : "_ZN7android11audio_utils8metadata13compound_typeIJixfdNSt3__112basic_stringIcNS3_11char_traitsIcEENS3_9allocatorIcEEEENS1_4DataEEE10contains_vIRKS9_EE",
   "name" : "android::audio_utils::metadata::compound_type<int, long long, float, double, std::__1::basic_string<char>, android::audio_utils::metadata::Data>::contains_v",
   "referenced_type" : "_ZTIKb",
   "source_file" : "system/media/audio_utils/include/audio_utils/Metadata.h"
  },
  {
   "linker_set_key" : "_ZN7android11audio_utils8metadata13compound_typeIJixfdNSt3__112basic_stringIcNS3_11char_traitsIcEENS3_9allocatorIcEEEENS1_4DataEEE10contains_vIRKSA_EE",
   "name" : "android::audio_utils::metadata::compound_type<int, long long, float, double, std::__1::basic_string<char>, android::audio_utils::metadata::Data>::contains_v",
   "referenced_type" : "_ZTIKb",
   "source_file" : "system/media/audio_utils/include/audio_utils/Metadata.h"
  },
  {
   "linker_set_key" : "_ZN7android11audio_utils8metadata13compound_typeIJixfdNSt3__112basic_stringIcNS3_11char_traitsIcEENS3_9allocatorIcEEEENS1_4DataEEE10contains_vIRKdEE",
   "name" : "android::audio_utils::metadata::compound_type<int, long long, float, double, std::__1::basic_string<char>, android::audio_utils::metadata::Data>::contains_v",
   "referenced_type" : "_ZTIKb",
   "source_file" : "system/media/audio_utils/include/audio_utils/Metadata.h"
  },
  {
   "linker_set_key" : "_ZN7android11audio_utils8metadata13compound_typeIJixfdNSt3__112basic_stringIcNS3_11char_traitsIcEENS3_9allocatorIcEEEENS1_4DataEEE10contains_vIRKfEE",
   "name" : "android::audio_utils::metadata::compound_type<int, long long, float, double, std::__1::basic_string<char>, android::audio_utils::metadata::Data>::contains_v",
   "referenced_type" : "_ZTIKb",
   "source_file" : "system/media/audio_utils/include/audio_utils/Metadata.h"
  },
  {
   "linker_set_key" : "_ZN7android11audio_utils8metadata13compound_typeIJixfdNSt3__112basic_stringIcNS3_11char_traitsIcEENS3_9allocatorIcEEEENS1_4DataEEE10contains_vIRKiEE",
   "name" : "android::audio_utils::metadata::compound_type<int, long long, float, double, std::__1::basic_string<char>, android::audio_utils::metadata::Data>::contains_v",
   "referenced_type" : "_ZTIKb",
   "source_file" : "system/media/audio_utils/include/audio_utils/Metadata.h"
  },
  {
   "linker_set_key" : "_ZN7android11audio_utils8metadata13compound_typeIJixfdNSt3__112basic_stringIcNS3_11char_traitsIcEENS3_9allocatorIcEEEENS1_4DataEEE10contains_vIRKjEE",
   "name" : "android::audio_utils::metadata::compound_type<int, long long, float, double, std::__1::basic_string<char>, android::audio_utils::metadata::Data>::contains_v",
   "referenced_type" : "_ZTIKb",
   "source_file" : "system/media/audio_utils/include/audio_utils/Metadata.h"
  },
  {
   "linker_set_key" : "_ZN7android11audio_utils8metadata13compound_typeIJixfdNSt3__112basic_stringIcNS3_11char_traitsIcEENS3_9allocatorIcEEEENS1_4DataEEE10contains_vIRKxEE",
   "name" : "android::audio_utils::metadata::compound_type<int, long long, float, double, std::__1::basic_string<char>, android::audio_utils::metadata::Data>::contains_v",
   "referenced_type" : "_ZTIKb",
   "source_file" : "system/media/audio_utils/include/audio_utils/Metadata.h"
  },
  {
   "linker_set_key" : "_ZN7android11audio_utils8metadata13compound_typeIJixfdNSt3__112basic_stringIcNS3_11char_traitsIcEENS3_9allocatorIcEEEENS1_4DataEEE10contains_vIRPKcEE",
   "name" : "android::audio_utils::metadata::compound_type<int, long long, float, double, std::__1::basic_string<char>, android::audio_utils::metadata::Data>::contains_v",
   "referenced_type" : "_ZTIKb",
   "source_file" : "system/media/audio_utils/include/audio_utils/Metadata.h"
  },
  {
   "linker_set_key" : "_ZN7android11audio_utils8metadata13compound_typeIJixfdNSt3__112basic_stringIcNS3_11char_traitsIcEENS3_9allocatorIcEEEENS1_4DataEEE10contains_vIRS9_EE",
   "name" : "android::audio_utils::metadata::compound_type<int, long long, float, double, std::__1::basic_string<char>, android::audio_utils::metadata::Data>::contains_v",
   "referenced_type" : "_ZTIKb",
   "source_file" : "system/media/audio_utils/include/audio_utils/Metadata.h"
  },
  {
   "linker_set_key" : "_ZN7android11audio_utils8metadata13compound_typeIJixfdNSt3__112basic_stringIcNS3_11char_traitsIcEENS3_9allocatorIcEEEENS1_4DataEEE10contains_vIRSA_EE",
   "name" : "android::audio_utils::metadata::compound_type<int, long long, float, double, std::__1::basic_string<char>, android::audio_utils::metadata::Data>::contains_v",
   "referenced_type" : "_ZTIKb",
   "source_file" : "system/media/audio_utils/include/audio_utils/Metadata.h"
  },
  {
   "linker_set_key" : "_ZN7android11audio_utils8metadata13compound_typeIJixfdNSt3__112basic_stringIcNS3_11char_traitsIcEENS3_9allocatorIcEEEENS1_4DataEEE10contains_vIRdEE",
   "name" : "android::audio_utils::metadata::compound_type<int, long long, float, double, std::__1::basic_string<char>, android::audio_utils::metadata::Data>::contains_v",
   "referenced_type" : "_ZTIKb",
   "source_file" : "system/media/audio_utils/include/audio_utils/Metadata.h"
  },
  {
   "linker_set_key" : "_ZN7android11audio_utils8metadata13compound_typeIJixfdNSt3__112basic_stringIcNS3_11char_traitsIcEENS3_9allocatorIcEEEENS1_4DataEEE10contains_vIRfEE",
   "name" : "android::audio_utils::metadata::compound_type<int, long long, float, double, std::__1::basic_string<char>, android::audio_utils::metadata::Data>::contains_v",
   "referenced_type" : "_ZTIKb",
   "source_file" : "system/media/audio_utils/include/audio_utils/Metadata.h"
  },
  {
   "linker_set_key" : "_ZN7android11audio_utils8metadata13compound_typeIJixfdNSt3__112basic_stringIcNS3_11char_traitsIcEENS3_9allocatorIcEEEENS1_4DataEEE10contains_vIRiEE",
   "name" : "android::audio_utils::metadata::compound_type<int, long long, float, double, std::__1::basic_string<char>, android::audio_utils::metadata::Data>::contains_v",
   "referenced_type" : "_ZTIKb",
   "source_file" : "system/media/audio_utils/include/audio_utils/Metadata.h"
  },
  {
   "linker_set_key" : "_ZN7android11audio_utils8metadata13compound_typeIJixfdNSt3__112basic_stringIcNS3_11char_traitsIcEENS3_9allocatorIcEEEENS1_4DataEEE10contains_vIRjEE",
   "name" : "android::audio_utils::metadata::compound_type<int, long long, float, double, std::__1::basic_string<char>, android::audio_utils::metadata::Data>::contains_v",
   "referenced_type" : "_ZTIKb",
   "source_file" : "system/media/audio_utils/include/audio_utils/Metadata.h"
  },
  {
   "linker_set_key" : "_ZN7android11audio_utils8metadata13compound_typeIJixfdNSt3__112basic_stringIcNS3_11char_traitsIcEENS3_9allocatorIcEEEENS1_4DataEEE10contains_vIRxEE",
   "name" : "android::audio_utils::metadata::compound_type<int, long long, float, double, std::__1::basic_string<char>, android::audio_utils::metadata::Data>::contains_v",
   "referenced_type" : "_ZTIKb",
   "source_file" : "system/media/audio_utils/include/audio_utils/Metadata.h"
  },
  {
   "linker_set_key" : "_ZN7android11audio_utils8metadata13compound_typeIJixfdNSt3__112basic_stringIcNS3_11char_traitsIcEENS3_9allocatorIcEEEENS1_4DataEEE10contains_vIS9_EE",
   "name" : "android::audio_utils::metadata::compound_type<int, long long, float, double, std::__1::basic_string<char>, android::audio_utils::metadata::Data>::contains_v",
   "referenced_type" : "_ZTIKb",
   "source_file" : "system/media/audio_utils/include/audio_utils/Metadata.h"
  },
  {
   "linker_set_key" : "_ZN7android11audio_utils8metadata13compound_typeIJixfdNSt3__112basic_stringIcNS3_11char_traitsIcEENS3_9allocatorIcEEEENS1_4DataEEE10contains_vISA_EE",
   "name" : "android::audio_utils::metadata::compound_type<int, long long, float, double, std::__1::basic_string<char>, android::audio_utils::metadata::Data>::contains_v",
   "referenced_type" : "_ZTIKb",
   "source_file" : "system/media/audio_utils/include/audio_utils/Metadata.h"
  },
  {
   "linker_set_key" : "_ZN7android11audio_utils8metadata13compound_typeIJixfdNSt3__112basic_stringIcNS3_11char_traitsIcEENS3_9allocatorIcEEEENS1_4DataEEE10contains_vIdEE",
   "name" : "android::audio_utils::metadata::compound_type<int, long long, float, double, std::__1::basic_string<char>, android::audio_utils::metadata::Data>::contains_v",
   "referenced_type" : "_ZTIKb",
   "source_file" : "system/media/audio_utils/include/audio_utils/Metadata.h"
  },
  {
   "linker_set_key" : "_ZN7android11audio_utils8metadata13compound_typeIJixfdNSt3__112basic_stringIcNS3_11char_traitsIcEENS3_9allocatorIcEEEENS1_4DataEEE10contains_vIfEE",
   "name" : "android::audio_utils::metadata::compound_type<int, long long, float, double, std::__1::basic_string<char>, android::audio_utils::metadata::Data>::contains_v",
   "referenced_type" : "_ZTIKb",
   "source_file" : "system/media/audio_utils/include/audio_utils/Metadata.h"
  },
  {
   "linker_set_key" : "_ZN7android11audio_utils8metadata13compound_typeIJixfdNSt3__112basic_stringIcNS3_11char_traitsIcEENS3_9allocatorIcEEEENS1_4DataEEE10contains_vIiEE",
   "name" : "android::audio_utils::metadata::compound_type<int, long long, float, double, std::__1::basic_string<char>, android::audio_utils::metadata::Data>::contains_v",
   "referenced_type" : "_ZTIKb",
   "source_file" : "system/media/audio_utils/include/audio_utils/Metadata.h"
  },
  {
   "linker_set_key" : "_ZN7android11audio_utils8metadata13compound_typeIJixfdNSt3__112basic_stringIcNS3_11char_traitsIcEENS3_9allocatorIcEEEENS1_4DataEEE10contains_vIxEE",
   "name" : "android::audio_utils::metadata::compound_type<int, long long, float, double, std::__1::basic_string<char>, android::audio_utils::metadata::Data>::contains_v",
   "referenced_type" : "_ZTIKb",
   "source_file" : "system/media/audio_utils/include/audio_utils/Metadata.h"
  },
  {
   "linker_set_key" : "_ZN7android11audio_utils8metadata13compound_typeIJixfdNSt3__112basic_stringIcNS3_11char_traitsIcEENS3_9allocatorIcEEEENS1_4DataEEE6size_vE",
   "name" : "android::audio_utils::metadata::compound_type<int, long long, float, double, std::__1::basic_string<char>, android::audio_utils::metadata::Data>::size_v",
   "referenced_type" : "_ZTIKj",
   "source_file" : "system/media/audio_utils/include/audio_utils/Metadata.h"
  },
  {
   "linker_set_key" : "_ZN7android11audio_utils8metadata13type_as_valueE",
   "name" : "android::audio_utils::metadata::type_as_value",
   "referenced_type" : "_ZTIKj",
   "source_file" : "system/media/audio_utils/include/audio_utils/Metadata.h"
  },
  {
   "linker_set_key" : "_ZN7android11audio_utils8metadata13type_as_valueIRKNS1_4DataEEE",
   "name" : "android::audio_utils::metadata::type_as_value",
   "referenced_type" : "_ZTIKj",
   "source_file" : "system/media/audio_utils/include/audio_utils/Metadata.h"
  },
  {
   "linker_set_key" : "_ZN7android11audio_utils8metadata13type_as_valueIRKNSt3__112basic_stringIcNS3_11char_traitsIcEENS3_9allocatorIcEEEEEE",
   "name" : "android::audio_utils::metadata::type_as_value",
   "referenced_type" : "_ZTIKj",
   "source_file" : "system/media/audio_utils/include/audio_utils/Metadata.h"
  },
  {
   "linker_set_key" : "_ZN7android11audio_utils8metadata13type_as_valueIRKdEE",
   "name" : "android::audio_utils::metadata::type_as_value",
   "referenced_type" : "_ZTIKj",
   "source_file" : "system/media/audio_utils/include/audio_utils/Metadata.h"
  },
  {
   "linker_set_key" : "_ZN7android11audio_utils8metadata13type_as_valueIRKfEE",
   "name" : "android::audio_utils::metadata::type_as_value",
   "referenced_type" : "_ZTIKj",
   "source_file" : "system/media/audio_utils/include/audio_utils/Metadata.h"
  },
  {
   "linker_set_key" : "_ZN7android11audio_utils8metadata13type_as_valueIRKiEE",
   "name" : "android::audio_utils::metadata::type_as_value",
   "referenced_type" : "_ZTIKj",
   "source_file" : "system/media/audio_utils/include/audio_utils/Metadata.h"
  },
  {
   "linker_set_key" : "_ZN7android11audio_utils8metadata13type_as_valueIRKxEE",
   "name" : "android::audio_utils::metadata::type_as_value",
   "referenced_type" : "_ZTIKj",
   "source_file" : "system/media/audio_utils/include/audio_utils/Metadata.h"
  },
  {
   "linker_set_key" : "_ZN7android11audio_utils8metadata13type_as_valueIRNS1_4DataEEE",
   "name" : "android::audio_utils::metadata::type_as_value",
   "referenced_type" : "_ZTIKj",
   "source_file" : "system/media/audio_utils/include/audio_utils/Metadata.h"
  },
  {
   "linker_set_key" : "_ZN7android11audio_utils8metadata13type_as_valueIRNSt3__112basic_stringIcNS3_11char_traitsIcEENS3_9allocatorIcEEEEEE",
   "name" : "android::audio_utils::metadata::type_as_value",
   "referenced_type" : "_ZTIKj",
   "source_file" : "system/media/audio_utils/include/audio_utils/Metadata.h"
  },
  {
   "linker_set_key" : "_ZN7android11audio_utils8metadata13type_as_valueIRdEE",
   "name" : "android::audio_utils::metadata::type_as_value",
   "referenced_type" : "_ZTIKj",
   "source_file" : "system/media/audio_utils/include/audio_utils/Metadata.h"
  },
  {
   "linker_set_key" : "_ZN7android11audio_utils8metadata13type_as_valueIRfEE",
   "name" : "android::audio_utils::metadata::type_as_value",
   "referenced_type" : "_ZTIKj",
   "source_file" : "system/media/audio_utils/include/audio_utils/Metadata.h"
  },
  {
   "linker_set_key" : "_ZN7android11audio_utils8metadata13type_as_valueIRiEE",
   "name" : "android::audio_utils::metadata::type_as_value",
   "referenced_type" : "_ZTIKj",
   "source_file" : "system/media/audio_utils/include/audio_utils/Metadata.h"
  },
  {
   "linker_set_key" : "_ZN7android11audio_utils8metadata13type_as_valueIRxEE",
   "name" : "android::audio_utils::metadata::type_as_value",
   "referenced_type" : "_ZTIKj",
   "source_file" : "system/media/audio_utils/include/audio_utils/Metadata.h"
  },
  {
   "linker_set_key" : "_ZN7android11audio_utils8metadata17dependent_false_vE",
   "name" : "android::audio_utils::metadata::dependent_false_v",
   "referenced_type" : "_ZTIKb",
   "source_file" : "system/media/audio_utils/include/audio_utils/Metadata.h"
  },
  {
   "linker_set_key" : "_ZN7android11audio_utils8metadata18is_metadata_type_vE",
   "name" : "android::audio_utils::metadata::is_metadata_type_v",
   "referenced_type" : "_ZTIKb",
   "source_file" : "system/media/audio_utils/include/audio_utils/Metadata.h"
  },
  {
   "linker_set_key" : "_ZN7android11audio_utils8metadata18is_metadata_type_vINS1_4DataEEE",
   "name" : "android::audio_utils::metadata::is_metadata_type_v",
   "referenced_type" : "_ZTIKb",
   "source_file" : "system/media/audio_utils/include/audio_utils/Metadata.h"
  },
  {
   "linker_set_key" : "_ZN7android11audio_utils8metadata18is_metadata_type_vINS1_5DatumEEE",
   "name" : "android::audio_utils::metadata::is_metadata_type_v",
   "referenced_type" : "_ZTIKb",
   "source_file" : "system/media/audio_utils/include/audio_utils/Metadata.h"
  },
  {
   "linker_set_key" : "_ZN7android11audio_utils8metadata18is_metadata_type_vINSt3__112basic_stringIcNS3_11char_traitsIcEENS3_9allocatorIcEEEEEE",
   "name" : "android::audio_utils::metadata::is_metadata_type_v",
   "referenced_type" : "_ZTIKb",
   "source_file" : "system/media/audio_utils/include/audio_utils/Metadata.h"
  },
  {
   "linker_set_key" : "_ZN7android11audio_utils8metadata18is_metadata_type_vIRKNS1_4DataEEE",
   "name" : "android::audio_utils::metadata::is_metadata_type_v",
   "referenced_type" : "_ZTIKb",
   "source_file" : "system/media/audio_utils/include/audio_utils/Metadata.h"
  },
  {
   "linker_set_key" : "_ZN7android11audio_utils8metadata18is_metadata_type_vIRKNS1_5DatumEEE",
   "name" : "android::audio_utils::metadata::is_metadata_type_v",
   "referenced_type" : "_ZTIKb",
   "source_file" : "system/media/audio_utils/include/audio_utils/Metadata.h"
  },
  {
   "linker_set_key" : "_ZN7android11audio_utils8metadata18is_metadata_type_vIRKNSt3__112basic_stringIcNS3_11char_traitsIcEENS3_9allocatorIcEEEEEE",
   "name" : "android::audio_utils::metadata::is_metadata_type_v",
   "referenced_type" : "_ZTIKb",
   "source_file" : "system/media/audio_utils/include/audio_utils/Metadata.h"
  },
  {
   "linker_set_key" : "_ZN7android11audio_utils8metadata18is_metadata_type_vIRKNSt3__14pairIKNS3_12basic_stringIcNS3_11char_traitsIcEENS3_9allocatorIcEEEENS1_5DatumEEEEE",
   "name" : "android::audio_utils::metadata::is_metadata_type_v",
   "referenced_type" : "_ZTIKb",
   "source_file" : "system/media/audio_utils/include/audio_utils/Metadata.h"
  },
  {
   "linker_set_key" : "_ZN7android11audio_utils8metadata18is_metadata_type_vIRKdEE",
   "name" : "android::audio_utils::metadata::is_metadata_type_v",
   "referenced_type" : "_ZTIKb",
   "source_file" : "system/media/audio_utils/include/audio_utils/Metadata.h"
  },
  {
   "linker_set_key" : "_ZN7android11audio_utils8metadata18is_metadata_type_vIRKfEE",
   "name" : "android::audio_utils::metadata::is_metadata_type_v",
   "referenced_type" : "_ZTIKb",
   "source_file" : "system/media/audio_utils/include/audio_utils/Metadata.h"
  },
  {
   "linker_set_key" : "_ZN7android11audio_utils8metadata18is_metadata_type_vIRKiEE",
   "name" : "android::audio_utils::metadata::is_metadata_type_v",
   "referenced_type" : "_ZTIKb",
   "source_file" : "system/media/audio_utils/include/audio_utils/Metadata.h"
  },
  {
   "linker_set_key" : "_ZN7android11audio_utils8metadata18is_metadata_type_vIRKjEE",
   "name" : "android::audio_utils::metadata::is_metadata_type_v",
   "referenced_type" : "_ZTIKb",
   "source_file" : "system/media/audio_utils/include/audio_utils/Metadata.h"
  },
  {
   "linker_set_key" : "_ZN7android11audio_utils8metadata18is_metadata_type_vIRKxEE",
   "name" : "android::audio_utils::metadata::is_metadata_type_v",
   "referenced_type" : "_ZTIKb",
   "source_file" : "system/media/audio_utils/include/audio_utils/Metadata.h"
  },
  {
   "linker_set_key" : "_ZN7android11audio_utils8metadata18is_metadata_type_vIRNS1_4DataEEE",
   "name" : "android::audio_utils::metadata::is_metadata_type_v",
   "referenced_type" : "_ZTIKb",
   "source_file" : "system/media/audio_utils/include/audio_utils/Metadata.h"
  },
  {
   "linker_set_key" : "_ZN7android11audio_utils8metadata18is_metadata_type_vIRNSt3__112basic_stringIcNS3_11char_traitsIcEENS3_9allocatorIcEEEEEE",
   "name" : "android::audio_utils::metadata::is_metadata_type_v",
   "referenced_type" : "_ZTIKb",
   "source_file" : "system/media/audio_utils/include/audio_utils/Metadata.h"
  },
  {
   "linker_set_key" : "_ZN7android11audio_utils8metadata18is_metadata_type_vIRPKcEE",
   "name" : "android::audio_utils::metadata::is_metadata_type_v",
   "referenced_type" : "_ZTIKb",
   "source_file" : "system/media/audio_utils/include/audio_utils/Metadata.h"
  },
  {
   "linker_set_key" : "_ZN7android11audio_utils8metadata18is_metadata_type_vIRdEE",
   "name" : "android::audio_utils::metadata::is_metadata_type_v",
   "referenced_type" : "_ZTIKb",
   "source_file" : "system/media/audio_utils/include/audio_utils/Metadata.h"
  },
  {
   "linker_set_key" : "_ZN7android11audio_utils8metadata18is_metadata_type_vIRfEE",
   "name" : "android::audio_utils::metadata::is_metadata_type_v",
   "referenced_type" : "_ZTIKb",
   "source_file" : "system/media/audio_utils/include/audio_utils/Metadata.h"
  },
  {
   "linker_set_key" : "_ZN7android11audio_utils8metadata18is_metadata_type_vIRiEE",
   "name" : "android::audio_utils::metadata::is_metadata_type_v",
   "referenced_type" : "_ZTIKb",
   "source_file" : "system/media/audio_utils/include/audio_utils/Metadata.h"
  },
  {
   "linker_set_key" : "_ZN7android11audio_utils8metadata18is_metadata_type_vIRjEE",
   "name" : "android::audio_utils::metadata::is_metadata_type_v",
   "referenced_type" : "_ZTIKb",
   "source_file" : "system/media/audio_utils/include/audio_utils/Metadata.h"
  },
  {
   "linker_set_key" : "_ZN7android11audio_utils8metadata18is_metadata_type_vIRxEE",
   "name" : "android::audio_utils::metadata::is_metadata_type_v",
   "referenced_type" : "_ZTIKb",
   "source_file" : "system/media/audio_utils/include/audio_utils/Metadata.h"
  },
  {
   "linker_set_key" : "_ZN7android11audio_utils8metadata18is_metadata_type_vIdEE",
   "name" : "android::audio_utils::metadata::is_metadata_type_v",
   "referenced_type" : "_ZTIKb",
   "source_file" : "system/media/audio_utils/include/audio_utils/Metadata.h"
  },
  {
   "linker_set_key" : "_ZN7android11audio_utils8metadata18is_metadata_type_vIfEE",
   "name" : "android::audio_utils::metadata::is_metadata_type_v",
   "referenced_type" : "_ZTIKb",
   "source_file" : "system/media/audio_utils/include/audio_utils/Metadata.h"
  },
  {
   "linker_set_key" : "_ZN7android11audio_utils8metadata18is_metadata_type_vIiEE",
   "name" : "android::audio_utils::metadata::is_metadata_type_v",
   "referenced_type" : "_ZTIKb",
   "source_file" : "system/media/audio_utils/include/audio_utils/Metadata.h"
  },
  {
   "linker_set_key" : "_ZN7android11audio_utils8metadata18is_metadata_type_vIxEE",
   "name" : "android::audio_utils::metadata::is_metadata_type_v",
   "referenced_type" : "_ZTIKb",
   "source_file" : "system/media/audio_utils/include/audio_utils/Metadata.h"
  },
  {
   "linker_set_key" : "_ZN7android11audio_utils8metadata19is_specialization_vE",
   "name" : "android::audio_utils::metadata::is_specialization_v",
   "referenced_type" : "_ZTIKb",
   "source_file" : "system/media/audio_utils/include/audio_utils/Metadata.h"
  },
  {
   "linker_set_key" : "_ZN7android11audio_utils8metadata19is_specialization_vINSt3__13mapINS3_12basic_stringIcNS3_11char_traitsIcEENS3_9allocatorIcEEEENS1_5DatumENS3_4lessISA_EENS8_INS3_4pairIKSA_SB_EEEEEENS3_6vectorEEE",
   "name" : "android::audio_utils::metadata::is_specialization_v",
   "referenced_type" : "_ZTIKb",
   "source_file" : "system/media/audio_utils/include/audio_utils/Metadata.h"
  },
  {
   "linker_set_key" : "_ZN7android11audio_utils8metadata19is_specialization_vINSt3__13mapINS3_12basic_stringIcNS3_11char_traitsIcEENS3_9allocatorIcEEEENS1_5DatumENS3_4lessISA_EENS8_INS3_4pairIKSA_SB_EEEEEES4_EE",
   "name" : "android::audio_utils::metadata::is_specialization_v",
   "referenced_type" : "_ZTIKb",
   "source_file" : "system/media/audio_utils/include/audio_utils/Metadata.h"
  },
  {
   "linker_set_key" : "_ZN7android11audio_utils8metadata28is_primitive_metadata_type_vE",
   "name" : "android::audio_utils::metadata::is_primitive_metadata_type_v",
   "referenced_type" : "_ZTIKb",
   "source_file" : "system/media/audio_utils/include/audio_utils/Metadata.h"
  },
  {
   "linker_set_key" : "_ZN7android11audio_utils8metadata28is_primitive_metadata_type_vINS1_4DataEEE",
   "name" : "android::audio_utils::metadata::is_primitive_metadata_type_v",
   "referenced_type" : "_ZTIKb",
   "source_file" : "system/media/audio_utils/include/audio_utils/Metadata.h"
  },
  {
   "linker_set_key" : "_ZN7android11audio_utils8metadata28is_primitive_metadata_type_vINS1_5DatumEEE",
   "name" : "android::audio_utils::metadata::is_primitive_metadata_type_v",
   "referenced_type" : "_ZTIKb",
   "source_file" : "system/media/audio_utils/include/audio_utils/Metadata.h"
  },
  {
   "linker_set_key" : "_ZN7android11audio_utils8metadata28is_primitive_metadata_type_vINSt3__112basic_stringIcNS3_11char_traitsIcEENS3_9allocatorIcEEEEEE",
   "name" : "android::audio_utils::metadata::is_primitive_metadata_type_v",
   "referenced_type" : "_ZTIKb",
   "source_file" : "system/media/audio_utils/include/audio_utils/Metadata.h"
  },
  {
   "linker_set_key" : "_ZN7android11audio_utils8metadata28is_primitive_metadata_type_vINSt3__14pairIKNS3_12basic_stringIcNS3_11char_traitsIcEENS3_9allocatorIcEEEENS1_5DatumEEEEE",
   "name" : "android::audio_utils::metadata::is_primitive_metadata_type_v",
   "referenced_type" : "_ZTIKb",
   "source_file" : "system/media/audio_utils/include/audio_utils/Metadata.h"
  },
  {
   "linker_set_key" : "_ZN7android11audio_utils8metadata28is_primitive_metadata_type_vIdEE",
   "name" : "android::audio_utils::metadata::is_primitive_metadata_type_v",
   "referenced_type" : "_ZTIKb",
   "source_file" : "system/media/audio_utils/include/audio_utils/Metadata.h"
  },
  {
   "linker_set_key" : "_ZN7android11audio_utils8metadata28is_primitive_metadata_type_vIfEE",
   "name" : "android::audio_utils::metadata::is_primitive_metadata_type_v",
   "referenced_type" : "_ZTIKb",
   "source_file" : "system/media/audio_utils/include/audio_utils/Metadata.h"
  },
  {
   "linker_set_key" : "_ZN7android11audio_utils8metadata28is_primitive_metadata_type_vIiEE",
   "name" : "android::audio_utils::metadata::is_primitive_metadata_type_v",
   "referenced_type" : "_ZTIKb",
   "source_file" : "system/media/audio_utils/include/audio_utils/Metadata.h"
  },
  {
   "linker_set_key" : "_ZN7android11audio_utils8metadata28is_primitive_metadata_type_vIjEE",
   "name" : "android::audio_utils::metadata::is_primitive_metadata_type_v",
   "referenced_type" : "_ZTIKb",
   "source_file" : "system/media/audio_utils/include/audio_utils/Metadata.h"
  },
  {
   "linker_set_key" : "_ZN7android11audio_utils8metadata28is_primitive_metadata_type_vIxEE",
   "name" : "android::audio_utils::metadata::is_primitive_metadata_type_v",
   "referenced_type" : "_ZTIKb",
   "source_file" : "system/media/audio_utils/include/audio_utils/Metadata.h"
  },
  {
   "linker_set_key" : "_ZN7android11audio_utils8metadata29is_structural_metadata_type_vE",
   "name" : "android::audio_utils::metadata::is_structural_metadata_type_v",
   "referenced_type" : "_ZTIKb",
   "source_file" : "system/media/audio_utils/include/audio_utils/Metadata.h"
  },
  {
   "linker_set_key" : "_ZN7android11audio_utils8metadata29is_structural_metadata_type_vINS1_4DataEEE",
   "name" : "android::audio_utils::metadata::is_structural_metadata_type_v",
   "referenced_type" : "_ZTIKb",
   "source_file" : "system/media/audio_utils/include/audio_utils/Metadata.h"
  },
  {
   "linker_set_key" : "_ZN7android11audio_utils8metadata29is_structural_metadata_type_vINS1_5DatumEEE",
   "name" : "android::audio_utils::metadata::is_structural_metadata_type_v",
   "referenced_type" : "_ZTIKb",
   "source_file" : "system/media/audio_utils/include/audio_utils/Metadata.h"
  },
  {
   "linker_set_key" : "_ZN7android11audio_utils8metadata29is_structural_metadata_type_vINSt3__112basic_stringIcNS3_11char_traitsIcEENS3_9allocatorIcEEEEEE",
   "name" : "android::audio_utils::metadata::is_structural_metadata_type_v",
   "referenced_type" : "_ZTIKb",
   "source_file" : "system/media/audio_utils/include/audio_utils/Metadata.h"
  },
  {
   "linker_set_key" : "_ZN7android11audio_utils8metadata29is_structural_metadata_type_vINSt3__14pairIKNS3_12basic_stringIcNS3_11char_traitsIcEENS3_9allocatorIcEEEENS1_5DatumEEEEE",
   "name" : "android::audio_utils::metadata::is_structural_metadata_type_v",
   "referenced_type" : "_ZTIKb",
   "source_file" : "system/media/audio_utils/include/audio_utils/Metadata.h"
  },
  {
   "linker_set_key" : "_ZN7android11audio_utils8metadata29is_structural_metadata_type_vIdEE",
   "name" : "android::audio_utils::metadata::is_structural_metadata_type_v",
   "referenced_type" : "_ZTIKb",
   "source_file" : "system/media/audio_utils/include/audio_utils/Metadata.h"
  },
  {
   "linker_set_key" : "_ZN7android11audio_utils8metadata29is_structural_metadata_type_vIfEE",
   "name" : "android::audio_utils::metadata::is_structural_metadata_type_v",
   "referenced_type" : "_ZTIKb",
   "source_file" : "system/media/audio_utils/include/audio_utils/Metadata.h"
  },
  {
   "linker_set_key" : "_ZN7android11audio_utils8metadata29is_structural_metadata_type_vIiEE",
   "name" : "android::audio_utils::metadata::is_structural_metadata_type_v",
   "referenced_type" : "_ZTIKb",
   "source_file" : "system/media/audio_utils/include/audio_utils/Metadata.h"
  },
  {
   "linker_set_key" : "_ZN7android11audio_utils8metadata29is_structural_metadata_type_vIjEE",
   "name" : "android::audio_utils::metadata::is_structural_metadata_type_v",
   "referenced_type" : "_ZTIKb",
   "source_file" : "system/media/audio_utils/include/audio_utils/Metadata.h"
  },
  {
   "linker_set_key" : "_ZN7android11audio_utils8metadata29is_structural_metadata_type_vIxEE",
   "name" : "android::audio_utils::metadata::is_structural_metadata_type_v",
   "referenced_type" : "_ZTIKb",
   "source_file" : "system/media/audio_utils/include/audio_utils/Metadata.h"
  }
 ],
 "lvalue_reference_types" :
 [
  {
   "alignment" : 4,
   "linker_set_key" : "_ZTIRKN7android11audio_utils8metadata3KeyINS1_4DataEvEE",
   "name" : "const android::audio_utils::metadata::Key<android::audio_utils::metadata::Data, void> &",
   "referenced_type" : "_ZTIKN7android11audio_utils8metadata3KeyINS1_4DataEvEE",
   "self_type" : "_ZTIRKN7android11audio_utils8metadata3KeyINS1_4DataEvEE",
   "size" : 4,
   "source_file" : "system/media/audio_utils/include/audio_utils/Metadata.h"
  },
  {
   "alignment" : 4,
   "linker_set_key" : "_ZTIRKN7android11audio_utils8metadata3KeyINSt3__112basic_stringIcNS3_11char_traitsIcEENS3_9allocatorIcEEEEvEE",
   "name" : "const android::audio_utils::metadata::Key<std::basic_string<char, std::char_traits<char>, std::allocator<char>>, void> &",
   "referenced_type" : "_ZTIKN7android11audio_utils8metadata3KeyINSt3__112basic_stringIcNS3_11char_traitsIcEENS3_9allocatorIcEEEEvEE",
   "self_type" : "_ZTIRKN7android11audio_utils8metadata3KeyINSt3__112basic_stringIcNS3_11char_traitsIcEENS3_9allocatorIcEEEEvEE",
   "size" : 4,
   "source_file" : "system/media/audio_utils/include/audio_utils/Metadata.h"
  },
  {
   "alignment" : 4,
   "linker_set_key" : "_ZTIRKN7android11audio_utils8metadata3KeyIdvEE",
   "name" : "const android::audio_utils::metadata::Key<double, void> &",
   "referenced_type" : "_ZTIKN7android11audio_utils8metadata3KeyIdvEE",
   "self_type" : "_ZTIRKN7android11audio_utils8metadata3KeyIdvEE",
   "size" : 4,
   "source_file" : "system/media/audio_utils/include/audio_utils/Metadata.h"
  },
  {
   "alignment" : 4,
   "linker_set_key" : "_ZTIRKN7android11audio_utils8metadata3KeyIfvEE",
   "name" : "const android::audio_utils::metadata::Key<float, void> &",
   "referenced_type" : "_ZTIKN7android11audio_utils8metadata3KeyIfvEE",
   "self_type" : "_ZTIRKN7android11audio_utils8metadata3KeyIfvEE",
   "size" : 4,
   "source_file" : "system/media/audio_utils/include/audio_utils/Metadata.h"
  },
  {
   "alignment" : 4,
   "linker_set_key" : "_ZTIRKN7android11audio_utils8metadata3KeyIivEE",
   "name" : "const android::audio_utils::metadata::Key<int, void> &",
   "referenced_type" : "_ZTIKN7android11audio_utils8metadata3KeyIivEE",
   "self_type" : "_ZTIRKN7android11audio_utils8metadata3KeyIivEE",
   "size" : 4,
   "source_file" : "system/media/audio_utils/include/audio_utils/Metadata.h"
  },
  {
   "alignment" : 4,
   "linker_set_key" : "_ZTIRKN7android11audio_utils8metadata3KeyIxvEE",
   "name" : "const android::audio_utils::metadata::Key<long long, void> &",
   "referenced_type" : "_ZTIKN7android11audio_utils8metadata3KeyIxvEE",
   "self_type" : "_ZTIRKN7android11audio_utils8metadata3KeyIxvEE",
   "size" : 4,
   "source_file" : "system/media/audio_utils/include/audio_utils/Metadata.h"
  },
  {
   "alignment" : 4,
   "linker_set_key" : "_ZTIRKN7android11audio_utils8metadata4DataE",
   "name" : "const android::audio_utils::metadata::Data &",
   "referenced_type" : "_ZTIKN7android11audio_utils8metadata4DataE",
   "self_type" : "_ZTIRKN7android11audio_utils8metadata4DataE",
   "size" : 4,
   "source_file" : "system/media/audio_utils/include/audio_utils/Metadata.h"
  },
  {
   "alignment" : 4,
   "linker_set_key" : "_ZTIRKN7android11audio_utils8metadata5DatumE",
   "name" : "const android::audio_utils::metadata::Datum &",
   "referenced_type" : "_ZTIKN7android11audio_utils8metadata5DatumE",
   "self_type" : "_ZTIRKN7android11audio_utils8metadata5DatumE",
   "size" : 4,
   "source_file" : "system/media/audio_utils/include/audio_utils/Metadata.h"
  },
  {
   "alignment" : 4,
   "linker_set_key" : "_ZTIRKNSt3__112basic_stringIcNS_11char_traitsIcEENS_9allocatorIcEEEE",
   "name" : "const std::basic_string<char, std::char_traits<char>, std::allocator<char>> &",
   "referenced_type" : "_ZTIKNSt3__112basic_stringIcNS_11char_traitsIcEENS_9allocatorIcEEEE",
   "self_type" : "_ZTIRKNSt3__112basic_stringIcNS_11char_traitsIcEENS_9allocatorIcEEEE",
   "size" : 4,
   "source_file" : "system/media/audio_utils/include/audio_utils/Metadata.h"
  },
  {
   "alignment" : 4,
   "linker_set_key" : "_ZTIRKNSt3__112basic_stringIhNS_11char_traitsIhEENS_9allocatorIhEEEE",
   "name" : "const std::basic_string<unsigned char, std::char_traits<unsigned char>, std::allocator<unsigned char>> &",
   "referenced_type" : "_ZTIKNSt3__112basic_stringIhNS_11char_traitsIhEENS_9allocatorIhEEEE",
   "self_type" : "_ZTIRKNSt3__112basic_stringIhNS_11char_traitsIhEENS_9allocatorIhEEEE",
   "size" : 4,
   "source_file" : "system/media/audio_utils/include/audio_utils/Metadata.h"
  },
  {
   "alignment" : 4,
   "linker_set_key" : "_ZTIRKNSt3__13mapINS_12basic_stringIcNS_11char_traitsIcEENS_9allocatorIcEEEEN7android11audio_utils8metadata5DatumENS_4lessIS6_EENS4_INS_4pairIKS6_SA_EEEEEE",
   "name" : "const std::map<std::basic_string<char, std::char_traits<char>, std::allocator<char>>, android::audio_utils::metadata::Datum, std::less<std::basic_string<char, std::char_traits<char>, std::allocator<char>>>, std::allocator<std::pair<const std::basic_string<char, std::char_traits<char>, std::allocator<char>>, android::audio_utils::metadata::Datum>>> &",
   "referenced_type" : "_ZTIKNSt3__13mapINS_12basic_stringIcNS_11char_traitsIcEENS_9allocatorIcEEEEN7android11audio_utils8metadata5DatumENS_4lessIS6_EENS4_INS_4pairIKS6_SA_EEEEEE",
   "self_type" : "_ZTIRKNSt3__13mapINS_12basic_stringIcNS_11char_traitsIcEENS_9allocatorIcEEEEN7android11audio_utils8metadata5DatumENS_4lessIS6_EENS4_INS_4pairIKS6_SA_EEEEEE",
   "size" : 4,
   "source_file" : "system/media/audio_utils/include/audio_utils/Metadata.h"
  },
  {
   "alignment" : 4,
   "linker_set_key" : "_ZTIRKNSt3__14pairIKNS_12basic_stringIcNS_11char_traitsIcEENS_9allocatorIcEEEEN7android11audio_utils8metadata5DatumEEE",
   "name" : "const std::pair<const std::basic_string<char, std::char_traits<char>, std::allocator<char>>, android::audio_utils::metadata::Datum> &",
   "referenced_type" : "_ZTIKNSt3__14pairIKNS_12basic_stringIcNS_11char_traitsIcEENS_9allocatorIcEEEEN7android11audio_utils8metadata5DatumEEE",
   "self_type" : "_ZTIRKNSt3__14pairIKNS_12basic_stringIcNS_11char_traitsIcEENS_9allocatorIcEEEEN7android11audio_utils8metadata5DatumEEE",
   "size" : 4,
   "source_file" : "system/media/audio_utils/include/audio_utils/Metadata.h"
  },
  {
   "alignment" : 4,
   "linker_set_key" : "_ZTIRKd",
   "name" : "const double &",
   "referenced_type" : "_ZTIKd",
   "self_type" : "_ZTIRKd",
   "size" : 4,
   "source_file" : "system/media/audio_utils/include/audio_utils/Metadata.h"
  },
  {
   "alignment" : 4,
   "linker_set_key" : "_ZTIRKf",
   "name" : "const float &",
   "referenced_type" : "_ZTIKf",
   "self_type" : "_ZTIRKf",
   "size" : 4,
   "source_file" : "system/media/audio_utils/include/audio_utils/Metadata.h"
  },
  {
   "alignment" : 4,
   "linker_set_key" : "_ZTIRKi",
   "name" : "const int &",
   "referenced_type" : "_ZTIKi",
   "self_type" : "_ZTIRKi",
   "size" : 4,
   "source_file" : "system/media/audio_utils/include/audio_utils/Metadata.h"
  },
  {
   "alignment" : 4,
   "linker_set_key" : "_ZTIRKj",
   "name" : "const unsigned int &",
   "referenced_type" : "_ZTIKj",
   "self_type" : "_ZTIRKj",
   "size" : 4,
   "source_file" : "system/media/audio_utils/include/audio_utils/Metadata.h"
  },
  {
   "alignment" : 4,
   "linker_set_key" : "_ZTIRKx",
   "name" : "const long long &",
   "referenced_type" : "_ZTIKx",
   "self_type" : "_ZTIRKx",
   "size" : 4,
   "source_file" : "system/media/audio_utils/include/audio_utils/Metadata.h"
  },
  {
   "alignment" : 4,
   "linker_set_key" : "_ZTIRN7android11audio_utils8metadata4DataE",
   "name" : "android::audio_utils::metadata::Data &",
   "referenced_type" : "_ZTIN7android11audio_utils8metadata4DataE",
   "self_type" : "_ZTIRN7android11audio_utils8metadata4DataE",
   "size" : 4,
   "source_file" : "system/media/audio_utils/include/audio_utils/Metadata.h"
  },
  {
   "alignment" : 4,
   "linker_set_key" : "_ZTIRN7android11audio_utils8metadata5DatumE",
   "name" : "android::audio_utils::metadata::Datum &",
   "referenced_type" : "_ZTIN7android11audio_utils8metadata5DatumE",
   "self_type" : "_ZTIRN7android11audio_utils8metadata5DatumE",
   "size" : 4,
   "source_file" : "system/media/audio_utils/include/audio_utils/Metadata.h"
  },
  {
   "alignment" : 4,
   "linker_set_key" : "_ZTIRNSt3__112basic_stringIcNS_11char_traitsIcEENS_9allocatorIcEEEE",
   "name" : "std::basic_string<char, std::char_traits<char>, std::allocator<char>> &",
   "referenced_type" : "_ZTINSt3__112basic_stringIcNS_11char_traitsIcEENS_9allocatorIcEEEE",
   "self_type" : "_ZTIRNSt3__112basic_stringIcNS_11char_traitsIcEENS_9allocatorIcEEEE",
   "size" : 4,
   "source_file" : "system/media/audio_utils/include/audio_utils/Metadata.h"
  },
  {
   "alignment" : 4,
   "linker_set_key" : "_ZTIRNSt3__112basic_stringIhNS_11char_traitsIhEENS_9allocatorIhEEEE",
   "name" : "std::basic_string<unsigned char, std::char_traits<unsigned char>, std::allocator<unsigned char>> &",
   "referenced_type" : "_ZTINSt3__112basic_stringIhNS_11char_traitsIhEENS_9allocatorIhEEEE",
   "self_type" : "_ZTIRNSt3__112basic_stringIhNS_11char_traitsIhEENS_9allocatorIhEEEE",
   "size" : 4,
   "source_file" : "system/media/audio_utils/include/audio_utils/Metadata.h"
  },
  {
   "alignment" : 4,
   "linker_set_key" : "_ZTIRPKc",
   "name" : "const char *&",
   "referenced_type" : "_ZTIPKc",
   "self_type" : "_ZTIRPKc",
   "size" : 4,
   "source_file" : "system/media/audio_utils/include/audio_utils/Metadata.h"
  },
  {
   "alignment" : 4,
   "linker_set_key" : "_ZTIRd",
   "name" : "double &",
   "referenced_type" : "_ZTId",
   "self_type" : "_ZTIRd",
   "size" : 4,
   "source_file" : "system/media/audio_utils/include/audio_utils/Metadata.h"
  },
  {
   "alignment" : 4,
   "linker_set_key" : "_ZTIRf",
   "name" : "float &",
   "referenced_type" : "_ZTIf",
   "self_type" : "_ZTIRf",
   "size" : 4,
   "source_file" : "system/media/audio_utils/include/audio_utils/Metadata.h"
  },
  {
   "alignment" : 4,
   "linker_set_key" : "_ZTIRi",
   "name" : "int &",
   "referenced_type" : "_ZTIi",
   "self_type" : "_ZTIRi",
   "size" : 4,
   "source_file" : "system/media/audio_utils/include/audio_utils/Metadata.h"
  },
  {
   "alignment" : 4,
   "linker_set_key" : "_ZTIRj",
   "name" : "unsigned int &",
   "referenced_type" : "_ZTIj",
   "self_type" : "_ZTIRj",
   "size" : 4,
   "source_file" : "system/media/audio_utils/include/audio_utils/Metadata.h"
  },
  {
   "alignment" : 4,
   "linker_set_key" : "_ZTIRx",
   "name" : "long long &",
   "referenced_type" : "_ZTIx",
   "self_type" : "_ZTIRx",
   "size" : 4,
   "source_file" : "system/media/audio_utils/include/audio_utils/Metadata.h"
  }
 ],
 "pointer_types" :
 [
  {
   "alignment" : 4,
   "linker_set_key" : "_ZTIP16audio_metadata_t",
   "name" : "audio_metadata_t *",
   "referenced_type" : "_ZTI16audio_metadata_t",
   "self_type" : "_ZTIP16audio_metadata_t",
   "size" : 4,
   "source_file" : "system/media/audio_utils/include/audio_utils/Metadata.h"
  },
  {
   "alignment" : 4,
   "linker_set_key" : "_ZTIPKN7android11audio_utils8metadata3KeyINS1_4DataEvEE",
   "name" : "const android::audio_utils::metadata::Key<android::audio_utils::metadata::Data, void> *",
   "referenced_type" : "_ZTIKN7android11audio_utils8metadata3KeyINS1_4DataEvEE",
   "self_type" : "_ZTIPKN7android11audio_utils8metadata3KeyINS1_4DataEvEE",
   "size" : 4,
   "source_file" : "system/media/audio_utils/include/audio_utils/Metadata.h"
  },
  {
   "alignment" : 4,
   "linker_set_key" : "_ZTIPKN7android11audio_utils8metadata3KeyINSt3__112basic_stringIcNS3_11char_traitsIcEENS3_9allocatorIcEEEEvEE",
   "name" : "const android::audio_utils::metadata::Key<std::basic_string<char, std::char_traits<char>, std::allocator<char>>, void> *",
   "referenced_type" : "_ZTIKN7android11audio_utils8metadata3KeyINSt3__112basic_stringIcNS3_11char_traitsIcEENS3_9allocatorIcEEEEvEE",
   "self_type" : "_ZTIPKN7android11audio_utils8metadata3KeyINSt3__112basic_stringIcNS3_11char_traitsIcEENS3_9allocatorIcEEEEvEE",
   "size" : 4,
   "source_file" : "system/media/audio_utils/include/audio_utils/Metadata.h"
  },
  {
   "alignment" : 4,
   "linker_set_key" : "_ZTIPKN7android11audio_utils8metadata3KeyIdvEE",
   "name" : "const android::audio_utils::metadata::Key<double, void> *",
   "referenced_type" : "_ZTIKN7android11audio_utils8metadata3KeyIdvEE",
   "self_type" : "_ZTIPKN7android11audio_utils8metadata3KeyIdvEE",
   "size" : 4,
   "source_file" : "system/media/audio_utils/include/audio_utils/Metadata.h"
  },
  {
   "alignment" : 4,
   "linker_set_key" : "_ZTIPKN7android11audio_utils8metadata3KeyIfvEE",
   "name" : "const android::audio_utils::metadata::Key<float, void> *",
   "referenced_type" : "_ZTIKN7android11audio_utils8metadata3KeyIfvEE",
   "self_type" : "_ZTIPKN7android11audio_utils8metadata3KeyIfvEE",
   "size" : 4,
   "source_file" : "system/media/audio_utils/include/audio_utils/Metadata.h"
  },
  {
   "alignment" : 4,
   "linker_set_key" : "_ZTIPKN7android11audio_utils8metadata3KeyIivEE",
   "name" : "const android::audio_utils::metadata::Key<int, void> *",
   "referenced_type" : "_ZTIKN7android11audio_utils8metadata3KeyIivEE",
   "self_type" : "_ZTIPKN7android11audio_utils8metadata3KeyIivEE",
   "size" : 4,
   "source_file" : "system/media/audio_utils/include/audio_utils/Metadata.h"
  },
  {
   "alignment" : 4,
   "linker_set_key" : "_ZTIPKN7android11audio_utils8metadata3KeyIxvEE",
   "name" : "const android::audio_utils::metadata::Key<long long, void> *",
   "referenced_type" : "_ZTIKN7android11audio_utils8metadata3KeyIxvEE",
   "self_type" : "_ZTIPKN7android11audio_utils8metadata3KeyIxvEE",
   "size" : 4,
   "source_file" : "system/media/audio_utils/include/audio_utils/Metadata.h"
  },
  {
   "alignment" : 4,
   "linker_set_key" : "_ZTIPKc",
   "name" : "const char *",
   "referenced_type" : "_ZTIKc",
   "self_type" : "_ZTIPKc",
   "size" : 4,
   "source_file" : "system/media/audio_utils/include/audio_utils/Metadata.h"
  },
  {
   "alignment" : 4,
   "linker_set_key" : "_ZTIPKh",
   "name" : "const unsigned char *",
   "referenced_type" : "_ZTIKh",
   "self_type" : "_ZTIPKh",
   "size" : 4,
   "source_file" : "system/media/audio_utils/include/audio_utils/Metadata.h"
  },
  {
   "alignment" : 4,
   "linker_set_key" : "_ZTIPN7android11audio_utils8metadata4DataE",
   "name" : "android::audio_utils::metadata::Data *",
   "referenced_type" : "_ZTIN7android11audio_utils8metadata4DataE",
   "self_type" : "_ZTIPN7android11audio_utils8metadata4DataE",
   "size" : 4,
   "source_file" : "system/media/audio_utils/include/audio_utils/Metadata.h"
  },
  {
   "alignment" : 4,
   "linker_set_key" : "_ZTIPN7android11audio_utils8metadata5DatumE",
   "name" : "android::audio_utils::metadata::Datum *",
   "referenced_type" : "_ZTIN7android11audio_utils8metadata5DatumE",
   "self_type" : "_ZTIPN7android11audio_utils8metadata5DatumE",
   "size" : 4,
   "source_file" : "system/media/audio_utils/include/audio_utils/Metadata.h"
  },
  {
   "alignment" : 4,
   "linker_set_key" : "_ZTIPNSt3__112basic_stringIcNS_11char_traitsIcEENS_9allocatorIcEEEE",
   "name" : "std::basic_string<char, std::char_traits<char>, std::allocator<char>> *",
   "referenced_type" : "_ZTINSt3__112basic_stringIcNS_11char_traitsIcEENS_9allocatorIcEEEE",
   "self_type" : "_ZTIPNSt3__112basic_stringIcNS_11char_traitsIcEENS_9allocatorIcEEEE",
   "size" : 4,
   "source_file" : "system/media/audio_utils/include/audio_utils/Metadata.h"
  },
  {
   "alignment" : 4,
   "linker_set_key" : "_ZTIPNSt3__13mapINS_12basic_stringIcNS_11char_traitsIcEENS_9allocatorIcEEEEN7android11audio_utils8metadata5DatumENS_4lessIS6_EENS4_INS_4pairIKS6_SA_EEEEEE",
   "name" : "std::map<std::basic_string<char, std::char_traits<char>, std::allocator<char>>, android::audio_utils::metadata::Datum, std::less<std::basic_string<char, std::char_traits<char>, std::allocator<char>>>, std::allocator<std::pair<const std::basic_string<char, std::char_traits<char>, std::allocator<char>>, android::audio_utils::metadata::Datum>>> *",
   "referenced_type" : "_ZTINSt3__13mapINS_12basic_stringIcNS_11char_traitsIcEENS_9allocatorIcEEEEN7android11audio_utils8metadata5DatumENS_4lessIS6_EENS4_INS_4pairIKS6_SA_EEEEEE",
   "self_type" : "_ZTIPNSt3__13mapINS_12basic_stringIcNS_11char_traitsIcEENS_9allocatorIcEEEEN7android11audio_utils8metadata5DatumENS_4lessIS6_EENS4_INS_4pairIKS6_SA_EEEEEE",
   "size" : 4,
   "source_file" : "system/media/audio_utils/include/audio_utils/Metadata.h"
  },
  {
   "alignment" : 4,
   "linker_set_key" : "_ZTIPNSt3__16vectorIjNS_9allocatorIjEEEE",
   "name" : "std::vector<unsigned int, std::allocator<unsigned int>> *",
   "referenced_type" : "_ZTINSt3__16vectorIjNS_9allocatorIjEEEE",
   "self_type" : "_ZTIPNSt3__16vectorIjNS_9allocatorIjEEEE",
   "size" : 4,
   "source_file" : "system/media/audio_utils/include/audio_utils/Metadata.h"
  },
  {
   "alignment" : 4,
   "linker_set_key" : "_ZTIPP16audio_metadata_t",
   "name" : "audio_metadata_t **",
   "referenced_type" : "_ZTIP16audio_metadata_t",
   "self_type" : "_ZTIPP16audio_metadata_t",
   "size" : 4,
   "source_file" : "system/media/audio_utils/include/audio_utils/Metadata.h"
  },
  {
   "alignment" : 4,
   "linker_set_key" : "_ZTIPPc",
   "name" : "char **",
   "referenced_type" : "_ZTIPc",
   "self_type" : "_ZTIPPc",
   "size" : 4,
   "source_file" : "system/media/audio_utils/include/audio_utils/Metadata.h"
  },
  {
   "alignment" : 4,
   "linker_set_key" : "_ZTIPPh",
   "name" : "unsigned char **",
   "referenced_type" : "_ZTIPh",
   "self_type" : "_ZTIPPh",
   "size" : 4,
   "source_file" : "system/media/audio_utils/include/audio_utils/Metadata.h"
  },
  {
   "alignment" : 4,
   "linker_set_key" : "_ZTIPc",
   "name" : "char *",
   "referenced_type" : "_ZTIc",
   "self_type" : "_ZTIPc",
   "size" : 4,
   "source_file" : "system/media/audio_utils/include/audio_utils/Metadata.h"
  },
  {
   "alignment" : 4,
   "linker_set_key" : "_ZTIPd",
   "name" : "double *",
   "referenced_type" : "_ZTId",
   "self_type" : "_ZTIPd",
   "size" : 4,
   "source_file" : "system/media/audio_utils/include/audio_utils/Metadata.h"
  },
  {
   "alignment" : 4,
   "linker_set_key" : "_ZTIPf",
   "name" : "float *",
   "referenced_type" : "_ZTIf",
   "self_type" : "_ZTIPf",
   "size" : 4,
   "source_file" : "system/media/audio_utils/include/audio_utils/Metadata.h"
  },
  {
   "alignment" : 4,
   "linker_set_key" : "_ZTIPh",
   "name" : "unsigned char *",
   "referenced_type" : "_ZTIh",
   "self_type" : "_ZTIPh",
   "size" : 4,
   "source_file" : "system/media/audio_utils/include/audio_utils/Metadata.h"
  },
  {
   "alignment" : 4,
   "linker_set_key" : "_ZTIPi",
   "name" : "int *",
   "referenced_type" : "_ZTIi",
   "self_type" : "_ZTIPi",
   "size" : 4,
   "source_file" : "system/media/audio_utils/include/audio_utils/Metadata.h"
  },
  {
   "alignment" : 4,
   "linker_set_key" : "_ZTIPj",
   "name" : "unsigned int *",
   "referenced_type" : "_ZTIj",
   "self_type" : "_ZTIPj",
   "size" : 4,
   "source_file" : "system/media/audio_utils/include/audio_utils/Metadata.h"
  },
  {
   "alignment" : 4,
   "linker_set_key" : "_ZTIPx",
   "name" : "long long *",
   "referenced_type" : "_ZTIx",
   "self_type" : "_ZTIPx",
   "size" : 4,
   "source_file" : "system/media/audio_utils/include/audio_utils/Metadata.h"
  }
 ],
 "qualified_types" :
 [
  {
   "alignment" : 4,
   "is_const" : true,
   "linker_set_key" : "_ZTIKN7android11audio_utils8metadata3KeyINS1_4DataEvEE",
   "name" : "const android::audio_utils::metadata::Key<android::audio_utils::metadata::Data, void>",
   "referenced_type" : "_ZTIN7android11audio_utils8metadata3KeyINS1_4DataEvEE",
   "self_type" : "_ZTIKN7android11audio_utils8metadata3KeyINS1_4DataEvEE",
   "size" : 12,
   "source_file" : "system/media/audio_utils/include/audio_utils/Metadata.h"
  },
  {
   "alignment" : 4,
   "is_const" : true,
   "linker_set_key" : "_ZTIKN7android11audio_utils8metadata3KeyINSt3__112basic_stringIcNS3_11char_traitsIcEENS3_9allocatorIcEEEEvEE",
   "name" : "const android::audio_utils::metadata::Key<std::basic_string<char, std::char_traits<char>, std::allocator<char>>, void>",
   "referenced_type" : "_ZTIN7android11audio_utils8metadata3KeyINSt3__112basic_stringIcNS3_11char_traitsIcEENS3_9allocatorIcEEEEvEE",
   "self_type" : "_ZTIKN7android11audio_utils8metadata3KeyINSt3__112basic_stringIcNS3_11char_traitsIcEENS3_9allocatorIcEEEEvEE",
   "size" : 12,
   "source_file" : "system/media/audio_utils/include/audio_utils/Metadata.h"
  },
  {
   "alignment" : 4,
   "is_const" : true,
   "linker_set_key" : "_ZTIKN7android11audio_utils8metadata3KeyIdvEE",
   "name" : "const android::audio_utils::metadata::Key<double, void>",
   "referenced_type" : "_ZTIN7android11audio_utils8metadata3KeyIdvEE",
   "self_type" : "_ZTIKN7android11audio_utils8metadata3KeyIdvEE",
   "size" : 12,
   "source_file" : "system/media/audio_utils/include/audio_utils/Metadata.h"
  },
  {
   "alignment" : 4,
   "is_const" : true,
   "linker_set_key" : "_ZTIKN7android11audio_utils8metadata3KeyIfvEE",
   "name" : "const android::audio_utils::metadata::Key<float, void>",
   "referenced_type" : "_ZTIN7android11audio_utils8metadata3KeyIfvEE",
   "self_type" : "_ZTIKN7android11audio_utils8metadata3KeyIfvEE",
   "size" : 12,
   "source_file" : "system/media/audio_utils/include/audio_utils/Metadata.h"
  },
  {
   "alignment" : 4,
   "is_const" : true,
   "linker_set_key" : "_ZTIKN7android11audio_utils8metadata3KeyIivEE",
   "name" : "const android::audio_utils::metadata::Key<int, void>",
   "referenced_type" : "_ZTIN7android11audio_utils8metadata3KeyIivEE",
   "self_type" : "_ZTIKN7android11audio_utils8metadata3KeyIivEE",
   "size" : 12,
   "source_file" : "system/media/audio_utils/include/audio_utils/Metadata.h"
  },
  {
   "alignment" : 4,
   "is_const" : true,
   "linker_set_key" : "_ZTIKN7android11audio_utils8metadata3KeyIxvEE",
   "name" : "const android::audio_utils::metadata::Key<long long, void>",
   "referenced_type" : "_ZTIN7android11audio_utils8metadata3KeyIxvEE",
   "self_type" : "_ZTIKN7android11audio_utils8metadata3KeyIxvEE",
   "size" : 12,
   "source_file" : "system/media/audio_utils/include/audio_utils/Metadata.h"
  },
  {
   "alignment" : 4,
   "is_const" : true,
   "linker_set_key" : "_ZTIKN7android11audio_utils8metadata4DataE",
   "name" : "const android::audio_utils::metadata::Data",
   "referenced_type" : "_ZTIN7android11audio_utils8metadata4DataE",
   "self_type" : "_ZTIKN7android11audio_utils8metadata4DataE",
   "size" : 12,
   "source_file" : "system/media/audio_utils/include/audio_utils/Metadata.h"
  },
  {
   "alignment" : 4,
   "is_const" : true,
   "linker_set_key" : "_ZTIKN7android11audio_utils8metadata5DatumE",
   "name" : "const android::audio_utils::metadata::Datum",
   "referenced_type" : "_ZTIN7android11audio_utils8metadata5DatumE",
   "self_type" : "_ZTIKN7android11audio_utils8metadata5DatumE",
   "size" : 16,
   "source_file" : "system/media/audio_utils/include/audio_utils/Metadata.h"
  },
  {
   "alignment" : 4,
   "is_const" : true,
   "linker_set_key" : "_ZTIKNSt3__112basic_stringIcNS_11char_traitsIcEENS_9allocatorIcEEEE",
   "name" : "const std::basic_string<char, std::char_traits<char>, std::allocator<char>>",
   "referenced_type" : "_ZTINSt3__112basic_stringIcNS_11char_traitsIcEENS_9allocatorIcEEEE",
   "self_type" : "_ZTIKNSt3__112basic_stringIcNS_11char_traitsIcEENS_9allocatorIcEEEE",
   "size" : 12,
   "source_file" : "system/media/audio_utils/include/audio_utils/Metadata.h"
  },
  {
   "alignment" : 4,
   "is_const" : true,
   "linker_set_key" : "_ZTIKNSt3__112basic_stringIhNS_11char_traitsIhEENS_9allocatorIhEEEE",
   "name" : "const std::basic_string<unsigned char, std::char_traits<unsigned char>, std::allocator<unsigned char>>",
   "referenced_type" : "_ZTINSt3__112basic_stringIhNS_11char_traitsIhEENS_9allocatorIhEEEE",
   "self_type" : "_ZTIKNSt3__112basic_stringIhNS_11char_traitsIhEENS_9allocatorIhEEEE",
   "size" : 12,
   "source_file" : "system/media/audio_utils/include/audio_utils/Metadata.h"
  },
  {
   "alignment" : 4,
   "is_const" : true,
   "linker_set_key" : "_ZTIKNSt3__13mapINS_12basic_stringIcNS_11char_traitsIcEENS_9allocatorIcEEEEN7android11audio_utils8metadata5DatumENS_4lessIS6_EENS4_INS_4pairIKS6_SA_EEEEEE",
   "name" : "const std::map<std::basic_string<char, std::char_traits<char>, std::allocator<char>>, android::audio_utils::metadata::Datum, std::less<std::basic_string<char, std::char_traits<char>, std::allocator<char>>>, std::allocator<std::pair<const std::basic_string<char, std::char_traits<char>, std::allocator<char>>, android::audio_utils::metadata::Datum>>>",
   "referenced_type" : "_ZTINSt3__13mapINS_12basic_stringIcNS_11char_traitsIcEENS_9allocatorIcEEEEN7android11audio_utils8metadata5DatumENS_4lessIS6_EENS4_INS_4pairIKS6_SA_EEEEEE",
   "self_type" : "_ZTIKNSt3__13mapINS_12basic_stringIcNS_11char_traitsIcEENS_9allocatorIcEEEEN7android11audio_utils8metadata5DatumENS_4lessIS6_EENS4_INS_4pairIKS6_SA_EEEEEE",
   "size" : 12,
   "source_file" : "system/media/audio_utils/include/audio_utils/Metadata.h"
  },
  {
   "alignment" : 4,
   "is_const" : true,
   "linker_set_key" : "_ZTIKNSt3__14pairIKNS_12basic_stringIcNS_11char_traitsIcEENS_9allocatorIcEEEEN7android11audio_utils8metadata5DatumEEE",
   "name" : "const std::pair<const std::basic_string<char, std::char_traits<char>, std::allocator<char>>, android::audio_utils::metadata::Datum>",
   "referenced_type" : "_ZTINSt3__14pairIKNS_12basic_stringIcNS_11char_traitsIcEENS_9allocatorIcEEEEN7android11audio_utils8metadata5DatumEEE",
   "self_type" : "_ZTIKNSt3__14pairIKNS_12basic_stringIcNS_11char_traitsIcEENS_9allocatorIcEEEEN7android11audio_utils8metadata5DatumEEE",
   "size" : 28,
   "source_file" : "system/media/audio_utils/include/audio_utils/Metadata.h"
  },
  {
   "alignment" : 1,
   "is_const" : true,
   "linker_set_key" : "_ZTIKb",
   "name" : "const bool",
   "referenced_type" : "_ZTIb",
   "self_type" : "_ZTIKb",
   "size" : 1,
   "source_file" : "system/media/audio_utils/include/audio_utils/Metadata.h"
  },
  {
   "alignment" : 1,
   "is_const" : true,
   "linker_set_key" : "_ZTIKc",
   "name" : "const char",
   "referenced_type" : "_ZTIc",
   "self_type" : "_ZTIKc",
   "size" : 1,
   "source_file" : "system/media/audio_utils/include/audio_utils/Metadata.h"
  },
  {
   "alignment" : 8,
   "is_const" : true,
   "linker_set_key" : "_ZTIKd",
   "name" : "const double",
   "referenced_type" : "_ZTId",
   "self_type" : "_ZTIKd",
   "size" : 8,
   "source_file" : "system/media/audio_utils/include/audio_utils/Metadata.h"
  },
  {
   "alignment" : 4,
   "is_const" : true,
   "linker_set_key" : "_ZTIKf",
   "name" : "const float",
   "referenced_type" : "_ZTIf",
   "self_type" : "_ZTIKf",
   "size" : 4,
   "source_file" : "system/media/audio_utils/include/audio_utils/Metadata.h"
  },
  {
   "alignment" : 1,
   "is_const" : true,
   "linker_set_key" : "_ZTIKh",
   "name" : "const unsigned char",
   "referenced_type" : "_ZTIh",
   "self_type" : "_ZTIKh",
   "size" : 1,
   "source_file" : "system/media/audio_utils/include/audio_utils/Metadata.h"
  },
  {
   "alignment" : 4,
   "is_const" : true,
   "linker_set_key" : "_ZTIKi",
   "name" : "const int",
   "referenced_type" : "_ZTIi",
   "self_type" : "_ZTIKi",
   "size" : 4,
   "source_file" : "system/media/audio_utils/include/audio_utils/Metadata.h"
  },
  {
   "alignment" : 4,
   "is_const" : true,
   "linker_set_key" : "_ZTIKj",
   "name" : "const unsigned int",
   "referenced_type" : "_ZTIj",
   "self_type" : "_ZTIKj",
   "size" : 4,
   "source_file" : "system/media/audio_utils/include/audio_utils/Metadata.h"
  },
  {
   "alignment" : 8,
   "is_const" : true,
   "linker_set_key" : "_ZTIKx",
   "name" : "const long long",
   "referenced_type" : "_ZTIx",
   "self_type" : "_ZTIKx",
   "size" : 8,
   "source_file" : "system/media/audio_utils/include/audio_utils/Metadata.h"
  }
 ],
 "record_types" :
 [
  {
   "alignment" : 1,
   "fields" :
   [
    {
     "field_name" : "c",
     "referenced_type" : "_ZTIc"
    }
   ],
   "linker_set_key" : "_ZTI24audio_metadata_unknown_t",
   "name" : "audio_metadata_unknown_t",
   "referenced_type" : "_ZTI24audio_metadata_unknown_t",
   "self_type" : "_ZTI24audio_metadata_unknown_t",
   "size" : 1,
   "source_file" : "system/media/audio_utils/include/audio_utils/Metadata.h"
  },
  {
   "alignment" : 1,
   "linker_set_key" : "_ZTIN7android11audio_utils8metadata13compound_typeIJEEE",
   "name" : "android::audio_utils::metadata::compound_type<>",
   "referenced_type" : "_ZTIN7android11audio_utils8metadata13compound_typeIJEEE",
   "self_type" : "_ZTIN7android11audio_utils8metadata13compound_typeIJEEE",
   "size" : 1,
   "source_file" : "system/media/audio_utils/include/audio_utils/Metadata.h"
  },
  {
   "alignment" : 1,
   "linker_set_key" : "_ZTIN7android11audio_utils8metadata13compound_typeIJixfdEEE",
   "name" : "android::audio_utils::metadata::compound_type<int, long long, float, double>",
   "referenced_type" : "_ZTIN7android11audio_utils8metadata13compound_typeIJixfdEEE",
   "self_type" : "_ZTIN7android11audio_utils8metadata13compound_typeIJixfdEEE",
   "size" : 1,
   "source_file" : "system/media/audio_utils/include/audio_utils/Metadata.h"
  },
  {
   "alignment" : 1,
   "linker_set_key" : "_ZTIN7android11audio_utils8metadata13compound_typeIJixfdNSt3__112basic_stringIcNS3_11char_traitsIcEENS3_9allocatorIcEEEENS1_4DataEEEE",
   "name" : "android::audio_utils::metadata::compound_type<int, long long, float, double, basic_string<char>, Data>",
   "referenced_type" : "_ZTIN7android11audio_utils8metadata13compound_typeIJixfdNSt3__112basic_stringIcNS3_11char_traitsIcEENS3_9allocatorIcEEEENS1_4DataEEEE",
   "self_type" : "_ZTIN7android11audio_utils8metadata13compound_typeIJixfdNSt3__112basic_stringIcNS3_11char_traitsIcEENS3_9allocatorIcEEEENS1_4DataEEEE",
   "size" : 1,
   "source_file" : "system/media/audio_utils/include/audio_utils/Metadata.h"
  },
  {
   "alignment" : 1,
   "base_specifiers" :
   [
    {
     "referenced_type" : "_ZTINSt3__117integral_constantIbLb0EEE"
    }
   ],
   "linker_set_key" : "_ZTIN7android11audio_utils8metadata17is_specializationINSt3__13mapINS3_12basic_stringIcNS3_11char_traitsIcEENS3_9allocatorIcEEEENS1_5DatumENS3_4lessISA_EENS8_INS3_4pairIKSA_SB_EEEEEENS3_6vectorEEE",
   "name" : "android::audio_utils::metadata::is_specialization<std::map<std::basic_string<char, std::char_traits<char>, std::allocator<char>>, android::audio_utils::metadata::Datum, std::less<std::basic_string<char, std::char_traits<char>, std::allocator<char>>>, std::allocator<std::pair<const std::basic_string<char, std::char_traits<char>, std::allocator<char>>, android::audio_utils::metadata::Datum>>>, std::vector>",
   "referenced_type" : "_ZTIN7android11audio_utils8metadata17is_specializationINSt3__13mapINS3_12basic_stringIcNS3_11char_traitsIcEENS3_9allocatorIcEEEENS1_5DatumENS3_4lessISA_EENS8_INS3_4pairIKSA_SB_EEEEEENS3_6vectorEEE",
   "self_type" : "_ZTIN7android11audio_utils8metadata17is_specializationINSt3__13mapINS3_12basic_stringIcNS3_11char_traitsIcEENS3_9allocatorIcEEEENS1_5DatumENS3_4lessISA_EENS8_INS3_4pairIKSA_SB_EEEEEENS3_6vectorEEE",
   "size" : 1,
   "source_file" : "system/media/audio_utils/include/audio_utils/Metadata.h",
   "template_args" :
   [
    "_ZTINSt3__13mapINS_12basic_stringIcNS_11char_traitsIcEENS_9allocatorIcEEEEN7android11audio_utils8metadata5DatumENS_4lessIS6_EENS4_INS_4pairIKS6_SA_EEEEEE"
   ]
  },
  {
   "alignment" : 1,
   "base_specifiers" :
   [
    {
     "referenced_type" : "_ZTINSt3__117integral_constantIbLb1EEE"
    }
   ],
   "linker_set_key" : "_ZTIN7android11audio_utils8metadata17is_specializationINSt3__13mapINS3_12basic_stringIcNS3_11char_traitsIcEENS3_9allocatorIcEEEENS1_5DatumENS3_4lessISA_EENS8_INS3_4pairIKSA_SB_EEEEEES4_EE",
   "name" : "android::audio_utils::metadata::is_specialization<std::map<std::basic_string<char, std::char_traits<char>, std::allocator<char>>, android::audio_utils::metadata::Datum, std::less<std::basic_string<char, std::char_traits<char>, std::allocator<char>>>, std::allocator<std::pair<const std::basic_string<char, std::char_traits<char>, std::allocator<char>>, android::audio_utils::metadata::Datum>>>, std::map>",
   "referenced_type" : "_ZTIN7android11audio_utils8metadata17is_specializationINSt3__13mapINS3_12basic_stringIcNS3_11char_traitsIcEENS3_9allocatorIcEEEENS1_5DatumENS3_4lessISA_EENS8_INS3_4pairIKSA_SB_EEEEEES4_EE",
   "self_type" : "_ZTIN7android11audio_utils8metadata17is_specializationINSt3__13mapINS3_12basic_stringIcNS3_11char_traitsIcEENS3_9allocatorIcEEEENS1_5DatumENS3_4lessISA_EENS8_INS3_4pairIKSA_SB_EEEEEES4_EE",
   "size" : 1,
   "source_file" : "system/media/audio_utils/include/audio_utils/Metadata.h",
   "template_args" :
   [
    "_ZTINSt3__13mapINS_12basic_stringIcNS_11char_traitsIcEENS_9allocatorIcEEEEN7android11audio_utils8metadata5DatumENS_4lessIS6_EENS4_INS_4pairIKS6_SA_EEEEEE"
   ]
  },
  {
   "alignment" : 4,
   "base_specifiers" :
   [
    {
     "access" : "private",
     "referenced_type" : "_ZTINSt3__112basic_stringIcNS_11char_traitsIcEENS_9allocatorIcEEEE"
    }
   ],
   "linker_set_key" : "_ZTIN7android11audio_utils8metadata3KeyINS1_4DataEvEE",
   "name" : "android::audio_utils::metadata::Key<android::audio_utils::metadata::Data, void>",
   "record_kind" : "class",
   "referenced_type" : "_ZTIN7android11audio_utils8metadata3KeyINS1_4DataEvEE",
   "self_type" : "_ZTIN7android11audio_utils8metadata3KeyINS1_4DataEvEE",
   "size" : 12,
   "source_file" : "system/media/audio_utils/include/audio_utils/Metadata.h",
   "template_args" : [ "_ZTIN7android11audio_utils8metadata4DataE", "_ZTIv" ]
  },
  {
   "alignment" : 4,
   "base_specifiers" :
   [
    {
     "access" : "private",
     "referenced_type" : "_ZTINSt3__112basic_stringIcNS_11char_traitsIcEENS_9allocatorIcEEEE"
    }
   ],
   "linker_set_key" : "_ZTIN7android11audio_utils8metadata3KeyINSt3__112basic_stringIcNS3_11char_traitsIcEENS3_9allocatorIcEEEEvEE",
   "name" : "android::audio_utils::metadata::Key<std::basic_string<char, std::char_traits<char>, std::allocator<char>>, void>",
   "record_kind" : "class",
   "referenced_type" : "_ZTIN7android11audio_utils8metadata3KeyINSt3__112basic_stringIcNS3_11char_traitsIcEENS3_9allocatorIcEEEEvEE",
   "self_type" : "_ZTIN7android11audio_utils8metadata3KeyINSt3__112basic_stringIcNS3_11char_traitsIcEENS3_9allocatorIcEEEEvEE",
   "size" : 12,
   "source_file" : "system/media/audio_utils/include/audio_utils/Metadata.h",
   "template_args" :
   [
    "_ZTINSt3__112basic_stringIcNS_11char_traitsIcEENS_9allocatorIcEEEE",
    "_ZTIv"
   ]
  },
  {
   "alignment" : 4,
   "base_specifiers" :
   [
    {
     "access" : "private",
     "referenced_type" : "_ZTINSt3__112basic_stringIcNS_11char_traitsIcEENS_9allocatorIcEEEE"
    }
   ],
   "linker_set_key" : "_ZTIN7android11audio_utils8metadata3KeyIdvEE",
   "name" : "android::audio_utils::metadata::Key<double, void>",
   "record_kind" : "class",
   "referenced_type" : "_ZTIN7android11audio_utils8metadata3KeyIdvEE",
   "self_type" : "_ZTIN7android11audio_utils8metadata3KeyIdvEE",
   "size" : 12,
   "source_file" : "system/media/audio_utils/include/audio_utils/Metadata.h",
   "template_args" : [ "_ZTId", "_ZTIv" ]
  },
  {
   "alignment" : 4,
   "base_specifiers" :
   [
    {
     "access" : "private",
     "referenced_type" : "_ZTINSt3__112basic_stringIcNS_11char_traitsIcEENS_9allocatorIcEEEE"
    }
   ],
   "linker_set_key" : "_ZTIN7android11audio_utils8metadata3KeyIfvEE",
   "name" : "android::audio_utils::metadata::Key<float, void>",
   "record_kind" : "class",
   "referenced_type" : "_ZTIN7android11audio_utils8metadata3KeyIfvEE",
   "self_type" : "_ZTIN7android11audio_utils8metadata3KeyIfvEE",
   "size" : 12,
   "source_file" : "system/media/audio_utils/include/audio_utils/Metadata.h",
   "template_args" : [ "_ZTIf", "_ZTIv" ]
  },
  {
   "alignment" : 4,
   "base_specifiers" :
   [
    {
     "access" : "private",
     "referenced_type" : "_ZTINSt3__112basic_stringIcNS_11char_traitsIcEENS_9allocatorIcEEEE"
    }
   ],
   "linker_set_key" : "_ZTIN7android11audio_utils8metadata3KeyIivEE",
   "name" : "android::audio_utils::metadata::Key<int, void>",
   "record_kind" : "class",
   "referenced_type" : "_ZTIN7android11audio_utils8metadata3KeyIivEE",
   "self_type" : "_ZTIN7android11audio_utils8metadata3KeyIivEE",
   "size" : 12,
   "source_file" : "system/media/audio_utils/include/audio_utils/Metadata.h",
   "template_args" : [ "_ZTIi", "_ZTIv" ]
  },
  {
   "alignment" : 4,
   "base_specifiers" :
   [
    {
     "access" : "private",
     "referenced_type" : "_ZTINSt3__112basic_stringIcNS_11char_traitsIcEENS_9allocatorIcEEEE"
    }
   ],
   "linker_set_key" : "_ZTIN7android11audio_utils8metadata3KeyIxvEE",
   "name" : "android::audio_utils::metadata::Key<long long, void>",
   "record_kind" : "class",
   "referenced_type" : "_ZTIN7android11audio_utils8metadata3KeyIxvEE",
   "self_type" : "_ZTIN7android11audio_utils8metadata3KeyIxvEE",
   "size" : 12,
   "source_file" : "system/media/audio_utils/include/audio_utils/Metadata.h",
   "template_args" : [ "_ZTIx", "_ZTIv" ]
  },
  {
   "alignment" : 4,
   "base_specifiers" :
   [
    {
     "referenced_type" : "_ZTINSt3__13mapINS_12basic_stringIcNS_11char_traitsIcEENS_9allocatorIcEEEEN7android11audio_utils8metadata5DatumENS_4lessIS6_EENS4_INS_4pairIKS6_SA_EEEEEE"
    }
   ],
   "linker_set_key" : "_ZTIN7android11audio_utils8metadata4DataE",
   "name" : "android::audio_utils::metadata::Data",
   "record_kind" : "class",
   "referenced_type" : "_ZTIN7android11audio_utils8metadata4DataE",
   "self_type" : "_ZTIN7android11audio_utils8metadata4DataE",
   "size" : 12,
   "source_file" : "system/media/audio_utils/include/audio_utils/Metadata.h"
  },
  {
   "alignment" : 4,
   "base_specifiers" :
   [
    {
     "referenced_type" : "_ZTINSt3__13anyE"
    }
   ],
   "linker_set_key" : "_ZTIN7android11audio_utils8metadata5DatumE",
   "name" : "android::audio_utils::metadata::Datum",
   "record_kind" : "class",
   "referenced_type" : "_ZTIN7android11audio_utils8metadata5DatumE",
   "self_type" : "_ZTIN7android11audio_utils8metadata5DatumE",
   "size" : 16,
   "source_file" : "system/media/audio_utils/include/audio_utils/Metadata.h"
  },
  {
   "alignment" : 1,
   "linker_set_key" : "_ZTIN7android11audio_utils8metadata8any_typeE",
   "name" : "android::audio_utils::metadata::any_type",
   "referenced_type" : "_ZTIN7android11audio_utils8metadata8any_typeE",
   "self_type" : "_ZTIN7android11audio_utils8metadata8any_typeE",
   "size" : 1,
   "source_file" : "system/media/audio_utils/include/audio_utils/Metadata.h"
  }
 ],
 "rvalue_reference_types" :
 [
  {
   "alignment" : 4,
   "linker_set_key" : "_ZTION7android11audio_utils8metadata4DataE",
   "name" : "android::audio_utils::metadata::Data &&",
   "referenced_type" : "_ZTIN7android11audio_utils8metadata4DataE",
   "self_type" : "_ZTION7android11audio_utils8metadata4DataE",
   "size" : 4,
   "source_file" : "system/media/audio_utils/include/audio_utils/Metadata.h"
  },
  {
   "alignment" : 4,
   "linker_set_key" : "_ZTIONSt3__112basic_stringIcNS_11char_traitsIcEENS_9allocatorIcEEEE",
   "name" : "std::basic_string<char, std::char_traits<char>, std::allocator<char>> &&",
   "referenced_type" : "_ZTINSt3__112basic_stringIcNS_11char_traitsIcEENS_9allocatorIcEEEE",
   "self_type" : "_ZTIONSt3__112basic_stringIcNS_11char_traitsIcEENS_9allocatorIcEEEE",
   "size" : 4,
   "source_file" : "system/media/audio_utils/include/audio_utils/Metadata.h"
  },
  {
   "alignment" : 4,
   "linker_set_key" : "_ZTIOd",
   "name" : "double &&",
   "referenced_type" : "_ZTId",
   "self_type" : "_ZTIOd",
   "size" : 4,
   "source_file" : "system/media/audio_utils/include/audio_utils/Metadata.h"
  },
  {
   "alignment" : 4,
   "linker_set_key" : "_ZTIOf",
   "name" : "float &&",
   "referenced_type" : "_ZTIf",
   "self_type" : "_ZTIOf",
   "size" : 4,
   "source_file" : "system/media/audio_utils/include/audio_utils/Metadata.h"
  },
  {
   "alignment" : 4,
   "linker_set_key" : "_ZTIOi",
   "name" : "int &&",
   "referenced_type" : "_ZTIi",
   "self_type" : "_ZTIOi",
   "size" : 4,
   "source_file" : "system/media/audio_utils/include/audio_utils/Metadata.h"
  },
  {
   "alignment" : 4,
   "linker_set_key" : "_ZTIOx",
   "name" : "long long &&",
   "referenced_type" : "_ZTIx",
   "self_type" : "_ZTIOx",
   "size" : 4,
   "source_file" : "system/media/audio_utils/include/audio_utils/Metadata.h"
  }
 ]
}
