{
 "array_types" : [],
 "builtin_types" :
 [
  {
   "alignment" : 1,
   "is_integral" : true,
   "is_unsigned" : true,
   "linker_set_key" : "_ZTIb",
   "name" : "bool",
   "referenced_type" : "_ZTIb",
   "self_type" : "_ZTIb",
   "size" : 1
  },
  {
   "alignment" : 8,
   "is_integral" : true,
   "linker_set_key" : "_ZTIl",
   "name" : "long",
   "referenced_type" : "_ZTIl",
   "self_type" : "_ZTIl",
   "size" : 8
  },
  {
   "linker_set_key" : "_ZTIv",
   "name" : "void",
   "referenced_type" : "_ZTIv",
   "self_type" : "_ZTIv"
  }
 ],
 "elf_functions" : [],
 "elf_objects" : [],
 "enum_types" : [],
 "function_types" : [],
 "functions" :
 [
  {
   "function_name" : "aidl::android::hardware::neuralnetworks::utils::Execution::create",
   "linker_set_key" : "_ZN4aidl7android8hardware14neuralnetworks5utils9Execution6createENSt3__110shared_ptrIKNS3_13PreparedModelEEENS2_7RequestEN7android8hardware14neuralnetworks5utils17RequestRelocationEbl",
   "parameters" :
   [
    {
     "referenced_type" : "_ZTINSt3__110shared_ptrIKN4aidl7android8hardware14neuralnetworks5utils13PreparedModelEEE"
    },
    {
     "referenced_type" : "_ZTIN4aidl7android8hardware14neuralnetworks7RequestE"
    },
    {
     "referenced_type" : "_ZTIN7android8hardware14neuralnetworks5utils17RequestRelocationE"
    },
    {
     "referenced_type" : "_ZTIb"
    },
    {
     "referenced_type" : "_ZTIl"
    }
   ],
   "return_type" : "_ZTIN7android4base8expectedINSt3__110shared_ptrIKN4aidl7android8hardware14neuralnetworks5utils9ExecutionEEENS_2nn12GeneralErrorEEE",
   "source_file" : "hardware/interfaces/neuralnetworks/aidl/utils/include/nnapi/hal/aidl/Execution.h"
  },
  {
   "function_name" : "aidl::android::hardware::neuralnetworks::utils::Execution::Execution",
   "linker_set_key" : "_ZN4aidl7android8hardware14neuralnetworks5utils9ExecutionC1ENS4_21PrivateConstructorTagENSt3__110shared_ptrIKNS3_13PreparedModelEEENS2_7RequestEN7android8hardware14neuralnetworks5utils17RequestRelocationEbl",
   "parameters" :
   [
    {
     "is_this_ptr" : true,
     "referenced_type" : "_ZTIPN4aidl7android8hardware14neuralnetworks5utils9ExecutionE"
    },
    {
     "referenced_type" : "_ZTIN4aidl7android8hardware14neuralnetworks5utils9Execution21PrivateConstructorTagE"
    },
    {
     "referenced_type" : "_ZTINSt3__110shared_ptrIKN4aidl7android8hardware14neuralnetworks5utils13PreparedModelEEE"
    },
    {
     "referenced_type" : "_ZTIN4aidl7android8hardware14neuralnetworks7RequestE"
    },
    {
     "referenced_type" : "_ZTIN7android8hardware14neuralnetworks5utils17RequestRelocationE"
    },
    {
     "referenced_type" : "_ZTIb"
    },
    {
     "referenced_type" : "_ZTIl"
    }
   ],
   "return_type" : "_ZTIv",
   "source_file" : "hardware/interfaces/neuralnetworks/aidl/utils/include/nnapi/hal/aidl/Execution.h"
  },
  {
   "function_name" : "aidl::android::hardware::neuralnetworks::utils::Execution::Execution",
   "linker_set_key" : "_ZN4aidl7android8hardware14neuralnetworks5utils9ExecutionC2ENS4_21PrivateConstructorTagENSt3__110shared_ptrIKNS3_13PreparedModelEEENS2_7RequestEN7android8hardware14neuralnetworks5utils17RequestRelocationEbl",
   "parameters" :
   [
    {
     "is_this_ptr" : true,
     "referenced_type" : "_ZTIPN4aidl7android8hardware14neuralnetworks5utils9ExecutionE"
    },
    {
     "referenced_type" : "_ZTIN4aidl7android8hardware14neuralnetworks5utils9Execution21PrivateConstructorTagE"
    },
    {
     "referenced_type" : "_ZTINSt3__110shared_ptrIKN4aidl7android8hardware14neuralnetworks5utils13PreparedModelEEE"
    },
    {
     "referenced_type" : "_ZTIN4aidl7android8hardware14neuralnetworks7RequestE"
    },
    {
     "referenced_type" : "_ZTIN7android8hardware14neuralnetworks5utils17RequestRelocationE"
    },
    {
     "referenced_type" : "_ZTIb"
    },
    {
     "referenced_type" : "_ZTIl"
    }
   ],
   "return_type" : "_ZTIv",
   "source_file" : "hardware/interfaces/neuralnetworks/aidl/utils/include/nnapi/hal/aidl/Execution.h"
  },
  {
   "function_name" : "aidl::android::hardware::neuralnetworks::utils::Execution::computeFenced",
   "linker_set_key" : "_ZNK4aidl7android8hardware14neuralnetworks5utils9Execution13computeFencedERKNSt3__16vectorIN7android2nn9SyncFenceENS5_9allocatorIS9_EEEERKNS5_8optionalINS5_6chrono10time_pointINS7_4base10boot_clockENSG_8durationIxNS5_5ratioILl1ELl1000000000EEEEEEEEERKNSF_ISN_EE",
   "parameters" :
   [
    {
     "is_this_ptr" : true,
     "referenced_type" : "_ZTIPKN4aidl7android8hardware14neuralnetworks5utils9ExecutionE"
    },
    {
     "referenced_type" : "_ZTIRKNSt3__16vectorIN7android2nn9SyncFenceENS_9allocatorIS3_EEEE"
    },
    {
     "referenced_type" : "_ZTIRKNSt3__18optionalINS_6chrono10time_pointIN7android4base10boot_clockENS1_8durationIxNS_5ratioILl1ELl1000000000EEEEEEEEE"
    },
    {
     "referenced_type" : "_ZTIRKNSt3__18optionalINS_6chrono8durationIxNS_5ratioILl1ELl1000000000EEEEEEE"
    }
   ],
   "return_type" : "_ZTIN7android4base8expectedINSt3__14pairINS_2nn9SyncFenceENS2_8functionIFNS1_INS3_INS4_6TimingES7_EENS4_12GeneralErrorEEEvEEEEES9_EE",
   "source_file" : "hardware/interfaces/neuralnetworks/aidl/utils/include/nnapi/hal/aidl/Execution.h"
  },
  {
   "function_name" : "aidl::android::hardware::neuralnetworks::utils::Execution::compute",
   "linker_set_key" : "_ZNK4aidl7android8hardware14neuralnetworks5utils9Execution7computeERKNSt3__18optionalINS5_6chrono10time_pointIN7android4base10boot_clockENS7_8durationIxNS5_5ratioILl1ELl1000000000EEEEEEEEE",
   "parameters" :
   [
    {
     "is_this_ptr" : true,
     "referenced_type" : "_ZTIPKN4aidl7android8hardware14neuralnetworks5utils9ExecutionE"
    },
    {
     "referenced_type" : "_ZTIRKNSt3__18optionalINS_6chrono10time_pointIN7android4base10boot_clockENS1_8durationIxNS_5ratioILl1ELl1000000000EEEEEEEEE"
    }
   ],
   "return_type" : "_ZTIN7android4base8expectedINSt3__14pairINS2_6vectorINS_2nn11OutputShapeENS2_9allocatorIS6_EEEENS5_6TimingEEENS5_14ExecutionErrorEEE",
   "source_file" : "hardware/interfaces/neuralnetworks/aidl/utils/include/nnapi/hal/aidl/Execution.h"
  }
 ],
 "global_vars" :
 [
  {
   "linker_set_key" : "_ZN4aidl7android8hardware14neuralnetworks5utilsL16kDefaultPriorityE",
   "name" : "aidl::android::hardware::neuralnetworks::utils::kDefaultPriority",
   "referenced_type" : "_ZTIKN4aidl7android8hardware14neuralnetworks8PriorityE",
   "source_file" : "hardware/interfaces/neuralnetworks/aidl/utils/include/nnapi/hal/aidl/Utils.h"
  },
  {
   "linker_set_key" : "_ZN4aidl7android8hardware14neuralnetworks5utilsL8kVersionE",
   "name" : "aidl::android::hardware::neuralnetworks::utils::kVersion",
   "referenced_type" : "_ZTIKN7android2nn7VersionE",
   "source_file" : "hardware/interfaces/neuralnetworks/aidl/utils/include/nnapi/hal/aidl/Utils.h"
  }
 ],
 "lvalue_reference_types" :
 [
  {
   "alignment" : 8,
   "linker_set_key" : "_ZTIRKNSt3__16vectorIN7android2nn9SyncFenceENS_9allocatorIS3_EEEE",
   "name" : "const std::vector<android::nn::SyncFence, std::allocator<android::nn::SyncFence>> &",
   "referenced_type" : "_ZTIKNSt3__16vectorIN7android2nn9SyncFenceENS_9allocatorIS3_EEEE",
   "self_type" : "_ZTIRKNSt3__16vectorIN7android2nn9SyncFenceENS_9allocatorIS3_EEEE",
   "size" : 8,
   "source_file" : "hardware/interfaces/neuralnetworks/aidl/utils/include/nnapi/hal/aidl/Execution.h"
  },
  {
   "alignment" : 8,
   "linker_set_key" : "_ZTIRKNSt3__18optionalINS_6chrono10time_pointIN7android4base10boot_clockENS1_8durationIxNS_5ratioILl1ELl1000000000EEEEEEEEE",
   "name" : "const std::optional<std::chrono::time_point<android::base::boot_clock, std::chrono::duration<long long, std::ratio<1, 1000000000>>>> &",
   "referenced_type" : "_ZTIKNSt3__18optionalINS_6chrono10time_pointIN7android4base10boot_clockENS1_8durationIxNS_5ratioILl1ELl1000000000EEEEEEEEE",
   "self_type" : "_ZTIRKNSt3__18optionalINS_6chrono10time_pointIN7android4base10boot_clockENS1_8durationIxNS_5ratioILl1ELl1000000000EEEEEEEEE",
   "size" : 8,
   "source_file" : "hardware/interfaces/neuralnetworks/aidl/utils/include/nnapi/hal/aidl/Execution.h"
  },
  {
   "alignment" : 8,
   "linker_set_key" : "_ZTIRKNSt3__18optionalINS_6chrono8durationIxNS_5ratioILl1ELl1000000000EEEEEEE",
   "name" : "const std::optional<std::chrono::duration<long long, std::ratio<1, 1000000000>>> &",
   "referenced_type" : "_ZTIKNSt3__18optionalINS_6chrono8durationIxNS_5ratioILl1ELl1000000000EEEEEEE",
   "self_type" : "_ZTIRKNSt3__18optionalINS_6chrono8durationIxNS_5ratioILl1ELl1000000000EEEEEEE",
   "size" : 8,
   "source_file" : "hardware/interfaces/neuralnetworks/aidl/utils/include/nnapi/hal/aidl/Execution.h"
  }
 ],
 "pointer_types" :
 [
  {
   "alignment" : 8,
   "linker_set_key" : "_ZTIPKN4aidl7android8hardware14neuralnetworks5utils9ExecutionE",
   "name" : "const aidl::android::hardware::neuralnetworks::utils::Execution *",
   "referenced_type" : "_ZTIKN4aidl7android8hardware14neuralnetworks5utils9ExecutionE",
   "self_type" : "_ZTIPKN4aidl7android8hardware14neuralnetworks5utils9ExecutionE",
   "size" : 8,
   "source_file" : "hardware/interfaces/neuralnetworks/aidl/utils/include/nnapi/hal/aidl/Execution.h"
  },
  {
   "alignment" : 8,
   "linker_set_key" : "_ZTIPN4aidl7android8hardware14neuralnetworks5utils9ExecutionE",
   "name" : "aidl::android::hardware::neuralnetworks::utils::Execution *",
   "referenced_type" : "_ZTIN4aidl7android8hardware14neuralnetworks5utils9ExecutionE",
   "self_type" : "_ZTIPN4aidl7android8hardware14neuralnetworks5utils9ExecutionE",
   "size" : 8,
   "source_file" : "hardware/interfaces/neuralnetworks/aidl/utils/include/nnapi/hal/aidl/Execution.h"
  }
 ],
 "qualified_types" :
 [
  {
   "alignment" : 8,
   "is_const" : true,
   "linker_set_key" : "_ZTIKN4aidl7android8hardware14neuralnetworks5utils9ExecutionE",
   "name" : "const aidl::android::hardware::neuralnetworks::utils::Execution",
   "referenced_type" : "_ZTIN4aidl7android8hardware14neuralnetworks5utils9ExecutionE",
   "self_type" : "_ZTIKN4aidl7android8hardware14neuralnetworks5utils9ExecutionE",
   "size" : 144,
   "source_file" : "hardware/interfaces/neuralnetworks/aidl/utils/include/nnapi/hal/aidl/Execution.h"
  },
  {
   "alignment" : 8,
   "is_const" : true,
   "linker_set_key" : "_ZTIKN4aidl7android8hardware14neuralnetworks7RequestE",
   "name" : "const aidl::android::hardware::neuralnetworks::Request",
   "referenced_type" : "_ZTIN4aidl7android8hardware14neuralnetworks7RequestE",
   "self_type" : "_ZTIKN4aidl7android8hardware14neuralnetworks7RequestE",
   "size" : 72,
   "source_file" : "hardware/interfaces/neuralnetworks/aidl/utils/include/nnapi/hal/aidl/Execution.h"
  },
  {
   "alignment" : 4,
   "is_const" : true,
   "linker_set_key" : "_ZTIKN4aidl7android8hardware14neuralnetworks8PriorityE",
   "name" : "const aidl::android::hardware::neuralnetworks::Priority",
   "referenced_type" : "_ZTIN4aidl7android8hardware14neuralnetworks8PriorityE",
   "self_type" : "_ZTIKN4aidl7android8hardware14neuralnetworks8PriorityE",
   "size" : 4,
   "source_file" : "hardware/interfaces/neuralnetworks/aidl/utils/include/nnapi/hal/aidl/Utils.h"
  },
  {
   "alignment" : 4,
   "is_const" : true,
   "linker_set_key" : "_ZTIKN7android2nn7VersionE",
   "name" : "const android::nn::Version",
   "referenced_type" : "_ZTIN7android2nn7VersionE",
   "self_type" : "_ZTIKN7android2nn7VersionE",
   "size" : 4,
   "source_file" : "hardware/interfaces/neuralnetworks/aidl/utils/include/nnapi/hal/aidl/Utils.h"
  },
  {
   "alignment" : 8,
   "is_const" : true,
   "linker_set_key" : "_ZTIKN7android8hardware14neuralnetworks5utils17RequestRelocationE",
   "name" : "const android::hardware::neuralnetworks::utils::RequestRelocation",
   "referenced_type" : "_ZTIN7android8hardware14neuralnetworks5utils17RequestRelocationE",
   "self_type" : "_ZTIKN7android8hardware14neuralnetworks5utils17RequestRelocationE",
   "size" : 16,
   "source_file" : "hardware/interfaces/neuralnetworks/aidl/utils/include/nnapi/hal/aidl/Execution.h"
  },
  {
   "alignment" : 8,
   "is_const" : true,
   "linker_set_key" : "_ZTIKNSt3__110shared_ptrIKN4aidl7android8hardware14neuralnetworks5utils13PreparedModelEEE",
   "name" : "const std::shared_ptr<const aidl::android::hardware::neuralnetworks::utils::PreparedModel>",
   "referenced_type" : "_ZTINSt3__110shared_ptrIKN4aidl7android8hardware14neuralnetworks5utils13PreparedModelEEE",
   "self_type" : "_ZTIKNSt3__110shared_ptrIKN4aidl7android8hardware14neuralnetworks5utils13PreparedModelEEE",
   "size" : 16,
   "source_file" : "hardware/interfaces/neuralnetworks/aidl/utils/include/nnapi/hal/aidl/Execution.h"
  },
  {
   "alignment" : 8,
   "is_const" : true,
   "linker_set_key" : "_ZTIKNSt3__110shared_ptrIN4aidl7android8hardware14neuralnetworks14IPreparedModelEEE",
   "name" : "const std::shared_ptr<aidl::android::hardware::neuralnetworks::IPreparedModel>",
   "referenced_type" : "_ZTINSt3__110shared_ptrIN4aidl7android8hardware14neuralnetworks14IPreparedModelEEE",
   "self_type" : "_ZTIKNSt3__110shared_ptrIN4aidl7android8hardware14neuralnetworks14IPreparedModelEEE",
   "size" : 16,
   "source_file" : "hardware/interfaces/neuralnetworks/aidl/utils/include/nnapi/hal/aidl/PreparedModel.h"
  },
  {
   "alignment" : 8,
   "is_const" : true,
   "linker_set_key" : "_ZTIKNSt3__16vectorIN7android2nn9SyncFenceENS_9allocatorIS3_EEEE",
   "name" : "const std::vector<android::nn::SyncFence, std::allocator<android::nn::SyncFence>>",
   "referenced_type" : "_ZTINSt3__16vectorIN7android2nn9SyncFenceENS_9allocatorIS3_EEEE",
   "self_type" : "_ZTIKNSt3__16vectorIN7android2nn9SyncFenceENS_9allocatorIS3_EEEE",
   "size" : 24,
   "source_file" : "hardware/interfaces/neuralnetworks/aidl/utils/include/nnapi/hal/aidl/Execution.h"
  },
  {
   "alignment" : 8,
   "is_const" : true,
   "linker_set_key" : "_ZTIKNSt3__18optionalINS_6chrono10time_pointIN7android4base10boot_clockENS1_8durationIxNS_5ratioILl1ELl1000000000EEEEEEEEE",
   "name" : "const std::optional<std::chrono::time_point<android::base::boot_clock, std::chrono::duration<long long, std::ratio<1, 1000000000>>>>",
   "referenced_type" : "_ZTINSt3__18optionalINS_6chrono10time_pointIN7android4base10boot_clockENS1_8durationIxNS_5ratioILl1ELl1000000000EEEEEEEEE",
   "self_type" : "_ZTIKNSt3__18optionalINS_6chrono10time_pointIN7android4base10boot_clockENS1_8durationIxNS_5ratioILl1ELl1000000000EEEEEEEEE",
   "size" : 16,
   "source_file" : "hardware/interfaces/neuralnetworks/aidl/utils/include/nnapi/hal/aidl/Execution.h"
  },
  {
   "alignment" : 8,
   "is_const" : true,
   "linker_set_key" : "_ZTIKNSt3__18optionalINS_6chrono8durationIxNS_5ratioILl1ELl1000000000EEEEEEE",
   "name" : "const std::optional<std::chrono::duration<long long, std::ratio<1, 1000000000>>>",
   "referenced_type" : "_ZTINSt3__18optionalINS_6chrono8durationIxNS_5ratioILl1ELl1000000000EEEEEEE",
   "self_type" : "_ZTIKNSt3__18optionalINS_6chrono8durationIxNS_5ratioILl1ELl1000000000EEEEEEE",
   "size" : 16,
   "source_file" : "hardware/interfaces/neuralnetworks/aidl/utils/include/nnapi/hal/aidl/Execution.h"
  },
  {
   "alignment" : 1,
   "is_const" : true,
   "linker_set_key" : "_ZTIKb",
   "name" : "const bool",
   "referenced_type" : "_ZTIb",
   "self_type" : "_ZTIKb",
   "size" : 1,
   "source_file" : "hardware/interfaces/neuralnetworks/aidl/utils/include/nnapi/hal/aidl/Execution.h"
  },
  {
   "alignment" : 8,
   "is_const" : true,
   "linker_set_key" : "_ZTIKl",
   "name" : "const long",
   "referenced_type" : "_ZTIl",
   "self_type" : "_ZTIKl",
   "size" : 8,
   "source_file" : "hardware/interfaces/neuralnetworks/aidl/utils/include/nnapi/hal/aidl/Execution.h"
  }
 ],
 "record_types" :
 [
  {
   "access" : "private",
   "alignment" : 1,
   "linker_set_key" : "_ZTIN4aidl7android8hardware14neuralnetworks5utils13PreparedModel21PrivateConstructorTagE",
   "name" : "aidl::android::hardware::neuralnetworks::utils::PreparedModel::PrivateConstructorTag",
   "referenced_type" : "_ZTIN4aidl7android8hardware14neuralnetworks5utils13PreparedModel21PrivateConstructorTagE",
   "self_type" : "_ZTIN4aidl7android8hardware14neuralnetworks5utils13PreparedModel21PrivateConstructorTagE",
   "size" : 1,
   "source_file" : "hardware/interfaces/neuralnetworks/aidl/utils/include/nnapi/hal/aidl/PreparedModel.h"
  },
  {
   "alignment" : 8,
   "base_specifiers" :
   [
    {
     "referenced_type" : "_ZTIN7android2nn14IPreparedModelE"
    },
    {
     "referenced_type" : "_ZTINSt3__123enable_shared_from_thisIN4aidl7android8hardware14neuralnetworks5utils13PreparedModelEEE"
    }
   ],
   "fields" :
   [
    {
     "access" : "private",
     "field_name" : "kPreparedModel",
     "field_offset" : 192,
     "referenced_type" : "_ZTIKNSt3__110shared_ptrIN4aidl7android8hardware14neuralnetworks14IPreparedModelEEE"
    }
   ],
   "linker_set_key" : "_ZTIN4aidl7android8hardware14neuralnetworks5utils13PreparedModelE",
   "name" : "aidl::android::hardware::neuralnetworks::utils::PreparedModel",
   "record_kind" : "class",
   "referenced_type" : "_ZTIN4aidl7android8hardware14neuralnetworks5utils13PreparedModelE",
   "self_type" : "_ZTIN4aidl7android8hardware14neuralnetworks5utils13PreparedModelE",
   "size" : 40,
   "source_file" : "hardware/interfaces/neuralnetworks/aidl/utils/include/nnapi/hal/aidl/PreparedModel.h",
   "vtable_components" :
   [
    {
     "kind" : "offset_to_top"
    },
    {
     "kind" : "rtti",
     "mangled_component_name" : "_ZTIN4aidl7android8hardware14neuralnetworks5utils13PreparedModelE"
    },
    {
     "mangled_component_name" : "_ZNK4aidl7android8hardware14neuralnetworks5utils13PreparedModel7executeERKN7android2nn7RequestENS6_13MeasureTimingERKNSt3__18optionalINSB_6chrono10time_pointINS5_4base10boot_clockENSD_8durationIxNSB_5ratioILl1ELl1000000000EEEEEEEEERKNSC_ISK_EE"
    },
    {
     "mangled_component_name" : "_ZNK4aidl7android8hardware14neuralnetworks5utils13PreparedModel13executeFencedERKN7android2nn7RequestERKNSt3__16vectorINS6_9SyncFenceENSA_9allocatorISC_EEEENS6_13MeasureTimingERKNSA_8optionalINSA_6chrono10time_pointINS5_4base10boot_clockENSK_8durationIxNSA_5ratioILl1ELl1000000000EEEEEEEEERKNSJ_ISR_EESY_"
    },
    {
     "mangled_component_name" : "_ZNK4aidl7android8hardware14neuralnetworks5utils13PreparedModel23createReusableExecutionERKN7android2nn7RequestENS6_13MeasureTimingERKNSt3__18optionalINSB_6chrono8durationIxNSB_5ratioILl1ELl1000000000EEEEEEE"
    },
    {
     "mangled_component_name" : "_ZNK4aidl7android8hardware14neuralnetworks5utils13PreparedModel23configureExecutionBurstEv"
    },
    {
     "mangled_component_name" : "_ZNK4aidl7android8hardware14neuralnetworks5utils13PreparedModel21getUnderlyingResourceEv"
    },
    {
     "kind" : "complete_dtor_pointer",
     "mangled_component_name" : "_ZN4aidl7android8hardware14neuralnetworks5utils13PreparedModelD1Ev"
    },
    {
     "kind" : "deleting_dtor_pointer",
     "mangled_component_name" : "_ZN4aidl7android8hardware14neuralnetworks5utils13PreparedModelD0Ev"
    }
   ]
  },
  {
   "access" : "private",
   "alignment" : 1,
   "linker_set_key" : "_ZTIN4aidl7android8hardware14neuralnetworks5utils9Execution21PrivateConstructorTagE",
   "name" : "aidl::android::hardware::neuralnetworks::utils::Execution::PrivateConstructorTag",
   "referenced_type" : "_ZTIN4aidl7android8hardware14neuralnetworks5utils9Execution21PrivateConstructorTagE",
   "self_type" : "_ZTIN4aidl7android8hardware14neuralnetworks5utils9Execution21PrivateConstructorTagE",
   "size" : 1,
   "source_file" : "hardware/interfaces/neuralnetworks/aidl/utils/include/nnapi/hal/aidl/Execution.h"
  },
  {
   "alignment" : 8,
   "base_specifiers" :
   [
    {
     "referenced_type" : "_ZTIN7android2nn10IExecutionE"
    },
    {
     "referenced_type" : "_ZTINSt3__123enable_shared_from_thisIN4aidl7android8hardware14neuralnetworks5utils9ExecutionEEE"
    }
   ],
   "fields" :
   [
    {
     "access" : "private",
     "field_name" : "kPreparedModel",
     "field_offset" : 192,
     "referenced_type" : "_ZTIKNSt3__110shared_ptrIKN4aidl7android8hardware14neuralnetworks5utils13PreparedModelEEE"
    },
    {
     "access" : "private",
     "field_name" : "kRequest",
     "field_offset" : 320,
     "referenced_type" : "_ZTIKN4aidl7android8hardware14neuralnetworks7RequestE"
    },
    {
     "access" : "private",
     "field_name" : "kRelocation",
     "field_offset" : 896,
     "referenced_type" : "_ZTIKN7android8hardware14neuralnetworks5utils17RequestRelocationE"
    },
    {
     "access" : "private",
     "field_name" : "kMeasure",
     "field_offset" : 1024,
     "referenced_type" : "_ZTIKb"
    },
    {
     "access" : "private",
     "field_name" : "kLoopTimeoutDuration",
     "field_offset" : 1088,
     "referenced_type" : "_ZTIKl"
    }
   ],
   "linker_set_key" : "_ZTIN4aidl7android8hardware14neuralnetworks5utils9ExecutionE",
   "name" : "aidl::android::hardware::neuralnetworks::utils::Execution",
   "record_kind" : "class",
   "referenced_type" : "_ZTIN4aidl7android8hardware14neuralnetworks5utils9ExecutionE",
   "self_type" : "_ZTIN4aidl7android8hardware14neuralnetworks5utils9ExecutionE",
   "size" : 144,
   "source_file" : "hardware/interfaces/neuralnetworks/aidl/utils/include/nnapi/hal/aidl/Execution.h",
   "vtable_components" :
   [
    {
     "kind" : "offset_to_top"
    },
    {
     "kind" : "rtti",
     "mangled_component_name" : "_ZTIN4aidl7android8hardware14neuralnetworks5utils9ExecutionE"
    },
    {
     "mangled_component_name" : "_ZNK4aidl7android8hardware14neuralnetworks5utils9Execution7computeERKNSt3__18optionalINS5_6chrono10time_pointIN7android4base10boot_clockENS7_8durationIxNS5_5ratioILl1ELl1000000000EEEEEEEEE"
    },
    {
     "mangled_component_name" : "_ZNK4aidl7android8hardware14neuralnetworks5utils9Execution13computeFencedERKNSt3__16vectorIN7android2nn9SyncFenceENS5_9allocatorIS9_EEEERKNS5_8optionalINS5_6chrono10time_pointINS7_4base10boot_clockENSG_8durationIxNS5_5ratioILl1ELl1000000000EEEEEEEEERKNSF_ISN_EE"
    },
    {
     "kind" : "complete_dtor_pointer",
     "mangled_component_name" : "_ZN4aidl7android8hardware14neuralnetworks5utils9ExecutionD1Ev"
    },
    {
     "kind" : "deleting_dtor_pointer",
     "mangled_component_name" : "_ZN4aidl7android8hardware14neuralnetworks5utils9ExecutionD0Ev"
    }
   ]
  }
 ],
 "rvalue_reference_types" : []
}
