{
 "array_types" : [],
 "builtin_types" :
 [
  {
   "alignment" : 1,
   "is_integral" : true,
   "is_unsigned" : true,
   "linker_set_key" : "_ZTIb",
   "name" : "bool",
   "referenced_type" : "_ZTIb",
   "self_type" : "_ZTIb",
   "size" : 1
  },
  {
   "alignment" : 1,
   "is_integral" : true,
   "is_unsigned" : true,
   "linker_set_key" : "_ZTIc",
   "name" : "char",
   "referenced_type" : "_ZTIc",
   "self_type" : "_ZTIc",
   "size" : 1
  },
  {
   "alignment" : 4,
   "is_integral" : true,
   "linker_set_key" : "_ZTIi",
   "name" : "int",
   "referenced_type" : "_ZTIi",
   "self_type" : "_ZTIi",
   "size" : 4
  },
  {
   "alignment" : 4,
   "is_integral" : true,
   "is_unsigned" : true,
   "linker_set_key" : "_ZTIj",
   "name" : "unsigned int",
   "referenced_type" : "_ZTIj",
   "self_type" : "_ZTIj",
   "size" : 4
  },
  {
   "alignment" : 8,
   "is_integral" : true,
   "linker_set_key" : "_ZTIl",
   "name" : "long",
   "referenced_type" : "_ZTIl",
   "self_type" : "_ZTIl",
   "size" : 8
  },
  {
   "alignment" : 8,
   "is_integral" : true,
   "is_unsigned" : true,
   "linker_set_key" : "_ZTIm",
   "name" : "unsigned long",
   "referenced_type" : "_ZTIm",
   "self_type" : "_ZTIm",
   "size" : 8
  },
  {
   "alignment" : 2,
   "is_integral" : true,
   "is_unsigned" : true,
   "linker_set_key" : "_ZTIt",
   "name" : "unsigned short",
   "referenced_type" : "_ZTIt",
   "self_type" : "_ZTIt",
   "size" : 2
  },
  {
   "linker_set_key" : "_ZTIv",
   "name" : "void",
   "referenced_type" : "_ZTIv",
   "self_type" : "_ZTIv"
  }
 ],
 "elf_functions" : [],
 "elf_objects" : [],
 "enum_types" :
 [
  {
   "alignment" : 4,
   "enum_fields" :
   [
    {
     "enum_field_value" : 0,
     "name" : "google::protobuf::LOGLEVEL_INFO"
    },
    {
     "enum_field_value" : 1,
     "name" : "google::protobuf::LOGLEVEL_WARNING"
    },
    {
     "enum_field_value" : 2,
     "name" : "google::protobuf::LOGLEVEL_ERROR"
    },
    {
     "enum_field_value" : 3,
     "name" : "google::protobuf::LOGLEVEL_FATAL"
    },
    {
     "enum_field_value" : 2,
     "name" : "google::protobuf::LOGLEVEL_DFATAL"
    }
   ],
   "linker_set_key" : "_ZTIN6google8protobuf8LogLevelE",
   "name" : "google::protobuf::LogLevel",
   "referenced_type" : "_ZTIN6google8protobuf8LogLevelE",
   "self_type" : "_ZTIN6google8protobuf8LogLevelE",
   "size" : 4,
   "source_file" : "external/protobuf/src/google/protobuf/stubs/logging.h",
   "underlying_type" : "_ZTIj"
  }
 ],
 "function_types" : [],
 "functions" :
 [
  {
   "function_name" : "google::protobuf::StringPiece::remove_prefix",
   "linker_set_key" : "_ZN6google8protobuf11StringPiece13remove_prefixEl",
   "parameters" :
   [
    {
     "is_this_ptr" : true,
     "referenced_type" : "_ZTIPN6google8protobuf11StringPieceE"
    },
    {
     "referenced_type" : "_ZTIl"
    }
   ],
   "return_type" : "_ZTIv",
   "source_file" : "external/protobuf/src/google/protobuf/stubs/stringpiece.h"
  },
  {
   "function_name" : "google::protobuf::StringPiece::remove_suffix",
   "linker_set_key" : "_ZN6google8protobuf11StringPiece13remove_suffixEl",
   "parameters" :
   [
    {
     "is_this_ptr" : true,
     "referenced_type" : "_ZTIPN6google8protobuf11StringPieceE"
    },
    {
     "referenced_type" : "_ZTIl"
    }
   ],
   "return_type" : "_ZTIv",
   "source_file" : "external/protobuf/src/google/protobuf/stubs/stringpiece.h"
  },
  {
   "access" : "private",
   "function_name" : "google::protobuf::StringPiece::CheckedSsizeTFromSizeT",
   "linker_set_key" : "_ZN6google8protobuf11StringPiece22CheckedSsizeTFromSizeTEm",
   "parameters" :
   [
    {
     "referenced_type" : "_ZTIm"
    }
   ],
   "return_type" : "_ZTIl",
   "source_file" : "external/protobuf/src/google/protobuf/stubs/stringpiece.h"
  },
  {
   "function_name" : "google::protobuf::StringPiece::set",
   "linker_set_key" : "_ZN6google8protobuf11StringPiece3setEPKc",
   "parameters" :
   [
    {
     "is_this_ptr" : true,
     "referenced_type" : "_ZTIPN6google8protobuf11StringPieceE"
    },
    {
     "referenced_type" : "_ZTIPKc"
    }
   ],
   "return_type" : "_ZTIv",
   "source_file" : "external/protobuf/src/google/protobuf/stubs/stringpiece.h"
  },
  {
   "function_name" : "google::protobuf::StringPiece::set",
   "linker_set_key" : "_ZN6google8protobuf11StringPiece3setEPKcl",
   "parameters" :
   [
    {
     "is_this_ptr" : true,
     "referenced_type" : "_ZTIPN6google8protobuf11StringPieceE"
    },
    {
     "referenced_type" : "_ZTIPKc"
    },
    {
     "referenced_type" : "_ZTIl"
    }
   ],
   "return_type" : "_ZTIv",
   "source_file" : "external/protobuf/src/google/protobuf/stubs/stringpiece.h"
  },
  {
   "function_name" : "google::protobuf::StringPiece::set",
   "linker_set_key" : "_ZN6google8protobuf11StringPiece3setEPKvl",
   "parameters" :
   [
    {
     "is_this_ptr" : true,
     "referenced_type" : "_ZTIPN6google8protobuf11StringPieceE"
    },
    {
     "referenced_type" : "_ZTIPKv"
    },
    {
     "referenced_type" : "_ZTIl"
    }
   ],
   "return_type" : "_ZTIv",
   "source_file" : "external/protobuf/src/google/protobuf/stubs/stringpiece.h"
  },
  {
   "function_name" : "google::protobuf::StringPiece::clear",
   "linker_set_key" : "_ZN6google8protobuf11StringPiece5clearEv",
   "parameters" :
   [
    {
     "is_this_ptr" : true,
     "referenced_type" : "_ZTIPN6google8protobuf11StringPieceE"
    }
   ],
   "return_type" : "_ZTIv",
   "source_file" : "external/protobuf/src/google/protobuf/stubs/stringpiece.h"
  },
  {
   "function_name" : "google::protobuf::StringPiece::StringPiece",
   "linker_set_key" : "_ZN6google8protobuf11StringPieceC1EPKc",
   "parameters" :
   [
    {
     "is_this_ptr" : true,
     "referenced_type" : "_ZTIPN6google8protobuf11StringPieceE"
    },
    {
     "referenced_type" : "_ZTIPKc"
    }
   ],
   "return_type" : "_ZTIv",
   "source_file" : "external/protobuf/src/google/protobuf/stubs/stringpiece.h"
  },
  {
   "function_name" : "google::protobuf::StringPiece::StringPiece",
   "linker_set_key" : "_ZN6google8protobuf11StringPieceC1EPKcl",
   "parameters" :
   [
    {
     "is_this_ptr" : true,
     "referenced_type" : "_ZTIPN6google8protobuf11StringPieceE"
    },
    {
     "referenced_type" : "_ZTIPKc"
    },
    {
     "referenced_type" : "_ZTIl"
    }
   ],
   "return_type" : "_ZTIv",
   "source_file" : "external/protobuf/src/google/protobuf/stubs/stringpiece.h"
  },
  {
   "function_name" : "google::protobuf::StringPiece::StringPiece",
   "linker_set_key" : "_ZN6google8protobuf11StringPieceC1Ev",
   "parameters" :
   [
    {
     "is_this_ptr" : true,
     "referenced_type" : "_ZTIPN6google8protobuf11StringPieceE"
    }
   ],
   "return_type" : "_ZTIv",
   "source_file" : "external/protobuf/src/google/protobuf/stubs/stringpiece.h"
  },
  {
   "function_name" : "google::protobuf::StringPiece::StringPiece",
   "linker_set_key" : "_ZN6google8protobuf11StringPieceC2EPKc",
   "parameters" :
   [
    {
     "is_this_ptr" : true,
     "referenced_type" : "_ZTIPN6google8protobuf11StringPieceE"
    },
    {
     "referenced_type" : "_ZTIPKc"
    }
   ],
   "return_type" : "_ZTIv",
   "source_file" : "external/protobuf/src/google/protobuf/stubs/stringpiece.h"
  },
  {
   "function_name" : "google::protobuf::StringPiece::StringPiece",
   "linker_set_key" : "_ZN6google8protobuf11StringPieceC2EPKcl",
   "parameters" :
   [
    {
     "is_this_ptr" : true,
     "referenced_type" : "_ZTIPN6google8protobuf11StringPieceE"
    },
    {
     "referenced_type" : "_ZTIPKc"
    },
    {
     "referenced_type" : "_ZTIl"
    }
   ],
   "return_type" : "_ZTIv",
   "source_file" : "external/protobuf/src/google/protobuf/stubs/stringpiece.h"
  },
  {
   "function_name" : "google::protobuf::StringPiece::StringPiece",
   "linker_set_key" : "_ZN6google8protobuf11StringPieceC2Ev",
   "parameters" :
   [
    {
     "is_this_ptr" : true,
     "referenced_type" : "_ZTIPN6google8protobuf11StringPieceE"
    }
   ],
   "return_type" : "_ZTIv",
   "source_file" : "external/protobuf/src/google/protobuf/stubs/stringpiece.h"
  },
  {
   "function_name" : "google::protobuf::GOOGLE_UNALIGNED_LOAD16",
   "linker_set_key" : "_ZN6google8protobuf23GOOGLE_UNALIGNED_LOAD16EPKv",
   "parameters" :
   [
    {
     "referenced_type" : "_ZTIPKv"
    }
   ],
   "return_type" : "_ZTIt",
   "source_file" : "external/protobuf/src/google/protobuf/stubs/port.h"
  },
  {
   "function_name" : "google::protobuf::GOOGLE_UNALIGNED_LOAD32",
   "linker_set_key" : "_ZN6google8protobuf23GOOGLE_UNALIGNED_LOAD32EPKv",
   "parameters" :
   [
    {
     "referenced_type" : "_ZTIPKv"
    }
   ],
   "return_type" : "_ZTIj",
   "source_file" : "external/protobuf/src/google/protobuf/stubs/port.h"
  },
  {
   "function_name" : "google::protobuf::GOOGLE_UNALIGNED_LOAD64",
   "linker_set_key" : "_ZN6google8protobuf23GOOGLE_UNALIGNED_LOAD64EPKv",
   "parameters" :
   [
    {
     "referenced_type" : "_ZTIPKv"
    }
   ],
   "return_type" : "_ZTIm",
   "source_file" : "external/protobuf/src/google/protobuf/stubs/port.h"
  },
  {
   "function_name" : "google::protobuf::GOOGLE_UNALIGNED_STORE16",
   "linker_set_key" : "_ZN6google8protobuf24GOOGLE_UNALIGNED_STORE16EPvt",
   "parameters" :
   [
    {
     "referenced_type" : "_ZTIPv"
    },
    {
     "referenced_type" : "_ZTIt"
    }
   ],
   "return_type" : "_ZTIv",
   "source_file" : "external/protobuf/src/google/protobuf/stubs/port.h"
  },
  {
   "function_name" : "google::protobuf::GOOGLE_UNALIGNED_STORE32",
   "linker_set_key" : "_ZN6google8protobuf24GOOGLE_UNALIGNED_STORE32EPvj",
   "parameters" :
   [
    {
     "referenced_type" : "_ZTIPv"
    },
    {
     "referenced_type" : "_ZTIj"
    }
   ],
   "return_type" : "_ZTIv",
   "source_file" : "external/protobuf/src/google/protobuf/stubs/port.h"
  },
  {
   "function_name" : "google::protobuf::GOOGLE_UNALIGNED_STORE64",
   "linker_set_key" : "_ZN6google8protobuf24GOOGLE_UNALIGNED_STORE64EPvm",
   "parameters" :
   [
    {
     "referenced_type" : "_ZTIPv"
    },
    {
     "referenced_type" : "_ZTIm"
    }
   ],
   "return_type" : "_ZTIv",
   "source_file" : "external/protobuf/src/google/protobuf/stubs/port.h"
  },
  {
   "function_name" : "google::protobuf::Bits::Log2FloorNonZero",
   "linker_set_key" : "_ZN6google8protobuf4Bits16Log2FloorNonZeroEj",
   "parameters" :
   [
    {
     "referenced_type" : "_ZTIj"
    }
   ],
   "return_type" : "_ZTIj",
   "source_file" : "external/protobuf/src/google/protobuf/stubs/port.h"
  },
  {
   "function_name" : "google::protobuf::Bits::Log2FloorNonZero64",
   "linker_set_key" : "_ZN6google8protobuf4Bits18Log2FloorNonZero64Em",
   "parameters" :
   [
    {
     "referenced_type" : "_ZTIm"
    }
   ],
   "return_type" : "_ZTIj",
   "source_file" : "external/protobuf/src/google/protobuf/stubs/port.h"
  },
  {
   "access" : "private",
   "function_name" : "google::protobuf::Bits::Log2FloorNonZero_Portable",
   "linker_set_key" : "_ZN6google8protobuf4Bits25Log2FloorNonZero_PortableEj",
   "parameters" :
   [
    {
     "referenced_type" : "_ZTIj"
    }
   ],
   "return_type" : "_ZTIi",
   "source_file" : "external/protobuf/src/google/protobuf/stubs/port.h"
  },
  {
   "access" : "private",
   "function_name" : "google::protobuf::Bits::Log2FloorNonZero64_Portable",
   "linker_set_key" : "_ZN6google8protobuf4Bits27Log2FloorNonZero64_PortableEm",
   "parameters" :
   [
    {
     "referenced_type" : "_ZTIm"
    }
   ],
   "return_type" : "_ZTIi",
   "source_file" : "external/protobuf/src/google/protobuf/stubs/port.h"
  },
  {
   "function_name" : "google::protobuf::strings::ByteSource::CopyTo",
   "linker_set_key" : "_ZN6google8protobuf7strings10ByteSource6CopyToEPNS1_8ByteSinkEm",
   "parameters" :
   [
    {
     "is_this_ptr" : true,
     "referenced_type" : "_ZTIPN6google8protobuf7strings10ByteSourceE"
    },
    {
     "referenced_type" : "_ZTIPN6google8protobuf7strings8ByteSinkE"
    },
    {
     "referenced_type" : "_ZTIm"
    }
   ],
   "return_type" : "_ZTIv",
   "source_file" : "external/protobuf/src/google/protobuf/stubs/bytestream.h"
  },
  {
   "function_name" : "google::protobuf::strings::ByteSource::ByteSource",
   "linker_set_key" : "_ZN6google8protobuf7strings10ByteSourceC2Ev",
   "parameters" :
   [
    {
     "is_this_ptr" : true,
     "referenced_type" : "_ZTIPN6google8protobuf7strings10ByteSourceE"
    }
   ],
   "return_type" : "_ZTIv",
   "source_file" : "external/protobuf/src/google/protobuf/stubs/bytestream.h"
  },
  {
   "function_name" : "google::protobuf::strings::ByteSource::~ByteSource",
   "linker_set_key" : "_ZN6google8protobuf7strings10ByteSourceD0Ev",
   "parameters" :
   [
    {
     "is_this_ptr" : true,
     "referenced_type" : "_ZTIPN6google8protobuf7strings10ByteSourceE"
    }
   ],
   "return_type" : "_ZTIv",
   "source_file" : "external/protobuf/src/google/protobuf/stubs/bytestream.h"
  },
  {
   "function_name" : "google::protobuf::strings::ByteSource::~ByteSource",
   "linker_set_key" : "_ZN6google8protobuf7strings10ByteSourceD1Ev",
   "parameters" :
   [
    {
     "is_this_ptr" : true,
     "referenced_type" : "_ZTIPN6google8protobuf7strings10ByteSourceE"
    }
   ],
   "return_type" : "_ZTIv",
   "source_file" : "external/protobuf/src/google/protobuf/stubs/bytestream.h"
  },
  {
   "function_name" : "google::protobuf::strings::ByteSource::~ByteSource",
   "linker_set_key" : "_ZN6google8protobuf7strings10ByteSourceD2Ev",
   "parameters" :
   [
    {
     "is_this_ptr" : true,
     "referenced_type" : "_ZTIPN6google8protobuf7strings10ByteSourceE"
    }
   ],
   "return_type" : "_ZTIv",
   "source_file" : "external/protobuf/src/google/protobuf/stubs/bytestream.h"
  },
  {
   "function_name" : "google::protobuf::strings::NullByteSink::Append",
   "linker_set_key" : "_ZN6google8protobuf7strings12NullByteSink6AppendEPKcm",
   "parameters" :
   [
    {
     "is_this_ptr" : true,
     "referenced_type" : "_ZTIPN6google8protobuf7strings12NullByteSinkE"
    },
    {
     "referenced_type" : "_ZTIPKc"
    },
    {
     "referenced_type" : "_ZTIm"
    }
   ],
   "return_type" : "_ZTIv",
   "source_file" : "external/protobuf/src/google/protobuf/stubs/bytestream.h"
  },
  {
   "function_name" : "google::protobuf::strings::NullByteSink::NullByteSink",
   "linker_set_key" : "_ZN6google8protobuf7strings12NullByteSinkC1Ev",
   "parameters" :
   [
    {
     "is_this_ptr" : true,
     "referenced_type" : "_ZTIPN6google8protobuf7strings12NullByteSinkE"
    }
   ],
   "return_type" : "_ZTIv",
   "source_file" : "external/protobuf/src/google/protobuf/stubs/bytestream.h"
  },
  {
   "function_name" : "google::protobuf::strings::NullByteSink::NullByteSink",
   "linker_set_key" : "_ZN6google8protobuf7strings12NullByteSinkC2Ev",
   "parameters" :
   [
    {
     "is_this_ptr" : true,
     "referenced_type" : "_ZTIPN6google8protobuf7strings12NullByteSinkE"
    }
   ],
   "return_type" : "_ZTIv",
   "source_file" : "external/protobuf/src/google/protobuf/stubs/bytestream.h"
  },
  {
   "function_name" : "google::protobuf::strings::StringByteSink::Append",
   "linker_set_key" : "_ZN6google8protobuf7strings14StringByteSink6AppendEPKcm",
   "parameters" :
   [
    {
     "is_this_ptr" : true,
     "referenced_type" : "_ZTIPN6google8protobuf7strings14StringByteSinkE"
    },
    {
     "referenced_type" : "_ZTIPKc"
    },
    {
     "referenced_type" : "_ZTIm"
    }
   ],
   "return_type" : "_ZTIv",
   "source_file" : "external/protobuf/src/google/protobuf/stubs/bytestream.h"
  },
  {
   "function_name" : "google::protobuf::strings::StringByteSink::StringByteSink",
   "linker_set_key" : "_ZN6google8protobuf7strings14StringByteSinkC1EPNSt3__112basic_stringIcNS3_11char_traitsIcEENS3_9allocatorIcEEEE",
   "parameters" :
   [
    {
     "is_this_ptr" : true,
     "referenced_type" : "_ZTIPN6google8protobuf7strings14StringByteSinkE"
    },
    {
     "referenced_type" : "_ZTIPNSt3__112basic_stringIcNS_11char_traitsIcEENS_9allocatorIcEEEE"
    }
   ],
   "return_type" : "_ZTIv",
   "source_file" : "external/protobuf/src/google/protobuf/stubs/bytestream.h"
  },
  {
   "function_name" : "google::protobuf::strings::StringByteSink::StringByteSink",
   "linker_set_key" : "_ZN6google8protobuf7strings14StringByteSinkC2EPNSt3__112basic_stringIcNS3_11char_traitsIcEENS3_9allocatorIcEEEE",
   "parameters" :
   [
    {
     "is_this_ptr" : true,
     "referenced_type" : "_ZTIPN6google8protobuf7strings14StringByteSinkE"
    },
    {
     "referenced_type" : "_ZTIPNSt3__112basic_stringIcNS_11char_traitsIcEENS_9allocatorIcEEEE"
    }
   ],
   "return_type" : "_ZTIv",
   "source_file" : "external/protobuf/src/google/protobuf/stubs/bytestream.h"
  },
  {
   "function_name" : "google::protobuf::strings::ArrayByteSource::Peek",
   "linker_set_key" : "_ZN6google8protobuf7strings15ArrayByteSource4PeekEv",
   "parameters" :
   [
    {
     "is_this_ptr" : true,
     "referenced_type" : "_ZTIPN6google8protobuf7strings15ArrayByteSourceE"
    }
   ],
   "return_type" : "_ZTIN6google8protobuf11StringPieceE",
   "source_file" : "external/protobuf/src/google/protobuf/stubs/bytestream.h"
  },
  {
   "function_name" : "google::protobuf::strings::ArrayByteSource::Skip",
   "linker_set_key" : "_ZN6google8protobuf7strings15ArrayByteSource4SkipEm",
   "parameters" :
   [
    {
     "is_this_ptr" : true,
     "referenced_type" : "_ZTIPN6google8protobuf7strings15ArrayByteSourceE"
    },
    {
     "referenced_type" : "_ZTIm"
    }
   ],
   "return_type" : "_ZTIv",
   "source_file" : "external/protobuf/src/google/protobuf/stubs/bytestream.h"
  },
  {
   "function_name" : "google::protobuf::strings::ArrayByteSource::ArrayByteSource",
   "linker_set_key" : "_ZN6google8protobuf7strings15ArrayByteSourceC1ENS0_11StringPieceE",
   "parameters" :
   [
    {
     "is_this_ptr" : true,
     "referenced_type" : "_ZTIPN6google8protobuf7strings15ArrayByteSourceE"
    },
    {
     "referenced_type" : "_ZTIN6google8protobuf11StringPieceE"
    }
   ],
   "return_type" : "_ZTIv",
   "source_file" : "external/protobuf/src/google/protobuf/stubs/bytestream.h"
  },
  {
   "function_name" : "google::protobuf::strings::ArrayByteSource::ArrayByteSource",
   "linker_set_key" : "_ZN6google8protobuf7strings15ArrayByteSourceC2ENS0_11StringPieceE",
   "parameters" :
   [
    {
     "is_this_ptr" : true,
     "referenced_type" : "_ZTIPN6google8protobuf7strings15ArrayByteSourceE"
    },
    {
     "referenced_type" : "_ZTIN6google8protobuf11StringPieceE"
    }
   ],
   "return_type" : "_ZTIv",
   "source_file" : "external/protobuf/src/google/protobuf/stubs/bytestream.h"
  },
  {
   "function_name" : "google::protobuf::strings::LimitByteSource::Peek",
   "linker_set_key" : "_ZN6google8protobuf7strings15LimitByteSource4PeekEv",
   "parameters" :
   [
    {
     "is_this_ptr" : true,
     "referenced_type" : "_ZTIPN6google8protobuf7strings15LimitByteSourceE"
    }
   ],
   "return_type" : "_ZTIN6google8protobuf11StringPieceE",
   "source_file" : "external/protobuf/src/google/protobuf/stubs/bytestream.h"
  },
  {
   "function_name" : "google::protobuf::strings::LimitByteSource::Skip",
   "linker_set_key" : "_ZN6google8protobuf7strings15LimitByteSource4SkipEm",
   "parameters" :
   [
    {
     "is_this_ptr" : true,
     "referenced_type" : "_ZTIPN6google8protobuf7strings15LimitByteSourceE"
    },
    {
     "referenced_type" : "_ZTIm"
    }
   ],
   "return_type" : "_ZTIv",
   "source_file" : "external/protobuf/src/google/protobuf/stubs/bytestream.h"
  },
  {
   "function_name" : "google::protobuf::strings::LimitByteSource::CopyTo",
   "linker_set_key" : "_ZN6google8protobuf7strings15LimitByteSource6CopyToEPNS1_8ByteSinkEm",
   "parameters" :
   [
    {
     "is_this_ptr" : true,
     "referenced_type" : "_ZTIPN6google8protobuf7strings15LimitByteSourceE"
    },
    {
     "referenced_type" : "_ZTIPN6google8protobuf7strings8ByteSinkE"
    },
    {
     "referenced_type" : "_ZTIm"
    }
   ],
   "return_type" : "_ZTIv",
   "source_file" : "external/protobuf/src/google/protobuf/stubs/bytestream.h"
  },
  {
   "function_name" : "google::protobuf::strings::LimitByteSource::LimitByteSource",
   "linker_set_key" : "_ZN6google8protobuf7strings15LimitByteSourceC1EPNS1_10ByteSourceEm",
   "parameters" :
   [
    {
     "is_this_ptr" : true,
     "referenced_type" : "_ZTIPN6google8protobuf7strings15LimitByteSourceE"
    },
    {
     "referenced_type" : "_ZTIPN6google8protobuf7strings10ByteSourceE"
    },
    {
     "referenced_type" : "_ZTIm"
    }
   ],
   "return_type" : "_ZTIv",
   "source_file" : "external/protobuf/src/google/protobuf/stubs/bytestream.h"
  },
  {
   "function_name" : "google::protobuf::strings::LimitByteSource::LimitByteSource",
   "linker_set_key" : "_ZN6google8protobuf7strings15LimitByteSourceC2EPNS1_10ByteSourceEm",
   "parameters" :
   [
    {
     "is_this_ptr" : true,
     "referenced_type" : "_ZTIPN6google8protobuf7strings15LimitByteSourceE"
    },
    {
     "referenced_type" : "_ZTIPN6google8protobuf7strings10ByteSourceE"
    },
    {
     "referenced_type" : "_ZTIm"
    }
   ],
   "return_type" : "_ZTIv",
   "source_file" : "external/protobuf/src/google/protobuf/stubs/bytestream.h"
  },
  {
   "function_name" : "google::protobuf::strings::CheckedArrayByteSink::Append",
   "linker_set_key" : "_ZN6google8protobuf7strings20CheckedArrayByteSink6AppendEPKcm",
   "parameters" :
   [
    {
     "is_this_ptr" : true,
     "referenced_type" : "_ZTIPN6google8protobuf7strings20CheckedArrayByteSinkE"
    },
    {
     "referenced_type" : "_ZTIPKc"
    },
    {
     "referenced_type" : "_ZTIm"
    }
   ],
   "return_type" : "_ZTIv",
   "source_file" : "external/protobuf/src/google/protobuf/stubs/bytestream.h"
  },
  {
   "function_name" : "google::protobuf::strings::CheckedArrayByteSink::CheckedArrayByteSink",
   "linker_set_key" : "_ZN6google8protobuf7strings20CheckedArrayByteSinkC1EPcm",
   "parameters" :
   [
    {
     "is_this_ptr" : true,
     "referenced_type" : "_ZTIPN6google8protobuf7strings20CheckedArrayByteSinkE"
    },
    {
     "referenced_type" : "_ZTIPc"
    },
    {
     "referenced_type" : "_ZTIm"
    }
   ],
   "return_type" : "_ZTIv",
   "source_file" : "external/protobuf/src/google/protobuf/stubs/bytestream.h"
  },
  {
   "function_name" : "google::protobuf::strings::CheckedArrayByteSink::CheckedArrayByteSink",
   "linker_set_key" : "_ZN6google8protobuf7strings20CheckedArrayByteSinkC2EPcm",
   "parameters" :
   [
    {
     "is_this_ptr" : true,
     "referenced_type" : "_ZTIPN6google8protobuf7strings20CheckedArrayByteSinkE"
    },
    {
     "referenced_type" : "_ZTIPc"
    },
    {
     "referenced_type" : "_ZTIm"
    }
   ],
   "return_type" : "_ZTIv",
   "source_file" : "external/protobuf/src/google/protobuf/stubs/bytestream.h"
  },
  {
   "access" : "private",
   "function_name" : "google::protobuf::strings::GrowingArrayByteSink::ShrinkToFit",
   "linker_set_key" : "_ZN6google8protobuf7strings20GrowingArrayByteSink11ShrinkToFitEv",
   "parameters" :
   [
    {
     "is_this_ptr" : true,
     "referenced_type" : "_ZTIPN6google8protobuf7strings20GrowingArrayByteSinkE"
    }
   ],
   "return_type" : "_ZTIv",
   "source_file" : "external/protobuf/src/google/protobuf/stubs/bytestream.h"
  },
  {
   "function_name" : "google::protobuf::strings::GrowingArrayByteSink::Append",
   "linker_set_key" : "_ZN6google8protobuf7strings20GrowingArrayByteSink6AppendEPKcm",
   "parameters" :
   [
    {
     "is_this_ptr" : true,
     "referenced_type" : "_ZTIPN6google8protobuf7strings20GrowingArrayByteSinkE"
    },
    {
     "referenced_type" : "_ZTIPKc"
    },
    {
     "referenced_type" : "_ZTIm"
    }
   ],
   "return_type" : "_ZTIv",
   "source_file" : "external/protobuf/src/google/protobuf/stubs/bytestream.h"
  },
  {
   "access" : "private",
   "function_name" : "google::protobuf::strings::GrowingArrayByteSink::Expand",
   "linker_set_key" : "_ZN6google8protobuf7strings20GrowingArrayByteSink6ExpandEm",
   "parameters" :
   [
    {
     "is_this_ptr" : true,
     "referenced_type" : "_ZTIPN6google8protobuf7strings20GrowingArrayByteSinkE"
    },
    {
     "referenced_type" : "_ZTIm"
    }
   ],
   "return_type" : "_ZTIv",
   "source_file" : "external/protobuf/src/google/protobuf/stubs/bytestream.h"
  },
  {
   "function_name" : "google::protobuf::strings::GrowingArrayByteSink::GetBuffer",
   "linker_set_key" : "_ZN6google8protobuf7strings20GrowingArrayByteSink9GetBufferEPm",
   "parameters" :
   [
    {
     "is_this_ptr" : true,
     "referenced_type" : "_ZTIPN6google8protobuf7strings20GrowingArrayByteSinkE"
    },
    {
     "referenced_type" : "_ZTIPm"
    }
   ],
   "return_type" : "_ZTIPc",
   "source_file" : "external/protobuf/src/google/protobuf/stubs/bytestream.h"
  },
  {
   "function_name" : "google::protobuf::strings::GrowingArrayByteSink::GrowingArrayByteSink",
   "linker_set_key" : "_ZN6google8protobuf7strings20GrowingArrayByteSinkC1Em",
   "parameters" :
   [
    {
     "is_this_ptr" : true,
     "referenced_type" : "_ZTIPN6google8protobuf7strings20GrowingArrayByteSinkE"
    },
    {
     "referenced_type" : "_ZTIm"
    }
   ],
   "return_type" : "_ZTIv",
   "source_file" : "external/protobuf/src/google/protobuf/stubs/bytestream.h"
  },
  {
   "function_name" : "google::protobuf::strings::GrowingArrayByteSink::GrowingArrayByteSink",
   "linker_set_key" : "_ZN6google8protobuf7strings20GrowingArrayByteSinkC2Em",
   "parameters" :
   [
    {
     "is_this_ptr" : true,
     "referenced_type" : "_ZTIPN6google8protobuf7strings20GrowingArrayByteSinkE"
    },
    {
     "referenced_type" : "_ZTIm"
    }
   ],
   "return_type" : "_ZTIv",
   "source_file" : "external/protobuf/src/google/protobuf/stubs/bytestream.h"
  },
  {
   "function_name" : "google::protobuf::strings::GrowingArrayByteSink::~GrowingArrayByteSink",
   "linker_set_key" : "_ZN6google8protobuf7strings20GrowingArrayByteSinkD0Ev",
   "parameters" :
   [
    {
     "is_this_ptr" : true,
     "referenced_type" : "_ZTIPN6google8protobuf7strings20GrowingArrayByteSinkE"
    }
   ],
   "return_type" : "_ZTIv",
   "source_file" : "external/protobuf/src/google/protobuf/stubs/bytestream.h"
  },
  {
   "function_name" : "google::protobuf::strings::GrowingArrayByteSink::~GrowingArrayByteSink",
   "linker_set_key" : "_ZN6google8protobuf7strings20GrowingArrayByteSinkD1Ev",
   "parameters" :
   [
    {
     "is_this_ptr" : true,
     "referenced_type" : "_ZTIPN6google8protobuf7strings20GrowingArrayByteSinkE"
    }
   ],
   "return_type" : "_ZTIv",
   "source_file" : "external/protobuf/src/google/protobuf/stubs/bytestream.h"
  },
  {
   "function_name" : "google::protobuf::strings::GrowingArrayByteSink::~GrowingArrayByteSink",
   "linker_set_key" : "_ZN6google8protobuf7strings20GrowingArrayByteSinkD2Ev",
   "parameters" :
   [
    {
     "is_this_ptr" : true,
     "referenced_type" : "_ZTIPN6google8protobuf7strings20GrowingArrayByteSinkE"
    }
   ],
   "return_type" : "_ZTIv",
   "source_file" : "external/protobuf/src/google/protobuf/stubs/bytestream.h"
  },
  {
   "function_name" : "google::protobuf::strings::UncheckedArrayByteSink::Append",
   "linker_set_key" : "_ZN6google8protobuf7strings22UncheckedArrayByteSink6AppendEPKcm",
   "parameters" :
   [
    {
     "is_this_ptr" : true,
     "referenced_type" : "_ZTIPN6google8protobuf7strings22UncheckedArrayByteSinkE"
    },
    {
     "referenced_type" : "_ZTIPKc"
    },
    {
     "referenced_type" : "_ZTIm"
    }
   ],
   "return_type" : "_ZTIv",
   "source_file" : "external/protobuf/src/google/protobuf/stubs/bytestream.h"
  },
  {
   "function_name" : "google::protobuf::strings::UncheckedArrayByteSink::UncheckedArrayByteSink",
   "linker_set_key" : "_ZN6google8protobuf7strings22UncheckedArrayByteSinkC1EPc",
   "parameters" :
   [
    {
     "is_this_ptr" : true,
     "referenced_type" : "_ZTIPN6google8protobuf7strings22UncheckedArrayByteSinkE"
    },
    {
     "referenced_type" : "_ZTIPc"
    }
   ],
   "return_type" : "_ZTIv",
   "source_file" : "external/protobuf/src/google/protobuf/stubs/bytestream.h"
  },
  {
   "function_name" : "google::protobuf::strings::UncheckedArrayByteSink::UncheckedArrayByteSink",
   "linker_set_key" : "_ZN6google8protobuf7strings22UncheckedArrayByteSinkC2EPc",
   "parameters" :
   [
    {
     "is_this_ptr" : true,
     "referenced_type" : "_ZTIPN6google8protobuf7strings22UncheckedArrayByteSinkE"
    },
    {
     "referenced_type" : "_ZTIPc"
    }
   ],
   "return_type" : "_ZTIv",
   "source_file" : "external/protobuf/src/google/protobuf/stubs/bytestream.h"
  },
  {
   "function_name" : "google::protobuf::strings::ByteSink::Flush",
   "linker_set_key" : "_ZN6google8protobuf7strings8ByteSink5FlushEv",
   "parameters" :
   [
    {
     "is_this_ptr" : true,
     "referenced_type" : "_ZTIPN6google8protobuf7strings8ByteSinkE"
    }
   ],
   "return_type" : "_ZTIv",
   "source_file" : "external/protobuf/src/google/protobuf/stubs/bytestream.h"
  },
  {
   "function_name" : "google::protobuf::strings::ByteSink::ByteSink",
   "linker_set_key" : "_ZN6google8protobuf7strings8ByteSinkC2Ev",
   "parameters" :
   [
    {
     "is_this_ptr" : true,
     "referenced_type" : "_ZTIPN6google8protobuf7strings8ByteSinkE"
    }
   ],
   "return_type" : "_ZTIv",
   "source_file" : "external/protobuf/src/google/protobuf/stubs/bytestream.h"
  },
  {
   "function_name" : "google::protobuf::strings::ByteSink::~ByteSink",
   "linker_set_key" : "_ZN6google8protobuf7strings8ByteSinkD0Ev",
   "parameters" :
   [
    {
     "is_this_ptr" : true,
     "referenced_type" : "_ZTIPN6google8protobuf7strings8ByteSinkE"
    }
   ],
   "return_type" : "_ZTIv",
   "source_file" : "external/protobuf/src/google/protobuf/stubs/bytestream.h"
  },
  {
   "function_name" : "google::protobuf::strings::ByteSink::~ByteSink",
   "linker_set_key" : "_ZN6google8protobuf7strings8ByteSinkD1Ev",
   "parameters" :
   [
    {
     "is_this_ptr" : true,
     "referenced_type" : "_ZTIPN6google8protobuf7strings8ByteSinkE"
    }
   ],
   "return_type" : "_ZTIv",
   "source_file" : "external/protobuf/src/google/protobuf/stubs/bytestream.h"
  },
  {
   "function_name" : "google::protobuf::strings::ByteSink::~ByteSink",
   "linker_set_key" : "_ZN6google8protobuf7strings8ByteSinkD2Ev",
   "parameters" :
   [
    {
     "is_this_ptr" : true,
     "referenced_type" : "_ZTIPN6google8protobuf7strings8ByteSinkE"
    }
   ],
   "return_type" : "_ZTIv",
   "source_file" : "external/protobuf/src/google/protobuf/stubs/bytestream.h"
  },
  {
   "function_name" : "google::protobuf::internal::StringPiecePod::CreateFromStringPiece",
   "linker_set_key" : "_ZN6google8protobuf8internal14StringPiecePod21CreateFromStringPieceENS0_11StringPieceE",
   "parameters" :
   [
    {
     "referenced_type" : "_ZTIN6google8protobuf11StringPieceE"
    }
   ],
   "return_type" : "_ZTIN6google8protobuf8internal14StringPiecePodE",
   "source_file" : "external/protobuf/src/google/protobuf/stubs/stringpiece.h"
  },
  {
   "function_name" : "google::protobuf::internal::IsStructurallyValidUTF8",
   "linker_set_key" : "_ZN6google8protobuf8internal23IsStructurallyValidUTF8ERKNSt3__112basic_stringIcNS2_11char_traitsIcEENS2_9allocatorIcEEEE",
   "parameters" :
   [
    {
     "referenced_type" : "_ZTIRKNSt3__112basic_stringIcNS_11char_traitsIcEENS_9allocatorIcEEEE"
    }
   ],
   "return_type" : "_ZTIb",
   "source_file" : "external/protobuf/src/google/protobuf/stubs/common.h"
  },
  {
   "function_name" : "google::protobuf::internal::IsOk",
   "linker_set_key" : "_ZN6google8protobuf8internal4IsOkIbEEbT_",
   "parameters" :
   [
    {
     "referenced_type" : "_ZTIb"
    }
   ],
   "return_type" : "_ZTIb",
   "source_file" : "external/protobuf/src/google/protobuf/stubs/logging.h",
   "template_args" : [ "_ZTIb" ]
  },
  {
   "function_name" : "google::protobuf::BigEndian::FromHost16",
   "linker_set_key" : "_ZN6google8protobuf9BigEndian10FromHost16Et",
   "parameters" :
   [
    {
     "referenced_type" : "_ZTIt"
    }
   ],
   "return_type" : "_ZTIt",
   "source_file" : "external/protobuf/src/google/protobuf/stubs/port.h"
  },
  {
   "function_name" : "google::protobuf::BigEndian::FromHost32",
   "linker_set_key" : "_ZN6google8protobuf9BigEndian10FromHost32Ej",
   "parameters" :
   [
    {
     "referenced_type" : "_ZTIj"
    }
   ],
   "return_type" : "_ZTIj",
   "source_file" : "external/protobuf/src/google/protobuf/stubs/port.h"
  },
  {
   "function_name" : "google::protobuf::BigEndian::FromHost64",
   "linker_set_key" : "_ZN6google8protobuf9BigEndian10FromHost64Em",
   "parameters" :
   [
    {
     "referenced_type" : "_ZTIm"
    }
   ],
   "return_type" : "_ZTIm",
   "source_file" : "external/protobuf/src/google/protobuf/stubs/port.h"
  },
  {
   "function_name" : "google::protobuf::BigEndian::IsLittleEndian",
   "linker_set_key" : "_ZN6google8protobuf9BigEndian14IsLittleEndianEv",
   "return_type" : "_ZTIb",
   "source_file" : "external/protobuf/src/google/protobuf/stubs/port.h"
  },
  {
   "function_name" : "google::protobuf::BigEndian::Load16",
   "linker_set_key" : "_ZN6google8protobuf9BigEndian6Load16EPKv",
   "parameters" :
   [
    {
     "referenced_type" : "_ZTIPKv"
    }
   ],
   "return_type" : "_ZTIt",
   "source_file" : "external/protobuf/src/google/protobuf/stubs/port.h"
  },
  {
   "function_name" : "google::protobuf::BigEndian::Load32",
   "linker_set_key" : "_ZN6google8protobuf9BigEndian6Load32EPKv",
   "parameters" :
   [
    {
     "referenced_type" : "_ZTIPKv"
    }
   ],
   "return_type" : "_ZTIj",
   "source_file" : "external/protobuf/src/google/protobuf/stubs/port.h"
  },
  {
   "function_name" : "google::protobuf::BigEndian::Load64",
   "linker_set_key" : "_ZN6google8protobuf9BigEndian6Load64EPKv",
   "parameters" :
   [
    {
     "referenced_type" : "_ZTIPKv"
    }
   ],
   "return_type" : "_ZTIm",
   "source_file" : "external/protobuf/src/google/protobuf/stubs/port.h"
  },
  {
   "function_name" : "google::protobuf::BigEndian::Store16",
   "linker_set_key" : "_ZN6google8protobuf9BigEndian7Store16EPvt",
   "parameters" :
   [
    {
     "referenced_type" : "_ZTIPv"
    },
    {
     "referenced_type" : "_ZTIt"
    }
   ],
   "return_type" : "_ZTIv",
   "source_file" : "external/protobuf/src/google/protobuf/stubs/port.h"
  },
  {
   "function_name" : "google::protobuf::BigEndian::Store32",
   "linker_set_key" : "_ZN6google8protobuf9BigEndian7Store32EPvj",
   "parameters" :
   [
    {
     "referenced_type" : "_ZTIPv"
    },
    {
     "referenced_type" : "_ZTIj"
    }
   ],
   "return_type" : "_ZTIv",
   "source_file" : "external/protobuf/src/google/protobuf/stubs/port.h"
  },
  {
   "function_name" : "google::protobuf::BigEndian::Store64",
   "linker_set_key" : "_ZN6google8protobuf9BigEndian7Store64EPvm",
   "parameters" :
   [
    {
     "referenced_type" : "_ZTIPv"
    },
    {
     "referenced_type" : "_ZTIm"
    }
   ],
   "return_type" : "_ZTIv",
   "source_file" : "external/protobuf/src/google/protobuf/stubs/port.h"
  },
  {
   "function_name" : "google::protobuf::BigEndian::ToHost16",
   "linker_set_key" : "_ZN6google8protobuf9BigEndian8ToHost16Et",
   "parameters" :
   [
    {
     "referenced_type" : "_ZTIt"
    }
   ],
   "return_type" : "_ZTIt",
   "source_file" : "external/protobuf/src/google/protobuf/stubs/port.h"
  },
  {
   "function_name" : "google::protobuf::BigEndian::ToHost32",
   "linker_set_key" : "_ZN6google8protobuf9BigEndian8ToHost32Ej",
   "parameters" :
   [
    {
     "referenced_type" : "_ZTIj"
    }
   ],
   "return_type" : "_ZTIj",
   "source_file" : "external/protobuf/src/google/protobuf/stubs/port.h"
  },
  {
   "function_name" : "google::protobuf::BigEndian::ToHost64",
   "linker_set_key" : "_ZN6google8protobuf9BigEndian8ToHost64Em",
   "parameters" :
   [
    {
     "referenced_type" : "_ZTIm"
    }
   ],
   "return_type" : "_ZTIm",
   "source_file" : "external/protobuf/src/google/protobuf/stubs/port.h"
  },
  {
   "function_name" : "google::protobuf::operator==",
   "linker_set_key" : "_ZN6google8protobufeqENS0_11StringPieceES1_",
   "parameters" :
   [
    {
     "referenced_type" : "_ZTIN6google8protobuf11StringPieceE"
    },
    {
     "referenced_type" : "_ZTIN6google8protobuf11StringPieceE"
    }
   ],
   "return_type" : "_ZTIb",
   "source_file" : "external/protobuf/src/google/protobuf/stubs/stringpiece.h"
  },
  {
   "function_name" : "google::protobuf::operator>=",
   "linker_set_key" : "_ZN6google8protobufgeENS0_11StringPieceES1_",
   "parameters" :
   [
    {
     "referenced_type" : "_ZTIN6google8protobuf11StringPieceE"
    },
    {
     "referenced_type" : "_ZTIN6google8protobuf11StringPieceE"
    }
   ],
   "return_type" : "_ZTIb",
   "source_file" : "external/protobuf/src/google/protobuf/stubs/stringpiece.h"
  },
  {
   "function_name" : "google::protobuf::operator>",
   "linker_set_key" : "_ZN6google8protobufgtENS0_11StringPieceES1_",
   "parameters" :
   [
    {
     "referenced_type" : "_ZTIN6google8protobuf11StringPieceE"
    },
    {
     "referenced_type" : "_ZTIN6google8protobuf11StringPieceE"
    }
   ],
   "return_type" : "_ZTIb",
   "source_file" : "external/protobuf/src/google/protobuf/stubs/stringpiece.h"
  },
  {
   "function_name" : "google::protobuf::operator<=",
   "linker_set_key" : "_ZN6google8protobufleENS0_11StringPieceES1_",
   "parameters" :
   [
    {
     "referenced_type" : "_ZTIN6google8protobuf11StringPieceE"
    },
    {
     "referenced_type" : "_ZTIN6google8protobuf11StringPieceE"
    }
   ],
   "return_type" : "_ZTIb",
   "source_file" : "external/protobuf/src/google/protobuf/stubs/stringpiece.h"
  },
  {
   "function_name" : "google::protobuf::operator<",
   "linker_set_key" : "_ZN6google8protobufltENS0_11StringPieceES1_",
   "parameters" :
   [
    {
     "referenced_type" : "_ZTIN6google8protobuf11StringPieceE"
    },
    {
     "referenced_type" : "_ZTIN6google8protobuf11StringPieceE"
    }
   ],
   "return_type" : "_ZTIb",
   "source_file" : "external/protobuf/src/google/protobuf/stubs/stringpiece.h"
  },
  {
   "function_name" : "google::protobuf::operator!=",
   "linker_set_key" : "_ZN6google8protobufneENS0_11StringPieceES1_",
   "parameters" :
   [
    {
     "referenced_type" : "_ZTIN6google8protobuf11StringPieceE"
    },
    {
     "referenced_type" : "_ZTIN6google8protobuf11StringPieceE"
    }
   ],
   "return_type" : "_ZTIb",
   "source_file" : "external/protobuf/src/google/protobuf/stubs/stringpiece.h"
  },
  {
   "function_name" : "google::protobuf::StringPiece::starts_with",
   "linker_set_key" : "_ZNK6google8protobuf11StringPiece11starts_withES1_",
   "parameters" :
   [
    {
     "is_this_ptr" : true,
     "referenced_type" : "_ZTIPKN6google8protobuf11StringPieceE"
    },
    {
     "referenced_type" : "_ZTIN6google8protobuf11StringPieceE"
    }
   ],
   "return_type" : "_ZTIb",
   "source_file" : "external/protobuf/src/google/protobuf/stubs/stringpiece.h"
  },
  {
   "function_name" : "google::protobuf::StringPiece::find_last_of",
   "linker_set_key" : "_ZNK6google8protobuf11StringPiece12find_last_ofEcm",
   "parameters" :
   [
    {
     "is_this_ptr" : true,
     "referenced_type" : "_ZTIPKN6google8protobuf11StringPieceE"
    },
    {
     "referenced_type" : "_ZTIc"
    },
    {
     "default_arg" : true,
     "referenced_type" : "_ZTIm"
    }
   ],
   "return_type" : "_ZTIl",
   "source_file" : "external/protobuf/src/google/protobuf/stubs/stringpiece.h"
  },
  {
   "function_name" : "google::protobuf::StringPiece::find_first_of",
   "linker_set_key" : "_ZNK6google8protobuf11StringPiece13find_first_ofEcm",
   "parameters" :
   [
    {
     "is_this_ptr" : true,
     "referenced_type" : "_ZTIPKN6google8protobuf11StringPieceE"
    },
    {
     "referenced_type" : "_ZTIc"
    },
    {
     "default_arg" : true,
     "referenced_type" : "_ZTIm"
    }
   ],
   "return_type" : "_ZTIl",
   "source_file" : "external/protobuf/src/google/protobuf/stubs/stringpiece.h"
  },
  {
   "function_name" : "google::protobuf::StringPiece::end",
   "linker_set_key" : "_ZNK6google8protobuf11StringPiece3endEv",
   "parameters" :
   [
    {
     "is_this_ptr" : true,
     "referenced_type" : "_ZTIPKN6google8protobuf11StringPieceE"
    }
   ],
   "return_type" : "_ZTIPKc",
   "source_file" : "external/protobuf/src/google/protobuf/stubs/stringpiece.h"
  },
  {
   "function_name" : "google::protobuf::StringPiece::data",
   "linker_set_key" : "_ZNK6google8protobuf11StringPiece4dataEv",
   "parameters" :
   [
    {
     "is_this_ptr" : true,
     "referenced_type" : "_ZTIPKN6google8protobuf11StringPieceE"
    }
   ],
   "return_type" : "_ZTIPKc",
   "source_file" : "external/protobuf/src/google/protobuf/stubs/stringpiece.h"
  },
  {
   "function_name" : "google::protobuf::StringPiece::rend",
   "linker_set_key" : "_ZNK6google8protobuf11StringPiece4rendEv",
   "parameters" :
   [
    {
     "is_this_ptr" : true,
     "referenced_type" : "_ZTIPKN6google8protobuf11StringPieceE"
    }
   ],
   "return_type" : "_ZTINSt3__116reverse_iteratorIPKcEE",
   "source_file" : "external/protobuf/src/google/protobuf/stubs/stringpiece.h"
  },
  {
   "function_name" : "google::protobuf::StringPiece::size",
   "linker_set_key" : "_ZNK6google8protobuf11StringPiece4sizeEv",
   "parameters" :
   [
    {
     "is_this_ptr" : true,
     "referenced_type" : "_ZTIPKN6google8protobuf11StringPieceE"
    }
   ],
   "return_type" : "_ZTIl",
   "source_file" : "external/protobuf/src/google/protobuf/stubs/stringpiece.h"
  },
  {
   "function_name" : "google::protobuf::StringPiece::begin",
   "linker_set_key" : "_ZNK6google8protobuf11StringPiece5beginEv",
   "parameters" :
   [
    {
     "is_this_ptr" : true,
     "referenced_type" : "_ZTIPKN6google8protobuf11StringPieceE"
    }
   ],
   "return_type" : "_ZTIPKc",
   "source_file" : "external/protobuf/src/google/protobuf/stubs/stringpiece.h"
  },
  {
   "function_name" : "google::protobuf::StringPiece::empty",
   "linker_set_key" : "_ZNK6google8protobuf11StringPiece5emptyEv",
   "parameters" :
   [
    {
     "is_this_ptr" : true,
     "referenced_type" : "_ZTIPKN6google8protobuf11StringPieceE"
    }
   ],
   "return_type" : "_ZTIb",
   "source_file" : "external/protobuf/src/google/protobuf/stubs/stringpiece.h"
  },
  {
   "function_name" : "google::protobuf::StringPiece::length",
   "linker_set_key" : "_ZNK6google8protobuf11StringPiece6lengthEv",
   "parameters" :
   [
    {
     "is_this_ptr" : true,
     "referenced_type" : "_ZTIPKN6google8protobuf11StringPieceE"
    }
   ],
   "return_type" : "_ZTIl",
   "source_file" : "external/protobuf/src/google/protobuf/stubs/stringpiece.h"
  },
  {
   "function_name" : "google::protobuf::StringPiece::rbegin",
   "linker_set_key" : "_ZNK6google8protobuf11StringPiece6rbeginEv",
   "parameters" :
   [
    {
     "is_this_ptr" : true,
     "referenced_type" : "_ZTIPKN6google8protobuf11StringPieceE"
    }
   ],
   "return_type" : "_ZTINSt3__116reverse_iteratorIPKcEE",
   "source_file" : "external/protobuf/src/google/protobuf/stubs/stringpiece.h"
  },
  {
   "function_name" : "google::protobuf::StringPiece::compare",
   "linker_set_key" : "_ZNK6google8protobuf11StringPiece7compareES1_",
   "parameters" :
   [
    {
     "is_this_ptr" : true,
     "referenced_type" : "_ZTIPKN6google8protobuf11StringPieceE"
    },
    {
     "referenced_type" : "_ZTIN6google8protobuf11StringPieceE"
    }
   ],
   "return_type" : "_ZTIi",
   "source_file" : "external/protobuf/src/google/protobuf/stubs/stringpiece.h"
  },
  {
   "function_name" : "google::protobuf::StringPiece::ToString",
   "linker_set_key" : "_ZNK6google8protobuf11StringPiece8ToStringEv",
   "parameters" :
   [
    {
     "is_this_ptr" : true,
     "referenced_type" : "_ZTIPKN6google8protobuf11StringPieceE"
    }
   ],
   "return_type" : "_ZTINSt3__112basic_stringIcNS_11char_traitsIcEENS_9allocatorIcEEEE",
   "source_file" : "external/protobuf/src/google/protobuf/stubs/stringpiece.h"
  },
  {
   "function_name" : "google::protobuf::StringPiece::capacity",
   "linker_set_key" : "_ZNK6google8protobuf11StringPiece8capacityEv",
   "parameters" :
   [
    {
     "is_this_ptr" : true,
     "referenced_type" : "_ZTIPKN6google8protobuf11StringPieceE"
    }
   ],
   "return_type" : "_ZTIl",
   "source_file" : "external/protobuf/src/google/protobuf/stubs/stringpiece.h"
  },
  {
   "function_name" : "google::protobuf::StringPiece::max_size",
   "linker_set_key" : "_ZNK6google8protobuf11StringPiece8max_sizeEv",
   "parameters" :
   [
    {
     "is_this_ptr" : true,
     "referenced_type" : "_ZTIPKN6google8protobuf11StringPieceE"
    }
   ],
   "return_type" : "_ZTIl",
   "source_file" : "external/protobuf/src/google/protobuf/stubs/stringpiece.h"
  },
  {
   "function_name" : "google::protobuf::StringPiece::as_string",
   "linker_set_key" : "_ZNK6google8protobuf11StringPiece9as_stringEv",
   "parameters" :
   [
    {
     "is_this_ptr" : true,
     "referenced_type" : "_ZTIPKN6google8protobuf11StringPieceE"
    }
   ],
   "return_type" : "_ZTINSt3__112basic_stringIcNS_11char_traitsIcEENS_9allocatorIcEEEE",
   "source_file" : "external/protobuf/src/google/protobuf/stubs/stringpiece.h"
  },
  {
   "function_name" : "google::protobuf::StringPiece::ends_with",
   "linker_set_key" : "_ZNK6google8protobuf11StringPiece9ends_withES1_",
   "parameters" :
   [
    {
     "is_this_ptr" : true,
     "referenced_type" : "_ZTIPKN6google8protobuf11StringPieceE"
    },
    {
     "referenced_type" : "_ZTIN6google8protobuf11StringPieceE"
    }
   ],
   "return_type" : "_ZTIb",
   "source_file" : "external/protobuf/src/google/protobuf/stubs/stringpiece.h"
  },
  {
   "function_name" : "google::protobuf::StringPiece::operator basic_string",
   "linker_set_key" : "_ZNK6google8protobuf11StringPiececvNSt3__112basic_stringIcNS2_11char_traitsIcEENS2_9allocatorIcEEEEEv",
   "parameters" :
   [
    {
     "is_this_ptr" : true,
     "referenced_type" : "_ZTIPKN6google8protobuf11StringPieceE"
    }
   ],
   "return_type" : "_ZTINSt3__112basic_stringIcNS_11char_traitsIcEENS_9allocatorIcEEEE",
   "source_file" : "external/protobuf/src/google/protobuf/stubs/stringpiece.h"
  },
  {
   "function_name" : "google::protobuf::StringPiece::operator[]",
   "linker_set_key" : "_ZNK6google8protobuf11StringPieceixEl",
   "parameters" :
   [
    {
     "is_this_ptr" : true,
     "referenced_type" : "_ZTIPKN6google8protobuf11StringPieceE"
    },
    {
     "referenced_type" : "_ZTIl"
    }
   ],
   "return_type" : "_ZTIc",
   "source_file" : "external/protobuf/src/google/protobuf/stubs/stringpiece.h"
  },
  {
   "function_name" : "google::protobuf::hash<google::protobuf::StringPiece>::operator()",
   "linker_set_key" : "_ZNK6google8protobuf4hashINS0_11StringPieceEEclERKS2_",
   "parameters" :
   [
    {
     "is_this_ptr" : true,
     "referenced_type" : "_ZTIPKN6google8protobuf4hashINS0_11StringPieceEEE"
    },
    {
     "referenced_type" : "_ZTIRKN6google8protobuf11StringPieceE"
    }
   ],
   "return_type" : "_ZTIm",
   "source_file" : "external/protobuf/src/google/protobuf/stubs/stringpiece.h"
  },
  {
   "function_name" : "google::protobuf::hash<std::__1::basic_string<char>>::operator()",
   "linker_set_key" : "_ZNK6google8protobuf4hashINSt3__112basic_stringIcNS2_11char_traitsIcEENS2_9allocatorIcEEEEEclERKS8_",
   "parameters" :
   [
    {
     "is_this_ptr" : true,
     "referenced_type" : "_ZTIPKN6google8protobuf4hashINSt3__112basic_stringIcNS2_11char_traitsIcEENS2_9allocatorIcEEEEEE"
    },
    {
     "referenced_type" : "_ZTIRKNSt3__112basic_stringIcNS_11char_traitsIcEENS_9allocatorIcEEEE"
    }
   ],
   "return_type" : "_ZTIm",
   "source_file" : "external/protobuf/src/google/protobuf/stubs/hash.h"
  },
  {
   "function_name" : "google::protobuf::hash<std::__1::basic_string<char>>::operator()",
   "linker_set_key" : "_ZNK6google8protobuf4hashINSt3__112basic_stringIcNS2_11char_traitsIcEENS2_9allocatorIcEEEEEclERKS8_SB_",
   "parameters" :
   [
    {
     "is_this_ptr" : true,
     "referenced_type" : "_ZTIPKN6google8protobuf4hashINSt3__112basic_stringIcNS2_11char_traitsIcEENS2_9allocatorIcEEEEEE"
    },
    {
     "referenced_type" : "_ZTIRKNSt3__112basic_stringIcNS_11char_traitsIcEENS_9allocatorIcEEEE"
    },
    {
     "referenced_type" : "_ZTIRKNSt3__112basic_stringIcNS_11char_traitsIcEENS_9allocatorIcEEEE"
    }
   ],
   "return_type" : "_ZTIb",
   "source_file" : "external/protobuf/src/google/protobuf/stubs/hash.h"
  },
  {
   "function_name" : "google::protobuf::hash<const char *>::operator()",
   "linker_set_key" : "_ZNK6google8protobuf4hashIPKcEclES3_",
   "parameters" :
   [
    {
     "is_this_ptr" : true,
     "referenced_type" : "_ZTIPKN6google8protobuf4hashIPKcEE"
    },
    {
     "referenced_type" : "_ZTIPKc"
    }
   ],
   "return_type" : "_ZTIm",
   "source_file" : "external/protobuf/src/google/protobuf/stubs/hash.h"
  },
  {
   "function_name" : "google::protobuf::hash<bool>::operator()",
   "linker_set_key" : "_ZNK6google8protobuf4hashIbEclEb",
   "parameters" :
   [
    {
     "is_this_ptr" : true,
     "referenced_type" : "_ZTIPKN6google8protobuf4hashIbEE"
    },
    {
     "referenced_type" : "_ZTIb"
    }
   ],
   "return_type" : "_ZTIm",
   "source_file" : "external/protobuf/src/google/protobuf/stubs/hash.h"
  },
  {
   "function_name" : "google::protobuf::streq::operator()",
   "linker_set_key" : "_ZNK6google8protobuf5streqclEPKcS3_",
   "parameters" :
   [
    {
     "is_this_ptr" : true,
     "referenced_type" : "_ZTIPKN6google8protobuf5streqE"
    },
    {
     "referenced_type" : "_ZTIPKc"
    },
    {
     "referenced_type" : "_ZTIPKc"
    }
   ],
   "return_type" : "_ZTIb",
   "source_file" : "external/protobuf/src/google/protobuf/stubs/hash.h"
  },
  {
   "function_name" : "google::protobuf::strings::ArrayByteSource::Available",
   "linker_set_key" : "_ZNK6google8protobuf7strings15ArrayByteSource9AvailableEv",
   "parameters" :
   [
    {
     "is_this_ptr" : true,
     "referenced_type" : "_ZTIPKN6google8protobuf7strings15ArrayByteSourceE"
    }
   ],
   "return_type" : "_ZTIm",
   "source_file" : "external/protobuf/src/google/protobuf/stubs/bytestream.h"
  },
  {
   "function_name" : "google::protobuf::strings::LimitByteSource::Available",
   "linker_set_key" : "_ZNK6google8protobuf7strings15LimitByteSource9AvailableEv",
   "parameters" :
   [
    {
     "is_this_ptr" : true,
     "referenced_type" : "_ZTIPKN6google8protobuf7strings15LimitByteSourceE"
    }
   ],
   "return_type" : "_ZTIm",
   "source_file" : "external/protobuf/src/google/protobuf/stubs/bytestream.h"
  },
  {
   "function_name" : "google::protobuf::strings::CheckedArrayByteSink::Overflowed",
   "linker_set_key" : "_ZNK6google8protobuf7strings20CheckedArrayByteSink10OverflowedEv",
   "parameters" :
   [
    {
     "is_this_ptr" : true,
     "referenced_type" : "_ZTIPKN6google8protobuf7strings20CheckedArrayByteSinkE"
    }
   ],
   "return_type" : "_ZTIb",
   "source_file" : "external/protobuf/src/google/protobuf/stubs/bytestream.h"
  },
  {
   "function_name" : "google::protobuf::strings::CheckedArrayByteSink::NumberOfBytesWritten",
   "linker_set_key" : "_ZNK6google8protobuf7strings20CheckedArrayByteSink20NumberOfBytesWrittenEv",
   "parameters" :
   [
    {
     "is_this_ptr" : true,
     "referenced_type" : "_ZTIPKN6google8protobuf7strings20CheckedArrayByteSinkE"
    }
   ],
   "return_type" : "_ZTIm",
   "source_file" : "external/protobuf/src/google/protobuf/stubs/bytestream.h"
  },
  {
   "function_name" : "google::protobuf::strings::UncheckedArrayByteSink::CurrentDestination",
   "linker_set_key" : "_ZNK6google8protobuf7strings22UncheckedArrayByteSink18CurrentDestinationEv",
   "parameters" :
   [
    {
     "is_this_ptr" : true,
     "referenced_type" : "_ZTIPKN6google8protobuf7strings22UncheckedArrayByteSinkE"
    }
   ],
   "return_type" : "_ZTIPc",
   "source_file" : "external/protobuf/src/google/protobuf/stubs/bytestream.h"
  },
  {
   "function_name" : "google::protobuf::internal::StringPiecePod::data",
   "linker_set_key" : "_ZNK6google8protobuf8internal14StringPiecePod4dataEv",
   "parameters" :
   [
    {
     "is_this_ptr" : true,
     "referenced_type" : "_ZTIPKN6google8protobuf8internal14StringPiecePodE"
    }
   ],
   "return_type" : "_ZTIPKc",
   "source_file" : "external/protobuf/src/google/protobuf/stubs/stringpiece.h"
  },
  {
   "function_name" : "google::protobuf::internal::StringPiecePod::size",
   "linker_set_key" : "_ZNK6google8protobuf8internal14StringPiecePod4sizeEv",
   "parameters" :
   [
    {
     "is_this_ptr" : true,
     "referenced_type" : "_ZTIPKN6google8protobuf8internal14StringPiecePodE"
    }
   ],
   "return_type" : "_ZTIl",
   "source_file" : "external/protobuf/src/google/protobuf/stubs/stringpiece.h"
  },
  {
   "function_name" : "google::protobuf::internal::StringPiecePod::ToString",
   "linker_set_key" : "_ZNK6google8protobuf8internal14StringPiecePod8ToStringEv",
   "parameters" :
   [
    {
     "is_this_ptr" : true,
     "referenced_type" : "_ZTIPKN6google8protobuf8internal14StringPiecePodE"
    }
   ],
   "return_type" : "_ZTINSt3__112basic_stringIcNS_11char_traitsIcEENS_9allocatorIcEEEE",
   "source_file" : "external/protobuf/src/google/protobuf/stubs/stringpiece.h"
  },
  {
   "function_name" : "google::protobuf::internal::StringPiecePod::operator StringPiece",
   "linker_set_key" : "_ZNK6google8protobuf8internal14StringPiecePodcvNS0_11StringPieceEEv",
   "parameters" :
   [
    {
     "is_this_ptr" : true,
     "referenced_type" : "_ZTIPKN6google8protobuf8internal14StringPiecePodE"
    }
   ],
   "return_type" : "_ZTIN6google8protobuf11StringPieceE",
   "source_file" : "external/protobuf/src/google/protobuf/stubs/stringpiece.h"
  },
  {
   "function_name" : "google::protobuf::internal::StringPiecePod::operator basic_string",
   "linker_set_key" : "_ZNK6google8protobuf8internal14StringPiecePodcvNSt3__112basic_stringIcNS3_11char_traitsIcEENS3_9allocatorIcEEEEEv",
   "parameters" :
   [
    {
     "is_this_ptr" : true,
     "referenced_type" : "_ZTIPKN6google8protobuf8internal14StringPiecePodE"
    }
   ],
   "return_type" : "_ZTINSt3__112basic_stringIcNS_11char_traitsIcEENS_9allocatorIcEEEE",
   "source_file" : "external/protobuf/src/google/protobuf/stubs/stringpiece.h"
  },
  {
   "function_name" : "google::protobuf::internal::StringPiecePod::operator==",
   "linker_set_key" : "_ZNK6google8protobuf8internal14StringPiecePodeqEPKc",
   "parameters" :
   [
    {
     "is_this_ptr" : true,
     "referenced_type" : "_ZTIPKN6google8protobuf8internal14StringPiecePodE"
    },
    {
     "referenced_type" : "_ZTIPKc"
    }
   ],
   "return_type" : "_ZTIb",
   "source_file" : "external/protobuf/src/google/protobuf/stubs/stringpiece.h"
  },
  {
   "function_name" : "google::protobuf::internal::StringPiecePod::operator[]",
   "linker_set_key" : "_ZNK6google8protobuf8internal14StringPiecePodixEl",
   "parameters" :
   [
    {
     "is_this_ptr" : true,
     "referenced_type" : "_ZTIPKN6google8protobuf8internal14StringPiecePodE"
    },
    {
     "referenced_type" : "_ZTIl"
    }
   ],
   "return_type" : "_ZTIc",
   "source_file" : "external/protobuf/src/google/protobuf/stubs/stringpiece.h"
  }
 ],
 "global_vars" :
 [
  {
   "linker_set_key" : "_ZN6google8protobuf11StringPiece4nposE",
   "name" : "google::protobuf::StringPiece::npos",
   "referenced_type" : "_ZTIKm",
   "source_file" : "external/protobuf/src/google/protobuf/stubs/stringpiece.h"
  },
  {
   "linker_set_key" : "_ZN6google8protobuf4hashINSt3__112basic_stringIcNS2_11char_traitsIcEENS2_9allocatorIcEEEEE11bucket_sizeE",
   "name" : "google::protobuf::hash<std::__1::basic_string<char>>::bucket_size",
   "referenced_type" : "_ZTIKm",
   "source_file" : "external/protobuf/src/google/protobuf/stubs/hash.h"
  },
  {
   "linker_set_key" : "_ZN6google8protobuf4hashINSt3__112basic_stringIcNS2_11char_traitsIcEENS2_9allocatorIcEEEEE11min_bucketsE",
   "name" : "google::protobuf::hash<std::__1::basic_string<char>>::min_buckets",
   "referenced_type" : "_ZTIKm",
   "source_file" : "external/protobuf/src/google/protobuf/stubs/hash.h"
  },
  {
   "linker_set_key" : "_ZN6google8protobuf4hashINSt3__14pairIT_T0_EEE11bucket_sizeE",
   "name" : "google::protobuf::hash<pair<type-parameter-0-0, type-parameter-0-1>>::bucket_size",
   "referenced_type" : "_ZTIKm",
   "source_file" : "external/protobuf/src/google/protobuf/stubs/hash.h"
  },
  {
   "linker_set_key" : "_ZN6google8protobuf4hashINSt3__14pairIT_T0_EEE11min_bucketsE",
   "name" : "google::protobuf::hash<pair<type-parameter-0-0, type-parameter-0-1>>::min_buckets",
   "referenced_type" : "_ZTIKm",
   "source_file" : "external/protobuf/src/google/protobuf/stubs/hash.h"
  },
  {
   "linker_set_key" : "_ZN6google8protobuf8internalL26kMinHeaderVersionForProtocE",
   "name" : "google::protobuf::internal::kMinHeaderVersionForProtoc",
   "referenced_type" : "_ZTIKi",
   "source_file" : "external/protobuf/src/google/protobuf/stubs/common.h"
  },
  {
   "linker_set_key" : "_ZN6google8protobuf8internalL27kMinHeaderVersionForLibraryE",
   "name" : "google::protobuf::internal::kMinHeaderVersionForLibrary",
   "referenced_type" : "_ZTIKi",
   "source_file" : "external/protobuf/src/google/protobuf/stubs/common.h"
  },
  {
   "linker_set_key" : "_ZN6google8protobufL10kuint32maxE",
   "name" : "google::protobuf::kuint32max",
   "referenced_type" : "_ZTIKj",
   "source_file" : "external/protobuf/src/google/protobuf/stubs/port.h"
  },
  {
   "linker_set_key" : "_ZN6google8protobufL10kuint64maxE",
   "name" : "google::protobuf::kuint64max",
   "referenced_type" : "_ZTIKm",
   "source_file" : "external/protobuf/src/google/protobuf/stubs/port.h"
  },
  {
   "linker_set_key" : "_ZN6google8protobufL9kint32maxE",
   "name" : "google::protobuf::kint32max",
   "referenced_type" : "_ZTIKi",
   "source_file" : "external/protobuf/src/google/protobuf/stubs/port.h"
  },
  {
   "linker_set_key" : "_ZN6google8protobufL9kint32minE",
   "name" : "google::protobuf::kint32min",
   "referenced_type" : "_ZTIKi",
   "source_file" : "external/protobuf/src/google/protobuf/stubs/port.h"
  },
  {
   "linker_set_key" : "_ZN6google8protobufL9kint64maxE",
   "name" : "google::protobuf::kint64max",
   "referenced_type" : "_ZTIKl",
   "source_file" : "external/protobuf/src/google/protobuf/stubs/port.h"
  },
  {
   "linker_set_key" : "_ZN6google8protobufL9kint64minE",
   "name" : "google::protobuf::kint64min",
   "referenced_type" : "_ZTIKl",
   "source_file" : "external/protobuf/src/google/protobuf/stubs/port.h"
  }
 ],
 "lvalue_reference_types" :
 [
  {
   "alignment" : 8,
   "linker_set_key" : "_ZTIRKN6google8protobuf11StringPieceE",
   "name" : "const google::protobuf::StringPiece &",
   "referenced_type" : "_ZTIKN6google8protobuf11StringPieceE",
   "self_type" : "_ZTIRKN6google8protobuf11StringPieceE",
   "size" : 8,
   "source_file" : "external/protobuf/src/google/protobuf/stubs/stringpiece.h"
  },
  {
   "alignment" : 8,
   "linker_set_key" : "_ZTIRKNSt3__112basic_stringIcNS_11char_traitsIcEENS_9allocatorIcEEEE",
   "name" : "const std::basic_string<char, std::char_traits<char>, std::allocator<char>> &",
   "referenced_type" : "_ZTIKNSt3__112basic_stringIcNS_11char_traitsIcEENS_9allocatorIcEEEE",
   "self_type" : "_ZTIRKNSt3__112basic_stringIcNS_11char_traitsIcEENS_9allocatorIcEEEE",
   "size" : 8,
   "source_file" : "external/protobuf/src/google/protobuf/stubs/common.h"
  }
 ],
 "pointer_types" :
 [
  {
   "alignment" : 8,
   "linker_set_key" : "_ZTIPKN6google8protobuf11StringPieceE",
   "name" : "const google::protobuf::StringPiece *",
   "referenced_type" : "_ZTIKN6google8protobuf11StringPieceE",
   "self_type" : "_ZTIPKN6google8protobuf11StringPieceE",
   "size" : 8,
   "source_file" : "external/protobuf/src/google/protobuf/stubs/stringpiece.h"
  },
  {
   "alignment" : 8,
   "linker_set_key" : "_ZTIPKN6google8protobuf4hashINS0_11StringPieceEEE",
   "name" : "const google::protobuf::hash<google::protobuf::StringPiece> *",
   "referenced_type" : "_ZTIKN6google8protobuf4hashINS0_11StringPieceEEE",
   "self_type" : "_ZTIPKN6google8protobuf4hashINS0_11StringPieceEEE",
   "size" : 8,
   "source_file" : "external/protobuf/src/google/protobuf/stubs/stringpiece.h"
  },
  {
   "alignment" : 8,
   "linker_set_key" : "_ZTIPKN6google8protobuf4hashINSt3__112basic_stringIcNS2_11char_traitsIcEENS2_9allocatorIcEEEEEE",
   "name" : "const google::protobuf::hash<std::basic_string<char, std::char_traits<char>, std::allocator<char>>> *",
   "referenced_type" : "_ZTIKN6google8protobuf4hashINSt3__112basic_stringIcNS2_11char_traitsIcEENS2_9allocatorIcEEEEEE",
   "self_type" : "_ZTIPKN6google8protobuf4hashINSt3__112basic_stringIcNS2_11char_traitsIcEENS2_9allocatorIcEEEEEE",
   "size" : 8,
   "source_file" : "external/protobuf/src/google/protobuf/stubs/hash.h"
  },
  {
   "alignment" : 8,
   "linker_set_key" : "_ZTIPKN6google8protobuf4hashIPKcEE",
   "name" : "const google::protobuf::hash<const char *> *",
   "referenced_type" : "_ZTIKN6google8protobuf4hashIPKcEE",
   "self_type" : "_ZTIPKN6google8protobuf4hashIPKcEE",
   "size" : 8,
   "source_file" : "external/protobuf/src/google/protobuf/stubs/hash.h"
  },
  {
   "alignment" : 8,
   "linker_set_key" : "_ZTIPKN6google8protobuf4hashIbEE",
   "name" : "const google::protobuf::hash<bool> *",
   "referenced_type" : "_ZTIKN6google8protobuf4hashIbEE",
   "self_type" : "_ZTIPKN6google8protobuf4hashIbEE",
   "size" : 8,
   "source_file" : "external/protobuf/src/google/protobuf/stubs/hash.h"
  },
  {
   "alignment" : 8,
   "linker_set_key" : "_ZTIPKN6google8protobuf5streqE",
   "name" : "const google::protobuf::streq *",
   "referenced_type" : "_ZTIKN6google8protobuf5streqE",
   "self_type" : "_ZTIPKN6google8protobuf5streqE",
   "size" : 8,
   "source_file" : "external/protobuf/src/google/protobuf/stubs/hash.h"
  },
  {
   "alignment" : 8,
   "linker_set_key" : "_ZTIPKN6google8protobuf7strings15ArrayByteSourceE",
   "name" : "const google::protobuf::strings::ArrayByteSource *",
   "referenced_type" : "_ZTIKN6google8protobuf7strings15ArrayByteSourceE",
   "self_type" : "_ZTIPKN6google8protobuf7strings15ArrayByteSourceE",
   "size" : 8,
   "source_file" : "external/protobuf/src/google/protobuf/stubs/bytestream.h"
  },
  {
   "alignment" : 8,
   "linker_set_key" : "_ZTIPKN6google8protobuf7strings15LimitByteSourceE",
   "name" : "const google::protobuf::strings::LimitByteSource *",
   "referenced_type" : "_ZTIKN6google8protobuf7strings15LimitByteSourceE",
   "self_type" : "_ZTIPKN6google8protobuf7strings15LimitByteSourceE",
   "size" : 8,
   "source_file" : "external/protobuf/src/google/protobuf/stubs/bytestream.h"
  },
  {
   "alignment" : 8,
   "linker_set_key" : "_ZTIPKN6google8protobuf7strings20CheckedArrayByteSinkE",
   "name" : "const google::protobuf::strings::CheckedArrayByteSink *",
   "referenced_type" : "_ZTIKN6google8protobuf7strings20CheckedArrayByteSinkE",
   "self_type" : "_ZTIPKN6google8protobuf7strings20CheckedArrayByteSinkE",
   "size" : 8,
   "source_file" : "external/protobuf/src/google/protobuf/stubs/bytestream.h"
  },
  {
   "alignment" : 8,
   "linker_set_key" : "_ZTIPKN6google8protobuf7strings22UncheckedArrayByteSinkE",
   "name" : "const google::protobuf::strings::UncheckedArrayByteSink *",
   "referenced_type" : "_ZTIKN6google8protobuf7strings22UncheckedArrayByteSinkE",
   "self_type" : "_ZTIPKN6google8protobuf7strings22UncheckedArrayByteSinkE",
   "size" : 8,
   "source_file" : "external/protobuf/src/google/protobuf/stubs/bytestream.h"
  },
  {
   "alignment" : 8,
   "linker_set_key" : "_ZTIPKN6google8protobuf8internal14StringPiecePodE",
   "name" : "const google::protobuf::internal::StringPiecePod *",
   "referenced_type" : "_ZTIKN6google8protobuf8internal14StringPiecePodE",
   "self_type" : "_ZTIPKN6google8protobuf8internal14StringPiecePodE",
   "size" : 8,
   "source_file" : "external/protobuf/src/google/protobuf/stubs/stringpiece.h"
  },
  {
   "alignment" : 8,
   "linker_set_key" : "_ZTIPKc",
   "name" : "const char *",
   "referenced_type" : "_ZTIKc",
   "self_type" : "_ZTIPKc",
   "size" : 8,
   "source_file" : "external/protobuf/src/google/protobuf/stubs/hash.h"
  },
  {
   "alignment" : 8,
   "linker_set_key" : "_ZTIPKv",
   "name" : "const void *",
   "referenced_type" : "_ZTIKv",
   "self_type" : "_ZTIPKv",
   "size" : 8,
   "source_file" : "external/protobuf/src/google/protobuf/stubs/port.h"
  },
  {
   "alignment" : 8,
   "linker_set_key" : "_ZTIPN6google8protobuf11StringPieceE",
   "name" : "google::protobuf::StringPiece *",
   "referenced_type" : "_ZTIN6google8protobuf11StringPieceE",
   "self_type" : "_ZTIPN6google8protobuf11StringPieceE",
   "size" : 8,
   "source_file" : "external/protobuf/src/google/protobuf/stubs/stringpiece.h"
  },
  {
   "alignment" : 8,
   "linker_set_key" : "_ZTIPN6google8protobuf7strings10ByteSourceE",
   "name" : "google::protobuf::strings::ByteSource *",
   "referenced_type" : "_ZTIN6google8protobuf7strings10ByteSourceE",
   "self_type" : "_ZTIPN6google8protobuf7strings10ByteSourceE",
   "size" : 8,
   "source_file" : "external/protobuf/src/google/protobuf/stubs/bytestream.h"
  },
  {
   "alignment" : 8,
   "linker_set_key" : "_ZTIPN6google8protobuf7strings12NullByteSinkE",
   "name" : "google::protobuf::strings::NullByteSink *",
   "referenced_type" : "_ZTIN6google8protobuf7strings12NullByteSinkE",
   "self_type" : "_ZTIPN6google8protobuf7strings12NullByteSinkE",
   "size" : 8,
   "source_file" : "external/protobuf/src/google/protobuf/stubs/bytestream.h"
  },
  {
   "alignment" : 8,
   "linker_set_key" : "_ZTIPN6google8protobuf7strings14StringByteSinkE",
   "name" : "google::protobuf::strings::StringByteSink *",
   "referenced_type" : "_ZTIN6google8protobuf7strings14StringByteSinkE",
   "self_type" : "_ZTIPN6google8protobuf7strings14StringByteSinkE",
   "size" : 8,
   "source_file" : "external/protobuf/src/google/protobuf/stubs/bytestream.h"
  },
  {
   "alignment" : 8,
   "linker_set_key" : "_ZTIPN6google8protobuf7strings15ArrayByteSourceE",
   "name" : "google::protobuf::strings::ArrayByteSource *",
   "referenced_type" : "_ZTIN6google8protobuf7strings15ArrayByteSourceE",
   "self_type" : "_ZTIPN6google8protobuf7strings15ArrayByteSourceE",
   "size" : 8,
   "source_file" : "external/protobuf/src/google/protobuf/stubs/bytestream.h"
  },
  {
   "alignment" : 8,
   "linker_set_key" : "_ZTIPN6google8protobuf7strings15LimitByteSourceE",
   "name" : "google::protobuf::strings::LimitByteSource *",
   "referenced_type" : "_ZTIN6google8protobuf7strings15LimitByteSourceE",
   "self_type" : "_ZTIPN6google8protobuf7strings15LimitByteSourceE",
   "size" : 8,
   "source_file" : "external/protobuf/src/google/protobuf/stubs/bytestream.h"
  },
  {
   "alignment" : 8,
   "linker_set_key" : "_ZTIPN6google8protobuf7strings20CheckedArrayByteSinkE",
   "name" : "google::protobuf::strings::CheckedArrayByteSink *",
   "referenced_type" : "_ZTIN6google8protobuf7strings20CheckedArrayByteSinkE",
   "self_type" : "_ZTIPN6google8protobuf7strings20CheckedArrayByteSinkE",
   "size" : 8,
   "source_file" : "external/protobuf/src/google/protobuf/stubs/bytestream.h"
  },
  {
   "alignment" : 8,
   "linker_set_key" : "_ZTIPN6google8protobuf7strings20GrowingArrayByteSinkE",
   "name" : "google::protobuf::strings::GrowingArrayByteSink *",
   "referenced_type" : "_ZTIN6google8protobuf7strings20GrowingArrayByteSinkE",
   "self_type" : "_ZTIPN6google8protobuf7strings20GrowingArrayByteSinkE",
   "size" : 8,
   "source_file" : "external/protobuf/src/google/protobuf/stubs/bytestream.h"
  },
  {
   "alignment" : 8,
   "linker_set_key" : "_ZTIPN6google8protobuf7strings22UncheckedArrayByteSinkE",
   "name" : "google::protobuf::strings::UncheckedArrayByteSink *",
   "referenced_type" : "_ZTIN6google8protobuf7strings22UncheckedArrayByteSinkE",
   "self_type" : "_ZTIPN6google8protobuf7strings22UncheckedArrayByteSinkE",
   "size" : 8,
   "source_file" : "external/protobuf/src/google/protobuf/stubs/bytestream.h"
  },
  {
   "alignment" : 8,
   "linker_set_key" : "_ZTIPN6google8protobuf7strings8ByteSinkE",
   "name" : "google::protobuf::strings::ByteSink *",
   "referenced_type" : "_ZTIN6google8protobuf7strings8ByteSinkE",
   "self_type" : "_ZTIPN6google8protobuf7strings8ByteSinkE",
   "size" : 8,
   "source_file" : "external/protobuf/src/google/protobuf/stubs/bytestream.h"
  },
  {
   "alignment" : 8,
   "linker_set_key" : "_ZTIPNSt3__112basic_stringIcNS_11char_traitsIcEENS_9allocatorIcEEEE",
   "name" : "std::basic_string<char, std::char_traits<char>, std::allocator<char>> *",
   "referenced_type" : "_ZTINSt3__112basic_stringIcNS_11char_traitsIcEENS_9allocatorIcEEEE",
   "self_type" : "_ZTIPNSt3__112basic_stringIcNS_11char_traitsIcEENS_9allocatorIcEEEE",
   "size" : 8,
   "source_file" : "external/protobuf/src/google/protobuf/stubs/bytestream.h"
  },
  {
   "alignment" : 8,
   "linker_set_key" : "_ZTIPc",
   "name" : "char *",
   "referenced_type" : "_ZTIc",
   "self_type" : "_ZTIPc",
   "size" : 8,
   "source_file" : "external/protobuf/src/google/protobuf/stubs/bytestream.h"
  },
  {
   "alignment" : 8,
   "linker_set_key" : "_ZTIPm",
   "name" : "unsigned long *",
   "referenced_type" : "_ZTIm",
   "self_type" : "_ZTIPm",
   "size" : 8,
   "source_file" : "external/protobuf/src/google/protobuf/stubs/bytestream.h"
  },
  {
   "alignment" : 8,
   "linker_set_key" : "_ZTIPv",
   "name" : "void *",
   "referenced_type" : "_ZTIv",
   "self_type" : "_ZTIPv",
   "size" : 8,
   "source_file" : "external/protobuf/src/google/protobuf/stubs/port.h"
  }
 ],
 "qualified_types" :
 [
  {
   "alignment" : 8,
   "is_const" : true,
   "linker_set_key" : "_ZTIKN6google8protobuf11StringPieceE",
   "name" : "const google::protobuf::StringPiece",
   "referenced_type" : "_ZTIN6google8protobuf11StringPieceE",
   "self_type" : "_ZTIKN6google8protobuf11StringPieceE",
   "size" : 16,
   "source_file" : "external/protobuf/src/google/protobuf/stubs/stringpiece.h"
  },
  {
   "alignment" : 1,
   "is_const" : true,
   "linker_set_key" : "_ZTIKN6google8protobuf4hashINS0_11StringPieceEEE",
   "name" : "const google::protobuf::hash<google::protobuf::StringPiece>",
   "referenced_type" : "_ZTIN6google8protobuf4hashINS0_11StringPieceEEE",
   "self_type" : "_ZTIKN6google8protobuf4hashINS0_11StringPieceEEE",
   "size" : 1,
   "source_file" : "external/protobuf/src/google/protobuf/stubs/stringpiece.h"
  },
  {
   "alignment" : 1,
   "is_const" : true,
   "linker_set_key" : "_ZTIKN6google8protobuf4hashINSt3__112basic_stringIcNS2_11char_traitsIcEENS2_9allocatorIcEEEEEE",
   "name" : "const google::protobuf::hash<std::basic_string<char, std::char_traits<char>, std::allocator<char>>>",
   "referenced_type" : "_ZTIN6google8protobuf4hashINSt3__112basic_stringIcNS2_11char_traitsIcEENS2_9allocatorIcEEEEEE",
   "self_type" : "_ZTIKN6google8protobuf4hashINSt3__112basic_stringIcNS2_11char_traitsIcEENS2_9allocatorIcEEEEEE",
   "size" : 1,
   "source_file" : "external/protobuf/src/google/protobuf/stubs/hash.h"
  },
  {
   "alignment" : 1,
   "is_const" : true,
   "linker_set_key" : "_ZTIKN6google8protobuf4hashIPKcEE",
   "name" : "const google::protobuf::hash<const char *>",
   "referenced_type" : "_ZTIN6google8protobuf4hashIPKcEE",
   "self_type" : "_ZTIKN6google8protobuf4hashIPKcEE",
   "size" : 1,
   "source_file" : "external/protobuf/src/google/protobuf/stubs/hash.h"
  },
  {
   "alignment" : 1,
   "is_const" : true,
   "linker_set_key" : "_ZTIKN6google8protobuf4hashIbEE",
   "name" : "const google::protobuf::hash<bool>",
   "referenced_type" : "_ZTIN6google8protobuf4hashIbEE",
   "self_type" : "_ZTIKN6google8protobuf4hashIbEE",
   "size" : 1,
   "source_file" : "external/protobuf/src/google/protobuf/stubs/hash.h"
  },
  {
   "alignment" : 1,
   "is_const" : true,
   "linker_set_key" : "_ZTIKN6google8protobuf5streqE",
   "name" : "const google::protobuf::streq",
   "referenced_type" : "_ZTIN6google8protobuf5streqE",
   "self_type" : "_ZTIKN6google8protobuf5streqE",
   "size" : 1,
   "source_file" : "external/protobuf/src/google/protobuf/stubs/hash.h"
  },
  {
   "alignment" : 8,
   "is_const" : true,
   "linker_set_key" : "_ZTIKN6google8protobuf7strings15ArrayByteSourceE",
   "name" : "const google::protobuf::strings::ArrayByteSource",
   "referenced_type" : "_ZTIN6google8protobuf7strings15ArrayByteSourceE",
   "self_type" : "_ZTIKN6google8protobuf7strings15ArrayByteSourceE",
   "size" : 24,
   "source_file" : "external/protobuf/src/google/protobuf/stubs/bytestream.h"
  },
  {
   "alignment" : 8,
   "is_const" : true,
   "linker_set_key" : "_ZTIKN6google8protobuf7strings15LimitByteSourceE",
   "name" : "const google::protobuf::strings::LimitByteSource",
   "referenced_type" : "_ZTIN6google8protobuf7strings15LimitByteSourceE",
   "self_type" : "_ZTIKN6google8protobuf7strings15LimitByteSourceE",
   "size" : 24,
   "source_file" : "external/protobuf/src/google/protobuf/stubs/bytestream.h"
  },
  {
   "alignment" : 8,
   "is_const" : true,
   "linker_set_key" : "_ZTIKN6google8protobuf7strings20CheckedArrayByteSinkE",
   "name" : "const google::protobuf::strings::CheckedArrayByteSink",
   "referenced_type" : "_ZTIN6google8protobuf7strings20CheckedArrayByteSinkE",
   "self_type" : "_ZTIKN6google8protobuf7strings20CheckedArrayByteSinkE",
   "size" : 40,
   "source_file" : "external/protobuf/src/google/protobuf/stubs/bytestream.h"
  },
  {
   "alignment" : 8,
   "is_const" : true,
   "linker_set_key" : "_ZTIKN6google8protobuf7strings22UncheckedArrayByteSinkE",
   "name" : "const google::protobuf::strings::UncheckedArrayByteSink",
   "referenced_type" : "_ZTIN6google8protobuf7strings22UncheckedArrayByteSinkE",
   "self_type" : "_ZTIKN6google8protobuf7strings22UncheckedArrayByteSinkE",
   "size" : 16,
   "source_file" : "external/protobuf/src/google/protobuf/stubs/bytestream.h"
  },
  {
   "alignment" : 8,
   "is_const" : true,
   "linker_set_key" : "_ZTIKN6google8protobuf8internal14StringPiecePodE",
   "name" : "const google::protobuf::internal::StringPiecePod",
   "referenced_type" : "_ZTIN6google8protobuf8internal14StringPiecePodE",
   "self_type" : "_ZTIKN6google8protobuf8internal14StringPiecePodE",
   "size" : 16,
   "source_file" : "external/protobuf/src/google/protobuf/stubs/stringpiece.h"
  },
  {
   "alignment" : 8,
   "is_const" : true,
   "linker_set_key" : "_ZTIKNSt3__112basic_stringIcNS_11char_traitsIcEENS_9allocatorIcEEEE",
   "name" : "const std::basic_string<char, std::char_traits<char>, std::allocator<char>>",
   "referenced_type" : "_ZTINSt3__112basic_stringIcNS_11char_traitsIcEENS_9allocatorIcEEEE",
   "self_type" : "_ZTIKNSt3__112basic_stringIcNS_11char_traitsIcEENS_9allocatorIcEEEE",
   "size" : 24,
   "source_file" : "external/protobuf/src/google/protobuf/stubs/common.h"
  },
  {
   "alignment" : 1,
   "is_const" : true,
   "linker_set_key" : "_ZTIKc",
   "name" : "const char",
   "referenced_type" : "_ZTIc",
   "self_type" : "_ZTIKc",
   "size" : 1,
   "source_file" : "external/protobuf/src/google/protobuf/stubs/hash.h"
  },
  {
   "alignment" : 4,
   "is_const" : true,
   "linker_set_key" : "_ZTIKi",
   "name" : "const int",
   "referenced_type" : "_ZTIi",
   "self_type" : "_ZTIKi",
   "size" : 4,
   "source_file" : "external/protobuf/src/google/protobuf/stubs/port.h"
  },
  {
   "alignment" : 4,
   "is_const" : true,
   "linker_set_key" : "_ZTIKj",
   "name" : "const unsigned int",
   "referenced_type" : "_ZTIj",
   "self_type" : "_ZTIKj",
   "size" : 4,
   "source_file" : "external/protobuf/src/google/protobuf/stubs/port.h"
  },
  {
   "alignment" : 8,
   "is_const" : true,
   "linker_set_key" : "_ZTIKl",
   "name" : "const long",
   "referenced_type" : "_ZTIl",
   "self_type" : "_ZTIKl",
   "size" : 8,
   "source_file" : "external/protobuf/src/google/protobuf/stubs/port.h"
  },
  {
   "alignment" : 8,
   "is_const" : true,
   "linker_set_key" : "_ZTIKm",
   "name" : "const unsigned long",
   "referenced_type" : "_ZTIm",
   "self_type" : "_ZTIKm",
   "size" : 8,
   "source_file" : "external/protobuf/src/google/protobuf/stubs/port.h"
  },
  {
   "is_const" : true,
   "linker_set_key" : "_ZTIKv",
   "name" : "const void",
   "referenced_type" : "_ZTIv",
   "self_type" : "_ZTIKv",
   "source_file" : "external/protobuf/src/google/protobuf/stubs/port.h"
  }
 ],
 "record_types" :
 [
  {
   "alignment" : 1,
   "linker_set_key" : "_ZTIN6google8protobuf11LogSilencerE",
   "name" : "google::protobuf::LogSilencer",
   "record_kind" : "class",
   "referenced_type" : "_ZTIN6google8protobuf11LogSilencerE",
   "self_type" : "_ZTIN6google8protobuf11LogSilencerE",
   "size" : 1,
   "source_file" : "external/protobuf/src/google/protobuf/stubs/logging.h"
  },
  {
   "alignment" : 8,
   "fields" :
   [
    {
     "access" : "private",
     "field_name" : "ptr_",
     "referenced_type" : "_ZTIPKc"
    },
    {
     "access" : "private",
     "field_name" : "length_",
     "field_offset" : 64,
     "referenced_type" : "_ZTIl"
    }
   ],
   "linker_set_key" : "_ZTIN6google8protobuf11StringPieceE",
   "name" : "google::protobuf::StringPiece",
   "record_kind" : "class",
   "referenced_type" : "_ZTIN6google8protobuf11StringPieceE",
   "self_type" : "_ZTIN6google8protobuf11StringPieceE",
   "size" : 16,
   "source_file" : "external/protobuf/src/google/protobuf/stubs/stringpiece.h"
  },
  {
   "alignment" : 1,
   "linker_set_key" : "_ZTIN6google8protobuf4BitsE",
   "name" : "google::protobuf::Bits",
   "record_kind" : "class",
   "referenced_type" : "_ZTIN6google8protobuf4BitsE",
   "self_type" : "_ZTIN6google8protobuf4BitsE",
   "size" : 1,
   "source_file" : "external/protobuf/src/google/protobuf/stubs/port.h"
  },
  {
   "alignment" : 1,
   "linker_set_key" : "_ZTIN6google8protobuf4hashINS0_11StringPieceEEE",
   "name" : "google::protobuf::hash<google::protobuf::StringPiece>",
   "referenced_type" : "_ZTIN6google8protobuf4hashINS0_11StringPieceEEE",
   "self_type" : "_ZTIN6google8protobuf4hashINS0_11StringPieceEEE",
   "size" : 1,
   "source_file" : "external/protobuf/src/google/protobuf/stubs/stringpiece.h",
   "template_args" : [ "_ZTIN6google8protobuf11StringPieceE" ]
  },
  {
   "alignment" : 1,
   "linker_set_key" : "_ZTIN6google8protobuf4hashINSt3__112basic_stringIcNS2_11char_traitsIcEENS2_9allocatorIcEEEEEE",
   "name" : "google::protobuf::hash<std::basic_string<char, std::char_traits<char>, std::allocator<char>>>",
   "referenced_type" : "_ZTIN6google8protobuf4hashINSt3__112basic_stringIcNS2_11char_traitsIcEENS2_9allocatorIcEEEEEE",
   "self_type" : "_ZTIN6google8protobuf4hashINSt3__112basic_stringIcNS2_11char_traitsIcEENS2_9allocatorIcEEEEEE",
   "size" : 1,
   "source_file" : "external/protobuf/src/google/protobuf/stubs/hash.h",
   "template_args" : [ "_ZTINSt3__112basic_stringIcNS_11char_traitsIcEENS_9allocatorIcEEEE" ]
  },
  {
   "alignment" : 1,
   "linker_set_key" : "_ZTIN6google8protobuf4hashIPKcEE",
   "name" : "google::protobuf::hash<const char *>",
   "referenced_type" : "_ZTIN6google8protobuf4hashIPKcEE",
   "self_type" : "_ZTIN6google8protobuf4hashIPKcEE",
   "size" : 1,
   "source_file" : "external/protobuf/src/google/protobuf/stubs/hash.h",
   "template_args" : [ "_ZTIPKc" ]
  },
  {
   "alignment" : 1,
   "linker_set_key" : "_ZTIN6google8protobuf4hashIbEE",
   "name" : "google::protobuf::hash<bool>",
   "referenced_type" : "_ZTIN6google8protobuf4hashIbEE",
   "self_type" : "_ZTIN6google8protobuf4hashIbEE",
   "size" : 1,
   "source_file" : "external/protobuf/src/google/protobuf/stubs/hash.h",
   "template_args" : [ "_ZTIb" ]
  },
  {
   "alignment" : 1,
   "linker_set_key" : "_ZTIN6google8protobuf5streqE",
   "name" : "google::protobuf::streq",
   "referenced_type" : "_ZTIN6google8protobuf5streqE",
   "self_type" : "_ZTIN6google8protobuf5streqE",
   "size" : 1,
   "source_file" : "external/protobuf/src/google/protobuf/stubs/hash.h"
  },
  {
   "alignment" : 8,
   "linker_set_key" : "_ZTIN6google8protobuf7strings10ByteSourceE",
   "name" : "google::protobuf::strings::ByteSource",
   "record_kind" : "class",
   "referenced_type" : "_ZTIN6google8protobuf7strings10ByteSourceE",
   "self_type" : "_ZTIN6google8protobuf7strings10ByteSourceE",
   "size" : 8,
   "source_file" : "external/protobuf/src/google/protobuf/stubs/bytestream.h",
   "vtable_components" :
   [
    {
     "kind" : "offset_to_top"
    },
    {
     "kind" : "rtti",
     "mangled_component_name" : "_ZTIN6google8protobuf7strings10ByteSourceE"
    },
    {
     "kind" : "complete_dtor_pointer",
     "mangled_component_name" : "_ZN6google8protobuf7strings10ByteSourceD1Ev"
    },
    {
     "kind" : "deleting_dtor_pointer",
     "mangled_component_name" : "_ZN6google8protobuf7strings10ByteSourceD0Ev"
    },
    {
     "is_pure" : true,
     "mangled_component_name" : "_ZNK6google8protobuf7strings10ByteSource9AvailableEv"
    },
    {
     "is_pure" : true,
     "mangled_component_name" : "_ZN6google8protobuf7strings10ByteSource4PeekEv"
    },
    {
     "is_pure" : true,
     "mangled_component_name" : "_ZN6google8protobuf7strings10ByteSource4SkipEm"
    },
    {
     "mangled_component_name" : "_ZN6google8protobuf7strings10ByteSource6CopyToEPNS1_8ByteSinkEm"
    }
   ]
  },
  {
   "alignment" : 8,
   "base_specifiers" :
   [
    {
     "referenced_type" : "_ZTIN6google8protobuf7strings8ByteSinkE"
    }
   ],
   "linker_set_key" : "_ZTIN6google8protobuf7strings12NullByteSinkE",
   "name" : "google::protobuf::strings::NullByteSink",
   "record_kind" : "class",
   "referenced_type" : "_ZTIN6google8protobuf7strings12NullByteSinkE",
   "self_type" : "_ZTIN6google8protobuf7strings12NullByteSinkE",
   "size" : 8,
   "source_file" : "external/protobuf/src/google/protobuf/stubs/bytestream.h",
   "vtable_components" :
   [
    {
     "kind" : "offset_to_top"
    },
    {
     "kind" : "rtti",
     "mangled_component_name" : "_ZTIN6google8protobuf7strings12NullByteSinkE"
    },
    {
     "kind" : "complete_dtor_pointer",
     "mangled_component_name" : "_ZN6google8protobuf7strings12NullByteSinkD1Ev"
    },
    {
     "kind" : "deleting_dtor_pointer",
     "mangled_component_name" : "_ZN6google8protobuf7strings12NullByteSinkD0Ev"
    },
    {
     "mangled_component_name" : "_ZN6google8protobuf7strings12NullByteSink6AppendEPKcm"
    },
    {
     "mangled_component_name" : "_ZN6google8protobuf7strings8ByteSink5FlushEv"
    }
   ]
  },
  {
   "alignment" : 8,
   "base_specifiers" :
   [
    {
     "referenced_type" : "_ZTIN6google8protobuf7strings8ByteSinkE"
    }
   ],
   "fields" :
   [
    {
     "access" : "private",
     "field_name" : "dest_",
     "field_offset" : 64,
     "referenced_type" : "_ZTIPNSt3__112basic_stringIcNS_11char_traitsIcEENS_9allocatorIcEEEE"
    }
   ],
   "linker_set_key" : "_ZTIN6google8protobuf7strings14StringByteSinkE",
   "name" : "google::protobuf::strings::StringByteSink",
   "record_kind" : "class",
   "referenced_type" : "_ZTIN6google8protobuf7strings14StringByteSinkE",
   "self_type" : "_ZTIN6google8protobuf7strings14StringByteSinkE",
   "size" : 16,
   "source_file" : "external/protobuf/src/google/protobuf/stubs/bytestream.h",
   "vtable_components" :
   [
    {
     "kind" : "offset_to_top"
    },
    {
     "kind" : "rtti",
     "mangled_component_name" : "_ZTIN6google8protobuf7strings14StringByteSinkE"
    },
    {
     "kind" : "complete_dtor_pointer",
     "mangled_component_name" : "_ZN6google8protobuf7strings14StringByteSinkD1Ev"
    },
    {
     "kind" : "deleting_dtor_pointer",
     "mangled_component_name" : "_ZN6google8protobuf7strings14StringByteSinkD0Ev"
    },
    {
     "mangled_component_name" : "_ZN6google8protobuf7strings14StringByteSink6AppendEPKcm"
    },
    {
     "mangled_component_name" : "_ZN6google8protobuf7strings8ByteSink5FlushEv"
    }
   ]
  },
  {
   "alignment" : 8,
   "base_specifiers" :
   [
    {
     "referenced_type" : "_ZTIN6google8protobuf7strings10ByteSourceE"
    }
   ],
   "fields" :
   [
    {
     "access" : "private",
     "field_name" : "input_",
     "field_offset" : 64,
     "referenced_type" : "_ZTIN6google8protobuf11StringPieceE"
    }
   ],
   "linker_set_key" : "_ZTIN6google8protobuf7strings15ArrayByteSourceE",
   "name" : "google::protobuf::strings::ArrayByteSource",
   "record_kind" : "class",
   "referenced_type" : "_ZTIN6google8protobuf7strings15ArrayByteSourceE",
   "self_type" : "_ZTIN6google8protobuf7strings15ArrayByteSourceE",
   "size" : 24,
   "source_file" : "external/protobuf/src/google/protobuf/stubs/bytestream.h",
   "vtable_components" :
   [
    {
     "kind" : "offset_to_top"
    },
    {
     "kind" : "rtti",
     "mangled_component_name" : "_ZTIN6google8protobuf7strings15ArrayByteSourceE"
    },
    {
     "kind" : "complete_dtor_pointer",
     "mangled_component_name" : "_ZN6google8protobuf7strings15ArrayByteSourceD1Ev"
    },
    {
     "kind" : "deleting_dtor_pointer",
     "mangled_component_name" : "_ZN6google8protobuf7strings15ArrayByteSourceD0Ev"
    },
    {
     "mangled_component_name" : "_ZNK6google8protobuf7strings15ArrayByteSource9AvailableEv"
    },
    {
     "mangled_component_name" : "_ZN6google8protobuf7strings15ArrayByteSource4PeekEv"
    },
    {
     "mangled_component_name" : "_ZN6google8protobuf7strings15ArrayByteSource4SkipEm"
    },
    {
     "mangled_component_name" : "_ZN6google8protobuf7strings10ByteSource6CopyToEPNS1_8ByteSinkEm"
    }
   ]
  },
  {
   "alignment" : 8,
   "base_specifiers" :
   [
    {
     "referenced_type" : "_ZTIN6google8protobuf7strings10ByteSourceE"
    }
   ],
   "fields" :
   [
    {
     "access" : "private",
     "field_name" : "source_",
     "field_offset" : 64,
     "referenced_type" : "_ZTIPN6google8protobuf7strings10ByteSourceE"
    },
    {
     "access" : "private",
     "field_name" : "limit_",
     "field_offset" : 128,
     "referenced_type" : "_ZTIm"
    }
   ],
   "linker_set_key" : "_ZTIN6google8protobuf7strings15LimitByteSourceE",
   "name" : "google::protobuf::strings::LimitByteSource",
   "record_kind" : "class",
   "referenced_type" : "_ZTIN6google8protobuf7strings15LimitByteSourceE",
   "self_type" : "_ZTIN6google8protobuf7strings15LimitByteSourceE",
   "size" : 24,
   "source_file" : "external/protobuf/src/google/protobuf/stubs/bytestream.h",
   "vtable_components" :
   [
    {
     "kind" : "offset_to_top"
    },
    {
     "kind" : "rtti",
     "mangled_component_name" : "_ZTIN6google8protobuf7strings15LimitByteSourceE"
    },
    {
     "kind" : "complete_dtor_pointer",
     "mangled_component_name" : "_ZN6google8protobuf7strings15LimitByteSourceD1Ev"
    },
    {
     "kind" : "deleting_dtor_pointer",
     "mangled_component_name" : "_ZN6google8protobuf7strings15LimitByteSourceD0Ev"
    },
    {
     "mangled_component_name" : "_ZNK6google8protobuf7strings15LimitByteSource9AvailableEv"
    },
    {
     "mangled_component_name" : "_ZN6google8protobuf7strings15LimitByteSource4PeekEv"
    },
    {
     "mangled_component_name" : "_ZN6google8protobuf7strings15LimitByteSource4SkipEm"
    },
    {
     "mangled_component_name" : "_ZN6google8protobuf7strings15LimitByteSource6CopyToEPNS1_8ByteSinkEm"
    }
   ]
  },
  {
   "alignment" : 8,
   "base_specifiers" :
   [
    {
     "referenced_type" : "_ZTIN6google8protobuf7strings8ByteSinkE"
    }
   ],
   "fields" :
   [
    {
     "access" : "private",
     "field_name" : "outbuf_",
     "field_offset" : 64,
     "referenced_type" : "_ZTIPc"
    },
    {
     "access" : "private",
     "field_name" : "capacity_",
     "field_offset" : 128,
     "referenced_type" : "_ZTIKm"
    },
    {
     "access" : "private",
     "field_name" : "size_",
     "field_offset" : 192,
     "referenced_type" : "_ZTIm"
    },
    {
     "access" : "private",
     "field_name" : "overflowed_",
     "field_offset" : 256,
     "referenced_type" : "_ZTIb"
    }
   ],
   "linker_set_key" : "_ZTIN6google8protobuf7strings20CheckedArrayByteSinkE",
   "name" : "google::protobuf::strings::CheckedArrayByteSink",
   "record_kind" : "class",
   "referenced_type" : "_ZTIN6google8protobuf7strings20CheckedArrayByteSinkE",
   "self_type" : "_ZTIN6google8protobuf7strings20CheckedArrayByteSinkE",
   "size" : 40,
   "source_file" : "external/protobuf/src/google/protobuf/stubs/bytestream.h",
   "vtable_components" :
   [
    {
     "kind" : "offset_to_top"
    },
    {
     "kind" : "rtti",
     "mangled_component_name" : "_ZTIN6google8protobuf7strings20CheckedArrayByteSinkE"
    },
    {
     "kind" : "complete_dtor_pointer",
     "mangled_component_name" : "_ZN6google8protobuf7strings20CheckedArrayByteSinkD1Ev"
    },
    {
     "kind" : "deleting_dtor_pointer",
     "mangled_component_name" : "_ZN6google8protobuf7strings20CheckedArrayByteSinkD0Ev"
    },
    {
     "mangled_component_name" : "_ZN6google8protobuf7strings20CheckedArrayByteSink6AppendEPKcm"
    },
    {
     "mangled_component_name" : "_ZN6google8protobuf7strings8ByteSink5FlushEv"
    }
   ]
  },
  {
   "alignment" : 8,
   "base_specifiers" :
   [
    {
     "referenced_type" : "_ZTIN6google8protobuf7strings8ByteSinkE"
    }
   ],
   "fields" :
   [
    {
     "access" : "private",
     "field_name" : "capacity_",
     "field_offset" : 64,
     "referenced_type" : "_ZTIm"
    },
    {
     "access" : "private",
     "field_name" : "buf_",
     "field_offset" : 128,
     "referenced_type" : "_ZTIPc"
    },
    {
     "access" : "private",
     "field_name" : "size_",
     "field_offset" : 192,
     "referenced_type" : "_ZTIm"
    }
   ],
   "linker_set_key" : "_ZTIN6google8protobuf7strings20GrowingArrayByteSinkE",
   "name" : "google::protobuf::strings::GrowingArrayByteSink",
   "record_kind" : "class",
   "referenced_type" : "_ZTIN6google8protobuf7strings20GrowingArrayByteSinkE",
   "self_type" : "_ZTIN6google8protobuf7strings20GrowingArrayByteSinkE",
   "size" : 32,
   "source_file" : "external/protobuf/src/google/protobuf/stubs/bytestream.h",
   "vtable_components" :
   [
    {
     "kind" : "offset_to_top"
    },
    {
     "kind" : "rtti",
     "mangled_component_name" : "_ZTIN6google8protobuf7strings20GrowingArrayByteSinkE"
    },
    {
     "kind" : "complete_dtor_pointer",
     "mangled_component_name" : "_ZN6google8protobuf7strings20GrowingArrayByteSinkD1Ev"
    },
    {
     "kind" : "deleting_dtor_pointer",
     "mangled_component_name" : "_ZN6google8protobuf7strings20GrowingArrayByteSinkD0Ev"
    },
    {
     "mangled_component_name" : "_ZN6google8protobuf7strings20GrowingArrayByteSink6AppendEPKcm"
    },
    {
     "mangled_component_name" : "_ZN6google8protobuf7strings8ByteSink5FlushEv"
    }
   ]
  },
  {
   "alignment" : 8,
   "base_specifiers" :
   [
    {
     "referenced_type" : "_ZTIN6google8protobuf7strings8ByteSinkE"
    }
   ],
   "fields" :
   [
    {
     "access" : "private",
     "field_name" : "dest_",
     "field_offset" : 64,
     "referenced_type" : "_ZTIPc"
    }
   ],
   "linker_set_key" : "_ZTIN6google8protobuf7strings22UncheckedArrayByteSinkE",
   "name" : "google::protobuf::strings::UncheckedArrayByteSink",
   "record_kind" : "class",
   "referenced_type" : "_ZTIN6google8protobuf7strings22UncheckedArrayByteSinkE",
   "self_type" : "_ZTIN6google8protobuf7strings22UncheckedArrayByteSinkE",
   "size" : 16,
   "source_file" : "external/protobuf/src/google/protobuf/stubs/bytestream.h",
   "vtable_components" :
   [
    {
     "kind" : "offset_to_top"
    },
    {
     "kind" : "rtti",
     "mangled_component_name" : "_ZTIN6google8protobuf7strings22UncheckedArrayByteSinkE"
    },
    {
     "kind" : "complete_dtor_pointer",
     "mangled_component_name" : "_ZN6google8protobuf7strings22UncheckedArrayByteSinkD1Ev"
    },
    {
     "kind" : "deleting_dtor_pointer",
     "mangled_component_name" : "_ZN6google8protobuf7strings22UncheckedArrayByteSinkD0Ev"
    },
    {
     "mangled_component_name" : "_ZN6google8protobuf7strings22UncheckedArrayByteSink6AppendEPKcm"
    },
    {
     "mangled_component_name" : "_ZN6google8protobuf7strings8ByteSink5FlushEv"
    }
   ]
  },
  {
   "alignment" : 8,
   "linker_set_key" : "_ZTIN6google8protobuf7strings8ByteSinkE",
   "name" : "google::protobuf::strings::ByteSink",
   "record_kind" : "class",
   "referenced_type" : "_ZTIN6google8protobuf7strings8ByteSinkE",
   "self_type" : "_ZTIN6google8protobuf7strings8ByteSinkE",
   "size" : 8,
   "source_file" : "external/protobuf/src/google/protobuf/stubs/bytestream.h",
   "vtable_components" :
   [
    {
     "kind" : "offset_to_top"
    },
    {
     "kind" : "rtti",
     "mangled_component_name" : "_ZTIN6google8protobuf7strings8ByteSinkE"
    },
    {
     "kind" : "complete_dtor_pointer",
     "mangled_component_name" : "_ZN6google8protobuf7strings8ByteSinkD1Ev"
    },
    {
     "kind" : "deleting_dtor_pointer",
     "mangled_component_name" : "_ZN6google8protobuf7strings8ByteSinkD0Ev"
    },
    {
     "is_pure" : true,
     "mangled_component_name" : "_ZN6google8protobuf7strings8ByteSink6AppendEPKcm"
    },
    {
     "mangled_component_name" : "_ZN6google8protobuf7strings8ByteSink5FlushEv"
    }
   ]
  },
  {
   "alignment" : 8,
   "fields" :
   [
    {
     "access" : "private",
     "field_name" : "level_",
     "referenced_type" : "_ZTIN6google8protobuf8LogLevelE"
    },
    {
     "access" : "private",
     "field_name" : "filename_",
     "field_offset" : 64,
     "referenced_type" : "_ZTIPKc"
    },
    {
     "access" : "private",
     "field_name" : "line_",
     "field_offset" : 128,
     "referenced_type" : "_ZTIi"
    },
    {
     "access" : "private",
     "field_name" : "message_",
     "field_offset" : 192,
     "referenced_type" : "_ZTINSt3__112basic_stringIcNS_11char_traitsIcEENS_9allocatorIcEEEE"
    }
   ],
   "linker_set_key" : "_ZTIN6google8protobuf8internal10LogMessageE",
   "name" : "google::protobuf::internal::LogMessage",
   "record_kind" : "class",
   "referenced_type" : "_ZTIN6google8protobuf8internal10LogMessageE",
   "self_type" : "_ZTIN6google8protobuf8internal10LogMessageE",
   "size" : 48,
   "source_file" : "external/protobuf/src/google/protobuf/stubs/logging.h"
  },
  {
   "alignment" : 1,
   "linker_set_key" : "_ZTIN6google8protobuf8internal11LogFinisherE",
   "name" : "google::protobuf::internal::LogFinisher",
   "record_kind" : "class",
   "referenced_type" : "_ZTIN6google8protobuf8internal11LogFinisherE",
   "self_type" : "_ZTIN6google8protobuf8internal11LogFinisherE",
   "size" : 1,
   "source_file" : "external/protobuf/src/google/protobuf/stubs/logging.h"
  },
  {
   "alignment" : 8,
   "fields" :
   [
    {
     "access" : "private",
     "field_name" : "data_",
     "referenced_type" : "_ZTIPKc"
    },
    {
     "access" : "private",
     "field_name" : "size_",
     "field_offset" : 64,
     "referenced_type" : "_ZTIl"
    }
   ],
   "linker_set_key" : "_ZTIN6google8protobuf8internal14StringPiecePodE",
   "name" : "google::protobuf::internal::StringPiecePod",
   "referenced_type" : "_ZTIN6google8protobuf8internal14StringPiecePodE",
   "self_type" : "_ZTIN6google8protobuf8internal14StringPiecePodE",
   "size" : 16,
   "source_file" : "external/protobuf/src/google/protobuf/stubs/stringpiece.h"
  },
  {
   "alignment" : 1,
   "linker_set_key" : "_ZTIN6google8protobuf9BigEndianE",
   "name" : "google::protobuf::BigEndian",
   "record_kind" : "class",
   "referenced_type" : "_ZTIN6google8protobuf9BigEndianE",
   "self_type" : "_ZTIN6google8protobuf9BigEndianE",
   "size" : 1,
   "source_file" : "external/protobuf/src/google/protobuf/stubs/port.h"
  }
 ],
 "rvalue_reference_types" : []
}
