<abi-corpus version='2.0' path='data/test-read-dwarf/PR22015-libboost_iostreams.so'>
  <elf-needed>
    <dependency name='build/cached/third_party/boost-1.60.0/libboost_system.so'/>
    <dependency name='libm.so.6'/>
    <dependency name='libssl.so.1.0.0'/>
    <dependency name='libcrypto.so.1.0.0'/>
    <dependency name='librt.so.1'/>
    <dependency name='libdl.so.2'/>
    <dependency name='libatomic.so.1'/>
    <dependency name='libstdc++.so.6'/>
    <dependency name='libgcc_s.so.1'/>
    <dependency name='libpthread.so.0'/>
    <dependency name='libc.so.6'/>
  </elf-needed>
  <elf-function-symbols>
    <elf-symbol name='_ZN5boost10shared_ptrINS_9iostreams6detail16mapped_file_implEE5resetIS3_EEvPT_' type='func-type' binding='weak-binding' visibility='default-visibility' is-defined='yes'/>
    <elf-symbol name='_ZN5boost10shared_ptrINS_9iostreams6detail20file_descriptor_implEE5resetIS3_EEvPT_' type='func-type' binding='weak-binding' visibility='default-visibility' is-defined='yes'/>
    <elf-symbol name='_ZN5boost15throw_exceptionINSt8ios_base7failureB5cxx11EEEvRKT_' type='func-type' binding='weak-binding' visibility='default-visibility' is-defined='yes'/>
    <elf-symbol name='_ZN5boost16exception_detail20copy_boost_exceptionEPNS_9exceptionEPKS1_' type='func-type' binding='weak-binding' visibility='default-visibility' is-defined='yes'/>
    <elf-symbol name='_ZN5boost24enable_current_exceptionINS_16exception_detail19error_info_injectorINSt8ios_base7failureB5cxx11EEEEENS1_10clone_implIT_EERKS7_' type='func-type' binding='weak-binding' visibility='default-visibility' is-defined='yes'/>
    <elf-symbol name='_ZN5boost6detail20sp_pointer_constructINS_9iostreams6detail16mapped_file_implES4_EEvPNS_10shared_ptrIT_EEPT0_RNS0_12shared_countE' type='func-type' binding='weak-binding' visibility='default-visibility' is-defined='yes'/>
    <elf-symbol name='_ZN5boost6detail20sp_pointer_constructINS_9iostreams6detail20file_descriptor_implES4_EEvPNS_10shared_ptrIT_EEPT0_RNS0_12shared_countE' type='func-type' binding='weak-binding' visibility='default-visibility' is-defined='yes'/>
    <elf-symbol name='_ZN5boost6detail26sp_enable_shared_from_thisEz' type='func-type' binding='weak-binding' visibility='default-visibility' is-defined='yes'/>
    <elf-symbol name='_ZN5boost9iostreams11mapped_file6resizeEl' type='func-type' binding='global-binding' visibility='default-visibility' is-defined='yes'/>
    <elf-symbol name='_ZN5boost9iostreams11mapped_fileC1ERKS1_' type='func-type' binding='global-binding' visibility='default-visibility' is-defined='yes'/>
    <elf-symbol name='_ZN5boost9iostreams11mapped_fileC2ERKS1_' type='func-type' binding='global-binding' visibility='default-visibility' alias='_ZN5boost9iostreams11mapped_fileC1ERKS1_' is-defined='yes'/>
    <elf-symbol name='_ZN5boost9iostreams15file_descriptor4initEv' type='func-type' binding='global-binding' visibility='default-visibility' is-defined='yes'/>
    <elf-symbol name='_ZN5boost9iostreams15file_descriptor4openEPKcSt13_Ios_Openmode' type='func-type' binding='global-binding' visibility='default-visibility' is-defined='yes'/>
    <elf-symbol name='_ZN5boost9iostreams15file_descriptor4openERKNS0_6detail4pathESt13_Ios_OpenmodeS6_' type='func-type' binding='global-binding' visibility='default-visibility' is-defined='yes'/>
    <elf-symbol name='_ZN5boost9iostreams15file_descriptor4openERKNSt7__cxx1112basic_stringIcSt11char_traitsIcESaIcEEESt13_Ios_Openmode' type='func-type' binding='global-binding' visibility='default-visibility' is-defined='yes'/>
    <elf-symbol name='_ZN5boost9iostreams15file_descriptor4openEiNS0_21file_descriptor_flagsE' type='func-type' binding='global-binding' visibility='default-visibility' is-defined='yes'/>
    <elf-symbol name='_ZN5boost9iostreams15file_descriptor4readEPcl' type='func-type' binding='global-binding' visibility='default-visibility' is-defined='yes'/>
    <elf-symbol name='_ZN5boost9iostreams15file_descriptor4seekElSt12_Ios_Seekdir' type='func-type' binding='global-binding' visibility='default-visibility' is-defined='yes'/>
    <elf-symbol name='_ZN5boost9iostreams15file_descriptor5closeEv' type='func-type' binding='global-binding' visibility='default-visibility' is-defined='yes'/>
    <elf-symbol name='_ZN5boost9iostreams15file_descriptor5writeEPKcl' type='func-type' binding='global-binding' visibility='default-visibility' is-defined='yes'/>
    <elf-symbol name='_ZN5boost9iostreams15file_descriptorC1EPKcSt13_Ios_Openmode' type='func-type' binding='global-binding' visibility='default-visibility' is-defined='yes'/>
    <elf-symbol name='_ZN5boost9iostreams15file_descriptorC1ERKNSt7__cxx1112basic_stringIcSt11char_traitsIcESaIcEEESt13_Ios_Openmode' type='func-type' binding='global-binding' visibility='default-visibility' is-defined='yes'/>
    <elf-symbol name='_ZN5boost9iostreams15file_descriptorC1ERKS1_' type='func-type' binding='global-binding' visibility='default-visibility' is-defined='yes'/>
    <elf-symbol name='_ZN5boost9iostreams15file_descriptorC1EiNS0_21file_descriptor_flagsE' type='func-type' binding='global-binding' visibility='default-visibility' is-defined='yes'/>
    <elf-symbol name='_ZN5boost9iostreams15file_descriptorC1Ev' type='func-type' binding='global-binding' visibility='default-visibility' is-defined='yes'/>
    <elf-symbol name='_ZN5boost9iostreams15file_descriptorC2EPKcSt13_Ios_Openmode' type='func-type' binding='global-binding' visibility='default-visibility' alias='_ZN5boost9iostreams15file_descriptorC1EPKcSt13_Ios_Openmode' is-defined='yes'/>
    <elf-symbol name='_ZN5boost9iostreams15file_descriptorC2ERKNSt7__cxx1112basic_stringIcSt11char_traitsIcESaIcEEESt13_Ios_Openmode' type='func-type' binding='global-binding' visibility='default-visibility' alias='_ZN5boost9iostreams15file_descriptorC1ERKNSt7__cxx1112basic_stringIcSt11char_traitsIcESaIcEEESt13_Ios_Openmode' is-defined='yes'/>
    <elf-symbol name='_ZN5boost9iostreams15file_descriptorC2ERKS1_' type='func-type' binding='global-binding' visibility='default-visibility' alias='_ZN5boost9iostreams15file_descriptorC1ERKS1_' is-defined='yes'/>
    <elf-symbol name='_ZN5boost9iostreams15file_descriptorC2EiNS0_21file_descriptor_flagsE' type='func-type' binding='global-binding' visibility='default-visibility' alias='_ZN5boost9iostreams15file_descriptorC1EiNS0_21file_descriptor_flagsE' is-defined='yes'/>
    <elf-symbol name='_ZN5boost9iostreams15file_descriptorC2Ev' type='func-type' binding='global-binding' visibility='default-visibility' alias='_ZN5boost9iostreams15file_descriptorC1Ev' is-defined='yes'/>
    <elf-symbol name='_ZN5boost9iostreams16mapped_file_sinkC1ERKS1_' type='func-type' binding='global-binding' visibility='default-visibility' is-defined='yes'/>
    <elf-symbol name='_ZN5boost9iostreams16mapped_file_sinkC2ERKS1_' type='func-type' binding='global-binding' visibility='default-visibility' alias='_ZN5boost9iostreams16mapped_file_sinkC1ERKS1_' is-defined='yes'/>
    <elf-symbol name='_ZN5boost9iostreams18mapped_file_source4initEv' type='func-type' binding='global-binding' visibility='default-visibility' is-defined='yes'/>
    <elf-symbol name='_ZN5boost9iostreams18mapped_file_source5closeEv' type='func-type' binding='global-binding' visibility='default-visibility' is-defined='yes'/>
    <elf-symbol name='_ZN5boost9iostreams18mapped_file_source9alignmentEv' type='func-type' binding='global-binding' visibility='default-visibility' is-defined='yes'/>
    <elf-symbol name='_ZN5boost9iostreams18mapped_file_source9open_implERKNS0_24basic_mapped_file_paramsINS0_6detail4pathEEE' type='func-type' binding='global-binding' visibility='default-visibility' is-defined='yes'/>
    <elf-symbol name='_ZN5boost9iostreams18mapped_file_sourceC1ERKS1_' type='func-type' binding='global-binding' visibility='default-visibility' is-defined='yes'/>
    <elf-symbol name='_ZN5boost9iostreams18mapped_file_sourceC1Ev' type='func-type' binding='global-binding' visibility='default-visibility' is-defined='yes'/>
    <elf-symbol name='_ZN5boost9iostreams18mapped_file_sourceC2ERKS1_' type='func-type' binding='global-binding' visibility='default-visibility' alias='_ZN5boost9iostreams18mapped_file_sourceC1ERKS1_' is-defined='yes'/>
    <elf-symbol name='_ZN5boost9iostreams18mapped_file_sourceC2Ev' type='func-type' binding='global-binding' visibility='default-visibility' alias='_ZN5boost9iostreams18mapped_file_sourceC1Ev' is-defined='yes'/>
    <elf-symbol name='_ZN5boost9iostreams20file_descriptor_sink4openEPKcSt13_Ios_Openmode' type='func-type' binding='global-binding' visibility='default-visibility' is-defined='yes'/>
    <elf-symbol name='_ZN5boost9iostreams20file_descriptor_sink4openERKNS0_6detail4pathESt13_Ios_Openmode' type='func-type' binding='global-binding' visibility='default-visibility' is-defined='yes'/>
    <elf-symbol name='_ZN5boost9iostreams20file_descriptor_sink4openERKNSt7__cxx1112basic_stringIcSt11char_traitsIcESaIcEEESt13_Ios_Openmode' type='func-type' binding='global-binding' visibility='default-visibility' is-defined='yes'/>
    <elf-symbol name='_ZN5boost9iostreams20file_descriptor_sink4openEiNS0_21file_descriptor_flagsE' type='func-type' binding='global-binding' visibility='default-visibility' is-defined='yes'/>
    <elf-symbol name='_ZN5boost9iostreams20file_descriptor_sinkC1EPKcSt13_Ios_Openmode' type='func-type' binding='global-binding' visibility='default-visibility' is-defined='yes'/>
    <elf-symbol name='_ZN5boost9iostreams20file_descriptor_sinkC1ERKNSt7__cxx1112basic_stringIcSt11char_traitsIcESaIcEEESt13_Ios_Openmode' type='func-type' binding='global-binding' visibility='default-visibility' is-defined='yes'/>
    <elf-symbol name='_ZN5boost9iostreams20file_descriptor_sinkC1ERKS1_' type='func-type' binding='global-binding' visibility='default-visibility' is-defined='yes'/>
    <elf-symbol name='_ZN5boost9iostreams20file_descriptor_sinkC1EiNS0_21file_descriptor_flagsE' type='func-type' binding='global-binding' visibility='default-visibility' is-defined='yes'/>
    <elf-symbol name='_ZN5boost9iostreams20file_descriptor_sinkC2EPKcSt13_Ios_Openmode' type='func-type' binding='global-binding' visibility='default-visibility' alias='_ZN5boost9iostreams20file_descriptor_sinkC1EPKcSt13_Ios_Openmode' is-defined='yes'/>
    <elf-symbol name='_ZN5boost9iostreams20file_descriptor_sinkC2ERKNSt7__cxx1112basic_stringIcSt11char_traitsIcESaIcEEESt13_Ios_Openmode' type='func-type' binding='global-binding' visibility='default-visibility' alias='_ZN5boost9iostreams20file_descriptor_sinkC1ERKNSt7__cxx1112basic_stringIcSt11char_traitsIcESaIcEEESt13_Ios_Openmode' is-defined='yes'/>
    <elf-symbol name='_ZN5boost9iostreams20file_descriptor_sinkC2ERKS1_' type='func-type' binding='global-binding' visibility='default-visibility' alias='_ZN5boost9iostreams20file_descriptor_sinkC1ERKS1_' is-defined='yes'/>
    <elf-symbol name='_ZN5boost9iostreams20file_descriptor_sinkC2EiNS0_21file_descriptor_flagsE' type='func-type' binding='global-binding' visibility='default-visibility' alias='_ZN5boost9iostreams20file_descriptor_sinkC1EiNS0_21file_descriptor_flagsE' is-defined='yes'/>
    <elf-symbol name='_ZN5boost9iostreams22file_descriptor_source4openEPKcSt13_Ios_Openmode' type='func-type' binding='global-binding' visibility='default-visibility' is-defined='yes'/>
    <elf-symbol name='_ZN5boost9iostreams22file_descriptor_source4openERKNS0_6detail4pathESt13_Ios_Openmode' type='func-type' binding='global-binding' visibility='default-visibility' is-defined='yes'/>
    <elf-symbol name='_ZN5boost9iostreams22file_descriptor_source4openERKNSt7__cxx1112basic_stringIcSt11char_traitsIcESaIcEEESt13_Ios_Openmode' type='func-type' binding='global-binding' visibility='default-visibility' is-defined='yes'/>
    <elf-symbol name='_ZN5boost9iostreams22file_descriptor_source4openEiNS0_21file_descriptor_flagsE' type='func-type' binding='global-binding' visibility='default-visibility' is-defined='yes'/>
    <elf-symbol name='_ZN5boost9iostreams22file_descriptor_sourceC1EPKcSt13_Ios_Openmode' type='func-type' binding='global-binding' visibility='default-visibility' is-defined='yes'/>
    <elf-symbol name='_ZN5boost9iostreams22file_descriptor_sourceC1ERKNSt7__cxx1112basic_stringIcSt11char_traitsIcESaIcEEESt13_Ios_Openmode' type='func-type' binding='global-binding' visibility='default-visibility' is-defined='yes'/>
    <elf-symbol name='_ZN5boost9iostreams22file_descriptor_sourceC1ERKS1_' type='func-type' binding='global-binding' visibility='default-visibility' is-defined='yes'/>
    <elf-symbol name='_ZN5boost9iostreams22file_descriptor_sourceC1EiNS0_21file_descriptor_flagsE' type='func-type' binding='global-binding' visibility='default-visibility' is-defined='yes'/>
    <elf-symbol name='_ZN5boost9iostreams22file_descriptor_sourceC2EPKcSt13_Ios_Openmode' type='func-type' binding='global-binding' visibility='default-visibility' alias='_ZN5boost9iostreams22file_descriptor_sourceC1EPKcSt13_Ios_Openmode' is-defined='yes'/>
    <elf-symbol name='_ZN5boost9iostreams22file_descriptor_sourceC2ERKNSt7__cxx1112basic_stringIcSt11char_traitsIcESaIcEEESt13_Ios_Openmode' type='func-type' binding='global-binding' visibility='default-visibility' alias='_ZN5boost9iostreams22file_descriptor_sourceC1ERKNSt7__cxx1112basic_stringIcSt11char_traitsIcESaIcEEESt13_Ios_Openmode' is-defined='yes'/>
    <elf-symbol name='_ZN5boost9iostreams22file_descriptor_sourceC2ERKS1_' type='func-type' binding='global-binding' visibility='default-visibility' alias='_ZN5boost9iostreams22file_descriptor_sourceC1ERKS1_' is-defined='yes'/>
    <elf-symbol name='_ZN5boost9iostreams22file_descriptor_sourceC2EiNS0_21file_descriptor_flagsE' type='func-type' binding='global-binding' visibility='default-visibility' alias='_ZN5boost9iostreams22file_descriptor_sourceC1EiNS0_21file_descriptor_flagsE' is-defined='yes'/>
    <elf-symbol name='_ZN5boost9iostreams6detail14system_failureB5cxx11EPKc' type='func-type' binding='weak-binding' visibility='default-visibility' is-defined='yes'/>
    <elf-symbol name='_ZN5boost9iostreams6detail16mapped_file_impl10unmap_fileEv' type='func-type' binding='global-binding' visibility='default-visibility' is-defined='yes'/>
    <elf-symbol name='_ZN5boost9iostreams6detail16mapped_file_impl12try_map_fileENS0_24basic_mapped_file_paramsINS1_4pathEEE' type='func-type' binding='global-binding' visibility='default-visibility' is-defined='yes'/>
    <elf-symbol name='_ZN5boost9iostreams6detail16mapped_file_impl17cleanup_and_throwEPKc' type='func-type' binding='global-binding' visibility='default-visibility' is-defined='yes'/>
    <elf-symbol name='_ZN5boost9iostreams6detail16mapped_file_impl4openENS0_24basic_mapped_file_paramsINS1_4pathEEE' type='func-type' binding='global-binding' visibility='default-visibility' is-defined='yes'/>
    <elf-symbol name='_ZN5boost9iostreams6detail16mapped_file_impl5clearEb' type='func-type' binding='global-binding' visibility='default-visibility' is-defined='yes'/>
    <elf-symbol name='_ZN5boost9iostreams6detail16mapped_file_impl5closeEv' type='func-type' binding='global-binding' visibility='default-visibility' is-defined='yes'/>
    <elf-symbol name='_ZN5boost9iostreams6detail16mapped_file_impl6resizeEl' type='func-type' binding='global-binding' visibility='default-visibility' is-defined='yes'/>
    <elf-symbol name='_ZN5boost9iostreams6detail16mapped_file_impl8map_fileERNS0_24basic_mapped_file_paramsINS1_4pathEEE' type='func-type' binding='global-binding' visibility='default-visibility' is-defined='yes'/>
    <elf-symbol name='_ZN5boost9iostreams6detail16mapped_file_impl9alignmentEv' type='func-type' binding='global-binding' visibility='default-visibility' is-defined='yes'/>
    <elf-symbol name='_ZN5boost9iostreams6detail16mapped_file_impl9open_fileENS0_24basic_mapped_file_paramsINS1_4pathEEE' type='func-type' binding='global-binding' visibility='default-visibility' is-defined='yes'/>
    <elf-symbol name='_ZN5boost9iostreams6detail16mapped_file_implC1Ev' type='func-type' binding='global-binding' visibility='default-visibility' is-defined='yes'/>
    <elf-symbol name='_ZN5boost9iostreams6detail16mapped_file_implC2Ev' type='func-type' binding='global-binding' visibility='default-visibility' alias='_ZN5boost9iostreams6detail16mapped_file_implC1Ev' is-defined='yes'/>
    <elf-symbol name='_ZN5boost9iostreams6detail16mapped_file_implD1Ev' type='func-type' binding='global-binding' visibility='default-visibility' is-defined='yes'/>
    <elf-symbol name='_ZN5boost9iostreams6detail16mapped_file_implD2Ev' type='func-type' binding='global-binding' visibility='default-visibility' alias='_ZN5boost9iostreams6detail16mapped_file_implD1Ev' is-defined='yes'/>
    <elf-symbol name='_ZN5boost9iostreams6detail20file_descriptor_impl10close_implEbb' type='func-type' binding='global-binding' visibility='default-visibility' is-defined='yes'/>
    <elf-symbol name='_ZN5boost9iostreams6detail20file_descriptor_impl14invalid_handleEv' type='func-type' binding='global-binding' visibility='default-visibility' is-defined='yes'/>
    <elf-symbol name='_ZN5boost9iostreams6detail20file_descriptor_impl4openERKNS1_4pathESt13_Ios_Openmode' type='func-type' binding='global-binding' visibility='default-visibility' is-defined='yes'/>
    <elf-symbol name='_ZN5boost9iostreams6detail20file_descriptor_impl4openEiNS2_5flagsE' type='func-type' binding='global-binding' visibility='default-visibility' is-defined='yes'/>
    <elf-symbol name='_ZN5boost9iostreams6detail20file_descriptor_impl4readEPcl' type='func-type' binding='global-binding' visibility='default-visibility' is-defined='yes'/>
    <elf-symbol name='_ZN5boost9iostreams6detail20file_descriptor_impl4seekElSt12_Ios_Seekdir' type='func-type' binding='global-binding' visibility='default-visibility' is-defined='yes'/>
    <elf-symbol name='_ZN5boost9iostreams6detail20file_descriptor_impl5closeEv' type='func-type' binding='global-binding' visibility='default-visibility' is-defined='yes'/>
    <elf-symbol name='_ZN5boost9iostreams6detail20file_descriptor_impl5writeEPKcl' type='func-type' binding='global-binding' visibility='default-visibility' is-defined='yes'/>
    <elf-symbol name='_ZN5boost9iostreams6detail20file_descriptor_implC1Ev' type='func-type' binding='global-binding' visibility='default-visibility' is-defined='yes'/>
    <elf-symbol name='_ZN5boost9iostreams6detail20file_descriptor_implC2Ev' type='func-type' binding='global-binding' visibility='default-visibility' alias='_ZN5boost9iostreams6detail20file_descriptor_implC1Ev' is-defined='yes'/>
    <elf-symbol name='_ZN5boost9iostreams6detail20file_descriptor_implD1Ev' type='func-type' binding='global-binding' visibility='default-visibility' is-defined='yes'/>
    <elf-symbol name='_ZN5boost9iostreams6detail20file_descriptor_implD2Ev' type='func-type' binding='global-binding' visibility='default-visibility' alias='_ZN5boost9iostreams6detail20file_descriptor_implD1Ev' is-defined='yes'/>
    <elf-symbol name='_ZN5boost9iostreams6detail23mapped_file_params_base9normalizeEv' type='func-type' binding='global-binding' visibility='default-visibility' is-defined='yes'/>
    <elf-symbol name='_ZNK5boost9iostreams15file_descriptor6handleEv' type='func-type' binding='global-binding' visibility='default-visibility' is-defined='yes'/>
    <elf-symbol name='_ZNK5boost9iostreams15file_descriptor7is_openEv' type='func-type' binding='global-binding' visibility='default-visibility' is-defined='yes'/>
    <elf-symbol name='_ZNK5boost9iostreams18mapped_file_source3endEv' type='func-type' binding='global-binding' visibility='default-visibility' is-defined='yes'/>
    <elf-symbol name='_ZNK5boost9iostreams18mapped_file_source4dataEv' type='func-type' binding='global-binding' visibility='default-visibility' is-defined='yes'/>
    <elf-symbol name='_ZNK5boost9iostreams18mapped_file_source4sizeEv' type='func-type' binding='global-binding' visibility='default-visibility' is-defined='yes'/>
    <elf-symbol name='_ZNK5boost9iostreams18mapped_file_source5beginEv' type='func-type' binding='global-binding' visibility='default-visibility' is-defined='yes'/>
    <elf-symbol name='_ZNK5boost9iostreams18mapped_file_source5flagsEv' type='func-type' binding='global-binding' visibility='default-visibility' is-defined='yes'/>
    <elf-symbol name='_ZNK5boost9iostreams18mapped_file_source7is_openEv' type='func-type' binding='global-binding' visibility='default-visibility' is-defined='yes'/>
    <elf-symbol name='_ZNK5boost9iostreams18mapped_file_sourcecvMNS1_16safe_bool_helperEiEv' type='func-type' binding='global-binding' visibility='default-visibility' is-defined='yes'/>
    <elf-symbol name='_ZNK5boost9iostreams18mapped_file_sourcentEv' type='func-type' binding='global-binding' visibility='default-visibility' is-defined='yes'/>
    <elf-symbol name='_ZNK5boost9iostreams6detail20file_descriptor_impl7is_openEv' type='func-type' binding='global-binding' visibility='default-visibility' is-defined='yes'/>
    <elf-symbol name='_fini' type='func-type' binding='global-binding' visibility='default-visibility' is-defined='yes'/>
    <elf-symbol name='_init' type='func-type' binding='global-binding' visibility='default-visibility' is-defined='yes'/>
  </elf-function-symbols>
  <elf-variable-symbols>
    <elf-symbol name='_ZTIN5boost16exception_detail10clone_baseE' size='16' type='object-type' binding='weak-binding' visibility='default-visibility' is-defined='yes'/>
    <elf-symbol name='_ZTIN5boost16exception_detail10clone_implINS0_19error_info_injectorINSt8ios_base7failureB5cxx11EEEEE' size='56' type='object-type' binding='weak-binding' visibility='default-visibility' is-defined='yes'/>
    <elf-symbol name='_ZTIN5boost16exception_detail19error_info_injectorINSt8ios_base7failureB5cxx11EEE' size='56' type='object-type' binding='weak-binding' visibility='default-visibility' is-defined='yes'/>
    <elf-symbol name='_ZTIN5boost6detail15sp_counted_baseE' size='16' type='object-type' binding='weak-binding' visibility='default-visibility' is-defined='yes'/>
    <elf-symbol name='_ZTIN5boost6detail17sp_counted_impl_pINS_9iostreams6detail16mapped_file_implEEE' size='24' type='object-type' binding='weak-binding' visibility='default-visibility' is-defined='yes'/>
    <elf-symbol name='_ZTIN5boost6detail17sp_counted_impl_pINS_9iostreams6detail20file_descriptor_implEEE' size='24' type='object-type' binding='weak-binding' visibility='default-visibility' is-defined='yes'/>
    <elf-symbol name='_ZTIN5boost9exceptionE' size='16' type='object-type' binding='weak-binding' visibility='default-visibility' is-defined='yes'/>
    <elf-symbol name='_ZTSN5boost16exception_detail10clone_baseE' size='39' type='object-type' binding='weak-binding' visibility='default-visibility' is-defined='yes'/>
    <elf-symbol name='_ZTSN5boost16exception_detail10clone_implINS0_19error_info_injectorINSt8ios_base7failureB5cxx11EEEEE' size='97' type='object-type' binding='weak-binding' visibility='default-visibility' is-defined='yes'/>
    <elf-symbol name='_ZTSN5boost16exception_detail19error_info_injectorINSt8ios_base7failureB5cxx11EEE' size='78' type='object-type' binding='weak-binding' visibility='default-visibility' is-defined='yes'/>
    <elf-symbol name='_ZTSN5boost6detail15sp_counted_baseE' size='33' type='object-type' binding='weak-binding' visibility='default-visibility' is-defined='yes'/>
    <elf-symbol name='_ZTSN5boost6detail17sp_counted_impl_pINS_9iostreams6detail16mapped_file_implEEE' size='76' type='object-type' binding='weak-binding' visibility='default-visibility' is-defined='yes'/>
    <elf-symbol name='_ZTSN5boost6detail17sp_counted_impl_pINS_9iostreams6detail20file_descriptor_implEEE' size='80' type='object-type' binding='weak-binding' visibility='default-visibility' is-defined='yes'/>
    <elf-symbol name='_ZTSN5boost9exceptionE' size='19' type='object-type' binding='weak-binding' visibility='default-visibility' is-defined='yes'/>
  </elf-variable-symbols>
  <abi-instr address-size='64' path='src/third_party/boost-1.60.0/libs/iostreams/src/file_descriptor.cpp' comp-dir-path='/home/andrew/Documents/10gen/dev/src/mongodb' language='LANG_C_plus_plus'>
    <type-decl name='bool' size-in-bits='8' id='type-id-1'/>
    <type-decl name='char' size-in-bits='8' id='type-id-2'/>
    <array-type-def dimensions='1' type-id='type-id-2' size-in-bits='32' id='type-id-3'>
      <subrange length='4' type-id='type-id-4' id='type-id-5'/>
    </array-type-def>
    <class-decl name='__va_list_tag' size-in-bits='192' is-struct='yes' visibility='default' id='type-id-6'>
      <data-member access='public' layout-offset-in-bits='0'>
        <var-decl name='gp_offset' type-id='type-id-7' visibility='default'/>
      </data-member>
      <data-member access='public' layout-offset-in-bits='32'>
        <var-decl name='fp_offset' type-id='type-id-7' visibility='default'/>
      </data-member>
      <data-member access='public' layout-offset-in-bits='64'>
        <var-decl name='overflow_arg_area' type-id='type-id-8' visibility='default'/>
      </data-member>
      <data-member access='public' layout-offset-in-bits='128'>
        <var-decl name='reg_save_area' type-id='type-id-8' visibility='default'/>
      </data-member>
    </class-decl>
    <type-decl name='double' size-in-bits='64' id='type-id-9'/>
    <type-decl name='float' size-in-bits='32' id='type-id-10'/>
    <type-decl name='int' size-in-bits='32' id='type-id-11'/>
    <type-decl name='long double' size-in-bits='128' id='type-id-12'/>
    <type-decl name='long int' size-in-bits='64' id='type-id-13'/>
    <type-decl name='long long int' size-in-bits='64' id='type-id-14'/>
    <type-decl name='long long unsigned int' size-in-bits='64' id='type-id-15'/>
    <type-decl name='sizetype' size-in-bits='64' id='type-id-4'/>
    <type-decl name='unnamed-enum-underlying-type-32' is-anonymous='yes' size-in-bits='32' alignment-in-bits='32' id='type-id-16'/>
    <type-decl name='unsigned int' size-in-bits='32' id='type-id-7'/>
    <type-decl name='unsigned long int' size-in-bits='64' id='type-id-17'/>
    <type-decl name='variadic parameter type' id='type-id-18'/>
    <type-decl name='void' id='type-id-19'/>
    <type-decl name='wchar_t' size-in-bits='32' id='type-id-20'/>
    <typedef-decl name='lldiv_t' type-id='type-id-21' filepath='/usr/include/stdlib.h' line='121' column='1' id='type-id-22'/>
    <class-decl name='__anonymous_struct__' size-in-bits='128' is-struct='yes' is-anonymous='yes' naming-typedef-id='type-id-22' visibility='default' filepath='/usr/include/stdlib.h' line='117' column='1' id='type-id-21'>
      <data-member access='public' layout-offset-in-bits='0'>
        <var-decl name='quot' type-id='type-id-14' visibility='default' filepath='/usr/include/stdlib.h' line='119' column='1'/>
      </data-member>
      <data-member access='public' layout-offset-in-bits='64'>
        <var-decl name='rem' type-id='type-id-14' visibility='default' filepath='/usr/include/stdlib.h' line='120' column='1'/>
      </data-member>
    </class-decl>
    <class-decl name='__anonymous_struct__1' size-in-bits='64' is-struct='yes' is-anonymous='yes' naming-typedef-id='type-id-23' visibility='default' filepath='/usr/include/wchar.h' line='82' column='1' id='type-id-24'>
      <member-type access='public'>
        <union-decl name='__anonymous_union__' size-in-bits='32' is-anonymous='yes' visibility='default' filepath='/usr/include/wchar.h' line='85' column='1' id='type-id-25'>
          <data-member access='public'>
            <var-decl name='__wch' type-id='type-id-7' visibility='default' filepath='/usr/include/wchar.h' line='88' column='1'/>
          </data-member>
          <data-member access='public'>
            <var-decl name='__wchb' type-id='type-id-3' visibility='default' filepath='/usr/include/wchar.h' line='92' column='1'/>
          </data-member>
        </union-decl>
      </member-type>
      <data-member access='public' layout-offset-in-bits='0'>
        <var-decl name='__count' type-id='type-id-11' visibility='default' filepath='/usr/include/wchar.h' line='84' column='1'/>
      </data-member>
      <data-member access='public' layout-offset-in-bits='32'>
        <var-decl name='__value' type-id='type-id-25' visibility='default' filepath='/usr/include/wchar.h' line='93' column='1'/>
      </data-member>
    </class-decl>
    <typedef-decl name='intmax_t' type-id='type-id-13' filepath='/usr/include/stdint.h' line='134' column='1' id='type-id-26'/>
    <typedef-decl name='int_least32_t' type-id='type-id-11' filepath='/usr/include/stdint.h' line='67' column='1' id='type-id-27'/>
    <typedef-decl name='FILE' type-id='type-id-28' filepath='/usr/include/stdio.h' line='48' column='1' id='type-id-29'/>
    <typedef-decl name='fpos_t' type-id='type-id-30' filepath='/usr/include/stdio.h' line='110' column='1' id='type-id-31'/>
    <typedef-decl name='_G_fpos_t' type-id='type-id-32' filepath='/usr/include/_G_config.h' line='25' column='1' id='type-id-30'/>
    <typedef-decl name='size_t' type-id='type-id-17' filepath='/usr/lib/llvm-3.9/bin/../lib/clang/3.9.1/include/stddef.h' line='62' column='1' id='type-id-33'/>
    <typedef-decl name='__compar_fn_t' type-id='type-id-34' filepath='/usr/include/stdlib.h' line='741' column='1' id='type-id-35'/>
    <typedef-decl name='div_t' type-id='type-id-36' filepath='/usr/include/stdlib.h' line='101' column='1' id='type-id-37'/>
    <typedef-decl name='ldiv_t' type-id='type-id-38' filepath='/usr/include/stdlib.h' line='109' column='1' id='type-id-39'/>
    <class-decl name='__anonymous_struct__4' size-in-bits='128' is-struct='yes' is-anonymous='yes' naming-typedef-id='type-id-39' visibility='default' filepath='/usr/include/stdlib.h' line='105' column='1' id='type-id-38'>
      <data-member access='public' layout-offset-in-bits='0'>
        <var-decl name='quot' type-id='type-id-13' visibility='default' filepath='/usr/include/stdlib.h' line='107' column='1'/>
      </data-member>
      <data-member access='public' layout-offset-in-bits='64'>
        <var-decl name='rem' type-id='type-id-13' visibility='default' filepath='/usr/include/stdlib.h' line='108' column='1'/>
      </data-member>
    </class-decl>
    <typedef-decl name='wint_t' type-id='type-id-7' filepath='/usr/lib/llvm-3.9/bin/../lib/clang/3.9.1/include/stddef.h' line='132' column='1' id='type-id-40'/>
    <typedef-decl name='__FILE' type-id='type-id-28' filepath='/usr/include/stdio.h' line='64' column='1' id='type-id-41'/>
    <typedef-decl name='mbstate_t' type-id='type-id-23' filepath='/usr/include/wchar.h' line='106' column='1' id='type-id-42'/>
    <typedef-decl name='__mbstate_t' type-id='type-id-24' filepath='/usr/include/wchar.h' line='94' column='1' id='type-id-23'/>
    <class-decl name='tm' size-in-bits='448' is-struct='yes' visibility='default' filepath='/usr/include/time.h' line='133' column='1' id='type-id-43'>
      <data-member access='public' layout-offset-in-bits='0'>
        <var-decl name='tm_sec' type-id='type-id-11' visibility='default' filepath='/usr/include/time.h' line='135' column='1'/>
      </data-member>
      <data-member access='public' layout-offset-in-bits='32'>
        <var-decl name='tm_min' type-id='type-id-11' visibility='default' filepath='/usr/include/time.h' line='136' column='1'/>
      </data-member>
      <data-member access='public' layout-offset-in-bits='64'>
        <var-decl name='tm_hour' type-id='type-id-11' visibility='default' filepath='/usr/include/time.h' line='137' column='1'/>
      </data-member>
      <data-member access='public' layout-offset-in-bits='96'>
        <var-decl name='tm_mday' type-id='type-id-11' visibility='default' filepath='/usr/include/time.h' line='138' column='1'/>
      </data-member>
      <data-member access='public' layout-offset-in-bits='128'>
        <var-decl name='tm_mon' type-id='type-id-11' visibility='default' filepath='/usr/include/time.h' line='139' column='1'/>
      </data-member>
      <data-member access='public' layout-offset-in-bits='160'>
        <var-decl name='tm_year' type-id='type-id-11' visibility='default' filepath='/usr/include/time.h' line='140' column='1'/>
      </data-member>
      <data-member access='public' layout-offset-in-bits='192'>
        <var-decl name='tm_wday' type-id='type-id-11' visibility='default' filepath='/usr/include/time.h' line='141' column='1'/>
      </data-member>
      <data-member access='public' layout-offset-in-bits='224'>
        <var-decl name='tm_yday' type-id='type-id-11' visibility='default' filepath='/usr/include/time.h' line='142' column='1'/>
      </data-member>
      <data-member access='public' layout-offset-in-bits='256'>
        <var-decl name='tm_isdst' type-id='type-id-11' visibility='default' filepath='/usr/include/time.h' line='143' column='1'/>
      </data-member>
      <data-member access='public' layout-offset-in-bits='320'>
        <var-decl name='tm_gmtoff' type-id='type-id-13' visibility='default' filepath='/usr/include/time.h' line='146' column='1'/>
      </data-member>
      <data-member access='public' layout-offset-in-bits='384'>
        <var-decl name='tm_zone' type-id='type-id-44' visibility='default' filepath='/usr/include/time.h' line='147' column='1'/>
      </data-member>
    </class-decl>
    <typedef-decl name='wctype_t' type-id='type-id-17' filepath='/usr/include/wctype.h' line='52' column='1' id='type-id-45'/>
    <typedef-decl name='wctrans_t' type-id='type-id-46' filepath='/usr/include/wctype.h' line='186' column='1' id='type-id-47'/>
    <typedef-decl name='__int32_t' type-id='type-id-11' filepath='/usr/include/x86_64-linux-gnu/bits/types.h' line='40' column='1' id='type-id-48'/>
    <typedef-decl name='clock_t' type-id='type-id-49' filepath='/usr/include/time.h' line='59' column='1' id='type-id-50'/>
    <typedef-decl name='__clock_t' type-id='type-id-13' filepath='/usr/include/x86_64-linux-gnu/bits/types.h' line='135' column='1' id='type-id-49'/>
    <typedef-decl name='time_t' type-id='type-id-51' filepath='/usr/include/time.h' line='75' column='1' id='type-id-52'/>
    <typedef-decl name='__time_t' type-id='type-id-13' filepath='/usr/include/x86_64-linux-gnu/bits/types.h' line='139' column='1' id='type-id-51'/>
    <pointer-type-def type-id='type-id-29' size-in-bits='64' id='type-id-53'/>
    <qualified-type-def type-id='type-id-53' restrict='yes' id='type-id-54'/>
    <pointer-type-def type-id='type-id-41' size-in-bits='64' id='type-id-55'/>
    <qualified-type-def type-id='type-id-55' restrict='yes' id='type-id-56'/>
    <pointer-type-def type-id='type-id-6' size-in-bits='64' id='type-id-57'/>
    <reference-type-def kind='lvalue' type-id='type-id-58' size-in-bits='64' id='type-id-59'/>
    <reference-type-def kind='rvalue' type-id='type-id-58' size-in-bits='64' id='type-id-60'/>
    <pointer-type-def type-id='type-id-58' size-in-bits='64' id='type-id-61'/>
    <reference-type-def kind='lvalue' type-id='type-id-62' size-in-bits='64' id='type-id-63'/>
    <pointer-type-def type-id='type-id-62' size-in-bits='64' id='type-id-64'/>
    <reference-type-def kind='lvalue' type-id='type-id-65' size-in-bits='64' id='type-id-66'/>
    <pointer-type-def type-id='type-id-65' size-in-bits='64' id='type-id-67'/>
    <reference-type-def kind='lvalue' type-id='type-id-68' size-in-bits='64' id='type-id-69'/>
    <reference-type-def kind='rvalue' type-id='type-id-68' size-in-bits='64' id='type-id-70'/>
    <pointer-type-def type-id='type-id-68' size-in-bits='64' id='type-id-71'/>
    <pointer-type-def type-id='type-id-72' size-in-bits='64' id='type-id-73'/>
    <pointer-type-def type-id='type-id-74' size-in-bits='64' id='type-id-75'/>
    <pointer-type-def type-id='type-id-76' size-in-bits='64' id='type-id-77'/>
    <pointer-type-def type-id='type-id-78' size-in-bits='64' id='type-id-79'/>
    <pointer-type-def type-id='type-id-80' size-in-bits='64' id='type-id-81'/>
    <reference-type-def kind='lvalue' type-id='type-id-82' size-in-bits='64' id='type-id-83'/>
    <pointer-type-def type-id='type-id-82' size-in-bits='64' id='type-id-84'/>
    <pointer-type-def type-id='type-id-85' size-in-bits='64' id='type-id-86'/>
    <reference-type-def kind='lvalue' type-id='type-id-87' size-in-bits='64' id='type-id-88'/>
    <pointer-type-def type-id='type-id-87' size-in-bits='64' id='type-id-89'/>
    <reference-type-def kind='lvalue' type-id='type-id-90' size-in-bits='64' id='type-id-91'/>
    <pointer-type-def type-id='type-id-90' size-in-bits='64' id='type-id-92'/>
    <reference-type-def kind='lvalue' type-id='type-id-93' size-in-bits='64' id='type-id-94'/>
    <pointer-type-def type-id='type-id-95' size-in-bits='64' id='type-id-96'/>
    <reference-type-def kind='lvalue' type-id='type-id-97' size-in-bits='64' id='type-id-98'/>
    <pointer-type-def type-id='type-id-97' size-in-bits='64' id='type-id-99'/>
    <pointer-type-def type-id='type-id-100' size-in-bits='64' id='type-id-101'/>
    <pointer-type-def type-id='type-id-102' size-in-bits='64' id='type-id-103'/>
    <pointer-type-def type-id='type-id-104' size-in-bits='64' id='type-id-105'/>
    <pointer-type-def type-id='type-id-106' size-in-bits='64' id='type-id-107'/>
    <pointer-type-def type-id='type-id-108' size-in-bits='64' id='type-id-109'/>
    <reference-type-def kind='lvalue' type-id='type-id-110' size-in-bits='64' id='type-id-111'/>
    <reference-type-def kind='rvalue' type-id='type-id-110' size-in-bits='64' id='type-id-112'/>
    <pointer-type-def type-id='type-id-110' size-in-bits='64' id='type-id-113'/>
    <pointer-type-def type-id='type-id-114' size-in-bits='64' id='type-id-115'/>
    <reference-type-def kind='lvalue' type-id='type-id-116' size-in-bits='64' id='type-id-117'/>
    <reference-type-def kind='rvalue' type-id='type-id-116' size-in-bits='64' id='type-id-118'/>
    <pointer-type-def type-id='type-id-116' size-in-bits='64' id='type-id-119'/>
    <pointer-type-def type-id='type-id-120' size-in-bits='64' id='type-id-121'/>
    <pointer-type-def type-id='type-id-2' size-in-bits='64' id='type-id-122'/>
    <qualified-type-def type-id='type-id-122' restrict='yes' id='type-id-123'/>
    <pointer-type-def type-id='type-id-122' size-in-bits='64' id='type-id-124'/>
    <qualified-type-def type-id='type-id-124' restrict='yes' id='type-id-125'/>
    <qualified-type-def type-id='type-id-48' const='yes' id='type-id-126'/>
    <pointer-type-def type-id='type-id-126' size-in-bits='64' id='type-id-46'/>
    <qualified-type-def type-id='type-id-58' const='yes' id='type-id-127'/>
    <reference-type-def kind='lvalue' type-id='type-id-127' size-in-bits='64' id='type-id-128'/>
    <pointer-type-def type-id='type-id-127' size-in-bits='64' id='type-id-129'/>
    <qualified-type-def type-id='type-id-62' const='yes' id='type-id-130'/>
    <reference-type-def kind='lvalue' type-id='type-id-130' size-in-bits='64' id='type-id-131'/>
    <pointer-type-def type-id='type-id-130' size-in-bits='64' id='type-id-132'/>
    <qualified-type-def type-id='type-id-65' const='yes' id='type-id-133'/>
    <reference-type-def kind='lvalue' type-id='type-id-133' size-in-bits='64' id='type-id-134'/>
    <qualified-type-def type-id='type-id-135' const='yes' id='type-id-136'/>
    <reference-type-def kind='lvalue' type-id='type-id-136' size-in-bits='64' id='type-id-137'/>
    <qualified-type-def type-id='type-id-68' const='yes' id='type-id-138'/>
    <reference-type-def kind='lvalue' type-id='type-id-138' size-in-bits='64' id='type-id-139'/>
    <pointer-type-def type-id='type-id-138' size-in-bits='64' id='type-id-140'/>
    <qualified-type-def type-id='type-id-72' const='yes' id='type-id-141'/>
    <pointer-type-def type-id='type-id-141' size-in-bits='64' id='type-id-142'/>
    <qualified-type-def type-id='type-id-74' const='yes' id='type-id-143'/>
    <pointer-type-def type-id='type-id-143' size-in-bits='64' id='type-id-144'/>
    <qualified-type-def type-id='type-id-76' const='yes' id='type-id-145'/>
    <reference-type-def kind='lvalue' type-id='type-id-145' size-in-bits='64' id='type-id-146'/>
    <pointer-type-def type-id='type-id-145' size-in-bits='64' id='type-id-147'/>
    <qualified-type-def type-id='type-id-80' const='yes' id='type-id-148'/>
    <reference-type-def kind='lvalue' type-id='type-id-148' size-in-bits='64' id='type-id-149'/>
    <qualified-type-def type-id='type-id-82' const='yes' id='type-id-150'/>
    <reference-type-def kind='lvalue' type-id='type-id-150' size-in-bits='64' id='type-id-151'/>
    <pointer-type-def type-id='type-id-150' size-in-bits='64' id='type-id-152'/>
    <qualified-type-def type-id='type-id-85' const='yes' id='type-id-153'/>
    <reference-type-def kind='lvalue' type-id='type-id-153' size-in-bits='64' id='type-id-154'/>
    <qualified-type-def type-id='type-id-87' const='yes' id='type-id-155'/>
    <pointer-type-def type-id='type-id-155' size-in-bits='64' id='type-id-156'/>
    <qualified-type-def type-id='type-id-90' const='yes' id='type-id-157'/>
    <pointer-type-def type-id='type-id-157' size-in-bits='64' id='type-id-158'/>
    <qualified-type-def type-id='type-id-159' const='yes' id='type-id-160'/>
    <qualified-type-def type-id='type-id-97' const='yes' id='type-id-161'/>
    <reference-type-def kind='lvalue' type-id='type-id-161' size-in-bits='64' id='type-id-162'/>
    <pointer-type-def type-id='type-id-161' size-in-bits='64' id='type-id-163'/>
    <qualified-type-def type-id='type-id-100' const='yes' id='type-id-164'/>
    <reference-type-def kind='lvalue' type-id='type-id-164' size-in-bits='64' id='type-id-165'/>
    <pointer-type-def type-id='type-id-164' size-in-bits='64' id='type-id-166'/>
    <qualified-type-def type-id='type-id-102' const='yes' id='type-id-167'/>
    <pointer-type-def type-id='type-id-167' size-in-bits='64' id='type-id-168'/>
    <qualified-type-def type-id='type-id-104' const='yes' id='type-id-169'/>
    <reference-type-def kind='lvalue' type-id='type-id-169' size-in-bits='64' id='type-id-170'/>
    <qualified-type-def type-id='type-id-106' const='yes' id='type-id-171'/>
    <reference-type-def kind='lvalue' type-id='type-id-171' size-in-bits='64' id='type-id-172'/>
    <qualified-type-def type-id='type-id-108' const='yes' id='type-id-173'/>
    <reference-type-def kind='lvalue' type-id='type-id-173' size-in-bits='64' id='type-id-174'/>
    <pointer-type-def type-id='type-id-173' size-in-bits='64' id='type-id-175'/>
    <qualified-type-def type-id='type-id-176' const='yes' id='type-id-177'/>
    <reference-type-def kind='lvalue' type-id='type-id-177' size-in-bits='64' id='type-id-178'/>
    <qualified-type-def type-id='type-id-179' const='yes' id='type-id-180'/>
    <qualified-type-def type-id='type-id-110' const='yes' id='type-id-181'/>
    <reference-type-def kind='lvalue' type-id='type-id-181' size-in-bits='64' id='type-id-182'/>
    <pointer-type-def type-id='type-id-181' size-in-bits='64' id='type-id-183'/>
    <qualified-type-def type-id='type-id-116' const='yes' id='type-id-184'/>
    <reference-type-def kind='lvalue' type-id='type-id-184' size-in-bits='64' id='type-id-185'/>
    <pointer-type-def type-id='type-id-184' size-in-bits='64' id='type-id-186'/>
    <qualified-type-def type-id='type-id-2' const='yes' id='type-id-187'/>
    <pointer-type-def type-id='type-id-187' size-in-bits='64' id='type-id-44'/>
    <qualified-type-def type-id='type-id-44' restrict='yes' id='type-id-188'/>
    <pointer-type-def type-id='type-id-44' size-in-bits='64' id='type-id-189'/>
    <qualified-type-def type-id='type-id-189' restrict='yes' id='type-id-190'/>
    <qualified-type-def type-id='type-id-31' const='yes' id='type-id-191'/>
    <pointer-type-def type-id='type-id-191' size-in-bits='64' id='type-id-192'/>
    <qualified-type-def type-id='type-id-42' const='yes' id='type-id-193'/>
    <pointer-type-def type-id='type-id-193' size-in-bits='64' id='type-id-194'/>
    <qualified-type-def type-id='type-id-195' const='yes' id='type-id-196'/>
    <reference-type-def kind='lvalue' type-id='type-id-196' size-in-bits='64' id='type-id-197'/>
    <pointer-type-def type-id='type-id-196' size-in-bits='64' id='type-id-198'/>
    <qualified-type-def type-id='type-id-199' const='yes' id='type-id-200'/>
    <reference-type-def kind='lvalue' type-id='type-id-200' size-in-bits='64' id='type-id-201'/>
    <qualified-type-def type-id='type-id-202' const='yes' id='type-id-203'/>
    <reference-type-def kind='lvalue' type-id='type-id-203' size-in-bits='64' id='type-id-204'/>
    <qualified-type-def type-id='type-id-205' const='yes' id='type-id-206'/>
    <pointer-type-def type-id='type-id-206' size-in-bits='64' id='type-id-207'/>
    <qualified-type-def type-id='type-id-208' const='yes' id='type-id-209'/>
    <pointer-type-def type-id='type-id-209' size-in-bits='64' id='type-id-210'/>
    <qualified-type-def type-id='type-id-211' const='yes' id='type-id-212'/>
    <reference-type-def kind='lvalue' type-id='type-id-212' size-in-bits='64' id='type-id-213'/>
    <pointer-type-def type-id='type-id-212' size-in-bits='64' id='type-id-214'/>
    <qualified-type-def type-id='type-id-215' const='yes' id='type-id-216'/>
    <reference-type-def kind='lvalue' type-id='type-id-216' size-in-bits='64' id='type-id-217'/>
    <qualified-type-def type-id='type-id-52' const='yes' id='type-id-218'/>
    <pointer-type-def type-id='type-id-218' size-in-bits='64' id='type-id-219'/>
    <qualified-type-def type-id='type-id-43' const='yes' id='type-id-220'/>
    <pointer-type-def type-id='type-id-220' size-in-bits='64' id='type-id-221'/>
    <qualified-type-def type-id='type-id-221' restrict='yes' id='type-id-222'/>
    <qualified-type-def type-id='type-id-20' const='yes' id='type-id-223'/>
    <pointer-type-def type-id='type-id-223' size-in-bits='64' id='type-id-224'/>
    <qualified-type-def type-id='type-id-224' restrict='yes' id='type-id-225'/>
    <pointer-type-def type-id='type-id-224' size-in-bits='64' id='type-id-226'/>
    <qualified-type-def type-id='type-id-226' restrict='yes' id='type-id-227'/>
    <pointer-type-def type-id='type-id-9' size-in-bits='64' id='type-id-228'/>
    <pointer-type-def type-id='type-id-31' size-in-bits='64' id='type-id-229'/>
    <qualified-type-def type-id='type-id-229' restrict='yes' id='type-id-230'/>
    <pointer-type-def type-id='type-id-231' size-in-bits='64' id='type-id-34'/>
    <pointer-type-def type-id='type-id-11' size-in-bits='64' id='type-id-232'/>
    <pointer-type-def type-id='type-id-233' size-in-bits='64' id='type-id-234'/>
    <pointer-type-def type-id='type-id-42' size-in-bits='64' id='type-id-235'/>
    <qualified-type-def type-id='type-id-235' restrict='yes' id='type-id-236'/>
    <pointer-type-def type-id='type-id-205' size-in-bits='64' id='type-id-237'/>
    <pointer-type-def type-id='type-id-208' size-in-bits='64' id='type-id-238'/>
    <reference-type-def kind='lvalue' type-id='type-id-211' size-in-bits='64' id='type-id-239'/>
    <pointer-type-def type-id='type-id-211' size-in-bits='64' id='type-id-240'/>
    <pointer-type-def type-id='type-id-52' size-in-bits='64' id='type-id-241'/>
    <pointer-type-def type-id='type-id-43' size-in-bits='64' id='type-id-242'/>
    <pointer-type-def type-id='type-id-243' size-in-bits='64' id='type-id-244'/>
    <pointer-type-def type-id='type-id-19' size-in-bits='64' id='type-id-8'/>
    <qualified-type-def type-id='type-id-8' restrict='yes' id='type-id-245'/>
    <pointer-type-def type-id='type-id-20' size-in-bits='64' id='type-id-246'/>
    <qualified-type-def type-id='type-id-246' restrict='yes' id='type-id-247'/>
    <pointer-type-def type-id='type-id-246' size-in-bits='64' id='type-id-248'/>
    <qualified-type-def type-id='type-id-248' restrict='yes' id='type-id-249'/>
    <namespace-decl name='boost'>
      <class-decl name='exception' size-in-bits='320' visibility='default' filepath='src/third_party/boost-1.60.0/boost/exception/exception.hpp' line='208' column='1' id='type-id-72'>
        <data-member access='private' layout-offset-in-bits='64'>
          <var-decl name='data_' type-id='type-id-82' visibility='default' filepath='src/third_party/boost-1.60.0/boost/exception/exception.hpp' line='269' column='1'/>
        </data-member>
        <data-member access='private' layout-offset-in-bits='128'>
          <var-decl name='throw_function_' type-id='type-id-44' visibility='default' filepath='src/third_party/boost-1.60.0/boost/exception/exception.hpp' line='270' column='1'/>
        </data-member>
        <data-member access='private' layout-offset-in-bits='192'>
          <var-decl name='throw_file_' type-id='type-id-44' visibility='default' filepath='src/third_party/boost-1.60.0/boost/exception/exception.hpp' line='271' column='1'/>
        </data-member>
        <data-member access='private' layout-offset-in-bits='256'>
          <var-decl name='throw_line_' type-id='type-id-11' visibility='default' filepath='src/third_party/boost-1.60.0/boost/exception/exception.hpp' line='272' column='1'/>
        </data-member>
        <member-function access='protected' constructor='yes'>
          <function-decl name='exception' mangled-name='_ZN5boost9exceptionC2Ev' filepath='src/third_party/boost-1.60.0/boost/exception/exception.hpp' line='218' column='1' visibility='default' binding='global' size-in-bits='64'>
            <parameter type-id='type-id-73' is-artificial='yes'/>
            <return type-id='type-id-19'/>
          </function-decl>
        </member-function>
        <member-function access='protected' destructor='yes' vtable-offset='0'>
          <function-decl name='~exception' mangled-name='_ZN5boost9exceptionD2Ev' filepath='src/third_party/boost-1.60.0/boost/exception/exception.hpp' line='237' column='1' visibility='default' binding='global' size-in-bits='64'>
            <parameter type-id='type-id-73' is-artificial='yes'/>
            <return type-id='type-id-19'/>
          </function-decl>
        </member-function>
      </class-decl>
      <class-decl name='shared_ptr&lt;boost::iostreams::detail::file_descriptor_impl&gt;' size-in-bits='128' visibility='default' filepath='src/third_party/boost-1.60.0/boost/smart_ptr/shared_ptr.hpp' line='336' column='1' id='type-id-110'>
        <member-type access='private'>
          <typedef-decl name='element_type' type-id='type-id-250' filepath='src/third_party/boost-1.60.0/boost/smart_ptr/shared_ptr.hpp' line='345' column='1' id='type-id-114'/>
        </member-type>
        <data-member access='private' layout-offset-in-bits='0'>
          <var-decl name='px' type-id='type-id-115' visibility='default' filepath='src/third_party/boost-1.60.0/boost/smart_ptr/shared_ptr.hpp' line='768' column='1'/>
        </data-member>
        <data-member access='private' layout-offset-in-bits='64'>
          <var-decl name='pn' type-id='type-id-58' visibility='default' filepath='src/third_party/boost-1.60.0/boost/smart_ptr/shared_ptr.hpp' line='769' column='1'/>
        </data-member>
        <member-function access='public'>
          <function-decl name='shared_ptr' filepath='src/third_party/boost-1.60.0/boost/smart_ptr/shared_ptr.hpp' line='347' column='1' visibility='default' binding='global' size-in-bits='64'>
            <parameter type-id='type-id-113' is-artificial='yes'/>
            <return type-id='type-id-19'/>
          </function-decl>
        </member-function>
        <member-function access='public'>
          <function-decl name='shared_ptr' mangled-name='_ZN5boost10shared_ptrINS_9iostreams6detail20file_descriptor_implEEC2ERKS4_' filepath='src/third_party/boost-1.60.0/boost/smart_ptr/shared_ptr.hpp' line='405' column='1' visibility='default' binding='global' size-in-bits='64'>
            <parameter type-id='type-id-113' is-artificial='yes'/>
            <parameter type-id='type-id-182'/>
            <return type-id='type-id-19'/>
          </function-decl>
        </member-function>
        <member-function access='public'>
          <function-decl name='shared_ptr' filepath='src/third_party/boost-1.60.0/boost/smart_ptr/shared_ptr.hpp' line='608' column='1' visibility='default' binding='global' size-in-bits='64'>
            <parameter type-id='type-id-113' is-artificial='yes'/>
            <parameter type-id='type-id-112'/>
            <return type-id='type-id-19'/>
          </function-decl>
        </member-function>
        <member-function access='public' constructor='yes'>
          <function-decl name='shared_ptr&lt;boost::iostreams::detail::file_descriptor_impl&gt;' mangled-name='_ZN5boost10shared_ptrINS_9iostreams6detail20file_descriptor_implEEC2IS3_EEPT_' filepath='src/third_party/boost-1.60.0/boost/smart_ptr/shared_ptr.hpp' line='360' column='1' visibility='default' binding='global' size-in-bits='64'>
            <parameter type-id='type-id-113' is-artificial='yes'/>
            <parameter type-id='type-id-89'/>
            <return type-id='type-id-19'/>
          </function-decl>
        </member-function>
        <member-function access='public'>
          <function-decl name='reset&lt;boost::iostreams::detail::file_descriptor_impl&gt;' mangled-name='_ZN5boost10shared_ptrINS_9iostreams6detail20file_descriptor_implEE5resetIS3_EEvPT_' filepath='src/third_party/boost-1.60.0/boost/smart_ptr/shared_ptr.hpp' line='662' column='1' visibility='default' binding='global' size-in-bits='64' elf-symbol-id='_ZN5boost10shared_ptrINS_9iostreams6detail20file_descriptor_implEE5resetIS3_EEvPT_'>
            <parameter type-id='type-id-113' is-artificial='yes'/>
            <parameter type-id='type-id-89'/>
            <return type-id='type-id-19'/>
          </function-decl>
        </member-function>
      </class-decl>
      <namespace-decl name='iostreams'>
        <typedef-decl name='stream_offset' type-id='type-id-26' filepath='src/third_party/boost-1.60.0/boost/iostreams/positioning.hpp' line='36' column='1' id='type-id-251'/>
        <class-decl name='file_descriptor' size-in-bits='128' visibility='default' filepath='src/third_party/boost-1.60.0/boost/iostreams/device/file_descriptor.hpp' line='46' column='1' id='type-id-100'>
          <member-type access='private'>
            <typedef-decl name='handle_type' type-id='type-id-253' filepath='src/third_party/boost-1.60.0/boost/iostreams/device/file_descriptor.hpp' line='50' column='1' id='type-id-252'/>
          </member-type>
          <member-type access='private'>
            <typedef-decl name='char_type' type-id='type-id-2' filepath='src/third_party/boost-1.60.0/boost/iostreams/device/file_descriptor.hpp' line='51' column='1' id='type-id-102'/>
          </member-type>
          <data-member access='private' layout-offset-in-bits='0'>
            <var-decl name='pimpl_' type-id='type-id-110' visibility='default' filepath='src/third_party/boost-1.60.0/boost/iostreams/device/file_descriptor.hpp' line='143' column='1'/>
          </data-member>
          <member-function access='public' constructor='yes'>
            <function-decl name='file_descriptor' mangled-name='_ZN5boost9iostreams15file_descriptorC2Ev' filepath='src/third_party/boost-1.60.0/boost/iostreams/device/file_descriptor.hpp' line='58' column='1' visibility='default' binding='global' size-in-bits='64' elf-symbol-id='_ZN5boost9iostreams15file_descriptorC2Ev'>
              <parameter type-id='type-id-101' is-artificial='yes'/>
              <return type-id='type-id-19'/>
            </function-decl>
          </member-function>
          <member-function access='public' constructor='yes'>
            <function-decl name='file_descriptor' mangled-name='_ZN5boost9iostreams15file_descriptorC2EiNS0_21file_descriptor_flagsE' filepath='src/third_party/boost-1.60.0/boost/iostreams/device/file_descriptor.hpp' line='61' column='1' visibility='default' binding='global' size-in-bits='64' elf-symbol-id='_ZN5boost9iostreams15file_descriptorC2EiNS0_21file_descriptor_flagsE'>
              <parameter type-id='type-id-101' is-artificial='yes'/>
              <parameter type-id='type-id-252'/>
              <parameter type-id='type-id-254'/>
              <return type-id='type-id-19'/>
            </function-decl>
          </member-function>
          <member-function access='public' constructor='yes'>
            <function-decl name='file_descriptor' mangled-name='_ZN5boost9iostreams15file_descriptorC2ERKNSt7__cxx1112basic_stringIcSt11char_traitsIcESaIcEEESt13_Ios_Openmode' filepath='src/third_party/boost-1.60.0/boost/iostreams/device/file_descriptor.hpp' line='75' column='1' visibility='default' binding='global' size-in-bits='64' elf-symbol-id='_ZN5boost9iostreams15file_descriptorC2ERKNSt7__cxx1112basic_stringIcSt11char_traitsIcESaIcEEESt13_Ios_Openmode'>
              <parameter type-id='type-id-101' is-artificial='yes'/>
              <parameter type-id='type-id-201'/>
              <parameter type-id='type-id-255'/>
              <return type-id='type-id-19'/>
            </function-decl>
          </member-function>
          <member-function access='public' constructor='yes'>
            <function-decl name='file_descriptor' mangled-name='_ZN5boost9iostreams15file_descriptorC2EPKcSt13_Ios_Openmode' filepath='src/third_party/boost-1.60.0/boost/iostreams/device/file_descriptor.hpp' line='80' column='1' visibility='default' binding='global' size-in-bits='64' elf-symbol-id='_ZN5boost9iostreams15file_descriptorC2EPKcSt13_Ios_Openmode'>
              <parameter type-id='type-id-101' is-artificial='yes'/>
              <parameter type-id='type-id-44'/>
              <parameter type-id='type-id-255'/>
              <return type-id='type-id-19'/>
            </function-decl>
          </member-function>
          <member-function access='public' constructor='yes'>
            <function-decl name='file_descriptor' mangled-name='_ZN5boost9iostreams15file_descriptorC2ERKS1_' filepath='src/third_party/boost-1.60.0/boost/iostreams/device/file_descriptor.hpp' line='95' column='1' visibility='default' binding='global' size-in-bits='64'>
              <parameter type-id='type-id-101' is-artificial='yes'/>
              <parameter type-id='type-id-165'/>
              <return type-id='type-id-19'/>
            </function-decl>
          </member-function>
          <member-function access='public'>
            <function-decl name='open' mangled-name='_ZN5boost9iostreams15file_descriptor4openEiNS0_21file_descriptor_flagsE' filepath='src/third_party/boost-1.60.0/libs/iostreams/src/file_descriptor.cpp' line='400' column='1' visibility='default' binding='global' size-in-bits='64' elf-symbol-id='_ZN5boost9iostreams15file_descriptor4openEiNS0_21file_descriptor_flagsE'>
              <parameter type-id='type-id-101' is-artificial='yes'/>
              <parameter type-id='type-id-252'/>
              <parameter type-id='type-id-254'/>
              <return type-id='type-id-19'/>
            </function-decl>
          </member-function>
          <member-function access='public'>
            <function-decl name='open' mangled-name='_ZN5boost9iostreams15file_descriptor4openERKNSt7__cxx1112basic_stringIcSt11char_traitsIcESaIcEEESt13_Ios_Openmode' filepath='src/third_party/boost-1.60.0/libs/iostreams/src/file_descriptor.cpp' line='424' column='1' visibility='default' binding='global' size-in-bits='64' elf-symbol-id='_ZN5boost9iostreams15file_descriptor4openERKNSt7__cxx1112basic_stringIcSt11char_traitsIcESaIcEEESt13_Ios_Openmode'>
              <parameter type-id='type-id-101' is-artificial='yes'/>
              <parameter type-id='type-id-201'/>
              <parameter type-id='type-id-255'/>
              <return type-id='type-id-19'/>
            </function-decl>
          </member-function>
          <member-function access='private'>
            <function-decl name='open' mangled-name='_ZN5boost9iostreams15file_descriptor4openERKNS0_6detail4pathESt13_Ios_OpenmodeS6_' filepath='src/third_party/boost-1.60.0/libs/iostreams/src/file_descriptor.cpp' line='447' column='1' visibility='default' binding='global' size-in-bits='64' elf-symbol-id='_ZN5boost9iostreams15file_descriptor4openERKNS0_6detail4pathESt13_Ios_OpenmodeS6_'>
              <parameter type-id='type-id-101' is-artificial='yes'/>
              <parameter type-id='type-id-162'/>
              <parameter type-id='type-id-255'/>
              <parameter type-id='type-id-255'/>
              <return type-id='type-id-19'/>
            </function-decl>
          </member-function>
          <member-function access='public'>
            <function-decl name='open' mangled-name='_ZN5boost9iostreams15file_descriptor4openEPKcSt13_Ios_Openmode' filepath='src/third_party/boost-1.60.0/libs/iostreams/src/file_descriptor.cpp' line='427' column='1' visibility='default' binding='global' size-in-bits='64' elf-symbol-id='_ZN5boost9iostreams15file_descriptor4openEPKcSt13_Ios_Openmode'>
              <parameter type-id='type-id-101' is-artificial='yes'/>
              <parameter type-id='type-id-44'/>
              <parameter type-id='type-id-255'/>
              <return type-id='type-id-19'/>
            </function-decl>
          </member-function>
          <member-function access='public' constructor='yes'>
            <function-decl name='file_descriptor' mangled-name='_ZN5boost9iostreams15file_descriptorC2ERKS1_' filepath='src/third_party/boost-1.60.0/boost/iostreams/device/file_descriptor.hpp' line='95' column='1' visibility='default' binding='global' size-in-bits='64' elf-symbol-id='_ZN5boost9iostreams15file_descriptorC2ERKS1_'>
              <parameter type-id='type-id-101' is-artificial='yes'/>
              <parameter type-id='type-id-165'/>
              <return type-id='type-id-19'/>
            </function-decl>
          </member-function>
          <member-function access='public'>
            <function-decl name='is_open' mangled-name='_ZNK5boost9iostreams15file_descriptor7is_openEv' filepath='src/third_party/boost-1.60.0/libs/iostreams/src/file_descriptor.cpp' line='430' column='1' visibility='default' binding='global' size-in-bits='64' elf-symbol-id='_ZNK5boost9iostreams15file_descriptor7is_openEv'>
              <parameter type-id='type-id-166' is-artificial='yes'/>
              <return type-id='type-id-1'/>
            </function-decl>
          </member-function>
          <member-function access='public'>
            <function-decl name='close' mangled-name='_ZN5boost9iostreams15file_descriptor5closeEv' filepath='src/third_party/boost-1.60.0/libs/iostreams/src/file_descriptor.cpp' line='432' column='1' visibility='default' binding='global' size-in-bits='64' elf-symbol-id='_ZN5boost9iostreams15file_descriptor5closeEv'>
              <parameter type-id='type-id-101' is-artificial='yes'/>
              <return type-id='type-id-19'/>
            </function-decl>
          </member-function>
          <member-function access='public'>
            <function-decl name='read' mangled-name='_ZN5boost9iostreams15file_descriptor4readEPcl' filepath='src/third_party/boost-1.60.0/libs/iostreams/src/file_descriptor.cpp' line='434' column='1' visibility='default' binding='global' size-in-bits='64' elf-symbol-id='_ZN5boost9iostreams15file_descriptor4readEPcl'>
              <parameter type-id='type-id-101' is-artificial='yes'/>
              <parameter type-id='type-id-103'/>
              <parameter type-id='type-id-256'/>
              <return type-id='type-id-256'/>
            </function-decl>
          </member-function>
          <member-function access='public'>
            <function-decl name='write' mangled-name='_ZN5boost9iostreams15file_descriptor5writeEPKcl' filepath='src/third_party/boost-1.60.0/libs/iostreams/src/file_descriptor.cpp' line='437' column='1' visibility='default' binding='global' size-in-bits='64' elf-symbol-id='_ZN5boost9iostreams15file_descriptor5writeEPKcl'>
              <parameter type-id='type-id-101' is-artificial='yes'/>
              <parameter type-id='type-id-168'/>
              <parameter type-id='type-id-256'/>
              <return type-id='type-id-256'/>
            </function-decl>
          </member-function>
          <member-function access='public'>
            <function-decl name='seek' mangled-name='_ZN5boost9iostreams15file_descriptor4seekElSt12_Ios_Seekdir' filepath='src/third_party/boost-1.60.0/libs/iostreams/src/file_descriptor.cpp' line='440' column='1' visibility='default' binding='global' size-in-bits='64' elf-symbol-id='_ZN5boost9iostreams15file_descriptor4seekElSt12_Ios_Seekdir'>
              <parameter type-id='type-id-101' is-artificial='yes'/>
              <parameter type-id='type-id-251'/>
              <parameter type-id='type-id-257'/>
              <return type-id='type-id-258'/>
            </function-decl>
          </member-function>
          <member-function access='public'>
            <function-decl name='handle' mangled-name='_ZNK5boost9iostreams15file_descriptor6handleEv' filepath='src/third_party/boost-1.60.0/libs/iostreams/src/file_descriptor.cpp' line='443' column='1' visibility='default' binding='global' size-in-bits='64' elf-symbol-id='_ZNK5boost9iostreams15file_descriptor6handleEv'>
              <parameter type-id='type-id-166' is-artificial='yes'/>
              <return type-id='type-id-252'/>
            </function-decl>
          </member-function>
          <member-function access='private'>
            <function-decl name='init' mangled-name='_ZN5boost9iostreams15file_descriptor4initEv' filepath='src/third_party/boost-1.60.0/libs/iostreams/src/file_descriptor.cpp' line='445' column='1' visibility='default' binding='global' size-in-bits='64' elf-symbol-id='_ZN5boost9iostreams15file_descriptor4initEv'>
              <parameter type-id='type-id-101' is-artificial='yes'/>
              <return type-id='type-id-19'/>
            </function-decl>
          </member-function>
        </class-decl>
        <enum-decl name='file_descriptor_flags' filepath='src/third_party/boost-1.60.0/boost/iostreams/device/file_descriptor.hpp' line='40' column='1' id='type-id-254'>
          <underlying-type type-id='type-id-16'/>
          <enumerator name='never_close_handle' value='0'/>
          <enumerator name='close_handle' value='3'/>
        </enum-decl>
        <class-decl name='file_descriptor_source' size-in-bits='128' visibility='default' filepath='src/third_party/boost-1.60.0/boost/iostreams/device/file_descriptor.hpp' line='146' column='1' id='type-id-106'>
          <base-class access='private' layout-offset-in-bits='0' type-id='type-id-100'/>
          <member-type access='private'>
            <typedef-decl name='handle_type' type-id='type-id-11' filepath='src/third_party/boost-1.60.0/boost/iostreams/device/file_descriptor.hpp' line='151' column='1' id='type-id-259'/>
          </member-type>
          <member-function access='public' constructor='yes'>
            <function-decl name='file_descriptor_source' filepath='src/third_party/boost-1.60.0/boost/iostreams/device/file_descriptor.hpp' line='166' column='1' visibility='default' binding='global' size-in-bits='64'>
              <parameter type-id='type-id-107' is-artificial='yes'/>
              <return type-id='type-id-19'/>
            </function-decl>
          </member-function>
          <member-function access='public' constructor='yes'>
            <function-decl name='file_descriptor_source' mangled-name='_ZN5boost9iostreams22file_descriptor_sourceC2EiNS0_21file_descriptor_flagsE' filepath='src/third_party/boost-1.60.0/boost/iostreams/device/file_descriptor.hpp' line='169' column='1' visibility='default' binding='global' size-in-bits='64' elf-symbol-id='_ZN5boost9iostreams22file_descriptor_sourceC2EiNS0_21file_descriptor_flagsE'>
              <parameter type-id='type-id-107' is-artificial='yes'/>
              <parameter type-id='type-id-259'/>
              <parameter type-id='type-id-254'/>
              <return type-id='type-id-19'/>
            </function-decl>
          </member-function>
          <member-function access='public' constructor='yes'>
            <function-decl name='file_descriptor_source' mangled-name='_ZN5boost9iostreams22file_descriptor_sourceC2ERKNSt7__cxx1112basic_stringIcSt11char_traitsIcESaIcEEESt13_Ios_Openmode' filepath='src/third_party/boost-1.60.0/boost/iostreams/device/file_descriptor.hpp' line='183' column='1' visibility='default' binding='global' size-in-bits='64' elf-symbol-id='_ZN5boost9iostreams22file_descriptor_sourceC2ERKNSt7__cxx1112basic_stringIcSt11char_traitsIcESaIcEEESt13_Ios_Openmode'>
              <parameter type-id='type-id-107' is-artificial='yes'/>
              <parameter type-id='type-id-201'/>
              <parameter type-id='type-id-255'/>
              <return type-id='type-id-19'/>
            </function-decl>
          </member-function>
          <member-function access='public' constructor='yes'>
            <function-decl name='file_descriptor_source' mangled-name='_ZN5boost9iostreams22file_descriptor_sourceC2EPKcSt13_Ios_Openmode' filepath='src/third_party/boost-1.60.0/boost/iostreams/device/file_descriptor.hpp' line='187' column='1' visibility='default' binding='global' size-in-bits='64' elf-symbol-id='_ZN5boost9iostreams22file_descriptor_sourceC2EPKcSt13_Ios_Openmode'>
              <parameter type-id='type-id-107' is-artificial='yes'/>
              <parameter type-id='type-id-44'/>
              <parameter type-id='type-id-255'/>
              <return type-id='type-id-19'/>
            </function-decl>
          </member-function>
          <member-function access='public' constructor='yes'>
            <function-decl name='file_descriptor_source' mangled-name='_ZN5boost9iostreams22file_descriptor_sourceC2ERKS1_' filepath='src/third_party/boost-1.60.0/boost/iostreams/device/file_descriptor.hpp' line='197' column='1' visibility='default' binding='global' size-in-bits='64' elf-symbol-id='_ZN5boost9iostreams22file_descriptor_sourceC2ERKS1_'>
              <parameter type-id='type-id-107' is-artificial='yes'/>
              <parameter type-id='type-id-172'/>
              <return type-id='type-id-19'/>
            </function-decl>
          </member-function>
          <member-function access='public'>
            <function-decl name='open' mangled-name='_ZN5boost9iostreams22file_descriptor_source4openEiNS0_21file_descriptor_flagsE' filepath='src/third_party/boost-1.60.0/libs/iostreams/src/file_descriptor.cpp' line='493' column='1' visibility='default' binding='global' size-in-bits='64' elf-symbol-id='_ZN5boost9iostreams22file_descriptor_source4openEiNS0_21file_descriptor_flagsE'>
              <parameter type-id='type-id-107' is-artificial='yes'/>
              <parameter type-id='type-id-259'/>
              <parameter type-id='type-id-254'/>
              <return type-id='type-id-19'/>
            </function-decl>
          </member-function>
          <member-function access='public'>
            <function-decl name='open' mangled-name='_ZN5boost9iostreams22file_descriptor_source4openERKNSt7__cxx1112basic_stringIcSt11char_traitsIcESaIcEEESt13_Ios_Openmode' filepath='src/third_party/boost-1.60.0/libs/iostreams/src/file_descriptor.cpp' line='513' column='1' visibility='default' binding='global' size-in-bits='64' elf-symbol-id='_ZN5boost9iostreams22file_descriptor_source4openERKNSt7__cxx1112basic_stringIcSt11char_traitsIcESaIcEEESt13_Ios_Openmode'>
              <parameter type-id='type-id-107' is-artificial='yes'/>
              <parameter type-id='type-id-201'/>
              <parameter type-id='type-id-255'/>
              <return type-id='type-id-19'/>
            </function-decl>
          </member-function>
          <member-function access='private'>
            <function-decl name='open' mangled-name='_ZN5boost9iostreams22file_descriptor_source4openERKNS0_6detail4pathESt13_Ios_Openmode' filepath='src/third_party/boost-1.60.0/libs/iostreams/src/file_descriptor.cpp' line='521' column='1' visibility='default' binding='global' size-in-bits='64' elf-symbol-id='_ZN5boost9iostreams22file_descriptor_source4openERKNS0_6detail4pathESt13_Ios_Openmode'>
              <parameter type-id='type-id-107' is-artificial='yes'/>
              <parameter type-id='type-id-162'/>
              <parameter type-id='type-id-255'/>
              <return type-id='type-id-19'/>
            </function-decl>
          </member-function>
          <member-function access='public'>
            <function-decl name='open' mangled-name='_ZN5boost9iostreams22file_descriptor_source4openEPKcSt13_Ios_Openmode' filepath='src/third_party/boost-1.60.0/libs/iostreams/src/file_descriptor.cpp' line='517' column='1' visibility='default' binding='global' size-in-bits='64' elf-symbol-id='_ZN5boost9iostreams22file_descriptor_source4openEPKcSt13_Ios_Openmode'>
              <parameter type-id='type-id-107' is-artificial='yes'/>
              <parameter type-id='type-id-44'/>
              <parameter type-id='type-id-255'/>
              <return type-id='type-id-19'/>
            </function-decl>
          </member-function>
        </class-decl>
        <class-decl name='file_descriptor_sink' size-in-bits='128' visibility='default' filepath='src/third_party/boost-1.60.0/boost/iostreams/device/file_descriptor.hpp' line='228' column='1' id='type-id-104'>
          <base-class access='private' layout-offset-in-bits='0' type-id='type-id-100'/>
          <member-type access='private'>
            <typedef-decl name='handle_type' type-id='type-id-11' filepath='src/third_party/boost-1.60.0/boost/iostreams/device/file_descriptor.hpp' line='233' column='1' id='type-id-260'/>
          </member-type>
          <member-function access='public' constructor='yes'>
            <function-decl name='file_descriptor_sink' filepath='src/third_party/boost-1.60.0/boost/iostreams/device/file_descriptor.hpp' line='248' column='1' visibility='default' binding='global' size-in-bits='64'>
              <parameter type-id='type-id-105' is-artificial='yes'/>
              <return type-id='type-id-19'/>
            </function-decl>
          </member-function>
          <member-function access='public' constructor='yes'>
            <function-decl name='file_descriptor_sink' mangled-name='_ZN5boost9iostreams20file_descriptor_sinkC2EiNS0_21file_descriptor_flagsE' filepath='src/third_party/boost-1.60.0/boost/iostreams/device/file_descriptor.hpp' line='251' column='1' visibility='default' binding='global' size-in-bits='64' elf-symbol-id='_ZN5boost9iostreams20file_descriptor_sinkC2EiNS0_21file_descriptor_flagsE'>
              <parameter type-id='type-id-105' is-artificial='yes'/>
              <parameter type-id='type-id-260'/>
              <parameter type-id='type-id-254'/>
              <return type-id='type-id-19'/>
            </function-decl>
          </member-function>
          <member-function access='public' constructor='yes'>
            <function-decl name='file_descriptor_sink' mangled-name='_ZN5boost9iostreams20file_descriptor_sinkC2ERKNSt7__cxx1112basic_stringIcSt11char_traitsIcESaIcEEESt13_Ios_Openmode' filepath='src/third_party/boost-1.60.0/boost/iostreams/device/file_descriptor.hpp' line='265' column='1' visibility='default' binding='global' size-in-bits='64' elf-symbol-id='_ZN5boost9iostreams20file_descriptor_sinkC2ERKNSt7__cxx1112basic_stringIcSt11char_traitsIcESaIcEEESt13_Ios_Openmode'>
              <parameter type-id='type-id-105' is-artificial='yes'/>
              <parameter type-id='type-id-201'/>
              <parameter type-id='type-id-255'/>
              <return type-id='type-id-19'/>
            </function-decl>
          </member-function>
          <member-function access='public' constructor='yes'>
            <function-decl name='file_descriptor_sink' mangled-name='_ZN5boost9iostreams20file_descriptor_sinkC2EPKcSt13_Ios_Openmode' filepath='src/third_party/boost-1.60.0/boost/iostreams/device/file_descriptor.hpp' line='269' column='1' visibility='default' binding='global' size-in-bits='64' elf-symbol-id='_ZN5boost9iostreams20file_descriptor_sinkC2EPKcSt13_Ios_Openmode'>
              <parameter type-id='type-id-105' is-artificial='yes'/>
              <parameter type-id='type-id-44'/>
              <parameter type-id='type-id-255'/>
              <return type-id='type-id-19'/>
            </function-decl>
          </member-function>
          <member-function access='public' constructor='yes'>
            <function-decl name='file_descriptor_sink' mangled-name='_ZN5boost9iostreams20file_descriptor_sinkC2ERKS1_' filepath='src/third_party/boost-1.60.0/boost/iostreams/device/file_descriptor.hpp' line='279' column='1' visibility='default' binding='global' size-in-bits='64' elf-symbol-id='_ZN5boost9iostreams20file_descriptor_sinkC2ERKS1_'>
              <parameter type-id='type-id-105' is-artificial='yes'/>
              <parameter type-id='type-id-170'/>
              <return type-id='type-id-19'/>
            </function-decl>
          </member-function>
          <member-function access='public'>
            <function-decl name='open' mangled-name='_ZN5boost9iostreams20file_descriptor_sink4openEiNS0_21file_descriptor_flagsE' filepath='src/third_party/boost-1.60.0/libs/iostreams/src/file_descriptor.cpp' line='565' column='1' visibility='default' binding='global' size-in-bits='64' elf-symbol-id='_ZN5boost9iostreams20file_descriptor_sink4openEiNS0_21file_descriptor_flagsE'>
              <parameter type-id='type-id-105' is-artificial='yes'/>
              <parameter type-id='type-id-260'/>
              <parameter type-id='type-id-254'/>
              <return type-id='type-id-19'/>
            </function-decl>
          </member-function>
          <member-function access='public'>
            <function-decl name='open' mangled-name='_ZN5boost9iostreams20file_descriptor_sink4openERKNSt7__cxx1112basic_stringIcSt11char_traitsIcESaIcEEESt13_Ios_Openmode' filepath='src/third_party/boost-1.60.0/libs/iostreams/src/file_descriptor.cpp' line='585' column='1' visibility='default' binding='global' size-in-bits='64' elf-symbol-id='_ZN5boost9iostreams20file_descriptor_sink4openERKNSt7__cxx1112basic_stringIcSt11char_traitsIcESaIcEEESt13_Ios_Openmode'>
              <parameter type-id='type-id-105' is-artificial='yes'/>
              <parameter type-id='type-id-201'/>
              <parameter type-id='type-id-255'/>
              <return type-id='type-id-19'/>
            </function-decl>
          </member-function>
          <member-function access='private'>
            <function-decl name='open' mangled-name='_ZN5boost9iostreams20file_descriptor_sink4openERKNS0_6detail4pathESt13_Ios_Openmode' filepath='src/third_party/boost-1.60.0/libs/iostreams/src/file_descriptor.cpp' line='593' column='1' visibility='default' binding='global' size-in-bits='64' elf-symbol-id='_ZN5boost9iostreams20file_descriptor_sink4openERKNS0_6detail4pathESt13_Ios_Openmode'>
              <parameter type-id='type-id-105' is-artificial='yes'/>
              <parameter type-id='type-id-162'/>
              <parameter type-id='type-id-255'/>
              <return type-id='type-id-19'/>
            </function-decl>
          </member-function>
          <member-function access='public'>
            <function-decl name='open' mangled-name='_ZN5boost9iostreams20file_descriptor_sink4openEPKcSt13_Ios_Openmode' filepath='src/third_party/boost-1.60.0/libs/iostreams/src/file_descriptor.cpp' line='589' column='1' visibility='default' binding='global' size-in-bits='64' elf-symbol-id='_ZN5boost9iostreams20file_descriptor_sink4openEPKcSt13_Ios_Openmode'>
              <parameter type-id='type-id-105' is-artificial='yes'/>
              <parameter type-id='type-id-44'/>
              <parameter type-id='type-id-255'/>
              <return type-id='type-id-19'/>
            </function-decl>
          </member-function>
        </class-decl>
        <namespace-decl name='detail'>
          <class-decl name='file_descriptor_impl' size-in-bits='64' is-struct='yes' visibility='default' filepath='src/third_party/boost-1.60.0/libs/iostreams/src/file_descriptor.cpp' line='50' column='1' id='type-id-87'>
            <member-type access='public'>
              <enum-decl name='flags' filepath='src/third_party/boost-1.60.0/libs/iostreams/src/file_descriptor.cpp' line='52' column='1' id='type-id-261'>
                <underlying-type type-id='type-id-16'/>
                <enumerator name='never_close' value='0'/>
                <enumerator name='close_on_exit' value='1'/>
                <enumerator name='close_on_close' value='2'/>
                <enumerator name='close_always' value='3'/>
              </enum-decl>
            </member-type>
            <data-member access='public' layout-offset-in-bits='0'>
              <var-decl name='handle_' type-id='type-id-253' visibility='default' filepath='src/third_party/boost-1.60.0/libs/iostreams/src/file_descriptor.cpp' line='73' column='1'/>
            </data-member>
            <data-member access='public' layout-offset-in-bits='32'>
              <var-decl name='flags_' type-id='type-id-11' visibility='default' filepath='src/third_party/boost-1.60.0/libs/iostreams/src/file_descriptor.cpp' line='74' column='1'/>
            </data-member>
            <member-function access='public' constructor='yes'>
              <function-decl name='file_descriptor_impl' mangled-name='_ZN5boost9iostreams6detail20file_descriptor_implC2Ev' filepath='src/third_party/boost-1.60.0/libs/iostreams/src/file_descriptor.cpp' line='59' column='1' visibility='default' binding='global' size-in-bits='64'>
                <parameter type-id='type-id-89' is-artificial='yes'/>
                <return type-id='type-id-19'/>
              </function-decl>
            </member-function>
            <member-function access='public' destructor='yes'>
              <function-decl name='~file_descriptor_impl' mangled-name='_ZN5boost9iostreams6detail20file_descriptor_implD2Ev' filepath='src/third_party/boost-1.60.0/libs/iostreams/src/file_descriptor.cpp' line='60' column='1' visibility='default' binding='global' size-in-bits='64'>
                <parameter type-id='type-id-89' is-artificial='yes'/>
                <return type-id='type-id-19'/>
              </function-decl>
            </member-function>
            <member-function access='public' constructor='yes'>
              <function-decl name='file_descriptor_impl' mangled-name='_ZN5boost9iostreams6detail20file_descriptor_implC2Ev' filepath='src/third_party/boost-1.60.0/libs/iostreams/src/file_descriptor.cpp' line='59' column='1' visibility='default' binding='global' size-in-bits='64' elf-symbol-id='_ZN5boost9iostreams6detail20file_descriptor_implC2Ev'>
                <parameter type-id='type-id-89' is-artificial='yes'/>
                <return type-id='type-id-19'/>
              </function-decl>
            </member-function>
            <member-function access='public' static='yes'>
              <function-decl name='invalid_handle' mangled-name='_ZN5boost9iostreams6detail20file_descriptor_impl14invalid_handleEv' filepath='src/third_party/boost-1.60.0/libs/iostreams/src/file_descriptor.cpp' line='347' column='1' visibility='default' binding='global' size-in-bits='64' elf-symbol-id='_ZN5boost9iostreams6detail20file_descriptor_impl14invalid_handleEv'>
                <return type-id='type-id-253'/>
              </function-decl>
            </member-function>
            <member-function access='public' destructor='yes'>
              <function-decl name='~file_descriptor_impl' mangled-name='_ZN5boost9iostreams6detail20file_descriptor_implD2Ev' filepath='src/third_party/boost-1.60.0/libs/iostreams/src/file_descriptor.cpp' line='60' column='1' visibility='default' binding='global' size-in-bits='64' elf-symbol-id='_ZN5boost9iostreams6detail20file_descriptor_implD2Ev'>
                <parameter type-id='type-id-89' is-artificial='yes'/>
                <return type-id='type-id-19'/>
              </function-decl>
            </member-function>
            <member-function access='public'>
              <function-decl name='close_impl' mangled-name='_ZN5boost9iostreams6detail20file_descriptor_impl10close_implEbb' filepath='src/third_party/boost-1.60.0/libs/iostreams/src/file_descriptor.cpp' line='244' column='1' visibility='default' binding='global' size-in-bits='64' elf-symbol-id='_ZN5boost9iostreams6detail20file_descriptor_impl10close_implEbb'>
                <parameter type-id='type-id-89' is-artificial='yes'/>
                <parameter type-id='type-id-1'/>
                <parameter type-id='type-id-1'/>
                <return type-id='type-id-19'/>
              </function-decl>
            </member-function>
            <member-function access='public'>
              <function-decl name='open' mangled-name='_ZN5boost9iostreams6detail20file_descriptor_impl4openEiNS2_5flagsE' filepath='src/third_party/boost-1.60.0/libs/iostreams/src/file_descriptor.cpp' line='88' column='1' visibility='default' binding='global' size-in-bits='64' elf-symbol-id='_ZN5boost9iostreams6detail20file_descriptor_impl4openEiNS2_5flagsE'>
                <parameter type-id='type-id-89' is-artificial='yes'/>
                <parameter type-id='type-id-253'/>
                <parameter type-id='type-id-261'/>
                <return type-id='type-id-19'/>
              </function-decl>
            </member-function>
            <member-function access='public'>
              <function-decl name='close' mangled-name='_ZN5boost9iostreams6detail20file_descriptor_impl5closeEv' filepath='src/third_party/boost-1.60.0/libs/iostreams/src/file_descriptor.cpp' line='239' column='1' visibility='default' binding='global' size-in-bits='64' elf-symbol-id='_ZN5boost9iostreams6detail20file_descriptor_impl5closeEv'>
                <parameter type-id='type-id-89' is-artificial='yes'/>
                <return type-id='type-id-19'/>
              </function-decl>
            </member-function>
            <member-function access='public'>
              <function-decl name='open' mangled-name='_ZN5boost9iostreams6detail20file_descriptor_impl4openERKNS1_4pathESt13_Ios_Openmode' filepath='src/third_party/boost-1.60.0/libs/iostreams/src/file_descriptor.cpp' line='113' column='1' visibility='default' binding='global' size-in-bits='64' elf-symbol-id='_ZN5boost9iostreams6detail20file_descriptor_impl4openERKNS1_4pathESt13_Ios_Openmode'>
                <parameter type-id='type-id-89' is-artificial='yes'/>
                <parameter type-id='type-id-162'/>
                <parameter type-id='type-id-255'/>
                <return type-id='type-id-19'/>
              </function-decl>
            </member-function>
            <member-function access='public'>
              <function-decl name='is_open' mangled-name='_ZNK5boost9iostreams6detail20file_descriptor_impl7is_openEv' filepath='src/third_party/boost-1.60.0/libs/iostreams/src/file_descriptor.cpp' line='236' column='1' visibility='default' binding='global' size-in-bits='64' elf-symbol-id='_ZNK5boost9iostreams6detail20file_descriptor_impl7is_openEv'>
                <parameter type-id='type-id-156' is-artificial='yes'/>
                <return type-id='type-id-1'/>
              </function-decl>
            </member-function>
            <member-function access='public'>
              <function-decl name='read' mangled-name='_ZN5boost9iostreams6detail20file_descriptor_impl4readEPcl' filepath='src/third_party/boost-1.60.0/libs/iostreams/src/file_descriptor.cpp' line='261' column='1' visibility='default' binding='global' size-in-bits='64' elf-symbol-id='_ZN5boost9iostreams6detail20file_descriptor_impl4readEPcl'>
                <parameter type-id='type-id-89' is-artificial='yes'/>
                <parameter type-id='type-id-122'/>
                <parameter type-id='type-id-256'/>
                <return type-id='type-id-256'/>
              </function-decl>
            </member-function>
            <member-function access='public'>
              <function-decl name='write' mangled-name='_ZN5boost9iostreams6detail20file_descriptor_impl5writeEPKcl' filepath='src/third_party/boost-1.60.0/libs/iostreams/src/file_descriptor.cpp' line='285' column='1' visibility='default' binding='global' size-in-bits='64' elf-symbol-id='_ZN5boost9iostreams6detail20file_descriptor_impl5writeEPKcl'>
                <parameter type-id='type-id-89' is-artificial='yes'/>
                <parameter type-id='type-id-44'/>
                <parameter type-id='type-id-256'/>
                <return type-id='type-id-256'/>
              </function-decl>
            </member-function>
            <member-function access='public'>
              <function-decl name='seek' mangled-name='_ZN5boost9iostreams6detail20file_descriptor_impl4seekElSt12_Ios_Seekdir' filepath='src/third_party/boost-1.60.0/libs/iostreams/src/file_descriptor.cpp' line='300' column='1' visibility='default' binding='global' size-in-bits='64' elf-symbol-id='_ZN5boost9iostreams6detail20file_descriptor_impl4seekElSt12_Ios_Seekdir'>
                <parameter type-id='type-id-89' is-artificial='yes'/>
                <parameter type-id='type-id-251'/>
                <parameter type-id='type-id-257'/>
                <return type-id='type-id-258'/>
              </function-decl>
            </member-function>
          </class-decl>
          <typedef-decl name='file_handle' type-id='type-id-11' filepath='src/third_party/boost-1.60.0/boost/iostreams/detail/file_handle.hpp' line='27' column='1' id='type-id-253'/>
          <class-decl name='path' size-in-bits='576' visibility='default' filepath='src/third_party/boost-1.60.0/boost/iostreams/detail/path.hpp' line='37' column='1' id='type-id-97'>
            <data-member access='private' layout-offset-in-bits='0'>
              <var-decl name='narrow_' type-id='type-id-199' visibility='default' filepath='src/third_party/boost-1.60.0/boost/iostreams/detail/path.hpp' line='155' column='1'/>
            </data-member>
            <data-member access='private' layout-offset-in-bits='256'>
              <var-decl name='wide_' type-id='type-id-202' visibility='default' filepath='src/third_party/boost-1.60.0/boost/iostreams/detail/path.hpp' line='156' column='1'/>
            </data-member>
            <data-member access='private' layout-offset-in-bits='512'>
              <var-decl name='is_wide_' type-id='type-id-1' visibility='default' filepath='src/third_party/boost-1.60.0/boost/iostreams/detail/path.hpp' line='157' column='1'/>
            </data-member>
            <member-function access='public' constructor='yes'>
              <function-decl name='path' mangled-name='_ZN5boost9iostreams6detail4pathC2Ev' filepath='src/third_party/boost-1.60.0/boost/iostreams/detail/path.hpp' line='46' column='1' visibility='default' binding='global' size-in-bits='64'>
                <parameter type-id='type-id-99' is-artificial='yes'/>
                <return type-id='type-id-19'/>
              </function-decl>
            </member-function>
            <member-function access='public' constructor='yes'>
              <function-decl name='path' mangled-name='_ZN5boost9iostreams6detail4pathC2ERKNSt7__cxx1112basic_stringIcSt11char_traitsIcESaIcEEE' filepath='src/third_party/boost-1.60.0/boost/iostreams/detail/path.hpp' line='49' column='1' visibility='default' binding='global' size-in-bits='64'>
                <parameter type-id='type-id-99' is-artificial='yes'/>
                <parameter type-id='type-id-201'/>
                <return type-id='type-id-19'/>
              </function-decl>
            </member-function>
            <member-function access='public' constructor='yes'>
              <function-decl name='path' mangled-name='_ZN5boost9iostreams6detail4pathC2EPKc' filepath='src/third_party/boost-1.60.0/boost/iostreams/detail/path.hpp' line='52' column='1' visibility='default' binding='global' size-in-bits='64'>
                <parameter type-id='type-id-99' is-artificial='yes'/>
                <parameter type-id='type-id-44'/>
                <return type-id='type-id-19'/>
              </function-decl>
            </member-function>
            <member-function access='public' constructor='yes'>
              <function-decl name='path' mangled-name='_ZN5boost9iostreams6detail4pathC2ERKS2_' filepath='src/third_party/boost-1.60.0/boost/iostreams/detail/path.hpp' line='70' column='1' visibility='default' binding='global' size-in-bits='64'>
                <parameter type-id='type-id-99' is-artificial='yes'/>
                <parameter type-id='type-id-162'/>
                <return type-id='type-id-19'/>
              </function-decl>
            </member-function>
            <member-function access='private' constructor='yes'>
              <function-decl name='path' filepath='src/third_party/boost-1.60.0/boost/iostreams/detail/path.hpp' line='138' column='1' visibility='default' binding='global' size-in-bits='64'>
                <parameter type-id='type-id-99' is-artificial='yes'/>
                <parameter type-id='type-id-204'/>
                <return type-id='type-id-19'/>
              </function-decl>
            </member-function>
          </class-decl>
          <function-decl name='system_failure' mangled-name='_ZN5boost9iostreams6detail14system_failureB5cxx11EPKc' filepath='src/third_party/boost-1.60.0/boost/iostreams/detail/system_failure.hpp' line='39' column='1' visibility='default' binding='global' size-in-bits='64' elf-symbol-id='_ZN5boost9iostreams6detail14system_failureB5cxx11EPKc'>
            <parameter type-id='type-id-44' name='msg' filepath='src/third_party/boost-1.60.0/boost/iostreams/detail/system_failure.hpp' line='39' column='1'/>
            <return type-id='type-id-215'/>
          </function-decl>
        </namespace-decl>
      </namespace-decl>
      <namespace-decl name='exception_detail'>
        <class-decl name='refcount_ptr&lt;boost::exception_detail::error_info_container&gt;' size-in-bits='64' visibility='default' filepath='src/third_party/boost-1.60.0/boost/exception/exception.hpp' line='23' column='1' id='type-id-82'>
          <data-member access='private' layout-offset-in-bits='0'>
            <var-decl name='px_' type-id='type-id-79' visibility='default' filepath='src/third_party/boost-1.60.0/boost/exception/exception.hpp' line='66' column='1'/>
          </data-member>
          <member-function access='public'>
            <function-decl name='refcount_ptr' filepath='src/third_party/boost-1.60.0/boost/exception/exception.hpp' line='27' column='1' visibility='default' binding='global' size-in-bits='64'>
              <parameter type-id='type-id-84' is-artificial='yes'/>
              <return type-id='type-id-19'/>
            </function-decl>
          </member-function>
          <member-function access='public' destructor='yes'>
            <function-decl name='~refcount_ptr' mangled-name='_ZN5boost16exception_detail12refcount_ptrINS0_20error_info_containerEED2Ev' filepath='src/third_party/boost-1.60.0/boost/exception/exception.hpp' line='32' column='1' visibility='default' binding='global' size-in-bits='64'>
              <parameter type-id='type-id-84' is-artificial='yes'/>
              <return type-id='type-id-19'/>
            </function-decl>
          </member-function>
          <member-function access='public'>
            <function-decl name='refcount_ptr' mangled-name='_ZN5boost16exception_detail12refcount_ptrINS0_20error_info_containerEEC2ERKS3_' filepath='src/third_party/boost-1.60.0/boost/exception/exception.hpp' line='37' column='1' visibility='default' binding='global' size-in-bits='64'>
              <parameter type-id='type-id-84' is-artificial='yes'/>
              <parameter type-id='type-id-151'/>
              <return type-id='type-id-19'/>
            </function-decl>
          </member-function>
        </class-decl>
        <class-decl name='clone_impl&lt;boost::exception_detail::error_info_injector&lt;std::ios_base::failure&gt; &gt;' size-in-bits='640' visibility='default' filepath='src/third_party/boost-1.60.0/boost/exception/exception.hpp' line='442' column='1' id='type-id-76'>
          <base-class access='public' layout-offset-in-bits='0' type-id='type-id-80'/>
          <base-class access='public' layout-offset-in-bits='192' is-virtual='yes' type-id='type-id-74'/>
          <member-type access='private'>
            <class-decl name='clone_tag' size-in-bits='8' is-struct='yes' visibility='default' filepath='src/third_party/boost-1.60.0/boost/exception/exception.hpp' line='446' column='1' id='type-id-262'/>
          </member-type>
          <member-function access='private'>
            <function-decl name='clone_impl' mangled-name='_ZN5boost16exception_detail10clone_implINS0_19error_info_injectorINSt8ios_base7failureB5cxx11EEEEC1ERKS6_NS6_9clone_tagE' filepath='src/third_party/boost-1.60.0/boost/exception/exception.hpp' line='447' column='1' visibility='default' binding='global' size-in-bits='64'>
              <parameter type-id='type-id-77' is-artificial='yes'/>
              <parameter type-id='type-id-146'/>
              <parameter type-id='type-id-262'/>
              <return type-id='type-id-19'/>
            </function-decl>
          </member-function>
          <member-function access='public'>
            <function-decl name='clone_impl' mangled-name='_ZN5boost16exception_detail10clone_implINS0_19error_info_injectorINSt8ios_base7failureB5cxx11EEEEC1ERKS5_' filepath='src/third_party/boost-1.60.0/boost/exception/exception.hpp' line='456' column='1' visibility='default' binding='global' size-in-bits='64'>
              <parameter type-id='type-id-77' is-artificial='yes'/>
              <parameter type-id='type-id-149'/>
              <return type-id='type-id-19'/>
            </function-decl>
          </member-function>
          <member-function access='public' destructor='yes' vtable-offset='0'>
            <function-decl name='~clone_impl' mangled-name='_ZN5boost16exception_detail10clone_implINS0_19error_info_injectorINSt8ios_base7failureB5cxx11EEEED0Ev' filepath='src/third_party/boost-1.60.0/boost/exception/exception.hpp' line='462' column='1' visibility='default' binding='global' size-in-bits='64'>
              <parameter type-id='type-id-77' is-artificial='yes'/>
              <return type-id='type-id-19'/>
            </function-decl>
          </member-function>
          <member-function access='public' destructor='yes' vtable-offset='0'>
            <function-decl name='~clone_impl' mangled-name='_ZN5boost16exception_detail10clone_implINS0_19error_info_injectorINSt8ios_base7failureB5cxx11EEEED0Ev' filepath='src/third_party/boost-1.60.0/boost/exception/exception.hpp' line='462' column='1' visibility='default' binding='global' size-in-bits='64'>
              <parameter type-id='type-id-77' is-artificial='yes'/>
              <return type-id='type-id-19'/>
            </function-decl>
          </member-function>
          <member-function access='public' destructor='yes' vtable-offset='0'>
            <function-decl name='~clone_impl' mangled-name='_ZN5boost16exception_detail10clone_implINS0_19error_info_injectorINSt8ios_base7failureB5cxx11EEEED1Ev' filepath='src/third_party/boost-1.60.0/boost/exception/exception.hpp' line='462' column='1' visibility='default' binding='global' size-in-bits='64'>
              <parameter type-id='type-id-77' is-artificial='yes'/>
              <return type-id='type-id-19'/>
            </function-decl>
          </member-function>
          <member-function access='private' vtable-offset='3'>
            <function-decl name='clone' mangled-name='_ZNK5boost16exception_detail10clone_implINS0_19error_info_injectorINSt8ios_base7failureB5cxx11EEEE5cloneEv' filepath='src/third_party/boost-1.60.0/boost/exception/exception.hpp' line='469' column='1' visibility='default' binding='global' size-in-bits='64'>
              <parameter type-id='type-id-147' is-artificial='yes'/>
              <return type-id='type-id-144'/>
            </function-decl>
          </member-function>
          <member-function access='private' vtable-offset='4'>
            <function-decl name='rethrow' mangled-name='_ZNK5boost16exception_detail10clone_implINS0_19error_info_injectorINSt8ios_base7failureB5cxx11EEEE7rethrowEv' filepath='src/third_party/boost-1.60.0/boost/exception/exception.hpp' line='475' column='1' visibility='default' binding='global' size-in-bits='64'>
              <parameter type-id='type-id-147' is-artificial='yes'/>
              <return type-id='type-id-19'/>
            </function-decl>
          </member-function>
        </class-decl>
        <class-decl name='error_info_injector&lt;std::ios_base::failure&gt;' size-in-bits='576' is-struct='yes' visibility='default' filepath='src/third_party/boost-1.60.0/boost/exception/exception.hpp' line='326' column='1' id='type-id-80'>
          <base-class access='public' layout-offset-in-bits='0' type-id='type-id-215'/>
          <base-class access='public' layout-offset-in-bits='256' type-id='type-id-72'/>
          <member-function access='public'>
            <function-decl name='error_info_injector' mangled-name='_ZN5boost16exception_detail19error_info_injectorINSt8ios_base7failureB5cxx11EEC2ERKS3_' filepath='src/third_party/boost-1.60.0/boost/exception/exception.hpp' line='331' column='1' visibility='default' binding='global' size-in-bits='64'>
              <parameter type-id='type-id-81' is-artificial='yes'/>
              <parameter type-id='type-id-217'/>
              <return type-id='type-id-19'/>
            </function-decl>
          </member-function>
          <member-function access='public' destructor='yes' vtable-offset='0'>
            <function-decl name='~error_info_injector' mangled-name='_ZN5boost16exception_detail19error_info_injectorINSt8ios_base7failureB5cxx11EED0Ev' filepath='src/third_party/boost-1.60.0/boost/exception/exception.hpp' line='336' column='1' visibility='default' binding='global' size-in-bits='64'>
              <parameter type-id='type-id-81' is-artificial='yes'/>
              <return type-id='type-id-19'/>
            </function-decl>
          </member-function>
          <member-function access='public' destructor='yes' vtable-offset='0'>
            <function-decl name='~error_info_injector' mangled-name='_ZN5boost16exception_detail19error_info_injectorINSt8ios_base7failureB5cxx11EED0Ev' filepath='src/third_party/boost-1.60.0/boost/exception/exception.hpp' line='336' column='1' visibility='default' binding='global' size-in-bits='64'>
              <parameter type-id='type-id-81' is-artificial='yes'/>
              <return type-id='type-id-19'/>
            </function-decl>
          </member-function>
          <member-function access='public' destructor='yes' vtable-offset='0'>
            <function-decl name='~error_info_injector' mangled-name='_ZN5boost16exception_detail19error_info_injectorINSt8ios_base7failureB5cxx11EED2Ev' filepath='src/third_party/boost-1.60.0/boost/exception/exception.hpp' line='336' column='1' visibility='default' binding='global' size-in-bits='64'>
              <parameter type-id='type-id-81' is-artificial='yes'/>
              <return type-id='type-id-19'/>
            </function-decl>
          </member-function>
        </class-decl>
        <class-decl name='clone_base' size-in-bits='64' visibility='default' filepath='src/third_party/boost-1.60.0/boost/exception/exception.hpp' line='398' column='1' id='type-id-74'>
          <member-function access='public' destructor='yes' vtable-offset='0'>
            <function-decl name='~clone_base' mangled-name='_ZN5boost16exception_detail10clone_baseD0Ev' filepath='src/third_party/boost-1.60.0/boost/exception/exception.hpp' line='406' column='1' visibility='default' binding='global' size-in-bits='64'>
              <parameter type-id='type-id-75' is-artificial='yes'/>
              <return type-id='type-id-19'/>
            </function-decl>
          </member-function>
          <member-function access='public' vtable-offset='0'>
            <function-decl name='clone' mangled-name='_ZNK5boost16exception_detail10clone_base5cloneEv' filepath='src/third_party/boost-1.60.0/boost/exception/exception.hpp' line='402' column='1' visibility='default' binding='global' size-in-bits='64'>
              <parameter type-id='type-id-144' is-artificial='yes'/>
              <return type-id='type-id-144'/>
            </function-decl>
          </member-function>
          <member-function access='public' vtable-offset='1'>
            <function-decl name='rethrow' mangled-name='_ZNK5boost16exception_detail10clone_base7rethrowEv' filepath='src/third_party/boost-1.60.0/boost/exception/exception.hpp' line='403' column='1' visibility='default' binding='global' size-in-bits='64'>
              <parameter type-id='type-id-144' is-artificial='yes'/>
              <return type-id='type-id-19'/>
            </function-decl>
          </member-function>
        </class-decl>
        <class-decl name='error_info_container' size-in-bits='64' is-struct='yes' visibility='default' is-declaration-only='yes' id='type-id-78'/>
        <function-decl name='copy_boost_exception' mangled-name='_ZN5boost16exception_detail20copy_boost_exceptionEPNS_9exceptionEPKS1_' filepath='src/third_party/boost-1.60.0/boost/exception/exception.hpp' line='418' column='1' visibility='default' binding='global' size-in-bits='64' elf-symbol-id='_ZN5boost16exception_detail20copy_boost_exceptionEPNS_9exceptionEPKS1_'>
          <parameter type-id='type-id-73' name='a' filepath='src/third_party/boost-1.60.0/boost/exception/exception.hpp' line='418' column='1'/>
          <parameter type-id='type-id-142' name='b' filepath='src/third_party/boost-1.60.0/boost/exception/exception.hpp' line='418' column='1'/>
          <return type-id='type-id-19'/>
        </function-decl>
      </namespace-decl>
      <namespace-decl name='detail'>
        <class-decl name='sp_element&lt;boost::iostreams::detail::file_descriptor_impl&gt;' size-in-bits='8' is-struct='yes' visibility='default' filepath='src/third_party/boost-1.60.0/boost/smart_ptr/shared_ptr.hpp' line='76' column='1' id='type-id-263'>
          <member-type access='public'>
            <typedef-decl name='type' type-id='type-id-87' filepath='src/third_party/boost-1.60.0/boost/smart_ptr/shared_ptr.hpp' line='78' column='1' id='type-id-250'/>
          </member-type>
        </class-decl>
        <class-decl name='sp_dereference&lt;boost::iostreams::detail::file_descriptor_impl&gt;' size-in-bits='8' is-struct='yes' visibility='default' filepath='src/third_party/boost-1.60.0/boost/smart_ptr/shared_ptr.hpp' line='101' column='1' id='type-id-264'>
          <member-type access='public'>
            <typedef-decl name='type' type-id='type-id-88' filepath='src/third_party/boost-1.60.0/boost/smart_ptr/shared_ptr.hpp' line='103' column='1' id='type-id-265'/>
          </member-type>
        </class-decl>
        <class-decl name='sp_member_access&lt;boost::iostreams::detail::file_descriptor_impl&gt;' size-in-bits='8' is-struct='yes' visibility='default' filepath='src/third_party/boost-1.60.0/boost/smart_ptr/shared_ptr.hpp' line='150' column='1' id='type-id-266'>
          <member-type access='public'>
            <typedef-decl name='type' type-id='type-id-89' filepath='src/third_party/boost-1.60.0/boost/smart_ptr/shared_ptr.hpp' line='152' column='1' id='type-id-267'/>
          </member-type>
        </class-decl>
        <class-decl name='sp_array_access&lt;boost::iostreams::detail::file_descriptor_impl&gt;' size-in-bits='8' is-struct='yes' visibility='default' filepath='src/third_party/boost-1.60.0/boost/smart_ptr/shared_ptr.hpp' line='175' column='1' id='type-id-268'>
          <member-type access='public'>
            <typedef-decl name='type' type-id='type-id-19' filepath='src/third_party/boost-1.60.0/boost/smart_ptr/shared_ptr.hpp' line='177' column='1' id='type-id-269'/>
          </member-type>
        </class-decl>
        <class-decl name='sp_counted_impl_p&lt;boost::iostreams::detail::file_descriptor_impl&gt;' size-in-bits='192' visibility='default' filepath='src/third_party/boost-1.60.0/boost/smart_ptr/detail/sp_counted_impl.hpp' line='53' column='1' id='type-id-65'>
          <base-class access='public' layout-offset-in-bits='0' type-id='type-id-62'/>
          <data-member access='private' layout-offset-in-bits='128'>
            <var-decl name='px_' type-id='type-id-89' visibility='default' filepath='src/third_party/boost-1.60.0/boost/smart_ptr/detail/sp_counted_impl.hpp' line='57' column='1'/>
          </data-member>
          <member-function access='private'>
            <function-decl name='sp_counted_impl_p' filepath='src/third_party/boost-1.60.0/boost/smart_ptr/detail/sp_counted_impl.hpp' line='59' column='1' visibility='default' binding='global' size-in-bits='64'>
              <parameter type-id='type-id-67' is-artificial='yes'/>
              <parameter type-id='type-id-134'/>
              <return type-id='type-id-19'/>
            </function-decl>
          </member-function>
          <member-function access='public'>
            <function-decl name='sp_counted_impl_p' mangled-name='_ZN5boost6detail17sp_counted_impl_pINS_9iostreams6detail20file_descriptor_implEEC2EPS4_' filepath='src/third_party/boost-1.60.0/boost/smart_ptr/detail/sp_counted_impl.hpp' line='66' column='1' visibility='default' binding='global' size-in-bits='64'>
              <parameter type-id='type-id-67' is-artificial='yes'/>
              <parameter type-id='type-id-89'/>
              <return type-id='type-id-19'/>
            </function-decl>
          </member-function>
          <member-function access='public' vtable-offset='2'>
            <function-decl name='dispose' mangled-name='_ZN5boost6detail17sp_counted_impl_pINS_9iostreams6detail20file_descriptor_implEE7disposeEv' filepath='src/third_party/boost-1.60.0/boost/smart_ptr/detail/sp_counted_impl.hpp' line='73' column='1' visibility='default' binding='global' size-in-bits='64'>
              <parameter type-id='type-id-67' is-artificial='yes'/>
              <return type-id='type-id-19'/>
            </function-decl>
          </member-function>
          <member-function access='public' vtable-offset='4'>
            <function-decl name='get_deleter' mangled-name='_ZN5boost6detail17sp_counted_impl_pINS_9iostreams6detail20file_descriptor_implEE11get_deleterERKSt9type_info' filepath='src/third_party/boost-1.60.0/boost/smart_ptr/detail/sp_counted_impl.hpp' line='81' column='1' visibility='default' binding='global' size-in-bits='64'>
              <parameter type-id='type-id-67' is-artificial='yes'/>
              <parameter type-id='type-id-137'/>
              <return type-id='type-id-8'/>
            </function-decl>
          </member-function>
          <member-function access='public' vtable-offset='5'>
            <function-decl name='get_untyped_deleter' mangled-name='_ZN5boost6detail17sp_counted_impl_pINS_9iostreams6detail20file_descriptor_implEE19get_untyped_deleterEv' filepath='src/third_party/boost-1.60.0/boost/smart_ptr/detail/sp_counted_impl.hpp' line='86' column='1' visibility='default' binding='global' size-in-bits='64'>
              <parameter type-id='type-id-67' is-artificial='yes'/>
              <return type-id='type-id-8'/>
            </function-decl>
          </member-function>
        </class-decl>
        <function-decl name='sp_pointer_construct&lt;boost::iostreams::detail::file_descriptor_impl, boost::iostreams::detail::file_descriptor_impl&gt;' mangled-name='_ZN5boost6detail20sp_pointer_constructINS_9iostreams6detail20file_descriptor_implES4_EEvPNS_10shared_ptrIT_EEPT0_RNS0_12shared_countE' filepath='src/third_party/boost-1.60.0/boost/smart_ptr/shared_ptr.hpp' line='282' column='1' visibility='default' binding='global' size-in-bits='64' elf-symbol-id='_ZN5boost6detail20sp_pointer_constructINS_9iostreams6detail20file_descriptor_implES4_EEvPNS_10shared_ptrIT_EEPT0_RNS0_12shared_countE'>
          <parameter type-id='type-id-113' name='ppx' filepath='src/third_party/boost-1.60.0/boost/smart_ptr/shared_ptr.hpp' line='282' column='1'/>
          <parameter type-id='type-id-89' name='p' filepath='src/third_party/boost-1.60.0/boost/smart_ptr/shared_ptr.hpp' line='282' column='1'/>
          <parameter type-id='type-id-59' name='pn' filepath='src/third_party/boost-1.60.0/boost/smart_ptr/shared_ptr.hpp' line='282' column='1'/>
          <return type-id='type-id-19'/>
        </function-decl>
        <function-decl name='sp_enable_shared_from_this' mangled-name='_ZN5boost6detail26sp_enable_shared_from_thisEz' filepath='src/third_party/boost-1.60.0/boost/smart_ptr/shared_ptr.hpp' line='241' column='1' visibility='default' binding='global' size-in-bits='64' elf-symbol-id='_ZN5boost6detail26sp_enable_shared_from_thisEz'>
          <parameter is-variadic='yes'/>
          <return type-id='type-id-19'/>
        </function-decl>
      </namespace-decl>
      <function-decl name='throw_exception&lt;std::ios_base::failure&gt;' mangled-name='_ZN5boost15throw_exceptionINSt8ios_base7failureB5cxx11EEEvRKT_' filepath='src/third_party/boost-1.60.0/boost/throw_exception.hpp' line='62' column='1' visibility='default' binding='global' size-in-bits='64' elf-symbol-id='_ZN5boost15throw_exceptionINSt8ios_base7failureB5cxx11EEEvRKT_'>
        <parameter type-id='type-id-217' name='e' filepath='src/third_party/boost-1.60.0/boost/throw_exception.hpp' line='62' column='1'/>
        <return type-id='type-id-19'/>
      </function-decl>
      <function-decl name='enable_current_exception&lt;boost::exception_detail::error_info_injector&lt;std::ios_base::failure&gt; &gt;' mangled-name='_ZN5boost24enable_current_exceptionINS_16exception_detail19error_info_injectorINSt8ios_base7failureB5cxx11EEEEENS1_10clone_implIT_EERKS7_' filepath='src/third_party/boost-1.60.0/boost/exception/exception.hpp' line='490' column='1' visibility='default' binding='global' size-in-bits='64' elf-symbol-id='_ZN5boost24enable_current_exceptionINS_16exception_detail19error_info_injectorINSt8ios_base7failureB5cxx11EEEEENS1_10clone_implIT_EERKS7_'>
        <parameter type-id='type-id-149' name='x' filepath='src/third_party/boost-1.60.0/boost/exception/exception.hpp' line='490' column='1'/>
        <return type-id='type-id-76'/>
      </function-decl>
    </namespace-decl>
    <namespace-decl name='std'>
      <enum-decl name='_Ios_Openmode' filepath='/usr/bin/../lib/gcc/x86_64-linux-gnu/5.4.0/../../../../include/c++/5.4.0/bits/ios_base.h' line='111' column='1' id='type-id-270'>
        <underlying-type type-id='type-id-16'/>
        <enumerator name='_S_app' value='1'/>
        <enumerator name='_S_ate' value='2'/>
        <enumerator name='_S_bin' value='4'/>
        <enumerator name='_S_in' value='8'/>
        <enumerator name='_S_out' value='16'/>
        <enumerator name='_S_trunc' value='32'/>
        <enumerator name='_S_ios_openmode_end' value='65536'/>
        <enumerator name='_S_ios_openmode_max' value='2147483647'/>
        <enumerator name='_S_ios_openmode_min' value='-2147483648'/>
      </enum-decl>
      <enum-decl name='_Ios_Seekdir' filepath='/usr/bin/../lib/gcc/x86_64-linux-gnu/5.4.0/../../../../include/c++/5.4.0/bits/ios_base.h' line='193' column='1' id='type-id-271'>
        <underlying-type type-id='type-id-16'/>
        <enumerator name='_S_beg' value='0'/>
        <enumerator name='_S_cur' value='1'/>
        <enumerator name='_S_end' value='2'/>
        <enumerator name='_S_ios_seekdir_end' value='65536'/>
      </enum-decl>
      <typedef-decl name='streamsize' type-id='type-id-272' filepath='/usr/bin/../lib/gcc/x86_64-linux-gnu/5.4.0/../../../../include/c++/5.4.0/bits/postypes.h' line='98' column='1' id='type-id-256'/>
      <typedef-decl name='ptrdiff_t' type-id='type-id-13' filepath='/usr/bin/../lib/gcc/x86_64-linux-gnu/5.4.0/../../../../include/x86_64-linux-gnu/c++/5.4.0/bits/c++config.h' line='197' column='1' id='type-id-272'/>
      <typedef-decl name='streampos' type-id='type-id-211' filepath='/usr/bin/../lib/gcc/x86_64-linux-gnu/5.4.0/../../../../include/c++/5.4.0/bits/postypes.h' line='228' column='1' id='type-id-258'/>
      <class-decl name='fpos&lt;__mbstate_t&gt;' size-in-bits='128' visibility='default' filepath='/usr/bin/../lib/gcc/x86_64-linux-gnu/5.4.0/../../../../include/c++/5.4.0/bits/postypes.h' line='112' column='1' id='type-id-211'>
        <data-member access='private' layout-offset-in-bits='0'>
          <var-decl name='_M_off' type-id='type-id-273' visibility='default' filepath='/usr/bin/../lib/gcc/x86_64-linux-gnu/5.4.0/../../../../include/c++/5.4.0/bits/postypes.h' line='115' column='1'/>
        </data-member>
        <data-member access='private' layout-offset-in-bits='64'>
          <var-decl name='_M_state' type-id='type-id-24' visibility='default' filepath='/usr/bin/../lib/gcc/x86_64-linux-gnu/5.4.0/../../../../include/c++/5.4.0/bits/postypes.h' line='116' column='1'/>
        </data-member>
        <member-function access='public'>
          <function-decl name='fpos' filepath='/usr/bin/../lib/gcc/x86_64-linux-gnu/5.4.0/../../../../include/c++/5.4.0/bits/postypes.h' line='123' column='1' visibility='default' binding='global' size-in-bits='64'>
            <parameter type-id='type-id-240' is-artificial='yes'/>
            <return type-id='type-id-19'/>
          </function-decl>
        </member-function>
        <member-function access='public'>
          <function-decl name='fpos' filepath='/usr/bin/../lib/gcc/x86_64-linux-gnu/5.4.0/../../../../include/c++/5.4.0/bits/postypes.h' line='133' column='1' visibility='default' binding='global' size-in-bits='64'>
            <parameter type-id='type-id-240' is-artificial='yes'/>
            <parameter type-id='type-id-273'/>
            <return type-id='type-id-19'/>
          </function-decl>
        </member-function>
      </class-decl>
      <typedef-decl name='streamoff' type-id='type-id-13' filepath='/usr/bin/../lib/gcc/x86_64-linux-gnu/5.4.0/../../../../include/c++/5.4.0/bits/postypes.h' line='88' column='1' id='type-id-273'/>
      <typedef-decl name='size_t' type-id='type-id-17' filepath='/usr/bin/../lib/gcc/x86_64-linux-gnu/5.4.0/../../../../include/x86_64-linux-gnu/c++/5.4.0/bits/c++config.h' line='196' column='1' id='type-id-274'/>
      <class-decl name='error_code' size-in-bits='128' is-struct='yes' visibility='default' filepath='/usr/bin/../lib/gcc/x86_64-linux-gnu/5.4.0/../../../../include/c++/5.4.0/system_error' line='138' column='1' id='type-id-205'>
        <data-member access='private' layout-offset-in-bits='0'>
          <var-decl name='_M_value' type-id='type-id-11' visibility='default' filepath='/usr/bin/../lib/gcc/x86_64-linux-gnu/5.4.0/../../../../include/c++/5.4.0/system_error' line='190' column='1'/>
        </data-member>
        <data-member access='private' layout-offset-in-bits='64'>
          <var-decl name='_M_cat' type-id='type-id-198' visibility='default' filepath='/usr/bin/../lib/gcc/x86_64-linux-gnu/5.4.0/../../../../include/c++/5.4.0/system_error' line='191' column='1'/>
        </data-member>
        <member-function access='public' constructor='yes'>
          <function-decl name='error_code' filepath='/usr/bin/../lib/gcc/x86_64-linux-gnu/5.4.0/../../../../include/c++/5.4.0/system_error' line='140' column='1' visibility='default' binding='global' size-in-bits='64'>
            <parameter type-id='type-id-237' is-artificial='yes'/>
            <return type-id='type-id-19'/>
          </function-decl>
        </member-function>
        <member-function access='public' constructor='yes'>
          <function-decl name='error_code' filepath='/usr/bin/../lib/gcc/x86_64-linux-gnu/5.4.0/../../../../include/c++/5.4.0/system_error' line='143' column='1' visibility='default' binding='global' size-in-bits='64'>
            <parameter type-id='type-id-237' is-artificial='yes'/>
            <parameter type-id='type-id-11'/>
            <parameter type-id='type-id-197'/>
            <return type-id='type-id-19'/>
          </function-decl>
        </member-function>
        <member-function access='public'>
          <function-decl name='error_code&lt;std::io_errc, void&gt;' mangled-name='_ZNSt10error_codeC2ISt7io_errcvEET_' filepath='/usr/bin/../lib/gcc/x86_64-linux-gnu/5.4.0/../../../../include/c++/5.4.0/system_error' line='148' column='1' visibility='default' binding='global' size-in-bits='64'>
            <parameter type-id='type-id-237' is-artificial='yes'/>
            <parameter type-id='type-id-275'/>
            <return type-id='type-id-19'/>
          </function-decl>
        </member-function>
      </class-decl>
      <class-decl name='error_condition' size-in-bits='128' is-struct='yes' visibility='default' filepath='/usr/bin/../lib/gcc/x86_64-linux-gnu/5.4.0/../../../../include/c++/5.4.0/system_error' line='216' column='1' id='type-id-208'>
        <data-member access='private' layout-offset-in-bits='0'>
          <var-decl name='_M_value' type-id='type-id-11' visibility='default' filepath='/usr/bin/../lib/gcc/x86_64-linux-gnu/5.4.0/../../../../include/c++/5.4.0/system_error' line='264' column='1'/>
        </data-member>
        <data-member access='private' layout-offset-in-bits='64'>
          <var-decl name='_M_cat' type-id='type-id-198' visibility='default' filepath='/usr/bin/../lib/gcc/x86_64-linux-gnu/5.4.0/../../../../include/c++/5.4.0/system_error' line='265' column='1'/>
        </data-member>
        <member-function access='public' constructor='yes'>
          <function-decl name='error_condition' filepath='/usr/bin/../lib/gcc/x86_64-linux-gnu/5.4.0/../../../../include/c++/5.4.0/system_error' line='218' column='1' visibility='default' binding='global' size-in-bits='64'>
            <parameter type-id='type-id-238' is-artificial='yes'/>
            <return type-id='type-id-19'/>
          </function-decl>
        </member-function>
        <member-function access='public' constructor='yes'>
          <function-decl name='error_condition' filepath='/usr/bin/../lib/gcc/x86_64-linux-gnu/5.4.0/../../../../include/c++/5.4.0/system_error' line='221' column='1' visibility='default' binding='global' size-in-bits='64'>
            <parameter type-id='type-id-238' is-artificial='yes'/>
            <parameter type-id='type-id-11'/>
            <parameter type-id='type-id-197'/>
            <return type-id='type-id-19'/>
          </function-decl>
        </member-function>
      </class-decl>
      <enum-decl name='io_errc' filepath='/usr/bin/../lib/gcc/x86_64-linux-gnu/5.4.0/../../../../include/c++/5.4.0/bits/ios_base.h' line='203' column='1' id='type-id-275'>
        <underlying-type type-id='type-id-16'/>
        <enumerator name='stream' value='1'/>
      </enum-decl>
      <namespace-decl name='__cxx11'>
        <typedef-decl name='string' type-id='type-id-276' filepath='/usr/bin/../lib/gcc/x86_64-linux-gnu/5.4.0/../../../../include/c++/5.4.0/bits/stringfwd.h' line='74' column='1' id='type-id-199'/>
        <typedef-decl name='wstring' type-id='type-id-277' filepath='/usr/bin/../lib/gcc/x86_64-linux-gnu/5.4.0/../../../../include/c++/5.4.0/bits/stringfwd.h' line='78' column='1' id='type-id-202'/>
        <class-decl name='basic_string&lt;char, std::char_traits&lt;char&gt;, std::allocator&lt;char&gt; &gt;' size-in-bits='256' visibility='default' is-declaration-only='yes' id='type-id-276'/>
        <class-decl name='basic_string&lt;wchar_t, std::char_traits&lt;wchar_t&gt;, std::allocator&lt;wchar_t&gt; &gt;' size-in-bits='256' visibility='default' is-declaration-only='yes' id='type-id-277'/>
      </namespace-decl>
      <namespace-decl name='_V2'>
        <class-decl name='error_category' size-in-bits='64' visibility='default' is-declaration-only='yes' id='type-id-195'/>
      </namespace-decl>
      <class-decl name='ios_base' size-in-bits='1728' visibility='default' is-declaration-only='yes' id='type-id-278'>
        <member-type access='private'>
          <typedef-decl name='openmode' type-id='type-id-270' filepath='/usr/bin/../lib/gcc/x86_64-linux-gnu/5.4.0/../../../../include/c++/5.4.0/bits/ios_base.h' line='429' column='1' id='type-id-255'/>
        </member-type>
        <member-type access='private'>
          <typedef-decl name='seekdir' type-id='type-id-271' filepath='/usr/bin/../lib/gcc/x86_64-linux-gnu/5.4.0/../../../../include/c++/5.4.0/bits/ios_base.h' line='461' column='1' id='type-id-257'/>
        </member-type>
        <member-type access='private'>
          <class-decl name='failure' size-in-bits='256' visibility='default' is-declaration-only='yes' id='type-id-215'/>
        </member-type>
      </class-decl>
      <class-decl name='type_info' visibility='default' is-declaration-only='yes' id='type-id-279'/>
      <class-decl name='system_error' size-in-bits='256' visibility='default' is-declaration-only='yes' id='type-id-280'/>
    </namespace-decl>
    <namespace-decl name='boost'>
      <class-decl name='shared_ptr&lt;boost::iostreams::detail::mapped_file_impl&gt;' size-in-bits='128' visibility='default' filepath='src/third_party/boost-1.60.0/boost/smart_ptr/shared_ptr.hpp' line='336' column='1' id='type-id-116'>
        <member-type access='private'>
          <typedef-decl name='element_type' type-id='type-id-281' filepath='src/third_party/boost-1.60.0/boost/smart_ptr/shared_ptr.hpp' line='345' column='1' id='type-id-120'/>
        </member-type>
        <data-member access='private' layout-offset-in-bits='0'>
          <var-decl name='px' type-id='type-id-121' visibility='default' filepath='src/third_party/boost-1.60.0/boost/smart_ptr/shared_ptr.hpp' line='768' column='1'/>
        </data-member>
        <data-member access='private' layout-offset-in-bits='64'>
          <var-decl name='pn' type-id='type-id-58' visibility='default' filepath='src/third_party/boost-1.60.0/boost/smart_ptr/shared_ptr.hpp' line='769' column='1'/>
        </data-member>
        <member-function access='public'>
          <function-decl name='shared_ptr' filepath='src/third_party/boost-1.60.0/boost/smart_ptr/shared_ptr.hpp' line='347' column='1' visibility='default' binding='global' size-in-bits='64'>
            <parameter type-id='type-id-119' is-artificial='yes'/>
            <return type-id='type-id-19'/>
          </function-decl>
        </member-function>
        <member-function access='public'>
          <function-decl name='shared_ptr' mangled-name='_ZN5boost10shared_ptrINS_9iostreams6detail16mapped_file_implEEC2ERKS4_' filepath='src/third_party/boost-1.60.0/boost/smart_ptr/shared_ptr.hpp' line='405' column='1' visibility='default' binding='global' size-in-bits='64'>
            <parameter type-id='type-id-119' is-artificial='yes'/>
            <parameter type-id='type-id-185'/>
            <return type-id='type-id-19'/>
          </function-decl>
        </member-function>
        <member-function access='public'>
          <function-decl name='shared_ptr' filepath='src/third_party/boost-1.60.0/boost/smart_ptr/shared_ptr.hpp' line='608' column='1' visibility='default' binding='global' size-in-bits='64'>
            <parameter type-id='type-id-119' is-artificial='yes'/>
            <parameter type-id='type-id-118'/>
            <return type-id='type-id-19'/>
          </function-decl>
        </member-function>
        <member-function access='public' constructor='yes'>
          <function-decl name='shared_ptr&lt;boost::iostreams::detail::mapped_file_impl&gt;' mangled-name='_ZN5boost10shared_ptrINS_9iostreams6detail16mapped_file_implEEC2IS3_EEPT_' filepath='src/third_party/boost-1.60.0/boost/smart_ptr/shared_ptr.hpp' line='360' column='1' visibility='default' binding='global' size-in-bits='64'>
            <parameter type-id='type-id-119' is-artificial='yes'/>
            <parameter type-id='type-id-92'/>
            <return type-id='type-id-19'/>
          </function-decl>
        </member-function>
        <member-function access='public'>
          <function-decl name='reset&lt;boost::iostreams::detail::mapped_file_impl&gt;' mangled-name='_ZN5boost10shared_ptrINS_9iostreams6detail16mapped_file_implEE5resetIS3_EEvPT_' filepath='src/third_party/boost-1.60.0/boost/smart_ptr/shared_ptr.hpp' line='662' column='1' visibility='default' binding='global' size-in-bits='64' elf-symbol-id='_ZN5boost10shared_ptrINS_9iostreams6detail16mapped_file_implEE5resetIS3_EEvPT_'>
            <parameter type-id='type-id-119' is-artificial='yes'/>
            <parameter type-id='type-id-92'/>
            <return type-id='type-id-19'/>
          </function-decl>
        </member-function>
      </class-decl>
      <namespace-decl name='iostreams'>
        <class-decl name='mapped_file' size-in-bits='192' visibility='default' filepath='src/third_party/boost-1.60.0/boost/iostreams/device/mapped_file.hpp' line='223' column='1' id='type-id-282'>
          <base-class access='public' layout-offset-in-bits='0' type-id='type-id-283'/>
          <member-type access='private'>
            <typedef-decl name='size_type' type-id='type-id-179' filepath='src/third_party/boost-1.60.0/boost/iostreams/device/mapped_file.hpp' line='237' column='1' id='type-id-284'/>
          </member-type>
          <member-type access='private'>
            <typedef-decl name='delegate_type' type-id='type-id-108' filepath='src/third_party/boost-1.60.0/boost/iostreams/device/mapped_file.hpp' line='225' column='1' id='type-id-285'/>
          </member-type>
          <member-type access='private'>
            <typedef-decl name='iterator' type-id='type-id-122' filepath='src/third_party/boost-1.60.0/boost/iostreams/device/mapped_file.hpp' line='238' column='1' id='type-id-286'/>
          </member-type>
          <member-type access='private'>
            <typedef-decl name='const_iterator' type-id='type-id-44' filepath='src/third_party/boost-1.60.0/boost/iostreams/device/mapped_file.hpp' line='239' column='1' id='type-id-287'/>
          </member-type>
          <data-member access='public' static='yes'>
            <var-decl name='max_length' type-id='type-id-288' visibility='default' filepath='src/third_party/boost-1.60.0/boost/iostreams/device/mapped_file.hpp' line='240' column='1'/>
          </data-member>
          <data-member access='private' layout-offset-in-bits='64'>
            <var-decl name='delegate_' type-id='type-id-285' visibility='default' filepath='src/third_party/boost-1.60.0/boost/iostreams/device/mapped_file.hpp' line='321' column='1'/>
          </data-member>
          <member-function access='public' constructor='yes'>
            <function-decl name='mapped_file' filepath='src/third_party/boost-1.60.0/boost/iostreams/device/mapped_file.hpp' line='243' column='1' visibility='default' binding='global' size-in-bits='64'>
              <parameter type-id='type-id-289' is-artificial='yes'/>
              <return type-id='type-id-19'/>
            </function-decl>
          </member-function>
          <member-function access='public' constructor='yes'>
            <function-decl name='mapped_file' mangled-name='_ZN5boost9iostreams11mapped_fileC2ERKS1_' filepath='src/third_party/boost-1.60.0/boost/iostreams/device/mapped_file.hpp' line='266' column='1' visibility='default' binding='global' size-in-bits='64'>
              <parameter type-id='type-id-289' is-artificial='yes'/>
              <parameter type-id='type-id-290'/>
              <return type-id='type-id-19'/>
            </function-decl>
          </member-function>
          <member-function access='public' constructor='yes'>
            <function-decl name='mapped_file' mangled-name='_ZN5boost9iostreams11mapped_fileC2ERKS1_' filepath='src/third_party/boost-1.60.0/boost/iostreams/device/mapped_file.hpp' line='266' column='1' visibility='default' binding='global' size-in-bits='64' elf-symbol-id='_ZN5boost9iostreams11mapped_fileC2ERKS1_'>
              <parameter type-id='type-id-289' is-artificial='yes'/>
              <parameter type-id='type-id-290'/>
              <return type-id='type-id-19'/>
            </function-decl>
          </member-function>
          <member-function access='public'>
            <function-decl name='resize' mangled-name='_ZN5boost9iostreams11mapped_file6resizeEl' filepath='src/third_party/boost-1.60.0/libs/iostreams/src/mapped_file.cpp' line='485' column='1' visibility='default' binding='global' size-in-bits='64' elf-symbol-id='_ZN5boost9iostreams11mapped_file6resizeEl'>
              <parameter type-id='type-id-289' is-artificial='yes'/>
              <parameter type-id='type-id-251'/>
              <return type-id='type-id-19'/>
            </function-decl>
          </member-function>
        </class-decl>
        <class-decl name='mapped_file_sink' size-in-bits='192' visibility='default' filepath='src/third_party/boost-1.60.0/boost/iostreams/device/mapped_file.hpp' line='326' column='1' id='type-id-291'>
          <base-class access='private' layout-offset-in-bits='0' type-id='type-id-282'/>
          <member-function access='public' constructor='yes'>
            <function-decl name='mapped_file_sink' filepath='src/third_party/boost-1.60.0/boost/iostreams/device/mapped_file.hpp' line='355' column='1' visibility='default' binding='global' size-in-bits='64'>
              <parameter type-id='type-id-292' is-artificial='yes'/>
              <return type-id='type-id-19'/>
            </function-decl>
          </member-function>
          <member-function access='public' constructor='yes'>
            <function-decl name='mapped_file_sink' mangled-name='_ZN5boost9iostreams16mapped_file_sinkC2ERKS1_' filepath='src/third_party/boost-1.60.0/boost/iostreams/device/mapped_file.hpp' line='369' column='1' visibility='default' binding='global' size-in-bits='64' elf-symbol-id='_ZN5boost9iostreams16mapped_file_sinkC2ERKS1_'>
              <parameter type-id='type-id-292' is-artificial='yes'/>
              <parameter type-id='type-id-293'/>
              <return type-id='type-id-19'/>
            </function-decl>
          </member-function>
        </class-decl>
        <class-decl name='mapped_file_source' size-in-bits='128' visibility='default' filepath='src/third_party/boost-1.60.0/boost/iostreams/device/mapped_file.hpp' line='149' column='1' id='type-id-108'>
          <base-class access='public' layout-offset-in-bits='0' type-id='type-id-283'/>
          <member-type access='private'>
            <typedef-decl name='size_type' type-id='type-id-274' filepath='src/third_party/boost-1.60.0/boost/iostreams/device/mapped_file.hpp' line='165' column='1' id='type-id-179'/>
          </member-type>
          <member-type access='private'>
            <class-decl name='safe_bool_helper' size-in-bits='32' is-struct='yes' visibility='default' filepath='src/third_party/boost-1.60.0/boost/iostreams/device/mapped_file.hpp' line='151' column='1' id='type-id-294'>
              <data-member access='public' layout-offset-in-bits='0'>
                <var-decl name='x' type-id='type-id-11' visibility='default' filepath='src/third_party/boost-1.60.0/boost/iostreams/device/mapped_file.hpp' line='151' column='1'/>
              </data-member>
            </class-decl>
          </member-type>
          <member-type access='private'>
            <typedef-decl name='iterator' type-id='type-id-44' filepath='src/third_party/boost-1.60.0/boost/iostreams/device/mapped_file.hpp' line='166' column='1' id='type-id-295'/>
          </member-type>
          <member-type access='private'>
            <typedef-decl name='param_type' type-id='type-id-85' filepath='src/third_party/boost-1.60.0/boost/iostreams/device/mapped_file.hpp' line='154' column='1' id='type-id-176'/>
          </member-type>
          <data-member access='public' static='yes'>
            <var-decl name='max_length' type-id='type-id-180' visibility='default' filepath='src/third_party/boost-1.60.0/boost/iostreams/device/mapped_file.hpp' line='167' column='1'/>
          </data-member>
          <data-member access='private' layout-offset-in-bits='0'>
            <var-decl name='pimpl_' type-id='type-id-116' visibility='default' filepath='src/third_party/boost-1.60.0/boost/iostreams/device/mapped_file.hpp' line='218' column='1'/>
          </data-member>
          <member-function access='public' constructor='yes'>
            <function-decl name='mapped_file_source' mangled-name='_ZN5boost9iostreams18mapped_file_sourceC2Ev' filepath='src/third_party/boost-1.60.0/boost/iostreams/device/mapped_file.hpp' line='170' column='1' visibility='default' binding='global' size-in-bits='64' elf-symbol-id='_ZN5boost9iostreams18mapped_file_sourceC2Ev'>
              <parameter type-id='type-id-109' is-artificial='yes'/>
              <return type-id='type-id-19'/>
            </function-decl>
          </member-function>
          <member-function access='public' constructor='yes'>
            <function-decl name='mapped_file_source' mangled-name='_ZN5boost9iostreams18mapped_file_sourceC2ERKS1_' filepath='src/third_party/boost-1.60.0/boost/iostreams/device/mapped_file.hpp' line='183' column='1' visibility='default' binding='global' size-in-bits='64'>
              <parameter type-id='type-id-109' is-artificial='yes'/>
              <parameter type-id='type-id-174'/>
              <return type-id='type-id-19'/>
            </function-decl>
          </member-function>
          <member-function access='public' constructor='yes'>
            <function-decl name='mapped_file_source' mangled-name='_ZN5boost9iostreams18mapped_file_sourceC2ERKS1_' filepath='src/third_party/boost-1.60.0/boost/iostreams/device/mapped_file.hpp' line='183' column='1' visibility='default' binding='global' size-in-bits='64' elf-symbol-id='_ZN5boost9iostreams18mapped_file_sourceC2ERKS1_'>
              <parameter type-id='type-id-109' is-artificial='yes'/>
              <parameter type-id='type-id-174'/>
              <return type-id='type-id-19'/>
            </function-decl>
          </member-function>
          <member-function access='public'>
            <function-decl name='is_open' mangled-name='_ZNK5boost9iostreams18mapped_file_source7is_openEv' filepath='src/third_party/boost-1.60.0/libs/iostreams/src/mapped_file.cpp' line='448' column='1' visibility='default' binding='global' size-in-bits='64' elf-symbol-id='_ZNK5boost9iostreams18mapped_file_source7is_openEv'>
              <parameter type-id='type-id-175' is-artificial='yes'/>
              <return type-id='type-id-1'/>
            </function-decl>
          </member-function>
          <member-function access='public'>
            <function-decl name='close' mangled-name='_ZN5boost9iostreams18mapped_file_source5closeEv' filepath='src/third_party/boost-1.60.0/libs/iostreams/src/mapped_file.cpp' line='451' column='1' visibility='default' binding='global' size-in-bits='64' elf-symbol-id='_ZN5boost9iostreams18mapped_file_source5closeEv'>
              <parameter type-id='type-id-109' is-artificial='yes'/>
              <return type-id='type-id-19'/>
            </function-decl>
          </member-function>
          <member-function access='public'>
            <function-decl name='operator int boost::iostreams::mapped_file_source::safe_bool_helper::*' mangled-name='_ZNK5boost9iostreams18mapped_file_sourcecvMNS1_16safe_bool_helperEiEv' filepath='src/third_party/boost-1.60.0/libs/iostreams/src/mapped_file.cpp' line='454' column='1' visibility='default' binding='global' size-in-bits='64' elf-symbol-id='_ZNK5boost9iostreams18mapped_file_sourcecvMNS1_16safe_bool_helperEiEv'>
              <parameter type-id='type-id-175' is-artificial='yes'/>
              <return type-id='type-id-19'/>
            </function-decl>
          </member-function>
          <member-function access='public'>
            <function-decl name='operator!' mangled-name='_ZNK5boost9iostreams18mapped_file_sourcentEv' filepath='src/third_party/boost-1.60.0/libs/iostreams/src/mapped_file.cpp' line='457' column='1' visibility='default' binding='global' size-in-bits='64' elf-symbol-id='_ZNK5boost9iostreams18mapped_file_sourcentEv'>
              <parameter type-id='type-id-175' is-artificial='yes'/>
              <return type-id='type-id-1'/>
            </function-decl>
          </member-function>
          <member-function access='public'>
            <function-decl name='flags' mangled-name='_ZNK5boost9iostreams18mapped_file_source5flagsEv' filepath='src/third_party/boost-1.60.0/libs/iostreams/src/mapped_file.cpp' line='460' column='1' visibility='default' binding='global' size-in-bits='64' elf-symbol-id='_ZNK5boost9iostreams18mapped_file_source5flagsEv'>
              <parameter type-id='type-id-175' is-artificial='yes'/>
              <return type-id='type-id-296'/>
            </function-decl>
          </member-function>
          <member-function access='public'>
            <function-decl name='size' mangled-name='_ZNK5boost9iostreams18mapped_file_source4sizeEv' filepath='src/third_party/boost-1.60.0/libs/iostreams/src/mapped_file.cpp' line='463' column='1' visibility='default' binding='global' size-in-bits='64' elf-symbol-id='_ZNK5boost9iostreams18mapped_file_source4sizeEv'>
              <parameter type-id='type-id-175' is-artificial='yes'/>
              <return type-id='type-id-179'/>
            </function-decl>
          </member-function>
          <member-function access='public'>
            <function-decl name='data' mangled-name='_ZNK5boost9iostreams18mapped_file_source4dataEv' filepath='src/third_party/boost-1.60.0/libs/iostreams/src/mapped_file.cpp' line='466' column='1' visibility='default' binding='global' size-in-bits='64' elf-symbol-id='_ZNK5boost9iostreams18mapped_file_source4dataEv'>
              <parameter type-id='type-id-175' is-artificial='yes'/>
              <return type-id='type-id-44'/>
            </function-decl>
          </member-function>
          <member-function access='public'>
            <function-decl name='begin' mangled-name='_ZNK5boost9iostreams18mapped_file_source5beginEv' filepath='src/third_party/boost-1.60.0/libs/iostreams/src/mapped_file.cpp' line='468' column='1' visibility='default' binding='global' size-in-bits='64' elf-symbol-id='_ZNK5boost9iostreams18mapped_file_source5beginEv'>
              <parameter type-id='type-id-175' is-artificial='yes'/>
              <return type-id='type-id-295'/>
            </function-decl>
          </member-function>
          <member-function access='public'>
            <function-decl name='end' mangled-name='_ZNK5boost9iostreams18mapped_file_source3endEv' filepath='src/third_party/boost-1.60.0/libs/iostreams/src/mapped_file.cpp' line='470' column='1' visibility='default' binding='global' size-in-bits='64' elf-symbol-id='_ZNK5boost9iostreams18mapped_file_source3endEv'>
              <parameter type-id='type-id-175' is-artificial='yes'/>
              <return type-id='type-id-295'/>
            </function-decl>
          </member-function>
          <member-function access='public' static='yes'>
            <function-decl name='alignment' mangled-name='_ZN5boost9iostreams18mapped_file_source9alignmentEv' filepath='src/third_party/boost-1.60.0/libs/iostreams/src/mapped_file.cpp' line='471' column='1' visibility='default' binding='global' size-in-bits='64' elf-symbol-id='_ZN5boost9iostreams18mapped_file_source9alignmentEv'>
              <return type-id='type-id-11'/>
            </function-decl>
          </member-function>
          <member-function access='private'>
            <function-decl name='init' mangled-name='_ZN5boost9iostreams18mapped_file_source4initEv' filepath='src/third_party/boost-1.60.0/libs/iostreams/src/mapped_file.cpp' line='474' column='1' visibility='default' binding='global' size-in-bits='64' elf-symbol-id='_ZN5boost9iostreams18mapped_file_source4initEv'>
              <parameter type-id='type-id-109' is-artificial='yes'/>
              <return type-id='type-id-19'/>
            </function-decl>
          </member-function>
          <member-function access='private'>
            <function-decl name='open_impl' mangled-name='_ZN5boost9iostreams18mapped_file_source9open_implERKNS0_24basic_mapped_file_paramsINS0_6detail4pathEEE' filepath='src/third_party/boost-1.60.0/libs/iostreams/src/mapped_file.cpp' line='476' column='1' visibility='default' binding='global' size-in-bits='64' elf-symbol-id='_ZN5boost9iostreams18mapped_file_source9open_implERKNS0_24basic_mapped_file_paramsINS0_6detail4pathEEE'>
              <parameter type-id='type-id-109' is-artificial='yes'/>
              <parameter type-id='type-id-178'/>
              <return type-id='type-id-19'/>
            </function-decl>
          </member-function>
        </class-decl>
        <class-decl name='mapped_file_base' size-in-bits='8' visibility='default' filepath='src/third_party/boost-1.60.0/boost/iostreams/device/mapped_file.hpp' line='47' column='1' id='type-id-283'>
          <member-type access='private'>
            <enum-decl name='mapmode' filepath='src/third_party/boost-1.60.0/boost/iostreams/device/mapped_file.hpp' line='49' column='1' id='type-id-296'>
              <underlying-type type-id='type-id-16'/>
              <enumerator name='readonly' value='1'/>
              <enumerator name='readwrite' value='2'/>
              <enumerator name='priv' value='4'/>
            </enum-decl>
          </member-type>
        </class-decl>
        <class-decl name='basic_mapped_file_params&lt;boost::iostreams::detail::path&gt;' size-in-bits='896' is-struct='yes' visibility='default' filepath='src/third_party/boost-1.60.0/boost/iostreams/device/mapped_file.hpp' line='109' column='1' id='type-id-85'>
          <base-class access='public' layout-offset-in-bits='0' type-id='type-id-95'/>
          <data-member access='public' layout-offset-in-bits='320'>
            <var-decl name='path' type-id='type-id-97' visibility='default' filepath='src/third_party/boost-1.60.0/boost/iostreams/device/mapped_file.hpp' line='142' column='1'/>
          </data-member>
          <member-function access='public'>
            <function-decl name='basic_mapped_file_params' mangled-name='_ZN5boost9iostreams24basic_mapped_file_paramsINS0_6detail4pathEEC2Ev' filepath='src/third_party/boost-1.60.0/boost/iostreams/device/mapped_file.hpp' line='121' column='1' visibility='default' binding='global' size-in-bits='64'>
              <parameter type-id='type-id-86' is-artificial='yes'/>
              <return type-id='type-id-19'/>
            </function-decl>
          </member-function>
          <member-function access='public'>
            <function-decl name='basic_mapped_file_params' filepath='src/third_party/boost-1.60.0/boost/iostreams/device/mapped_file.hpp' line='124' column='1' visibility='default' binding='global' size-in-bits='64'>
              <parameter type-id='type-id-86' is-artificial='yes'/>
              <parameter type-id='type-id-162'/>
              <return type-id='type-id-19'/>
            </function-decl>
          </member-function>
          <member-function access='public'>
            <function-decl name='basic_mapped_file_params' mangled-name='_ZN5boost9iostreams24basic_mapped_file_paramsINS0_6detail4pathEEC2ERKS4_' filepath='src/third_party/boost-1.60.0/boost/iostreams/device/mapped_file.hpp' line='131' column='1' visibility='default' binding='global' size-in-bits='64'>
              <parameter type-id='type-id-86' is-artificial='yes'/>
              <parameter type-id='type-id-154'/>
              <return type-id='type-id-19'/>
            </function-decl>
          </member-function>
        </class-decl>
        <namespace-decl name='detail'>
          <class-decl name='mapped_file_impl' size-in-bits='1088' visibility='default' filepath='src/third_party/boost-1.60.0/libs/iostreams/src/mapped_file.cpp' line='45' column='1' id='type-id-90'>
            <member-type access='private'>
              <typedef-decl name='size_type' type-id='type-id-179' filepath='src/third_party/boost-1.60.0/libs/iostreams/src/mapped_file.cpp' line='47' column='1' id='type-id-159'/>
            </member-type>
            <member-type access='private'>
              <typedef-decl name='param_type' type-id='type-id-176' filepath='src/third_party/boost-1.60.0/libs/iostreams/src/mapped_file.cpp' line='48' column='1' id='type-id-93'/>
            </member-type>
            <member-type access='private'>
              <typedef-decl name='mapmode' type-id='type-id-296' filepath='src/third_party/boost-1.60.0/libs/iostreams/src/mapped_file.cpp' line='49' column='1' id='type-id-297'/>
            </member-type>
            <data-member access='public' static='yes'>
              <var-decl name='max_length' type-id='type-id-160' visibility='default' filepath='src/third_party/boost-1.60.0/libs/iostreams/src/mapped_file.cpp' line='50' column='1'/>
            </data-member>
            <data-member access='private' layout-offset-in-bits='0'>
              <var-decl name='params_' type-id='type-id-93' visibility='default' filepath='src/third_party/boost-1.60.0/libs/iostreams/src/mapped_file.cpp' line='70' column='1'/>
            </data-member>
            <data-member access='private' layout-offset-in-bits='896'>
              <var-decl name='data_' type-id='type-id-122' visibility='default' filepath='src/third_party/boost-1.60.0/libs/iostreams/src/mapped_file.cpp' line='71' column='1'/>
            </data-member>
            <data-member access='private' layout-offset-in-bits='960'>
              <var-decl name='size_' type-id='type-id-251' visibility='default' filepath='src/third_party/boost-1.60.0/libs/iostreams/src/mapped_file.cpp' line='72' column='1'/>
            </data-member>
            <data-member access='private' layout-offset-in-bits='1024'>
              <var-decl name='handle_' type-id='type-id-253' visibility='default' filepath='src/third_party/boost-1.60.0/libs/iostreams/src/mapped_file.cpp' line='73' column='1'/>
            </data-member>
            <data-member access='private' layout-offset-in-bits='1056'>
              <var-decl name='error_' type-id='type-id-1' visibility='default' filepath='src/third_party/boost-1.60.0/libs/iostreams/src/mapped_file.cpp' line='77' column='1'/>
            </data-member>
            <member-function access='public' constructor='yes'>
              <function-decl name='mapped_file_impl' mangled-name='_ZN5boost9iostreams6detail16mapped_file_implC2Ev' filepath='src/third_party/boost-1.60.0/libs/iostreams/src/mapped_file.cpp' line='52' column='1' visibility='default' binding='global' size-in-bits='64' elf-symbol-id='_ZN5boost9iostreams6detail16mapped_file_implC2Ev'>
                <parameter type-id='type-id-92' is-artificial='yes'/>
                <return type-id='type-id-19'/>
              </function-decl>
            </member-function>
            <member-function access='public' destructor='yes'>
              <function-decl name='~mapped_file_impl' mangled-name='_ZN5boost9iostreams6detail16mapped_file_implD2Ev' filepath='src/third_party/boost-1.60.0/libs/iostreams/src/mapped_file.cpp' line='53' column='1' visibility='default' binding='global' size-in-bits='64' elf-symbol-id='_ZN5boost9iostreams6detail16mapped_file_implD2Ev'>
                <parameter type-id='type-id-92' is-artificial='yes'/>
                <return type-id='type-id-19'/>
              </function-decl>
            </member-function>
            <member-function access='private'>
              <function-decl name='clear' mangled-name='_ZN5boost9iostreams6detail16mapped_file_impl5clearEb' filepath='src/third_party/boost-1.60.0/libs/iostreams/src/mapped_file.cpp' line='370' column='1' visibility='default' binding='global' size-in-bits='64' elf-symbol-id='_ZN5boost9iostreams6detail16mapped_file_impl5clearEb'>
                <parameter type-id='type-id-92' is-artificial='yes'/>
                <parameter type-id='type-id-1'/>
                <return type-id='type-id-19'/>
              </function-decl>
            </member-function>
            <member-function access='public'>
              <function-decl name='close' mangled-name='_ZN5boost9iostreams6detail16mapped_file_impl5closeEv' filepath='src/third_party/boost-1.60.0/libs/iostreams/src/mapped_file.cpp' line='95' column='1' visibility='default' binding='global' size-in-bits='64' elf-symbol-id='_ZN5boost9iostreams6detail16mapped_file_impl5closeEv'>
                <parameter type-id='type-id-92' is-artificial='yes'/>
                <return type-id='type-id-19'/>
              </function-decl>
            </member-function>
            <member-function access='private'>
              <function-decl name='unmap_file' mangled-name='_ZN5boost9iostreams6detail16mapped_file_impl10unmap_fileEv' filepath='src/third_party/boost-1.60.0/libs/iostreams/src/mapped_file.cpp' line='357' column='1' visibility='default' binding='global' size-in-bits='64' elf-symbol-id='_ZN5boost9iostreams6detail16mapped_file_impl10unmap_fileEv'>
                <parameter type-id='type-id-92' is-artificial='yes'/>
                <return type-id='type-id-1'/>
              </function-decl>
            </member-function>
            <member-function access='public'>
              <function-decl name='open' mangled-name='_ZN5boost9iostreams6detail16mapped_file_impl4openENS0_24basic_mapped_file_paramsINS1_4pathEEE' filepath='src/third_party/boost-1.60.0/libs/iostreams/src/mapped_file.cpp' line='85' column='1' visibility='default' binding='global' size-in-bits='64' elf-symbol-id='_ZN5boost9iostreams6detail16mapped_file_impl4openENS0_24basic_mapped_file_paramsINS1_4pathEEE'>
                <parameter type-id='type-id-92' is-artificial='yes'/>
                <parameter type-id='type-id-93'/>
                <return type-id='type-id-19'/>
              </function-decl>
            </member-function>
            <member-function access='private'>
              <function-decl name='open_file' mangled-name='_ZN5boost9iostreams6detail16mapped_file_impl9open_fileENS0_24basic_mapped_file_paramsINS1_4pathEEE' filepath='src/third_party/boost-1.60.0/libs/iostreams/src/mapped_file.cpp' line='165' column='1' visibility='default' binding='global' size-in-bits='64' elf-symbol-id='_ZN5boost9iostreams6detail16mapped_file_impl9open_fileENS0_24basic_mapped_file_paramsINS1_4pathEEE'>
                <parameter type-id='type-id-92' is-artificial='yes'/>
                <parameter type-id='type-id-93'/>
                <return type-id='type-id-19'/>
              </function-decl>
            </member-function>
            <member-function access='private'>
              <function-decl name='map_file' mangled-name='_ZN5boost9iostreams6detail16mapped_file_impl8map_fileERNS0_24basic_mapped_file_paramsINS1_4pathEEE' filepath='src/third_party/boost-1.60.0/libs/iostreams/src/mapped_file.cpp' line='343' column='1' visibility='default' binding='global' size-in-bits='64' elf-symbol-id='_ZN5boost9iostreams6detail16mapped_file_impl8map_fileERNS0_24basic_mapped_file_paramsINS1_4pathEEE'>
                <parameter type-id='type-id-92' is-artificial='yes'/>
                <parameter type-id='type-id-94'/>
                <return type-id='type-id-19'/>
              </function-decl>
            </member-function>
            <member-function access='private'>
              <function-decl name='try_map_file' mangled-name='_ZN5boost9iostreams6detail16mapped_file_impl12try_map_fileENS0_24basic_mapped_file_paramsINS1_4pathEEE' filepath='src/third_party/boost-1.60.0/libs/iostreams/src/mapped_file.cpp' line='289' column='1' visibility='default' binding='global' size-in-bits='64' elf-symbol-id='_ZN5boost9iostreams6detail16mapped_file_impl12try_map_fileENS0_24basic_mapped_file_paramsINS1_4pathEEE'>
                <parameter type-id='type-id-92' is-artificial='yes'/>
                <parameter type-id='type-id-93'/>
                <return type-id='type-id-19'/>
              </function-decl>
            </member-function>
            <member-function access='private'>
              <function-decl name='cleanup_and_throw' mangled-name='_ZN5boost9iostreams6detail16mapped_file_impl17cleanup_and_throwEPKc' filepath='src/third_party/boost-1.60.0/libs/iostreams/src/mapped_file.cpp' line='386' column='1' visibility='default' binding='global' size-in-bits='64' elf-symbol-id='_ZN5boost9iostreams6detail16mapped_file_impl17cleanup_and_throwEPKc'>
                <parameter type-id='type-id-92' is-artificial='yes'/>
                <parameter type-id='type-id-44'/>
                <return type-id='type-id-19'/>
              </function-decl>
            </member-function>
            <member-function access='public'>
              <function-decl name='resize' mangled-name='_ZN5boost9iostreams6detail16mapped_file_impl6resizeEl' filepath='src/third_party/boost-1.60.0/libs/iostreams/src/mapped_file.cpp' line='113' column='1' visibility='default' binding='global' size-in-bits='64' elf-symbol-id='_ZN5boost9iostreams6detail16mapped_file_impl6resizeEl'>
                <parameter type-id='type-id-92' is-artificial='yes'/>
                <parameter type-id='type-id-251'/>
                <return type-id='type-id-19'/>
              </function-decl>
            </member-function>
            <member-function access='public' static='yes'>
              <function-decl name='alignment' mangled-name='_ZN5boost9iostreams6detail16mapped_file_impl9alignmentEv' filepath='src/third_party/boost-1.60.0/libs/iostreams/src/mapped_file.cpp' line='154' column='1' visibility='default' binding='global' size-in-bits='64' elf-symbol-id='_ZN5boost9iostreams6detail16mapped_file_impl9alignmentEv'>
                <return type-id='type-id-11'/>
              </function-decl>
            </member-function>
          </class-decl>
          <class-decl name='mapped_file_params_base' size-in-bits='320' is-struct='yes' visibility='default' filepath='src/third_party/boost-1.60.0/boost/iostreams/device/mapped_file.hpp' line='82' column='1' id='type-id-95'>
            <data-member access='public' layout-offset-in-bits='0'>
              <var-decl name='flags' type-id='type-id-296' visibility='default' filepath='src/third_party/boost-1.60.0/boost/iostreams/device/mapped_file.hpp' line='92' column='1'/>
            </data-member>
            <data-member access='public' layout-offset-in-bits='32'>
              <var-decl name='mode' type-id='type-id-255' visibility='default' filepath='src/third_party/boost-1.60.0/boost/iostreams/device/mapped_file.hpp' line='93' column='1'/>
            </data-member>
            <data-member access='public' layout-offset-in-bits='64'>
              <var-decl name='offset' type-id='type-id-251' visibility='default' filepath='src/third_party/boost-1.60.0/boost/iostreams/device/mapped_file.hpp' line='94' column='1'/>
            </data-member>
            <data-member access='public' layout-offset-in-bits='128'>
              <var-decl name='length' type-id='type-id-274' visibility='default' filepath='src/third_party/boost-1.60.0/boost/iostreams/device/mapped_file.hpp' line='95' column='1'/>
            </data-member>
            <data-member access='public' layout-offset-in-bits='192'>
              <var-decl name='new_file_size' type-id='type-id-251' visibility='default' filepath='src/third_party/boost-1.60.0/boost/iostreams/device/mapped_file.hpp' line='96' column='1'/>
            </data-member>
            <data-member access='public' layout-offset-in-bits='256'>
              <var-decl name='hint' type-id='type-id-44' visibility='default' filepath='src/third_party/boost-1.60.0/boost/iostreams/device/mapped_file.hpp' line='97' column='1'/>
            </data-member>
            <member-function access='public' constructor='yes'>
              <function-decl name='mapped_file_params_base' mangled-name='_ZN5boost9iostreams6detail23mapped_file_params_baseC2Ev' filepath='src/third_party/boost-1.60.0/boost/iostreams/device/mapped_file.hpp' line='83' column='1' visibility='default' binding='global' size-in-bits='64'>
                <parameter type-id='type-id-96' is-artificial='yes'/>
                <return type-id='type-id-19'/>
              </function-decl>
            </member-function>
            <member-function access='private'>
              <function-decl name='normalize' mangled-name='_ZN5boost9iostreams6detail23mapped_file_params_base9normalizeEv' filepath='src/third_party/boost-1.60.0/libs/iostreams/src/mapped_file.cpp' line='407' column='1' visibility='default' binding='global' size-in-bits='64' elf-symbol-id='_ZN5boost9iostreams6detail23mapped_file_params_base9normalizeEv'>
                <parameter type-id='type-id-96' is-artificial='yes'/>
                <return type-id='type-id-19'/>
              </function-decl>
            </member-function>
          </class-decl>
        </namespace-decl>
      </namespace-decl>
      <namespace-decl name='detail'>
        <class-decl name='sp_counted_impl_p&lt;boost::iostreams::detail::mapped_file_impl&gt;' size-in-bits='192' visibility='default' filepath='src/third_party/boost-1.60.0/boost/smart_ptr/detail/sp_counted_impl.hpp' line='53' column='1' id='type-id-298'>
          <base-class access='public' layout-offset-in-bits='0' type-id='type-id-62'/>
          <data-member access='private' layout-offset-in-bits='128'>
            <var-decl name='px_' type-id='type-id-92' visibility='default' filepath='src/third_party/boost-1.60.0/boost/smart_ptr/detail/sp_counted_impl.hpp' line='57' column='1'/>
          </data-member>
          <member-function access='private'>
            <function-decl name='sp_counted_impl_p' filepath='src/third_party/boost-1.60.0/boost/smart_ptr/detail/sp_counted_impl.hpp' line='59' column='1' visibility='default' binding='global' size-in-bits='64'>
              <parameter type-id='type-id-299' is-artificial='yes'/>
              <parameter type-id='type-id-300'/>
              <return type-id='type-id-19'/>
            </function-decl>
          </member-function>
          <member-function access='public'>
            <function-decl name='sp_counted_impl_p' mangled-name='_ZN5boost6detail17sp_counted_impl_pINS_9iostreams6detail16mapped_file_implEEC2EPS4_' filepath='src/third_party/boost-1.60.0/boost/smart_ptr/detail/sp_counted_impl.hpp' line='66' column='1' visibility='default' binding='global' size-in-bits='64'>
              <parameter type-id='type-id-299' is-artificial='yes'/>
              <parameter type-id='type-id-92'/>
              <return type-id='type-id-19'/>
            </function-decl>
          </member-function>
          <member-function access='public' vtable-offset='2'>
            <function-decl name='dispose' mangled-name='_ZN5boost6detail17sp_counted_impl_pINS_9iostreams6detail16mapped_file_implEE7disposeEv' filepath='src/third_party/boost-1.60.0/boost/smart_ptr/detail/sp_counted_impl.hpp' line='73' column='1' visibility='default' binding='global' size-in-bits='64'>
              <parameter type-id='type-id-299' is-artificial='yes'/>
              <return type-id='type-id-19'/>
            </function-decl>
          </member-function>
          <member-function access='public' vtable-offset='4'>
            <function-decl name='get_deleter' mangled-name='_ZN5boost6detail17sp_counted_impl_pINS_9iostreams6detail16mapped_file_implEE11get_deleterERKSt9type_info' filepath='src/third_party/boost-1.60.0/boost/smart_ptr/detail/sp_counted_impl.hpp' line='81' column='1' visibility='default' binding='global' size-in-bits='64'>
              <parameter type-id='type-id-299' is-artificial='yes'/>
              <parameter type-id='type-id-137'/>
              <return type-id='type-id-8'/>
            </function-decl>
          </member-function>
          <member-function access='public' vtable-offset='5'>
            <function-decl name='get_untyped_deleter' mangled-name='_ZN5boost6detail17sp_counted_impl_pINS_9iostreams6detail16mapped_file_implEE19get_untyped_deleterEv' filepath='src/third_party/boost-1.60.0/boost/smart_ptr/detail/sp_counted_impl.hpp' line='86' column='1' visibility='default' binding='global' size-in-bits='64'>
              <parameter type-id='type-id-299' is-artificial='yes'/>
              <return type-id='type-id-8'/>
            </function-decl>
          </member-function>
        </class-decl>
        <class-decl name='sp_element&lt;boost::iostreams::detail::mapped_file_impl&gt;' size-in-bits='8' is-struct='yes' visibility='default' filepath='src/third_party/boost-1.60.0/boost/smart_ptr/shared_ptr.hpp' line='76' column='1' id='type-id-301'>
          <member-type access='public'>
            <typedef-decl name='type' type-id='type-id-90' filepath='src/third_party/boost-1.60.0/boost/smart_ptr/shared_ptr.hpp' line='78' column='1' id='type-id-281'/>
          </member-type>
        </class-decl>
        <class-decl name='shared_count' size-in-bits='64' visibility='default' filepath='src/third_party/boost-1.60.0/boost/smart_ptr/detail/shared_count.hpp' line='107' column='1' id='type-id-58'>
          <data-member access='private' layout-offset-in-bits='0'>
            <var-decl name='pi_' type-id='type-id-64' visibility='default' filepath='src/third_party/boost-1.60.0/boost/smart_ptr/detail/shared_count.hpp' line='111' column='1'/>
          </data-member>
          <member-function access='public' constructor='yes'>
            <function-decl name='shared_count' mangled-name='_ZN5boost6detail12shared_countC2Ev' filepath='src/third_party/boost-1.60.0/boost/smart_ptr/detail/shared_count.hpp' line='121' column='1' visibility='default' binding='global' size-in-bits='64'>
              <parameter type-id='type-id-61' is-artificial='yes'/>
              <return type-id='type-id-19'/>
            </function-decl>
          </member-function>
          <member-function access='public' destructor='yes'>
            <function-decl name='~shared_count' mangled-name='_ZN5boost6detail12shared_countD2Ev' filepath='src/third_party/boost-1.60.0/boost/smart_ptr/detail/shared_count.hpp' line='471' column='1' visibility='default' binding='global' size-in-bits='64'>
              <parameter type-id='type-id-61' is-artificial='yes'/>
              <return type-id='type-id-19'/>
            </function-decl>
          </member-function>
          <member-function access='public' constructor='yes'>
            <function-decl name='shared_count' mangled-name='_ZN5boost6detail12shared_countC2ERKS1_' filepath='src/third_party/boost-1.60.0/boost/smart_ptr/detail/shared_count.hpp' line='479' column='1' visibility='default' binding='global' size-in-bits='64'>
              <parameter type-id='type-id-61' is-artificial='yes'/>
              <parameter type-id='type-id-128'/>
              <return type-id='type-id-19'/>
            </function-decl>
          </member-function>
          <member-function access='public' constructor='yes'>
            <function-decl name='shared_count' filepath='src/third_party/boost-1.60.0/boost/smart_ptr/detail/shared_count.hpp' line='489' column='1' visibility='default' binding='global' size-in-bits='64'>
              <parameter type-id='type-id-61' is-artificial='yes'/>
              <parameter type-id='type-id-60'/>
              <return type-id='type-id-19'/>
            </function-decl>
          </member-function>
          <member-function access='public' constructor='yes'>
            <function-decl name='shared_count' filepath='src/third_party/boost-1.60.0/boost/smart_ptr/detail/shared_count.hpp' line='499' column='1' visibility='default' binding='global' size-in-bits='64'>
              <parameter type-id='type-id-61' is-artificial='yes'/>
              <parameter type-id='type-id-139'/>
              <return type-id='type-id-19'/>
            </function-decl>
          </member-function>
          <member-function access='public' constructor='yes'>
            <function-decl name='shared_count' filepath='src/third_party/boost-1.60.0/boost/smart_ptr/detail/shared_count.hpp' line='500' column='1' visibility='default' binding='global' size-in-bits='64'>
              <parameter type-id='type-id-61' is-artificial='yes'/>
              <parameter type-id='type-id-139'/>
              <parameter type-id='type-id-302'/>
              <return type-id='type-id-19'/>
            </function-decl>
          </member-function>
          <member-function access='public'>
            <function-decl name='shared_count&lt;boost::iostreams::detail::file_descriptor_impl&gt;' mangled-name='_ZN5boost6detail12shared_countC2INS_9iostreams6detail20file_descriptor_implEEEPT_' filepath='/usr/bin/../lib/gcc/x86_64-linux-gnu/5.4.0/../../../../include/c++/5.4.0/bits/move.h' line='128' column='1' visibility='default' binding='global' size-in-bits='64'>
              <parameter type-id='type-id-61' is-artificial='yes'/>
              <parameter type-id='type-id-89'/>
              <return type-id='type-id-19'/>
            </function-decl>
          </member-function>
          <member-function access='public'>
            <function-decl name='shared_count&lt;boost::iostreams::detail::mapped_file_impl&gt;' mangled-name='_ZN5boost6detail12shared_countC2INS_9iostreams6detail16mapped_file_implEEEPT_' filepath='src/third_party/boost-1.60.0/boost/smart_ptr/detail/shared_count.hpp' line='128' column='1' visibility='default' binding='global' size-in-bits='64'>
              <parameter type-id='type-id-61' is-artificial='yes'/>
              <parameter type-id='type-id-92'/>
              <return type-id='type-id-19'/>
            </function-decl>
          </member-function>
        </class-decl>
        <class-decl name='sp_counted_base' size-in-bits='128' visibility='default' filepath='src/third_party/boost-1.60.0/boost/smart_ptr/detail/sp_counted_base_clang.hpp' line='61' column='1' id='type-id-62'>
          <data-member access='private' layout-offset-in-bits='64'>
            <var-decl name='use_count_' type-id='type-id-303' visibility='default' filepath='src/third_party/boost-1.60.0/boost/smart_ptr/detail/sp_counted_base_clang.hpp' line='68' column='1'/>
          </data-member>
          <data-member access='private' layout-offset-in-bits='96'>
            <var-decl name='weak_count_' type-id='type-id-303' visibility='default' filepath='src/third_party/boost-1.60.0/boost/smart_ptr/detail/sp_counted_base_clang.hpp' line='69' column='1'/>
          </data-member>
          <member-function access='private' constructor='yes'>
            <function-decl name='sp_counted_base' filepath='src/third_party/boost-1.60.0/boost/smart_ptr/detail/sp_counted_base_clang.hpp' line='65' column='1' visibility='default' binding='global' size-in-bits='64'>
              <parameter type-id='type-id-64' is-artificial='yes'/>
              <parameter type-id='type-id-131'/>
              <return type-id='type-id-19'/>
            </function-decl>
          </member-function>
          <member-function access='public' constructor='yes'>
            <function-decl name='sp_counted_base' mangled-name='_ZN5boost6detail15sp_counted_baseC2Ev' filepath='src/third_party/boost-1.60.0/boost/smart_ptr/detail/sp_counted_base_clang.hpp' line='73' column='1' visibility='default' binding='global' size-in-bits='64'>
              <parameter type-id='type-id-64' is-artificial='yes'/>
              <return type-id='type-id-19'/>
            </function-decl>
          </member-function>
          <member-function access='public' destructor='yes' vtable-offset='0'>
            <function-decl name='~sp_counted_base' filepath='src/third_party/boost-1.60.0/boost/smart_ptr/detail/sp_counted_base_clang.hpp' line='79' column='1' visibility='default' binding='global' size-in-bits='64'>
              <parameter type-id='type-id-64' is-artificial='yes'/>
              <return type-id='type-id-19'/>
            </function-decl>
          </member-function>
          <member-function access='public' vtable-offset='2'>
            <function-decl name='dispose' mangled-name='_ZN5boost6detail15sp_counted_base7disposeEv' filepath='src/third_party/boost-1.60.0/boost/smart_ptr/detail/sp_counted_base_clang.hpp' line='86' column='1' visibility='default' binding='global' size-in-bits='64'>
              <parameter type-id='type-id-64' is-artificial='yes'/>
              <return type-id='type-id-19'/>
            </function-decl>
          </member-function>
          <member-function access='public' vtable-offset='3'>
            <function-decl name='destroy' mangled-name='_ZN5boost6detail15sp_counted_base7destroyEv' filepath='src/third_party/boost-1.60.0/boost/smart_ptr/detail/sp_counted_base_clang.hpp' line='90' column='1' visibility='default' binding='global' size-in-bits='64'>
              <parameter type-id='type-id-64' is-artificial='yes'/>
              <return type-id='type-id-19'/>
            </function-decl>
          </member-function>
          <member-function access='public' vtable-offset='4'>
            <function-decl name='get_deleter' mangled-name='_ZN5boost6detail15sp_counted_base11get_deleterERKSt9type_info' filepath='src/third_party/boost-1.60.0/boost/smart_ptr/detail/sp_counted_base_clang.hpp' line='95' column='1' visibility='default' binding='global' size-in-bits='64'>
              <parameter type-id='type-id-64' is-artificial='yes'/>
              <parameter type-id='type-id-137'/>
              <return type-id='type-id-8'/>
            </function-decl>
          </member-function>
          <member-function access='public' vtable-offset='5'>
            <function-decl name='get_untyped_deleter' mangled-name='_ZN5boost6detail15sp_counted_base19get_untyped_deleterEv' filepath='src/third_party/boost-1.60.0/boost/smart_ptr/detail/sp_counted_base_clang.hpp' line='96' column='1' visibility='default' binding='global' size-in-bits='64'>
              <parameter type-id='type-id-64' is-artificial='yes'/>
              <return type-id='type-id-8'/>
            </function-decl>
          </member-function>
        </class-decl>
        <typedef-decl name='atomic_int_least32_t' type-id='type-id-27' filepath='src/third_party/boost-1.60.0/boost/smart_ptr/detail/sp_counted_base_clang.hpp' line='27' column='1' id='type-id-303'/>
        <typedef-decl name='sp_typeinfo' type-id='type-id-304' filepath='src/third_party/boost-1.60.0/boost/detail/sp_typeinfo.hpp' line='28' column='1' id='type-id-135'/>
        <class-decl name='weak_count' size-in-bits='64' visibility='default' filepath='src/third_party/boost-1.60.0/boost/smart_ptr/detail/shared_count.hpp' line='560' column='1' id='type-id-68'>
          <data-member access='private' layout-offset-in-bits='0'>
            <var-decl name='pi_' type-id='type-id-64' visibility='default' filepath='src/third_party/boost-1.60.0/boost/smart_ptr/detail/shared_count.hpp' line='564' column='1'/>
          </data-member>
          <member-function access='public' constructor='yes'>
            <function-decl name='weak_count' filepath='src/third_party/boost-1.60.0/boost/smart_ptr/detail/shared_count.hpp' line='574' column='1' visibility='default' binding='global' size-in-bits='64'>
              <parameter type-id='type-id-71' is-artificial='yes'/>
              <return type-id='type-id-19'/>
            </function-decl>
          </member-function>
          <member-function access='public' constructor='yes'>
            <function-decl name='weak_count' filepath='src/third_party/boost-1.60.0/boost/smart_ptr/detail/shared_count.hpp' line='581' column='1' visibility='default' binding='global' size-in-bits='64'>
              <parameter type-id='type-id-71' is-artificial='yes'/>
              <parameter type-id='type-id-128'/>
              <return type-id='type-id-19'/>
            </function-decl>
          </member-function>
          <member-function access='public' constructor='yes'>
            <function-decl name='weak_count' filepath='src/third_party/boost-1.60.0/boost/smart_ptr/detail/shared_count.hpp' line='589' column='1' visibility='default' binding='global' size-in-bits='64'>
              <parameter type-id='type-id-71' is-artificial='yes'/>
              <parameter type-id='type-id-139'/>
              <return type-id='type-id-19'/>
            </function-decl>
          </member-function>
          <member-function access='public' constructor='yes'>
            <function-decl name='weak_count' filepath='src/third_party/boost-1.60.0/boost/smart_ptr/detail/shared_count.hpp' line='601' column='1' visibility='default' binding='global' size-in-bits='64'>
              <parameter type-id='type-id-71' is-artificial='yes'/>
              <parameter type-id='type-id-70'/>
              <return type-id='type-id-19'/>
            </function-decl>
          </member-function>
          <member-function access='public' destructor='yes'>
            <function-decl name='~weak_count' filepath='src/third_party/boost-1.60.0/boost/smart_ptr/detail/shared_count.hpp' line='611' column='1' visibility='default' binding='global' size-in-bits='64'>
              <parameter type-id='type-id-71' is-artificial='yes'/>
              <return type-id='type-id-19'/>
            </function-decl>
          </member-function>
        </class-decl>
        <class-decl name='sp_nothrow_tag' size-in-bits='8' is-struct='yes' visibility='default' filepath='src/third_party/boost-1.60.0/boost/smart_ptr/detail/shared_count.hpp' line='71' column='1' id='type-id-302'/>
        <class-decl name='sp_dereference&lt;boost::iostreams::detail::mapped_file_impl&gt;' size-in-bits='8' is-struct='yes' visibility='default' filepath='src/third_party/boost-1.60.0/boost/smart_ptr/shared_ptr.hpp' line='101' column='1' id='type-id-305'>
          <member-type access='public'>
            <typedef-decl name='type' type-id='type-id-91' filepath='src/third_party/boost-1.60.0/boost/smart_ptr/shared_ptr.hpp' line='103' column='1' id='type-id-306'/>
          </member-type>
        </class-decl>
        <class-decl name='sp_member_access&lt;boost::iostreams::detail::mapped_file_impl&gt;' size-in-bits='8' is-struct='yes' visibility='default' filepath='src/third_party/boost-1.60.0/boost/smart_ptr/shared_ptr.hpp' line='150' column='1' id='type-id-307'>
          <member-type access='public'>
            <typedef-decl name='type' type-id='type-id-92' filepath='src/third_party/boost-1.60.0/boost/smart_ptr/shared_ptr.hpp' line='152' column='1' id='type-id-308'/>
          </member-type>
        </class-decl>
        <class-decl name='sp_array_access&lt;boost::iostreams::detail::mapped_file_impl&gt;' size-in-bits='8' is-struct='yes' visibility='default' filepath='src/third_party/boost-1.60.0/boost/smart_ptr/shared_ptr.hpp' line='175' column='1' id='type-id-309'>
          <member-type access='public'>
            <typedef-decl name='type' type-id='type-id-19' filepath='src/third_party/boost-1.60.0/boost/smart_ptr/shared_ptr.hpp' line='177' column='1' id='type-id-310'/>
          </member-type>
        </class-decl>
        <function-decl name='sp_pointer_construct&lt;boost::iostreams::detail::mapped_file_impl, boost::iostreams::detail::mapped_file_impl&gt;' mangled-name='_ZN5boost6detail20sp_pointer_constructINS_9iostreams6detail16mapped_file_implES4_EEvPNS_10shared_ptrIT_EEPT0_RNS0_12shared_countE' filepath='src/third_party/boost-1.60.0/boost/smart_ptr/shared_ptr.hpp' line='282' column='1' visibility='default' binding='global' size-in-bits='64' elf-symbol-id='_ZN5boost6detail20sp_pointer_constructINS_9iostreams6detail16mapped_file_implES4_EEvPNS_10shared_ptrIT_EEPT0_RNS0_12shared_countE'>
          <parameter type-id='type-id-119' name='ppx' filepath='src/third_party/boost-1.60.0/boost/smart_ptr/shared_ptr.hpp' line='282' column='1'/>
          <parameter type-id='type-id-92' name='p' filepath='src/third_party/boost-1.60.0/boost/smart_ptr/shared_ptr.hpp' line='282' column='1'/>
          <parameter type-id='type-id-59' name='pn' filepath='src/third_party/boost-1.60.0/boost/smart_ptr/shared_ptr.hpp' line='282' column='1'/>
          <return type-id='type-id-19'/>
        </function-decl>
      </namespace-decl>
      <namespace-decl name='core'>
        <typedef-decl name='typeinfo' type-id='type-id-279' filepath='src/third_party/boost-1.60.0/boost/core/typeinfo.hpp' line='134' column='1' id='type-id-304'/>
      </namespace-decl>
    </namespace-decl>
    <function-decl name='clearerr' filepath='/usr/include/stdio.h' line='826' column='1' visibility='default' binding='global' size-in-bits='64'>
      <parameter type-id='type-id-53'/>
      <return type-id='type-id-19'/>
    </function-decl>
    <function-decl name='fclose' filepath='/usr/include/stdio.h' line='237' column='1' visibility='default' binding='global' size-in-bits='64'>
      <parameter type-id='type-id-53'/>
      <return type-id='type-id-11'/>
    </function-decl>
    <function-decl name='feof' filepath='/usr/include/stdio.h' line='828' column='1' visibility='default' binding='global' size-in-bits='64'>
      <parameter type-id='type-id-53'/>
      <return type-id='type-id-11'/>
    </function-decl>
    <function-decl name='ferror' filepath='/usr/include/stdio.h' line='830' column='1' visibility='default' binding='global' size-in-bits='64'>
      <parameter type-id='type-id-53'/>
      <return type-id='type-id-11'/>
    </function-decl>
    <function-decl name='fflush' filepath='/usr/include/stdio.h' line='242' column='1' visibility='default' binding='global' size-in-bits='64'>
      <parameter type-id='type-id-53'/>
      <return type-id='type-id-11'/>
    </function-decl>
    <function-decl name='fgetc' filepath='/usr/include/stdio.h' line='531' column='1' visibility='default' binding='global' size-in-bits='64'>
      <parameter type-id='type-id-53'/>
      <return type-id='type-id-11'/>
    </function-decl>
    <function-decl name='fgetpos' filepath='/usr/include/stdio.h' line='798' column='1' visibility='default' binding='global' size-in-bits='64'>
      <parameter type-id='type-id-54'/>
      <parameter type-id='type-id-230'/>
      <return type-id='type-id-11'/>
    </function-decl>
    <function-decl name='fgets' filepath='/usr/include/stdio.h' line='622' column='1' visibility='default' binding='global' size-in-bits='64'>
      <parameter type-id='type-id-123'/>
      <parameter type-id='type-id-11'/>
      <parameter type-id='type-id-54'/>
      <return type-id='type-id-122'/>
    </function-decl>
    <function-decl name='fopen' filepath='/usr/include/stdio.h' line='272' column='1' visibility='default' binding='global' size-in-bits='64'>
      <parameter type-id='type-id-188'/>
      <parameter type-id='type-id-188'/>
      <return type-id='type-id-53'/>
    </function-decl>
    <function-decl name='fprintf' filepath='/usr/include/stdio.h' line='356' column='1' visibility='default' binding='global' size-in-bits='64'>
      <parameter type-id='type-id-54'/>
      <parameter type-id='type-id-188'/>
      <parameter is-variadic='yes'/>
      <return type-id='type-id-11'/>
    </function-decl>
    <function-decl name='fputc' filepath='/usr/include/stdio.h' line='573' column='1' visibility='default' binding='global' size-in-bits='64'>
      <parameter type-id='type-id-11'/>
      <parameter type-id='type-id-53'/>
      <return type-id='type-id-11'/>
    </function-decl>
    <function-decl name='fputs' filepath='/usr/include/stdio.h' line='689' column='1' visibility='default' binding='global' size-in-bits='64'>
      <parameter type-id='type-id-188'/>
      <parameter type-id='type-id-54'/>
      <return type-id='type-id-11'/>
    </function-decl>
    <function-decl name='fread' filepath='/usr/include/stdio.h' line='709' column='1' visibility='default' binding='global' size-in-bits='64'>
      <parameter type-id='type-id-245'/>
      <parameter type-id='type-id-33'/>
      <parameter type-id='type-id-33'/>
      <parameter type-id='type-id-54'/>
      <return type-id='type-id-33'/>
    </function-decl>
    <function-decl name='freopen' filepath='/usr/include/stdio.h' line='278' column='1' visibility='default' binding='global' size-in-bits='64'>
      <parameter type-id='type-id-188'/>
      <parameter type-id='type-id-188'/>
      <parameter type-id='type-id-54'/>
      <return type-id='type-id-53'/>
    </function-decl>
    <function-decl name='fscanf' filepath='/usr/include/stdio.h' line='425' column='1' visibility='default' binding='global' size-in-bits='64'>
      <parameter type-id='type-id-54'/>
      <parameter type-id='type-id-188'/>
      <parameter is-variadic='yes'/>
      <return type-id='type-id-11'/>
    </function-decl>
    <function-decl name='fseek' filepath='/usr/include/stdio.h' line='749' column='1' visibility='default' binding='global' size-in-bits='64'>
      <parameter type-id='type-id-53'/>
      <parameter type-id='type-id-13'/>
      <parameter type-id='type-id-11'/>
      <return type-id='type-id-11'/>
    </function-decl>
    <function-decl name='fsetpos' filepath='/usr/include/stdio.h' line='803' column='1' visibility='default' binding='global' size-in-bits='64'>
      <parameter type-id='type-id-53'/>
      <parameter type-id='type-id-192'/>
      <return type-id='type-id-11'/>
    </function-decl>
    <function-decl name='ftell' filepath='/usr/include/stdio.h' line='754' column='1' visibility='default' binding='global' size-in-bits='64'>
      <parameter type-id='type-id-53'/>
      <return type-id='type-id-13'/>
    </function-decl>
    <function-decl name='fwrite' filepath='/usr/include/stdio.h' line='715' column='1' visibility='default' binding='global' size-in-bits='64'>
      <parameter type-id='type-id-245'/>
      <parameter type-id='type-id-33'/>
      <parameter type-id='type-id-33'/>
      <parameter type-id='type-id-54'/>
      <return type-id='type-id-33'/>
    </function-decl>
    <function-decl name='getc' filepath='/usr/include/stdio.h' line='532' column='1' visibility='default' binding='global' size-in-bits='64'>
      <parameter type-id='type-id-53'/>
      <return type-id='type-id-11'/>
    </function-decl>
    <function-decl name='getchar' filepath='/usr/include/stdio.h' line='538' column='1' visibility='default' binding='global' size-in-bits='64'>
      <return type-id='type-id-11'/>
    </function-decl>
    <function-decl name='perror' filepath='/usr/include/stdio.h' line='846' column='1' visibility='default' binding='global' size-in-bits='64'>
      <parameter type-id='type-id-44'/>
      <return type-id='type-id-19'/>
    </function-decl>
    <function-decl name='printf' filepath='/usr/include/stdio.h' line='362' column='1' visibility='default' binding='global' size-in-bits='64'>
      <parameter type-id='type-id-188'/>
      <parameter is-variadic='yes'/>
      <return type-id='type-id-11'/>
    </function-decl>
    <function-decl name='putc' filepath='/usr/include/stdio.h' line='574' column='1' visibility='default' binding='global' size-in-bits='64'>
      <parameter type-id='type-id-11'/>
      <parameter type-id='type-id-53'/>
      <return type-id='type-id-11'/>
    </function-decl>
    <function-decl name='putchar' filepath='/usr/include/stdio.h' line='580' column='1' visibility='default' binding='global' size-in-bits='64'>
      <parameter type-id='type-id-11'/>
      <return type-id='type-id-11'/>
    </function-decl>
    <function-decl name='puts' filepath='/usr/include/stdio.h' line='695' column='1' visibility='default' binding='global' size-in-bits='64'>
      <parameter type-id='type-id-44'/>
      <return type-id='type-id-11'/>
    </function-decl>
    <function-decl name='remove' filepath='/usr/include/stdio.h' line='178' column='1' visibility='default' binding='global' size-in-bits='64'>
      <parameter type-id='type-id-44'/>
      <return type-id='type-id-11'/>
    </function-decl>
    <function-decl name='rename' filepath='/usr/include/stdio.h' line='180' column='1' visibility='default' binding='global' size-in-bits='64'>
      <parameter type-id='type-id-44'/>
      <parameter type-id='type-id-44'/>
      <return type-id='type-id-11'/>
    </function-decl>
    <function-decl name='rewind' filepath='/usr/include/stdio.h' line='759' column='1' visibility='default' binding='global' size-in-bits='64'>
      <parameter type-id='type-id-53'/>
      <return type-id='type-id-19'/>
    </function-decl>
    <function-decl name='scanf' filepath='/usr/include/stdio.h' line='431' column='1' visibility='default' binding='global' size-in-bits='64'>
      <parameter type-id='type-id-188'/>
      <parameter is-variadic='yes'/>
      <return type-id='type-id-11'/>
    </function-decl>
    <function-decl name='setbuf' filepath='/usr/include/stdio.h' line='332' column='1' visibility='default' binding='global' size-in-bits='64'>
      <parameter type-id='type-id-54'/>
      <parameter type-id='type-id-123'/>
      <return type-id='type-id-19'/>
    </function-decl>
    <function-decl name='setvbuf' filepath='/usr/include/stdio.h' line='336' column='1' visibility='default' binding='global' size-in-bits='64'>
      <parameter type-id='type-id-54'/>
      <parameter type-id='type-id-123'/>
      <parameter type-id='type-id-11'/>
      <parameter type-id='type-id-33'/>
      <return type-id='type-id-11'/>
    </function-decl>
    <function-decl name='sprintf' filepath='/usr/include/stdio.h' line='364' column='1' visibility='default' binding='global' size-in-bits='64'>
      <parameter type-id='type-id-123'/>
      <parameter type-id='type-id-188'/>
      <parameter is-variadic='yes'/>
      <return type-id='type-id-11'/>
    </function-decl>
    <function-decl name='sscanf' filepath='/usr/include/stdio.h' line='433' column='1' visibility='default' binding='global' size-in-bits='64'>
      <parameter type-id='type-id-188'/>
      <parameter type-id='type-id-188'/>
      <parameter is-variadic='yes'/>
      <return type-id='type-id-11'/>
    </function-decl>
    <function-decl name='tmpfile' filepath='/usr/include/stdio.h' line='195' column='1' visibility='default' binding='global' size-in-bits='64'>
      <return type-id='type-id-53'/>
    </function-decl>
    <function-decl name='tmpnam' filepath='/usr/include/stdio.h' line='209' column='1' visibility='default' binding='global' size-in-bits='64'>
      <parameter type-id='type-id-122'/>
      <return type-id='type-id-122'/>
    </function-decl>
    <function-decl name='ungetc' filepath='/usr/include/stdio.h' line='702' column='1' visibility='default' binding='global' size-in-bits='64'>
      <parameter type-id='type-id-11'/>
      <parameter type-id='type-id-53'/>
      <return type-id='type-id-11'/>
    </function-decl>
    <function-decl name='vfprintf' filepath='/usr/include/stdio.h' line='371' column='1' visibility='default' binding='global' size-in-bits='64'>
      <parameter type-id='type-id-54'/>
      <parameter type-id='type-id-188'/>
      <parameter type-id='type-id-57'/>
      <return type-id='type-id-11'/>
    </function-decl>
    <function-decl name='vprintf' filepath='/usr/include/stdio.h' line='377' column='1' visibility='default' binding='global' size-in-bits='64'>
      <parameter type-id='type-id-188'/>
      <parameter type-id='type-id-57'/>
      <return type-id='type-id-11'/>
    </function-decl>
    <function-decl name='vsprintf' filepath='/usr/include/stdio.h' line='379' column='1' visibility='default' binding='global' size-in-bits='64'>
      <parameter type-id='type-id-123'/>
      <parameter type-id='type-id-188'/>
      <parameter type-id='type-id-57'/>
      <return type-id='type-id-11'/>
    </function-decl>
    <function-decl name='snprintf' filepath='/usr/include/stdio.h' line='386' column='1' visibility='default' binding='global' size-in-bits='64'>
      <parameter type-id='type-id-123'/>
      <parameter type-id='type-id-33'/>
      <parameter type-id='type-id-188'/>
      <parameter is-variadic='yes'/>
      <return type-id='type-id-11'/>
    </function-decl>
    <function-decl name='vfscanf' filepath='/usr/include/stdio.h' line='471' column='1' visibility='default' binding='global' size-in-bits='64'>
      <parameter type-id='type-id-54'/>
      <parameter type-id='type-id-188'/>
      <parameter type-id='type-id-57'/>
      <return type-id='type-id-11'/>
    </function-decl>
    <function-decl name='vscanf' filepath='/usr/include/stdio.h' line='479' column='1' visibility='default' binding='global' size-in-bits='64'>
      <parameter type-id='type-id-188'/>
      <parameter type-id='type-id-57'/>
      <return type-id='type-id-11'/>
    </function-decl>
    <function-decl name='vsnprintf' filepath='/usr/include/stdio.h' line='390' column='1' visibility='default' binding='global' size-in-bits='64'>
      <parameter type-id='type-id-123'/>
      <parameter type-id='type-id-33'/>
      <parameter type-id='type-id-188'/>
      <parameter type-id='type-id-57'/>
      <return type-id='type-id-11'/>
    </function-decl>
    <function-decl name='vsscanf' filepath='/usr/include/stdio.h' line='483' column='1' visibility='default' binding='global' size-in-bits='64'>
      <parameter type-id='type-id-188'/>
      <parameter type-id='type-id-188'/>
      <parameter type-id='type-id-57'/>
      <return type-id='type-id-11'/>
    </function-decl>
    <function-decl name='abort' filepath='/usr/include/stdlib.h' line='515' column='1' visibility='default' binding='global' size-in-bits='64'>
      <return type-id='type-id-19'/>
    </function-decl>
    <function-decl name='abs' filepath='/usr/include/stdlib.h' line='774' column='1' visibility='default' binding='global' size-in-bits='64'>
      <parameter type-id='type-id-11'/>
      <return type-id='type-id-11'/>
    </function-decl>
    <function-decl name='atexit' filepath='/usr/include/stdlib.h' line='519' column='1' visibility='default' binding='global' size-in-bits='64'>
      <parameter type-id='type-id-244'/>
      <return type-id='type-id-11'/>
    </function-decl>
    <function-decl name='at_quick_exit' filepath='/usr/include/stdlib.h' line='524' column='1' visibility='default' binding='global' size-in-bits='64'>
      <parameter type-id='type-id-244'/>
      <return type-id='type-id-11'/>
    </function-decl>
    <function-decl name='atof' filepath='/usr/include/stdlib.h' line='144' column='1' visibility='default' binding='global' size-in-bits='64'>
      <parameter type-id='type-id-44'/>
      <return type-id='type-id-9'/>
    </function-decl>
    <function-decl name='atoi' filepath='/usr/include/stdlib.h' line='147' column='1' visibility='default' binding='global' size-in-bits='64'>
      <parameter type-id='type-id-44'/>
      <return type-id='type-id-11'/>
    </function-decl>
    <function-decl name='atol' filepath='/usr/include/stdlib.h' line='150' column='1' visibility='default' binding='global' size-in-bits='64'>
      <parameter type-id='type-id-44'/>
      <return type-id='type-id-13'/>
    </function-decl>
    <function-decl name='bsearch' filepath='/usr/include/stdlib.h' line='754' column='1' visibility='default' binding='global' size-in-bits='64'>
      <parameter type-id='type-id-8'/>
      <parameter type-id='type-id-8'/>
      <parameter type-id='type-id-33'/>
      <parameter type-id='type-id-33'/>
      <parameter type-id='type-id-35'/>
      <return type-id='type-id-8'/>
    </function-decl>
    <function-decl name='calloc' filepath='/usr/include/stdlib.h' line='468' column='1' visibility='default' binding='global' size-in-bits='64'>
      <parameter type-id='type-id-33'/>
      <parameter type-id='type-id-33'/>
      <return type-id='type-id-8'/>
    </function-decl>
    <function-decl name='div' filepath='/usr/include/stdlib.h' line='788' column='1' visibility='default' binding='global' size-in-bits='64'>
      <parameter type-id='type-id-11'/>
      <parameter type-id='type-id-11'/>
      <return type-id='type-id-37'/>
    </function-decl>
    <function-decl name='exit' filepath='/usr/include/stdlib.h' line='543' column='1' visibility='default' binding='global' size-in-bits='64'>
      <parameter type-id='type-id-11'/>
      <return type-id='type-id-19'/>
    </function-decl>
    <function-decl name='free' filepath='/usr/include/stdlib.h' line='483' column='1' visibility='default' binding='global' size-in-bits='64'>
      <parameter type-id='type-id-8'/>
      <return type-id='type-id-19'/>
    </function-decl>
    <function-decl name='getenv' filepath='/usr/include/stdlib.h' line='564' column='1' visibility='default' binding='global' size-in-bits='64'>
      <parameter type-id='type-id-44'/>
      <return type-id='type-id-122'/>
    </function-decl>
    <function-decl name='labs' filepath='/usr/include/stdlib.h' line='775' column='1' visibility='default' binding='global' size-in-bits='64'>
      <parameter type-id='type-id-13'/>
      <return type-id='type-id-13'/>
    </function-decl>
    <function-decl name='ldiv' filepath='/usr/include/stdlib.h' line='790' column='1' visibility='default' binding='global' size-in-bits='64'>
      <parameter type-id='type-id-13'/>
      <parameter type-id='type-id-13'/>
      <return type-id='type-id-39'/>
    </function-decl>
    <function-decl name='malloc' filepath='/usr/include/stdlib.h' line='466' column='1' visibility='default' binding='global' size-in-bits='64'>
      <parameter type-id='type-id-33'/>
      <return type-id='type-id-8'/>
    </function-decl>
    <function-decl name='mblen' filepath='/usr/include/stdlib.h' line='862' column='1' visibility='default' binding='global' size-in-bits='64'>
      <parameter type-id='type-id-44'/>
      <parameter type-id='type-id-33'/>
      <return type-id='type-id-11'/>
    </function-decl>
    <function-decl name='mbstowcs' filepath='/usr/include/stdlib.h' line='873' column='1' visibility='default' binding='global' size-in-bits='64'>
      <parameter type-id='type-id-247'/>
      <parameter type-id='type-id-188'/>
      <parameter type-id='type-id-33'/>
      <return type-id='type-id-33'/>
    </function-decl>
    <function-decl name='mbtowc' filepath='/usr/include/stdlib.h' line='865' column='1' visibility='default' binding='global' size-in-bits='64'>
      <parameter type-id='type-id-247'/>
      <parameter type-id='type-id-188'/>
      <parameter type-id='type-id-33'/>
      <return type-id='type-id-11'/>
    </function-decl>
    <function-decl name='qsort' filepath='/usr/include/stdlib.h' line='764' column='1' visibility='default' binding='global' size-in-bits='64'>
      <parameter type-id='type-id-8'/>
      <parameter type-id='type-id-33'/>
      <parameter type-id='type-id-33'/>
      <parameter type-id='type-id-35'/>
      <return type-id='type-id-19'/>
    </function-decl>
    <function-decl name='quick_exit' filepath='/usr/include/stdlib.h' line='549' column='1' visibility='default' binding='global' size-in-bits='64'>
      <parameter type-id='type-id-11'/>
      <return type-id='type-id-19'/>
    </function-decl>
    <function-decl name='rand' filepath='/usr/include/stdlib.h' line='374' column='1' visibility='default' binding='global' size-in-bits='64'>
      <return type-id='type-id-11'/>
    </function-decl>
    <function-decl name='realloc' filepath='/usr/include/stdlib.h' line='480' column='1' visibility='default' binding='global' size-in-bits='64'>
      <parameter type-id='type-id-8'/>
      <parameter type-id='type-id-33'/>
      <return type-id='type-id-8'/>
    </function-decl>
    <function-decl name='srand' filepath='/usr/include/stdlib.h' line='376' column='1' visibility='default' binding='global' size-in-bits='64'>
      <parameter type-id='type-id-7'/>
      <return type-id='type-id-19'/>
    </function-decl>
    <function-decl name='strtod' filepath='/usr/include/stdlib.h' line='164' column='1' visibility='default' binding='global' size-in-bits='64'>
      <parameter type-id='type-id-188'/>
      <parameter type-id='type-id-125'/>
      <return type-id='type-id-9'/>
    </function-decl>
    <function-decl name='strtol' filepath='/usr/include/stdlib.h' line='183' column='1' visibility='default' binding='global' size-in-bits='64'>
      <parameter type-id='type-id-188'/>
      <parameter type-id='type-id-125'/>
      <parameter type-id='type-id-11'/>
      <return type-id='type-id-13'/>
    </function-decl>
    <function-decl name='strtoul' filepath='/usr/include/stdlib.h' line='187' column='1' visibility='default' binding='global' size-in-bits='64'>
      <parameter type-id='type-id-188'/>
      <parameter type-id='type-id-125'/>
      <parameter type-id='type-id-11'/>
      <return type-id='type-id-17'/>
    </function-decl>
    <function-decl name='system' filepath='/usr/include/stdlib.h' line='716' column='1' visibility='default' binding='global' size-in-bits='64'>
      <parameter type-id='type-id-44'/>
      <return type-id='type-id-11'/>
    </function-decl>
    <function-decl name='wcstombs' filepath='/usr/include/stdlib.h' line='876' column='1' visibility='default' binding='global' size-in-bits='64'>
      <parameter type-id='type-id-123'/>
      <parameter type-id='type-id-225'/>
      <parameter type-id='type-id-33'/>
      <return type-id='type-id-33'/>
    </function-decl>
    <function-decl name='wctomb' filepath='/usr/include/stdlib.h' line='869' column='1' visibility='default' binding='global' size-in-bits='64'>
      <parameter type-id='type-id-122'/>
      <parameter type-id='type-id-20'/>
      <return type-id='type-id-11'/>
    </function-decl>
    <function-decl name='_Exit' filepath='/usr/include/stdlib.h' line='557' column='1' visibility='default' binding='global' size-in-bits='64'>
      <parameter type-id='type-id-11'/>
      <return type-id='type-id-19'/>
    </function-decl>
    <function-decl name='llabs' filepath='/usr/include/stdlib.h' line='779' column='1' visibility='default' binding='global' size-in-bits='64'>
      <parameter type-id='type-id-14'/>
      <return type-id='type-id-14'/>
    </function-decl>
    <function-decl name='lldiv' filepath='/usr/include/stdlib.h' line='796' column='1' visibility='default' binding='global' size-in-bits='64'>
      <parameter type-id='type-id-14'/>
      <parameter type-id='type-id-14'/>
      <return type-id='type-id-22'/>
    </function-decl>
    <function-decl name='atoll' filepath='/usr/include/stdlib.h' line='157' column='1' visibility='default' binding='global' size-in-bits='64'>
      <parameter type-id='type-id-44'/>
      <return type-id='type-id-14'/>
    </function-decl>
    <function-decl name='strtoll' filepath='/usr/include/stdlib.h' line='209' column='1' visibility='default' binding='global' size-in-bits='64'>
      <parameter type-id='type-id-188'/>
      <parameter type-id='type-id-125'/>
      <parameter type-id='type-id-11'/>
      <return type-id='type-id-14'/>
    </function-decl>
    <function-decl name='strtoull' filepath='/usr/include/stdlib.h' line='214' column='1' visibility='default' binding='global' size-in-bits='64'>
      <parameter type-id='type-id-188'/>
      <parameter type-id='type-id-125'/>
      <parameter type-id='type-id-11'/>
      <return type-id='type-id-15'/>
    </function-decl>
    <function-decl name='strtof' filepath='/usr/include/stdlib.h' line='172' column='1' visibility='default' binding='global' size-in-bits='64'>
      <parameter type-id='type-id-188'/>
      <parameter type-id='type-id-125'/>
      <return type-id='type-id-10'/>
    </function-decl>
    <function-decl name='strtold' filepath='/usr/include/stdlib.h' line='175' column='1' visibility='default' binding='global' size-in-bits='64'>
      <parameter type-id='type-id-188'/>
      <parameter type-id='type-id-125'/>
      <return type-id='type-id-12'/>
    </function-decl>
    <function-decl name='btowc' filepath='/usr/include/wchar.h' line='356' column='1' visibility='default' binding='global' size-in-bits='64'>
      <parameter type-id='type-id-11'/>
      <return type-id='type-id-40'/>
    </function-decl>
    <function-decl name='fgetwc' filepath='/usr/include/wchar.h' line='748' column='1' visibility='default' binding='global' size-in-bits='64'>
      <parameter type-id='type-id-55'/>
      <return type-id='type-id-40'/>
    </function-decl>
    <function-decl name='fgetws' filepath='/usr/include/wchar.h' line='777' column='1' visibility='default' binding='global' size-in-bits='64'>
      <parameter type-id='type-id-247'/>
      <parameter type-id='type-id-11'/>
      <parameter type-id='type-id-56'/>
      <return type-id='type-id-246'/>
    </function-decl>
    <function-decl name='fputwc' filepath='/usr/include/wchar.h' line='762' column='1' visibility='default' binding='global' size-in-bits='64'>
      <parameter type-id='type-id-20'/>
      <parameter type-id='type-id-55'/>
      <return type-id='type-id-40'/>
    </function-decl>
    <function-decl name='fputws' filepath='/usr/include/wchar.h' line='784' column='1' visibility='default' binding='global' size-in-bits='64'>
      <parameter type-id='type-id-225'/>
      <parameter type-id='type-id-56'/>
      <return type-id='type-id-11'/>
    </function-decl>
    <function-decl name='fwide' filepath='/usr/include/wchar.h' line='590' column='1' visibility='default' binding='global' size-in-bits='64'>
      <parameter type-id='type-id-55'/>
      <parameter type-id='type-id-11'/>
      <return type-id='type-id-11'/>
    </function-decl>
    <function-decl name='fwprintf' filepath='/usr/include/wchar.h' line='597' column='1' visibility='default' binding='global' size-in-bits='64'>
      <parameter type-id='type-id-56'/>
      <parameter type-id='type-id-225'/>
      <parameter is-variadic='yes'/>
      <return type-id='type-id-11'/>
    </function-decl>
    <function-decl name='fwscanf' filepath='/usr/include/wchar.h' line='638' column='1' visibility='default' binding='global' size-in-bits='64'>
      <parameter type-id='type-id-56'/>
      <parameter type-id='type-id-225'/>
      <parameter is-variadic='yes'/>
      <return type-id='type-id-11'/>
    </function-decl>
    <function-decl name='getwc' filepath='/usr/include/wchar.h' line='749' column='1' visibility='default' binding='global' size-in-bits='64'>
      <parameter type-id='type-id-55'/>
      <return type-id='type-id-40'/>
    </function-decl>
    <function-decl name='getwchar' filepath='/usr/include/wchar.h' line='755' column='1' visibility='default' binding='global' size-in-bits='64'>
      <return type-id='type-id-40'/>
    </function-decl>
    <function-decl name='mbrlen' filepath='/usr/include/wchar.h' line='379' column='1' visibility='default' binding='global' size-in-bits='64'>
      <parameter type-id='type-id-188'/>
      <parameter type-id='type-id-33'/>
      <parameter type-id='type-id-236'/>
      <return type-id='type-id-33'/>
    </function-decl>
    <function-decl name='mbrtowc' filepath='/usr/include/wchar.h' line='368' column='1' visibility='default' binding='global' size-in-bits='64'>
      <parameter type-id='type-id-247'/>
      <parameter type-id='type-id-188'/>
      <parameter type-id='type-id-33'/>
      <parameter type-id='type-id-236'/>
      <return type-id='type-id-33'/>
    </function-decl>
    <function-decl name='mbsinit' filepath='/usr/include/wchar.h' line='364' column='1' visibility='default' binding='global' size-in-bits='64'>
      <parameter type-id='type-id-194'/>
      <return type-id='type-id-11'/>
    </function-decl>
    <function-decl name='mbsrtowcs' filepath='/usr/include/wchar.h' line='411' column='1' visibility='default' binding='global' size-in-bits='64'>
      <parameter type-id='type-id-247'/>
      <parameter type-id='type-id-190'/>
      <parameter type-id='type-id-33'/>
      <parameter type-id='type-id-236'/>
      <return type-id='type-id-33'/>
    </function-decl>
    <function-decl name='putwc' filepath='/usr/include/wchar.h' line='763' column='1' visibility='default' binding='global' size-in-bits='64'>
      <parameter type-id='type-id-20'/>
      <parameter type-id='type-id-55'/>
      <return type-id='type-id-40'/>
    </function-decl>
    <function-decl name='putwchar' filepath='/usr/include/wchar.h' line='769' column='1' visibility='default' binding='global' size-in-bits='64'>
      <parameter type-id='type-id-20'/>
      <return type-id='type-id-40'/>
    </function-decl>
    <function-decl name='swprintf' filepath='/usr/include/wchar.h' line='607' column='1' visibility='default' binding='global' size-in-bits='64'>
      <parameter type-id='type-id-247'/>
      <parameter type-id='type-id-33'/>
      <parameter type-id='type-id-225'/>
      <parameter is-variadic='yes'/>
      <return type-id='type-id-11'/>
    </function-decl>
    <function-decl name='swscanf' filepath='/usr/include/wchar.h' line='648' column='1' visibility='default' binding='global' size-in-bits='64'>
      <parameter type-id='type-id-225'/>
      <parameter type-id='type-id-225'/>
      <parameter is-variadic='yes'/>
      <return type-id='type-id-11'/>
    </function-decl>
    <function-decl name='ungetwc' filepath='/usr/include/wchar.h' line='792' column='1' visibility='default' binding='global' size-in-bits='64'>
      <parameter type-id='type-id-40'/>
      <parameter type-id='type-id-55'/>
      <return type-id='type-id-40'/>
    </function-decl>
    <function-decl name='vfwprintf' filepath='/usr/include/wchar.h' line='615' column='1' visibility='default' binding='global' size-in-bits='64'>
      <parameter type-id='type-id-56'/>
      <parameter type-id='type-id-225'/>
      <parameter type-id='type-id-57'/>
      <return type-id='type-id-11'/>
    </function-decl>
    <function-decl name='vfwscanf' filepath='/usr/include/wchar.h' line='692' column='1' visibility='default' binding='global' size-in-bits='64'>
      <parameter type-id='type-id-56'/>
      <parameter type-id='type-id-225'/>
      <parameter type-id='type-id-57'/>
      <return type-id='type-id-11'/>
    </function-decl>
    <function-decl name='vswprintf' filepath='/usr/include/wchar.h' line='628' column='1' visibility='default' binding='global' size-in-bits='64'>
      <parameter type-id='type-id-247'/>
      <parameter type-id='type-id-33'/>
      <parameter type-id='type-id-225'/>
      <parameter type-id='type-id-57'/>
      <return type-id='type-id-11'/>
    </function-decl>
    <function-decl name='vswscanf' filepath='/usr/include/wchar.h' line='704' column='1' visibility='default' binding='global' size-in-bits='64'>
      <parameter type-id='type-id-225'/>
      <parameter type-id='type-id-225'/>
      <parameter type-id='type-id-57'/>
      <return type-id='type-id-11'/>
    </function-decl>
    <function-decl name='vwprintf' filepath='/usr/include/wchar.h' line='623' column='1' visibility='default' binding='global' size-in-bits='64'>
      <parameter type-id='type-id-225'/>
      <parameter type-id='type-id-57'/>
      <return type-id='type-id-11'/>
    </function-decl>
    <function-decl name='vwscanf' filepath='/usr/include/wchar.h' line='700' column='1' visibility='default' binding='global' size-in-bits='64'>
      <parameter type-id='type-id-225'/>
      <parameter type-id='type-id-57'/>
      <return type-id='type-id-11'/>
    </function-decl>
    <function-decl name='wcrtomb' filepath='/usr/include/wchar.h' line='373' column='1' visibility='default' binding='global' size-in-bits='64'>
      <parameter type-id='type-id-123'/>
      <parameter type-id='type-id-20'/>
      <parameter type-id='type-id-236'/>
      <return type-id='type-id-33'/>
    </function-decl>
    <function-decl name='wcscat' filepath='/usr/include/wchar.h' line='157' column='1' visibility='default' binding='global' size-in-bits='64'>
      <parameter type-id='type-id-247'/>
      <parameter type-id='type-id-225'/>
      <return type-id='type-id-246'/>
    </function-decl>
    <function-decl name='wcscmp' filepath='/usr/include/wchar.h' line='166' column='1' visibility='default' binding='global' size-in-bits='64'>
      <parameter type-id='type-id-224'/>
      <parameter type-id='type-id-224'/>
      <return type-id='type-id-11'/>
    </function-decl>
    <function-decl name='wcscoll' filepath='/usr/include/wchar.h' line='195' column='1' visibility='default' binding='global' size-in-bits='64'>
      <parameter type-id='type-id-224'/>
      <parameter type-id='type-id-224'/>
      <return type-id='type-id-11'/>
    </function-decl>
    <function-decl name='wcscpy' filepath='/usr/include/wchar.h' line='147' column='1' visibility='default' binding='global' size-in-bits='64'>
      <parameter type-id='type-id-247'/>
      <parameter type-id='type-id-225'/>
      <return type-id='type-id-246'/>
    </function-decl>
    <function-decl name='wcscspn' filepath='/usr/include/wchar.h' line='255' column='1' visibility='default' binding='global' size-in-bits='64'>
      <parameter type-id='type-id-224'/>
      <parameter type-id='type-id-224'/>
      <return type-id='type-id-33'/>
    </function-decl>
    <function-decl name='wcsftime' filepath='/usr/include/wchar.h' line='858' column='1' visibility='default' binding='global' size-in-bits='64'>
      <parameter type-id='type-id-247'/>
      <parameter type-id='type-id-33'/>
      <parameter type-id='type-id-225'/>
      <parameter type-id='type-id-222'/>
      <return type-id='type-id-33'/>
    </function-decl>
    <function-decl name='wcslen' filepath='/usr/include/wchar.h' line='290' column='1' visibility='default' binding='global' size-in-bits='64'>
      <parameter type-id='type-id-224'/>
      <return type-id='type-id-33'/>
    </function-decl>
    <function-decl name='wcsncat' filepath='/usr/include/wchar.h' line='161' column='1' visibility='default' binding='global' size-in-bits='64'>
      <parameter type-id='type-id-247'/>
      <parameter type-id='type-id-225'/>
      <parameter type-id='type-id-33'/>
      <return type-id='type-id-246'/>
    </function-decl>
    <function-decl name='wcsncmp' filepath='/usr/include/wchar.h' line='169' column='1' visibility='default' binding='global' size-in-bits='64'>
      <parameter type-id='type-id-224'/>
      <parameter type-id='type-id-224'/>
      <parameter type-id='type-id-33'/>
      <return type-id='type-id-11'/>
    </function-decl>
    <function-decl name='wcsncpy' filepath='/usr/include/wchar.h' line='152' column='1' visibility='default' binding='global' size-in-bits='64'>
      <parameter type-id='type-id-247'/>
      <parameter type-id='type-id-225'/>
      <parameter type-id='type-id-33'/>
      <return type-id='type-id-246'/>
    </function-decl>
    <function-decl name='wcsrtombs' filepath='/usr/include/wchar.h' line='417' column='1' visibility='default' binding='global' size-in-bits='64'>
      <parameter type-id='type-id-123'/>
      <parameter type-id='type-id-227'/>
      <parameter type-id='type-id-33'/>
      <parameter type-id='type-id-236'/>
      <return type-id='type-id-33'/>
    </function-decl>
    <function-decl name='wcsspn' filepath='/usr/include/wchar.h' line='259' column='1' visibility='default' binding='global' size-in-bits='64'>
      <parameter type-id='type-id-224'/>
      <parameter type-id='type-id-224'/>
      <return type-id='type-id-33'/>
    </function-decl>
    <function-decl name='wcstod' filepath='/usr/include/wchar.h' line='453' column='1' visibility='default' binding='global' size-in-bits='64'>
      <parameter type-id='type-id-225'/>
      <parameter type-id='type-id-249'/>
      <return type-id='type-id-9'/>
    </function-decl>
    <function-decl name='wcstof' filepath='/usr/include/wchar.h' line='460' column='1' visibility='default' binding='global' size-in-bits='64'>
      <parameter type-id='type-id-225'/>
      <parameter type-id='type-id-249'/>
      <return type-id='type-id-10'/>
    </function-decl>
    <function-decl name='wcstok' filepath='/usr/include/wchar.h' line='285' column='1' visibility='default' binding='global' size-in-bits='64'>
      <parameter type-id='type-id-247'/>
      <parameter type-id='type-id-225'/>
      <parameter type-id='type-id-249'/>
      <return type-id='type-id-246'/>
    </function-decl>
    <function-decl name='wcstol' filepath='/usr/include/wchar.h' line='471' column='1' visibility='default' binding='global' size-in-bits='64'>
      <parameter type-id='type-id-225'/>
      <parameter type-id='type-id-249'/>
      <parameter type-id='type-id-11'/>
      <return type-id='type-id-13'/>
    </function-decl>
    <function-decl name='wcstoul' filepath='/usr/include/wchar.h' line='476' column='1' visibility='default' binding='global' size-in-bits='64'>
      <parameter type-id='type-id-225'/>
      <parameter type-id='type-id-249'/>
      <parameter type-id='type-id-11'/>
      <return type-id='type-id-17'/>
    </function-decl>
    <function-decl name='wcsxfrm' filepath='/usr/include/wchar.h' line='199' column='1' visibility='default' binding='global' size-in-bits='64'>
      <parameter type-id='type-id-247'/>
      <parameter type-id='type-id-225'/>
      <parameter type-id='type-id-33'/>
      <return type-id='type-id-33'/>
    </function-decl>
    <function-decl name='wctob' filepath='/usr/include/wchar.h' line='360' column='1' visibility='default' binding='global' size-in-bits='64'>
      <parameter type-id='type-id-40'/>
      <return type-id='type-id-11'/>
    </function-decl>
    <function-decl name='wmemcmp' filepath='/usr/include/wchar.h' line='328' column='1' visibility='default' binding='global' size-in-bits='64'>
      <parameter type-id='type-id-224'/>
      <parameter type-id='type-id-224'/>
      <parameter type-id='type-id-33'/>
      <return type-id='type-id-11'/>
    </function-decl>
    <function-decl name='wmemcpy' filepath='/usr/include/wchar.h' line='332' column='1' visibility='default' binding='global' size-in-bits='64'>
      <parameter type-id='type-id-247'/>
      <parameter type-id='type-id-225'/>
      <parameter type-id='type-id-33'/>
      <return type-id='type-id-246'/>
    </function-decl>
    <function-decl name='wmemmove' filepath='/usr/include/wchar.h' line='337' column='1' visibility='default' binding='global' size-in-bits='64'>
      <parameter type-id='type-id-246'/>
      <parameter type-id='type-id-224'/>
      <parameter type-id='type-id-33'/>
      <return type-id='type-id-246'/>
    </function-decl>
    <function-decl name='wmemset' filepath='/usr/include/wchar.h' line='341' column='1' visibility='default' binding='global' size-in-bits='64'>
      <parameter type-id='type-id-246'/>
      <parameter type-id='type-id-20'/>
      <parameter type-id='type-id-33'/>
      <return type-id='type-id-246'/>
    </function-decl>
    <function-decl name='wprintf' filepath='/usr/include/wchar.h' line='604' column='1' visibility='default' binding='global' size-in-bits='64'>
      <parameter type-id='type-id-225'/>
      <parameter is-variadic='yes'/>
      <return type-id='type-id-11'/>
    </function-decl>
    <function-decl name='wscanf' filepath='/usr/include/wchar.h' line='645' column='1' visibility='default' binding='global' size-in-bits='64'>
      <parameter type-id='type-id-225'/>
      <parameter is-variadic='yes'/>
      <return type-id='type-id-11'/>
    </function-decl>
    <function-decl name='wcschr' filepath='/usr/include/wchar.h' line='230' column='1' visibility='default' binding='global' size-in-bits='64'>
      <parameter type-id='type-id-224'/>
      <parameter type-id='type-id-20'/>
      <return type-id='type-id-246'/>
    </function-decl>
    <function-decl name='wcspbrk' filepath='/usr/include/wchar.h' line='269' column='1' visibility='default' binding='global' size-in-bits='64'>
      <parameter type-id='type-id-224'/>
      <parameter type-id='type-id-224'/>
      <return type-id='type-id-246'/>
    </function-decl>
    <function-decl name='wcsrchr' filepath='/usr/include/wchar.h' line='240' column='1' visibility='default' binding='global' size-in-bits='64'>
      <parameter type-id='type-id-224'/>
      <parameter type-id='type-id-20'/>
      <return type-id='type-id-246'/>
    </function-decl>
    <function-decl name='wcsstr' filepath='/usr/include/wchar.h' line='280' column='1' visibility='default' binding='global' size-in-bits='64'>
      <parameter type-id='type-id-224'/>
      <parameter type-id='type-id-224'/>
      <return type-id='type-id-246'/>
    </function-decl>
    <function-decl name='wmemchr' filepath='/usr/include/wchar.h' line='323' column='1' visibility='default' binding='global' size-in-bits='64'>
      <parameter type-id='type-id-224'/>
      <parameter type-id='type-id-20'/>
      <parameter type-id='type-id-33'/>
      <return type-id='type-id-246'/>
    </function-decl>
    <function-decl name='wcstold' filepath='/usr/include/wchar.h' line='462' column='1' visibility='default' binding='global' size-in-bits='64'>
      <parameter type-id='type-id-225'/>
      <parameter type-id='type-id-249'/>
      <return type-id='type-id-12'/>
    </function-decl>
    <function-decl name='wcstoll' filepath='/usr/include/wchar.h' line='486' column='1' visibility='default' binding='global' size-in-bits='64'>
      <parameter type-id='type-id-225'/>
      <parameter type-id='type-id-249'/>
      <parameter type-id='type-id-11'/>
      <return type-id='type-id-14'/>
    </function-decl>
    <function-decl name='wcstoull' filepath='/usr/include/wchar.h' line='493' column='1' visibility='default' binding='global' size-in-bits='64'>
      <parameter type-id='type-id-225'/>
      <parameter type-id='type-id-249'/>
      <parameter type-id='type-id-11'/>
      <return type-id='type-id-15'/>
    </function-decl>
    <function-decl name='setlocale' filepath='/usr/include/locale.h' line='124' column='1' visibility='default' binding='global' size-in-bits='64'>
      <parameter type-id='type-id-11'/>
      <parameter type-id='type-id-44'/>
      <return type-id='type-id-122'/>
    </function-decl>
    <function-decl name='localeconv' filepath='/usr/include/locale.h' line='127' column='1' visibility='default' binding='global' size-in-bits='64'>
      <return type-id='type-id-234'/>
    </function-decl>
    <function-decl name='isalnum' filepath='/usr/include/ctype.h' line='110' column='1' visibility='default' binding='global' size-in-bits='64'>
      <parameter type-id='type-id-11'/>
      <return type-id='type-id-11'/>
    </function-decl>
    <function-decl name='isalpha' filepath='/usr/include/ctype.h' line='111' column='1' visibility='default' binding='global' size-in-bits='64'>
      <parameter type-id='type-id-11'/>
      <return type-id='type-id-11'/>
    </function-decl>
    <function-decl name='iscntrl' filepath='/usr/include/ctype.h' line='112' column='1' visibility='default' binding='global' size-in-bits='64'>
      <parameter type-id='type-id-11'/>
      <return type-id='type-id-11'/>
    </function-decl>
    <function-decl name='isdigit' filepath='/usr/include/ctype.h' line='113' column='1' visibility='default' binding='global' size-in-bits='64'>
      <parameter type-id='type-id-11'/>
      <return type-id='type-id-11'/>
    </function-decl>
    <function-decl name='isgraph' filepath='/usr/include/ctype.h' line='115' column='1' visibility='default' binding='global' size-in-bits='64'>
      <parameter type-id='type-id-11'/>
      <return type-id='type-id-11'/>
    </function-decl>
    <function-decl name='islower' filepath='/usr/include/ctype.h' line='114' column='1' visibility='default' binding='global' size-in-bits='64'>
      <parameter type-id='type-id-11'/>
      <return type-id='type-id-11'/>
    </function-decl>
    <function-decl name='isprint' filepath='/usr/include/ctype.h' line='116' column='1' visibility='default' binding='global' size-in-bits='64'>
      <parameter type-id='type-id-11'/>
      <return type-id='type-id-11'/>
    </function-decl>
    <function-decl name='ispunct' filepath='/usr/include/ctype.h' line='117' column='1' visibility='default' binding='global' size-in-bits='64'>
      <parameter type-id='type-id-11'/>
      <return type-id='type-id-11'/>
    </function-decl>
    <function-decl name='isspace' filepath='/usr/include/ctype.h' line='118' column='1' visibility='default' binding='global' size-in-bits='64'>
      <parameter type-id='type-id-11'/>
      <return type-id='type-id-11'/>
    </function-decl>
    <function-decl name='isupper' filepath='/usr/include/ctype.h' line='119' column='1' visibility='default' binding='global' size-in-bits='64'>
      <parameter type-id='type-id-11'/>
      <return type-id='type-id-11'/>
    </function-decl>
    <function-decl name='isxdigit' filepath='/usr/include/ctype.h' line='120' column='1' visibility='default' binding='global' size-in-bits='64'>
      <parameter type-id='type-id-11'/>
      <return type-id='type-id-11'/>
    </function-decl>
    <function-decl name='tolower' filepath='/usr/include/ctype.h' line='124' column='1' visibility='default' binding='global' size-in-bits='64'>
      <parameter type-id='type-id-11'/>
      <return type-id='type-id-11'/>
    </function-decl>
    <function-decl name='toupper' filepath='/usr/include/ctype.h' line='127' column='1' visibility='default' binding='global' size-in-bits='64'>
      <parameter type-id='type-id-11'/>
      <return type-id='type-id-11'/>
    </function-decl>
    <function-decl name='isblank' filepath='/usr/include/ctype.h' line='136' column='1' visibility='default' binding='global' size-in-bits='64'>
      <parameter type-id='type-id-11'/>
      <return type-id='type-id-11'/>
    </function-decl>
    <function-decl name='iswalnum' filepath='/usr/include/wctype.h' line='111' column='1' visibility='default' binding='global' size-in-bits='64'>
      <parameter type-id='type-id-40'/>
      <return type-id='type-id-11'/>
    </function-decl>
    <function-decl name='iswalpha' filepath='/usr/include/wctype.h' line='117' column='1' visibility='default' binding='global' size-in-bits='64'>
      <parameter type-id='type-id-40'/>
      <return type-id='type-id-11'/>
    </function-decl>
    <function-decl name='iswblank' filepath='/usr/include/wctype.h' line='162' column='1' visibility='default' binding='global' size-in-bits='64'>
      <parameter type-id='type-id-40'/>
      <return type-id='type-id-11'/>
    </function-decl>
    <function-decl name='iswcntrl' filepath='/usr/include/wctype.h' line='120' column='1' visibility='default' binding='global' size-in-bits='64'>
      <parameter type-id='type-id-40'/>
      <return type-id='type-id-11'/>
    </function-decl>
    <function-decl name='iswctype' filepath='/usr/include/wctype.h' line='175' column='1' visibility='default' binding='global' size-in-bits='64'>
      <parameter type-id='type-id-40'/>
      <parameter type-id='type-id-45'/>
      <return type-id='type-id-11'/>
    </function-decl>
    <function-decl name='iswdigit' filepath='/usr/include/wctype.h' line='124' column='1' visibility='default' binding='global' size-in-bits='64'>
      <parameter type-id='type-id-40'/>
      <return type-id='type-id-11'/>
    </function-decl>
    <function-decl name='iswgraph' filepath='/usr/include/wctype.h' line='128' column='1' visibility='default' binding='global' size-in-bits='64'>
      <parameter type-id='type-id-40'/>
      <return type-id='type-id-11'/>
    </function-decl>
    <function-decl name='iswlower' filepath='/usr/include/wctype.h' line='133' column='1' visibility='default' binding='global' size-in-bits='64'>
      <parameter type-id='type-id-40'/>
      <return type-id='type-id-11'/>
    </function-decl>
    <function-decl name='iswprint' filepath='/usr/include/wctype.h' line='136' column='1' visibility='default' binding='global' size-in-bits='64'>
      <parameter type-id='type-id-40'/>
      <return type-id='type-id-11'/>
    </function-decl>
    <function-decl name='iswpunct' filepath='/usr/include/wctype.h' line='141' column='1' visibility='default' binding='global' size-in-bits='64'>
      <parameter type-id='type-id-40'/>
      <return type-id='type-id-11'/>
    </function-decl>
    <function-decl name='iswspace' filepath='/usr/include/wctype.h' line='146' column='1' visibility='default' binding='global' size-in-bits='64'>
      <parameter type-id='type-id-40'/>
      <return type-id='type-id-11'/>
    </function-decl>
    <function-decl name='iswupper' filepath='/usr/include/wctype.h' line='151' column='1' visibility='default' binding='global' size-in-bits='64'>
      <parameter type-id='type-id-40'/>
      <return type-id='type-id-11'/>
    </function-decl>
    <function-decl name='iswxdigit' filepath='/usr/include/wctype.h' line='156' column='1' visibility='default' binding='global' size-in-bits='64'>
      <parameter type-id='type-id-40'/>
      <return type-id='type-id-11'/>
    </function-decl>
    <function-decl name='towctrans' filepath='/usr/include/wctype.h' line='221' column='1' visibility='default' binding='global' size-in-bits='64'>
      <parameter type-id='type-id-40'/>
      <parameter type-id='type-id-47'/>
      <return type-id='type-id-40'/>
    </function-decl>
    <function-decl name='towlower' filepath='/usr/include/wctype.h' line='194' column='1' visibility='default' binding='global' size-in-bits='64'>
      <parameter type-id='type-id-40'/>
      <return type-id='type-id-40'/>
    </function-decl>
    <function-decl name='towupper' filepath='/usr/include/wctype.h' line='197' column='1' visibility='default' binding='global' size-in-bits='64'>
      <parameter type-id='type-id-40'/>
      <return type-id='type-id-40'/>
    </function-decl>
    <function-decl name='wctrans' filepath='/usr/include/wctype.h' line='218' column='1' visibility='default' binding='global' size-in-bits='64'>
      <parameter type-id='type-id-44'/>
      <return type-id='type-id-47'/>
    </function-decl>
    <function-decl name='wctype' filepath='/usr/include/wctype.h' line='171' column='1' visibility='default' binding='global' size-in-bits='64'>
      <parameter type-id='type-id-44'/>
      <return type-id='type-id-45'/>
    </function-decl>
    <function-decl name='memchr' filepath='/usr/include/string.h' line='92' column='1' visibility='default' binding='global' size-in-bits='64'>
      <parameter type-id='type-id-8'/>
      <parameter type-id='type-id-11'/>
      <parameter type-id='type-id-33'/>
      <return type-id='type-id-8'/>
    </function-decl>
    <function-decl name='memcmp' filepath='/usr/include/string.h' line='65' column='1' visibility='default' binding='global' size-in-bits='64'>
      <parameter type-id='type-id-8'/>
      <parameter type-id='type-id-8'/>
      <parameter type-id='type-id-33'/>
      <return type-id='type-id-11'/>
    </function-decl>
    <function-decl name='memcpy' filepath='/usr/include/string.h' line='42' column='1' visibility='default' binding='global' size-in-bits='64'>
      <parameter type-id='type-id-245'/>
      <parameter type-id='type-id-245'/>
      <parameter type-id='type-id-33'/>
      <return type-id='type-id-8'/>
    </function-decl>
    <function-decl name='memmove' filepath='/usr/include/string.h' line='46' column='1' visibility='default' binding='global' size-in-bits='64'>
      <parameter type-id='type-id-8'/>
      <parameter type-id='type-id-8'/>
      <parameter type-id='type-id-33'/>
      <return type-id='type-id-8'/>
    </function-decl>
    <function-decl name='memset' filepath='/usr/include/string.h' line='62' column='1' visibility='default' binding='global' size-in-bits='64'>
      <parameter type-id='type-id-8'/>
      <parameter type-id='type-id-11'/>
      <parameter type-id='type-id-33'/>
      <return type-id='type-id-8'/>
    </function-decl>
    <function-decl name='strcat' filepath='/usr/include/string.h' line='133' column='1' visibility='default' binding='global' size-in-bits='64'>
      <parameter type-id='type-id-123'/>
      <parameter type-id='type-id-188'/>
      <return type-id='type-id-122'/>
    </function-decl>
    <function-decl name='strcmp' filepath='/usr/include/string.h' line='140' column='1' visibility='default' binding='global' size-in-bits='64'>
      <parameter type-id='type-id-44'/>
      <parameter type-id='type-id-44'/>
      <return type-id='type-id-11'/>
    </function-decl>
    <function-decl name='strcoll' filepath='/usr/include/string.h' line='147' column='1' visibility='default' binding='global' size-in-bits='64'>
      <parameter type-id='type-id-44'/>
      <parameter type-id='type-id-44'/>
      <return type-id='type-id-11'/>
    </function-decl>
    <function-decl name='strcpy' filepath='/usr/include/string.h' line='125' column='1' visibility='default' binding='global' size-in-bits='64'>
      <parameter type-id='type-id-123'/>
      <parameter type-id='type-id-188'/>
      <return type-id='type-id-122'/>
    </function-decl>
    <function-decl name='strcspn' filepath='/usr/include/string.h' line='280' column='1' visibility='default' binding='global' size-in-bits='64'>
      <parameter type-id='type-id-44'/>
      <parameter type-id='type-id-44'/>
      <return type-id='type-id-33'/>
    </function-decl>
    <function-decl name='strerror' filepath='/usr/include/string.h' line='408' column='1' visibility='default' binding='global' size-in-bits='64'>
      <parameter type-id='type-id-11'/>
      <return type-id='type-id-122'/>
    </function-decl>
    <function-decl name='strlen' filepath='/usr/include/string.h' line='394' column='1' visibility='default' binding='global' size-in-bits='64'>
      <parameter type-id='type-id-44'/>
      <return type-id='type-id-33'/>
    </function-decl>
    <function-decl name='strncat' filepath='/usr/include/string.h' line='136' column='1' visibility='default' binding='global' size-in-bits='64'>
      <parameter type-id='type-id-123'/>
      <parameter type-id='type-id-188'/>
      <parameter type-id='type-id-33'/>
      <return type-id='type-id-122'/>
    </function-decl>
    <function-decl name='strncmp' filepath='/usr/include/string.h' line='143' column='1' visibility='default' binding='global' size-in-bits='64'>
      <parameter type-id='type-id-44'/>
      <parameter type-id='type-id-44'/>
      <parameter type-id='type-id-33'/>
      <return type-id='type-id-11'/>
    </function-decl>
    <function-decl name='strncpy' filepath='/usr/include/string.h' line='128' column='1' visibility='default' binding='global' size-in-bits='64'>
      <parameter type-id='type-id-123'/>
      <parameter type-id='type-id-188'/>
      <parameter type-id='type-id-33'/>
      <return type-id='type-id-122'/>
    </function-decl>
    <function-decl name='strspn' filepath='/usr/include/string.h' line='284' column='1' visibility='default' binding='global' size-in-bits='64'>
      <parameter type-id='type-id-44'/>
      <parameter type-id='type-id-44'/>
      <return type-id='type-id-33'/>
    </function-decl>
    <function-decl name='strtok' filepath='/usr/include/string.h' line='343' column='1' visibility='default' binding='global' size-in-bits='64'>
      <parameter type-id='type-id-123'/>
      <parameter type-id='type-id-188'/>
      <return type-id='type-id-122'/>
    </function-decl>
    <function-decl name='strxfrm' filepath='/usr/include/string.h' line='150' column='1' visibility='default' binding='global' size-in-bits='64'>
      <parameter type-id='type-id-123'/>
      <parameter type-id='type-id-188'/>
      <parameter type-id='type-id-33'/>
      <return type-id='type-id-33'/>
    </function-decl>
    <function-decl name='strchr' filepath='/usr/include/string.h' line='231' column='1' visibility='default' binding='global' size-in-bits='64'>
      <parameter type-id='type-id-44'/>
      <parameter type-id='type-id-11'/>
      <return type-id='type-id-122'/>
    </function-decl>
    <function-decl name='strpbrk' filepath='/usr/include/string.h' line='310' column='1' visibility='default' binding='global' size-in-bits='64'>
      <parameter type-id='type-id-44'/>
      <parameter type-id='type-id-44'/>
      <return type-id='type-id-122'/>
    </function-decl>
    <function-decl name='strrchr' filepath='/usr/include/string.h' line='258' column='1' visibility='default' binding='global' size-in-bits='64'>
      <parameter type-id='type-id-44'/>
      <parameter type-id='type-id-11'/>
      <return type-id='type-id-122'/>
    </function-decl>
    <function-decl name='strstr' filepath='/usr/include/string.h' line='337' column='1' visibility='default' binding='global' size-in-bits='64'>
      <parameter type-id='type-id-44'/>
      <parameter type-id='type-id-44'/>
      <return type-id='type-id-122'/>
    </function-decl>
    <function-decl name='clock' filepath='/usr/include/time.h' line='189' column='1' visibility='default' binding='global' size-in-bits='64'>
      <return type-id='type-id-50'/>
    </function-decl>
    <function-decl name='difftime' filepath='/usr/include/time.h' line='195' column='1' visibility='default' binding='global' size-in-bits='64'>
      <parameter type-id='type-id-52'/>
      <parameter type-id='type-id-52'/>
      <return type-id='type-id-9'/>
    </function-decl>
    <function-decl name='mktime' filepath='/usr/include/time.h' line='199' column='1' visibility='default' binding='global' size-in-bits='64'>
      <parameter type-id='type-id-242'/>
      <return type-id='type-id-52'/>
    </function-decl>
    <function-decl name='time' filepath='/usr/include/time.h' line='192' column='1' visibility='default' binding='global' size-in-bits='64'>
      <parameter type-id='type-id-241'/>
      <return type-id='type-id-52'/>
    </function-decl>
    <function-decl name='asctime' filepath='/usr/include/time.h' line='261' column='1' visibility='default' binding='global' size-in-bits='64'>
      <parameter type-id='type-id-221'/>
      <return type-id='type-id-122'/>
    </function-decl>
    <function-decl name='ctime' filepath='/usr/include/time.h' line='264' column='1' visibility='default' binding='global' size-in-bits='64'>
      <parameter type-id='type-id-219'/>
      <return type-id='type-id-122'/>
    </function-decl>
    <function-decl name='gmtime' filepath='/usr/include/time.h' line='239' column='1' visibility='default' binding='global' size-in-bits='64'>
      <parameter type-id='type-id-219'/>
      <return type-id='type-id-242'/>
    </function-decl>
    <function-decl name='localtime' filepath='/usr/include/time.h' line='243' column='1' visibility='default' binding='global' size-in-bits='64'>
      <parameter type-id='type-id-219'/>
      <return type-id='type-id-242'/>
    </function-decl>
    <function-decl name='strftime' filepath='/usr/include/time.h' line='205' column='1' visibility='default' binding='global' size-in-bits='64'>
      <parameter type-id='type-id-123'/>
      <parameter type-id='type-id-33'/>
      <parameter type-id='type-id-188'/>
      <parameter type-id='type-id-222'/>
      <return type-id='type-id-33'/>
    </function-decl>
    <function-decl name='acos' filepath='/usr/include/x86_64-linux-gnu/bits/mathcalls.h' line='54' column='1' visibility='default' binding='global' size-in-bits='64'>
      <parameter type-id='type-id-9'/>
      <return type-id='type-id-9'/>
    </function-decl>
    <function-decl name='asin' filepath='/usr/include/x86_64-linux-gnu/bits/mathcalls.h' line='56' column='1' visibility='default' binding='global' size-in-bits='64'>
      <parameter type-id='type-id-9'/>
      <return type-id='type-id-9'/>
    </function-decl>
    <function-decl name='atan' filepath='/usr/include/x86_64-linux-gnu/bits/mathcalls.h' line='58' column='1' visibility='default' binding='global' size-in-bits='64'>
      <parameter type-id='type-id-9'/>
      <return type-id='type-id-9'/>
    </function-decl>
    <function-decl name='atan2' filepath='/usr/include/x86_64-linux-gnu/bits/mathcalls.h' line='60' column='1' visibility='default' binding='global' size-in-bits='64'>
      <parameter type-id='type-id-9'/>
      <parameter type-id='type-id-9'/>
      <return type-id='type-id-9'/>
    </function-decl>
    <function-decl name='ceil' filepath='/usr/include/x86_64-linux-gnu/bits/mathcalls.h' line='178' column='1' visibility='default' binding='global' size-in-bits='64'>
      <parameter type-id='type-id-9'/>
      <return type-id='type-id-9'/>
    </function-decl>
    <function-decl name='cos' filepath='/usr/include/x86_64-linux-gnu/bits/mathcalls.h' line='63' column='1' visibility='default' binding='global' size-in-bits='64'>
      <parameter type-id='type-id-9'/>
      <return type-id='type-id-9'/>
    </function-decl>
    <function-decl name='cosh' filepath='/usr/include/x86_64-linux-gnu/bits/mathcalls.h' line='72' column='1' visibility='default' binding='global' size-in-bits='64'>
      <parameter type-id='type-id-9'/>
      <return type-id='type-id-9'/>
    </function-decl>
    <function-decl name='exp' filepath='/usr/include/x86_64-linux-gnu/bits/mathcalls.h' line='100' column='1' visibility='default' binding='global' size-in-bits='64'>
      <parameter type-id='type-id-9'/>
      <return type-id='type-id-9'/>
    </function-decl>
    <function-decl name='fabs' filepath='/usr/include/x86_64-linux-gnu/bits/mathcalls.h' line='181' column='1' visibility='default' binding='global' size-in-bits='64'>
      <parameter type-id='type-id-9'/>
      <return type-id='type-id-9'/>
    </function-decl>
    <function-decl name='floor' filepath='/usr/include/x86_64-linux-gnu/bits/mathcalls.h' line='184' column='1' visibility='default' binding='global' size-in-bits='64'>
      <parameter type-id='type-id-9'/>
      <return type-id='type-id-9'/>
    </function-decl>
    <function-decl name='fmod' filepath='/usr/include/x86_64-linux-gnu/bits/mathcalls.h' line='187' column='1' visibility='default' binding='global' size-in-bits='64'>
      <parameter type-id='type-id-9'/>
      <parameter type-id='type-id-9'/>
      <return type-id='type-id-9'/>
    </function-decl>
    <function-decl name='frexp' filepath='/usr/include/x86_64-linux-gnu/bits/mathcalls.h' line='103' column='1' visibility='default' binding='global' size-in-bits='64'>
      <parameter type-id='type-id-9'/>
      <parameter type-id='type-id-232'/>
      <return type-id='type-id-9'/>
    </function-decl>
    <function-decl name='ldexp' filepath='/usr/include/x86_64-linux-gnu/bits/mathcalls.h' line='106' column='1' visibility='default' binding='global' size-in-bits='64'>
      <parameter type-id='type-id-9'/>
      <parameter type-id='type-id-11'/>
      <return type-id='type-id-9'/>
    </function-decl>
    <function-decl name='log' filepath='/usr/include/x86_64-linux-gnu/bits/mathcalls.h' line='109' column='1' visibility='default' binding='global' size-in-bits='64'>
      <parameter type-id='type-id-9'/>
      <return type-id='type-id-9'/>
    </function-decl>
    <function-decl name='log10' filepath='/usr/include/x86_64-linux-gnu/bits/mathcalls.h' line='112' column='1' visibility='default' binding='global' size-in-bits='64'>
      <parameter type-id='type-id-9'/>
      <return type-id='type-id-9'/>
    </function-decl>
    <function-decl name='modf' filepath='/usr/include/x86_64-linux-gnu/bits/mathcalls.h' line='115' column='1' visibility='default' binding='global' size-in-bits='64'>
      <parameter type-id='type-id-9'/>
      <parameter type-id='type-id-228'/>
      <return type-id='type-id-9'/>
    </function-decl>
    <function-decl name='pow' filepath='/usr/include/x86_64-linux-gnu/bits/mathcalls.h' line='153' column='1' visibility='default' binding='global' size-in-bits='64'>
      <parameter type-id='type-id-9'/>
      <parameter type-id='type-id-9'/>
      <return type-id='type-id-9'/>
    </function-decl>
    <function-decl name='sin' filepath='/usr/include/x86_64-linux-gnu/bits/mathcalls.h' line='65' column='1' visibility='default' binding='global' size-in-bits='64'>
      <parameter type-id='type-id-9'/>
      <return type-id='type-id-9'/>
    </function-decl>
    <function-decl name='sinh' filepath='/usr/include/x86_64-linux-gnu/bits/mathcalls.h' line='74' column='1' visibility='default' binding='global' size-in-bits='64'>
      <parameter type-id='type-id-9'/>
      <return type-id='type-id-9'/>
    </function-decl>
    <function-decl name='sqrt' filepath='/usr/include/x86_64-linux-gnu/bits/mathcalls.h' line='156' column='1' visibility='default' binding='global' size-in-bits='64'>
      <parameter type-id='type-id-9'/>
      <return type-id='type-id-9'/>
    </function-decl>
    <function-decl name='tan' filepath='/usr/include/x86_64-linux-gnu/bits/mathcalls.h' line='67' column='1' visibility='default' binding='global' size-in-bits='64'>
      <parameter type-id='type-id-9'/>
      <return type-id='type-id-9'/>
    </function-decl>
    <function-decl name='tanh' filepath='/usr/include/x86_64-linux-gnu/bits/mathcalls.h' line='76' column='1' visibility='default' binding='global' size-in-bits='64'>
      <parameter type-id='type-id-9'/>
      <return type-id='type-id-9'/>
    </function-decl>
    <function-decl name='acosh' filepath='/usr/include/x86_64-linux-gnu/bits/mathcalls.h' line='88' column='1' visibility='default' binding='global' size-in-bits='64'>
      <parameter type-id='type-id-9'/>
      <return type-id='type-id-9'/>
    </function-decl>
    <function-decl name='acoshf' filepath='/usr/include/x86_64-linux-gnu/bits/mathcalls.h' line='88' column='1' visibility='default' binding='global' size-in-bits='64'>
      <parameter type-id='type-id-10'/>
      <return type-id='type-id-10'/>
    </function-decl>
    <function-decl name='acoshl' filepath='/usr/include/x86_64-linux-gnu/bits/mathcalls.h' line='88' column='1' visibility='default' binding='global' size-in-bits='64'>
      <parameter type-id='type-id-12'/>
      <return type-id='type-id-12'/>
    </function-decl>
    <function-decl name='asinh' filepath='/usr/include/x86_64-linux-gnu/bits/mathcalls.h' line='90' column='1' visibility='default' binding='global' size-in-bits='64'>
      <parameter type-id='type-id-9'/>
      <return type-id='type-id-9'/>
    </function-decl>
    <function-decl name='asinhf' filepath='/usr/include/x86_64-linux-gnu/bits/mathcalls.h' line='90' column='1' visibility='default' binding='global' size-in-bits='64'>
      <parameter type-id='type-id-10'/>
      <return type-id='type-id-10'/>
    </function-decl>
    <function-decl name='asinhl' filepath='/usr/include/x86_64-linux-gnu/bits/mathcalls.h' line='90' column='1' visibility='default' binding='global' size-in-bits='64'>
      <parameter type-id='type-id-12'/>
      <return type-id='type-id-12'/>
    </function-decl>
    <function-decl name='atanh' filepath='/usr/include/x86_64-linux-gnu/bits/mathcalls.h' line='92' column='1' visibility='default' binding='global' size-in-bits='64'>
      <parameter type-id='type-id-9'/>
      <return type-id='type-id-9'/>
    </function-decl>
    <function-decl name='atanhf' filepath='/usr/include/x86_64-linux-gnu/bits/mathcalls.h' line='92' column='1' visibility='default' binding='global' size-in-bits='64'>
      <parameter type-id='type-id-10'/>
      <return type-id='type-id-10'/>
    </function-decl>
    <function-decl name='atanhl' filepath='/usr/include/x86_64-linux-gnu/bits/mathcalls.h' line='92' column='1' visibility='default' binding='global' size-in-bits='64'>
      <parameter type-id='type-id-12'/>
      <return type-id='type-id-12'/>
    </function-decl>
    <function-decl name='cbrt' filepath='/usr/include/x86_64-linux-gnu/bits/mathcalls.h' line='169' column='1' visibility='default' binding='global' size-in-bits='64'>
      <parameter type-id='type-id-9'/>
      <return type-id='type-id-9'/>
    </function-decl>
    <function-decl name='cbrtf' filepath='/usr/include/x86_64-linux-gnu/bits/mathcalls.h' line='169' column='1' visibility='default' binding='global' size-in-bits='64'>
      <parameter type-id='type-id-10'/>
      <return type-id='type-id-10'/>
    </function-decl>
    <function-decl name='cbrtl' filepath='/usr/include/x86_64-linux-gnu/bits/mathcalls.h' line='169' column='1' visibility='default' binding='global' size-in-bits='64'>
      <parameter type-id='type-id-12'/>
      <return type-id='type-id-12'/>
    </function-decl>
    <function-decl name='copysign' filepath='/usr/include/x86_64-linux-gnu/bits/mathcalls.h' line='221' column='1' visibility='default' binding='global' size-in-bits='64'>
      <parameter type-id='type-id-9'/>
      <parameter type-id='type-id-9'/>
      <return type-id='type-id-9'/>
    </function-decl>
    <function-decl name='copysignf' filepath='/usr/include/x86_64-linux-gnu/bits/mathcalls.h' line='221' column='1' visibility='default' binding='global' size-in-bits='64'>
      <parameter type-id='type-id-10'/>
      <parameter type-id='type-id-10'/>
      <return type-id='type-id-10'/>
    </function-decl>
    <function-decl name='copysignl' filepath='/usr/include/x86_64-linux-gnu/bits/mathcalls.h' line='221' column='1' visibility='default' binding='global' size-in-bits='64'>
      <parameter type-id='type-id-12'/>
      <parameter type-id='type-id-12'/>
      <return type-id='type-id-12'/>
    </function-decl>
    <function-decl name='erf' filepath='/usr/include/x86_64-linux-gnu/bits/mathcalls.h' line='259' column='1' visibility='default' binding='global' size-in-bits='64'>
      <parameter type-id='type-id-9'/>
      <return type-id='type-id-9'/>
    </function-decl>
    <function-decl name='erff' filepath='/usr/include/x86_64-linux-gnu/bits/mathcalls.h' line='259' column='1' visibility='default' binding='global' size-in-bits='64'>
      <parameter type-id='type-id-10'/>
      <return type-id='type-id-10'/>
    </function-decl>
    <function-decl name='erfl' filepath='/usr/include/x86_64-linux-gnu/bits/mathcalls.h' line='259' column='1' visibility='default' binding='global' size-in-bits='64'>
      <parameter type-id='type-id-12'/>
      <return type-id='type-id-12'/>
    </function-decl>
    <function-decl name='erfc' filepath='/usr/include/x86_64-linux-gnu/bits/mathcalls.h' line='260' column='1' visibility='default' binding='global' size-in-bits='64'>
      <parameter type-id='type-id-9'/>
      <return type-id='type-id-9'/>
    </function-decl>
    <function-decl name='erfcf' filepath='/usr/include/x86_64-linux-gnu/bits/mathcalls.h' line='260' column='1' visibility='default' binding='global' size-in-bits='64'>
      <parameter type-id='type-id-10'/>
      <return type-id='type-id-10'/>
    </function-decl>
    <function-decl name='erfcl' filepath='/usr/include/x86_64-linux-gnu/bits/mathcalls.h' line='260' column='1' visibility='default' binding='global' size-in-bits='64'>
      <parameter type-id='type-id-12'/>
      <return type-id='type-id-12'/>
    </function-decl>
    <function-decl name='exp2' filepath='/usr/include/x86_64-linux-gnu/bits/mathcalls.h' line='141' column='1' visibility='default' binding='global' size-in-bits='64'>
      <parameter type-id='type-id-9'/>
      <return type-id='type-id-9'/>
    </function-decl>
    <function-decl name='exp2f' filepath='/usr/include/x86_64-linux-gnu/bits/mathcalls.h' line='141' column='1' visibility='default' binding='global' size-in-bits='64'>
      <parameter type-id='type-id-10'/>
      <return type-id='type-id-10'/>
    </function-decl>
    <function-decl name='exp2l' filepath='/usr/include/x86_64-linux-gnu/bits/mathcalls.h' line='141' column='1' visibility='default' binding='global' size-in-bits='64'>
      <parameter type-id='type-id-12'/>
      <return type-id='type-id-12'/>
    </function-decl>
    <function-decl name='expm1' filepath='/usr/include/x86_64-linux-gnu/bits/mathcalls.h' line='128' column='1' visibility='default' binding='global' size-in-bits='64'>
      <parameter type-id='type-id-9'/>
      <return type-id='type-id-9'/>
    </function-decl>
    <function-decl name='expm1f' filepath='/usr/include/x86_64-linux-gnu/bits/mathcalls.h' line='128' column='1' visibility='default' binding='global' size-in-bits='64'>
      <parameter type-id='type-id-10'/>
      <return type-id='type-id-10'/>
    </function-decl>
    <function-decl name='expm1l' filepath='/usr/include/x86_64-linux-gnu/bits/mathcalls.h' line='128' column='1' visibility='default' binding='global' size-in-bits='64'>
      <parameter type-id='type-id-12'/>
      <return type-id='type-id-12'/>
    </function-decl>
    <function-decl name='fdim' filepath='/usr/include/x86_64-linux-gnu/bits/mathcalls.h' line='347' column='1' visibility='default' binding='global' size-in-bits='64'>
      <parameter type-id='type-id-9'/>
      <parameter type-id='type-id-9'/>
      <return type-id='type-id-9'/>
    </function-decl>
    <function-decl name='fdimf' filepath='/usr/include/x86_64-linux-gnu/bits/mathcalls.h' line='347' column='1' visibility='default' binding='global' size-in-bits='64'>
      <parameter type-id='type-id-10'/>
      <parameter type-id='type-id-10'/>
      <return type-id='type-id-10'/>
    </function-decl>
    <function-decl name='fdiml' filepath='/usr/include/x86_64-linux-gnu/bits/mathcalls.h' line='347' column='1' visibility='default' binding='global' size-in-bits='64'>
      <parameter type-id='type-id-12'/>
      <parameter type-id='type-id-12'/>
      <return type-id='type-id-12'/>
    </function-decl>
    <function-decl name='fma' filepath='/usr/include/x86_64-linux-gnu/bits/mathcalls.h' line='366' column='1' visibility='default' binding='global' size-in-bits='64'>
      <parameter type-id='type-id-9'/>
      <parameter type-id='type-id-9'/>
      <parameter type-id='type-id-9'/>
      <return type-id='type-id-9'/>
    </function-decl>
    <function-decl name='fmaf' filepath='/usr/include/x86_64-linux-gnu/bits/mathcalls.h' line='366' column='1' visibility='default' binding='global' size-in-bits='64'>
      <parameter type-id='type-id-10'/>
      <parameter type-id='type-id-10'/>
      <parameter type-id='type-id-10'/>
      <return type-id='type-id-10'/>
    </function-decl>
    <function-decl name='fmal' filepath='/usr/include/x86_64-linux-gnu/bits/mathcalls.h' line='366' column='1' visibility='default' binding='global' size-in-bits='64'>
      <parameter type-id='type-id-12'/>
      <parameter type-id='type-id-12'/>
      <parameter type-id='type-id-12'/>
      <return type-id='type-id-12'/>
    </function-decl>
    <function-decl name='fmax' filepath='/usr/include/x86_64-linux-gnu/bits/mathcalls.h' line='350' column='1' visibility='default' binding='global' size-in-bits='64'>
      <parameter type-id='type-id-9'/>
      <parameter type-id='type-id-9'/>
      <return type-id='type-id-9'/>
    </function-decl>
    <function-decl name='fmaxf' filepath='/usr/include/x86_64-linux-gnu/bits/mathcalls.h' line='350' column='1' visibility='default' binding='global' size-in-bits='64'>
      <parameter type-id='type-id-10'/>
      <parameter type-id='type-id-10'/>
      <return type-id='type-id-10'/>
    </function-decl>
    <function-decl name='fmaxl' filepath='/usr/include/x86_64-linux-gnu/bits/mathcalls.h' line='350' column='1' visibility='default' binding='global' size-in-bits='64'>
      <parameter type-id='type-id-12'/>
      <parameter type-id='type-id-12'/>
      <return type-id='type-id-12'/>
    </function-decl>
    <function-decl name='fmin' filepath='/usr/include/x86_64-linux-gnu/bits/mathcalls.h' line='353' column='1' visibility='default' binding='global' size-in-bits='64'>
      <parameter type-id='type-id-9'/>
      <parameter type-id='type-id-9'/>
      <return type-id='type-id-9'/>
    </function-decl>
    <function-decl name='fminf' filepath='/usr/include/x86_64-linux-gnu/bits/mathcalls.h' line='353' column='1' visibility='default' binding='global' size-in-bits='64'>
      <parameter type-id='type-id-10'/>
      <parameter type-id='type-id-10'/>
      <return type-id='type-id-10'/>
    </function-decl>
    <function-decl name='fminl' filepath='/usr/include/x86_64-linux-gnu/bits/mathcalls.h' line='353' column='1' visibility='default' binding='global' size-in-bits='64'>
      <parameter type-id='type-id-12'/>
      <parameter type-id='type-id-12'/>
      <return type-id='type-id-12'/>
    </function-decl>
    <function-decl name='hypot' filepath='/usr/include/x86_64-linux-gnu/bits/mathcalls.h' line='162' column='1' visibility='default' binding='global' size-in-bits='64'>
      <parameter type-id='type-id-9'/>
      <parameter type-id='type-id-9'/>
      <return type-id='type-id-9'/>
    </function-decl>
    <function-decl name='hypotf' filepath='/usr/include/x86_64-linux-gnu/bits/mathcalls.h' line='162' column='1' visibility='default' binding='global' size-in-bits='64'>
      <parameter type-id='type-id-10'/>
      <parameter type-id='type-id-10'/>
      <return type-id='type-id-10'/>
    </function-decl>
    <function-decl name='hypotl' filepath='/usr/include/x86_64-linux-gnu/bits/mathcalls.h' line='162' column='1' visibility='default' binding='global' size-in-bits='64'>
      <parameter type-id='type-id-12'/>
      <parameter type-id='type-id-12'/>
      <return type-id='type-id-12'/>
    </function-decl>
    <function-decl name='ilogb' filepath='/usr/include/x86_64-linux-gnu/bits/mathcalls.h' line='306' column='1' visibility='default' binding='global' size-in-bits='64'>
      <parameter type-id='type-id-9'/>
      <return type-id='type-id-11'/>
    </function-decl>
    <function-decl name='ilogbf' filepath='/usr/include/x86_64-linux-gnu/bits/mathcalls.h' line='306' column='1' visibility='default' binding='global' size-in-bits='64'>
      <parameter type-id='type-id-10'/>
      <return type-id='type-id-11'/>
    </function-decl>
    <function-decl name='ilogbl' filepath='/usr/include/x86_64-linux-gnu/bits/mathcalls.h' line='306' column='1' visibility='default' binding='global' size-in-bits='64'>
      <parameter type-id='type-id-12'/>
      <return type-id='type-id-11'/>
    </function-decl>
    <function-decl name='lgamma' filepath='/usr/include/x86_64-linux-gnu/bits/mathcalls.h' line='261' column='1' visibility='default' binding='global' size-in-bits='64'>
      <parameter type-id='type-id-9'/>
      <return type-id='type-id-9'/>
    </function-decl>
    <function-decl name='lgammaf' filepath='/usr/include/x86_64-linux-gnu/bits/mathcalls.h' line='261' column='1' visibility='default' binding='global' size-in-bits='64'>
      <parameter type-id='type-id-10'/>
      <return type-id='type-id-10'/>
    </function-decl>
    <function-decl name='lgammal' filepath='/usr/include/x86_64-linux-gnu/bits/mathcalls.h' line='261' column='1' visibility='default' binding='global' size-in-bits='64'>
      <parameter type-id='type-id-12'/>
      <return type-id='type-id-12'/>
    </function-decl>
    <function-decl name='llrint' filepath='/usr/include/x86_64-linux-gnu/bits/mathcalls.h' line='337' column='1' visibility='default' binding='global' size-in-bits='64'>
      <parameter type-id='type-id-9'/>
      <return type-id='type-id-14'/>
    </function-decl>
    <function-decl name='llrintf' filepath='/usr/include/x86_64-linux-gnu/bits/mathcalls.h' line='337' column='1' visibility='default' binding='global' size-in-bits='64'>
      <parameter type-id='type-id-10'/>
      <return type-id='type-id-14'/>
    </function-decl>
    <function-decl name='llrintl' filepath='/usr/include/x86_64-linux-gnu/bits/mathcalls.h' line='337' column='1' visibility='default' binding='global' size-in-bits='64'>
      <parameter type-id='type-id-12'/>
      <return type-id='type-id-14'/>
    </function-decl>
    <function-decl name='llround' filepath='/usr/include/x86_64-linux-gnu/bits/mathcalls.h' line='343' column='1' visibility='default' binding='global' size-in-bits='64'>
      <parameter type-id='type-id-9'/>
      <return type-id='type-id-14'/>
    </function-decl>
    <function-decl name='llroundf' filepath='/usr/include/x86_64-linux-gnu/bits/mathcalls.h' line='343' column='1' visibility='default' binding='global' size-in-bits='64'>
      <parameter type-id='type-id-10'/>
      <return type-id='type-id-14'/>
    </function-decl>
    <function-decl name='llroundl' filepath='/usr/include/x86_64-linux-gnu/bits/mathcalls.h' line='343' column='1' visibility='default' binding='global' size-in-bits='64'>
      <parameter type-id='type-id-12'/>
      <return type-id='type-id-14'/>
    </function-decl>
    <function-decl name='log1p' filepath='/usr/include/x86_64-linux-gnu/bits/mathcalls.h' line='131' column='1' visibility='default' binding='global' size-in-bits='64'>
      <parameter type-id='type-id-9'/>
      <return type-id='type-id-9'/>
    </function-decl>
    <function-decl name='log1pf' filepath='/usr/include/x86_64-linux-gnu/bits/mathcalls.h' line='131' column='1' visibility='default' binding='global' size-in-bits='64'>
      <parameter type-id='type-id-10'/>
      <return type-id='type-id-10'/>
    </function-decl>
    <function-decl name='log1pl' filepath='/usr/include/x86_64-linux-gnu/bits/mathcalls.h' line='131' column='1' visibility='default' binding='global' size-in-bits='64'>
      <parameter type-id='type-id-12'/>
      <return type-id='type-id-12'/>
    </function-decl>
    <function-decl name='log2' filepath='/usr/include/x86_64-linux-gnu/bits/mathcalls.h' line='144' column='1' visibility='default' binding='global' size-in-bits='64'>
      <parameter type-id='type-id-9'/>
      <return type-id='type-id-9'/>
    </function-decl>
    <function-decl name='log2f' filepath='/usr/include/x86_64-linux-gnu/bits/mathcalls.h' line='144' column='1' visibility='default' binding='global' size-in-bits='64'>
      <parameter type-id='type-id-10'/>
      <return type-id='type-id-10'/>
    </function-decl>
    <function-decl name='log2l' filepath='/usr/include/x86_64-linux-gnu/bits/mathcalls.h' line='144' column='1' visibility='default' binding='global' size-in-bits='64'>
      <parameter type-id='type-id-12'/>
      <return type-id='type-id-12'/>
    </function-decl>
    <function-decl name='logb' filepath='/usr/include/x86_64-linux-gnu/bits/mathcalls.h' line='134' column='1' visibility='default' binding='global' size-in-bits='64'>
      <parameter type-id='type-id-9'/>
      <return type-id='type-id-9'/>
    </function-decl>
    <function-decl name='logbf' filepath='/usr/include/x86_64-linux-gnu/bits/mathcalls.h' line='134' column='1' visibility='default' binding='global' size-in-bits='64'>
      <parameter type-id='type-id-10'/>
      <return type-id='type-id-10'/>
    </function-decl>
    <function-decl name='logbl' filepath='/usr/include/x86_64-linux-gnu/bits/mathcalls.h' line='134' column='1' visibility='default' binding='global' size-in-bits='64'>
      <parameter type-id='type-id-12'/>
      <return type-id='type-id-12'/>
    </function-decl>
    <function-decl name='lrint' filepath='/usr/include/x86_64-linux-gnu/bits/mathcalls.h' line='335' column='1' visibility='default' binding='global' size-in-bits='64'>
      <parameter type-id='type-id-9'/>
      <return type-id='type-id-13'/>
    </function-decl>
    <function-decl name='lrintf' filepath='/usr/include/x86_64-linux-gnu/bits/mathcalls.h' line='335' column='1' visibility='default' binding='global' size-in-bits='64'>
      <parameter type-id='type-id-10'/>
      <return type-id='type-id-13'/>
    </function-decl>
    <function-decl name='lrintl' filepath='/usr/include/x86_64-linux-gnu/bits/mathcalls.h' line='335' column='1' visibility='default' binding='global' size-in-bits='64'>
      <parameter type-id='type-id-12'/>
      <return type-id='type-id-13'/>
    </function-decl>
    <function-decl name='lround' filepath='/usr/include/x86_64-linux-gnu/bits/mathcalls.h' line='341' column='1' visibility='default' binding='global' size-in-bits='64'>
      <parameter type-id='type-id-9'/>
      <return type-id='type-id-13'/>
    </function-decl>
    <function-decl name='lroundf' filepath='/usr/include/x86_64-linux-gnu/bits/mathcalls.h' line='341' column='1' visibility='default' binding='global' size-in-bits='64'>
      <parameter type-id='type-id-10'/>
      <return type-id='type-id-13'/>
    </function-decl>
    <function-decl name='lroundl' filepath='/usr/include/x86_64-linux-gnu/bits/mathcalls.h' line='341' column='1' visibility='default' binding='global' size-in-bits='64'>
      <parameter type-id='type-id-12'/>
      <return type-id='type-id-13'/>
    </function-decl>
    <function-decl name='nan' filepath='/usr/include/x86_64-linux-gnu/bits/mathcalls.h' line='228' column='1' visibility='default' binding='global' size-in-bits='64'>
      <parameter type-id='type-id-44'/>
      <return type-id='type-id-9'/>
    </function-decl>
    <function-decl name='nanf' filepath='/usr/include/x86_64-linux-gnu/bits/mathcalls.h' line='228' column='1' visibility='default' binding='global' size-in-bits='64'>
      <parameter type-id='type-id-44'/>
      <return type-id='type-id-10'/>
    </function-decl>
    <function-decl name='nanl' filepath='/usr/include/x86_64-linux-gnu/bits/mathcalls.h' line='228' column='1' visibility='default' binding='global' size-in-bits='64'>
      <parameter type-id='type-id-44'/>
      <return type-id='type-id-12'/>
    </function-decl>
    <function-decl name='nearbyint' filepath='/usr/include/x86_64-linux-gnu/bits/mathcalls.h' line='315' column='1' visibility='default' binding='global' size-in-bits='64'>
      <parameter type-id='type-id-9'/>
      <return type-id='type-id-9'/>
    </function-decl>
    <function-decl name='nearbyintf' filepath='/usr/include/x86_64-linux-gnu/bits/mathcalls.h' line='315' column='1' visibility='default' binding='global' size-in-bits='64'>
      <parameter type-id='type-id-10'/>
      <return type-id='type-id-10'/>
    </function-decl>
    <function-decl name='nearbyintl' filepath='/usr/include/x86_64-linux-gnu/bits/mathcalls.h' line='315' column='1' visibility='default' binding='global' size-in-bits='64'>
      <parameter type-id='type-id-12'/>
      <return type-id='type-id-12'/>
    </function-decl>
    <function-decl name='nextafter' filepath='/usr/include/x86_64-linux-gnu/bits/mathcalls.h' line='292' column='1' visibility='default' binding='global' size-in-bits='64'>
      <parameter type-id='type-id-9'/>
      <parameter type-id='type-id-9'/>
      <return type-id='type-id-9'/>
    </function-decl>
    <function-decl name='nextafterf' filepath='/usr/include/x86_64-linux-gnu/bits/mathcalls.h' line='292' column='1' visibility='default' binding='global' size-in-bits='64'>
      <parameter type-id='type-id-10'/>
      <parameter type-id='type-id-10'/>
      <return type-id='type-id-10'/>
    </function-decl>
    <function-decl name='nextafterl' filepath='/usr/include/x86_64-linux-gnu/bits/mathcalls.h' line='292' column='1' visibility='default' binding='global' size-in-bits='64'>
      <parameter type-id='type-id-12'/>
      <parameter type-id='type-id-12'/>
      <return type-id='type-id-12'/>
    </function-decl>
    <function-decl name='nexttoward' filepath='/usr/include/x86_64-linux-gnu/bits/mathcalls.h' line='294' column='1' visibility='default' binding='global' size-in-bits='64'>
      <parameter type-id='type-id-9'/>
      <parameter type-id='type-id-12'/>
      <return type-id='type-id-9'/>
    </function-decl>
    <function-decl name='nexttowardf' filepath='/usr/include/x86_64-linux-gnu/bits/mathcalls.h' line='294' column='1' visibility='default' binding='global' size-in-bits='64'>
      <parameter type-id='type-id-10'/>
      <parameter type-id='type-id-12'/>
      <return type-id='type-id-10'/>
    </function-decl>
    <function-decl name='nexttowardl' filepath='/usr/include/x86_64-linux-gnu/bits/mathcalls.h' line='294' column='1' visibility='default' binding='global' size-in-bits='64'>
      <parameter type-id='type-id-12'/>
      <parameter type-id='type-id-12'/>
      <return type-id='type-id-12'/>
    </function-decl>
    <function-decl name='remainder' filepath='/usr/include/x86_64-linux-gnu/bits/mathcalls.h' line='298' column='1' visibility='default' binding='global' size-in-bits='64'>
      <parameter type-id='type-id-9'/>
      <parameter type-id='type-id-9'/>
      <return type-id='type-id-9'/>
    </function-decl>
    <function-decl name='remainderf' filepath='/usr/include/x86_64-linux-gnu/bits/mathcalls.h' line='298' column='1' visibility='default' binding='global' size-in-bits='64'>
      <parameter type-id='type-id-10'/>
      <parameter type-id='type-id-10'/>
      <return type-id='type-id-10'/>
    </function-decl>
    <function-decl name='remainderl' filepath='/usr/include/x86_64-linux-gnu/bits/mathcalls.h' line='298' column='1' visibility='default' binding='global' size-in-bits='64'>
      <parameter type-id='type-id-12'/>
      <parameter type-id='type-id-12'/>
      <return type-id='type-id-12'/>
    </function-decl>
    <function-decl name='remquo' filepath='/usr/include/x86_64-linux-gnu/bits/mathcalls.h' line='328' column='1' visibility='default' binding='global' size-in-bits='64'>
      <parameter type-id='type-id-9'/>
      <parameter type-id='type-id-9'/>
      <parameter type-id='type-id-232'/>
      <return type-id='type-id-9'/>
    </function-decl>
    <function-decl name='remquof' filepath='/usr/include/x86_64-linux-gnu/bits/mathcalls.h' line='328' column='1' visibility='default' binding='global' size-in-bits='64'>
      <parameter type-id='type-id-10'/>
      <parameter type-id='type-id-10'/>
      <parameter type-id='type-id-232'/>
      <return type-id='type-id-10'/>
    </function-decl>
    <function-decl name='remquol' filepath='/usr/include/x86_64-linux-gnu/bits/mathcalls.h' line='328' column='1' visibility='default' binding='global' size-in-bits='64'>
      <parameter type-id='type-id-12'/>
      <parameter type-id='type-id-12'/>
      <parameter type-id='type-id-232'/>
      <return type-id='type-id-12'/>
    </function-decl>
    <function-decl name='rint' filepath='/usr/include/x86_64-linux-gnu/bits/mathcalls.h' line='289' column='1' visibility='default' binding='global' size-in-bits='64'>
      <parameter type-id='type-id-9'/>
      <return type-id='type-id-9'/>
    </function-decl>
    <function-decl name='rintf' filepath='/usr/include/x86_64-linux-gnu/bits/mathcalls.h' line='289' column='1' visibility='default' binding='global' size-in-bits='64'>
      <parameter type-id='type-id-10'/>
      <return type-id='type-id-10'/>
    </function-decl>
    <function-decl name='rintl' filepath='/usr/include/x86_64-linux-gnu/bits/mathcalls.h' line='289' column='1' visibility='default' binding='global' size-in-bits='64'>
      <parameter type-id='type-id-12'/>
      <return type-id='type-id-12'/>
    </function-decl>
    <function-decl name='round' filepath='/usr/include/x86_64-linux-gnu/bits/mathcalls.h' line='319' column='1' visibility='default' binding='global' size-in-bits='64'>
      <parameter type-id='type-id-9'/>
      <return type-id='type-id-9'/>
    </function-decl>
    <function-decl name='roundf' filepath='/usr/include/x86_64-linux-gnu/bits/mathcalls.h' line='319' column='1' visibility='default' binding='global' size-in-bits='64'>
      <parameter type-id='type-id-10'/>
      <return type-id='type-id-10'/>
    </function-decl>
    <function-decl name='roundl' filepath='/usr/include/x86_64-linux-gnu/bits/mathcalls.h' line='319' column='1' visibility='default' binding='global' size-in-bits='64'>
      <parameter type-id='type-id-12'/>
      <return type-id='type-id-12'/>
    </function-decl>
    <function-decl name='scalbln' filepath='/usr/include/x86_64-linux-gnu/bits/mathcalls.h' line='311' column='1' visibility='default' binding='global' size-in-bits='64'>
      <parameter type-id='type-id-9'/>
      <parameter type-id='type-id-13'/>
      <return type-id='type-id-9'/>
    </function-decl>
    <function-decl name='scalblnf' filepath='/usr/include/x86_64-linux-gnu/bits/mathcalls.h' line='311' column='1' visibility='default' binding='global' size-in-bits='64'>
      <parameter type-id='type-id-10'/>
      <parameter type-id='type-id-13'/>
      <return type-id='type-id-10'/>
    </function-decl>
    <function-decl name='scalblnl' filepath='/usr/include/x86_64-linux-gnu/bits/mathcalls.h' line='311' column='1' visibility='default' binding='global' size-in-bits='64'>
      <parameter type-id='type-id-12'/>
      <parameter type-id='type-id-13'/>
      <return type-id='type-id-12'/>
    </function-decl>
    <function-decl name='scalbn' filepath='/usr/include/x86_64-linux-gnu/bits/mathcalls.h' line='302' column='1' visibility='default' binding='global' size-in-bits='64'>
      <parameter type-id='type-id-9'/>
      <parameter type-id='type-id-11'/>
      <return type-id='type-id-9'/>
    </function-decl>
    <function-decl name='scalbnf' filepath='/usr/include/x86_64-linux-gnu/bits/mathcalls.h' line='302' column='1' visibility='default' binding='global' size-in-bits='64'>
      <parameter type-id='type-id-10'/>
      <parameter type-id='type-id-11'/>
      <return type-id='type-id-10'/>
    </function-decl>
    <function-decl name='scalbnl' filepath='/usr/include/x86_64-linux-gnu/bits/mathcalls.h' line='302' column='1' visibility='default' binding='global' size-in-bits='64'>
      <parameter type-id='type-id-12'/>
      <parameter type-id='type-id-11'/>
      <return type-id='type-id-12'/>
    </function-decl>
    <function-decl name='tgamma' filepath='/usr/include/x86_64-linux-gnu/bits/mathcalls.h' line='268' column='1' visibility='default' binding='global' size-in-bits='64'>
      <parameter type-id='type-id-9'/>
      <return type-id='type-id-9'/>
    </function-decl>
    <function-decl name='tgammaf' filepath='/usr/include/x86_64-linux-gnu/bits/mathcalls.h' line='268' column='1' visibility='default' binding='global' size-in-bits='64'>
      <parameter type-id='type-id-10'/>
      <return type-id='type-id-10'/>
    </function-decl>
    <function-decl name='tgammal' filepath='/usr/include/x86_64-linux-gnu/bits/mathcalls.h' line='268' column='1' visibility='default' binding='global' size-in-bits='64'>
      <parameter type-id='type-id-12'/>
      <return type-id='type-id-12'/>
    </function-decl>
    <function-decl name='trunc' filepath='/usr/include/x86_64-linux-gnu/bits/mathcalls.h' line='323' column='1' visibility='default' binding='global' size-in-bits='64'>
      <parameter type-id='type-id-9'/>
      <return type-id='type-id-9'/>
    </function-decl>
    <function-decl name='truncf' filepath='/usr/include/x86_64-linux-gnu/bits/mathcalls.h' line='323' column='1' visibility='default' binding='global' size-in-bits='64'>
      <parameter type-id='type-id-10'/>
      <return type-id='type-id-10'/>
    </function-decl>
    <function-decl name='truncl' filepath='/usr/include/x86_64-linux-gnu/bits/mathcalls.h' line='323' column='1' visibility='default' binding='global' size-in-bits='64'>
      <parameter type-id='type-id-12'/>
      <return type-id='type-id-12'/>
    </function-decl>
    <pointer-type-def type-id='type-id-298' size-in-bits='64' id='type-id-299'/>
    <pointer-type-def type-id='type-id-282' size-in-bits='64' id='type-id-289'/>
    <pointer-type-def type-id='type-id-291' size-in-bits='64' id='type-id-292'/>
    <class-decl name='_IO_FILE' size-in-bits='1728' is-struct='yes' visibility='default' is-declaration-only='yes' id='type-id-28'/>
    <class-decl name='lconv' size-in-bits='768' is-struct='yes' visibility='default' is-declaration-only='yes' id='type-id-233'/>
    <class-decl name='__anonymous_struct__2' size-in-bits='128' is-struct='yes' is-anonymous='yes' naming-typedef-id='type-id-30' visibility='default' is-declaration-only='yes' id='type-id-32'/>
    <class-decl name='__anonymous_struct__3' size-in-bits='64' is-struct='yes' is-anonymous='yes' naming-typedef-id='type-id-37' visibility='default' is-declaration-only='yes' id='type-id-36'/>
    <reference-type-def kind='lvalue' type-id='type-id-311' size-in-bits='64' id='type-id-300'/>
    <reference-type-def kind='lvalue' type-id='type-id-312' size-in-bits='64' id='type-id-290'/>
    <qualified-type-def type-id='type-id-284' const='yes' id='type-id-288'/>
    <reference-type-def kind='lvalue' type-id='type-id-313' size-in-bits='64' id='type-id-293'/>
    <function-type size-in-bits='64' id='type-id-231'>
      <parameter type-id='type-id-8'/>
      <parameter type-id='type-id-8'/>
      <return type-id='type-id-11'/>
    </function-type>
    <function-type size-in-bits='64' id='type-id-243'>
      <return type-id='type-id-19'/>
    </function-type>
    <qualified-type-def type-id='type-id-298' const='yes' id='type-id-311'/>
    <qualified-type-def type-id='type-id-282' const='yes' id='type-id-312'/>
    <qualified-type-def type-id='type-id-291' const='yes' id='type-id-313'/>
  </abi-instr>
  <abi-instr address-size='64' path='src/third_party/boost-1.60.0/libs/iostreams/src/mapped_file.cpp' comp-dir-path='/home/andrew/Documents/10gen/dev/src/mongodb' language='LANG_C_plus_plus'>
    <reference-type-def kind='lvalue' type-id='type-id-298' size-in-bits='64' id='type-id-314'/>
    <pointer-type-def type-id='type-id-298' size-in-bits='64' id='type-id-299'/>
    <pointer-type-def type-id='type-id-282' size-in-bits='64' id='type-id-289'/>
    <pointer-type-def type-id='type-id-291' size-in-bits='64' id='type-id-292'/>
    <reference-type-def kind='lvalue' type-id='type-id-108' size-in-bits='64' id='type-id-315'/>
    <qualified-type-def type-id='type-id-298' const='yes' id='type-id-311'/>
    <reference-type-def kind='lvalue' type-id='type-id-311' size-in-bits='64' id='type-id-300'/>
    <qualified-type-def type-id='type-id-282' const='yes' id='type-id-312'/>
    <reference-type-def kind='lvalue' type-id='type-id-312' size-in-bits='64' id='type-id-290'/>
    <pointer-type-def type-id='type-id-312' size-in-bits='64' id='type-id-316'/>
    <qualified-type-def type-id='type-id-284' const='yes' id='type-id-288'/>
    <qualified-type-def type-id='type-id-291' const='yes' id='type-id-313'/>
    <reference-type-def kind='lvalue' type-id='type-id-313' size-in-bits='64' id='type-id-293'/>
  </abi-instr>
</abi-corpus>
