<abi-corpus version='2.0' path='data/test-read-dwarf/test19-pr19023-libtcmalloc_and_profiler.so' soname='libtcmalloc_and_profiler.so.4'>
  <elf-needed>
    <dependency name='libunwind.so.8'/>
    <dependency name='libpthread.so.0'/>
    <dependency name='libstdc++.so.6'/>
    <dependency name='libm.so.6'/>
    <dependency name='libc.so.6'/>
    <dependency name='ld-linux-x86-64.so.2'/>
    <dependency name='libgcc_s.so.1'/>
  </elf-needed>
  <elf-function-symbols>
    <elf-symbol name='GetHeapProfile' type='func-type' binding='global-binding' visibility='default-visibility' is-defined='yes'/>
    <elf-symbol name='HeapProfilerDump' type='func-type' binding='global-binding' visibility='default-visibility' is-defined='yes'/>
    <elf-symbol name='HeapProfilerStart' type='func-type' binding='global-binding' visibility='default-visibility' is-defined='yes'/>
    <elf-symbol name='HeapProfilerStop' type='func-type' binding='global-binding' visibility='default-visibility' is-defined='yes'/>
    <elf-symbol name='IsHeapProfilerRunning' type='func-type' binding='global-binding' visibility='default-visibility' is-defined='yes'/>
    <elf-symbol name='MallocExtension_GetAllocatedSize' type='func-type' binding='global-binding' visibility='default-visibility' is-defined='yes'/>
    <elf-symbol name='MallocExtension_GetEstimatedAllocatedSize' type='func-type' binding='global-binding' visibility='default-visibility' is-defined='yes'/>
    <elf-symbol name='MallocExtension_GetNumericProperty' type='func-type' binding='global-binding' visibility='default-visibility' is-defined='yes'/>
    <elf-symbol name='MallocExtension_GetOwnership' type='func-type' binding='global-binding' visibility='default-visibility' is-defined='yes'/>
    <elf-symbol name='MallocExtension_GetStats' type='func-type' binding='global-binding' visibility='default-visibility' is-defined='yes'/>
    <elf-symbol name='MallocExtension_MallocMemoryStats' type='func-type' binding='global-binding' visibility='default-visibility' is-defined='yes'/>
    <elf-symbol name='MallocExtension_MarkThreadBusy' type='func-type' binding='global-binding' visibility='default-visibility' is-defined='yes'/>
    <elf-symbol name='MallocExtension_MarkThreadIdle' type='func-type' binding='global-binding' visibility='default-visibility' is-defined='yes'/>
    <elf-symbol name='MallocExtension_ReleaseFreeMemory' type='func-type' binding='global-binding' visibility='default-visibility' is-defined='yes'/>
    <elf-symbol name='MallocExtension_ReleaseToSystem' type='func-type' binding='global-binding' visibility='default-visibility' is-defined='yes'/>
    <elf-symbol name='MallocExtension_SetNumericProperty' type='func-type' binding='global-binding' visibility='default-visibility' is-defined='yes'/>
    <elf-symbol name='MallocExtension_VerifyAllMemory' type='func-type' binding='global-binding' visibility='default-visibility' is-defined='yes'/>
    <elf-symbol name='MallocExtension_VerifyArrayNewMemory' type='func-type' binding='global-binding' visibility='default-visibility' is-defined='yes'/>
    <elf-symbol name='MallocExtension_VerifyMallocMemory' type='func-type' binding='global-binding' visibility='default-visibility' is-defined='yes'/>
    <elf-symbol name='MallocExtension_VerifyNewMemory' type='func-type' binding='global-binding' visibility='default-visibility' is-defined='yes'/>
    <elf-symbol name='MallocHook_AddDeleteHook' type='func-type' binding='global-binding' visibility='default-visibility' is-defined='yes'/>
    <elf-symbol name='MallocHook_AddMmapHook' type='func-type' binding='global-binding' visibility='default-visibility' is-defined='yes'/>
    <elf-symbol name='MallocHook_AddMremapHook' type='func-type' binding='global-binding' visibility='default-visibility' is-defined='yes'/>
    <elf-symbol name='MallocHook_AddMunmapHook' type='func-type' binding='global-binding' visibility='default-visibility' is-defined='yes'/>
    <elf-symbol name='MallocHook_AddNewHook' type='func-type' binding='global-binding' visibility='default-visibility' is-defined='yes'/>
    <elf-symbol name='MallocHook_AddPreMmapHook' type='func-type' binding='global-binding' visibility='default-visibility' is-defined='yes'/>
    <elf-symbol name='MallocHook_AddPreSbrkHook' type='func-type' binding='global-binding' visibility='default-visibility' is-defined='yes'/>
    <elf-symbol name='MallocHook_AddSbrkHook' type='func-type' binding='global-binding' visibility='default-visibility' is-defined='yes'/>
    <elf-symbol name='MallocHook_GetCallerStackTrace' type='func-type' binding='global-binding' visibility='default-visibility' is-defined='yes'/>
    <elf-symbol name='MallocHook_InitAtFirstAllocation_HeapLeakChecker' type='func-type' binding='global-binding' visibility='default-visibility' is-defined='yes'/>
    <elf-symbol name='MallocHook_RemoveDeleteHook' type='func-type' binding='global-binding' visibility='default-visibility' is-defined='yes'/>
    <elf-symbol name='MallocHook_RemoveMmapHook' type='func-type' binding='global-binding' visibility='default-visibility' is-defined='yes'/>
    <elf-symbol name='MallocHook_RemoveMmapReplacement' type='func-type' binding='global-binding' visibility='default-visibility' is-defined='yes'/>
    <elf-symbol name='MallocHook_RemoveMremapHook' type='func-type' binding='global-binding' visibility='default-visibility' is-defined='yes'/>
    <elf-symbol name='MallocHook_RemoveMunmapHook' type='func-type' binding='global-binding' visibility='default-visibility' is-defined='yes'/>
    <elf-symbol name='MallocHook_RemoveMunmapReplacement' type='func-type' binding='global-binding' visibility='default-visibility' is-defined='yes'/>
    <elf-symbol name='MallocHook_RemoveNewHook' type='func-type' binding='global-binding' visibility='default-visibility' is-defined='yes'/>
    <elf-symbol name='MallocHook_RemovePreMmapHook' type='func-type' binding='global-binding' visibility='default-visibility' is-defined='yes'/>
    <elf-symbol name='MallocHook_RemovePreSbrkHook' type='func-type' binding='global-binding' visibility='default-visibility' is-defined='yes'/>
    <elf-symbol name='MallocHook_RemoveSbrkHook' type='func-type' binding='global-binding' visibility='default-visibility' is-defined='yes'/>
    <elf-symbol name='MallocHook_SetDeleteHook' type='func-type' binding='global-binding' visibility='default-visibility' is-defined='yes'/>
    <elf-symbol name='MallocHook_SetMmapHook' type='func-type' binding='global-binding' visibility='default-visibility' is-defined='yes'/>
    <elf-symbol name='MallocHook_SetMmapReplacement' type='func-type' binding='global-binding' visibility='default-visibility' is-defined='yes'/>
    <elf-symbol name='MallocHook_SetMremapHook' type='func-type' binding='global-binding' visibility='default-visibility' is-defined='yes'/>
    <elf-symbol name='MallocHook_SetMunmapHook' type='func-type' binding='global-binding' visibility='default-visibility' is-defined='yes'/>
    <elf-symbol name='MallocHook_SetMunmapReplacement' type='func-type' binding='global-binding' visibility='default-visibility' is-defined='yes'/>
    <elf-symbol name='MallocHook_SetNewHook' type='func-type' binding='global-binding' visibility='default-visibility' is-defined='yes'/>
    <elf-symbol name='MallocHook_SetPreMmapHook' type='func-type' binding='global-binding' visibility='default-visibility' is-defined='yes'/>
    <elf-symbol name='MallocHook_SetPreSbrkHook' type='func-type' binding='global-binding' visibility='default-visibility' is-defined='yes'/>
    <elf-symbol name='MallocHook_SetSbrkHook' type='func-type' binding='global-binding' visibility='default-visibility' is-defined='yes'/>
    <elf-symbol name='ProfileHandlerGetState' type='func-type' binding='global-binding' visibility='default-visibility' is-defined='yes'/>
    <elf-symbol name='ProfileHandlerRegisterCallback' type='func-type' binding='global-binding' visibility='default-visibility' is-defined='yes'/>
    <elf-symbol name='ProfileHandlerRegisterThread' type='func-type' binding='global-binding' visibility='default-visibility' is-defined='yes'/>
    <elf-symbol name='ProfileHandlerReset' type='func-type' binding='global-binding' visibility='default-visibility' is-defined='yes'/>
    <elf-symbol name='ProfileHandlerUnregisterCallback' type='func-type' binding='global-binding' visibility='default-visibility' is-defined='yes'/>
    <elf-symbol name='ProfilerDisable' type='func-type' binding='global-binding' visibility='default-visibility' is-defined='yes'/>
    <elf-symbol name='ProfilerEnable' type='func-type' binding='global-binding' visibility='default-visibility' is-defined='yes'/>
    <elf-symbol name='ProfilerFlush' type='func-type' binding='global-binding' visibility='default-visibility' is-defined='yes'/>
    <elf-symbol name='ProfilerGetCurrentState' type='func-type' binding='global-binding' visibility='default-visibility' is-defined='yes'/>
    <elf-symbol name='ProfilerRegisterThread' type='func-type' binding='global-binding' visibility='default-visibility' is-defined='yes'/>
    <elf-symbol name='ProfilerStart' type='func-type' binding='global-binding' visibility='default-visibility' is-defined='yes'/>
    <elf-symbol name='ProfilerStartWithOptions' type='func-type' binding='global-binding' visibility='default-visibility' is-defined='yes'/>
    <elf-symbol name='ProfilerStop' type='func-type' binding='global-binding' visibility='default-visibility' is-defined='yes'/>
    <elf-symbol name='ProfilingIsEnabledForAllThreads' type='func-type' binding='global-binding' visibility='default-visibility' is-defined='yes'/>
    <elf-symbol name='RunningOnValgrind' type='func-type' binding='global-binding' visibility='default-visibility' is-defined='yes'/>
    <elf-symbol name='TCMallocGetenvSafe' type='func-type' binding='global-binding' visibility='default-visibility' is-defined='yes'/>
    <elf-symbol name='TCMalloc_ListAllProcessThreads' type='func-type' binding='global-binding' visibility='default-visibility' is-defined='yes'/>
    <elf-symbol name='TCMalloc_ResumeAllProcessThreads' type='func-type' binding='global-binding' visibility='default-visibility' is-defined='yes'/>
    <elf-symbol name='ValgrindSlowdown' type='func-type' binding='global-binding' visibility='default-visibility' is-defined='yes'/>
    <elf-symbol name='_Z13GetStackTracePPvii' type='func-type' binding='global-binding' visibility='default-visibility' is-defined='yes'/>
    <elf-symbol name='_Z14GetStackFramesPPvPiii' type='func-type' binding='global-binding' visibility='default-visibility' is-defined='yes'/>
    <elf-symbol name='_Z15CyclesPerSecondv' type='func-type' binding='global-binding' visibility='default-visibility' is-defined='yes'/>
    <elf-symbol name='_Z15HasPosixThreadsv' type='func-type' binding='global-binding' visibility='default-visibility' is-defined='yes'/>
    <elf-symbol name='_Z16GetenvBeforeMainPKc' type='func-type' binding='global-binding' visibility='default-visibility' is-defined='yes'/>
    <elf-symbol name='_Z17RawOpenForWritingPKc' type='func-type' binding='global-binding' visibility='default-visibility' is-defined='yes'/>
    <elf-symbol name='_Z20GetUniquePathFromEnvPKcPc' type='func-type' binding='global-binding' visibility='default-visibility' is-defined='yes'/>
    <elf-symbol name='_Z20InitSystemAllocatorsv' type='func-type' binding='global-binding' visibility='default-visibility' is-defined='yes'/>
    <elf-symbol name='_Z20SleepForMillisecondsi' type='func-type' binding='global-binding' visibility='default-visibility' is-defined='yes'/>
    <elf-symbol name='_Z20TCMalloc_SystemAllocmPmm' type='func-type' binding='global-binding' visibility='default-visibility' is-defined='yes'/>
    <elf-symbol name='_Z21TCMalloc_SystemCommitPvm' type='func-type' binding='global-binding' visibility='default-visibility' is-defined='yes'/>
    <elf-symbol name='_Z22TCMalloc_SystemReleasePvm' type='func-type' binding='global-binding' visibility='default-visibility' is-defined='yes'/>
    <elf-symbol name='_Z22perftools_pthread_oncePiPFvvE' type='func-type' binding='global-binding' visibility='default-visibility' is-defined='yes'/>
    <elf-symbol name='_Z24GetStackTraceWithContextPPviiPKv' type='func-type' binding='global-binding' visibility='default-visibility' is-defined='yes'/>
    <elf-symbol name='_Z24tc_get_sysalloc_overrideP12SysAllocator' type='func-type' binding='weak-binding' visibility='default-visibility' is-defined='yes'/>
    <elf-symbol name='_Z25GetStackFramesWithContextPPvPiiiPKv' type='func-type' binding='global-binding' visibility='default-visibility' is-defined='yes'/>
    <elf-symbol name='_Z28perftools_pthread_key_createPjPFvPvE' type='func-type' binding='global-binding' visibility='default-visibility' is-defined='yes'/>
    <elf-symbol name='_Z28perftools_pthread_key_deletej' type='func-type' binding='global-binding' visibility='default-visibility' is-defined='yes'/>
    <elf-symbol name='_Z29perftools_pthread_getspecificj' type='func-type' binding='global-binding' visibility='default-visibility' is-defined='yes'/>
    <elf-symbol name='_Z29perftools_pthread_setspecificjPv' type='func-type' binding='global-binding' visibility='default-visibility' is-defined='yes'/>
    <elf-symbol name='_Z31HeapLeakChecker_RunHeapCleanupsv' type='func-type' binding='global-binding' visibility='default-visibility' is-defined='yes'/>
    <elf-symbol name='_Z32HeapLeakChecker_AfterDestructorsv' type='func-type' binding='global-binding' visibility='default-visibility' is-defined='yes'/>
    <elf-symbol name='_Z33HeapLeakChecker_InternalInitStartv' type='func-type' binding='global-binding' visibility='default-visibility' is-defined='yes'/>
    <elf-symbol name='_Z34HeapLeakChecker_BeforeConstructorsv' type='func-type' binding='global-binding' visibility='default-visibility' is-defined='yes'/>
    <elf-symbol name='_Z7NumCPUsv' type='func-type' binding='global-binding' visibility='default-visibility' is-defined='yes'/>
    <elf-symbol name='_Z7RAW_LOGiPKcz' type='func-type' binding='weak-binding' visibility='default-visibility' is-defined='yes'/>
    <elf-symbol name='_Z8RAW_VLOGiPKcz' type='func-type' binding='weak-binding' visibility='default-visibility' is-defined='yes'/>
    <elf-symbol name='_Z8RawClosei' type='func-type' binding='global-binding' visibility='default-visibility' is-defined='yes'/>
    <elf-symbol name='_Z8RawWriteiPKcm' type='func-type' binding='global-binding' visibility='default-visibility' is-defined='yes'/>
    <elf-symbol name='_Z9LogPrintfiPKcP13__va_list_tag' type='func-type' binding='weak-binding' visibility='default-visibility' is-defined='yes'/>
    <elf-symbol name='_ZN10AddressMapIN16HeapProfileTable10AllocValueEE6InsertEPKvS1_' type='func-type' binding='weak-binding' visibility='default-visibility' is-defined='yes'/>
    <elf-symbol name='_ZN10AddressMapIN16HeapProfileTable10AllocValueEEC1EPFPvmEPFvS3_E' type='func-type' binding='weak-binding' visibility='default-visibility' is-defined='yes'/>
    <elf-symbol name='_ZN10AddressMapIN16HeapProfileTable10AllocValueEEC2EPFPvmEPFvS3_E' type='func-type' binding='weak-binding' visibility='default-visibility' alias='_ZN10AddressMapIN16HeapProfileTable10AllocValueEEC1EPFPvmEPFvS3_E' is-defined='yes'/>
    <elf-symbol name='_ZN10MallocHook12UnhookedMMapEPvmiiil' type='func-type' binding='global-binding' visibility='default-visibility' is-defined='yes'/>
    <elf-symbol name='_ZN10MallocHook14UnhookedMUnmapEPvm' type='func-type' binding='global-binding' visibility='default-visibility' is-defined='yes'/>
    <elf-symbol name='_ZN10MallocHook17InvokeNewHookSlowEPKvm' type='func-type' binding='global-binding' visibility='default-visibility' is-defined='yes'/>
    <elf-symbol name='_ZN10MallocHook18InvokeMmapHookSlowEPKvS1_miiil' type='func-type' binding='global-binding' visibility='default-visibility' is-defined='yes'/>
    <elf-symbol name='_ZN10MallocHook18InvokeSbrkHookSlowEPKvl' type='func-type' binding='global-binding' visibility='default-visibility' is-defined='yes'/>
    <elf-symbol name='_ZN10MallocHook20InvokeDeleteHookSlowEPKv' type='func-type' binding='global-binding' visibility='default-visibility' is-defined='yes'/>
    <elf-symbol name='_ZN10MallocHook20InvokeMremapHookSlowEPKvS1_mmiS1_' type='func-type' binding='global-binding' visibility='default-visibility' is-defined='yes'/>
    <elf-symbol name='_ZN10MallocHook20InvokeMunmapHookSlowEPKvm' type='func-type' binding='global-binding' visibility='default-visibility' is-defined='yes'/>
    <elf-symbol name='_ZN10MallocHook21InvokePreMmapHookSlowEPKvmiiil' type='func-type' binding='global-binding' visibility='default-visibility' is-defined='yes'/>
    <elf-symbol name='_ZN10MallocHook21InvokePreSbrkHookSlowEl' type='func-type' binding='global-binding' visibility='default-visibility' is-defined='yes'/>
    <elf-symbol name='_ZN10MallocHook25InvokeMmapReplacementSlowEPKvmiiilPPv' type='func-type' binding='global-binding' visibility='default-visibility' is-defined='yes'/>
    <elf-symbol name='_ZN10MallocHook27InvokeMunmapReplacementSlowEPKvmPi' type='func-type' binding='global-binding' visibility='default-visibility' is-defined='yes'/>
    <elf-symbol name='_ZN11CpuProfiler10FlushTableEv' type='func-type' binding='global-binding' visibility='default-visibility' is-defined='yes'/>
    <elf-symbol name='_ZN11CpuProfiler12prof_handlerEiP7siginfoPvS2_' type='func-type' binding='global-binding' visibility='default-visibility' is-defined='yes'/>
    <elf-symbol name='_ZN11CpuProfiler13EnableHandlerEv' type='func-type' binding='global-binding' visibility='default-visibility' is-defined='yes'/>
    <elf-symbol name='_ZN11CpuProfiler14DisableHandlerEv' type='func-type' binding='global-binding' visibility='default-visibility' is-defined='yes'/>
    <elf-symbol name='_ZN11CpuProfiler15GetCurrentStateEP13ProfilerState' type='func-type' binding='global-binding' visibility='default-visibility' is-defined='yes'/>
    <elf-symbol name='_ZN11CpuProfiler4StopEv' type='func-type' binding='global-binding' visibility='default-visibility' is-defined='yes'/>
    <elf-symbol name='_ZN11CpuProfiler5StartEPKcPK15ProfilerOptions' type='func-type' binding='global-binding' visibility='default-visibility' is-defined='yes'/>
    <elf-symbol name='_ZN11CpuProfiler7EnabledEv' type='func-type' binding='global-binding' visibility='default-visibility' is-defined='yes'/>
    <elf-symbol name='_ZN11CpuProfilerC1Ev' type='func-type' binding='global-binding' visibility='default-visibility' alias='_ZN11CpuProfilerC2Ev' is-defined='yes'/>
    <elf-symbol name='_ZN11CpuProfilerC2Ev' type='func-type' binding='global-binding' visibility='default-visibility' is-defined='yes'/>
    <elf-symbol name='_ZN11CpuProfilerD1Ev' type='func-type' binding='global-binding' visibility='default-visibility' alias='_ZN11CpuProfilerD2Ev' is-defined='yes'/>
    <elf-symbol name='_ZN11CpuProfilerD2Ev' type='func-type' binding='global-binding' visibility='default-visibility' is-defined='yes'/>
    <elf-symbol name='_ZN11HeapCleaner15RunHeapCleanupsEv' type='func-type' binding='global-binding' visibility='default-visibility' is-defined='yes'/>
    <elf-symbol name='_ZN11HeapCleanerC1EPFvvE' type='func-type' binding='global-binding' visibility='default-visibility' alias='_ZN11HeapCleanerC2EPFvvE' is-defined='yes'/>
    <elf-symbol name='_ZN11HeapCleanerC2EPFvvE' type='func-type' binding='global-binding' visibility='default-visibility' is-defined='yes'/>
    <elf-symbol name='_ZN11ProfileData10FlushTableEv' type='func-type' binding='global-binding' visibility='default-visibility' is-defined='yes'/>
    <elf-symbol name='_ZN11ProfileData12FlushEvictedEv' type='func-type' binding='global-binding' visibility='default-visibility' is-defined='yes'/>
    <elf-symbol name='_ZN11ProfileData3AddEiPKPKv' type='func-type' binding='global-binding' visibility='default-visibility' is-defined='yes'/>
    <elf-symbol name='_ZN11ProfileData4StopEv' type='func-type' binding='global-binding' visibility='default-visibility' is-defined='yes'/>
    <elf-symbol name='_ZN11ProfileData5EvictERKNS_5EntryE' type='func-type' binding='global-binding' visibility='default-visibility' is-defined='yes'/>
    <elf-symbol name='_ZN11ProfileData5ResetEv' type='func-type' binding='global-binding' visibility='default-visibility' is-defined='yes'/>
    <elf-symbol name='_ZN11ProfileData5StartEPKcRKNS_7OptionsE' type='func-type' binding='global-binding' visibility='default-visibility' is-defined='yes'/>
    <elf-symbol name='_ZN11ProfileData7OptionsC1Ev' type='func-type' binding='global-binding' visibility='default-visibility' alias='_ZN11ProfileData7OptionsC2Ev' is-defined='yes'/>
    <elf-symbol name='_ZN11ProfileData7OptionsC2Ev' type='func-type' binding='global-binding' visibility='default-visibility' is-defined='yes'/>
    <elf-symbol name='_ZN11ProfileDataC1Ev' type='func-type' binding='global-binding' visibility='default-visibility' alias='_ZN11ProfileDataC2Ev' is-defined='yes'/>
    <elf-symbol name='_ZN11ProfileDataC2Ev' type='func-type' binding='global-binding' visibility='default-visibility' is-defined='yes'/>
    <elf-symbol name='_ZN11ProfileDataD1Ev' type='func-type' binding='global-binding' visibility='default-visibility' alias='_ZN11ProfileDataD2Ev' is-defined='yes'/>
    <elf-symbol name='_ZN11ProfileDataD2Ev' type='func-type' binding='global-binding' visibility='default-visibility' is-defined='yes'/>
    <elf-symbol name='_ZN11SymbolTable3AddEPKv' type='func-type' binding='global-binding' visibility='default-visibility' is-defined='yes'/>
    <elf-symbol name='_ZN11SymbolTable9GetSymbolEPKv' type='func-type' binding='global-binding' visibility='default-visibility' is-defined='yes'/>
    <elf-symbol name='_ZN11SymbolTable9SymbolizeEv' type='func-type' binding='global-binding' visibility='default-visibility' is-defined='yes'/>
    <elf-symbol name='_ZN12SysAllocatorD0Ev' type='func-type' binding='global-binding' visibility='default-visibility' is-defined='yes'/>
    <elf-symbol name='_ZN12SysAllocatorD1Ev' type='func-type' binding='global-binding' visibility='default-visibility' alias='_ZN12SysAllocatorD2Ev' is-defined='yes'/>
    <elf-symbol name='_ZN12SysAllocatorD2Ev' type='func-type' binding='global-binding' visibility='default-visibility' is-defined='yes'/>
    <elf-symbol name='_ZN13LowLevelAlloc11DeleteArenaEPNS_5ArenaE' type='func-type' binding='global-binding' visibility='default-visibility' is-defined='yes'/>
    <elf-symbol name='_ZN13LowLevelAlloc12DefaultArenaEv' type='func-type' binding='global-binding' visibility='default-visibility' is-defined='yes'/>
    <elf-symbol name='_ZN13LowLevelAlloc14AllocWithArenaEmPNS_5ArenaE' type='func-type' binding='global-binding' visibility='default-visibility' is-defined='yes'/>
    <elf-symbol name='_ZN13LowLevelAlloc4FreeEPv' type='func-type' binding='global-binding' visibility='default-visibility' is-defined='yes'/>
    <elf-symbol name='_ZN13LowLevelAlloc5AllocEm' type='func-type' binding='global-binding' visibility='default-visibility' is-defined='yes'/>
    <elf-symbol name='_ZN13LowLevelAlloc8NewArenaEiPNS_5ArenaE' type='func-type' binding='global-binding' visibility='default-visibility' is-defined='yes'/>
    <elf-symbol name='_ZN13TCMallocGuardC1Ev' type='func-type' binding='global-binding' visibility='default-visibility' alias='_ZN13TCMallocGuardC2Ev' is-defined='yes'/>
    <elf-symbol name='_ZN13TCMallocGuardC2Ev' type='func-type' binding='global-binding' visibility='default-visibility' is-defined='yes'/>
    <elf-symbol name='_ZN13TCMallocGuardD1Ev' type='func-type' binding='global-binding' visibility='default-visibility' alias='_ZN13TCMallocGuardD2Ev' is-defined='yes'/>
    <elf-symbol name='_ZN13TCMallocGuardD2Ev' type='func-type' binding='global-binding' visibility='default-visibility' is-defined='yes'/>
    <elf-symbol name='_ZN14ProfileHandler10StartTimerEv' type='func-type' binding='global-binding' visibility='default-visibility' is-defined='yes'/>
    <elf-symbol name='_ZN14ProfileHandler13EnableHandlerEv' type='func-type' binding='global-binding' visibility='default-visibility' is-defined='yes'/>
    <elf-symbol name='_ZN14ProfileHandler13SignalHandlerEiP7siginfoPv' type='func-type' binding='global-binding' visibility='default-visibility' is-defined='yes'/>
    <elf-symbol name='_ZN14ProfileHandler14DisableHandlerEv' type='func-type' binding='global-binding' visibility='default-visibility' is-defined='yes'/>
    <elf-symbol name='_ZN14ProfileHandler14IsTimerRunningEv' type='func-type' binding='global-binding' visibility='default-visibility' is-defined='yes'/>
    <elf-symbol name='_ZN14ProfileHandler14RegisterThreadEv' type='func-type' binding='global-binding' visibility='default-visibility' is-defined='yes'/>
    <elf-symbol name='_ZN14ProfileHandler16RegisterCallbackEPFviP7siginfoPvS2_ES2_' type='func-type' binding='global-binding' visibility='default-visibility' is-defined='yes'/>
    <elf-symbol name='_ZN14ProfileHandler18UnregisterCallbackEP19ProfileHandlerToken' type='func-type' binding='global-binding' visibility='default-visibility' is-defined='yes'/>
    <elf-symbol name='_ZN14ProfileHandler24IsSignalHandlerAvailableEv' type='func-type' binding='global-binding' visibility='default-visibility' is-defined='yes'/>
    <elf-symbol name='_ZN14ProfileHandler4InitEv' type='func-type' binding='global-binding' visibility='default-visibility' is-defined='yes'/>
    <elf-symbol name='_ZN14ProfileHandler5ResetEv' type='func-type' binding='global-binding' visibility='default-visibility' is-defined='yes'/>
    <elf-symbol name='_ZN14ProfileHandler8GetStateEP19ProfileHandlerState' type='func-type' binding='global-binding' visibility='default-visibility' is-defined='yes'/>
    <elf-symbol name='_ZN14ProfileHandler8InstanceEv' type='func-type' binding='global-binding' visibility='default-visibility' is-defined='yes'/>
    <elf-symbol name='_ZN14ProfileHandler9StopTimerEv' type='func-type' binding='global-binding' visibility='default-visibility' is-defined='yes'/>
    <elf-symbol name='_ZN14ProfileHandlerC1Ev' type='func-type' binding='global-binding' visibility='default-visibility' alias='_ZN14ProfileHandlerC2Ev' is-defined='yes'/>
    <elf-symbol name='_ZN14ProfileHandlerC2Ev' type='func-type' binding='global-binding' visibility='default-visibility' is-defined='yes'/>
    <elf-symbol name='_ZN14ProfileHandlerD1Ev' type='func-type' binding='global-binding' visibility='default-visibility' alias='_ZN14ProfileHandlerD2Ev' is-defined='yes'/>
    <elf-symbol name='_ZN14ProfileHandlerD2Ev' type='func-type' binding='global-binding' visibility='default-visibility' is-defined='yes'/>
    <elf-symbol name='_ZN14SpinLockHolderC1EP8SpinLock' type='func-type' binding='weak-binding' visibility='default-visibility' is-defined='yes'/>
    <elf-symbol name='_ZN14SpinLockHolderC2EP8SpinLock' type='func-type' binding='weak-binding' visibility='default-visibility' alias='_ZN14SpinLockHolderC1EP8SpinLock' is-defined='yes'/>
    <elf-symbol name='_ZN14SpinLockHolderD1Ev' type='func-type' binding='weak-binding' visibility='default-visibility' alias='_ZN14SpinLockHolderD2Ev' is-defined='yes'/>
    <elf-symbol name='_ZN14SpinLockHolderD2Ev' type='func-type' binding='weak-binding' visibility='default-visibility' is-defined='yes'/>
    <elf-symbol name='_ZN15HeapLeakChecker13GlobalCheckerEv' type='func-type' binding='global-binding' visibility='default-visibility' is-defined='yes'/>
    <elf-symbol name='_ZN15HeapLeakChecker13NoGlobalLeaksEv' type='func-type' binding='global-binding' visibility='default-visibility' is-defined='yes'/>
    <elf-symbol name='_ZN15HeapLeakChecker14DoIgnoreObjectEPKv' type='func-type' binding='global-binding' visibility='default-visibility' is-defined='yes'/>
    <elf-symbol name='_ZN15HeapLeakChecker14GetAllocCallerEPv' type='func-type' binding='global-binding' visibility='default-visibility' is-defined='yes'/>
    <elf-symbol name='_ZN15HeapLeakChecker14UnIgnoreObjectEPKv' type='func-type' binding='global-binding' visibility='default-visibility' is-defined='yes'/>
    <elf-symbol name='_ZN15HeapLeakChecker15DisableChecksInEPKc' type='func-type' binding='global-binding' visibility='default-visibility' is-defined='yes'/>
    <elf-symbol name='_ZN15HeapLeakChecker15DoMainHeapCheckEv' type='func-type' binding='global-binding' visibility='default-visibility' is-defined='yes'/>
    <elf-symbol name='_ZN15HeapLeakChecker17CancelGlobalCheckEv' type='func-type' binding='global-binding' visibility='default-visibility' is-defined='yes'/>
    <elf-symbol name='_ZN15HeapLeakChecker17UseProcMapsLockedENS_12ProcMapsTaskE' type='func-type' binding='global-binding' visibility='default-visibility' is-defined='yes'/>
    <elf-symbol name='_ZN15HeapLeakChecker19TurnItselfOffLockedEv' type='func-type' binding='global-binding' visibility='default-visibility' is-defined='yes'/>
    <elf-symbol name='_ZN15HeapLeakChecker21MakeProfileNameLockedEv' type='func-type' binding='global-binding' visibility='default-visibility' is-defined='yes'/>
    <elf-symbol name='_ZN15HeapLeakChecker23IgnoreLiveObjectsLockedEPKcS1_' type='func-type' binding='global-binding' visibility='default-visibility' is-defined='yes'/>
    <elf-symbol name='_ZN15HeapLeakChecker23IgnoreLiveThreadsLockedEPviPiP13__va_list_tag' type='func-type' binding='global-binding' visibility='default-visibility' is-defined='yes'/>
    <elf-symbol name='_ZN15HeapLeakChecker24BeforeConstructorsLockedEv' type='func-type' binding='global-binding' visibility='default-visibility' is-defined='yes'/>
    <elf-symbol name='_ZN15HeapLeakChecker25DisableChecksFromToLockedEPKvS1_i' type='func-type' binding='global-binding' visibility='default-visibility' is-defined='yes'/>
    <elf-symbol name='_ZN15HeapLeakChecker26DisableLibraryAllocsLockedEPKcmm' type='func-type' binding='global-binding' visibility='default-visibility' is-defined='yes'/>
    <elf-symbol name='_ZN15HeapLeakChecker26IgnoreAllLiveObjectsLockedEPKv' type='func-type' binding='global-binding' visibility='default-visibility' is-defined='yes'/>
    <elf-symbol name='_ZN15HeapLeakChecker27NoGlobalLeaksMaybeSymbolizeENS_15ShouldSymbolizeE' type='func-type' binding='global-binding' visibility='default-visibility' is-defined='yes'/>
    <elf-symbol name='_ZN15HeapLeakChecker32IgnoreNonThreadLiveObjectsLockedEv' type='func-type' binding='global-binding' visibility='default-visibility' is-defined='yes'/>
    <elf-symbol name='_ZN15HeapLeakChecker6CreateEPKcb' type='func-type' binding='global-binding' visibility='default-visibility' is-defined='yes'/>
    <elf-symbol name='_ZN15HeapLeakChecker8DisablerC1Ev' type='func-type' binding='global-binding' visibility='default-visibility' alias='_ZN15HeapLeakChecker8DisablerC2Ev' is-defined='yes'/>
    <elf-symbol name='_ZN15HeapLeakChecker8DisablerC2Ev' type='func-type' binding='global-binding' visibility='default-visibility' is-defined='yes'/>
    <elf-symbol name='_ZN15HeapLeakChecker8DisablerD1Ev' type='func-type' binding='global-binding' visibility='default-visibility' alias='_ZN15HeapLeakChecker8DisablerD2Ev' is-defined='yes'/>
    <elf-symbol name='_ZN15HeapLeakChecker8DisablerD2Ev' type='func-type' binding='global-binding' visibility='default-visibility' is-defined='yes'/>
    <elf-symbol name='_ZN15HeapLeakChecker8IsActiveEv' type='func-type' binding='global-binding' visibility='default-visibility' is-defined='yes'/>
    <elf-symbol name='_ZN15HeapLeakChecker9Allocator4FreeEPv' type='func-type' binding='weak-binding' visibility='default-visibility' is-defined='yes'/>
    <elf-symbol name='_ZN15HeapLeakChecker9Allocator8AllocateEm' type='func-type' binding='weak-binding' visibility='default-visibility' is-defined='yes'/>
    <elf-symbol name='_ZN15HeapLeakChecker9DoNoLeaksENS_15ShouldSymbolizeE' type='func-type' binding='global-binding' visibility='default-visibility' is-defined='yes'/>
    <elf-symbol name='_ZN15HeapLeakCheckerC1EPKc' type='func-type' binding='global-binding' visibility='default-visibility' alias='_ZN15HeapLeakCheckerC2EPKc' is-defined='yes'/>
    <elf-symbol name='_ZN15HeapLeakCheckerC1Ev' type='func-type' binding='global-binding' visibility='default-visibility' alias='_ZN15HeapLeakCheckerC2Ev' is-defined='yes'/>
    <elf-symbol name='_ZN15HeapLeakCheckerC2EPKc' type='func-type' binding='global-binding' visibility='default-visibility' is-defined='yes'/>
    <elf-symbol name='_ZN15HeapLeakCheckerC2Ev' type='func-type' binding='global-binding' visibility='default-visibility' is-defined='yes'/>
    <elf-symbol name='_ZN15HeapLeakCheckerD1Ev' type='func-type' binding='global-binding' visibility='default-visibility' alias='_ZN15HeapLeakCheckerD2Ev' is-defined='yes'/>
    <elf-symbol name='_ZN15HeapLeakCheckerD2Ev' type='func-type' binding='global-binding' visibility='default-visibility' is-defined='yes'/>
    <elf-symbol name='_ZN15MallocExtension10InitializeEv' type='func-type' binding='global-binding' visibility='default-visibility' is-defined='yes'/>
    <elf-symbol name='_ZN15MallocExtension12GetOwnershipEPKv' type='func-type' binding='global-binding' visibility='default-visibility' is-defined='yes'/>
    <elf-symbol name='_ZN15MallocExtension13GetHeapSampleEPSs' type='func-type' binding='global-binding' visibility='default-visibility' is-defined='yes'/>
    <elf-symbol name='_ZN15MallocExtension14MarkThreadBusyEv' type='func-type' binding='global-binding' visibility='default-visibility' is-defined='yes'/>
    <elf-symbol name='_ZN15MallocExtension14MarkThreadIdleEv' type='func-type' binding='global-binding' visibility='default-visibility' is-defined='yes'/>
    <elf-symbol name='_ZN15MallocExtension15ReadStackTracesEPi' type='func-type' binding='global-binding' visibility='default-visibility' is-defined='yes'/>
    <elf-symbol name='_ZN15MallocExtension15ReleaseToSystemEm' type='func-type' binding='global-binding' visibility='default-visibility' is-defined='yes'/>
    <elf-symbol name='_ZN15MallocExtension15VerifyAllMemoryEv' type='func-type' binding='global-binding' visibility='default-visibility' is-defined='yes'/>
    <elf-symbol name='_ZN15MallocExtension15VerifyNewMemoryEPKv' type='func-type' binding='global-binding' visibility='default-visibility' is-defined='yes'/>
    <elf-symbol name='_ZN15MallocExtension16GetAllocatedSizeEPKv' type='func-type' binding='global-binding' visibility='default-visibility' is-defined='yes'/>
    <elf-symbol name='_ZN15MallocExtension16GetFreeListSizesEPSt6vectorINS_12FreeListInfoESaIS1_EE' type='func-type' binding='global-binding' visibility='default-visibility' is-defined='yes'/>
    <elf-symbol name='_ZN15MallocExtension17MallocMemoryStatsEPiPmS0_' type='func-type' binding='global-binding' visibility='default-visibility' is-defined='yes'/>
    <elf-symbol name='_ZN15MallocExtension17ReleaseFreeMemoryEv' type='func-type' binding='global-binding' visibility='default-visibility' is-defined='yes'/>
    <elf-symbol name='_ZN15MallocExtension18GetNumericPropertyEPKcPm' type='func-type' binding='global-binding' visibility='default-visibility' is-defined='yes'/>
    <elf-symbol name='_ZN15MallocExtension18GetSystemAllocatorEv' type='func-type' binding='global-binding' visibility='default-visibility' is-defined='yes'/>
    <elf-symbol name='_ZN15MallocExtension18SetNumericPropertyEPKcm' type='func-type' binding='global-binding' visibility='default-visibility' is-defined='yes'/>
    <elf-symbol name='_ZN15MallocExtension18SetSystemAllocatorEP12SysAllocator' type='func-type' binding='global-binding' visibility='default-visibility' is-defined='yes'/>
    <elf-symbol name='_ZN15MallocExtension18VerifyMallocMemoryEPKv' type='func-type' binding='global-binding' visibility='default-visibility' is-defined='yes'/>
    <elf-symbol name='_ZN15MallocExtension19GetHeapGrowthStacksEPSs' type='func-type' binding='global-binding' visibility='default-visibility' is-defined='yes'/>
    <elf-symbol name='_ZN15MallocExtension20GetMemoryReleaseRateEv' type='func-type' binding='global-binding' visibility='default-visibility' is-defined='yes'/>
    <elf-symbol name='_ZN15MallocExtension20SetMemoryReleaseRateEd' type='func-type' binding='global-binding' visibility='default-visibility' is-defined='yes'/>
    <elf-symbol name='_ZN15MallocExtension20VerifyArrayNewMemoryEPKv' type='func-type' binding='global-binding' visibility='default-visibility' is-defined='yes'/>
    <elf-symbol name='_ZN15MallocExtension25GetEstimatedAllocatedSizeEm' type='func-type' binding='global-binding' visibility='default-visibility' is-defined='yes'/>
    <elf-symbol name='_ZN15MallocExtension25ReadHeapGrowthStackTracesEv' type='func-type' binding='global-binding' visibility='default-visibility' is-defined='yes'/>
    <elf-symbol name='_ZN15MallocExtension6RangesEPvPFvS0_PKN4base11MallocRangeEE' type='func-type' binding='global-binding' visibility='default-visibility' is-defined='yes'/>
    <elf-symbol name='_ZN15MallocExtension8GetStatsEPci' type='func-type' binding='global-binding' visibility='default-visibility' is-defined='yes'/>
    <elf-symbol name='_ZN15MallocExtension8RegisterEPS_' type='func-type' binding='global-binding' visibility='default-visibility' is-defined='yes'/>
    <elf-symbol name='_ZN15MallocExtension8instanceEv' type='func-type' binding='global-binding' visibility='default-visibility' is-defined='yes'/>
    <elf-symbol name='_ZN15MallocExtensionD0Ev' type='func-type' binding='global-binding' visibility='default-visibility' is-defined='yes'/>
    <elf-symbol name='_ZN15MallocExtensionD1Ev' type='func-type' binding='global-binding' visibility='default-visibility' alias='_ZN15MallocExtensionD2Ev' is-defined='yes'/>
    <elf-symbol name='_ZN15MallocExtensionD2Ev' type='func-type' binding='global-binding' visibility='default-visibility' is-defined='yes'/>
    <elf-symbol name='_ZN15MemoryRegionMap10FindRegionEmPNS_6RegionE' type='func-type' binding='global-binding' visibility='default-visibility' is-defined='yes'/>
    <elf-symbol name='_ZN15MemoryRegionMap10LockIsHeldEv' type='func-type' binding='global-binding' visibility='default-visibility' is-defined='yes'/>
    <elf-symbol name='_ZN15MemoryRegionMap10MremapHookEPKvS1_mmiS1_' type='func-type' binding='global-binding' visibility='default-visibility' is-defined='yes'/>
    <elf-symbol name='_ZN15MemoryRegionMap10MunmapHookEPKvm' type='func-type' binding='global-binding' visibility='default-visibility' is-defined='yes'/>
    <elf-symbol name='_ZN15MemoryRegionMap12LogAllLockedEv' type='func-type' binding='global-binding' visibility='default-visibility' is-defined='yes'/>
    <elf-symbol name='_ZN15MemoryRegionMap15EndRegionLockedEv' type='func-type' binding='global-binding' visibility='default-visibility' is-defined='yes'/>
    <elf-symbol name='_ZN15MemoryRegionMap17BeginRegionLockedEv' type='func-type' binding='global-binding' visibility='default-visibility' is-defined='yes'/>
    <elf-symbol name='_ZN15MemoryRegionMap17IsRecordingLockedEv' type='func-type' binding='global-binding' visibility='default-visibility' is-defined='yes'/>
    <elf-symbol name='_ZN15MemoryRegionMap18DoFindRegionLockedEm' type='func-type' binding='global-binding' visibility='default-visibility' is-defined='yes'/>
    <elf-symbol name='_ZN15MemoryRegionMap18InsertRegionLockedERKNS_6RegionE' type='func-type' binding='weak-binding' visibility='default-visibility' is-defined='yes'/>
    <elf-symbol name='_ZN15MemoryRegionMap19RecordRegionRemovalEPKvm' type='func-type' binding='global-binding' visibility='default-visibility' is-defined='yes'/>
    <elf-symbol name='_ZN15MemoryRegionMap20DoInsertRegionLockedERKNS_6RegionE' type='func-type' binding='weak-binding' visibility='default-visibility' is-defined='yes'/>
    <elf-symbol name='_ZN15MemoryRegionMap20RecordRegionAdditionEPKvm' type='func-type' binding='global-binding' visibility='default-visibility' is-defined='yes'/>
    <elf-symbol name='_ZN15MemoryRegionMap22FindAndMarkStackRegionEmPNS_6RegionE' type='func-type' binding='global-binding' visibility='default-visibility' is-defined='yes'/>
    <elf-symbol name='_ZN15MemoryRegionMap24HandleSavedRegionsLockedEPFvRKNS_6RegionEE' type='func-type' binding='weak-binding' visibility='default-visibility' is-defined='yes'/>
    <elf-symbol name='_ZN15MemoryRegionMap25RestoreSavedBucketsLockedEv' type='func-type' binding='global-binding' visibility='default-visibility' is-defined='yes'/>
    <elf-symbol name='_ZN15MemoryRegionMap27RecordRegionRemovalInBucketEiPKPKvm' type='func-type' binding='global-binding' visibility='default-visibility' is-defined='yes'/>
    <elf-symbol name='_ZN15MemoryRegionMap4InitEib' type='func-type' binding='global-binding' visibility='default-visibility' is-defined='yes'/>
    <elf-symbol name='_ZN15MemoryRegionMap4LockEv' type='func-type' binding='global-binding' visibility='default-visibility' is-defined='yes'/>
    <elf-symbol name='_ZN15MemoryRegionMap6UnlockEv' type='func-type' binding='global-binding' visibility='default-visibility' is-defined='yes'/>
    <elf-symbol name='_ZN15MemoryRegionMap8MmapHookEPKvS1_miiil' type='func-type' binding='global-binding' visibility='default-visibility' is-defined='yes'/>
    <elf-symbol name='_ZN15MemoryRegionMap8SbrkHookEPKvl' type='func-type' binding='global-binding' visibility='default-visibility' is-defined='yes'/>
    <elf-symbol name='_ZN15MemoryRegionMap8ShutdownEv' type='func-type' binding='global-binding' visibility='default-visibility' is-defined='yes'/>
    <elf-symbol name='_ZN15MemoryRegionMap9GetBucketEiPKPKv' type='func-type' binding='global-binding' visibility='default-visibility' is-defined='yes'/>
    <elf-symbol name='_ZN16HeapProfileTable10MarkAsLiveEPKv' type='func-type' binding='global-binding' visibility='default-visibility' is-defined='yes'/>
    <elf-symbol name='_ZN16HeapProfileTable10RecordFreeEPKv' type='func-type' binding='global-binding' visibility='default-visibility' is-defined='yes'/>
    <elf-symbol name='_ZN16HeapProfileTable11RecordAllocEPKvmiPKS1_' type='func-type' binding='global-binding' visibility='default-visibility' is-defined='yes'/>
    <elf-symbol name='_ZN16HeapProfileTable12AddIfNonLiveEPKvPNS_10AllocValueEPNS_14AddNonLiveArgsE' type='func-type' binding='global-binding' visibility='default-visibility' is-defined='yes'/>
    <elf-symbol name='_ZN16HeapProfileTable12TakeSnapshotEv' type='func-type' binding='global-binding' visibility='default-visibility' is-defined='yes'/>
    <elf-symbol name='_ZN16HeapProfileTable12WriteProfileEPKcRK17HeapProfileBucketP10AddressMapINS_10AllocValueEE' type='func-type' binding='global-binding' visibility='default-visibility' is-defined='yes'/>
    <elf-symbol name='_ZN16HeapProfileTable13AddToSnapshotEPKvPNS_10AllocValueEPNS_8SnapshotE' type='func-type' binding='global-binding' visibility='default-visibility' is-defined='yes'/>
    <elf-symbol name='_ZN16HeapProfileTable13MarkAsIgnoredEPKv' type='func-type' binding='global-binding' visibility='default-visibility' is-defined='yes'/>
    <elf-symbol name='_ZN16HeapProfileTable13UnparseBucketERK17HeapProfileBucketPciiPKcP16HeapProfileStats' type='func-type' binding='global-binding' visibility='default-visibility' is-defined='yes'/>
    <elf-symbol name='_ZN16HeapProfileTable14AllocValueSizeERKNS_10AllocValueE' type='func-type' binding='weak-binding' visibility='default-visibility' is-defined='yes'/>
    <elf-symbol name='_ZN16HeapProfileTable15NonLiveSnapshotEPNS_8SnapshotE' type='func-type' binding='global-binding' visibility='default-visibility' is-defined='yes'/>
    <elf-symbol name='_ZN16HeapProfileTable15ReleaseSnapshotEPNS_8SnapshotE' type='func-type' binding='global-binding' visibility='default-visibility' is-defined='yes'/>
    <elf-symbol name='_ZN16HeapProfileTable18CleanupOldProfilesEPKc' type='func-type' binding='global-binding' visibility='default-visibility' is-defined='yes'/>
    <elf-symbol name='_ZN16HeapProfileTable18DumpBucketIteratorEPK17HeapProfileBucketPNS_10BufferArgsE' type='func-type' binding='weak-binding' visibility='default-visibility' is-defined='yes'/>
    <elf-symbol name='_ZN16HeapProfileTable19DumpNonLiveIteratorEPKvPNS_10AllocValueERKNS_8DumpArgsE' type='func-type' binding='weak-binding' visibility='default-visibility' is-defined='yes'/>
    <elf-symbol name='_ZN16HeapProfileTable19GetCallerStackTraceEiPPv' type='func-type' binding='global-binding' visibility='default-visibility' is-defined='yes'/>
    <elf-symbol name='_ZN16HeapProfileTable20MapArgsAllocIteratorEPKvPNS_10AllocValueEPFvS1_RKNS_9AllocInfoEE' type='func-type' binding='weak-binding' visibility='default-visibility' is-defined='yes'/>
    <elf-symbol name='_ZN16HeapProfileTable8Snapshot11ReportLeaksEPKcS2_b' type='func-type' binding='global-binding' visibility='default-visibility' is-defined='yes'/>
    <elf-symbol name='_ZN16HeapProfileTable8Snapshot12ReportObjectEPKvPNS_10AllocValueEPc' type='func-type' binding='global-binding' visibility='default-visibility' is-defined='yes'/>
    <elf-symbol name='_ZN16HeapProfileTable8Snapshot14ReportCallbackEPKvPNS_10AllocValueEPNS0_11ReportStateE' type='func-type' binding='global-binding' visibility='default-visibility' is-defined='yes'/>
    <elf-symbol name='_ZN16HeapProfileTable8Snapshot23ReportIndividualObjectsEv' type='func-type' binding='global-binding' visibility='default-visibility' is-defined='yes'/>
    <elf-symbol name='_ZN16HeapProfileTable9GetBucketEiPKPKv' type='func-type' binding='global-binding' visibility='default-visibility' is-defined='yes'/>
    <elf-symbol name='_ZN16HeapProfileTableC1EPFPvmEPFvS0_Eb' type='func-type' binding='global-binding' visibility='default-visibility' is-defined='yes'/>
    <elf-symbol name='_ZN16HeapProfileTableC2EPFPvmEPFvS0_Eb' type='func-type' binding='global-binding' visibility='default-visibility' alias='_ZN16HeapProfileTableC1EPFPvmEPFvS0_Eb' is-defined='yes'/>
    <elf-symbol name='_ZN16HeapProfileTableD1Ev' type='func-type' binding='global-binding' visibility='default-visibility' alias='_ZN16HeapProfileTableD2Ev' is-defined='yes'/>
    <elf-symbol name='_ZN16HeapProfileTableD2Ev' type='func-type' binding='global-binding' visibility='default-visibility' is-defined='yes'/>
    <elf-symbol name='_ZN16MmapSysAllocator5AllocEmPmm' type='func-type' binding='global-binding' visibility='default-visibility' is-defined='yes'/>
    <elf-symbol name='_ZN16MmapSysAllocatorD0Ev' type='func-type' binding='weak-binding' visibility='default-visibility' is-defined='yes'/>
    <elf-symbol name='_ZN16MmapSysAllocatorD1Ev' type='func-type' binding='weak-binding' visibility='default-visibility' alias='_ZN16MmapSysAllocatorD2Ev' is-defined='yes'/>
    <elf-symbol name='_ZN16MmapSysAllocatorD2Ev' type='func-type' binding='weak-binding' visibility='default-visibility' is-defined='yes'/>
    <elf-symbol name='_ZN16ProcMapsIterator10FormatLineEPcimmPKcmlS2_m' type='func-type' binding='global-binding' visibility='default-visibility' is-defined='yes'/>
    <elf-symbol name='_ZN16ProcMapsIterator4InitEiPNS_6BufferEb' type='func-type' binding='global-binding' visibility='default-visibility' is-defined='yes'/>
    <elf-symbol name='_ZN16ProcMapsIterator4NextEPmS0_PPcS0_PlS2_' type='func-type' binding='global-binding' visibility='default-visibility' is-defined='yes'/>
    <elf-symbol name='_ZN16ProcMapsIterator7NextExtEPmS0_PPcS0_PlS2_S0_S0_S0_S0_S0_' type='func-type' binding='global-binding' visibility='default-visibility' is-defined='yes'/>
    <elf-symbol name='_ZN16ProcMapsIteratorC1Ei' type='func-type' binding='global-binding' visibility='default-visibility' alias='_ZN16ProcMapsIteratorC2Ei' is-defined='yes'/>
    <elf-symbol name='_ZN16ProcMapsIteratorC1EiPNS_6BufferE' type='func-type' binding='global-binding' visibility='default-visibility' is-defined='yes'/>
    <elf-symbol name='_ZN16ProcMapsIteratorC1EiPNS_6BufferEb' type='func-type' binding='global-binding' visibility='default-visibility' alias='_ZN16ProcMapsIteratorC2EiPNS_6BufferEb' is-defined='yes'/>
    <elf-symbol name='_ZN16ProcMapsIteratorC2Ei' type='func-type' binding='global-binding' visibility='default-visibility' is-defined='yes'/>
    <elf-symbol name='_ZN16ProcMapsIteratorC2EiPNS_6BufferE' type='func-type' binding='global-binding' visibility='default-visibility' alias='_ZN16ProcMapsIteratorC1EiPNS_6BufferE' is-defined='yes'/>
    <elf-symbol name='_ZN16ProcMapsIteratorC2EiPNS_6BufferEb' type='func-type' binding='global-binding' visibility='default-visibility' is-defined='yes'/>
    <elf-symbol name='_ZN16ProcMapsIteratorD1Ev' type='func-type' binding='global-binding' visibility='default-visibility' alias='_ZN16ProcMapsIteratorD2Ev' is-defined='yes'/>
    <elf-symbol name='_ZN16ProcMapsIteratorD2Ev' type='func-type' binding='global-binding' visibility='default-visibility' is-defined='yes'/>
    <elf-symbol name='_ZN16SbrkSysAllocator5AllocEmPmm' type='func-type' binding='global-binding' visibility='default-visibility' is-defined='yes'/>
    <elf-symbol name='_ZN16SbrkSysAllocatorD0Ev' type='func-type' binding='weak-binding' visibility='default-visibility' is-defined='yes'/>
    <elf-symbol name='_ZN16SbrkSysAllocatorD1Ev' type='func-type' binding='weak-binding' visibility='default-visibility' alias='_ZN16SbrkSysAllocatorD2Ev' is-defined='yes'/>
    <elf-symbol name='_ZN16SbrkSysAllocatorD2Ev' type='func-type' binding='weak-binding' visibility='default-visibility' is-defined='yes'/>
    <elf-symbol name='_ZN16TCMalloc_Printer6printfEPKcz' type='func-type' binding='global-binding' visibility='default-visibility' is-defined='yes'/>
    <elf-symbol name='_ZN17GoogleInitializerD1Ev' type='func-type' binding='weak-binding' visibility='default-visibility' is-defined='yes'/>
    <elf-symbol name='_ZN17GoogleInitializerD2Ev' type='func-type' binding='weak-binding' visibility='default-visibility' alias='_ZN17GoogleInitializerD1Ev' is-defined='yes'/>
    <elf-symbol name='_ZN18DevMemSysAllocator5AllocEmPmm' type='func-type' binding='global-binding' visibility='default-visibility' is-defined='yes'/>
    <elf-symbol name='_ZN18DevMemSysAllocatorD0Ev' type='func-type' binding='weak-binding' visibility='default-visibility' is-defined='yes'/>
    <elf-symbol name='_ZN18DevMemSysAllocatorD1Ev' type='func-type' binding='weak-binding' visibility='default-visibility' alias='_ZN18DevMemSysAllocatorD2Ev' is-defined='yes'/>
    <elf-symbol name='_ZN18DevMemSysAllocatorD2Ev' type='func-type' binding='weak-binding' visibility='default-visibility' is-defined='yes'/>
    <elf-symbol name='_ZN19DefaultSysAllocator5AllocEmPmm' type='func-type' binding='global-binding' visibility='default-visibility' is-defined='yes'/>
    <elf-symbol name='_ZN19DefaultSysAllocatorD0Ev' type='func-type' binding='weak-binding' visibility='default-visibility' is-defined='yes'/>
    <elf-symbol name='_ZN19DefaultSysAllocatorD1Ev' type='func-type' binding='weak-binding' visibility='default-visibility' alias='_ZN19DefaultSysAllocatorD2Ev' is-defined='yes'/>
    <elf-symbol name='_ZN19DefaultSysAllocatorD2Ev' type='func-type' binding='weak-binding' visibility='default-visibility' is-defined='yes'/>
    <elf-symbol name='_ZN19HugetlbSysAllocator10InitializeEv' type='func-type' binding='global-binding' visibility='default-visibility' is-defined='yes'/>
    <elf-symbol name='_ZN19HugetlbSysAllocator13AllocInternalEmPmm' type='func-type' binding='global-binding' visibility='default-visibility' is-defined='yes'/>
    <elf-symbol name='_ZN19HugetlbSysAllocator5AllocEmPmm' type='func-type' binding='global-binding' visibility='default-visibility' is-defined='yes'/>
    <elf-symbol name='_ZN19HugetlbSysAllocatorD0Ev' type='func-type' binding='weak-binding' visibility='default-visibility' is-defined='yes'/>
    <elf-symbol name='_ZN19HugetlbSysAllocatorD1Ev' type='func-type' binding='weak-binding' visibility='default-visibility' alias='_ZN19HugetlbSysAllocatorD2Ev' is-defined='yes'/>
    <elf-symbol name='_ZN19HugetlbSysAllocatorD2Ev' type='func-type' binding='weak-binding' visibility='default-visibility' is-defined='yes'/>
    <elf-symbol name='_ZN20HeapProfileEndWriterD1Ev' type='func-type' binding='weak-binding' visibility='default-visibility' alias='_ZN20HeapProfileEndWriterD2Ev' is-defined='yes'/>
    <elf-symbol name='_ZN20HeapProfileEndWriterD2Ev' type='func-type' binding='weak-binding' visibility='default-visibility' is-defined='yes'/>
    <elf-symbol name='_ZN22TCMallocImplementation12GetOwnershipEPKv' type='func-type' binding='weak-binding' visibility='default-visibility' is-defined='yes'/>
    <elf-symbol name='_ZN22TCMallocImplementation13GetHeapSampleEPSs' type='func-type' binding='weak-binding' visibility='default-visibility' is-defined='yes'/>
    <elf-symbol name='_ZN22TCMallocImplementation14MarkThreadBusyEv' type='func-type' binding='global-binding' visibility='default-visibility' is-defined='yes'/>
    <elf-symbol name='_ZN22TCMallocImplementation14MarkThreadIdleEv' type='func-type' binding='weak-binding' visibility='default-visibility' is-defined='yes'/>
    <elf-symbol name='_ZN22TCMallocImplementation15ReadStackTracesEPi' type='func-type' binding='weak-binding' visibility='default-visibility' is-defined='yes'/>
    <elf-symbol name='_ZN22TCMallocImplementation15ReleaseToSystemEm' type='func-type' binding='weak-binding' visibility='default-visibility' is-defined='yes'/>
    <elf-symbol name='_ZN22TCMallocImplementation16GetAllocatedSizeEPKv' type='func-type' binding='global-binding' visibility='default-visibility' is-defined='yes'/>
    <elf-symbol name='_ZN22TCMallocImplementation16GetFreeListSizesEPSt6vectorIN15MallocExtension12FreeListInfoESaIS2_EE' type='func-type' binding='weak-binding' visibility='default-visibility' is-defined='yes'/>
    <elf-symbol name='_ZN22TCMallocImplementation18GetNumericPropertyEPKcPm' type='func-type' binding='weak-binding' visibility='default-visibility' is-defined='yes'/>
    <elf-symbol name='_ZN22TCMallocImplementation18GetSystemAllocatorEv' type='func-type' binding='weak-binding' visibility='default-visibility' is-defined='yes'/>
    <elf-symbol name='_ZN22TCMallocImplementation18SetNumericPropertyEPKcm' type='func-type' binding='weak-binding' visibility='default-visibility' is-defined='yes'/>
    <elf-symbol name='_ZN22TCMallocImplementation18SetSystemAllocatorEP12SysAllocator' type='func-type' binding='weak-binding' visibility='default-visibility' is-defined='yes'/>
    <elf-symbol name='_ZN22TCMallocImplementation20GetMemoryReleaseRateEv' type='func-type' binding='weak-binding' visibility='default-visibility' is-defined='yes'/>
    <elf-symbol name='_ZN22TCMallocImplementation20SetMemoryReleaseRateEd' type='func-type' binding='weak-binding' visibility='default-visibility' is-defined='yes'/>
    <elf-symbol name='_ZN22TCMallocImplementation25GetEstimatedAllocatedSizeEm' type='func-type' binding='weak-binding' visibility='default-visibility' is-defined='yes'/>
    <elf-symbol name='_ZN22TCMallocImplementation25ReadHeapGrowthStackTracesEv' type='func-type' binding='weak-binding' visibility='default-visibility' is-defined='yes'/>
    <elf-symbol name='_ZN22TCMallocImplementation6RangesEPvPFvS0_PKN4base11MallocRangeEE' type='func-type' binding='weak-binding' visibility='default-visibility' is-defined='yes'/>
    <elf-symbol name='_ZN22TCMallocImplementation8GetStatsEPci' type='func-type' binding='weak-binding' visibility='default-visibility' is-defined='yes'/>
    <elf-symbol name='_ZN22TCMallocImplementationD0Ev' type='func-type' binding='weak-binding' visibility='default-visibility' is-defined='yes'/>
    <elf-symbol name='_ZN22TCMallocImplementationD1Ev' type='func-type' binding='weak-binding' visibility='default-visibility' alias='_ZN22TCMallocImplementationD2Ev' is-defined='yes'/>
    <elf-symbol name='_ZN22TCMallocImplementationD2Ev' type='func-type' binding='weak-binding' visibility='default-visibility' is-defined='yes'/>
    <elf-symbol name='_ZN28HeapLeakCheckerGlobalPrePostD1Ev' type='func-type' binding='weak-binding' visibility='default-visibility' alias='_ZN28HeapLeakCheckerGlobalPrePostD2Ev' is-defined='yes'/>
    <elf-symbol name='_ZN28HeapLeakCheckerGlobalPrePostD2Ev' type='func-type' binding='weak-binding' visibility='default-visibility' is-defined='yes'/>
    <elf-symbol name='_ZN4base10RawPrinter6PrintfEPKcz' type='func-type' binding='global-binding' visibility='default-visibility' is-defined='yes'/>
    <elf-symbol name='_ZN4base10RawPrinterC1EPci' type='func-type' binding='global-binding' visibility='default-visibility' alias='_ZN4base10RawPrinterC2EPci' is-defined='yes'/>
    <elf-symbol name='_ZN4base10RawPrinterC2EPci' type='func-type' binding='global-binding' visibility='default-visibility' is-defined='yes'/>
    <elf-symbol name='_ZN4base11ElfMemImage14SymbolIterator6UpdateEi' type='func-type' binding='global-binding' visibility='default-visibility' is-defined='yes'/>
    <elf-symbol name='_ZN4base11ElfMemImage14SymbolIteratorC1EPKvi' type='func-type' binding='global-binding' visibility='default-visibility' is-defined='yes'/>
    <elf-symbol name='_ZN4base11ElfMemImage14SymbolIteratorC2EPKvi' type='func-type' binding='global-binding' visibility='default-visibility' alias='_ZN4base11ElfMemImage14SymbolIteratorC1EPKvi' is-defined='yes'/>
    <elf-symbol name='_ZN4base11ElfMemImage14SymbolIteratorppEv' type='func-type' binding='global-binding' visibility='default-visibility' is-defined='yes'/>
    <elf-symbol name='_ZN4base11ElfMemImage4InitEPKv' type='func-type' binding='global-binding' visibility='default-visibility' is-defined='yes'/>
    <elf-symbol name='_ZN4base11ElfMemImageC1EPKv' type='func-type' binding='global-binding' visibility='default-visibility' alias='_ZN4base11ElfMemImageC2EPKv' is-defined='yes'/>
    <elf-symbol name='_ZN4base11ElfMemImageC2EPKv' type='func-type' binding='global-binding' visibility='default-visibility' is-defined='yes'/>
    <elf-symbol name='_ZN4base11VDSOSupport4InitEv' type='func-type' binding='global-binding' visibility='default-visibility' is-defined='yes'/>
    <elf-symbol name='_ZN4base11VDSOSupport7SetBaseEPKv' type='func-type' binding='global-binding' visibility='default-visibility' is-defined='yes'/>
    <elf-symbol name='_ZN4base11VDSOSupportC1Ev' type='func-type' binding='global-binding' visibility='default-visibility' alias='_ZN4base11VDSOSupportC2Ev' is-defined='yes'/>
    <elf-symbol name='_ZN4base11VDSOSupportC2Ev' type='func-type' binding='global-binding' visibility='default-visibility' is-defined='yes'/>
    <elf-symbol name='_ZN4base25SubmitSpinLockProfileDataEPKvl' type='func-type' binding='weak-binding' visibility='default-visibility' is-defined='yes'/>
    <elf-symbol name='_ZN4base8internal12SpinLockWaitEPViiPKNS0_22SpinLockWaitTransitionE' type='func-type' binding='global-binding' visibility='default-visibility' is-defined='yes'/>
    <elf-symbol name='_ZN4base8internal12SpinLockWakeEPVib' type='func-type' binding='global-binding' visibility='default-visibility' is-defined='yes'/>
    <elf-symbol name='_ZN4base8internal13SpinLockDelayEPViii' type='func-type' binding='global-binding' visibility='default-visibility' is-defined='yes'/>
    <elf-symbol name='_ZN4base8internal8HookListIPFvPKvmEE16ExchangeSingularES5_' type='func-type' binding='weak-binding' visibility='default-visibility' is-defined='yes'/>
    <elf-symbol name='_ZN4base8internal8HookListIPFvPKvmEE18FixupPrivEndLockedEv' type='func-type' binding='weak-binding' visibility='default-visibility' is-defined='yes'/>
    <elf-symbol name='_ZN4base8internal8HookListIPFvPKvmEE3AddES5_' type='func-type' binding='weak-binding' visibility='default-visibility' is-defined='yes'/>
    <elf-symbol name='_ZN4base8internal8HookListIPFvPKvmEE6RemoveES5_' type='func-type' binding='weak-binding' visibility='default-visibility' is-defined='yes'/>
    <elf-symbol name='_ZN8SpinLock10SlowUnlockEm' type='func-type' binding='global-binding' visibility='default-visibility' is-defined='yes'/>
    <elf-symbol name='_ZN8SpinLock8SlowLockEv' type='func-type' binding='global-binding' visibility='default-visibility' is-defined='yes'/>
    <elf-symbol name='_ZN8SpinLock8SpinLoopElPi' type='func-type' binding='global-binding' visibility='default-visibility' is-defined='yes'/>
    <elf-symbol name='_ZN8tcmalloc10DLL_LengthEPKNS_4SpanE' type='func-type' binding='global-binding' visibility='default-visibility' is-defined='yes'/>
    <elf-symbol name='_ZN8tcmalloc10DLL_RemoveEPNS_4SpanE' type='func-type' binding='global-binding' visibility='default-visibility' is-defined='yes'/>
    <elf-symbol name='_ZN8tcmalloc10DeleteSpanEPNS_4SpanE' type='func-type' binding='global-binding' visibility='default-visibility' is-defined='yes'/>
    <elf-symbol name='_ZN8tcmalloc11DLL_PrependEPNS_4SpanES1_' type='func-type' binding='global-binding' visibility='default-visibility' is-defined='yes'/>
    <elf-symbol name='_ZN8tcmalloc11ThreadCache10BecomeIdleEv' type='func-type' binding='global-binding' visibility='default-visibility' is-defined='yes'/>
    <elf-symbol name='_ZN8tcmalloc11ThreadCache10InitModuleEv' type='func-type' binding='global-binding' visibility='default-visibility' is-defined='yes'/>
    <elf-symbol name='_ZN8tcmalloc11ThreadCache11DeleteCacheEPS0_' type='func-type' binding='global-binding' visibility='default-visibility' is-defined='yes'/>
    <elf-symbol name='_ZN8tcmalloc11ThreadCache11ListTooLongEPNS0_8FreeListEm' type='func-type' binding='global-binding' visibility='default-visibility' is-defined='yes'/>
    <elf-symbol name='_ZN8tcmalloc11ThreadCache14GetThreadStatsEPmS1_' type='func-type' binding='global-binding' visibility='default-visibility' is-defined='yes'/>
    <elf-symbol name='_ZN8tcmalloc11ThreadCache15GetSamplePeriodEv' type='func-type' binding='global-binding' visibility='default-visibility' is-defined='yes'/>
    <elf-symbol name='_ZN8tcmalloc11ThreadCache18DestroyThreadCacheEPv' type='func-type' binding='global-binding' visibility='default-visibility' is-defined='yes'/>
    <elf-symbol name='_ZN8tcmalloc11ThreadCache18IncreaseCacheLimitEv' type='func-type' binding='global-binding' visibility='default-visibility' is-defined='yes'/>
    <elf-symbol name='_ZN8tcmalloc11ThreadCache21FetchFromCentralCacheEmm' type='func-type' binding='global-binding' visibility='default-visibility' is-defined='yes'/>
    <elf-symbol name='_ZN8tcmalloc11ThreadCache21ReleaseToCentralCacheEPNS0_8FreeListEmi' type='func-type' binding='global-binding' visibility='default-visibility' is-defined='yes'/>
    <elf-symbol name='_ZN8tcmalloc11ThreadCache22CreateCacheIfNecessaryEv' type='func-type' binding='global-binding' visibility='default-visibility' is-defined='yes'/>
    <elf-symbol name='_ZN8tcmalloc11ThreadCache24IncreaseCacheLimitLockedEv' type='func-type' binding='global-binding' visibility='default-visibility' is-defined='yes'/>
    <elf-symbol name='_ZN8tcmalloc11ThreadCache27RecomputePerThreadCacheSizeEv' type='func-type' binding='global-binding' visibility='default-visibility' is-defined='yes'/>
    <elf-symbol name='_ZN8tcmalloc11ThreadCache29set_overall_thread_cache_sizeEm' type='func-type' binding='global-binding' visibility='default-visibility' is-defined='yes'/>
    <elf-symbol name='_ZN8tcmalloc11ThreadCache4InitEm' type='func-type' binding='global-binding' visibility='default-visibility' is-defined='yes'/>
    <elf-symbol name='_ZN8tcmalloc11ThreadCache7CleanupEv' type='func-type' binding='global-binding' visibility='default-visibility' is-defined='yes'/>
    <elf-symbol name='_ZN8tcmalloc11ThreadCache7InitTSDEv' type='func-type' binding='global-binding' visibility='default-visibility' is-defined='yes'/>
    <elf-symbol name='_ZN8tcmalloc11ThreadCache7NewHeapEm' type='func-type' binding='global-binding' visibility='default-visibility' is-defined='yes'/>
    <elf-symbol name='_ZN8tcmalloc11ThreadCache8GetCacheEv' type='func-type' binding='weak-binding' visibility='default-visibility' is-defined='yes'/>
    <elf-symbol name='_ZN8tcmalloc11ThreadCache8ScavengeEv' type='func-type' binding='global-binding' visibility='default-visibility' is-defined='yes'/>
    <elf-symbol name='_ZN8tcmalloc13MetaDataAllocEm' type='func-type' binding='global-binding' visibility='default-visibility' is-defined='yes'/>
    <elf-symbol name='_ZN8tcmalloc15CentralFreeList11InsertRangeEPvS1_i' type='func-type' binding='global-binding' visibility='default-visibility' is-defined='yes'/>
    <elf-symbol name='_ZN8tcmalloc15CentralFreeList11RemoveRangeEPPvS2_i' type='func-type' binding='global-binding' visibility='default-visibility' is-defined='yes'/>
    <elf-symbol name='_ZN8tcmalloc15CentralFreeList11ShrinkCacheEib' type='func-type' binding='global-binding' visibility='default-visibility' is-defined='yes'/>
    <elf-symbol name='_ZN8tcmalloc15CentralFreeList13OverheadBytesEv' type='func-type' binding='global-binding' visibility='default-visibility' is-defined='yes'/>
    <elf-symbol name='_ZN8tcmalloc15CentralFreeList14MakeCacheSpaceEv' type='func-type' binding='global-binding' visibility='default-visibility' is-defined='yes'/>
    <elf-symbol name='_ZN8tcmalloc15CentralFreeList14ReleaseToSpansEPv' type='func-type' binding='global-binding' visibility='default-visibility' is-defined='yes'/>
    <elf-symbol name='_ZN8tcmalloc15CentralFreeList17FetchFromOneSpansEiPPvS2_' type='func-type' binding='global-binding' visibility='default-visibility' is-defined='yes'/>
    <elf-symbol name='_ZN8tcmalloc15CentralFreeList18ReleaseListToSpansEPv' type='func-type' binding='global-binding' visibility='default-visibility' is-defined='yes'/>
    <elf-symbol name='_ZN8tcmalloc15CentralFreeList20EvictRandomSizeClassEib' type='func-type' binding='global-binding' visibility='default-visibility' is-defined='yes'/>
    <elf-symbol name='_ZN8tcmalloc15CentralFreeList21FetchFromOneSpansSafeEiPPvS2_' type='func-type' binding='global-binding' visibility='default-visibility' is-defined='yes'/>
    <elf-symbol name='_ZN8tcmalloc15CentralFreeList4InitEm' type='func-type' binding='global-binding' visibility='default-visibility' is-defined='yes'/>
    <elf-symbol name='_ZN8tcmalloc15CentralFreeList8PopulateEv' type='func-type' binding='global-binding' visibility='default-visibility' is-defined='yes'/>
    <elf-symbol name='_ZN8tcmalloc15CentralFreeList9tc_lengthEv' type='func-type' binding='global-binding' visibility='default-visibility' is-defined='yes'/>
    <elf-symbol name='_ZN8tcmalloc15StackTraceTable23ReadStackTracesAndClearEv' type='func-type' binding='global-binding' visibility='default-visibility' is-defined='yes'/>
    <elf-symbol name='_ZN8tcmalloc15StackTraceTable8AddTraceERKNS_10StackTraceE' type='func-type' binding='global-binding' visibility='default-visibility' is-defined='yes'/>
    <elf-symbol name='_ZN8tcmalloc15StackTraceTableC1Ev' type='func-type' binding='global-binding' visibility='default-visibility' is-defined='yes'/>
    <elf-symbol name='_ZN8tcmalloc15StackTraceTableC2Ev' type='func-type' binding='global-binding' visibility='default-visibility' alias='_ZN8tcmalloc15StackTraceTableC1Ev' is-defined='yes'/>
    <elf-symbol name='_ZN8tcmalloc15StackTraceTableD1Ev' type='func-type' binding='global-binding' visibility='default-visibility' is-defined='yes'/>
    <elf-symbol name='_ZN8tcmalloc15StackTraceTableD2Ev' type='func-type' binding='global-binding' visibility='default-visibility' alias='_ZN8tcmalloc15StackTraceTableD1Ev' is-defined='yes'/>
    <elf-symbol name='_ZN8tcmalloc16AlignmentForSizeEm' type='func-type' binding='global-binding' visibility='default-visibility' is-defined='yes'/>
    <elf-symbol name='_ZN8tcmalloc16DumpProcSelfMapsEi' type='func-type' binding='global-binding' visibility='default-visibility' is-defined='yes'/>
    <elf-symbol name='_ZN8tcmalloc16FillProcSelfMapsEPciPb' type='func-type' binding='global-binding' visibility='default-visibility' is-defined='yes'/>
    <elf-symbol name='_ZN8tcmalloc16commandlineflags12StringToBoolEPKcb' type='func-type' binding='weak-binding' visibility='default-visibility' is-defined='yes'/>
    <elf-symbol name='_ZN8tcmalloc21metadata_system_bytesEv' type='func-type' binding='global-binding' visibility='default-visibility' is-defined='yes'/>
    <elf-symbol name='_ZN8tcmalloc3LogENS_7LogModeEPKciNS_7LogItemES3_S3_S3_' type='func-type' binding='global-binding' visibility='default-visibility' is-defined='yes'/>
    <elf-symbol name='_ZN8tcmalloc6Logger3AddERKNS_7LogItemE' type='func-type' binding='global-binding' visibility='default-visibility' is-defined='yes'/>
    <elf-symbol name='_ZN8tcmalloc6Logger6AddNumEmi' type='func-type' binding='global-binding' visibility='default-visibility' is-defined='yes'/>
    <elf-symbol name='_ZN8tcmalloc6Logger6AddStrEPKci' type='func-type' binding='global-binding' visibility='default-visibility' is-defined='yes'/>
    <elf-symbol name='_ZN8tcmalloc6Static14InitStaticVarsEv' type='func-type' binding='global-binding' visibility='default-visibility' is-defined='yes'/>
    <elf-symbol name='_ZN8tcmalloc7NewSpanEmm' type='func-type' binding='global-binding' visibility='default-visibility' is-defined='yes'/>
    <elf-symbol name='_ZN8tcmalloc7Sampler11InitStaticsEv' type='func-type' binding='global-binding' visibility='default-visibility' is-defined='yes'/>
    <elf-symbol name='_ZN8tcmalloc7Sampler15GetSamplePeriodEv' type='func-type' binding='global-binding' visibility='default-visibility' is-defined='yes'/>
    <elf-symbol name='_ZN8tcmalloc7Sampler21PickNextSamplingPointEv' type='func-type' binding='global-binding' visibility='default-visibility' is-defined='yes'/>
    <elf-symbol name='_ZN8tcmalloc7Sampler21PopulateFastLog2TableEv' type='func-type' binding='global-binding' visibility='default-visibility' is-defined='yes'/>
    <elf-symbol name='_ZN8tcmalloc7Sampler4InitEj' type='func-type' binding='global-binding' visibility='default-visibility' is-defined='yes'/>
    <elf-symbol name='_ZN8tcmalloc7SizeMap11NumMoveSizeEm' type='func-type' binding='global-binding' visibility='default-visibility' is-defined='yes'/>
    <elf-symbol name='_ZN8tcmalloc7SizeMap4InitEv' type='func-type' binding='global-binding' visibility='default-visibility' is-defined='yes'/>
    <elf-symbol name='_ZN8tcmalloc8DLL_InitEPNS_4SpanE' type='func-type' binding='global-binding' visibility='default-visibility' is-defined='yes'/>
    <elf-symbol name='_ZN8tcmalloc8PageHeap10AllocLargeEm' type='func-type' binding='global-binding' visibility='default-visibility' is-defined='yes'/>
    <elf-symbol name='_ZN8tcmalloc8PageHeap10CommitSpanEPNS_4SpanE' type='func-type' binding='global-binding' visibility='default-visibility' is-defined='yes'/>
    <elf-symbol name='_ZN8tcmalloc8PageHeap11EnsureLimitEmb' type='func-type' binding='global-binding' visibility='default-visibility' is-defined='yes'/>
    <elf-symbol name='_ZN8tcmalloc8PageHeap12DecommitSpanEPNS_4SpanE' type='func-type' binding='global-binding' visibility='default-visibility' is-defined='yes'/>
    <elf-symbol name='_ZN8tcmalloc8PageHeap12GetNextRangeEmPN4base11MallocRangeE' type='func-type' binding='global-binding' visibility='default-visibility' is-defined='yes'/>
    <elf-symbol name='_ZN8tcmalloc8PageHeap13MayMergeSpansEPNS_4SpanES2_' type='func-type' binding='global-binding' visibility='default-visibility' is-defined='yes'/>
    <elf-symbol name='_ZN8tcmalloc8PageHeap14CheckExpensiveEv' type='func-type' binding='global-binding' visibility='default-visibility' is-defined='yes'/>
    <elf-symbol name='_ZN8tcmalloc8PageHeap17GetLargeSpanStatsEPNS0_14LargeSpanStatsE' type='func-type' binding='global-binding' visibility='default-visibility' is-defined='yes'/>
    <elf-symbol name='_ZN8tcmalloc8PageHeap17GetSmallSpanStatsEPNS0_14SmallSpanStatsE' type='func-type' binding='global-binding' visibility='default-visibility' is-defined='yes'/>
    <elf-symbol name='_ZN8tcmalloc8PageHeap17MergeIntoFreeListEPNS_4SpanE' type='func-type' binding='global-binding' visibility='default-visibility' is-defined='yes'/>
    <elf-symbol name='_ZN8tcmalloc8PageHeap17PrependToFreeListEPNS_4SpanE' type='func-type' binding='global-binding' visibility='default-visibility' is-defined='yes'/>
    <elf-symbol name='_ZN8tcmalloc8PageHeap17RegisterSizeClassEPNS_4SpanEm' type='func-type' binding='global-binding' visibility='default-visibility' is-defined='yes'/>
    <elf-symbol name='_ZN8tcmalloc8PageHeap18RemoveFromFreeListEPNS_4SpanE' type='func-type' binding='global-binding' visibility='default-visibility' is-defined='yes'/>
    <elf-symbol name='_ZN8tcmalloc8PageHeap19IncrementalScavengeEm' type='func-type' binding='global-binding' visibility='default-visibility' is-defined='yes'/>
    <elf-symbol name='_ZN8tcmalloc8PageHeap20ReleaseAtLeastNPagesEm' type='func-type' binding='global-binding' visibility='default-visibility' is-defined='yes'/>
    <elf-symbol name='_ZN8tcmalloc8PageHeap21ReleaseLastNormalSpanEPNS0_8SpanListE' type='func-type' binding='global-binding' visibility='default-visibility' is-defined='yes'/>
    <elf-symbol name='_ZN8tcmalloc8PageHeap23SearchFreeAndLargeListsEm' type='func-type' binding='global-binding' visibility='default-visibility' is-defined='yes'/>
    <elf-symbol name='_ZN8tcmalloc8PageHeap3NewEm' type='func-type' binding='global-binding' visibility='default-visibility' is-defined='yes'/>
    <elf-symbol name='_ZN8tcmalloc8PageHeap5CarveEPNS_4SpanEm' type='func-type' binding='global-binding' visibility='default-visibility' is-defined='yes'/>
    <elf-symbol name='_ZN8tcmalloc8PageHeap5CheckEv' type='func-type' binding='global-binding' visibility='default-visibility' is-defined='yes'/>
    <elf-symbol name='_ZN8tcmalloc8PageHeap5SplitEPNS_4SpanEm' type='func-type' binding='global-binding' visibility='default-visibility' is-defined='yes'/>
    <elf-symbol name='_ZN8tcmalloc8PageHeap6DeleteEPNS_4SpanE' type='func-type' binding='global-binding' visibility='default-visibility' is-defined='yes'/>
    <elf-symbol name='_ZN8tcmalloc8PageHeap8GrowHeapEm' type='func-type' binding='global-binding' visibility='default-visibility' is-defined='yes'/>
    <elf-symbol name='_ZN8tcmalloc8PageHeap9CheckListEPNS_4SpanEmmi' type='func-type' binding='global-binding' visibility='default-visibility' is-defined='yes'/>
    <elf-symbol name='_ZN8tcmalloc8PageHeapC1Ev' type='func-type' binding='global-binding' visibility='default-visibility' alias='_ZN8tcmalloc8PageHeapC2Ev' is-defined='yes'/>
    <elf-symbol name='_ZN8tcmalloc8PageHeapC2Ev' type='func-type' binding='global-binding' visibility='default-visibility' is-defined='yes'/>
    <elf-symbol name='_ZNK11ProfileData15GetCurrentStateEPNS_5StateE' type='func-type' binding='global-binding' visibility='default-visibility' is-defined='yes'/>
    <elf-symbol name='_ZNK15HeapLeakChecker11BytesLeakedEv' type='func-type' binding='global-binding' visibility='default-visibility' is-defined='yes'/>
    <elf-symbol name='_ZNK15HeapLeakChecker13ObjectsLeakedEv' type='func-type' binding='global-binding' visibility='default-visibility' is-defined='yes'/>
    <elf-symbol name='_ZNK16HeapProfileTable15FindInsideAllocEPKvmPS1_Pm' type='func-type' binding='global-binding' visibility='default-visibility' is-defined='yes'/>
    <elf-symbol name='_ZNK16HeapProfileTable16FindAllocDetailsEPKvPNS_9AllocInfoE' type='func-type' binding='global-binding' visibility='default-visibility' is-defined='yes'/>
    <elf-symbol name='_ZNK16HeapProfileTable18FillOrderedProfileEPci' type='func-type' binding='global-binding' visibility='default-visibility' is-defined='yes'/>
    <elf-symbol name='_ZNK16HeapProfileTable20MakeSortedBucketListEv' type='func-type' binding='global-binding' visibility='default-visibility' is-defined='yes'/>
    <elf-symbol name='_ZNK16HeapProfileTable27IterateOrderedAllocContextsEPFvRKNS_16AllocContextInfoEE' type='func-type' binding='global-binding' visibility='default-visibility' is-defined='yes'/>
    <elf-symbol name='_ZNK16HeapProfileTable9FindAllocEPKvPm' type='func-type' binding='global-binding' visibility='default-visibility' is-defined='yes'/>
    <elf-symbol name='_ZNK16ProcMapsIterator5ValidEv' type='func-type' binding='global-binding' visibility='default-visibility' is-defined='yes'/>
    <elf-symbol name='_ZNK4base11ElfMemImage10GetSymAddrEPK9Elf64_Sym' type='func-type' binding='global-binding' visibility='default-visibility' is-defined='yes'/>
    <elf-symbol name='_ZNK4base11ElfMemImage12GetVerdefAuxEPK12Elf64_Verdef' type='func-type' binding='global-binding' visibility='default-visibility' is-defined='yes'/>
    <elf-symbol name='_ZNK4base11ElfMemImage12LookupSymbolEPKcS2_iPNS0_10SymbolInfoE' type='func-type' binding='global-binding' visibility='default-visibility' is-defined='yes'/>
    <elf-symbol name='_ZNK4base11ElfMemImage13GetNumSymbolsEv' type='func-type' binding='global-binding' visibility='default-visibility' is-defined='yes'/>
    <elf-symbol name='_ZNK4base11ElfMemImage14SymbolIteratordeEv' type='func-type' binding='global-binding' visibility='default-visibility' is-defined='yes'/>
    <elf-symbol name='_ZNK4base11ElfMemImage14SymbolIteratoreqERKS1_' type='func-type' binding='global-binding' visibility='default-visibility' is-defined='yes'/>
    <elf-symbol name='_ZNK4base11ElfMemImage14SymbolIteratorneERKS1_' type='func-type' binding='global-binding' visibility='default-visibility' is-defined='yes'/>
    <elf-symbol name='_ZNK4base11ElfMemImage14SymbolIteratorptEv' type='func-type' binding='global-binding' visibility='default-visibility' is-defined='yes'/>
    <elf-symbol name='_ZNK4base11ElfMemImage21LookupSymbolByAddressEPKvPNS0_10SymbolInfoE' type='func-type' binding='global-binding' visibility='default-visibility' is-defined='yes'/>
    <elf-symbol name='_ZNK4base11ElfMemImage3endEv' type='func-type' binding='global-binding' visibility='default-visibility' is-defined='yes'/>
    <elf-symbol name='_ZNK4base11ElfMemImage5beginEv' type='func-type' binding='global-binding' visibility='default-visibility' is-defined='yes'/>
    <elf-symbol name='_ZNK4base11ElfMemImage7GetPhdrEi' type='func-type' binding='global-binding' visibility='default-visibility' is-defined='yes'/>
    <elf-symbol name='_ZNK4base11ElfMemImage9GetDynstrEj' type='func-type' binding='global-binding' visibility='default-visibility' is-defined='yes'/>
    <elf-symbol name='_ZNK4base11ElfMemImage9GetDynsymEi' type='func-type' binding='global-binding' visibility='default-visibility' is-defined='yes'/>
    <elf-symbol name='_ZNK4base11ElfMemImage9GetVerdefEi' type='func-type' binding='global-binding' visibility='default-visibility' is-defined='yes'/>
    <elf-symbol name='_ZNK4base11ElfMemImage9GetVerstrEj' type='func-type' binding='global-binding' visibility='default-visibility' is-defined='yes'/>
    <elf-symbol name='_ZNK4base11ElfMemImage9GetVersymEi' type='func-type' binding='global-binding' visibility='default-visibility' is-defined='yes'/>
    <elf-symbol name='_ZNK4base11VDSOSupport12LookupSymbolEPKcS2_iPNS_11ElfMemImage10SymbolInfoE' type='func-type' binding='global-binding' visibility='default-visibility' is-defined='yes'/>
    <elf-symbol name='_ZNK4base11VDSOSupport21LookupSymbolByAddressEPKvPNS_11ElfMemImage10SymbolInfoE' type='func-type' binding='global-binding' visibility='default-visibility' is-defined='yes'/>
    <elf-symbol name='_ZNK4base8internal8HookListIPFvPKvmEE11GetSingularEv' type='func-type' binding='weak-binding' visibility='default-visibility' is-defined='yes'/>
    <elf-symbol name='_ZNK4base8internal8HookListIPFvPKvmEE5emptyEv' type='func-type' binding='weak-binding' visibility='default-visibility' is-defined='yes'/>
    <elf-symbol name='_ZNK4base8internal8HookListIPFvPKvmEE8TraverseEPS5_i' type='func-type' binding='weak-binding' visibility='default-visibility' is-defined='yes'/>
    <elf-symbol name='_ZNK8tcmalloc15StackTraceTable6Bucket8KeyEqualEmRKNS_10StackTraceE' type='func-type' binding='global-binding' visibility='default-visibility' is-defined='yes'/>
    <elf-symbol name='_ZNSbIcSt11char_traitsIcE13STL_AllocatorIcN15HeapLeakChecker9AllocatorEEE4_Rep10_M_destroyERKS4_' type='func-type' binding='weak-binding' visibility='default-visibility' is-defined='yes'/>
    <elf-symbol name='_ZNSbIcSt11char_traitsIcE13STL_AllocatorIcN15HeapLeakChecker9AllocatorEEE4_Rep9_S_createEmmRKS4_' type='func-type' binding='weak-binding' visibility='default-visibility' is-defined='yes'/>
    <elf-symbol name='_ZNSbIcSt11char_traitsIcE13STL_AllocatorIcN15HeapLeakChecker9AllocatorEEEC1EPKcRKS4_' type='func-type' binding='weak-binding' visibility='default-visibility' is-defined='yes'/>
    <elf-symbol name='_ZNSbIcSt11char_traitsIcE13STL_AllocatorIcN15HeapLeakChecker9AllocatorEEEC1ERKS5_' type='func-type' binding='weak-binding' visibility='default-visibility' alias='_ZNSbIcSt11char_traitsIcE13STL_AllocatorIcN15HeapLeakChecker9AllocatorEEEC2ERKS5_' is-defined='yes'/>
    <elf-symbol name='_ZNSbIcSt11char_traitsIcE13STL_AllocatorIcN15HeapLeakChecker9AllocatorEEEC2EPKcRKS4_' type='func-type' binding='weak-binding' visibility='default-visibility' alias='_ZNSbIcSt11char_traitsIcE13STL_AllocatorIcN15HeapLeakChecker9AllocatorEEEC1EPKcRKS4_' is-defined='yes'/>
    <elf-symbol name='_ZNSbIcSt11char_traitsIcE13STL_AllocatorIcN15HeapLeakChecker9AllocatorEEEC2ERKS5_' type='func-type' binding='weak-binding' visibility='default-visibility' is-defined='yes'/>
    <elf-symbol name='_ZNSbIcSt11char_traitsIcE13STL_AllocatorIcN15HeapLeakChecker9AllocatorEEED1Ev' type='func-type' binding='weak-binding' visibility='default-visibility' alias='_ZNSbIcSt11char_traitsIcE13STL_AllocatorIcN15HeapLeakChecker9AllocatorEEED2Ev' is-defined='yes'/>
    <elf-symbol name='_ZNSbIcSt11char_traitsIcE13STL_AllocatorIcN15HeapLeakChecker9AllocatorEEED2Ev' type='func-type' binding='weak-binding' visibility='default-visibility' is-defined='yes'/>
    <elf-symbol name='_ZNSt6vectorI11AllocObject13STL_AllocatorIS0_N15HeapLeakChecker9AllocatorEEE13_M_insert_auxEN9__gnu_cxx17__normal_iteratorIPS0_S5_EERKS0_' type='func-type' binding='weak-binding' visibility='default-visibility' is-defined='yes'/>
    <elf-symbol name='_ZNSt6vectorIN15MallocExtension12FreeListInfoESaIS1_EE13_M_insert_auxEN9__gnu_cxx17__normal_iteratorIPS1_S3_EERKS1_' type='func-type' binding='weak-binding' visibility='default-visibility' is-defined='yes'/>
    <elf-symbol name='_ZNSt6vectorIPFvvESaIS1_EE13_M_insert_auxEN9__gnu_cxx17__normal_iteratorIPS1_S3_EERKS1_' type='func-type' binding='weak-binding' visibility='default-visibility' is-defined='yes'/>
    <elf-symbol name='_ZNSt6vectorIPv13STL_AllocatorIS0_N15HeapLeakChecker9AllocatorEEE13_M_insert_auxEN9__gnu_cxx17__normal_iteratorIPS0_S5_EERKS0_' type='func-type' binding='weak-binding' visibility='default-visibility' is-defined='yes'/>
    <elf-symbol name='_ZNSt8_Rb_treeIN15MemoryRegionMap6RegionES1_St9_IdentityIS1_ENS0_9RegionCmpE13STL_AllocatorIS1_NS0_11MyAllocatorEEE10_M_insert_EPKSt18_Rb_tree_node_baseSB_RKS1_' type='func-type' binding='weak-binding' visibility='default-visibility' is-defined='yes'/>
    <elf-symbol name='_ZNSt8_Rb_treeIN15MemoryRegionMap6RegionES1_St9_IdentityIS1_ENS0_9RegionCmpE13STL_AllocatorIS1_NS0_11MyAllocatorEEE8_M_eraseEPSt13_Rb_tree_nodeIS1_E' type='func-type' binding='weak-binding' visibility='default-visibility' is-defined='yes'/>
    <elf-symbol name='_ZNSt8_Rb_treeIP17HeapProfileBucketSt4pairIKS1_N16HeapProfileTable8Snapshot5EntryEESt10_Select1stIS7_ESt4lessIS1_ESaIS7_EE10_M_insert_EPKSt18_Rb_tree_node_baseSG_RKS7_' type='func-type' binding='weak-binding' visibility='default-visibility' is-defined='yes'/>
    <elf-symbol name='_ZNSt8_Rb_treeIP17HeapProfileBucketSt4pairIKS1_N16HeapProfileTable8Snapshot5EntryEESt10_Select1stIS7_ESt4lessIS1_ESaIS7_EE16_M_insert_uniqueERKS7_' type='func-type' binding='weak-binding' visibility='default-visibility' is-defined='yes'/>
    <elf-symbol name='_ZNSt8_Rb_treeIP17HeapProfileBucketSt4pairIKS1_N16HeapProfileTable8Snapshot5EntryEESt10_Select1stIS7_ESt4lessIS1_ESaIS7_EE17_M_insert_unique_ESt23_Rb_tree_const_iteratorIS7_ERKS7_' type='func-type' binding='weak-binding' visibility='default-visibility' is-defined='yes'/>
    <elf-symbol name='_ZNSt8_Rb_treeIP17HeapProfileBucketSt4pairIKS1_N16HeapProfileTable8Snapshot5EntryEESt10_Select1stIS7_ESt4lessIS1_ESaIS7_EE8_M_eraseEPSt13_Rb_tree_nodeIS7_E' type='func-type' binding='weak-binding' visibility='default-visibility' is-defined='yes'/>
    <elf-symbol name='_ZNSt8_Rb_treeIPKvSt4pairIKS1_PKcESt10_Select1stIS6_ESt4lessIS1_ESaIS6_EE10_M_insert_EPKSt18_Rb_tree_node_baseSF_RKS6_' type='func-type' binding='weak-binding' visibility='default-visibility' is-defined='yes'/>
    <elf-symbol name='_ZNSt8_Rb_treeIPKvSt4pairIKS1_PKcESt10_Select1stIS6_ESt4lessIS1_ESaIS6_EE16_M_insert_uniqueERKS6_' type='func-type' binding='weak-binding' visibility='default-visibility' is-defined='yes'/>
    <elf-symbol name='_ZNSt8_Rb_treeIPKvSt4pairIKS1_PKcESt10_Select1stIS6_ESt4lessIS1_ESaIS6_EE17_M_insert_unique_ESt23_Rb_tree_const_iteratorIS6_ERKS6_' type='func-type' binding='weak-binding' visibility='default-visibility' is-defined='yes'/>
    <elf-symbol name='_ZNSt8_Rb_treeIPKvSt4pairIKS1_PKcESt10_Select1stIS6_ESt4lessIS1_ESaIS6_EE8_M_eraseEPSt13_Rb_tree_nodeIS6_E' type='func-type' binding='weak-binding' visibility='default-visibility' is-defined='yes'/>
    <elf-symbol name='_ZNSt8_Rb_treeISbIcSt11char_traitsIcE13STL_AllocatorIcN15HeapLeakChecker9AllocatorEEESt4pairIKS6_St6vectorI11AllocObjectS2_ISA_S4_EEESt10_Select1stISD_ESt4lessIS6_ES2_ISD_S4_EE10_M_insert_EPKSt18_Rb_tree_node_baseSM_RKSD_' type='func-type' binding='weak-binding' visibility='default-visibility' is-defined='yes'/>
    <elf-symbol name='_ZNSt8_Rb_treeISbIcSt11char_traitsIcE13STL_AllocatorIcN15HeapLeakChecker9AllocatorEEESt4pairIKS6_St6vectorI11AllocObjectS2_ISA_S4_EEESt10_Select1stISD_ESt4lessIS6_ES2_ISD_S4_EE16_M_insert_uniqueERKSD_' type='func-type' binding='weak-binding' visibility='default-visibility' is-defined='yes'/>
    <elf-symbol name='_ZNSt8_Rb_treeISbIcSt11char_traitsIcE13STL_AllocatorIcN15HeapLeakChecker9AllocatorEEESt4pairIKS6_St6vectorI11AllocObjectS2_ISA_S4_EEESt10_Select1stISD_ESt4lessIS6_ES2_ISD_S4_EE17_M_insert_unique_ESt23_Rb_tree_const_iteratorISD_ERKSD_' type='func-type' binding='weak-binding' visibility='default-visibility' is-defined='yes'/>
    <elf-symbol name='_ZNSt8_Rb_treeISbIcSt11char_traitsIcE13STL_AllocatorIcN15HeapLeakChecker9AllocatorEEESt4pairIKS6_St6vectorI11AllocObjectS2_ISA_S4_EEESt10_Select1stISD_ESt4lessIS6_ES2_ISD_S4_EE8_M_eraseEPSt13_Rb_tree_nodeISD_E' type='func-type' binding='weak-binding' visibility='default-visibility' is-defined='yes'/>
    <elf-symbol name='_ZNSt8_Rb_treeImSt4pairIKmN15HeapLeakChecker10RangeValueEESt10_Select1stIS4_ESt4lessImE13STL_AllocatorIS4_NS2_9AllocatorEEE10_M_insert_EPKSt18_Rb_tree_node_baseSF_RKS4_' type='func-type' binding='weak-binding' visibility='default-visibility' is-defined='yes'/>
    <elf-symbol name='_ZNSt8_Rb_treeImSt4pairIKmN15HeapLeakChecker10RangeValueEESt10_Select1stIS4_ESt4lessImE13STL_AllocatorIS4_NS2_9AllocatorEEE8_M_eraseEPSt13_Rb_tree_nodeIS4_E' type='func-type' binding='weak-binding' visibility='default-visibility' is-defined='yes'/>
    <elf-symbol name='_ZNSt8_Rb_treeImSt4pairIKmmESt10_Select1stIS2_ESt4lessImE13STL_AllocatorIS2_N15HeapLeakChecker9AllocatorEEE10_M_insert_EPKSt18_Rb_tree_node_baseSE_RKS2_' type='func-type' binding='weak-binding' visibility='default-visibility' is-defined='yes'/>
    <elf-symbol name='_ZNSt8_Rb_treeImSt4pairIKmmESt10_Select1stIS2_ESt4lessImE13STL_AllocatorIS2_N15HeapLeakChecker9AllocatorEEE8_M_eraseEPSt13_Rb_tree_nodeIS2_E' type='func-type' binding='weak-binding' visibility='default-visibility' is-defined='yes'/>
    <elf-symbol name='_ZNSt8_Rb_treeImmSt9_IdentityImESt4lessImE13STL_AllocatorImN15HeapLeakChecker9AllocatorEEE10_M_insert_EPKSt18_Rb_tree_node_baseSB_RKm' type='func-type' binding='weak-binding' visibility='default-visibility' is-defined='yes'/>
    <elf-symbol name='_ZNSt8_Rb_treeImmSt9_IdentityImESt4lessImE13STL_AllocatorImN15HeapLeakChecker9AllocatorEEE8_M_eraseEPSt13_Rb_tree_nodeImE' type='func-type' binding='weak-binding' visibility='default-visibility' is-defined='yes'/>
    <elf-symbol name='_ZSt13__adjust_heapIPN16HeapProfileTable8Snapshot5EntryElS2_EvT_T0_S5_T1_' type='func-type' binding='weak-binding' visibility='default-visibility' is-defined='yes'/>
    <elf-symbol name='_ZSt13__adjust_heapIPP17HeapProfileBucketlS1_PFbP16HeapProfileStatsS4_EEvT_T0_S8_T1_T2_' type='func-type' binding='weak-binding' visibility='default-visibility' is-defined='yes'/>
    <elf-symbol name='_ZSt13__heap_selectIPP17HeapProfileBucketPFbP16HeapProfileStatsS4_EEvT_S7_S7_T0_' type='func-type' binding='weak-binding' visibility='default-visibility' is-defined='yes'/>
    <elf-symbol name='_ZSt16__insertion_sortIPN16HeapProfileTable8Snapshot5EntryEEvT_S4_' type='func-type' binding='weak-binding' visibility='default-visibility' is-defined='yes'/>
    <elf-symbol name='_ZSt16__insertion_sortIPP17HeapProfileBucketPFbP16HeapProfileStatsS4_EEvT_S7_T0_' type='func-type' binding='weak-binding' visibility='default-visibility' is-defined='yes'/>
    <elf-symbol name='_ZSt16__introsort_loopIPN16HeapProfileTable8Snapshot5EntryElEvT_S4_T0_' type='func-type' binding='weak-binding' visibility='default-visibility' is-defined='yes'/>
    <elf-symbol name='_ZSt16__introsort_loopIPP17HeapProfileBucketlPFbP16HeapProfileStatsS4_EEvT_S7_T0_T1_' type='func-type' binding='weak-binding' visibility='default-visibility' is-defined='yes'/>
    <elf-symbol name='_ZStplIcSt11char_traitsIcESaIcEESbIT_T0_T1_ERKS6_PKS3_' type='func-type' binding='weak-binding' visibility='default-visibility' is-defined='yes'/>
    <elf-symbol name='_ZdaPv' type='func-type' binding='global-binding' visibility='default-visibility' is-defined='yes'/>
    <elf-symbol name='_ZdaPvRKSt9nothrow_t' type='func-type' binding='global-binding' visibility='default-visibility' is-defined='yes'/>
    <elf-symbol name='_ZdlPv' type='func-type' binding='global-binding' visibility='default-visibility' is-defined='yes'/>
    <elf-symbol name='_ZdlPvRKSt9nothrow_t' type='func-type' binding='global-binding' visibility='default-visibility' is-defined='yes'/>
    <elf-symbol name='_Znam' type='func-type' binding='global-binding' visibility='default-visibility' is-defined='yes'/>
    <elf-symbol name='_ZnamRKSt9nothrow_t' type='func-type' binding='global-binding' visibility='default-visibility' is-defined='yes'/>
    <elf-symbol name='_Znwm' type='func-type' binding='global-binding' visibility='default-visibility' is-defined='yes'/>
    <elf-symbol name='_ZnwmRKSt9nothrow_t' type='func-type' binding='global-binding' visibility='default-visibility' is-defined='yes'/>
    <elf-symbol name='__libc_calloc' type='func-type' binding='global-binding' visibility='default-visibility' is-defined='yes'/>
    <elf-symbol name='__libc_cfree' type='func-type' binding='global-binding' visibility='default-visibility' is-defined='yes'/>
    <elf-symbol name='__libc_free' type='func-type' binding='global-binding' visibility='default-visibility' is-defined='yes'/>
    <elf-symbol name='__libc_malloc' type='func-type' binding='global-binding' visibility='default-visibility' is-defined='yes'/>
    <elf-symbol name='__libc_memalign' type='func-type' binding='global-binding' visibility='default-visibility' is-defined='yes'/>
    <elf-symbol name='__libc_pvalloc' type='func-type' binding='global-binding' visibility='default-visibility' is-defined='yes'/>
    <elf-symbol name='__libc_realloc' type='func-type' binding='global-binding' visibility='default-visibility' is-defined='yes'/>
    <elf-symbol name='__libc_valloc' type='func-type' binding='global-binding' visibility='default-visibility' is-defined='yes'/>
    <elf-symbol name='__posix_memalign' type='func-type' binding='global-binding' visibility='default-visibility' is-defined='yes'/>
    <elf-symbol name='_fini' type='func-type' binding='global-binding' visibility='default-visibility' is-defined='yes'/>
    <elf-symbol name='_init' type='func-type' binding='global-binding' visibility='default-visibility' is-defined='yes'/>
    <elf-symbol name='calloc' type='func-type' binding='global-binding' visibility='default-visibility' is-defined='yes'/>
    <elf-symbol name='cfree' type='func-type' binding='global-binding' visibility='default-visibility' is-defined='yes'/>
    <elf-symbol name='free' type='func-type' binding='global-binding' visibility='default-visibility' is-defined='yes'/>
    <elf-symbol name='mallinfo' type='func-type' binding='global-binding' visibility='default-visibility' is-defined='yes'/>
    <elf-symbol name='malloc' type='func-type' binding='global-binding' visibility='default-visibility' is-defined='yes'/>
    <elf-symbol name='malloc_size' type='func-type' binding='global-binding' visibility='default-visibility' is-defined='yes'/>
    <elf-symbol name='malloc_stats' type='func-type' binding='global-binding' visibility='default-visibility' is-defined='yes'/>
    <elf-symbol name='malloc_usable_size' type='func-type' binding='global-binding' visibility='default-visibility' is-defined='yes'/>
    <elf-symbol name='mallopt' type='func-type' binding='global-binding' visibility='default-visibility' is-defined='yes'/>
    <elf-symbol name='memalign' type='func-type' binding='global-binding' visibility='default-visibility' is-defined='yes'/>
    <elf-symbol name='mmap' type='func-type' binding='global-binding' visibility='default-visibility' is-defined='yes'/>
    <elf-symbol name='mmap64' type='func-type' binding='global-binding' visibility='default-visibility' is-defined='yes'/>
    <elf-symbol name='mremap' type='func-type' binding='global-binding' visibility='default-visibility' is-defined='yes'/>
    <elf-symbol name='munmap' type='func-type' binding='global-binding' visibility='default-visibility' is-defined='yes'/>
    <elf-symbol name='posix_memalign' type='func-type' binding='global-binding' visibility='default-visibility' is-defined='yes'/>
    <elf-symbol name='pvalloc' type='func-type' binding='global-binding' visibility='default-visibility' is-defined='yes'/>
    <elf-symbol name='realloc' type='func-type' binding='global-binding' visibility='default-visibility' is-defined='yes'/>
    <elf-symbol name='sbrk' type='func-type' binding='global-binding' visibility='default-visibility' is-defined='yes'/>
    <elf-symbol name='tc_calloc' type='func-type' binding='global-binding' visibility='default-visibility' alias='calloc,__libc_calloc' is-defined='yes'/>
    <elf-symbol name='tc_cfree' type='func-type' binding='global-binding' visibility='default-visibility' alias='__libc_cfree,cfree' is-defined='yes'/>
    <elf-symbol name='tc_delete' type='func-type' binding='global-binding' visibility='default-visibility' alias='_ZdlPv' is-defined='yes'/>
    <elf-symbol name='tc_delete_nothrow' type='func-type' binding='global-binding' visibility='default-visibility' alias='_ZdlPvRKSt9nothrow_t' is-defined='yes'/>
    <elf-symbol name='tc_deletearray' type='func-type' binding='global-binding' visibility='default-visibility' alias='_ZdaPv' is-defined='yes'/>
    <elf-symbol name='tc_deletearray_nothrow' type='func-type' binding='global-binding' visibility='default-visibility' alias='_ZdaPvRKSt9nothrow_t' is-defined='yes'/>
    <elf-symbol name='tc_free' type='func-type' binding='global-binding' visibility='default-visibility' alias='free,__libc_free' is-defined='yes'/>
    <elf-symbol name='tc_mallinfo' type='func-type' binding='global-binding' visibility='default-visibility' alias='mallinfo' is-defined='yes'/>
    <elf-symbol name='tc_malloc' type='func-type' binding='global-binding' visibility='default-visibility' alias='__libc_malloc,malloc' is-defined='yes'/>
    <elf-symbol name='tc_malloc_size' type='func-type' binding='global-binding' visibility='default-visibility' alias='malloc_usable_size,malloc_size' is-defined='yes'/>
    <elf-symbol name='tc_malloc_skip_new_handler' type='func-type' binding='global-binding' visibility='default-visibility' is-defined='yes'/>
    <elf-symbol name='tc_malloc_stats' type='func-type' binding='global-binding' visibility='default-visibility' alias='malloc_stats' is-defined='yes'/>
    <elf-symbol name='tc_mallopt' type='func-type' binding='global-binding' visibility='default-visibility' alias='mallopt' is-defined='yes'/>
    <elf-symbol name='tc_memalign' type='func-type' binding='global-binding' visibility='default-visibility' alias='memalign,__libc_memalign' is-defined='yes'/>
    <elf-symbol name='tc_new' type='func-type' binding='global-binding' visibility='default-visibility' alias='_Znwm' is-defined='yes'/>
    <elf-symbol name='tc_new_nothrow' type='func-type' binding='global-binding' visibility='default-visibility' alias='_ZnwmRKSt9nothrow_t' is-defined='yes'/>
    <elf-symbol name='tc_newarray' type='func-type' binding='global-binding' visibility='default-visibility' alias='_Znam' is-defined='yes'/>
    <elf-symbol name='tc_newarray_nothrow' type='func-type' binding='global-binding' visibility='default-visibility' alias='_ZnamRKSt9nothrow_t' is-defined='yes'/>
    <elf-symbol name='tc_posix_memalign' type='func-type' binding='global-binding' visibility='default-visibility' alias='__posix_memalign,posix_memalign' is-defined='yes'/>
    <elf-symbol name='tc_pvalloc' type='func-type' binding='global-binding' visibility='default-visibility' alias='pvalloc,__libc_pvalloc' is-defined='yes'/>
    <elf-symbol name='tc_realloc' type='func-type' binding='global-binding' visibility='default-visibility' alias='__libc_realloc,realloc' is-defined='yes'/>
    <elf-symbol name='tc_set_new_mode' type='func-type' binding='global-binding' visibility='default-visibility' is-defined='yes'/>
    <elf-symbol name='tc_valloc' type='func-type' binding='global-binding' visibility='default-visibility' alias='__libc_valloc,valloc' is-defined='yes'/>
    <elf-symbol name='tc_version' type='func-type' binding='global-binding' visibility='default-visibility' is-defined='yes'/>
    <elf-symbol name='valloc' type='func-type' binding='global-binding' visibility='default-visibility' is-defined='yes'/>
  </elf-function-symbols>
  <elf-variable-symbols>
    <elf-symbol name='TCMalloc_SystemTaken' size='8' type='object-type' binding='global-binding' visibility='default-visibility' is-defined='yes'/>
    <elf-symbol name='_ZN11CpuProfiler9instance_E' size='88' type='object-type' binding='global-binding' visibility='default-visibility' is-defined='yes'/>
    <elf-symbol name='_ZN11HeapCleaner14heap_cleanups_E' size='8' type='object-type' binding='global-binding' visibility='default-visibility' is-defined='yes'/>
    <elf-symbol name='_ZN11ProfileData13kBufferLengthE' size='4' type='object-type' binding='global-binding' visibility='default-visibility' is-defined='yes'/>
    <elf-symbol name='_ZN11ProfileData14kAssociativityE' size='4' type='object-type' binding='global-binding' visibility='default-visibility' is-defined='yes'/>
    <elf-symbol name='_ZN11ProfileData14kMaxStackDepthE' size='4' type='object-type' binding='global-binding' visibility='default-visibility' is-defined='yes'/>
    <elf-symbol name='_ZN11ProfileData8kBucketsE' size='4' type='object-type' binding='global-binding' visibility='default-visibility' is-defined='yes'/>
    <elf-symbol name='_ZN14ProfileHandler13kMaxFrequencyE' size='4' type='object-type' binding='global-binding' visibility='default-visibility' is-defined='yes'/>
    <elf-symbol name='_ZN14ProfileHandler17kDefaultFrequencyE' size='4' type='object-type' binding='global-binding' visibility='default-visibility' is-defined='yes'/>
    <elf-symbol name='_ZN14ProfileHandler5once_E' size='4' type='object-type' binding='global-binding' visibility='default-visibility' is-defined='yes'/>
    <elf-symbol name='_ZN14ProfileHandler9instance_E' size='8' type='object-type' binding='global-binding' visibility='default-visibility' is-defined='yes'/>
    <elf-symbol name='_ZN15HeapLeakChecker9Allocator12alloc_count_E' size='4' type='object-type' binding='global-binding' visibility='default-visibility' is-defined='yes'/>
    <elf-symbol name='_ZN15HeapLeakChecker9Allocator6arena_E' size='8' type='object-type' binding='global-binding' visibility='default-visibility' is-defined='yes'/>
    <elf-symbol name='_ZN15MemoryRegionMap11owner_lock_E' size='4' type='object-type' binding='global-binding' visibility='default-visibility' is-defined='yes'/>
    <elf-symbol name='_ZN15MemoryRegionMap11unmap_size_E' size='8' type='object-type' binding='global-binding' visibility='default-visibility' is-defined='yes'/>
    <elf-symbol name='_ZN15MemoryRegionMap12num_buckets_E' size='4' type='object-type' binding='global-binding' visibility='default-visibility' is-defined='yes'/>
    <elf-symbol name='_ZN15MemoryRegionMap13bucket_table_E' size='8' type='object-type' binding='global-binding' visibility='default-visibility' is-defined='yes'/>
    <elf-symbol name='_ZN15MemoryRegionMap13client_count_E' size='4' type='object-type' binding='global-binding' visibility='default-visibility' is-defined='yes'/>
    <elf-symbol name='_ZN15MemoryRegionMap14saved_buckets_E' size='1120' type='object-type' binding='global-binding' visibility='default-visibility' is-defined='yes'/>
    <elf-symbol name='_ZN15MemoryRegionMap15lock_owner_tid_E' size='8' type='object-type' binding='global-binding' visibility='default-visibility' is-defined='yes'/>
    <elf-symbol name='_ZN15MemoryRegionMap16max_stack_depth_E' size='4' type='object-type' binding='global-binding' visibility='default-visibility' is-defined='yes'/>
    <elf-symbol name='_ZN15MemoryRegionMap16recursion_count_E' size='4' type='object-type' binding='global-binding' visibility='default-visibility' is-defined='yes'/>
    <elf-symbol name='_ZN15MemoryRegionMap19saved_buckets_keys_E' size='5120' type='object-type' binding='global-binding' visibility='default-visibility' is-defined='yes'/>
    <elf-symbol name='_ZN15MemoryRegionMap20saved_buckets_count_E' size='4' type='object-type' binding='global-binding' visibility='default-visibility' is-defined='yes'/>
    <elf-symbol name='_ZN15MemoryRegionMap5lock_E' size='4' type='object-type' binding='global-binding' visibility='default-visibility' is-defined='yes'/>
    <elf-symbol name='_ZN15MemoryRegionMap6arena_E' size='8' type='object-type' binding='global-binding' visibility='default-visibility' is-defined='yes'/>
    <elf-symbol name='_ZN15MemoryRegionMap8regions_E' size='8' type='object-type' binding='global-binding' visibility='default-visibility' is-defined='yes'/>
    <elf-symbol name='_ZN15MemoryRegionMap9map_size_E' size='8' type='object-type' binding='global-binding' visibility='default-visibility' is-defined='yes'/>
    <elf-symbol name='_ZN16HeapProfileTable14kMaxStackDepthE' size='4' type='object-type' binding='global-binding' visibility='default-visibility' is-defined='yes'/>
    <elf-symbol name='_ZN16HeapProfileTable8kFileExtE' size='6' type='object-type' binding='global-binding' visibility='default-visibility' is-defined='yes'/>
    <elf-symbol name='_ZN28HeapLeakCheckerGlobalPrePost6count_E' size='4' type='object-type' binding='global-binding' visibility='default-visibility' is-defined='yes'/>
    <elf-symbol name='_ZN4base11ElfMemImage12kInvalidBaseE' size='8' type='object-type' binding='global-binding' visibility='default-visibility' is-defined='yes'/>
    <elf-symbol name='_ZN4base11VDSOSupport10vdso_base_E' size='8' type='object-type' binding='global-binding' visibility='default-visibility' is-defined='yes'/>
    <elf-symbol name='_ZN60FLAG__namespace_do_not_use_directly_use_DECLARE_bool_instead14FLAGS_mmap_logE' size='1' type='object-type' binding='global-binding' visibility='default-visibility' is-defined='yes'/>
    <elf-symbol name='_ZN60FLAG__namespace_do_not_use_directly_use_DECLARE_bool_instead16FLAGS_nommap_logE' size='1' type='object-type' binding='global-binding' visibility='default-visibility' is-defined='yes'/>
    <elf-symbol name='_ZN60FLAG__namespace_do_not_use_directly_use_DECLARE_bool_instead18FLAGS_mmap_profileE' size='1' type='object-type' binding='global-binding' visibility='default-visibility' is-defined='yes'/>
    <elf-symbol name='_ZN60FLAG__namespace_do_not_use_directly_use_DECLARE_bool_instead20FLAGS_nommap_profileE' size='1' type='object-type' binding='global-binding' visibility='default-visibility' is-defined='yes'/>
    <elf-symbol name='_ZN60FLAG__namespace_do_not_use_directly_use_DECLARE_bool_instead22FLAGS_malloc_skip_mmapE' size='1' type='object-type' binding='global-binding' visibility='default-visibility' is-defined='yes'/>
    <elf-symbol name='_ZN60FLAG__namespace_do_not_use_directly_use_DECLARE_bool_instead22FLAGS_malloc_skip_sbrkE' size='1' type='object-type' binding='global-binding' visibility='default-visibility' is-defined='yes'/>
    <elf-symbol name='_ZN60FLAG__namespace_do_not_use_directly_use_DECLARE_bool_instead23FLAGS_heap_check_reportE' size='1' type='object-type' binding='global-binding' visibility='default-visibility' is-defined='yes'/>
    <elf-symbol name='_ZN60FLAG__namespace_do_not_use_directly_use_DECLARE_bool_instead23FLAGS_only_mmap_profileE' size='1' type='object-type' binding='global-binding' visibility='default-visibility' is-defined='yes'/>
    <elf-symbol name='_ZN60FLAG__namespace_do_not_use_directly_use_DECLARE_bool_instead24FLAGS_nomalloc_skip_mmapE' size='1' type='object-type' binding='global-binding' visibility='default-visibility' is-defined='yes'/>
    <elf-symbol name='_ZN60FLAG__namespace_do_not_use_directly_use_DECLARE_bool_instead24FLAGS_nomalloc_skip_sbrkE' size='1' type='object-type' binding='global-binding' visibility='default-visibility' is-defined='yes'/>
    <elf-symbol name='_ZN60FLAG__namespace_do_not_use_directly_use_DECLARE_bool_instead25FLAGS_noheap_check_reportE' size='1' type='object-type' binding='global-binding' visibility='default-visibility' is-defined='yes'/>
    <elf-symbol name='_ZN60FLAG__namespace_do_not_use_directly_use_DECLARE_bool_instead25FLAGS_noonly_mmap_profileE' size='1' type='object-type' binding='global-binding' visibility='default-visibility' is-defined='yes'/>
    <elf-symbol name='_ZN60FLAG__namespace_do_not_use_directly_use_DECLARE_bool_instead27FLAGS_cpu_profiler_unittestE' size='1' type='object-type' binding='global-binding' visibility='default-visibility' is-defined='yes'/>
    <elf-symbol name='_ZN60FLAG__namespace_do_not_use_directly_use_DECLARE_bool_instead29FLAGS_heap_check_strict_checkE' size='1' type='object-type' binding='global-binding' visibility='default-visibility' is-defined='yes'/>
    <elf-symbol name='_ZN60FLAG__namespace_do_not_use_directly_use_DECLARE_bool_instead29FLAGS_nocpu_profiler_unittestE' size='1' type='object-type' binding='global-binding' visibility='default-visibility' is-defined='yes'/>
    <elf-symbol name='_ZN60FLAG__namespace_do_not_use_directly_use_DECLARE_bool_instead30FLAGS_heap_check_run_under_gdbE' size='1' type='object-type' binding='global-binding' visibility='default-visibility' is-defined='yes'/>
    <elf-symbol name='_ZN60FLAG__namespace_do_not_use_directly_use_DECLARE_bool_instead30FLAGS_memfs_malloc_map_privateE' size='1' type='object-type' binding='global-binding' visibility='default-visibility' is-defined='yes'/>
    <elf-symbol name='_ZN60FLAG__namespace_do_not_use_directly_use_DECLARE_bool_instead31FLAGS_cleanup_old_heap_profilesE' size='1' type='object-type' binding='global-binding' visibility='default-visibility' is-defined='yes'/>
    <elf-symbol name='_ZN60FLAG__namespace_do_not_use_directly_use_DECLARE_bool_instead31FLAGS_heap_check_identify_leaksE' size='1' type='object-type' binding='global-binding' visibility='default-visibility' is-defined='yes'/>
    <elf-symbol name='_ZN60FLAG__namespace_do_not_use_directly_use_DECLARE_bool_instead31FLAGS_noheap_check_strict_checkE' size='1' type='object-type' binding='global-binding' visibility='default-visibility' is-defined='yes'/>
    <elf-symbol name='_ZN60FLAG__namespace_do_not_use_directly_use_DECLARE_bool_instead32FLAGS_memfs_malloc_abort_on_failE' size='1' type='object-type' binding='global-binding' visibility='default-visibility' is-defined='yes'/>
    <elf-symbol name='_ZN60FLAG__namespace_do_not_use_directly_use_DECLARE_bool_instead32FLAGS_noheap_check_run_under_gdbE' size='1' type='object-type' binding='global-binding' visibility='default-visibility' is-defined='yes'/>
    <elf-symbol name='_ZN60FLAG__namespace_do_not_use_directly_use_DECLARE_bool_instead32FLAGS_nomemfs_malloc_map_privateE' size='1' type='object-type' binding='global-binding' visibility='default-visibility' is-defined='yes'/>
    <elf-symbol name='_ZN60FLAG__namespace_do_not_use_directly_use_DECLARE_bool_instead33FLAGS_nocleanup_old_heap_profilesE' size='1' type='object-type' binding='global-binding' visibility='default-visibility' is-defined='yes'/>
    <elf-symbol name='_ZN60FLAG__namespace_do_not_use_directly_use_DECLARE_bool_instead33FLAGS_noheap_check_identify_leaksE' size='1' type='object-type' binding='global-binding' visibility='default-visibility' is-defined='yes'/>
    <elf-symbol name='_ZN60FLAG__namespace_do_not_use_directly_use_DECLARE_bool_instead34FLAGS_heap_check_after_destructorsE' size='1' type='object-type' binding='global-binding' visibility='default-visibility' is-defined='yes'/>
    <elf-symbol name='_ZN60FLAG__namespace_do_not_use_directly_use_DECLARE_bool_instead34FLAGS_nomemfs_malloc_abort_on_failE' size='1' type='object-type' binding='global-binding' visibility='default-visibility' is-defined='yes'/>
    <elf-symbol name='_ZN60FLAG__namespace_do_not_use_directly_use_DECLARE_bool_instead35FLAGS_heap_check_ignore_global_liveE' size='1' type='object-type' binding='global-binding' visibility='default-visibility' is-defined='yes'/>
    <elf-symbol name='_ZN60FLAG__namespace_do_not_use_directly_use_DECLARE_bool_instead35FLAGS_heap_check_ignore_thread_liveE' size='1' type='object-type' binding='global-binding' visibility='default-visibility' is-defined='yes'/>
    <elf-symbol name='_ZN60FLAG__namespace_do_not_use_directly_use_DECLARE_bool_instead35FLAGS_malloc_disable_memory_releaseE' size='1' type='object-type' binding='global-binding' visibility='default-visibility' is-defined='yes'/>
    <elf-symbol name='_ZN60FLAG__namespace_do_not_use_directly_use_DECLARE_bool_instead35FLAGS_memfs_malloc_ignore_mmap_failE' size='1' type='object-type' binding='global-binding' visibility='default-visibility' is-defined='yes'/>
    <elf-symbol name='_ZN60FLAG__namespace_do_not_use_directly_use_DECLARE_bool_instead36FLAGS_heap_check_before_constructorsE' size='1' type='object-type' binding='global-binding' visibility='default-visibility' is-defined='yes'/>
    <elf-symbol name='_ZN60FLAG__namespace_do_not_use_directly_use_DECLARE_bool_instead36FLAGS_noheap_check_after_destructorsE' size='1' type='object-type' binding='global-binding' visibility='default-visibility' is-defined='yes'/>
    <elf-symbol name='_ZN60FLAG__namespace_do_not_use_directly_use_DECLARE_bool_instead37FLAGS_noheap_check_ignore_global_liveE' size='1' type='object-type' binding='global-binding' visibility='default-visibility' is-defined='yes'/>
    <elf-symbol name='_ZN60FLAG__namespace_do_not_use_directly_use_DECLARE_bool_instead37FLAGS_noheap_check_ignore_thread_liveE' size='1' type='object-type' binding='global-binding' visibility='default-visibility' is-defined='yes'/>
    <elf-symbol name='_ZN60FLAG__namespace_do_not_use_directly_use_DECLARE_bool_instead37FLAGS_nomalloc_disable_memory_releaseE' size='1' type='object-type' binding='global-binding' visibility='default-visibility' is-defined='yes'/>
    <elf-symbol name='_ZN60FLAG__namespace_do_not_use_directly_use_DECLARE_bool_instead37FLAGS_nomemfs_malloc_ignore_mmap_failE' size='1' type='object-type' binding='global-binding' visibility='default-visibility' is-defined='yes'/>
    <elf-symbol name='_ZN60FLAG__namespace_do_not_use_directly_use_DECLARE_bool_instead38FLAGS_noheap_check_before_constructorsE' size='1' type='object-type' binding='global-binding' visibility='default-visibility' is-defined='yes'/>
    <elf-symbol name='_ZN60FLAG__namespace_do_not_use_directly_use_DECLARE_bool_instead39FLAGS_heap_check_test_pointer_alignmentE' size='1' type='object-type' binding='global-binding' visibility='default-visibility' is-defined='yes'/>
    <elf-symbol name='_ZN60FLAG__namespace_do_not_use_directly_use_DECLARE_bool_instead41FLAGS_noheap_check_test_pointer_alignmentE' size='1' type='object-type' binding='global-binding' visibility='default-visibility' is-defined='yes'/>
    <elf-symbol name='_ZN61FLAG__namespace_do_not_use_directly_use_DECLARE_int32_instead13FLAGS_verboseE' size='4' type='object-type' binding='global-binding' visibility='default-visibility' is-defined='yes'/>
    <elf-symbol name='_ZN61FLAG__namespace_do_not_use_directly_use_DECLARE_int32_instead15FLAGS_noverboseE' size='1' type='object-type' binding='global-binding' visibility='default-visibility' is-defined='yes'/>
    <elf-symbol name='_ZN61FLAG__namespace_do_not_use_directly_use_DECLARE_int32_instead25FLAGS_malloc_devmem_limitE' size='4' type='object-type' binding='global-binding' visibility='default-visibility' is-defined='yes'/>
    <elf-symbol name='_ZN61FLAG__namespace_do_not_use_directly_use_DECLARE_int32_instead25FLAGS_malloc_devmem_startE' size='4' type='object-type' binding='global-binding' visibility='default-visibility' is-defined='yes'/>
    <elf-symbol name='_ZN61FLAG__namespace_do_not_use_directly_use_DECLARE_int32_instead26FLAGS_heap_check_max_leaksE' size='4' type='object-type' binding='global-binding' visibility='default-visibility' is-defined='yes'/>
    <elf-symbol name='_ZN61FLAG__namespace_do_not_use_directly_use_DECLARE_int32_instead27FLAGS_nomalloc_devmem_limitE' size='1' type='object-type' binding='global-binding' visibility='default-visibility' is-defined='yes'/>
    <elf-symbol name='_ZN61FLAG__namespace_do_not_use_directly_use_DECLARE_int32_instead27FLAGS_nomalloc_devmem_startE' size='1' type='object-type' binding='global-binding' visibility='default-visibility' is-defined='yes'/>
    <elf-symbol name='_ZN61FLAG__namespace_do_not_use_directly_use_DECLARE_int32_instead28FLAGS_noheap_check_max_leaksE' size='1' type='object-type' binding='global-binding' visibility='default-visibility' is-defined='yes'/>
    <elf-symbol name='_ZN61FLAG__namespace_do_not_use_directly_use_DECLARE_int32_instead30FLAGS_heap_check_delay_secondsE' size='4' type='object-type' binding='global-binding' visibility='default-visibility' is-defined='yes'/>
    <elf-symbol name='_ZN61FLAG__namespace_do_not_use_directly_use_DECLARE_int32_instead32FLAGS_noheap_check_delay_secondsE' size='1' type='object-type' binding='global-binding' visibility='default-visibility' is-defined='yes'/>
    <elf-symbol name='_ZN61FLAG__namespace_do_not_use_directly_use_DECLARE_int32_instead41FLAGS_heap_check_pointer_source_alignmentE' size='4' type='object-type' binding='global-binding' visibility='default-visibility' is-defined='yes'/>
    <elf-symbol name='_ZN61FLAG__namespace_do_not_use_directly_use_DECLARE_int32_instead43FLAGS_noheap_check_pointer_source_alignmentE' size='1' type='object-type' binding='global-binding' visibility='default-visibility' is-defined='yes'/>
    <elf-symbol name='_ZN61FLAG__namespace_do_not_use_directly_use_DECLARE_int64_instead27FLAGS_memfs_malloc_limit_mbE' size='8' type='object-type' binding='global-binding' visibility='default-visibility' is-defined='yes'/>
    <elf-symbol name='_ZN61FLAG__namespace_do_not_use_directly_use_DECLARE_int64_instead28FLAGS_tcmalloc_heap_limit_mbE' size='8' type='object-type' binding='global-binding' visibility='default-visibility' is-defined='yes'/>
    <elf-symbol name='_ZN61FLAG__namespace_do_not_use_directly_use_DECLARE_int64_instead29FLAGS_nomemfs_malloc_limit_mbE' size='1' type='object-type' binding='global-binding' visibility='default-visibility' is-defined='yes'/>
    <elf-symbol name='_ZN61FLAG__namespace_do_not_use_directly_use_DECLARE_int64_instead30FLAGS_notcmalloc_heap_limit_mbE' size='1' type='object-type' binding='global-binding' visibility='default-visibility' is-defined='yes'/>
    <elf-symbol name='_ZN61FLAG__namespace_do_not_use_directly_use_DECLARE_int64_instead31FLAGS_tcmalloc_sample_parameterE' size='8' type='object-type' binding='global-binding' visibility='default-visibility' is-defined='yes'/>
    <elf-symbol name='_ZN61FLAG__namespace_do_not_use_directly_use_DECLARE_int64_instead32FLAGS_heap_profile_time_intervalE' size='8' type='object-type' binding='global-binding' visibility='default-visibility' is-defined='yes'/>
    <elf-symbol name='_ZN61FLAG__namespace_do_not_use_directly_use_DECLARE_int64_instead33FLAGS_heap_profile_inuse_intervalE' size='8' type='object-type' binding='global-binding' visibility='default-visibility' is-defined='yes'/>
    <elf-symbol name='_ZN61FLAG__namespace_do_not_use_directly_use_DECLARE_int64_instead33FLAGS_notcmalloc_sample_parameterE' size='1' type='object-type' binding='global-binding' visibility='default-visibility' is-defined='yes'/>
    <elf-symbol name='_ZN61FLAG__namespace_do_not_use_directly_use_DECLARE_int64_instead34FLAGS_noheap_profile_time_intervalE' size='1' type='object-type' binding='global-binding' visibility='default-visibility' is-defined='yes'/>
    <elf-symbol name='_ZN61FLAG__namespace_do_not_use_directly_use_DECLARE_int64_instead35FLAGS_heap_check_max_pointer_offsetE' size='8' type='object-type' binding='global-binding' visibility='default-visibility' is-defined='yes'/>
    <elf-symbol name='_ZN61FLAG__namespace_do_not_use_directly_use_DECLARE_int64_instead35FLAGS_noheap_profile_inuse_intervalE' size='1' type='object-type' binding='global-binding' visibility='default-visibility' is-defined='yes'/>
    <elf-symbol name='_ZN61FLAG__namespace_do_not_use_directly_use_DECLARE_int64_instead37FLAGS_noheap_check_max_pointer_offsetE' size='1' type='object-type' binding='global-binding' visibility='default-visibility' is-defined='yes'/>
    <elf-symbol name='_ZN61FLAG__namespace_do_not_use_directly_use_DECLARE_int64_instead38FLAGS_heap_profile_allocation_intervalE' size='8' type='object-type' binding='global-binding' visibility='default-visibility' is-defined='yes'/>
    <elf-symbol name='_ZN61FLAG__namespace_do_not_use_directly_use_DECLARE_int64_instead40FLAGS_heap_profile_deallocation_intervalE' size='8' type='object-type' binding='global-binding' visibility='default-visibility' is-defined='yes'/>
    <elf-symbol name='_ZN61FLAG__namespace_do_not_use_directly_use_DECLARE_int64_instead40FLAGS_noheap_profile_allocation_intervalE' size='1' type='object-type' binding='global-binding' visibility='default-visibility' is-defined='yes'/>
    <elf-symbol name='_ZN61FLAG__namespace_do_not_use_directly_use_DECLARE_int64_instead42FLAGS_noheap_profile_deallocation_intervalE' size='1' type='object-type' binding='global-binding' visibility='default-visibility' is-defined='yes'/>
    <elf-symbol name='_ZN61FLAG__namespace_do_not_use_directly_use_DECLARE_int64_instead43FLAGS_tcmalloc_large_alloc_report_thresholdE' size='8' type='object-type' binding='global-binding' visibility='default-visibility' is-defined='yes'/>
    <elf-symbol name='_ZN61FLAG__namespace_do_not_use_directly_use_DECLARE_int64_instead45FLAGS_notcmalloc_large_alloc_report_thresholdE' size='1' type='object-type' binding='global-binding' visibility='default-visibility' is-defined='yes'/>
    <elf-symbol name='_ZN62FLAG__namespace_do_not_use_directly_use_DECLARE_double_instead27FLAGS_tcmalloc_release_rateE' size='8' type='object-type' binding='global-binding' visibility='default-visibility' is-defined='yes'/>
    <elf-symbol name='_ZN62FLAG__namespace_do_not_use_directly_use_DECLARE_double_instead29FLAGS_notcmalloc_release_rateE' size='1' type='object-type' binding='global-binding' visibility='default-visibility' is-defined='yes'/>
    <elf-symbol name='_ZN62FLAG__namespace_do_not_use_directly_use_DECLARE_string_instead16FLAGS_heap_checkE' size='8' type='object-type' binding='global-binding' visibility='default-visibility' is-defined='yes'/>
    <elf-symbol name='_ZN62FLAG__namespace_do_not_use_directly_use_DECLARE_string_instead18FLAGS_noheap_checkE' size='1' type='object-type' binding='global-binding' visibility='default-visibility' is-defined='yes'/>
    <elf-symbol name='_ZN62FLAG__namespace_do_not_use_directly_use_DECLARE_string_instead21FLAGS_symbolize_pprofE' size='8' type='object-type' binding='global-binding' visibility='default-visibility' is-defined='yes'/>
    <elf-symbol name='_ZN62FLAG__namespace_do_not_use_directly_use_DECLARE_string_instead23FLAGS_memfs_malloc_pathE' size='8' type='object-type' binding='global-binding' visibility='default-visibility' is-defined='yes'/>
    <elf-symbol name='_ZN62FLAG__namespace_do_not_use_directly_use_DECLARE_string_instead23FLAGS_nosymbolize_pprofE' size='1' type='object-type' binding='global-binding' visibility='default-visibility' is-defined='yes'/>
    <elf-symbol name='_ZN62FLAG__namespace_do_not_use_directly_use_DECLARE_string_instead24FLAGS_heap_profile_pprofE' size='8' type='object-type' binding='global-binding' visibility='default-visibility' is-defined='yes'/>
    <elf-symbol name='_ZN62FLAG__namespace_do_not_use_directly_use_DECLARE_string_instead25FLAGS_nomemfs_malloc_pathE' size='1' type='object-type' binding='global-binding' visibility='default-visibility' is-defined='yes'/>
    <elf-symbol name='_ZN62FLAG__namespace_do_not_use_directly_use_DECLARE_string_instead26FLAGS_noheap_profile_pprofE' size='1' type='object-type' binding='global-binding' visibility='default-visibility' is-defined='yes'/>
    <elf-symbol name='_ZN62FLAG__namespace_do_not_use_directly_use_DECLARE_string_instead31FLAGS_heap_check_dump_directoryE' size='8' type='object-type' binding='global-binding' visibility='default-visibility' is-defined='yes'/>
    <elf-symbol name='_ZN62FLAG__namespace_do_not_use_directly_use_DECLARE_string_instead33FLAGS_noheap_check_dump_directoryE' size='1' type='object-type' binding='global-binding' visibility='default-visibility' is-defined='yes'/>
    <elf-symbol name='_ZN8SpinLock18LINKER_INITIALIZEDE' size='4' type='object-type' binding='global-binding' visibility='default-visibility' is-defined='yes'/>
    <elf-symbol name='_ZN8tcmalloc11ThreadCache11tsd_inited_E' size='1' type='object-type' binding='global-binding' visibility='default-visibility' is-defined='yes'/>
    <elf-symbol name='_ZN8tcmalloc11ThreadCache13thread_heaps_E' size='8' type='object-type' binding='global-binding' visibility='default-visibility' is-defined='yes'/>
    <elf-symbol name='_ZN8tcmalloc11ThreadCache17threadlocal_data_E' size='16' type='tls-type' binding='global-binding' visibility='default-visibility' is-defined='yes'/>
    <elf-symbol name='_ZN8tcmalloc11ThreadCache18next_memory_steal_E' size='8' type='object-type' binding='global-binding' visibility='default-visibility' is-defined='yes'/>
    <elf-symbol name='_ZN8tcmalloc11ThreadCache18thread_heap_count_E' size='4' type='object-type' binding='global-binding' visibility='default-visibility' is-defined='yes'/>
    <elf-symbol name='_ZN8tcmalloc11ThreadCache22per_thread_cache_size_E' size='8' type='object-type' binding='global-binding' visibility='default-visibility' is-defined='yes'/>
    <elf-symbol name='_ZN8tcmalloc11ThreadCache22unclaimed_cache_space_E' size='8' type='object-type' binding='global-binding' visibility='default-visibility' is-defined='yes'/>
    <elf-symbol name='_ZN8tcmalloc11ThreadCache26overall_thread_cache_size_E' size='8' type='object-type' binding='global-binding' visibility='default-visibility' is-defined='yes'/>
    <elf-symbol name='_ZN8tcmalloc11ThreadCache9heap_key_E' size='4' type='object-type' binding='global-binding' visibility='default-visibility' is-defined='yes'/>
    <elf-symbol name='_ZN8tcmalloc18log_message_writerE' size='8' type='object-type' binding='global-binding' visibility='default-visibility' is-defined='yes'/>
    <elf-symbol name='_ZN8tcmalloc21threadcache_allocatorE' size='32' type='object-type' binding='global-binding' visibility='default-visibility' is-defined='yes'/>
    <elf-symbol name='_ZN8tcmalloc6Static14central_cache_E' size='107008' type='object-type' binding='global-binding' visibility='default-visibility' is-defined='yes'/>
    <elf-symbol name='_ZN8tcmalloc6Static14growth_stacks_E' size='8' type='object-type' binding='global-binding' visibility='default-visibility' is-defined='yes'/>
    <elf-symbol name='_ZN8tcmalloc6Static14pageheap_lock_E' size='4' type='object-type' binding='global-binding' visibility='default-visibility' is-defined='yes'/>
    <elf-symbol name='_ZN8tcmalloc6Static15span_allocator_E' size='32' type='object-type' binding='global-binding' visibility='default-visibility' is-defined='yes'/>
    <elf-symbol name='_ZN8tcmalloc6Static16sampled_objects_E' size='48' type='object-type' binding='global-binding' visibility='default-visibility' is-defined='yes'/>
    <elf-symbol name='_ZN8tcmalloc6Static17bucket_allocator_E' size='32' type='object-type' binding='global-binding' visibility='default-visibility' is-defined='yes'/>
    <elf-symbol name='_ZN8tcmalloc6Static21stacktrace_allocator_E' size='32' type='object-type' binding='global-binding' visibility='default-visibility' is-defined='yes'/>
    <elf-symbol name='_ZN8tcmalloc6Static8sizemap_E' size='3936' type='object-type' binding='global-binding' visibility='default-visibility' is-defined='yes'/>
    <elf-symbol name='_ZN8tcmalloc6Static9pageheap_E' size='8' type='object-type' binding='global-binding' visibility='default-visibility' is-defined='yes'/>
    <elf-symbol name='_ZN8tcmalloc7Sampler10log_table_E' size='8192' type='object-type' binding='global-binding' visibility='default-visibility' is-defined='yes'/>
    <elf-symbol name='_ZNSbIcSt11char_traitsIcE13STL_AllocatorIcN15HeapLeakChecker9AllocatorEEE4_Rep11_S_terminalE' size='1' type='object-type' binding='gnu-unique-binding' visibility='default-visibility' is-defined='yes'/>
    <elf-symbol name='_ZNSbIcSt11char_traitsIcE13STL_AllocatorIcN15HeapLeakChecker9AllocatorEEE4_Rep20_S_empty_rep_storageE' size='32' type='object-type' binding='gnu-unique-binding' visibility='default-visibility' is-defined='yes'/>
    <elf-symbol name='_ZTI12SysAllocator' size='16' type='object-type' binding='weak-binding' visibility='default-visibility' is-defined='yes'/>
    <elf-symbol name='_ZTI15MallocExtension' size='16' type='object-type' binding='weak-binding' visibility='default-visibility' is-defined='yes'/>
    <elf-symbol name='_ZTI16MmapSysAllocator' size='24' type='object-type' binding='weak-binding' visibility='default-visibility' is-defined='yes'/>
    <elf-symbol name='_ZTI16SbrkSysAllocator' size='24' type='object-type' binding='weak-binding' visibility='default-visibility' is-defined='yes'/>
    <elf-symbol name='_ZTI18DevMemSysAllocator' size='24' type='object-type' binding='weak-binding' visibility='default-visibility' is-defined='yes'/>
    <elf-symbol name='_ZTI19DefaultSysAllocator' size='24' type='object-type' binding='weak-binding' visibility='default-visibility' is-defined='yes'/>
    <elf-symbol name='_ZTI19HugetlbSysAllocator' size='24' type='object-type' binding='weak-binding' visibility='default-visibility' is-defined='yes'/>
    <elf-symbol name='_ZTI22TCMallocImplementation' size='24' type='object-type' binding='weak-binding' visibility='default-visibility' is-defined='yes'/>
    <elf-symbol name='_ZTS12SysAllocator' size='15' type='object-type' binding='weak-binding' visibility='default-visibility' is-defined='yes'/>
    <elf-symbol name='_ZTS15MallocExtension' size='18' type='object-type' binding='weak-binding' visibility='default-visibility' is-defined='yes'/>
    <elf-symbol name='_ZTS16MmapSysAllocator' size='19' type='object-type' binding='weak-binding' visibility='default-visibility' is-defined='yes'/>
    <elf-symbol name='_ZTS16SbrkSysAllocator' size='19' type='object-type' binding='weak-binding' visibility='default-visibility' is-defined='yes'/>
    <elf-symbol name='_ZTS18DevMemSysAllocator' size='21' type='object-type' binding='weak-binding' visibility='default-visibility' is-defined='yes'/>
    <elf-symbol name='_ZTS19DefaultSysAllocator' size='22' type='object-type' binding='weak-binding' visibility='default-visibility' is-defined='yes'/>
    <elf-symbol name='_ZTS19HugetlbSysAllocator' size='22' type='object-type' binding='weak-binding' visibility='default-visibility' is-defined='yes'/>
    <elf-symbol name='_ZTS22TCMallocImplementation' size='25' type='object-type' binding='weak-binding' visibility='default-visibility' is-defined='yes'/>
    <elf-symbol name='_ZTV12SysAllocator' size='40' type='object-type' binding='weak-binding' visibility='default-visibility' is-defined='yes'/>
    <elf-symbol name='_ZTV15MallocExtension' size='232' type='object-type' binding='weak-binding' visibility='default-visibility' is-defined='yes'/>
    <elf-symbol name='_ZTV16MmapSysAllocator' size='40' type='object-type' binding='weak-binding' visibility='default-visibility' is-defined='yes'/>
    <elf-symbol name='_ZTV16SbrkSysAllocator' size='40' type='object-type' binding='weak-binding' visibility='default-visibility' is-defined='yes'/>
    <elf-symbol name='_ZTV18DevMemSysAllocator' size='40' type='object-type' binding='weak-binding' visibility='default-visibility' is-defined='yes'/>
    <elf-symbol name='_ZTV19DefaultSysAllocator' size='40' type='object-type' binding='weak-binding' visibility='default-visibility' is-defined='yes'/>
    <elf-symbol name='_ZTV19HugetlbSysAllocator' size='40' type='object-type' binding='weak-binding' visibility='default-visibility' is-defined='yes'/>
    <elf-symbol name='_ZTV22TCMallocImplementation' size='232' type='object-type' binding='weak-binding' visibility='default-visibility' is-defined='yes'/>
    <elf-symbol name='_ZZN22TCMallocImplementation16GetFreeListSizesEPSt6vectorIN15MallocExtension12FreeListInfoESaIS2_EEE13kPageHeapType' size='8' type='object-type' binding='gnu-unique-binding' visibility='default-visibility' is-defined='yes'/>
    <elf-symbol name='_ZZN22TCMallocImplementation16GetFreeListSizesEPSt6vectorIN15MallocExtension12FreeListInfoESaIS2_EEE14kLargeSpanType' size='8' type='object-type' binding='gnu-unique-binding' visibility='default-visibility' is-defined='yes'/>
    <elf-symbol name='_ZZN22TCMallocImplementation16GetFreeListSizesEPSt6vectorIN15MallocExtension12FreeListInfoESaIS2_EEE16kThreadCacheType' size='8' type='object-type' binding='gnu-unique-binding' visibility='default-visibility' is-defined='yes'/>
    <elf-symbol name='_ZZN22TCMallocImplementation16GetFreeListSizesEPSt6vectorIN15MallocExtension12FreeListInfoESaIS2_EEE17kCentralCacheType' size='8' type='object-type' binding='gnu-unique-binding' visibility='default-visibility' is-defined='yes'/>
    <elf-symbol name='_ZZN22TCMallocImplementation16GetFreeListSizesEPSt6vectorIN15MallocExtension12FreeListInfoESaIS2_EEE18kTransferCacheType' size='8' type='object-type' binding='gnu-unique-binding' visibility='default-visibility' is-defined='yes'/>
    <elf-symbol name='_ZZN22TCMallocImplementation16GetFreeListSizesEPSt6vectorIN15MallocExtension12FreeListInfoESaIS2_EEE21kPageHeapUnmappedType' size='8' type='object-type' binding='gnu-unique-binding' visibility='default-visibility' is-defined='yes'/>
    <elf-symbol name='_ZZN22TCMallocImplementation16GetFreeListSizesEPSt6vectorIN15MallocExtension12FreeListInfoESaIS2_EEE22kLargeUnmappedSpanType' size='8' type='object-type' binding='gnu-unique-binding' visibility='default-visibility' is-defined='yes'/>
    <elf-symbol name='__free_hook' size='8' type='object-type' binding='global-binding' visibility='default-visibility' is-defined='yes'/>
    <elf-symbol name='__malloc_hook' size='8' type='object-type' binding='global-binding' visibility='default-visibility' is-defined='yes'/>
    <elf-symbol name='__memalign_hook' size='8' type='object-type' binding='global-binding' visibility='default-visibility' is-defined='yes'/>
    <elf-symbol name='__realloc_hook' size='8' type='object-type' binding='global-binding' visibility='default-visibility' is-defined='yes'/>
    <elf-symbol name='heap_leak_checker_bcad_variable' size='1' type='object-type' binding='global-binding' visibility='default-visibility' is-defined='yes'/>
    <elf-symbol name='sys_alloc' size='8' type='object-type' binding='global-binding' visibility='default-visibility' is-defined='yes'/>
  </elf-variable-symbols>
  <abi-instr address-size='64' path='src/base/atomicops-internals-x86.cc' comp-dir-path='/tmp/legendre/spack-stage/spack-stage-kFgaKP/gperftools-2.4' language='LANG_C_plus_plus'>
  </abi-instr>
  <abi-instr address-size='64' path='src/base/dynamic_annotations.c' comp-dir-path='/tmp/legendre/spack-stage/spack-stage-kFgaKP/gperftools-2.4' language='LANG_C89'>
    <function-decl name='RunningOnValgrind' mangled-name='RunningOnValgrind' filepath='src/base/dynamic_annotations.c' line='152' column='1' visibility='default' binding='global' size-in-bits='64' elf-symbol-id='RunningOnValgrind'>
      <return type-id='type-id-1'/>
    </function-decl>
    <function-decl name='ValgrindSlowdown' mangled-name='ValgrindSlowdown' filepath='src/base/dynamic_annotations.c' line='166' column='1' visibility='default' binding='global' size-in-bits='64' elf-symbol-id='ValgrindSlowdown'>
      <return type-id='type-id-2'/>
    </function-decl>
    <type-decl name='double' size-in-bits='64' id='type-id-2'/>
    <type-decl name='int' size-in-bits='32' id='type-id-1'/>
  </abi-instr>
  <abi-instr address-size='64' path='src/base/elf_mem_image.cc' comp-dir-path='/tmp/legendre/spack-stage/spack-stage-kFgaKP/gperftools-2.4' language='LANG_C_plus_plus'>
    <array-type-def dimensions='1' type-id='type-id-3' size-in-bits='128' id='type-id-4'>
      <subrange length='16' type-id='type-id-5' id='type-id-6'/>
    </array-type-def>
    <class-decl name='Elf64_Sym' size-in-bits='192' is-struct='yes' visibility='default' filepath='/usr/include/elf.h' line='389' column='1' id='type-id-7'>
      <data-member access='public' layout-offset-in-bits='0'>
        <var-decl name='st_name' type-id='type-id-8' visibility='default' filepath='/usr/include/elf.h' line='390' column='1'/>
      </data-member>
      <data-member access='public' layout-offset-in-bits='32'>
        <var-decl name='st_info' type-id='type-id-3' visibility='default' filepath='/usr/include/elf.h' line='391' column='1'/>
      </data-member>
      <data-member access='public' layout-offset-in-bits='40'>
        <var-decl name='st_other' type-id='type-id-3' visibility='default' filepath='/usr/include/elf.h' line='392' column='1'/>
      </data-member>
      <data-member access='public' layout-offset-in-bits='48'>
        <var-decl name='st_shndx' type-id='type-id-9' visibility='default' filepath='/usr/include/elf.h' line='393' column='1'/>
      </data-member>
      <data-member access='public' layout-offset-in-bits='64'>
        <var-decl name='st_value' type-id='type-id-10' visibility='default' filepath='/usr/include/elf.h' line='394' column='1'/>
      </data-member>
      <data-member access='public' layout-offset-in-bits='128'>
        <var-decl name='st_size' type-id='type-id-11' visibility='default' filepath='/usr/include/elf.h' line='395' column='1'/>
      </data-member>
    </class-decl>
    <typedef-decl name='Elf64_Word' type-id='type-id-12' filepath='/usr/include/elf.h' line='39' column='1' id='type-id-8'/>
    <typedef-decl name='Elf64_Section' type-id='type-id-13' filepath='/usr/include/elf.h' line='58' column='1' id='type-id-9'/>
    <typedef-decl name='uint16_t' type-id='type-id-14' filepath='/usr/include/stdint.h' line='50' column='1' id='type-id-13'/>
    <typedef-decl name='Elf64_Addr' type-id='type-id-15' filepath='/usr/include/elf.h' line='50' column='1' id='type-id-10'/>
    <typedef-decl name='Elf64_Xword' type-id='type-id-15' filepath='/usr/include/elf.h' line='45' column='1' id='type-id-11'/>
    <class-decl name='Elf64_Ehdr' size-in-bits='512' is-struct='yes' visibility='default' filepath='/usr/include/elf.h' line='88' column='1' id='type-id-16'>
      <data-member access='public' layout-offset-in-bits='0'>
        <var-decl name='e_ident' type-id='type-id-4' visibility='default' filepath='/usr/include/elf.h' line='89' column='1'/>
      </data-member>
      <data-member access='public' layout-offset-in-bits='128'>
        <var-decl name='e_type' type-id='type-id-17' visibility='default' filepath='/usr/include/elf.h' line='90' column='1'/>
      </data-member>
      <data-member access='public' layout-offset-in-bits='144'>
        <var-decl name='e_machine' type-id='type-id-17' visibility='default' filepath='/usr/include/elf.h' line='91' column='1'/>
      </data-member>
      <data-member access='public' layout-offset-in-bits='160'>
        <var-decl name='e_version' type-id='type-id-8' visibility='default' filepath='/usr/include/elf.h' line='92' column='1'/>
      </data-member>
      <data-member access='public' layout-offset-in-bits='192'>
        <var-decl name='e_entry' type-id='type-id-10' visibility='default' filepath='/usr/include/elf.h' line='93' column='1'/>
      </data-member>
      <data-member access='public' layout-offset-in-bits='256'>
        <var-decl name='e_phoff' type-id='type-id-18' visibility='default' filepath='/usr/include/elf.h' line='94' column='1'/>
      </data-member>
      <data-member access='public' layout-offset-in-bits='320'>
        <var-decl name='e_shoff' type-id='type-id-18' visibility='default' filepath='/usr/include/elf.h' line='95' column='1'/>
      </data-member>
      <data-member access='public' layout-offset-in-bits='384'>
        <var-decl name='e_flags' type-id='type-id-8' visibility='default' filepath='/usr/include/elf.h' line='96' column='1'/>
      </data-member>
      <data-member access='public' layout-offset-in-bits='416'>
        <var-decl name='e_ehsize' type-id='type-id-17' visibility='default' filepath='/usr/include/elf.h' line='97' column='1'/>
      </data-member>
      <data-member access='public' layout-offset-in-bits='432'>
        <var-decl name='e_phentsize' type-id='type-id-17' visibility='default' filepath='/usr/include/elf.h' line='98' column='1'/>
      </data-member>
      <data-member access='public' layout-offset-in-bits='448'>
        <var-decl name='e_phnum' type-id='type-id-17' visibility='default' filepath='/usr/include/elf.h' line='99' column='1'/>
      </data-member>
      <data-member access='public' layout-offset-in-bits='464'>
        <var-decl name='e_shentsize' type-id='type-id-17' visibility='default' filepath='/usr/include/elf.h' line='100' column='1'/>
      </data-member>
      <data-member access='public' layout-offset-in-bits='480'>
        <var-decl name='e_shnum' type-id='type-id-17' visibility='default' filepath='/usr/include/elf.h' line='101' column='1'/>
      </data-member>
      <data-member access='public' layout-offset-in-bits='496'>
        <var-decl name='e_shstrndx' type-id='type-id-17' visibility='default' filepath='/usr/include/elf.h' line='102' column='1'/>
      </data-member>
    </class-decl>
    <typedef-decl name='Elf64_Half' type-id='type-id-13' filepath='/usr/include/elf.h' line='34' column='1' id='type-id-17'/>
    <typedef-decl name='Elf64_Off' type-id='type-id-15' filepath='/usr/include/elf.h' line='54' column='1' id='type-id-18'/>
    <typedef-decl name='Elf64_Versym' type-id='type-id-17' filepath='/usr/include/elf.h' line='62' column='1' id='type-id-19'/>
    <class-decl name='Elf64_Verdef' size-in-bits='160' is-struct='yes' visibility='default' filepath='/usr/include/elf.h' line='812' column='1' id='type-id-20'>
      <data-member access='public' layout-offset-in-bits='0'>
        <var-decl name='vd_version' type-id='type-id-17' visibility='default' filepath='/usr/include/elf.h' line='813' column='1'/>
      </data-member>
      <data-member access='public' layout-offset-in-bits='16'>
        <var-decl name='vd_flags' type-id='type-id-17' visibility='default' filepath='/usr/include/elf.h' line='814' column='1'/>
      </data-member>
      <data-member access='public' layout-offset-in-bits='32'>
        <var-decl name='vd_ndx' type-id='type-id-17' visibility='default' filepath='/usr/include/elf.h' line='815' column='1'/>
      </data-member>
      <data-member access='public' layout-offset-in-bits='48'>
        <var-decl name='vd_cnt' type-id='type-id-17' visibility='default' filepath='/usr/include/elf.h' line='816' column='1'/>
      </data-member>
      <data-member access='public' layout-offset-in-bits='64'>
        <var-decl name='vd_hash' type-id='type-id-8' visibility='default' filepath='/usr/include/elf.h' line='817' column='1'/>
      </data-member>
      <data-member access='public' layout-offset-in-bits='96'>
        <var-decl name='vd_aux' type-id='type-id-8' visibility='default' filepath='/usr/include/elf.h' line='818' column='1'/>
      </data-member>
      <data-member access='public' layout-offset-in-bits='128'>
        <var-decl name='vd_next' type-id='type-id-8' visibility='default' filepath='/usr/include/elf.h' line='819' column='1'/>
      </data-member>
    </class-decl>
    <class-decl name='Elf64_Phdr' size-in-bits='448' is-struct='yes' visibility='default' filepath='/usr/include/elf.h' line='551' column='1' id='type-id-21'>
      <data-member access='public' layout-offset-in-bits='0'>
        <var-decl name='p_type' type-id='type-id-8' visibility='default' filepath='/usr/include/elf.h' line='552' column='1'/>
      </data-member>
      <data-member access='public' layout-offset-in-bits='32'>
        <var-decl name='p_flags' type-id='type-id-8' visibility='default' filepath='/usr/include/elf.h' line='553' column='1'/>
      </data-member>
      <data-member access='public' layout-offset-in-bits='64'>
        <var-decl name='p_offset' type-id='type-id-18' visibility='default' filepath='/usr/include/elf.h' line='554' column='1'/>
      </data-member>
      <data-member access='public' layout-offset-in-bits='128'>
        <var-decl name='p_vaddr' type-id='type-id-10' visibility='default' filepath='/usr/include/elf.h' line='555' column='1'/>
      </data-member>
      <data-member access='public' layout-offset-in-bits='192'>
        <var-decl name='p_paddr' type-id='type-id-10' visibility='default' filepath='/usr/include/elf.h' line='556' column='1'/>
      </data-member>
      <data-member access='public' layout-offset-in-bits='256'>
        <var-decl name='p_filesz' type-id='type-id-11' visibility='default' filepath='/usr/include/elf.h' line='557' column='1'/>
      </data-member>
      <data-member access='public' layout-offset-in-bits='320'>
        <var-decl name='p_memsz' type-id='type-id-11' visibility='default' filepath='/usr/include/elf.h' line='558' column='1'/>
      </data-member>
      <data-member access='public' layout-offset-in-bits='384'>
        <var-decl name='p_align' type-id='type-id-11' visibility='default' filepath='/usr/include/elf.h' line='559' column='1'/>
      </data-member>
    </class-decl>
    <class-decl name='Elf64_Verdaux' size-in-bits='64' is-struct='yes' visibility='default' filepath='/usr/include/elf.h' line='849' column='1' id='type-id-22'>
      <data-member access='public' layout-offset-in-bits='0'>
        <var-decl name='vda_name' type-id='type-id-8' visibility='default' filepath='/usr/include/elf.h' line='850' column='1'/>
      </data-member>
      <data-member access='public' layout-offset-in-bits='32'>
        <var-decl name='vda_next' type-id='type-id-8' visibility='default' filepath='/usr/include/elf.h' line='851' column='1'/>
      </data-member>
    </class-decl>
    <pointer-type-def type-id='type-id-23' size-in-bits='64' id='type-id-24'/>
    <qualified-type-def type-id='type-id-24' const='yes' id='type-id-25'/>
    <pointer-type-def type-id='type-id-26' size-in-bits='64' id='type-id-27'/>
    <reference-type-def kind='lvalue' type-id='type-id-28' size-in-bits='64' id='type-id-29'/>
    <pointer-type-def type-id='type-id-28' size-in-bits='64' id='type-id-30'/>
    <qualified-type-def type-id='type-id-30' const='yes' id='type-id-31'/>
    <qualified-type-def type-id='type-id-16' const='yes' id='type-id-32'/>
    <pointer-type-def type-id='type-id-32' size-in-bits='64' id='type-id-33'/>
    <qualified-type-def type-id='type-id-21' const='yes' id='type-id-34'/>
    <pointer-type-def type-id='type-id-34' size-in-bits='64' id='type-id-35'/>
    <qualified-type-def type-id='type-id-7' const='yes' id='type-id-36'/>
    <pointer-type-def type-id='type-id-36' size-in-bits='64' id='type-id-37'/>
    <qualified-type-def type-id='type-id-22' const='yes' id='type-id-38'/>
    <pointer-type-def type-id='type-id-38' size-in-bits='64' id='type-id-39'/>
    <qualified-type-def type-id='type-id-20' const='yes' id='type-id-40'/>
    <pointer-type-def type-id='type-id-40' size-in-bits='64' id='type-id-41'/>
    <qualified-type-def type-id='type-id-19' const='yes' id='type-id-42'/>
    <pointer-type-def type-id='type-id-42' size-in-bits='64' id='type-id-43'/>
    <qualified-type-def type-id='type-id-8' const='yes' id='type-id-44'/>
    <pointer-type-def type-id='type-id-44' size-in-bits='64' id='type-id-45'/>
    <qualified-type-def type-id='type-id-23' const='yes' id='type-id-46'/>
    <pointer-type-def type-id='type-id-46' size-in-bits='64' id='type-id-47'/>
    <qualified-type-def type-id='type-id-47' const='yes' id='type-id-48'/>
    <qualified-type-def type-id='type-id-26' const='yes' id='type-id-49'/>
    <reference-type-def kind='lvalue' type-id='type-id-49' size-in-bits='64' id='type-id-50'/>
    <pointer-type-def type-id='type-id-49' size-in-bits='64' id='type-id-51'/>
    <qualified-type-def type-id='type-id-28' const='yes' id='type-id-52'/>
    <qualified-type-def type-id='type-id-53' id='type-id-54'/>
    <reference-type-def kind='lvalue' type-id='type-id-52' size-in-bits='64' id='type-id-53'/>
    <pointer-type-def type-id='type-id-52' size-in-bits='64' id='type-id-55'/>
    <qualified-type-def type-id='type-id-55' const='yes' id='type-id-56'/>
    <namespace-decl name='base'>
      <class-decl name='ElfMemImage' size-in-bits='576' visibility='default' filepath='./src/base/elf_mem_image.h' line='56' column='1' id='type-id-23'>
        <member-type access='private'>
          <class-decl name='SymbolInfo' size-in-bits='256' is-struct='yes' visibility='default' filepath='./src/base/elf_mem_image.h' line='64' column='1' id='type-id-26'>
            <data-member access='public' layout-offset-in-bits='0'>
              <var-decl name='name' type-id='type-id-57' visibility='default' filepath='./src/base/elf_mem_image.h' line='65' column='1'/>
            </data-member>
            <data-member access='public' layout-offset-in-bits='64'>
              <var-decl name='version' type-id='type-id-57' visibility='default' filepath='./src/base/elf_mem_image.h' line='66' column='1'/>
            </data-member>
            <data-member access='public' layout-offset-in-bits='128'>
              <var-decl name='address' type-id='type-id-58' visibility='default' filepath='./src/base/elf_mem_image.h' line='68' column='1'/>
            </data-member>
            <data-member access='public' layout-offset-in-bits='192'>
              <var-decl name='symbol' type-id='type-id-37' visibility='default' filepath='./src/base/elf_mem_image.h' line='69' column='1'/>
            </data-member>
          </class-decl>
        </member-type>
        <member-type access='private'>
          <class-decl name='SymbolIterator' size-in-bits='384' visibility='default' filepath='./src/base/elf_mem_image.h' line='73' column='1' id='type-id-28'>
            <data-member access='private' layout-offset-in-bits='0'>
              <var-decl name='info_' type-id='type-id-26' visibility='default' filepath='./src/base/elf_mem_image.h' line='84' column='1'/>
            </data-member>
            <data-member access='private' layout-offset-in-bits='256'>
              <var-decl name='index_' type-id='type-id-1' visibility='default' filepath='./src/base/elf_mem_image.h' line='85' column='1'/>
            </data-member>
            <data-member access='private' layout-offset-in-bits='320'>
              <var-decl name='image_' type-id='type-id-59' visibility='default' filepath='./src/base/elf_mem_image.h' line='86' column='1'/>
            </data-member>
            <member-function access='private' constructor='yes'>
              <function-decl name='SymbolIterator' mangled-name='_ZN4base11ElfMemImage14SymbolIteratorC2EPKvi' filepath='./src/base/elf_mem_image.h' line='82' column='1' visibility='default' binding='global' size-in-bits='64' elf-symbol-id='_ZN4base11ElfMemImage14SymbolIteratorC2EPKvi'>
                <parameter type-id='type-id-30' is-artificial='yes'/>
                <parameter type-id='type-id-58'/>
                <parameter type-id='type-id-1'/>
                <return type-id='type-id-60'/>
              </function-decl>
            </member-function>
            <member-function access='private'>
              <function-decl name='operator-&gt;' mangled-name='_ZNK4base11ElfMemImage14SymbolIteratorptEv' filepath='src/base/elf_mem_image.cc' line='362' column='1' visibility='default' binding='global' size-in-bits='64' elf-symbol-id='_ZNK4base11ElfMemImage14SymbolIteratorptEv'>
                <parameter type-id='type-id-56' name='this' is-artificial='yes'/>
                <return type-id='type-id-51'/>
              </function-decl>
            </member-function>
            <member-function access='private'>
              <function-decl name='operator*' mangled-name='_ZNK4base11ElfMemImage14SymbolIteratordeEv' filepath='src/base/elf_mem_image.cc' line='366' column='1' visibility='default' binding='global' size-in-bits='64' elf-symbol-id='_ZNK4base11ElfMemImage14SymbolIteratordeEv'>
                <parameter type-id='type-id-56' name='this' is-artificial='yes'/>
                <return type-id='type-id-50'/>
              </function-decl>
            </member-function>
            <member-function access='private'>
              <function-decl name='operator==' mangled-name='_ZNK4base11ElfMemImage14SymbolIteratoreqERKS1_' filepath='src/base/elf_mem_image.cc' line='370' column='1' visibility='default' binding='global' size-in-bits='64' elf-symbol-id='_ZNK4base11ElfMemImage14SymbolIteratoreqERKS1_'>
                <parameter type-id='type-id-56' name='this' is-artificial='yes'/>
                <parameter type-id='type-id-54' name='rhs' filepath='src/base/elf_mem_image.cc' line='370' column='1'/>
                <return type-id='type-id-61'/>
              </function-decl>
            </member-function>
            <member-function access='private'>
              <function-decl name='operator!=' mangled-name='_ZNK4base11ElfMemImage14SymbolIteratorneERKS1_' filepath='src/base/elf_mem_image.cc' line='374' column='1' visibility='default' binding='global' size-in-bits='64' elf-symbol-id='_ZNK4base11ElfMemImage14SymbolIteratorneERKS1_'>
                <parameter type-id='type-id-56' name='this' is-artificial='yes'/>
                <parameter type-id='type-id-54' name='rhs' filepath='src/base/elf_mem_image.cc' line='370' column='1'/>
                <return type-id='type-id-61'/>
              </function-decl>
            </member-function>
            <member-function access='private'>
              <function-decl name='Update' mangled-name='_ZN4base11ElfMemImage14SymbolIterator6UpdateEi' filepath='src/base/elf_mem_image.cc' line='393' column='1' visibility='default' binding='global' size-in-bits='64' elf-symbol-id='_ZN4base11ElfMemImage14SymbolIterator6UpdateEi'>
                <parameter type-id='type-id-31' name='this' is-artificial='yes'/>
                <parameter type-id='type-id-1' name='increment' filepath='src/base/elf_mem_image.cc' line='393' column='1'/>
                <return type-id='type-id-60'/>
              </function-decl>
            </member-function>
            <member-function access='private'>
              <function-decl name='operator++' mangled-name='_ZN4base11ElfMemImage14SymbolIteratorppEv' filepath='src/base/elf_mem_image.cc' line='378' column='1' visibility='default' binding='global' size-in-bits='64' elf-symbol-id='_ZN4base11ElfMemImage14SymbolIteratorppEv'>
                <parameter type-id='type-id-31' name='this' is-artificial='yes'/>
                <return type-id='type-id-29'/>
              </function-decl>
            </member-function>
          </class-decl>
        </member-type>
        <data-member access='private' static='yes'>
          <var-decl name='kInvalidBase' type-id='type-id-59' mangled-name='_ZN4base11ElfMemImage12kInvalidBaseE' visibility='default' filepath='./src/base/elf_mem_image.h' line='59' column='1' elf-symbol-id='_ZN4base11ElfMemImage12kInvalidBaseE'/>
        </data-member>
        <data-member access='private' layout-offset-in-bits='0'>
          <var-decl name='ehdr_' type-id='type-id-33' visibility='default' filepath='./src/base/elf_mem_image.h' line='120' column='1'/>
        </data-member>
        <data-member access='private' layout-offset-in-bits='64'>
          <var-decl name='dynsym_' type-id='type-id-37' visibility='default' filepath='./src/base/elf_mem_image.h' line='121' column='1'/>
        </data-member>
        <data-member access='private' layout-offset-in-bits='128'>
          <var-decl name='versym_' type-id='type-id-43' visibility='default' filepath='./src/base/elf_mem_image.h' line='122' column='1'/>
        </data-member>
        <data-member access='private' layout-offset-in-bits='192'>
          <var-decl name='verdef_' type-id='type-id-41' visibility='default' filepath='./src/base/elf_mem_image.h' line='123' column='1'/>
        </data-member>
        <data-member access='private' layout-offset-in-bits='256'>
          <var-decl name='hash_' type-id='type-id-45' visibility='default' filepath='./src/base/elf_mem_image.h' line='124' column='1'/>
        </data-member>
        <data-member access='private' layout-offset-in-bits='320'>
          <var-decl name='dynstr_' type-id='type-id-57' visibility='default' filepath='./src/base/elf_mem_image.h' line='125' column='1'/>
        </data-member>
        <data-member access='private' layout-offset-in-bits='384'>
          <var-decl name='strsize_' type-id='type-id-62' visibility='default' filepath='./src/base/elf_mem_image.h' line='126' column='1'/>
        </data-member>
        <data-member access='private' layout-offset-in-bits='448'>
          <var-decl name='verdefnum_' type-id='type-id-62' visibility='default' filepath='./src/base/elf_mem_image.h' line='127' column='1'/>
        </data-member>
        <data-member access='private' layout-offset-in-bits='512'>
          <var-decl name='link_base_' type-id='type-id-10' visibility='default' filepath='./src/base/elf_mem_image.h' line='128' column='1'/>
        </data-member>
        <member-function access='private' constructor='yes'>
          <function-decl name='ElfMemImage' mangled-name='_ZN4base11ElfMemImageC1EPKv' filepath='./src/base/elf_mem_image.h' line='90' column='1' visibility='default' binding='global' size-in-bits='64' elf-symbol-id='_ZN4base11ElfMemImageC1EPKv'>
            <parameter type-id='type-id-24' is-artificial='yes'/>
            <parameter type-id='type-id-58'/>
            <return type-id='type-id-60'/>
          </function-decl>
        </member-function>
        <member-function access='private'>
          <function-decl name='GetNumSymbols' mangled-name='_ZNK4base11ElfMemImage13GetNumSymbolsEv' filepath='src/base/elf_mem_image.cc' line='119' column='1' visibility='default' binding='global' size-in-bits='64' elf-symbol-id='_ZNK4base11ElfMemImage13GetNumSymbolsEv'>
            <parameter type-id='type-id-48' name='this' is-artificial='yes'/>
            <return type-id='type-id-1'/>
          </function-decl>
        </member-function>
        <member-function access='private'>
          <function-decl name='GetVerdefAux' mangled-name='_ZNK4base11ElfMemImage12GetVerdefAuxEPK12Elf64_Verdef' filepath='src/base/elf_mem_image.cc' line='172' column='1' visibility='default' binding='global' size-in-bits='64' elf-symbol-id='_ZNK4base11ElfMemImage12GetVerdefAuxEPK12Elf64_Verdef'>
            <parameter type-id='type-id-48' name='this' is-artificial='yes'/>
            <parameter type-id='type-id-41' name='verdef' filepath='src/base/elf_mem_image.cc' line='173' column='1'/>
            <return type-id='type-id-39'/>
          </function-decl>
        </member-function>
        <member-function access='private'>
          <function-decl name='end' mangled-name='_ZNK4base11ElfMemImage3endEv' filepath='src/base/elf_mem_image.cc' line='389' column='1' visibility='default' binding='global' size-in-bits='64' elf-symbol-id='_ZNK4base11ElfMemImage3endEv'>
            <parameter type-id='type-id-48' name='this' is-artificial='yes'/>
            <return type-id='type-id-28'/>
          </function-decl>
        </member-function>
        <member-function access='private'>
          <function-decl name='GetVerstr' mangled-name='_ZNK4base11ElfMemImage9GetVerstrEj' filepath='src/base/elf_mem_image.cc' line='177' column='1' visibility='default' binding='global' size-in-bits='64' elf-symbol-id='_ZNK4base11ElfMemImage9GetVerstrEj'>
            <parameter type-id='type-id-48' name='this' is-artificial='yes'/>
            <parameter type-id='type-id-8' name='offset' filepath='src/base/elf_mem_image.cc' line='177' column='1'/>
            <return type-id='type-id-57'/>
          </function-decl>
        </member-function>
        <member-function access='private'>
          <function-decl name='GetVerdef' mangled-name='_ZNK4base11ElfMemImage9GetVerdefEi' filepath='src/base/elf_mem_image.cc' line='159' column='1' visibility='default' binding='global' size-in-bits='64' elf-symbol-id='_ZNK4base11ElfMemImage9GetVerdefEi'>
            <parameter type-id='type-id-48' name='this' is-artificial='yes'/>
            <parameter type-id='type-id-1' name='index' filepath='src/base/elf_mem_image.cc' line='159' column='1'/>
            <return type-id='type-id-41'/>
          </function-decl>
        </member-function>
        <member-function access='private'>
          <function-decl name='GetSymAddr' mangled-name='_ZNK4base11ElfMemImage10GetSymAddrEPK9Elf64_Sym' filepath='src/base/elf_mem_image.cc' line='150' column='1' visibility='default' binding='global' size-in-bits='64' elf-symbol-id='_ZNK4base11ElfMemImage10GetSymAddrEPK9Elf64_Sym'>
            <parameter type-id='type-id-48' name='this' is-artificial='yes'/>
            <parameter type-id='type-id-37' name='sym' filepath='src/base/elf_mem_image.cc' line='150' column='1'/>
            <return type-id='type-id-58'/>
          </function-decl>
        </member-function>
        <member-function access='private'>
          <function-decl name='GetDynstr' mangled-name='_ZNK4base11ElfMemImage9GetDynstrEj' filepath='src/base/elf_mem_image.cc' line='145' column='1' visibility='default' binding='global' size-in-bits='64' elf-symbol-id='_ZNK4base11ElfMemImage9GetDynstrEj'>
            <parameter type-id='type-id-48' name='this' is-artificial='yes'/>
            <parameter type-id='type-id-8' name='offset' filepath='src/base/elf_mem_image.cc' line='177' column='1'/>
            <return type-id='type-id-57'/>
          </function-decl>
        </member-function>
        <member-function access='private'>
          <function-decl name='GetPhdr' mangled-name='_ZNK4base11ElfMemImage7GetPhdrEi' filepath='src/base/elf_mem_image.cc' line='137' column='1' visibility='default' binding='global' size-in-bits='64' elf-symbol-id='_ZNK4base11ElfMemImage7GetPhdrEi'>
            <parameter type-id='type-id-48' name='this' is-artificial='yes'/>
            <parameter type-id='type-id-1' name='index' filepath='src/base/elf_mem_image.cc' line='137' column='1'/>
            <return type-id='type-id-35'/>
          </function-decl>
        </member-function>
        <member-function access='private'>
          <function-decl name='Init' mangled-name='_ZN4base11ElfMemImage4InitEPKv' filepath='src/base/elf_mem_image.cc' line='182' column='1' visibility='default' binding='global' size-in-bits='64' elf-symbol-id='_ZN4base11ElfMemImage4InitEPKv'>
            <parameter type-id='type-id-25' name='this' is-artificial='yes'/>
            <parameter type-id='type-id-58' name='base' filepath='src/base/elf_mem_image.cc' line='182' column='1'/>
            <return type-id='type-id-60'/>
          </function-decl>
        </member-function>
        <member-function access='private'>
          <function-decl name='GetVersym' mangled-name='_ZNK4base11ElfMemImage9GetVersymEi' filepath='src/base/elf_mem_image.cc' line='132' column='1' visibility='default' binding='global' size-in-bits='64' elf-symbol-id='_ZNK4base11ElfMemImage9GetVersymEi'>
            <parameter type-id='type-id-48' name='this' is-artificial='yes'/>
            <parameter type-id='type-id-1' name='index' filepath='src/base/elf_mem_image.cc' line='132' column='1'/>
            <return type-id='type-id-43'/>
          </function-decl>
        </member-function>
        <member-function access='private'>
          <function-decl name='GetDynsym' mangled-name='_ZNK4base11ElfMemImage9GetDynsymEi' filepath='src/base/elf_mem_image.cc' line='127' column='1' visibility='default' binding='global' size-in-bits='64' elf-symbol-id='_ZNK4base11ElfMemImage9GetDynsymEi'>
            <parameter type-id='type-id-48' name='this' is-artificial='yes'/>
            <parameter type-id='type-id-1' name='index' filepath='src/base/elf_mem_image.cc' line='127' column='1'/>
            <return type-id='type-id-37'/>
          </function-decl>
        </member-function>
        <member-function access='private'>
          <function-decl name='begin' mangled-name='_ZNK4base11ElfMemImage5beginEv' filepath='src/base/elf_mem_image.cc' line='383' column='1' visibility='default' binding='global' size-in-bits='64' elf-symbol-id='_ZNK4base11ElfMemImage5beginEv'>
            <parameter type-id='type-id-48' name='this' is-artificial='yes'/>
            <return type-id='type-id-28'/>
          </function-decl>
        </member-function>
        <member-function access='private'>
          <function-decl name='LookupSymbolByAddress' mangled-name='_ZNK4base11ElfMemImage21LookupSymbolByAddressEPKvPNS0_10SymbolInfoE' filepath='src/base/elf_mem_image.cc' line='332' column='1' visibility='default' binding='global' size-in-bits='64' elf-symbol-id='_ZNK4base11ElfMemImage21LookupSymbolByAddressEPKvPNS0_10SymbolInfoE'>
            <parameter type-id='type-id-48' name='this' is-artificial='yes'/>
            <parameter type-id='type-id-58' name='address' filepath='src/base/elf_mem_image.cc' line='332' column='1'/>
            <parameter type-id='type-id-27' name='info_out' filepath='src/base/elf_mem_image.cc' line='333' column='1'/>
            <return type-id='type-id-61'/>
          </function-decl>
        </member-function>
        <member-function access='private'>
          <function-decl name='LookupSymbol' mangled-name='_ZNK4base11ElfMemImage12LookupSymbolEPKcS2_iPNS0_10SymbolInfoE' filepath='src/base/elf_mem_image.cc' line='316' column='1' visibility='default' binding='global' size-in-bits='64' elf-symbol-id='_ZNK4base11ElfMemImage12LookupSymbolEPKcS2_iPNS0_10SymbolInfoE'>
            <parameter type-id='type-id-48' name='this' is-artificial='yes'/>
            <parameter type-id='type-id-57' name='name' filepath='src/base/elf_mem_image.cc' line='316' column='1'/>
            <parameter type-id='type-id-57' name='version' filepath='src/base/elf_mem_image.cc' line='317' column='1'/>
            <parameter type-id='type-id-1' name='type' filepath='src/base/elf_mem_image.cc' line='318' column='1'/>
            <parameter type-id='type-id-27' name='info' filepath='src/base/elf_mem_image.cc' line='319' column='1'/>
            <return type-id='type-id-61'/>
          </function-decl>
        </member-function>
      </class-decl>
    </namespace-decl>
    <type-decl name='bool' size-in-bits='8' id='type-id-61'/>
    <pointer-type-def type-id='type-id-63' size-in-bits='64' id='type-id-57'/>
    <typedef-decl name='size_t' type-id='type-id-5' filepath='/usr/lib/gcc/x86_64-redhat-linux/4.4.7/include/stddef.h' line='211' column='1' id='type-id-62'/>
    <typedef-decl name='uint32_t' type-id='type-id-64' filepath='/usr/include/stdint.h' line='52' column='1' id='type-id-12'/>
    <typedef-decl name='uint64_t' type-id='type-id-5' filepath='/usr/include/stdint.h' line='56' column='1' id='type-id-15'/>
    <type-decl name='unsigned char' size-in-bits='8' id='type-id-3'/>
    <type-decl name='unsigned long int' size-in-bits='64' id='type-id-5'/>
    <type-decl name='unsigned short int' size-in-bits='16' id='type-id-14'/>
    <type-decl name='void' id='type-id-60'/>
    <pointer-type-def type-id='type-id-60' size-in-bits='64' id='type-id-58'/>
    <qualified-type-def type-id='type-id-58' const='yes' id='type-id-59'/>
    <qualified-type-def type-id='type-id-65' const='yes' id='type-id-63'/>
    <type-decl name='unsigned int' size-in-bits='32' id='type-id-64'/>
    <type-decl name='char' size-in-bits='8' id='type-id-65'/>
  </abi-instr>
  <abi-instr address-size='64' path='src/base/linuxthreads.cc' comp-dir-path='/tmp/legendre/spack-stage/spack-stage-kFgaKP/gperftools-2.4' language='LANG_C_plus_plus'>
    <typedef-decl name='ListAllProcessThreadsCallBack' type-id='type-id-66' filepath='./src/base/thread_lister.h' line='48' column='1' id='type-id-67'/>
    <typedef-decl name='pid_t' type-id='type-id-68' filepath='/usr/include/sched.h' line='37' column='1' id='type-id-69'/>
    <typedef-decl name='__pid_t' type-id='type-id-1' filepath='/usr/include/bits/types.h' line='143' column='1' id='type-id-68'/>
    <pointer-type-def type-id='type-id-70' size-in-bits='64' id='type-id-66'/>
    <pointer-type-def type-id='type-id-69' size-in-bits='64' id='type-id-71'/>
    <function-decl name='TCMalloc_ListAllProcessThreads' mangled-name='TCMalloc_ListAllProcessThreads' filepath='src/base/linuxthreads.cc' line='551' column='1' visibility='default' binding='global' size-in-bits='64' elf-symbol-id='TCMalloc_ListAllProcessThreads'>
      <parameter type-id='type-id-58' name='parameter' filepath='src/base/linuxthreads.cc' line='551' column='1'/>
      <parameter type-id='type-id-67' name='callback' filepath='src/base/linuxthreads.cc' line='552' column='1'/>
      <parameter is-variadic='yes'/>
      <return type-id='type-id-1'/>
    </function-decl>
    <function-decl name='TCMalloc_ResumeAllProcessThreads' mangled-name='TCMalloc_ResumeAllProcessThreads' filepath='src/base/linuxthreads.cc' line='696' column='1' visibility='default' binding='global' size-in-bits='64' elf-symbol-id='TCMalloc_ResumeAllProcessThreads'>
      <parameter type-id='type-id-1' name='num_threads' filepath='src/base/linuxthreads.cc' line='696' column='1'/>
      <parameter type-id='type-id-71' name='thread_pids' filepath='src/base/linuxthreads.cc' line='696' column='1'/>
      <return type-id='type-id-1'/>
    </function-decl>
    <function-type size-in-bits='64' id='type-id-70'>
      <parameter type-id='type-id-58'/>
      <parameter type-id='type-id-1'/>
      <parameter type-id='type-id-71'/>
      <parameter type-id='type-id-72'/>
      <return type-id='type-id-1'/>
    </function-type>
    <pointer-type-def type-id='type-id-73' size-in-bits='64' id='type-id-72'/>
    <class-decl name='typedef __va_list_tag __va_list_tag' size-in-bits='192' is-struct='yes' visibility='default' id='type-id-73'>
      <data-member access='public' layout-offset-in-bits='0'>
        <var-decl name='gp_offset' type-id='type-id-64' visibility='default'/>
      </data-member>
      <data-member access='public' layout-offset-in-bits='32'>
        <var-decl name='fp_offset' type-id='type-id-64' visibility='default'/>
      </data-member>
      <data-member access='public' layout-offset-in-bits='64'>
        <var-decl name='overflow_arg_area' type-id='type-id-58' visibility='default'/>
      </data-member>
      <data-member access='public' layout-offset-in-bits='128'>
        <var-decl name='reg_save_area' type-id='type-id-58' visibility='default'/>
      </data-member>
    </class-decl>
  </abi-instr>
  <abi-instr address-size='64' path='src/base/logging.cc' comp-dir-path='/tmp/legendre/spack-stage/spack-stage-kFgaKP/gperftools-2.4' language='LANG_C_plus_plus'>
    <namespace-decl name='FLAG__namespace_do_not_use_directly_use_DECLARE_int32_instead'>
      <var-decl name='FLAGS_verbose' type-id='type-id-74' mangled-name='_ZN61FLAG__namespace_do_not_use_directly_use_DECLARE_int32_instead13FLAGS_verboseE' visibility='default' filepath='./src/base/logging.h' line='76' column='1' elf-symbol-id='_ZN61FLAG__namespace_do_not_use_directly_use_DECLARE_int32_instead13FLAGS_verboseE'/>
      <var-decl name='FLAGS_noverbose' type-id='type-id-65' mangled-name='_ZN61FLAG__namespace_do_not_use_directly_use_DECLARE_int32_instead15FLAGS_noverboseE' visibility='default' filepath='src/base/logging.cc' line='40' column='1' elf-symbol-id='_ZN61FLAG__namespace_do_not_use_directly_use_DECLARE_int32_instead15FLAGS_noverboseE'/>
    </namespace-decl>
    <function-decl name='RawClose' mangled-name='_Z8RawClosei' filepath='src/base/logging.cc' line='104' column='1' visibility='default' binding='global' size-in-bits='64' elf-symbol-id='_Z8RawClosei'>
      <parameter type-id='type-id-75'/>
      <return type-id='type-id-60'/>
    </function-decl>
    <function-decl name='RawWrite' mangled-name='_Z8RawWriteiPKcm' filepath='src/base/logging.cc' line='94' column='1' visibility='default' binding='global' size-in-bits='64' elf-symbol-id='_Z8RawWriteiPKcm'>
      <parameter type-id='type-id-75' name='fd' filepath='src/base/logging.cc' line='94' column='1'/>
      <parameter type-id='type-id-57' name='buf' filepath='src/base/logging.cc' line='94' column='1'/>
      <parameter type-id='type-id-62' name='len' filepath='src/base/logging.cc' line='94' column='1'/>
      <return type-id='type-id-60'/>
    </function-decl>
    <function-decl name='RawOpenForWriting' mangled-name='_Z17RawOpenForWritingPKc' filepath='src/base/logging.cc' line='90' column='1' visibility='default' binding='global' size-in-bits='64' elf-symbol-id='_Z17RawOpenForWritingPKc'>
      <parameter type-id='type-id-57' name='filename' filepath='src/base/logging.cc' line='90' column='1'/>
      <return type-id='type-id-75'/>
    </function-decl>
    <typedef-decl name='RawFD' type-id='type-id-1' filepath='./src/base/logging.h' line='251' column='1' id='type-id-75'/>
    <typedef-decl name='int32' type-id='type-id-76' filepath='src/base/basictypes.h' line='60' column='1' id='type-id-74'/>
    <typedef-decl name='int32_t' type-id='type-id-1' filepath='/usr/include/stdint.h' line='39' column='1' id='type-id-76'/>
  </abi-instr>
  <abi-instr address-size='64' path='src/base/low_level_alloc.cc' comp-dir-path='/tmp/legendre/spack-stage/spack-stage-kFgaKP/gperftools-2.4' language='LANG_C_plus_plus'>
    <array-type-def dimensions='1' type-id='type-id-77' size-in-bits='1920' id='type-id-78'>
      <subrange length='30' type-id='type-id-5' id='type-id-79'/>
    </array-type-def>
    <pointer-type-def type-id='type-id-80' size-in-bits='64' id='type-id-77'/>
    <namespace-decl name='low_level_alloc_internal'>
      <class-decl name='AllocList' size-in-bits='2240' is-struct='yes' visibility='default' filepath='src/base/low_level_alloc.cc' line='67' column='1' id='type-id-80'>
        <member-type access='public'>
          <class-decl name='Header' size-in-bits='256' is-struct='yes' visibility='default' filepath='src/base/low_level_alloc.cc' line='68' column='1' id='type-id-81'>
            <data-member access='public' layout-offset-in-bits='0'>
              <var-decl name='size' type-id='type-id-82' visibility='default' filepath='src/base/low_level_alloc.cc' line='69' column='1'/>
            </data-member>
            <data-member access='public' layout-offset-in-bits='64'>
              <var-decl name='magic' type-id='type-id-82' visibility='default' filepath='src/base/low_level_alloc.cc' line='71' column='1'/>
            </data-member>
            <data-member access='public' layout-offset-in-bits='128'>
              <var-decl name='arena' type-id='type-id-83' visibility='default' filepath='src/base/low_level_alloc.cc' line='72' column='1'/>
            </data-member>
            <data-member access='public' layout-offset-in-bits='192'>
              <var-decl name='dummy_for_alignment' type-id='type-id-58' visibility='default' filepath='src/base/low_level_alloc.cc' line='73' column='1'/>
            </data-member>
          </class-decl>
        </member-type>
        <data-member access='public' layout-offset-in-bits='0'>
          <var-decl name='header' type-id='type-id-81' visibility='default' filepath='src/base/low_level_alloc.cc' line='74' column='1'/>
        </data-member>
        <data-member access='public' layout-offset-in-bits='256'>
          <var-decl name='levels' type-id='type-id-1' visibility='default' filepath='src/base/low_level_alloc.cc' line='78' column='1'/>
        </data-member>
        <data-member access='public' layout-offset-in-bits='320'>
          <var-decl name='next' type-id='type-id-78' visibility='default' filepath='src/base/low_level_alloc.cc' line='79' column='1'/>
        </data-member>
      </class-decl>
    </namespace-decl>
    <pointer-type-def type-id='type-id-84' size-in-bits='64' id='type-id-83'/>
    <typedef-decl name='intptr_t' type-id='type-id-85' filepath='/usr/include/stdint.h' line='120' column='1' id='type-id-82'/>
    <class-decl name='LowLevelAlloc' size-in-bits='8' visibility='default' filepath='src/base/low_level_alloc.h' line='44' column='1' id='type-id-86'>
      <member-type access='private'>
        <class-decl name='Arena' size-in-bits='2560' is-struct='yes' visibility='default' filepath='src/base/low_level_alloc.cc' line='184' column='1' id='type-id-84'>
          <data-member access='public' layout-offset-in-bits='0'>
            <var-decl name='mu' type-id='type-id-87' visibility='default' filepath='src/base/low_level_alloc.cc' line='189' column='1'/>
          </data-member>
          <data-member access='public' layout-offset-in-bits='64'>
            <var-decl name='freelist' type-id='type-id-80' visibility='default' filepath='src/base/low_level_alloc.cc' line='191' column='1'/>
          </data-member>
          <data-member access='public' layout-offset-in-bits='2304'>
            <var-decl name='allocation_count' type-id='type-id-74' visibility='default' filepath='src/base/low_level_alloc.cc' line='192' column='1'/>
          </data-member>
          <data-member access='public' layout-offset-in-bits='2336'>
            <var-decl name='flags' type-id='type-id-74' visibility='default' filepath='src/base/low_level_alloc.cc' line='193' column='1'/>
          </data-member>
          <data-member access='public' layout-offset-in-bits='2368'>
            <var-decl name='pagesize' type-id='type-id-62' visibility='default' filepath='src/base/low_level_alloc.cc' line='194' column='1'/>
          </data-member>
          <data-member access='public' layout-offset-in-bits='2432'>
            <var-decl name='roundup' type-id='type-id-62' visibility='default' filepath='src/base/low_level_alloc.cc' line='195' column='1'/>
          </data-member>
          <data-member access='public' layout-offset-in-bits='2496'>
            <var-decl name='min_size' type-id='type-id-62' visibility='default' filepath='src/base/low_level_alloc.cc' line='197' column='1'/>
          </data-member>
          <member-function access='public' constructor='yes'>
            <function-decl name='Arena' filepath='src/base/low_level_alloc.cc' line='185' column='1' visibility='default' binding='global' size-in-bits='64'>
              <parameter type-id='type-id-83' is-artificial='yes'/>
              <return type-id='type-id-60'/>
            </function-decl>
          </member-function>
          <member-function access='public' constructor='yes'>
            <function-decl name='Arena' filepath='src/base/low_level_alloc.cc' line='186' column='1' visibility='default' binding='global' size-in-bits='64'>
              <parameter type-id='type-id-83' is-artificial='yes'/>
              <parameter type-id='type-id-1'/>
              <return type-id='type-id-60'/>
            </function-decl>
          </member-function>
        </class-decl>
      </member-type>
    </class-decl>
    <type-decl name='long int' size-in-bits='64' id='type-id-85'/>
    <class-decl name='SpinLock' size-in-bits='32' visibility='default' filepath='./src/base/spinlock.h' line='48' column='1' id='type-id-87'>
      <member-type access='private'>
        <enum-decl name='__anonymous_enum__2' is-anonymous='yes' filepath='./src/base/spinlock.h' line='116' column='1' id='type-id-88'>
          <underlying-type type-id='type-id-89'/>
          <enumerator name='kSpinLockSleeper' value='2'/>
        </enum-decl>
      </member-type>
      <member-type access='private'>
        <enum-decl name='__anonymous_enum__' is-anonymous='yes' filepath='src/base/spinlock.h' line='114' column='1' id='type-id-90'>
          <underlying-type type-id='type-id-89'/>
          <enumerator name='kSpinLockFree' value='0'/>
        </enum-decl>
      </member-type>
      <member-type access='private'>
        <enum-decl name='__anonymous_enum__1' is-anonymous='yes' filepath='src/base/spinlock.h' line='115' column='1' id='type-id-91'>
          <underlying-type type-id='type-id-89'/>
          <enumerator name='kSpinLockHeld' value='1'/>
        </enum-decl>
      </member-type>
      <data-member access='private' static='yes'>
        <var-decl name='LINKER_INITIALIZED' type-id='type-id-92' mangled-name='_ZN8SpinLock18LINKER_INITIALIZEDE' visibility='default' filepath='src/base/spinlock.h' line='112' column='1' elf-symbol-id='_ZN8SpinLock18LINKER_INITIALIZEDE'/>
      </data-member>
      <data-member access='private' layout-offset-in-bits='0'>
        <var-decl name='lockword_' type-id='type-id-93' visibility='default' filepath='src/base/spinlock.h' line='118' column='1'/>
      </data-member>
      <member-function access='private' constructor='yes'>
        <function-decl name='SpinLock' filepath='src/base/spinlock.h' line='50' column='1' visibility='default' binding='global' size-in-bits='64'>
          <parameter type-id='type-id-94' is-artificial='yes'/>
          <return type-id='type-id-60'/>
        </function-decl>
      </member-function>
      <member-function access='private' constructor='yes'>
        <function-decl name='SpinLock' filepath='src/base/spinlock.h' line='61' column='1' visibility='default' binding='global' size-in-bits='64'>
          <parameter type-id='type-id-94' is-artificial='yes'/>
          <parameter type-id='type-id-95'/>
          <return type-id='type-id-60'/>
        </function-decl>
      </member-function>
      <member-function access='private' constructor='yes'>
        <function-decl name='SpinLock' filepath='src/base/spinlock.h' line='125' column='1' visibility='default' binding='global' size-in-bits='64'>
          <parameter type-id='type-id-94' is-artificial='yes'/>
          <parameter type-id='type-id-96'/>
          <return type-id='type-id-60'/>
        </function-decl>
      </member-function>
      <member-function access='private'>
        <function-decl name='SpinLoop' mangled-name='_ZN8SpinLock8SpinLoopElPi' filepath='src/base/spinlock.cc' line='82' column='1' visibility='default' binding='global' size-in-bits='64' elf-symbol-id='_ZN8SpinLock8SpinLoopElPi'>
          <parameter type-id='type-id-97' name='this' is-artificial='yes'/>
          <parameter type-id='type-id-98' name='initial_wait_timestamp' filepath='src/base/spinlock.cc' line='82' column='1'/>
          <parameter type-id='type-id-99' name='wait_cycles' filepath='src/base/spinlock.cc' line='83' column='1'/>
          <return type-id='type-id-100'/>
        </function-decl>
      </member-function>
      <member-function access='private'>
        <function-decl name='SlowUnlock' mangled-name='_ZN8SpinLock10SlowUnlockEm' filepath='src/base/spinlock.cc' line='152' column='1' visibility='default' binding='global' size-in-bits='64' elf-symbol-id='_ZN8SpinLock10SlowUnlockEm'>
          <parameter type-id='type-id-97' name='this' is-artificial='yes'/>
          <parameter type-id='type-id-101' name='wait_cycles' filepath='src/base/spinlock.cc' line='152' column='1'/>
          <return type-id='type-id-60'/>
        </function-decl>
      </member-function>
      <member-function access='private'>
        <function-decl name='SlowLock' mangled-name='_ZN8SpinLock8SlowLockEv' filepath='src/base/spinlock.cc' line='95' column='1' visibility='default' binding='global' size-in-bits='64' elf-symbol-id='_ZN8SpinLock8SlowLockEv'>
          <parameter type-id='type-id-94' is-artificial='yes'/>
          <return type-id='type-id-60'/>
        </function-decl>
      </member-function>
    </class-decl>
    <pointer-type-def type-id='type-id-100' size-in-bits='64' id='type-id-99'/>
    <pointer-type-def type-id='type-id-87' size-in-bits='64' id='type-id-94'/>
    <qualified-type-def type-id='type-id-94' const='yes' id='type-id-97'/>
    <reference-type-def kind='lvalue' type-id='type-id-102' size-in-bits='64' id='type-id-96'/>
    <qualified-type-def type-id='type-id-95' const='yes' id='type-id-92'/>
    <namespace-decl name='base'>
      <enum-decl name='LinkerInitialized' filepath='src/base/basictypes.h' line='381' column='1' id='type-id-95'>
        <underlying-type type-id='type-id-89'/>
        <enumerator name='LINKER_INITIALIZED' value='0'/>
      </enum-decl>
    </namespace-decl>
    <typedef-decl name='Atomic32' type-id='type-id-76' filepath='./src/base/atomicops-internals-x86.h' line='43' column='1' id='type-id-100'/>
    <typedef-decl name='int64' type-id='type-id-103' filepath='src/base/basictypes.h' line='61' column='1' id='type-id-98'/>
    <typedef-decl name='uint64' type-id='type-id-15' filepath='src/base/basictypes.h' line='72' column='1' id='type-id-101'/>
    <qualified-type-def type-id='type-id-100' volatile='yes' id='type-id-93'/>
    <qualified-type-def type-id='type-id-87' const='yes' id='type-id-102'/>
    <typedef-decl name='int64_t' type-id='type-id-85' filepath='/usr/include/stdint.h' line='41' column='1' id='type-id-103'/>
  </abi-instr>
  <abi-instr address-size='64' path='src/base/spinlock.cc' comp-dir-path='/tmp/legendre/spack-stage/spack-stage-kFgaKP/gperftools-2.4' language='LANG_C_plus_plus'>
    <class-decl name='CycleClock' size-in-bits='8' is-struct='yes' visibility='default' filepath='./src/base/cycleclock.h' line='79' column='1' id='type-id-104'/>
    <namespace-decl name='base'>
      <function-decl name='SubmitSpinLockProfileData' mangled-name='_ZN4base25SubmitSpinLockProfileDataEPKvl' filepath='./src/base/synchronization_profiling.h' line='48' column='1' visibility='default' binding='global' size-in-bits='64' elf-symbol-id='_ZN4base25SubmitSpinLockProfileDataEPKvl'>
        <parameter type-id='type-id-58'/>
        <parameter type-id='type-id-98'/>
        <return type-id='type-id-60'/>
      </function-decl>
    </namespace-decl>
  </abi-instr>
  <abi-instr address-size='64' path='src/base/spinlock_internal.cc' comp-dir-path='/tmp/legendre/spack-stage/spack-stage-kFgaKP/gperftools-2.4' language='LANG_C_plus_plus'>
    <qualified-type-def type-id='type-id-105' const='yes' id='type-id-106'/>
    <pointer-type-def type-id='type-id-106' size-in-bits='64' id='type-id-107'/>
    <namespace-decl name='base'>
      <namespace-decl name='internal'>
        <class-decl name='SpinLockWaitTransition' size-in-bits='96' is-struct='yes' visibility='default' filepath='./src/base/spinlock_internal.h' line='48' column='1' id='type-id-105'>
          <data-member access='public' layout-offset-in-bits='0'>
            <var-decl name='from' type-id='type-id-74' visibility='default' filepath='./src/base/spinlock_internal.h' line='49' column='1'/>
          </data-member>
          <data-member access='public' layout-offset-in-bits='32'>
            <var-decl name='to' type-id='type-id-74' visibility='default' filepath='./src/base/spinlock_internal.h' line='50' column='1'/>
          </data-member>
          <data-member access='public' layout-offset-in-bits='64'>
            <var-decl name='done' type-id='type-id-61' visibility='default' filepath='./src/base/spinlock_internal.h' line='51' column='1'/>
          </data-member>
        </class-decl>
        <function-decl name='SpinLockWake' mangled-name='_ZN4base8internal12SpinLockWakeEPVib' filepath='./src/base/spinlock_linux-inl.h' line='96' column='1' visibility='default' binding='global' size-in-bits='64' elf-symbol-id='_ZN4base8internal12SpinLockWakeEPVib'>
          <parameter type-id='type-id-108'/>
          <parameter type-id='type-id-61'/>
          <return type-id='type-id-60'/>
        </function-decl>
        <function-decl name='SpinLockDelay' mangled-name='_ZN4base8internal13SpinLockDelayEPViii' filepath='./src/base/spinlock_linux-inl.h' line='74' column='1' visibility='default' binding='global' size-in-bits='64' elf-symbol-id='_ZN4base8internal13SpinLockDelayEPViii'>
          <parameter type-id='type-id-108'/>
          <parameter type-id='type-id-74'/>
          <parameter type-id='type-id-1'/>
          <return type-id='type-id-60'/>
        </function-decl>
        <function-decl name='SpinLockWait' mangled-name='_ZN4base8internal12SpinLockWaitEPViiPKNS0_22SpinLockWaitTransitionE' filepath='src/base/spinlock_internal.cc' line='61' column='1' visibility='default' binding='global' size-in-bits='64' elf-symbol-id='_ZN4base8internal12SpinLockWaitEPViiPKNS0_22SpinLockWaitTransitionE'>
          <parameter type-id='type-id-108'/>
          <parameter type-id='type-id-1'/>
          <parameter type-id='type-id-107'/>
          <return type-id='type-id-74'/>
        </function-decl>
      </namespace-decl>
      <namespace-decl name='subtle'>
        <function-decl name='Acquire_Load' filepath='./src/base/atomicops-internals-x86.h' line='167' column='1' visibility='default' binding='global' size-in-bits='64'>
          <parameter type-id='type-id-109'/>
          <return type-id='type-id-100'/>
        </function-decl>
      </namespace-decl>
    </namespace-decl>
    <pointer-type-def type-id='type-id-110' size-in-bits='64' id='type-id-109'/>
    <pointer-type-def type-id='type-id-93' size-in-bits='64' id='type-id-108'/>
    <qualified-type-def type-id='type-id-93' const='yes' id='type-id-110'/>
  </abi-instr>
  <abi-instr address-size='64' path='src/base/sysinfo.cc' comp-dir-path='/tmp/legendre/spack-stage/spack-stage-kFgaKP/gperftools-2.4' language='LANG_C_plus_plus'>
    <array-type-def dimensions='1' type-id='type-id-65' size-in-bits='80' id='type-id-111'>
      <subrange length='10' type-id='type-id-5' id='type-id-112'/>
    </array-type-def>
    <array-type-def dimensions='1' type-id='type-id-65' size-in-bits='40960' id='type-id-113'>
      <subrange length='5120' type-id='type-id-5' id='type-id-114'/>
    </array-type-def>
    <class-decl name='ProcMapsIterator' size-in-bits='640' visibility='default' filepath='./src/base/sysinfo.h' line='102' column='1' id='type-id-115'>
      <member-type access='private'>
        <class-decl name='Buffer' size-in-bits='40960' is-struct='yes' visibility='default' filepath='./src/base/sysinfo.h' line='104' column='1' id='type-id-116'>
          <data-member access='public' static='yes'>
            <var-decl name='kBufSize' type-id='type-id-117' visibility='default' filepath='./src/base/sysinfo.h' line='110' column='1'/>
          </data-member>
          <data-member access='public' layout-offset-in-bits='0'>
            <var-decl name='buf_' type-id='type-id-113' visibility='default' filepath='./src/base/sysinfo.h' line='112' column='1'/>
          </data-member>
        </class-decl>
      </member-type>
      <data-member access='private' layout-offset-in-bits='0'>
        <var-decl name='ibuf_' type-id='type-id-118' visibility='default' filepath='./src/base/sysinfo.h' line='193' column='1'/>
      </data-member>
      <data-member access='private' layout-offset-in-bits='64'>
        <var-decl name='stext_' type-id='type-id-118' visibility='default' filepath='./src/base/sysinfo.h' line='194' column='1'/>
      </data-member>
      <data-member access='private' layout-offset-in-bits='128'>
        <var-decl name='etext_' type-id='type-id-118' visibility='default' filepath='./src/base/sysinfo.h' line='195' column='1'/>
      </data-member>
      <data-member access='private' layout-offset-in-bits='192'>
        <var-decl name='nextline_' type-id='type-id-118' visibility='default' filepath='./src/base/sysinfo.h' line='196' column='1'/>
      </data-member>
      <data-member access='private' layout-offset-in-bits='256'>
        <var-decl name='ebuf_' type-id='type-id-118' visibility='default' filepath='./src/base/sysinfo.h' line='197' column='1'/>
      </data-member>
      <data-member access='private' layout-offset-in-bits='320'>
        <var-decl name='fd_' type-id='type-id-1' visibility='default' filepath='./src/base/sysinfo.h' line='219' column='1'/>
      </data-member>
      <data-member access='private' layout-offset-in-bits='352'>
        <var-decl name='pid_' type-id='type-id-69' visibility='default' filepath='./src/base/sysinfo.h' line='221' column='1'/>
      </data-member>
      <data-member access='private' layout-offset-in-bits='384'>
        <var-decl name='flags_' type-id='type-id-111' visibility='default' filepath='./src/base/sysinfo.h' line='222' column='1'/>
      </data-member>
      <data-member access='private' layout-offset-in-bits='512'>
        <var-decl name='dynamic_buffer_' type-id='type-id-119' visibility='default' filepath='./src/base/sysinfo.h' line='223' column='1'/>
      </data-member>
      <data-member access='private' layout-offset-in-bits='576'>
        <var-decl name='using_maps_backing_' type-id='type-id-61' visibility='default' filepath='./src/base/sysinfo.h' line='224' column='1'/>
      </data-member>
      <member-function access='private' constructor='yes'>
        <function-decl name='ProcMapsIterator' mangled-name='_ZN16ProcMapsIteratorC1Ei' filepath='./src/base/sysinfo.h' line='117' column='1' visibility='default' binding='global' size-in-bits='64' elf-symbol-id='_ZN16ProcMapsIteratorC1Ei'>
          <parameter type-id='type-id-120' is-artificial='yes'/>
          <parameter type-id='type-id-69'/>
          <return type-id='type-id-60'/>
        </function-decl>
      </member-function>
      <member-function access='private' constructor='yes'>
        <function-decl name='ProcMapsIterator' mangled-name='_ZN16ProcMapsIteratorC2EiPNS_6BufferE' filepath='./src/base/sysinfo.h' line='122' column='1' visibility='default' binding='global' size-in-bits='64' elf-symbol-id='_ZN16ProcMapsIteratorC2EiPNS_6BufferE'>
          <parameter type-id='type-id-120' is-artificial='yes'/>
          <parameter type-id='type-id-69'/>
          <parameter type-id='type-id-119'/>
          <return type-id='type-id-60'/>
        </function-decl>
      </member-function>
      <member-function access='private' constructor='yes'>
        <function-decl name='ProcMapsIterator' mangled-name='_ZN16ProcMapsIteratorC1EiPNS_6BufferEb' filepath='./src/base/sysinfo.h' line='127' column='1' visibility='default' binding='global' size-in-bits='64' elf-symbol-id='_ZN16ProcMapsIteratorC1EiPNS_6BufferEb'>
          <parameter type-id='type-id-120' is-artificial='yes'/>
          <parameter type-id='type-id-69'/>
          <parameter type-id='type-id-119'/>
          <parameter type-id='type-id-61'/>
          <return type-id='type-id-60'/>
        </function-decl>
      </member-function>
      <member-function access='private' destructor='yes'>
        <function-decl name='~ProcMapsIterator' mangled-name='_ZN16ProcMapsIteratorD1Ev' filepath='./src/base/sysinfo.h' line='188' column='1' visibility='default' binding='global' size-in-bits='64' elf-symbol-id='_ZN16ProcMapsIteratorD1Ev'>
          <parameter type-id='type-id-120' is-artificial='yes'/>
          <parameter type-id='type-id-1' is-artificial='yes'/>
          <return type-id='type-id-60'/>
        </function-decl>
      </member-function>
      <member-function access='private'>
        <function-decl name='Valid' mangled-name='_ZNK16ProcMapsIterator5ValidEv' filepath='src/base/sysinfo.cc' line='815' column='1' visibility='default' binding='global' size-in-bits='64' elf-symbol-id='_ZNK16ProcMapsIterator5ValidEv'>
          <parameter type-id='type-id-121' name='this' is-artificial='yes'/>
          <return type-id='type-id-61'/>
        </function-decl>
      </member-function>
      <member-function access='private' static='yes'>
        <function-decl name='FormatLine' mangled-name='_ZN16ProcMapsIterator10FormatLineEPcimmPKcmlS2_m' filepath='src/base/sysinfo.cc' line='1084' column='1' visibility='default' binding='global' size-in-bits='64' elf-symbol-id='_ZN16ProcMapsIterator10FormatLineEPcimmPKcmlS2_m'>
          <parameter type-id='type-id-118'/>
          <parameter type-id='type-id-1'/>
          <parameter type-id='type-id-101'/>
          <parameter type-id='type-id-101'/>
          <parameter type-id='type-id-57'/>
          <parameter type-id='type-id-101'/>
          <parameter type-id='type-id-98'/>
          <parameter type-id='type-id-57'/>
          <parameter type-id='type-id-122'/>
          <return type-id='type-id-1'/>
        </function-decl>
      </member-function>
      <member-function access='private'>
        <function-decl name='Init' mangled-name='_ZN16ProcMapsIterator4InitEiPNS_6BufferEb' filepath='src/base/sysinfo.cc' line='741' column='1' visibility='default' binding='global' size-in-bits='64' elf-symbol-id='_ZN16ProcMapsIterator4InitEiPNS_6BufferEb'>
          <parameter type-id='type-id-123' name='this' is-artificial='yes'/>
          <parameter type-id='type-id-69' name='pid' filepath='src/base/sysinfo.cc' line='741' column='1'/>
          <parameter type-id='type-id-119' name='buffer' filepath='src/base/sysinfo.cc' line='741' column='1'/>
          <parameter type-id='type-id-61' name='use_maps_backing' filepath='src/base/sysinfo.cc' line='742' column='1'/>
          <return type-id='type-id-60'/>
        </function-decl>
      </member-function>
      <member-function access='private'>
        <function-decl name='NextExt' mangled-name='_ZN16ProcMapsIterator7NextExtEPmS0_PPcS0_PlS2_S0_S0_S0_S0_S0_' filepath='src/base/sysinfo.cc' line='834' column='1' visibility='default' binding='global' size-in-bits='64' elf-symbol-id='_ZN16ProcMapsIterator7NextExtEPmS0_PPcS0_PlS2_S0_S0_S0_S0_S0_'>
          <parameter type-id='type-id-123' name='this' is-artificial='yes'/>
          <parameter type-id='type-id-124' name='start' filepath='src/base/sysinfo.cc' line='834' column='1'/>
          <parameter type-id='type-id-124' name='end' filepath='src/base/sysinfo.cc' line='834' column='1'/>
          <parameter type-id='type-id-125' name='flags' filepath='src/base/sysinfo.cc' line='834' column='1'/>
          <parameter type-id='type-id-124' name='offset' filepath='src/base/sysinfo.cc' line='835' column='1'/>
          <parameter type-id='type-id-126' name='inode' filepath='src/base/sysinfo.cc' line='835' column='1'/>
          <parameter type-id='type-id-125' name='filename' filepath='src/base/sysinfo.cc' line='835' column='1'/>
          <parameter type-id='type-id-124' name='file_mapping' filepath='src/base/sysinfo.cc' line='836' column='1'/>
          <parameter type-id='type-id-124' name='file_pages' filepath='src/base/sysinfo.cc' line='836' column='1'/>
          <parameter type-id='type-id-124' name='anon_mapping' filepath='src/base/sysinfo.cc' line='837' column='1'/>
          <parameter type-id='type-id-124' name='anon_pages' filepath='src/base/sysinfo.cc' line='837' column='1'/>
          <parameter type-id='type-id-127' name='dev' filepath='src/base/sysinfo.cc' line='838' column='1'/>
          <return type-id='type-id-61'/>
        </function-decl>
      </member-function>
      <member-function access='private'>
        <function-decl name='Next' mangled-name='_ZN16ProcMapsIterator4NextEPmS0_PPcS0_PlS2_' filepath='src/base/sysinfo.cc' line='825' column='1' visibility='default' binding='global' size-in-bits='64' elf-symbol-id='_ZN16ProcMapsIterator4NextEPmS0_PPcS0_PlS2_'>
          <parameter type-id='type-id-123' name='this' is-artificial='yes'/>
          <parameter type-id='type-id-124' name='start' filepath='src/base/sysinfo.cc' line='825' column='1'/>
          <parameter type-id='type-id-124' name='end' filepath='src/base/sysinfo.cc' line='825' column='1'/>
          <parameter type-id='type-id-125' name='flags' filepath='src/base/sysinfo.cc' line='825' column='1'/>
          <parameter type-id='type-id-124' name='offset' filepath='src/base/sysinfo.cc' line='826' column='1'/>
          <parameter type-id='type-id-126' name='inode' filepath='src/base/sysinfo.cc' line='826' column='1'/>
          <parameter type-id='type-id-125' name='filename' filepath='src/base/sysinfo.cc' line='826' column='1'/>
          <return type-id='type-id-61'/>
        </function-decl>
      </member-function>
    </class-decl>
    <typedef-decl name='dev_t' type-id='type-id-128' filepath='/usr/include/sys/types.h' line='61' column='1' id='type-id-122'/>
    <typedef-decl name='__dev_t' type-id='type-id-5' filepath='/usr/include/bits/types.h' line='134' column='1' id='type-id-128'/>
    <pointer-type-def type-id='type-id-115' size-in-bits='64' id='type-id-120'/>
    <qualified-type-def type-id='type-id-120' const='yes' id='type-id-123'/>
    <pointer-type-def type-id='type-id-116' size-in-bits='64' id='type-id-119'/>
    <qualified-type-def type-id='type-id-115' const='yes' id='type-id-129'/>
    <pointer-type-def type-id='type-id-129' size-in-bits='64' id='type-id-130'/>
    <qualified-type-def type-id='type-id-130' const='yes' id='type-id-121'/>
    <pointer-type-def type-id='type-id-122' size-in-bits='64' id='type-id-127'/>
    <pointer-type-def type-id='type-id-98' size-in-bits='64' id='type-id-126'/>
    <pointer-type-def type-id='type-id-101' size-in-bits='64' id='type-id-124'/>
    <function-decl name='HasPosixThreads' mangled-name='_Z15HasPosixThreadsv' filepath='src/base/sysinfo.cc' line='518' column='1' visibility='default' binding='global' size-in-bits='64' elf-symbol-id='_Z15HasPosixThreadsv'>
      <return type-id='type-id-61'/>
    </function-decl>
    <function-decl name='SleepForMilliseconds' mangled-name='_Z20SleepForMillisecondsi' filepath='src/base/sysinfo.cc' line='226' column='1' visibility='default' binding='global' size-in-bits='64' elf-symbol-id='_Z20SleepForMillisecondsi'>
      <parameter type-id='type-id-1' name='milliseconds' filepath='src/base/sysinfo.cc' line='226' column='1'/>
      <return type-id='type-id-60'/>
    </function-decl>
    <function-decl name='NumCPUs' mangled-name='_Z7NumCPUsv' filepath='src/base/sysinfo.cc' line='505' column='1' visibility='default' binding='global' size-in-bits='64' elf-symbol-id='_Z7NumCPUsv'>
      <return type-id='type-id-1'/>
    </function-decl>
    <function-decl name='CyclesPerSecond' mangled-name='_Z15CyclesPerSecondv' filepath='src/base/sysinfo.cc' line='500' column='1' visibility='default' binding='global' size-in-bits='64' elf-symbol-id='_Z15CyclesPerSecondv'>
      <return type-id='type-id-2'/>
    </function-decl>
    <function-decl name='GetUniquePathFromEnv' mangled-name='_Z20GetUniquePathFromEnvPKcPc' filepath='src/base/sysinfo.cc' line='201' column='1' visibility='default' binding='global' size-in-bits='64' elf-symbol-id='_Z20GetUniquePathFromEnvPKcPc'>
      <parameter type-id='type-id-57' name='env_name' filepath='src/base/sysinfo.cc' line='201' column='1'/>
      <parameter type-id='type-id-118' name='path' filepath='src/base/sysinfo.cc' line='201' column='1'/>
      <return type-id='type-id-61'/>
    </function-decl>
    <function-decl name='GetenvBeforeMain' mangled-name='_Z16GetenvBeforeMainPKc' filepath='src/base/sysinfo.cc' line='122' column='1' visibility='default' binding='global' size-in-bits='64' elf-symbol-id='_Z16GetenvBeforeMainPKc'>
      <parameter type-id='type-id-57' name='name' filepath='src/base/sysinfo.cc' line='122' column='1'/>
      <return type-id='type-id-57'/>
    </function-decl>
    <function-decl name='TCMallocGetenvSafe' mangled-name='TCMallocGetenvSafe' filepath='src/base/sysinfo.cc' line='174' column='1' visibility='default' binding='global' size-in-bits='64' elf-symbol-id='TCMallocGetenvSafe'>
      <parameter type-id='type-id-57' name='name' filepath='src/base/sysinfo.cc' line='122' column='1'/>
      <return type-id='type-id-57'/>
    </function-decl>
    <namespace-decl name='tcmalloc'>
      <function-decl name='DumpProcSelfMaps' mangled-name='_ZN8tcmalloc16DumpProcSelfMapsEi' filepath='src/base/sysinfo.cc' line='1137' column='1' visibility='default' binding='global' size-in-bits='64' elf-symbol-id='_ZN8tcmalloc16DumpProcSelfMapsEi'>
        <parameter type-id='type-id-75'/>
        <return type-id='type-id-60'/>
      </function-decl>
      <function-decl name='FillProcSelfMaps' mangled-name='_ZN8tcmalloc16FillProcSelfMapsEPciPb' filepath='src/base/sysinfo.cc' line='1111' column='1' visibility='default' binding='global' size-in-bits='64' elf-symbol-id='_ZN8tcmalloc16FillProcSelfMapsEPciPb'>
        <parameter type-id='type-id-118'/>
        <parameter type-id='type-id-1'/>
        <parameter type-id='type-id-131'/>
        <return type-id='type-id-1'/>
      </function-decl>
    </namespace-decl>
    <pointer-type-def type-id='type-id-61' size-in-bits='64' id='type-id-131'/>
    <pointer-type-def type-id='type-id-65' size-in-bits='64' id='type-id-118'/>
    <pointer-type-def type-id='type-id-118' size-in-bits='64' id='type-id-125'/>
    <qualified-type-def type-id='type-id-62' const='yes' id='type-id-117'/>
  </abi-instr>
  <abi-instr address-size='64' path='src/base/vdso_support.cc' comp-dir-path='/tmp/legendre/spack-stage/spack-stage-kFgaKP/gperftools-2.4' language='LANG_C_plus_plus'>
    <pointer-type-def type-id='type-id-132' size-in-bits='64' id='type-id-133'/>
    <pointer-type-def type-id='type-id-134' size-in-bits='64' id='type-id-135'/>
    <qualified-type-def type-id='type-id-135' const='yes' id='type-id-136'/>
    <pointer-type-def type-id='type-id-137' size-in-bits='64' id='type-id-138'/>
    <qualified-type-def type-id='type-id-134' const='yes' id='type-id-139'/>
    <reference-type-def kind='lvalue' type-id='type-id-139' size-in-bits='64' id='type-id-140'/>
    <pointer-type-def type-id='type-id-139' size-in-bits='64' id='type-id-141'/>
    <qualified-type-def type-id='type-id-141' const='yes' id='type-id-142'/>
    <namespace-decl name='base'>
      <class-decl name='VDSOInitHelper' size-in-bits='8' visibility='default' filepath='src/base/vdso_support.cc' line='137' column='1' id='type-id-132'>
        <member-function access='private' constructor='yes'>
          <function-decl name='VDSOInitHelper' filepath='src/base/vdso_support.cc' line='139' column='1' visibility='default' binding='global' size-in-bits='64'>
            <parameter type-id='type-id-133' is-artificial='yes'/>
            <return type-id='type-id-60'/>
          </function-decl>
        </member-function>
      </class-decl>
      <class-decl name='VDSOSupport' size-in-bits='576' visibility='default' filepath='./src/base/vdso_support.h' line='72' column='1' id='type-id-134'>
        <member-type access='private'>
          <typedef-decl name='SymbolInfo' type-id='type-id-26' filepath='./src/base/vdso_support.h' line='76' column='1' id='type-id-137'/>
        </member-type>
        <member-type access='private'>
          <typedef-decl name='SymbolIterator' type-id='type-id-28' filepath='./src/base/vdso_support.h' line='77' column='1' id='type-id-143'/>
        </member-type>
        <data-member access='private' layout-offset-in-bits='0'>
          <var-decl name='image_' type-id='type-id-23' visibility='default' filepath='./src/base/vdso_support.h' line='112' column='1'/>
        </data-member>
        <data-member access='private' static='yes'>
          <var-decl name='vdso_base_' type-id='type-id-58' mangled-name='_ZN4base11VDSOSupport10vdso_base_E' visibility='default' filepath='./src/base/vdso_support.h' line='123' column='1' elf-symbol-id='_ZN4base11VDSOSupport10vdso_base_E'/>
        </data-member>
        <member-function access='private' constructor='yes'>
          <function-decl name='VDSOSupport' mangled-name='_ZN4base11VDSOSupportC1Ev' filepath='./src/base/vdso_support.h' line='74' column='1' visibility='default' binding='global' size-in-bits='64' elf-symbol-id='_ZN4base11VDSOSupportC1Ev'>
            <parameter type-id='type-id-135' is-artificial='yes'/>
            <return type-id='type-id-60'/>
          </function-decl>
        </member-function>
        <member-function access='private' constructor='yes'>
          <function-decl name='VDSOSupport' filepath='./src/base/vdso_support.h' line='125' column='1' visibility='default' binding='global' size-in-bits='64'>
            <parameter type-id='type-id-135' is-artificial='yes'/>
            <parameter type-id='type-id-140'/>
            <return type-id='type-id-60'/>
          </function-decl>
        </member-function>
        <member-function access='private'>
          <function-decl name='LookupSymbolByAddress' mangled-name='_ZNK4base11VDSOSupport21LookupSymbolByAddressEPKvPNS_11ElfMemImage10SymbolInfoE' filepath='src/base/vdso_support.cc' line='124' column='1' visibility='default' binding='global' size-in-bits='64' elf-symbol-id='_ZNK4base11VDSOSupport21LookupSymbolByAddressEPKvPNS_11ElfMemImage10SymbolInfoE'>
            <parameter type-id='type-id-142' name='this' is-artificial='yes'/>
            <parameter type-id='type-id-58' name='address' filepath='src/base/vdso_support.cc' line='124' column='1'/>
            <parameter type-id='type-id-138' name='info_out' filepath='src/base/vdso_support.cc' line='125' column='1'/>
            <return type-id='type-id-61'/>
          </function-decl>
        </member-function>
        <member-function access='private'>
          <function-decl name='LookupSymbol' mangled-name='_ZNK4base11VDSOSupport12LookupSymbolEPKcS2_iPNS_11ElfMemImage10SymbolInfoE' filepath='src/base/vdso_support.cc' line='117' column='1' visibility='default' binding='global' size-in-bits='64' elf-symbol-id='_ZNK4base11VDSOSupport12LookupSymbolEPKcS2_iPNS_11ElfMemImage10SymbolInfoE'>
            <parameter type-id='type-id-142' name='this' is-artificial='yes'/>
            <parameter type-id='type-id-57' name='name' filepath='src/base/vdso_support.cc' line='117' column='1'/>
            <parameter type-id='type-id-57' name='version' filepath='src/base/vdso_support.cc' line='118' column='1'/>
            <parameter type-id='type-id-1' name='type' filepath='src/base/vdso_support.cc' line='119' column='1'/>
            <parameter type-id='type-id-138' name='info' filepath='src/base/vdso_support.cc' line='120' column='1'/>
            <return type-id='type-id-61'/>
          </function-decl>
        </member-function>
        <member-function access='private'>
          <function-decl name='SetBase' mangled-name='_ZN4base11VDSOSupport7SetBaseEPKv' filepath='src/base/vdso_support.cc' line='109' column='1' visibility='default' binding='global' size-in-bits='64' elf-symbol-id='_ZN4base11VDSOSupport7SetBaseEPKv'>
            <parameter type-id='type-id-136' name='this' is-artificial='yes'/>
            <parameter type-id='type-id-58' name='base' filepath='src/base/vdso_support.cc' line='109' column='1'/>
            <return type-id='type-id-58'/>
          </function-decl>
        </member-function>
        <member-function access='private' static='yes'>
          <function-decl name='Init' mangled-name='_ZN4base11VDSOSupport4InitEv' filepath='src/base/vdso_support.cc' line='75' column='1' visibility='default' binding='global' size-in-bits='64' elf-symbol-id='_ZN4base11VDSOSupport4InitEv'>
            <return type-id='type-id-58'/>
          </function-decl>
        </member-function>
      </class-decl>
    </namespace-decl>
  </abi-instr>
  <abi-instr address-size='64' path='src/central_freelist.cc' comp-dir-path='/tmp/legendre/spack-stage/spack-stage-kFgaKP/gperftools-2.4' language='LANG_C_plus_plus'>
    <reference-type-def kind='lvalue' type-id='type-id-144' size-in-bits='64' id='type-id-145'/>
    <qualified-type-def type-id='type-id-76' const='yes' id='type-id-146'/>
    <reference-type-def kind='lvalue' type-id='type-id-146' size-in-bits='64' id='type-id-147'/>
    <qualified-type-def type-id='type-id-148' const='yes' id='type-id-149'/>
    <pointer-type-def type-id='type-id-149' size-in-bits='64' id='type-id-150'/>
    <namespace-decl name='std'>
      <function-decl name='max&lt;int&gt;' filepath='/usr/lib/gcc/x86_64-redhat-linux/4.4.7/../../../../include/c++/4.4.7/bits/stl_algobase.h' line='209' column='1' visibility='default' binding='global' size-in-bits='64'>
        <parameter type-id='type-id-145'/>
        <parameter type-id='type-id-145'/>
        <return type-id='type-id-145'/>
      </function-decl>
      <function-decl name='min&lt;int32_t&gt;' filepath='/usr/lib/gcc/x86_64-redhat-linux/4.4.7/../../../../include/c++/4.4.7/bits/stl_algobase.h' line='186' column='1' visibility='default' binding='global' size-in-bits='64'>
        <parameter type-id='type-id-147'/>
        <parameter type-id='type-id-147'/>
        <return type-id='type-id-147'/>
      </function-decl>
    </namespace-decl>
    <namespace-decl name='tcmalloc'>
      <function-decl name='DLL_IsEmpty' filepath='src/span.h' line='90' column='1' visibility='default' binding='global' size-in-bits='64'>
        <parameter type-id='type-id-150'/>
        <return type-id='type-id-61'/>
      </function-decl>
      <function-decl name='SLL_PushRange' filepath='src/linked_list.h' line='86' column='1' visibility='default' binding='global' size-in-bits='64'>
        <parameter type-id='type-id-151'/>
        <parameter type-id='type-id-58'/>
        <parameter type-id='type-id-58'/>
        <return type-id='type-id-60'/>
      </function-decl>
    </namespace-decl>
    <namespace-decl name='tcmalloc'>
      <class-decl name='Span' size-in-bits='384' is-struct='yes' visibility='default' filepath='src/span.h' line='45' column='1' id='type-id-148'>
        <member-type access='public'>
          <enum-decl name='__anonymous_enum__' is-anonymous='yes' filepath='src/span.h' line='65' column='1' id='type-id-152'>
            <underlying-type type-id='type-id-89'/>
            <enumerator name='IN_USE' value='0'/>
            <enumerator name='ON_NORMAL_FREELIST' value='1'/>
            <enumerator name='ON_RETURNED_FREELIST' value='2'/>
          </enum-decl>
        </member-type>
        <data-member access='public' layout-offset-in-bits='0'>
          <var-decl name='start' type-id='type-id-153' visibility='default' filepath='src/span.h' line='46' column='1'/>
        </data-member>
        <data-member access='public' layout-offset-in-bits='64'>
          <var-decl name='length' type-id='type-id-154' visibility='default' filepath='src/span.h' line='47' column='1'/>
        </data-member>
        <data-member access='public' layout-offset-in-bits='128'>
          <var-decl name='next' type-id='type-id-155' visibility='default' filepath='src/span.h' line='48' column='1'/>
        </data-member>
        <data-member access='public' layout-offset-in-bits='192'>
          <var-decl name='prev' type-id='type-id-155' visibility='default' filepath='src/span.h' line='49' column='1'/>
        </data-member>
        <data-member access='public' layout-offset-in-bits='256'>
          <var-decl name='objects' type-id='type-id-58' visibility='default' filepath='src/span.h' line='50' column='1'/>
        </data-member>
        <data-member access='public' layout-offset-in-bits='0'>
          <var-decl name='refcount' type-id='type-id-64' visibility='default' filepath='src/span.h' line='51' column='1'/>
        </data-member>
        <data-member access='public' layout-offset-in-bits='16'>
          <var-decl name='sizeclass' type-id='type-id-64' visibility='default' filepath='src/span.h' line='52' column='1'/>
        </data-member>
        <data-member access='public' layout-offset-in-bits='24'>
          <var-decl name='location' type-id='type-id-64' visibility='default' filepath='src/span.h' line='53' column='1'/>
        </data-member>
        <data-member access='public' layout-offset-in-bits='26'>
          <var-decl name='sample' type-id='type-id-64' visibility='default' filepath='src/span.h' line='54' column='1'/>
        </data-member>
      </class-decl>
    </namespace-decl>
    <qualified-type-def type-id='type-id-1' const='yes' id='type-id-144'/>
    <pointer-type-def type-id='type-id-58' size-in-bits='64' id='type-id-151'/>
    <pointer-type-def type-id='type-id-148' size-in-bits='64' id='type-id-155'/>
    <typedef-decl name='Length' type-id='type-id-156' filepath='src/common.h' line='59' column='1' id='type-id-154'/>
    <typedef-decl name='PageID' type-id='type-id-156' filepath='src/common.h' line='56' column='1' id='type-id-153'/>
    <typedef-decl name='uintptr_t' type-id='type-id-5' filepath='/usr/include/stdint.h' line='123' column='1' id='type-id-156'/>
  </abi-instr>
  <abi-instr address-size='64' path='src/common.cc' comp-dir-path='/tmp/legendre/spack-stage/spack-stage-kFgaKP/gperftools-2.4' language='LANG_C_plus_plus'>
    <namespace-decl name='tcmalloc'>
      <function-decl name='metadata_system_bytes' mangled-name='_ZN8tcmalloc21metadata_system_bytesEv' filepath='src/common.cc' line='274' column='1' visibility='default' binding='global' size-in-bits='64' elf-symbol-id='_ZN8tcmalloc21metadata_system_bytesEv'>
        <return type-id='type-id-15'/>
      </function-decl>
      <function-decl name='MetaDataAlloc' mangled-name='_ZN8tcmalloc13MetaDataAllocEm' filepath='src/common.cc' line='233' column='1' visibility='default' binding='global' size-in-bits='64' elf-symbol-id='_ZN8tcmalloc13MetaDataAllocEm'>
        <parameter type-id='type-id-62'/>
        <return type-id='type-id-58'/>
      </function-decl>
      <function-decl name='AlignmentForSize' mangled-name='_ZN8tcmalloc16AlignmentForSizeEm' filepath='src/common.cc' line='77' column='1' visibility='default' binding='global' size-in-bits='64' elf-symbol-id='_ZN8tcmalloc16AlignmentForSizeEm'>
        <parameter type-id='type-id-62'/>
        <return type-id='type-id-1'/>
      </function-decl>
    </namespace-decl>
  </abi-instr>
  <abi-instr address-size='64' path='src/heap-checker-bcad.cc' comp-dir-path='/tmp/legendre/spack-stage/spack-stage-kFgaKP/gperftools-2.4' language='LANG_C_plus_plus'>
    <class-decl name='HeapLeakCheckerGlobalPrePost' size-in-bits='8' visibility='default' filepath='src/heap-checker-bcad.cc' line='60' column='1' id='type-id-157'>
      <data-member access='private' static='yes'>
        <var-decl name='count_' type-id='type-id-1' mangled-name='_ZN28HeapLeakCheckerGlobalPrePost6count_E' visibility='default' filepath='src/heap-checker-bcad.cc' line='87' column='1' elf-symbol-id='_ZN28HeapLeakCheckerGlobalPrePost6count_E'/>
      </data-member>
      <member-function access='private' constructor='yes'>
        <function-decl name='HeapLeakCheckerGlobalPrePost' filepath='src/heap-checker-bcad.cc' line='62' column='1' visibility='default' binding='global' size-in-bits='64'>
          <parameter type-id='type-id-158' is-artificial='yes'/>
          <return type-id='type-id-60'/>
        </function-decl>
      </member-function>
      <member-function access='private' destructor='yes'>
        <function-decl name='~HeapLeakCheckerGlobalPrePost' mangled-name='_ZN28HeapLeakCheckerGlobalPrePostD1Ev' filepath='src/heap-checker-bcad.cc' line='79' column='1' visibility='default' binding='global' size-in-bits='64' elf-symbol-id='_ZN28HeapLeakCheckerGlobalPrePostD1Ev'>
          <parameter type-id='type-id-158' is-artificial='yes'/>
          <parameter type-id='type-id-1' is-artificial='yes'/>
          <return type-id='type-id-60'/>
        </function-decl>
      </member-function>
    </class-decl>
    <pointer-type-def type-id='type-id-157' size-in-bits='64' id='type-id-158'/>
    <var-decl name='heap_leak_checker_bcad_variable' type-id='type-id-61' mangled-name='heap_leak_checker_bcad_variable' visibility='default' filepath='src/heap-checker-bcad.cc' line='53' column='1' elf-symbol-id='heap_leak_checker_bcad_variable'/>
  </abi-instr>
  <abi-instr address-size='64' path='src/heap-checker.cc' comp-dir-path='/tmp/legendre/spack-stage/spack-stage-kFgaKP/gperftools-2.4' language='LANG_C_plus_plus'>
    <array-type-def dimensions='1' type-id='type-id-65' size-in-bits='infinite' id='type-id-159'>
      <subrange length='infinite' id='type-id-160'/>
    </array-type-def>
    <array-type-def dimensions='1' type-id='type-id-62' size-in-bits='256' id='type-id-161'>
      <subrange length='4' type-id='type-id-5' id='type-id-162'/>
    </array-type-def>
    <array-type-def dimensions='1' type-id='type-id-58' size-in-bits='2048' id='type-id-163'>
      <subrange length='32' type-id='type-id-5' id='type-id-164'/>
    </array-type-def>
    <class-decl name='AllocObject' size-in-bits='192' is-struct='yes' visibility='default' filepath='src/heap-checker.cc' line='356' column='1' id='type-id-165'>
      <data-member access='public' layout-offset-in-bits='0'>
        <var-decl name='ptr' type-id='type-id-58' visibility='default' filepath='src/heap-checker.cc' line='357' column='1'/>
      </data-member>
      <data-member access='public' layout-offset-in-bits='64'>
        <var-decl name='size' type-id='type-id-156' visibility='default' filepath='src/heap-checker.cc' line='358' column='1'/>
      </data-member>
      <data-member access='public' layout-offset-in-bits='128'>
        <var-decl name='place' type-id='type-id-166' visibility='default' filepath='src/heap-checker.cc' line='359' column='1'/>
      </data-member>
      <member-function access='public' constructor='yes'>
        <function-decl name='AllocObject' filepath='src/heap-checker.cc' line='361' column='1' visibility='default' binding='global' size-in-bits='64'>
          <parameter type-id='type-id-167' is-artificial='yes'/>
          <parameter type-id='type-id-58'/>
          <parameter type-id='type-id-62'/>
          <parameter type-id='type-id-166'/>
          <return type-id='type-id-60'/>
        </function-decl>
      </member-function>
    </class-decl>
    <enum-decl name='ObjectPlacement' filepath='src/heap-checker.cc' line='345' column='1' id='type-id-166'>
      <underlying-type type-id='type-id-89'/>
      <enumerator name='MUST_BE_ON_HEAP' value='0'/>
      <enumerator name='IGNORED_ON_HEAP' value='1'/>
      <enumerator name='MAYBE_LIVE' value='2'/>
      <enumerator name='IN_GLOBAL_DATA' value='3'/>
      <enumerator name='THREAD_DATA' value='4'/>
      <enumerator name='THREAD_REGISTERS' value='5'/>
    </enum-decl>
    <class-decl name='STL_Allocator&lt;AllocObject, HeapLeakChecker::Allocator&gt;' size-in-bits='8' visibility='default' filepath='src/base/stl_allocator.h' line='60' column='1' id='type-id-168'>
      <member-function access='private'>
        <function-decl name='STL_Allocator' filepath='src/base/stl_allocator.h' line='74' column='1' visibility='default' binding='global' size-in-bits='64'>
          <parameter type-id='type-id-169' is-artificial='yes'/>
          <return type-id='type-id-60'/>
        </function-decl>
      </member-function>
      <member-function access='private'>
        <function-decl name='STL_Allocator' filepath='src/base/stl_allocator.h' line='75' column='1' visibility='default' binding='global' size-in-bits='64'>
          <parameter type-id='type-id-169' is-artificial='yes'/>
          <parameter type-id='type-id-170'/>
          <return type-id='type-id-60'/>
        </function-decl>
      </member-function>
      <member-function access='private' destructor='yes'>
        <function-decl name='~STL_Allocator' filepath='src/base/stl_allocator.h' line='77' column='1' visibility='default' binding='global' size-in-bits='64'>
          <parameter type-id='type-id-169' is-artificial='yes'/>
          <parameter type-id='type-id-1' is-artificial='yes'/>
          <return type-id='type-id-60'/>
        </function-decl>
      </member-function>
    </class-decl>
    <class-decl name='STL_Allocator&lt;void*, HeapLeakChecker::Allocator&gt;' size-in-bits='8' visibility='default' filepath='src/base/stl_allocator.h' line='60' column='1' id='type-id-171'>
      <member-function access='private'>
        <function-decl name='STL_Allocator' filepath='src/base/stl_allocator.h' line='74' column='1' visibility='default' binding='global' size-in-bits='64'>
          <parameter type-id='type-id-172' is-artificial='yes'/>
          <return type-id='type-id-60'/>
        </function-decl>
      </member-function>
      <member-function access='private'>
        <function-decl name='STL_Allocator' filepath='src/base/stl_allocator.h' line='75' column='1' visibility='default' binding='global' size-in-bits='64'>
          <parameter type-id='type-id-172' is-artificial='yes'/>
          <parameter type-id='type-id-173'/>
          <return type-id='type-id-60'/>
        </function-decl>
      </member-function>
      <member-function access='private' destructor='yes'>
        <function-decl name='~STL_Allocator' filepath='src/base/stl_allocator.h' line='77' column='1' visibility='default' binding='global' size-in-bits='64'>
          <parameter type-id='type-id-172' is-artificial='yes'/>
          <parameter type-id='type-id-1' is-artificial='yes'/>
          <return type-id='type-id-60'/>
        </function-decl>
      </member-function>
    </class-decl>
    <class-decl name='GoogleInitializer' size-in-bits='128' visibility='default' filepath='src/base/googleinit.h' line='39' column='1' id='type-id-174'>
      <member-type access='private'>
        <typedef-decl name='VoidFunction' type-id='type-id-176' filepath='src/base/googleinit.h' line='41' column='1' id='type-id-175'/>
      </member-type>
      <data-member access='private' layout-offset-in-bits='0'>
        <var-decl name='name_' type-id='type-id-177' visibility='default' filepath='src/base/googleinit.h' line='55' column='1'/>
      </data-member>
      <data-member access='private' layout-offset-in-bits='64'>
        <var-decl name='destructor_' type-id='type-id-178' visibility='default' filepath='src/base/googleinit.h' line='56' column='1'/>
      </data-member>
      <member-function access='private' constructor='yes'>
        <function-decl name='GoogleInitializer' filepath='src/base/googleinit.h' line='42' column='1' visibility='default' binding='global' size-in-bits='64'>
          <parameter type-id='type-id-179' is-artificial='yes'/>
          <parameter type-id='type-id-57'/>
          <parameter type-id='type-id-175'/>
          <parameter type-id='type-id-175'/>
          <return type-id='type-id-60'/>
        </function-decl>
      </member-function>
      <member-function access='private' destructor='yes'>
        <function-decl name='~GoogleInitializer' mangled-name='_ZN17GoogleInitializerD2Ev' filepath='src/base/googleinit.h' line='48' column='1' visibility='default' binding='global' size-in-bits='64' elf-symbol-id='_ZN17GoogleInitializerD2Ev'>
          <parameter type-id='type-id-179' is-artificial='yes'/>
          <parameter type-id='type-id-1' is-artificial='yes'/>
          <return type-id='type-id-60'/>
        </function-decl>
      </member-function>
    </class-decl>
    <class-decl name='HeapProfileStats' size-in-bits='192' is-struct='yes' visibility='default' filepath='src/heap-profile-stats.h' line='54' column='1' id='type-id-180'>
      <data-member access='public' layout-offset-in-bits='0'>
        <var-decl name='allocs' type-id='type-id-74' visibility='default' filepath='src/heap-profile-stats.h' line='61' column='1'/>
      </data-member>
      <data-member access='public' layout-offset-in-bits='32'>
        <var-decl name='frees' type-id='type-id-74' visibility='default' filepath='src/heap-profile-stats.h' line='62' column='1'/>
      </data-member>
      <data-member access='public' layout-offset-in-bits='64'>
        <var-decl name='alloc_size' type-id='type-id-98' visibility='default' filepath='src/heap-profile-stats.h' line='63' column='1'/>
      </data-member>
      <data-member access='public' layout-offset-in-bits='128'>
        <var-decl name='free_size' type-id='type-id-98' visibility='default' filepath='src/heap-profile-stats.h' line='64' column='1'/>
      </data-member>
    </class-decl>
    <class-decl name='MemoryRegionMap' size-in-bits='8' visibility='default' filepath='src/memory_region_map.h' line='69' column='1' id='type-id-181'>
      <member-type access='private'>
        <class-decl name='RegionCmp' size-in-bits='8' is-struct='yes' visibility='default' filepath='src/memory_region_map.h' line='245' column='1' id='type-id-182'/>
      </member-type>
      <member-type access='private'>
        <class-decl name='Region' size-in-bits='2304' is-struct='yes' visibility='default' filepath='src/memory_region_map.h' line='137' column='1' id='type-id-183'>
          <data-member access='public' layout-offset-in-bits='0'>
            <var-decl name='start_addr' type-id='type-id-156' visibility='default' filepath='src/memory_region_map.h' line='138' column='1'/>
          </data-member>
          <data-member access='public' layout-offset-in-bits='64'>
            <var-decl name='end_addr' type-id='type-id-156' visibility='default' filepath='src/memory_region_map.h' line='139' column='1'/>
          </data-member>
          <data-member access='public' layout-offset-in-bits='128'>
            <var-decl name='call_stack_depth' type-id='type-id-1' visibility='default' filepath='src/memory_region_map.h' line='140' column='1'/>
          </data-member>
          <data-member access='public' layout-offset-in-bits='192'>
            <var-decl name='call_stack' type-id='type-id-163' visibility='default' filepath='src/memory_region_map.h' line='141' column='1'/>
          </data-member>
          <data-member access='public' layout-offset-in-bits='2240'>
            <var-decl name='is_stack' type-id='type-id-61' visibility='default' filepath='src/memory_region_map.h' line='143' column='1'/>
          </data-member>
        </class-decl>
      </member-type>
      <member-type access='private'>
        <class-decl name='MyAllocator' size-in-bits='8' is-struct='yes' visibility='default' filepath='src/memory_region_map.h' line='252' column='1' id='type-id-184'/>
      </member-type>
      <member-type access='private'>
        <typedef-decl name='RegionSet' type-id='type-id-186' filepath='src/memory_region_map.h' line='263' column='1' id='type-id-185'/>
      </member-type>
      <member-type access='private'>
        <union-decl name='RegionSetRep' size-in-bits='384' visibility='default' filepath='src/memory_region_map.cc' line='177' column='1' id='type-id-187'>
          <data-member access='public'>
            <var-decl name='rep' type-id='type-id-188' visibility='default' filepath='src/memory_region_map.cc' line='178' column='1'/>
          </data-member>
          <data-member access='public'>
            <var-decl name='align_it' type-id='type-id-58' visibility='default' filepath='src/memory_region_map.cc' line='179' column='1'/>
          </data-member>
        </union-decl>
      </member-type>
      <member-type access='private'>
        <class-decl name='LockHolder' size-in-bits='8' visibility='default' filepath='src/memory_region_map.h' line='126' column='1' id='type-id-189'>
          <member-function access='private' constructor='yes'>
            <function-decl name='LockHolder' filepath='src/memory_region_map.h' line='128' column='1' visibility='default' binding='global' size-in-bits='64'>
              <parameter type-id='type-id-190' is-artificial='yes'/>
              <return type-id='type-id-60'/>
            </function-decl>
          </member-function>
          <member-function access='private' destructor='yes'>
            <function-decl name='~LockHolder' filepath='src/memory_region_map.h' line='129' column='1' visibility='default' binding='global' size-in-bits='64'>
              <parameter type-id='type-id-190' is-artificial='yes'/>
              <parameter type-id='type-id-1' is-artificial='yes'/>
              <return type-id='type-id-60'/>
            </function-decl>
          </member-function>
          <member-function access='private' constructor='yes'>
            <function-decl name='LockHolder' filepath='src/memory_region_map.h' line='131' column='1' visibility='default' binding='global' size-in-bits='64'>
              <parameter type-id='type-id-190' is-artificial='yes'/>
              <parameter type-id='type-id-191'/>
              <return type-id='type-id-60'/>
            </function-decl>
          </member-function>
        </class-decl>
      </member-type>
      <member-type access='private'>
        <typedef-decl name='RegionIterator' type-id='type-id-193' filepath='src/memory_region_map.h' line='268' column='1' id='type-id-192'/>
      </member-type>
      <data-member access='private' static='yes'>
        <var-decl name='client_count_' type-id='type-id-1' mangled-name='_ZN15MemoryRegionMap13client_count_E' visibility='default' filepath='src/memory_region_map.h' line='292' column='1' elf-symbol-id='_ZN15MemoryRegionMap13client_count_E'/>
      </data-member>
      <data-member access='private' static='yes'>
        <var-decl name='max_stack_depth_' type-id='type-id-1' mangled-name='_ZN15MemoryRegionMap16max_stack_depth_E' visibility='default' filepath='src/memory_region_map.h' line='295' column='1' elf-symbol-id='_ZN15MemoryRegionMap16max_stack_depth_E'/>
      </data-member>
      <data-member access='private' static='yes'>
        <var-decl name='arena_' type-id='type-id-83' mangled-name='_ZN15MemoryRegionMap6arena_E' visibility='default' filepath='src/memory_region_map.h' line='298' column='1' elf-symbol-id='_ZN15MemoryRegionMap6arena_E'/>
      </data-member>
      <data-member access='private' static='yes'>
        <var-decl name='regions_' type-id='type-id-194' mangled-name='_ZN15MemoryRegionMap8regions_E' visibility='default' filepath='src/memory_region_map.h' line='306' column='1' elf-symbol-id='_ZN15MemoryRegionMap8regions_E'/>
      </data-member>
      <data-member access='private' static='yes'>
        <var-decl name='lock_' type-id='type-id-87' mangled-name='_ZN15MemoryRegionMap5lock_E' visibility='default' filepath='src/memory_region_map.h' line='309' column='1' elf-symbol-id='_ZN15MemoryRegionMap5lock_E'/>
      </data-member>
      <data-member access='private' static='yes'>
        <var-decl name='owner_lock_' type-id='type-id-87' mangled-name='_ZN15MemoryRegionMap11owner_lock_E' visibility='default' filepath='src/memory_region_map.h' line='311' column='1' elf-symbol-id='_ZN15MemoryRegionMap11owner_lock_E'/>
      </data-member>
      <data-member access='private' static='yes'>
        <var-decl name='recursion_count_' type-id='type-id-1' mangled-name='_ZN15MemoryRegionMap16recursion_count_E' visibility='default' filepath='src/memory_region_map.h' line='314' column='1' elf-symbol-id='_ZN15MemoryRegionMap16recursion_count_E'/>
      </data-member>
      <data-member access='private' static='yes'>
        <var-decl name='lock_owner_tid_' type-id='type-id-195' mangled-name='_ZN15MemoryRegionMap15lock_owner_tid_E' visibility='default' filepath='src/memory_region_map.h' line='316' column='1' elf-symbol-id='_ZN15MemoryRegionMap15lock_owner_tid_E'/>
      </data-member>
      <data-member access='private' static='yes'>
        <var-decl name='map_size_' type-id='type-id-98' mangled-name='_ZN15MemoryRegionMap9map_size_E' visibility='default' filepath='src/memory_region_map.h' line='319' column='1' elf-symbol-id='_ZN15MemoryRegionMap9map_size_E'/>
      </data-member>
      <data-member access='private' static='yes'>
        <var-decl name='unmap_size_' type-id='type-id-98' mangled-name='_ZN15MemoryRegionMap11unmap_size_E' visibility='default' filepath='src/memory_region_map.h' line='321' column='1' elf-symbol-id='_ZN15MemoryRegionMap11unmap_size_E'/>
      </data-member>
      <data-member access='private' static='yes'>
        <var-decl name='bucket_table_' type-id='type-id-196' mangled-name='_ZN15MemoryRegionMap13bucket_table_E' visibility='default' filepath='src/memory_region_map.h' line='324' column='1' elf-symbol-id='_ZN15MemoryRegionMap13bucket_table_E'/>
      </data-member>
      <data-member access='private' static='yes'>
        <var-decl name='num_buckets_' type-id='type-id-1' mangled-name='_ZN15MemoryRegionMap12num_buckets_E' visibility='default' filepath='src/memory_region_map.h' line='325' column='1' elf-symbol-id='_ZN15MemoryRegionMap12num_buckets_E'/>
      </data-member>
      <data-member access='private' static='yes'>
        <var-decl name='saved_buckets_count_' type-id='type-id-1' mangled-name='_ZN15MemoryRegionMap20saved_buckets_count_E' visibility='default' filepath='src/memory_region_map.h' line='337' column='1' elf-symbol-id='_ZN15MemoryRegionMap20saved_buckets_count_E'/>
      </data-member>
      <data-member access='private' static='yes'>
        <var-decl name='saved_buckets_' type-id='type-id-197' mangled-name='_ZN15MemoryRegionMap14saved_buckets_E' visibility='default' filepath='src/memory_region_map.h' line='343' column='1' elf-symbol-id='_ZN15MemoryRegionMap14saved_buckets_E'/>
      </data-member>
      <data-member access='private' static='yes'>
        <var-decl name='saved_buckets_keys_' type-id='type-id-198' mangled-name='_ZN15MemoryRegionMap19saved_buckets_keys_E' visibility='default' filepath='src/memory_region_map.h' line='345' column='1' elf-symbol-id='_ZN15MemoryRegionMap19saved_buckets_keys_E'/>
      </data-member>
      <member-function access='private' static='yes'>
        <function-decl name='IterateBuckets&lt;HeapProfileTable::BufferArgs*&gt;' filepath='src/memory_region_map.h' line='402' column='1' visibility='default' binding='global' size-in-bits='64'>
          <parameter type-id='type-id-199'/>
          <parameter type-id='type-id-200'/>
          <return type-id='type-id-60'/>
        </function-decl>
      </member-function>
      <member-function access='private' static='yes'>
        <function-decl name='HandleSavedRegionsLocked' mangled-name='_ZN15MemoryRegionMap24HandleSavedRegionsLockedEPFvRKNS_6RegionEE' filepath='src/memory_region_map.cc' line='487' column='1' declared-inline='yes' visibility='default' binding='global' size-in-bits='64' elf-symbol-id='_ZN15MemoryRegionMap24HandleSavedRegionsLockedEPFvRKNS_6RegionEE'>
          <parameter type-id='type-id-201'/>
          <return type-id='type-id-60'/>
        </function-decl>
      </member-function>
      <member-function access='private' static='yes'>
        <function-decl name='Unlock' mangled-name='_ZN15MemoryRegionMap6UnlockEv' filepath='src/memory_region_map.cc' line='316' column='1' visibility='default' binding='global' size-in-bits='64' elf-symbol-id='_ZN15MemoryRegionMap6UnlockEv'>
          <return type-id='type-id-60'/>
        </function-decl>
      </member-function>
      <member-function access='private' static='yes'>
        <function-decl name='LockIsHeld' mangled-name='_ZN15MemoryRegionMap10LockIsHeldEv' filepath='src/memory_region_map.cc' line='328' column='1' visibility='default' binding='global' size-in-bits='64' elf-symbol-id='_ZN15MemoryRegionMap10LockIsHeldEv'>
          <return type-id='type-id-61'/>
        </function-decl>
      </member-function>
      <member-function access='private' static='yes'>
        <function-decl name='LogAllLocked' mangled-name='_ZN15MemoryRegionMap12LogAllLockedEv' filepath='src/memory_region_map.cc' line='815' column='1' visibility='default' binding='global' size-in-bits='64' elf-symbol-id='_ZN15MemoryRegionMap12LogAllLockedEv'>
          <return type-id='type-id-60'/>
        </function-decl>
      </member-function>
      <member-function access='private' static='yes'>
        <function-decl name='DoInsertRegionLocked' mangled-name='_ZN15MemoryRegionMap20DoInsertRegionLockedERKNS_6RegionE' filepath='src/memory_region_map.cc' line='443' column='1' declared-inline='yes' visibility='default' binding='global' size-in-bits='64' elf-symbol-id='_ZN15MemoryRegionMap20DoInsertRegionLockedERKNS_6RegionE'>
          <parameter type-id='type-id-202' name='region' filepath='src/memory_region_map.cc' line='443' column='1'/>
          <return type-id='type-id-60'/>
        </function-decl>
      </member-function>
      <member-function access='private' static='yes'>
        <function-decl name='EndRegionLocked' mangled-name='_ZN15MemoryRegionMap15EndRegionLockedEv' filepath='src/memory_region_map.cc' line='437' column='1' visibility='default' binding='global' size-in-bits='64' elf-symbol-id='_ZN15MemoryRegionMap15EndRegionLockedEv'>
          <return type-id='type-id-192'/>
        </function-decl>
      </member-function>
      <member-function access='private' static='yes'>
        <function-decl name='BeginRegionLocked' mangled-name='_ZN15MemoryRegionMap17BeginRegionLockedEv' filepath='src/memory_region_map.cc' line='431' column='1' visibility='default' binding='global' size-in-bits='64' elf-symbol-id='_ZN15MemoryRegionMap17BeginRegionLockedEv'>
          <return type-id='type-id-192'/>
        </function-decl>
      </member-function>
      <member-function access='private' static='yes'>
        <function-decl name='DoFindRegionLocked' mangled-name='_ZN15MemoryRegionMap18DoFindRegionLockedEm' filepath='src/memory_region_map.cc' line='334' column='1' visibility='default' binding='global' size-in-bits='64' elf-symbol-id='_ZN15MemoryRegionMap18DoFindRegionLockedEm'>
          <parameter type-id='type-id-156'/>
          <return type-id='type-id-203'/>
        </function-decl>
      </member-function>
      <member-function access='private' static='yes'>
        <function-decl name='IsRecordingLocked' mangled-name='_ZN15MemoryRegionMap17IsRecordingLockedEv' filepath='src/memory_region_map.cc' line='279' column='1' visibility='default' binding='global' size-in-bits='64' elf-symbol-id='_ZN15MemoryRegionMap17IsRecordingLockedEv'>
          <return type-id='type-id-61'/>
        </function-decl>
      </member-function>
      <member-function access='private' static='yes'>
        <function-decl name='Lock' mangled-name='_ZN15MemoryRegionMap4LockEv' filepath='src/memory_region_map.cc' line='294' column='1' visibility='default' binding='global' size-in-bits='64' elf-symbol-id='_ZN15MemoryRegionMap4LockEv'>
          <return type-id='type-id-60'/>
        </function-decl>
      </member-function>
      <member-function access='private' static='yes'>
        <function-decl name='FindAndMarkStackRegion' mangled-name='_ZN15MemoryRegionMap22FindAndMarkStackRegionEmPNS_6RegionE' filepath='src/memory_region_map.cc' line='358' column='1' visibility='default' binding='global' size-in-bits='64' elf-symbol-id='_ZN15MemoryRegionMap22FindAndMarkStackRegionEmPNS_6RegionE'>
          <parameter type-id='type-id-156'/>
          <parameter type-id='type-id-204'/>
          <return type-id='type-id-61'/>
        </function-decl>
      </member-function>
      <member-function access='private' static='yes'>
        <function-decl name='FindRegion' mangled-name='_ZN15MemoryRegionMap10FindRegionEmPNS_6RegionE' filepath='src/memory_region_map.cc' line='350' column='1' visibility='default' binding='global' size-in-bits='64' elf-symbol-id='_ZN15MemoryRegionMap10FindRegionEmPNS_6RegionE'>
          <parameter type-id='type-id-156'/>
          <parameter type-id='type-id-204'/>
          <return type-id='type-id-61'/>
        </function-decl>
      </member-function>
      <member-function access='private' static='yes'>
        <function-decl name='Shutdown' mangled-name='_ZN15MemoryRegionMap8ShutdownEv' filepath='src/memory_region_map.cc' line='239' column='1' visibility='default' binding='global' size-in-bits='64' elf-symbol-id='_ZN15MemoryRegionMap8ShutdownEv'>
          <return type-id='type-id-61'/>
        </function-decl>
      </member-function>
      <member-function access='private' static='yes'>
        <function-decl name='Init' mangled-name='_ZN15MemoryRegionMap4InitEib' filepath='src/memory_region_map.cc' line='194' column='1' visibility='default' binding='global' size-in-bits='64' elf-symbol-id='_ZN15MemoryRegionMap4InitEib'>
          <parameter type-id='type-id-1'/>
          <parameter type-id='type-id-61'/>
          <return type-id='type-id-60'/>
        </function-decl>
      </member-function>
      <member-function access='private' static='yes'>
        <function-decl name='RestoreSavedBucketsLocked' mangled-name='_ZN15MemoryRegionMap25RestoreSavedBucketsLockedEv' filepath='src/memory_region_map.cc' line='499' column='1' visibility='default' binding='global' size-in-bits='64' elf-symbol-id='_ZN15MemoryRegionMap25RestoreSavedBucketsLockedEv'>
          <return type-id='type-id-60'/>
        </function-decl>
      </member-function>
      <member-function access='private' static='yes'>
        <function-decl name='GetBucket' mangled-name='_ZN15MemoryRegionMap9GetBucketEiPKPKv' filepath='src/memory_region_map.cc' line='375' column='1' visibility='default' binding='global' size-in-bits='64' elf-symbol-id='_ZN15MemoryRegionMap9GetBucketEiPKPKv'>
          <parameter type-id='type-id-1'/>
          <parameter type-id='type-id-205'/>
          <return type-id='type-id-206'/>
        </function-decl>
      </member-function>
      <member-function access='private' static='yes'>
        <function-decl name='RecordRegionRemovalInBucket' mangled-name='_ZN15MemoryRegionMap27RecordRegionRemovalInBucketEiPKPKvm' filepath='src/memory_region_map.cc' line='752' column='1' visibility='default' binding='global' size-in-bits='64' elf-symbol-id='_ZN15MemoryRegionMap27RecordRegionRemovalInBucketEiPKPKvm'>
          <parameter type-id='type-id-1'/>
          <parameter type-id='type-id-205'/>
          <parameter type-id='type-id-62'/>
          <return type-id='type-id-60'/>
        </function-decl>
      </member-function>
      <member-function access='private' static='yes'>
        <function-decl name='InsertRegionLocked' mangled-name='_ZN15MemoryRegionMap18InsertRegionLockedERKNS_6RegionE' filepath='src/memory_region_map.cc' line='537' column='1' declared-inline='yes' visibility='default' binding='global' size-in-bits='64' elf-symbol-id='_ZN15MemoryRegionMap18InsertRegionLockedERKNS_6RegionE'>
          <parameter type-id='type-id-202' name='region' filepath='src/memory_region_map.cc' line='443' column='1'/>
          <return type-id='type-id-60'/>
        </function-decl>
      </member-function>
      <member-function access='private' static='yes'>
        <function-decl name='RecordRegionAddition' mangled-name='_ZN15MemoryRegionMap20RecordRegionAdditionEPKvm' filepath='src/memory_region_map.cc' line='580' column='1' visibility='default' binding='global' size-in-bits='64' elf-symbol-id='_ZN15MemoryRegionMap20RecordRegionAdditionEPKvm'>
          <parameter type-id='type-id-58'/>
          <parameter type-id='type-id-62'/>
          <return type-id='type-id-60'/>
        </function-decl>
      </member-function>
      <member-function access='private' static='yes'>
        <function-decl name='MmapHook' mangled-name='_ZN15MemoryRegionMap8MmapHookEPKvS1_miiil' filepath='src/memory_region_map.cc' line='762' column='1' visibility='default' binding='global' size-in-bits='64' elf-symbol-id='_ZN15MemoryRegionMap8MmapHookEPKvS1_miiil'>
          <parameter type-id='type-id-58'/>
          <parameter type-id='type-id-58'/>
          <parameter type-id='type-id-62'/>
          <parameter type-id='type-id-1'/>
          <parameter type-id='type-id-1'/>
          <parameter type-id='type-id-1'/>
          <parameter type-id='type-id-207'/>
          <return type-id='type-id-60'/>
        </function-decl>
      </member-function>
      <member-function access='private' static='yes'>
        <function-decl name='RecordRegionRemoval' mangled-name='_ZN15MemoryRegionMap19RecordRegionRemovalEPKvm' filepath='src/memory_region_map.cc' line='634' column='1' visibility='default' binding='global' size-in-bits='64' elf-symbol-id='_ZN15MemoryRegionMap19RecordRegionRemovalEPKvm'>
          <parameter type-id='type-id-58'/>
          <parameter type-id='type-id-62'/>
          <return type-id='type-id-60'/>
        </function-decl>
      </member-function>
      <member-function access='private' static='yes'>
        <function-decl name='MunmapHook' mangled-name='_ZN15MemoryRegionMap10MunmapHookEPKvm' filepath='src/memory_region_map.cc' line='778' column='1' visibility='default' binding='global' size-in-bits='64' elf-symbol-id='_ZN15MemoryRegionMap10MunmapHookEPKvm'>
          <parameter type-id='type-id-58'/>
          <parameter type-id='type-id-62'/>
          <return type-id='type-id-60'/>
        </function-decl>
      </member-function>
      <member-function access='private' static='yes'>
        <function-decl name='SbrkHook' mangled-name='_ZN15MemoryRegionMap8SbrkHookEPKvl' filepath='src/memory_region_map.cc' line='800' column='1' visibility='default' binding='global' size-in-bits='64' elf-symbol-id='_ZN15MemoryRegionMap8SbrkHookEPKvl'>
          <parameter type-id='type-id-58'/>
          <parameter type-id='type-id-208'/>
          <return type-id='type-id-60'/>
        </function-decl>
      </member-function>
      <member-function access='private' static='yes'>
        <function-decl name='MremapHook' mangled-name='_ZN15MemoryRegionMap10MremapHookEPKvS1_mmiS1_' filepath='src/memory_region_map.cc' line='785' column='1' visibility='default' binding='global' size-in-bits='64' elf-symbol-id='_ZN15MemoryRegionMap10MremapHookEPKvS1_mmiS1_'>
          <parameter type-id='type-id-58'/>
          <parameter type-id='type-id-58'/>
          <parameter type-id='type-id-62'/>
          <parameter type-id='type-id-62'/>
          <parameter type-id='type-id-1'/>
          <parameter type-id='type-id-58'/>
          <return type-id='type-id-60'/>
        </function-decl>
      </member-function>
    </class-decl>
    <class-decl name='HeapProfileTable' size-in-bits='832' visibility='default' filepath='src/heap-profile-table.h' line='51' column='1' id='type-id-209'>
      <member-type access='private'>
        <class-decl name='AllocValue' size-in-bits='128' is-struct='yes' visibility='default' filepath='src/heap-profile-table.h' line='190' column='1' id='type-id-210'>
          <member-type access='private'>
            <typedef-decl name='Bucket' type-id='type-id-212' filepath='src/heap-profile-table.h' line='187' column='1' id='type-id-211'/>
          </member-type>
          <data-member access='public' layout-offset-in-bits='0'>
            <var-decl name='bytes' type-id='type-id-62' visibility='default' filepath='src/heap-profile-table.h' line='197' column='1'/>
          </data-member>
          <data-member access='private' static='yes'>
            <var-decl name='kLive' type-id='type-id-144' visibility='default' filepath='src/heap-profile-table.h' line='214' column='1'/>
          </data-member>
          <data-member access='private' static='yes'>
            <var-decl name='kIgnore' type-id='type-id-144' visibility='default' filepath='src/heap-profile-table.h' line='215' column='1'/>
          </data-member>
          <data-member access='private' static='yes'>
            <var-decl name='kMask' type-id='type-id-144' visibility='default' filepath='src/heap-profile-table.h' line='216' column='1'/>
          </data-member>
          <data-member access='private' layout-offset-in-bits='64'>
            <var-decl name='bucket_rep' type-id='type-id-156' visibility='default' filepath='src/heap-profile-table.h' line='218' column='1'/>
          </data-member>
        </class-decl>
      </member-type>
      <member-type access='private'>
        <class-decl name='DumpArgs' size-in-bits='128' is-struct='yes' visibility='default' filepath='src/heap-profile-table.h' line='242' column='1' id='type-id-213'>
          <member-type access='public'>
            <typedef-decl name='Stats' type-id='type-id-180' filepath='src/heap-profile-table.h' line='63' column='1' id='type-id-214'/>
          </member-type>
          <data-member access='public' layout-offset-in-bits='0'>
            <var-decl name='fd' type-id='type-id-75' visibility='default' filepath='src/heap-profile-table.h' line='248' column='1'/>
          </data-member>
          <data-member access='public' layout-offset-in-bits='64'>
            <var-decl name='profile_stats' type-id='type-id-215' visibility='default' filepath='src/heap-profile-table.h' line='249' column='1'/>
          </data-member>
          <member-function access='public' constructor='yes'>
            <function-decl name='DumpArgs' filepath='src/heap-profile-table.h' line='243' column='1' visibility='default' binding='global' size-in-bits='64'>
              <parameter type-id='type-id-216' is-artificial='yes'/>
              <parameter type-id='type-id-75'/>
              <parameter type-id='type-id-215'/>
              <return type-id='type-id-60'/>
            </function-decl>
          </member-function>
        </class-decl>
      </member-type>
      <member-type access='private'>
        <class-decl name='Snapshot' size-in-bits='768' is-struct='yes' visibility='default' filepath='src/heap-profile-table.h' line='347' column='1' id='type-id-217'>
          <member-type access='private'>
            <class-decl name='Entry' size-in-bits='128' is-struct='yes' visibility='default' filepath='src/heap-profile-table.cc' line='514' column='1' id='type-id-218'>
              <data-member access='public' layout-offset-in-bits='0'>
                <var-decl name='count' type-id='type-id-1' visibility='default' filepath='src/heap-profile-table.cc' line='515' column='1'/>
              </data-member>
              <data-member access='public' layout-offset-in-bits='32'>
                <var-decl name='bytes' type-id='type-id-1' visibility='default' filepath='src/heap-profile-table.cc' line='516' column='1'/>
              </data-member>
              <data-member access='public' layout-offset-in-bits='64'>
                <var-decl name='bucket' type-id='type-id-219' visibility='default' filepath='src/heap-profile-table.cc' line='517' column='1'/>
              </data-member>
              <member-function access='public' constructor='yes'>
                <function-decl name='Entry' filepath='src/heap-profile-table.cc' line='518' column='1' visibility='default' binding='global' size-in-bits='64'>
                  <parameter type-id='type-id-220' is-artificial='yes'/>
                  <return type-id='type-id-60'/>
                </function-decl>
              </member-function>
            </class-decl>
          </member-type>
          <member-type access='private'>
            <class-decl name='ReportState' size-in-bits='384' is-struct='yes' visibility='default' filepath='src/heap-profile-table.cc' line='528' column='1' id='type-id-221'>
              <data-member access='public' layout-offset-in-bits='0'>
                <var-decl name='buckets_' type-id='type-id-222' visibility='default' filepath='src/heap-profile-table.cc' line='529' column='1'/>
              </data-member>
            </class-decl>
          </member-type>
          <data-member access='private' layout-offset-in-bits='0'>
            <var-decl name='total_' type-id='type-id-211' visibility='default' filepath='src/heap-profile-table.h' line='372' column='1'/>
          </data-member>
          <data-member access='private' layout-offset-in-bits='448'>
            <var-decl name='map_' type-id='type-id-223' visibility='default' filepath='src/heap-profile-table.h' line='376' column='1'/>
          </data-member>
          <member-function access='private' constructor='yes'>
            <function-decl name='Snapshot' filepath='src/heap-profile-table.h' line='378' column='1' visibility='default' binding='global' size-in-bits='64'>
              <parameter type-id='type-id-224' is-artificial='yes'/>
              <parameter type-id='type-id-225'/>
              <parameter type-id='type-id-226'/>
              <return type-id='type-id-60'/>
            </function-decl>
          </member-function>
          <member-function access='private' constructor='yes'>
            <function-decl name='Snapshot' filepath='src/heap-profile-table.h' line='396' column='1' visibility='default' binding='global' size-in-bits='64'>
              <parameter type-id='type-id-224' is-artificial='yes'/>
              <parameter type-id='type-id-227'/>
              <return type-id='type-id-60'/>
            </function-decl>
          </member-function>
          <member-function access='private' static='yes'>
            <function-decl name='ReportObject' mangled-name='_ZN16HeapProfileTable8Snapshot12ReportObjectEPKvPNS_10AllocValueEPc' filepath='src/heap-profile-table.cc' line='614' column='1' visibility='default' binding='global' size-in-bits='64' elf-symbol-id='_ZN16HeapProfileTable8Snapshot12ReportObjectEPKvPNS_10AllocValueEPc'>
              <parameter type-id='type-id-58'/>
              <parameter type-id='type-id-228'/>
              <parameter type-id='type-id-118'/>
              <return type-id='type-id-60'/>
            </function-decl>
          </member-function>
          <member-function access='public'>
            <function-decl name='ReportIndividualObjects' mangled-name='_ZN16HeapProfileTable8Snapshot23ReportIndividualObjectsEv' filepath='src/heap-profile-table.cc' line='622' column='1' visibility='default' binding='global' size-in-bits='64' elf-symbol-id='_ZN16HeapProfileTable8Snapshot23ReportIndividualObjectsEv'>
              <parameter type-id='type-id-229' name='this' is-artificial='yes'/>
              <return type-id='type-id-60'/>
            </function-decl>
          </member-function>
          <member-function access='private' static='yes'>
            <function-decl name='ReportCallback' mangled-name='_ZN16HeapProfileTable8Snapshot14ReportCallbackEPKvPNS_10AllocValueEPNS0_11ReportStateE' filepath='src/heap-profile-table.cc' line='533' column='1' visibility='default' binding='global' size-in-bits='64' elf-symbol-id='_ZN16HeapProfileTable8Snapshot14ReportCallbackEPKvPNS_10AllocValueEPNS0_11ReportStateE'>
              <parameter type-id='type-id-58'/>
              <parameter type-id='type-id-228'/>
              <parameter type-id='type-id-230'/>
              <return type-id='type-id-60'/>
            </function-decl>
          </member-function>
          <member-function access='public'>
            <function-decl name='ReportLeaks' mangled-name='_ZN16HeapProfileTable8Snapshot11ReportLeaksEPKcS2_b' filepath='src/heap-profile-table.cc' line='542' column='1' visibility='default' binding='global' size-in-bits='64' elf-symbol-id='_ZN16HeapProfileTable8Snapshot11ReportLeaksEPKcS2_b'>
              <parameter type-id='type-id-229' name='this' is-artificial='yes'/>
              <parameter type-id='type-id-57' name='checker_name' filepath='src/heap-profile-table.cc' line='542' column='1'/>
              <parameter type-id='type-id-57' name='filename' filepath='src/heap-profile-table.cc' line='543' column='1'/>
              <parameter type-id='type-id-61' name='should_symbolize' filepath='src/heap-profile-table.cc' line='544' column='1'/>
              <return type-id='type-id-60'/>
            </function-decl>
          </member-function>
        </class-decl>
      </member-type>
      <member-type access='private'>
        <class-decl name='AddNonLiveArgs' size-in-bits='128' is-struct='yes' visibility='default' filepath='src/heap-profile-table.h' line='305' column='1' id='type-id-231'>
          <data-member access='public' layout-offset-in-bits='0'>
            <var-decl name='dest' type-id='type-id-224' visibility='default' filepath='src/heap-profile-table.h' line='306' column='1'/>
          </data-member>
          <data-member access='public' layout-offset-in-bits='64'>
            <var-decl name='base' type-id='type-id-224' visibility='default' filepath='src/heap-profile-table.h' line='307' column='1'/>
          </data-member>
        </class-decl>
      </member-type>
      <member-type access='private'>
        <class-decl name='AllocContextInfo' size-in-bits='320' is-struct='yes' visibility='default' filepath='src/heap-profile-table.h' line='77' column='1' id='type-id-232'>
          <base-class access='public' layout-offset-in-bits='0' type-id='type-id-180'/>
          <data-member access='public' layout-offset-in-bits='192'>
            <var-decl name='stack_depth' type-id='type-id-1' visibility='default' filepath='src/heap-profile-table.h' line='78' column='1'/>
          </data-member>
          <data-member access='public' layout-offset-in-bits='256'>
            <var-decl name='call_stack' type-id='type-id-205' visibility='default' filepath='src/heap-profile-table.h' line='79' column='1'/>
          </data-member>
        </class-decl>
      </member-type>
      <member-type access='private'>
        <typedef-decl name='Allocator' type-id='type-id-233' filepath='src/heap-profile-table.h' line='83' column='1' id='type-id-225'/>
      </member-type>
      <member-type access='private'>
        <typedef-decl name='DeAllocator' type-id='type-id-234' filepath='src/heap-profile-table.h' line='84' column='1' id='type-id-226'/>
      </member-type>
      <member-type access='private'>
        <typedef-decl name='AllocationMap' type-id='type-id-235' filepath='src/heap-profile-table.h' line='224' column='1' id='type-id-223'/>
      </member-type>
      <member-type access='private'>
        <typedef-decl name='AllocIterator' type-id='type-id-237' filepath='src/heap-profile-table.h' line='138' column='1' id='type-id-236'/>
      </member-type>
      <member-type access='private'>
        <typedef-decl name='AllocContextIterator' type-id='type-id-239' filepath='src/heap-profile-table.h' line='147' column='1' id='type-id-238'/>
      </member-type>
      <member-type access='private'>
        <class-decl name='BufferArgs' size-in-bits='128' is-struct='yes' visibility='default' filepath='src/heap-profile-table.h' line='227' column='1' id='type-id-240'>
          <data-member access='public' layout-offset-in-bits='0'>
            <var-decl name='buf' type-id='type-id-118' visibility='default' filepath='src/heap-profile-table.h' line='234' column='1'/>
          </data-member>
          <data-member access='public' layout-offset-in-bits='64'>
            <var-decl name='buflen' type-id='type-id-1' visibility='default' filepath='src/heap-profile-table.h' line='235' column='1'/>
          </data-member>
          <data-member access='public' layout-offset-in-bits='96'>
            <var-decl name='bufsize' type-id='type-id-1' visibility='default' filepath='src/heap-profile-table.h' line='236' column='1'/>
          </data-member>
          <member-function access='public' constructor='yes'>
            <function-decl name='BufferArgs' filepath='src/heap-profile-table.h' line='228' column='1' visibility='default' binding='global' size-in-bits='64'>
              <parameter type-id='type-id-200' is-artificial='yes'/>
              <parameter type-id='type-id-118'/>
              <parameter type-id='type-id-1'/>
              <parameter type-id='type-id-1'/>
              <return type-id='type-id-60'/>
            </function-decl>
          </member-function>
          <member-function access='public' constructor='yes'>
            <function-decl name='BufferArgs' filepath='src/heap-profile-table.h' line='238' column='1' visibility='default' binding='global' size-in-bits='64'>
              <parameter type-id='type-id-200' is-artificial='yes'/>
              <parameter type-id='type-id-241'/>
              <return type-id='type-id-60'/>
            </function-decl>
          </member-function>
        </class-decl>
      </member-type>
      <member-type access='private'>
        <class-decl name='AllocInfo' size-in-bits='192' is-struct='yes' visibility='default' filepath='src/heap-profile-table.h' line='66' column='1' id='type-id-242'>
          <data-member access='public' layout-offset-in-bits='0'>
            <var-decl name='object_size' type-id='type-id-62' visibility='default' filepath='src/heap-profile-table.h' line='67' column='1'/>
          </data-member>
          <data-member access='public' layout-offset-in-bits='64'>
            <var-decl name='call_stack' type-id='type-id-205' visibility='default' filepath='src/heap-profile-table.h' line='68' column='1'/>
          </data-member>
          <data-member access='public' layout-offset-in-bits='128'>
            <var-decl name='stack_depth' type-id='type-id-1' visibility='default' filepath='src/heap-profile-table.h' line='69' column='1'/>
          </data-member>
          <data-member access='public' layout-offset-in-bits='160'>
            <var-decl name='live' type-id='type-id-61' visibility='default' filepath='src/heap-profile-table.h' line='70' column='1'/>
          </data-member>
          <data-member access='public' layout-offset-in-bits='168'>
            <var-decl name='ignored' type-id='type-id-61' visibility='default' filepath='src/heap-profile-table.h' line='71' column='1'/>
          </data-member>
        </class-decl>
      </member-type>
      <data-member access='private' static='yes'>
        <var-decl name='kFileExt' type-id='type-id-159' mangled-name='_ZN16HeapProfileTable8kFileExtE' visibility='default' filepath='src/heap-profile-table.h' line='55' column='1' elf-symbol-id='_ZN16HeapProfileTable8kFileExtE'/>
      </data-member>
      <data-member access='private' static='yes'>
        <var-decl name='kMaxStackDepth' type-id='type-id-144' mangled-name='_ZN16HeapProfileTable14kMaxStackDepthE' visibility='default' filepath='src/heap-profile-table.h' line='58' column='1' elf-symbol-id='_ZN16HeapProfileTable14kMaxStackDepthE'/>
      </data-member>
      <data-member access='private' layout-offset-in-bits='0'>
        <var-decl name='alloc_' type-id='type-id-225' visibility='default' filepath='src/heap-profile-table.h' line='325' column='1'/>
      </data-member>
      <data-member access='private' layout-offset-in-bits='64'>
        <var-decl name='dealloc_' type-id='type-id-226' visibility='default' filepath='src/heap-profile-table.h' line='326' column='1'/>
      </data-member>
      <data-member access='private' layout-offset-in-bits='128'>
        <var-decl name='total_' type-id='type-id-211' visibility='default' filepath='src/heap-profile-table.h' line='330' column='1'/>
      </data-member>
      <data-member access='private' layout-offset-in-bits='576'>
        <var-decl name='profile_mmap_' type-id='type-id-61' visibility='default' filepath='src/heap-profile-table.h' line='332' column='1'/>
      </data-member>
      <data-member access='private' layout-offset-in-bits='640'>
        <var-decl name='bucket_table_' type-id='type-id-243' visibility='default' filepath='src/heap-profile-table.h' line='338' column='1'/>
      </data-member>
      <data-member access='private' layout-offset-in-bits='704'>
        <var-decl name='num_buckets_' type-id='type-id-1' visibility='default' filepath='src/heap-profile-table.h' line='339' column='1'/>
      </data-member>
      <data-member access='private' layout-offset-in-bits='768'>
        <var-decl name='address_map_' type-id='type-id-244' visibility='default' filepath='src/heap-profile-table.h' line='342' column='1'/>
      </data-member>
      <member-function access='private' constructor='yes'>
        <function-decl name='HeapProfileTable' mangled-name='_ZN16HeapProfileTableC2EPFPvmEPFvS0_Eb' filepath='src/heap-profile-table.h' line='88' column='1' visibility='default' binding='global' size-in-bits='64' elf-symbol-id='_ZN16HeapProfileTableC2EPFPvmEPFvS0_Eb'>
          <parameter type-id='type-id-245' is-artificial='yes'/>
          <parameter type-id='type-id-225'/>
          <parameter type-id='type-id-226'/>
          <parameter type-id='type-id-61'/>
          <return type-id='type-id-60'/>
        </function-decl>
      </member-function>
      <member-function access='private' destructor='yes'>
        <function-decl name='~HeapProfileTable' mangled-name='_ZN16HeapProfileTableD1Ev' filepath='src/heap-profile-table.h' line='89' column='1' visibility='default' binding='global' size-in-bits='64' elf-symbol-id='_ZN16HeapProfileTableD1Ev'>
          <parameter type-id='type-id-245' is-artificial='yes'/>
          <parameter type-id='type-id-1' is-artificial='yes'/>
          <return type-id='type-id-60'/>
        </function-decl>
      </member-function>
      <member-function access='private' constructor='yes'>
        <function-decl name='HeapProfileTable' filepath='src/heap-profile-table.h' line='344' column='1' visibility='default' binding='global' size-in-bits='64'>
          <parameter type-id='type-id-245' is-artificial='yes'/>
          <parameter type-id='type-id-246'/>
          <return type-id='type-id-60'/>
        </function-decl>
      </member-function>
      <member-function access='private' static='yes'>
        <function-decl name='MapArgsAllocIterator' mangled-name='_ZN16HeapProfileTable20MapArgsAllocIteratorEPKvPNS_10AllocValueEPFvS1_RKNS_9AllocInfoEE' filepath='src/heap-profile-table.h' line='276' column='1' declared-inline='yes' visibility='default' binding='global' size-in-bits='64' elf-symbol-id='_ZN16HeapProfileTable20MapArgsAllocIteratorEPKvPNS_10AllocValueEPFvS1_RKNS_9AllocInfoEE'>
          <parameter type-id='type-id-58'/>
          <parameter type-id='type-id-228'/>
          <parameter type-id='type-id-236'/>
          <return type-id='type-id-60'/>
        </function-decl>
      </member-function>
      <member-function access='private' static='yes'>
        <function-decl name='AllocValueSize' mangled-name='_ZN16HeapProfileTable14AllocValueSizeERKNS_10AllocValueE' filepath='src/heap-profile-table.h' line='222' column='1' declared-inline='yes' visibility='default' binding='global' size-in-bits='64' elf-symbol-id='_ZN16HeapProfileTable14AllocValueSizeERKNS_10AllocValueE'>
          <parameter type-id='type-id-247' name='v' filepath='src/heap-profile-table.h' line='222' column='1'/>
          <return type-id='type-id-62'/>
        </function-decl>
      </member-function>
      <member-function access='private'>
        <function-decl name='ReleaseSnapshot' mangled-name='_ZN16HeapProfileTable15ReleaseSnapshotEPNS_8SnapshotE' filepath='src/heap-profile-table.cc' line='485' column='1' visibility='default' binding='global' size-in-bits='64' elf-symbol-id='_ZN16HeapProfileTable15ReleaseSnapshotEPNS_8SnapshotE'>
          <parameter type-id='type-id-248' name='this' is-artificial='yes'/>
          <parameter type-id='type-id-224' name='s' filepath='src/heap-profile-table.cc' line='485' column='1'/>
          <return type-id='type-id-60'/>
        </function-decl>
      </member-function>
      <member-function access='private' static='yes'>
        <function-decl name='UnparseBucket' mangled-name='_ZN16HeapProfileTable13UnparseBucketERK17HeapProfileBucketPciiPKcP16HeapProfileStats' filepath='src/heap-profile-table.cc' line='280' column='1' visibility='default' binding='global' size-in-bits='64' elf-symbol-id='_ZN16HeapProfileTable13UnparseBucketERK17HeapProfileBucketPciiPKcP16HeapProfileStats'>
          <parameter type-id='type-id-249' name='b' filepath='src/heap-profile-table.cc' line='280' column='1'/>
          <parameter type-id='type-id-118' name='buf' filepath='src/heap-profile-table.cc' line='281' column='1'/>
          <parameter type-id='type-id-1' name='buflen' filepath='src/heap-profile-table.cc' line='281' column='1'/>
          <parameter type-id='type-id-1' name='bufsize' filepath='src/heap-profile-table.cc' line='281' column='1'/>
          <parameter type-id='type-id-57' name='extra' filepath='src/heap-profile-table.cc' line='282' column='1'/>
          <parameter type-id='type-id-215' name='profile_stats' filepath='src/heap-profile-table.cc' line='283' column='1'/>
          <return type-id='type-id-1'/>
        </function-decl>
      </member-function>
      <member-function access='private' static='yes'>
        <function-decl name='DumpNonLiveIterator' mangled-name='_ZN16HeapProfileTable19DumpNonLiveIteratorEPKvPNS_10AllocValueERKNS_8DumpArgsE' filepath='src/heap-profile-table.cc' line='397' column='1' declared-inline='yes' visibility='default' binding='global' size-in-bits='64' elf-symbol-id='_ZN16HeapProfileTable19DumpNonLiveIteratorEPKvPNS_10AllocValueERKNS_8DumpArgsE'>
          <parameter type-id='type-id-58' name='ptr' filepath='src/heap-profile-table.cc' line='397' column='1'/>
          <parameter type-id='type-id-228' name='v' filepath='src/heap-profile-table.cc' line='397' column='1'/>
          <parameter type-id='type-id-250' name='args' filepath='src/heap-profile-table.cc' line='398' column='1'/>
          <return type-id='type-id-60'/>
        </function-decl>
      </member-function>
      <member-function access='private' static='yes'>
        <function-decl name='DumpBucketIterator' mangled-name='_ZN16HeapProfileTable18DumpBucketIteratorEPK17HeapProfileBucketPNS_10BufferArgsE' filepath='src/heap-profile-table.cc' line='390' column='1' declared-inline='yes' visibility='default' binding='global' size-in-bits='64' elf-symbol-id='_ZN16HeapProfileTable18DumpBucketIteratorEPK17HeapProfileBucketPNS_10BufferArgsE'>
          <parameter type-id='type-id-251'/>
          <parameter type-id='type-id-200'/>
          <return type-id='type-id-60'/>
        </function-decl>
      </member-function>
      <member-function access='private'>
        <function-decl name='GetBucket' mangled-name='_ZN16HeapProfileTable9GetBucketEiPKPKv' filepath='src/heap-profile-table.cc' line='167' column='1' visibility='default' binding='global' size-in-bits='64' elf-symbol-id='_ZN16HeapProfileTable9GetBucketEiPKPKv'>
          <parameter type-id='type-id-248' name='this' is-artificial='yes'/>
          <parameter type-id='type-id-1' name='depth' filepath='src/heap-profile-table.cc' line='167' column='1'/>
          <parameter type-id='type-id-205' name='key' filepath='src/heap-profile-table.cc' line='168' column='1'/>
          <return type-id='type-id-219'/>
        </function-decl>
      </member-function>
      <member-function access='private' static='yes'>
        <function-decl name='GetCallerStackTrace' mangled-name='_ZN16HeapProfileTable19GetCallerStackTraceEiPPv' filepath='src/heap-profile-table.cc' line='204' column='1' visibility='default' binding='global' size-in-bits='64' elf-symbol-id='_ZN16HeapProfileTable19GetCallerStackTraceEiPPv'>
          <parameter type-id='type-id-1'/>
          <parameter type-id='type-id-151'/>
          <return type-id='type-id-1'/>
        </function-decl>
      </member-function>
      <member-function access='private'>
        <function-decl name='MakeSortedBucketList' mangled-name='_ZNK16HeapProfileTable20MakeSortedBucketListEv' filepath='src/heap-profile-table.cc' line='313' column='1' visibility='default' binding='global' size-in-bits='64' elf-symbol-id='_ZNK16HeapProfileTable20MakeSortedBucketListEv'>
          <parameter type-id='type-id-252' name='this' is-artificial='yes'/>
          <return type-id='type-id-243'/>
        </function-decl>
      </member-function>
      <member-function access='private'>
        <function-decl name='IterateOrderedAllocContexts' mangled-name='_ZNK16HeapProfileTable27IterateOrderedAllocContextsEPFvRKNS_16AllocContextInfoEE' filepath='src/heap-profile-table.cc' line='329' column='1' visibility='default' binding='global' size-in-bits='64' elf-symbol-id='_ZNK16HeapProfileTable27IterateOrderedAllocContextsEPFvRKNS_16AllocContextInfoEE'>
          <parameter type-id='type-id-252' name='this' is-artificial='yes'/>
          <parameter type-id='type-id-238' name='callback' filepath='src/heap-profile-table.cc' line='330' column='1'/>
          <return type-id='type-id-60'/>
        </function-decl>
      </member-function>
      <member-function access='private'>
        <function-decl name='FillOrderedProfile' mangled-name='_ZNK16HeapProfileTable18FillOrderedProfileEPci' filepath='src/heap-profile-table.cc' line='342' column='1' visibility='default' binding='global' size-in-bits='64' elf-symbol-id='_ZNK16HeapProfileTable18FillOrderedProfileEPci'>
          <parameter type-id='type-id-252' name='this' is-artificial='yes'/>
          <parameter type-id='type-id-118' name='buf' filepath='src/heap-profile-table.cc' line='342' column='1'/>
          <parameter type-id='type-id-1' name='size' filepath='src/heap-profile-table.cc' line='342' column='1'/>
          <return type-id='type-id-1'/>
        </function-decl>
      </member-function>
      <member-function access='private'>
        <function-decl name='MarkAsIgnored' mangled-name='_ZN16HeapProfileTable13MarkAsIgnoredEPKv' filepath='src/heap-profile-table.cc' line='272' column='1' visibility='default' binding='global' size-in-bits='64' elf-symbol-id='_ZN16HeapProfileTable13MarkAsIgnoredEPKv'>
          <parameter type-id='type-id-248' name='this' is-artificial='yes'/>
          <parameter type-id='type-id-58' name='ptr' filepath='src/heap-profile-table.cc' line='272' column='1'/>
          <return type-id='type-id-60'/>
        </function-decl>
      </member-function>
      <member-function access='private' static='yes'>
        <function-decl name='WriteProfile' mangled-name='_ZN16HeapProfileTable12WriteProfileEPKcRK17HeapProfileBucketP10AddressMapINS_10AllocValueEE' filepath='src/heap-profile-table.cc' line='432' column='1' visibility='default' binding='global' size-in-bits='64' elf-symbol-id='_ZN16HeapProfileTable12WriteProfileEPKcRK17HeapProfileBucketP10AddressMapINS_10AllocValueEE'>
          <parameter type-id='type-id-57' name='file_name' filepath='src/heap-profile-table.cc' line='432' column='1'/>
          <parameter type-id='type-id-249' name='total' filepath='src/heap-profile-table.cc' line='433' column='1'/>
          <parameter type-id='type-id-244' name='allocations' filepath='src/heap-profile-table.cc' line='434' column='1'/>
          <return type-id='type-id-61'/>
        </function-decl>
      </member-function>
      <member-function access='private'>
        <function-decl name='FindInsideAlloc' mangled-name='_ZNK16HeapProfileTable15FindInsideAllocEPKvmPS1_Pm' filepath='src/heap-profile-table.cc' line='253' column='1' visibility='default' binding='global' size-in-bits='64' elf-symbol-id='_ZNK16HeapProfileTable15FindInsideAllocEPKvmPS1_Pm'>
          <parameter type-id='type-id-252' name='this' is-artificial='yes'/>
          <parameter type-id='type-id-58' name='ptr' filepath='src/heap-profile-table.cc' line='253' column='1'/>
          <parameter type-id='type-id-62' name='max_size' filepath='src/heap-profile-table.cc' line='254' column='1'/>
          <parameter type-id='type-id-151' name='object_ptr' filepath='src/heap-profile-table.cc' line='255' column='1'/>
          <parameter type-id='type-id-253' name='object_size' filepath='src/heap-profile-table.cc' line='256' column='1'/>
          <return type-id='type-id-61'/>
        </function-decl>
      </member-function>
      <member-function access='private' static='yes'>
        <function-decl name='AddToSnapshot' mangled-name='_ZN16HeapProfileTable13AddToSnapshotEPKvPNS_10AllocValueEPNS_8SnapshotE' filepath='src/heap-profile-table.cc' line='491' column='1' visibility='default' binding='global' size-in-bits='64' elf-symbol-id='_ZN16HeapProfileTable13AddToSnapshotEPKvPNS_10AllocValueEPNS_8SnapshotE'>
          <parameter type-id='type-id-58'/>
          <parameter type-id='type-id-228'/>
          <parameter type-id='type-id-224'/>
          <return type-id='type-id-60'/>
        </function-decl>
      </member-function>
      <member-function access='private'>
        <function-decl name='TakeSnapshot' mangled-name='_ZN16HeapProfileTable12TakeSnapshotEv' filepath='src/heap-profile-table.cc' line='479' column='1' visibility='default' binding='global' size-in-bits='64' elf-symbol-id='_ZN16HeapProfileTable12TakeSnapshotEv'>
          <parameter type-id='type-id-248' name='this' is-artificial='yes'/>
          <return type-id='type-id-224'/>
        </function-decl>
      </member-function>
      <member-function access='private'>
        <function-decl name='RecordAlloc' mangled-name='_ZN16HeapProfileTable11RecordAllocEPKvmiPKS1_' filepath='src/heap-profile-table.cc' line='210' column='1' visibility='default' binding='global' size-in-bits='64' elf-symbol-id='_ZN16HeapProfileTable11RecordAllocEPKvmiPKS1_'>
          <parameter type-id='type-id-248' name='this' is-artificial='yes'/>
          <parameter type-id='type-id-58' name='ptr' filepath='src/heap-profile-table.cc' line='211' column='1'/>
          <parameter type-id='type-id-62' name='bytes' filepath='src/heap-profile-table.cc' line='211' column='1'/>
          <parameter type-id='type-id-1' name='stack_depth' filepath='src/heap-profile-table.cc' line='211' column='1'/>
          <parameter type-id='type-id-205' name='call_stack' filepath='src/heap-profile-table.cc' line='212' column='1'/>
          <return type-id='type-id-60'/>
        </function-decl>
      </member-function>
      <member-function access='private'>
        <function-decl name='RecordFree' mangled-name='_ZN16HeapProfileTable10RecordFreeEPKv' filepath='src/heap-profile-table.cc' line='225' column='1' visibility='default' binding='global' size-in-bits='64' elf-symbol-id='_ZN16HeapProfileTable10RecordFreeEPKv'>
          <parameter type-id='type-id-248' name='this' is-artificial='yes'/>
          <parameter type-id='type-id-58' name='ptr' filepath='src/heap-profile-table.cc' line='272' column='1'/>
          <return type-id='type-id-60'/>
        </function-decl>
      </member-function>
      <member-function access='private' static='yes'>
        <function-decl name='AddIfNonLive' mangled-name='_ZN16HeapProfileTable12AddIfNonLiveEPKvPNS_10AllocValueEPNS_14AddNonLiveArgsE' filepath='src/heap-profile-table.cc' line='419' column='1' visibility='default' binding='global' size-in-bits='64' elf-symbol-id='_ZN16HeapProfileTable12AddIfNonLiveEPKvPNS_10AllocValueEPNS_14AddNonLiveArgsE'>
          <parameter type-id='type-id-58'/>
          <parameter type-id='type-id-228'/>
          <parameter type-id='type-id-254'/>
          <return type-id='type-id-60'/>
        </function-decl>
      </member-function>
      <member-function access='private'>
        <function-decl name='NonLiveSnapshot' mangled-name='_ZN16HeapProfileTable15NonLiveSnapshotEPNS_8SnapshotE' filepath='src/heap-profile-table.cc' line='496' column='1' visibility='default' binding='global' size-in-bits='64' elf-symbol-id='_ZN16HeapProfileTable15NonLiveSnapshotEPNS_8SnapshotE'>
          <parameter type-id='type-id-248' name='this' is-artificial='yes'/>
          <parameter type-id='type-id-224' name='base' filepath='src/heap-profile-table.cc' line='497' column='1'/>
          <return type-id='type-id-224'/>
        </function-decl>
      </member-function>
      <member-function access='private'>
        <function-decl name='MarkAsLive' mangled-name='_ZN16HeapProfileTable10MarkAsLiveEPKv' filepath='src/heap-profile-table.cc' line='263' column='1' visibility='default' binding='global' size-in-bits='64' elf-symbol-id='_ZN16HeapProfileTable10MarkAsLiveEPKv'>
          <parameter type-id='type-id-248' name='this' is-artificial='yes'/>
          <parameter type-id='type-id-58' name='ptr' filepath='src/heap-profile-table.cc' line='263' column='1'/>
          <return type-id='type-id-61'/>
        </function-decl>
      </member-function>
      <member-function access='private' static='yes'>
        <function-decl name='CleanupOldProfiles' mangled-name='_ZN16HeapProfileTable18CleanupOldProfilesEPKc' filepath='src/heap-profile-table.cc' line='455' column='1' visibility='default' binding='global' size-in-bits='64' elf-symbol-id='_ZN16HeapProfileTable18CleanupOldProfilesEPKc'>
          <parameter type-id='type-id-57'/>
          <return type-id='type-id-60'/>
        </function-decl>
      </member-function>
      <member-function access='private'>
        <function-decl name='FindAllocDetails' mangled-name='_ZNK16HeapProfileTable16FindAllocDetailsEPKvPNS_9AllocInfoE' filepath='src/heap-profile-table.cc' line='242' column='1' visibility='default' binding='global' size-in-bits='64' elf-symbol-id='_ZNK16HeapProfileTable16FindAllocDetailsEPKvPNS_9AllocInfoE'>
          <parameter type-id='type-id-252' name='this' is-artificial='yes'/>
          <parameter type-id='type-id-58' name='ptr' filepath='src/heap-profile-table.cc' line='242' column='1'/>
          <parameter type-id='type-id-255' name='info' filepath='src/heap-profile-table.cc' line='243' column='1'/>
          <return type-id='type-id-61'/>
        </function-decl>
      </member-function>
      <member-function access='private'>
        <function-decl name='FindAlloc' mangled-name='_ZNK16HeapProfileTable9FindAllocEPKvPm' filepath='src/heap-profile-table.cc' line='236' column='1' visibility='default' binding='global' size-in-bits='64' elf-symbol-id='_ZNK16HeapProfileTable9FindAllocEPKvPm'>
          <parameter type-id='type-id-252' name='this' is-artificial='yes'/>
          <parameter type-id='type-id-58' name='ptr' filepath='src/heap-profile-table.cc' line='236' column='1'/>
          <parameter type-id='type-id-253' name='object_size' filepath='src/heap-profile-table.cc' line='236' column='1'/>
          <return type-id='type-id-61'/>
        </function-decl>
      </member-function>
    </class-decl>
    <class-decl name='LowLevelAlloc' size-in-bits='8' visibility='default' filepath='src/base/low_level_alloc.h' line='44' column='1' id='type-id-86'>
      <member-type access='private'>
        <class-decl name='Arena' size-in-bits='2560' is-struct='yes' visibility='default' filepath='src/base/low_level_alloc.cc' line='184' column='1' id='type-id-84'>
          <data-member access='public' layout-offset-in-bits='0'>
            <var-decl name='mu' type-id='type-id-87' visibility='default' filepath='src/base/low_level_alloc.cc' line='189' column='1'/>
          </data-member>
          <data-member access='public' layout-offset-in-bits='64'>
            <var-decl name='freelist' type-id='type-id-80' visibility='default' filepath='src/base/low_level_alloc.cc' line='191' column='1'/>
          </data-member>
          <data-member access='public' layout-offset-in-bits='2304'>
            <var-decl name='allocation_count' type-id='type-id-74' visibility='default' filepath='src/base/low_level_alloc.cc' line='192' column='1'/>
          </data-member>
          <data-member access='public' layout-offset-in-bits='2336'>
            <var-decl name='flags' type-id='type-id-74' visibility='default' filepath='src/base/low_level_alloc.cc' line='193' column='1'/>
          </data-member>
          <data-member access='public' layout-offset-in-bits='2368'>
            <var-decl name='pagesize' type-id='type-id-62' visibility='default' filepath='src/base/low_level_alloc.cc' line='194' column='1'/>
          </data-member>
          <data-member access='public' layout-offset-in-bits='2432'>
            <var-decl name='roundup' type-id='type-id-62' visibility='default' filepath='src/base/low_level_alloc.cc' line='195' column='1'/>
          </data-member>
          <data-member access='public' layout-offset-in-bits='2496'>
            <var-decl name='min_size' type-id='type-id-62' visibility='default' filepath='src/base/low_level_alloc.cc' line='197' column='1'/>
          </data-member>
          <member-function access='public' constructor='yes'>
            <function-decl name='Arena' filepath='src/base/low_level_alloc.cc' line='185' column='1' visibility='default' binding='global' size-in-bits='64'>
              <parameter type-id='type-id-83' is-artificial='yes'/>
              <return type-id='type-id-60'/>
            </function-decl>
          </member-function>
          <member-function access='public' constructor='yes'>
            <function-decl name='Arena' filepath='src/base/low_level_alloc.cc' line='186' column='1' visibility='default' binding='global' size-in-bits='64'>
              <parameter type-id='type-id-83' is-artificial='yes'/>
              <parameter type-id='type-id-1'/>
              <return type-id='type-id-60'/>
            </function-decl>
          </member-function>
        </class-decl>
      </member-type>
      <member-function access='private' static='yes'>
        <function-decl name='DefaultArena' mangled-name='_ZN13LowLevelAlloc12DefaultArenaEv' filepath='src/base/low_level_alloc.cc' line='521' column='1' visibility='default' binding='global' size-in-bits='64' elf-symbol-id='_ZN13LowLevelAlloc12DefaultArenaEv'>
          <return type-id='type-id-83'/>
        </function-decl>
      </member-function>
      <member-function access='private' static='yes'>
        <function-decl name='AllocWithArena' mangled-name='_ZN13LowLevelAlloc14AllocWithArenaEmPNS_5ArenaE' filepath='src/base/low_level_alloc.cc' line='510' column='1' visibility='default' binding='global' size-in-bits='64' elf-symbol-id='_ZN13LowLevelAlloc14AllocWithArenaEmPNS_5ArenaE'>
          <parameter type-id='type-id-62'/>
          <parameter type-id='type-id-83'/>
          <return type-id='type-id-58'/>
        </function-decl>
      </member-function>
      <member-function access='private' static='yes'>
        <function-decl name='NewArena' mangled-name='_ZN13LowLevelAlloc8NewArenaEiPNS_5ArenaE' filepath='src/base/low_level_alloc.cc' line='296' column='1' visibility='default' binding='global' size-in-bits='64' elf-symbol-id='_ZN13LowLevelAlloc8NewArenaEiPNS_5ArenaE'>
          <parameter type-id='type-id-74'/>
          <parameter type-id='type-id-83'/>
          <return type-id='type-id-83'/>
        </function-decl>
      </member-function>
      <member-function access='private' static='yes'>
        <function-decl name='Alloc' mangled-name='_ZN13LowLevelAlloc5AllocEm' filepath='src/base/low_level_alloc.cc' line='500' column='1' visibility='default' binding='global' size-in-bits='64' elf-symbol-id='_ZN13LowLevelAlloc5AllocEm'>
          <parameter type-id='type-id-62'/>
          <return type-id='type-id-58'/>
        </function-decl>
      </member-function>
      <member-function access='private' static='yes'>
        <function-decl name='Free' mangled-name='_ZN13LowLevelAlloc4FreeEPv' filepath='src/base/low_level_alloc.cc' line='415' column='1' visibility='default' binding='global' size-in-bits='64' elf-symbol-id='_ZN13LowLevelAlloc4FreeEPv'>
          <parameter type-id='type-id-58'/>
          <return type-id='type-id-60'/>
        </function-decl>
      </member-function>
      <member-function access='private' static='yes'>
        <function-decl name='DeleteArena' mangled-name='_ZN13LowLevelAlloc11DeleteArenaEPNS_5ArenaE' filepath='src/base/low_level_alloc.cc' line='315' column='1' visibility='default' binding='global' size-in-bits='64' elf-symbol-id='_ZN13LowLevelAlloc11DeleteArenaEPNS_5ArenaE'>
          <parameter type-id='type-id-83'/>
          <return type-id='type-id-61'/>
        </function-decl>
      </member-function>
    </class-decl>
    <class-decl name='AddressMap&lt;HeapProfileTable::AllocValue&gt;' size-in-bits='320' visibility='default' filepath='src/addressmap-inl.h' line='104' column='1' id='type-id-235'>
      <member-type access='private'>
        <class-decl name='Cluster' is-struct='yes' visibility='default' is-declaration-only='yes' id='type-id-256'/>
      </member-type>
      <member-type access='private'>
        <class-decl name='Entry' is-struct='yes' visibility='default' is-declaration-only='yes' id='type-id-257'/>
      </member-type>
      <member-type access='private'>
        <class-decl name='Object' is-struct='yes' visibility='default' is-declaration-only='yes' id='type-id-258'/>
      </member-type>
      <data-member access='private' static='yes'>
        <var-decl name='kBlockBits' type-id='type-id-144' visibility='default' filepath='src/addressmap-inl.h' line='159' column='1'/>
      </data-member>
      <data-member access='private' static='yes'>
        <var-decl name='kBlockSize' type-id='type-id-144' visibility='default' filepath='src/addressmap-inl.h' line='160' column='1'/>
      </data-member>
      <data-member access='private' static='yes'>
        <var-decl name='kClusterBits' type-id='type-id-144' visibility='default' filepath='src/addressmap-inl.h' line='172' column='1'/>
      </data-member>
      <data-member access='private' static='yes'>
        <var-decl name='kClusterSize' type-id='type-id-259' visibility='default' filepath='src/addressmap-inl.h' line='173' column='1'/>
      </data-member>
      <data-member access='private' static='yes'>
        <var-decl name='kClusterBlocks' type-id='type-id-144' visibility='default' filepath='src/addressmap-inl.h' line='174' column='1'/>
      </data-member>
      <data-member access='private' static='yes'>
        <var-decl name='kHashBits' type-id='type-id-144' visibility='default' filepath='src/addressmap-inl.h' line='187' column='1'/>
      </data-member>
      <data-member access='private' static='yes'>
        <var-decl name='kHashSize' type-id='type-id-144' visibility='default' filepath='src/addressmap-inl.h' line='188' column='1'/>
      </data-member>
      <data-member access='private' static='yes'>
        <var-decl name='ALLOC_COUNT' type-id='type-id-144' visibility='default' filepath='src/addressmap-inl.h' line='191' column='1'/>
      </data-member>
      <data-member access='private' layout-offset-in-bits='0'>
        <var-decl name='hashtable_' type-id='type-id-260' visibility='default' filepath='src/addressmap-inl.h' line='193' column='1'/>
      </data-member>
      <data-member access='private' layout-offset-in-bits='64'>
        <var-decl name='free_' type-id='type-id-261' visibility='default' filepath='src/addressmap-inl.h' line='194' column='1'/>
      </data-member>
      <data-member access='private' static='yes'>
        <var-decl name='kHashMultiplier' type-id='type-id-262' visibility='default' filepath='src/addressmap-inl.h' line='202' column='1'/>
      </data-member>
      <data-member access='private' layout-offset-in-bits='128'>
        <var-decl name='alloc_' type-id='type-id-263' visibility='default' filepath='src/addressmap-inl.h' line='251' column='1'/>
      </data-member>
      <data-member access='private' layout-offset-in-bits='192'>
        <var-decl name='dealloc_' type-id='type-id-234' visibility='default' filepath='src/addressmap-inl.h' line='252' column='1'/>
      </data-member>
      <data-member access='private' layout-offset-in-bits='256'>
        <var-decl name='allocated_' type-id='type-id-264' visibility='default' filepath='src/addressmap-inl.h' line='253' column='1'/>
      </data-member>
      <member-function access='private'>
        <function-decl name='AddressMap' mangled-name='_ZN10AddressMapIN16HeapProfileTable10AllocValueEEC2EPFPvmEPFvS3_E' filepath='src/addressmap-inl.h' line='271' column='1' visibility='default' binding='global' size-in-bits='64' elf-symbol-id='_ZN10AddressMapIN16HeapProfileTable10AllocValueEEC2EPFPvmEPFvS3_E'>
          <parameter type-id='type-id-265' is-artificial='yes'/>
          <parameter type-id='type-id-263'/>
          <parameter type-id='type-id-234'/>
          <return type-id='type-id-60'/>
        </function-decl>
      </member-function>
      <member-function access='private' destructor='yes'>
        <function-decl name='~AddressMap' filepath='src/addressmap-inl.h' line='280' column='1' visibility='default' binding='global' size-in-bits='64'>
          <parameter type-id='type-id-265' is-artificial='yes'/>
          <parameter type-id='type-id-1' is-artificial='yes'/>
          <return type-id='type-id-60'/>
        </function-decl>
      </member-function>
      <member-function access='private'>
        <function-decl name='Iterate&lt;void (*)(const void*, const HeapProfileTable::AllocInfo&amp;)&gt;' filepath='src/addressmap-inl.h' line='407' column='1' visibility='default' binding='global' size-in-bits='64'>
          <parameter type-id='type-id-266' is-artificial='yes'/>
          <parameter type-id='type-id-267'/>
          <parameter type-id='type-id-237'/>
          <return type-id='type-id-60'/>
        </function-decl>
      </member-function>
      <member-function access='private'>
        <function-decl name='Iterate&lt;char*&gt;' filepath='src/addressmap-inl.h' line='407' column='1' visibility='default' binding='global' size-in-bits='64'>
          <parameter type-id='type-id-266' is-artificial='yes'/>
          <parameter type-id='type-id-268'/>
          <parameter type-id='type-id-118'/>
          <return type-id='type-id-60'/>
        </function-decl>
      </member-function>
      <member-function access='private'>
        <function-decl name='New&lt;AddressMap&lt;HeapProfileTable::AllocValue&gt;::Cluster*&gt;' filepath='src/addressmap-inl.h' line='258' column='1' visibility='default' binding='global' size-in-bits='64'>
          <parameter type-id='type-id-265' is-artificial='yes'/>
          <parameter type-id='type-id-1'/>
          <return type-id='type-id-260'/>
        </function-decl>
      </member-function>
      <member-function access='private'>
        <function-decl name='Iterate&lt;HeapProfileTable::AddNonLiveArgs*&gt;' filepath='src/addressmap-inl.h' line='407' column='1' visibility='default' binding='global' size-in-bits='64'>
          <parameter type-id='type-id-266' is-artificial='yes'/>
          <parameter type-id='type-id-269'/>
          <parameter type-id='type-id-254'/>
          <return type-id='type-id-60'/>
        </function-decl>
      </member-function>
      <member-function access='private'>
        <function-decl name='Iterate&lt;HeapProfileTable::Snapshot*&gt;' filepath='src/addressmap-inl.h' line='407' column='1' visibility='default' binding='global' size-in-bits='64'>
          <parameter type-id='type-id-266' is-artificial='yes'/>
          <parameter type-id='type-id-270'/>
          <parameter type-id='type-id-224'/>
          <return type-id='type-id-60'/>
        </function-decl>
      </member-function>
      <member-function access='private'>
        <function-decl name='New&lt;AddressMap&lt;HeapProfileTable::AllocValue&gt;::Cluster&gt;' filepath='src/addressmap-inl.h' line='258' column='1' visibility='default' binding='global' size-in-bits='64'>
          <parameter type-id='type-id-265' is-artificial='yes'/>
          <parameter type-id='type-id-1'/>
          <return type-id='type-id-271'/>
        </function-decl>
      </member-function>
      <member-function access='private'>
        <function-decl name='New&lt;AddressMap&lt;HeapProfileTable::AllocValue&gt;::Entry&gt;' filepath='src/addressmap-inl.h' line='258' column='1' visibility='default' binding='global' size-in-bits='64'>
          <parameter type-id='type-id-265' is-artificial='yes'/>
          <parameter type-id='type-id-1'/>
          <return type-id='type-id-261'/>
        </function-decl>
      </member-function>
      <member-function access='private'>
        <function-decl name='Iterate&lt;const HeapProfileTable::DumpArgs&amp;&gt;' filepath='src/addressmap-inl.h' line='407' column='1' visibility='default' binding='global' size-in-bits='64'>
          <parameter type-id='type-id-266' is-artificial='yes'/>
          <parameter type-id='type-id-272'/>
          <parameter type-id='type-id-273'/>
          <return type-id='type-id-60'/>
        </function-decl>
      </member-function>
      <member-function access='private'>
        <function-decl name='Iterate&lt;HeapProfileTable::Snapshot::ReportState*&gt;' filepath='src/addressmap-inl.h' line='407' column='1' visibility='default' binding='global' size-in-bits='64'>
          <parameter type-id='type-id-266' is-artificial='yes'/>
          <parameter type-id='type-id-274'/>
          <parameter type-id='type-id-230'/>
          <return type-id='type-id-60'/>
        </function-decl>
      </member-function>
      <member-function access='private'>
        <function-decl name='Insert' mangled-name='_ZN10AddressMapIN16HeapProfileTable10AllocValueEE6InsertEPKvS1_' filepath='src/addressmap-inl.h' line='309' column='1' visibility='default' binding='global' size-in-bits='64' elf-symbol-id='_ZN10AddressMapIN16HeapProfileTable10AllocValueEE6InsertEPKvS1_'>
          <parameter type-id='type-id-275' name='this' is-artificial='yes'/>
          <parameter type-id='type-id-58' name='key' filepath='src/addressmap-inl.h' line='309' column='1'/>
          <parameter type-id='type-id-210' name='value' filepath='src/addressmap-inl.h' line='309' column='1'/>
          <return type-id='type-id-60'/>
        </function-decl>
      </member-function>
    </class-decl>
    <class-decl name='HeapLeakChecker' size-in-bits='448' visibility='default' filepath='src/gperftools/heap-checker.h' line='78' column='1' id='type-id-276'>
      <member-type access='private'>
        <class-decl name='Disabler' size-in-bits='8' visibility='default' filepath='./src/gperftools/heap-checker.h' line='175' column='1' id='type-id-277'>
          <member-function access='private' constructor='yes'>
            <function-decl name='Disabler' mangled-name='_ZN15HeapLeakChecker8DisablerC1Ev' filepath='./src/gperftools/heap-checker.h' line='177' column='1' visibility='default' binding='global' size-in-bits='64' elf-symbol-id='_ZN15HeapLeakChecker8DisablerC1Ev'>
              <parameter type-id='type-id-278' is-artificial='yes'/>
              <return type-id='type-id-60'/>
            </function-decl>
          </member-function>
          <member-function access='private' destructor='yes'>
            <function-decl name='~Disabler' mangled-name='_ZN15HeapLeakChecker8DisablerD1Ev' filepath='./src/gperftools/heap-checker.h' line='178' column='1' visibility='default' binding='global' size-in-bits='64' elf-symbol-id='_ZN15HeapLeakChecker8DisablerD1Ev'>
              <parameter type-id='type-id-278' is-artificial='yes'/>
              <parameter type-id='type-id-1' is-artificial='yes'/>
              <return type-id='type-id-60'/>
            </function-decl>
          </member-function>
          <member-function access='private' constructor='yes'>
            <function-decl name='Disabler' filepath='./src/gperftools/heap-checker.h' line='180' column='1' visibility='default' binding='global' size-in-bits='64'>
              <parameter type-id='type-id-278' is-artificial='yes'/>
              <parameter type-id='type-id-279'/>
              <return type-id='type-id-60'/>
            </function-decl>
          </member-function>
        </class-decl>
      </member-type>
      <member-type access='private'>
        <enum-decl name='ShouldSymbolize' filepath='./src/gperftools/heap-checker.h' line='225' column='1' id='type-id-280'>
          <underlying-type type-id='type-id-89'/>
          <enumerator name='SYMBOLIZE' value='0'/>
          <enumerator name='DO_NOT_SYMBOLIZE' value='1'/>
        </enum-decl>
      </member-type>
      <member-type access='private'>
        <enum-decl name='ProcMapsTask' filepath='./src/gperftools/heap-checker.h' line='295' column='1' id='type-id-281'>
          <underlying-type type-id='type-id-89'/>
          <enumerator name='RECORD_GLOBAL_DATA' value='0'/>
          <enumerator name='DISABLE_LIBRARY_ALLOCS' value='1'/>
        </enum-decl>
      </member-type>
      <member-type access='private'>
        <enum-decl name='ProcMapsResult' filepath='./src/gperftools/heap-checker.h' line='301' column='1' id='type-id-282'>
          <underlying-type type-id='type-id-89'/>
          <enumerator name='PROC_MAPS_USED' value='0'/>
          <enumerator name='CANT_OPEN_PROC_MAPS' value='1'/>
          <enumerator name='NO_SHARED_LIBS_IN_PROC_MAPS' value='2'/>
        </enum-decl>
      </member-type>
      <member-type access='private'>
        <class-decl name='RangeValue' size-in-bits='128' is-struct='yes' visibility='default' filepath='src/heap-checker.cc' line='404' column='1' id='type-id-283'>
          <data-member access='public' layout-offset-in-bits='0'>
            <var-decl name='start_address' type-id='type-id-156' visibility='default' filepath='src/heap-checker.cc' line='405' column='1'/>
          </data-member>
          <data-member access='public' layout-offset-in-bits='64'>
            <var-decl name='max_depth' type-id='type-id-1' visibility='default' filepath='src/heap-checker.cc' line='406' column='1'/>
          </data-member>
        </class-decl>
      </member-type>
      <member-type access='private'>
        <class-decl name='Allocator' size-in-bits='8' is-struct='yes' visibility='default' filepath='src/heap-checker.cc' line='292' column='1' id='type-id-284'>
          <data-member access='private' static='yes'>
            <var-decl name='arena_' type-id='type-id-83' mangled-name='_ZN15HeapLeakChecker9Allocator6arena_E' visibility='default' filepath='src/heap-checker.cc' line='333' column='1' elf-symbol-id='_ZN15HeapLeakChecker9Allocator6arena_E'/>
          </data-member>
          <data-member access='private' static='yes'>
            <var-decl name='alloc_count_' type-id='type-id-1' mangled-name='_ZN15HeapLeakChecker9Allocator12alloc_count_E' visibility='default' filepath='src/heap-checker.cc' line='334' column='1' elf-symbol-id='_ZN15HeapLeakChecker9Allocator12alloc_count_E'/>
          </data-member>
          <member-function access='public' static='yes'>
            <function-decl name='DeleteAndNull&lt;DisabledRangeMap&gt;' filepath='src/heap-checker.cc' line='324' column='1' visibility='default' binding='global' size-in-bits='64'>
              <parameter type-id='type-id-285'/>
              <return type-id='type-id-60'/>
            </function-decl>
          </member-function>
          <member-function access='public' static='yes'>
            <function-decl name='DeleteAndNull&lt;GlobalRegionCallerRangeMap&gt;' filepath='src/heap-checker.cc' line='324' column='1' visibility='default' binding='global' size-in-bits='64'>
              <parameter type-id='type-id-286'/>
              <return type-id='type-id-60'/>
            </function-decl>
          </member-function>
          <member-function access='public' static='yes'>
            <function-decl name='DeleteAndNull&lt;HeapProfileTable&gt;' filepath='src/heap-checker.cc' line='324' column='1' visibility='default' binding='global' size-in-bits='64'>
              <parameter type-id='type-id-287'/>
              <return type-id='type-id-60'/>
            </function-decl>
          </member-function>
          <member-function access='public' static='yes'>
            <function-decl name='DeleteAndNullIfNot&lt;DisabledRangeMap&gt;' filepath='src/heap-checker.cc' line='329' column='1' visibility='default' binding='global' size-in-bits='64'>
              <parameter type-id='type-id-285'/>
              <return type-id='type-id-60'/>
            </function-decl>
          </member-function>
          <member-function access='public' static='yes'>
            <function-decl name='DeleteAndNull&lt;LibraryLiveObjectsStacks&gt;' filepath='src/heap-checker.cc' line='324' column='1' visibility='default' binding='global' size-in-bits='64'>
              <parameter type-id='type-id-288'/>
              <return type-id='type-id-60'/>
            </function-decl>
          </member-function>
          <member-function access='public' static='yes'>
            <function-decl name='DeleteAndNull&lt;LiveObjectsStack&gt;' filepath='src/heap-checker.cc' line='324' column='1' visibility='default' binding='global' size-in-bits='64'>
              <parameter type-id='type-id-289'/>
              <return type-id='type-id-60'/>
            </function-decl>
          </member-function>
          <member-function access='public' static='yes'>
            <function-decl name='DeleteAndNull&lt;StackTopSet&gt;' filepath='src/heap-checker.cc' line='324' column='1' visibility='default' binding='global' size-in-bits='64'>
              <parameter type-id='type-id-290'/>
              <return type-id='type-id-60'/>
            </function-decl>
          </member-function>
          <member-function access='public' static='yes'>
            <function-decl name='DeleteAndNullIfNot&lt;GlobalRegionCallerRangeMap&gt;' filepath='src/heap-checker.cc' line='329' column='1' visibility='default' binding='global' size-in-bits='64'>
              <parameter type-id='type-id-286'/>
              <return type-id='type-id-60'/>
            </function-decl>
          </member-function>
          <member-function access='public' static='yes'>
            <function-decl name='Allocate' mangled-name='_ZN15HeapLeakChecker9Allocator8AllocateEm' filepath='src/heap-checker.cc' line='309' column='1' declared-inline='yes' visibility='default' binding='global' size-in-bits='64' elf-symbol-id='_ZN15HeapLeakChecker9Allocator8AllocateEm'>
              <parameter type-id='type-id-62'/>
              <return type-id='type-id-58'/>
            </function-decl>
          </member-function>
          <member-function access='public' static='yes'>
            <function-decl name='Free' mangled-name='_ZN15HeapLeakChecker9Allocator4FreeEPv' filepath='src/heap-checker.cc' line='315' column='1' declared-inline='yes' visibility='default' binding='global' size-in-bits='64' elf-symbol-id='_ZN15HeapLeakChecker9Allocator4FreeEPv'>
              <parameter type-id='type-id-58'/>
              <return type-id='type-id-60'/>
            </function-decl>
          </member-function>
        </class-decl>
      </member-type>
      <data-member access='private' layout-offset-in-bits='0'>
        <var-decl name='lock_' type-id='type-id-94' visibility='default' filepath='./src/gperftools/heap-checker.h' line='358' column='1'/>
      </data-member>
      <data-member access='private' layout-offset-in-bits='64'>
        <var-decl name='name_' type-id='type-id-57' visibility='default' filepath='./src/gperftools/heap-checker.h' line='359' column='1'/>
      </data-member>
      <data-member access='private' layout-offset-in-bits='128'>
        <var-decl name='start_snapshot_' type-id='type-id-58' visibility='default' filepath='./src/gperftools/heap-checker.h' line='365' column='1'/>
      </data-member>
      <data-member access='private' layout-offset-in-bits='192'>
        <var-decl name='has_checked_' type-id='type-id-61' visibility='default' filepath='./src/gperftools/heap-checker.h' line='367' column='1'/>
      </data-member>
      <data-member access='private' layout-offset-in-bits='256'>
        <var-decl name='inuse_bytes_increase_' type-id='type-id-291' visibility='default' filepath='./src/gperftools/heap-checker.h' line='368' column='1'/>
      </data-member>
      <data-member access='private' layout-offset-in-bits='320'>
        <var-decl name='inuse_allocs_increase_' type-id='type-id-291' visibility='default' filepath='./src/gperftools/heap-checker.h' line='369' column='1'/>
      </data-member>
      <data-member access='private' layout-offset-in-bits='384'>
        <var-decl name='keep_profiles_' type-id='type-id-61' visibility='default' filepath='./src/gperftools/heap-checker.h' line='371' column='1'/>
      </data-member>
      <member-function access='private' constructor='yes'>
        <function-decl name='HeapLeakChecker' mangled-name='_ZN15HeapLeakCheckerC1EPKc' filepath='./src/gperftools/heap-checker.h' line='124' column='1' visibility='default' binding='global' size-in-bits='64' elf-symbol-id='_ZN15HeapLeakCheckerC1EPKc'>
          <parameter type-id='type-id-292' is-artificial='yes'/>
          <parameter type-id='type-id-57'/>
          <return type-id='type-id-60'/>
        </function-decl>
      </member-function>
      <member-function access='private' destructor='yes'>
        <function-decl name='~HeapLeakChecker' mangled-name='_ZN15HeapLeakCheckerD1Ev' filepath='./src/gperftools/heap-checker.h' line='128' column='1' visibility='default' binding='global' size-in-bits='64' elf-symbol-id='_ZN15HeapLeakCheckerD1Ev'>
          <parameter type-id='type-id-292' is-artificial='yes'/>
          <parameter type-id='type-id-1' is-artificial='yes'/>
          <return type-id='type-id-60'/>
        </function-decl>
      </member-function>
      <member-function access='private' constructor='yes'>
        <function-decl name='HeapLeakChecker' mangled-name='_ZN15HeapLeakCheckerC1Ev' filepath='./src/gperftools/heap-checker.h' line='330' column='1' visibility='default' binding='global' size-in-bits='64' elf-symbol-id='_ZN15HeapLeakCheckerC1Ev'>
          <parameter type-id='type-id-292' is-artificial='yes'/>
          <return type-id='type-id-60'/>
        </function-decl>
      </member-function>
      <member-function access='private' constructor='yes'>
        <function-decl name='HeapLeakChecker' filepath='./src/gperftools/heap-checker.h' line='376' column='1' visibility='default' binding='global' size-in-bits='64'>
          <parameter type-id='type-id-292' is-artificial='yes'/>
          <parameter type-id='type-id-293'/>
          <return type-id='type-id-60'/>
        </function-decl>
      </member-function>
      <member-function access='private' static='yes'>
        <function-decl name='IgnoreObject&lt;char&gt;' filepath='./src/gperftools/heap-checker.h' line='197' column='1' visibility='default' binding='global' size-in-bits='64'>
          <parameter type-id='type-id-118'/>
          <return type-id='type-id-118'/>
        </function-decl>
      </member-function>
      <member-function access='private' static='yes'>
        <function-decl name='DisableChecksIn' mangled-name='_ZN15HeapLeakChecker15DisableChecksInEPKc' filepath='src/heap-checker.cc' line='1514' column='1' visibility='default' binding='global' size-in-bits='64' elf-symbol-id='_ZN15HeapLeakChecker15DisableChecksInEPKc'>
          <parameter type-id='type-id-57'/>
          <return type-id='type-id-60'/>
        </function-decl>
      </member-function>
      <member-function access='private' static='yes'>
        <function-decl name='BeforeConstructorsLocked' mangled-name='_ZN15HeapLeakChecker24BeforeConstructorsLockedEv' filepath='src/heap-checker.cc' line='2203' column='1' visibility='default' binding='global' size-in-bits='64' elf-symbol-id='_ZN15HeapLeakChecker24BeforeConstructorsLockedEv'>
          <return type-id='type-id-60'/>
        </function-decl>
      </member-function>
      <member-function access='private'>
        <function-decl name='MakeProfileNameLocked' mangled-name='_ZN15HeapLeakChecker21MakeProfileNameLockedEv' filepath='src/heap-checker.cc' line='1564' column='1' visibility='default' binding='global' size-in-bits='64' elf-symbol-id='_ZN15HeapLeakChecker21MakeProfileNameLockedEv'>
          <parameter type-id='type-id-294' name='this' is-artificial='yes'/>
          <return type-id='type-id-118'/>
        </function-decl>
      </member-function>
      <member-function access='private' static='yes'>
        <function-decl name='DisableChecksFromToLocked' mangled-name='_ZN15HeapLeakChecker25DisableChecksFromToLockedEPKvS1_i' filepath='src/heap-checker.cc' line='2336' column='1' visibility='default' binding='global' size-in-bits='64' elf-symbol-id='_ZN15HeapLeakChecker25DisableChecksFromToLockedEPKvS1_i'>
          <parameter type-id='type-id-58'/>
          <parameter type-id='type-id-58'/>
          <parameter type-id='type-id-1'/>
          <return type-id='type-id-60'/>
        </function-decl>
      </member-function>
      <member-function access='private' static='yes'>
        <function-decl name='DisableLibraryAllocsLocked' mangled-name='_ZN15HeapLeakChecker26DisableLibraryAllocsLockedEPKcmm' filepath='src/heap-checker.cc' line='827' column='1' visibility='default' binding='global' size-in-bits='64' elf-symbol-id='_ZN15HeapLeakChecker26DisableLibraryAllocsLockedEPKcmm'>
          <parameter type-id='type-id-57'/>
          <parameter type-id='type-id-156'/>
          <parameter type-id='type-id-156'/>
          <return type-id='type-id-60'/>
        </function-decl>
      </member-function>
      <member-function access='private' static='yes'>
        <function-decl name='TurnItselfOffLocked' mangled-name='_ZN15HeapLeakChecker19TurnItselfOffLockedEv' filepath='src/heap-checker.cc' line='2229' column='1' visibility='default' binding='global' size-in-bits='64' elf-symbol-id='_ZN15HeapLeakChecker19TurnItselfOffLockedEv'>
          <return type-id='type-id-60'/>
        </function-decl>
      </member-function>
      <member-function access='private' static='yes'>
        <function-decl name='IgnoreLiveObjectsLocked' mangled-name='_ZN15HeapLeakChecker23IgnoreLiveObjectsLockedEPKcS1_' filepath='src/heap-checker.cc' line='1392' column='1' visibility='default' binding='global' size-in-bits='64' elf-symbol-id='_ZN15HeapLeakChecker23IgnoreLiveObjectsLockedEPKcS1_'>
          <parameter type-id='type-id-57'/>
          <parameter type-id='type-id-57'/>
          <return type-id='type-id-60'/>
        </function-decl>
      </member-function>
      <member-function access='private' static='yes'>
        <function-decl name='GetAllocCaller' mangled-name='_ZN15HeapLeakChecker14GetAllocCallerEPv' filepath='src/heap-checker.cc' line='2380' column='1' visibility='default' binding='global' size-in-bits='64' elf-symbol-id='_ZN15HeapLeakChecker14GetAllocCallerEPv'>
          <parameter type-id='type-id-58'/>
          <return type-id='type-id-58'/>
        </function-decl>
      </member-function>
      <member-function access='private' static='yes'>
        <function-decl name='CancelGlobalCheck' mangled-name='_ZN15HeapLeakChecker17CancelGlobalCheckEv' filepath='src/heap-checker.cc' line='2193' column='1' visibility='default' binding='global' size-in-bits='64' elf-symbol-id='_ZN15HeapLeakChecker17CancelGlobalCheckEv'>
          <return type-id='type-id-60'/>
        </function-decl>
      </member-function>
      <member-function access='private' static='yes'>
        <function-decl name='GlobalChecker' mangled-name='_ZN15HeapLeakChecker13GlobalCheckerEv' filepath='src/heap-checker.cc' line='2181' column='1' visibility='default' binding='global' size-in-bits='64' elf-symbol-id='_ZN15HeapLeakChecker13GlobalCheckerEv'>
          <return type-id='type-id-292'/>
        </function-decl>
      </member-function>
      <member-function access='private' static='yes'>
        <function-decl name='IsActive' mangled-name='_ZN15HeapLeakChecker8IsActiveEv' filepath='src/heap-checker.cc' line='1901' column='1' visibility='default' binding='global' size-in-bits='64' elf-symbol-id='_ZN15HeapLeakChecker8IsActiveEv'>
          <return type-id='type-id-61'/>
        </function-decl>
      </member-function>
      <member-function access='private'>
        <function-decl name='ObjectsLeaked' mangled-name='_ZNK15HeapLeakChecker13ObjectsLeakedEv' filepath='src/heap-checker.cc' line='1645' column='1' visibility='default' binding='global' size-in-bits='64' elf-symbol-id='_ZNK15HeapLeakChecker13ObjectsLeakedEv'>
          <parameter type-id='type-id-295' name='this' is-artificial='yes'/>
          <return type-id='type-id-291'/>
        </function-decl>
      </member-function>
      <member-function access='private'>
        <function-decl name='BytesLeaked' mangled-name='_ZNK15HeapLeakChecker11BytesLeakedEv' filepath='src/heap-checker.cc' line='1637' column='1' visibility='default' binding='global' size-in-bits='64' elf-symbol-id='_ZNK15HeapLeakChecker11BytesLeakedEv'>
          <parameter type-id='type-id-295' name='this' is-artificial='yes'/>
          <return type-id='type-id-291'/>
        </function-decl>
      </member-function>
      <member-function access='private' static='yes'>
        <function-decl name='UnIgnoreObject' mangled-name='_ZN15HeapLeakChecker14UnIgnoreObjectEPKv' filepath='src/heap-checker.cc' line='1539' column='1' visibility='default' binding='global' size-in-bits='64' elf-symbol-id='_ZN15HeapLeakChecker14UnIgnoreObjectEPKv'>
          <parameter type-id='type-id-58'/>
          <return type-id='type-id-60'/>
        </function-decl>
      </member-function>
      <member-function access='private' static='yes'>
        <function-decl name='IgnoreNonThreadLiveObjectsLocked' mangled-name='_ZN15HeapLeakChecker32IgnoreNonThreadLiveObjectsLockedEv' filepath='src/heap-checker.cc' line='1093' column='1' visibility='default' binding='global' size-in-bits='64' elf-symbol-id='_ZN15HeapLeakChecker32IgnoreNonThreadLiveObjectsLockedEv'>
          <return type-id='type-id-60'/>
        </function-decl>
      </member-function>
      <member-function access='private' static='yes'>
        <function-decl name='DoIgnoreObject' mangled-name='_ZN15HeapLeakChecker14DoIgnoreObjectEPKv' filepath='src/heap-checker.cc' line='1519' column='1' visibility='default' binding='global' size-in-bits='64' elf-symbol-id='_ZN15HeapLeakChecker14DoIgnoreObjectEPKv'>
          <parameter type-id='type-id-58'/>
          <return type-id='type-id-60'/>
        </function-decl>
      </member-function>
      <member-function access='private'>
        <function-decl name='Create' mangled-name='_ZN15HeapLeakChecker6CreateEPKcb' filepath='src/heap-checker.cc' line='1576' column='1' visibility='default' binding='global' size-in-bits='64' elf-symbol-id='_ZN15HeapLeakChecker6CreateEPKcb'>
          <parameter type-id='type-id-294' name='this' is-artificial='yes'/>
          <parameter type-id='type-id-57' name='name' filepath='src/heap-checker.cc' line='1576' column='1'/>
          <parameter type-id='type-id-61' name='make_start_snapshot' filepath='src/heap-checker.cc' line='1576' column='1'/>
          <return type-id='type-id-60'/>
        </function-decl>
      </member-function>
      <member-function access='private' static='yes'>
        <function-decl name='UseProcMapsLocked' mangled-name='_ZN15HeapLeakChecker17UseProcMapsLockedENS_12ProcMapsTaskE' filepath='src/heap-checker.cc' line='892' column='1' visibility='default' binding='global' size-in-bits='64' elf-symbol-id='_ZN15HeapLeakChecker17UseProcMapsLockedENS_12ProcMapsTaskE'>
          <parameter type-id='type-id-281'/>
          <return type-id='type-id-282'/>
        </function-decl>
      </member-function>
      <member-function access='private' static='yes'>
        <function-decl name='IgnoreLiveThreadsLocked' mangled-name='_ZN15HeapLeakChecker23IgnoreLiveThreadsLockedEPviPiP13__va_list_tag' filepath='src/heap-checker.cc' line='1021' column='1' visibility='default' binding='global' size-in-bits='64' elf-symbol-id='_ZN15HeapLeakChecker23IgnoreLiveThreadsLockedEPviPiP13__va_list_tag'>
          <parameter type-id='type-id-58'/>
          <parameter type-id='type-id-1'/>
          <parameter type-id='type-id-71'/>
          <parameter type-id='type-id-72'/>
          <return type-id='type-id-1'/>
        </function-decl>
      </member-function>
      <member-function access='private' static='yes'>
        <function-decl name='IgnoreAllLiveObjectsLocked' mangled-name='_ZN15HeapLeakChecker26IgnoreAllLiveObjectsLockedEPKv' filepath='src/heap-checker.cc' line='1261' column='1' visibility='default' binding='global' size-in-bits='64' elf-symbol-id='_ZN15HeapLeakChecker26IgnoreAllLiveObjectsLockedEPKv'>
          <parameter type-id='type-id-58'/>
          <return type-id='type-id-60'/>
        </function-decl>
      </member-function>
      <member-function access='private'>
        <function-decl name='DoNoLeaks' mangled-name='_ZN15HeapLeakChecker9DoNoLeaksENS_15ShouldSymbolizeE' filepath='src/heap-checker.cc' line='1712' column='1' visibility='default' binding='global' size-in-bits='64' elf-symbol-id='_ZN15HeapLeakChecker9DoNoLeaksENS_15ShouldSymbolizeE'>
          <parameter type-id='type-id-294' name='this' is-artificial='yes'/>
          <parameter type-id='type-id-280' name='should_symbolize' filepath='src/heap-checker.cc' line='1712' column='1'/>
          <return type-id='type-id-61'/>
        </function-decl>
      </member-function>
      <member-function access='private' static='yes'>
        <function-decl name='NoGlobalLeaksMaybeSymbolize' mangled-name='_ZN15HeapLeakChecker27NoGlobalLeaksMaybeSymbolizeENS_15ShouldSymbolizeE' filepath='src/heap-checker.cc' line='2141' column='1' visibility='default' binding='global' size-in-bits='64' elf-symbol-id='_ZN15HeapLeakChecker27NoGlobalLeaksMaybeSymbolizeENS_15ShouldSymbolizeE'>
          <parameter type-id='type-id-280'/>
          <return type-id='type-id-61'/>
        </function-decl>
      </member-function>
      <member-function access='private' static='yes'>
        <function-decl name='NoGlobalLeaks' mangled-name='_ZN15HeapLeakChecker13NoGlobalLeaksEv' filepath='src/heap-checker.cc' line='2187' column='1' visibility='default' binding='global' size-in-bits='64' elf-symbol-id='_ZN15HeapLeakChecker13NoGlobalLeaksEv'>
          <return type-id='type-id-61'/>
        </function-decl>
      </member-function>
      <member-function access='private' static='yes'>
        <function-decl name='DoMainHeapCheck' mangled-name='_ZN15HeapLeakChecker15DoMainHeapCheckEv' filepath='src/heap-checker.cc' line='2153' column='1' visibility='default' binding='global' size-in-bits='64' elf-symbol-id='_ZN15HeapLeakChecker15DoMainHeapCheckEv'>
          <return type-id='type-id-61'/>
        </function-decl>
      </member-function>
      <member-function access='private' static='yes'>
        <function-decl name='IgnoreObject&lt;MallocExtension&gt;' filepath='src/gperftools/heap-checker.h' line='197' column='1' visibility='default' binding='global' size-in-bits='64'>
          <parameter type-id='type-id-296'/>
          <return type-id='type-id-296'/>
        </function-decl>
      </member-function>
    </class-decl>
    <class-decl name='HeapProfileBucket' size-in-bits='448' is-struct='yes' visibility='default' filepath='src/heap-profile-stats.h' line='68' column='1' id='type-id-212'>
      <base-class access='public' layout-offset-in-bits='0' type-id='type-id-180'/>
      <data-member access='public' static='yes'>
        <var-decl name='kMaxStackDepth' type-id='type-id-144' visibility='default' filepath='src/heap-profile-stats.h' line='70' column='1'/>
      </data-member>
      <data-member access='public' layout-offset-in-bits='192'>
        <var-decl name='hash' type-id='type-id-156' visibility='default' filepath='src/heap-profile-stats.h' line='72' column='1'/>
      </data-member>
      <data-member access='public' layout-offset-in-bits='256'>
        <var-decl name='depth' type-id='type-id-1' visibility='default' filepath='src/heap-profile-stats.h' line='73' column='1'/>
      </data-member>
      <data-member access='public' layout-offset-in-bits='320'>
        <var-decl name='stack' type-id='type-id-151' visibility='default' filepath='src/heap-profile-stats.h' line='74' column='1'/>
      </data-member>
      <data-member access='public' layout-offset-in-bits='384'>
        <var-decl name='next' type-id='type-id-206' visibility='default' filepath='src/heap-profile-stats.h' line='75' column='1'/>
      </data-member>
    </class-decl>
    <class-decl name='STL_Allocator&lt;char, HeapLeakChecker::Allocator&gt;' size-in-bits='8' visibility='default' filepath='src/base/stl_allocator.h' line='60' column='1' id='type-id-297'>
      <member-function access='private'>
        <function-decl name='STL_Allocator' filepath='src/base/stl_allocator.h' line='74' column='1' visibility='default' binding='global' size-in-bits='64'>
          <parameter type-id='type-id-298' is-artificial='yes'/>
          <return type-id='type-id-60'/>
        </function-decl>
      </member-function>
      <member-function access='private'>
        <function-decl name='STL_Allocator' filepath='src/base/stl_allocator.h' line='75' column='1' visibility='default' binding='global' size-in-bits='64'>
          <parameter type-id='type-id-298' is-artificial='yes'/>
          <parameter type-id='type-id-299'/>
          <return type-id='type-id-60'/>
        </function-decl>
      </member-function>
      <member-function access='private' destructor='yes'>
        <function-decl name='~STL_Allocator' filepath='src/base/stl_allocator.h' line='77' column='1' visibility='default' binding='global' size-in-bits='64'>
          <parameter type-id='type-id-298' is-artificial='yes'/>
          <parameter type-id='type-id-1' is-artificial='yes'/>
          <return type-id='type-id-60'/>
        </function-decl>
      </member-function>
    </class-decl>
    <typedef-decl name='RawFD' type-id='type-id-1' filepath='./src/base/logging.h' line='251' column='1' id='type-id-75'/>
    <typedef-decl name='__intptr_t' type-id='type-id-85' filepath='/usr/include/bits/types.h' line='189' column='1' id='type-id-300'/>
    <typedef-decl name='off_t' type-id='type-id-301' filepath='/usr/include/sys/types.h' line='87' column='1' id='type-id-207'/>
    <class-decl name='STL_Allocator&lt;std::_Rb_tree_node&lt;std::pair&lt;const std::basic_string&lt;char, std::char_traits&lt;char&gt;, STL_Allocator&lt;char, HeapLeakChecker::Allocator&gt; &gt;, std::vector&lt;AllocObject, STL_Allocator&lt;AllocObject, HeapLeakChecker::Allocator&gt; &gt; &gt; &gt;, HeapLeakChecker::Allocator&gt;' size-in-bits='8' visibility='default' filepath='src/base/stl_allocator.h' line='60' column='1' id='type-id-302'>
      <member-function access='private'>
        <function-decl name='STL_Allocator' filepath='src/base/stl_allocator.h' line='74' column='1' visibility='default' binding='global' size-in-bits='64'>
          <parameter type-id='type-id-303' is-artificial='yes'/>
          <return type-id='type-id-60'/>
        </function-decl>
      </member-function>
      <member-function access='private'>
        <function-decl name='STL_Allocator' filepath='src/base/stl_allocator.h' line='75' column='1' visibility='default' binding='global' size-in-bits='64'>
          <parameter type-id='type-id-303' is-artificial='yes'/>
          <parameter type-id='type-id-304'/>
          <return type-id='type-id-60'/>
        </function-decl>
      </member-function>
      <member-function access='private' destructor='yes'>
        <function-decl name='~STL_Allocator' filepath='src/base/stl_allocator.h' line='77' column='1' visibility='default' binding='global' size-in-bits='64'>
          <parameter type-id='type-id-303' is-artificial='yes'/>
          <parameter type-id='type-id-1' is-artificial='yes'/>
          <return type-id='type-id-60'/>
        </function-decl>
      </member-function>
    </class-decl>
    <class-decl name='STL_Allocator&lt;std::pair&lt;const std::basic_string&lt;char, std::char_traits&lt;char&gt;, STL_Allocator&lt;char, HeapLeakChecker::Allocator&gt; &gt;, std::vector&lt;AllocObject, STL_Allocator&lt;AllocObject, HeapLeakChecker::Allocator&gt; &gt; &gt;, HeapLeakChecker::Allocator&gt;' size-in-bits='8' visibility='default' filepath='src/base/stl_allocator.h' line='60' column='1' id='type-id-305'>
      <member-function access='private'>
        <function-decl name='STL_Allocator' filepath='src/base/stl_allocator.h' line='74' column='1' visibility='default' binding='global' size-in-bits='64'>
          <parameter type-id='type-id-306' is-artificial='yes'/>
          <return type-id='type-id-60'/>
        </function-decl>
      </member-function>
      <member-function access='private'>
        <function-decl name='STL_Allocator' filepath='src/base/stl_allocator.h' line='75' column='1' visibility='default' binding='global' size-in-bits='64'>
          <parameter type-id='type-id-306' is-artificial='yes'/>
          <parameter type-id='type-id-307'/>
          <return type-id='type-id-60'/>
        </function-decl>
      </member-function>
      <member-function access='private' destructor='yes'>
        <function-decl name='~STL_Allocator' filepath='src/base/stl_allocator.h' line='77' column='1' visibility='default' binding='global' size-in-bits='64'>
          <parameter type-id='type-id-306' is-artificial='yes'/>
          <parameter type-id='type-id-1' is-artificial='yes'/>
          <return type-id='type-id-60'/>
        </function-decl>
      </member-function>
      <member-function access='private'>
        <function-decl name='STL_Allocator&lt;std::_Rb_tree_node&lt;std::pair&lt;const std::basic_string&lt;char, std::char_traits&lt;char&gt;, STL_Allocator&lt;char, HeapLeakChecker::Allocator&gt; &gt;, std::vector&lt;AllocObject, STL_Allocator&lt;AllocObject, HeapLeakChecker::Allocator&gt; &gt; &gt; &gt; &gt;' filepath='src/base/stl_allocator.h' line='76' column='1' visibility='default' binding='global' size-in-bits='64'>
          <parameter type-id='type-id-306' is-artificial='yes'/>
          <parameter type-id='type-id-304'/>
          <return type-id='type-id-60'/>
        </function-decl>
      </member-function>
    </class-decl>
    <class-decl name='STL_Allocator&lt;std::_Rb_tree_node&lt;std::pair&lt;const long unsigned int, HeapLeakChecker::RangeValue&gt; &gt;, HeapLeakChecker::Allocator&gt;' size-in-bits='8' visibility='default' filepath='src/base/stl_allocator.h' line='60' column='1' id='type-id-308'>
      <member-function access='private'>
        <function-decl name='STL_Allocator' filepath='src/base/stl_allocator.h' line='74' column='1' visibility='default' binding='global' size-in-bits='64'>
          <parameter type-id='type-id-309' is-artificial='yes'/>
          <return type-id='type-id-60'/>
        </function-decl>
      </member-function>
      <member-function access='private'>
        <function-decl name='STL_Allocator' filepath='src/base/stl_allocator.h' line='75' column='1' visibility='default' binding='global' size-in-bits='64'>
          <parameter type-id='type-id-309' is-artificial='yes'/>
          <parameter type-id='type-id-310'/>
          <return type-id='type-id-60'/>
        </function-decl>
      </member-function>
      <member-function access='private' destructor='yes'>
        <function-decl name='~STL_Allocator' filepath='src/base/stl_allocator.h' line='77' column='1' visibility='default' binding='global' size-in-bits='64'>
          <parameter type-id='type-id-309' is-artificial='yes'/>
          <parameter type-id='type-id-1' is-artificial='yes'/>
          <return type-id='type-id-60'/>
        </function-decl>
      </member-function>
    </class-decl>
    <class-decl name='STL_Allocator&lt;std::pair&lt;const long unsigned int, HeapLeakChecker::RangeValue&gt;, HeapLeakChecker::Allocator&gt;' size-in-bits='8' visibility='default' filepath='src/base/stl_allocator.h' line='60' column='1' id='type-id-311'>
      <member-function access='private'>
        <function-decl name='STL_Allocator' filepath='src/base/stl_allocator.h' line='74' column='1' visibility='default' binding='global' size-in-bits='64'>
          <parameter type-id='type-id-312' is-artificial='yes'/>
          <return type-id='type-id-60'/>
        </function-decl>
      </member-function>
      <member-function access='private'>
        <function-decl name='STL_Allocator' filepath='src/base/stl_allocator.h' line='75' column='1' visibility='default' binding='global' size-in-bits='64'>
          <parameter type-id='type-id-312' is-artificial='yes'/>
          <parameter type-id='type-id-313'/>
          <return type-id='type-id-60'/>
        </function-decl>
      </member-function>
      <member-function access='private' destructor='yes'>
        <function-decl name='~STL_Allocator' filepath='src/base/stl_allocator.h' line='77' column='1' visibility='default' binding='global' size-in-bits='64'>
          <parameter type-id='type-id-312' is-artificial='yes'/>
          <parameter type-id='type-id-1' is-artificial='yes'/>
          <return type-id='type-id-60'/>
        </function-decl>
      </member-function>
      <member-function access='private'>
        <function-decl name='STL_Allocator&lt;std::_Rb_tree_node&lt;std::pair&lt;const long unsigned int, HeapLeakChecker::RangeValue&gt; &gt; &gt;' filepath='src/base/stl_allocator.h' line='76' column='1' visibility='default' binding='global' size-in-bits='64'>
          <parameter type-id='type-id-312' is-artificial='yes'/>
          <parameter type-id='type-id-310'/>
          <return type-id='type-id-60'/>
        </function-decl>
      </member-function>
    </class-decl>
    <class-decl name='STL_Allocator&lt;std::_Rb_tree_node&lt;long unsigned int&gt;, HeapLeakChecker::Allocator&gt;' size-in-bits='8' visibility='default' filepath='src/base/stl_allocator.h' line='60' column='1' id='type-id-314'>
      <member-function access='private'>
        <function-decl name='STL_Allocator' filepath='src/base/stl_allocator.h' line='74' column='1' visibility='default' binding='global' size-in-bits='64'>
          <parameter type-id='type-id-315' is-artificial='yes'/>
          <return type-id='type-id-60'/>
        </function-decl>
      </member-function>
      <member-function access='private'>
        <function-decl name='STL_Allocator' filepath='src/base/stl_allocator.h' line='75' column='1' visibility='default' binding='global' size-in-bits='64'>
          <parameter type-id='type-id-315' is-artificial='yes'/>
          <parameter type-id='type-id-316'/>
          <return type-id='type-id-60'/>
        </function-decl>
      </member-function>
      <member-function access='private' destructor='yes'>
        <function-decl name='~STL_Allocator' filepath='src/base/stl_allocator.h' line='77' column='1' visibility='default' binding='global' size-in-bits='64'>
          <parameter type-id='type-id-315' is-artificial='yes'/>
          <parameter type-id='type-id-1' is-artificial='yes'/>
          <return type-id='type-id-60'/>
        </function-decl>
      </member-function>
    </class-decl>
    <class-decl name='STL_Allocator&lt;long unsigned int, HeapLeakChecker::Allocator&gt;' size-in-bits='8' visibility='default' filepath='src/base/stl_allocator.h' line='60' column='1' id='type-id-317'>
      <member-function access='private'>
        <function-decl name='STL_Allocator' filepath='src/base/stl_allocator.h' line='74' column='1' visibility='default' binding='global' size-in-bits='64'>
          <parameter type-id='type-id-318' is-artificial='yes'/>
          <return type-id='type-id-60'/>
        </function-decl>
      </member-function>
      <member-function access='private'>
        <function-decl name='STL_Allocator' filepath='src/base/stl_allocator.h' line='75' column='1' visibility='default' binding='global' size-in-bits='64'>
          <parameter type-id='type-id-318' is-artificial='yes'/>
          <parameter type-id='type-id-319'/>
          <return type-id='type-id-60'/>
        </function-decl>
      </member-function>
      <member-function access='private' destructor='yes'>
        <function-decl name='~STL_Allocator' filepath='src/base/stl_allocator.h' line='77' column='1' visibility='default' binding='global' size-in-bits='64'>
          <parameter type-id='type-id-318' is-artificial='yes'/>
          <parameter type-id='type-id-1' is-artificial='yes'/>
          <return type-id='type-id-60'/>
        </function-decl>
      </member-function>
      <member-function access='private'>
        <function-decl name='STL_Allocator&lt;std::_Rb_tree_node&lt;long unsigned int&gt; &gt;' filepath='src/base/stl_allocator.h' line='76' column='1' visibility='default' binding='global' size-in-bits='64'>
          <parameter type-id='type-id-318' is-artificial='yes'/>
          <parameter type-id='type-id-316'/>
          <return type-id='type-id-60'/>
        </function-decl>
      </member-function>
    </class-decl>
    <class-decl name='STL_Allocator&lt;std::_Rb_tree_node&lt;std::pair&lt;const long unsigned int, long unsigned int&gt; &gt;, HeapLeakChecker::Allocator&gt;' size-in-bits='8' visibility='default' filepath='src/base/stl_allocator.h' line='60' column='1' id='type-id-320'>
      <member-function access='private'>
        <function-decl name='STL_Allocator' filepath='src/base/stl_allocator.h' line='74' column='1' visibility='default' binding='global' size-in-bits='64'>
          <parameter type-id='type-id-321' is-artificial='yes'/>
          <return type-id='type-id-60'/>
        </function-decl>
      </member-function>
      <member-function access='private'>
        <function-decl name='STL_Allocator' filepath='src/base/stl_allocator.h' line='75' column='1' visibility='default' binding='global' size-in-bits='64'>
          <parameter type-id='type-id-321' is-artificial='yes'/>
          <parameter type-id='type-id-322'/>
          <return type-id='type-id-60'/>
        </function-decl>
      </member-function>
      <member-function access='private' destructor='yes'>
        <function-decl name='~STL_Allocator' filepath='src/base/stl_allocator.h' line='77' column='1' visibility='default' binding='global' size-in-bits='64'>
          <parameter type-id='type-id-321' is-artificial='yes'/>
          <parameter type-id='type-id-1' is-artificial='yes'/>
          <return type-id='type-id-60'/>
        </function-decl>
      </member-function>
    </class-decl>
    <class-decl name='STL_Allocator&lt;std::pair&lt;const long unsigned int, long unsigned int&gt;, HeapLeakChecker::Allocator&gt;' size-in-bits='8' visibility='default' filepath='src/base/stl_allocator.h' line='60' column='1' id='type-id-323'>
      <member-function access='private'>
        <function-decl name='STL_Allocator' filepath='src/base/stl_allocator.h' line='74' column='1' visibility='default' binding='global' size-in-bits='64'>
          <parameter type-id='type-id-324' is-artificial='yes'/>
          <return type-id='type-id-60'/>
        </function-decl>
      </member-function>
      <member-function access='private'>
        <function-decl name='STL_Allocator' filepath='src/base/stl_allocator.h' line='75' column='1' visibility='default' binding='global' size-in-bits='64'>
          <parameter type-id='type-id-324' is-artificial='yes'/>
          <parameter type-id='type-id-325'/>
          <return type-id='type-id-60'/>
        </function-decl>
      </member-function>
      <member-function access='private' destructor='yes'>
        <function-decl name='~STL_Allocator' filepath='src/base/stl_allocator.h' line='77' column='1' visibility='default' binding='global' size-in-bits='64'>
          <parameter type-id='type-id-324' is-artificial='yes'/>
          <parameter type-id='type-id-1' is-artificial='yes'/>
          <return type-id='type-id-60'/>
        </function-decl>
      </member-function>
      <member-function access='private'>
        <function-decl name='STL_Allocator&lt;std::_Rb_tree_node&lt;std::pair&lt;const long unsigned int, long unsigned int&gt; &gt; &gt;' filepath='src/base/stl_allocator.h' line='76' column='1' visibility='default' binding='global' size-in-bits='64'>
          <parameter type-id='type-id-324' is-artificial='yes'/>
          <parameter type-id='type-id-322'/>
          <return type-id='type-id-60'/>
        </function-decl>
      </member-function>
    </class-decl>
    <typedef-decl name='_Atomic_word' type-id='type-id-1' filepath='/usr/lib/gcc/x86_64-redhat-linux/4.4.7/../../../../include/c++/4.4.7/x86_64-redhat-linux/bits/atomic_word.h' line='32' column='1' id='type-id-326'/>
    <typedef-decl name='DisabledRangeMap' type-id='type-id-327' filepath='src/heap-checker.cc' line='411' column='1' id='type-id-328'/>
    <typedef-decl name='GlobalRegionCallerRangeMap' type-id='type-id-329' filepath='src/heap-checker.cc' line='432' column='1' id='type-id-330'/>
    <typedef-decl name='LibraryLiveObjectsStacks' type-id='type-id-331' filepath='src/heap-checker.cc' line='397' column='1' id='type-id-332'/>
    <typedef-decl name='LiveObjectsStack' type-id='type-id-333' filepath='src/heap-checker.cc' line='384' column='1' id='type-id-334'/>
    <typedef-decl name='StackTopSet' type-id='type-id-335' filepath='src/heap-checker.cc' line='422' column='1' id='type-id-336'/>
    <typedef-decl name='MallocHook_NewHook' type-id='type-id-337' filepath='./src/gperftools/malloc_hook_c.h' line='70' column='1' id='type-id-338'/>
    <typedef-decl name='MallocHook_DeleteHook' type-id='type-id-234' filepath='./src/gperftools/malloc_hook_c.h' line='76' column='1' id='type-id-339'/>
    <typedef-decl name='MallocHook_MmapHook' type-id='type-id-340' filepath='./src/gperftools/malloc_hook_c.h' line='99' column='1' id='type-id-341'/>
    <typedef-decl name='MallocHook_SbrkHook' type-id='type-id-342' filepath='./src/gperftools/malloc_hook_c.h' line='144' column='1' id='type-id-343'/>
    <class-decl name='HeapCleaner' size-in-bits='8' visibility='default' filepath='./src/gperftools/heap-checker.h' line='403' column='1' id='type-id-344'>
      <member-type access='private'>
        <typedef-decl name='void_function' type-id='type-id-176' filepath='./src/gperftools/heap-checker.h' line='405' column='1' id='type-id-345'/>
      </member-type>
      <data-member access='private' static='yes'>
        <var-decl name='heap_cleanups_' type-id='type-id-346' mangled-name='_ZN11HeapCleaner14heap_cleanups_E' visibility='default' filepath='./src/gperftools/heap-checker.h' line='409' column='1' elf-symbol-id='_ZN11HeapCleaner14heap_cleanups_E'/>
      </data-member>
      <member-function access='private' constructor='yes'>
        <function-decl name='HeapCleaner' mangled-name='_ZN11HeapCleanerC1EPFvvE' filepath='./src/gperftools/heap-checker.h' line='406' column='1' visibility='default' binding='global' size-in-bits='64' elf-symbol-id='_ZN11HeapCleanerC1EPFvvE'>
          <parameter type-id='type-id-347' is-artificial='yes'/>
          <parameter type-id='type-id-345'/>
          <return type-id='type-id-60'/>
        </function-decl>
      </member-function>
      <member-function access='private' static='yes'>
        <function-decl name='RunHeapCleanups' mangled-name='_ZN11HeapCleaner15RunHeapCleanupsEv' filepath='src/heap-checker.cc' line='1917' column='1' visibility='default' binding='global' size-in-bits='64' elf-symbol-id='_ZN11HeapCleaner15RunHeapCleanupsEv'>
          <return type-id='type-id-60'/>
        </function-decl>
      </member-function>
    </class-decl>
    <pointer-type-def type-id='type-id-235' size-in-bits='64' id='type-id-265'/>
    <pointer-type-def type-id='type-id-256' size-in-bits='64' id='type-id-271'/>
    <pointer-type-def type-id='type-id-271' size-in-bits='64' id='type-id-260'/>
    <pointer-type-def type-id='type-id-257' size-in-bits='64' id='type-id-261'/>
    <pointer-type-def type-id='type-id-258' size-in-bits='64' id='type-id-264'/>
    <reference-type-def kind='lvalue' type-id='type-id-165' size-in-bits='64' id='type-id-348'/>
    <pointer-type-def type-id='type-id-165' size-in-bits='64' id='type-id-167'/>
    <qualified-type-def type-id='type-id-167' const='yes' id='type-id-349'/>
    <reference-type-def kind='lvalue' type-id='type-id-349' size-in-bits='64' id='type-id-350'/>
    <reference-type-def kind='lvalue' type-id='type-id-167' size-in-bits='64' id='type-id-351'/>
    <pointer-type-def type-id='type-id-328' size-in-bits='64' id='type-id-352'/>
    <pointer-type-def type-id='type-id-352' size-in-bits='64' id='type-id-285'/>
    <pointer-type-def type-id='type-id-330' size-in-bits='64' id='type-id-353'/>
    <pointer-type-def type-id='type-id-353' size-in-bits='64' id='type-id-286'/>
    <pointer-type-def type-id='type-id-174' size-in-bits='64' id='type-id-179'/>
    <pointer-type-def type-id='type-id-344' size-in-bits='64' id='type-id-347'/>
    <pointer-type-def type-id='type-id-276' size-in-bits='64' id='type-id-292'/>
    <qualified-type-def type-id='type-id-292' const='yes' id='type-id-294'/>
    <pointer-type-def type-id='type-id-277' size-in-bits='64' id='type-id-278'/>
    <reference-type-def kind='lvalue' type-id='type-id-283' size-in-bits='64' id='type-id-354'/>
    <pointer-type-def type-id='type-id-212' size-in-bits='64' id='type-id-206'/>
    <pointer-type-def type-id='type-id-209' size-in-bits='64' id='type-id-245'/>
    <pointer-type-def type-id='type-id-245' size-in-bits='64' id='type-id-287'/>
    <pointer-type-def type-id='type-id-231' size-in-bits='64' id='type-id-254'/>
    <pointer-type-def type-id='type-id-242' size-in-bits='64' id='type-id-255'/>
    <pointer-type-def type-id='type-id-210' size-in-bits='64' id='type-id-228'/>
    <pointer-type-def type-id='type-id-211' size-in-bits='64' id='type-id-219'/>
    <pointer-type-def type-id='type-id-219' size-in-bits='64' id='type-id-243'/>
    <pointer-type-def type-id='type-id-223' size-in-bits='64' id='type-id-244'/>
    <pointer-type-def type-id='type-id-240' size-in-bits='64' id='type-id-200'/>
    <pointer-type-def type-id='type-id-213' size-in-bits='64' id='type-id-216'/>
    <pointer-type-def type-id='type-id-214' size-in-bits='64' id='type-id-215'/>
    <pointer-type-def type-id='type-id-217' size-in-bits='64' id='type-id-224'/>
    <pointer-type-def type-id='type-id-221' size-in-bits='64' id='type-id-230'/>
    <pointer-type-def type-id='type-id-332' size-in-bits='64' id='type-id-355'/>
    <pointer-type-def type-id='type-id-355' size-in-bits='64' id='type-id-288'/>
    <pointer-type-def type-id='type-id-334' size-in-bits='64' id='type-id-356'/>
    <pointer-type-def type-id='type-id-356' size-in-bits='64' id='type-id-289'/>
    <pointer-type-def type-id='type-id-84' size-in-bits='64' id='type-id-83'/>
    <pointer-type-def type-id='type-id-189' size-in-bits='64' id='type-id-190'/>
    <pointer-type-def type-id='type-id-183' size-in-bits='64' id='type-id-204'/>
    <qualified-type-def type-id='type-id-357' id='type-id-358'/>
    <reference-type-def kind='lvalue' type-id='type-id-168' size-in-bits='64' id='type-id-357'/>
    <pointer-type-def type-id='type-id-168' size-in-bits='64' id='type-id-169'/>
    <qualified-type-def type-id='type-id-169' const='yes' id='type-id-359'/>
    <pointer-type-def type-id='type-id-297' size-in-bits='64' id='type-id-298'/>
    <qualified-type-def type-id='type-id-298' const='yes' id='type-id-360'/>
    <pointer-type-def type-id='type-id-317' size-in-bits='64' id='type-id-318'/>
    <qualified-type-def type-id='type-id-318' const='yes' id='type-id-361'/>
    <reference-type-def kind='lvalue' type-id='type-id-314' size-in-bits='64' id='type-id-362'/>
    <pointer-type-def type-id='type-id-314' size-in-bits='64' id='type-id-315'/>
    <qualified-type-def type-id='type-id-315' const='yes' id='type-id-363'/>
    <reference-type-def kind='lvalue' type-id='type-id-308' size-in-bits='64' id='type-id-364'/>
    <pointer-type-def type-id='type-id-308' size-in-bits='64' id='type-id-309'/>
    <qualified-type-def type-id='type-id-309' const='yes' id='type-id-365'/>
    <reference-type-def kind='lvalue' type-id='type-id-320' size-in-bits='64' id='type-id-366'/>
    <pointer-type-def type-id='type-id-320' size-in-bits='64' id='type-id-321'/>
    <qualified-type-def type-id='type-id-321' const='yes' id='type-id-367'/>
    <reference-type-def kind='lvalue' type-id='type-id-302' size-in-bits='64' id='type-id-368'/>
    <pointer-type-def type-id='type-id-302' size-in-bits='64' id='type-id-303'/>
    <qualified-type-def type-id='type-id-303' const='yes' id='type-id-369'/>
    <pointer-type-def type-id='type-id-311' size-in-bits='64' id='type-id-312'/>
    <qualified-type-def type-id='type-id-312' const='yes' id='type-id-370'/>
    <pointer-type-def type-id='type-id-323' size-in-bits='64' id='type-id-324'/>
    <qualified-type-def type-id='type-id-324' const='yes' id='type-id-371'/>
    <pointer-type-def type-id='type-id-305' size-in-bits='64' id='type-id-306'/>
    <qualified-type-def type-id='type-id-306' const='yes' id='type-id-372'/>
    <reference-type-def kind='lvalue' type-id='type-id-171' size-in-bits='64' id='type-id-373'/>
    <pointer-type-def type-id='type-id-171' size-in-bits='64' id='type-id-172'/>
    <qualified-type-def type-id='type-id-172' const='yes' id='type-id-374'/>
    <pointer-type-def type-id='type-id-336' size-in-bits='64' id='type-id-375'/>
    <pointer-type-def type-id='type-id-375' size-in-bits='64' id='type-id-290'/>
    <reference-type-def kind='lvalue' type-id='type-id-376' size-in-bits='64' id='type-id-377'/>
    <pointer-type-def type-id='type-id-376' size-in-bits='64' id='type-id-378'/>
    <qualified-type-def type-id='type-id-378' const='yes' id='type-id-379'/>
    <reference-type-def kind='lvalue' type-id='type-id-380' size-in-bits='64' id='type-id-381'/>
    <pointer-type-def type-id='type-id-380' size-in-bits='64' id='type-id-382'/>
    <qualified-type-def type-id='type-id-382' const='yes' id='type-id-383'/>
    <reference-type-def kind='lvalue' type-id='type-id-384' size-in-bits='64' id='type-id-385'/>
    <pointer-type-def type-id='type-id-384' size-in-bits='64' id='type-id-386'/>
    <reference-type-def kind='lvalue' type-id='type-id-387' size-in-bits='64' id='type-id-388'/>
    <pointer-type-def type-id='type-id-387' size-in-bits='64' id='type-id-389'/>
    <pointer-type-def type-id='type-id-390' size-in-bits='64' id='type-id-391'/>
    <qualified-type-def type-id='type-id-391' const='yes' id='type-id-392'/>
    <pointer-type-def type-id='type-id-393' size-in-bits='64' id='type-id-394'/>
    <pointer-type-def type-id='type-id-395' size-in-bits='64' id='type-id-396'/>
    <qualified-type-def type-id='type-id-235' const='yes' id='type-id-397'/>
    <pointer-type-def type-id='type-id-397' size-in-bits='64' id='type-id-266'/>
    <qualified-type-def type-id='type-id-165' const='yes' id='type-id-398'/>
    <qualified-type-def type-id='type-id-399' id='type-id-400'/>
    <reference-type-def kind='lvalue' type-id='type-id-398' size-in-bits='64' id='type-id-399'/>
    <pointer-type-def type-id='type-id-398' size-in-bits='64' id='type-id-401'/>
    <qualified-type-def type-id='type-id-401' const='yes' id='type-id-402'/>
    <reference-type-def kind='lvalue' type-id='type-id-402' size-in-bits='64' id='type-id-403'/>
    <qualified-type-def type-id='type-id-175' const='yes' id='type-id-178'/>
    <qualified-type-def type-id='type-id-276' const='yes' id='type-id-404'/>
    <reference-type-def kind='lvalue' type-id='type-id-404' size-in-bits='64' id='type-id-293'/>
    <pointer-type-def type-id='type-id-404' size-in-bits='64' id='type-id-405'/>
    <qualified-type-def type-id='type-id-405' const='yes' id='type-id-295'/>
    <qualified-type-def type-id='type-id-277' const='yes' id='type-id-406'/>
    <reference-type-def kind='lvalue' type-id='type-id-406' size-in-bits='64' id='type-id-279'/>
    <qualified-type-def type-id='type-id-283' const='yes' id='type-id-407'/>
    <reference-type-def kind='lvalue' type-id='type-id-407' size-in-bits='64' id='type-id-408'/>
    <qualified-type-def type-id='type-id-180' const='yes' id='type-id-409'/>
    <reference-type-def kind='lvalue' type-id='type-id-409' size-in-bits='64' id='type-id-410'/>
    <pointer-type-def type-id='type-id-409' size-in-bits='64' id='type-id-411'/>
    <qualified-type-def type-id='type-id-209' const='yes' id='type-id-412'/>
    <reference-type-def kind='lvalue' type-id='type-id-412' size-in-bits='64' id='type-id-246'/>
    <pointer-type-def type-id='type-id-412' size-in-bits='64' id='type-id-413'/>
    <qualified-type-def type-id='type-id-413' const='yes' id='type-id-252'/>
    <qualified-type-def type-id='type-id-232' const='yes' id='type-id-414'/>
    <reference-type-def kind='lvalue' type-id='type-id-414' size-in-bits='64' id='type-id-415'/>
    <qualified-type-def type-id='type-id-242' const='yes' id='type-id-416'/>
    <reference-type-def kind='lvalue' type-id='type-id-416' size-in-bits='64' id='type-id-417'/>
    <qualified-type-def type-id='type-id-210' const='yes' id='type-id-418'/>
    <reference-type-def kind='lvalue' type-id='type-id-418' size-in-bits='64' id='type-id-419'/>
    <pointer-type-def type-id='type-id-418' size-in-bits='64' id='type-id-420'/>
    <qualified-type-def type-id='type-id-420' const='yes' id='type-id-421'/>
    <qualified-type-def type-id='type-id-211' const='yes' id='type-id-422'/>
    <reference-type-def kind='lvalue' type-id='type-id-422' size-in-bits='64' id='type-id-423'/>
    <pointer-type-def type-id='type-id-422' size-in-bits='64' id='type-id-251'/>
    <qualified-type-def type-id='type-id-240' const='yes' id='type-id-424'/>
    <reference-type-def kind='lvalue' type-id='type-id-424' size-in-bits='64' id='type-id-241'/>
    <qualified-type-def type-id='type-id-213' const='yes' id='type-id-425'/>
    <reference-type-def kind='lvalue' type-id='type-id-425' size-in-bits='64' id='type-id-273'/>
    <qualified-type-def type-id='type-id-214' const='yes' id='type-id-426'/>
    <reference-type-def kind='lvalue' type-id='type-id-426' size-in-bits='64' id='type-id-427'/>
    <qualified-type-def type-id='type-id-217' const='yes' id='type-id-428'/>
    <reference-type-def kind='lvalue' type-id='type-id-428' size-in-bits='64' id='type-id-227'/>
    <pointer-type-def type-id='type-id-428' size-in-bits='64' id='type-id-429'/>
    <qualified-type-def type-id='type-id-429' const='yes' id='type-id-430'/>
    <qualified-type-def type-id='type-id-189' const='yes' id='type-id-431'/>
    <reference-type-def kind='lvalue' type-id='type-id-431' size-in-bits='64' id='type-id-191'/>
    <qualified-type-def type-id='type-id-183' const='yes' id='type-id-432'/>
    <reference-type-def kind='lvalue' type-id='type-id-432' size-in-bits='64' id='type-id-433'/>
    <pointer-type-def type-id='type-id-432' size-in-bits='64' id='type-id-203'/>
    <qualified-type-def type-id='type-id-203' const='yes' id='type-id-434'/>
    <qualified-type-def type-id='type-id-168' const='yes' id='type-id-435'/>
    <reference-type-def kind='lvalue' type-id='type-id-435' size-in-bits='64' id='type-id-170'/>
    <pointer-type-def type-id='type-id-435' size-in-bits='64' id='type-id-436'/>
    <qualified-type-def type-id='type-id-436' const='yes' id='type-id-437'/>
    <qualified-type-def type-id='type-id-297' const='yes' id='type-id-438'/>
    <qualified-type-def type-id='type-id-299' id='type-id-439'/>
    <reference-type-def kind='lvalue' type-id='type-id-438' size-in-bits='64' id='type-id-299'/>
    <pointer-type-def type-id='type-id-438' size-in-bits='64' id='type-id-440'/>
    <qualified-type-def type-id='type-id-440' const='yes' id='type-id-441'/>
    <qualified-type-def type-id='type-id-317' const='yes' id='type-id-442'/>
    <reference-type-def kind='lvalue' type-id='type-id-442' size-in-bits='64' id='type-id-319'/>
    <pointer-type-def type-id='type-id-442' size-in-bits='64' id='type-id-443'/>
    <qualified-type-def type-id='type-id-314' const='yes' id='type-id-444'/>
    <reference-type-def kind='lvalue' type-id='type-id-444' size-in-bits='64' id='type-id-316'/>
    <pointer-type-def type-id='type-id-444' size-in-bits='64' id='type-id-445'/>
    <qualified-type-def type-id='type-id-308' const='yes' id='type-id-446'/>
    <reference-type-def kind='lvalue' type-id='type-id-446' size-in-bits='64' id='type-id-310'/>
    <pointer-type-def type-id='type-id-446' size-in-bits='64' id='type-id-447'/>
    <qualified-type-def type-id='type-id-320' const='yes' id='type-id-448'/>
    <reference-type-def kind='lvalue' type-id='type-id-448' size-in-bits='64' id='type-id-322'/>
    <pointer-type-def type-id='type-id-448' size-in-bits='64' id='type-id-449'/>
    <qualified-type-def type-id='type-id-302' const='yes' id='type-id-450'/>
    <reference-type-def kind='lvalue' type-id='type-id-450' size-in-bits='64' id='type-id-304'/>
    <pointer-type-def type-id='type-id-450' size-in-bits='64' id='type-id-451'/>
    <qualified-type-def type-id='type-id-311' const='yes' id='type-id-452'/>
    <reference-type-def kind='lvalue' type-id='type-id-452' size-in-bits='64' id='type-id-313'/>
    <pointer-type-def type-id='type-id-452' size-in-bits='64' id='type-id-453'/>
    <qualified-type-def type-id='type-id-323' const='yes' id='type-id-454'/>
    <reference-type-def kind='lvalue' type-id='type-id-454' size-in-bits='64' id='type-id-325'/>
    <pointer-type-def type-id='type-id-454' size-in-bits='64' id='type-id-455'/>
    <qualified-type-def type-id='type-id-305' const='yes' id='type-id-456'/>
    <reference-type-def kind='lvalue' type-id='type-id-456' size-in-bits='64' id='type-id-307'/>
    <pointer-type-def type-id='type-id-456' size-in-bits='64' id='type-id-457'/>
    <qualified-type-def type-id='type-id-171' const='yes' id='type-id-458'/>
    <reference-type-def kind='lvalue' type-id='type-id-458' size-in-bits='64' id='type-id-173'/>
    <pointer-type-def type-id='type-id-458' size-in-bits='64' id='type-id-459'/>
    <qualified-type-def type-id='type-id-459' const='yes' id='type-id-460'/>
    <qualified-type-def type-id='type-id-376' const='yes' id='type-id-461'/>
    <reference-type-def kind='lvalue' type-id='type-id-461' size-in-bits='64' id='type-id-462'/>
    <pointer-type-def type-id='type-id-461' size-in-bits='64' id='type-id-463'/>
    <qualified-type-def type-id='type-id-463' const='yes' id='type-id-464'/>
    <qualified-type-def type-id='type-id-380' const='yes' id='type-id-465'/>
    <reference-type-def kind='lvalue' type-id='type-id-465' size-in-bits='64' id='type-id-466'/>
    <pointer-type-def type-id='type-id-465' size-in-bits='64' id='type-id-467'/>
    <qualified-type-def type-id='type-id-467' const='yes' id='type-id-468'/>
    <qualified-type-def type-id='type-id-384' const='yes' id='type-id-469'/>
    <reference-type-def kind='lvalue' type-id='type-id-469' size-in-bits='64' id='type-id-470'/>
    <pointer-type-def type-id='type-id-469' size-in-bits='64' id='type-id-471'/>
    <qualified-type-def type-id='type-id-471' const='yes' id='type-id-472'/>
    <qualified-type-def type-id='type-id-387' const='yes' id='type-id-473'/>
    <reference-type-def kind='lvalue' type-id='type-id-473' size-in-bits='64' id='type-id-474'/>
    <pointer-type-def type-id='type-id-473' size-in-bits='64' id='type-id-475'/>
    <qualified-type-def type-id='type-id-475' const='yes' id='type-id-476'/>
    <qualified-type-def type-id='type-id-390' const='yes' id='type-id-477'/>
    <reference-type-def kind='lvalue' type-id='type-id-477' size-in-bits='64' id='type-id-478'/>
    <pointer-type-def type-id='type-id-477' size-in-bits='64' id='type-id-479'/>
    <qualified-type-def type-id='type-id-479' const='yes' id='type-id-480'/>
    <qualified-type-def type-id='type-id-393' const='yes' id='type-id-481'/>
    <pointer-type-def type-id='type-id-481' size-in-bits='64' id='type-id-482'/>
    <qualified-type-def type-id='type-id-482' const='yes' id='type-id-483'/>
    <qualified-type-def type-id='type-id-395' const='yes' id='type-id-484'/>
    <pointer-type-def type-id='type-id-484' size-in-bits='64' id='type-id-485'/>
    <qualified-type-def type-id='type-id-485' const='yes' id='type-id-486'/>
    <reference-type-def kind='lvalue' type-id='type-id-487' size-in-bits='64' id='type-id-488'/>
    <qualified-type-def type-id='type-id-57' const='yes' id='type-id-177'/>
    <reference-type-def kind='lvalue' type-id='type-id-177' size-in-bits='64' id='type-id-489'/>
    <qualified-type-def type-id='type-id-490' id='type-id-491'/>
    <reference-type-def kind='lvalue' type-id='type-id-117' size-in-bits='64' id='type-id-492'/>
    <qualified-type-def type-id='type-id-493' const='yes' id='type-id-494'/>
    <pointer-type-def type-id='type-id-494' size-in-bits='64' id='type-id-495'/>
    <qualified-type-def type-id='type-id-495' const='yes' id='type-id-496'/>
    <qualified-type-def type-id='type-id-497' const='yes' id='type-id-498'/>
    <reference-type-def kind='lvalue' type-id='type-id-498' size-in-bits='64' id='type-id-499'/>
    <pointer-type-def type-id='type-id-498' size-in-bits='64' id='type-id-500'/>
    <qualified-type-def type-id='type-id-500' const='yes' id='type-id-501'/>
    <qualified-type-def type-id='type-id-502' const='yes' id='type-id-503'/>
    <reference-type-def kind='lvalue' type-id='type-id-503' size-in-bits='64' id='type-id-504'/>
    <pointer-type-def type-id='type-id-503' size-in-bits='64' id='type-id-505'/>
    <qualified-type-def type-id='type-id-505' const='yes' id='type-id-506'/>
    <qualified-type-def type-id='type-id-507' const='yes' id='type-id-508'/>
    <reference-type-def kind='lvalue' type-id='type-id-508' size-in-bits='64' id='type-id-509'/>
    <pointer-type-def type-id='type-id-508' size-in-bits='64' id='type-id-510'/>
    <qualified-type-def type-id='type-id-510' const='yes' id='type-id-511'/>
    <qualified-type-def type-id='type-id-512' const='yes' id='type-id-513'/>
    <reference-type-def kind='lvalue' type-id='type-id-513' size-in-bits='64' id='type-id-514'/>
    <pointer-type-def type-id='type-id-513' size-in-bits='64' id='type-id-515'/>
    <qualified-type-def type-id='type-id-515' const='yes' id='type-id-516'/>
    <qualified-type-def type-id='type-id-193' const='yes' id='type-id-517'/>
    <qualified-type-def type-id='type-id-518' id='type-id-519'/>
    <reference-type-def kind='lvalue' type-id='type-id-517' size-in-bits='64' id='type-id-518'/>
    <pointer-type-def type-id='type-id-517' size-in-bits='64' id='type-id-520'/>
    <qualified-type-def type-id='type-id-520' const='yes' id='type-id-521'/>
    <qualified-type-def type-id='type-id-522' const='yes' id='type-id-523'/>
    <qualified-type-def type-id='type-id-524' id='type-id-525'/>
    <reference-type-def kind='lvalue' type-id='type-id-523' size-in-bits='64' id='type-id-524'/>
    <pointer-type-def type-id='type-id-523' size-in-bits='64' id='type-id-526'/>
    <qualified-type-def type-id='type-id-526' const='yes' id='type-id-527'/>
    <qualified-type-def type-id='type-id-528' const='yes' id='type-id-529'/>
    <qualified-type-def type-id='type-id-530' id='type-id-531'/>
    <reference-type-def kind='lvalue' type-id='type-id-529' size-in-bits='64' id='type-id-530'/>
    <pointer-type-def type-id='type-id-529' size-in-bits='64' id='type-id-532'/>
    <qualified-type-def type-id='type-id-532' const='yes' id='type-id-533'/>
    <qualified-type-def type-id='type-id-534' const='yes' id='type-id-535'/>
    <qualified-type-def type-id='type-id-536' id='type-id-537'/>
    <reference-type-def kind='lvalue' type-id='type-id-535' size-in-bits='64' id='type-id-536'/>
    <pointer-type-def type-id='type-id-535' size-in-bits='64' id='type-id-538'/>
    <qualified-type-def type-id='type-id-538' const='yes' id='type-id-539'/>
    <qualified-type-def type-id='type-id-540' const='yes' id='type-id-541'/>
    <reference-type-def kind='lvalue' type-id='type-id-541' size-in-bits='64' id='type-id-542'/>
    <pointer-type-def type-id='type-id-541' size-in-bits='64' id='type-id-543'/>
    <qualified-type-def type-id='type-id-544' const='yes' id='type-id-545'/>
    <reference-type-def kind='lvalue' type-id='type-id-545' size-in-bits='64' id='type-id-546'/>
    <qualified-type-def type-id='type-id-547' const='yes' id='type-id-548'/>
    <qualified-type-def type-id='type-id-549' id='type-id-550'/>
    <reference-type-def kind='lvalue' type-id='type-id-548' size-in-bits='64' id='type-id-549'/>
    <pointer-type-def type-id='type-id-548' size-in-bits='64' id='type-id-551'/>
    <qualified-type-def type-id='type-id-551' const='yes' id='type-id-552'/>
    <qualified-type-def type-id='type-id-553' const='yes' id='type-id-554'/>
    <qualified-type-def type-id='type-id-555' id='type-id-556'/>
    <reference-type-def kind='lvalue' type-id='type-id-554' size-in-bits='64' id='type-id-555'/>
    <pointer-type-def type-id='type-id-554' size-in-bits='64' id='type-id-557'/>
    <qualified-type-def type-id='type-id-557' const='yes' id='type-id-558'/>
    <qualified-type-def type-id='type-id-559' const='yes' id='type-id-560'/>
    <qualified-type-def type-id='type-id-561' id='type-id-562'/>
    <reference-type-def kind='lvalue' type-id='type-id-560' size-in-bits='64' id='type-id-561'/>
    <pointer-type-def type-id='type-id-560' size-in-bits='64' id='type-id-563'/>
    <qualified-type-def type-id='type-id-563' const='yes' id='type-id-564'/>
    <qualified-type-def type-id='type-id-565' const='yes' id='type-id-566'/>
    <qualified-type-def type-id='type-id-567' id='type-id-568'/>
    <reference-type-def kind='lvalue' type-id='type-id-566' size-in-bits='64' id='type-id-567'/>
    <pointer-type-def type-id='type-id-566' size-in-bits='64' id='type-id-569'/>
    <qualified-type-def type-id='type-id-569' const='yes' id='type-id-570'/>
    <qualified-type-def type-id='type-id-571' const='yes' id='type-id-572'/>
    <pointer-type-def type-id='type-id-572' size-in-bits='64' id='type-id-573'/>
    <qualified-type-def type-id='type-id-574' const='yes' id='type-id-575'/>
    <reference-type-def kind='lvalue' type-id='type-id-575' size-in-bits='64' id='type-id-576'/>
    <pointer-type-def type-id='type-id-575' size-in-bits='64' id='type-id-577'/>
    <qualified-type-def type-id='type-id-578' const='yes' id='type-id-579'/>
    <reference-type-def kind='lvalue' type-id='type-id-579' size-in-bits='64' id='type-id-580'/>
    <pointer-type-def type-id='type-id-579' size-in-bits='64' id='type-id-581'/>
    <qualified-type-def type-id='type-id-582' const='yes' id='type-id-583'/>
    <reference-type-def kind='lvalue' type-id='type-id-583' size-in-bits='64' id='type-id-584'/>
    <pointer-type-def type-id='type-id-583' size-in-bits='64' id='type-id-585'/>
    <qualified-type-def type-id='type-id-586' const='yes' id='type-id-587'/>
    <reference-type-def kind='lvalue' type-id='type-id-587' size-in-bits='64' id='type-id-588'/>
    <pointer-type-def type-id='type-id-587' size-in-bits='64' id='type-id-589'/>
    <qualified-type-def type-id='type-id-590' const='yes' id='type-id-591'/>
    <pointer-type-def type-id='type-id-591' size-in-bits='64' id='type-id-592'/>
    <qualified-type-def type-id='type-id-593' const='yes' id='type-id-594'/>
    <pointer-type-def type-id='type-id-594' size-in-bits='64' id='type-id-595'/>
    <qualified-type-def type-id='type-id-595' const='yes' id='type-id-596'/>
    <qualified-type-def type-id='type-id-597' const='yes' id='type-id-598'/>
    <pointer-type-def type-id='type-id-598' size-in-bits='64' id='type-id-599'/>
    <qualified-type-def type-id='type-id-599' const='yes' id='type-id-600'/>
    <qualified-type-def type-id='type-id-601' const='yes' id='type-id-602'/>
    <pointer-type-def type-id='type-id-602' size-in-bits='64' id='type-id-603'/>
    <qualified-type-def type-id='type-id-603' const='yes' id='type-id-604'/>
    <qualified-type-def type-id='type-id-605' const='yes' id='type-id-606'/>
    <pointer-type-def type-id='type-id-606' size-in-bits='64' id='type-id-607'/>
    <qualified-type-def type-id='type-id-607' const='yes' id='type-id-608'/>
    <qualified-type-def type-id='type-id-609' const='yes' id='type-id-610'/>
    <pointer-type-def type-id='type-id-610' size-in-bits='64' id='type-id-611'/>
    <qualified-type-def type-id='type-id-611' const='yes' id='type-id-612'/>
    <qualified-type-def type-id='type-id-613' const='yes' id='type-id-614'/>
    <pointer-type-def type-id='type-id-614' size-in-bits='64' id='type-id-615'/>
    <qualified-type-def type-id='type-id-615' const='yes' id='type-id-616'/>
    <qualified-type-def type-id='type-id-617' id='type-id-618'/>
    <qualified-type-def type-id='type-id-619' const='yes' id='type-id-620'/>
    <reference-type-def kind='lvalue' type-id='type-id-620' size-in-bits='64' id='type-id-621'/>
    <qualified-type-def type-id='type-id-622' const='yes' id='type-id-623'/>
    <qualified-type-def type-id='type-id-624' id='type-id-625'/>
    <reference-type-def kind='lvalue' type-id='type-id-623' size-in-bits='64' id='type-id-624'/>
    <pointer-type-def type-id='type-id-623' size-in-bits='64' id='type-id-626'/>
    <qualified-type-def type-id='type-id-626' const='yes' id='type-id-627'/>
    <qualified-type-def type-id='type-id-628' const='yes' id='type-id-629'/>
    <pointer-type-def type-id='type-id-629' size-in-bits='64' id='type-id-630'/>
    <qualified-type-def type-id='type-id-630' const='yes' id='type-id-631'/>
    <qualified-type-def type-id='type-id-632' id='type-id-633'/>
    <qualified-type-def type-id='type-id-634' const='yes' id='type-id-635'/>
    <qualified-type-def type-id='type-id-636' const='yes' id='type-id-637'/>
    <pointer-type-def type-id='type-id-637' size-in-bits='64' id='type-id-638'/>
    <qualified-type-def type-id='type-id-639' const='yes' id='type-id-640'/>
    <qualified-type-def type-id='type-id-641' id='type-id-642'/>
    <reference-type-def kind='lvalue' type-id='type-id-640' size-in-bits='64' id='type-id-641'/>
    <pointer-type-def type-id='type-id-640' size-in-bits='64' id='type-id-643'/>
    <qualified-type-def type-id='type-id-644' const='yes' id='type-id-645'/>
    <reference-type-def kind='lvalue' type-id='type-id-645' size-in-bits='64' id='type-id-646'/>
    <qualified-type-def type-id='type-id-647' const='yes' id='type-id-648'/>
    <reference-type-def kind='lvalue' type-id='type-id-648' size-in-bits='64' id='type-id-649'/>
    <pointer-type-def type-id='type-id-648' size-in-bits='64' id='type-id-650'/>
    <qualified-type-def type-id='type-id-650' const='yes' id='type-id-651'/>
    <qualified-type-def type-id='type-id-652' const='yes' id='type-id-653'/>
    <reference-type-def kind='lvalue' type-id='type-id-653' size-in-bits='64' id='type-id-654'/>
    <pointer-type-def type-id='type-id-653' size-in-bits='64' id='type-id-655'/>
    <qualified-type-def type-id='type-id-655' const='yes' id='type-id-656'/>
    <qualified-type-def type-id='type-id-327' const='yes' id='type-id-657'/>
    <reference-type-def kind='lvalue' type-id='type-id-657' size-in-bits='64' id='type-id-658'/>
    <pointer-type-def type-id='type-id-657' size-in-bits='64' id='type-id-659'/>
    <qualified-type-def type-id='type-id-329' const='yes' id='type-id-660'/>
    <reference-type-def kind='lvalue' type-id='type-id-660' size-in-bits='64' id='type-id-661'/>
    <pointer-type-def type-id='type-id-660' size-in-bits='64' id='type-id-662'/>
    <qualified-type-def type-id='type-id-331' const='yes' id='type-id-663'/>
    <reference-type-def kind='lvalue' type-id='type-id-663' size-in-bits='64' id='type-id-664'/>
    <pointer-type-def type-id='type-id-663' size-in-bits='64' id='type-id-665'/>
    <qualified-type-def type-id='type-id-665' const='yes' id='type-id-666'/>
    <qualified-type-def type-id='type-id-667' const='yes' id='type-id-668'/>
    <qualified-type-def type-id='type-id-669' id='type-id-670'/>
    <reference-type-def kind='lvalue' type-id='type-id-668' size-in-bits='64' id='type-id-669'/>
    <pointer-type-def type-id='type-id-668' size-in-bits='64' id='type-id-671'/>
    <qualified-type-def type-id='type-id-672' const='yes' id='type-id-673'/>
    <qualified-type-def type-id='type-id-674' id='type-id-675'/>
    <reference-type-def kind='lvalue' type-id='type-id-673' size-in-bits='64' id='type-id-674'/>
    <pointer-type-def type-id='type-id-673' size-in-bits='64' id='type-id-676'/>
    <qualified-type-def type-id='type-id-677' const='yes' id='type-id-678'/>
    <qualified-type-def type-id='type-id-679' id='type-id-680'/>
    <reference-type-def kind='lvalue' type-id='type-id-678' size-in-bits='64' id='type-id-679'/>
    <pointer-type-def type-id='type-id-678' size-in-bits='64' id='type-id-681'/>
    <qualified-type-def type-id='type-id-682' const='yes' id='type-id-683'/>
    <reference-type-def kind='lvalue' type-id='type-id-683' size-in-bits='64' id='type-id-684'/>
    <qualified-type-def type-id='type-id-685' const='yes' id='type-id-686'/>
    <reference-type-def kind='lvalue' type-id='type-id-686' size-in-bits='64' id='type-id-687'/>
    <qualified-type-def type-id='type-id-335' const='yes' id='type-id-688'/>
    <reference-type-def kind='lvalue' type-id='type-id-688' size-in-bits='64' id='type-id-689'/>
    <pointer-type-def type-id='type-id-688' size-in-bits='64' id='type-id-690'/>
    <qualified-type-def type-id='type-id-690' const='yes' id='type-id-691'/>
    <qualified-type-def type-id='type-id-333' const='yes' id='type-id-692'/>
    <reference-type-def kind='lvalue' type-id='type-id-692' size-in-bits='64' id='type-id-693'/>
    <pointer-type-def type-id='type-id-692' size-in-bits='64' id='type-id-694'/>
    <qualified-type-def type-id='type-id-694' const='yes' id='type-id-695'/>
    <qualified-type-def type-id='type-id-696' const='yes' id='type-id-697'/>
    <reference-type-def kind='lvalue' type-id='type-id-697' size-in-bits='64' id='type-id-698'/>
    <pointer-type-def type-id='type-id-697' size-in-bits='64' id='type-id-699'/>
    <qualified-type-def type-id='type-id-699' const='yes' id='type-id-700'/>
    <qualified-type-def type-id='type-id-701' const='yes' id='type-id-702'/>
    <reference-type-def kind='lvalue' type-id='type-id-702' size-in-bits='64' id='type-id-703'/>
    <pointer-type-def type-id='type-id-702' size-in-bits='64' id='type-id-704'/>
    <qualified-type-def type-id='type-id-704' const='yes' id='type-id-705'/>
    <qualified-type-def type-id='type-id-12' const='yes' id='type-id-262'/>
    <qualified-type-def type-id='type-id-706' id='type-id-707'/>
    <pointer-type-def type-id='type-id-708' size-in-bits='64' id='type-id-709'/>
    <reference-type-def kind='lvalue' type-id='type-id-497' size-in-bits='64' id='type-id-710'/>
    <pointer-type-def type-id='type-id-497' size-in-bits='64' id='type-id-711'/>
    <qualified-type-def type-id='type-id-711' const='yes' id='type-id-712'/>
    <pointer-type-def type-id='type-id-713' size-in-bits='64' id='type-id-714'/>
    <qualified-type-def type-id='type-id-714' const='yes' id='type-id-715'/>
    <reference-type-def kind='lvalue' type-id='type-id-502' size-in-bits='64' id='type-id-716'/>
    <pointer-type-def type-id='type-id-502' size-in-bits='64' id='type-id-717'/>
    <qualified-type-def type-id='type-id-717' const='yes' id='type-id-718'/>
    <pointer-type-def type-id='type-id-719' size-in-bits='64' id='type-id-720'/>
    <qualified-type-def type-id='type-id-720' const='yes' id='type-id-721'/>
    <reference-type-def kind='lvalue' type-id='type-id-507' size-in-bits='64' id='type-id-722'/>
    <pointer-type-def type-id='type-id-507' size-in-bits='64' id='type-id-723'/>
    <qualified-type-def type-id='type-id-723' const='yes' id='type-id-724'/>
    <pointer-type-def type-id='type-id-725' size-in-bits='64' id='type-id-726'/>
    <qualified-type-def type-id='type-id-726' const='yes' id='type-id-727'/>
    <reference-type-def kind='lvalue' type-id='type-id-512' size-in-bits='64' id='type-id-728'/>
    <pointer-type-def type-id='type-id-512' size-in-bits='64' id='type-id-729'/>
    <qualified-type-def type-id='type-id-729' const='yes' id='type-id-730'/>
    <pointer-type-def type-id='type-id-731' size-in-bits='64' id='type-id-732'/>
    <qualified-type-def type-id='type-id-732' const='yes' id='type-id-733'/>
    <reference-type-def kind='lvalue' type-id='type-id-193' size-in-bits='64' id='type-id-734'/>
    <pointer-type-def type-id='type-id-193' size-in-bits='64' id='type-id-735'/>
    <qualified-type-def type-id='type-id-735' const='yes' id='type-id-736'/>
    <reference-type-def kind='lvalue' type-id='type-id-522' size-in-bits='64' id='type-id-737'/>
    <pointer-type-def type-id='type-id-522' size-in-bits='64' id='type-id-738'/>
    <reference-type-def kind='lvalue' type-id='type-id-528' size-in-bits='64' id='type-id-739'/>
    <pointer-type-def type-id='type-id-528' size-in-bits='64' id='type-id-740'/>
    <reference-type-def kind='lvalue' type-id='type-id-534' size-in-bits='64' id='type-id-741'/>
    <pointer-type-def type-id='type-id-534' size-in-bits='64' id='type-id-742'/>
    <qualified-type-def type-id='type-id-742' const='yes' id='type-id-743'/>
    <reference-type-def kind='lvalue' type-id='type-id-540' size-in-bits='64' id='type-id-744'/>
    <pointer-type-def type-id='type-id-540' size-in-bits='64' id='type-id-745'/>
    <qualified-type-def type-id='type-id-745' const='yes' id='type-id-746'/>
    <reference-type-def kind='lvalue' type-id='type-id-547' size-in-bits='64' id='type-id-747'/>
    <pointer-type-def type-id='type-id-547' size-in-bits='64' id='type-id-748'/>
    <qualified-type-def type-id='type-id-748' const='yes' id='type-id-749'/>
    <reference-type-def kind='lvalue' type-id='type-id-553' size-in-bits='64' id='type-id-750'/>
    <pointer-type-def type-id='type-id-553' size-in-bits='64' id='type-id-751'/>
    <qualified-type-def type-id='type-id-751' const='yes' id='type-id-752'/>
    <reference-type-def kind='lvalue' type-id='type-id-559' size-in-bits='64' id='type-id-753'/>
    <pointer-type-def type-id='type-id-559' size-in-bits='64' id='type-id-754'/>
    <qualified-type-def type-id='type-id-754' const='yes' id='type-id-755'/>
    <reference-type-def kind='lvalue' type-id='type-id-565' size-in-bits='64' id='type-id-756'/>
    <pointer-type-def type-id='type-id-565' size-in-bits='64' id='type-id-757'/>
    <qualified-type-def type-id='type-id-757' const='yes' id='type-id-758'/>
    <reference-type-def kind='lvalue' type-id='type-id-574' size-in-bits='64' id='type-id-759'/>
    <pointer-type-def type-id='type-id-574' size-in-bits='64' id='type-id-760'/>
    <reference-type-def kind='lvalue' type-id='type-id-578' size-in-bits='64' id='type-id-761'/>
    <pointer-type-def type-id='type-id-578' size-in-bits='64' id='type-id-762'/>
    <reference-type-def kind='lvalue' type-id='type-id-582' size-in-bits='64' id='type-id-763'/>
    <pointer-type-def type-id='type-id-582' size-in-bits='64' id='type-id-764'/>
    <reference-type-def kind='lvalue' type-id='type-id-586' size-in-bits='64' id='type-id-765'/>
    <pointer-type-def type-id='type-id-586' size-in-bits='64' id='type-id-766'/>
    <pointer-type-def type-id='type-id-590' size-in-bits='64' id='type-id-767'/>
    <reference-type-def kind='lvalue' type-id='type-id-767' size-in-bits='64' id='type-id-768'/>
    <pointer-type-def type-id='type-id-605' size-in-bits='64' id='type-id-769'/>
    <qualified-type-def type-id='type-id-769' const='yes' id='type-id-770'/>
    <pointer-type-def type-id='type-id-771' size-in-bits='64' id='type-id-772'/>
    <pointer-type-def type-id='type-id-609' size-in-bits='64' id='type-id-773'/>
    <qualified-type-def type-id='type-id-773' const='yes' id='type-id-774'/>
    <pointer-type-def type-id='type-id-775' size-in-bits='64' id='type-id-776'/>
    <pointer-type-def type-id='type-id-613' size-in-bits='64' id='type-id-777'/>
    <qualified-type-def type-id='type-id-777' const='yes' id='type-id-778'/>
    <pointer-type-def type-id='type-id-779' size-in-bits='64' id='type-id-780'/>
    <reference-type-def kind='lvalue' type-id='type-id-619' size-in-bits='64' id='type-id-781'/>
    <pointer-type-def type-id='type-id-619' size-in-bits='64' id='type-id-782'/>
    <reference-type-def kind='lvalue' type-id='type-id-622' size-in-bits='64' id='type-id-783'/>
    <pointer-type-def type-id='type-id-622' size-in-bits='64' id='type-id-784'/>
    <pointer-type-def type-id='type-id-785' size-in-bits='64' id='type-id-786'/>
    <reference-type-def kind='lvalue' type-id='type-id-628' size-in-bits='64' id='type-id-787'/>
    <pointer-type-def type-id='type-id-628' size-in-bits='64' id='type-id-788'/>
    <qualified-type-def type-id='type-id-788' const='yes' id='type-id-789'/>
    <qualified-type-def type-id='type-id-790' const='yes' id='type-id-791'/>
    <qualified-type-def type-id='type-id-792' const='yes' id='type-id-793'/>
    <qualified-type-def type-id='type-id-794' id='type-id-795'/>
    <reference-type-def kind='lvalue' type-id='type-id-639' size-in-bits='64' id='type-id-794'/>
    <pointer-type-def type-id='type-id-639' size-in-bits='64' id='type-id-796'/>
    <reference-type-def kind='lvalue' type-id='type-id-327' size-in-bits='64' id='type-id-797'/>
    <pointer-type-def type-id='type-id-327' size-in-bits='64' id='type-id-798'/>
    <qualified-type-def type-id='type-id-798' const='yes' id='type-id-799'/>
    <reference-type-def kind='lvalue' type-id='type-id-329' size-in-bits='64' id='type-id-800'/>
    <pointer-type-def type-id='type-id-329' size-in-bits='64' id='type-id-801'/>
    <qualified-type-def type-id='type-id-801' const='yes' id='type-id-802'/>
    <reference-type-def kind='lvalue' type-id='type-id-331' size-in-bits='64' id='type-id-803'/>
    <pointer-type-def type-id='type-id-331' size-in-bits='64' id='type-id-804'/>
    <qualified-type-def type-id='type-id-804' const='yes' id='type-id-805'/>
    <reference-type-def kind='lvalue' type-id='type-id-667' size-in-bits='64' id='type-id-806'/>
    <pointer-type-def type-id='type-id-667' size-in-bits='64' id='type-id-807'/>
    <reference-type-def kind='lvalue' type-id='type-id-672' size-in-bits='64' id='type-id-808'/>
    <pointer-type-def type-id='type-id-672' size-in-bits='64' id='type-id-809'/>
    <reference-type-def kind='lvalue' type-id='type-id-677' size-in-bits='64' id='type-id-810'/>
    <pointer-type-def type-id='type-id-677' size-in-bits='64' id='type-id-811'/>
    <pointer-type-def type-id='type-id-682' size-in-bits='64' id='type-id-812'/>
    <pointer-type-def type-id='type-id-685' size-in-bits='64' id='type-id-813'/>
    <pointer-type-def type-id='type-id-814' size-in-bits='64' id='type-id-815'/>
    <pointer-type-def type-id='type-id-816' size-in-bits='64' id='type-id-817'/>
    <pointer-type-def type-id='type-id-818' size-in-bits='64' id='type-id-819'/>
    <pointer-type-def type-id='type-id-820' size-in-bits='64' id='type-id-821'/>
    <pointer-type-def type-id='type-id-822' size-in-bits='64' id='type-id-823'/>
    <reference-type-def kind='lvalue' type-id='type-id-335' size-in-bits='64' id='type-id-824'/>
    <pointer-type-def type-id='type-id-335' size-in-bits='64' id='type-id-825'/>
    <qualified-type-def type-id='type-id-825' const='yes' id='type-id-826'/>
    <qualified-type-def type-id='type-id-827' id='type-id-828'/>
    <reference-type-def kind='lvalue' type-id='type-id-333' size-in-bits='64' id='type-id-827'/>
    <pointer-type-def type-id='type-id-333' size-in-bits='64' id='type-id-829'/>
    <qualified-type-def type-id='type-id-829' const='yes' id='type-id-830'/>
    <reference-type-def kind='lvalue' type-id='type-id-696' size-in-bits='64' id='type-id-831'/>
    <pointer-type-def type-id='type-id-696' size-in-bits='64' id='type-id-346'/>
    <qualified-type-def type-id='type-id-346' const='yes' id='type-id-832'/>
    <reference-type-def kind='lvalue' type-id='type-id-701' size-in-bits='64' id='type-id-833'/>
    <pointer-type-def type-id='type-id-701' size-in-bits='64' id='type-id-834'/>
    <qualified-type-def type-id='type-id-834' const='yes' id='type-id-835'/>
    <pointer-type-def type-id='type-id-836' size-in-bits='64' id='type-id-837'/>
    <reference-type-def kind='lvalue' type-id='type-id-5' size-in-bits='64' id='type-id-838'/>
    <pointer-type-def type-id='type-id-5' size-in-bits='64' id='type-id-839'/>
    <qualified-type-def type-id='type-id-176' const='yes' id='type-id-840'/>
    <qualified-type-def type-id='type-id-841' id='type-id-842'/>
    <reference-type-def kind='lvalue' type-id='type-id-840' size-in-bits='64' id='type-id-841'/>
    <pointer-type-def type-id='type-id-840' size-in-bits='64' id='type-id-843'/>
    <reference-type-def kind='lvalue' type-id='type-id-176' size-in-bits='64' id='type-id-844'/>
    <pointer-type-def type-id='type-id-176' size-in-bits='64' id='type-id-845'/>
    <qualified-type-def type-id='type-id-845' const='yes' id='type-id-846'/>
    <reference-type-def kind='lvalue' type-id='type-id-846' size-in-bits='64' id='type-id-847'/>
    <pointer-type-def type-id='type-id-848' size-in-bits='64' id='type-id-239'/>
    <pointer-type-def type-id='type-id-849' size-in-bits='64' id='type-id-267'/>
    <pointer-type-def type-id='type-id-850' size-in-bits='64' id='type-id-237'/>
    <pointer-type-def type-id='type-id-851' size-in-bits='64' id='type-id-342'/>
    <pointer-type-def type-id='type-id-342' size-in-bits='64' id='type-id-852'/>
    <pointer-type-def type-id='type-id-853' size-in-bits='64' id='type-id-340'/>
    <pointer-type-def type-id='type-id-340' size-in-bits='64' id='type-id-854'/>
    <pointer-type-def type-id='type-id-855' size-in-bits='64' id='type-id-233'/>
    <qualified-type-def type-id='type-id-58' const='yes' id='type-id-59'/>
    <qualified-type-def type-id='type-id-856' id='type-id-857'/>
    <reference-type-def kind='lvalue' type-id='type-id-59' size-in-bits='64' id='type-id-856'/>
    <pointer-type-def type-id='type-id-59' size-in-bits='64' id='type-id-205'/>
    <reference-type-def kind='lvalue' type-id='type-id-58' size-in-bits='64' id='type-id-858'/>
    <qualified-type-def type-id='type-id-151' const='yes' id='type-id-859'/>
    <reference-type-def kind='lvalue' type-id='type-id-859' size-in-bits='64' id='type-id-860'/>
    <namespace-decl name='std'>
      <class-decl name='random_access_iterator_tag' size-in-bits='8' is-struct='yes' visibility='default' filepath='/usr/lib/gcc/x86_64-redhat-linux/4.4.7/../../../../include/c++/4.4.7/bits/stl_iterator_base_types.h' line='89' column='1' id='type-id-861'>
        <base-class access='public' layout-offset-in-bits='0' type-id='type-id-862'/>
      </class-decl>
      <class-decl name='bidirectional_iterator_tag' size-in-bits='8' is-struct='yes' visibility='default' filepath='/usr/lib/gcc/x86_64-redhat-linux/4.4.7/../../../../include/c++/4.4.7/bits/stl_iterator_base_types.h' line='86' column='1' id='type-id-862'>
        <base-class access='public' layout-offset-in-bits='0' type-id='type-id-863'/>
      </class-decl>
      <class-decl name='forward_iterator_tag' size-in-bits='8' is-struct='yes' visibility='default' filepath='/usr/lib/gcc/x86_64-redhat-linux/4.4.7/../../../../include/c++/4.4.7/bits/stl_iterator_base_types.h' line='83' column='1' id='type-id-863'>
        <base-class access='public' layout-offset-in-bits='0' type-id='type-id-864'/>
      </class-decl>
      <class-decl name='input_iterator_tag' size-in-bits='8' is-struct='yes' visibility='default' filepath='/usr/lib/gcc/x86_64-redhat-linux/4.4.7/../../../../include/c++/4.4.7/bits/stl_iterator_base_types.h' line='79' column='1' id='type-id-864'/>
      <class-decl name='pair&lt;long unsigned int, HeapLeakChecker::RangeValue&gt;' size-in-bits='192' is-struct='yes' visibility='default' filepath='/usr/lib/gcc/x86_64-redhat-linux/4.4.7/../../../../include/c++/4.4.7/bits/stl_pair.h' line='68' column='1' id='type-id-682'>
        <data-member access='public' layout-offset-in-bits='0'>
          <var-decl name='first' type-id='type-id-5' visibility='default' filepath='/usr/lib/gcc/x86_64-redhat-linux/4.4.7/../../../../include/c++/4.4.7/bits/stl_pair.h' line='72' column='1'/>
        </data-member>
        <data-member access='public' layout-offset-in-bits='64'>
          <var-decl name='second' type-id='type-id-283' visibility='default' filepath='/usr/lib/gcc/x86_64-redhat-linux/4.4.7/../../../../include/c++/4.4.7/bits/stl_pair.h' line='73' column='1'/>
        </data-member>
        <member-function access='public'>
          <function-decl name='pair' filepath='/usr/lib/gcc/x86_64-redhat-linux/4.4.7/../../../../include/c++/4.4.7/bits/stl_pair.h' line='79' column='1' visibility='default' binding='global' size-in-bits='64'>
            <parameter type-id='type-id-812' is-artificial='yes'/>
            <return type-id='type-id-60'/>
          </function-decl>
        </member-function>
        <member-function access='public'>
          <function-decl name='pair' filepath='/usr/lib/gcc/x86_64-redhat-linux/4.4.7/../../../../include/c++/4.4.7/bits/stl_pair.h' line='83' column='1' visibility='default' binding='global' size-in-bits='64'>
            <parameter type-id='type-id-812' is-artificial='yes'/>
            <parameter type-id='type-id-706'/>
            <parameter type-id='type-id-408'/>
            <return type-id='type-id-60'/>
          </function-decl>
        </member-function>
      </class-decl>
      <class-decl name='_Rb_tree_node_base' size-in-bits='256' is-struct='yes' visibility='default' filepath='/usr/lib/gcc/x86_64-redhat-linux/4.4.7/../../../../include/c++/4.4.7/bits/stl_tree.h' line='88' column='1' id='type-id-590'>
        <member-type access='public'>
          <typedef-decl name='_Base_ptr' type-id='type-id-767' filepath='/usr/lib/gcc/x86_64-redhat-linux/4.4.7/../../../../include/c++/4.4.7/bits/stl_tree.h' line='89' column='1' id='type-id-865'/>
        </member-type>
        <member-type access='public'>
          <typedef-decl name='_Const_Base_ptr' type-id='type-id-592' filepath='/usr/lib/gcc/x86_64-redhat-linux/4.4.7/../../../../include/c++/4.4.7/bits/stl_tree.h' line='90' column='1' id='type-id-866'/>
        </member-type>
        <data-member access='public' layout-offset-in-bits='0'>
          <var-decl name='_M_color' type-id='type-id-867' visibility='default' filepath='/usr/lib/gcc/x86_64-redhat-linux/4.4.7/../../../../include/c++/4.4.7/bits/stl_tree.h' line='92' column='1'/>
        </data-member>
        <data-member access='public' layout-offset-in-bits='64'>
          <var-decl name='_M_parent' type-id='type-id-865' visibility='default' filepath='/usr/lib/gcc/x86_64-redhat-linux/4.4.7/../../../../include/c++/4.4.7/bits/stl_tree.h' line='93' column='1'/>
        </data-member>
        <data-member access='public' layout-offset-in-bits='128'>
          <var-decl name='_M_left' type-id='type-id-865' visibility='default' filepath='/usr/lib/gcc/x86_64-redhat-linux/4.4.7/../../../../include/c++/4.4.7/bits/stl_tree.h' line='94' column='1'/>
        </data-member>
        <data-member access='public' layout-offset-in-bits='192'>
          <var-decl name='_M_right' type-id='type-id-865' visibility='default' filepath='/usr/lib/gcc/x86_64-redhat-linux/4.4.7/../../../../include/c++/4.4.7/bits/stl_tree.h' line='95' column='1'/>
        </data-member>
      </class-decl>
      <class-decl name='allocator&lt;void (*)()&gt;' size-in-bits='8' visibility='default' filepath='/usr/lib/gcc/x86_64-redhat-linux/4.4.7/../../../../include/c++/4.4.7/bits/allocator.h' line='87' column='1' id='type-id-619'>
        <base-class access='public' layout-offset-in-bits='0' type-id='type-id-390'/>
        <member-function access='private'>
          <function-decl name='allocator' filepath='/usr/lib/gcc/x86_64-redhat-linux/4.4.7/../../../../include/c++/4.4.7/bits/allocator.h' line='101' column='1' visibility='default' binding='global' size-in-bits='64'>
            <parameter type-id='type-id-782' is-artificial='yes'/>
            <return type-id='type-id-60'/>
          </function-decl>
        </member-function>
        <member-function access='private'>
          <function-decl name='allocator' filepath='/usr/lib/gcc/x86_64-redhat-linux/4.4.7/../../../../include/c++/4.4.7/bits/allocator.h' line='103' column='1' visibility='default' binding='global' size-in-bits='64'>
            <parameter type-id='type-id-782' is-artificial='yes'/>
            <parameter type-id='type-id-621'/>
            <return type-id='type-id-60'/>
          </function-decl>
        </member-function>
        <member-function access='private' destructor='yes'>
          <function-decl name='~allocator' filepath='/usr/lib/gcc/x86_64-redhat-linux/4.4.7/../../../../include/c++/4.4.7/bits/allocator.h' line='109' column='1' visibility='default' binding='global' size-in-bits='64'>
            <parameter type-id='type-id-782' is-artificial='yes'/>
            <parameter type-id='type-id-1' is-artificial='yes'/>
            <return type-id='type-id-60'/>
          </function-decl>
        </member-function>
      </class-decl>
      <class-decl name='_Rb_tree_const_iterator&lt;MemoryRegionMap::Region&gt;' size-in-bits='64' is-struct='yes' visibility='default' filepath='/usr/lib/gcc/x86_64-redhat-linux/4.4.7/../../../../include/c++/4.4.7/bits/stl_tree.h' line='224' column='1' id='type-id-193'>
        <data-member access='public' layout-offset-in-bits='0'>
          <var-decl name='_M_node' type-id='type-id-866' visibility='default' filepath='/usr/lib/gcc/x86_64-redhat-linux/4.4.7/../../../../include/c++/4.4.7/bits/stl_tree.h' line='294' column='1'/>
        </data-member>
        <member-function access='public'>
          <function-decl name='_Rb_tree_const_iterator' filepath='/usr/lib/gcc/x86_64-redhat-linux/4.4.7/../../../../include/c++/4.4.7/bits/stl_tree.h' line='238' column='1' visibility='default' binding='global' size-in-bits='64'>
            <parameter type-id='type-id-735' is-artificial='yes'/>
            <return type-id='type-id-60'/>
          </function-decl>
        </member-function>
        <member-function access='public'>
          <function-decl name='_Rb_tree_const_iterator' filepath='/usr/lib/gcc/x86_64-redhat-linux/4.4.7/../../../../include/c++/4.4.7/bits/stl_tree.h' line='242' column='1' visibility='default' binding='global' size-in-bits='64'>
            <parameter type-id='type-id-735' is-artificial='yes'/>
            <parameter type-id='type-id-573'/>
            <return type-id='type-id-60'/>
          </function-decl>
        </member-function>
        <member-function access='public'>
          <function-decl name='_Rb_tree_const_iterator' filepath='/usr/lib/gcc/x86_64-redhat-linux/4.4.7/../../../../include/c++/4.4.7/bits/stl_tree.h' line='245' column='1' visibility='default' binding='global' size-in-bits='64'>
            <parameter type-id='type-id-735' is-artificial='yes'/>
            <parameter type-id='type-id-546'/>
            <return type-id='type-id-60'/>
          </function-decl>
        </member-function>
      </class-decl>
      <class-decl name='pair&lt;long unsigned int, long unsigned int&gt;' size-in-bits='128' is-struct='yes' visibility='default' filepath='/usr/lib/gcc/x86_64-redhat-linux/4.4.7/../../../../include/c++/4.4.7/bits/stl_pair.h' line='68' column='1' id='type-id-685'>
        <data-member access='public' layout-offset-in-bits='0'>
          <var-decl name='first' type-id='type-id-5' visibility='default' filepath='/usr/lib/gcc/x86_64-redhat-linux/4.4.7/../../../../include/c++/4.4.7/bits/stl_pair.h' line='72' column='1'/>
        </data-member>
        <data-member access='public' layout-offset-in-bits='64'>
          <var-decl name='second' type-id='type-id-5' visibility='default' filepath='/usr/lib/gcc/x86_64-redhat-linux/4.4.7/../../../../include/c++/4.4.7/bits/stl_pair.h' line='73' column='1'/>
        </data-member>
        <member-function access='public'>
          <function-decl name='pair' filepath='/usr/lib/gcc/x86_64-redhat-linux/4.4.7/../../../../include/c++/4.4.7/bits/stl_pair.h' line='79' column='1' visibility='default' binding='global' size-in-bits='64'>
            <parameter type-id='type-id-813' is-artificial='yes'/>
            <return type-id='type-id-60'/>
          </function-decl>
        </member-function>
        <member-function access='public'>
          <function-decl name='pair' filepath='/usr/lib/gcc/x86_64-redhat-linux/4.4.7/../../../../include/c++/4.4.7/bits/stl_pair.h' line='83' column='1' visibility='default' binding='global' size-in-bits='64'>
            <parameter type-id='type-id-813' is-artificial='yes'/>
            <parameter type-id='type-id-706'/>
            <parameter type-id='type-id-706'/>
            <return type-id='type-id-60'/>
          </function-decl>
        </member-function>
      </class-decl>
      <class-decl name='_Rb_tree_iterator&lt;MemoryRegionMap::Region&gt;' size-in-bits='64' is-struct='yes' visibility='default' filepath='/usr/lib/gcc/x86_64-redhat-linux/4.4.7/../../../../include/c++/4.4.7/bits/stl_tree.h' line='154' column='1' id='type-id-544'>
        <data-member access='public' layout-offset-in-bits='0'>
          <var-decl name='_M_node' type-id='type-id-865' visibility='default' filepath='/usr/lib/gcc/x86_64-redhat-linux/4.4.7/../../../../include/c++/4.4.7/bits/stl_tree.h' line='219' column='1'/>
        </data-member>
        <member-function access='public'>
          <function-decl name='_Rb_tree_iterator' filepath='/usr/lib/gcc/x86_64-redhat-linux/4.4.7/../../../../include/c++/4.4.7/bits/stl_tree.h' line='166' column='1' visibility='default' binding='global' size-in-bits='64'>
            <parameter type-id='type-id-868' is-artificial='yes'/>
            <return type-id='type-id-60'/>
          </function-decl>
        </member-function>
        <member-function access='public'>
          <function-decl name='_Rb_tree_iterator' filepath='/usr/lib/gcc/x86_64-redhat-linux/4.4.7/../../../../include/c++/4.4.7/bits/stl_tree.h' line='170' column='1' visibility='default' binding='global' size-in-bits='64'>
            <parameter type-id='type-id-868' is-artificial='yes'/>
            <parameter type-id='type-id-869'/>
            <return type-id='type-id-60'/>
          </function-decl>
        </member-function>
      </class-decl>
      <class-decl name='__niter_base&lt;void**, false&gt;' size-in-bits='8' is-struct='yes' visibility='default' filepath='/usr/lib/gcc/x86_64-redhat-linux/4.4.7/../../../../include/c++/4.4.7/bits/stl_algobase.h' line='267' column='1' id='type-id-870'/>
      <class-decl name='__miter_base&lt;void**, false&gt;' size-in-bits='8' is-struct='yes' visibility='default' filepath='/usr/lib/gcc/x86_64-redhat-linux/4.4.7/../../../../include/c++/4.4.7/bits/stl_algobase.h' line='285' column='1' id='type-id-871'/>
      <class-decl name='_Vector_base&lt;AllocObject, STL_Allocator&lt;AllocObject, HeapLeakChecker::Allocator&gt; &gt;' size-in-bits='192' is-struct='yes' visibility='default' filepath='/usr/lib/gcc/x86_64-redhat-linux/4.4.7/../../../../include/c++/4.4.7/bits/stl_vector.h' line='70' column='1' id='type-id-605'>
        <member-type access='public'>
          <class-decl name='_Vector_impl' size-in-bits='192' is-struct='yes' visibility='default' filepath='/usr/lib/gcc/x86_64-redhat-linux/4.4.7/../../../../include/c++/4.4.7/bits/stl_vector.h' line='75' column='1' id='type-id-771'>
            <base-class access='public' layout-offset-in-bits='0' type-id='type-id-168'/>
            <data-member access='public' layout-offset-in-bits='0'>
              <var-decl name='_M_start' type-id='type-id-167' visibility='default' filepath='/usr/lib/gcc/x86_64-redhat-linux/4.4.7/../../../../include/c++/4.4.7/bits/stl_vector.h' line='76' column='1'/>
            </data-member>
            <data-member access='public' layout-offset-in-bits='64'>
              <var-decl name='_M_finish' type-id='type-id-167' visibility='default' filepath='/usr/lib/gcc/x86_64-redhat-linux/4.4.7/../../../../include/c++/4.4.7/bits/stl_vector.h' line='77' column='1'/>
            </data-member>
            <data-member access='public' layout-offset-in-bits='128'>
              <var-decl name='_M_end_of_storage' type-id='type-id-167' visibility='default' filepath='/usr/lib/gcc/x86_64-redhat-linux/4.4.7/../../../../include/c++/4.4.7/bits/stl_vector.h' line='78' column='1'/>
            </data-member>
            <member-function access='public' constructor='yes'>
              <function-decl name='_Vector_impl' filepath='/usr/lib/gcc/x86_64-redhat-linux/4.4.7/../../../../include/c++/4.4.7/bits/stl_vector.h' line='80' column='1' visibility='default' binding='global' size-in-bits='64'>
                <parameter type-id='type-id-772' is-artificial='yes'/>
                <return type-id='type-id-60'/>
              </function-decl>
            </member-function>
            <member-function access='public' constructor='yes'>
              <function-decl name='_Vector_impl' filepath='/usr/lib/gcc/x86_64-redhat-linux/4.4.7/../../../../include/c++/4.4.7/bits/stl_vector.h' line='84' column='1' visibility='default' binding='global' size-in-bits='64'>
                <parameter type-id='type-id-772' is-artificial='yes'/>
                <parameter type-id='type-id-170'/>
                <return type-id='type-id-60'/>
              </function-decl>
            </member-function>
          </class-decl>
        </member-type>
        <data-member access='public' layout-offset-in-bits='0'>
          <var-decl name='_M_impl' type-id='type-id-771' visibility='default' filepath='/usr/lib/gcc/x86_64-redhat-linux/4.4.7/../../../../include/c++/4.4.7/bits/stl_vector.h' line='136' column='1'/>
        </data-member>
        <member-function access='public'>
          <function-decl name='_Vector_base' filepath='/usr/lib/gcc/x86_64-redhat-linux/4.4.7/../../../../include/c++/4.4.7/bits/stl_vector.h' line='104' column='1' visibility='default' binding='global' size-in-bits='64'>
            <parameter type-id='type-id-769' is-artificial='yes'/>
            <return type-id='type-id-60'/>
          </function-decl>
        </member-function>
        <member-function access='public'>
          <function-decl name='_Vector_base' filepath='/usr/lib/gcc/x86_64-redhat-linux/4.4.7/../../../../include/c++/4.4.7/bits/stl_vector.h' line='107' column='1' visibility='default' binding='global' size-in-bits='64'>
            <parameter type-id='type-id-769' is-artificial='yes'/>
            <parameter type-id='type-id-170'/>
            <return type-id='type-id-60'/>
          </function-decl>
        </member-function>
        <member-function access='public'>
          <function-decl name='_Vector_base' filepath='/usr/lib/gcc/x86_64-redhat-linux/4.4.7/../../../../include/c++/4.4.7/bits/stl_vector.h' line='110' column='1' visibility='default' binding='global' size-in-bits='64'>
            <parameter type-id='type-id-769' is-artificial='yes'/>
            <parameter type-id='type-id-5'/>
            <parameter type-id='type-id-170'/>
            <return type-id='type-id-60'/>
          </function-decl>
        </member-function>
        <member-function access='public' destructor='yes'>
          <function-decl name='~_Vector_base' filepath='/usr/lib/gcc/x86_64-redhat-linux/4.4.7/../../../../include/c++/4.4.7/bits/stl_vector.h' line='131' column='1' visibility='default' binding='global' size-in-bits='64'>
            <parameter type-id='type-id-769' is-artificial='yes'/>
            <parameter type-id='type-id-1' is-artificial='yes'/>
            <return type-id='type-id-60'/>
          </function-decl>
        </member-function>
      </class-decl>
      <class-decl name='__alloc_swap&lt;STL_Allocator&lt;AllocObject, HeapLeakChecker::Allocator&gt;, true&gt;' size-in-bits='8' is-struct='yes' visibility='default' filepath='/usr/lib/gcc/x86_64-redhat-linux/4.4.7/../../../../include/c++/4.4.7/bits/allocator.h' line='148' column='1' id='type-id-872'/>
      <class-decl name='basic_string&lt;char, std::char_traits&lt;char&gt;, STL_Allocator&lt;char, HeapLeakChecker::Allocator&gt; &gt;' size-in-bits='64' visibility='default' filepath='/usr/lib/gcc/x86_64-redhat-linux/4.4.7/../../../../include/c++/4.4.7/bits/basic_string.h' line='105' column='1' id='type-id-622'>
        <member-type access='private'>
          <class-decl name='_Alloc_hider' size-in-bits='64' is-struct='yes' visibility='default' filepath='/usr/lib/gcc/x86_64-redhat-linux/4.4.7/../../../../include/c++/4.4.7/bits/basic_string.h' line='258' column='1' id='type-id-785'>
            <base-class access='public' layout-offset-in-bits='0' type-id='type-id-297'/>
            <data-member access='public' layout-offset-in-bits='0'>
              <var-decl name='_M_p' type-id='type-id-118' visibility='default' filepath='/usr/lib/gcc/x86_64-redhat-linux/4.4.7/../../../../include/c++/4.4.7/bits/basic_string.h' line='262' column='1'/>
            </data-member>
            <member-function access='public' constructor='yes'>
              <function-decl name='_Alloc_hider' filepath='/usr/lib/gcc/x86_64-redhat-linux/4.4.7/../../../../include/c++/4.4.7/bits/basic_string.h' line='259' column='1' visibility='default' binding='global' size-in-bits='64'>
                <parameter type-id='type-id-786' is-artificial='yes'/>
                <parameter type-id='type-id-118'/>
                <parameter type-id='type-id-299'/>
                <return type-id='type-id-60'/>
              </function-decl>
            </member-function>
          </class-decl>
        </member-type>
        <member-type access='private'>
          <class-decl name='_Rep' size-in-bits='192' is-struct='yes' visibility='default' filepath='/usr/lib/gcc/x86_64-redhat-linux/4.4.7/../../../../include/c++/4.4.7/bits/basic_string.h' line='148' column='1' id='type-id-628'>
            <base-class access='public' layout-offset-in-bits='0' type-id='type-id-873'/>
            <data-member access='public' static='yes'>
              <var-decl name='_S_max_size' type-id='type-id-117' visibility='default' filepath='/usr/lib/gcc/x86_64-redhat-linux/4.4.7/../../../../include/c++/4.4.7/bits/basic_string.tcc' line='51' column='1'/>
            </data-member>
            <data-member access='public' static='yes'>
              <var-decl name='_S_terminal' type-id='type-id-63' mangled-name='_ZNSbIcSt11char_traitsIcE13STL_AllocatorIcN15HeapLeakChecker9AllocatorEEE4_Rep11_S_terminalE' visibility='default' filepath='/usr/lib/gcc/x86_64-redhat-linux/4.4.7/../../../../include/c++/4.4.7/bits/basic_string.tcc' line='56' column='1' elf-symbol-id='_ZNSbIcSt11char_traitsIcE13STL_AllocatorIcN15HeapLeakChecker9AllocatorEEE4_Rep11_S_terminalE'/>
            </data-member>
            <data-member access='public' static='yes'>
              <var-decl name='_S_empty_rep_storage' type-id='type-id-161' mangled-name='_ZNSbIcSt11char_traitsIcE13STL_AllocatorIcN15HeapLeakChecker9AllocatorEEE4_Rep20_S_empty_rep_storageE' visibility='default' filepath='/usr/lib/gcc/x86_64-redhat-linux/4.4.7/../../../../include/c++/4.4.7/bits/basic_string.tcc' line='68' column='1' elf-symbol-id='_ZNSbIcSt11char_traitsIcE13STL_AllocatorIcN15HeapLeakChecker9AllocatorEEE4_Rep20_S_empty_rep_storageE'/>
            </data-member>
            <member-function access='public'>
              <function-decl name='_M_destroy' mangled-name='_ZNSbIcSt11char_traitsIcE13STL_AllocatorIcN15HeapLeakChecker9AllocatorEEE4_Rep10_M_destroyERKS4_' filepath='/usr/lib/gcc/x86_64-redhat-linux/4.4.7/../../../../include/c++/4.4.7/bits/basic_string.tcc' line='445' column='1' visibility='default' binding='global' size-in-bits='64' elf-symbol-id='_ZNSbIcSt11char_traitsIcE13STL_AllocatorIcN15HeapLeakChecker9AllocatorEEE4_Rep10_M_destroyERKS4_'>
                <parameter type-id='type-id-789' name='this' is-artificial='yes'/>
                <parameter type-id='type-id-439' name='__a' filepath='/usr/lib/gcc/x86_64-redhat-linux/4.4.7/../../../../include/c++/4.4.7/bits/basic_string.h' line='229' column='1'/>
                <return type-id='type-id-60'/>
              </function-decl>
            </member-function>
            <member-function access='public' static='yes'>
              <function-decl name='_S_create' mangled-name='_ZNSbIcSt11char_traitsIcE13STL_AllocatorIcN15HeapLeakChecker9AllocatorEEE4_Rep9_S_createEmmRKS4_' filepath='/usr/lib/gcc/x86_64-redhat-linux/4.4.7/../../../../include/c++/4.4.7/bits/basic_string.tcc' line='546' column='1' visibility='default' binding='global' size-in-bits='64' elf-symbol-id='_ZNSbIcSt11char_traitsIcE13STL_AllocatorIcN15HeapLeakChecker9AllocatorEEE4_Rep9_S_createEmmRKS4_'>
                <parameter type-id='type-id-62' name='__capacity' filepath='/usr/lib/gcc/x86_64-redhat-linux/4.4.7/../../../../include/c++/4.4.7/bits/basic_string.tcc' line='547' column='1'/>
                <parameter type-id='type-id-62' name='__old_capacity' filepath='/usr/lib/gcc/x86_64-redhat-linux/4.4.7/../../../../include/c++/4.4.7/bits/basic_string.tcc' line='547' column='1'/>
                <parameter type-id='type-id-439' name='__alloc' filepath='/usr/lib/gcc/x86_64-redhat-linux/4.4.7/../../../../include/c++/4.4.7/bits/basic_string.tcc' line='548' column='1'/>
                <return type-id='type-id-788'/>
              </function-decl>
            </member-function>
          </class-decl>
        </member-type>
        <member-type access='private'>
          <class-decl name='_Rep_base' size-in-bits='192' is-struct='yes' visibility='default' filepath='/usr/lib/gcc/x86_64-redhat-linux/4.4.7/../../../../include/c++/4.4.7/bits/basic_string.h' line='141' column='1' id='type-id-873'>
            <data-member access='public' layout-offset-in-bits='0'>
              <var-decl name='_M_length' type-id='type-id-62' visibility='default' filepath='/usr/lib/gcc/x86_64-redhat-linux/4.4.7/../../../../include/c++/4.4.7/bits/basic_string.h' line='142' column='1'/>
            </data-member>
            <data-member access='public' layout-offset-in-bits='64'>
              <var-decl name='_M_capacity' type-id='type-id-62' visibility='default' filepath='/usr/lib/gcc/x86_64-redhat-linux/4.4.7/../../../../include/c++/4.4.7/bits/basic_string.h' line='143' column='1'/>
            </data-member>
            <data-member access='public' layout-offset-in-bits='128'>
              <var-decl name='_M_refcount' type-id='type-id-326' visibility='default' filepath='/usr/lib/gcc/x86_64-redhat-linux/4.4.7/../../../../include/c++/4.4.7/bits/basic_string.h' line='144' column='1'/>
            </data-member>
          </class-decl>
        </member-type>
        <data-member access='private' static='yes'>
          <var-decl name='npos' type-id='type-id-117' visibility='default' filepath='/usr/lib/gcc/x86_64-redhat-linux/4.4.7/../../../../include/c++/4.4.7/bits/basic_string.h' line='270' column='1'/>
        </data-member>
        <data-member access='private' layout-offset-in-bits='0'>
          <var-decl name='_M_dataplus' type-id='type-id-785' visibility='default' filepath='/usr/lib/gcc/x86_64-redhat-linux/4.4.7/../../../../include/c++/4.4.7/bits/basic_string.h' line='274' column='1'/>
        </data-member>
        <member-function access='private'>
          <function-decl name='basic_string' filepath='/usr/lib/gcc/x86_64-redhat-linux/4.4.7/../../../../include/c++/4.4.7/bits/basic_string.h' line='2144' column='1' visibility='default' binding='global' size-in-bits='64'>
            <parameter type-id='type-id-784' is-artificial='yes'/>
            <return type-id='type-id-60'/>
          </function-decl>
        </member-function>
        <member-function access='private'>
          <function-decl name='basic_string' filepath='/usr/lib/gcc/x86_64-redhat-linux/4.4.7/../../../../include/c++/4.4.7/bits/basic_string.tcc' line='178' column='1' visibility='default' binding='global' size-in-bits='64'>
            <parameter type-id='type-id-784' is-artificial='yes'/>
            <parameter type-id='type-id-299'/>
            <return type-id='type-id-60'/>
          </function-decl>
        </member-function>
        <member-function access='private'>
          <function-decl name='basic_string' mangled-name='_ZNSbIcSt11char_traitsIcE13STL_AllocatorIcN15HeapLeakChecker9AllocatorEEEC1ERKS5_' filepath='/usr/lib/gcc/x86_64-redhat-linux/4.4.7/../../../../include/c++/4.4.7/bits/basic_string.tcc' line='170' column='1' visibility='default' binding='global' size-in-bits='64' elf-symbol-id='_ZNSbIcSt11char_traitsIcE13STL_AllocatorIcN15HeapLeakChecker9AllocatorEEEC1ERKS5_'>
            <parameter type-id='type-id-784' is-artificial='yes'/>
            <parameter type-id='type-id-624'/>
            <return type-id='type-id-60'/>
          </function-decl>
        </member-function>
        <member-function access='private'>
          <function-decl name='basic_string' filepath='/usr/lib/gcc/x86_64-redhat-linux/4.4.7/../../../../include/c++/4.4.7/bits/basic_string.tcc' line='184' column='1' visibility='default' binding='global' size-in-bits='64'>
            <parameter type-id='type-id-784' is-artificial='yes'/>
            <parameter type-id='type-id-624'/>
            <parameter type-id='type-id-5'/>
            <parameter type-id='type-id-5'/>
            <return type-id='type-id-60'/>
          </function-decl>
        </member-function>
        <member-function access='private'>
          <function-decl name='basic_string' filepath='/usr/lib/gcc/x86_64-redhat-linux/4.4.7/../../../../include/c++/4.4.7/bits/basic_string.tcc' line='194' column='1' visibility='default' binding='global' size-in-bits='64'>
            <parameter type-id='type-id-784' is-artificial='yes'/>
            <parameter type-id='type-id-624'/>
            <parameter type-id='type-id-5'/>
            <parameter type-id='type-id-5'/>
            <parameter type-id='type-id-299'/>
            <return type-id='type-id-60'/>
          </function-decl>
        </member-function>
        <member-function access='private'>
          <function-decl name='basic_string' filepath='/usr/lib/gcc/x86_64-redhat-linux/4.4.7/../../../../include/c++/4.4.7/bits/basic_string.tcc' line='206' column='1' visibility='default' binding='global' size-in-bits='64'>
            <parameter type-id='type-id-784' is-artificial='yes'/>
            <parameter type-id='type-id-57'/>
            <parameter type-id='type-id-5'/>
            <parameter type-id='type-id-299'/>
            <return type-id='type-id-60'/>
          </function-decl>
        </member-function>
        <member-function access='private'>
          <function-decl name='basic_string' mangled-name='_ZNSbIcSt11char_traitsIcE13STL_AllocatorIcN15HeapLeakChecker9AllocatorEEEC2EPKcRKS4_' filepath='/usr/lib/gcc/x86_64-redhat-linux/4.4.7/../../../../include/c++/4.4.7/bits/basic_string.tcc' line='213' column='1' visibility='default' binding='global' size-in-bits='64' elf-symbol-id='_ZNSbIcSt11char_traitsIcE13STL_AllocatorIcN15HeapLeakChecker9AllocatorEEEC2EPKcRKS4_'>
            <parameter type-id='type-id-784' is-artificial='yes'/>
            <parameter type-id='type-id-57'/>
            <parameter type-id='type-id-299'/>
            <return type-id='type-id-60'/>
          </function-decl>
        </member-function>
        <member-function access='private'>
          <function-decl name='basic_string' filepath='/usr/lib/gcc/x86_64-redhat-linux/4.4.7/../../../../include/c++/4.4.7/bits/basic_string.tcc' line='220' column='1' visibility='default' binding='global' size-in-bits='64'>
            <parameter type-id='type-id-784' is-artificial='yes'/>
            <parameter type-id='type-id-5'/>
            <parameter type-id='type-id-65'/>
            <parameter type-id='type-id-299'/>
            <return type-id='type-id-60'/>
          </function-decl>
        </member-function>
        <member-function access='private' destructor='yes'>
          <function-decl name='~basic_string' mangled-name='_ZNSbIcSt11char_traitsIcE13STL_AllocatorIcN15HeapLeakChecker9AllocatorEEED1Ev' filepath='/usr/lib/gcc/x86_64-redhat-linux/4.4.7/../../../../include/c++/4.4.7/bits/basic_string.h' line='502' column='1' visibility='default' binding='global' size-in-bits='64' elf-symbol-id='_ZNSbIcSt11char_traitsIcE13STL_AllocatorIcN15HeapLeakChecker9AllocatorEEED1Ev'>
            <parameter type-id='type-id-784' is-artificial='yes'/>
            <parameter type-id='type-id-1' is-artificial='yes'/>
            <return type-id='type-id-60'/>
          </function-decl>
        </member-function>
        <member-function access='private' static='yes'>
          <function-decl name='_S_construct&lt;const char*&gt;' filepath='/usr/lib/gcc/x86_64-redhat-linux/4.4.7/../../../../include/c++/4.4.7/bits/basic_string.tcc' line='123' column='1' visibility='default' binding='global' size-in-bits='64'>
            <parameter type-id='type-id-57'/>
            <parameter type-id='type-id-57'/>
            <parameter type-id='type-id-299'/>
            <parameter type-id='type-id-863'/>
            <return type-id='type-id-118'/>
          </function-decl>
        </member-function>
        <member-function access='private' static='yes'>
          <function-decl name='_S_construct_aux&lt;const char*&gt;' filepath='/usr/lib/gcc/x86_64-redhat-linux/4.4.7/../../../../include/c++/4.4.7/bits/basic_string.h' line='1539' column='1' visibility='default' binding='global' size-in-bits='64'>
            <parameter type-id='type-id-57'/>
            <parameter type-id='type-id-57'/>
            <parameter type-id='type-id-299'/>
            <parameter type-id='type-id-874'/>
            <return type-id='type-id-118'/>
          </function-decl>
        </member-function>
        <member-function access='private' static='yes'>
          <function-decl name='_S_construct&lt;const char*&gt;' filepath='/usr/lib/gcc/x86_64-redhat-linux/4.4.7/../../../../include/c++/4.4.7/bits/basic_string.h' line='1556' column='1' visibility='default' binding='global' size-in-bits='64'>
            <parameter type-id='type-id-57'/>
            <parameter type-id='type-id-57'/>
            <parameter type-id='type-id-299'/>
            <return type-id='type-id-118'/>
          </function-decl>
        </member-function>
      </class-decl>
      <class-decl name='__copy_move_backward&lt;false, false, std::random_access_iterator_tag&gt;' size-in-bits='8' is-struct='yes' visibility='default' filepath='/usr/lib/gcc/x86_64-redhat-linux/4.4.7/../../../../include/c++/4.4.7/bits/stl_algobase.h' line='539' column='1' id='type-id-875'>
        <member-function access='public' static='yes'>
          <function-decl name='__copy_move_b&lt;AllocObject*, AllocObject*&gt;' filepath='/usr/lib/gcc/x86_64-redhat-linux/4.4.7/../../../../include/c++/4.4.7/bits/stl_algobase.h' line='542' column='1' visibility='default' binding='global' size-in-bits='64'>
            <parameter type-id='type-id-167'/>
            <parameter type-id='type-id-167'/>
            <parameter type-id='type-id-167'/>
            <return type-id='type-id-167'/>
          </function-decl>
        </member-function>
        <member-function access='public' static='yes'>
          <function-decl name='__copy_move_b&lt;HeapProfileTable::Snapshot::Entry*, HeapProfileTable::Snapshot::Entry*&gt;' filepath='/usr/lib/gcc/x86_64-redhat-linux/4.4.7/../../../../include/c++/4.4.7/bits/stl_algobase.h' line='542' column='1' visibility='default' binding='global' size-in-bits='64'>
            <parameter type-id='type-id-220'/>
            <parameter type-id='type-id-220'/>
            <parameter type-id='type-id-220'/>
            <return type-id='type-id-220'/>
          </function-decl>
        </member-function>
      </class-decl>
      <class-decl name='__false_type' size-in-bits='8' is-struct='yes' visibility='default' filepath='/usr/lib/gcc/x86_64-redhat-linux/4.4.7/../../../../include/c++/4.4.7/bits/cpp_type_traits.h' line='79' column='1' id='type-id-874'/>
      <class-decl name='vector&lt;AllocObject, STL_Allocator&lt;AllocObject, HeapLeakChecker::Allocator&gt; &gt;' size-in-bits='192' visibility='default' filepath='/usr/lib/gcc/x86_64-redhat-linux/4.4.7/../../../../include/c++/4.4.7/bits/stl_vector.h' line='171' column='1' id='type-id-333'>
        <base-class access='protected' layout-offset-in-bits='0' type-id='type-id-605'/>
        <member-function access='private'>
          <function-decl name='vector' filepath='/usr/lib/gcc/x86_64-redhat-linux/4.4.7/../../../../include/c++/4.4.7/bits/stl_vector.h' line='207' column='1' visibility='default' binding='global' size-in-bits='64'>
            <parameter type-id='type-id-829' is-artificial='yes'/>
            <return type-id='type-id-60'/>
          </function-decl>
        </member-function>
        <member-function access='private'>
          <function-decl name='vector' filepath='/usr/lib/gcc/x86_64-redhat-linux/4.4.7/../../../../include/c++/4.4.7/bits/stl_vector.h' line='215' column='1' visibility='default' binding='global' size-in-bits='64'>
            <parameter type-id='type-id-829' is-artificial='yes'/>
            <parameter type-id='type-id-170'/>
            <return type-id='type-id-60'/>
          </function-decl>
        </member-function>
        <member-function access='private'>
          <function-decl name='vector' filepath='/usr/lib/gcc/x86_64-redhat-linux/4.4.7/../../../../include/c++/4.4.7/bits/stl_vector.h' line='227' column='1' visibility='default' binding='global' size-in-bits='64'>
            <parameter type-id='type-id-829' is-artificial='yes'/>
            <parameter type-id='type-id-5'/>
            <parameter type-id='type-id-399'/>
            <parameter type-id='type-id-170'/>
            <return type-id='type-id-60'/>
          </function-decl>
        </member-function>
        <member-function access='private'>
          <function-decl name='vector' filepath='/usr/lib/gcc/x86_64-redhat-linux/4.4.7/../../../../include/c++/4.4.7/bits/stl_vector.h' line='241' column='1' visibility='default' binding='global' size-in-bits='64'>
            <parameter type-id='type-id-829' is-artificial='yes'/>
            <parameter type-id='type-id-693'/>
            <return type-id='type-id-60'/>
          </function-decl>
        </member-function>
        <member-function access='private' destructor='yes'>
          <function-decl name='~vector' filepath='/usr/lib/gcc/x86_64-redhat-linux/4.4.7/../../../../include/c++/4.4.7/bits/stl_vector.h' line='312' column='1' visibility='default' binding='global' size-in-bits='64'>
            <parameter type-id='type-id-829' is-artificial='yes'/>
            <parameter type-id='type-id-1' is-artificial='yes'/>
            <return type-id='type-id-60'/>
          </function-decl>
        </member-function>
        <member-function access='protected'>
          <function-decl name='_M_insert_aux' mangled-name='_ZNSt6vectorI11AllocObject13STL_AllocatorIS0_N15HeapLeakChecker9AllocatorEEE13_M_insert_auxEN9__gnu_cxx17__normal_iteratorIPS0_S5_EERKS0_' filepath='/usr/lib/gcc/x86_64-redhat-linux/4.4.7/../../../../include/c++/4.4.7/bits/vector.tcc' line='295' column='1' visibility='default' binding='global' size-in-bits='64' elf-symbol-id='_ZNSt6vectorI11AllocObject13STL_AllocatorIS0_N15HeapLeakChecker9AllocatorEEE13_M_insert_auxEN9__gnu_cxx17__normal_iteratorIPS0_S5_EERKS0_'>
            <parameter type-id='type-id-830' name='this' is-artificial='yes'/>
            <parameter type-id='type-id-376' name='__position' filepath='/usr/lib/gcc/x86_64-redhat-linux/4.4.7/../../../../include/c++/4.4.7/bits/vector.tcc' line='296' column='1'/>
            <parameter type-id='type-id-400' name='__x' filepath='/usr/lib/gcc/x86_64-redhat-linux/4.4.7/../../../../include/c++/4.4.7/bits/vector.tcc' line='296' column='1'/>
            <return type-id='type-id-60'/>
          </function-decl>
        </member-function>
      </class-decl>
      <class-decl name='_Rb_tree_iterator&lt;long unsigned int&gt;' size-in-bits='64' is-struct='yes' visibility='default' filepath='/usr/lib/gcc/x86_64-redhat-linux/4.4.7/../../../../include/c++/4.4.7/bits/stl_tree.h' line='154' column='1' id='type-id-547'>
        <data-member access='public' layout-offset-in-bits='0'>
          <var-decl name='_M_node' type-id='type-id-865' visibility='default' filepath='/usr/lib/gcc/x86_64-redhat-linux/4.4.7/../../../../include/c++/4.4.7/bits/stl_tree.h' line='219' column='1'/>
        </data-member>
        <member-function access='public'>
          <function-decl name='_Rb_tree_iterator' filepath='/usr/lib/gcc/x86_64-redhat-linux/4.4.7/../../../../include/c++/4.4.7/bits/stl_tree.h' line='166' column='1' visibility='default' binding='global' size-in-bits='64'>
            <parameter type-id='type-id-748' is-artificial='yes'/>
            <return type-id='type-id-60'/>
          </function-decl>
        </member-function>
        <member-function access='public'>
          <function-decl name='_Rb_tree_iterator' filepath='/usr/lib/gcc/x86_64-redhat-linux/4.4.7/../../../../include/c++/4.4.7/bits/stl_tree.h' line='170' column='1' visibility='default' binding='global' size-in-bits='64'>
            <parameter type-id='type-id-748' is-artificial='yes'/>
            <parameter type-id='type-id-760'/>
            <return type-id='type-id-60'/>
          </function-decl>
        </member-function>
      </class-decl>
      <enum-decl name='_Rb_tree_color' filepath='/usr/lib/gcc/x86_64-redhat-linux/4.4.7/../../../../include/c++/4.4.7/bits/stl_tree.h' line='85' column='1' id='type-id-867'>
        <underlying-type type-id='type-id-89'/>
        <enumerator name='_S_red' value='0'/>
        <enumerator name='_S_black' value='1'/>
      </enum-decl>
      <class-decl name='_Rb_tree_iterator&lt;std::pair&lt;const std::basic_string&lt;char, std::char_traits&lt;char&gt;, STL_Allocator&lt;char, HeapLeakChecker::Allocator&gt; &gt;, std::vector&lt;AllocObject, STL_Allocator&lt;AllocObject, HeapLeakChecker::Allocator&gt; &gt; &gt; &gt;' size-in-bits='64' is-struct='yes' visibility='default' filepath='/usr/lib/gcc/x86_64-redhat-linux/4.4.7/../../../../include/c++/4.4.7/bits/stl_tree.h' line='154' column='1' id='type-id-565'>
        <data-member access='public' layout-offset-in-bits='0'>
          <var-decl name='_M_node' type-id='type-id-865' visibility='default' filepath='/usr/lib/gcc/x86_64-redhat-linux/4.4.7/../../../../include/c++/4.4.7/bits/stl_tree.h' line='219' column='1'/>
        </data-member>
        <member-function access='public'>
          <function-decl name='_Rb_tree_iterator' filepath='/usr/lib/gcc/x86_64-redhat-linux/4.4.7/../../../../include/c++/4.4.7/bits/stl_tree.h' line='166' column='1' visibility='default' binding='global' size-in-bits='64'>
            <parameter type-id='type-id-757' is-artificial='yes'/>
            <return type-id='type-id-60'/>
          </function-decl>
        </member-function>
        <member-function access='public'>
          <function-decl name='_Rb_tree_iterator' filepath='/usr/lib/gcc/x86_64-redhat-linux/4.4.7/../../../../include/c++/4.4.7/bits/stl_tree.h' line='170' column='1' visibility='default' binding='global' size-in-bits='64'>
            <parameter type-id='type-id-757' is-artificial='yes'/>
            <parameter type-id='type-id-766'/>
            <return type-id='type-id-60'/>
          </function-decl>
        </member-function>
      </class-decl>
      <class-decl name='less&lt;std::basic_string&lt;char, std::char_traits&lt;char&gt;, STL_Allocator&lt;char, HeapLeakChecker::Allocator&gt; &gt; &gt;' size-in-bits='8' is-struct='yes' visibility='default' filepath='/usr/lib/gcc/x86_64-redhat-linux/4.4.7/../../../../include/c++/4.4.7/bits/stl_function.h' line='227' column='1' id='type-id-652'>
        <base-class access='public' layout-offset-in-bits='0' type-id='type-id-876'/>
      </class-decl>
      <class-decl name='binary_function&lt;std::basic_string&lt;char, std::char_traits&lt;char&gt;, STL_Allocator&lt;char, HeapLeakChecker::Allocator&gt; &gt;, std::basic_string&lt;char, std::char_traits&lt;char&gt;, STL_Allocator&lt;char, HeapLeakChecker::Allocator&gt; &gt;, bool&gt;' size-in-bits='8' is-struct='yes' visibility='default' filepath='/usr/lib/gcc/x86_64-redhat-linux/4.4.7/../../../../include/c++/4.4.7/bits/stl_function.h' line='113' column='1' id='type-id-876'/>
      <class-decl name='_Rb_tree&lt;std::basic_string&lt;char, std::char_traits&lt;char&gt;, STL_Allocator&lt;char, HeapLeakChecker::Allocator&gt; &gt;, std::pair&lt;const std::basic_string&lt;char, std::char_traits&lt;char&gt;, STL_Allocator&lt;char, HeapLeakChecker::Allocator&gt; &gt;, std::vector&lt;AllocObject, STL_Allocator&lt;AllocObject, HeapLeakChecker::Allocator&gt; &gt; &gt;, std::_Select1st&lt;std::pair&lt;const std::basic_string&lt;char, std::char_traits&lt;char&gt;, STL_Allocator&lt;char, HeapLeakChecker::Allocator&gt; &gt;, std::vector&lt;AllocObject, STL_Allocator&lt;AllocObject, HeapLeakChecker::Allocator&gt; &gt; &gt; &gt;, std::less&lt;std::basic_string&lt;char, std::char_traits&lt;char&gt;, STL_Allocator&lt;char, HeapLeakChecker::Allocator&gt; &gt; &gt;, STL_Allocator&lt;std::pair&lt;const std::basic_string&lt;char, std::char_traits&lt;char&gt;, STL_Allocator&lt;char, HeapLeakChecker::Allocator&gt; &gt;, std::vector&lt;AllocObject, STL_Allocator&lt;AllocObject, HeapLeakChecker::Allocator&gt; &gt; &gt;, HeapLeakChecker::Allocator&gt; &gt;' size-in-bits='384' visibility='default' filepath='/usr/lib/gcc/x86_64-redhat-linux/4.4.7/../../../../include/c++/4.4.7/bits/stl_tree.h' line='323' column='1' id='type-id-512'>
        <member-type access='protected'>
          <class-decl name='_Rb_tree_impl&lt;std::less&lt;std::basic_string&lt;char, std::char_traits&lt;char&gt;, STL_Allocator&lt;char, HeapLeakChecker::Allocator&gt; &gt; &gt;, false&gt;' size-in-bits='384' is-struct='yes' visibility='default' filepath='/usr/lib/gcc/x86_64-redhat-linux/4.4.7/../../../../include/c++/4.4.7/bits/stl_tree.h' line='427' column='1' id='type-id-731'>
            <base-class access='public' layout-offset-in-bits='0' type-id='type-id-302'/>
            <data-member access='public' layout-offset-in-bits='0'>
              <var-decl name='_M_key_compare' type-id='type-id-652' visibility='default' filepath='/usr/lib/gcc/x86_64-redhat-linux/4.4.7/../../../../include/c++/4.4.7/bits/stl_tree.h' line='428' column='1'/>
            </data-member>
            <data-member access='public' layout-offset-in-bits='64'>
              <var-decl name='_M_header' type-id='type-id-590' visibility='default' filepath='/usr/lib/gcc/x86_64-redhat-linux/4.4.7/../../../../include/c++/4.4.7/bits/stl_tree.h' line='429' column='1'/>
            </data-member>
            <data-member access='public' layout-offset-in-bits='320'>
              <var-decl name='_M_node_count' type-id='type-id-62' visibility='default' filepath='/usr/lib/gcc/x86_64-redhat-linux/4.4.7/../../../../include/c++/4.4.7/bits/stl_tree.h' line='430' column='1'/>
            </data-member>
            <member-function access='public'>
              <function-decl name='_Rb_tree_impl' filepath='/usr/lib/gcc/x86_64-redhat-linux/4.4.7/../../../../include/c++/4.4.7/bits/stl_tree.h' line='432' column='1' visibility='default' binding='global' size-in-bits='64'>
                <parameter type-id='type-id-732' is-artificial='yes'/>
                <return type-id='type-id-60'/>
              </function-decl>
            </member-function>
            <member-function access='public'>
              <function-decl name='_Rb_tree_impl' filepath='/usr/lib/gcc/x86_64-redhat-linux/4.4.7/../../../../include/c++/4.4.7/bits/stl_tree.h' line='437' column='1' visibility='default' binding='global' size-in-bits='64'>
                <parameter type-id='type-id-732' is-artificial='yes'/>
                <parameter type-id='type-id-654'/>
                <parameter type-id='type-id-304'/>
                <return type-id='type-id-60'/>
              </function-decl>
            </member-function>
          </class-decl>
        </member-type>
        <data-member access='protected' layout-offset-in-bits='0'>
          <var-decl name='_M_impl' type-id='type-id-731' visibility='default' filepath='/usr/lib/gcc/x86_64-redhat-linux/4.4.7/../../../../include/c++/4.4.7/bits/stl_tree.h' line='453' column='1'/>
        </data-member>
        <member-function access='private'>
          <function-decl name='_Rb_tree' filepath='/usr/lib/gcc/x86_64-redhat-linux/4.4.7/../../../../include/c++/4.4.7/bits/stl_tree.h' line='591' column='1' visibility='default' binding='global' size-in-bits='64'>
            <parameter type-id='type-id-729' is-artificial='yes'/>
            <return type-id='type-id-60'/>
          </function-decl>
        </member-function>
        <member-function access='private'>
          <function-decl name='_Rb_tree' filepath='/usr/lib/gcc/x86_64-redhat-linux/4.4.7/../../../../include/c++/4.4.7/bits/stl_tree.h' line='593' column='1' visibility='default' binding='global' size-in-bits='64'>
            <parameter type-id='type-id-729' is-artificial='yes'/>
            <parameter type-id='type-id-654'/>
            <parameter type-id='type-id-307'/>
            <return type-id='type-id-60'/>
          </function-decl>
        </member-function>
        <member-function access='private'>
          <function-decl name='_Rb_tree' filepath='/usr/lib/gcc/x86_64-redhat-linux/4.4.7/../../../../include/c++/4.4.7/bits/stl_tree.h' line='597' column='1' visibility='default' binding='global' size-in-bits='64'>
            <parameter type-id='type-id-729' is-artificial='yes'/>
            <parameter type-id='type-id-514'/>
            <return type-id='type-id-60'/>
          </function-decl>
        </member-function>
        <member-function access='private' destructor='yes'>
          <function-decl name='~_Rb_tree' filepath='/usr/lib/gcc/x86_64-redhat-linux/4.4.7/../../../../include/c++/4.4.7/bits/stl_tree.h' line='613' column='1' visibility='default' binding='global' size-in-bits='64'>
            <parameter type-id='type-id-729' is-artificial='yes'/>
            <parameter type-id='type-id-1' is-artificial='yes'/>
            <return type-id='type-id-60'/>
          </function-decl>
        </member-function>
        <member-function access='private'>
          <function-decl name='_M_erase' mangled-name='_ZNSt8_Rb_treeISbIcSt11char_traitsIcE13STL_AllocatorIcN15HeapLeakChecker9AllocatorEEESt4pairIKS6_St6vectorI11AllocObjectS2_ISA_S4_EEESt10_Select1stISD_ESt4lessIS6_ES2_ISD_S4_EE8_M_eraseEPSt13_Rb_tree_nodeISD_E' filepath='/usr/lib/gcc/x86_64-redhat-linux/4.4.7/../../../../include/c++/4.4.7/bits/stl_tree.h' line='964' column='1' visibility='default' binding='global' size-in-bits='64' elf-symbol-id='_ZNSt8_Rb_treeISbIcSt11char_traitsIcE13STL_AllocatorIcN15HeapLeakChecker9AllocatorEEESt4pairIKS6_St6vectorI11AllocObjectS2_ISA_S4_EEESt10_Select1stISD_ESt4lessIS6_ES2_ISD_S4_EE8_M_eraseEPSt13_Rb_tree_nodeISD_E'>
            <parameter type-id='type-id-730' name='this' is-artificial='yes'/>
            <parameter type-id='type-id-766' name='__p' filepath='/usr/lib/gcc/x86_64-redhat-linux/4.4.7/../../../../include/c++/4.4.7/bits/stl_tree.h' line='362' column='1'/>
            <return type-id='type-id-60'/>
          </function-decl>
        </member-function>
        <member-function access='private'>
          <function-decl name='_M_insert_' mangled-name='_ZNSt8_Rb_treeISbIcSt11char_traitsIcE13STL_AllocatorIcN15HeapLeakChecker9AllocatorEEESt4pairIKS6_St6vectorI11AllocObjectS2_ISA_S4_EEESt10_Select1stISD_ESt4lessIS6_ES2_ISD_S4_EE10_M_insert_EPKSt18_Rb_tree_node_baseSM_RKSD_' filepath='/usr/lib/gcc/x86_64-redhat-linux/4.4.7/../../../../include/c++/4.4.7/bits/stl_tree.h' line='874' column='1' visibility='default' binding='global' size-in-bits='64' elf-symbol-id='_ZNSt8_Rb_treeISbIcSt11char_traitsIcE13STL_AllocatorIcN15HeapLeakChecker9AllocatorEEESt4pairIKS6_St6vectorI11AllocObjectS2_ISA_S4_EEESt10_Select1stISD_ESt4lessIS6_ES2_ISD_S4_EE10_M_insert_EPKSt18_Rb_tree_node_baseSM_RKSD_'>
            <parameter type-id='type-id-730' name='this' is-artificial='yes'/>
            <parameter type-id='type-id-592' name='__x' filepath='/usr/lib/gcc/x86_64-redhat-linux/4.4.7/../../../../include/c++/4.4.7/bits/stl_tree.h' line='875' column='1'/>
            <parameter type-id='type-id-592' name='__p' filepath='/usr/lib/gcc/x86_64-redhat-linux/4.4.7/../../../../include/c++/4.4.7/bits/stl_tree.h' line='875' column='1'/>
            <parameter type-id='type-id-680' name='__v' filepath='/usr/lib/gcc/x86_64-redhat-linux/4.4.7/../../../../include/c++/4.4.7/bits/stl_tree.h' line='875' column='1'/>
            <return type-id='type-id-565'/>
          </function-decl>
        </member-function>
        <member-function access='private'>
          <function-decl name='_M_insert_unique' mangled-name='_ZNSt8_Rb_treeISbIcSt11char_traitsIcE13STL_AllocatorIcN15HeapLeakChecker9AllocatorEEESt4pairIKS6_St6vectorI11AllocObjectS2_ISA_S4_EEESt10_Select1stISD_ESt4lessIS6_ES2_ISD_S4_EE16_M_insert_uniqueERKSD_' filepath='/usr/lib/gcc/x86_64-redhat-linux/4.4.7/../../../../include/c++/4.4.7/bits/stl_tree.h' line='1161' column='1' visibility='default' binding='global' size-in-bits='64' elf-symbol-id='_ZNSt8_Rb_treeISbIcSt11char_traitsIcE13STL_AllocatorIcN15HeapLeakChecker9AllocatorEEESt4pairIKS6_St6vectorI11AllocObjectS2_ISA_S4_EEESt10_Select1stISD_ESt4lessIS6_ES2_ISD_S4_EE16_M_insert_uniqueERKSD_'>
            <parameter type-id='type-id-730' name='this' is-artificial='yes'/>
            <parameter type-id='type-id-680' name='__v' filepath='/usr/lib/gcc/x86_64-redhat-linux/4.4.7/../../../../include/c++/4.4.7/bits/stl_tree.h' line='1162' column='1'/>
            <return type-id='type-id-822'/>
          </function-decl>
        </member-function>
        <member-function access='private'>
          <function-decl name='_M_insert_unique_' mangled-name='_ZNSt8_Rb_treeISbIcSt11char_traitsIcE13STL_AllocatorIcN15HeapLeakChecker9AllocatorEEESt4pairIKS6_St6vectorI11AllocObjectS2_ISA_S4_EEESt10_Select1stISD_ESt4lessIS6_ES2_ISD_S4_EE17_M_insert_unique_ESt23_Rb_tree_const_iteratorISD_ERKSD_' filepath='/usr/lib/gcc/x86_64-redhat-linux/4.4.7/../../../../include/c++/4.4.7/bits/stl_tree.h' line='1206' column='1' visibility='default' binding='global' size-in-bits='64' elf-symbol-id='_ZNSt8_Rb_treeISbIcSt11char_traitsIcE13STL_AllocatorIcN15HeapLeakChecker9AllocatorEEESt4pairIKS6_St6vectorI11AllocObjectS2_ISA_S4_EEESt10_Select1stISD_ESt4lessIS6_ES2_ISD_S4_EE17_M_insert_unique_ESt23_Rb_tree_const_iteratorISD_ERKSD_'>
            <parameter type-id='type-id-730' name='this' is-artificial='yes'/>
            <parameter type-id='type-id-540' name='__position' filepath='/usr/lib/gcc/x86_64-redhat-linux/4.4.7/../../../../include/c++/4.4.7/bits/stl_tree.h' line='1207' column='1'/>
            <parameter type-id='type-id-680' name='__v' filepath='/usr/lib/gcc/x86_64-redhat-linux/4.4.7/../../../../include/c++/4.4.7/bits/stl_tree.h' line='1207' column='1'/>
            <return type-id='type-id-565'/>
          </function-decl>
        </member-function>
      </class-decl>
      <class-decl name='char_traits&lt;char&gt;' size-in-bits='8' is-struct='yes' visibility='default' filepath='/usr/lib/gcc/x86_64-redhat-linux/4.4.7/../../../../include/c++/4.4.7/bits/char_traits.h' line='238' column='1' id='type-id-877'>
        <member-type access='public'>
          <typedef-decl name='char_type' type-id='type-id-65' filepath='/usr/lib/gcc/x86_64-redhat-linux/4.4.7/../../../../include/c++/4.4.7/bits/char_traits.h' line='239' column='1' id='type-id-639'/>
        </member-type>
        <member-type access='public'>
          <typedef-decl name='int_type' type-id='type-id-1' filepath='/usr/lib/gcc/x86_64-redhat-linux/4.4.7/../../../../include/c++/4.4.7/bits/char_traits.h' line='240' column='1' id='type-id-644'/>
        </member-type>
      </class-decl>
      <class-decl name='_Rb_tree_iterator&lt;std::pair&lt;const long unsigned int, HeapLeakChecker::RangeValue&gt; &gt;' size-in-bits='64' is-struct='yes' visibility='default' filepath='/usr/lib/gcc/x86_64-redhat-linux/4.4.7/../../../../include/c++/4.4.7/bits/stl_tree.h' line='154' column='1' id='type-id-553'>
        <data-member access='public' layout-offset-in-bits='0'>
          <var-decl name='_M_node' type-id='type-id-865' visibility='default' filepath='/usr/lib/gcc/x86_64-redhat-linux/4.4.7/../../../../include/c++/4.4.7/bits/stl_tree.h' line='219' column='1'/>
        </data-member>
        <member-function access='public'>
          <function-decl name='_Rb_tree_iterator' filepath='/usr/lib/gcc/x86_64-redhat-linux/4.4.7/../../../../include/c++/4.4.7/bits/stl_tree.h' line='166' column='1' visibility='default' binding='global' size-in-bits='64'>
            <parameter type-id='type-id-751' is-artificial='yes'/>
            <return type-id='type-id-60'/>
          </function-decl>
        </member-function>
        <member-function access='public'>
          <function-decl name='_Rb_tree_iterator' filepath='/usr/lib/gcc/x86_64-redhat-linux/4.4.7/../../../../include/c++/4.4.7/bits/stl_tree.h' line='170' column='1' visibility='default' binding='global' size-in-bits='64'>
            <parameter type-id='type-id-751' is-artificial='yes'/>
            <parameter type-id='type-id-762'/>
            <return type-id='type-id-60'/>
          </function-decl>
        </member-function>
      </class-decl>
      <class-decl name='less&lt;long unsigned int&gt;' size-in-bits='8' is-struct='yes' visibility='default' filepath='/usr/lib/gcc/x86_64-redhat-linux/4.4.7/../../../../include/c++/4.4.7/bits/stl_function.h' line='227' column='1' id='type-id-647'>
        <base-class access='public' layout-offset-in-bits='0' type-id='type-id-878'/>
      </class-decl>
      <class-decl name='binary_function&lt;long unsigned int, long unsigned int, bool&gt;' size-in-bits='8' is-struct='yes' visibility='default' filepath='/usr/lib/gcc/x86_64-redhat-linux/4.4.7/../../../../include/c++/4.4.7/bits/stl_function.h' line='113' column='1' id='type-id-878'/>
      <class-decl name='_Rb_tree&lt;long unsigned int, std::pair&lt;const long unsigned int, HeapLeakChecker::RangeValue&gt;, std::_Select1st&lt;std::pair&lt;const long unsigned int, HeapLeakChecker::RangeValue&gt; &gt;, std::less&lt;long unsigned int&gt;, STL_Allocator&lt;std::pair&lt;const long unsigned int, HeapLeakChecker::RangeValue&gt;, HeapLeakChecker::Allocator&gt; &gt;' size-in-bits='384' visibility='default' filepath='/usr/lib/gcc/x86_64-redhat-linux/4.4.7/../../../../include/c++/4.4.7/bits/stl_tree.h' line='323' column='1' id='type-id-502'>
        <member-type access='protected'>
          <class-decl name='_Rb_tree_impl&lt;std::less&lt;long unsigned int&gt;, false&gt;' size-in-bits='384' is-struct='yes' visibility='default' filepath='/usr/lib/gcc/x86_64-redhat-linux/4.4.7/../../../../include/c++/4.4.7/bits/stl_tree.h' line='427' column='1' id='type-id-719'>
            <base-class access='public' layout-offset-in-bits='0' type-id='type-id-308'/>
            <data-member access='public' layout-offset-in-bits='0'>
              <var-decl name='_M_key_compare' type-id='type-id-647' visibility='default' filepath='/usr/lib/gcc/x86_64-redhat-linux/4.4.7/../../../../include/c++/4.4.7/bits/stl_tree.h' line='428' column='1'/>
            </data-member>
            <data-member access='public' layout-offset-in-bits='64'>
              <var-decl name='_M_header' type-id='type-id-590' visibility='default' filepath='/usr/lib/gcc/x86_64-redhat-linux/4.4.7/../../../../include/c++/4.4.7/bits/stl_tree.h' line='429' column='1'/>
            </data-member>
            <data-member access='public' layout-offset-in-bits='320'>
              <var-decl name='_M_node_count' type-id='type-id-62' visibility='default' filepath='/usr/lib/gcc/x86_64-redhat-linux/4.4.7/../../../../include/c++/4.4.7/bits/stl_tree.h' line='430' column='1'/>
            </data-member>
            <member-function access='public'>
              <function-decl name='_Rb_tree_impl' filepath='/usr/lib/gcc/x86_64-redhat-linux/4.4.7/../../../../include/c++/4.4.7/bits/stl_tree.h' line='432' column='1' visibility='default' binding='global' size-in-bits='64'>
                <parameter type-id='type-id-720' is-artificial='yes'/>
                <return type-id='type-id-60'/>
              </function-decl>
            </member-function>
            <member-function access='public'>
              <function-decl name='_Rb_tree_impl' filepath='/usr/lib/gcc/x86_64-redhat-linux/4.4.7/../../../../include/c++/4.4.7/bits/stl_tree.h' line='437' column='1' visibility='default' binding='global' size-in-bits='64'>
                <parameter type-id='type-id-720' is-artificial='yes'/>
                <parameter type-id='type-id-649'/>
                <parameter type-id='type-id-310'/>
                <return type-id='type-id-60'/>
              </function-decl>
            </member-function>
          </class-decl>
        </member-type>
        <data-member access='protected' layout-offset-in-bits='0'>
          <var-decl name='_M_impl' type-id='type-id-719' visibility='default' filepath='/usr/lib/gcc/x86_64-redhat-linux/4.4.7/../../../../include/c++/4.4.7/bits/stl_tree.h' line='453' column='1'/>
        </data-member>
        <member-function access='private'>
          <function-decl name='_Rb_tree' filepath='/usr/lib/gcc/x86_64-redhat-linux/4.4.7/../../../../include/c++/4.4.7/bits/stl_tree.h' line='591' column='1' visibility='default' binding='global' size-in-bits='64'>
            <parameter type-id='type-id-717' is-artificial='yes'/>
            <return type-id='type-id-60'/>
          </function-decl>
        </member-function>
        <member-function access='private'>
          <function-decl name='_Rb_tree' filepath='/usr/lib/gcc/x86_64-redhat-linux/4.4.7/../../../../include/c++/4.4.7/bits/stl_tree.h' line='593' column='1' visibility='default' binding='global' size-in-bits='64'>
            <parameter type-id='type-id-717' is-artificial='yes'/>
            <parameter type-id='type-id-649'/>
            <parameter type-id='type-id-313'/>
            <return type-id='type-id-60'/>
          </function-decl>
        </member-function>
        <member-function access='private'>
          <function-decl name='_Rb_tree' filepath='/usr/lib/gcc/x86_64-redhat-linux/4.4.7/../../../../include/c++/4.4.7/bits/stl_tree.h' line='597' column='1' visibility='default' binding='global' size-in-bits='64'>
            <parameter type-id='type-id-717' is-artificial='yes'/>
            <parameter type-id='type-id-504'/>
            <return type-id='type-id-60'/>
          </function-decl>
        </member-function>
        <member-function access='private' destructor='yes'>
          <function-decl name='~_Rb_tree' filepath='/usr/lib/gcc/x86_64-redhat-linux/4.4.7/../../../../include/c++/4.4.7/bits/stl_tree.h' line='613' column='1' visibility='default' binding='global' size-in-bits='64'>
            <parameter type-id='type-id-717' is-artificial='yes'/>
            <parameter type-id='type-id-1' is-artificial='yes'/>
            <return type-id='type-id-60'/>
          </function-decl>
        </member-function>
        <member-function access='private'>
          <function-decl name='_M_erase' mangled-name='_ZNSt8_Rb_treeImSt4pairIKmN15HeapLeakChecker10RangeValueEESt10_Select1stIS4_ESt4lessImE13STL_AllocatorIS4_NS2_9AllocatorEEE8_M_eraseEPSt13_Rb_tree_nodeIS4_E' filepath='/usr/lib/gcc/x86_64-redhat-linux/4.4.7/../../../../include/c++/4.4.7/bits/stl_tree.h' line='964' column='1' visibility='default' binding='global' size-in-bits='64' elf-symbol-id='_ZNSt8_Rb_treeImSt4pairIKmN15HeapLeakChecker10RangeValueEESt10_Select1stIS4_ESt4lessImE13STL_AllocatorIS4_NS2_9AllocatorEEE8_M_eraseEPSt13_Rb_tree_nodeIS4_E'>
            <parameter type-id='type-id-718' name='this' is-artificial='yes'/>
            <parameter type-id='type-id-762' name='__p' filepath='/usr/lib/gcc/x86_64-redhat-linux/4.4.7/../../../../include/c++/4.4.7/bits/stl_tree.h' line='362' column='1'/>
            <return type-id='type-id-60'/>
          </function-decl>
        </member-function>
        <member-function access='private'>
          <function-decl name='_M_insert_' mangled-name='_ZNSt8_Rb_treeImSt4pairIKmN15HeapLeakChecker10RangeValueEESt10_Select1stIS4_ESt4lessImE13STL_AllocatorIS4_NS2_9AllocatorEEE10_M_insert_EPKSt18_Rb_tree_node_baseSF_RKS4_' filepath='/usr/lib/gcc/x86_64-redhat-linux/4.4.7/../../../../include/c++/4.4.7/bits/stl_tree.h' line='874' column='1' visibility='default' binding='global' size-in-bits='64' elf-symbol-id='_ZNSt8_Rb_treeImSt4pairIKmN15HeapLeakChecker10RangeValueEESt10_Select1stIS4_ESt4lessImE13STL_AllocatorIS4_NS2_9AllocatorEEE10_M_insert_EPKSt18_Rb_tree_node_baseSF_RKS4_'>
            <parameter type-id='type-id-718' name='this' is-artificial='yes'/>
            <parameter type-id='type-id-592' name='__x' filepath='/usr/lib/gcc/x86_64-redhat-linux/4.4.7/../../../../include/c++/4.4.7/bits/stl_tree.h' line='875' column='1'/>
            <parameter type-id='type-id-592' name='__p' filepath='/usr/lib/gcc/x86_64-redhat-linux/4.4.7/../../../../include/c++/4.4.7/bits/stl_tree.h' line='875' column='1'/>
            <parameter type-id='type-id-670' name='__v' filepath='/usr/lib/gcc/x86_64-redhat-linux/4.4.7/../../../../include/c++/4.4.7/bits/stl_tree.h' line='875' column='1'/>
            <return type-id='type-id-553'/>
          </function-decl>
        </member-function>
      </class-decl>
      <class-decl name='_Rb_tree_const_iterator&lt;long unsigned int&gt;' size-in-bits='64' is-struct='yes' visibility='default' filepath='/usr/lib/gcc/x86_64-redhat-linux/4.4.7/../../../../include/c++/4.4.7/bits/stl_tree.h' line='224' column='1' id='type-id-522'>
        <data-member access='public' layout-offset-in-bits='0'>
          <var-decl name='_M_node' type-id='type-id-866' visibility='default' filepath='/usr/lib/gcc/x86_64-redhat-linux/4.4.7/../../../../include/c++/4.4.7/bits/stl_tree.h' line='294' column='1'/>
        </data-member>
        <member-function access='public'>
          <function-decl name='_Rb_tree_const_iterator' filepath='/usr/lib/gcc/x86_64-redhat-linux/4.4.7/../../../../include/c++/4.4.7/bits/stl_tree.h' line='238' column='1' visibility='default' binding='global' size-in-bits='64'>
            <parameter type-id='type-id-738' is-artificial='yes'/>
            <return type-id='type-id-60'/>
          </function-decl>
        </member-function>
        <member-function access='public'>
          <function-decl name='_Rb_tree_const_iterator' filepath='/usr/lib/gcc/x86_64-redhat-linux/4.4.7/../../../../include/c++/4.4.7/bits/stl_tree.h' line='242' column='1' visibility='default' binding='global' size-in-bits='64'>
            <parameter type-id='type-id-738' is-artificial='yes'/>
            <parameter type-id='type-id-577'/>
            <return type-id='type-id-60'/>
          </function-decl>
        </member-function>
        <member-function access='public'>
          <function-decl name='_Rb_tree_const_iterator' filepath='/usr/lib/gcc/x86_64-redhat-linux/4.4.7/../../../../include/c++/4.4.7/bits/stl_tree.h' line='245' column='1' visibility='default' binding='global' size-in-bits='64'>
            <parameter type-id='type-id-738' is-artificial='yes'/>
            <parameter type-id='type-id-549'/>
            <return type-id='type-id-60'/>
          </function-decl>
        </member-function>
      </class-decl>
      <class-decl name='_Rb_tree&lt;long unsigned int, long unsigned int, std::_Identity&lt;long unsigned int&gt;, std::less&lt;long unsigned int&gt;, STL_Allocator&lt;long unsigned int, HeapLeakChecker::Allocator&gt; &gt;' size-in-bits='384' visibility='default' filepath='/usr/lib/gcc/x86_64-redhat-linux/4.4.7/../../../../include/c++/4.4.7/bits/stl_tree.h' line='323' column='1' id='type-id-497'>
        <member-type access='protected'>
          <class-decl name='_Rb_tree_impl&lt;std::less&lt;long unsigned int&gt;, false&gt;' size-in-bits='384' is-struct='yes' visibility='default' filepath='/usr/lib/gcc/x86_64-redhat-linux/4.4.7/../../../../include/c++/4.4.7/bits/stl_tree.h' line='427' column='1' id='type-id-713'>
            <base-class access='public' layout-offset-in-bits='0' type-id='type-id-314'/>
            <data-member access='public' layout-offset-in-bits='0'>
              <var-decl name='_M_key_compare' type-id='type-id-647' visibility='default' filepath='/usr/lib/gcc/x86_64-redhat-linux/4.4.7/../../../../include/c++/4.4.7/bits/stl_tree.h' line='428' column='1'/>
            </data-member>
            <data-member access='public' layout-offset-in-bits='64'>
              <var-decl name='_M_header' type-id='type-id-590' visibility='default' filepath='/usr/lib/gcc/x86_64-redhat-linux/4.4.7/../../../../include/c++/4.4.7/bits/stl_tree.h' line='429' column='1'/>
            </data-member>
            <data-member access='public' layout-offset-in-bits='320'>
              <var-decl name='_M_node_count' type-id='type-id-62' visibility='default' filepath='/usr/lib/gcc/x86_64-redhat-linux/4.4.7/../../../../include/c++/4.4.7/bits/stl_tree.h' line='430' column='1'/>
            </data-member>
            <member-function access='public'>
              <function-decl name='_Rb_tree_impl' filepath='/usr/lib/gcc/x86_64-redhat-linux/4.4.7/../../../../include/c++/4.4.7/bits/stl_tree.h' line='432' column='1' visibility='default' binding='global' size-in-bits='64'>
                <parameter type-id='type-id-714' is-artificial='yes'/>
                <return type-id='type-id-60'/>
              </function-decl>
            </member-function>
            <member-function access='public'>
              <function-decl name='_Rb_tree_impl' filepath='/usr/lib/gcc/x86_64-redhat-linux/4.4.7/../../../../include/c++/4.4.7/bits/stl_tree.h' line='437' column='1' visibility='default' binding='global' size-in-bits='64'>
                <parameter type-id='type-id-714' is-artificial='yes'/>
                <parameter type-id='type-id-649'/>
                <parameter type-id='type-id-316'/>
                <return type-id='type-id-60'/>
              </function-decl>
            </member-function>
          </class-decl>
        </member-type>
        <data-member access='protected' layout-offset-in-bits='0'>
          <var-decl name='_M_impl' type-id='type-id-713' visibility='default' filepath='/usr/lib/gcc/x86_64-redhat-linux/4.4.7/../../../../include/c++/4.4.7/bits/stl_tree.h' line='453' column='1'/>
        </data-member>
        <member-function access='private'>
          <function-decl name='_Rb_tree' filepath='/usr/lib/gcc/x86_64-redhat-linux/4.4.7/../../../../include/c++/4.4.7/bits/stl_tree.h' line='591' column='1' visibility='default' binding='global' size-in-bits='64'>
            <parameter type-id='type-id-711' is-artificial='yes'/>
            <return type-id='type-id-60'/>
          </function-decl>
        </member-function>
        <member-function access='private'>
          <function-decl name='_Rb_tree' filepath='/usr/lib/gcc/x86_64-redhat-linux/4.4.7/../../../../include/c++/4.4.7/bits/stl_tree.h' line='593' column='1' visibility='default' binding='global' size-in-bits='64'>
            <parameter type-id='type-id-711' is-artificial='yes'/>
            <parameter type-id='type-id-649'/>
            <parameter type-id='type-id-319'/>
            <return type-id='type-id-60'/>
          </function-decl>
        </member-function>
        <member-function access='private'>
          <function-decl name='_Rb_tree' filepath='/usr/lib/gcc/x86_64-redhat-linux/4.4.7/../../../../include/c++/4.4.7/bits/stl_tree.h' line='597' column='1' visibility='default' binding='global' size-in-bits='64'>
            <parameter type-id='type-id-711' is-artificial='yes'/>
            <parameter type-id='type-id-499'/>
            <return type-id='type-id-60'/>
          </function-decl>
        </member-function>
        <member-function access='private' destructor='yes'>
          <function-decl name='~_Rb_tree' filepath='/usr/lib/gcc/x86_64-redhat-linux/4.4.7/../../../../include/c++/4.4.7/bits/stl_tree.h' line='613' column='1' visibility='default' binding='global' size-in-bits='64'>
            <parameter type-id='type-id-711' is-artificial='yes'/>
            <parameter type-id='type-id-1' is-artificial='yes'/>
            <return type-id='type-id-60'/>
          </function-decl>
        </member-function>
        <member-function access='private'>
          <function-decl name='_M_erase' mangled-name='_ZNSt8_Rb_treeImmSt9_IdentityImESt4lessImE13STL_AllocatorImN15HeapLeakChecker9AllocatorEEE8_M_eraseEPSt13_Rb_tree_nodeImE' filepath='/usr/lib/gcc/x86_64-redhat-linux/4.4.7/../../../../include/c++/4.4.7/bits/stl_tree.h' line='964' column='1' visibility='default' binding='global' size-in-bits='64' elf-symbol-id='_ZNSt8_Rb_treeImmSt9_IdentityImESt4lessImE13STL_AllocatorImN15HeapLeakChecker9AllocatorEEE8_M_eraseEPSt13_Rb_tree_nodeImE'>
            <parameter type-id='type-id-712' name='this' is-artificial='yes'/>
            <parameter type-id='type-id-760' name='__p' filepath='/usr/lib/gcc/x86_64-redhat-linux/4.4.7/../../../../include/c++/4.4.7/bits/stl_tree.h' line='362' column='1'/>
            <return type-id='type-id-60'/>
          </function-decl>
        </member-function>
        <member-function access='private'>
          <function-decl name='_M_insert_' mangled-name='_ZNSt8_Rb_treeImmSt9_IdentityImESt4lessImE13STL_AllocatorImN15HeapLeakChecker9AllocatorEEE10_M_insert_EPKSt18_Rb_tree_node_baseSB_RKm' filepath='/usr/lib/gcc/x86_64-redhat-linux/4.4.7/../../../../include/c++/4.4.7/bits/stl_tree.h' line='874' column='1' visibility='default' binding='global' size-in-bits='64' elf-symbol-id='_ZNSt8_Rb_treeImmSt9_IdentityImESt4lessImE13STL_AllocatorImN15HeapLeakChecker9AllocatorEEE10_M_insert_EPKSt18_Rb_tree_node_baseSB_RKm'>
            <parameter type-id='type-id-712' name='this' is-artificial='yes'/>
            <parameter type-id='type-id-592' name='__x' filepath='/usr/lib/gcc/x86_64-redhat-linux/4.4.7/../../../../include/c++/4.4.7/bits/stl_tree.h' line='875' column='1'/>
            <parameter type-id='type-id-592' name='__p' filepath='/usr/lib/gcc/x86_64-redhat-linux/4.4.7/../../../../include/c++/4.4.7/bits/stl_tree.h' line='875' column='1'/>
            <parameter type-id='type-id-707' name='__v' filepath='/usr/lib/gcc/x86_64-redhat-linux/4.4.7/../../../../include/c++/4.4.7/bits/stl_tree.h' line='875' column='1'/>
            <return type-id='type-id-547'/>
          </function-decl>
        </member-function>
      </class-decl>
      <class-decl name='_Rb_tree_iterator&lt;std::pair&lt;const long unsigned int, long unsigned int&gt; &gt;' size-in-bits='64' is-struct='yes' visibility='default' filepath='/usr/lib/gcc/x86_64-redhat-linux/4.4.7/../../../../include/c++/4.4.7/bits/stl_tree.h' line='154' column='1' id='type-id-559'>
        <data-member access='public' layout-offset-in-bits='0'>
          <var-decl name='_M_node' type-id='type-id-865' visibility='default' filepath='/usr/lib/gcc/x86_64-redhat-linux/4.4.7/../../../../include/c++/4.4.7/bits/stl_tree.h' line='219' column='1'/>
        </data-member>
        <member-function access='public'>
          <function-decl name='_Rb_tree_iterator' filepath='/usr/lib/gcc/x86_64-redhat-linux/4.4.7/../../../../include/c++/4.4.7/bits/stl_tree.h' line='166' column='1' visibility='default' binding='global' size-in-bits='64'>
            <parameter type-id='type-id-754' is-artificial='yes'/>
            <return type-id='type-id-60'/>
          </function-decl>
        </member-function>
        <member-function access='public'>
          <function-decl name='_Rb_tree_iterator' filepath='/usr/lib/gcc/x86_64-redhat-linux/4.4.7/../../../../include/c++/4.4.7/bits/stl_tree.h' line='170' column='1' visibility='default' binding='global' size-in-bits='64'>
            <parameter type-id='type-id-754' is-artificial='yes'/>
            <parameter type-id='type-id-764'/>
            <return type-id='type-id-60'/>
          </function-decl>
        </member-function>
      </class-decl>
      <class-decl name='_Rb_tree&lt;long unsigned int, std::pair&lt;const long unsigned int, long unsigned int&gt;, std::_Select1st&lt;std::pair&lt;const long unsigned int, long unsigned int&gt; &gt;, std::less&lt;long unsigned int&gt;, STL_Allocator&lt;std::pair&lt;const long unsigned int, long unsigned int&gt;, HeapLeakChecker::Allocator&gt; &gt;' size-in-bits='384' visibility='default' filepath='/usr/lib/gcc/x86_64-redhat-linux/4.4.7/../../../../include/c++/4.4.7/bits/stl_tree.h' line='323' column='1' id='type-id-507'>
        <member-type access='protected'>
          <class-decl name='_Rb_tree_impl&lt;std::less&lt;long unsigned int&gt;, false&gt;' size-in-bits='384' is-struct='yes' visibility='default' filepath='/usr/lib/gcc/x86_64-redhat-linux/4.4.7/../../../../include/c++/4.4.7/bits/stl_tree.h' line='427' column='1' id='type-id-725'>
            <base-class access='public' layout-offset-in-bits='0' type-id='type-id-320'/>
            <data-member access='public' layout-offset-in-bits='0'>
              <var-decl name='_M_key_compare' type-id='type-id-647' visibility='default' filepath='/usr/lib/gcc/x86_64-redhat-linux/4.4.7/../../../../include/c++/4.4.7/bits/stl_tree.h' line='428' column='1'/>
            </data-member>
            <data-member access='public' layout-offset-in-bits='64'>
              <var-decl name='_M_header' type-id='type-id-590' visibility='default' filepath='/usr/lib/gcc/x86_64-redhat-linux/4.4.7/../../../../include/c++/4.4.7/bits/stl_tree.h' line='429' column='1'/>
            </data-member>
            <data-member access='public' layout-offset-in-bits='320'>
              <var-decl name='_M_node_count' type-id='type-id-62' visibility='default' filepath='/usr/lib/gcc/x86_64-redhat-linux/4.4.7/../../../../include/c++/4.4.7/bits/stl_tree.h' line='430' column='1'/>
            </data-member>
            <member-function access='public'>
              <function-decl name='_Rb_tree_impl' filepath='/usr/lib/gcc/x86_64-redhat-linux/4.4.7/../../../../include/c++/4.4.7/bits/stl_tree.h' line='432' column='1' visibility='default' binding='global' size-in-bits='64'>
                <parameter type-id='type-id-726' is-artificial='yes'/>
                <return type-id='type-id-60'/>
              </function-decl>
            </member-function>
            <member-function access='public'>
              <function-decl name='_Rb_tree_impl' filepath='/usr/lib/gcc/x86_64-redhat-linux/4.4.7/../../../../include/c++/4.4.7/bits/stl_tree.h' line='437' column='1' visibility='default' binding='global' size-in-bits='64'>
                <parameter type-id='type-id-726' is-artificial='yes'/>
                <parameter type-id='type-id-649'/>
                <parameter type-id='type-id-322'/>
                <return type-id='type-id-60'/>
              </function-decl>
            </member-function>
          </class-decl>
        </member-type>
        <data-member access='protected' layout-offset-in-bits='0'>
          <var-decl name='_M_impl' type-id='type-id-725' visibility='default' filepath='/usr/lib/gcc/x86_64-redhat-linux/4.4.7/../../../../include/c++/4.4.7/bits/stl_tree.h' line='453' column='1'/>
        </data-member>
        <member-function access='private'>
          <function-decl name='_Rb_tree' filepath='/usr/lib/gcc/x86_64-redhat-linux/4.4.7/../../../../include/c++/4.4.7/bits/stl_tree.h' line='591' column='1' visibility='default' binding='global' size-in-bits='64'>
            <parameter type-id='type-id-723' is-artificial='yes'/>
            <return type-id='type-id-60'/>
          </function-decl>
        </member-function>
        <member-function access='private'>
          <function-decl name='_Rb_tree' filepath='/usr/lib/gcc/x86_64-redhat-linux/4.4.7/../../../../include/c++/4.4.7/bits/stl_tree.h' line='593' column='1' visibility='default' binding='global' size-in-bits='64'>
            <parameter type-id='type-id-723' is-artificial='yes'/>
            <parameter type-id='type-id-649'/>
            <parameter type-id='type-id-325'/>
            <return type-id='type-id-60'/>
          </function-decl>
        </member-function>
        <member-function access='private'>
          <function-decl name='_Rb_tree' filepath='/usr/lib/gcc/x86_64-redhat-linux/4.4.7/../../../../include/c++/4.4.7/bits/stl_tree.h' line='597' column='1' visibility='default' binding='global' size-in-bits='64'>
            <parameter type-id='type-id-723' is-artificial='yes'/>
            <parameter type-id='type-id-509'/>
            <return type-id='type-id-60'/>
          </function-decl>
        </member-function>
        <member-function access='private' destructor='yes'>
          <function-decl name='~_Rb_tree' filepath='/usr/lib/gcc/x86_64-redhat-linux/4.4.7/../../../../include/c++/4.4.7/bits/stl_tree.h' line='613' column='1' visibility='default' binding='global' size-in-bits='64'>
            <parameter type-id='type-id-723' is-artificial='yes'/>
            <parameter type-id='type-id-1' is-artificial='yes'/>
            <return type-id='type-id-60'/>
          </function-decl>
        </member-function>
        <member-function access='private'>
          <function-decl name='_M_erase' mangled-name='_ZNSt8_Rb_treeImSt4pairIKmmESt10_Select1stIS2_ESt4lessImE13STL_AllocatorIS2_N15HeapLeakChecker9AllocatorEEE8_M_eraseEPSt13_Rb_tree_nodeIS2_E' filepath='/usr/lib/gcc/x86_64-redhat-linux/4.4.7/../../../../include/c++/4.4.7/bits/stl_tree.h' line='964' column='1' visibility='default' binding='global' size-in-bits='64' elf-symbol-id='_ZNSt8_Rb_treeImSt4pairIKmmESt10_Select1stIS2_ESt4lessImE13STL_AllocatorIS2_N15HeapLeakChecker9AllocatorEEE8_M_eraseEPSt13_Rb_tree_nodeIS2_E'>
            <parameter type-id='type-id-724' name='this' is-artificial='yes'/>
            <parameter type-id='type-id-764' name='__p' filepath='/usr/lib/gcc/x86_64-redhat-linux/4.4.7/../../../../include/c++/4.4.7/bits/stl_tree.h' line='362' column='1'/>
            <return type-id='type-id-60'/>
          </function-decl>
        </member-function>
        <member-function access='private'>
          <function-decl name='_M_insert_' mangled-name='_ZNSt8_Rb_treeImSt4pairIKmmESt10_Select1stIS2_ESt4lessImE13STL_AllocatorIS2_N15HeapLeakChecker9AllocatorEEE10_M_insert_EPKSt18_Rb_tree_node_baseSE_RKS2_' filepath='/usr/lib/gcc/x86_64-redhat-linux/4.4.7/../../../../include/c++/4.4.7/bits/stl_tree.h' line='874' column='1' visibility='default' binding='global' size-in-bits='64' elf-symbol-id='_ZNSt8_Rb_treeImSt4pairIKmmESt10_Select1stIS2_ESt4lessImE13STL_AllocatorIS2_N15HeapLeakChecker9AllocatorEEE10_M_insert_EPKSt18_Rb_tree_node_baseSE_RKS2_'>
            <parameter type-id='type-id-724' name='this' is-artificial='yes'/>
            <parameter type-id='type-id-592' name='__x' filepath='/usr/lib/gcc/x86_64-redhat-linux/4.4.7/../../../../include/c++/4.4.7/bits/stl_tree.h' line='875' column='1'/>
            <parameter type-id='type-id-592' name='__p' filepath='/usr/lib/gcc/x86_64-redhat-linux/4.4.7/../../../../include/c++/4.4.7/bits/stl_tree.h' line='875' column='1'/>
            <parameter type-id='type-id-675' name='__v' filepath='/usr/lib/gcc/x86_64-redhat-linux/4.4.7/../../../../include/c++/4.4.7/bits/stl_tree.h' line='875' column='1'/>
            <return type-id='type-id-559'/>
          </function-decl>
        </member-function>
      </class-decl>
      <class-decl name='_Identity&lt;long unsigned int&gt;' size-in-bits='8' is-struct='yes' visibility='default' filepath='/usr/lib/gcc/x86_64-redhat-linux/4.4.7/../../../../include/c++/4.4.7/bits/stl_function.h' line='469' column='1' id='type-id-493'>
        <base-class access='public' layout-offset-in-bits='0' type-id='type-id-879'/>
      </class-decl>
      <class-decl name='unary_function&lt;long unsigned int, long unsigned int&gt;' size-in-bits='8' is-struct='yes' visibility='default' filepath='/usr/lib/gcc/x86_64-redhat-linux/4.4.7/../../../../include/c++/4.4.7/bits/stl_function.h' line='101' column='1' id='type-id-879'/>
      <class-decl name='_Select1st&lt;std::pair&lt;const long unsigned int, long unsigned int&gt; &gt;' size-in-bits='8' is-struct='yes' visibility='default' filepath='/usr/lib/gcc/x86_64-redhat-linux/4.4.7/../../../../include/c++/4.4.7/bits/stl_function.h' line='482' column='1' id='type-id-597'>
        <base-class access='public' layout-offset-in-bits='0' type-id='type-id-880'/>
      </class-decl>
      <class-decl name='unary_function&lt;std::pair&lt;const long unsigned int, long unsigned int&gt;, const long unsigned int&gt;' size-in-bits='8' is-struct='yes' visibility='default' filepath='/usr/lib/gcc/x86_64-redhat-linux/4.4.7/../../../../include/c++/4.4.7/bits/stl_function.h' line='101' column='1' id='type-id-880'/>
      <class-decl name='_Vector_base&lt;void*, STL_Allocator&lt;void*, HeapLeakChecker::Allocator&gt; &gt;' size-in-bits='192' is-struct='yes' visibility='default' filepath='/usr/lib/gcc/x86_64-redhat-linux/4.4.7/../../../../include/c++/4.4.7/bits/stl_vector.h' line='70' column='1' id='type-id-613'>
        <member-type access='public'>
          <class-decl name='_Vector_impl' size-in-bits='192' is-struct='yes' visibility='default' filepath='/usr/lib/gcc/x86_64-redhat-linux/4.4.7/../../../../include/c++/4.4.7/bits/stl_vector.h' line='75' column='1' id='type-id-779'>
            <base-class access='public' layout-offset-in-bits='0' type-id='type-id-171'/>
            <data-member access='public' layout-offset-in-bits='0'>
              <var-decl name='_M_start' type-id='type-id-151' visibility='default' filepath='/usr/lib/gcc/x86_64-redhat-linux/4.4.7/../../../../include/c++/4.4.7/bits/stl_vector.h' line='76' column='1'/>
            </data-member>
            <data-member access='public' layout-offset-in-bits='64'>
              <var-decl name='_M_finish' type-id='type-id-151' visibility='default' filepath='/usr/lib/gcc/x86_64-redhat-linux/4.4.7/../../../../include/c++/4.4.7/bits/stl_vector.h' line='77' column='1'/>
            </data-member>
            <data-member access='public' layout-offset-in-bits='128'>
              <var-decl name='_M_end_of_storage' type-id='type-id-151' visibility='default' filepath='/usr/lib/gcc/x86_64-redhat-linux/4.4.7/../../../../include/c++/4.4.7/bits/stl_vector.h' line='78' column='1'/>
            </data-member>
            <member-function access='public' constructor='yes'>
              <function-decl name='_Vector_impl' filepath='/usr/lib/gcc/x86_64-redhat-linux/4.4.7/../../../../include/c++/4.4.7/bits/stl_vector.h' line='80' column='1' visibility='default' binding='global' size-in-bits='64'>
                <parameter type-id='type-id-780' is-artificial='yes'/>
                <return type-id='type-id-60'/>
              </function-decl>
            </member-function>
            <member-function access='public' constructor='yes'>
              <function-decl name='_Vector_impl' filepath='/usr/lib/gcc/x86_64-redhat-linux/4.4.7/../../../../include/c++/4.4.7/bits/stl_vector.h' line='84' column='1' visibility='default' binding='global' size-in-bits='64'>
                <parameter type-id='type-id-780' is-artificial='yes'/>
                <parameter type-id='type-id-173'/>
                <return type-id='type-id-60'/>
              </function-decl>
            </member-function>
          </class-decl>
        </member-type>
        <data-member access='public' layout-offset-in-bits='0'>
          <var-decl name='_M_impl' type-id='type-id-779' visibility='default' filepath='/usr/lib/gcc/x86_64-redhat-linux/4.4.7/../../../../include/c++/4.4.7/bits/stl_vector.h' line='136' column='1'/>
        </data-member>
        <member-function access='public'>
          <function-decl name='_Vector_base' filepath='/usr/lib/gcc/x86_64-redhat-linux/4.4.7/../../../../include/c++/4.4.7/bits/stl_vector.h' line='104' column='1' visibility='default' binding='global' size-in-bits='64'>
            <parameter type-id='type-id-777' is-artificial='yes'/>
            <return type-id='type-id-60'/>
          </function-decl>
        </member-function>
        <member-function access='public'>
          <function-decl name='_Vector_base' filepath='/usr/lib/gcc/x86_64-redhat-linux/4.4.7/../../../../include/c++/4.4.7/bits/stl_vector.h' line='107' column='1' visibility='default' binding='global' size-in-bits='64'>
            <parameter type-id='type-id-777' is-artificial='yes'/>
            <parameter type-id='type-id-173'/>
            <return type-id='type-id-60'/>
          </function-decl>
        </member-function>
        <member-function access='public'>
          <function-decl name='_Vector_base' filepath='/usr/lib/gcc/x86_64-redhat-linux/4.4.7/../../../../include/c++/4.4.7/bits/stl_vector.h' line='110' column='1' visibility='default' binding='global' size-in-bits='64'>
            <parameter type-id='type-id-777' is-artificial='yes'/>
            <parameter type-id='type-id-5'/>
            <parameter type-id='type-id-173'/>
            <return type-id='type-id-60'/>
          </function-decl>
        </member-function>
        <member-function access='public' destructor='yes'>
          <function-decl name='~_Vector_base' filepath='/usr/lib/gcc/x86_64-redhat-linux/4.4.7/../../../../include/c++/4.4.7/bits/stl_vector.h' line='131' column='1' visibility='default' binding='global' size-in-bits='64'>
            <parameter type-id='type-id-777' is-artificial='yes'/>
            <parameter type-id='type-id-1' is-artificial='yes'/>
            <return type-id='type-id-60'/>
          </function-decl>
        </member-function>
      </class-decl>
      <class-decl name='pair&lt;const long unsigned int, long unsigned int&gt;' size-in-bits='128' is-struct='yes' visibility='default' filepath='/usr/lib/gcc/x86_64-redhat-linux/4.4.7/../../../../include/c++/4.4.7/bits/stl_pair.h' line='68' column='1' id='type-id-672'>
        <data-member access='public' layout-offset-in-bits='0'>
          <var-decl name='first' type-id='type-id-708' visibility='default' filepath='/usr/lib/gcc/x86_64-redhat-linux/4.4.7/../../../../include/c++/4.4.7/bits/stl_pair.h' line='72' column='1'/>
        </data-member>
        <data-member access='public' layout-offset-in-bits='64'>
          <var-decl name='second' type-id='type-id-5' visibility='default' filepath='/usr/lib/gcc/x86_64-redhat-linux/4.4.7/../../../../include/c++/4.4.7/bits/stl_pair.h' line='73' column='1'/>
        </data-member>
        <member-function access='public'>
          <function-decl name='pair' filepath='/usr/lib/gcc/x86_64-redhat-linux/4.4.7/../../../../include/c++/4.4.7/bits/stl_pair.h' line='79' column='1' visibility='default' binding='global' size-in-bits='64'>
            <parameter type-id='type-id-809' is-artificial='yes'/>
            <return type-id='type-id-60'/>
          </function-decl>
        </member-function>
        <member-function access='public'>
          <function-decl name='pair' filepath='/usr/lib/gcc/x86_64-redhat-linux/4.4.7/../../../../include/c++/4.4.7/bits/stl_pair.h' line='83' column='1' visibility='default' binding='global' size-in-bits='64'>
            <parameter type-id='type-id-809' is-artificial='yes'/>
            <parameter type-id='type-id-706'/>
            <parameter type-id='type-id-706'/>
            <return type-id='type-id-60'/>
          </function-decl>
        </member-function>
        <member-function access='public'>
          <function-decl name='pair&lt;long unsigned int, long unsigned int&gt;' filepath='/usr/lib/gcc/x86_64-redhat-linux/4.4.7/../../../../include/c++/4.4.7/bits/stl_pair.h' line='99' column='1' visibility='default' binding='global' size-in-bits='64'>
            <parameter type-id='type-id-809' is-artificial='yes'/>
            <parameter type-id='type-id-687'/>
            <return type-id='type-id-60'/>
          </function-decl>
        </member-function>
      </class-decl>
      <class-decl name='_Select1st&lt;std::pair&lt;const long unsigned int, HeapLeakChecker::RangeValue&gt; &gt;' size-in-bits='8' is-struct='yes' visibility='default' filepath='/usr/lib/gcc/x86_64-redhat-linux/4.4.7/../../../../include/c++/4.4.7/bits/stl_function.h' line='482' column='1' id='type-id-593'>
        <base-class access='public' layout-offset-in-bits='0' type-id='type-id-881'/>
      </class-decl>
      <class-decl name='unary_function&lt;std::pair&lt;const long unsigned int, HeapLeakChecker::RangeValue&gt;, const long unsigned int&gt;' size-in-bits='8' is-struct='yes' visibility='default' filepath='/usr/lib/gcc/x86_64-redhat-linux/4.4.7/../../../../include/c++/4.4.7/bits/stl_function.h' line='101' column='1' id='type-id-881'/>
      <class-decl name='_Select1st&lt;std::pair&lt;const std::basic_string&lt;char, std::char_traits&lt;char&gt;, STL_Allocator&lt;char, HeapLeakChecker::Allocator&gt; &gt;, std::vector&lt;AllocObject, STL_Allocator&lt;AllocObject, HeapLeakChecker::Allocator&gt; &gt; &gt; &gt;' size-in-bits='8' is-struct='yes' visibility='default' filepath='/usr/lib/gcc/x86_64-redhat-linux/4.4.7/../../../../include/c++/4.4.7/bits/stl_function.h' line='482' column='1' id='type-id-601'>
        <base-class access='public' layout-offset-in-bits='0' type-id='type-id-882'/>
      </class-decl>
      <class-decl name='unary_function&lt;std::pair&lt;const std::basic_string&lt;char, std::char_traits&lt;char&gt;, STL_Allocator&lt;char, HeapLeakChecker::Allocator&gt; &gt;, std::vector&lt;AllocObject, STL_Allocator&lt;AllocObject, HeapLeakChecker::Allocator&gt; &gt; &gt;, const std::basic_string&lt;char, std::char_traits&lt;char&gt;, STL_Allocator&lt;char, HeapLeakChecker::Allocator&gt; &gt; &gt;' size-in-bits='8' is-struct='yes' visibility='default' filepath='/usr/lib/gcc/x86_64-redhat-linux/4.4.7/../../../../include/c++/4.4.7/bits/stl_function.h' line='101' column='1' id='type-id-882'/>
      <class-decl name='_Vector_base&lt;void (*)(), std::allocator&lt;void (*)()&gt; &gt;' size-in-bits='192' is-struct='yes' visibility='default' filepath='/usr/lib/gcc/x86_64-redhat-linux/4.4.7/../../../../include/c++/4.4.7/bits/stl_vector.h' line='70' column='1' id='type-id-609'>
        <member-type access='public'>
          <class-decl name='_Vector_impl' size-in-bits='192' is-struct='yes' visibility='default' filepath='/usr/lib/gcc/x86_64-redhat-linux/4.4.7/../../../../include/c++/4.4.7/bits/stl_vector.h' line='75' column='1' id='type-id-775'>
            <base-class access='public' layout-offset-in-bits='0' type-id='type-id-619'/>
            <data-member access='public' layout-offset-in-bits='0'>
              <var-decl name='_M_start' type-id='type-id-845' visibility='default' filepath='/usr/lib/gcc/x86_64-redhat-linux/4.4.7/../../../../include/c++/4.4.7/bits/stl_vector.h' line='76' column='1'/>
            </data-member>
            <data-member access='public' layout-offset-in-bits='64'>
              <var-decl name='_M_finish' type-id='type-id-845' visibility='default' filepath='/usr/lib/gcc/x86_64-redhat-linux/4.4.7/../../../../include/c++/4.4.7/bits/stl_vector.h' line='77' column='1'/>
            </data-member>
            <data-member access='public' layout-offset-in-bits='128'>
              <var-decl name='_M_end_of_storage' type-id='type-id-845' visibility='default' filepath='/usr/lib/gcc/x86_64-redhat-linux/4.4.7/../../../../include/c++/4.4.7/bits/stl_vector.h' line='78' column='1'/>
            </data-member>
            <member-function access='public' constructor='yes'>
              <function-decl name='_Vector_impl' filepath='/usr/lib/gcc/x86_64-redhat-linux/4.4.7/../../../../include/c++/4.4.7/bits/stl_vector.h' line='80' column='1' visibility='default' binding='global' size-in-bits='64'>
                <parameter type-id='type-id-776' is-artificial='yes'/>
                <return type-id='type-id-60'/>
              </function-decl>
            </member-function>
            <member-function access='public' constructor='yes'>
              <function-decl name='_Vector_impl' filepath='/usr/lib/gcc/x86_64-redhat-linux/4.4.7/../../../../include/c++/4.4.7/bits/stl_vector.h' line='84' column='1' visibility='default' binding='global' size-in-bits='64'>
                <parameter type-id='type-id-776' is-artificial='yes'/>
                <parameter type-id='type-id-621'/>
                <return type-id='type-id-60'/>
              </function-decl>
            </member-function>
          </class-decl>
        </member-type>
        <data-member access='public' layout-offset-in-bits='0'>
          <var-decl name='_M_impl' type-id='type-id-775' visibility='default' filepath='/usr/lib/gcc/x86_64-redhat-linux/4.4.7/../../../../include/c++/4.4.7/bits/stl_vector.h' line='136' column='1'/>
        </data-member>
        <member-function access='public'>
          <function-decl name='_Vector_base' filepath='/usr/lib/gcc/x86_64-redhat-linux/4.4.7/../../../../include/c++/4.4.7/bits/stl_vector.h' line='104' column='1' visibility='default' binding='global' size-in-bits='64'>
            <parameter type-id='type-id-773' is-artificial='yes'/>
            <return type-id='type-id-60'/>
          </function-decl>
        </member-function>
        <member-function access='public'>
          <function-decl name='_Vector_base' filepath='/usr/lib/gcc/x86_64-redhat-linux/4.4.7/../../../../include/c++/4.4.7/bits/stl_vector.h' line='107' column='1' visibility='default' binding='global' size-in-bits='64'>
            <parameter type-id='type-id-773' is-artificial='yes'/>
            <parameter type-id='type-id-621'/>
            <return type-id='type-id-60'/>
          </function-decl>
        </member-function>
        <member-function access='public'>
          <function-decl name='_Vector_base' filepath='/usr/lib/gcc/x86_64-redhat-linux/4.4.7/../../../../include/c++/4.4.7/bits/stl_vector.h' line='110' column='1' visibility='default' binding='global' size-in-bits='64'>
            <parameter type-id='type-id-773' is-artificial='yes'/>
            <parameter type-id='type-id-5'/>
            <parameter type-id='type-id-621'/>
            <return type-id='type-id-60'/>
          </function-decl>
        </member-function>
        <member-function access='public' destructor='yes'>
          <function-decl name='~_Vector_base' filepath='/usr/lib/gcc/x86_64-redhat-linux/4.4.7/../../../../include/c++/4.4.7/bits/stl_vector.h' line='131' column='1' visibility='default' binding='global' size-in-bits='64'>
            <parameter type-id='type-id-773' is-artificial='yes'/>
            <parameter type-id='type-id-1' is-artificial='yes'/>
            <return type-id='type-id-60'/>
          </function-decl>
        </member-function>
      </class-decl>
      <class-decl name='pair&lt;const long unsigned int, HeapLeakChecker::RangeValue&gt;' size-in-bits='192' is-struct='yes' visibility='default' filepath='/usr/lib/gcc/x86_64-redhat-linux/4.4.7/../../../../include/c++/4.4.7/bits/stl_pair.h' line='68' column='1' id='type-id-667'>
        <data-member access='public' layout-offset-in-bits='0'>
          <var-decl name='first' type-id='type-id-708' visibility='default' filepath='/usr/lib/gcc/x86_64-redhat-linux/4.4.7/../../../../include/c++/4.4.7/bits/stl_pair.h' line='72' column='1'/>
        </data-member>
        <data-member access='public' layout-offset-in-bits='64'>
          <var-decl name='second' type-id='type-id-283' visibility='default' filepath='/usr/lib/gcc/x86_64-redhat-linux/4.4.7/../../../../include/c++/4.4.7/bits/stl_pair.h' line='73' column='1'/>
        </data-member>
        <member-function access='public'>
          <function-decl name='pair' filepath='/usr/lib/gcc/x86_64-redhat-linux/4.4.7/../../../../include/c++/4.4.7/bits/stl_pair.h' line='79' column='1' visibility='default' binding='global' size-in-bits='64'>
            <parameter type-id='type-id-807' is-artificial='yes'/>
            <return type-id='type-id-60'/>
          </function-decl>
        </member-function>
        <member-function access='public'>
          <function-decl name='pair' filepath='/usr/lib/gcc/x86_64-redhat-linux/4.4.7/../../../../include/c++/4.4.7/bits/stl_pair.h' line='83' column='1' visibility='default' binding='global' size-in-bits='64'>
            <parameter type-id='type-id-807' is-artificial='yes'/>
            <parameter type-id='type-id-706'/>
            <parameter type-id='type-id-408'/>
            <return type-id='type-id-60'/>
          </function-decl>
        </member-function>
        <member-function access='public'>
          <function-decl name='pair&lt;long unsigned int, HeapLeakChecker::RangeValue&gt;' filepath='/usr/lib/gcc/x86_64-redhat-linux/4.4.7/../../../../include/c++/4.4.7/bits/stl_pair.h' line='99' column='1' visibility='default' binding='global' size-in-bits='64'>
            <parameter type-id='type-id-807' is-artificial='yes'/>
            <parameter type-id='type-id-684'/>
            <return type-id='type-id-60'/>
          </function-decl>
        </member-function>
      </class-decl>
      <class-decl name='pair&lt;std::_Rb_tree_iterator&lt;std::pair&lt;const long unsigned int, HeapLeakChecker::RangeValue&gt; &gt;, bool&gt;' size-in-bits='128' is-struct='yes' visibility='default' filepath='/usr/lib/gcc/x86_64-redhat-linux/4.4.7/../../../../include/c++/4.4.7/bits/stl_pair.h' line='68' column='1' id='type-id-818'>
        <data-member access='public' layout-offset-in-bits='0'>
          <var-decl name='first' type-id='type-id-553' visibility='default' filepath='/usr/lib/gcc/x86_64-redhat-linux/4.4.7/../../../../include/c++/4.4.7/bits/stl_pair.h' line='72' column='1'/>
        </data-member>
        <data-member access='public' layout-offset-in-bits='64'>
          <var-decl name='second' type-id='type-id-61' visibility='default' filepath='/usr/lib/gcc/x86_64-redhat-linux/4.4.7/../../../../include/c++/4.4.7/bits/stl_pair.h' line='73' column='1'/>
        </data-member>
        <member-function access='public'>
          <function-decl name='pair' filepath='/usr/lib/gcc/x86_64-redhat-linux/4.4.7/../../../../include/c++/4.4.7/bits/stl_pair.h' line='79' column='1' visibility='default' binding='global' size-in-bits='64'>
            <parameter type-id='type-id-819' is-artificial='yes'/>
            <return type-id='type-id-60'/>
          </function-decl>
        </member-function>
        <member-function access='public'>
          <function-decl name='pair' filepath='/usr/lib/gcc/x86_64-redhat-linux/4.4.7/../../../../include/c++/4.4.7/bits/stl_pair.h' line='83' column='1' visibility='default' binding='global' size-in-bits='64'>
            <parameter type-id='type-id-819' is-artificial='yes'/>
            <parameter type-id='type-id-555'/>
            <parameter type-id='type-id-488'/>
            <return type-id='type-id-60'/>
          </function-decl>
        </member-function>
      </class-decl>
      <class-decl name='map&lt;long unsigned int, HeapLeakChecker::RangeValue, std::less&lt;long unsigned int&gt;, STL_Allocator&lt;std::pair&lt;const long unsigned int, HeapLeakChecker::RangeValue&gt;, HeapLeakChecker::Allocator&gt; &gt;' size-in-bits='384' visibility='default' filepath='/usr/lib/gcc/x86_64-redhat-linux/4.4.7/../../../../include/c++/4.4.7/bits/stl_map.h' line='87' column='1' id='type-id-327'>
        <member-type access='private'>
          <class-decl name='value_compare' visibility='default' is-declaration-only='yes' id='type-id-883'/>
        </member-type>
        <data-member access='private' layout-offset-in-bits='0'>
          <var-decl name='_M_t' type-id='type-id-502' visibility='default' filepath='/usr/lib/gcc/x86_64-redhat-linux/4.4.7/../../../../include/c++/4.4.7/bits/stl_map.h' line='128' column='1'/>
        </data-member>
        <member-function access='private'>
          <function-decl name='map' filepath='/usr/lib/gcc/x86_64-redhat-linux/4.4.7/../../../../include/c++/4.4.7/bits/stl_map.h' line='150' column='1' visibility='default' binding='global' size-in-bits='64'>
            <parameter type-id='type-id-798' is-artificial='yes'/>
            <return type-id='type-id-60'/>
          </function-decl>
        </member-function>
        <member-function access='private'>
          <function-decl name='map' filepath='/usr/lib/gcc/x86_64-redhat-linux/4.4.7/../../../../include/c++/4.4.7/bits/stl_map.h' line='159' column='1' visibility='default' binding='global' size-in-bits='64'>
            <parameter type-id='type-id-798' is-artificial='yes'/>
            <parameter type-id='type-id-649'/>
            <parameter type-id='type-id-313'/>
            <return type-id='type-id-60'/>
          </function-decl>
        </member-function>
        <member-function access='private'>
          <function-decl name='map' filepath='/usr/lib/gcc/x86_64-redhat-linux/4.4.7/../../../../include/c++/4.4.7/bits/stl_map.h' line='170' column='1' visibility='default' binding='global' size-in-bits='64'>
            <parameter type-id='type-id-798' is-artificial='yes'/>
            <parameter type-id='type-id-658'/>
            <return type-id='type-id-60'/>
          </function-decl>
        </member-function>
      </class-decl>
      <class-decl name='pair&lt;std::_Rb_tree_iterator&lt;std::pair&lt;const long unsigned int, long unsigned int&gt; &gt;, bool&gt;' size-in-bits='128' is-struct='yes' visibility='default' filepath='/usr/lib/gcc/x86_64-redhat-linux/4.4.7/../../../../include/c++/4.4.7/bits/stl_pair.h' line='68' column='1' id='type-id-820'>
        <data-member access='public' layout-offset-in-bits='0'>
          <var-decl name='first' type-id='type-id-559' visibility='default' filepath='/usr/lib/gcc/x86_64-redhat-linux/4.4.7/../../../../include/c++/4.4.7/bits/stl_pair.h' line='72' column='1'/>
        </data-member>
        <data-member access='public' layout-offset-in-bits='64'>
          <var-decl name='second' type-id='type-id-61' visibility='default' filepath='/usr/lib/gcc/x86_64-redhat-linux/4.4.7/../../../../include/c++/4.4.7/bits/stl_pair.h' line='73' column='1'/>
        </data-member>
        <member-function access='public'>
          <function-decl name='pair' filepath='/usr/lib/gcc/x86_64-redhat-linux/4.4.7/../../../../include/c++/4.4.7/bits/stl_pair.h' line='79' column='1' visibility='default' binding='global' size-in-bits='64'>
            <parameter type-id='type-id-821' is-artificial='yes'/>
            <return type-id='type-id-60'/>
          </function-decl>
        </member-function>
        <member-function access='public'>
          <function-decl name='pair' filepath='/usr/lib/gcc/x86_64-redhat-linux/4.4.7/../../../../include/c++/4.4.7/bits/stl_pair.h' line='83' column='1' visibility='default' binding='global' size-in-bits='64'>
            <parameter type-id='type-id-821' is-artificial='yes'/>
            <parameter type-id='type-id-561'/>
            <parameter type-id='type-id-488'/>
            <return type-id='type-id-60'/>
          </function-decl>
        </member-function>
      </class-decl>
      <class-decl name='pair&lt;std::_Rb_tree_iterator&lt;long unsigned int&gt;, bool&gt;' size-in-bits='128' is-struct='yes' visibility='default' filepath='/usr/lib/gcc/x86_64-redhat-linux/4.4.7/../../../../include/c++/4.4.7/bits/stl_pair.h' line='68' column='1' id='type-id-816'>
        <data-member access='public' layout-offset-in-bits='0'>
          <var-decl name='first' type-id='type-id-547' visibility='default' filepath='/usr/lib/gcc/x86_64-redhat-linux/4.4.7/../../../../include/c++/4.4.7/bits/stl_pair.h' line='72' column='1'/>
        </data-member>
        <data-member access='public' layout-offset-in-bits='64'>
          <var-decl name='second' type-id='type-id-61' visibility='default' filepath='/usr/lib/gcc/x86_64-redhat-linux/4.4.7/../../../../include/c++/4.4.7/bits/stl_pair.h' line='73' column='1'/>
        </data-member>
        <member-function access='public'>
          <function-decl name='pair' filepath='/usr/lib/gcc/x86_64-redhat-linux/4.4.7/../../../../include/c++/4.4.7/bits/stl_pair.h' line='79' column='1' visibility='default' binding='global' size-in-bits='64'>
            <parameter type-id='type-id-817' is-artificial='yes'/>
            <return type-id='type-id-60'/>
          </function-decl>
        </member-function>
        <member-function access='public'>
          <function-decl name='pair' filepath='/usr/lib/gcc/x86_64-redhat-linux/4.4.7/../../../../include/c++/4.4.7/bits/stl_pair.h' line='83' column='1' visibility='default' binding='global' size-in-bits='64'>
            <parameter type-id='type-id-817' is-artificial='yes'/>
            <parameter type-id='type-id-549'/>
            <parameter type-id='type-id-488'/>
            <return type-id='type-id-60'/>
          </function-decl>
        </member-function>
      </class-decl>
      <class-decl name='pair&lt;std::_Rb_tree_const_iterator&lt;long unsigned int&gt;, bool&gt;' size-in-bits='128' is-struct='yes' visibility='default' filepath='/usr/lib/gcc/x86_64-redhat-linux/4.4.7/../../../../include/c++/4.4.7/bits/stl_pair.h' line='68' column='1' id='type-id-814'>
        <data-member access='public' layout-offset-in-bits='0'>
          <var-decl name='first' type-id='type-id-522' visibility='default' filepath='/usr/lib/gcc/x86_64-redhat-linux/4.4.7/../../../../include/c++/4.4.7/bits/stl_pair.h' line='72' column='1'/>
        </data-member>
        <data-member access='public' layout-offset-in-bits='64'>
          <var-decl name='second' type-id='type-id-61' visibility='default' filepath='/usr/lib/gcc/x86_64-redhat-linux/4.4.7/../../../../include/c++/4.4.7/bits/stl_pair.h' line='73' column='1'/>
        </data-member>
        <member-function access='public'>
          <function-decl name='pair' filepath='/usr/lib/gcc/x86_64-redhat-linux/4.4.7/../../../../include/c++/4.4.7/bits/stl_pair.h' line='79' column='1' visibility='default' binding='global' size-in-bits='64'>
            <parameter type-id='type-id-815' is-artificial='yes'/>
            <return type-id='type-id-60'/>
          </function-decl>
        </member-function>
        <member-function access='public'>
          <function-decl name='pair' filepath='/usr/lib/gcc/x86_64-redhat-linux/4.4.7/../../../../include/c++/4.4.7/bits/stl_pair.h' line='83' column='1' visibility='default' binding='global' size-in-bits='64'>
            <parameter type-id='type-id-815' is-artificial='yes'/>
            <parameter type-id='type-id-524'/>
            <parameter type-id='type-id-488'/>
            <return type-id='type-id-60'/>
          </function-decl>
        </member-function>
      </class-decl>
      <class-decl name='map&lt;long unsigned int, long unsigned int, std::less&lt;long unsigned int&gt;, STL_Allocator&lt;std::pair&lt;const long unsigned int, long unsigned int&gt;, HeapLeakChecker::Allocator&gt; &gt;' size-in-bits='384' visibility='default' filepath='/usr/lib/gcc/x86_64-redhat-linux/4.4.7/../../../../include/c++/4.4.7/bits/stl_map.h' line='87' column='1' id='type-id-329'>
        <member-type access='private'>
          <class-decl name='value_compare' visibility='default' is-declaration-only='yes' id='type-id-884'/>
        </member-type>
        <data-member access='private' layout-offset-in-bits='0'>
          <var-decl name='_M_t' type-id='type-id-507' visibility='default' filepath='/usr/lib/gcc/x86_64-redhat-linux/4.4.7/../../../../include/c++/4.4.7/bits/stl_map.h' line='128' column='1'/>
        </data-member>
        <member-function access='private'>
          <function-decl name='map' filepath='/usr/lib/gcc/x86_64-redhat-linux/4.4.7/../../../../include/c++/4.4.7/bits/stl_map.h' line='150' column='1' visibility='default' binding='global' size-in-bits='64'>
            <parameter type-id='type-id-801' is-artificial='yes'/>
            <return type-id='type-id-60'/>
          </function-decl>
        </member-function>
        <member-function access='private'>
          <function-decl name='map' filepath='/usr/lib/gcc/x86_64-redhat-linux/4.4.7/../../../../include/c++/4.4.7/bits/stl_map.h' line='159' column='1' visibility='default' binding='global' size-in-bits='64'>
            <parameter type-id='type-id-801' is-artificial='yes'/>
            <parameter type-id='type-id-649'/>
            <parameter type-id='type-id-325'/>
            <return type-id='type-id-60'/>
          </function-decl>
        </member-function>
        <member-function access='private'>
          <function-decl name='map' filepath='/usr/lib/gcc/x86_64-redhat-linux/4.4.7/../../../../include/c++/4.4.7/bits/stl_map.h' line='170' column='1' visibility='default' binding='global' size-in-bits='64'>
            <parameter type-id='type-id-801' is-artificial='yes'/>
            <parameter type-id='type-id-661'/>
            <return type-id='type-id-60'/>
          </function-decl>
        </member-function>
      </class-decl>
      <class-decl name='set&lt;long unsigned int, std::less&lt;long unsigned int&gt;, STL_Allocator&lt;long unsigned int, HeapLeakChecker::Allocator&gt; &gt;' size-in-bits='384' visibility='default' filepath='/usr/lib/gcc/x86_64-redhat-linux/4.4.7/../../../../include/c++/4.4.7/bits/stl_set.h' line='88' column='1' id='type-id-335'>
        <data-member access='private' layout-offset-in-bits='0'>
          <var-decl name='_M_t' type-id='type-id-497' visibility='default' filepath='/usr/lib/gcc/x86_64-redhat-linux/4.4.7/../../../../include/c++/4.4.7/bits/stl_set.h' line='112' column='1'/>
        </data-member>
        <member-function access='private'>
          <function-decl name='set' filepath='/usr/lib/gcc/x86_64-redhat-linux/4.4.7/../../../../include/c++/4.4.7/bits/stl_set.h' line='136' column='1' visibility='default' binding='global' size-in-bits='64'>
            <parameter type-id='type-id-825' is-artificial='yes'/>
            <return type-id='type-id-60'/>
          </function-decl>
        </member-function>
        <member-function access='private'>
          <function-decl name='set' filepath='/usr/lib/gcc/x86_64-redhat-linux/4.4.7/../../../../include/c++/4.4.7/bits/stl_set.h' line='145' column='1' visibility='default' binding='global' size-in-bits='64'>
            <parameter type-id='type-id-825' is-artificial='yes'/>
            <parameter type-id='type-id-649'/>
            <parameter type-id='type-id-319'/>
            <return type-id='type-id-60'/>
          </function-decl>
        </member-function>
        <member-function access='private'>
          <function-decl name='set' filepath='/usr/lib/gcc/x86_64-redhat-linux/4.4.7/../../../../include/c++/4.4.7/bits/stl_set.h' line='188' column='1' visibility='default' binding='global' size-in-bits='64'>
            <parameter type-id='type-id-825' is-artificial='yes'/>
            <parameter type-id='type-id-689'/>
            <return type-id='type-id-60'/>
          </function-decl>
        </member-function>
      </class-decl>
      <class-decl name='map&lt;std::basic_string&lt;char, std::char_traits&lt;char&gt;, STL_Allocator&lt;char, HeapLeakChecker::Allocator&gt; &gt;, std::vector&lt;AllocObject, STL_Allocator&lt;AllocObject, HeapLeakChecker::Allocator&gt; &gt;, std::less&lt;std::basic_string&lt;char, std::char_traits&lt;char&gt;, STL_Allocator&lt;char, HeapLeakChecker::Allocator&gt; &gt; &gt;, STL_Allocator&lt;std::pair&lt;const std::basic_string&lt;char, std::char_traits&lt;char&gt;, STL_Allocator&lt;char, HeapLeakChecker::Allocator&gt; &gt;, std::vector&lt;AllocObject, STL_Allocator&lt;AllocObject, HeapLeakChecker::Allocator&gt; &gt; &gt;, HeapLeakChecker::Allocator&gt; &gt;' size-in-bits='384' visibility='default' filepath='/usr/lib/gcc/x86_64-redhat-linux/4.4.7/../../../../include/c++/4.4.7/bits/stl_map.h' line='87' column='1' id='type-id-331'>
        <member-type access='private'>
          <class-decl name='value_compare' visibility='default' is-declaration-only='yes' id='type-id-885'/>
        </member-type>
        <data-member access='private' layout-offset-in-bits='0'>
