<abi-corpus version='2.0' path='data/test-read-dwarf/test12-pr18844.so'>
  <elf-needed>
    <dependency name='build/debug/mongo/bson/mutable/libmutable_bson.so'/>
    <dependency name='build/debug/mongo/bson/util/libbson_extract.so'/>
    <dependency name='build/debug/mongo/client/libread_preference.so'/>
    <dependency name='build/debug/mongo/db/concurrency/liblock_manager.so'/>
    <dependency name='build/debug/mongo/db/concurrency/libwrite_conflict_exception.so'/>
    <dependency name='build/debug/mongo/db/libcurop.so'/>
    <dependency name='build/debug/mongo/db/libserver_options_core.so'/>
    <dependency name='build/debug/mongo/db/libserver_parameters.so'/>
    <dependency name='build/debug/mongo/db/libservice_context.so'/>
    <dependency name='build/debug/mongo/db/repl/libdatabase_task.so'/>
    <dependency name='build/debug/mongo/db/repl/liboptime.so'/>
    <dependency name='build/debug/mongo/db/repl/libstorage_interface.so'/>
    <dependency name='build/debug/mongo/db/repl/libtask_runner.so'/>
    <dependency name='build/debug/mongo/executor/libnetwork_interface.so'/>
    <dependency name='build/debug/mongo/executor/libremote_command.so'/>
    <dependency name='build/debug/mongo/executor/libtask_executor_interface.so'/>
    <dependency name='build/debug/mongo/libbase.so'/>
    <dependency name='build/debug/mongo/platform/libplatform.so'/>
    <dependency name='build/debug/mongo/rpc/libmetadata.so'/>
    <dependency name='build/debug/mongo/util/concurrency/libspin_lock.so'/>
    <dependency name='build/debug/mongo/util/concurrency/libsynchronization.so'/>
    <dependency name='build/debug/mongo/util/concurrency/libthread_pool.so'/>
    <dependency name='build/debug/mongo/util/concurrency/libticketholder.so'/>
    <dependency name='build/debug/mongo/util/libbackground_job.so'/>
    <dependency name='build/debug/mongo/util/libdebugger.so'/>
    <dependency name='build/debug/mongo/util/libdecorable.so'/>
    <dependency name='build/debug/mongo/util/libfail_point.so'/>
    <dependency name='build/debug/mongo/util/libfoundation.so'/>
    <dependency name='build/debug/mongo/util/libprogress_meter.so'/>
    <dependency name='build/debug/mongo/util/libquick_exit.so'/>
    <dependency name='build/debug/mongo/util/libsafe_num.so'/>
    <dependency name='build/debug/mongo/util/net/libhostandport.so'/>
    <dependency name='build/debug/mongo/util/net/libnetwork.so'/>
    <dependency name='build/debug/mongo/util/options_parser/liboptions_parser.so'/>
    <dependency name='build/debug/third_party/boost-1.56.0/libboost_chrono.so'/>
    <dependency name='build/debug/third_party/boost-1.56.0/libboost_filesystem.so'/>
    <dependency name='build/debug/third_party/boost-1.56.0/libboost_program_options.so'/>
    <dependency name='build/debug/third_party/boost-1.56.0/libboost_system.so'/>
    <dependency name='build/debug/third_party/boost-1.56.0/libboost_thread.so'/>
    <dependency name='build/debug/third_party/gperftools-2.2/libtcmalloc_minimal.so'/>
    <dependency name='build/debug/third_party/libshim_allocator.so'/>
    <dependency name='build/debug/third_party/libshim_boost.so'/>
    <dependency name='build/debug/third_party/libshim_pcrecpp.so'/>
    <dependency name='build/debug/third_party/libshim_tz.so'/>
    <dependency name='build/debug/third_party/libshim_yaml.so'/>
    <dependency name='build/debug/third_party/murmurhash3/libmurmurhash3.so'/>
    <dependency name='build/debug/third_party/pcre-8.37/libpcrecpp.so'/>
    <dependency name='build/debug/third_party/yaml-cpp-0.5.1/libyaml.so'/>
    <dependency name='libm.so.6'/>
    <dependency name='libssl.so.1.0.0'/>
    <dependency name='libcrypto.so.1.0.0'/>
    <dependency name='librt.so.1'/>
    <dependency name='libdl.so.2'/>
    <dependency name='libstdc++.so.6'/>
    <dependency name='libgcc_s.so.1'/>
    <dependency name='libpthread.so.0'/>
    <dependency name='libc.so.6'/>
  </elf-needed>
  <elf-function-symbols>
    <elf-symbol name='_ZN10mongoutils3str6streamC2Ev' type='func-type' binding='weak-binding' visibility='default-visibility' is-defined='yes'/>
    <elf-symbol name='_ZN10mongoutils3str6streamD2Ev' type='func-type' binding='weak-binding' visibility='default-visibility' is-defined='yes'/>
    <elf-symbol name='_ZN10mongoutils3str6streamlsIA15_cEERS1_RKT_' type='func-type' binding='weak-binding' visibility='default-visibility' is-defined='yes'/>
    <elf-symbol name='_ZN10mongoutils3str6streamlsIA19_cEERS1_RKT_' type='func-type' binding='weak-binding' visibility='default-visibility' is-defined='yes'/>
    <elf-symbol name='_ZN10mongoutils3str6streamlsIA20_cEERS1_RKT_' type='func-type' binding='weak-binding' visibility='default-visibility' is-defined='yes'/>
    <elf-symbol name='_ZN10mongoutils3str6streamlsIA22_cEERS1_RKT_' type='func-type' binding='weak-binding' visibility='default-visibility' is-defined='yes'/>
    <elf-symbol name='_ZN10mongoutils3str6streamlsIA7_cEERS1_RKT_' type='func-type' binding='weak-binding' visibility='default-visibility' is-defined='yes'/>
    <elf-symbol name='_ZN10mongoutils3str6streamlsIA8_cEERS1_RKT_' type='func-type' binding='weak-binding' visibility='default-visibility' is-defined='yes'/>
    <elf-symbol name='_ZN10mongoutils3str6streamlsISsEERS1_RKT_' type='func-type' binding='weak-binding' visibility='default-visibility' is-defined='yes'/>
    <elf-symbol name='_ZN10mongoutils3str6streamlsIbEERS1_RKT_' type='func-type' binding='weak-binding' visibility='default-visibility' is-defined='yes'/>
    <elf-symbol name='_ZN10mongoutils3str6streamlsIlEERS1_RKT_' type='func-type' binding='weak-binding' visibility='default-visibility' is-defined='yes'/>
    <elf-symbol name='_ZN10mongoutils3str6streamlsImEERS1_RKT_' type='func-type' binding='weak-binding' visibility='default-visibility' is-defined='yes'/>
    <elf-symbol name='_ZN5boost13intrusive_ptrIN5mongo12SharedBuffer6HolderEE4swapERS4_' type='func-type' binding='weak-binding' visibility='default-visibility' is-defined='yes'/>
    <elf-symbol name='_ZN5boost13intrusive_ptrIN5mongo12SharedBuffer6HolderEEC2ERKS4_' type='func-type' binding='weak-binding' visibility='default-visibility' is-defined='yes'/>
    <elf-symbol name='_ZN5boost13intrusive_ptrIN5mongo12SharedBuffer6HolderEEC2Ev' type='func-type' binding='weak-binding' visibility='default-visibility' is-defined='yes'/>
    <elf-symbol name='_ZN5boost13intrusive_ptrIN5mongo12SharedBuffer6HolderEED2Ev' type='func-type' binding='weak-binding' visibility='default-visibility' is-defined='yes'/>
    <elf-symbol name='_ZN5boost15optional_detail13optional_baseIN5mongo8executor12TaskExecutor11EventHandleEE10get_objectEv' type='func-type' binding='weak-binding' visibility='default-visibility' is-defined='yes'/>
    <elf-symbol name='_ZN5boost15optional_detail13optional_baseIN5mongo8executor12TaskExecutor11EventHandleEE11dereferenceEPS5_N4mpl_5bool_ILb0EEE' type='func-type' binding='weak-binding' visibility='default-visibility' is-defined='yes'/>
    <elf-symbol name='_ZN5boost15optional_detail13optional_baseIN5mongo8executor12TaskExecutor11EventHandleEE12assign_valueEOS5_N4mpl_5bool_ILb0EEE' type='func-type' binding='weak-binding' visibility='default-visibility' is-defined='yes'/>
    <elf-symbol name='_ZN5boost15optional_detail13optional_baseIN5mongo8executor12TaskExecutor11EventHandleEE12destroy_implEN4mpl_5bool_ILb0EEE' type='func-type' binding='weak-binding' visibility='default-visibility' is-defined='yes'/>
    <elf-symbol name='_ZN5boost15optional_detail13optional_baseIN5mongo8executor12TaskExecutor11EventHandleEE12get_ptr_implEv' type='func-type' binding='weak-binding' visibility='default-visibility' is-defined='yes'/>
    <elf-symbol name='_ZN5boost15optional_detail13optional_baseIN5mongo8executor12TaskExecutor11EventHandleEE6assignEOS6_' type='func-type' binding='weak-binding' visibility='default-visibility' is-defined='yes'/>
    <elf-symbol name='_ZN5boost15optional_detail13optional_baseIN5mongo8executor12TaskExecutor11EventHandleEE7destroyEv' type='func-type' binding='weak-binding' visibility='default-visibility' is-defined='yes'/>
    <elf-symbol name='_ZN5boost15optional_detail13optional_baseIN5mongo8executor12TaskExecutor11EventHandleEE8cast_ptrEPS5_N4mpl_5bool_ILb0EEE' type='func-type' binding='weak-binding' visibility='default-visibility' is-defined='yes'/>
    <elf-symbol name='_ZN5boost15optional_detail13optional_baseIN5mongo8executor12TaskExecutor11EventHandleEE8get_implEv' type='func-type' binding='weak-binding' visibility='default-visibility' is-defined='yes'/>
    <elf-symbol name='_ZN5boost15optional_detail13optional_baseIN5mongo8executor12TaskExecutor11EventHandleEE9constructEOS5_' type='func-type' binding='weak-binding' visibility='default-visibility' is-defined='yes'/>
    <elf-symbol name='_ZN5boost15optional_detail13optional_baseIN5mongo8executor12TaskExecutor11EventHandleEEC2EOS5_' type='func-type' binding='weak-binding' visibility='default-visibility' is-defined='yes'/>
    <elf-symbol name='_ZN5boost15optional_detail13optional_baseIN5mongo8executor12TaskExecutor11EventHandleEEC2EOS6_' type='func-type' binding='weak-binding' visibility='default-visibility' is-defined='yes'/>
    <elf-symbol name='_ZN5boost15optional_detail13optional_baseIN5mongo8executor12TaskExecutor11EventHandleEEC2Ev' type='func-type' binding='weak-binding' visibility='default-visibility' is-defined='yes'/>
    <elf-symbol name='_ZN5boost15optional_detail13optional_baseIN5mongo8executor12TaskExecutor11EventHandleEED2Ev' type='func-type' binding='weak-binding' visibility='default-visibility' is-defined='yes'/>
    <elf-symbol name='_ZN5boost15optional_detail13optional_baseIN5mongo8executor12TaskExecutor14CallbackHandleEE10get_objectEv' type='func-type' binding='weak-binding' visibility='default-visibility' is-defined='yes'/>
    <elf-symbol name='_ZN5boost15optional_detail13optional_baseIN5mongo8executor12TaskExecutor14CallbackHandleEE11dereferenceEPS5_N4mpl_5bool_ILb0EEE' type='func-type' binding='weak-binding' visibility='default-visibility' is-defined='yes'/>
    <elf-symbol name='_ZN5boost15optional_detail13optional_baseIN5mongo8executor12TaskExecutor14CallbackHandleEE12destroy_implEN4mpl_5bool_ILb0EEE' type='func-type' binding='weak-binding' visibility='default-visibility' is-defined='yes'/>
    <elf-symbol name='_ZN5boost15optional_detail13optional_baseIN5mongo8executor12TaskExecutor14CallbackHandleEE12get_ptr_implEv' type='func-type' binding='weak-binding' visibility='default-visibility' is-defined='yes'/>
    <elf-symbol name='_ZN5boost15optional_detail13optional_baseIN5mongo8executor12TaskExecutor14CallbackHandleEE7destroyEv' type='func-type' binding='weak-binding' visibility='default-visibility' is-defined='yes'/>
    <elf-symbol name='_ZN5boost15optional_detail13optional_baseIN5mongo8executor12TaskExecutor14CallbackHandleEE8cast_ptrEPS5_N4mpl_5bool_ILb0EEE' type='func-type' binding='weak-binding' visibility='default-visibility' is-defined='yes'/>
    <elf-symbol name='_ZN5boost15optional_detail13optional_baseIN5mongo8executor12TaskExecutor14CallbackHandleEE8get_implEv' type='func-type' binding='weak-binding' visibility='default-visibility' is-defined='yes'/>
    <elf-symbol name='_ZN5boost15optional_detail13optional_baseIN5mongo8executor12TaskExecutor14CallbackHandleEE9constructEOS5_' type='func-type' binding='weak-binding' visibility='default-visibility' is-defined='yes'/>
    <elf-symbol name='_ZN5boost15optional_detail13optional_baseIN5mongo8executor12TaskExecutor14CallbackHandleEEC2EOS5_' type='func-type' binding='weak-binding' visibility='default-visibility' is-defined='yes'/>
    <elf-symbol name='_ZN5boost15optional_detail13optional_baseIN5mongo8executor12TaskExecutor14CallbackHandleEEC2Ev' type='func-type' binding='weak-binding' visibility='default-visibility' is-defined='yes'/>
    <elf-symbol name='_ZN5boost15optional_detail13optional_baseIN5mongo8executor12TaskExecutor14CallbackHandleEED2Ev' type='func-type' binding='weak-binding' visibility='default-visibility' is-defined='yes'/>
    <elf-symbol name='_ZN5boost15optional_detail13optional_baseIN5mongo8executor21RemoteCommandResponseEE10get_objectEv' type='func-type' binding='weak-binding' visibility='default-visibility' is-defined='yes'/>
    <elf-symbol name='_ZN5boost15optional_detail13optional_baseIN5mongo8executor21RemoteCommandResponseEE11dereferenceEPS4_N4mpl_5bool_ILb0EEE' type='func-type' binding='weak-binding' visibility='default-visibility' is-defined='yes'/>
    <elf-symbol name='_ZN5boost15optional_detail13optional_baseIN5mongo8executor21RemoteCommandResponseEE12destroy_implEN4mpl_5bool_ILb0EEE' type='func-type' binding='weak-binding' visibility='default-visibility' is-defined='yes'/>
    <elf-symbol name='_ZN5boost15optional_detail13optional_baseIN5mongo8executor21RemoteCommandResponseEE12get_ptr_implEv' type='func-type' binding='weak-binding' visibility='default-visibility' is-defined='yes'/>
    <elf-symbol name='_ZN5boost15optional_detail13optional_baseIN5mongo8executor21RemoteCommandResponseEE7destroyEv' type='func-type' binding='weak-binding' visibility='default-visibility' is-defined='yes'/>
    <elf-symbol name='_ZN5boost15optional_detail13optional_baseIN5mongo8executor21RemoteCommandResponseEE8cast_ptrEPS4_N4mpl_5bool_ILb0EEE' type='func-type' binding='weak-binding' visibility='default-visibility' is-defined='yes'/>
    <elf-symbol name='_ZN5boost15optional_detail13optional_baseIN5mongo8executor21RemoteCommandResponseEE8get_implEv' type='func-type' binding='weak-binding' visibility='default-visibility' is-defined='yes'/>
    <elf-symbol name='_ZN5boost15optional_detail13optional_baseIN5mongo8executor21RemoteCommandResponseEE9constructEOS4_' type='func-type' binding='weak-binding' visibility='default-visibility' is-defined='yes'/>
    <elf-symbol name='_ZN5boost15optional_detail13optional_baseIN5mongo8executor21RemoteCommandResponseEE9constructERKS4_' type='func-type' binding='weak-binding' visibility='default-visibility' is-defined='yes'/>
    <elf-symbol name='_ZN5boost15optional_detail13optional_baseIN5mongo8executor21RemoteCommandResponseEEC2EOS5_' type='func-type' binding='weak-binding' visibility='default-visibility' is-defined='yes'/>
    <elf-symbol name='_ZN5boost15optional_detail13optional_baseIN5mongo8executor21RemoteCommandResponseEEC2ERKS5_' type='func-type' binding='weak-binding' visibility='default-visibility' is-defined='yes'/>
    <elf-symbol name='_ZN5boost15optional_detail13optional_baseIN5mongo8executor21RemoteCommandResponseEEC2Ev' type='func-type' binding='weak-binding' visibility='default-visibility' is-defined='yes'/>
    <elf-symbol name='_ZN5boost15optional_detail13optional_baseIN5mongo8executor21RemoteCommandResponseEED2Ev' type='func-type' binding='weak-binding' visibility='default-visibility' is-defined='yes'/>
    <elf-symbol name='_ZN5boost15optional_detail15aligned_storageIN5mongo8executor12TaskExecutor11EventHandleEE7addressEv' type='func-type' binding='weak-binding' visibility='default-visibility' is-defined='yes'/>
    <elf-symbol name='_ZN5boost15optional_detail15aligned_storageIN5mongo8executor12TaskExecutor14CallbackHandleEE7addressEv' type='func-type' binding='weak-binding' visibility='default-visibility' is-defined='yes'/>
    <elf-symbol name='_ZN5boost15optional_detail15aligned_storageIN5mongo8executor21RemoteCommandResponseEE7addressEv' type='func-type' binding='weak-binding' visibility='default-visibility' is-defined='yes'/>
    <elf-symbol name='_ZN5boost15optional_detail19types_when_isnt_refIN5mongo8executor12TaskExecutor11EventHandleEE4moveERS5_' type='func-type' binding='weak-binding' visibility='default-visibility' is-defined='yes'/>
    <elf-symbol name='_ZN5boost15optional_detail19types_when_isnt_refIN5mongo8executor12TaskExecutor14CallbackHandleEE4moveERS5_' type='func-type' binding='weak-binding' visibility='default-visibility' is-defined='yes'/>
    <elf-symbol name='_ZN5boost15optional_detail19types_when_isnt_refIN5mongo8executor21RemoteCommandResponseEE4moveERS4_' type='func-type' binding='weak-binding' visibility='default-visibility' is-defined='yes'/>
    <elf-symbol name='_ZN5boost15optional_detail49prevent_binding_rvalue_ref_to_optional_lvalue_refIN5mongo8executor12TaskExecutor11EventHandleEOS5_EEvv' type='func-type' binding='weak-binding' visibility='default-visibility' is-defined='yes'/>
    <elf-symbol name='_ZN5boost15optional_detail49prevent_binding_rvalue_ref_to_optional_lvalue_refIN5mongo8executor12TaskExecutor14CallbackHandleEOS5_EEvv' type='func-type' binding='weak-binding' visibility='default-visibility' is-defined='yes'/>
    <elf-symbol name='_ZN5boost4moveIRN5mongo8executor12TaskExecutor11EventHandleEEEONS_16remove_referenceIT_E4typeEOS7_' type='func-type' binding='weak-binding' visibility='default-visibility' is-defined='yes'/>
    <elf-symbol name='_ZN5boost4moveIRN5mongo8executor12TaskExecutor14CallbackHandleEEEONS_16remove_referenceIT_E4typeEOS7_' type='func-type' binding='weak-binding' visibility='default-visibility' is-defined='yes'/>
    <elf-symbol name='_ZN5boost4moveIRN5mongo8executor21RemoteCommandResponseEEEONS_16remove_referenceIT_E4typeEOS6_' type='func-type' binding='weak-binding' visibility='default-visibility' is-defined='yes'/>
    <elf-symbol name='_ZN5boost4moveIRNS_8optionalIN5mongo8executor12TaskExecutor11EventHandleEEEEEONS_16remove_referenceIT_E4typeEOS9_' type='func-type' binding='weak-binding' visibility='default-visibility' is-defined='yes'/>
    <elf-symbol name='_ZN5boost4moveIRNS_8optionalIN5mongo8executor21RemoteCommandResponseEEEEEONS_16remove_referenceIT_E4typeEOS8_' type='func-type' binding='weak-binding' visibility='default-visibility' is-defined='yes'/>
    <elf-symbol name='_ZN5boost7forwardIN5mongo8executor12TaskExecutor11EventHandleERS4_EEOT_OT0_PNS_11move_detail11enable_if_cIXqusr11move_detail19is_lvalue_referenceIS6_EE5valuesr11move_detail19is_lvalue_referenceIS8_EE5valueLb1EEvE4typeE' type='func-type' binding='weak-binding' visibility='default-visibility' is-defined='yes'/>
    <elf-symbol name='_ZN5boost7forwardIN5mongo8executor12TaskExecutor14CallbackHandleERS4_EEOT_OT0_PNS_11move_detail11enable_if_cIXqusr11move_detail19is_lvalue_referenceIS6_EE5valuesr11move_detail19is_lvalue_referenceIS8_EE5valueLb1EEvE4typeE' type='func-type' binding='weak-binding' visibility='default-visibility' is-defined='yes'/>
    <elf-symbol name='_ZN5boost8optionalIN5mongo8executor12TaskExecutor11EventHandleEE3getEv' type='func-type' binding='weak-binding' visibility='default-visibility' is-defined='yes'/>
    <elf-symbol name='_ZN5boost8optionalIN5mongo8executor12TaskExecutor11EventHandleEEC2EOS4_' type='func-type' binding='weak-binding' visibility='default-visibility' is-defined='yes'/>
    <elf-symbol name='_ZN5boost8optionalIN5mongo8executor12TaskExecutor11EventHandleEEC2EOS5_' type='func-type' binding='weak-binding' visibility='default-visibility' is-defined='yes'/>
    <elf-symbol name='_ZN5boost8optionalIN5mongo8executor12TaskExecutor11EventHandleEEC2Ev' type='func-type' binding='weak-binding' visibility='default-visibility' is-defined='yes'/>
    <elf-symbol name='_ZN5boost8optionalIN5mongo8executor12TaskExecutor11EventHandleEED2Ev' type='func-type' binding='weak-binding' visibility='default-visibility' is-defined='yes'/>
    <elf-symbol name='_ZN5boost8optionalIN5mongo8executor12TaskExecutor11EventHandleEEaSEOS5_' type='func-type' binding='weak-binding' visibility='default-visibility' is-defined='yes'/>
    <elf-symbol name='_ZN5boost8optionalIN5mongo8executor12TaskExecutor14CallbackHandleEE3getEv' type='func-type' binding='weak-binding' visibility='default-visibility' is-defined='yes'/>
    <elf-symbol name='_ZN5boost8optionalIN5mongo8executor12TaskExecutor14CallbackHandleEEC2EOS4_' type='func-type' binding='weak-binding' visibility='default-visibility' is-defined='yes'/>
    <elf-symbol name='_ZN5boost8optionalIN5mongo8executor12TaskExecutor14CallbackHandleEEC2Ev' type='func-type' binding='weak-binding' visibility='default-visibility' is-defined='yes'/>
    <elf-symbol name='_ZN5boost8optionalIN5mongo8executor12TaskExecutor14CallbackHandleEED2Ev' type='func-type' binding='weak-binding' visibility='default-visibility' is-defined='yes'/>
    <elf-symbol name='_ZN5boost8optionalIN5mongo8executor21RemoteCommandResponseEEC2EOS4_' type='func-type' binding='weak-binding' visibility='default-visibility' is-defined='yes'/>
    <elf-symbol name='_ZN5boost8optionalIN5mongo8executor21RemoteCommandResponseEEC2ERKS4_' type='func-type' binding='weak-binding' visibility='default-visibility' is-defined='yes'/>
    <elf-symbol name='_ZN5boost8optionalIN5mongo8executor21RemoteCommandResponseEEC2Ev' type='func-type' binding='weak-binding' visibility='default-visibility' is-defined='yes'/>
    <elf-symbol name='_ZN5boost8optionalIN5mongo8executor21RemoteCommandResponseEED2Ev' type='func-type' binding='weak-binding' visibility='default-visibility' is-defined='yes'/>
    <elf-symbol name='_ZN5mongo10AtomicWordIjE11fetchAndAddEj' type='func-type' binding='weak-binding' visibility='default-visibility' is-defined='yes'/>
    <elf-symbol name='_ZN5mongo10AtomicWordIjE16fetchAndSubtractEj' type='func-type' binding='weak-binding' visibility='default-visibility' is-defined='yes'/>
    <elf-symbol name='_ZN5mongo10AtomicWordIjE16subtractAndFetchEj' type='func-type' binding='weak-binding' visibility='default-visibility' is-defined='yes'/>
    <elf-symbol name='_ZN5mongo10StatusWithINS_8executor12TaskExecutor11EventHandleEE8getValueEv' type='func-type' binding='weak-binding' visibility='default-visibility' is-defined='yes'/>
    <elf-symbol name='_ZN5mongo10StatusWithINS_8executor12TaskExecutor11EventHandleEEC2ENS_10ErrorCodes5ErrorESsi' type='func-type' binding='weak-binding' visibility='default-visibility' is-defined='yes'/>
    <elf-symbol name='_ZN5mongo10StatusWithINS_8executor12TaskExecutor11EventHandleEEC2ENS_6StatusE' type='func-type' binding='weak-binding' visibility='default-visibility' is-defined='yes'/>
    <elf-symbol name='_ZN5mongo10StatusWithINS_8executor12TaskExecutor11EventHandleEEC2EOS4_' type='func-type' binding='weak-binding' visibility='default-visibility' is-defined='yes'/>
    <elf-symbol name='_ZN5mongo10StatusWithINS_8executor12TaskExecutor11EventHandleEEC2ES3_' type='func-type' binding='weak-binding' visibility='default-visibility' is-defined='yes'/>
    <elf-symbol name='_ZN5mongo10StatusWithINS_8executor12TaskExecutor11EventHandleEED2Ev' type='func-type' binding='weak-binding' visibility='default-visibility' is-defined='yes'/>
    <elf-symbol name='_ZN5mongo10StatusWithINS_8executor12TaskExecutor11EventHandleEEaSEOS4_' type='func-type' binding='weak-binding' visibility='default-visibility' is-defined='yes'/>
    <elf-symbol name='_ZN5mongo10StatusWithINS_8executor12TaskExecutor14CallbackHandleEE8getValueEv' type='func-type' binding='weak-binding' visibility='default-visibility' is-defined='yes'/>
    <elf-symbol name='_ZN5mongo10StatusWithINS_8executor12TaskExecutor14CallbackHandleEEC2ENS_6StatusE' type='func-type' binding='weak-binding' visibility='default-visibility' is-defined='yes'/>
    <elf-symbol name='_ZN5mongo10StatusWithINS_8executor12TaskExecutor14CallbackHandleEEC2ES3_' type='func-type' binding='weak-binding' visibility='default-visibility' is-defined='yes'/>
    <elf-symbol name='_ZN5mongo10StatusWithINS_8executor12TaskExecutor14CallbackHandleEED2Ev' type='func-type' binding='weak-binding' visibility='default-visibility' is-defined='yes'/>
    <elf-symbol name='_ZN5mongo10StatusWithINS_8executor21RemoteCommandResponseEEC2ENS_6StatusE' type='func-type' binding='weak-binding' visibility='default-visibility' is-defined='yes'/>
    <elf-symbol name='_ZN5mongo10StatusWithINS_8executor21RemoteCommandResponseEEC2EOS3_' type='func-type' binding='weak-binding' visibility='default-visibility' is-defined='yes'/>
    <elf-symbol name='_ZN5mongo10StatusWithINS_8executor21RemoteCommandResponseEEC2ERKS3_' type='func-type' binding='weak-binding' visibility='default-visibility' is-defined='yes'/>
    <elf-symbol name='_ZN5mongo10StatusWithINS_8executor21RemoteCommandResponseEED2Ev' type='func-type' binding='weak-binding' visibility='default-visibility' is-defined='yes'/>
    <elf-symbol name='_ZN5mongo10StringDataC2EPKc' type='func-type' binding='weak-binding' visibility='default-visibility' is-defined='yes'/>
    <elf-symbol name='_ZN5mongo10StringDataC2ERKSs' type='func-type' binding='weak-binding' visibility='default-visibility' is-defined='yes'/>
    <elf-symbol name='_ZN5mongo11HostAndPortC2EOS0_' type='func-type' binding='weak-binding' visibility='default-visibility' is-defined='yes'/>
    <elf-symbol name='_ZN5mongo11HostAndPortC2ERKS0_' type='func-type' binding='weak-binding' visibility='default-visibility' is-defined='yes'/>
    <elf-symbol name='_ZN5mongo11HostAndPortD2Ev' type='func-type' binding='weak-binding' visibility='default-visibility' is-defined='yes'/>
    <elf-symbol name='_ZN5mongo11_BufBuilderINS_16TrivialAllocatorEE15grow_reallocateEi' type='func-type' binding='weak-binding' visibility='default-visibility' is-defined='yes'/>
    <elf-symbol name='_ZN5mongo11_BufBuilderINS_16TrivialAllocatorEE4growEi' type='func-type' binding='weak-binding' visibility='default-visibility' is-defined='yes'/>
    <elf-symbol name='_ZN5mongo11_BufBuilderINS_16TrivialAllocatorEE4killEv' type='func-type' binding='weak-binding' visibility='default-visibility' is-defined='yes'/>
    <elf-symbol name='_ZN5mongo11_BufBuilderINS_16TrivialAllocatorEEC2Ei' type='func-type' binding='weak-binding' visibility='default-visibility' is-defined='yes'/>
    <elf-symbol name='_ZN5mongo11_BufBuilderINS_16TrivialAllocatorEED2Ev' type='func-type' binding='weak-binding' visibility='default-visibility' is-defined='yes'/>
    <elf-symbol name='_ZN5mongo12PseudoRandom9nextInt64El' type='func-type' binding='weak-binding' visibility='default-visibility' is-defined='yes'/>
    <elf-symbol name='_ZN5mongo12SharedBuffer4swapERS0_' type='func-type' binding='weak-binding' visibility='default-visibility' is-defined='yes'/>
    <elf-symbol name='_ZN5mongo12SharedBuffer6Holder4dataEv' type='func-type' binding='weak-binding' visibility='default-visibility' is-defined='yes'/>
    <elf-symbol name='_ZN5mongo12SharedBufferC2EOS0_' type='func-type' binding='weak-binding' visibility='default-visibility' is-defined='yes'/>
    <elf-symbol name='_ZN5mongo12SharedBufferC2ERKS0_' type='func-type' binding='weak-binding' visibility='default-visibility' is-defined='yes'/>
    <elf-symbol name='_ZN5mongo12SharedBufferC2Ev' type='func-type' binding='weak-binding' visibility='default-visibility' is-defined='yes'/>
    <elf-symbol name='_ZN5mongo12SharedBufferD2Ev' type='func-type' binding='weak-binding' visibility='default-visibility' is-defined='yes'/>
    <elf-symbol name='_ZN5mongo13OldThreadPoolD2Ev' type='func-type' binding='weak-binding' visibility='default-visibility' is-defined='yes'/>
    <elf-symbol name='_ZN5mongo15NamespaceStringC2Ev' type='func-type' binding='weak-binding' visibility='default-visibility' is-defined='yes'/>
    <elf-symbol name='_ZN5mongo15NamespaceStringD2Ev' type='func-type' binding='weak-binding' visibility='default-visibility' is-defined='yes'/>
    <elf-symbol name='_ZN5mongo16TrivialAllocator4FreeEPv' type='func-type' binding='weak-binding' visibility='default-visibility' is-defined='yes'/>
    <elf-symbol name='_ZN5mongo16TrivialAllocator6MallocEm' type='func-type' binding='weak-binding' visibility='default-visibility' is-defined='yes'/>
    <elf-symbol name='_ZN5mongo16TrivialAllocator7ReallocEPvm' type='func-type' binding='weak-binding' visibility='default-visibility' is-defined='yes'/>
    <elf-symbol name='_ZN5mongo17StringBuilderImplINS_16TrivialAllocatorEE5SBNUMIiEERS2_T_iPKc' type='func-type' binding='weak-binding' visibility='default-visibility' is-defined='yes'/>
    <elf-symbol name='_ZN5mongo17StringBuilderImplINS_16TrivialAllocatorEE5SBNUMIlEERS2_T_iPKc' type='func-type' binding='weak-binding' visibility='default-visibility' is-defined='yes'/>
    <elf-symbol name='_ZN5mongo17StringBuilderImplINS_16TrivialAllocatorEE5SBNUMImEERS2_T_iPKc' type='func-type' binding='weak-binding' visibility='default-visibility' is-defined='yes'/>
    <elf-symbol name='_ZN5mongo17StringBuilderImplINS_16TrivialAllocatorEE6appendENS_10StringDataE' type='func-type' binding='weak-binding' visibility='default-visibility' is-defined='yes'/>
    <elf-symbol name='_ZN5mongo17StringBuilderImplINS_16TrivialAllocatorEEC2Ev' type='func-type' binding='weak-binding' visibility='default-visibility' is-defined='yes'/>
    <elf-symbol name='_ZN5mongo17StringBuilderImplINS_16TrivialAllocatorEED2Ev' type='func-type' binding='weak-binding' visibility='default-visibility' is-defined='yes'/>
    <elf-symbol name='_ZN5mongo17StringBuilderImplINS_16TrivialAllocatorEElsENS_10StringDataE' type='func-type' binding='weak-binding' visibility='default-visibility' is-defined='yes'/>
    <elf-symbol name='_ZN5mongo17StringBuilderImplINS_16TrivialAllocatorEElsEPKc' type='func-type' binding='weak-binding' visibility='default-visibility' is-defined='yes'/>
    <elf-symbol name='_ZN5mongo17StringBuilderImplINS_16TrivialAllocatorEElsEi' type='func-type' binding='weak-binding' visibility='default-visibility' is-defined='yes'/>
    <elf-symbol name='_ZN5mongo17StringBuilderImplINS_16TrivialAllocatorEElsEl' type='func-type' binding='weak-binding' visibility='default-visibility' is-defined='yes'/>
    <elf-symbol name='_ZN5mongo17StringBuilderImplINS_16TrivialAllocatorEElsEm' type='func-type' binding='weak-binding' visibility='default-visibility' is-defined='yes'/>
    <elf-symbol name='_ZN5mongo18ObjScopeGuardImpl1INS_4repl19ScatterGatherRunnerEMS2_FvPNS1_19ReplicationExecutorEES4_E12MakeObjGuardERS2_S6_S4_' type='func-type' binding='weak-binding' visibility='default-visibility' is-defined='yes'/>
    <elf-symbol name='_ZN5mongo18ObjScopeGuardImpl1INS_4repl19ScatterGatherRunnerEMS2_FvPNS1_19ReplicationExecutorEES4_E7ExecuteEv' type='func-type' binding='weak-binding' visibility='default-visibility' is-defined='yes'/>
    <elf-symbol name='_ZN5mongo18ObjScopeGuardImpl1INS_4repl19ScatterGatherRunnerEMS2_FvPNS1_19ReplicationExecutorEES4_EC2ERS2_S6_S4_' type='func-type' binding='weak-binding' visibility='default-visibility' is-defined='yes'/>
    <elf-symbol name='_ZN5mongo18ObjScopeGuardImpl1INS_4repl19ScatterGatherRunnerEMS2_FvPNS1_19ReplicationExecutorEES4_ED2Ev' type='func-type' binding='weak-binding' visibility='default-visibility' is-defined='yes'/>
    <elf-symbol name='_ZN5mongo18ScopeGuardImplBase11SafeExecuteINS_18ObjScopeGuardImpl1INS_4repl19ScatterGatherRunnerEMS4_FvPNS3_19ReplicationExecutorEES6_EEEEvRT_' type='func-type' binding='weak-binding' visibility='default-visibility' is-defined='yes'/>
    <elf-symbol name='_ZN5mongo18ScopeGuardImplBaseC2Ev' type='func-type' binding='weak-binding' visibility='default-visibility' is-defined='yes'/>
    <elf-symbol name='_ZN5mongo18ScopeGuardImplBaseD2Ev' type='func-type' binding='weak-binding' visibility='default-visibility' is-defined='yes'/>
    <elf-symbol name='_ZN5mongo21intrusive_ptr_add_refEPNS_12SharedBuffer6HolderE' type='func-type' binding='weak-binding' visibility='default-visibility' is-defined='yes'/>
    <elf-symbol name='_ZN5mongo21intrusive_ptr_releaseEPNS_12SharedBuffer6HolderE' type='func-type' binding='weak-binding' visibility='default-visibility' is-defined='yes'/>
    <elf-symbol name='_ZN5mongo4repl19ReplicationExecutor11signalEventERKNS_8executor12TaskExecutor11EventHandleE' type='func-type' binding='global-binding' visibility='default-visibility' is-defined='yes'/>
    <elf-symbol name='_ZN5mongo4repl19ReplicationExecutor12_doOperationEPNS_16OperationContextERKNS_6StatusERKNS_8executor12TaskExecutor14CallbackHandleEPSt4listINS1_8WorkItemESaISD_EEPSt5mutex' type='func-type' binding='global-binding' visibility='default-visibility' is-defined='yes'/>
    <elf-symbol name='_ZN5mongo4repl19ReplicationExecutor12scheduleWorkERKSt8functionIFvRKNS_8executor12TaskExecutor12CallbackArgsEEE' type='func-type' binding='global-binding' visibility='default-visibility' is-defined='yes'/>
    <elf-symbol name='_ZN5mongo4repl19ReplicationExecutor12waitForEventERKNS_8executor12TaskExecutor11EventHandleE' type='func-type' binding='global-binding' visibility='default-visibility' is-defined='yes'/>
    <elf-symbol name='_ZN5mongo4repl19ReplicationExecutor14finishShutdownEv' type='func-type' binding='global-binding' visibility='default-visibility' is-defined='yes'/>
    <elf-symbol name='_ZN5mongo4repl19ReplicationExecutor14scheduleDBWorkERKSt8functionIFvRKNS_8executor12TaskExecutor12CallbackArgsEEE' type='func-type' binding='global-binding' visibility='default-visibility' is-defined='yes'/>
    <elf-symbol name='_ZN5mongo4repl19ReplicationExecutor14scheduleDBWorkERKSt8functionIFvRKNS_8executor12TaskExecutor12CallbackArgsEEERKNS_15NamespaceStringENS_8LockModeE' type='func-type' binding='global-binding' visibility='default-visibility' is-defined='yes'/>
    <elf-symbol name='_ZN5mongo4repl19ReplicationExecutor14scheduleWorkAtENS_6Date_tERKSt8functionIFvRKNS_8executor12TaskExecutor12CallbackArgsEEE' type='func-type' binding='global-binding' visibility='default-visibility' is-defined='yes'/>
    <elf-symbol name='_ZN5mongo4repl19ReplicationExecutor15nextRandomInt64El' type='func-type' binding='global-binding' visibility='default-visibility' is-defined='yes'/>
    <elf-symbol name='_ZN5mongo4repl19ReplicationExecutor16makeEvent_inlockEv' type='func-type' binding='global-binding' visibility='default-visibility' is-defined='yes'/>
    <elf-symbol name='_ZN5mongo4repl19ReplicationExecutor18enqueueWork_inlockEPSt4listINS1_8WorkItemESaIS3_EERKSt8functionIFvRKNS_8executor12TaskExecutor12CallbackArgsEEE' type='func-type' binding='global-binding' visibility='default-visibility' is-defined='yes'/>
    <elf-symbol name='_ZN5mongo4repl19ReplicationExecutor18signalEvent_inlockERKNS_8executor12TaskExecutor11EventHandleE' type='func-type' binding='global-binding' visibility='default-visibility' is-defined='yes'/>
    <elf-symbol name='_ZN5mongo4repl19ReplicationExecutor19_getEventFromHandleERKNS_8executor12TaskExecutor11EventHandleE' type='func-type' binding='global-binding' visibility='default-visibility' is-defined='yes'/>
    <elf-symbol name='_ZN5mongo4repl19ReplicationExecutor19getDiagnosticStringEv' type='func-type' binding='global-binding' visibility='default-visibility' is-defined='yes'/>
    <elf-symbol name='_ZN5mongo4repl19ReplicationExecutor20_finishRemoteCommandERKNS_8executor20RemoteCommandRequestERKNS_10StatusWithINS2_21RemoteCommandResponseEEERKNS2_12TaskExecutor14CallbackHandleEmRKSt8functionIFvRKNSB_25RemoteCommandCallbackArgsEEE' type='func-type' binding='global-binding' visibility='default-visibility' is-defined='yes'/>
    <elf-symbol name='_ZN5mongo4repl19ReplicationExecutor21scheduleRemoteCommandERKNS_8executor20RemoteCommandRequestERKSt8functionIFvRKNS2_12TaskExecutor25RemoteCommandCallbackArgsEEE' type='func-type' binding='global-binding' visibility='default-visibility' is-defined='yes'/>
    <elf-symbol name='_ZN5mongo4repl19ReplicationExecutor22_getCallbackFromHandleERKNS_8executor12TaskExecutor14CallbackHandleE' type='func-type' binding='global-binding' visibility='default-visibility' is-defined='yes'/>
    <elf-symbol name='_ZN5mongo4repl19ReplicationExecutor28scheduleReadySleepers_inlockENS_6Date_tE' type='func-type' binding='global-binding' visibility='default-visibility' is-defined='yes'/>
    <elf-symbol name='_ZN5mongo4repl19ReplicationExecutor34maybeNotifyShutdownComplete_inlockEv' type='func-type' binding='global-binding' visibility='default-visibility' is-defined='yes'/>
    <elf-symbol name='_ZN5mongo4repl19ReplicationExecutor35scheduleWorkWithGlobalExclusiveLockERKSt8functionIFvRKNS_8executor12TaskExecutor12CallbackArgsEEE' type='func-type' binding='global-binding' visibility='default-visibility' is-defined='yes'/>
    <elf-symbol name='_ZN5mongo4repl19ReplicationExecutor3nowEv' type='func-type' binding='global-binding' visibility='default-visibility' is-defined='yes'/>
    <elf-symbol name='_ZN5mongo4repl19ReplicationExecutor3runEv' type='func-type' binding='global-binding' visibility='default-visibility' is-defined='yes'/>
    <elf-symbol name='_ZN5mongo4repl19ReplicationExecutor4joinEv' type='func-type' binding='global-binding' visibility='default-visibility' is-defined='yes'/>
    <elf-symbol name='_ZN5mongo4repl19ReplicationExecutor4waitERKNS_8executor12TaskExecutor14CallbackHandleE' type='func-type' binding='global-binding' visibility='default-visibility' is-defined='yes'/>
    <elf-symbol name='_ZN5mongo4repl19ReplicationExecutor5Event10isSignaledEv' type='func-type' binding='global-binding' visibility='default-visibility' is-defined='yes'/>
    <elf-symbol name='_ZN5mongo4repl19ReplicationExecutor5Event14_signal_inlockEv' type='func-type' binding='global-binding' visibility='default-visibility' is-defined='yes'/>
    <elf-symbol name='_ZN5mongo4repl19ReplicationExecutor5Event17waitUntilSignaledEv' type='func-type' binding='global-binding' visibility='default-visibility' is-defined='yes'/>
    <elf-symbol name='_ZN5mongo4repl19ReplicationExecutor5Event6signalEv' type='func-type' binding='global-binding' visibility='default-visibility' is-defined='yes'/>
    <elf-symbol name='_ZN5mongo4repl19ReplicationExecutor5EventC1EPS1_RKSt14_List_iteratorINS_8executor12TaskExecutor11EventHandleEE' type='func-type' binding='global-binding' visibility='default-visibility' is-defined='yes'/>
    <elf-symbol name='_ZN5mongo4repl19ReplicationExecutor5EventC2EPS1_RKSt14_List_iteratorINS_8executor12TaskExecutor11EventHandleEE' type='func-type' binding='global-binding' visibility='default-visibility' alias='_ZN5mongo4repl19ReplicationExecutor5EventC1EPS1_RKSt14_List_iteratorINS_8executor12TaskExecutor11EventHandleEE' is-defined='yes'/>
    <elf-symbol name='_ZN5mongo4repl19ReplicationExecutor5EventD0Ev' type='func-type' binding='global-binding' visibility='default-visibility' is-defined='yes'/>
    <elf-symbol name='_ZN5mongo4repl19ReplicationExecutor5EventD1Ev' type='func-type' binding='global-binding' visibility='default-visibility' is-defined='yes'/>
    <elf-symbol name='_ZN5mongo4repl19ReplicationExecutor5EventD2Ev' type='func-type' binding='global-binding' visibility='default-visibility' alias='_ZN5mongo4repl19ReplicationExecutor5EventD1Ev' is-defined='yes'/>
    <elf-symbol name='_ZN5mongo4repl19ReplicationExecutor6cancelERKNS_8executor12TaskExecutor14CallbackHandleE' type='func-type' binding='global-binding' visibility='default-visibility' is-defined='yes'/>
    <elf-symbol name='_ZN5mongo4repl19ReplicationExecutor7getWorkEv' type='func-type' binding='global-binding' visibility='default-visibility' is-defined='yes'/>
    <elf-symbol name='_ZN5mongo4repl19ReplicationExecutor7onEventERKNS_8executor12TaskExecutor11EventHandleERKSt8functionIFvRKNS3_12CallbackArgsEEE' type='func-type' binding='global-binding' visibility='default-visibility' is-defined='yes'/>
    <elf-symbol name='_ZN5mongo4repl19ReplicationExecutor7startupEv' type='func-type' binding='global-binding' visibility='default-visibility' is-defined='yes'/>
    <elf-symbol name='_ZN5mongo4repl19ReplicationExecutor8Callback17waitForCompletionEv' type='func-type' binding='global-binding' visibility='default-visibility' is-defined='yes'/>
    <elf-symbol name='_ZN5mongo4repl19ReplicationExecutor8Callback6cancelEv' type='func-type' binding='global-binding' visibility='default-visibility' is-defined='yes'/>
    <elf-symbol name='_ZN5mongo4repl19ReplicationExecutor8CallbackC1EPS1_St8functionIFvRKNS_8executor12TaskExecutor12CallbackArgsEEERKSt14_List_iteratorINS1_8WorkItemEERKNS6_11EventHandleE' type='func-type' binding='global-binding' visibility='default-visibility' is-defined='yes'/>
    <elf-symbol name='_ZN5mongo4repl19ReplicationExecutor8CallbackC2EPS1_St8functionIFvRKNS_8executor12TaskExecutor12CallbackArgsEEERKSt14_List_iteratorINS1_8WorkItemEERKNS6_11EventHandleE' type='func-type' binding='global-binding' visibility='default-visibility' alias='_ZN5mongo4repl19ReplicationExecutor8CallbackC1EPS1_St8functionIFvRKNS_8executor12TaskExecutor12CallbackArgsEEERKSt14_List_iteratorINS1_8WorkItemEERKNS6_11EventHandleE' is-defined='yes'/>
    <elf-symbol name='_ZN5mongo4repl19ReplicationExecutor8CallbackD0Ev' type='func-type' binding='global-binding' visibility='default-visibility' is-defined='yes'/>
    <elf-symbol name='_ZN5mongo4repl19ReplicationExecutor8CallbackD1Ev' type='func-type' binding='global-binding' visibility='default-visibility' is-defined='yes'/>
    <elf-symbol name='_ZN5mongo4repl19ReplicationExecutor8CallbackD2Ev' type='func-type' binding='global-binding' visibility='default-visibility' alias='_ZN5mongo4repl19ReplicationExecutor8CallbackD1Ev' is-defined='yes'/>
    <elf-symbol name='_ZN5mongo4repl19ReplicationExecutor8WorkItemC1Ev' type='func-type' binding='global-binding' visibility='default-visibility' is-defined='yes'/>
    <elf-symbol name='_ZN5mongo4repl19ReplicationExecutor8WorkItemC2EOS2_' type='func-type' binding='weak-binding' visibility='default-visibility' is-defined='yes'/>
    <elf-symbol name='_ZN5mongo4repl19ReplicationExecutor8WorkItemC2ERKS2_' type='func-type' binding='weak-binding' visibility='default-visibility' is-defined='yes'/>
    <elf-symbol name='_ZN5mongo4repl19ReplicationExecutor8WorkItemC2Ev' type='func-type' binding='global-binding' visibility='default-visibility' alias='_ZN5mongo4repl19ReplicationExecutor8WorkItemC1Ev' is-defined='yes'/>
    <elf-symbol name='_ZN5mongo4repl19ReplicationExecutor8WorkItemD2Ev' type='func-type' binding='weak-binding' visibility='default-visibility' is-defined='yes'/>
    <elf-symbol name='_ZN5mongo4repl19ReplicationExecutor8WorkItemaSEOS2_' type='func-type' binding='weak-binding' visibility='default-visibility' is-defined='yes'/>
    <elf-symbol name='_ZN5mongo4repl19ReplicationExecutor8shutdownEv' type='func-type' binding='global-binding' visibility='default-visibility' is-defined='yes'/>
    <elf-symbol name='_ZN5mongo4repl19ReplicationExecutor9makeEventEv' type='func-type' binding='global-binding' visibility='default-visibility' is-defined='yes'/>
    <elf-symbol name='_ZN5mongo4repl19ReplicationExecutorC1EPNS_8executor16NetworkInterfaceEPNS0_16StorageInterfaceEl' type='func-type' binding='global-binding' visibility='default-visibility' is-defined='yes'/>
    <elf-symbol name='_ZN5mongo4repl19ReplicationExecutorC2EPNS_8executor16NetworkInterfaceEPNS0_16StorageInterfaceEl' type='func-type' binding='global-binding' visibility='default-visibility' alias='_ZN5mongo4repl19ReplicationExecutorC1EPNS_8executor16NetworkInterfaceEPNS0_16StorageInterfaceEl' is-defined='yes'/>
    <elf-symbol name='_ZN5mongo4repl19ReplicationExecutorD0Ev' type='func-type' binding='global-binding' visibility='default-visibility' is-defined='yes'/>
    <elf-symbol name='_ZN5mongo4repl19ReplicationExecutorD1Ev' type='func-type' binding='global-binding' visibility='default-visibility' is-defined='yes'/>
    <elf-symbol name='_ZN5mongo4repl19ReplicationExecutorD2Ev' type='func-type' binding='global-binding' visibility='default-visibility' alias='_ZN5mongo4repl19ReplicationExecutorD1Ev' is-defined='yes'/>
    <elf-symbol name='_ZN5mongo4repl19ScatterGatherRunner16_processResponseERKNS_8executor12TaskExecutor25RemoteCommandCallbackArgsEPS1_' type='func-type' binding='global-binding' visibility='default-visibility' is-defined='yes'/>
    <elf-symbol name='_ZN5mongo4repl19ScatterGatherRunner34_signalSufficientResponsesReceivedEPNS0_19ReplicationExecutorE' type='func-type' binding='global-binding' visibility='default-visibility' is-defined='yes'/>
    <elf-symbol name='_ZN5mongo4repl19ScatterGatherRunner3runEPNS0_19ReplicationExecutorE' type='func-type' binding='global-binding' visibility='default-visibility' is-defined='yes'/>
    <elf-symbol name='_ZN5mongo4repl19ScatterGatherRunner5startEPNS0_19ReplicationExecutorERKSt8functionIFvvEE' type='func-type' binding='global-binding' visibility='default-visibility' is-defined='yes'/>
    <elf-symbol name='_ZN5mongo4repl19ScatterGatherRunner6cancelEPNS0_19ReplicationExecutorE' type='func-type' binding='global-binding' visibility='default-visibility' is-defined='yes'/>
    <elf-symbol name='_ZN5mongo4repl19ScatterGatherRunnerC1EPNS0_22ScatterGatherAlgorithmE' type='func-type' binding='global-binding' visibility='default-visibility' is-defined='yes'/>
    <elf-symbol name='_ZN5mongo4repl19ScatterGatherRunnerC2EPNS0_22ScatterGatherAlgorithmE' type='func-type' binding='global-binding' visibility='default-visibility' alias='_ZN5mongo4repl19ScatterGatherRunnerC1EPNS0_22ScatterGatherAlgorithmE' is-defined='yes'/>
    <elf-symbol name='_ZN5mongo4repl19ScatterGatherRunnerD1Ev' type='func-type' binding='global-binding' visibility='default-visibility' is-defined='yes'/>
    <elf-symbol name='_ZN5mongo4repl19ScatterGatherRunnerD2Ev' type='func-type' binding='global-binding' visibility='default-visibility' alias='_ZN5mongo4repl19ScatterGatherRunnerD1Ev' is-defined='yes'/>
    <elf-symbol name='_ZN5mongo4repl22ScatterGatherAlgorithmD0Ev' type='func-type' binding='global-binding' visibility='default-visibility' is-defined='yes'/>
    <elf-symbol name='_ZN5mongo4repl22ScatterGatherAlgorithmD1Ev' type='func-type' binding='global-binding' visibility='default-visibility' is-defined='yes'/>
    <elf-symbol name='_ZN5mongo4repl22ScatterGatherAlgorithmD2Ev' type='func-type' binding='global-binding' visibility='default-visibility' alias='_ZN5mongo4repl22ScatterGatherAlgorithmD1Ev' is-defined='yes'/>
    <elf-symbol name='_ZN5mongo6Date_tC2Ev' type='func-type' binding='weak-binding' visibility='default-visibility' is-defined='yes'/>
    <elf-symbol name='_ZN5mongo6Date_tpLINSt6chrono8durationIlSt5ratioILl1ELl1000EEEEEERS0_T_' type='func-type' binding='weak-binding' visibility='default-visibility' is-defined='yes'/>
    <elf-symbol name='_ZN5mongo6Status2OKEv' type='func-type' binding='weak-binding' visibility='default-visibility' is-defined='yes'/>
    <elf-symbol name='_ZN5mongo6Status3refEPNS0_9ErrorInfoE' type='func-type' binding='weak-binding' visibility='default-visibility' is-defined='yes'/>
    <elf-symbol name='_ZN5mongo6Status5unrefEPNS0_9ErrorInfoE' type='func-type' binding='weak-binding' visibility='default-visibility' is-defined='yes'/>
    <elf-symbol name='_ZN5mongo6Status9ErrorInfoD2Ev' type='func-type' binding='weak-binding' visibility='default-visibility' is-defined='yes'/>
    <elf-symbol name='_ZN5mongo6StatusC2EOS0_' type='func-type' binding='weak-binding' visibility='default-visibility' is-defined='yes'/>
    <elf-symbol name='_ZN5mongo6StatusC2ERKS0_' type='func-type' binding='weak-binding' visibility='default-visibility' is-defined='yes'/>
    <elf-symbol name='_ZN5mongo6StatusC2Ev' type='func-type' binding='weak-binding' visibility='default-visibility' is-defined='yes'/>
    <elf-symbol name='_ZN5mongo6StatusD2Ev' type='func-type' binding='weak-binding' visibility='default-visibility' is-defined='yes'/>
    <elf-symbol name='_ZN5mongo6StatusaSEOS0_' type='func-type' binding='weak-binding' visibility='default-visibility' is-defined='yes'/>
    <elf-symbol name='_ZN5mongo6logger10LogManager15getGlobalDomainEv' type='func-type' binding='weak-binding' visibility='default-visibility' is-defined='yes'/>
    <elf-symbol name='_ZN5mongo6logger11LogSeverity4castEi' type='func-type' binding='weak-binding' visibility='default-visibility' is-defined='yes'/>
    <elf-symbol name='_ZN5mongo6logger11LogSeverityC2Ei' type='func-type' binding='weak-binding' visibility='default-visibility' is-defined='yes'/>
    <elf-symbol name='_ZN5mongo6logger12LogComponentC2ENS1_5ValueE' type='func-type' binding='weak-binding' visibility='default-visibility' is-defined='yes'/>
    <elf-symbol name='_ZN5mongo6logger15globalLogDomainEv' type='func-type' binding='weak-binding' visibility='default-visibility' is-defined='yes'/>
    <elf-symbol name='_ZN5mongo6logger16LogstreamBuilder12severityCastEi' type='func-type' binding='weak-binding' visibility='default-visibility' is-defined='yes'/>
    <elf-symbol name='_ZN5mongo6logger16LogstreamBuilder6streamEv' type='func-type' binding='weak-binding' visibility='default-visibility' is-defined='yes'/>
    <elf-symbol name='_ZN5mongo6logger16LogstreamBuilderlsEPKc' type='func-type' binding='weak-binding' visibility='default-visibility' is-defined='yes'/>
    <elf-symbol name='_ZN5mongo6logger16LogstreamBuilderlsERKSs' type='func-type' binding='weak-binding' visibility='default-visibility' is-defined='yes'/>
    <elf-symbol name='_ZN5mongo7BSONObjC2EOS0_' type='func-type' binding='weak-binding' visibility='default-visibility' is-defined='yes'/>
    <elf-symbol name='_ZN5mongo7BSONObjC2ERKS0_' type='func-type' binding='weak-binding' visibility='default-visibility' is-defined='yes'/>
    <elf-symbol name='_ZN5mongo7BSONObjC2Ev' type='func-type' binding='weak-binding' visibility='default-visibility' is-defined='yes'/>
    <elf-symbol name='_ZN5mongo7BSONObjD2Ev' type='func-type' binding='weak-binding' visibility='default-visibility' is-defined='yes'/>
    <elf-symbol name='_ZN5mongo7fassertEiRKNS_6StatusE' type='func-type' binding='weak-binding' visibility='default-visibility' is-defined='yes'/>
    <elf-symbol name='_ZN5mongo8executor12TaskExecutor11EventHandleC2EOS2_' type='func-type' binding='weak-binding' visibility='default-visibility' is-defined='yes'/>
    <elf-symbol name='_ZN5mongo8executor12TaskExecutor11EventHandleC2ERKS2_' type='func-type' binding='weak-binding' visibility='default-visibility' is-defined='yes'/>
    <elf-symbol name='_ZN5mongo8executor12TaskExecutor11EventHandleD2Ev' type='func-type' binding='weak-binding' visibility='default-visibility' is-defined='yes'/>
    <elf-symbol name='_ZN5mongo8executor12TaskExecutor11EventHandleaSEOS2_' type='func-type' binding='weak-binding' visibility='default-visibility' is-defined='yes'/>
    <elf-symbol name='_ZN5mongo8executor12TaskExecutor11EventHandleaSERKS2_' type='func-type' binding='weak-binding' visibility='default-visibility' is-defined='yes'/>
    <elf-symbol name='_ZN5mongo8executor12TaskExecutor12CallbackArgsC2EOS2_' type='func-type' binding='weak-binding' visibility='default-visibility' is-defined='yes'/>
    <elf-symbol name='_ZN5mongo8executor12TaskExecutor12CallbackArgsC2ERKS2_' type='func-type' binding='weak-binding' visibility='default-visibility' is-defined='yes'/>
    <elf-symbol name='_ZN5mongo8executor12TaskExecutor12CallbackArgsD2Ev' type='func-type' binding='weak-binding' visibility='default-visibility' is-defined='yes'/>
    <elf-symbol name='_ZN5mongo8executor12TaskExecutor14CallbackHandleC2EOS2_' type='func-type' binding='weak-binding' visibility='default-visibility' is-defined='yes'/>
    <elf-symbol name='_ZN5mongo8executor12TaskExecutor14CallbackHandleC2ERKS2_' type='func-type' binding='weak-binding' visibility='default-visibility' is-defined='yes'/>
    <elf-symbol name='_ZN5mongo8executor12TaskExecutor14CallbackHandleD2Ev' type='func-type' binding='weak-binding' visibility='default-visibility' is-defined='yes'/>
    <elf-symbol name='_ZN5mongo8executor12TaskExecutor14CallbackHandleaSEOS2_' type='func-type' binding='weak-binding' visibility='default-visibility' is-defined='yes'/>
    <elf-symbol name='_ZN5mongo8executor12TaskExecutor25RemoteCommandCallbackArgsD2Ev' type='func-type' binding='weak-binding' visibility='default-visibility' is-defined='yes'/>
    <elf-symbol name='_ZN5mongo8executor20RemoteCommandRequestC2EOS1_' type='func-type' binding='weak-binding' visibility='default-visibility' is-defined='yes'/>
    <elf-symbol name='_ZN5mongo8executor20RemoteCommandRequestC2ERKS1_' type='func-type' binding='weak-binding' visibility='default-visibility' is-defined='yes'/>
    <elf-symbol name='_ZN5mongo8executor20RemoteCommandRequestD2Ev' type='func-type' binding='weak-binding' visibility='default-visibility' is-defined='yes'/>
    <elf-symbol name='_ZN5mongo8executor21RemoteCommandResponseC2EOS1_' type='func-type' binding='weak-binding' visibility='default-visibility' is-defined='yes'/>
    <elf-symbol name='_ZN5mongo8executor21RemoteCommandResponseC2ERKS1_' type='func-type' binding='weak-binding' visibility='default-visibility' is-defined='yes'/>
    <elf-symbol name='_ZN5mongo8executor21RemoteCommandResponseD2Ev' type='func-type' binding='weak-binding' visibility='default-visibility' is-defined='yes'/>
    <elf-symbol name='_ZN5mongo9MakeGuardIvNS_4repl19ScatterGatherRunnerES2_PNS1_19ReplicationExecutorES4_EENS_18ObjScopeGuardImpl1IT0_MT1_FT_T2_ET3_EESB_PS6_SC_' type='func-type' binding='weak-binding' visibility='default-visibility' is-defined='yes'/>
    <elf-symbol name='_ZN9__gnu_cxx13new_allocatorIN5mongo4repl19ReplicationExecutor5EventEE7destroyIS4_EEvPT_' type='func-type' binding='weak-binding' visibility='default-visibility' is-defined='yes'/>
    <elf-symbol name='_ZN9__gnu_cxx13new_allocatorIN5mongo4repl19ReplicationExecutor5EventEE9constructIS4_JPS3_RSt14_List_iteratorINS1_8executor12TaskExecutor11EventHandleEEEEEvPT_DpOT0_' type='func-type' binding='weak-binding' visibility='default-visibility' is-defined='yes'/>
    <elf-symbol name='_ZN9__gnu_cxx13new_allocatorIN5mongo4repl19ReplicationExecutor5EventEEC2ERKS5_' type='func-type' binding='weak-binding' visibility='default-visibility' is-defined='yes'/>
    <elf-symbol name='_ZN9__gnu_cxx13new_allocatorIN5mongo4repl19ReplicationExecutor5EventEEC2Ev' type='func-type' binding='weak-binding' visibility='default-visibility' is-defined='yes'/>
    <elf-symbol name='_ZN9__gnu_cxx13new_allocatorIN5mongo4repl19ReplicationExecutor5EventEED2Ev' type='func-type' binding='weak-binding' visibility='default-visibility' is-defined='yes'/>
    <elf-symbol name='_ZN9__gnu_cxx13new_allocatorIN5mongo8executor12TaskExecutor14CallbackHandleEE10deallocateEPS4_m' type='func-type' binding='weak-binding' visibility='default-visibility' is-defined='yes'/>
    <elf-symbol name='_ZN9__gnu_cxx13new_allocatorIN5mongo8executor12TaskExecutor14CallbackHandleEE7destroyIS4_EEvPT_' type='func-type' binding='weak-binding' visibility='default-visibility' is-defined='yes'/>
    <elf-symbol name='_ZN9__gnu_cxx13new_allocatorIN5mongo8executor12TaskExecutor14CallbackHandleEE8allocateEmPKv' type='func-type' binding='weak-binding' visibility='default-visibility' is-defined='yes'/>
    <elf-symbol name='_ZN9__gnu_cxx13new_allocatorIN5mongo8executor12TaskExecutor14CallbackHandleEE9constructIS4_JRKS4_EEEvPT_DpOT0_' type='func-type' binding='weak-binding' visibility='default-visibility' is-defined='yes'/>
    <elf-symbol name='_ZN9__gnu_cxx13new_allocatorIN5mongo8executor12TaskExecutor14CallbackHandleEEC2Ev' type='func-type' binding='weak-binding' visibility='default-visibility' is-defined='yes'/>
    <elf-symbol name='_ZN9__gnu_cxx13new_allocatorIN5mongo8executor12TaskExecutor14CallbackHandleEED2Ev' type='func-type' binding='weak-binding' visibility='default-visibility' is-defined='yes'/>
    <elf-symbol name='_ZN9__gnu_cxx13new_allocatorIN5mongo8executor20RemoteCommandRequestEE10deallocateEPS3_m' type='func-type' binding='weak-binding' visibility='default-visibility' is-defined='yes'/>
    <elf-symbol name='_ZN9__gnu_cxx13new_allocatorIN5mongo8executor20RemoteCommandRequestEED2Ev' type='func-type' binding='weak-binding' visibility='default-visibility' is-defined='yes'/>
    <elf-symbol name='_ZN9__gnu_cxx13new_allocatorISt10_List_nodeIN5mongo4repl19ReplicationExecutor8WorkItemEEE10deallocateEPS6_m' type='func-type' binding='weak-binding' visibility='default-visibility' is-defined='yes'/>
    <elf-symbol name='_ZN9__gnu_cxx13new_allocatorISt10_List_nodeIN5mongo4repl19ReplicationExecutor8WorkItemEEE7destroyIS6_EEvPT_' type='func-type' binding='weak-binding' visibility='default-visibility' is-defined='yes'/>
    <elf-symbol name='_ZN9__gnu_cxx13new_allocatorISt10_List_nodeIN5mongo4repl19ReplicationExecutor8WorkItemEEE8allocateEmPKv' type='func-type' binding='weak-binding' visibility='default-visibility' is-defined='yes'/>
    <elf-symbol name='_ZN9__gnu_cxx13new_allocatorISt10_List_nodeIN5mongo4repl19ReplicationExecutor8WorkItemEEE9constructIS6_JS5_EEEvPT_DpOT0_' type='func-type' binding='weak-binding' visibility='default-visibility' is-defined='yes'/>
    <elf-symbol name='_ZN9__gnu_cxx13new_allocatorISt10_List_nodeIN5mongo4repl19ReplicationExecutor8WorkItemEEEC2Ev' type='func-type' binding='weak-binding' visibility='default-visibility' is-defined='yes'/>
    <elf-symbol name='_ZN9__gnu_cxx13new_allocatorISt10_List_nodeIN5mongo4repl19ReplicationExecutor8WorkItemEEED2Ev' type='func-type' binding='weak-binding' visibility='default-visibility' is-defined='yes'/>
    <elf-symbol name='_ZN9__gnu_cxx13new_allocatorISt10_List_nodeIN5mongo8executor12TaskExecutor11EventHandleEEE10deallocateEPS6_m' type='func-type' binding='weak-binding' visibility='default-visibility' is-defined='yes'/>
    <elf-symbol name='_ZN9__gnu_cxx13new_allocatorISt10_List_nodeIN5mongo8executor12TaskExecutor11EventHandleEEE7destroyIS6_EEvPT_' type='func-type' binding='weak-binding' visibility='default-visibility' is-defined='yes'/>
    <elf-symbol name='_ZN9__gnu_cxx13new_allocatorISt10_List_nodeIN5mongo8executor12TaskExecutor11EventHandleEEE8allocateEmPKv' type='func-type' binding='weak-binding' visibility='default-visibility' is-defined='yes'/>
    <elf-symbol name='_ZN9__gnu_cxx13new_allocatorISt10_List_nodeIN5mongo8executor12TaskExecutor11EventHandleEEE9constructIS6_JEEEvPT_DpOT0_' type='func-type' binding='weak-binding' visibility='default-visibility' is-defined='yes'/>
    <elf-symbol name='_ZN9__gnu_cxx13new_allocatorISt10_List_nodeIN5mongo8executor12TaskExecutor11EventHandleEEEC2Ev' type='func-type' binding='weak-binding' visibility='default-visibility' is-defined='yes'/>
    <elf-symbol name='_ZN9__gnu_cxx13new_allocatorISt10_List_nodeIN5mongo8executor12TaskExecutor11EventHandleEEED2Ev' type='func-type' binding='weak-binding' visibility='default-visibility' is-defined='yes'/>
    <elf-symbol name='_ZN9__gnu_cxx13new_allocatorISt23_Sp_counted_ptr_inplaceIN5mongo4repl19ReplicationExecutor5EventESaIS5_ELNS_12_Lock_policyE2EEE10deallocateEPS8_m' type='func-type' binding='weak-binding' visibility='default-visibility' is-defined='yes'/>
    <elf-symbol name='_ZN9__gnu_cxx13new_allocatorISt23_Sp_counted_ptr_inplaceIN5mongo4repl19ReplicationExecutor5EventESaIS5_ELNS_12_Lock_policyE2EEE7destroyIS8_EEvPT_' type='func-type' binding='weak-binding' visibility='default-visibility' is-defined='yes'/>
    <elf-symbol name='_ZN9__gnu_cxx13new_allocatorISt23_Sp_counted_ptr_inplaceIN5mongo4repl19ReplicationExecutor5EventESaIS5_ELNS_12_Lock_policyE2EEE8allocateEmPKv' type='func-type' binding='weak-binding' visibility='default-visibility' is-defined='yes'/>
    <elf-symbol name='_ZN9__gnu_cxx13new_allocatorISt23_Sp_counted_ptr_inplaceIN5mongo4repl19ReplicationExecutor5EventESaIS5_ELNS_12_Lock_policyE2EEE9constructIS8_JKS6_PS4_RSt14_List_iteratorINS2_8executor12TaskExecutor11EventHandleEEEEEvPT_DpOT0_' type='func-type' binding='weak-binding' visibility='default-visibility' is-defined='yes'/>
    <elf-symbol name='_ZN9__gnu_cxx13new_allocatorISt23_Sp_counted_ptr_inplaceIN5mongo4repl19ReplicationExecutor5EventESaIS5_ELNS_12_Lock_policyE2EEEC2Ev' type='func-type' binding='weak-binding' visibility='default-visibility' is-defined='yes'/>
    <elf-symbol name='_ZN9__gnu_cxx13new_allocatorISt23_Sp_counted_ptr_inplaceIN5mongo4repl19ReplicationExecutor5EventESaIS5_ELNS_12_Lock_policyE2EEED2Ev' type='func-type' binding='weak-binding' visibility='default-visibility' is-defined='yes'/>
    <elf-symbol name='_ZN9__gnu_cxx16__aligned_bufferIN5mongo4repl19ReplicationExecutor5EventEE6_M_ptrEv' type='func-type' binding='weak-binding' visibility='default-visibility' is-defined='yes'/>
    <elf-symbol name='_ZN9__gnu_cxx16__aligned_bufferIN5mongo4repl19ReplicationExecutor5EventEE7_M_addrEv' type='func-type' binding='weak-binding' visibility='default-visibility' is-defined='yes'/>
    <elf-symbol name='_ZN9__gnu_cxx17__normal_iteratorIPKN5mongo8executor12TaskExecutor14CallbackHandleESt6vectorIS4_SaIS4_EEEC2ERKS6_' type='func-type' binding='weak-binding' visibility='default-visibility' is-defined='yes'/>
    <elf-symbol name='_ZN9__gnu_cxx17__normal_iteratorIPN5mongo8executor12TaskExecutor14CallbackHandleESt6vectorIS4_SaIS4_EEEC2ERKS5_' type='func-type' binding='weak-binding' visibility='default-visibility' is-defined='yes'/>
    <elf-symbol name='_ZN9__gnu_cxx17__normal_iteratorIPN5mongo8executor12TaskExecutor14CallbackHandleESt6vectorIS4_SaIS4_EEEppEv' type='func-type' binding='weak-binding' visibility='default-visibility' is-defined='yes'/>
    <elf-symbol name='_ZN9__gnu_cxxeqIPKN5mongo8executor12TaskExecutor14CallbackHandleESt6vectorIS4_SaIS4_EEEEbRKNS_17__normal_iteratorIT_T0_EESF_' type='func-type' binding='weak-binding' visibility='default-visibility' is-defined='yes'/>
    <elf-symbol name='_ZN9__gnu_cxxneIPN5mongo8executor12TaskExecutor14CallbackHandleESt6vectorIS4_SaIS4_EEEEbRKNS_17__normal_iteratorIT_T0_EESE_' type='func-type' binding='weak-binding' visibility='default-visibility' is-defined='yes'/>
    <elf-symbol name='_ZNK10mongoutils3str6streamcvSsEv' type='func-type' binding='weak-binding' visibility='default-visibility' is-defined='yes'/>
    <elf-symbol name='_ZNK5boost13intrusive_ptrIN5mongo12SharedBuffer6HolderEEcvbEv' type='func-type' binding='weak-binding' visibility='default-visibility' is-defined='yes'/>
    <elf-symbol name='_ZNK5boost13intrusive_ptrIN5mongo12SharedBuffer6HolderEEptEv' type='func-type' binding='weak-binding' visibility='default-visibility' is-defined='yes'/>
    <elf-symbol name='_ZNK5boost15optional_detail13optional_baseIN5mongo8executor12TaskExecutor11EventHandleEE14is_initializedEv' type='func-type' binding='weak-binding' visibility='default-visibility' is-defined='yes'/>
    <elf-symbol name='_ZNK5boost15optional_detail13optional_baseIN5mongo8executor12TaskExecutor14CallbackHandleEE10get_objectEv' type='func-type' binding='weak-binding' visibility='default-visibility' is-defined='yes'/>
    <elf-symbol name='_ZNK5boost15optional_detail13optional_baseIN5mongo8executor12TaskExecutor14CallbackHandleEE11dereferenceEPKS5_N4mpl_5bool_ILb0EEE' type='func-type' binding='weak-binding' visibility='default-visibility' is-defined='yes'/>
    <elf-symbol name='_ZNK5boost15optional_detail13optional_baseIN5mongo8executor12TaskExecutor14CallbackHandleEE14is_initializedEv' type='func-type' binding='weak-binding' visibility='default-visibility' is-defined='yes'/>
    <elf-symbol name='_ZNK5boost15optional_detail13optional_baseIN5mongo8executor12TaskExecutor14CallbackHandleEE8get_implEv' type='func-type' binding='weak-binding' visibility='default-visibility' is-defined='yes'/>
    <elf-symbol name='_ZNK5boost15optional_detail13optional_baseIN5mongo8executor21RemoteCommandResponseEE10get_objectEv' type='func-type' binding='weak-binding' visibility='default-visibility' is-defined='yes'/>
    <elf-symbol name='_ZNK5boost15optional_detail13optional_baseIN5mongo8executor21RemoteCommandResponseEE11dereferenceEPKS4_N4mpl_5bool_ILb0EEE' type='func-type' binding='weak-binding' visibility='default-visibility' is-defined='yes'/>
    <elf-symbol name='_ZNK5boost15optional_detail13optional_baseIN5mongo8executor21RemoteCommandResponseEE14is_initializedEv' type='func-type' binding='weak-binding' visibility='default-visibility' is-defined='yes'/>
    <elf-symbol name='_ZNK5boost15optional_detail13optional_baseIN5mongo8executor21RemoteCommandResponseEE8get_implEv' type='func-type' binding='weak-binding' visibility='default-visibility' is-defined='yes'/>
    <elf-symbol name='_ZNK5boost15optional_detail15aligned_storageIN5mongo8executor12TaskExecutor14CallbackHandleEE7addressEv' type='func-type' binding='weak-binding' visibility='default-visibility' is-defined='yes'/>
    <elf-symbol name='_ZNK5boost15optional_detail15aligned_storageIN5mongo8executor21RemoteCommandResponseEE7addressEv' type='func-type' binding='weak-binding' visibility='default-visibility' is-defined='yes'/>
    <elf-symbol name='_ZNK5boost8optionalIN5mongo8executor12TaskExecutor14CallbackHandleEE3getEv' type='func-type' binding='weak-binding' visibility='default-visibility' is-defined='yes'/>
    <elf-symbol name='_ZNK5boost8optionalIN5mongo8executor21RemoteCommandResponseEE3getEv' type='func-type' binding='weak-binding' visibility='default-visibility' is-defined='yes'/>
    <elf-symbol name='_ZNK5mongo10StatusWithINS_8executor12TaskExecutor11EventHandleEE4isOKEv' type='func-type' binding='weak-binding' visibility='default-visibility' is-defined='yes'/>
    <elf-symbol name='_ZNK5mongo10StatusWithINS_8executor12TaskExecutor11EventHandleEE9getStatusEv' type='func-type' binding='weak-binding' visibility='default-visibility' is-defined='yes'/>
    <elf-symbol name='_ZNK5mongo10StatusWithINS_8executor12TaskExecutor14CallbackHandleEE4isOKEv' type='func-type' binding='weak-binding' visibility='default-visibility' is-defined='yes'/>
    <elf-symbol name='_ZNK5mongo10StatusWithINS_8executor12TaskExecutor14CallbackHandleEE8getValueEv' type='func-type' binding='weak-binding' visibility='default-visibility' is-defined='yes'/>
    <elf-symbol name='_ZNK5mongo10StatusWithINS_8executor12TaskExecutor14CallbackHandleEE9getStatusEv' type='func-type' binding='weak-binding' visibility='default-visibility' is-defined='yes'/>
    <elf-symbol name='_ZNK5mongo10StatusWithINS_8executor21RemoteCommandResponseEE4isOKEv' type='func-type' binding='weak-binding' visibility='default-visibility' is-defined='yes'/>
    <elf-symbol name='_ZNK5mongo10StatusWithINS_8executor21RemoteCommandResponseEE8getValueEv' type='func-type' binding='weak-binding' visibility='default-visibility' is-defined='yes'/>
    <elf-symbol name='_ZNK5mongo10StatusWithINS_8executor21RemoteCommandResponseEE9getStatusEv' type='func-type' binding='weak-binding' visibility='default-visibility' is-defined='yes'/>
    <elf-symbol name='_ZNK5mongo10StringData4sizeEv' type='func-type' binding='weak-binding' visibility='default-visibility' is-defined='yes'/>
    <elf-symbol name='_ZNK5mongo10StringData6copyToEPcb' type='func-type' binding='weak-binding' visibility='default-visibility' is-defined='yes'/>
    <elf-symbol name='_ZNK5mongo12SharedBuffer3getEv' type='func-type' binding='weak-binding' visibility='default-visibility' is-defined='yes'/>
    <elf-symbol name='_ZNK5mongo15NamespaceString2nsEv' type='func-type' binding='weak-binding' visibility='default-visibility' is-defined='yes'/>
    <elf-symbol name='_ZNK5mongo17StringBuilderImplINS_16TrivialAllocatorEE3strEv' type='func-type' binding='weak-binding' visibility='default-visibility' is-defined='yes'/>
    <elf-symbol name='_ZNK5mongo18ScopeGuardImplBase7DismissEv' type='func-type' binding='weak-binding' visibility='default-visibility' is-defined='yes'/>
    <elf-symbol name='_ZNK5mongo4repl19ReplicationExecutor27_getDiagnosticString_inlockEv' type='func-type' binding='global-binding' visibility='default-visibility' is-defined='yes'/>
    <elf-symbol name='_ZNK5mongo6Date_t18toMillisSinceEpochEv' type='func-type' binding='weak-binding' visibility='default-visibility' is-defined='yes'/>
    <elf-symbol name='_ZNK5mongo6Date_t20toDurationSinceEpochEv' type='func-type' binding='weak-binding' visibility='default-visibility' is-defined='yes'/>
    <elf-symbol name='_ZNK5mongo6Date_teqES0_' type='func-type' binding='weak-binding' visibility='default-visibility' is-defined='yes'/>
    <elf-symbol name='_ZNK5mongo6Date_tgtES0_' type='func-type' binding='weak-binding' visibility='default-visibility' is-defined='yes'/>
    <elf-symbol name='_ZNK5mongo6Date_tleES0_' type='func-type' binding='weak-binding' visibility='default-visibility' is-defined='yes'/>
    <elf-symbol name='_ZNK5mongo6Date_tplINSt6chrono8durationIlSt5ratioILl1ELl1000EEEEEES0_T_' type='func-type' binding='weak-binding' visibility='default-visibility' is-defined='yes'/>
    <elf-symbol name='_ZNK5mongo6Status4codeEv' type='func-type' binding='weak-binding' visibility='default-visibility' is-defined='yes'/>
    <elf-symbol name='_ZNK5mongo6Status4isOKEv' type='func-type' binding='weak-binding' visibility='default-visibility' is-defined='yes'/>
    <elf-symbol name='_ZNK5mongo7BSONObj7isOwnedEv' type='func-type' binding='weak-binding' visibility='default-visibility' is-defined='yes'/>
    <elf-symbol name='_ZNK5mongo8executor12TaskExecutor11EventHandle7isValidEv' type='func-type' binding='weak-binding' visibility='default-visibility' is-defined='yes'/>
    <elf-symbol name='_ZNK5mongo8executor12TaskExecutor14CallbackHandle7isValidEv' type='func-type' binding='weak-binding' visibility='default-visibility' is-defined='yes'/>
    <elf-symbol name='_ZNK9__gnu_cxx13new_allocatorIN5mongo8executor12TaskExecutor14CallbackHandleEE8max_sizeEv' type='func-type' binding='weak-binding' visibility='default-visibility' is-defined='yes'/>
    <elf-symbol name='_ZNK9__gnu_cxx13new_allocatorISt10_List_nodeIN5mongo4repl19ReplicationExecutor8WorkItemEEE8max_sizeEv' type='func-type' binding='weak-binding' visibility='default-visibility' is-defined='yes'/>
    <elf-symbol name='_ZNK9__gnu_cxx13new_allocatorISt10_List_nodeIN5mongo8executor12TaskExecutor11EventHandleEEE8max_sizeEv' type='func-type' binding='weak-binding' visibility='default-visibility' is-defined='yes'/>
    <elf-symbol name='_ZNK9__gnu_cxx13new_allocatorISt23_Sp_counted_ptr_inplaceIN5mongo4repl19ReplicationExecutor5EventESaIS5_ELNS_12_Lock_policyE2EEE8max_sizeEv' type='func-type' binding='weak-binding' visibility='default-visibility' is-defined='yes'/>
    <elf-symbol name='_ZNK9__gnu_cxx17__normal_iteratorIPKN5mongo8executor12TaskExecutor14CallbackHandleESt6vectorIS4_SaIS4_EEE4baseEv' type='func-type' binding='weak-binding' visibility='default-visibility' is-defined='yes'/>
    <elf-symbol name='_ZNK9__gnu_cxx17__normal_iteratorIPN5mongo8executor12TaskExecutor14CallbackHandleESt6vectorIS4_SaIS4_EEE4baseEv' type='func-type' binding='weak-binding' visibility='default-visibility' is-defined='yes'/>
    <elf-symbol name='_ZNK9__gnu_cxx17__normal_iteratorIPN5mongo8executor12TaskExecutor14CallbackHandleESt6vectorIS4_SaIS4_EEEdeEv' type='func-type' binding='weak-binding' visibility='default-visibility' is-defined='yes'/>
    <elf-symbol name='_ZNKR5boost8optionalIN5mongo8executor12TaskExecutor14CallbackHandleEEdeEv' type='func-type' binding='weak-binding' visibility='default-visibility' is-defined='yes'/>
    <elf-symbol name='_ZNKR5boost8optionalIN5mongo8executor21RemoteCommandResponseEEdeEv' type='func-type' binding='weak-binding' visibility='default-visibility' is-defined='yes'/>
    <elf-symbol name='_ZNKSt10unique_ptrIN5mongo8executor16NetworkInterfaceESt14default_deleteIS2_EE3getEv' type='func-type' binding='weak-binding' visibility='default-visibility' is-defined='yes'/>
    <elf-symbol name='_ZNKSt10unique_ptrIN5mongo8executor16NetworkInterfaceESt14default_deleteIS2_EEptEv' type='func-type' binding='weak-binding' visibility='default-visibility' is-defined='yes'/>
    <elf-symbol name='_ZNKSt10unique_ptrISt19basic_ostringstreamIcSt11char_traitsIcESaIcEESt14default_deleteIS4_EE3getEv' type='func-type' binding='weak-binding' visibility='default-visibility' is-defined='yes'/>
    <elf-symbol name='_ZNKSt10unique_ptrISt19basic_ostringstreamIcSt11char_traitsIcESaIcEESt14default_deleteIS4_EEcvbEv' type='func-type' binding='weak-binding' visibility='default-visibility' is-defined='yes'/>
    <elf-symbol name='_ZNKSt10unique_ptrISt19basic_ostringstreamIcSt11char_traitsIcESaIcEESt14default_deleteIS4_EEdeEv' type='func-type' binding='weak-binding' visibility='default-visibility' is-defined='yes'/>
    <elf-symbol name='_ZNKSt12_Vector_baseIN5mongo8executor12TaskExecutor14CallbackHandleESaIS3_EE19_M_get_Tp_allocatorEv' type='func-type' binding='weak-binding' visibility='default-visibility' is-defined='yes'/>
    <elf-symbol name='_ZNKSt12__shared_ptrIN5mongo8executor12TaskExecutor10EventStateELN9__gnu_cxx12_Lock_policyE2EE3getEv' type='func-type' binding='weak-binding' visibility='default-visibility' is-defined='yes'/>
    <elf-symbol name='_ZNKSt12__shared_ptrIN5mongo8executor12TaskExecutor13CallbackStateELN9__gnu_cxx12_Lock_policyE2EE3getEv' type='func-type' binding='weak-binding' visibility='default-visibility' is-defined='yes'/>
    <elf-symbol name='_ZNKSt13move_iteratorIPN5mongo8executor12TaskExecutor14CallbackHandleEE4baseEv' type='func-type' binding='weak-binding' visibility='default-visibility' is-defined='yes'/>
    <elf-symbol name='_ZNKSt13move_iteratorIPN5mongo8executor12TaskExecutor14CallbackHandleEEdeEv' type='func-type' binding='weak-binding' visibility='default-visibility' is-defined='yes'/>
    <elf-symbol name='_ZNKSt14_Function_base8_M_emptyEv' type='func-type' binding='weak-binding' visibility='default-visibility' is-defined='yes'/>
    <elf-symbol name='_ZNKSt14_List_iteratorIN5mongo4repl19ReplicationExecutor8WorkItemEEdeEv' type='func-type' binding='weak-binding' visibility='default-visibility' is-defined='yes'/>
    <elf-symbol name='_ZNKSt14_List_iteratorIN5mongo4repl19ReplicationExecutor8WorkItemEEeqERKS4_' type='func-type' binding='weak-binding' visibility='default-visibility' is-defined='yes'/>
    <elf-symbol name='_ZNKSt14_List_iteratorIN5mongo4repl19ReplicationExecutor8WorkItemEEneERKS4_' type='func-type' binding='weak-binding' visibility='default-visibility' is-defined='yes'/>
    <elf-symbol name='_ZNKSt14_List_iteratorIN5mongo4repl19ReplicationExecutor8WorkItemEEptEv' type='func-type' binding='weak-binding' visibility='default-visibility' is-defined='yes'/>
    <elf-symbol name='_ZNKSt14_List_iteratorIN5mongo8executor12TaskExecutor11EventHandleEEdeEv' type='func-type' binding='weak-binding' visibility='default-visibility' is-defined='yes'/>
    <elf-symbol name='_ZNKSt14_List_iteratorIN5mongo8executor12TaskExecutor11EventHandleEEneERKS4_' type='func-type' binding='weak-binding' visibility='default-visibility' is-defined='yes'/>
    <elf-symbol name='_ZNKSt14__shared_countILN9__gnu_cxx12_Lock_policyE2EE14_M_get_deleterERKSt9type_info' type='func-type' binding='weak-binding' visibility='default-visibility' is-defined='yes'/>
    <elf-symbol name='_ZNKSt14default_deleteIN5mongo4repl16StorageInterfaceEEclEPS2_' type='func-type' binding='weak-binding' visibility='default-visibility' is-defined='yes'/>
    <elf-symbol name='_ZNKSt14default_deleteIN5mongo8executor16NetworkInterfaceEEclEPS2_' type='func-type' binding='weak-binding' visibility='default-visibility' is-defined='yes'/>
    <elf-symbol name='_ZNKSt14default_deleteISt10lock_guardISt5mutexEEclEPS2_' type='func-type' binding='weak-binding' visibility='default-visibility' is-defined='yes'/>
    <elf-symbol name='_ZNKSt20_List_const_iteratorIN5mongo4repl19ReplicationExecutor8WorkItemEE13_M_const_castEv' type='func-type' binding='weak-binding' visibility='default-visibility' is-defined='yes'/>
    <elf-symbol name='_ZNKSt20_List_const_iteratorIN5mongo4repl19ReplicationExecutor8WorkItemEEeqERKS4_' type='func-type' binding='weak-binding' visibility='default-visibility' is-defined='yes'/>
    <elf-symbol name='_ZNKSt20_List_const_iteratorIN5mongo4repl19ReplicationExecutor8WorkItemEEneERKS4_' type='func-type' binding='weak-binding' visibility='default-visibility' is-defined='yes'/>
    <elf-symbol name='_ZNKSt20_List_const_iteratorIN5mongo8executor12TaskExecutor11EventHandleEE13_M_const_castEv' type='func-type' binding='weak-binding' visibility='default-visibility' is-defined='yes'/>
    <elf-symbol name='_ZNKSt20_List_const_iteratorIN5mongo8executor12TaskExecutor11EventHandleEEneERKS4_' type='func-type' binding='weak-binding' visibility='default-visibility' is-defined='yes'/>
    <elf-symbol name='_ZNKSt4listIN5mongo4repl19ReplicationExecutor8WorkItemESaIS3_EE3endEv' type='func-type' binding='weak-binding' visibility='default-visibility' is-defined='yes'/>
    <elf-symbol name='_ZNKSt4listIN5mongo4repl19ReplicationExecutor8WorkItemESaIS3_EE4sizeEv' type='func-type' binding='weak-binding' visibility='default-visibility' is-defined='yes'/>
    <elf-symbol name='_ZNKSt4listIN5mongo4repl19ReplicationExecutor8WorkItemESaIS3_EE5beginEv' type='func-type' binding='weak-binding' visibility='default-visibility' is-defined='yes'/>
    <elf-symbol name='_ZNKSt4listIN5mongo4repl19ReplicationExecutor8WorkItemESaIS3_EE5emptyEv' type='func-type' binding='weak-binding' visibility='default-visibility' is-defined='yes'/>
    <elf-symbol name='_ZNKSt4listIN5mongo8executor12TaskExecutor11EventHandleESaIS3_EE3endEv' type='func-type' binding='weak-binding' visibility='default-visibility' is-defined='yes'/>
    <elf-symbol name='_ZNKSt4listIN5mongo8executor12TaskExecutor11EventHandleESaIS3_EE4sizeEv' type='func-type' binding='weak-binding' visibility='default-visibility' is-defined='yes'/>
    <elf-symbol name='_ZNKSt4listIN5mongo8executor12TaskExecutor11EventHandleESaIS3_EE5beginEv' type='func-type' binding='weak-binding' visibility='default-visibility' is-defined='yes'/>
    <elf-symbol name='_ZNKSt4listIN5mongo8executor12TaskExecutor11EventHandleESaIS3_EE5emptyEv' type='func-type' binding='weak-binding' visibility='default-visibility' is-defined='yes'/>
    <elf-symbol name='_ZNKSt6chrono8durationIlSt5ratioILl1ELl1000EEE5countEv' type='func-type' binding='weak-binding' visibility='default-visibility' is-defined='yes'/>
    <elf-symbol name='_ZNKSt6thread8joinableEv' type='func-type' binding='weak-binding' visibility='default-visibility' is-defined='yes'/>
    <elf-symbol name='_ZNKSt6vectorIN5mongo8executor12TaskExecutor14CallbackHandleESaIS3_EE12_M_check_lenEmPKc' type='func-type' binding='weak-binding' visibility='default-visibility' is-defined='yes'/>
    <elf-symbol name='_ZNKSt6vectorIN5mongo8executor12TaskExecutor14CallbackHandleESaIS3_EE3endEv' type='func-type' binding='weak-binding' visibility='default-visibility' is-defined='yes'/>
    <elf-symbol name='_ZNKSt6vectorIN5mongo8executor12TaskExecutor14CallbackHandleESaIS3_EE4sizeEv' type='func-type' binding='weak-binding' visibility='default-visibility' is-defined='yes'/>
    <elf-symbol name='_ZNKSt6vectorIN5mongo8executor12TaskExecutor14CallbackHandleESaIS3_EE5beginEv' type='func-type' binding='weak-binding' visibility='default-visibility' is-defined='yes'/>
    <elf-symbol name='_ZNKSt6vectorIN5mongo8executor12TaskExecutor14CallbackHandleESaIS3_EE5emptyEv' type='func-type' binding='weak-binding' visibility='default-visibility' is-defined='yes'/>
    <elf-symbol name='_ZNKSt6vectorIN5mongo8executor12TaskExecutor14CallbackHandleESaIS3_EE8max_sizeEv' type='func-type' binding='weak-binding' visibility='default-visibility' is-defined='yes'/>
    <elf-symbol name='_ZNKSt6vectorIN5mongo8executor20RemoteCommandRequestESaIS2_EE4sizeEv' type='func-type' binding='weak-binding' visibility='default-visibility' is-defined='yes'/>
    <elf-symbol name='_ZNKSt7_Mem_fnIMN5mongo4repl16StorageInterfaceEFPNS0_16OperationContextEvEEclIJEvEES4_PS2_DpOT_' type='func-type' binding='weak-binding' visibility='default-visibility' is-defined='yes'/>
    <elf-symbol name='_ZNKSt7_Mem_fnIMN5mongo4repl19ReplicationExecutorEFvPNS0_16OperationContextERKNS0_6StatusERKNS0_8executor12TaskExecutor14CallbackHandleEPSt4listINS2_8WorkItemESaISE_EEPSt5mutexEEclIJRS4_RS5_RSA_RSH_RDnEvEEvPS2_DpOT_' type='func-type' binding='weak-binding' visibility='default-visibility' is-defined='yes'/>
    <elf-symbol name='_ZNKSt7_Mem_fnIMN5mongo4repl19ReplicationExecutorEFvPNS0_16OperationContextERKNS0_6StatusERKNS0_8executor12TaskExecutor14CallbackHandleEPSt4listINS2_8WorkItemESaISE_EEPSt5mutexEEclIJRS4_RS5_RSA_RSH_RSJ_EvEEvPS2_DpOT_' type='func-type' binding='weak-binding' visibility='default-visibility' is-defined='yes'/>
    <elf-symbol name='_ZNKSt7_Mem_fnIMN5mongo4repl19ReplicationExecutorEFvRKNS0_8executor12TaskExecutor14CallbackHandleEEEclIJRS5_EvEEvPS2_DpOT_' type='func-type' binding='weak-binding' visibility='default-visibility' is-defined='yes'/>
    <elf-symbol name='_ZNKSt7_Mem_fnIMN5mongo4repl19ReplicationExecutorEFvRKNS0_8executor20RemoteCommandRequestERKNS0_10StatusWithINS3_21RemoteCommandResponseEEERKNS3_12TaskExecutor14CallbackHandleEmRKSt8functionIFvRKNSC_25RemoteCommandCallbackArgsEEEEEclIJRS4_SB_RSD_RmRSL_EvEEvPS2_DpOT_' type='func-type' binding='weak-binding' visibility='default-visibility' is-defined='yes'/>
    <elf-symbol name='_ZNKSt8functionIFvRKN5mongo8executor12TaskExecutor12CallbackArgsEEEclES5_' type='func-type' binding='weak-binding' visibility='default-visibility' is-defined='yes'/>
    <elf-symbol name='_ZNKSt8functionIFvRKN5mongo8executor12TaskExecutor12CallbackArgsEEEcvbEv' type='func-type' binding='weak-binding' visibility='default-visibility' is-defined='yes'/>
    <elf-symbol name='_ZNKSt8functionIFvRKN5mongo8executor12TaskExecutor25RemoteCommandCallbackArgsEEEclES5_' type='func-type' binding='weak-binding' visibility='default-visibility' is-defined='yes'/>
    <elf-symbol name='_ZNKSt8functionIFvRKN5mongo8executor12TaskExecutor25RemoteCommandCallbackArgsEEEcvbEv' type='func-type' binding='weak-binding' visibility='default-visibility' is-defined='yes'/>
    <elf-symbol name='_ZNKSt8functionIFvvEEclEv' type='func-type' binding='weak-binding' visibility='default-visibility' is-defined='yes'/>
    <elf-symbol name='_ZNKSt8functionIFvvEEcvbEv' type='func-type' binding='weak-binding' visibility='default-visibility' is-defined='yes'/>
    <elf-symbol name='_ZNKSt9_Any_data9_M_accessEv' type='func-type' binding='weak-binding' visibility='default-visibility' is-defined='yes'/>
    <elf-symbol name='_ZNKSt9_Any_data9_M_accessIPSt5_BindIFPFvRKN5mongo8executor12TaskExecutor12CallbackArgsEPNS2_4repl19ScatterGatherRunnerEPNS2_10StatusWithINS4_11EventHandleEEEESt12_PlaceholderILi1EESA_SE_EEEERKT_v' type='func-type' binding='weak-binding' visibility='default-visibility' is-defined='yes'/>
    <elf-symbol name='_ZNKSt9_Any_data9_M_accessIPSt5_BindIFPFvRKN5mongo8executor12TaskExecutor12CallbackArgsERKSt8functionIFvRKNS4_25RemoteCommandCallbackArgsEEERKNS3_20RemoteCommandRequestEESt12_PlaceholderILi1EESD_SG_EEEERKT_v' type='func-type' binding='weak-binding' visibility='default-visibility' is-defined='yes'/>
    <elf-symbol name='_ZNKSt9_Any_data9_M_accessIPSt5_BindIFPFvRKN5mongo8executor12TaskExecutor12CallbackArgsERKSt8functionIFvRKNS4_25RemoteCommandCallbackArgsEEERKNS3_20RemoteCommandRequestERKNS2_10StatusWithINS3_21RemoteCommandResponseEEEESt12_PlaceholderILi1EESD_SG_SL_EEEERKT_v' type='func-type' binding='weak-binding' visibility='default-visibility' is-defined='yes'/>
    <elf-symbol name='_ZNKSt9_Any_data9_M_accessIPSt5_BindIFPFvRKN5mongo8executor12TaskExecutor25RemoteCommandCallbackArgsEPNS2_4repl19ScatterGatherRunnerEESt12_PlaceholderILi1EESA_EEEERKT_v' type='func-type' binding='weak-binding' visibility='default-visibility' is-defined='yes'/>
    <elf-symbol name='_ZNKSt9_Any_data9_M_accessIPSt5_BindIFPFvRKSt8functionIFvvEEES4_EEEERKT_v' type='func-type' binding='weak-binding' visibility='default-visibility' is-defined='yes'/>
    <elf-symbol name='_ZNKSt9_Any_data9_M_accessIPSt5_BindIFS1_IFSt7_Mem_fnIMN5mongo4repl19ReplicationExecutorEFvPNS3_16OperationContextERKNS3_6StatusERKNS3_8executor12TaskExecutor14CallbackHandleEPSt4listINS5_8WorkItemESaISH_EEPSt5mutexEEPS5_St12_PlaceholderILi1EESR_ILi2EESD_SK_DnEES7_S8_EEEERKT_v' type='func-type' binding='weak-binding' visibility='default-visibility' is-defined='yes'/>
    <elf-symbol name='_ZNKSt9_Any_data9_M_accessIPSt5_BindIFS1_IFSt7_Mem_fnIMN5mongo4repl19ReplicationExecutorEFvPNS3_16OperationContextERKNS3_6StatusERKNS3_8executor12TaskExecutor14CallbackHandleEPSt4listINS5_8WorkItemESaISH_EEPSt5mutexEEPS5_St12_PlaceholderILi1EESR_ILi2EESD_SK_SM_EES7_S8_EEEERKT_v' type='func-type' binding='weak-binding' visibility='default-visibility' is-defined='yes'/>
    <elf-symbol name='_ZNKSt9_Any_data9_M_accessIPSt5_BindIFSt7_Mem_fnIMN5mongo4repl16StorageInterfaceEFPNS3_16OperationContextEvEEPS5_EEEERKT_v' type='func-type' binding='weak-binding' visibility='default-visibility' is-defined='yes'/>
    <elf-symbol name='_ZNKSt9_Any_data9_M_accessIPSt5_BindIFSt7_Mem_fnIMN5mongo4repl19ReplicationExecutorEFvRKNS3_8executor20RemoteCommandRequestERKNS3_10StatusWithINS6_21RemoteCommandResponseEEERKNS6_12TaskExecutor14CallbackHandleEmRKSt8functionIFvRKNSF_25RemoteCommandCallbackArgsEEEEEPS5_S7_St12_PlaceholderILi1EESG_mSO_EEEERKT_v' type='func-type' binding='weak-binding' visibility='default-visibility' is-defined='yes'/>
    <elf-symbol name='_ZNKSt9_Any_data9_M_accessIPSt5_BindIFSt8functionIFvRKN5mongo8executor12TaskExecutor12CallbackArgsEEES6_EEEERKT_v' type='func-type' binding='weak-binding' visibility='default-visibility' is-defined='yes'/>
    <elf-symbol name='_ZNKSt9type_infoeqERKS_' type='func-type' binding='weak-binding' visibility='default-visibility' is-defined='yes'/>
    <elf-symbol name='_ZNR5boost8optionalIN5mongo8executor12TaskExecutor11EventHandleEEdeEv' type='func-type' binding='weak-binding' visibility='default-visibility' is-defined='yes'/>
    <elf-symbol name='_ZNR5boost8optionalIN5mongo8executor12TaskExecutor14CallbackHandleEEdeEv' type='func-type' binding='weak-binding' visibility='default-visibility' is-defined='yes'/>
    <elf-symbol name='_ZNSaIN5mongo4repl19ReplicationExecutor5EventEEC2ERKS3_' type='func-type' binding='weak-binding' visibility='default-visibility' is-defined='yes'/>
    <elf-symbol name='_ZNSaIN5mongo4repl19ReplicationExecutor5EventEEC2Ev' type='func-type' binding='weak-binding' visibility='default-visibility' is-defined='yes'/>
    <elf-symbol name='_ZNSaIN5mongo4repl19ReplicationExecutor5EventEED2Ev' type='func-type' binding='weak-binding' visibility='default-visibility' is-defined='yes'/>
    <elf-symbol name='_ZNSaIN5mongo8executor12TaskExecutor14CallbackHandleEEC2Ev' type='func-type' binding='weak-binding' visibility='default-visibility' is-defined='yes'/>
    <elf-symbol name='_ZNSaIN5mongo8executor12TaskExecutor14CallbackHandleEED2Ev' type='func-type' binding='weak-binding' visibility='default-visibility' is-defined='yes'/>
    <elf-symbol name='_ZNSaIN5mongo8executor20RemoteCommandRequestEED2Ev' type='func-type' binding='weak-binding' visibility='default-visibility' is-defined='yes'/>
    <elf-symbol name='_ZNSaISt10_List_nodeIN5mongo4repl19ReplicationExecutor8WorkItemEEEC2Ev' type='func-type' binding='weak-binding' visibility='default-visibility' is-defined='yes'/>
    <elf-symbol name='_ZNSaISt10_List_nodeIN5mongo4repl19ReplicationExecutor8WorkItemEEED2Ev' type='func-type' binding='weak-binding' visibility='default-visibility' is-defined='yes'/>
    <elf-symbol name='_ZNSaISt10_List_nodeIN5mongo8executor12TaskExecutor11EventHandleEEEC2Ev' type='func-type' binding='weak-binding' visibility='default-visibility' is-defined='yes'/>
    <elf-symbol name='_ZNSaISt10_List_nodeIN5mongo8executor12TaskExecutor11EventHandleEEED2Ev' type='func-type' binding='weak-binding' visibility='default-visibility' is-defined='yes'/>
    <elf-symbol name='_ZNSaISt23_Sp_counted_ptr_inplaceIN5mongo4repl19ReplicationExecutor5EventESaIS3_ELN9__gnu_cxx12_Lock_policyE2EEEC2IS3_EERKSaIT_E' type='func-type' binding='weak-binding' visibility='default-visibility' is-defined='yes'/>
    <elf-symbol name='_ZNSaISt23_Sp_counted_ptr_inplaceIN5mongo4repl19ReplicationExecutor5EventESaIS3_ELN9__gnu_cxx12_Lock_policyE2EEED2Ev' type='func-type' binding='weak-binding' visibility='default-visibility' is-defined='yes'/>
    <elf-symbol name='_ZNSt10_Head_baseILm0EN5mongo8executor12TaskExecutor12CallbackArgsELb0EE7_M_headERS4_' type='func-type' binding='weak-binding' visibility='default-visibility' is-defined='yes'/>
    <elf-symbol name='_ZNSt10_Head_baseILm0EN5mongo8executor12TaskExecutor12CallbackArgsELb0EEC2ERKS4_' type='func-type' binding='weak-binding' visibility='default-visibility' is-defined='yes'/>
    <elf-symbol name='_ZNSt10_Head_baseILm0EN5mongo8executor12TaskExecutor12CallbackArgsELb0EEC2IS3_EEOT_' type='func-type' binding='weak-binding' visibility='default-visibility' is-defined='yes'/>
    <elf-symbol name='_ZNSt10_Head_baseILm0EN5mongo8executor12TaskExecutor12CallbackArgsELb0EED2Ev' type='func-type' binding='weak-binding' visibility='default-visibility' is-defined='yes'/>
    <elf-symbol name='_ZNSt10_Head_baseILm0EPN5mongo16OperationContextELb0EE7_M_headERS3_' type='func-type' binding='weak-binding' visibility='default-visibility' is-defined='yes'/>
    <elf-symbol name='_ZNSt10_Head_baseILm0EPN5mongo16OperationContextELb0EEC2IRS2_EEOT_' type='func-type' binding='weak-binding' visibility='default-visibility' is-defined='yes'/>
    <elf-symbol name='_ZNSt10_Head_baseILm0EPN5mongo16OperationContextELb0EEC2IS2_EEOT_' type='func-type' binding='weak-binding' visibility='default-visibility' is-defined='yes'/>
    <elf-symbol name='_ZNSt10_Head_baseILm0EPN5mongo4repl16StorageInterfaceELb0EE7_M_headERS4_' type='func-type' binding='weak-binding' visibility='default-visibility' is-defined='yes'/>
    <elf-symbol name='_ZNSt10_Head_baseILm0EPN5mongo4repl16StorageInterfaceELb0EEC2IRS3_EEOT_' type='func-type' binding='weak-binding' visibility='default-visibility' is-defined='yes'/>
    <elf-symbol name='_ZNSt10_Head_baseILm0EPN5mongo4repl16StorageInterfaceELb0EEC2IS3_EEOT_' type='func-type' binding='weak-binding' visibility='default-visibility' is-defined='yes'/>
    <elf-symbol name='_ZNSt10_Head_baseILm0EPN5mongo4repl19ReplicationExecutorELb0EE7_M_headERS4_' type='func-type' binding='weak-binding' visibility='default-visibility' is-defined='yes'/>
    <elf-symbol name='_ZNSt10_Head_baseILm0EPN5mongo4repl19ReplicationExecutorELb0EEC2IRS3_EEOT_' type='func-type' binding='weak-binding' visibility='default-visibility' is-defined='yes'/>
    <elf-symbol name='_ZNSt10_Head_baseILm0EPN5mongo4repl19ReplicationExecutorELb0EEC2IS3_EEOT_' type='func-type' binding='weak-binding' visibility='default-visibility' is-defined='yes'/>
    <elf-symbol name='_ZNSt10_Head_baseILm0EPN5mongo8executor16NetworkInterfaceELb0EE7_M_headERKS4_' type='func-type' binding='weak-binding' visibility='default-visibility' is-defined='yes'/>
    <elf-symbol name='_ZNSt10_Head_baseILm0EPN5mongo8executor16NetworkInterfaceELb0EE7_M_headERS4_' type='func-type' binding='weak-binding' visibility='default-visibility' is-defined='yes'/>
    <elf-symbol name='_ZNSt10_Head_baseILm0EPN5mongo8executor16NetworkInterfaceELb0EEC2IRS3_EEOT_' type='func-type' binding='weak-binding' visibility='default-visibility' is-defined='yes'/>
    <elf-symbol name='_ZNSt10_Head_baseILm0EPSt10lock_guardISt5mutexELb0EE7_M_headERS4_' type='func-type' binding='weak-binding' visibility='default-visibility' is-defined='yes'/>
    <elf-symbol name='_ZNSt10_Head_baseILm0EPSt10lock_guardISt5mutexELb0EEC2IRS3_EEOT_' type='func-type' binding='weak-binding' visibility='default-visibility' is-defined='yes'/>
    <elf-symbol name='_ZNSt10_Head_baseILm0EPSt19basic_ostringstreamIcSt11char_traitsIcESaIcEELb0EE7_M_headERKS6_' type='func-type' binding='weak-binding' visibility='default-visibility' is-defined='yes'/>
    <elf-symbol name='_ZNSt10_Head_baseILm0ERKN5mongo10StatusWithINS0_8executor21RemoteCommandResponseEEELb0EE7_M_headERS7_' type='func-type' binding='weak-binding' visibility='default-visibility' is-defined='yes'/>
    <elf-symbol name='_ZNSt10_Head_baseILm0ERKN5mongo10StatusWithINS0_8executor21RemoteCommandResponseEEELb0EEC2ES6_' type='func-type' binding='weak-binding' visibility='default-visibility' is-defined='yes'/>
    <elf-symbol name='_ZNSt10_Head_baseILm0ERKN5mongo8executor12TaskExecutor12CallbackArgsELb0EE7_M_headERS6_' type='func-type' binding='weak-binding' visibility='default-visibility' is-defined='yes'/>
    <elf-symbol name='_ZNSt10_Head_baseILm0ERKN5mongo8executor12TaskExecutor12CallbackArgsELb0EEC2ES5_' type='func-type' binding='weak-binding' visibility='default-visibility' is-defined='yes'/>
    <elf-symbol name='_ZNSt10_Head_baseILm0ERKN5mongo8executor12TaskExecutor25RemoteCommandCallbackArgsELb0EE7_M_headERS6_' type='func-type' binding='weak-binding' visibility='default-visibility' is-defined='yes'/>
    <elf-symbol name='_ZNSt10_Head_baseILm0ERKN5mongo8executor12TaskExecutor25RemoteCommandCallbackArgsELb0EEC2ES5_' type='func-type' binding='weak-binding' visibility='default-visibility' is-defined='yes'/>
    <elf-symbol name='_ZNSt10_Head_baseILm0ERN5mongo8executor12TaskExecutor14CallbackHandleELb0EE7_M_headERS5_' type='func-type' binding='weak-binding' visibility='default-visibility' is-defined='yes'/>
    <elf-symbol name='_ZNSt10_Head_baseILm0ERN5mongo8executor12TaskExecutor14CallbackHandleELb0EEC2ES4_' type='func-type' binding='weak-binding' visibility='default-visibility' is-defined='yes'/>
    <elf-symbol name='_ZNSt10_Head_baseILm0ERPN5mongo16OperationContextELb0EE7_M_headERS4_' type='func-type' binding='weak-binding' visibility='default-visibility' is-defined='yes'/>
    <elf-symbol name='_ZNSt10_Head_baseILm0ERPN5mongo16OperationContextELb0EEC2ES3_' type='func-type' binding='weak-binding' visibility='default-visibility' is-defined='yes'/>
    <elf-symbol name='_ZNSt10_Head_baseILm0ESt12_PlaceholderILi1EELb1EE7_M_headERS2_' type='func-type' binding='weak-binding' visibility='default-visibility' is-defined='yes'/>
    <elf-symbol name='_ZNSt10_Head_baseILm0ESt12_PlaceholderILi1EELb1EEC2ERKS1_' type='func-type' binding='weak-binding' visibility='default-visibility' is-defined='yes'/>
    <elf-symbol name='_ZNSt10_Head_baseILm0ESt12_PlaceholderILi1EELb1EEC2IS1_EEOT_' type='func-type' binding='weak-binding' visibility='default-visibility' is-defined='yes'/>
    <elf-symbol name='_ZNSt10_Head_baseILm0ESt8functionIFvvEELb0EE7_M_headERS3_' type='func-type' binding='weak-binding' visibility='default-visibility' is-defined='yes'/>
    <elf-symbol name='_ZNSt10_Head_baseILm0ESt8functionIFvvEELb0EEC2ERKS2_' type='func-type' binding='weak-binding' visibility='default-visibility' is-defined='yes'/>
    <elf-symbol name='_ZNSt10_Head_baseILm0ESt8functionIFvvEELb0EEC2ERKS3_' type='func-type' binding='weak-binding' visibility='default-visibility' is-defined='yes'/>
    <elf-symbol name='_ZNSt10_Head_baseILm0ESt8functionIFvvEELb0EEC2IS2_EEOT_' type='func-type' binding='weak-binding' visibility='default-visibility' is-defined='yes'/>
    <elf-symbol name='_ZNSt10_Head_baseILm0ESt8functionIFvvEELb0EED2Ev' type='func-type' binding='weak-binding' visibility='default-visibility' is-defined='yes'/>
    <elf-symbol name='_ZNSt10_Head_baseILm1EN5mongo6StatusELb0EE7_M_headERS2_' type='func-type' binding='weak-binding' visibility='default-visibility' is-defined='yes'/>
    <elf-symbol name='_ZNSt10_Head_baseILm1EN5mongo6StatusELb0EEC2ERKS1_' type='func-type' binding='weak-binding' visibility='default-visibility' is-defined='yes'/>
    <elf-symbol name='_ZNSt10_Head_baseILm1EN5mongo6StatusELb0EEC2ERKS2_' type='func-type' binding='weak-binding' visibility='default-visibility' is-defined='yes'/>
    <elf-symbol name='_ZNSt10_Head_baseILm1EN5mongo6StatusELb0EEC2IS1_EEOT_' type='func-type' binding='weak-binding' visibility='default-visibility' is-defined='yes'/>
    <elf-symbol name='_ZNSt10_Head_baseILm1EN5mongo6StatusELb0EED2Ev' type='func-type' binding='weak-binding' visibility='default-visibility' is-defined='yes'/>
    <elf-symbol name='_ZNSt10_Head_baseILm1EN5mongo8executor20RemoteCommandRequestELb0EE7_M_headERS3_' type='func-type' binding='weak-binding' visibility='default-visibility' is-defined='yes'/>
    <elf-symbol name='_ZNSt10_Head_baseILm1EN5mongo8executor20RemoteCommandRequestELb0EEC2ERKS3_' type='func-type' binding='weak-binding' visibility='default-visibility' is-defined='yes'/>
    <elf-symbol name='_ZNSt10_Head_baseILm1EN5mongo8executor20RemoteCommandRequestELb0EEC2IRS2_EEOT_' type='func-type' binding='weak-binding' visibility='default-visibility' is-defined='yes'/>
    <elf-symbol name='_ZNSt10_Head_baseILm1EN5mongo8executor20RemoteCommandRequestELb0EEC2IS2_EEOT_' type='func-type' binding='weak-binding' visibility='default-visibility' is-defined='yes'/>
    <elf-symbol name='_ZNSt10_Head_baseILm1EN5mongo8executor20RemoteCommandRequestELb0EED2Ev' type='func-type' binding='weak-binding' visibility='default-visibility' is-defined='yes'/>
    <elf-symbol name='_ZNSt10_Head_baseILm1EPN5mongo4repl19ScatterGatherRunnerELb0EE7_M_headERS4_' type='func-type' binding='weak-binding' visibility='default-visibility' is-defined='yes'/>
    <elf-symbol name='_ZNSt10_Head_baseILm1EPN5mongo4repl19ScatterGatherRunnerELb0EEC2IS3_EEOT_' type='func-type' binding='weak-binding' visibility='default-visibility' is-defined='yes'/>
    <elf-symbol name='_ZNSt10_Head_baseILm1ERN5mongo6StatusELb0EE7_M_headERS3_' type='func-type' binding='weak-binding' visibility='default-visibility' is-defined='yes'/>
    <elf-symbol name='_ZNSt10_Head_baseILm1ERN5mongo6StatusELb0EEC2ES2_' type='func-type' binding='weak-binding' visibility='default-visibility' is-defined='yes'/>
    <elf-symbol name='_ZNSt10_Head_baseILm1ESt12_PlaceholderILi1EELb1EE7_M_headERS2_' type='func-type' binding='weak-binding' visibility='default-visibility' is-defined='yes'/>
    <elf-symbol name='_ZNSt10_Head_baseILm1ESt12_PlaceholderILi1EELb1EEC2ERKS1_' type='func-type' binding='weak-binding' visibility='default-visibility' is-defined='yes'/>
    <elf-symbol name='_ZNSt10_Head_baseILm1ESt12_PlaceholderILi1EELb1EEC2IS1_EEOT_' type='func-type' binding='weak-binding' visibility='default-visibility' is-defined='yes'/>
    <elf-symbol name='_ZNSt10_Head_baseILm1ESt14default_deleteIN5mongo4repl16StorageInterfaceEELb1EE7_M_headERS5_' type='func-type' binding='weak-binding' visibility='default-visibility' is-defined='yes'/>
    <elf-symbol name='_ZNSt10_Head_baseILm1ESt14default_deleteIN5mongo4repl16StorageInterfaceEELb1EEC2IS4_EEOT_' type='func-type' binding='weak-binding' visibility='default-visibility' is-defined='yes'/>
    <elf-symbol name='_ZNSt10_Head_baseILm1ESt14default_deleteIN5mongo8executor16NetworkInterfaceEELb1EE7_M_headERS5_' type='func-type' binding='weak-binding' visibility='default-visibility' is-defined='yes'/>
    <elf-symbol name='_ZNSt10_Head_baseILm1ESt14default_deleteIN5mongo8executor16NetworkInterfaceEELb1EEC2IS4_EEOT_' type='func-type' binding='weak-binding' visibility='default-visibility' is-defined='yes'/>
    <elf-symbol name='_ZNSt10_Head_baseILm1ESt14default_deleteISt10lock_guardISt5mutexEELb1EE7_M_headERS5_' type='func-type' binding='weak-binding' visibility='default-visibility' is-defined='yes'/>
    <elf-symbol name='_ZNSt10_Head_baseILm1ESt14default_deleteISt10lock_guardISt5mutexEELb1EEC2IS4_EEOT_' type='func-type' binding='weak-binding' visibility='default-visibility' is-defined='yes'/>
    <elf-symbol name='_ZNSt10_Head_baseILm1ESt8functionIFvRKN5mongo8executor12TaskExecutor25RemoteCommandCallbackArgsEEELb0EE7_M_headERS9_' type='func-type' binding='weak-binding' visibility='default-visibility' is-defined='yes'/>
    <elf-symbol name='_ZNSt10_Head_baseILm1ESt8functionIFvRKN5mongo8executor12TaskExecutor25RemoteCommandCallbackArgsEEELb0EEC2ERKS8_' type='func-type' binding='weak-binding' visibility='default-visibility' is-defined='yes'/>
    <elf-symbol name='_ZNSt10_Head_baseILm1ESt8functionIFvRKN5mongo8executor12TaskExecutor25RemoteCommandCallbackArgsEEELb0EEC2ERKS9_' type='func-type' binding='weak-binding' visibility='default-visibility' is-defined='yes'/>
    <elf-symbol name='_ZNSt10_Head_baseILm1ESt8functionIFvRKN5mongo8executor12TaskExecutor25RemoteCommandCallbackArgsEEELb0EEC2IS8_EEOT_' type='func-type' binding='weak-binding' visibility='default-visibility' is-defined='yes'/>
    <elf-symbol name='_ZNSt10_Head_baseILm1ESt8functionIFvRKN5mongo8executor12TaskExecutor25RemoteCommandCallbackArgsEEELb0EED2Ev' type='func-type' binding='weak-binding' visibility='default-visibility' is-defined='yes'/>
    <elf-symbol name='_ZNSt10_Head_baseILm2EN5mongo8executor20RemoteCommandRequestELb0EE7_M_headERS3_' type='func-type' binding='weak-binding' visibility='default-visibility' is-defined='yes'/>
    <elf-symbol name='_ZNSt10_Head_baseILm2EN5mongo8executor20RemoteCommandRequestELb0EEC2ERKS2_' type='func-type' binding='weak-binding' visibility='default-visibility' is-defined='yes'/>
    <elf-symbol name='_ZNSt10_Head_baseILm2EN5mongo8executor20RemoteCommandRequestELb0EEC2ERKS3_' type='func-type' binding='weak-binding' visibility='default-visibility' is-defined='yes'/>
    <elf-symbol name='_ZNSt10_Head_baseILm2EN5mongo8executor20RemoteCommandRequestELb0EEC2IRS2_EEOT_' type='func-type' binding='weak-binding' visibility='default-visibility' is-defined='yes'/>
    <elf-symbol name='_ZNSt10_Head_baseILm2EN5mongo8executor20RemoteCommandRequestELb0EEC2IS2_EEOT_' type='func-type' binding='weak-binding' visibility='default-visibility' is-defined='yes'/>
    <elf-symbol name='_ZNSt10_Head_baseILm2EN5mongo8executor20RemoteCommandRequestELb0EED2Ev' type='func-type' binding='weak-binding' visibility='default-visibility' is-defined='yes'/>
    <elf-symbol name='_ZNSt10_Head_baseILm2EPN5mongo10StatusWithINS0_8executor12TaskExecutor11EventHandleEEELb0EE7_M_headERS7_' type='func-type' binding='weak-binding' visibility='default-visibility' is-defined='yes'/>
    <elf-symbol name='_ZNSt10_Head_baseILm2EPN5mongo10StatusWithINS0_8executor12TaskExecutor11EventHandleEEELb0EEC2IS6_EEOT_' type='func-type' binding='weak-binding' visibility='default-visibility' is-defined='yes'/>
    <elf-symbol name='_ZNSt10_Head_baseILm2ESt12_PlaceholderILi1EELb1EE7_M_headERS2_' type='func-type' binding='weak-binding' visibility='default-visibility' is-defined='yes'/>
    <elf-symbol name='_ZNSt10_Head_baseILm2ESt12_PlaceholderILi1EELb1EEC2ERKS1_' type='func-type' binding='weak-binding' visibility='default-visibility' is-defined='yes'/>
    <elf-symbol name='_ZNSt10_Head_baseILm2ESt12_PlaceholderILi1EELb1EEC2IS1_EEOT_' type='func-type' binding='weak-binding' visibility='default-visibility' is-defined='yes'/>
    <elf-symbol name='_ZNSt10_Head_baseILm2ESt12_PlaceholderILi2EELb1EE7_M_headERS2_' type='func-type' binding='weak-binding' visibility='default-visibility' is-defined='yes'/>
    <elf-symbol name='_ZNSt10_Head_baseILm2ESt12_PlaceholderILi2EELb1EEC2ERKS1_' type='func-type' binding='weak-binding' visibility='default-visibility' is-defined='yes'/>
    <elf-symbol name='_ZNSt10_Head_baseILm2ESt12_PlaceholderILi2EELb1EEC2IS1_EEOT_' type='func-type' binding='weak-binding' visibility='default-visibility' is-defined='yes'/>
    <elf-symbol name='_ZNSt10_Head_baseILm3EN5mongo10StatusWithINS0_8executor21RemoteCommandResponseEEELb0EE7_M_headERS5_' type='func-type' binding='weak-binding' visibility='default-visibility' is-defined='yes'/>
    <elf-symbol name='_ZNSt10_Head_baseILm3EN5mongo10StatusWithINS0_8executor21RemoteCommandResponseEEELb0EEC2ERKS4_' type='func-type' binding='weak-binding' visibility='default-visibility' is-defined='yes'/>
    <elf-symbol name='_ZNSt10_Head_baseILm3EN5mongo10StatusWithINS0_8executor21RemoteCommandResponseEEELb0EEC2ERKS5_' type='func-type' binding='weak-binding' visibility='default-visibility' is-defined='yes'/>
    <elf-symbol name='_ZNSt10_Head_baseILm3EN5mongo10StatusWithINS0_8executor21RemoteCommandResponseEEELb0EEC2IS4_EEOT_' type='func-type' binding='weak-binding' visibility='default-visibility' is-defined='yes'/>
    <elf-symbol name='_ZNSt10_Head_baseILm3EN5mongo10StatusWithINS0_8executor21RemoteCommandResponseEEELb0EED2Ev' type='func-type' binding='weak-binding' visibility='default-visibility' is-defined='yes'/>
    <elf-symbol name='_ZNSt10_Head_baseILm3EN5mongo8executor12TaskExecutor14CallbackHandleELb0EE7_M_headERS4_' type='func-type' binding='weak-binding' visibility='default-visibility' is-defined='yes'/>
    <elf-symbol name='_ZNSt10_Head_baseILm3EN5mongo8executor12TaskExecutor14CallbackHandleELb0EEC2ERKS4_' type='func-type' binding='weak-binding' visibility='default-visibility' is-defined='yes'/>
    <elf-symbol name='_ZNSt10_Head_baseILm3EN5mongo8executor12TaskExecutor14CallbackHandleELb0EEC2IRS3_EEOT_' type='func-type' binding='weak-binding' visibility='default-visibility' is-defined='yes'/>
    <elf-symbol name='_ZNSt10_Head_baseILm3EN5mongo8executor12TaskExecutor14CallbackHandleELb0EEC2IS3_EEOT_' type='func-type' binding='weak-binding' visibility='default-visibility' is-defined='yes'/>
    <elf-symbol name='_ZNSt10_Head_baseILm3EN5mongo8executor12TaskExecutor14CallbackHandleELb0EED2Ev' type='func-type' binding='weak-binding' visibility='default-visibility' is-defined='yes'/>
    <elf-symbol name='_ZNSt10_Head_baseILm4EPSt4listIN5mongo4repl19ReplicationExecutor8WorkItemESaIS4_EELb0EE7_M_headERS8_' type='func-type' binding='weak-binding' visibility='default-visibility' is-defined='yes'/>
    <elf-symbol name='_ZNSt10_Head_baseILm4EPSt4listIN5mongo4repl19ReplicationExecutor8WorkItemESaIS4_EELb0EEC2IS7_EEOT_' type='func-type' binding='weak-binding' visibility='default-visibility' is-defined='yes'/>
    <elf-symbol name='_ZNSt10_Head_baseILm4EmLb0EE7_M_headERS0_' type='func-type' binding='weak-binding' visibility='default-visibility' is-defined='yes'/>
    <elf-symbol name='_ZNSt10_Head_baseILm4EmLb0EEC2IRmEEOT_' type='func-type' binding='weak-binding' visibility='default-visibility' is-defined='yes'/>
    <elf-symbol name='_ZNSt10_Head_baseILm4EmLb0EEC2ImEEOT_' type='func-type' binding='weak-binding' visibility='default-visibility' is-defined='yes'/>
    <elf-symbol name='_ZNSt10_Head_baseILm5EDnLb0EE7_M_headERS0_' type='func-type' binding='weak-binding' visibility='default-visibility' is-defined='yes'/>
    <elf-symbol name='_ZNSt10_Head_baseILm5EDnLb0EEC2IDnEEOT_' type='func-type' binding='weak-binding' visibility='default-visibility' is-defined='yes'/>
    <elf-symbol name='_ZNSt10_Head_baseILm5EPSt5mutexLb0EE7_M_headERS2_' type='func-type' binding='weak-binding' visibility='default-visibility' is-defined='yes'/>
    <elf-symbol name='_ZNSt10_Head_baseILm5EPSt5mutexLb0EEC2IS1_EEOT_' type='func-type' binding='weak-binding' visibility='default-visibility' is-defined='yes'/>
    <elf-symbol name='_ZNSt10_Head_baseILm5ESt8functionIFvRKN5mongo8executor12TaskExecutor25RemoteCommandCallbackArgsEEELb0EE7_M_headERS9_' type='func-type' binding='weak-binding' visibility='default-visibility' is-defined='yes'/>
    <elf-symbol name='_ZNSt10_Head_baseILm5ESt8functionIFvRKN5mongo8executor12TaskExecutor25RemoteCommandCallbackArgsEEELb0EEC2ERKS8_' type='func-type' binding='weak-binding' visibility='default-visibility' is-defined='yes'/>
    <elf-symbol name='_ZNSt10_Head_baseILm5ESt8functionIFvRKN5mongo8executor12TaskExecutor25RemoteCommandCallbackArgsEEELb0EEC2ERKS9_' type='func-type' binding='weak-binding' visibility='default-visibility' is-defined='yes'/>
    <elf-symbol name='_ZNSt10_Head_baseILm5ESt8functionIFvRKN5mongo8executor12TaskExecutor25RemoteCommandCallbackArgsEEELb0EEC2IS8_EEOT_' type='func-type' binding='weak-binding' visibility='default-visibility' is-defined='yes'/>
    <elf-symbol name='_ZNSt10_Head_baseILm5ESt8functionIFvRKN5mongo8executor12TaskExecutor25RemoteCommandCallbackArgsEEELb0EED2Ev' type='func-type' binding='weak-binding' visibility='default-visibility' is-defined='yes'/>
    <elf-symbol name='_ZNSt10_List_baseIN5mongo4repl19ReplicationExecutor8WorkItemESaIS3_EE10_List_implC2Ev' type='func-type' binding='weak-binding' visibility='default-visibility' is-defined='yes'/>
    <elf-symbol name='_ZNSt10_List_baseIN5mongo4repl19ReplicationExecutor8WorkItemESaIS3_EE10_List_implD2Ev' type='func-type' binding='weak-binding' visibility='default-visibility' is-defined='yes'/>
    <elf-symbol name='_ZNSt10_List_baseIN5mongo4repl19ReplicationExecutor8WorkItemESaIS3_EE11_M_get_nodeEv' type='func-type' binding='weak-binding' visibility='default-visibility' is-defined='yes'/>
    <elf-symbol name='_ZNSt10_List_baseIN5mongo4repl19ReplicationExecutor8WorkItemESaIS3_EE11_M_put_nodeEPSt10_List_nodeIS3_E' type='func-type' binding='weak-binding' visibility='default-visibility' is-defined='yes'/>
    <elf-symbol name='_ZNSt10_List_baseIN5mongo4repl19ReplicationExecutor8WorkItemESaIS3_EE21_M_get_Node_allocatorEv' type='func-type' binding='weak-binding' visibility='default-visibility' is-defined='yes'/>
    <elf-symbol name='_ZNSt10_List_baseIN5mongo4repl19ReplicationExecutor8WorkItemESaIS3_EE7_M_initEv' type='func-type' binding='weak-binding' visibility='default-visibility' is-defined='yes'/>
    <elf-symbol name='_ZNSt10_List_baseIN5mongo4repl19ReplicationExecutor8WorkItemESaIS3_EE8_M_clearEv' type='func-type' binding='weak-binding' visibility='default-visibility' is-defined='yes'/>
    <elf-symbol name='_ZNSt10_List_baseIN5mongo4repl19ReplicationExecutor8WorkItemESaIS3_EEC2Ev' type='func-type' binding='weak-binding' visibility='default-visibility' is-defined='yes'/>
    <elf-symbol name='_ZNSt10_List_baseIN5mongo4repl19ReplicationExecutor8WorkItemESaIS3_EED2Ev' type='func-type' binding='weak-binding' visibility='default-visibility' is-defined='yes'/>
    <elf-symbol name='_ZNSt10_List_baseIN5mongo8executor12TaskExecutor11EventHandleESaIS3_EE10_List_implC2Ev' type='func-type' binding='weak-binding' visibility='default-visibility' is-defined='yes'/>
    <elf-symbol name='_ZNSt10_List_baseIN5mongo8executor12TaskExecutor11EventHandleESaIS3_EE10_List_implD2Ev' type='func-type' binding='weak-binding' visibility='default-visibility' is-defined='yes'/>
    <elf-symbol name='_ZNSt10_List_baseIN5mongo8executor12TaskExecutor11EventHandleESaIS3_EE11_M_get_nodeEv' type='func-type' binding='weak-binding' visibility='default-visibility' is-defined='yes'/>
    <elf-symbol name='_ZNSt10_List_baseIN5mongo8executor12TaskExecutor11EventHandleESaIS3_EE11_M_put_nodeEPSt10_List_nodeIS3_E' type='func-type' binding='weak-binding' visibility='default-visibility' is-defined='yes'/>
    <elf-symbol name='_ZNSt10_List_baseIN5mongo8executor12TaskExecutor11EventHandleESaIS3_EE21_M_get_Node_allocatorEv' type='func-type' binding='weak-binding' visibility='default-visibility' is-defined='yes'/>
    <elf-symbol name='_ZNSt10_List_baseIN5mongo8executor12TaskExecutor11EventHandleESaIS3_EE7_M_initEv' type='func-type' binding='weak-binding' visibility='default-visibility' is-defined='yes'/>
    <elf-symbol name='_ZNSt10_List_baseIN5mongo8executor12TaskExecutor11EventHandleESaIS3_EE8_M_clearEv' type='func-type' binding='weak-binding' visibility='default-visibility' is-defined='yes'/>
    <elf-symbol name='_ZNSt10_List_baseIN5mongo8executor12TaskExecutor11EventHandleESaIS3_EEC2Ev' type='func-type' binding='weak-binding' visibility='default-visibility' is-defined='yes'/>
    <elf-symbol name='_ZNSt10_List_baseIN5mongo8executor12TaskExecutor11EventHandleESaIS3_EED2Ev' type='func-type' binding='weak-binding' visibility='default-visibility' is-defined='yes'/>
    <elf-symbol name='_ZNSt10_List_nodeIN5mongo4repl19ReplicationExecutor8WorkItemEEC2IJS3_EEEDpOT_' type='func-type' binding='weak-binding' visibility='default-visibility' is-defined='yes'/>
    <elf-symbol name='_ZNSt10_List_nodeIN5mongo4repl19ReplicationExecutor8WorkItemEED2Ev' type='func-type' binding='weak-binding' visibility='default-visibility' is-defined='yes'/>
    <elf-symbol name='_ZNSt10_List_nodeIN5mongo8executor12TaskExecutor11EventHandleEEC2IJEEEDpOT_' type='func-type' binding='weak-binding' visibility='default-visibility' is-defined='yes'/>
    <elf-symbol name='_ZNSt10_List_nodeIN5mongo8executor12TaskExecutor11EventHandleEED2Ev' type='func-type' binding='weak-binding' visibility='default-visibility' is-defined='yes'/>
    <elf-symbol name='_ZNSt10lock_guardISt5mutexEC2ERS0_' type='func-type' binding='weak-binding' visibility='default-visibility' is-defined='yes'/>
    <elf-symbol name='_ZNSt10lock_guardISt5mutexED2Ev' type='func-type' binding='weak-binding' visibility='default-visibility' is-defined='yes'/>
    <elf-symbol name='_ZNSt10shared_ptrIN5mongo4repl19ReplicationExecutor5EventEEC2ISaIS3_EJPS2_RSt14_List_iteratorINS0_8executor12TaskExecutor11EventHandleEEEEESt19_Sp_make_shared_tagRKT_DpOT0_' type='func-type' binding='weak-binding' visibility='default-visibility' is-defined='yes'/>
    <elf-symbol name='_ZNSt10shared_ptrIN5mongo4repl19ReplicationExecutor5EventEED2Ev' type='func-type' binding='weak-binding' visibility='default-visibility' is-defined='yes'/>
    <elf-symbol name='_ZNSt10shared_ptrIN5mongo8executor12TaskExecutor10EventStateEEC2EOS4_' type='func-type' binding='weak-binding' visibility='default-visibility' is-defined='yes'/>
    <elf-symbol name='_ZNSt10shared_ptrIN5mongo8executor12TaskExecutor10EventStateEEC2ERKS4_' type='func-type' binding='weak-binding' visibility='default-visibility' is-defined='yes'/>
    <elf-symbol name='_ZNSt10shared_ptrIN5mongo8executor12TaskExecutor10EventStateEEC2INS0_4repl19ReplicationExecutor5EventEvEEOS_IT_E' type='func-type' binding='weak-binding' visibility='default-visibility' is-defined='yes'/>
    <elf-symbol name='_ZNSt10shared_ptrIN5mongo8executor12TaskExecutor10EventStateEED2Ev' type='func-type' binding='weak-binding' visibility='default-visibility' is-defined='yes'/>
    <elf-symbol name='_ZNSt10shared_ptrIN5mongo8executor12TaskExecutor10EventStateEEaSEOS4_' type='func-type' binding='weak-binding' visibility='default-visibility' is-defined='yes'/>
    <elf-symbol name='_ZNSt10shared_ptrIN5mongo8executor12TaskExecutor10EventStateEEaSERKS4_' type='func-type' binding='weak-binding' visibility='default-visibility' is-defined='yes'/>
    <elf-symbol name='_ZNSt10shared_ptrIN5mongo8executor12TaskExecutor13CallbackStateEEC2EOS4_' type='func-type' binding='weak-binding' visibility='default-visibility' is-defined='yes'/>
    <elf-symbol name='_ZNSt10shared_ptrIN5mongo8executor12TaskExecutor13CallbackStateEEC2ERKS4_' type='func-type' binding='weak-binding' visibility='default-visibility' is-defined='yes'/>
    <elf-symbol name='_ZNSt10shared_ptrIN5mongo8executor12TaskExecutor13CallbackStateEEC2INS0_4repl19ReplicationExecutor8CallbackEEEPT_' type='func-type' binding='weak-binding' visibility='default-visibility' is-defined='yes'/>
    <elf-symbol name='_ZNSt10shared_ptrIN5mongo8executor12TaskExecutor13CallbackStateEED2Ev' type='func-type' binding='weak-binding' visibility='default-visibility' is-defined='yes'/>
    <elf-symbol name='_ZNSt10shared_ptrIN5mongo8executor12TaskExecutor13CallbackStateEEaSEOS4_' type='func-type' binding='weak-binding' visibility='default-visibility' is-defined='yes'/>
    <elf-symbol name='_ZNSt10shared_ptrINSt6thread10_Impl_baseEEC2Ev' type='func-type' binding='weak-binding' visibility='default-visibility' is-defined='yes'/>
    <elf-symbol name='_ZNSt10shared_ptrINSt6thread10_Impl_baseEED2Ev' type='func-type' binding='weak-binding' visibility='default-visibility' is-defined='yes'/>
    <elf-symbol name='_ZNSt10unique_ptrIN5mongo4repl16StorageInterfaceESt14default_deleteIS2_EE11get_deleterEv' type='func-type' binding='weak-binding' visibility='default-visibility' is-defined='yes'/>
    <elf-symbol name='_ZNSt10unique_ptrIN5mongo4repl16StorageInterfaceESt14default_deleteIS2_EEC2EPS2_' type='func-type' binding='weak-binding' visibility='default-visibility' is-defined='yes'/>
    <elf-symbol name='_ZNSt10unique_ptrIN5mongo4repl16StorageInterfaceESt14default_deleteIS2_EED2Ev' type='func-type' binding='weak-binding' visibility='default-visibility' is-defined='yes'/>
    <elf-symbol name='_ZNSt10unique_ptrIN5mongo8executor16NetworkInterfaceESt14default_deleteIS2_EE11get_deleterEv' type='func-type' binding='weak-binding' visibility='default-visibility' is-defined='yes'/>
    <elf-symbol name='_ZNSt10unique_ptrIN5mongo8executor16NetworkInterfaceESt14default_deleteIS2_EEC2EPS2_' type='func-type' binding='weak-binding' visibility='default-visibility' is-defined='yes'/>
    <elf-symbol name='_ZNSt10unique_ptrIN5mongo8executor16NetworkInterfaceESt14default_deleteIS2_EED2Ev' type='func-type' binding='weak-binding' visibility='default-visibility' is-defined='yes'/>
    <elf-symbol name='_ZNSt10unique_ptrISt10lock_guardISt5mutexESt14default_deleteIS2_EE11get_deleterEv' type='func-type' binding='weak-binding' visibility='default-visibility' is-defined='yes'/>
    <elf-symbol name='_ZNSt10unique_ptrISt10lock_guardISt5mutexESt14default_deleteIS2_EEC2EPS2_' type='func-type' binding='weak-binding' visibility='default-visibility' is-defined='yes'/>
    <elf-symbol name='_ZNSt10unique_ptrISt10lock_guardISt5mutexESt14default_deleteIS2_EED2Ev' type='func-type' binding='weak-binding' visibility='default-visibility' is-defined='yes'/>
    <elf-symbol name='_ZNSt11_Tuple_implILm0EJN5mongo8executor12TaskExecutor12CallbackArgsEEE7_M_headERS4_' type='func-type' binding='weak-binding' visibility='default-visibility' is-defined='yes'/>
    <elf-symbol name='_ZNSt11_Tuple_implILm0EJN5mongo8executor12TaskExecutor12CallbackArgsEEE7_M_tailERS4_' type='func-type' binding='weak-binding' visibility='default-visibility' is-defined='yes'/>
    <elf-symbol name='_ZNSt11_Tuple_implILm0EJN5mongo8executor12TaskExecutor12CallbackArgsEEEC2EOS4_' type='func-type' binding='weak-binding' visibility='default-visibility' is-defined='yes'/>
    <elf-symbol name='_ZNSt11_Tuple_implILm0EJN5mongo8executor12TaskExecutor12CallbackArgsEEEC2ERKS4_' type='func-type' binding='weak-binding' visibility='default-visibility' is-defined='yes'/>
    <elf-symbol name='_ZNSt11_Tuple_implILm0EJN5mongo8executor12TaskExecutor12CallbackArgsEEEC2IS3_JEvEEOT_DpOT0_' type='func-type' binding='weak-binding' visibility='default-visibility' is-defined='yes'/>
    <elf-symbol name='_ZNSt11_Tuple_implILm0EJN5mongo8executor12TaskExecutor12CallbackArgsEEED2Ev' type='func-type' binding='weak-binding' visibility='default-visibility' is-defined='yes'/>
    <elf-symbol name='_ZNSt11_Tuple_implILm0EJPN5mongo16OperationContextENS0_6StatusEEE7_M_headERS4_' type='func-type' binding='weak-binding' visibility='default-visibility' is-defined='yes'/>
    <elf-symbol name='_ZNSt11_Tuple_implILm0EJPN5mongo16OperationContextENS0_6StatusEEE7_M_tailERS4_' type='func-type' binding='weak-binding' visibility='default-visibility' is-defined='yes'/>
    <elf-symbol name='_ZNSt11_Tuple_implILm0EJPN5mongo16OperationContextENS0_6StatusEEEC2EOS4_' type='func-type' binding='weak-binding' visibility='default-visibility' is-defined='yes'/>
    <elf-symbol name='_ZNSt11_Tuple_implILm0EJPN5mongo16OperationContextENS0_6StatusEEEC2ERKS4_' type='func-type' binding='weak-binding' visibility='default-visibility' is-defined='yes'/>
    <elf-symbol name='_ZNSt11_Tuple_implILm0EJPN5mongo16OperationContextENS0_6StatusEEEC2IRS2_JRKS3_EvEEOT_DpOT0_' type='func-type' binding='weak-binding' visibility='default-visibility' is-defined='yes'/>
    <elf-symbol name='_ZNSt11_Tuple_implILm0EJPN5mongo16OperationContextENS0_6StatusEEED2Ev' type='func-type' binding='weak-binding' visibility='default-visibility' is-defined='yes'/>
    <elf-symbol name='_ZNSt11_Tuple_implILm0EJPN5mongo4repl16StorageInterfaceEEE7_M_headERS4_' type='func-type' binding='weak-binding' visibility='default-visibility' is-defined='yes'/>
    <elf-symbol name='_ZNSt11_Tuple_implILm0EJPN5mongo4repl16StorageInterfaceEEE7_M_tailERS4_' type='func-type' binding='weak-binding' visibility='default-visibility' is-defined='yes'/>
    <elf-symbol name='_ZNSt11_Tuple_implILm0EJPN5mongo4repl16StorageInterfaceEEEC2EOS4_' type='func-type' binding='weak-binding' visibility='default-visibility' is-defined='yes'/>
    <elf-symbol name='_ZNSt11_Tuple_implILm0EJPN5mongo4repl16StorageInterfaceEEEC2IRS3_JEvEEOT_DpOT0_' type='func-type' binding='weak-binding' visibility='default-visibility' is-defined='yes'/>
    <elf-symbol name='_ZNSt11_Tuple_implILm0EJPN5mongo4repl16StorageInterfaceESt14default_deleteIS2_EEE7_M_headERS6_' type='func-type' binding='weak-binding' visibility='default-visibility' is-defined='yes'/>
    <elf-symbol name='_ZNSt11_Tuple_implILm0EJPN5mongo4repl16StorageInterfaceESt14default_deleteIS2_EEEC2IRS3_JS5_EvEEOT_DpOT0_' type='func-type' binding='weak-binding' visibility='default-visibility' is-defined='yes'/>
    <elf-symbol name='_ZNSt11_Tuple_implILm0EJPN5mongo4repl19ReplicationExecutorENS0_8executor20RemoteCommandRequestESt12_PlaceholderILi1EENS4_12TaskExecutor14CallbackHandleEmSt8functionIFvRKNS8_25RemoteCommandCallbackArgsEEEEE7_M_headERSG_' type='func-type' binding='weak-binding' visibility='default-visibility' is-defined='yes'/>
    <elf-symbol name='_ZNSt11_Tuple_implILm0EJPN5mongo4repl19ReplicationExecutorENS0_8executor20RemoteCommandRequestESt12_PlaceholderILi1EENS4_12TaskExecutor14CallbackHandleEmSt8functionIFvRKNS8_25RemoteCommandCallbackArgsEEEEE7_M_tailERSG_' type='func-type' binding='weak-binding' visibility='default-visibility' is-defined='yes'/>
    <elf-symbol name='_ZNSt11_Tuple_implILm0EJPN5mongo4repl19ReplicationExecutorENS0_8executor20RemoteCommandRequestESt12_PlaceholderILi1EENS4_12TaskExecutor14CallbackHandleEmSt8functionIFvRKNS8_25RemoteCommandCallbackArgsEEEEEC2EOSG_' type='func-type' binding='weak-binding' visibility='default-visibility' is-defined='yes'/>
    <elf-symbol name='_ZNSt11_Tuple_implILm0EJPN5mongo4repl19ReplicationExecutorENS0_8executor20RemoteCommandRequestESt12_PlaceholderILi1EENS4_12TaskExecutor14CallbackHandleEmSt8functionIFvRKNS8_25RemoteCommandCallbackArgsEEEEEC2ERKSG_' type='func-type' binding='weak-binding' visibility='default-visibility' is-defined='yes'/>
    <elf-symbol name='_ZNSt11_Tuple_implILm0EJPN5mongo4repl19ReplicationExecutorENS0_8executor20RemoteCommandRequestESt12_PlaceholderILi1EENS4_12TaskExecutor14CallbackHandleEmSt8functionIFvRKNS8_25RemoteCommandCallbackArgsEEEEEC2IS3_JRS5_RKS7_RS9_RmRKSF_EvEEOT_DpOT0_' type='func-type' binding='weak-binding' visibility='default-visibility' is-defined='yes'/>
    <elf-symbol name='_ZNSt11_Tuple_implILm0EJPN5mongo4repl19ReplicationExecutorENS0_8executor20RemoteCommandRequestESt12_PlaceholderILi1EENS4_12TaskExecutor14CallbackHandleEmSt8functionIFvRKNS8_25RemoteCommandCallbackArgsEEEEED2Ev' type='func-type' binding='weak-binding' visibility='default-visibility' is-defined='yes'/>
    <elf-symbol name='_ZNSt11_Tuple_implILm0EJPN5mongo4repl19ReplicationExecutorESt12_PlaceholderILi1EEEE7_M_headERS6_' type='func-type' binding='weak-binding' visibility='default-visibility' is-defined='yes'/>
    <elf-symbol name='_ZNSt11_Tuple_implILm0EJPN5mongo4repl19ReplicationExecutorESt12_PlaceholderILi1EEEE7_M_tailERS6_' type='func-type' binding='weak-binding' visibility='default-visibility' is-defined='yes'/>
    <elf-symbol name='_ZNSt11_Tuple_implILm0EJPN5mongo4repl19ReplicationExecutorESt12_PlaceholderILi1EEEEC2EOS6_' type='func-type' binding='weak-binding' visibility='default-visibility' is-defined='yes'/>
    <elf-symbol name='_ZNSt11_Tuple_implILm0EJPN5mongo4repl19ReplicationExecutorESt12_PlaceholderILi1EEEEC2IRS3_JRKS5_EvEEOT_DpOT0_' type='func-type' binding='weak-binding' visibility='default-visibility' is-defined='yes'/>
    <elf-symbol name='_ZNSt11_Tuple_implILm0EJPN5mongo4repl19ReplicationExecutorESt12_PlaceholderILi1EES4_ILi2EENS0_8executor12TaskExecutor14CallbackHandleEPSt4listINS2_8WorkItemESaISB_EEDnEE7_M_headERSF_' type='func-type' binding='weak-binding' visibility='default-visibility' is-defined='yes'/>
    <elf-symbol name='_ZNSt11_Tuple_implILm0EJPN5mongo4repl19ReplicationExecutorESt12_PlaceholderILi1EES4_ILi2EENS0_8executor12TaskExecutor14CallbackHandleEPSt4listINS2_8WorkItemESaISB_EEDnEE7_M_tailERSF_' type='func-type' binding='weak-binding' visibility='default-visibility' is-defined='yes'/>
    <elf-symbol name='_ZNSt11_Tuple_implILm0EJPN5mongo4repl19ReplicationExecutorESt12_PlaceholderILi1EES4_ILi2EENS0_8executor12TaskExecutor14CallbackHandleEPSt4listINS2_8WorkItemESaISB_EEDnEEC2EOSF_' type='func-type' binding='weak-binding' visibility='default-visibility' is-defined='yes'/>
    <elf-symbol name='_ZNSt11_Tuple_implILm0EJPN5mongo4repl19ReplicationExecutorESt12_PlaceholderILi1EES4_ILi2EENS0_8executor12TaskExecutor14CallbackHandleEPSt4listINS2_8WorkItemESaISB_EEDnEEC2ERKSF_' type='func-type' binding='weak-binding' visibility='default-visibility' is-defined='yes'/>
    <elf-symbol name='_ZNSt11_Tuple_implILm0EJPN5mongo4repl19ReplicationExecutorESt12_PlaceholderILi1EES4_ILi2EENS0_8executor12TaskExecutor14CallbackHandleEPSt4listINS2_8WorkItemESaISB_EEDnEEC2IS3_JRKS5_RKS6_RS9_SE_DnEvEEOT_DpOT0_' type='func-type' binding='weak-binding' visibility='default-visibility' is-defined='yes'/>
    <elf-symbol name='_ZNSt11_Tuple_implILm0EJPN5mongo4repl19ReplicationExecutorESt12_PlaceholderILi1EES4_ILi2EENS0_8executor12TaskExecutor14CallbackHandleEPSt4listINS2_8WorkItemESaISB_EEDnEED2Ev' type='func-type' binding='weak-binding' visibility='default-visibility' is-defined='yes'/>
    <elf-symbol name='_ZNSt11_Tuple_implILm0EJPN5mongo4repl19ReplicationExecutorESt12_PlaceholderILi1EES4_ILi2EENS0_8executor12TaskExecutor14CallbackHandleEPSt4listINS2_8WorkItemESaISB_EEPSt5mutexEE7_M_headERSH_' type='func-type' binding='weak-binding' visibility='default-visibility' is-defined='yes'/>
    <elf-symbol name='_ZNSt11_Tuple_implILm0EJPN5mongo4repl19ReplicationExecutorESt12_PlaceholderILi1EES4_ILi2EENS0_8executor12TaskExecutor14CallbackHandleEPSt4listINS2_8WorkItemESaISB_EEPSt5mutexEE7_M_tailERSH_' type='func-type' binding='weak-binding' visibility='default-visibility' is-defined='yes'/>
    <elf-symbol name='_ZNSt11_Tuple_implILm0EJPN5mongo4repl19ReplicationExecutorESt12_PlaceholderILi1EES4_ILi2EENS0_8executor12TaskExecutor14CallbackHandleEPSt4listINS2_8WorkItemESaISB_EEPSt5mutexEEC2EOSH_' type='func-type' binding='weak-binding' visibility='default-visibility' is-defined='yes'/>
    <elf-symbol name='_ZNSt11_Tuple_implILm0EJPN5mongo4repl19ReplicationExecutorESt12_PlaceholderILi1EES4_ILi2EENS0_8executor12TaskExecutor14CallbackHandleEPSt4listINS2_8WorkItemESaISB_EEPSt5mutexEEC2ERKSH_' type='func-type' binding='weak-binding' visibility='default-visibility' is-defined='yes'/>
    <elf-symbol name='_ZNSt11_Tuple_implILm0EJPN5mongo4repl19ReplicationExecutorESt12_PlaceholderILi1EES4_ILi2EENS0_8executor12TaskExecutor14CallbackHandleEPSt4listINS2_8WorkItemESaISB_EEPSt5mutexEEC2IS3_JRKS5_RKS6_RS9_SE_SG_EvEEOT_DpOT0_' type='func-type' binding='weak-binding' visibility='default-visibility' is-defined='yes'/>
    <elf-symbol name='_ZNSt11_Tuple_implILm0EJPN5mongo4repl19ReplicationExecutorESt12_PlaceholderILi1EES4_ILi2EENS0_8executor12TaskExecutor14CallbackHandleEPSt4listINS2_8WorkItemESaISB_EEPSt5mutexEED2Ev' type='func-type' binding='weak-binding' visibility='default-visibility' is-defined='yes'/>
    <elf-symbol name='_ZNSt11_Tuple_implILm0EJPN5mongo8executor16NetworkInterfaceESt14default_deleteIS2_EEE7_M_headERKS6_' type='func-type' binding='weak-binding' visibility='default-visibility' is-defined='yes'/>
    <elf-symbol name='_ZNSt11_Tuple_implILm0EJPN5mongo8executor16NetworkInterfaceESt14default_deleteIS2_EEE7_M_headERS6_' type='func-type' binding='weak-binding' visibility='default-visibility' is-defined='yes'/>
    <elf-symbol name='_ZNSt11_Tuple_implILm0EJPN5mongo8executor16NetworkInterfaceESt14default_deleteIS2_EEEC2IRS3_JS5_EvEEOT_DpOT0_' type='func-type' binding='weak-binding' visibility='default-visibility' is-defined='yes'/>
    <elf-symbol name='_ZNSt11_Tuple_implILm0EJPSt10lock_guardISt5mutexESt14default_deleteIS2_EEE7_M_headERS6_' type='func-type' binding='weak-binding' visibility='default-visibility' is-defined='yes'/>
    <elf-symbol name='_ZNSt11_Tuple_implILm0EJPSt10lock_guardISt5mutexESt14default_deleteIS2_EEEC2IRS3_JS5_EvEEOT_DpOT0_' type='func-type' binding='weak-binding' visibility='default-visibility' is-defined='yes'/>
    <elf-symbol name='_ZNSt11_Tuple_implILm0EJPSt19basic_ostringstreamIcSt11char_traitsIcESaIcEESt14default_deleteIS4_EEE7_M_headERKS8_' type='func-type' binding='weak-binding' visibility='default-visibility' is-defined='yes'/>
    <elf-symbol name='_ZNSt11_Tuple_implILm0EJRKN5mongo10StatusWithINS0_8executor21RemoteCommandResponseEEEEE7_M_headERS7_' type='func-type' binding='weak-binding' visibility='default-visibility' is-defined='yes'/>
    <elf-symbol name='_ZNSt11_Tuple_implILm0EJRKN5mongo10StatusWithINS0_8executor21RemoteCommandResponseEEEEEC2ES6_' type='func-type' binding='weak-binding' visibility='default-visibility' is-defined='yes'/>
    <elf-symbol name='_ZNSt11_Tuple_implILm0EJRKN5mongo8executor12TaskExecutor12CallbackArgsEEE7_M_headERS6_' type='func-type' binding='weak-binding' visibility='default-visibility' is-defined='yes'/>
    <elf-symbol name='_ZNSt11_Tuple_implILm0EJRKN5mongo8executor12TaskExecutor12CallbackArgsEEEC2ES5_' type='func-type' binding='weak-binding' visibility='default-visibility' is-defined='yes'/>
    <elf-symbol name='_ZNSt11_Tuple_implILm0EJRKN5mongo8executor12TaskExecutor25RemoteCommandCallbackArgsEEE7_M_headERS6_' type='func-type' binding='weak-binding' visibility='default-visibility' is-defined='yes'/>
    <elf-symbol name='_ZNSt11_Tuple_implILm0EJRKN5mongo8executor12TaskExecutor25RemoteCommandCallbackArgsEEEC2ES5_' type='func-type' binding='weak-binding' visibility='default-visibility' is-defined='yes'/>
    <elf-symbol name='_ZNSt11_Tuple_implILm0EJRN5mongo8executor12TaskExecutor14CallbackHandleEEE7_M_headERS5_' type='func-type' binding='weak-binding' visibility='default-visibility' is-defined='yes'/>
    <elf-symbol name='_ZNSt11_Tuple_implILm0EJRN5mongo8executor12TaskExecutor14CallbackHandleEEEC2ES4_' type='func-type' binding='weak-binding' visibility='default-visibility' is-defined='yes'/>
    <elf-symbol name='_ZNSt11_Tuple_implILm0EJRPN5mongo16OperationContextERNS0_6StatusEEE7_M_headERS6_' type='func-type' binding='weak-binding' visibility='default-visibility' is-defined='yes'/>
    <elf-symbol name='_ZNSt11_Tuple_implILm0EJRPN5mongo16OperationContextERNS0_6StatusEEEC2ES3_S5_' type='func-type' binding='weak-binding' visibility='default-visibility' is-defined='yes'/>
    <elf-symbol name='_ZNSt11_Tuple_implILm0EJSt12_PlaceholderILi1EEPN5mongo4repl19ScatterGatherRunnerEEE7_M_headERS6_' type='func-type' binding='weak-binding' visibility='default-visibility' is-defined='yes'/>
    <elf-symbol name='_ZNSt11_Tuple_implILm0EJSt12_PlaceholderILi1EEPN5mongo4repl19ScatterGatherRunnerEEE7_M_tailERS6_' type='func-type' binding='weak-binding' visibility='default-visibility' is-defined='yes'/>
    <elf-symbol name='_ZNSt11_Tuple_implILm0EJSt12_PlaceholderILi1EEPN5mongo4repl19ScatterGatherRunnerEEEC2EOS6_' type='func-type' binding='weak-binding' visibility='default-visibility' is-defined='yes'/>
    <elf-symbol name='_ZNSt11_Tuple_implILm0EJSt12_PlaceholderILi1EEPN5mongo4repl19ScatterGatherRunnerEEEC2IRKS1_JS5_EvEEOT_DpOT0_' type='func-type' binding='weak-binding' visibility='default-visibility' is-defined='yes'/>
    <elf-symbol name='_ZNSt11_Tuple_implILm0EJSt12_PlaceholderILi1EEPN5mongo4repl19ScatterGatherRunnerEPNS2_10StatusWithINS2_8executor12TaskExecutor11EventHandleEEEEE7_M_headERSC_' type='func-type' binding='weak-binding' visibility='default-visibility' is-defined='yes'/>
    <elf-symbol name='_ZNSt11_Tuple_implILm0EJSt12_PlaceholderILi1EEPN5mongo4repl19ScatterGatherRunnerEPNS2_10StatusWithINS2_8executor12TaskExecutor11EventHandleEEEEE7_M_tailERSC_' type='func-type' binding='weak-binding' visibility='default-visibility' is-defined='yes'/>
    <elf-symbol name='_ZNSt11_Tuple_implILm0EJSt12_PlaceholderILi1EEPN5mongo4repl19ScatterGatherRunnerEPNS2_10StatusWithINS2_8executor12TaskExecutor11EventHandleEEEEEC2EOSC_' type='func-type' binding='weak-binding' visibility='default-visibility' is-defined='yes'/>
    <elf-symbol name='_ZNSt11_Tuple_implILm0EJSt12_PlaceholderILi1EEPN5mongo4repl19ScatterGatherRunnerEPNS2_10StatusWithINS2_8executor12TaskExecutor11EventHandleEEEEEC2IRKS1_JS5_SB_EvEEOT_DpOT0_' type='func-type' binding='weak-binding' visibility='default-visibility' is-defined='yes'/>
    <elf-symbol name='_ZNSt11_Tuple_implILm0EJSt12_PlaceholderILi1EESt8functionIFvRKN5mongo8executor12TaskExecutor25RemoteCommandCallbackArgsEEENS4_20RemoteCommandRequestEEE7_M_headERSC_' type='func-type' binding='weak-binding' visibility='default-visibility' is-defined='yes'/>
    <elf-symbol name='_ZNSt11_Tuple_implILm0EJSt12_PlaceholderILi1EESt8functionIFvRKN5mongo8executor12TaskExecutor25RemoteCommandCallbackArgsEEENS4_20RemoteCommandRequestEEE7_M_tailERSC_' type='func-type' binding='weak-binding' visibility='default-visibility' is-defined='yes'/>
    <elf-symbol name='_ZNSt11_Tuple_implILm0EJSt12_PlaceholderILi1EESt8functionIFvRKN5mongo8executor12TaskExecutor25RemoteCommandCallbackArgsEEENS4_20RemoteCommandRequestEEEC2EOSC_' type='func-type' binding='weak-binding' visibility='default-visibility' is-defined='yes'/>
    <elf-symbol name='_ZNSt11_Tuple_implILm0EJSt12_PlaceholderILi1EESt8functionIFvRKN5mongo8executor12TaskExecutor25RemoteCommandCallbackArgsEEENS4_20RemoteCommandRequestEEEC2ERKSC_' type='func-type' binding='weak-binding' visibility='default-visibility' is-defined='yes'/>
    <elf-symbol name='_ZNSt11_Tuple_implILm0EJSt12_PlaceholderILi1EESt8functionIFvRKN5mongo8executor12TaskExecutor25RemoteCommandCallbackArgsEEENS4_20RemoteCommandRequestEEEC2IRKS1_JRKSA_RSB_EvEEOT_DpOT0_' type='func-type' binding='weak-binding' visibility='default-visibility' is-defined='yes'/>
    <elf-symbol name='_ZNSt11_Tuple_implILm0EJSt12_PlaceholderILi1EESt8functionIFvRKN5mongo8executor12TaskExecutor25RemoteCommandCallbackArgsEEENS4_20RemoteCommandRequestEEED2Ev' type='func-type' binding='weak-binding' visibility='default-visibility' is-defined='yes'/>
    <elf-symbol name='_ZNSt11_Tuple_implILm0EJSt12_PlaceholderILi1EESt8functionIFvRKN5mongo8executor12TaskExecutor25RemoteCommandCallbackArgsEEENS4_20RemoteCommandRequestENS3_10StatusWithINS4_21RemoteCommandResponseEEEEE7_M_headERSF_' type='func-type' binding='weak-binding' visibility='default-visibility' is-defined='yes'/>
    <elf-symbol name='_ZNSt11_Tuple_implILm0EJSt12_PlaceholderILi1EESt8functionIFvRKN5mongo8executor12TaskExecutor25RemoteCommandCallbackArgsEEENS4_20RemoteCommandRequestENS3_10StatusWithINS4_21RemoteCommandResponseEEEEE7_M_tailERSF_' type='func-type' binding='weak-binding' visibility='default-visibility' is-defined='yes'/>
    <elf-symbol name='_ZNSt11_Tuple_implILm0EJSt12_PlaceholderILi1EESt8functionIFvRKN5mongo8executor12TaskExecutor25RemoteCommandCallbackArgsEEENS4_20RemoteCommandRequestENS3_10StatusWithINS4_21RemoteCommandResponseEEEEEC2EOSF_' type='func-type' binding='weak-binding' visibility='default-visibility' is-defined='yes'/>
    <elf-symbol name='_ZNSt11_Tuple_implILm0EJSt12_PlaceholderILi1EESt8functionIFvRKN5mongo8executor12TaskExecutor25RemoteCommandCallbackArgsEEENS4_20RemoteCommandRequestENS3_10StatusWithINS4_21RemoteCommandResponseEEEEEC2ERKS1_RKSA_RKSB_RKSE_' type='func-type' binding='weak-binding' visibility='default-visibility' is-defined='yes'/>
    <elf-symbol name='_ZNSt11_Tuple_implILm0EJSt12_PlaceholderILi1EESt8functionIFvRKN5mongo8executor12TaskExecutor25RemoteCommandCallbackArgsEEENS4_20RemoteCommandRequestENS3_10StatusWithINS4_21RemoteCommandResponseEEEEEC2ERKSF_' type='func-type' binding='weak-binding' visibility='default-visibility' is-defined='yes'/>
    <elf-symbol name='_ZNSt11_Tuple_implILm0EJSt12_PlaceholderILi1EESt8functionIFvRKN5mongo8executor12TaskExecutor25RemoteCommandCallbackArgsEEENS4_20RemoteCommandRequestENS3_10StatusWithINS4_21RemoteCommandResponseEEEEED2Ev' type='func-type' binding='weak-binding' visibility='default-visibility' is-defined='yes'/>
    <elf-symbol name='_ZNSt11_Tuple_implILm0EJSt8functionIFvvEEEE7_M_headERS3_' type='func-type' binding='weak-binding' visibility='default-visibility' is-defined='yes'/>
    <elf-symbol name='_ZNSt11_Tuple_implILm0EJSt8functionIFvvEEEE7_M_tailERS3_' type='func-type' binding='weak-binding' visibility='default-visibility' is-defined='yes'/>
    <elf-symbol name='_ZNSt11_Tuple_implILm0EJSt8functionIFvvEEEEC2EOS3_' type='func-type' binding='weak-binding' visibility='default-visibility' is-defined='yes'/>
    <elf-symbol name='_ZNSt11_Tuple_implILm0EJSt8functionIFvvEEEEC2ERKS2_' type='func-type' binding='weak-binding' visibility='default-visibility' is-defined='yes'/>
    <elf-symbol name='_ZNSt11_Tuple_implILm0EJSt8functionIFvvEEEEC2ERKS3_' type='func-type' binding='weak-binding' visibility='default-visibility' is-defined='yes'/>
    <elf-symbol name='_ZNSt11_Tuple_implILm0EJSt8functionIFvvEEEED2Ev' type='func-type' binding='weak-binding' visibility='default-visibility' is-defined='yes'/>
    <elf-symbol name='_ZNSt11_Tuple_implILm1EJN5mongo6StatusEEE7_M_headERS2_' type='func-type' binding='weak-binding' visibility='default-visibility' is-defined='yes'/>
    <elf-symbol name='_ZNSt11_Tuple_implILm1EJN5mongo6StatusEEE7_M_tailERS2_' type='func-type' binding='weak-binding' visibility='default-visibility' is-defined='yes'/>
    <elf-symbol name='_ZNSt11_Tuple_implILm1EJN5mongo6StatusEEEC2EOS2_' type='func-type' binding='weak-binding' visibility='default-visibility' is-defined='yes'/>
    <elf-symbol name='_ZNSt11_Tuple_implILm1EJN5mongo6StatusEEEC2ERKS1_' type='func-type' binding='weak-binding' visibility='default-visibility' is-defined='yes'/>
    <elf-symbol name='_ZNSt11_Tuple_implILm1EJN5mongo6StatusEEEC2ERKS2_' type='func-type' binding='weak-binding' visibility='default-visibility' is-defined='yes'/>
    <elf-symbol name='_ZNSt11_Tuple_implILm1EJN5mongo6StatusEEED2Ev' type='func-type' binding='weak-binding' visibility='default-visibility' is-defined='yes'/>
    <elf-symbol name='_ZNSt11_Tuple_implILm1EJN5mongo8executor20RemoteCommandRequestESt12_PlaceholderILi1EENS1_12TaskExecutor14CallbackHandleEmSt8functionIFvRKNS5_25RemoteCommandCallbackArgsEEEEE7_M_headERSD_' type='func-type' binding='weak-binding' visibility='default-visibility' is-defined='yes'/>
    <elf-symbol name='_ZNSt11_Tuple_implILm1EJN5mongo8executor20RemoteCommandRequestESt12_PlaceholderILi1EENS1_12TaskExecutor14CallbackHandleEmSt8functionIFvRKNS5_25RemoteCommandCallbackArgsEEEEE7_M_tailERSD_' type='func-type' binding='weak-binding' visibility='default-visibility' is-defined='yes'/>
    <elf-symbol name='_ZNSt11_Tuple_implILm1EJN5mongo8executor20RemoteCommandRequestESt12_PlaceholderILi1EENS1_12TaskExecutor14CallbackHandleEmSt8functionIFvRKNS5_25RemoteCommandCallbackArgsEEEEEC2EOSD_' type='func-type' binding='weak-binding' visibility='default-visibility' is-defined='yes'/>
    <elf-symbol name='_ZNSt11_Tuple_implILm1EJN5mongo8executor20RemoteCommandRequestESt12_PlaceholderILi1EENS1_12TaskExecutor14CallbackHandleEmSt8functionIFvRKNS5_25RemoteCommandCallbackArgsEEEEEC2ERKSD_' type='func-type' binding='weak-binding' visibility='default-visibility' is-defined='yes'/>
    <elf-symbol name='_ZNSt11_Tuple_implILm1EJN5mongo8executor20RemoteCommandRequestESt12_PlaceholderILi1EENS1_12TaskExecutor14CallbackHandleEmSt8functionIFvRKNS5_25RemoteCommandCallbackArgsEEEEEC2IRS2_JRKS4_RS6_RmRKSC_EvEEOT_DpOT0_' type='func-type' binding='weak-binding' visibility='default-visibility' is-defined='yes'/>
    <elf-symbol name='_ZNSt11_Tuple_implILm1EJN5mongo8executor20RemoteCommandRequestESt12_PlaceholderILi1EENS1_12TaskExecutor14CallbackHandleEmSt8functionIFvRKNS5_25RemoteCommandCallbackArgsEEEEED2Ev' type='func-type' binding='weak-binding' visibility='default-visibility' is-defined='yes'/>
    <elf-symbol name='_ZNSt11_Tuple_implILm1EJPN5mongo4repl19ScatterGatherRunnerEEE7_M_headERS4_' type='func-type' binding='weak-binding' visibility='default-visibility' is-defined='yes'/>
    <elf-symbol name='_ZNSt11_Tuple_implILm1EJPN5mongo4repl19ScatterGatherRunnerEEE7_M_tailERS4_' type='func-type' binding='weak-binding' visibility='default-visibility' is-defined='yes'/>
    <elf-symbol name='_ZNSt11_Tuple_implILm1EJPN5mongo4repl19ScatterGatherRunnerEEEC2EOS4_' type='func-type' binding='weak-binding' visibility='default-visibility' is-defined='yes'/>
    <elf-symbol name='_ZNSt11_Tuple_implILm1EJPN5mongo4repl19ScatterGatherRunnerEEEC2IS3_JEvEEOT_DpOT0_' type='func-type' binding='weak-binding' visibility='default-visibility' is-defined='yes'/>
    <elf-symbol name='_ZNSt11_Tuple_implILm1EJPN5mongo4repl19ScatterGatherRunnerEPNS0_10StatusWithINS0_8executor12TaskExecutor11EventHandleEEEEE7_M_headERSA_' type='func-type' binding='weak-binding' visibility='default-visibility' is-defined='yes'/>
    <elf-symbol name='_ZNSt11_Tuple_implILm1EJPN5mongo4repl19ScatterGatherRunnerEPNS0_10StatusWithINS0_8executor12TaskExecutor11EventHandleEEEEE7_M_tailERSA_' type='func-type' binding='weak-binding' visibility='default-visibility' is-defined='yes'/>
    <elf-symbol name='_ZNSt11_Tuple_implILm1EJPN5mongo4repl19ScatterGatherRunnerEPNS0_10StatusWithINS0_8executor12TaskExecutor11EventHandleEEEEEC2EOSA_' type='func-type' binding='weak-binding' visibility='default-visibility' is-defined='yes'/>
    <elf-symbol name='_ZNSt11_Tuple_implILm1EJPN5mongo4repl19ScatterGatherRunnerEPNS0_10StatusWithINS0_8executor12TaskExecutor11EventHandleEEEEEC2IS3_JS9_EvEEOT_DpOT0_' type='func-type' binding='weak-binding' visibility='default-visibility' is-defined='yes'/>
    <elf-symbol name='_ZNSt11_Tuple_implILm1EJRN5mongo6StatusEEE7_M_headERS3_' type='func-type' binding='weak-binding' visibility='default-visibility' is-defined='yes'/>
    <elf-symbol name='_ZNSt11_Tuple_implILm1EJRN5mongo6StatusEEEC2ES2_' type='func-type' binding='weak-binding' visibility='default-visibility' is-defined='yes'/>
    <elf-symbol name='_ZNSt11_Tuple_implILm1EJSt12_PlaceholderILi1EEEE7_M_headERS2_' type='func-type' binding='weak-binding' visibility='default-visibility' is-defined='yes'/>
    <elf-symbol name='_ZNSt11_Tuple_implILm1EJSt12_PlaceholderILi1EEEE7_M_tailERS2_' type='func-type' binding='weak-binding' visibility='default-visibility' is-defined='yes'/>
    <elf-symbol name='_ZNSt11_Tuple_implILm1EJSt12_PlaceholderILi1EEEEC2EOS2_' type='func-type' binding='weak-binding' visibility='default-visibility' is-defined='yes'/>
    <elf-symbol name='_ZNSt11_Tuple_implILm1EJSt12_PlaceholderILi1EEEEC2ERKS1_' type='func-type' binding='weak-binding' visibility='default-visibility' is-defined='yes'/>
    <elf-symbol name='_ZNSt11_Tuple_implILm1EJSt12_PlaceholderILi1EES0_ILi2EEN5mongo8executor12TaskExecutor14CallbackHandleEPSt4listINS3_4repl19ReplicationExecutor8WorkItemESaISA_EEDnEE7_M_headERSE_' type='func-type' binding='weak-binding' visibility='default-visibility' is-defined='yes'/>
    <elf-symbol name='_ZNSt11_Tuple_implILm1EJSt12_PlaceholderILi1EES0_ILi2EEN5mongo8executor12TaskExecutor14CallbackHandleEPSt4listINS3_4repl19ReplicationExecutor8WorkItemESaISA_EEDnEE7_M_tailERSE_' type='func-type' binding='weak-binding' visibility='default-visibility' is-defined='yes'/>
    <elf-symbol name='_ZNSt11_Tuple_implILm1EJSt12_PlaceholderILi1EES0_ILi2EEN5mongo8executor12TaskExecutor14CallbackHandleEPSt4listINS3_4repl19ReplicationExecutor8WorkItemESaISA_EEDnEEC2EOSE_' type='func-type' binding='weak-binding' visibility='default-visibility' is-defined='yes'/>
    <elf-symbol name='_ZNSt11_Tuple_implILm1EJSt12_PlaceholderILi1EES0_ILi2EEN5mongo8executor12TaskExecutor14CallbackHandleEPSt4listINS3_4repl19ReplicationExecutor8WorkItemESaISA_EEDnEEC2ERKSE_' type='func-type' binding='weak-binding' visibility='default-visibility' is-defined='yes'/>
    <elf-symbol name='_ZNSt11_Tuple_implILm1EJSt12_PlaceholderILi1EES0_ILi2EEN5mongo8executor12TaskExecutor14CallbackHandleEPSt4listINS3_4repl19ReplicationExecutor8WorkItemESaISA_EEDnEEC2IRKS1_JRKS2_RS6_SD_DnEvEEOT_DpOT0_' type='func-type' binding='weak-binding' visibility='default-visibility' is-defined='yes'/>
    <elf-symbol name='_ZNSt11_Tuple_implILm1EJSt12_PlaceholderILi1EES0_ILi2EEN5mongo8executor12TaskExecutor14CallbackHandleEPSt4listINS3_4repl19ReplicationExecutor8WorkItemESaISA_EEDnEED2Ev' type='func-type' binding='weak-binding' visibility='default-visibility' is-defined='yes'/>
    <elf-symbol name='_ZNSt11_Tuple_implILm1EJSt12_PlaceholderILi1EES0_ILi2EEN5mongo8executor12TaskExecutor14CallbackHandleEPSt4listINS3_4repl19ReplicationExecutor8WorkItemESaISA_EEPSt5mutexEE7_M_headERSG_' type='func-type' binding='weak-binding' visibility='default-visibility' is-defined='yes'/>
    <elf-symbol name='_ZNSt11_Tuple_implILm1EJSt12_PlaceholderILi1EES0_ILi2EEN5mongo8executor12TaskExecutor14CallbackHandleEPSt4listINS3_4repl19ReplicationExecutor8WorkItemESaISA_EEPSt5mutexEE7_M_tailERSG_' type='func-type' binding='weak-binding' visibility='default-visibility' is-defined='yes'/>
    <elf-symbol name='_ZNSt11_Tuple_implILm1EJSt12_PlaceholderILi1EES0_ILi2EEN5mongo8executor12TaskExecutor14CallbackHandleEPSt4listINS3_4repl19ReplicationExecutor8WorkItemESaISA_EEPSt5mutexEEC2EOSG_' type='func-type' binding='weak-binding' visibility='default-visibility' is-defined='yes'/>
    <elf-symbol name='_ZNSt11_Tuple_implILm1EJSt12_PlaceholderILi1EES0_ILi2EEN5mongo8executor12TaskExecutor14CallbackHandleEPSt4listINS3_4repl19ReplicationExecutor8WorkItemESaISA_EEPSt5mutexEEC2ERKSG_' type='func-type' binding='weak-binding' visibility='default-visibility' is-defined='yes'/>
    <elf-symbol name='_ZNSt11_Tuple_implILm1EJSt12_PlaceholderILi1EES0_ILi2EEN5mongo8executor12TaskExecutor14CallbackHandleEPSt4listINS3_4repl19ReplicationExecutor8WorkItemESaISA_EEPSt5mutexEEC2IRKS1_JRKS2_RS6_SD_SF_EvEEOT_DpOT0_' type='func-type' binding='weak-binding' visibility='default-visibility' is-defined='yes'/>
    <elf-symbol name='_ZNSt11_Tuple_implILm1EJSt12_PlaceholderILi1EES0_ILi2EEN5mongo8executor12TaskExecutor14CallbackHandleEPSt4listINS3_4repl19ReplicationExecutor8WorkItemESaISA_EEPSt5mutexEED2Ev' type='func-type' binding='weak-binding' visibility='default-visibility' is-defined='yes'/>
    <elf-symbol name='_ZNSt11_Tuple_implILm1EJSt14default_deleteIN5mongo4repl16StorageInterfaceEEEE7_M_headERS5_' type='func-type' binding='weak-binding' visibility='default-visibility' is-defined='yes'/>
    <elf-symbol name='_ZNSt11_Tuple_implILm1EJSt14default_deleteIN5mongo4repl16StorageInterfaceEEEEC2IS4_JEvEEOT_DpOT0_' type='func-type' binding='weak-binding' visibility='default-visibility' is-defined='yes'/>
    <elf-symbol name='_ZNSt11_Tuple_implILm1EJSt14default_deleteIN5mongo8executor16NetworkInterfaceEEEE7_M_headERS5_' type='func-type' binding='weak-binding' visibility='default-visibility' is-defined='yes'/>
    <elf-symbol name='_ZNSt11_Tuple_implILm1EJSt14default_deleteIN5mongo8executor16NetworkInterfaceEEEEC2IS4_JEvEEOT_DpOT0_' type='func-type' binding='weak-binding' visibility='default-visibility' is-defined='yes'/>
    <elf-symbol name='_ZNSt11_Tuple_implILm1EJSt14default_deleteISt10lock_guardISt5mutexEEEE7_M_headERS5_' type='func-type' binding='weak-binding' visibility='default-visibility' is-defined='yes'/>
    <elf-symbol name='_ZNSt11_Tuple_implILm1EJSt14default_deleteISt10lock_guardISt5mutexEEEEC2IS4_JEvEEOT_DpOT0_' type='func-type' binding='weak-binding' visibility='default-visibility' is-defined='yes'/>
    <elf-symbol name='_ZNSt11_Tuple_implILm1EJSt8functionIFvRKN5mongo8executor12TaskExecutor25RemoteCommandCallbackArgsEEENS2_20RemoteCommandRequestEEE7_M_headERSA_' type='func-type' binding='weak-binding' visibility='default-visibility' is-defined='yes'/>
    <elf-symbol name='_ZNSt11_Tuple_implILm1EJSt8functionIFvRKN5mongo8executor12TaskExecutor25RemoteCommandCallbackArgsEEENS2_20RemoteCommandRequestEEE7_M_tailERSA_' type='func-type' binding='weak-binding' visibility='default-visibility' is-defined='yes'/>
    <elf-symbol name='_ZNSt11_Tuple_implILm1EJSt8functionIFvRKN5mongo8executor12TaskExecutor25RemoteCommandCallbackArgsEEENS2_20RemoteCommandRequestEEEC2EOSA_' type='func-type' binding='weak-binding' visibility='default-visibility' is-defined='yes'/>
    <elf-symbol name='_ZNSt11_Tuple_implILm1EJSt8functionIFvRKN5mongo8executor12TaskExecutor25RemoteCommandCallbackArgsEEENS2_20RemoteCommandRequestEEEC2ERKSA_' type='func-type' binding='weak-binding' visibility='default-visibility' is-defined='yes'/>
    <elf-symbol name='_ZNSt11_Tuple_implILm1EJSt8functionIFvRKN5mongo8executor12TaskExecutor25RemoteCommandCallbackArgsEEENS2_20RemoteCommandRequestEEEC2IRKS8_JRS9_EvEEOT_DpOT0_' type='func-type' binding='weak-binding' visibility='default-visibility' is-defined='yes'/>
    <elf-symbol name='_ZNSt11_Tuple_implILm1EJSt8functionIFvRKN5mongo8executor12TaskExecutor25RemoteCommandCallbackArgsEEENS2_20RemoteCommandRequestEEED2Ev' type='func-type' binding='weak-binding' visibility='default-visibility' is-defined='yes'/>
    <elf-symbol name='_ZNSt11_Tuple_implILm1EJSt8functionIFvRKN5mongo8executor12TaskExecutor25RemoteCommandCallbackArgsEEENS2_20RemoteCommandRequestENS1_10StatusWithINS2_21RemoteCommandResponseEEEEE7_M_headERSD_' type='func-type' binding='weak-binding' visibility='default-visibility' is-defined='yes'/>
    <elf-symbol name='_ZNSt11_Tuple_implILm1EJSt8functionIFvRKN5mongo8executor12TaskExecutor25RemoteCommandCallbackArgsEEENS2_20RemoteCommandRequestENS1_10StatusWithINS2_21RemoteCommandResponseEEEEE7_M_tailERSD_' type='func-type' binding='weak-binding' visibility='default-visibility' is-defined='yes'/>
    <elf-symbol name='_ZNSt11_Tuple_implILm1EJSt8functionIFvRKN5mongo8executor12TaskExecutor25RemoteCommandCallbackArgsEEENS2_20RemoteCommandRequestENS1_10StatusWithINS2_21RemoteCommandResponseEEEEEC2EOSD_' type='func-type' binding='weak-binding' visibility='default-visibility' is-defined='yes'/>
    <elf-symbol name='_ZNSt11_Tuple_implILm1EJSt8functionIFvRKN5mongo8executor12TaskExecutor25RemoteCommandCallbackArgsEEENS2_20RemoteCommandRequestENS1_10StatusWithINS2_21RemoteCommandResponseEEEEEC2ERKS8_RKS9_RKSC_' type='func-type' binding='weak-binding' visibility='default-visibility' is-defined='yes'/>
    <elf-symbol name='_ZNSt11_Tuple_implILm1EJSt8functionIFvRKN5mongo8executor12TaskExecutor25RemoteCommandCallbackArgsEEENS2_20RemoteCommandRequestENS1_10StatusWithINS2_21RemoteCommandResponseEEEEEC2ERKSD_' type='func-type' binding='weak-binding' visibility='default-visibility' is-defined='yes'/>
    <elf-symbol name='_ZNSt11_Tuple_implILm1EJSt8functionIFvRKN5mongo8executor12TaskExecutor25RemoteCommandCallbackArgsEEENS2_20RemoteCommandRequestENS1_10StatusWithINS2_21RemoteCommandResponseEEEEED2Ev' type='func-type' binding='weak-binding' visibility='default-visibility' is-defined='yes'/>
    <elf-symbol name='_ZNSt11_Tuple_implILm2EJN5mongo8executor20RemoteCommandRequestEEE7_M_headERS3_' type='func-type' binding='weak-binding' visibility='default-visibility' is-defined='yes'/>
    <elf-symbol name='_ZNSt11_Tuple_implILm2EJN5mongo8executor20RemoteCommandRequestEEE7_M_tailERS3_' type='func-type' binding='weak-binding' visibility='default-visibility' is-defined='yes'/>
    <elf-symbol name='_ZNSt11_Tuple_implILm2EJN5mongo8executor20RemoteCommandRequestEEEC2EOS3_' type='func-type' binding='weak-binding' visibility='default-visibility' is-defined='yes'/>
    <elf-symbol name='_ZNSt11_Tuple_implILm2EJN5mongo8executor20RemoteCommandRequestEEEC2ERKS3_' type='func-type' binding='weak-binding' visibility='default-visibility' is-defined='yes'/>
    <elf-symbol name='_ZNSt11_Tuple_implILm2EJN5mongo8executor20RemoteCommandRequestEEEC2IRS2_JEvEEOT_DpOT0_' type='func-type' binding='weak-binding' visibility='default-visibility' is-defined='yes'/>
    <elf-symbol name='_ZNSt11_Tuple_implILm2EJN5mongo8executor20RemoteCommandRequestEEED2Ev' type='func-type' binding='weak-binding' visibility='default-visibility' is-defined='yes'/>
    <elf-symbol name='_ZNSt11_Tuple_implILm2EJN5mongo8executor20RemoteCommandRequestENS0_10StatusWithINS1_21RemoteCommandResponseEEEEE7_M_headERS6_' type='func-type' binding='weak-binding' visibility='default-visibility' is-defined='yes'/>
    <elf-symbol name='_ZNSt11_Tuple_implILm2EJN5mongo8executor20RemoteCommandRequestENS0_10StatusWithINS1_21RemoteCommandResponseEEEEE7_M_tailERS6_' type='func-type' binding='weak-binding' visibility='default-visibility' is-defined='yes'/>
    <elf-symbol name='_ZNSt11_Tuple_implILm2EJN5mongo8executor20RemoteCommandRequestENS0_10StatusWithINS1_21RemoteCommandResponseEEEEEC2EOS6_' type='func-type' binding='weak-binding' visibility='default-visibility' is-defined='yes'/>
    <elf-symbol name='_ZNSt11_Tuple_implILm2EJN5mongo8executor20RemoteCommandRequestENS0_10StatusWithINS1_21RemoteCommandResponseEEEEEC2ERKS2_RKS5_' type='func-type' binding='weak-binding' visibility='default-visibility' is-defined='yes'/>
    <elf-symbol name='_ZNSt11_Tuple_implILm2EJN5mongo8executor20RemoteCommandRequestENS0_10StatusWithINS1_21RemoteCommandResponseEEEEEC2ERKS6_' type='func-type' binding='weak-binding' visibility='default-visibility' is-defined='yes'/>
    <elf-symbol name='_ZNSt11_Tuple_implILm2EJN5mongo8executor20RemoteCommandRequestENS0_10StatusWithINS1_21RemoteCommandResponseEEEEED2Ev' type='func-type' binding='weak-binding' visibility='default-visibility' is-defined='yes'/>
    <elf-symbol name='_ZNSt11_Tuple_implILm2EJPN5mongo10StatusWithINS0_8executor12TaskExecutor11EventHandleEEEEE7_M_headERS7_' type='func-type' binding='weak-binding' visibility='default-visibility' is-defined='yes'/>
    <elf-symbol name='_ZNSt11_Tuple_implILm2EJPN5mongo10StatusWithINS0_8executor12TaskExecutor11EventHandleEEEEE7_M_tailERS7_' type='func-type' binding='weak-binding' visibility='default-visibility' is-defined='yes'/>
    <elf-symbol name='_ZNSt11_Tuple_implILm2EJPN5mongo10StatusWithINS0_8executor12TaskExecutor11EventHandleEEEEEC2EOS7_' type='func-type' binding='weak-binding' visibility='default-visibility' is-defined='yes'/>
    <elf-symbol name='_ZNSt11_Tuple_implILm2EJPN5mongo10StatusWithINS0_8executor12TaskExecutor11EventHandleEEEEEC2IS6_JEvEEOT_DpOT0_' type='func-type' binding='weak-binding' visibility='default-visibility' is-defined='yes'/>
    <elf-symbol name='_ZNSt11_Tuple_implILm2EJSt12_PlaceholderILi1EEN5mongo8executor12TaskExecutor14CallbackHandleEmSt8functionIFvRKNS4_25RemoteCommandCallbackArgsEEEEE7_M_headERSC_' type='func-type' binding='weak-binding' visibility='default-visibility' is-defined='yes'/>
    <elf-symbol name='_ZNSt11_Tuple_implILm2EJSt12_PlaceholderILi1EEN5mongo8executor12TaskExecutor14CallbackHandleEmSt8functionIFvRKNS4_25RemoteCommandCallbackArgsEEEEE7_M_tailERSC_' type='func-type' binding='weak-binding' visibility='default-visibility' is-defined='yes'/>
    <elf-symbol name='_ZNSt11_Tuple_implILm2EJSt12_PlaceholderILi1EEN5mongo8executor12TaskExecutor14CallbackHandleEmSt8functionIFvRKNS4_25RemoteCommandCallbackArgsEEEEEC2EOSC_' type='func-type' binding='weak-binding' visibility='default-visibility' is-defined='yes'/>
    <elf-symbol name='_ZNSt11_Tuple_implILm2EJSt12_PlaceholderILi1EEN5mongo8executor12TaskExecutor14CallbackHandleEmSt8functionIFvRKNS4_25RemoteCommandCallbackArgsEEEEEC2ERKSC_' type='func-type' binding='weak-binding' visibility='default-visibility' is-defined='yes'/>
    <elf-symbol name='_ZNSt11_Tuple_implILm2EJSt12_PlaceholderILi1EEN5mongo8executor12TaskExecutor14CallbackHandleEmSt8functionIFvRKNS4_25RemoteCommandCallbackArgsEEEEEC2IRKS1_JRS5_RmRKSB_EvEEOT_DpOT0_' type='func-type' binding='weak-binding' visibility='default-visibility' is-defined='yes'/>
    <elf-symbol name='_ZNSt11_Tuple_implILm2EJSt12_PlaceholderILi1EEN5mongo8executor12TaskExecutor14CallbackHandleEmSt8functionIFvRKNS4_25RemoteCommandCallbackArgsEEEEED2Ev' type='func-type' binding='weak-binding' visibility='default-visibility' is-defined='yes'/>
    <elf-symbol name='_ZNSt11_Tuple_implILm2EJSt12_PlaceholderILi2EEN5mongo8executor12TaskExecutor14CallbackHandleEPSt4listINS2_4repl19ReplicationExecutor8WorkItemESaIS9_EEDnEE7_M_headERSD_' type='func-type' binding='weak-binding' visibility='default-visibility' is-defined='yes'/>
    <elf-symbol name='_ZNSt11_Tuple_implILm2EJSt12_PlaceholderILi2EEN5mongo8executor12TaskExecutor14CallbackHandleEPSt4listINS2_4repl19ReplicationExecutor8WorkItemESaIS9_EEDnEE7_M_tailERSD_' type='func-type' binding='weak-binding' visibility='default-visibility' is-defined='yes'/>
    <elf-symbol name='_ZNSt11_Tuple_implILm2EJSt12_PlaceholderILi2EEN5mongo8executor12TaskExecutor14CallbackHandleEPSt4listINS2_4repl19ReplicationExecutor8WorkItemESaIS9_EEDnEEC2EOSD_' type='func-type' binding='weak-binding' visibility='default-visibility' is-defined='yes'/>
    <elf-symbol name='_ZNSt11_Tuple_implILm2EJSt12_PlaceholderILi2EEN5mongo8executor12TaskExecutor14CallbackHandleEPSt4listINS2_4repl19ReplicationExecutor8WorkItemESaIS9_EEDnEEC2ERKSD_' type='func-type' binding='weak-binding' visibility='default-visibility' is-defined='yes'/>
    <elf-symbol name='_ZNSt11_Tuple_implILm2EJSt12_PlaceholderILi2EEN5mongo8executor12TaskExecutor14CallbackHandleEPSt4listINS2_4repl19ReplicationExecutor8WorkItemESaIS9_EEDnEEC2IRKS1_JRS5_SC_DnEvEEOT_DpOT0_' type='func-type' binding='weak-binding' visibility='default-visibility' is-defined='yes'/>
    <elf-symbol name='_ZNSt11_Tuple_implILm2EJSt12_PlaceholderILi2EEN5mongo8executor12TaskExecutor14CallbackHandleEPSt4listINS2_4repl19ReplicationExecutor8WorkItemESaIS9_EEDnEED2Ev' type='func-type' binding='weak-binding' visibility='default-visibility' is-defined='yes'/>
    <elf-symbol name='_ZNSt11_Tuple_implILm2EJSt12_PlaceholderILi2EEN5mongo8executor12TaskExecutor14CallbackHandleEPSt4listINS2_4repl19ReplicationExecutor8WorkItemESaIS9_EEPSt5mutexEE7_M_headERSF_' type='func-type' binding='weak-binding' visibility='default-visibility' is-defined='yes'/>
    <elf-symbol name='_ZNSt11_Tuple_implILm2EJSt12_PlaceholderILi2EEN5mongo8executor12TaskExecutor14CallbackHandleEPSt4listINS2_4repl19ReplicationExecutor8WorkItemESaIS9_EEPSt5mutexEE7_M_tailERSF_' type='func-type' binding='weak-binding' visibility='default-visibility' is-defined='yes'/>
    <elf-symbol name='_ZNSt11_Tuple_implILm2EJSt12_PlaceholderILi2EEN5mongo8executor12TaskExecutor14CallbackHandleEPSt4listINS2_4repl19ReplicationExecutor8WorkItemESaIS9_EEPSt5mutexEEC2EOSF_' type='func-type' binding='weak-binding' visibility='default-visibility' is-defined='yes'/>
    <elf-symbol name='_ZNSt11_Tuple_implILm2EJSt12_PlaceholderILi2EEN5mongo8executor12TaskExecutor14CallbackHandleEPSt4listINS2_4repl19ReplicationExecutor8WorkItemESaIS9_EEPSt5mutexEEC2ERKSF_' type='func-type' binding='weak-binding' visibility='default-visibility' is-defined='yes'/>
    <elf-symbol name='_ZNSt11_Tuple_implILm2EJSt12_PlaceholderILi2EEN5mongo8executor12TaskExecutor14CallbackHandleEPSt4listINS2_4repl19ReplicationExecutor8WorkItemESaIS9_EEPSt5mutexEEC2IRKS1_JRS5_SC_SE_EvEEOT_DpOT0_' type='func-type' binding='weak-binding' visibility='default-visibility' is-defined='yes'/>
    <elf-symbol name='_ZNSt11_Tuple_implILm2EJSt12_PlaceholderILi2EEN5mongo8executor12TaskExecutor14CallbackHandleEPSt4listINS2_4repl19ReplicationExecutor8WorkItemESaIS9_EEPSt5mutexEED2Ev' type='func-type' binding='weak-binding' visibility='default-visibility' is-defined='yes'/>
    <elf-symbol name='_ZNSt11_Tuple_implILm3EJN5mongo10StatusWithINS0_8executor21RemoteCommandResponseEEEEE7_M_headERS5_' type='func-type' binding='weak-binding' visibility='default-visibility' is-defined='yes'/>
    <elf-symbol name='_ZNSt11_Tuple_implILm3EJN5mongo10StatusWithINS0_8executor21RemoteCommandResponseEEEEE7_M_tailERS5_' type='func-type' binding='weak-binding' visibility='default-visibility' is-defined='yes'/>
    <elf-symbol name='_ZNSt11_Tuple_implILm3EJN5mongo10StatusWithINS0_8executor21RemoteCommandResponseEEEEEC2EOS5_' type='func-type' binding='weak-binding' visibility='default-visibility' is-defined='yes'/>
    <elf-symbol name='_ZNSt11_Tuple_implILm3EJN5mongo10StatusWithINS0_8executor21RemoteCommandResponseEEEEEC2ERKS4_' type='func-type' binding='weak-binding' visibility='default-visibility' is-defined='yes'/>
    <elf-symbol name='_ZNSt11_Tuple_implILm3EJN5mongo10StatusWithINS0_8executor21RemoteCommandResponseEEEEEC2ERKS5_' type='func-type' binding='weak-binding' visibility='default-visibility' is-defined='yes'/>
    <elf-symbol name='_ZNSt11_Tuple_implILm3EJN5mongo10StatusWithINS0_8executor21RemoteCommandResponseEEEEED2Ev' type='func-type' binding='weak-binding' visibility='default-visibility' is-defined='yes'/>
    <elf-symbol name='_ZNSt11_Tuple_implILm3EJN5mongo8executor12TaskExecutor14CallbackHandleEPSt4listINS0_4repl19ReplicationExecutor8WorkItemESaIS7_EEDnEE7_M_headERSB_' type='func-type' binding='weak-binding' visibility='default-visibility' is-defined='yes'/>
    <elf-symbol name='_ZNSt11_Tuple_implILm3EJN5mongo8executor12TaskExecutor14CallbackHandleEPSt4listINS0_4repl19ReplicationExecutor8WorkItemESaIS7_EEDnEE7_M_tailERSB_' type='func-type' binding='weak-binding' visibility='default-visibility' is-defined='yes'/>
    <elf-symbol name='_ZNSt11_Tuple_implILm3EJN5mongo8executor12TaskExecutor14CallbackHandleEPSt4listINS0_4repl19ReplicationExecutor8WorkItemESaIS7_EEDnEEC2EOSB_' type='func-type' binding='weak-binding' visibility='default-visibility' is-defined='yes'/>
    <elf-symbol name='_ZNSt11_Tuple_implILm3EJN5mongo8executor12TaskExecutor14CallbackHandleEPSt4listINS0_4repl19ReplicationExecutor8WorkItemESaIS7_EEDnEEC2ERKSB_' type='func-type' binding='weak-binding' visibility='default-visibility' is-defined='yes'/>
    <elf-symbol name='_ZNSt11_Tuple_implILm3EJN5mongo8executor12TaskExecutor14CallbackHandleEPSt4listINS0_4repl19ReplicationExecutor8WorkItemESaIS7_EEDnEEC2IRS3_JSA_DnEvEEOT_DpOT0_' type='func-type' binding='weak-binding' visibility='default-visibility' is-defined='yes'/>
    <elf-symbol name='_ZNSt11_Tuple_implILm3EJN5mongo8executor12TaskExecutor14CallbackHandleEPSt4listINS0_4repl19ReplicationExecutor8WorkItemESaIS7_EEDnEED2Ev' type='func-type' binding='weak-binding' visibility='default-visibility' is-defined='yes'/>
    <elf-symbol name='_ZNSt11_Tuple_implILm3EJN5mongo8executor12TaskExecutor14CallbackHandleEPSt4listINS0_4repl19ReplicationExecutor8WorkItemESaIS7_EEPSt5mutexEE7_M_headERSD_' type='func-type' binding='weak-binding' visibility='default-visibility' is-defined='yes'/>
    <elf-symbol name='_ZNSt11_Tuple_implILm3EJN5mongo8executor12TaskExecutor14CallbackHandleEPSt4listINS0_4repl19ReplicationExecutor8WorkItemESaIS7_EEPSt5mutexEE7_M_tailERSD_' type='func-type' binding='weak-binding' visibility='default-visibility' is-defined='yes'/>
    <elf-symbol name='_ZNSt11_Tuple_implILm3EJN5mongo8executor12TaskExecutor14CallbackHandleEPSt4listINS0_4repl19ReplicationExecutor8WorkItemESaIS7_EEPSt5mutexEEC2EOSD_' type='func-type' binding='weak-binding' visibility='default-visibility' is-defined='yes'/>
    <elf-symbol name='_ZNSt11_Tuple_implILm3EJN5mongo8executor12TaskExecutor14CallbackHandleEPSt4listINS0_4repl19ReplicationExecutor8WorkItemESaIS7_EEPSt5mutexEEC2ERKSD_' type='func-type' binding='weak-binding' visibility='default-visibility' is-defined='yes'/>
    <elf-symbol name='_ZNSt11_Tuple_implILm3EJN5mongo8executor12TaskExecutor14CallbackHandleEPSt4listINS0_4repl19ReplicationExecutor8WorkItemESaIS7_EEPSt5mutexEEC2IRS3_JSA_SC_EvEEOT_DpOT0_' type='func-type' binding='weak-binding' visibility='default-visibility' is-defined='yes'/>
    <elf-symbol name='_ZNSt11_Tuple_implILm3EJN5mongo8executor12TaskExecutor14CallbackHandleEPSt4listINS0_4repl19ReplicationExecutor8WorkItemESaIS7_EEPSt5mutexEED2Ev' type='func-type' binding='weak-binding' visibility='default-visibility' is-defined='yes'/>
    <elf-symbol name='_ZNSt11_Tuple_implILm3EJN5mongo8executor12TaskExecutor14CallbackHandleEmSt8functionIFvRKNS2_25RemoteCommandCallbackArgsEEEEE7_M_headERSA_' type='func-type' binding='weak-binding' visibility='default-visibility' is-defined='yes'/>
    <elf-symbol name='_ZNSt11_Tuple_implILm3EJN5mongo8executor12TaskExecutor14CallbackHandleEmSt8functionIFvRKNS2_25RemoteCommandCallbackArgsEEEEE7_M_tailERSA_' type='func-type' binding='weak-binding' visibility='default-visibility' is-defined='yes'/>
    <elf-symbol name='_ZNSt11_Tuple_implILm3EJN5mongo8executor12TaskExecutor14CallbackHandleEmSt8functionIFvRKNS2_25RemoteCommandCallbackArgsEEEEEC2EOSA_' type='func-type' binding='weak-binding' visibility='default-visibility' is-defined='yes'/>
    <elf-symbol name='_ZNSt11_Tuple_implILm3EJN5mongo8executor12TaskExecutor14CallbackHandleEmSt8functionIFvRKNS2_25RemoteCommandCallbackArgsEEEEEC2ERKSA_' type='func-type' binding='weak-binding' visibility='default-visibility' is-defined='yes'/>
    <elf-symbol name='_ZNSt11_Tuple_implILm3EJN5mongo8executor12TaskExecutor14CallbackHandleEmSt8functionIFvRKNS2_25RemoteCommandCallbackArgsEEEEEC2IRS3_JRmRKS9_EvEEOT_DpOT0_' type='func-type' binding='weak-binding' visibility='default-visibility' is-defined='yes'/>
    <elf-symbol name='_ZNSt11_Tuple_implILm3EJN5mongo8executor12TaskExecutor14CallbackHandleEmSt8functionIFvRKNS2_25RemoteCommandCallbackArgsEEEEED2Ev' type='func-type' binding='weak-binding' visibility='default-visibility' is-defined='yes'/>
    <elf-symbol name='_ZNSt11_Tuple_implILm4EJPSt4listIN5mongo4repl19ReplicationExecutor8WorkItemESaIS4_EEDnEE7_M_headERS8_' type='func-type' binding='weak-binding' visibility='default-visibility' is-defined='yes'/>
    <elf-symbol name='_ZNSt11_Tuple_implILm4EJPSt4listIN5mongo4repl19ReplicationExecutor8WorkItemESaIS4_EEDnEE7_M_tailERS8_' type='func-type' binding='weak-binding' visibility='default-visibility' is-defined='yes'/>
    <elf-symbol name='_ZNSt11_Tuple_implILm4EJPSt4listIN5mongo4repl19ReplicationExecutor8WorkItemESaIS4_EEDnEEC2EOS8_' type='func-type' binding='weak-binding' visibility='default-visibility' is-defined='yes'/>
    <elf-symbol name='_ZNSt11_Tuple_implILm4EJPSt4listIN5mongo4repl19ReplicationExecutor8WorkItemESaIS4_EEDnEEC2IS7_JDnEvEEOT_DpOT0_' type='func-type' binding='weak-binding' visibility='default-visibility' is-defined='yes'/>
    <elf-symbol name='_ZNSt11_Tuple_implILm4EJPSt4listIN5mongo4repl19ReplicationExecutor8WorkItemESaIS4_EEPSt5mutexEE7_M_headERSA_' type='func-type' binding='weak-binding' visibility='default-visibility' is-defined='yes'/>
    <elf-symbol name='_ZNSt11_Tuple_implILm4EJPSt4listIN5mongo4repl19ReplicationExecutor8WorkItemESaIS4_EEPSt5mutexEE7_M_tailERSA_' type='func-type' binding='weak-binding' visibility='default-visibility' is-defined='yes'/>
    <elf-symbol name='_ZNSt11_Tuple_implILm4EJPSt4listIN5mongo4repl19ReplicationExecutor8WorkItemESaIS4_EEPSt5mutexEEC2EOSA_' type='func-type' binding='weak-binding' visibility='default-visibility' is-defined='yes'/>
    <elf-symbol name='_ZNSt11_Tuple_implILm4EJPSt4listIN5mongo4repl19ReplicationExecutor8WorkItemESaIS4_EEPSt5mutexEEC2IS7_JS9_EvEEOT_DpOT0_' type='func-type' binding='weak-binding' visibility='default-visibility' is-defined='yes'/>
    <elf-symbol name='_ZNSt11_Tuple_implILm4EJmSt8functionIFvRKN5mongo8executor12TaskExecutor25RemoteCommandCallbackArgsEEEEE7_M_headERS9_' type='func-type' binding='weak-binding' visibility='default-visibility' is-defined='yes'/>
    <elf-symbol name='_ZNSt11_Tuple_implILm4EJmSt8functionIFvRKN5mongo8executor12TaskExecutor25RemoteCommandCallbackArgsEEEEE7_M_tailERS9_' type='func-type' binding='weak-binding' visibility='default-visibility' is-defined='yes'/>
    <elf-symbol name='_ZNSt11_Tuple_implILm4EJmSt8functionIFvRKN5mongo8executor12TaskExecutor25RemoteCommandCallbackArgsEEEEEC2EOS9_' type='func-type' binding='weak-binding' visibility='default-visibility' is-defined='yes'/>
    <elf-symbol name='_ZNSt11_Tuple_implILm4EJmSt8functionIFvRKN5mongo8executor12TaskExecutor25RemoteCommandCallbackArgsEEEEEC2ERKS9_' type='func-type' binding='weak-binding' visibility='default-visibility' is-defined='yes'/>
    <elf-symbol name='_ZNSt11_Tuple_implILm4EJmSt8functionIFvRKN5mongo8executor12TaskExecutor25RemoteCommandCallbackArgsEEEEEC2IRmJRKS8_EvEEOT_DpOT0_' type='func-type' binding='weak-binding' visibility='default-visibility' is-defined='yes'/>
    <elf-symbol name='_ZNSt11_Tuple_implILm4EJmSt8functionIFvRKN5mongo8executor12TaskExecutor25RemoteCommandCallbackArgsEEEEED2Ev' type='func-type' binding='weak-binding' visibility='default-visibility' is-defined='yes'/>
    <elf-symbol name='_ZNSt11_Tuple_implILm5EJDnEE7_M_headERS0_' type='func-type' binding='weak-binding' visibility='default-visibility' is-defined='yes'/>
    <elf-symbol name='_ZNSt11_Tuple_implILm5EJDnEE7_M_tailERS0_' type='func-type' binding='weak-binding' visibility='default-visibility' is-defined='yes'/>
    <elf-symbol name='_ZNSt11_Tuple_implILm5EJDnEEC2EOS0_' type='func-type' binding='weak-binding' visibility='default-visibility' is-defined='yes'/>
    <elf-symbol name='_ZNSt11_Tuple_implILm5EJDnEEC2IDnJEvEEOT_DpOT0_' type='func-type' binding='weak-binding' visibility='default-visibility' is-defined='yes'/>
    <elf-symbol name='_ZNSt11_Tuple_implILm5EJPSt5mutexEE7_M_headERS2_' type='func-type' binding='weak-binding' visibility='default-visibility' is-defined='yes'/>
    <elf-symbol name='_ZNSt11_Tuple_implILm5EJPSt5mutexEE7_M_tailERS2_' type='func-type' binding='weak-binding' visibility='default-visibility' is-defined='yes'/>
    <elf-symbol name='_ZNSt11_Tuple_implILm5EJPSt5mutexEEC2EOS2_' type='func-type' binding='weak-binding' visibility='default-visibility' is-defined='yes'/>
    <elf-symbol name='_ZNSt11_Tuple_implILm5EJPSt5mutexEEC2IS1_JEvEEOT_DpOT0_' type='func-type' binding='weak-binding' visibility='default-visibility' is-defined='yes'/>
    <elf-symbol name='_ZNSt11_Tuple_implILm5EJSt8functionIFvRKN5mongo8executor12TaskExecutor25RemoteCommandCallbackArgsEEEEE7_M_headERS9_' type='func-type' binding='weak-binding' visibility='default-visibility' is-defined='yes'/>
    <elf-symbol name='_ZNSt11_Tuple_implILm5EJSt8functionIFvRKN5mongo8executor12TaskExecutor25RemoteCommandCallbackArgsEEEEE7_M_tailERS9_' type='func-type' binding='weak-binding' visibility='default-visibility' is-defined='yes'/>
    <elf-symbol name='_ZNSt11_Tuple_implILm5EJSt8functionIFvRKN5mongo8executor12TaskExecutor25RemoteCommandCallbackArgsEEEEEC2EOS9_' type='func-type' binding='weak-binding' visibility='default-visibility' is-defined='yes'/>
    <elf-symbol name='_ZNSt11_Tuple_implILm5EJSt8functionIFvRKN5mongo8executor12TaskExecutor25RemoteCommandCallbackArgsEEEEEC2ERKS8_' type='func-type' binding='weak-binding' visibility='default-visibility' is-defined='yes'/>
    <elf-symbol name='_ZNSt11_Tuple_implILm5EJSt8functionIFvRKN5mongo8executor12TaskExecutor25RemoteCommandCallbackArgsEEEEEC2ERKS9_' type='func-type' binding='weak-binding' visibility='default-visibility' is-defined='yes'/>
    <elf-symbol name='_ZNSt11_Tuple_implILm5EJSt8functionIFvRKN5mongo8executor12TaskExecutor25RemoteCommandCallbackArgsEEEEED2Ev' type='func-type' binding='weak-binding' visibility='default-visibility' is-defined='yes'/>
    <elf-symbol name='_ZNSt11__alloc_neqISaISt10_List_nodeIN5mongo4repl19ReplicationExecutor8WorkItemEEELb1EE8_S_do_itERKS6_S9_' type='func-type' binding='weak-binding' visibility='default-visibility' is-defined='yes'/>
    <elf-symbol name='_ZNSt11unique_lockISt5mutexE4lockEv' type='func-type' binding='weak-binding' visibility='default-visibility' is-defined='yes'/>
    <elf-symbol name='_ZNSt11unique_lockISt5mutexE6unlockEv' type='func-type' binding='weak-binding' visibility='default-visibility' is-defined='yes'/>
    <elf-symbol name='_ZNSt11unique_lockISt5mutexEC2ERS0_' type='func-type' binding='weak-binding' visibility='default-visibility' is-defined='yes'/>
    <elf-symbol name='_ZNSt11unique_lockISt5mutexED2Ev' type='func-type' binding='weak-binding' visibility='default-visibility' is-defined='yes'/>
    <elf-symbol name='_ZNSt12_Destroy_auxILb0EE9__destroyIPN5mongo8executor12TaskExecutor14CallbackHandleEEEvT_S7_' type='func-type' binding='weak-binding' visibility='default-visibility' is-defined='yes'/>
    <elf-symbol name='_ZNSt12_Destroy_auxILb0EE9__destroyIPN5mongo8executor20RemoteCommandRequestEEEvT_S6_' type='func-type' binding='weak-binding' visibility='default-visibility' is-defined='yes'/>
    <elf-symbol name='_ZNSt12_Vector_baseIN5mongo8executor12TaskExecutor14CallbackHandleESaIS3_EE11_M_allocateEm' type='func-type' binding='weak-binding' visibility='default-visibility' is-defined='yes'/>
    <elf-symbol name='_ZNSt12_Vector_baseIN5mongo8executor12TaskExecutor14CallbackHandleESaIS3_EE12_Vector_implC2Ev' type='func-type' binding='weak-binding' visibility='default-visibility' is-defined='yes'/>
    <elf-symbol name='_ZNSt12_Vector_baseIN5mongo8executor12TaskExecutor14CallbackHandleESaIS3_EE12_Vector_implD2Ev' type='func-type' binding='weak-binding' visibility='default-visibility' is-defined='yes'/>
    <elf-symbol name='_ZNSt12_Vector_baseIN5mongo8executor12TaskExecutor14CallbackHandleESaIS3_EE13_M_deallocateEPS3_m' type='func-type' binding='weak-binding' visibility='default-visibility' is-defined='yes'/>
    <elf-symbol name='_ZNSt12_Vector_baseIN5mongo8executor12TaskExecutor14CallbackHandleESaIS3_EE19_M_get_Tp_allocatorEv' type='func-type' binding='weak-binding' visibility='default-visibility' is-defined='yes'/>
    <elf-symbol name='_ZNSt12_Vector_baseIN5mongo8executor12TaskExecutor14CallbackHandleESaIS3_EEC2Ev' type='func-type' binding='weak-binding' visibility='default-visibility' is-defined='yes'/>
    <elf-symbol name='_ZNSt12_Vector_baseIN5mongo8executor12TaskExecutor14CallbackHandleESaIS3_EED2Ev' type='func-type' binding='weak-binding' visibility='default-visibility' is-defined='yes'/>
    <elf-symbol name='_ZNSt12_Vector_baseIN5mongo8executor20RemoteCommandRequestESaIS2_EE12_Vector_implD2Ev' type='func-type' binding='weak-binding' visibility='default-visibility' is-defined='yes'/>
    <elf-symbol name='_ZNSt12_Vector_baseIN5mongo8executor20RemoteCommandRequestESaIS2_EE13_M_deallocateEPS2_m' type='func-type' binding='weak-binding' visibility='default-visibility' is-defined='yes'/>
    <elf-symbol name='_ZNSt12_Vector_baseIN5mongo8executor20RemoteCommandRequestESaIS2_EE19_M_get_Tp_allocatorEv' type='func-type' binding='weak-binding' visibility='default-visibility' is-defined='yes'/>
    <elf-symbol name='_ZNSt12_Vector_baseIN5mongo8executor20RemoteCommandRequestESaIS2_EED2Ev' type='func-type' binding='weak-binding' visibility='default-visibility' is-defined='yes'/>
    <elf-symbol name='_ZNSt12__mutex_baseC2Ev' type='func-type' binding='weak-binding' visibility='default-visibility' is-defined='yes'/>
    <elf-symbol name='_ZNSt12__shared_ptrIN5mongo4repl19ReplicationExecutor5EventELN9__gnu_cxx12_Lock_policyE2EEC2ISaIS3_EJPS2_RSt14_List_iteratorINS0_8executor12TaskExecutor11EventHandleEEEEESt19_Sp_make_shared_tagRKT_DpOT0_' type='func-type' binding='weak-binding' visibility='default-visibility' is-defined='yes'/>
    <elf-symbol name='_ZNSt12__shared_ptrIN5mongo4repl19ReplicationExecutor5EventELN9__gnu_cxx12_Lock_policyE2EED2Ev' type='func-type' binding='weak-binding' visibility='default-visibility' is-defined='yes'/>
    <elf-symbol name='_ZNSt12__shared_ptrIN5mongo8executor12TaskExecutor10EventStateELN9__gnu_cxx12_Lock_policyE2EE4swapERS6_' type='func-type' binding='weak-binding' visibility='default-visibility' is-defined='yes'/>
    <elf-symbol name='_ZNSt12__shared_ptrIN5mongo8executor12TaskExecutor10EventStateELN9__gnu_cxx12_Lock_policyE2EEC2EOS6_' type='func-type' binding='weak-binding' visibility='default-visibility' is-defined='yes'/>
    <elf-symbol name='_ZNSt12__shared_ptrIN5mongo8executor12TaskExecutor10EventStateELN9__gnu_cxx12_Lock_policyE2EEC2ERKS6_' type='func-type' binding='weak-binding' visibility='default-visibility' is-defined='yes'/>
    <elf-symbol name='_ZNSt12__shared_ptrIN5mongo8executor12TaskExecutor10EventStateELN9__gnu_cxx12_Lock_policyE2EEC2INS0_4repl19ReplicationExecutor5EventEvEEOS_IT_LS5_2EE' type='func-type' binding='weak-binding' visibility='default-visibility' is-defined='yes'/>
    <elf-symbol name='_ZNSt12__shared_ptrIN5mongo8executor12TaskExecutor10EventStateELN9__gnu_cxx12_Lock_policyE2EED2Ev' type='func-type' binding='weak-binding' visibility='default-visibility' is-defined='yes'/>
    <elf-symbol name='_ZNSt12__shared_ptrIN5mongo8executor12TaskExecutor10EventStateELN9__gnu_cxx12_Lock_policyE2EEaSEOS6_' type='func-type' binding='weak-binding' visibility='default-visibility' is-defined='yes'/>
    <elf-symbol name='_ZNSt12__shared_ptrIN5mongo8executor12TaskExecutor10EventStateELN9__gnu_cxx12_Lock_policyE2EEaSERKS6_' type='func-type' binding='weak-binding' visibility='default-visibility' is-defined='yes'/>
    <elf-symbol name='_ZNSt12__shared_ptrIN5mongo8executor12TaskExecutor13CallbackStateELN9__gnu_cxx12_Lock_policyE2EE4swapERS6_' type='func-type' binding='weak-binding' visibility='default-visibility' is-defined='yes'/>
    <elf-symbol name='_ZNSt12__shared_ptrIN5mongo8executor12TaskExecutor13CallbackStateELN9__gnu_cxx12_Lock_policyE2EEC2EOS6_' type='func-type' binding='weak-binding' visibility='default-visibility' is-defined='yes'/>
    <elf-symbol name='_ZNSt12__shared_ptrIN5mongo8executor12TaskExecutor13CallbackStateELN9__gnu_cxx12_Lock_policyE2EEC2ERKS6_' type='func-type' binding='weak-binding' visibility='default-visibility' is-defined='yes'/>
    <elf-symbol name='_ZNSt12__shared_ptrIN5mongo8executor12TaskExecutor13CallbackStateELN9__gnu_cxx12_Lock_policyE2EEC2INS0_4repl19ReplicationExecutor8CallbackEEEPT_' type='func-type' binding='weak-binding' visibility='default-visibility' is-defined='yes'/>
    <elf-symbol name='_ZNSt12__shared_ptrIN5mongo8executor12TaskExecutor13CallbackStateELN9__gnu_cxx12_Lock_policyE2EED2Ev' type='func-type' binding='weak-binding' visibility='default-visibility' is-defined='yes'/>
    <elf-symbol name='_ZNSt12__shared_ptrIN5mongo8executor12TaskExecutor13CallbackStateELN9__gnu_cxx12_Lock_policyE2EEaSEOS6_' type='func-type' binding='weak-binding' visibility='default-visibility' is-defined='yes'/>
    <elf-symbol name='_ZNSt12__shared_ptrINSt6thread10_Impl_baseELN9__gnu_cxx12_Lock_policyE2EEC2Ev' type='func-type' binding='weak-binding' visibility='default-visibility' is-defined='yes'/>
    <elf-symbol name='_ZNSt12__shared_ptrINSt6thread10_Impl_baseELN9__gnu_cxx12_Lock_policyE2EED2Ev' type='func-type' binding='weak-binding' visibility='default-visibility' is-defined='yes'/>
    <elf-symbol name='_ZNSt13move_iteratorIPN5mongo8executor12TaskExecutor14CallbackHandleEEC2ES4_' type='func-type' binding='weak-binding' visibility='default-visibility' is-defined='yes'/>
    <elf-symbol name='_ZNSt13move_iteratorIPN5mongo8executor12TaskExecutor14CallbackHandleEEppEv' type='func-type' binding='weak-binding' visibility='default-visibility' is-defined='yes'/>
    <elf-symbol name='_ZNSt14_Function_base13_Base_managerISt5_BindIFPFvRKN5mongo8executor12TaskExecutor12CallbackArgsEPNS2_4repl19ScatterGatherRunnerEPNS2_10StatusWithINS4_11EventHandleEEEESt12_PlaceholderILi1EESA_SE_EEE10_M_destroyERSt9_Any_dataSt17integral_constantIbLb0EE' type='func-type' binding='weak-binding' visibility='default-visibility' is-defined='yes'/>
    <elf-symbol name='_ZNSt14_Function_base13_Base_managerISt5_BindIFPFvRKN5mongo8executor12TaskExecutor12CallbackArgsEPNS2_4repl19ScatterGatherRunnerEPNS2_10StatusWithINS4_11EventHandleEEEESt12_PlaceholderILi1EESA_SE_EEE10_M_managerERSt9_Any_dataRKSM_St18_Manager_operation' type='func-type' binding='weak-binding' visibility='default-visibility' is-defined='yes'/>
    <elf-symbol name='_ZNSt14_Function_base13_Base_managerISt5_BindIFPFvRKN5mongo8executor12TaskExecutor12CallbackArgsEPNS2_4repl19ScatterGatherRunnerEPNS2_10StatusWithINS4_11EventHandleEEEESt12_PlaceholderILi1EESA_SE_EEE14_M_get_pointerERKSt9_Any_data' type='func-type' binding='weak-binding' visibility='default-visibility' is-defined='yes'/>
    <elf-symbol name='_ZNSt14_Function_base13_Base_managerISt5_BindIFPFvRKN5mongo8executor12TaskExecutor12CallbackArgsEPNS2_4repl19ScatterGatherRunnerEPNS2_10StatusWithINS4_11EventHandleEEEESt12_PlaceholderILi1EESA_SE_EEE15_M_init_functorERSt9_Any_dataOSK_' type='func-type' binding='weak-binding' visibility='default-visibility' is-defined='yes'/>
    <elf-symbol name='_ZNSt14_Function_base13_Base_managerISt5_BindIFPFvRKN5mongo8executor12TaskExecutor12CallbackArgsEPNS2_4repl19ScatterGatherRunnerEPNS2_10StatusWithINS4_11EventHandleEEEESt12_PlaceholderILi1EESA_SE_EEE15_M_init_functorERSt9_Any_dataOSK_St17integral_constantIbLb0EE' type='func-type' binding='weak-binding' visibility='default-visibility' is-defined='yes'/>
    <elf-symbol name='_ZNSt14_Function_base13_Base_managerISt5_BindIFPFvRKN5mongo8executor12TaskExecutor12CallbackArgsEPNS2_4repl19ScatterGatherRunnerEPNS2_10StatusWithINS4_11EventHandleEEEESt12_PlaceholderILi1EESA_SE_EEE21_M_not_empty_functionISK_EEbRKT_' type='func-type' binding='weak-binding' visibility='default-visibility' is-defined='yes'/>
    <elf-symbol name='_ZNSt14_Function_base13_Base_managerISt5_BindIFPFvRKN5mongo8executor12TaskExecutor12CallbackArgsEPNS2_4repl19ScatterGatherRunnerEPNS2_10StatusWithINS4_11EventHandleEEEESt12_PlaceholderILi1EESA_SE_EEE8_M_cloneERSt9_Any_dataRKSM_St17integral_constantIbLb0EE' type='func-type' binding='weak-binding' visibility='default-visibility' is-defined='yes'/>
    <elf-symbol name='_ZNSt14_Function_base13_Base_managerISt5_BindIFPFvRKN5mongo8executor12TaskExecutor12CallbackArgsERKSt8functionIFvRKNS4_25RemoteCommandCallbackArgsEEERKNS3_20RemoteCommandRequestEESt12_PlaceholderILi1EESD_SG_EEE10_M_destroyERSt9_Any_dataSt17integral_constantIbLb0EE' type='func-type' binding='weak-binding' visibility='default-visibility' is-defined='yes'/>
    <elf-symbol name='_ZNSt14_Function_base13_Base_managerISt5_BindIFPFvRKN5mongo8executor12TaskExecutor12CallbackArgsERKSt8functionIFvRKNS4_25RemoteCommandCallbackArgsEEERKNS3_20RemoteCommandRequestEESt12_PlaceholderILi1EESD_SG_EEE10_M_managerERSt9_Any_dataRKSQ_St18_Manager_operation' type='func-type' binding='weak-binding' visibility='default-visibility' is-defined='yes'/>
    <elf-symbol name='_ZNSt14_Function_base13_Base_managerISt5_BindIFPFvRKN5mongo8executor12TaskExecutor12CallbackArgsERKSt8functionIFvRKNS4_25RemoteCommandCallbackArgsEEERKNS3_20RemoteCommandRequestEESt12_PlaceholderILi1EESD_SG_EEE14_M_get_pointerERKSt9_Any_data' type='func-type' binding='weak-binding' visibility='default-visibility' is-defined='yes'/>
    <elf-symbol name='_ZNSt14_Function_base13_Base_managerISt5_BindIFPFvRKN5mongo8executor12TaskExecutor12CallbackArgsERKSt8functionIFvRKNS4_25RemoteCommandCallbackArgsEEERKNS3_20RemoteCommandRequestEESt12_PlaceholderILi1EESD_SG_EEE15_M_init_functorERSt9_Any_dataOSO_' type='func-type' binding='weak-binding' visibility='default-visibility' is-defined='yes'/>
    <elf-symbol name='_ZNSt14_Function_base13_Base_managerISt5_BindIFPFvRKN5mongo8executor12TaskExecutor12CallbackArgsERKSt8functionIFvRKNS4_25RemoteCommandCallbackArgsEEERKNS3_20RemoteCommandRequestEESt12_PlaceholderILi1EESD_SG_EEE15_M_init_functorERSt9_Any_dataOSO_St17integral_constantIbLb0EE' type='func-type' binding='weak-binding' visibility='default-visibility' is-defined='yes'/>
    <elf-symbol name='_ZNSt14_Function_base13_Base_managerISt5_BindIFPFvRKN5mongo8executor12TaskExecutor12CallbackArgsERKSt8functionIFvRKNS4_25RemoteCommandCallbackArgsEEERKNS3_20RemoteCommandRequestEESt12_PlaceholderILi1EESD_SG_EEE21_M_not_empty_functionISO_EEbRKT_' type='func-type' binding='weak-binding' visibility='default-visibility' is-defined='yes'/>
    <elf-symbol name='_ZNSt14_Function_base13_Base_managerISt5_BindIFPFvRKN5mongo8executor12TaskExecutor12CallbackArgsERKSt8functionIFvRKNS4_25RemoteCommandCallbackArgsEEERKNS3_20RemoteCommandRequestEESt12_PlaceholderILi1EESD_SG_EEE8_M_cloneERSt9_Any_dataRKSQ_St17integral_constantIbLb0EE' type='func-type' binding='weak-binding' visibility='default-visibility' is-defined='yes'/>
    <elf-symbol name='_ZNSt14_Function_base13_Base_managerISt5_BindIFPFvRKN5mongo8executor12TaskExecutor12CallbackArgsERKSt8functionIFvRKNS4_25RemoteCommandCallbackArgsEEERKNS3_20RemoteCommandRequestERKNS2_10StatusWithINS3_21RemoteCommandResponseEEEESt12_PlaceholderILi1EESD_SG_SL_EEE10_M_destroyERSt9_Any_dataSt17integral_constantIbLb0EE' type='func-type' binding='weak-binding' visibility='default-visibility' is-defined='yes'/>
    <elf-symbol name='_ZNSt14_Function_base13_Base_managerISt5_BindIFPFvRKN5mongo8executor12TaskExecutor12CallbackArgsERKSt8functionIFvRKNS4_25RemoteCommandCallbackArgsEEERKNS3_20RemoteCommandRequestERKNS2_10StatusWithINS3_21RemoteCommandResponseEEEESt12_PlaceholderILi1EESD_SG_SL_EEE10_M_managerERSt9_Any_dataRKSV_St18_Manager_operation' type='func-type' binding='weak-binding' visibility='default-visibility' is-defined='yes'/>
    <elf-symbol name='_ZNSt14_Function_base13_Base_managerISt5_BindIFPFvRKN5mongo8executor12TaskExecutor12CallbackArgsERKSt8functionIFvRKNS4_25RemoteCommandCallbackArgsEEERKNS3_20RemoteCommandRequestERKNS2_10StatusWithINS3_21RemoteCommandResponseEEEESt12_PlaceholderILi1EESD_SG_SL_EEE14_M_get_pointerERKSt9_Any_data' type='func-type' binding='weak-binding' visibility='default-visibility' is-defined='yes'/>
    <elf-symbol name='_ZNSt14_Function_base13_Base_managerISt5_BindIFPFvRKN5mongo8executor12TaskExecutor12CallbackArgsERKSt8functionIFvRKNS4_25RemoteCommandCallbackArgsEEERKNS3_20RemoteCommandRequestERKNS2_10StatusWithINS3_21RemoteCommandResponseEEEESt12_PlaceholderILi1EESD_SG_SL_EEE15_M_init_functorERSt9_Any_dataOST_' type='func-type' binding='weak-binding' visibility='default-visibility' is-defined='yes'/>
    <elf-symbol name='_ZNSt14_Function_base13_Base_managerISt5_BindIFPFvRKN5mongo8executor12TaskExecutor12CallbackArgsERKSt8functionIFvRKNS4_25RemoteCommandCallbackArgsEEERKNS3_20RemoteCommandRequestERKNS2_10StatusWithINS3_21RemoteCommandResponseEEEESt12_PlaceholderILi1EESD_SG_SL_EEE15_M_init_functorERSt9_Any_dataOST_St17integral_constantIbLb0EE' type='func-type' binding='weak-binding' visibility='default-visibility' is-defined='yes'/>
    <elf-symbol name='_ZNSt14_Function_base13_Base_managerISt5_BindIFPFvRKN5mongo8executor12TaskExecutor12CallbackArgsERKSt8functionIFvRKNS4_25RemoteCommandCallbackArgsEEERKNS3_20RemoteCommandRequestERKNS2_10StatusWithINS3_21RemoteCommandResponseEEEESt12_PlaceholderILi1EESD_SG_SL_EEE21_M_not_empty_functionIST_EEbRKT_' type='func-type' binding='weak-binding' visibility='default-visibility' is-defined='yes'/>
    <elf-symbol name='_ZNSt14_Function_base13_Base_managerISt5_BindIFPFvRKN5mongo8executor12TaskExecutor12CallbackArgsERKSt8functionIFvRKNS4_25RemoteCommandCallbackArgsEEERKNS3_20RemoteCommandRequestERKNS2_10StatusWithINS3_21RemoteCommandResponseEEEESt12_PlaceholderILi1EESD_SG_SL_EEE8_M_cloneERSt9_Any_dataRKSV_St17integral_constantIbLb0EE' type='func-type' binding='weak-binding' visibility='default-visibility' is-defined='yes'/>
    <elf-symbol name='_ZNSt14_Function_base13_Base_managerISt5_BindIFPFvRKN5mongo8executor12TaskExecutor25RemoteCommandCallbackArgsEPNS2_4repl19ScatterGatherRunnerEESt12_PlaceholderILi1EESA_EEE10_M_destroyERSt9_Any_dataSt17integral_constantIbLb0EE' type='func-type' binding='weak-binding' visibility='default-visibility' is-defined='yes'/>
    <elf-symbol name='_ZNSt14_Function_base13_Base_managerISt5_BindIFPFvRKN5mongo8executor12TaskExecutor25RemoteCommandCallbackArgsEPNS2_4repl19ScatterGatherRunnerEESt12_PlaceholderILi1EESA_EEE10_M_managerERSt9_Any_dataRKSI_St18_Manager_operation' type='func-type' binding='weak-binding' visibility='default-visibility' is-defined='yes'/>
    <elf-symbol name='_ZNSt14_Function_base13_Base_managerISt5_BindIFPFvRKN5mongo8executor12TaskExecutor25RemoteCommandCallbackArgsEPNS2_4repl19ScatterGatherRunnerEESt12_PlaceholderILi1EESA_EEE14_M_get_pointerERKSt9_Any_data' type='func-type' binding='weak-binding' visibility='default-visibility' is-defined='yes'/>
    <elf-symbol name='_ZNSt14_Function_base13_Base_managerISt5_BindIFPFvRKN5mongo8executor12TaskExecutor25RemoteCommandCallbackArgsEPNS2_4repl19ScatterGatherRunnerEESt12_PlaceholderILi1EESA_EEE15_M_init_functorERSt9_Any_dataOSG_' type='func-type' binding='weak-binding' visibility='default-visibility' is-defined='yes'/>
    <elf-symbol name='_ZNSt14_Function_base13_Base_managerISt5_BindIFPFvRKN5mongo8executor12TaskExecutor25RemoteCommandCallbackArgsEPNS2_4repl19ScatterGatherRunnerEESt12_PlaceholderILi1EESA_EEE15_M_init_functorERSt9_Any_dataOSG_St17integral_constantIbLb0EE' type='func-type' binding='weak-binding' visibility='default-visibility' is-defined='yes'/>
    <elf-symbol name='_ZNSt14_Function_base13_Base_managerISt5_BindIFPFvRKN5mongo8executor12TaskExecutor25RemoteCommandCallbackArgsEPNS2_4repl19ScatterGatherRunnerEESt12_PlaceholderILi1EESA_EEE21_M_not_empty_functionISG_EEbRKT_' type='func-type' binding='weak-binding' visibility='default-visibility' is-defined='yes'/>
    <elf-symbol name='_ZNSt14_Function_base13_Base_managerISt5_BindIFPFvRKN5mongo8executor12TaskExecutor25RemoteCommandCallbackArgsEPNS2_4repl19ScatterGatherRunnerEESt12_PlaceholderILi1EESA_EEE8_M_cloneERSt9_Any_dataRKSI_St17integral_constantIbLb0EE' type='func-type' binding='weak-binding' visibility='default-visibility' is-defined='yes'/>
    <elf-symbol name='_ZNSt14_Function_base13_Base_managerISt5_BindIFPFvRKSt8functionIFvvEEES4_EEE10_M_destroyERSt9_Any_dataSt17integral_constantIbLb0EE' type='func-type' binding='weak-binding' visibility='default-visibility' is-defined='yes'/>
    <elf-symbol name='_ZNSt14_Function_base13_Base_managerISt5_BindIFPFvRKSt8functionIFvvEEES4_EEE10_M_managerERSt9_Any_dataRKSC_St18_Manager_operation' type='func-type' binding='weak-binding' visibility='default-visibility' is-defined='yes'/>
    <elf-symbol name='_ZNSt14_Function_base13_Base_managerISt5_BindIFPFvRKSt8functionIFvvEEES4_EEE14_M_get_pointerERKSt9_Any_data' type='func-type' binding='weak-binding' visibility='default-visibility' is-defined='yes'/>
    <elf-symbol name='_ZNSt14_Function_base13_Base_managerISt5_BindIFPFvRKSt8functionIFvvEEES4_EEE15_M_init_functorERSt9_Any_dataOSA_' type='func-type' binding='weak-binding' visibility='default-visibility' is-defined='yes'/>
    <elf-symbol name='_ZNSt14_Function_base13_Base_managerISt5_BindIFPFvRKSt8functionIFvvEEES4_EEE15_M_init_functorERSt9_Any_dataOSA_St17integral_constantIbLb0EE' type='func-type' binding='weak-binding' visibility='default-visibility' is-defined='yes'/>
    <elf-symbol name='_ZNSt14_Function_base13_Base_managerISt5_BindIFPFvRKSt8functionIFvvEEES4_EEE21_M_not_empty_functionISA_EEbRKT_' type='func-type' binding='weak-binding' visibility='default-visibility' is-defined='yes'/>
    <elf-symbol name='_ZNSt14_Function_base13_Base_managerISt5_BindIFPFvRKSt8functionIFvvEEES4_EEE8_M_cloneERSt9_Any_dataRKSC_St17integral_constantIbLb0EE' type='func-type' binding='weak-binding' visibility='default-visibility' is-defined='yes'/>
    <elf-symbol name='_ZNSt14_Function_base13_Base_managerISt5_BindIFS1_IFSt7_Mem_fnIMN5mongo4repl19ReplicationExecutorEFvPNS3_16OperationContextERKNS3_6StatusERKNS3_8executor12TaskExecutor14CallbackHandleEPSt4listINS5_8WorkItemESaISH_EEPSt5mutexEEPS5_St12_PlaceholderILi1EESR_ILi2EESD_SK_DnEES7_S8_EEE10_M_destroyERSt9_Any_dataSt17integral_constantIbLb0EE' type='func-type' binding='weak-binding' visibility='default-visibility' is-defined='yes'/>
    <elf-symbol name='_ZNSt14_Function_base13_Base_managerISt5_BindIFS1_IFSt7_Mem_fnIMN5mongo4repl19ReplicationExecutorEFvPNS3_16OperationContextERKNS3_6StatusERKNS3_8executor12TaskExecutor14CallbackHandleEPSt4listINS5_8WorkItemESaISH_EEPSt5mutexEEPS5_St12_PlaceholderILi1EESR_ILi2EESD_SK_DnEES7_S8_EEE10_M_managerERSt9_Any_dataRKSZ_St18_Manager_operation' type='func-type' binding='weak-binding' visibility='default-visibility' is-defined='yes'/>
    <elf-symbol name='_ZNSt14_Function_base13_Base_managerISt5_BindIFS1_IFSt7_Mem_fnIMN5mongo4repl19ReplicationExecutorEFvPNS3_16OperationContextERKNS3_6StatusERKNS3_8executor12TaskExecutor14CallbackHandleEPSt4listINS5_8WorkItemESaISH_EEPSt5mutexEEPS5_St12_PlaceholderILi1EESR_ILi2EESD_SK_DnEES7_S8_EEE14_M_get_pointerERKSt9_Any_data' type='func-type' binding='weak-binding' visibility='default-visibility' is-defined='yes'/>
    <elf-symbol name='_ZNSt14_Function_base13_Base_managerISt5_BindIFS1_IFSt7_Mem_fnIMN5mongo4repl19ReplicationExecutorEFvPNS3_16OperationContextERKNS3_6StatusERKNS3_8executor12TaskExecutor14CallbackHandleEPSt4listINS5_8WorkItemESaISH_EEPSt5mutexEEPS5_St12_PlaceholderILi1EESR_ILi2EESD_SK_DnEES7_S8_EEE15_M_init_functorERSt9_Any_dataOSX_' type='func-type' binding='weak-binding' visibility='default-visibility' is-defined='yes'/>
    <elf-symbol name='_ZNSt14_Function_base13_Base_managerISt5_BindIFS1_IFSt7_Mem_fnIMN5mongo4repl19ReplicationExecutorEFvPNS3_16OperationContextERKNS3_6StatusERKNS3_8executor12TaskExecutor14CallbackHandleEPSt4listINS5_8WorkItemESaISH_EEPSt5mutexEEPS5_St12_PlaceholderILi1EESR_ILi2EESD_SK_DnEES7_S8_EEE15_M_init_functorERSt9_Any_dataOSX_St17integral_constantIbLb0EE' type='func-type' binding='weak-binding' visibility='default-visibility' is-defined='yes'/>
    <elf-symbol name='_ZNSt14_Function_base13_Base_managerISt5_BindIFS1_IFSt7_Mem_fnIMN5mongo4repl19ReplicationExecutorEFvPNS3_16OperationContextERKNS3_6StatusERKNS3_8executor12TaskExecutor14CallbackHandleEPSt4listINS5_8WorkItemESaISH_EEPSt5mutexEEPS5_St12_PlaceholderILi1EESR_ILi2EESD_SK_DnEES7_S8_EEE21_M_not_empty_functionISX_EEbRKT_' type='func-type' binding='weak-binding' visibility='default-visibility' is-defined='yes'/>
    <elf-symbol name='_ZNSt14_Function_base13_Base_managerISt5_BindIFS1_IFSt7_Mem_fnIMN5mongo4repl19ReplicationExecutorEFvPNS3_16OperationContextERKNS3_6StatusERKNS3_8executor12TaskExecutor14CallbackHandleEPSt4listINS5_8WorkItemESaISH_EEPSt5mutexEEPS5_St12_PlaceholderILi1EESR_ILi2EESD_SK_DnEES7_S8_EEE8_M_cloneERSt9_Any_dataRKSZ_St17integral_constantIbLb0EE' type='func-type' binding='weak-binding' visibility='default-visibility' is-defined='yes'/>
    <elf-symbol name='_ZNSt14_Function_base13_Base_managerISt5_BindIFS1_IFSt7_Mem_fnIMN5mongo4repl19ReplicationExecutorEFvPNS3_16OperationContextERKNS3_6StatusERKNS3_8executor12TaskExecutor14CallbackHandleEPSt4listINS5_8WorkItemESaISH_EEPSt5mutexEEPS5_St12_PlaceholderILi1EESR_ILi2EESD_SK_SM_EES7_S8_EEE10_M_destroyERSt9_Any_dataSt17integral_constantIbLb0EE' type='func-type' binding='weak-binding' visibility='default-visibility' is-defined='yes'/>
    <elf-symbol name='_ZNSt14_Function_base13_Base_managerISt5_BindIFS1_IFSt7_Mem_fnIMN5mongo4repl19ReplicationExecutorEFvPNS3_16OperationContextERKNS3_6StatusERKNS3_8executor12TaskExecutor14CallbackHandleEPSt4listINS5_8WorkItemESaISH_EEPSt5mutexEEPS5_St12_PlaceholderILi1EESR_ILi2EESD_SK_SM_EES7_S8_EEE10_M_managerERSt9_Any_dataRKSZ_St18_Manager_operation' type='func-type' binding='weak-binding' visibility='default-visibility' is-defined='yes'/>
    <elf-symbol name='_ZNSt14_Function_base13_Base_managerISt5_BindIFS1_IFSt7_Mem_fnIMN5mongo4repl19ReplicationExecutorEFvPNS3_16OperationContextERKNS3_6StatusERKNS3_8executor12TaskExecutor14CallbackHandleEPSt4listINS5_8WorkItemESaISH_EEPSt5mutexEEPS5_St12_PlaceholderILi1EESR_ILi2EESD_SK_SM_EES7_S8_EEE14_M_get_pointerERKSt9_Any_data' type='func-type' binding='weak-binding' visibility='default-visibility' is-defined='yes'/>
    <elf-symbol name='_ZNSt14_Function_base13_Base_managerISt5_BindIFS1_IFSt7_Mem_fnIMN5mongo4repl19ReplicationExecutorEFvPNS3_16OperationContextERKNS3_6StatusERKNS3_8executor12TaskExecutor14CallbackHandleEPSt4listINS5_8WorkItemESaISH_EEPSt5mutexEEPS5_St12_PlaceholderILi1EESR_ILi2EESD_SK_SM_EES7_S8_EEE15_M_init_functorERSt9_Any_dataOSX_' type='func-type' binding='weak-binding' visibility='default-visibility' is-defined='yes'/>
    <elf-symbol name='_ZNSt14_Function_base13_Base_managerISt5_BindIFS1_IFSt7_Mem_fnIMN5mongo4repl19ReplicationExecutorEFvPNS3_16OperationContextERKNS3_6StatusERKNS3_8executor12TaskExecutor14CallbackHandleEPSt4listINS5_8WorkItemESaISH_EEPSt5mutexEEPS5_St12_PlaceholderILi1EESR_ILi2EESD_SK_SM_EES7_S8_EEE15_M_init_functorERSt9_Any_dataOSX_St17integral_constantIbLb0EE' type='func-type' binding='weak-binding' visibility='default-visibility' is-defined='yes'/>
    <elf-symbol name='_ZNSt14_Function_base13_Base_managerISt5_BindIFS1_IFSt7_Mem_fnIMN5mongo4repl19ReplicationExecutorEFvPNS3_16OperationContextERKNS3_6StatusERKNS3_8executor12TaskExecutor14CallbackHandleEPSt4listINS5_8WorkItemESaISH_EEPSt5mutexEEPS5_St12_PlaceholderILi1EESR_ILi2EESD_SK_SM_EES7_S8_EEE21_M_not_empty_functionISX_EEbRKT_' type='func-type' binding='weak-binding' visibility='default-visibility' is-defined='yes'/>
    <elf-symbol name='_ZNSt14_Function_base13_Base_managerISt5_BindIFS1_IFSt7_Mem_fnIMN5mongo4repl19ReplicationExecutorEFvPNS3_16OperationContextERKNS3_6StatusERKNS3_8executor12TaskExecutor14CallbackHandleEPSt4listINS5_8WorkItemESaISH_EEPSt5mutexEEPS5_St12_PlaceholderILi1EESR_ILi2EESD_SK_SM_EES7_S8_EEE8_M_cloneERSt9_Any_dataRKSZ_St17integral_constantIbLb0EE' type='func-type' binding='weak-binding' visibility='default-visibility' is-defined='yes'/>
    <elf-symbol name='_ZNSt14_Function_base13_Base_managerISt5_BindIFSt7_Mem_fnIMN5mongo4repl16StorageInterfaceEFPNS3_16OperationContextEvEEPS5_EEE10_M_destroyERSt9_Any_dataSt17integral_constantIbLb0EE' type='func-type' binding='weak-binding' visibility='default-visibility' is-defined='yes'/>
    <elf-symbol name='_ZNSt14_Function_base13_Base_managerISt5_BindIFSt7_Mem_fnIMN5mongo4repl16StorageInterfaceEFPNS3_16OperationContextEvEEPS5_EEE10_M_managerERSt9_Any_dataRKSF_St18_Manager_operation' type='func-type' binding='weak-binding' visibility='default-visibility' is-defined='yes'/>
    <elf-symbol name='_ZNSt14_Function_base13_Base_managerISt5_BindIFSt7_Mem_fnIMN5mongo4repl16StorageInterfaceEFPNS3_16OperationContextEvEEPS5_EEE14_M_get_pointerERKSt9_Any_data' type='func-type' binding='weak-binding' visibility='default-visibility' is-defined='yes'/>
    <elf-symbol name='_ZNSt14_Function_base13_Base_managerISt5_BindIFSt7_Mem_fnIMN5mongo4repl16StorageInterfaceEFPNS3_16OperationContextEvEEPS5_EEE15_M_init_functorERSt9_Any_dataOSD_' type='func-type' binding='weak-binding' visibility='default-visibility' is-defined='yes'/>
    <elf-symbol name='_ZNSt14_Function_base13_Base_managerISt5_BindIFSt7_Mem_fnIMN5mongo4repl16StorageInterfaceEFPNS3_16OperationContextEvEEPS5_EEE15_M_init_functorERSt9_Any_dataOSD_St17integral_constantIbLb0EE' type='func-type' binding='weak-binding' visibility='default-visibility' is-defined='yes'/>
    <elf-symbol name='_ZNSt14_Function_base13_Base_managerISt5_BindIFSt7_Mem_fnIMN5mongo4repl16StorageInterfaceEFPNS3_16OperationContextEvEEPS5_EEE21_M_not_empty_functionISD_EEbRKT_' type='func-type' binding='weak-binding' visibility='default-visibility' is-defined='yes'/>
    <elf-symbol name='_ZNSt14_Function_base13_Base_managerISt5_BindIFSt7_Mem_fnIMN5mongo4repl16StorageInterfaceEFPNS3_16OperationContextEvEEPS5_EEE8_M_cloneERSt9_Any_dataRKSF_St17integral_constantIbLb0EE' type='func-type' binding='weak-binding' visibility='default-visibility' is-defined='yes'/>
    <elf-symbol name='_ZNSt14_Function_base13_Base_managerISt5_BindIFSt7_Mem_fnIMN5mongo4repl19ReplicationExecutorEFvRKNS3_8executor20RemoteCommandRequestERKNS3_10StatusWithINS6_21RemoteCommandResponseEEERKNS6_12TaskExecutor14CallbackHandleEmRKSt8functionIFvRKNSF_25RemoteCommandCallbackArgsEEEEEPS5_S7_St12_PlaceholderILi1EESG_mSO_EEE10_M_destroyERSt9_Any_dataSt17integral_constantIbLb0EE' type='func-type' binding='weak-binding' visibility='default-visibility' is-defined='yes'/>
    <elf-symbol name='_ZNSt14_Function_base13_Base_managerISt5_BindIFSt7_Mem_fnIMN5mongo4repl19ReplicationExecutorEFvRKNS3_8executor20RemoteCommandRequestERKNS3_10StatusWithINS6_21RemoteCommandResponseEEERKNS6_12TaskExecutor14CallbackHandleEmRKSt8functionIFvRKNSF_25RemoteCommandCallbackArgsEEEEEPS5_S7_St12_PlaceholderILi1EESG_mSO_EEE10_M_managerERSt9_Any_dataRKS10_St18_Manager_operation' type='func-type' binding='weak-binding' visibility='default-visibility' is-defined='yes'/>
    <elf-symbol name='_ZNSt14_Function_base13_Base_managerISt5_BindIFSt7_Mem_fnIMN5mongo4repl19ReplicationExecutorEFvRKNS3_8executor20RemoteCommandRequestERKNS3_10StatusWithINS6_21RemoteCommandResponseEEERKNS6_12TaskExecutor14CallbackHandleEmRKSt8functionIFvRKNSF_25RemoteCommandCallbackArgsEEEEEPS5_S7_St12_PlaceholderILi1EESG_mSO_EEE14_M_get_pointerERKSt9_Any_data' type='func-type' binding='weak-binding' visibility='default-visibility' is-defined='yes'/>
    <elf-symbol name='_ZNSt14_Function_base13_Base_managerISt5_BindIFSt7_Mem_fnIMN5mongo4repl19ReplicationExecutorEFvRKNS3_8executor20RemoteCommandRequestERKNS3_10StatusWithINS6_21RemoteCommandResponseEEERKNS6_12TaskExecutor14CallbackHandleEmRKSt8functionIFvRKNSF_25RemoteCommandCallbackArgsEEEEEPS5_S7_St12_PlaceholderILi1EESG_mSO_EEE15_M_init_functorERSt9_Any_dataOSY_' type='func-type' binding='weak-binding' visibility='default-visibility' is-defined='yes'/>
    <elf-symbol name='_ZNSt14_Function_base13_Base_managerISt5_BindIFSt7_Mem_fnIMN5mongo4repl19ReplicationExecutorEFvRKNS3_8executor20RemoteCommandRequestERKNS3_10StatusWithINS6_21RemoteCommandResponseEEERKNS6_12TaskExecutor14CallbackHandleEmRKSt8functionIFvRKNSF_25RemoteCommandCallbackArgsEEEEEPS5_S7_St12_PlaceholderILi1EESG_mSO_EEE15_M_init_functorERSt9_Any_dataOSY_St17integral_constantIbLb0EE' type='func-type' binding='weak-binding' visibility='default-visibility' is-defined='yes'/>
    <elf-symbol name='_ZNSt14_Function_base13_Base_managerISt5_BindIFSt7_Mem_fnIMN5mongo4repl19ReplicationExecutorEFvRKNS3_8executor20RemoteCommandRequestERKNS3_10StatusWithINS6_21RemoteCommandResponseEEERKNS6_12TaskExecutor14CallbackHandleEmRKSt8functionIFvRKNSF_25RemoteCommandCallbackArgsEEEEEPS5_S7_St12_PlaceholderILi1EESG_mSO_EEE21_M_not_empty_functionISY_EEbRKT_' type='func-type' binding='weak-binding' visibility='default-visibility' is-defined='yes'/>
    <elf-symbol name='_ZNSt14_Function_base13_Base_managerISt5_BindIFSt7_Mem_fnIMN5mongo4repl19ReplicationExecutorEFvRKNS3_8executor20RemoteCommandRequestERKNS3_10StatusWithINS6_21RemoteCommandResponseEEERKNS6_12TaskExecutor14CallbackHandleEmRKSt8functionIFvRKNSF_25RemoteCommandCallbackArgsEEEEEPS5_S7_St12_PlaceholderILi1EESG_mSO_EEE8_M_cloneERSt9_Any_dataRKS10_St17integral_constantIbLb0EE' type='func-type' binding='weak-binding' visibility='default-visibility' is-defined='yes'/>
    <elf-symbol name='_ZNSt14_Function_base13_Base_managerISt5_BindIFSt8functionIFvRKN5mongo8executor12TaskExecutor12CallbackArgsEEES6_EEE10_M_destroyERSt9_Any_dataSt17integral_constantIbLb0EE' type='func-type' binding='weak-binding' visibility='default-visibility' is-defined='yes'/>
    <elf-symbol name='_ZNSt14_Function_base13_Base_managerISt5_BindIFSt8functionIFvRKN5mongo8executor12TaskExecutor12CallbackArgsEEES6_EEE10_M_managerERSt9_Any_dataRKSE_St18_Manager_operation' type='func-type' binding='weak-binding' visibility='default-visibility' is-defined='yes'/>
    <elf-symbol name='_ZNSt14_Function_base13_Base_managerISt5_BindIFSt8functionIFvRKN5mongo8executor12TaskExecutor12CallbackArgsEEES6_EEE14_M_get_pointerERKSt9_Any_data' type='func-type' binding='weak-binding' visibility='default-visibility' is-defined='yes'/>
    <elf-symbol name='_ZNSt14_Function_base13_Base_managerISt5_BindIFSt8functionIFvRKN5mongo8executor12TaskExecutor12CallbackArgsEEES6_EEE15_M_init_functorERSt9_Any_dataOSC_' type='func-type' binding='weak-binding' visibility='default-visibility' is-defined='yes'/>
    <elf-symbol name='_ZNSt14_Function_base13_Base_managerISt5_BindIFSt8functionIFvRKN5mongo8executor12TaskExecutor12CallbackArgsEEES6_EEE15_M_init_functorERSt9_Any_dataOSC_St17integral_constantIbLb0EE' type='func-type' binding='weak-binding' visibility='default-visibility' is-defined='yes'/>
    <elf-symbol name='_ZNSt14_Function_base13_Base_managerISt5_BindIFSt8functionIFvRKN5mongo8executor12TaskExecutor12CallbackArgsEEES6_EEE21_M_not_empty_functionISC_EEbRKT_' type='func-type' binding='weak-binding' visibility='default-visibility' is-defined='yes'/>
    <elf-symbol name='_ZNSt14_Function_base13_Base_managerISt5_BindIFSt8functionIFvRKN5mongo8executor12TaskExecutor12CallbackArgsEEES6_EEE8_M_cloneERSt9_Any_dataRKSE_St17integral_constantIbLb0EE' type='func-type' binding='weak-binding' visibility='default-visibility' is-defined='yes'/>
    <elf-symbol name='_ZNSt14_Function_baseC2Ev' type='func-type' binding='weak-binding' visibility='default-visibility' is-defined='yes'/>
    <elf-symbol name='_ZNSt14_Function_baseD2Ev' type='func-type' binding='weak-binding' visibility='default-visibility' is-defined='yes'/>
    <elf-symbol name='_ZNSt14_List_iteratorIN5mongo4repl19ReplicationExecutor8WorkItemEEC2EPNSt8__detail15_List_node_baseE' type='func-type' binding='weak-binding' visibility='default-visibility' is-defined='yes'/>
    <elf-symbol name='_ZNSt14_List_iteratorIN5mongo4repl19ReplicationExecutor8WorkItemEEppEv' type='func-type' binding='weak-binding' visibility='default-visibility' is-defined='yes'/>
    <elf-symbol name='_ZNSt14_List_iteratorIN5mongo8executor12TaskExecutor11EventHandleEEC2EPNSt8__detail15_List_node_baseE' type='func-type' binding='weak-binding' visibility='default-visibility' is-defined='yes'/>
    <elf-symbol name='_ZNSt14_List_iteratorIN5mongo8executor12TaskExecutor11EventHandleEEmmEv' type='func-type' binding='weak-binding' visibility='default-visibility' is-defined='yes'/>
    <elf-symbol name='_ZNSt14_List_iteratorIN5mongo8executor12TaskExecutor11EventHandleEEppEv' type='func-type' binding='weak-binding' visibility='default-visibility' is-defined='yes'/>
    <elf-symbol name='_ZNSt14_Sp_ebo_helperILi0ESaIN5mongo4repl19ReplicationExecutor5EventEELb1EE6_S_getERS5_' type='func-type' binding='weak-binding' visibility='default-visibility' is-defined='yes'/>
    <elf-symbol name='_ZNSt14_Sp_ebo_helperILi0ESaIN5mongo4repl19ReplicationExecutor5EventEELb1EEC2ERKS4_' type='func-type' binding='weak-binding' visibility='default-visibility' is-defined='yes'/>
    <elf-symbol name='_ZNSt14_Sp_ebo_helperILi0ESaIN5mongo4repl19ReplicationExecutor5EventEELb1EED2Ev' type='func-type' binding='weak-binding' visibility='default-visibility' is-defined='yes'/>
    <elf-symbol name='_ZNSt14__shared_countILN9__gnu_cxx12_Lock_policyE2EE7_M_swapERS2_' type='func-type' binding='weak-binding' visibility='default-visibility' is-defined='yes'/>
    <elf-symbol name='_ZNSt14__shared_countILN9__gnu_cxx12_Lock_policyE2EEC2ERKS2_' type='func-type' binding='weak-binding' visibility='default-visibility' is-defined='yes'/>
    <elf-symbol name='_ZNSt14__shared_countILN9__gnu_cxx12_Lock_policyE2EEC2Ev' type='func-type' binding='weak-binding' visibility='default-visibility' is-defined='yes'/>
    <elf-symbol name='_ZNSt14__shared_countILN9__gnu_cxx12_Lock_policyE2EEC2IN5mongo4repl19ReplicationExecutor5EventESaIS7_EJPS6_RSt14_List_iteratorINS4_8executor12TaskExecutor11EventHandleEEEEESt19_Sp_make_shared_tagPT_RKT0_DpOT1_' type='func-type' binding='weak-binding' visibility='default-visibility' is-defined='yes'/>
    <elf-symbol name='_ZNSt14__shared_countILN9__gnu_cxx12_Lock_policyE2EEC2IPN5mongo4repl19ReplicationExecutor8CallbackEEET_' type='func-type' binding='weak-binding' visibility='default-visibility' is-defined='yes'/>
    <elf-symbol name='_ZNSt14__shared_countILN9__gnu_cxx12_Lock_policyE2EED2Ev' type='func-type' binding='weak-binding' visibility='default-visibility' is-defined='yes'/>
    <elf-symbol name='_ZNSt14__shared_countILN9__gnu_cxx12_Lock_policyE2EEaSERKS2_' type='func-type' binding='weak-binding' visibility='default-visibility' is-defined='yes'/>
    <elf-symbol name='_ZNSt15_Sp_counted_ptrIPN5mongo4repl19ReplicationExecutor8CallbackELN9__gnu_cxx12_Lock_policyE2EE10_M_destroyEv' type='func-type' binding='weak-binding' visibility='default-visibility' is-defined='yes'/>
    <elf-symbol name='_ZNSt15_Sp_counted_ptrIPN5mongo4repl19ReplicationExecutor8CallbackELN9__gnu_cxx12_Lock_policyE2EE10_M_disposeEv' type='func-type' binding='weak-binding' visibility='default-visibility' is-defined='yes'/>
    <elf-symbol name='_ZNSt15_Sp_counted_ptrIPN5mongo4repl19ReplicationExecutor8CallbackELN9__gnu_cxx12_Lock_policyE2EE14_M_get_deleterERKSt9type_info' type='func-type' binding='weak-binding' visibility='default-visibility' is-defined='yes'/>
    <elf-symbol name='_ZNSt15_Sp_counted_ptrIPN5mongo4repl19ReplicationExecutor8CallbackELN9__gnu_cxx12_Lock_policyE2EEC2ES4_' type='func-type' binding='weak-binding' visibility='default-visibility' is-defined='yes'/>
    <elf-symbol name='_ZNSt15_Sp_counted_ptrIPN5mongo4repl19ReplicationExecutor8CallbackELN9__gnu_cxx12_Lock_policyE2EED0Ev' type='func-type' binding='weak-binding' visibility='default-visibility' is-defined='yes'/>
    <elf-symbol name='_ZNSt15_Sp_counted_ptrIPN5mongo4repl19ReplicationExecutor8CallbackELN9__gnu_cxx12_Lock_policyE2EED2Ev' type='func-type' binding='weak-binding' visibility='default-visibility' is-defined='yes'/>
    <elf-symbol name='_ZNSt16_Sp_counted_baseILN9__gnu_cxx12_Lock_policyE2EE10_M_destroyEv' type='func-type' binding='weak-binding' visibility='default-visibility' is-defined='yes'/>
    <elf-symbol name='_ZNSt16_Sp_counted_baseILN9__gnu_cxx12_Lock_policyE2EE10_M_releaseEv' type='func-type' binding='weak-binding' visibility='default-visibility' is-defined='yes'/>
    <elf-symbol name='_ZNSt16_Sp_counted_baseILN9__gnu_cxx12_Lock_policyE2EE15_M_add_ref_copyEv' type='func-type' binding='weak-binding' visibility='default-visibility' is-defined='yes'/>
    <elf-symbol name='_ZNSt16_Sp_counted_baseILN9__gnu_cxx12_Lock_policyE2EEC2Ev' type='func-type' binding='weak-binding' visibility='default-visibility' is-defined='yes'/>
    <elf-symbol name='_ZNSt16_Sp_counted_baseILN9__gnu_cxx12_Lock_policyE2EED0Ev' type='func-type' binding='weak-binding' visibility='default-visibility' is-defined='yes'/>
    <elf-symbol name='_ZNSt16_Sp_counted_baseILN9__gnu_cxx12_Lock_policyE2EED2Ev' type='func-type' binding='weak-binding' visibility='default-visibility' is-defined='yes'/>
    <elf-symbol name='_ZNSt16allocator_traitsISaIN5mongo4repl19ReplicationExecutor5EventEEE10_S_destroyIS3_EENSt9enable_ifIXsr6__and_INS5_16__destroy_helperIT_E4typeEEE5valueEvE4typeERS4_PS9_' type='func-type' binding='weak-binding' visibility='default-visibility' is-defined='yes'/>
    <elf-symbol name='_ZNSt16allocator_traitsISaIN5mongo4repl19ReplicationExecutor5EventEEE12_S_constructIS3_JPS2_RSt14_List_iteratorINS0_8executor12TaskExecutor11EventHandleEEEEENSt9enable_ifIXsr6__and_INS5_18__construct_helperIT_JDpT0_EE4typeEEE5valueEvE4typeERS4_PSG_DpOSH_' type='func-type' binding='weak-binding' visibility='default-visibility' is-defined='yes'/>
    <elf-symbol name='_ZNSt16allocator_traitsISaIN5mongo4repl19ReplicationExecutor5EventEEE7destroyIS3_EEvRS4_PT_' type='func-type' binding='weak-binding' visibility='default-visibility' is-defined='yes'/>
    <elf-symbol name='_ZNSt16allocator_traitsISaIN5mongo4repl19ReplicationExecutor5EventEEE9constructIS3_JPS2_RSt14_List_iteratorINS0_8executor12TaskExecutor11EventHandleEEEEEDTcl12_S_constructfp_fp0_spclsr3stdE7forwardIT0_Efp1_EEERS4_PT_DpOSE_' type='func-type' binding='weak-binding' visibility='default-visibility' is-defined='yes'/>
    <elf-symbol name='_ZNSt16allocator_traitsISaIN5mongo8executor12TaskExecutor14CallbackHandleEEE10_S_destroyIS3_EENSt9enable_ifIXsr6__and_INS5_16__destroy_helperIT_E4typeEEE5valueEvE4typeERS4_PS9_' type='func-type' binding='weak-binding' visibility='default-visibility' is-defined='yes'/>
    <elf-symbol name='_ZNSt16allocator_traitsISaIN5mongo8executor12TaskExecutor14CallbackHandleEEE10deallocateERS4_PS3_m' type='func-type' binding='weak-binding' visibility='default-visibility' is-defined='yes'/>
    <elf-symbol name='_ZNSt16allocator_traitsISaIN5mongo8executor12TaskExecutor14CallbackHandleEEE11_S_max_sizeIKS4_vEEmRT_i' type='func-type' binding='weak-binding' visibility='default-visibility' is-defined='yes'/>
    <elf-symbol name='_ZNSt16allocator_traitsISaIN5mongo8executor12TaskExecutor14CallbackHandleEEE12_S_constructIS3_JRKS3_EEENSt9enable_ifIXsr6__and_INS5_18__construct_helperIT_JDpT0_EE4typeEEE5valueEvE4typeERS4_PSB_DpOSC_' type='func-type' binding='weak-binding' visibility='default-visibility' is-defined='yes'/>
    <elf-symbol name='_ZNSt16allocator_traitsISaIN5mongo8executor12TaskExecutor14CallbackHandleEEE7destroyIS3_EEvRS4_PT_' type='func-type' binding='weak-binding' visibility='default-visibility' is-defined='yes'/>
    <elf-symbol name='_ZNSt16allocator_traitsISaIN5mongo8executor12TaskExecutor14CallbackHandleEEE8allocateERS4_m' type='func-type' binding='weak-binding' visibility='default-visibility' is-defined='yes'/>
    <elf-symbol name='_ZNSt16allocator_traitsISaIN5mongo8executor12TaskExecutor14CallbackHandleEEE8max_sizeERKS4_' type='func-type' binding='weak-binding' visibility='default-visibility' is-defined='yes'/>
    <elf-symbol name='_ZNSt16allocator_traitsISaIN5mongo8executor12TaskExecutor14CallbackHandleEEE9constructIS3_JRKS3_EEEDTcl12_S_constructfp_fp0_spclsr3stdE7forwardIT0_Efp1_EEERS4_PT_DpOS9_' type='func-type' binding='weak-binding' visibility='default-visibility' is-defined='yes'/>
    <elf-symbol name='_ZNSt16allocator_traitsISaIN5mongo8executor20RemoteCommandRequestEEE10deallocateERS3_PS2_m' type='func-type' binding='weak-binding' visibility='default-visibility' is-defined='yes'/>
    <elf-symbol name='_ZNSt16allocator_traitsISaISt23_Sp_counted_ptr_inplaceIN5mongo4repl19ReplicationExecutor5EventESaIS4_ELN9__gnu_cxx12_Lock_policyE2EEEE10_S_destroyIS8_EENSt9enable_ifIXsr6__and_INSA_16__destroy_helperIT_E4typeEEE5valueEvE4typeERS9_PSE_' type='func-type' binding='weak-binding' visibility='default-visibility' is-defined='yes'/>
    <elf-symbol name='_ZNSt16allocator_traitsISaISt23_Sp_counted_ptr_inplaceIN5mongo4repl19ReplicationExecutor5EventESaIS4_ELN9__gnu_cxx12_Lock_policyE2EEEE10deallocateERS9_PS8_m' type='func-type' binding='weak-binding' visibility='default-visibility' is-defined='yes'/>
    <elf-symbol name='_ZNSt16allocator_traitsISaISt23_Sp_counted_ptr_inplaceIN5mongo4repl19ReplicationExecutor5EventESaIS4_ELN9__gnu_cxx12_Lock_policyE2EEEE12_S_constructIS8_JKS5_PS3_RSt14_List_iteratorINS1_8executor12TaskExecutor11EventHandleEEEEENSt9enable_ifIXsr6__and_INSA_18__construct_helperIT_JDpT0_EE4typeEEE5valueEvE4typeERS9_PSM_DpOSN_' type='func-type' binding='weak-binding' visibility='default-visibility' is-defined='yes'/>
    <elf-symbol name='_ZNSt16allocator_traitsISaISt23_Sp_counted_ptr_inplaceIN5mongo4repl19ReplicationExecutor5EventESaIS4_ELN9__gnu_cxx12_Lock_policyE2EEEE7destroyIS8_EEvRS9_PT_' type='func-type' binding='weak-binding' visibility='default-visibility' is-defined='yes'/>
    <elf-symbol name='_ZNSt16allocator_traitsISaISt23_Sp_counted_ptr_inplaceIN5mongo4repl19ReplicationExecutor5EventESaIS4_ELN9__gnu_cxx12_Lock_policyE2EEEE8allocateERS9_m' type='func-type' binding='weak-binding' visibility='default-visibility' is-defined='yes'/>
    <elf-symbol name='_ZNSt16allocator_traitsISaISt23_Sp_counted_ptr_inplaceIN5mongo4repl19ReplicationExecutor5EventESaIS4_ELN9__gnu_cxx12_Lock_policyE2EEEE9constructIS8_JKS5_PS3_RSt14_List_iteratorINS1_8executor12TaskExecutor11EventHandleEEEEEDTcl12_S_constructfp_fp0_spclsr3stdE7forwardIT0_Efp1_EEERS9_PT_DpOSK_' type='func-type' binding='weak-binding' visibility='default-visibility' is-defined='yes'/>
    <elf-symbol name='_ZNSt17_Function_handlerIFPN5mongo16OperationContextEvESt5_BindIFSt7_Mem_fnIMNS0_4repl16StorageInterfaceEFS2_vEEPS7_EEE9_M_invokeERKSt9_Any_data' type='func-type' binding='weak-binding' visibility='default-visibility' is-defined='yes'/>
    <elf-symbol name='_ZNSt17_Function_handlerIFvRKN5mongo10StatusWithINS0_8executor21RemoteCommandResponseEEEESt5_BindIFSt7_Mem_fnIMNS0_4repl19ReplicationExecutorEFvRKNS2_20RemoteCommandRequestES6_RKNS2_12TaskExecutor14CallbackHandleEmRKSt8functionIFvRKNSF_25RemoteCommandCallbackArgsEEEEEPSB_SC_St12_PlaceholderILi1EESG_mSO_EEE9_M_invokeERKSt9_Any_dataS6_' type='func-type' binding='weak-binding' visibility='default-visibility' is-defined='yes'/>
    <elf-symbol name='_ZNSt17_Function_handlerIFvRKN5mongo8executor12TaskExecutor12CallbackArgsEESt5_BindIFPFvS5_PNS0_4repl19ScatterGatherRunnerEPNS0_10StatusWithINS2_11EventHandleEEEESt12_PlaceholderILi1EESA_SE_EEE9_M_invokeERKSt9_Any_dataS5_' type='func-type' binding='weak-binding' visibility='default-visibility' is-defined='yes'/>
    <elf-symbol name='_ZNSt17_Function_handlerIFvRKN5mongo8executor12TaskExecutor12CallbackArgsEESt5_BindIFPFvS5_RKSt8functionIFvRKNS2_25RemoteCommandCallbackArgsEEERKNS1_20RemoteCommandRequestEESt12_PlaceholderILi1EESD_SG_EEE9_M_invokeERKSt9_Any_dataS5_' type='func-type' binding='weak-binding' visibility='default-visibility' is-defined='yes'/>
    <elf-symbol name='_ZNSt17_Function_handlerIFvRKN5mongo8executor12TaskExecutor12CallbackArgsEESt5_BindIFPFvS5_RKSt8functionIFvRKNS2_25RemoteCommandCallbackArgsEEERKNS1_20RemoteCommandRequestERKNS0_10StatusWithINS1_21RemoteCommandResponseEEEESt12_PlaceholderILi1EESD_SG_SL_EEE9_M_invokeERKSt9_Any_dataS5_' type='func-type' binding='weak-binding' visibility='default-visibility' is-defined='yes'/>
    <elf-symbol name='_ZNSt17_Function_handlerIFvRKN5mongo8executor12TaskExecutor25RemoteCommandCallbackArgsEESt5_BindIFPFvS5_PNS0_4repl19ScatterGatherRunnerEESt12_PlaceholderILi1EESA_EEE9_M_invokeERKSt9_Any_dataS5_' type='func-type' binding='weak-binding' visibility='default-visibility' is-defined='yes'/>
    <elf-symbol name='_ZNSt17_Function_handlerIFvvESt5_BindIFPFvRKSt8functionIS0_EES3_EEE9_M_invokeERKSt9_Any_data' type='func-type' binding='weak-binding' visibility='default-visibility' is-defined='yes'/>
    <elf-symbol name='_ZNSt17_Function_handlerIFvvESt5_BindIFS1_IFSt7_Mem_fnIMN5mongo4repl19ReplicationExecutorEFvPNS3_16OperationContextERKNS3_6StatusERKNS3_8executor12TaskExecutor14CallbackHandleEPSt4listINS5_8WorkItemESaISH_EEPSt5mutexEEPS5_St12_PlaceholderILi1EESR_ILi2EESD_SK_DnEES7_S8_EEE9_M_invokeERKSt9_Any_data' type='func-type' binding='weak-binding' visibility='default-visibility' is-defined='yes'/>
    <elf-symbol name='_ZNSt17_Function_handlerIFvvESt5_BindIFS1_IFSt7_Mem_fnIMN5mongo4repl19ReplicationExecutorEFvPNS3_16OperationContextERKNS3_6StatusERKNS3_8executor12TaskExecutor14CallbackHandleEPSt4listINS5_8WorkItemESaISH_EEPSt5mutexEEPS5_St12_PlaceholderILi1EESR_ILi2EESD_SK_SM_EES7_S8_EEE9_M_invokeERKSt9_Any_data' type='func-type' binding='weak-binding' visibility='default-visibility' is-defined='yes'/>
    <elf-symbol name='_ZNSt17_Function_handlerIFvvESt5_BindIFSt8functionIFvRKN5mongo8executor12TaskExecutor12CallbackArgsEEES6_EEE9_M_invokeERKSt9_Any_data' type='func-type' binding='weak-binding' visibility='default-visibility' is-defined='yes'/>
    <elf-symbol name='_ZNSt20_List_const_iteratorIN5mongo4repl19ReplicationExecutor8WorkItemEEC2EPKNSt8__detail15_List_node_baseE' type='func-type' binding='weak-binding' visibility='default-visibility' is-defined='yes'/>
    <elf-symbol name='_ZNSt20_List_const_iteratorIN5mongo4repl19ReplicationExecutor8WorkItemEEC2ERKSt14_List_iteratorIS3_E' type='func-type' binding='weak-binding' visibility='default-visibility' is-defined='yes'/>
    <elf-symbol name='_ZNSt20_List_const_iteratorIN5mongo4repl19ReplicationExecutor8WorkItemEEppEv' type='func-type' binding='weak-binding' visibility='default-visibility' is-defined='yes'/>
    <elf-symbol name='_ZNSt20_List_const_iteratorIN5mongo8executor12TaskExecutor11EventHandleEEC2EPKNSt8__detail15_List_node_baseE' type='func-type' binding='weak-binding' visibility='default-visibility' is-defined='yes'/>
    <elf-symbol name='_ZNSt20_List_const_iteratorIN5mongo8executor12TaskExecutor11EventHandleEEC2ERKSt14_List_iteratorIS3_E' type='func-type' binding='weak-binding' visibility='default-visibility' is-defined='yes'/>
    <elf-symbol name='_ZNSt20_List_const_iteratorIN5mongo8executor12TaskExecutor11EventHandleEEppEv' type='func-type' binding='weak-binding' visibility='default-visibility' is-defined='yes'/>
    <elf-symbol name='_ZNSt20__uninitialized_copyILb0EE13__uninit_copyISt13move_iteratorIPN5mongo8executor12TaskExecutor14CallbackHandleEES7_EET0_T_SA_S9_' type='func-type' binding='weak-binding' visibility='default-visibility' is-defined='yes'/>
    <elf-symbol name='_ZNSt23_Sp_counted_ptr_inplaceIN5mongo4repl19ReplicationExecutor5EventESaIS3_ELN9__gnu_cxx12_Lock_policyE2EE10_M_destroyEv' type='func-type' binding='weak-binding' visibility='default-visibility' is-defined='yes'/>
    <elf-symbol name='_ZNSt23_Sp_counted_ptr_inplaceIN5mongo4repl19ReplicationExecutor5EventESaIS3_ELN9__gnu_cxx12_Lock_policyE2EE10_M_disposeEv' type='func-type' binding='weak-binding' visibility='default-visibility' is-defined='yes'/>
    <elf-symbol name='_ZNSt23_Sp_counted_ptr_inplaceIN5mongo4repl19ReplicationExecutor5EventESaIS3_ELN9__gnu_cxx12_Lock_policyE2EE14_M_get_deleterERKSt9type_info' type='func-type' binding='weak-binding' visibility='default-visibility' is-defined='yes'/>
    <elf-symbol name='_ZNSt23_Sp_counted_ptr_inplaceIN5mongo4repl19ReplicationExecutor5EventESaIS3_ELN9__gnu_cxx12_Lock_policyE2EE5_Impl8_M_allocEv' type='func-type' binding='weak-binding' visibility='default-visibility' is-defined='yes'/>
    <elf-symbol name='_ZNSt23_Sp_counted_ptr_inplaceIN5mongo4repl19ReplicationExecutor5EventESaIS3_ELN9__gnu_cxx12_Lock_policyE2EE5_ImplC2ES4_' type='func-type' binding='weak-binding' visibility='default-visibility' is-defined='yes'/>
    <elf-symbol name='_ZNSt23_Sp_counted_ptr_inplaceIN5mongo4repl19ReplicationExecutor5EventESaIS3_ELN9__gnu_cxx12_Lock_policyE2EE5_ImplD2Ev' type='func-type' binding='weak-binding' visibility='default-visibility' is-defined='yes'/>
    <elf-symbol name='_ZNSt23_Sp_counted_ptr_inplaceIN5mongo4repl19ReplicationExecutor5EventESaIS3_ELN9__gnu_cxx12_Lock_policyE2EE6_M_ptrEv' type='func-type' binding='weak-binding' visibility='default-visibility' is-defined='yes'/>
    <elf-symbol name='_ZNSt23_Sp_counted_ptr_inplaceIN5mongo4repl19ReplicationExecutor5EventESaIS3_ELN9__gnu_cxx12_Lock_policyE2EEC2IJPS2_RSt14_List_iteratorINS0_8executor12TaskExecutor11EventHandleEEEEES4_DpOT_' type='func-type' binding='weak-binding' visibility='default-visibility' is-defined='yes'/>
    <elf-symbol name='_ZNSt23_Sp_counted_ptr_inplaceIN5mongo4repl19ReplicationExecutor5EventESaIS3_ELN9__gnu_cxx12_Lock_policyE2EED0Ev' type='func-type' binding='weak-binding' visibility='default-visibility' is-defined='yes'/>
    <elf-symbol name='_ZNSt23_Sp_counted_ptr_inplaceIN5mongo4repl19ReplicationExecutor5EventESaIS3_ELN9__gnu_cxx12_Lock_policyE2EED2Ev' type='func-type' binding='weak-binding' visibility='default-visibility' is-defined='yes'/>
    <elf-symbol name='_ZNSt26_Maybe_wrap_member_pointerIMN5mongo4repl16StorageInterfaceEFPNS0_16OperationContextEvEE9__do_wrapES6_' type='func-type' binding='weak-binding' visibility='default-visibility' is-defined='yes'/>
    <elf-symbol name='_ZNSt26_Maybe_wrap_member_pointerIMN5mongo4repl19ReplicationExecutorEFvPNS0_16OperationContextERKNS0_6StatusERKNS0_8executor12TaskExecutor14CallbackHandleEPSt4listINS2_8WorkItemESaISE_EEPSt5mutexEE9__do_wrapESL_' type='func-type' binding='weak-binding' visibility='default-visibility' is-defined='yes'/>
    <elf-symbol name='_ZNSt26_Maybe_wrap_member_pointerIMN5mongo4repl19ReplicationExecutorEFvRKNS0_8executor12TaskExecutor14CallbackHandleEEE9__do_wrapES9_' type='func-type' binding='weak-binding' visibility='default-visibility' is-defined='yes'/>
    <elf-symbol name='_ZNSt26_Maybe_wrap_member_pointerIMN5mongo4repl19ReplicationExecutorEFvRKNS0_8executor20RemoteCommandRequestERKNS0_10StatusWithINS3_21RemoteCommandResponseEEERKNS3_12TaskExecutor14CallbackHandleEmRKSt8functionIFvRKNSC_25RemoteCommandCallbackArgsEEEEE9__do_wrapESP_' type='func-type' binding='weak-binding' visibility='default-visibility' is-defined='yes'/>
    <elf-symbol name='_ZNSt26_Maybe_wrap_member_pointerIPFvRKN5mongo8executor12TaskExecutor12CallbackArgsEPNS0_4repl19ScatterGatherRunnerEPNS0_10StatusWithINS2_11EventHandleEEEEE9__do_wrapEOSE_' type='func-type' binding='weak-binding' visibility='default-visibility' is-defined='yes'/>
    <elf-symbol name='_ZNSt26_Maybe_wrap_member_pointerIPFvRKN5mongo8executor12TaskExecutor12CallbackArgsERKSt8functionIFvRKNS2_25RemoteCommandCallbackArgsEEERKNS1_20RemoteCommandRequestEEE9__do_wrapEOSI_' type='func-type' binding='weak-binding' visibility='default-visibility' is-defined='yes'/>
    <elf-symbol name='_ZNSt26_Maybe_wrap_member_pointerIPFvRKN5mongo8executor12TaskExecutor12CallbackArgsERKSt8functionIFvRKNS2_25RemoteCommandCallbackArgsEEERKNS1_20RemoteCommandRequestERKNS0_10StatusWithINS1_21RemoteCommandResponseEEEEE9__do_wrapEOSN_' type='func-type' binding='weak-binding' visibility='default-visibility' is-defined='yes'/>
    <elf-symbol name='_ZNSt26_Maybe_wrap_member_pointerIPFvRKN5mongo8executor12TaskExecutor25RemoteCommandCallbackArgsEPNS0_4repl19ScatterGatherRunnerEEE9__do_wrapEOSA_' type='func-type' binding='weak-binding' visibility='default-visibility' is-defined='yes'/>
    <elf-symbol name='_ZNSt26_Maybe_wrap_member_pointerIPFvRKSt8functionIFvvEEEE9__do_wrapEOS6_' type='func-type' binding='weak-binding' visibility='default-visibility' is-defined='yes'/>
    <elf-symbol name='_ZNSt26_Maybe_wrap_member_pointerISt5_BindIFSt7_Mem_fnIMN5mongo4repl19ReplicationExecutorEFvPNS2_16OperationContextERKNS2_6StatusERKNS2_8executor12TaskExecutor14CallbackHandleEPSt4listINS4_8WorkItemESaISG_EEPSt5mutexEEPS4_St12_PlaceholderILi1EESQ_ILi2EESC_SJ_DnEEE9__do_wrapERKSU_' type='func-type' binding='weak-binding' visibility='default-visibility' is-defined='yes'/>
    <elf-symbol name='_ZNSt26_Maybe_wrap_member_pointerISt5_BindIFSt7_Mem_fnIMN5mongo4repl19ReplicationExecutorEFvPNS2_16OperationContextERKNS2_6StatusERKNS2_8executor12TaskExecutor14CallbackHandleEPSt4listINS4_8WorkItemESaISG_EEPSt5mutexEEPS4_St12_PlaceholderILi1EESQ_ILi2EESC_SJ_SL_EEE9__do_wrapERKSU_' type='func-type' binding='weak-binding' visibility='default-visibility' is-defined='yes'/>
    <elf-symbol name='_ZNSt26_Maybe_wrap_member_pointerISt8functionIFvRKN5mongo8executor12TaskExecutor12CallbackArgsEEEE9__do_wrapERKS8_' type='func-type' binding='weak-binding' visibility='default-visibility' is-defined='yes'/>
    <elf-symbol name='_ZNSt4listIN5mongo4repl19ReplicationExecutor8WorkItemESaIS3_EE10push_frontEOS3_' type='func-type' binding='weak-binding' visibility='default-visibility' is-defined='yes'/>
    <elf-symbol name='_ZNSt4listIN5mongo4repl19ReplicationExecutor8WorkItemESaIS3_EE11_M_transferESt14_List_iteratorIS3_ES7_S7_' type='func-type' binding='weak-binding' visibility='default-visibility' is-defined='yes'/>
    <elf-symbol name='_ZNSt4listIN5mongo4repl19ReplicationExecutor8WorkItemESaIS3_EE14_M_create_nodeIJS3_EEEPSt10_List_nodeIS3_EDpOT_' type='func-type' binding='weak-binding' visibility='default-visibility' is-defined='yes'/>
    <elf-symbol name='_ZNSt4listIN5mongo4repl19ReplicationExecutor8WorkItemESaIS3_EE25_M_check_equal_allocatorsERS5_' type='func-type' binding='weak-binding' visibility='default-visibility' is-defined='yes'/>
    <elf-symbol name='_ZNSt4listIN5mongo4repl19ReplicationExecutor8WorkItemESaIS3_EE3endEv' type='func-type' binding='weak-binding' visibility='default-visibility' is-defined='yes'/>
    <elf-symbol name='_ZNSt4listIN5mongo4repl19ReplicationExecutor8WorkItemESaIS3_EE5beginEv' type='func-type' binding='weak-binding' visibility='default-visibility' is-defined='yes'/>
    <elf-symbol name='_ZNSt4listIN5mongo4repl19ReplicationExecutor8WorkItemESaIS3_EE6spliceESt20_List_const_iteratorIS3_EOS5_' type='func-type' binding='weak-binding' visibility='default-visibility' is-defined='yes'/>
    <elf-symbol name='_ZNSt4listIN5mongo4repl19ReplicationExecutor8WorkItemESaIS3_EE6spliceESt20_List_const_iteratorIS3_EOS5_S7_' type='func-type' binding='weak-binding' visibility='default-visibility' is-defined='yes'/>
    <elf-symbol name='_ZNSt4listIN5mongo4repl19ReplicationExecutor8WorkItemESaIS3_EE6spliceESt20_List_const_iteratorIS3_EOS5_S7_S7_' type='func-type' binding='weak-binding' visibility='default-visibility' is-defined='yes'/>
    <elf-symbol name='_ZNSt4listIN5mongo4repl19ReplicationExecutor8WorkItemESaIS3_EE6spliceESt20_List_const_iteratorIS3_ERS5_' type='func-type' binding='weak-binding' visibility='default-visibility' is-defined='yes'/>
    <elf-symbol name='_ZNSt4listIN5mongo4repl19ReplicationExecutor8WorkItemESaIS3_EE6spliceESt20_List_const_iteratorIS3_ERS5_S7_' type='func-type' binding='weak-binding' visibility='default-visibility' is-defined='yes'/>
    <elf-symbol name='_ZNSt4listIN5mongo4repl19ReplicationExecutor8WorkItemESaIS3_EE6spliceESt20_List_const_iteratorIS3_ERS5_S7_S7_' type='func-type' binding='weak-binding' visibility='default-visibility' is-defined='yes'/>
    <elf-symbol name='_ZNSt4listIN5mongo4repl19ReplicationExecutor8WorkItemESaIS3_EE9_M_insertIJS3_EEEvSt14_List_iteratorIS3_EDpOT_' type='func-type' binding='weak-binding' visibility='default-visibility' is-defined='yes'/>
    <elf-symbol name='_ZNSt4listIN5mongo4repl19ReplicationExecutor8WorkItemESaIS3_EEC2Ev' type='func-type' binding='weak-binding' visibility='default-visibility' is-defined='yes'/>
    <elf-symbol name='_ZNSt4listIN5mongo4repl19ReplicationExecutor8WorkItemESaIS3_EED2Ev' type='func-type' binding='weak-binding' visibility='default-visibility' is-defined='yes'/>
    <elf-symbol name='_ZNSt4listIN5mongo8executor12TaskExecutor11EventHandleESaIS3_EE12emplace_backIJEEEvDpOT_' type='func-type' binding='weak-binding' visibility='default-visibility' is-defined='yes'/>
    <elf-symbol name='_ZNSt4listIN5mongo8executor12TaskExecutor11EventHandleESaIS3_EE14_M_create_nodeIJEEEPSt10_List_nodeIS3_EDpOT_' type='func-type' binding='weak-binding' visibility='default-visibility' is-defined='yes'/>
    <elf-symbol name='_ZNSt4listIN5mongo8executor12TaskExecutor11EventHandleESaIS3_EE3endEv' type='func-type' binding='weak-binding' visibility='default-visibility' is-defined='yes'/>
    <elf-symbol name='_ZNSt4listIN5mongo8executor12TaskExecutor11EventHandleESaIS3_EE4backEv' type='func-type' binding='weak-binding' visibility='default-visibility' is-defined='yes'/>
    <elf-symbol name='_ZNSt4listIN5mongo8executor12TaskExecutor11EventHandleESaIS3_EE5beginEv' type='func-type' binding='weak-binding' visibility='default-visibility' is-defined='yes'/>
    <elf-symbol name='_ZNSt4listIN5mongo8executor12TaskExecutor11EventHandleESaIS3_EE5eraseESt20_List_const_iteratorIS3_E' type='func-type' binding='weak-binding' visibility='default-visibility' is-defined='yes'/>
    <elf-symbol name='_ZNSt4listIN5mongo8executor12TaskExecutor11EventHandleESaIS3_EE8_M_eraseESt14_List_iteratorIS3_E' type='func-type' binding='weak-binding' visibility='default-visibility' is-defined='yes'/>
    <elf-symbol name='_ZNSt4listIN5mongo8executor12TaskExecutor11EventHandleESaIS3_EE9_M_insertIJEEEvSt14_List_iteratorIS3_EDpOT_' type='func-type' binding='weak-binding' visibility='default-visibility' is-defined='yes'/>
    <elf-symbol name='_ZNSt4listIN5mongo8executor12TaskExecutor11EventHandleESaIS3_EEC2Ev' type='func-type' binding='weak-binding' visibility='default-visibility' is-defined='yes'/>
    <elf-symbol name='_ZNSt4listIN5mongo8executor12TaskExecutor11EventHandleESaIS3_EED2Ev' type='func-type' binding='weak-binding' visibility='default-visibility' is-defined='yes'/>
    <elf-symbol name='_ZNSt4pairIN5mongo4repl19ReplicationExecutor8WorkItemENS0_8executor12TaskExecutor14CallbackHandleEEC2ERKS3_RKS6_' type='func-type' binding='weak-binding' visibility='default-visibility' is-defined='yes'/>
    <elf-symbol name='_ZNSt4pairIN5mongo4repl19ReplicationExecutor8WorkItemENS0_8executor12TaskExecutor14CallbackHandleEEC2Ev' type='func-type' binding='weak-binding' visibility='default-visibility' is-defined='yes'/>
    <elf-symbol name='_ZNSt4pairIN5mongo4repl19ReplicationExecutor8WorkItemENS0_8executor12TaskExecutor14CallbackHandleEEC2IS3_S6_vEEOT_OT0_' type='func-type' binding='weak-binding' visibility='default-visibility' is-defined='yes'/>
    <elf-symbol name='_ZNSt4pairIN5mongo4repl19ReplicationExecutor8WorkItemENS0_8executor12TaskExecutor14CallbackHandleEED2Ev' type='func-type' binding='weak-binding' visibility='default-visibility' is-defined='yes'/>
    <elf-symbol name='_ZNSt4pairIN5mongo4repl19ReplicationExecutor8WorkItemENS0_8executor12TaskExecutor14CallbackHandleEEaSEOS7_' type='func-type' binding='weak-binding' visibility='default-visibility' is-defined='yes'/>
    <elf-symbol name='_ZNSt5_BindIFPFvRKN5mongo8executor12TaskExecutor12CallbackArgsEPNS0_4repl19ScatterGatherRunnerEPNS0_10StatusWithINS2_11EventHandleEEEESt12_PlaceholderILi1EES8_SC_EE6__callIvJS5_EJLm0ELm1ELm2EEEET_OSt5tupleIJDpT0_EESt12_Index_tupleIJXspT1_EEE' type='func-type' binding='weak-binding' visibility='default-visibility' is-defined='yes'/>
    <elf-symbol name='_ZNSt5_BindIFPFvRKN5mongo8executor12TaskExecutor12CallbackArgsEPNS0_4repl19ScatterGatherRunnerEPNS0_10StatusWithINS2_11EventHandleEEEESt12_PlaceholderILi1EES8_SC_EEC2EOSI_' type='func-type' binding='weak-binding' visibility='default-visibility' is-defined='yes'/>
    <elf-symbol name='_ZNSt5_BindIFPFvRKN5mongo8executor12TaskExecutor12CallbackArgsEPNS0_4repl19ScatterGatherRunnerEPNS0_10StatusWithINS2_11EventHandleEEEESt12_PlaceholderILi1EES8_SC_EEC2IJRKSG_S8_SC_EEEOSE_DpOT_' type='func-type' binding='weak-binding' visibility='default-visibility' is-defined='yes'/>
    <elf-symbol name='_ZNSt5_BindIFPFvRKN5mongo8executor12TaskExecutor12CallbackArgsEPNS0_4repl19ScatterGatherRunnerEPNS0_10StatusWithINS2_11EventHandleEEEESt12_PlaceholderILi1EES8_SC_EEclIJS5_EvEET0_DpOT_' type='func-type' binding='weak-binding' visibility='default-visibility' is-defined='yes'/>
    <elf-symbol name='_ZNSt5_BindIFPFvRKN5mongo8executor12TaskExecutor12CallbackArgsERKSt8functionIFvRKNS2_25RemoteCommandCallbackArgsEEERKNS1_20RemoteCommandRequestEESt12_PlaceholderILi1EESB_SE_EE6__callIvJS5_EJLm0ELm1ELm2EEEET_OSt5tupleIJDpT0_EESt12_Index_tupleIJXspT1_EEE' type='func-type' binding='weak-binding' visibility='default-visibility' is-defined='yes'/>
    <elf-symbol name='_ZNSt5_BindIFPFvRKN5mongo8executor12TaskExecutor12CallbackArgsERKSt8functionIFvRKNS2_25RemoteCommandCallbackArgsEEERKNS1_20RemoteCommandRequestEESt12_PlaceholderILi1EESB_SE_EEC2EOSM_' type='func-type' binding='weak-binding' visibility='default-visibility' is-defined='yes'/>
    <elf-symbol name='_ZNSt5_BindIFPFvRKN5mongo8executor12TaskExecutor12CallbackArgsERKSt8functionIFvRKNS2_25RemoteCommandCallbackArgsEEERKNS1_20RemoteCommandRequestEESt12_PlaceholderILi1EESB_SE_EEC2ERKSM_' type='func-type' binding='weak-binding' visibility='default-visibility' is-defined='yes'/>
    <elf-symbol name='_ZNSt5_BindIFPFvRKN5mongo8executor12TaskExecutor12CallbackArgsERKSt8functionIFvRKNS2_25RemoteCommandCallbackArgsEEERKNS1_20RemoteCommandRequestEESt12_PlaceholderILi1EESB_SE_EEC2IJRKSK_SD_RSE_EEEOSI_DpOT_' type='func-type' binding='weak-binding' visibility='default-visibility' is-defined='yes'/>
    <elf-symbol name='_ZNSt5_BindIFPFvRKN5mongo8executor12TaskExecutor12CallbackArgsERKSt8functionIFvRKNS2_25RemoteCommandCallbackArgsEEERKNS1_20RemoteCommandRequestEESt12_PlaceholderILi1EESB_SE_EED2Ev' type='func-type' binding='weak-binding' visibility='default-visibility' is-defined='yes'/>
    <elf-symbol name='_ZNSt5_BindIFPFvRKN5mongo8executor12TaskExecutor12CallbackArgsERKSt8functionIFvRKNS2_25RemoteCommandCallbackArgsEEERKNS1_20RemoteCommandRequestEESt12_PlaceholderILi1EESB_SE_EEclIJS5_EvEET0_DpOT_' type='func-type' binding='weak-binding' visibility='default-visibility' is-defined='yes'/>
    <elf-symbol name='_ZNSt5_BindIFPFvRKN5mongo8executor12TaskExecutor12CallbackArgsERKSt8functionIFvRKNS2_25RemoteCommandCallbackArgsEEERKNS1_20RemoteCommandRequestERKNS0_10StatusWithINS1_21RemoteCommandResponseEEEESt12_PlaceholderILi1EESB_SE_SJ_EE6__callIvJS5_EJLm0ELm1ELm2ELm3EEEET_OSt5tupleIJDpT0_EESt12_Index_tupleIJXspT1_EEE' type='func-type' binding='weak-binding' visibility='default-visibility' is-defined='yes'/>
    <elf-symbol name='_ZNSt5_BindIFPFvRKN5mongo8executor12TaskExecutor12CallbackArgsERKSt8functionIFvRKNS2_25RemoteCommandCallbackArgsEEERKNS1_20RemoteCommandRequestERKNS0_10StatusWithINS1_21RemoteCommandResponseEEEESt12_PlaceholderILi1EESB_SE_SJ_EEC2EOSR_' type='func-type' binding='weak-binding' visibility='default-visibility' is-defined='yes'/>
    <elf-symbol name='_ZNSt5_BindIFPFvRKN5mongo8executor12TaskExecutor12CallbackArgsERKSt8functionIFvRKNS2_25RemoteCommandCallbackArgsEEERKNS1_20RemoteCommandRequestERKNS0_10StatusWithINS1_21RemoteCommandResponseEEEESt12_PlaceholderILi1EESB_SE_SJ_EEC2ERKSR_' type='func-type' binding='weak-binding' visibility='default-visibility' is-defined='yes'/>
    <elf-symbol name='_ZNSt5_BindIFPFvRKN5mongo8executor12TaskExecutor12CallbackArgsERKSt8functionIFvRKNS2_25RemoteCommandCallbackArgsEEERKNS1_20RemoteCommandRequestERKNS0_10StatusWithINS1_21RemoteCommandResponseEEEESt12_PlaceholderILi1EESB_SE_SJ_EEC2IJRKSP_SD_SG_SL_EEEOSN_DpOT_' type='func-type' binding='weak-binding' visibility='default-visibility' is-defined='yes'/>
    <elf-symbol name='_ZNSt5_BindIFPFvRKN5mongo8executor12TaskExecutor12CallbackArgsERKSt8functionIFvRKNS2_25RemoteCommandCallbackArgsEEERKNS1_20RemoteCommandRequestERKNS0_10StatusWithINS1_21RemoteCommandResponseEEEESt12_PlaceholderILi1EESB_SE_SJ_EED2Ev' type='func-type' binding='weak-binding' visibility='default-visibility' is-defined='yes'/>
    <elf-symbol name='_ZNSt5_BindIFPFvRKN5mongo8executor12TaskExecutor12CallbackArgsERKSt8functionIFvRKNS2_25RemoteCommandCallbackArgsEEERKNS1_20RemoteCommandRequestERKNS0_10StatusWithINS1_21RemoteCommandResponseEEEESt12_PlaceholderILi1EESB_SE_SJ_EEclIJS5_EvEET0_DpOT_' type='func-type' binding='weak-binding' visibility='default-visibility' is-defined='yes'/>
    <elf-symbol name='_ZNSt5_BindIFPFvRKN5mongo8executor12TaskExecutor25RemoteCommandCallbackArgsEPNS0_4repl19ScatterGatherRunnerEESt12_PlaceholderILi1EES8_EE6__callIvJS5_EJLm0ELm1EEEET_OSt5tupleIJDpT0_EESt12_Index_tupleIJXspT1_EEE' type='func-type' binding='weak-binding' visibility='default-visibility' is-defined='yes'/>
    <elf-symbol name='_ZNSt5_BindIFPFvRKN5mongo8executor12TaskExecutor25RemoteCommandCallbackArgsEPNS0_4repl19ScatterGatherRunnerEESt12_PlaceholderILi1EES8_EEC2EOSE_' type='func-type' binding='weak-binding' visibility='default-visibility' is-defined='yes'/>
    <elf-symbol name='_ZNSt5_BindIFPFvRKN5mongo8executor12TaskExecutor25RemoteCommandCallbackArgsEPNS0_4repl19ScatterGatherRunnerEESt12_PlaceholderILi1EES8_EEC2IJRKSC_S8_EEEOSA_DpOT_' type='func-type' binding='weak-binding' visibility='default-visibility' is-defined='yes'/>
    <elf-symbol name='_ZNSt5_BindIFPFvRKN5mongo8executor12TaskExecutor25RemoteCommandCallbackArgsEPNS0_4repl19ScatterGatherRunnerEESt12_PlaceholderILi1EES8_EEclIJS5_EvEET0_DpOT_' type='func-type' binding='weak-binding' visibility='default-visibility' is-defined='yes'/>
    <elf-symbol name='_ZNSt5_BindIFPFvRKSt8functionIFvvEEES2_EE6__callIvJEJLm0EEEET_OSt5tupleIJDpT0_EESt12_Index_tupleIJXspT1_EEE' type='func-type' binding='weak-binding' visibility='default-visibility' is-defined='yes'/>
    <elf-symbol name='_ZNSt5_BindIFPFvRKSt8functionIFvvEEES2_EEC2EOS8_' type='func-type' binding='weak-binding' visibility='default-visibility' is-defined='yes'/>
    <elf-symbol name='_ZNSt5_BindIFPFvRKSt8functionIFvvEEES2_EEC2ERKS8_' type='func-type' binding='weak-binding' visibility='default-visibility' is-defined='yes'/>
    <elf-symbol name='_ZNSt5_BindIFPFvRKSt8functionIFvvEEES2_EEC2IJS4_EEEOS6_DpOT_' type='func-type' binding='weak-binding' visibility='default-visibility' is-defined='yes'/>
    <elf-symbol name='_ZNSt5_BindIFPFvRKSt8functionIFvvEEES2_EED2Ev' type='func-type' binding='weak-binding' visibility='default-visibility' is-defined='yes'/>
    <elf-symbol name='_ZNSt5_BindIFPFvRKSt8functionIFvvEEES2_EEclIJEvEET0_DpOT_' type='func-type' binding='weak-binding' visibility='default-visibility' is-defined='yes'/>
    <elf-symbol name='_ZNSt5_BindIFS_IFSt7_Mem_fnIMN5mongo4repl19ReplicationExecutorEFvPNS1_16OperationContextERKNS1_6StatusERKNS1_8executor12TaskExecutor14CallbackHandleEPSt4listINS3_8WorkItemESaISF_EEPSt5mutexEEPS3_St12_PlaceholderILi1EESP_ILi2EESB_SI_DnEES5_S6_EE6__callIvJEJLm0ELm1EEEET_OSt5tupleIJDpT0_EESt12_Index_tupleIJXspT1_EEE' type='func-type' binding='weak-binding' visibility='default-visibility' is-defined='yes'/>
    <elf-symbol name='_ZNSt5_BindIFS_IFSt7_Mem_fnIMN5mongo4repl19ReplicationExecutorEFvPNS1_16OperationContextERKNS1_6StatusERKNS1_8executor12TaskExecutor14CallbackHandleEPSt4listINS3_8WorkItemESaISF_EEPSt5mutexEEPS3_St12_PlaceholderILi1EESP_ILi2EESB_SI_DnEES5_S6_EEC2EOSV_' type='func-type' binding='weak-binding' visibility='default-visibility' is-defined='yes'/>
    <elf-symbol name='_ZNSt5_BindIFS_IFSt7_Mem_fnIMN5mongo4repl19ReplicationExecutorEFvPNS1_16OperationContextERKNS1_6StatusERKNS1_8executor12TaskExecutor14CallbackHandleEPSt4listINS3_8WorkItemESaISF_EEPSt5mutexEEPS3_St12_PlaceholderILi1EESP_ILi2EESB_SI_DnEES5_S6_EEC2ERKSV_' type='func-type' binding='weak-binding' visibility='default-visibility' is-defined='yes'/>
    <elf-symbol name='_ZNSt5_BindIFS_IFSt7_Mem_fnIMN5mongo4repl19ReplicationExecutorEFvPNS1_16OperationContextERKNS1_6StatusERKNS1_8executor12TaskExecutor14CallbackHandleEPSt4listINS3_8WorkItemESaISF_EEPSt5mutexEEPS3_St12_PlaceholderILi1EESP_ILi2EESB_SI_DnEES5_S6_EEC2IJRS5_S8_EEERKST_DpOT_' type='func-type' binding='weak-binding' visibility='default-visibility' is-defined='yes'/>
    <elf-symbol name='_ZNSt5_BindIFS_IFSt7_Mem_fnIMN5mongo4repl19ReplicationExecutorEFvPNS1_16OperationContextERKNS1_6StatusERKNS1_8executor12TaskExecutor14CallbackHandleEPSt4listINS3_8WorkItemESaISF_EEPSt5mutexEEPS3_St12_PlaceholderILi1EESP_ILi2EESB_SI_DnEES5_S6_EED2Ev' type='func-type' binding='weak-binding' visibility='default-visibility' is-defined='yes'/>
    <elf-symbol name='_ZNSt5_BindIFS_IFSt7_Mem_fnIMN5mongo4repl19ReplicationExecutorEFvPNS1_16OperationContextERKNS1_6StatusERKNS1_8executor12TaskExecutor14CallbackHandleEPSt4listINS3_8WorkItemESaISF_EEPSt5mutexEEPS3_St12_PlaceholderILi1EESP_ILi2EESB_SI_DnEES5_S6_EEclIJEvEET0_DpOT_' type='func-type' binding='weak-binding' visibility='default-visibility' is-defined='yes'/>
    <elf-symbol name='_ZNSt5_BindIFS_IFSt7_Mem_fnIMN5mongo4repl19ReplicationExecutorEFvPNS1_16OperationContextERKNS1_6StatusERKNS1_8executor12TaskExecutor14CallbackHandleEPSt4listINS3_8WorkItemESaISF_EEPSt5mutexEEPS3_St12_PlaceholderILi1EESP_ILi2EESB_SI_SK_EES5_S6_EE6__callIvJEJLm0ELm1EEEET_OSt5tupleIJDpT0_EESt12_Index_tupleIJXspT1_EEE' type='func-type' binding='weak-binding' visibility='default-visibility' is-defined='yes'/>
    <elf-symbol name='_ZNSt5_BindIFS_IFSt7_Mem_fnIMN5mongo4repl19ReplicationExecutorEFvPNS1_16OperationContextERKNS1_6StatusERKNS1_8executor12TaskExecutor14CallbackHandleEPSt4listINS3_8WorkItemESaISF_EEPSt5mutexEEPS3_St12_PlaceholderILi1EESP_ILi2EESB_SI_SK_EES5_S6_EEC2EOSV_' type='func-type' binding='weak-binding' visibility='default-visibility' is-defined='yes'/>
    <elf-symbol name='_ZNSt5_BindIFS_IFSt7_Mem_fnIMN5mongo4repl19ReplicationExecutorEFvPNS1_16OperationContextERKNS1_6StatusERKNS1_8executor12TaskExecutor14CallbackHandleEPSt4listINS3_8WorkItemESaISF_EEPSt5mutexEEPS3_St12_PlaceholderILi1EESP_ILi2EESB_SI_SK_EES5_S6_EEC2ERKSV_' type='func-type' binding='weak-binding' visibility='default-visibility' is-defined='yes'/>
    <elf-symbol name='_ZNSt5_BindIFS_IFSt7_Mem_fnIMN5mongo4repl19ReplicationExecutorEFvPNS1_16OperationContextERKNS1_6StatusERKNS1_8executor12TaskExecutor14CallbackHandleEPSt4listINS3_8WorkItemESaISF_EEPSt5mutexEEPS3_St12_PlaceholderILi1EESP_ILi2EESB_SI_SK_EES5_S6_EEC2IJRS5_S8_EEERKST_DpOT_' type='func-type' binding='weak-binding' visibility='default-visibility' is-defined='yes'/>
    <elf-symbol name='_ZNSt5_BindIFS_IFSt7_Mem_fnIMN5mongo4repl19ReplicationExecutorEFvPNS1_16OperationContextERKNS1_6StatusERKNS1_8executor12TaskExecutor14CallbackHandleEPSt4listINS3_8WorkItemESaISF_EEPSt5mutexEEPS3_St12_PlaceholderILi1EESP_ILi2EESB_SI_SK_EES5_S6_EED2Ev' type='func-type' binding='weak-binding' visibility='default-visibility' is-defined='yes'/>
    <elf-symbol name='_ZNSt5_BindIFS_IFSt7_Mem_fnIMN5mongo4repl19ReplicationExecutorEFvPNS1_16OperationContextERKNS1_6StatusERKNS1_8executor12TaskExecutor14CallbackHandleEPSt4listINS3_8WorkItemESaISF_EEPSt5mutexEEPS3_St12_PlaceholderILi1EESP_ILi2EESB_SI_SK_EES5_S6_EEclIJEvEET0_DpOT_' type='func-type' binding='weak-binding' visibility='default-visibility' is-defined='yes'/>
    <elf-symbol name='_ZNSt5_BindIFSt7_Mem_fnIMN5mongo4repl16StorageInterfaceEFPNS1_16OperationContextEvEEPS3_EE6__callIS5_JEJLm0EEEET_OSt5tupleIJDpT0_EESt12_Index_tupleIJXspT1_EEE' type='func-type' binding='weak-binding' visibility='default-visibility' is-defined='yes'/>
    <elf-symbol name='_ZNSt5_BindIFSt7_Mem_fnIMN5mongo4repl16StorageInterfaceEFPNS1_16OperationContextEvEEPS3_EEC2EOSB_' type='func-type' binding='weak-binding' visibility='default-visibility' is-defined='yes'/>
    <elf-symbol name='_ZNSt5_BindIFSt7_Mem_fnIMN5mongo4repl16StorageInterfaceEFPNS1_16OperationContextEvEEPS3_EEC2IJRS9_EEEOS8_DpOT_' type='func-type' binding='weak-binding' visibility='default-visibility' is-defined='yes'/>
    <elf-symbol name='_ZNSt5_BindIFSt7_Mem_fnIMN5mongo4repl16StorageInterfaceEFPNS1_16OperationContextEvEEPS3_EEclIJES5_EET0_DpOT_' type='func-type' binding='weak-binding' visibility='default-visibility' is-defined='yes'/>
    <elf-symbol name='_ZNSt5_BindIFSt7_Mem_fnIMN5mongo4repl19ReplicationExecutorEFvPNS1_16OperationContextERKNS1_6StatusERKNS1_8executor12TaskExecutor14CallbackHandleEPSt4listINS3_8WorkItemESaISF_EEPSt5mutexEEPS3_St12_PlaceholderILi1EESP_ILi2EESB_SI_DnEE6__callIvJRS5_RS6_EJLm0ELm1ELm2ELm3ELm4ELm5EEEET_OSt5tupleIJDpT0_EESt12_Index_tupleIJXspT1_EEE' type='func-type' binding='weak-binding' visibility='default-visibility' is-defined='yes'/>
    <elf-symbol name='_ZNSt5_BindIFSt7_Mem_fnIMN5mongo4repl19ReplicationExecutorEFvPNS1_16OperationContextERKNS1_6StatusERKNS1_8executor12TaskExecutor14CallbackHandleEPSt4listINS3_8WorkItemESaISF_EEPSt5mutexEEPS3_St12_PlaceholderILi1EESP_ILi2EESB_SI_DnEEC2EOST_' type='func-type' binding='weak-binding' visibility='default-visibility' is-defined='yes'/>
    <elf-symbol name='_ZNSt5_BindIFSt7_Mem_fnIMN5mongo4repl19ReplicationExecutorEFvPNS1_16OperationContextERKNS1_6StatusERKNS1_8executor12TaskExecutor14CallbackHandleEPSt4listINS3_8WorkItemESaISF_EEPSt5mutexEEPS3_St12_PlaceholderILi1EESP_ILi2EESB_SI_DnEEC2ERKST_' type='func-type' binding='weak-binding' visibility='default-visibility' is-defined='yes'/>
    <elf-symbol name='_ZNSt5_BindIFSt7_Mem_fnIMN5mongo4repl19ReplicationExecutorEFvPNS1_16OperationContextERKNS1_6StatusERKNS1_8executor12TaskExecutor14CallbackHandleEPSt4listINS3_8WorkItemESaISF_EEPSt5mutexEEPS3_St12_PlaceholderILi1EESP_ILi2EESB_SI_DnEEC2IJSO_RKSQ_RKSR_RSB_SI_DnEEEOSN_DpOT_' type='func-type' binding='weak-binding' visibility='default-visibility' is-defined='yes'/>
    <elf-symbol name='_ZNSt5_BindIFSt7_Mem_fnIMN5mongo4repl19ReplicationExecutorEFvPNS1_16OperationContextERKNS1_6StatusERKNS1_8executor12TaskExecutor14CallbackHandleEPSt4listINS3_8WorkItemESaISF_EEPSt5mutexEEPS3_St12_PlaceholderILi1EESP_ILi2EESB_SI_DnEED2Ev' type='func-type' binding='weak-binding' visibility='default-visibility' is-defined='yes'/>
    <elf-symbol name='_ZNSt5_BindIFSt7_Mem_fnIMN5mongo4repl19ReplicationExecutorEFvPNS1_16OperationContextERKNS1_6StatusERKNS1_8executor12TaskExecutor14CallbackHandleEPSt4listINS3_8WorkItemESaISF_EEPSt5mutexEEPS3_St12_PlaceholderILi1EESP_ILi2EESB_SI_DnEEclIJRS5_RS6_EvEET0_DpOT_' type='func-type' binding='weak-binding' visibility='default-visibility' is-defined='yes'/>
    <elf-symbol name='_ZNSt5_BindIFSt7_Mem_fnIMN5mongo4repl19ReplicationExecutorEFvPNS1_16OperationContextERKNS1_6StatusERKNS1_8executor12TaskExecutor14CallbackHandleEPSt4listINS3_8WorkItemESaISF_EEPSt5mutexEEPS3_St12_PlaceholderILi1EESP_ILi2EESB_SI_SK_EE6__callIvJRS5_RS6_EJLm0ELm1ELm2ELm3ELm4ELm5EEEET_OSt5tupleIJDpT0_EESt12_Index_tupleIJXspT1_EEE' type='func-type' binding='weak-binding' visibility='default-visibility' is-defined='yes'/>
    <elf-symbol name='_ZNSt5_BindIFSt7_Mem_fnIMN5mongo4repl19ReplicationExecutorEFvPNS1_16OperationContextERKNS1_6StatusERKNS1_8executor12TaskExecutor14CallbackHandleEPSt4listINS3_8WorkItemESaISF_EEPSt5mutexEEPS3_St12_PlaceholderILi1EESP_ILi2EESB_SI_SK_EEC2EOST_' type='func-type' binding='weak-binding' visibility='default-visibility' is-defined='yes'/>
    <elf-symbol name='_ZNSt5_BindIFSt7_Mem_fnIMN5mongo4repl19ReplicationExecutorEFvPNS1_16OperationContextERKNS1_6StatusERKNS1_8executor12TaskExecutor14CallbackHandleEPSt4listINS3_8WorkItemESaISF_EEPSt5mutexEEPS3_St12_PlaceholderILi1EESP_ILi2EESB_SI_SK_EEC2ERKST_' type='func-type' binding='weak-binding' visibility='default-visibility' is-defined='yes'/>
    <elf-symbol name='_ZNSt5_BindIFSt7_Mem_fnIMN5mongo4repl19ReplicationExecutorEFvPNS1_16OperationContextERKNS1_6StatusERKNS1_8executor12TaskExecutor14CallbackHandleEPSt4listINS3_8WorkItemESaISF_EEPSt5mutexEEPS3_St12_PlaceholderILi1EESP_ILi2EESB_SI_SK_EEC2IJSO_RKSQ_RKSR_RSB_SI_SK_EEEOSN_DpOT_' type='func-type' binding='weak-binding' visibility='default-visibility' is-defined='yes'/>
    <elf-symbol name='_ZNSt5_BindIFSt7_Mem_fnIMN5mongo4repl19ReplicationExecutorEFvPNS1_16OperationContextERKNS1_6StatusERKNS1_8executor12TaskExecutor14CallbackHandleEPSt4listINS3_8WorkItemESaISF_EEPSt5mutexEEPS3_St12_PlaceholderILi1EESP_ILi2EESB_SI_SK_EED2Ev' type='func-type' binding='weak-binding' visibility='default-visibility' is-defined='yes'/>
    <elf-symbol name='_ZNSt5_BindIFSt7_Mem_fnIMN5mongo4repl19ReplicationExecutorEFvPNS1_16OperationContextERKNS1_6StatusERKNS1_8executor12TaskExecutor14CallbackHandleEPSt4listINS3_8WorkItemESaISF_EEPSt5mutexEEPS3_St12_PlaceholderILi1EESP_ILi2EESB_SI_SK_EEclIJRS5_RS6_EvEET0_DpOT_' type='func-type' binding='weak-binding' visibility='default-visibility' is-defined='yes'/>
    <elf-symbol name='_ZNSt5_BindIFSt7_Mem_fnIMN5mongo4repl19ReplicationExecutorEFvRKNS1_8executor12TaskExecutor14CallbackHandleEEEPS3_St12_PlaceholderILi1EEEE6__callIvJRS6_EJLm0ELm1EEEET_OSt5tupleIJDpT0_EESt12_Index_tupleIJXspT1_EEE' type='func-type' binding='weak-binding' visibility='default-visibility' is-defined='yes'/>
    <elf-symbol name='_ZNSt5_BindIFSt7_Mem_fnIMN5mongo4repl19ReplicationExecutorEFvRKNS1_8executor12TaskExecutor14CallbackHandleEEEPS3_St12_PlaceholderILi1EEEEC2EOSG_' type='func-type' binding='weak-binding' visibility='default-visibility' is-defined='yes'/>
    <elf-symbol name='_ZNSt5_BindIFSt7_Mem_fnIMN5mongo4repl19ReplicationExecutorEFvRKNS1_8executor12TaskExecutor14CallbackHandleEEEPS3_St12_PlaceholderILi1EEEEC2IJRSC_RKSE_EEEOSB_DpOT_' type='func-type' binding='weak-binding' visibility='default-visibility' is-defined='yes'/>
    <elf-symbol name='_ZNSt5_BindIFSt7_Mem_fnIMN5mongo4repl19ReplicationExecutorEFvRKNS1_8executor12TaskExecutor14CallbackHandleEEEPS3_St12_PlaceholderILi1EEEEclIJRS6_EvEET0_DpOT_' type='func-type' binding='weak-binding' visibility='default-visibility' is-defined='yes'/>
    <elf-symbol name='_ZNSt5_BindIFSt7_Mem_fnIMN5mongo4repl19ReplicationExecutorEFvRKNS1_8executor20RemoteCommandRequestERKNS1_10StatusWithINS4_21RemoteCommandResponseEEERKNS4_12TaskExecutor14CallbackHandleEmRKSt8functionIFvRKNSD_25RemoteCommandCallbackArgsEEEEEPS3_S5_St12_PlaceholderILi1EESE_mSM_EE6__callIvJSC_EJLm0ELm1ELm2ELm3ELm4ELm5EEEET_OSt5tupleIJDpT0_EESt12_Index_tupleIJXspT1_EEE' type='func-type' binding='weak-binding' visibility='default-visibility' is-defined='yes'/>
    <elf-symbol name='_ZNSt5_BindIFSt7_Mem_fnIMN5mongo4repl19ReplicationExecutorEFvRKNS1_8executor20RemoteCommandRequestERKNS1_10StatusWithINS4_21RemoteCommandResponseEEERKNS4_12TaskExecutor14CallbackHandleEmRKSt8functionIFvRKNSD_25RemoteCommandCallbackArgsEEEEEPS3_S5_St12_PlaceholderILi1EESE_mSM_EEC2EOSW_' type='func-type' binding='weak-binding' visibility='default-visibility' is-defined='yes'/>
    <elf-symbol name='_ZNSt5_BindIFSt7_Mem_fnIMN5mongo4repl19ReplicationExecutorEFvRKNS1_8executor20RemoteCommandRequestERKNS1_10StatusWithINS4_21RemoteCommandResponseEEERKNS4_12TaskExecutor14CallbackHandleEmRKSt8functionIFvRKNSD_25RemoteCommandCallbackArgsEEEEEPS3_S5_St12_PlaceholderILi1EESE_mSM_EEC2ERKSW_' type='func-type' binding='weak-binding' visibility='default-visibility' is-defined='yes'/>
    <elf-symbol name='_ZNSt5_BindIFSt7_Mem_fnIMN5mongo4repl19ReplicationExecutorEFvRKNS1_8executor20RemoteCommandRequestERKNS1_10StatusWithINS4_21RemoteCommandResponseEEERKNS4_12TaskExecutor14CallbackHandleEmRKSt8functionIFvRKNSD_25RemoteCommandCallbackArgsEEEEEPS3_S5_St12_PlaceholderILi1EESE_mSM_EEC2IJSS_RS5_RKSU_RSE_RmSO_EEEOSR_DpOT_' type='func-type' binding='weak-binding' visibility='default-visibility' is-defined='yes'/>
    <elf-symbol name='_ZNSt5_BindIFSt7_Mem_fnIMN5mongo4repl19ReplicationExecutorEFvRKNS1_8executor20RemoteCommandRequestERKNS1_10StatusWithINS4_21RemoteCommandResponseEEERKNS4_12TaskExecutor14CallbackHandleEmRKSt8functionIFvRKNSD_25RemoteCommandCallbackArgsEEEEEPS3_S5_St12_PlaceholderILi1EESE_mSM_EED2Ev' type='func-type' binding='weak-binding' visibility='default-visibility' is-defined='yes'/>
    <elf-symbol name='_ZNSt5_BindIFSt7_Mem_fnIMN5mongo4repl19ReplicationExecutorEFvRKNS1_8executor20RemoteCommandRequestERKNS1_10StatusWithINS4_21RemoteCommandResponseEEERKNS4_12TaskExecutor14CallbackHandleEmRKSt8functionIFvRKNSD_25RemoteCommandCallbackArgsEEEEEPS3_S5_St12_PlaceholderILi1EESE_mSM_EEclIJSC_EvEET0_DpOT_' type='func-type' binding='weak-binding' visibility='default-visibility' is-defined='yes'/>
    <elf-symbol name='_ZNSt5_BindIFSt8functionIFvRKN5mongo8executor12TaskExecutor12CallbackArgsEEES4_EE6__callIvJEJLm0EEEET_OSt5tupleIJDpT0_EESt12_Index_tupleIJXspT1_EEE' type='func-type' binding='weak-binding' visibility='default-visibility' is-defined='yes'/>
    <elf-symbol name='_ZNSt5_BindIFSt8functionIFvRKN5mongo8executor12TaskExecutor12CallbackArgsEEES4_EEC2EOSA_' type='func-type' binding='weak-binding' visibility='default-visibility' is-defined='yes'/>
    <elf-symbol name='_ZNSt5_BindIFSt8functionIFvRKN5mongo8executor12TaskExecutor12CallbackArgsEEES4_EEC2ERKSA_' type='func-type' binding='weak-binding' visibility='default-visibility' is-defined='yes'/>
    <elf-symbol name='_ZNSt5_BindIFSt8functionIFvRKN5mongo8executor12TaskExecutor12CallbackArgsEEES4_EEC2IJS4_EEERKS8_DpOT_' type='func-type' binding='weak-binding' visibility='default-visibility' is-defined='yes'/>
    <elf-symbol name='_ZNSt5_BindIFSt8functionIFvRKN5mongo8executor12TaskExecutor12CallbackArgsEEES4_EED2Ev' type='func-type' binding='weak-binding' visibility='default-visibility' is-defined='yes'/>
    <elf-symbol name='_ZNSt5_BindIFSt8functionIFvRKN5mongo8executor12TaskExecutor12CallbackArgsEEES4_EEclIJEvEET0_DpOT_' type='func-type' binding='weak-binding' visibility='default-visibility' is-defined='yes'/>
    <elf-symbol name='_ZNSt5mutex4lockEv' type='func-type' binding='weak-binding' visibility='default-visibility' is-defined='yes'/>
    <elf-symbol name='_ZNSt5mutex6unlockEv' type='func-type' binding='weak-binding' visibility='default-visibility' is-defined='yes'/>
    <elf-symbol name='_ZNSt5mutexC2Ev' type='func-type' binding='weak-binding' visibility='default-visibility' is-defined='yes'/>
    <elf-symbol name='_ZNSt5tupleIJN5mongo8executor12TaskExecutor12CallbackArgsEEEC2EOS4_' type='func-type' binding='weak-binding' visibility='default-visibility' is-defined='yes'/>
    <elf-symbol name='_ZNSt5tupleIJN5mongo8executor12TaskExecutor12CallbackArgsEEEC2ERKS4_' type='func-type' binding='weak-binding' visibility='default-visibility' is-defined='yes'/>
    <elf-symbol name='_ZNSt5tupleIJN5mongo8executor12TaskExecutor12CallbackArgsEEEC2IJS3_EvEEDpOT_' type='func-type' binding='weak-binding' visibility='default-visibility' is-defined='yes'/>
    <elf-symbol name='_ZNSt5tupleIJN5mongo8executor12TaskExecutor12CallbackArgsEEED2Ev' type='func-type' binding='weak-binding' visibility='default-visibility' is-defined='yes'/>
    <elf-symbol name='_ZNSt5tupleIJPN5mongo16OperationContextENS0_6StatusEEEC2EOS4_' type='func-type' binding='weak-binding' visibility='default-visibility' is-defined='yes'/>
    <elf-symbol name='_ZNSt5tupleIJPN5mongo16OperationContextENS0_6StatusEEEC2ERKS4_' type='func-type' binding='weak-binding' visibility='default-visibility' is-defined='yes'/>
    <elf-symbol name='_ZNSt5tupleIJPN5mongo16OperationContextENS0_6StatusEEEC2IRS2_RKS3_vEEOT_OT0_' type='func-type' binding='weak-binding' visibility='default-visibility' is-defined='yes'/>
    <elf-symbol name='_ZNSt5tupleIJPN5mongo16OperationContextENS0_6StatusEEED2Ev' type='func-type' binding='weak-binding' visibility='default-visibility' is-defined='yes'/>
    <elf-symbol name='_ZNSt5tupleIJPN5mongo4repl16StorageInterfaceEEEC2EOS4_' type='func-type' binding='weak-binding' visibility='default-visibility' is-defined='yes'/>
    <elf-symbol name='_ZNSt5tupleIJPN5mongo4repl16StorageInterfaceEEEC2IJRS3_EvEEDpOT_' type='func-type' binding='weak-binding' visibility='default-visibility' is-defined='yes'/>
    <elf-symbol name='_ZNSt5tupleIJPN5mongo4repl16StorageInterfaceESt14default_deleteIS2_EEEC2IRS3_S5_vEEOT_OT0_' type='func-type' binding='weak-binding' visibility='default-visibility' is-defined='yes'/>
    <elf-symbol name='_ZNSt5tupleIJPN5mongo4repl19ReplicationExecutorENS0_8executor20RemoteCommandRequestESt12_PlaceholderILi1EENS4_12TaskExecutor14CallbackHandleEmSt8functionIFvRKNS8_25RemoteCommandCallbackArgsEEEEEC2EOSG_' type='func-type' binding='weak-binding' visibility='default-visibility' is-defined='yes'/>
    <elf-symbol name='_ZNSt5tupleIJPN5mongo4repl19ReplicationExecutorENS0_8executor20RemoteCommandRequestESt12_PlaceholderILi1EENS4_12TaskExecutor14CallbackHandleEmSt8functionIFvRKNS8_25RemoteCommandCallbackArgsEEEEEC2ERKSG_' type='func-type' binding='weak-binding' visibility='default-visibility' is-defined='yes'/>
    <elf-symbol name='_ZNSt5tupleIJPN5mongo4repl19ReplicationExecutorENS0_8executor20RemoteCommandRequestESt12_PlaceholderILi1EENS4_12TaskExecutor14CallbackHandleEmSt8functionIFvRKNS8_25RemoteCommandCallbackArgsEEEEEC2IJS3_RS5_RKS7_RS9_RmRKSF_EvEEDpOT_' type='func-type' binding='weak-binding' visibility='default-visibility' is-defined='yes'/>
    <elf-symbol name='_ZNSt5tupleIJPN5mongo4repl19ReplicationExecutorENS0_8executor20RemoteCommandRequestESt12_PlaceholderILi1EENS4_12TaskExecutor14CallbackHandleEmSt8functionIFvRKNS8_25RemoteCommandCallbackArgsEEEEED2Ev' type='func-type' binding='weak-binding' visibility='default-visibility' is-defined='yes'/>
    <elf-symbol name='_ZNSt5tupleIJPN5mongo4repl19ReplicationExecutorESt12_PlaceholderILi1EEEEC2EOS6_' type='func-type' binding='weak-binding' visibility='default-visibility' is-defined='yes'/>
    <elf-symbol name='_ZNSt5tupleIJPN5mongo4repl19ReplicationExecutorESt12_PlaceholderILi1EEEEC2IRS3_RKS5_vEEOT_OT0_' type='func-type' binding='weak-binding' visibility='default-visibility' is-defined='yes'/>
    <elf-symbol name='_ZNSt5tupleIJPN5mongo4repl19ReplicationExecutorESt12_PlaceholderILi1EES4_ILi2EENS0_8executor12TaskExecutor14CallbackHandleEPSt4listINS2_8WorkItemESaISB_EEDnEEC2EOSF_' type='func-type' binding='weak-binding' visibility='default-visibility' is-defined='yes'/>
    <elf-symbol name='_ZNSt5tupleIJPN5mongo4repl19ReplicationExecutorESt12_PlaceholderILi1EES4_ILi2EENS0_8executor12TaskExecutor14CallbackHandleEPSt4listINS2_8WorkItemESaISB_EEDnEEC2ERKSF_' type='func-type' binding='weak-binding' visibility='default-visibility' is-defined='yes'/>
    <elf-symbol name='_ZNSt5tupleIJPN5mongo4repl19ReplicationExecutorESt12_PlaceholderILi1EES4_ILi2EENS0_8executor12TaskExecutor14CallbackHandleEPSt4listINS2_8WorkItemESaISB_EEDnEEC2IJS3_RKS5_RKS6_RS9_SE_DnEvEEDpOT_' type='func-type' binding='weak-binding' visibility='default-visibility' is-defined='yes'/>
    <elf-symbol name='_ZNSt5tupleIJPN5mongo4repl19ReplicationExecutorESt12_PlaceholderILi1EES4_ILi2EENS0_8executor12TaskExecutor14CallbackHandleEPSt4listINS2_8WorkItemESaISB_EEDnEED2Ev' type='func-type' binding='weak-binding' visibility='default-visibility' is-defined='yes'/>
    <elf-symbol name='_ZNSt5tupleIJPN5mongo4repl19ReplicationExecutorESt12_PlaceholderILi1EES4_ILi2EENS0_8executor12TaskExecutor14CallbackHandleEPSt4listINS2_8WorkItemESaISB_EEPSt5mutexEEC2EOSH_' type='func-type' binding='weak-binding' visibility='default-visibility' is-defined='yes'/>
    <elf-symbol name='_ZNSt5tupleIJPN5mongo4repl19ReplicationExecutorESt12_PlaceholderILi1EES4_ILi2EENS0_8executor12TaskExecutor14CallbackHandleEPSt4listINS2_8WorkItemESaISB_EEPSt5mutexEEC2ERKSH_' type='func-type' binding='weak-binding' visibility='default-visibility' is-defined='yes'/>
    <elf-symbol name='_ZNSt5tupleIJPN5mongo4repl19ReplicationExecutorESt12_PlaceholderILi1EES4_ILi2EENS0_8executor12TaskExecutor14CallbackHandleEPSt4listINS2_8WorkItemESaISB_EEPSt5mutexEEC2IJS3_RKS5_RKS6_RS9_SE_SG_EvEEDpOT_' type='func-type' binding='weak-binding' visibility='default-visibility' is-defined='yes'/>
    <elf-symbol name='_ZNSt5tupleIJPN5mongo4repl19ReplicationExecutorESt12_PlaceholderILi1EES4_ILi2EENS0_8executor12TaskExecutor14CallbackHandleEPSt4listINS2_8WorkItemESaISB_EEPSt5mutexEED2Ev' type='func-type' binding='weak-binding' visibility='default-visibility' is-defined='yes'/>
    <elf-symbol name='_ZNSt5tupleIJPN5mongo8executor16NetworkInterfaceESt14default_deleteIS2_EEEC2IRS3_S5_vEEOT_OT0_' type='func-type' binding='weak-binding' visibility='default-visibility' is-defined='yes'/>
    <elf-symbol name='_ZNSt5tupleIJPSt10lock_guardISt5mutexESt14default_deleteIS2_EEEC2IRS3_S5_vEEOT_OT0_' type='func-type' binding='weak-binding' visibility='default-visibility' is-defined='yes'/>
    <elf-symbol name='_ZNSt5tupleIJRKN5mongo10StatusWithINS0_8executor21RemoteCommandResponseEEEEEC2ES6_' type='func-type' binding='weak-binding' visibility='default-visibility' is-defined='yes'/>
    <elf-symbol name='_ZNSt5tupleIJRKN5mongo8executor12TaskExecutor12CallbackArgsEEEC2ES5_' type='func-type' binding='weak-binding' visibility='default-visibility' is-defined='yes'/>
    <elf-symbol name='_ZNSt5tupleIJRKN5mongo8executor12TaskExecutor25RemoteCommandCallbackArgsEEEC2ES5_' type='func-type' binding='weak-binding' visibility='default-visibility' is-defined='yes'/>
    <elf-symbol name='_ZNSt5tupleIJRN5mongo8executor12TaskExecutor14CallbackHandleEEEC2ES4_' type='func-type' binding='weak-binding' visibility='default-visibility' is-defined='yes'/>
    <elf-symbol name='_ZNSt5tupleIJRPN5mongo16OperationContextERNS0_6StatusEEEC2ES3_S5_' type='func-type' binding='weak-binding' visibility='default-visibility' is-defined='yes'/>
    <elf-symbol name='_ZNSt5tupleIJSt12_PlaceholderILi1EEPN5mongo4repl19ScatterGatherRunnerEEEC2EOS6_' type='func-type' binding='weak-binding' visibility='default-visibility' is-defined='yes'/>
    <elf-symbol name='_ZNSt5tupleIJSt12_PlaceholderILi1EEPN5mongo4repl19ScatterGatherRunnerEEEC2IRKS1_S5_vEEOT_OT0_' type='func-type' binding='weak-binding' visibility='default-visibility' is-defined='yes'/>
    <elf-symbol name='_ZNSt5tupleIJSt12_PlaceholderILi1EEPN5mongo4repl19ScatterGatherRunnerEPNS2_10StatusWithINS2_8executor12TaskExecutor11EventHandleEEEEEC2EOSC_' type='func-type' binding='weak-binding' visibility='default-visibility' is-defined='yes'/>
    <elf-symbol name='_ZNSt5tupleIJSt12_PlaceholderILi1EEPN5mongo4repl19ScatterGatherRunnerEPNS2_10StatusWithINS2_8executor12TaskExecutor11EventHandleEEEEEC2IJRKS1_S5_SB_EvEEDpOT_' type='func-type' binding='weak-binding' visibility='default-visibility' is-defined='yes'/>
    <elf-symbol name='_ZNSt5tupleIJSt12_PlaceholderILi1EESt8functionIFvRKN5mongo8executor12TaskExecutor25RemoteCommandCallbackArgsEEENS4_20RemoteCommandRequestEEEC2EOSC_' type='func-type' binding='weak-binding' visibility='default-visibility' is-defined='yes'/>
    <elf-symbol name='_ZNSt5tupleIJSt12_PlaceholderILi1EESt8functionIFvRKN5mongo8executor12TaskExecutor25RemoteCommandCallbackArgsEEENS4_20RemoteCommandRequestEEEC2ERKSC_' type='func-type' binding='weak-binding' visibility='default-visibility' is-defined='yes'/>
    <elf-symbol name='_ZNSt5tupleIJSt12_PlaceholderILi1EESt8functionIFvRKN5mongo8executor12TaskExecutor25RemoteCommandCallbackArgsEEENS4_20RemoteCommandRequestEEEC2IJRKS1_RKSA_RSB_EvEEDpOT_' type='func-type' binding='weak-binding' visibility='default-visibility' is-defined='yes'/>
    <elf-symbol name='_ZNSt5tupleIJSt12_PlaceholderILi1EESt8functionIFvRKN5mongo8executor12TaskExecutor25RemoteCommandCallbackArgsEEENS4_20RemoteCommandRequestEEED2Ev' type='func-type' binding='weak-binding' visibility='default-visibility' is-defined='yes'/>
    <elf-symbol name='_ZNSt5tupleIJSt12_PlaceholderILi1EESt8functionIFvRKN5mongo8executor12TaskExecutor25RemoteCommandCallbackArgsEEENS4_20RemoteCommandRequestENS3_10StatusWithINS4_21RemoteCommandResponseEEEEEC2EOSF_' type='func-type' binding='weak-binding' visibility='default-visibility' is-defined='yes'/>
    <elf-symbol name='_ZNSt5tupleIJSt12_PlaceholderILi1EESt8functionIFvRKN5mongo8executor12TaskExecutor25RemoteCommandCallbackArgsEEENS4_20RemoteCommandRequestENS3_10StatusWithINS4_21RemoteCommandResponseEEEEEC2ERKS1_RKSA_RKSB_RKSE_' type='func-type' binding='weak-binding' visibility='default-visibility' is-defined='yes'/>
    <elf-symbol name='_ZNSt5tupleIJSt12_PlaceholderILi1EESt8functionIFvRKN5mongo8executor12TaskExecutor25RemoteCommandCallbackArgsEEENS4_20RemoteCommandRequestENS3_10StatusWithINS4_21RemoteCommandResponseEEEEEC2ERKSF_' type='func-type' binding='weak-binding' visibility='default-visibility' is-defined='yes'/>
    <elf-symbol name='_ZNSt5tupleIJSt12_PlaceholderILi1EESt8functionIFvRKN5mongo8executor12TaskExecutor25RemoteCommandCallbackArgsEEENS4_20RemoteCommandRequestENS3_10StatusWithINS4_21RemoteCommandResponseEEEEED2Ev' type='func-type' binding='weak-binding' visibility='default-visibility' is-defined='yes'/>
    <elf-symbol name='_ZNSt5tupleIJSt8functionIFvvEEEEC2EOS3_' type='func-type' binding='weak-binding' visibility='default-visibility' is-defined='yes'/>
    <elf-symbol name='_ZNSt5tupleIJSt8functionIFvvEEEEC2ERKS2_' type='func-type' binding='weak-binding' visibility='default-visibility' is-defined='yes'/>
    <elf-symbol name='_ZNSt5tupleIJSt8functionIFvvEEEEC2ERKS3_' type='func-type' binding='weak-binding' visibility='default-visibility' is-defined='yes'/>
    <elf-symbol name='_ZNSt5tupleIJSt8functionIFvvEEEED2Ev' type='func-type' binding='weak-binding' visibility='default-visibility' is-defined='yes'/>
    <elf-symbol name='_ZNSt6chrono13duration_castINS_8durationIlSt5ratioILl1ELl1000EEEElS3_EENSt9enable_ifIXsr13__is_durationIT_EE5valueES6_E4typeERKNS1_IT0_T1_EE' type='func-type' binding='weak-binding' visibility='default-visibility' is-defined='yes'/>
    <elf-symbol name='_ZNSt6chrono20__duration_cast_implINS_8durationIlSt5ratioILl1ELl1000EEEES2_ILl1ELl1EElLb1ELb1EE6__castIlS3_EES4_RKNS1_IT_T0_EE' type='func-type' binding='weak-binding' visibility='default-visibility' is-defined='yes'/>
    <elf-symbol name='_ZNSt6chrono8durationIlSt5ratioILl1ELl1000EEEC2IlvEERKT_' type='func-type' binding='weak-binding' visibility='default-visibility' is-defined='yes'/>
    <elf-symbol name='_ZNSt6chrono8durationIlSt5ratioILl1ELl1000EEEC2IxvEERKT_' type='func-type' binding='weak-binding' visibility='default-visibility' is-defined='yes'/>
    <elf-symbol name='_ZNSt6chronoeqIlSt5ratioILl1ELl1000EElS2_EEbRKNS_8durationIT_T0_EERKNS3_IT1_T2_EE' type='func-type' binding='weak-binding' visibility='default-visibility' is-defined='yes'/>
    <elf-symbol name='_ZNSt6chronogtIlSt5ratioILl1ELl1000EElS2_EEbRKNS_8durationIT_T0_EERKNS3_IT1_T2_EE' type='func-type' binding='weak-binding' visibility='default-visibility' is-defined='yes'/>
    <elf-symbol name='_ZNSt6chronoltIlSt5ratioILl1ELl1000EElS2_EEbRKNS_8durationIT_T0_EERKNS3_IT1_T2_EE' type='func-type' binding='weak-binding' visibility='default-visibility' is-defined='yes'/>
    <elf-symbol name='_ZNSt6thread10_Impl_baseC2Ev' type='func-type' binding='weak-binding' visibility='default-visibility' is-defined='yes'/>
    <elf-symbol name='_ZNSt6thread10_Impl_baseD0Ev' type='func-type' binding='weak-binding' visibility='default-visibility' is-defined='yes'/>
    <elf-symbol name='_ZNSt6thread10_Impl_baseD2Ev' type='func-type' binding='weak-binding' visibility='default-visibility' is-defined='yes'/>
    <elf-symbol name='_ZNSt6thread2idC2Ev' type='func-type' binding='weak-binding' visibility='default-visibility' is-defined='yes'/>
    <elf-symbol name='_ZNSt6thread4swapERS_' type='func-type' binding='weak-binding' visibility='default-visibility' is-defined='yes'/>
    <elf-symbol name='_ZNSt6threadC2Ev' type='func-type' binding='weak-binding' visibility='default-visibility' is-defined='yes'/>
    <elf-symbol name='_ZNSt6threadD2Ev' type='func-type' binding='weak-binding' visibility='default-visibility' is-defined='yes'/>
    <elf-symbol name='_ZNSt6threadaSEOS_' type='func-type' binding='weak-binding' visibility='default-visibility' is-defined='yes'/>
    <elf-symbol name='_ZNSt6vectorIN5mongo8executor12TaskExecutor14CallbackHandleESaIS3_EE19_M_emplace_back_auxIJRKS3_EEEvDpOT_' type='func-type' binding='weak-binding' visibility='default-visibility' is-defined='yes'/>
    <elf-symbol name='_ZNSt6vectorIN5mongo8executor12TaskExecutor14CallbackHandleESaIS3_EE3endEv' type='func-type' binding='weak-binding' visibility='default-visibility' is-defined='yes'/>
    <elf-symbol name='_ZNSt6vectorIN5mongo8executor12TaskExecutor14CallbackHandleESaIS3_EE5beginEv' type='func-type' binding='weak-binding' visibility='default-visibility' is-defined='yes'/>
    <elf-symbol name='_ZNSt6vectorIN5mongo8executor12TaskExecutor14CallbackHandleESaIS3_EE9push_backERKS3_' type='func-type' binding='weak-binding' visibility='default-visibility' is-defined='yes'/>
    <elf-symbol name='_ZNSt6vectorIN5mongo8executor12TaskExecutor14CallbackHandleESaIS3_EEC2Ev' type='func-type' binding='weak-binding' visibility='default-visibility' is-defined='yes'/>
    <elf-symbol name='_ZNSt6vectorIN5mongo8executor12TaskExecutor14CallbackHandleESaIS3_EED2Ev' type='func-type' binding='weak-binding' visibility='default-visibility' is-defined='yes'/>
    <elf-symbol name='_ZNSt6vectorIN5mongo8executor20RemoteCommandRequestESaIS2_EED2Ev' type='func-type' binding='weak-binding' visibility='default-visibility' is-defined='yes'/>
    <elf-symbol name='_ZNSt6vectorIN5mongo8executor20RemoteCommandRequestESaIS2_EEixEm' type='func-type' binding='weak-binding' visibility='default-visibility' is-defined='yes'/>
    <elf-symbol name='_ZNSt7_Mem_fnIMN5mongo4repl16StorageInterfaceEFPNS0_16OperationContextEvEEC2ES6_' type='func-type' binding='weak-binding' visibility='default-visibility' is-defined='yes'/>
    <elf-symbol name='_ZNSt7_Mem_fnIMN5mongo4repl19ReplicationExecutorEFvPNS0_16OperationContextERKNS0_6StatusERKNS0_8executor12TaskExecutor14CallbackHandleEPSt4listINS2_8WorkItemESaISE_EEPSt5mutexEEC2ESL_' type='func-type' binding='weak-binding' visibility='default-visibility' is-defined='yes'/>
    <elf-symbol name='_ZNSt7_Mem_fnIMN5mongo4repl19ReplicationExecutorEFvRKNS0_8executor12TaskExecutor14CallbackHandleEEEC2ES9_' type='func-type' binding='weak-binding' visibility='default-visibility' is-defined='yes'/>
    <elf-symbol name='_ZNSt7_Mem_fnIMN5mongo4repl19ReplicationExecutorEFvRKNS0_8executor20RemoteCommandRequestERKNS0_10StatusWithINS3_21RemoteCommandResponseEEERKNS3_12TaskExecutor14CallbackHandleEmRKSt8functionIFvRKNSC_25RemoteCommandCallbackArgsEEEEEC2ESP_' type='func-type' binding='weak-binding' visibility='default-visibility' is-defined='yes'/>
    <elf-symbol name='_ZNSt8functionIFN5mongo4repl10TaskRunner10NextActionEPNS0_16OperationContextERKNS0_6StatusEEED2Ev' type='func-type' binding='weak-binding' visibility='default-visibility' is-defined='yes'/>
    <elf-symbol name='_ZNSt8functionIFPN5mongo16OperationContextEvEEC2ISt5_BindIFSt7_Mem_fnIMNS0_4repl16StorageInterfaceEFS2_vEEPS9_EEvEET_' type='func-type' binding='weak-binding' visibility='default-visibility' is-defined='yes'/>
    <elf-symbol name='_ZNSt8functionIFPN5mongo16OperationContextEvEED2Ev' type='func-type' binding='weak-binding' visibility='default-visibility' is-defined='yes'/>
    <elf-symbol name='_ZNSt8functionIFvRKN5mongo10StatusWithINS0_8executor21RemoteCommandResponseEEEEEC2ISt5_BindIFSt7_Mem_fnIMNS0_4repl19ReplicationExecutorEFvRKNS2_20RemoteCommandRequestES6_RKNS2_12TaskExecutor14CallbackHandleEmRKS_IFvRKNSH_25RemoteCommandCallbackArgsEEEEEPSD_SE_St12_PlaceholderILi1EESI_mSP_EEvEET_' type='func-type' binding='weak-binding' visibility='default-visibility' is-defined='yes'/>
    <elf-symbol name='_ZNSt8functionIFvRKN5mongo10StatusWithINS0_8executor21RemoteCommandResponseEEEEED2Ev' type='func-type' binding='weak-binding' visibility='default-visibility' is-defined='yes'/>
    <elf-symbol name='_ZNSt8functionIFvRKN5mongo8executor12TaskExecutor12CallbackArgsEEE4swapERS7_' type='func-type' binding='weak-binding' visibility='default-visibility' is-defined='yes'/>
    <elf-symbol name='_ZNSt8functionIFvRKN5mongo8executor12TaskExecutor12CallbackArgsEEEC2EOS7_' type='func-type' binding='weak-binding' visibility='default-visibility' is-defined='yes'/>
    <elf-symbol name='_ZNSt8functionIFvRKN5mongo8executor12TaskExecutor12CallbackArgsEEEC2ERKS7_' type='func-type' binding='weak-binding' visibility='default-visibility' is-defined='yes'/>
    <elf-symbol name='_ZNSt8functionIFvRKN5mongo8executor12TaskExecutor12CallbackArgsEEEC2ISt5_BindIFPFvS5_PNS0_4repl19ScatterGatherRunnerEPNS0_10StatusWithINS2_11EventHandleEEEESt12_PlaceholderILi1EESC_SG_EEvEET_' type='func-type' binding='weak-binding' visibility='default-visibility' is-defined='yes'/>
    <elf-symbol name='_ZNSt8functionIFvRKN5mongo8executor12TaskExecutor12CallbackArgsEEEC2ISt5_BindIFPFvS5_RKS_IFvRKNS2_25RemoteCommandCallbackArgsEEERKNS1_20RemoteCommandRequestEESt12_PlaceholderILi1EESE_SH_EEvEET_' type='func-type' binding='weak-binding' visibility='default-visibility' is-defined='yes'/>
    <elf-symbol name='_ZNSt8functionIFvRKN5mongo8executor12TaskExecutor12CallbackArgsEEEC2ISt5_BindIFPFvS5_RKS_IFvRKNS2_25RemoteCommandCallbackArgsEEERKNS1_20RemoteCommandRequestERKNS0_10StatusWithINS1_21RemoteCommandResponseEEEESt12_PlaceholderILi1EESE_SH_SM_EEvEET_' type='func-type' binding='weak-binding' visibility='default-visibility' is-defined='yes'/>
    <elf-symbol name='_ZNSt8functionIFvRKN5mongo8executor12TaskExecutor12CallbackArgsEEED2Ev' type='func-type' binding='weak-binding' visibility='default-visibility' is-defined='yes'/>
    <elf-symbol name='_ZNSt8functionIFvRKN5mongo8executor12TaskExecutor12CallbackArgsEEEaSISt5_BindIFPFvS5_RKS_IFvRKNS2_25RemoteCommandCallbackArgsEEERKNS1_20RemoteCommandRequestERKNS0_10StatusWithINS1_21RemoteCommandResponseEEEESt12_PlaceholderILi1EESE_SH_SM_EEEENSt9enable_ifIXsrSt6__and_IJSt6__not_ISt7is_sameINSt5decayIT_E4typeES7_EESt5__or_IJSt7is_voidIvESt14is_convertibleIDTclcl18__callable_functorclsr3stdE7declvalIRS12_EEEclL_ZSt7declvalIS5_ENSt20add_rvalue_referenceIS10_E4typeEvEEEEvEEEEE5valueERS7_E4typeEOS10_' type='func-type' binding='weak-binding' visibility='default-visibility' is-defined='yes'/>
    <elf-symbol name='_ZNSt8functionIFvRKN5mongo8executor12TaskExecutor25RemoteCommandCallbackArgsEEE4swapERS7_' type='func-type' binding='weak-binding' visibility='default-visibility' is-defined='yes'/>
    <elf-symbol name='_ZNSt8functionIFvRKN5mongo8executor12TaskExecutor25RemoteCommandCallbackArgsEEEC2EOS7_' type='func-type' binding='weak-binding' visibility='default-visibility' is-defined='yes'/>
    <elf-symbol name='_ZNSt8functionIFvRKN5mongo8executor12TaskExecutor25RemoteCommandCallbackArgsEEEC2ERKS7_' type='func-type' binding='weak-binding' visibility='default-visibility' is-defined='yes'/>
    <elf-symbol name='_ZNSt8functionIFvRKN5mongo8executor12TaskExecutor25RemoteCommandCallbackArgsEEEC2ISt5_BindIFPFvS5_PNS0_4repl19ScatterGatherRunnerEESt12_PlaceholderILi1EESC_EEvEET_' type='func-type' binding='weak-binding' visibility='default-visibility' is-defined='yes'/>
    <elf-symbol name='_ZNSt8functionIFvRKN5mongo8executor12TaskExecutor25RemoteCommandCallbackArgsEEED2Ev' type='func-type' binding='weak-binding' visibility='default-visibility' is-defined='yes'/>
    <elf-symbol name='_ZNSt8functionIFvvEE4swapERS1_' type='func-type' binding='weak-binding' visibility='default-visibility' is-defined='yes'/>
    <elf-symbol name='_ZNSt8functionIFvvEEC2EOS1_' type='func-type' binding='weak-binding' visibility='default-visibility' is-defined='yes'/>
    <elf-symbol name='_ZNSt8functionIFvvEEC2ERKS1_' type='func-type' binding='weak-binding' visibility='default-visibility' is-defined='yes'/>
    <elf-symbol name='_ZNSt8functionIFvvEEC2Ev' type='func-type' binding='weak-binding' visibility='default-visibility' is-defined='yes'/>
    <elf-symbol name='_ZNSt8functionIFvvEEC2ISt5_BindIFPFvRKS1_ES1_EEvEET_' type='func-type' binding='weak-binding' visibility='default-visibility' is-defined='yes'/>
    <elf-symbol name='_ZNSt8functionIFvvEEC2ISt5_BindIFS3_IFSt7_Mem_fnIMN5mongo4repl19ReplicationExecutorEFvPNS5_16OperationContextERKNS5_6StatusERKNS5_8executor12TaskExecutor14CallbackHandleEPSt4listINS7_8WorkItemESaISJ_EEPSt5mutexEEPS7_St12_PlaceholderILi1EEST_ILi2EESF_SM_DnEES9_SA_EEvEET_' type='func-type' binding='weak-binding' visibility='default-visibility' is-defined='yes'/>
    <elf-symbol name='_ZNSt8functionIFvvEEC2ISt5_BindIFS3_IFSt7_Mem_fnIMN5mongo4repl19ReplicationExecutorEFvPNS5_16OperationContextERKNS5_6StatusERKNS5_8executor12TaskExecutor14CallbackHandleEPSt4listINS7_8WorkItemESaISJ_EEPSt5mutexEEPS7_St12_PlaceholderILi1EEST_ILi2EESF_SM_SO_EES9_SA_EEvEET_' type='func-type' binding='weak-binding' visibility='default-visibility' is-defined='yes'/>
    <elf-symbol name='_ZNSt8functionIFvvEEC2ISt5_BindIFS_IFvRKN5mongo8executor12TaskExecutor12CallbackArgsEEES7_EEvEET_' type='func-type' binding='weak-binding' visibility='default-visibility' is-defined='yes'/>
    <elf-symbol name='_ZNSt8functionIFvvEED2Ev' type='func-type' binding='weak-binding' visibility='default-visibility' is-defined='yes'/>
    <elf-symbol name='_ZNSt8functionIFvvEEaSERKS1_' type='func-type' binding='weak-binding' visibility='default-visibility' is-defined='yes'/>
    <elf-symbol name='_ZNSt9_Any_data9_M_accessEv' type='func-type' binding='weak-binding' visibility='default-visibility' is-defined='yes'/>
    <elf-symbol name='_ZNSt9_Any_data9_M_accessIPKSt9type_infoEERT_v' type='func-type' binding='weak-binding' visibility='default-visibility' is-defined='yes'/>
    <elf-symbol name='_ZNSt9_Any_data9_M_accessIPSt5_BindIFPFvRKN5mongo8executor12TaskExecutor12CallbackArgsEPNS2_4repl19ScatterGatherRunnerEPNS2_10StatusWithINS4_11EventHandleEEEESt12_PlaceholderILi1EESA_SE_EEEERT_v' type='func-type' binding='weak-binding' visibility='default-visibility' is-defined='yes'/>
    <elf-symbol name='_ZNSt9_Any_data9_M_accessIPSt5_BindIFPFvRKN5mongo8executor12TaskExecutor12CallbackArgsERKSt8functionIFvRKNS4_25RemoteCommandCallbackArgsEEERKNS3_20RemoteCommandRequestEESt12_PlaceholderILi1EESD_SG_EEEERT_v' type='func-type' binding='weak-binding' visibility='default-visibility' is-defined='yes'/>
    <elf-symbol name='_ZNSt9_Any_data9_M_accessIPSt5_BindIFPFvRKN5mongo8executor12TaskExecutor12CallbackArgsERKSt8functionIFvRKNS4_25RemoteCommandCallbackArgsEEERKNS3_20RemoteCommandRequestERKNS2_10StatusWithINS3_21RemoteCommandResponseEEEESt12_PlaceholderILi1EESD_SG_SL_EEEERT_v' type='func-type' binding='weak-binding' visibility='default-visibility' is-defined='yes'/>
    <elf-symbol name='_ZNSt9_Any_data9_M_accessIPSt5_BindIFPFvRKN5mongo8executor12TaskExecutor25RemoteCommandCallbackArgsEPNS2_4repl19ScatterGatherRunnerEESt12_PlaceholderILi1EESA_EEEERT_v' type='func-type' binding='weak-binding' visibility='default-visibility' is-defined='yes'/>
    <elf-symbol name='_ZNSt9_Any_data9_M_accessIPSt5_BindIFPFvRKSt8functionIFvvEEES4_EEEERT_v' type='func-type' binding='weak-binding' visibility='default-visibility' is-defined='yes'/>
    <elf-symbol name='_ZNSt9_Any_data9_M_accessIPSt5_BindIFS1_IFSt7_Mem_fnIMN5mongo4repl19ReplicationExecutorEFvPNS3_16OperationContextERKNS3_6StatusERKNS3_8executor12TaskExecutor14CallbackHandleEPSt4listINS5_8WorkItemESaISH_EEPSt5mutexEEPS5_St12_PlaceholderILi1EESR_ILi2EESD_SK_DnEES7_S8_EEEERT_v' type='func-type' binding='weak-binding' visibility='default-visibility' is-defined='yes'/>
    <elf-symbol name='_ZNSt9_Any_data9_M_accessIPSt5_BindIFS1_IFSt7_Mem_fnIMN5mongo4repl19ReplicationExecutorEFvPNS3_16OperationContextERKNS3_6StatusERKNS3_8executor12TaskExecutor14CallbackHandleEPSt4listINS5_8WorkItemESaISH_EEPSt5mutexEEPS5_St12_PlaceholderILi1EESR_ILi2EESD_SK_SM_EES7_S8_EEEERT_v' type='func-type' binding='weak-binding' visibility='default-visibility' is-defined='yes'/>
    <elf-symbol name='_ZNSt9_Any_data9_M_accessIPSt5_BindIFSt7_Mem_fnIMN5mongo4repl16StorageInterfaceEFPNS3_16OperationContextEvEEPS5_EEEERT_v' type='func-type' binding='weak-binding' visibility='default-visibility' is-defined='yes'/>
    <elf-symbol name='_ZNSt9_Any_data9_M_accessIPSt5_BindIFSt7_Mem_fnIMN5mongo4repl19ReplicationExecutorEFvRKNS3_8executor20RemoteCommandRequestERKNS3_10StatusWithINS6_21RemoteCommandResponseEEERKNS6_12TaskExecutor14CallbackHandleEmRKSt8functionIFvRKNSF_25RemoteCommandCallbackArgsEEEEEPS5_S7_St12_PlaceholderILi1EESG_mSO_EEEERT_v' type='func-type' binding='weak-binding' visibility='default-visibility' is-defined='yes'/>
    <elf-symbol name='_ZNSt9_Any_data9_M_accessIPSt5_BindIFSt8functionIFvRKN5mongo8executor12TaskExecutor12CallbackArgsEEES6_EEEERT_v' type='func-type' binding='weak-binding' visibility='default-visibility' is-defined='yes'/>
    <elf-symbol name='_ZNVKSt3_MuIDnLb0ELb0EEclIRDnSt5tupleIJRPN5mongo16OperationContextERNS4_6StatusEEEEEOT_SC_RT0_' type='func-type' binding='weak-binding' visibility='default-visibility' is-defined='yes'/>
    <elf-symbol name='_ZNVKSt3_MuIN5mongo10StatusWithINS0_8executor21RemoteCommandResponseEEELb0ELb0EEclIRS4_St5tupleIJRKNS2_12TaskExecutor12CallbackArgsEEEEEOT_SF_RT0_' type='func-type' binding='weak-binding' visibility='default-visibility' is-defined='yes'/>
    <elf-symbol name='_ZNVKSt3_MuIN5mongo6StatusELb0ELb0EEclIRS1_St5tupleIJEEEEOT_S8_RT0_' type='func-type' binding='weak-binding' visibility='default-visibility' is-defined='yes'/>
    <elf-symbol name='_ZNVKSt3_MuIN5mongo8executor12TaskExecutor12CallbackArgsELb0ELb0EEclIRS3_St5tupleIJEEEEOT_SA_RT0_' type='func-type' binding='weak-binding' visibility='default-visibility' is-defined='yes'/>
    <elf-symbol name='_ZNVKSt3_MuIN5mongo8executor12TaskExecutor14CallbackHandleELb0ELb0EEclIRS3_St5tupleIJRKNS0_10StatusWithINS1_21RemoteCommandResponseEEEEEEEOT_SF_RT0_' type='func-type' binding='weak-binding' visibility='default-visibility' is-defined='yes'/>
    <elf-symbol name='_ZNVKSt3_MuIN5mongo8executor12TaskExecutor14CallbackHandleELb0ELb0EEclIRS3_St5tupleIJRPNS0_16OperationContextERNS0_6StatusEEEEEOT_SF_RT0_' type='func-type' binding='weak-binding' visibility='default-visibility' is-defined='yes'/>
    <elf-symbol name='_ZNVKSt3_MuIN5mongo8executor20RemoteCommandRequestELb0ELb0EEclIRS2_St5tupleIJRKNS0_10StatusWithINS1_21RemoteCommandResponseEEEEEEEOT_SE_RT0_' type='func-type' binding='weak-binding' visibility='default-visibility' is-defined='yes'/>
    <elf-symbol name='_ZNVKSt3_MuIN5mongo8executor20RemoteCommandRequestELb0ELb0EEclIRS2_St5tupleIJRKNS1_12TaskExecutor12CallbackArgsEEEEEOT_SD_RT0_' type='func-type' binding='weak-binding' visibility='default-visibility' is-defined='yes'/>
    <elf-symbol name='_ZNVKSt3_MuIPN5mongo10StatusWithINS0_8executor12TaskExecutor11EventHandleEEELb0ELb0EEclIRS6_St5tupleIJRKNS3_12CallbackArgsEEEEEOT_SG_RT0_' type='func-type' binding='weak-binding' visibility='default-visibility' is-defined='yes'/>
    <elf-symbol name='_ZNVKSt3_MuIPN5mongo16OperationContextELb0ELb0EEclIRS2_St5tupleIJEEEEOT_S9_RT0_' type='func-type' binding='weak-binding' visibility='default-visibility' is-defined='yes'/>
    <elf-symbol name='_ZNVKSt3_MuIPN5mongo4repl16StorageInterfaceELb0ELb0EEclIRS3_St5tupleIJEEEEOT_SA_RT0_' type='func-type' binding='weak-binding' visibility='default-visibility' is-defined='yes'/>
    <elf-symbol name='_ZNVKSt3_MuIPN5mongo4repl19ReplicationExecutorELb0ELb0EEclIRS3_St5tupleIJRKNS0_10StatusWithINS0_8executor21RemoteCommandResponseEEEEEEEOT_SG_RT0_' type='func-type' binding='weak-binding' visibility='default-visibility' is-defined='yes'/>
    <elf-symbol name='_ZNVKSt3_MuIPN5mongo4repl19ReplicationExecutorELb0ELb0EEclIRS3_St5tupleIJRNS0_8executor12TaskExecutor14CallbackHandleEEEEEOT_SE_RT0_' type='func-type' binding='weak-binding' visibility='default-visibility' is-defined='yes'/>
    <elf-symbol name='_ZNVKSt3_MuIPN5mongo4repl19ReplicationExecutorELb0ELb0EEclIRS3_St5tupleIJRPNS0_16OperationContextERNS0_6StatusEEEEEOT_SF_RT0_' type='func-type' binding='weak-binding' visibility='default-visibility' is-defined='yes'/>
    <elf-symbol name='_ZNVKSt3_MuIPN5mongo4repl19ScatterGatherRunnerELb0ELb0EEclIRS3_St5tupleIJRKNS0_8executor12TaskExecutor12CallbackArgsEEEEEOT_SF_RT0_' type='func-type' binding='weak-binding' visibility='default-visibility' is-defined='yes'/>
    <elf-symbol name='_ZNVKSt3_MuIPN5mongo4repl19ScatterGatherRunnerELb0ELb0EEclIRS3_St5tupleIJRKNS0_8executor12TaskExecutor25RemoteCommandCallbackArgsEEEEEOT_SF_RT0_' type='func-type' binding='weak-binding' visibility='default-visibility' is-defined='yes'/>
    <elf-symbol name='_ZNVKSt3_MuIPSt4listIN5mongo4repl19ReplicationExecutor8WorkItemESaIS4_EELb0ELb0EEclIRS7_St5tupleIJRPNS1_16OperationContextERNS1_6StatusEEEEEOT_SJ_RT0_' type='func-type' binding='weak-binding' visibility='default-visibility' is-defined='yes'/>
    <elf-symbol name='_ZNVKSt3_MuIPSt5mutexLb0ELb0EEclIRS1_St5tupleIJRPN5mongo16OperationContextERNS6_6StatusEEEEEOT_SE_RT0_' type='func-type' binding='weak-binding' visibility='default-visibility' is-defined='yes'/>
    <elf-symbol name='_ZNVKSt3_MuISt12_PlaceholderILi1EELb0ELb1EEclISt5tupleIJRKN5mongo10StatusWithINS5_8executor21RemoteCommandResponseEEEEEEENS2_6resultIFS2_S1_T_EE4typeERVKS1_RSE_' type='func-type' binding='weak-binding' visibility='default-visibility' is-defined='yes'/>
    <elf-symbol name='_ZNVKSt3_MuISt12_PlaceholderILi1EELb0ELb1EEclISt5tupleIJRKN5mongo8executor12TaskExecutor12CallbackArgsEEEEENS2_6resultIFS2_S1_T_EE4typeERVKS1_RSD_' type='func-type' binding='weak-binding' visibility='default-visibility' is-defined='yes'/>
    <elf-symbol name='_ZNVKSt3_MuISt12_PlaceholderILi1EELb0ELb1EEclISt5tupleIJRKN5mongo8executor12TaskExecutor25RemoteCommandCallbackArgsEEEEENS2_6resultIFS2_S1_T_EE4typeERVKS1_RSD_' type='func-type' binding='weak-binding' visibility='default-visibility' is-defined='yes'/>
    <elf-symbol name='_ZNVKSt3_MuISt12_PlaceholderILi1EELb0ELb1EEclISt5tupleIJRN5mongo8executor12TaskExecutor14CallbackHandleEEEEENS2_6resultIFS2_S1_T_EE4typeERVKS1_RSC_' type='func-type' binding='weak-binding' visibility='default-visibility' is-defined='yes'/>
    <elf-symbol name='_ZNVKSt3_MuISt12_PlaceholderILi1EELb0ELb1EEclISt5tupleIJRPN5mongo16OperationContextERNS5_6StatusEEEEENS2_6resultIFS2_S1_T_EE4typeERVKS1_RSD_' type='func-type' binding='weak-binding' visibility='default-visibility' is-defined='yes'/>
    <elf-symbol name='_ZNVKSt3_MuISt12_PlaceholderILi2EELb0ELb1EEclISt5tupleIJRPN5mongo16OperationContextERNS5_6StatusEEEEENS2_6resultIFS2_S1_T_EE4typeERVKS1_RSD_' type='func-type' binding='weak-binding' visibility='default-visibility' is-defined='yes'/>
    <elf-symbol name='_ZNVKSt3_MuISt8functionIFvRKN5mongo8executor12TaskExecutor25RemoteCommandCallbackArgsEEELb0ELb0EEclIRS8_St5tupleIJRKNS1_10StatusWithINS2_21RemoteCommandResponseEEEEEEEOT_SK_RT0_' type='func-type' binding='weak-binding' visibility='default-visibility' is-defined='yes'/>
    <elf-symbol name='_ZNVKSt3_MuISt8functionIFvRKN5mongo8executor12TaskExecutor25RemoteCommandCallbackArgsEEELb0ELb0EEclIRS8_St5tupleIJRKNS3_12CallbackArgsEEEEEOT_SI_RT0_' type='func-type' binding='weak-binding' visibility='default-visibility' is-defined='yes'/>
    <elf-symbol name='_ZNVKSt3_MuISt8functionIFvvEELb0ELb0EEclIRS2_St5tupleIJEEEEOT_S9_RT0_' type='func-type' binding='weak-binding' visibility='default-visibility' is-defined='yes'/>
    <elf-symbol name='_ZNVKSt3_MuImLb0ELb0EEclIRmSt5tupleIJRKN5mongo10StatusWithINS4_8executor21RemoteCommandResponseEEEEEEEOT_SD_RT0_' type='func-type' binding='weak-binding' visibility='default-visibility' is-defined='yes'/>
    <elf-symbol name='_ZSt10_ConstructIN5mongo8executor12TaskExecutor14CallbackHandleEJS3_EEvPT_DpOT0_' type='func-type' binding='weak-binding' visibility='default-visibility' is-defined='yes'/>
    <elf-symbol name='_ZSt10__distanceISt20_List_const_iteratorIN5mongo4repl19ReplicationExecutor8WorkItemEEENSt15iterator_traitsIT_E15difference_typeES7_S7_St18input_iterator_tag' type='func-type' binding='weak-binding' visibility='default-visibility' is-defined='yes'/>
    <elf-symbol name='_ZSt10__distanceISt20_List_const_iteratorIN5mongo8executor12TaskExecutor11EventHandleEEENSt15iterator_traitsIT_E15difference_typeES7_S7_St18input_iterator_tag' type='func-type' binding='weak-binding' visibility='default-visibility' is-defined='yes'/>
    <elf-symbol name='_ZSt11__addressofIN5mongo4repl19ReplicationExecutor8WorkItemEEPT_RS4_' type='func-type' binding='weak-binding' visibility='default-visibility' is-defined='yes'/>
    <elf-symbol name='_ZSt11__addressofIN5mongo8executor12TaskExecutor14CallbackHandleEEPT_RS4_' type='func-type' binding='weak-binding' visibility='default-visibility' is-defined='yes'/>
    <elf-symbol name='_ZSt11__addressofIN5mongo8executor20RemoteCommandRequestEEPT_RS3_' type='func-type' binding='weak-binding' visibility='default-visibility' is-defined='yes'/>
    <elf-symbol name='_ZSt11make_sharedIN5mongo4repl19ReplicationExecutor5EventEJPS2_RSt14_List_iteratorINS0_8executor12TaskExecutor11EventHandleEEEESt10shared_ptrIT_EDpOT0_' type='func-type' binding='weak-binding' visibility='default-visibility' is-defined='yes'/>
    <elf-symbol name='_ZSt12__get_helperILm0EN5mongo8executor12TaskExecutor12CallbackArgsEJEENSt9__add_refIT0_E4typeERSt11_Tuple_implIXT_EJS5_DpT1_EE' type='func-type' binding='weak-binding' visibility='default-visibility' is-defined='yes'/>
    <elf-symbol name='_ZSt12__get_helperILm0EPN5mongo16OperationContextEJNS0_6StatusEEENSt9__add_refIT0_E4typeERSt11_Tuple_implIXT_EJS5_DpT1_EE' type='func-type' binding='weak-binding' visibility='default-visibility' is-defined='yes'/>
    <elf-symbol name='_ZSt12__get_helperILm0EPN5mongo4repl16StorageInterfaceEJEENSt9__add_refIT0_E4typeERSt11_Tuple_implIXT_EJS5_DpT1_EE' type='func-type' binding='weak-binding' visibility='default-visibility' is-defined='yes'/>
    <elf-symbol name='_ZSt12__get_helperILm0EPN5mongo4repl16StorageInterfaceEJSt14default_deleteIS2_EEENSt9__add_refIT0_E4typeERSt11_Tuple_implIXT_EJS7_DpT1_EE' type='func-type' binding='weak-binding' visibility='default-visibility' is-defined='yes'/>
    <elf-symbol name='_ZSt12__get_helperILm0EPN5mongo4repl19ReplicationExecutorEJNS0_8executor20RemoteCommandRequestESt12_PlaceholderILi1EENS4_12TaskExecutor14CallbackHandleEmSt8functionIFvRKNS8_25RemoteCommandCallbackArgsEEEEENSt9__add_refIT0_E4typeERSt11_Tuple_implIXT_EJSH_DpT1_EE' type='func-type' binding='weak-binding' visibility='default-visibility' is-defined='yes'/>
    <elf-symbol name='_ZSt12__get_helperILm0EPN5mongo4repl19ReplicationExecutorEJSt12_PlaceholderILi1EEEENSt9__add_refIT0_E4typeERSt11_Tuple_implIXT_EJS7_DpT1_EE' type='func-type' binding='weak-binding' visibility='default-visibility' is-defined='yes'/>
    <elf-symbol name='_ZSt12__get_helperILm0EPN5mongo4repl19ReplicationExecutorEJSt12_PlaceholderILi1EES4_ILi2EENS0_8executor12TaskExecutor14CallbackHandleEPSt4listINS2_8WorkItemESaISB_EEDnEENSt9__add_refIT0_E4typeERSt11_Tuple_implIXT_EJSG_DpT1_EE' type='func-type' binding='weak-binding' visibility='default-visibility' is-defined='yes'/>
    <elf-symbol name='_ZSt12__get_helperILm0EPN5mongo4repl19ReplicationExecutorEJSt12_PlaceholderILi1EES4_ILi2EENS0_8executor12TaskExecutor14CallbackHandleEPSt4listINS2_8WorkItemESaISB_EEPSt5mutexEENSt9__add_refIT0_E4typeERSt11_Tuple_implIXT_EJSI_DpT1_EE' type='func-type' binding='weak-binding' visibility='default-visibility' is-defined='yes'/>
    <elf-symbol name='_ZSt12__get_helperILm0EPN5mongo8executor16NetworkInterfaceEJSt14default_deleteIS2_EEENSt11__add_c_refIT0_E4typeERKSt11_Tuple_implIXT_EJS7_DpT1_EE' type='func-type' binding='weak-binding' visibility='default-visibility' is-defined='yes'/>
    <elf-symbol name='_ZSt12__get_helperILm0EPN5mongo8executor16NetworkInterfaceEJSt14default_deleteIS2_EEENSt9__add_refIT0_E4typeERSt11_Tuple_implIXT_EJS7_DpT1_EE' type='func-type' binding='weak-binding' visibility='default-visibility' is-defined='yes'/>
    <elf-symbol name='_ZSt12__get_helperILm0EPSt10lock_guardISt5mutexEJSt14default_deleteIS2_EEENSt9__add_refIT0_E4typeERSt11_Tuple_implIXT_EJS7_DpT1_EE' type='func-type' binding='weak-binding' visibility='default-visibility' is-defined='yes'/>
    <elf-symbol name='_ZSt12__get_helperILm0EPSt19basic_ostringstreamIcSt11char_traitsIcESaIcEEJSt14default_deleteIS4_EEENSt11__add_c_refIT0_E4typeERKSt11_Tuple_implIXT_EJS9_DpT1_EE' type='func-type' binding='weak-binding' visibility='default-visibility' is-defined='yes'/>
    <elf-symbol name='_ZSt12__get_helperILm0ERKN5mongo10StatusWithINS0_8executor21RemoteCommandResponseEEEJEENSt9__add_refIT0_E4typeERSt11_Tuple_implIXT_EJS8_DpT1_EE' type='func-type' binding='weak-binding' visibility='default-visibility' is-defined='yes'/>
    <elf-symbol name='_ZSt12__get_helperILm0ERKN5mongo8executor12TaskExecutor12CallbackArgsEJEENSt9__add_refIT0_E4typeERSt11_Tuple_implIXT_EJS7_DpT1_EE' type='func-type' binding='weak-binding' visibility='default-visibility' is-defined='yes'/>
    <elf-symbol name='_ZSt12__get_helperILm0ERKN5mongo8executor12TaskExecutor25RemoteCommandCallbackArgsEJEENSt9__add_refIT0_E4typeERSt11_Tuple_implIXT_EJS7_DpT1_EE' type='func-type' binding='weak-binding' visibility='default-visibility' is-defined='yes'/>
    <elf-symbol name='_ZSt12__get_helperILm0ERN5mongo8executor12TaskExecutor14CallbackHandleEJEENSt9__add_refIT0_E4typeERSt11_Tuple_implIXT_EJS6_DpT1_EE' type='func-type' binding='weak-binding' visibility='default-visibility' is-defined='yes'/>
    <elf-symbol name='_ZSt12__get_helperILm0ERPN5mongo16OperationContextEJRNS0_6StatusEEENSt9__add_refIT0_E4typeERSt11_Tuple_implIXT_EJS7_DpT1_EE' type='func-type' binding='weak-binding' visibility='default-visibility' is-defined='yes'/>
    <elf-symbol name='_ZSt12__get_helperILm0ESt12_PlaceholderILi1EEJPN5mongo4repl19ScatterGatherRunnerEEENSt9__add_refIT0_E4typeERSt11_Tuple_implIXT_EJS7_DpT1_EE' type='func-type' binding='weak-binding' visibility='default-visibility' is-defined='yes'/>
    <elf-symbol name='_ZSt12__get_helperILm0ESt12_PlaceholderILi1EEJPN5mongo4repl19ScatterGatherRunnerEPNS2_10StatusWithINS2_8executor12TaskExecutor11EventHandleEEEEENSt9__add_refIT0_E4typeERSt11_Tuple_implIXT_EJSD_DpT1_EE' type='func-type' binding='weak-binding' visibility='default-visibility' is-defined='yes'/>
    <elf-symbol name='_ZSt12__get_helperILm0ESt12_PlaceholderILi1EEJSt8functionIFvRKN5mongo8executor12TaskExecutor25RemoteCommandCallbackArgsEEENS4_20RemoteCommandRequestEEENSt9__add_refIT0_E4typeERSt11_Tuple_implIXT_EJSD_DpT1_EE' type='func-type' binding='weak-binding' visibility='default-visibility' is-defined='yes'/>
    <elf-symbol name='_ZSt12__get_helperILm0ESt12_PlaceholderILi1EEJSt8functionIFvRKN5mongo8executor12TaskExecutor25RemoteCommandCallbackArgsEEENS4_20RemoteCommandRequestENS3_10StatusWithINS4_21RemoteCommandResponseEEEEENSt9__add_refIT0_E4typeERSt11_Tuple_implIXT_EJSG_DpT1_EE' type='func-type' binding='weak-binding' visibility='default-visibility' is-defined='yes'/>
    <elf-symbol name='_ZSt12__get_helperILm0ESt8functionIFvvEEJEENSt9__add_refIT0_E4typeERSt11_Tuple_implIXT_EJS4_DpT1_EE' type='func-type' binding='weak-binding' visibility='default-visibility' is-defined='yes'/>
    <elf-symbol name='_ZSt12__get_helperILm1EN5mongo6StatusEJEENSt9__add_refIT0_E4typeERSt11_Tuple_implIXT_EJS3_DpT1_EE' type='func-type' binding='weak-binding' visibility='default-visibility' is-defined='yes'/>
    <elf-symbol name='_ZSt12__get_helperILm1EN5mongo8executor20RemoteCommandRequestEJSt12_PlaceholderILi1EENS1_12TaskExecutor14CallbackHandleEmSt8functionIFvRKNS5_25RemoteCommandCallbackArgsEEEEENSt9__add_refIT0_E4typeERSt11_Tuple_implIXT_EJSE_DpT1_EE' type='func-type' binding='weak-binding' visibility='default-visibility' is-defined='yes'/>
    <elf-symbol name='_ZSt12__get_helperILm1EPN5mongo4repl19ScatterGatherRunnerEJEENSt9__add_refIT0_E4typeERSt11_Tuple_implIXT_EJS5_DpT1_EE' type='func-type' binding='weak-binding' visibility='default-visibility' is-defined='yes'/>
    <elf-symbol name='_ZSt12__get_helperILm1EPN5mongo4repl19ScatterGatherRunnerEJPNS0_10StatusWithINS0_8executor12TaskExecutor11EventHandleEEEEENSt9__add_refIT0_E4typeERSt11_Tuple_implIXT_EJSB_DpT1_EE' type='func-type' binding='weak-binding' visibility='default-visibility' is-defined='yes'/>
    <elf-symbol name='_ZSt12__get_helperILm1ERN5mongo6StatusEJEENSt9__add_refIT0_E4typeERSt11_Tuple_implIXT_EJS4_DpT1_EE' type='func-type' binding='weak-binding' visibility='default-visibility' is-defined='yes'/>
    <elf-symbol name='_ZSt12__get_helperILm1ESt12_PlaceholderILi1EEJEENSt9__add_refIT0_E4typeERSt11_Tuple_implIXT_EJS3_DpT1_EE' type='func-type' binding='weak-binding' visibility='default-visibility' is-defined='yes'/>
    <elf-symbol name='_ZSt12__get_helperILm1ESt12_PlaceholderILi1EEJS0_ILi2EEN5mongo8executor12TaskExecutor14CallbackHandleEPSt4listINS3_4repl19ReplicationExecutor8WorkItemESaISA_EEDnEENSt9__add_refIT0_E4typeERSt11_Tuple_implIXT_EJSF_DpT1_EE' type='func-type' binding='weak-binding' visibility='default-visibility' is-defined='yes'/>
    <elf-symbol name='_ZSt12__get_helperILm1ESt12_PlaceholderILi1EEJS0_ILi2EEN5mongo8executor12TaskExecutor14CallbackHandleEPSt4listINS3_4repl19ReplicationExecutor8WorkItemESaISA_EEPSt5mutexEENSt9__add_refIT0_E4typeERSt11_Tuple_implIXT_EJSH_DpT1_EE' type='func-type' binding='weak-binding' visibility='default-visibility' is-defined='yes'/>
    <elf-symbol name='_ZSt12__get_helperILm1ESt14default_deleteIN5mongo4repl16StorageInterfaceEEJEENSt9__add_refIT0_E4typeERSt11_Tuple_implIXT_EJS6_DpT1_EE' type='func-type' binding='weak-binding' visibility='default-visibility' is-defined='yes'/>
    <elf-symbol name='_ZSt12__get_helperILm1ESt14default_deleteIN5mongo8executor16NetworkInterfaceEEJEENSt9__add_refIT0_E4typeERSt11_Tuple_implIXT_EJS6_DpT1_EE' type='func-type' binding='weak-binding' visibility='default-visibility' is-defined='yes'/>
    <elf-symbol name='_ZSt12__get_helperILm1ESt14default_deleteISt10lock_guardISt5mutexEEJEENSt9__add_refIT0_E4typeERSt11_Tuple_implIXT_EJS6_DpT1_EE' type='func-type' binding='weak-binding' visibility='default-visibility' is-defined='yes'/>
    <elf-symbol name='_ZSt12__get_helperILm1ESt8functionIFvRKN5mongo8executor12TaskExecutor25RemoteCommandCallbackArgsEEEJNS2_20RemoteCommandRequestEEENSt9__add_refIT0_E4typeERSt11_Tuple_implIXT_EJSB_DpT1_EE' type='func-type' binding='weak-binding' visibility='default-visibility' is-defined='yes'/>
    <elf-symbol name='_ZSt12__get_helperILm1ESt8functionIFvRKN5mongo8executor12TaskExecutor25RemoteCommandCallbackArgsEEEJNS2_20RemoteCommandRequestENS1_10StatusWithINS2_21RemoteCommandResponseEEEEENSt9__add_refIT0_E4typeERSt11_Tuple_implIXT_EJSE_DpT1_EE' type='func-type' binding='weak-binding' visibility='default-visibility' is-defined='yes'/>
    <elf-symbol name='_ZSt12__get_helperILm2EN5mongo8executor20RemoteCommandRequestEJEENSt9__add_refIT0_E4typeERSt11_Tuple_implIXT_EJS4_DpT1_EE' type='func-type' binding='weak-binding' visibility='default-visibility' is-defined='yes'/>
    <elf-symbol name='_ZSt12__get_helperILm2EN5mongo8executor20RemoteCommandRequestEJNS0_10StatusWithINS1_21RemoteCommandResponseEEEEENSt9__add_refIT0_E4typeERSt11_Tuple_implIXT_EJS7_DpT1_EE' type='func-type' binding='weak-binding' visibility='default-visibility' is-defined='yes'/>
    <elf-symbol name='_ZSt12__get_helperILm2EPN5mongo10StatusWithINS0_8executor12TaskExecutor11EventHandleEEEJEENSt9__add_refIT0_E4typeERSt11_Tuple_implIXT_EJS8_DpT1_EE' type='func-type' binding='weak-binding' visibility='default-visibility' is-defined='yes'/>
    <elf-symbol name='_ZSt12__get_helperILm2ESt12_PlaceholderILi1EEJN5mongo8executor12TaskExecutor14CallbackHandleEmSt8functionIFvRKNS4_25RemoteCommandCallbackArgsEEEEENSt9__add_refIT0_E4typeERSt11_Tuple_implIXT_EJSD_DpT1_EE' type='func-type' binding='weak-binding' visibility='default-visibility' is-defined='yes'/>
    <elf-symbol name='_ZSt12__get_helperILm2ESt12_PlaceholderILi2EEJN5mongo8executor12TaskExecutor14CallbackHandleEPSt4listINS2_4repl19ReplicationExecutor8WorkItemESaIS9_EEDnEENSt9__add_refIT0_E4typeERSt11_Tuple_implIXT_EJSE_DpT1_EE' type='func-type' binding='weak-binding' visibility='default-visibility' is-defined='yes'/>
    <elf-symbol name='_ZSt12__get_helperILm2ESt12_PlaceholderILi2EEJN5mongo8executor12TaskExecutor14CallbackHandleEPSt4listINS2_4repl19ReplicationExecutor8WorkItemESaIS9_EEPSt5mutexEENSt9__add_refIT0_E4typeERSt11_Tuple_implIXT_EJSG_DpT1_EE' type='func-type' binding='weak-binding' visibility='default-visibility' is-defined='yes'/>
    <elf-symbol name='_ZSt12__get_helperILm3EN5mongo10StatusWithINS0_8executor21RemoteCommandResponseEEEJEENSt9__add_refIT0_E4typeERSt11_Tuple_implIXT_EJS6_DpT1_EE' type='func-type' binding='weak-binding' visibility='default-visibility' is-defined='yes'/>
    <elf-symbol name='_ZSt12__get_helperILm3EN5mongo8executor12TaskExecutor14CallbackHandleEJPSt4listINS0_4repl19ReplicationExecutor8WorkItemESaIS7_EEDnEENSt9__add_refIT0_E4typeERSt11_Tuple_implIXT_EJSC_DpT1_EE' type='func-type' binding='weak-binding' visibility='default-visibility' is-defined='yes'/>
    <elf-symbol name='_ZSt12__get_helperILm3EN5mongo8executor12TaskExecutor14CallbackHandleEJPSt4listINS0_4repl19ReplicationExecutor8WorkItemESaIS7_EEPSt5mutexEENSt9__add_refIT0_E4typeERSt11_Tuple_implIXT_EJSE_DpT1_EE' type='func-type' binding='weak-binding' visibility='default-visibility' is-defined='yes'/>
    <elf-symbol name='_ZSt12__get_helperILm3EN5mongo8executor12TaskExecutor14CallbackHandleEJmSt8functionIFvRKNS2_25RemoteCommandCallbackArgsEEEEENSt9__add_refIT0_E4typeERSt11_Tuple_implIXT_EJSB_DpT1_EE' type='func-type' binding='weak-binding' visibility='default-visibility' is-defined='yes'/>
    <elf-symbol name='_ZSt12__get_helperILm4EPSt4listIN5mongo4repl19ReplicationExecutor8WorkItemESaIS4_EEJDnEENSt9__add_refIT0_E4typeERSt11_Tuple_implIXT_EJS9_DpT1_EE' type='func-type' binding='weak-binding' visibility='default-visibility' is-defined='yes'/>
    <elf-symbol name='_ZSt12__get_helperILm4EPSt4listIN5mongo4repl19ReplicationExecutor8WorkItemESaIS4_EEJPSt5mutexEENSt9__add_refIT0_E4typeERSt11_Tuple_implIXT_EJSB_DpT1_EE' type='func-type' binding='weak-binding' visibility='default-visibility' is-defined='yes'/>
    <elf-symbol name='_ZSt12__get_helperILm4EmJSt8functionIFvRKN5mongo8executor12TaskExecutor25RemoteCommandCallbackArgsEEEEENSt9__add_refIT0_E4typeERSt11_Tuple_implIXT_EJSA_DpT1_EE' type='func-type' binding='weak-binding' visibility='default-visibility' is-defined='yes'/>
    <elf-symbol name='_ZSt12__get_helperILm5EDnJEENSt9__add_refIT0_E4typeERSt11_Tuple_implIXT_EJS1_DpT1_EE' type='func-type' binding='weak-binding' visibility='default-visibility' is-defined='yes'/>
    <elf-symbol name='_ZSt12__get_helperILm5EPSt5mutexJEENSt9__add_refIT0_E4typeERSt11_Tuple_implIXT_EJS3_DpT1_EE' type='func-type' binding='weak-binding' visibility='default-visibility' is-defined='yes'/>
    <elf-symbol name='_ZSt12__get_helperILm5ESt8functionIFvRKN5mongo8executor12TaskExecutor25RemoteCommandCallbackArgsEEEJEENSt9__add_refIT0_E4typeERSt11_Tuple_implIXT_EJSA_DpT1_EE' type='func-type' binding='weak-binding' visibility='default-visibility' is-defined='yes'/>
    <elf-symbol name='_ZSt15allocate_sharedIN5mongo4repl19ReplicationExecutor5EventESaIS3_EJPS2_RSt14_List_iteratorINS0_8executor12TaskExecutor11EventHandleEEEESt10shared_ptrIT_ERKT0_DpOT1_' type='func-type' binding='weak-binding' visibility='default-visibility' is-defined='yes'/>
    <elf-symbol name='_ZSt16forward_as_tupleIJEESt5tupleIJDpOT_EES3_' type='func-type' binding='weak-binding' visibility='default-visibility' is-defined='yes'/>
    <elf-symbol name='_ZSt16forward_as_tupleIJRKN5mongo10StatusWithINS0_8executor21RemoteCommandResponseEEEEESt5tupleIJDpOT_EESA_' type='func-type' binding='weak-binding' visibility='default-visibility' is-defined='yes'/>
    <elf-symbol name='_ZSt16forward_as_tupleIJRKN5mongo8executor12TaskExecutor12CallbackArgsEEESt5tupleIJDpOT_EES9_' type='func-type' binding='weak-binding' visibility='default-visibility' is-defined='yes'/>
    <elf-symbol name='_ZSt16forward_as_tupleIJRKN5mongo8executor12TaskExecutor25RemoteCommandCallbackArgsEEESt5tupleIJDpOT_EES9_' type='func-type' binding='weak-binding' visibility='default-visibility' is-defined='yes'/>
    <elf-symbol name='_ZSt16forward_as_tupleIJRN5mongo8executor12TaskExecutor14CallbackHandleEEESt5tupleIJDpOT_EES8_' type='func-type' binding='weak-binding' visibility='default-visibility' is-defined='yes'/>
    <elf-symbol name='_ZSt16forward_as_tupleIJRPN5mongo16OperationContextERNS0_6StatusEEESt5tupleIJDpOT_EES9_' type='func-type' binding='weak-binding' visibility='default-visibility' is-defined='yes'/>
    <elf-symbol name='_ZSt18uninitialized_copyISt13move_iteratorIPN5mongo8executor12TaskExecutor14CallbackHandleEES5_ET0_T_S8_S7_' type='func-type' binding='weak-binding' visibility='default-visibility' is-defined='yes'/>
    <elf-symbol name='_ZSt19__iterator_categoryISt20_List_const_iteratorIN5mongo4repl19ReplicationExecutor8WorkItemEEENSt15iterator_traitsIT_E17iterator_categoryERKS7_' type='func-type' binding='weak-binding' visibility='default-visibility' is-defined='yes'/>
    <elf-symbol name='_ZSt19__iterator_categoryISt20_List_const_iteratorIN5mongo8executor12TaskExecutor11EventHandleEEENSt15iterator_traitsIT_E17iterator_categoryERKS7_' type='func-type' binding='weak-binding' visibility='default-visibility' is-defined='yes'/>
    <elf-symbol name='_ZSt22__uninitialized_copy_aISt13move_iteratorIPN5mongo8executor12TaskExecutor14CallbackHandleEES5_S4_ET0_T_S8_S7_RSaIT1_E' type='func-type' binding='weak-binding' visibility='default-visibility' is-defined='yes'/>
    <elf-symbol name='_ZSt32__enable_shared_from_this_helperILN9__gnu_cxx12_Lock_policyE2EEvRKSt14__shared_countIXT_EEz' type='func-type' binding='weak-binding' visibility='default-visibility' is-defined='yes'/>
    <elf-symbol name='_ZSt32__make_move_if_noexcept_iteratorIPN5mongo8executor12TaskExecutor14CallbackHandleESt13move_iteratorIS4_EET0_T_' type='func-type' binding='weak-binding' visibility='default-visibility' is-defined='yes'/>
    <elf-symbol name='_ZSt34__uninitialized_move_if_noexcept_aIPN5mongo8executor12TaskExecutor14CallbackHandleES4_SaIS3_EET0_T_S7_S6_RT1_' type='func-type' binding='weak-binding' visibility='default-visibility' is-defined='yes'/>
    <elf-symbol name='_ZSt3getILm0EJN5mongo8executor12TaskExecutor12CallbackArgsEEENSt9__add_refINSt13tuple_elementIXT_ESt5tupleIJDpT0_EEE4typeEE4typeERS9_' type='func-type' binding='weak-binding' visibility='default-visibility' is-defined='yes'/>
    <elf-symbol name='_ZSt3getILm0EJPN5mongo16OperationContextENS0_6StatusEEENSt9__add_refINSt13tuple_elementIXT_ESt5tupleIJDpT0_EEE4typeEE4typeERS9_' type='func-type' binding='weak-binding' visibility='default-visibility' is-defined='yes'/>
    <elf-symbol name='_ZSt3getILm0EJPN5mongo4repl16StorageInterfaceEEENSt9__add_refINSt13tuple_elementIXT_ESt5tupleIJDpT0_EEE4typeEE4typeERS9_' type='func-type' binding='weak-binding' visibility='default-visibility' is-defined='yes'/>
    <elf-symbol name='_ZSt3getILm0EJPN5mongo4repl16StorageInterfaceESt14default_deleteIS2_EEENSt9__add_refINSt13tuple_elementIXT_ESt5tupleIJDpT0_EEE4typeEE4typeERSB_' type='func-type' binding='weak-binding' visibility='default-visibility' is-defined='yes'/>
    <elf-symbol name='_ZSt3getILm0EJPN5mongo4repl19ReplicationExecutorENS0_8executor20RemoteCommandRequestESt12_PlaceholderILi1EENS4_12TaskExecutor14CallbackHandleEmSt8functionIFvRKNS8_25RemoteCommandCallbackArgsEEEEENSt9__add_refINSt13tuple_elementIXT_ESt5tupleIJDpT0_EEE4typeEE4typeERSL_' type='func-type' binding='weak-binding' visibility='default-visibility' is-defined='yes'/>
    <elf-symbol name='_ZSt3getILm0EJPN5mongo4repl19ReplicationExecutorESt12_PlaceholderILi1EEEENSt9__add_refINSt13tuple_elementIXT_ESt5tupleIJDpT0_EEE4typeEE4typeERSB_' type='func-type' binding='weak-binding' visibility='default-visibility' is-defined='yes'/>
    <elf-symbol name='_ZSt3getILm0EJPN5mongo4repl19ReplicationExecutorESt12_PlaceholderILi1EES4_ILi2EENS0_8executor12TaskExecutor14CallbackHandleEPSt4listINS2_8WorkItemESaISB_EEDnEENSt9__add_refINSt13tuple_elementIXT_ESt5tupleIJDpT0_EEE4typeEE4typeERSK_' type='func-type' binding='weak-binding' visibility='default-visibility' is-defined='yes'/>
    <elf-symbol name='_ZSt3getILm0EJPN5mongo4repl19ReplicationExecutorESt12_PlaceholderILi1EES4_ILi2EENS0_8executor12TaskExecutor14CallbackHandleEPSt4listINS2_8WorkItemESaISB_EEPSt5mutexEENSt9__add_refINSt13tuple_elementIXT_ESt5tupleIJDpT0_EEE4typeEE4typeERSM_' type='func-type' binding='weak-binding' visibility='default-visibility' is-defined='yes'/>
    <elf-symbol name='_ZSt3getILm0EJPN5mongo8executor16NetworkInterfaceESt14default_deleteIS2_EEENSt11__add_c_refINSt13tuple_elementIXT_ESt5tupleIJDpT0_EEE4typeEE4typeERKSB_' type='func-type' binding='weak-binding' visibility='default-visibility' is-defined='yes'/>
    <elf-symbol name='_ZSt3getILm0EJPN5mongo8executor16NetworkInterfaceESt14default_deleteIS2_EEENSt9__add_refINSt13tuple_elementIXT_ESt5tupleIJDpT0_EEE4typeEE4typeERSB_' type='func-type' binding='weak-binding' visibility='default-visibility' is-defined='yes'/>
    <elf-symbol name='_ZSt3getILm0EJPSt10lock_guardISt5mutexESt14default_deleteIS2_EEENSt9__add_refINSt13tuple_elementIXT_ESt5tupleIJDpT0_EEE4typeEE4typeERSB_' type='func-type' binding='weak-binding' visibility='default-visibility' is-defined='yes'/>
    <elf-symbol name='_ZSt3getILm0EJPSt19basic_ostringstreamIcSt11char_traitsIcESaIcEESt14default_deleteIS4_EEENSt11__add_c_refINSt13tuple_elementIXT_ESt5tupleIJDpT0_EEE4typeEE4typeERKSD_' type='func-type' binding='weak-binding' visibility='default-visibility' is-defined='yes'/>
    <elf-symbol name='_ZSt3getILm0EJRKN5mongo10StatusWithINS0_8executor21RemoteCommandResponseEEEEENSt9__add_refINSt13tuple_elementIXT_ESt5tupleIJDpT0_EEE4typeEE4typeERSC_' type='func-type' binding='weak-binding' visibility='default-visibility' is-defined='yes'/>
    <elf-symbol name='_ZSt3getILm0EJRKN5mongo8executor12TaskExecutor12CallbackArgsEEENSt9__add_refINSt13tuple_elementIXT_ESt5tupleIJDpT0_EEE4typeEE4typeERSB_' type='func-type' binding='weak-binding' visibility='default-visibility' is-defined='yes'/>
    <elf-symbol name='_ZSt3getILm0EJRKN5mongo8executor12TaskExecutor25RemoteCommandCallbackArgsEEENSt9__add_refINSt13tuple_elementIXT_ESt5tupleIJDpT0_EEE4typeEE4typeERSB_' type='func-type' binding='weak-binding' visibility='default-visibility' is-defined='yes'/>
    <elf-symbol name='_ZSt3getILm0EJRN5mongo8executor12TaskExecutor14CallbackHandleEEENSt9__add_refINSt13tuple_elementIXT_ESt5tupleIJDpT0_EEE4typeEE4typeERSA_' type='func-type' binding='weak-binding' visibility='default-visibility' is-defined='yes'/>
    <elf-symbol name='_ZSt3getILm0EJRPN5mongo16OperationContextERNS0_6StatusEEENSt9__add_refINSt13tuple_elementIXT_ESt5tupleIJDpT0_EEE4typeEE4typeERSB_' type='func-type' binding='weak-binding' visibility='default-visibility' is-defined='yes'/>
    <elf-symbol name='_ZSt3getILm0EJSt12_PlaceholderILi1EEPN5mongo4repl19ScatterGatherRunnerEEENSt9__add_refINSt13tuple_elementIXT_ESt5tupleIJDpT0_EEE4typeEE4typeERSB_' type='func-type' binding='weak-binding' visibility='default-visibility' is-defined='yes'/>
    <elf-symbol name='_ZSt3getILm0EJSt12_PlaceholderILi1EEPN5mongo4repl19ScatterGatherRunnerEPNS2_10StatusWithINS2_8executor12TaskExecutor11EventHandleEEEEENSt9__add_refINSt13tuple_elementIXT_ESt5tupleIJDpT0_EEE4typeEE4typeERSH_' type='func-type' binding='weak-binding' visibility='default-visibility' is-defined='yes'/>
    <elf-symbol name='_ZSt3getILm0EJSt12_PlaceholderILi1EESt8functionIFvRKN5mongo8executor12TaskExecutor25RemoteCommandCallbackArgsEEENS4_20RemoteCommandRequestEEENSt9__add_refINSt13tuple_elementIXT_ESt5tupleIJDpT0_EEE4typeEE4typeERSH_' type='func-type' binding='weak-binding' visibility='default-visibility' is-defined='yes'/>
    <elf-symbol name='_ZSt3getILm0EJSt12_PlaceholderILi1EESt8functionIFvRKN5mongo8executor12TaskExecutor25RemoteCommandCallbackArgsEEENS4_20RemoteCommandRequestENS3_10StatusWithINS4_21RemoteCommandResponseEEEEENSt9__add_refINSt13tuple_elementIXT_ESt5tupleIJDpT0_EEE4typeEE4typeERSK_' type='func-type' binding='weak-binding' visibility='default-visibility' is-defined='yes'/>
    <elf-symbol name='_ZSt3getILm0EJSt8functionIFvvEEEENSt9__add_refINSt13tuple_elementIXT_ESt5tupleIJDpT0_EEE4typeEE4typeERS8_' type='func-type' binding='weak-binding' visibility='default-visibility' is-defined='yes'/>
    <elf-symbol name='_ZSt3getILm1EJPN5mongo16OperationContextENS0_6StatusEEENSt9__add_refINSt13tuple_elementIXT_ESt5tupleIJDpT0_EEE4typeEE4typeERS9_' type='func-type' binding='weak-binding' visibility='default-visibility' is-defined='yes'/>
    <elf-symbol name='_ZSt3getILm1EJPN5mongo4repl16StorageInterfaceESt14default_deleteIS2_EEENSt9__add_refINSt13tuple_elementIXT_ESt5tupleIJDpT0_EEE4typeEE4typeERSB_' type='func-type' binding='weak-binding' visibility='default-visibility' is-defined='yes'/>
    <elf-symbol name='_ZSt3getILm1EJPN5mongo4repl19ReplicationExecutorENS0_8executor20RemoteCommandRequestESt12_PlaceholderILi1EENS4_12TaskExecutor14CallbackHandleEmSt8functionIFvRKNS8_25RemoteCommandCallbackArgsEEEEENSt9__add_refINSt13tuple_elementIXT_ESt5tupleIJDpT0_EEE4typeEE4typeERSL_' type='func-type' binding='weak-binding' visibility='default-visibility' is-defined='yes'/>
    <elf-symbol name='_ZSt3getILm1EJPN5mongo4repl19ReplicationExecutorESt12_PlaceholderILi1EEEENSt9__add_refINSt13tuple_elementIXT_ESt5tupleIJDpT0_EEE4typeEE4typeERSB_' type='func-type' binding='weak-binding' visibility='default-visibility' is-defined='yes'/>
    <elf-symbol name='_ZSt3getILm1EJPN5mongo4repl19ReplicationExecutorESt12_PlaceholderILi1EES4_ILi2EENS0_8executor12TaskExecutor14CallbackHandleEPSt4listINS2_8WorkItemESaISB_EEDnEENSt9__add_refINSt13tuple_elementIXT_ESt5tupleIJDpT0_EEE4typeEE4typeERSK_' type='func-type' binding='weak-binding' visibility='default-visibility' is-defined='yes'/>
    <elf-symbol name='_ZSt3getILm1EJPN5mongo4repl19ReplicationExecutorESt12_PlaceholderILi1EES4_ILi2EENS0_8executor12TaskExecutor14CallbackHandleEPSt4listINS2_8WorkItemESaISB_EEPSt5mutexEENSt9__add_refINSt13tuple_elementIXT_ESt5tupleIJDpT0_EEE4typeEE4typeERSM_' type='func-type' binding='weak-binding' visibility='default-visibility' is-defined='yes'/>
    <elf-symbol name='_ZSt3getILm1EJPN5mongo8executor16NetworkInterfaceESt14default_deleteIS2_EEENSt9__add_refINSt13tuple_elementIXT_ESt5tupleIJDpT0_EEE4typeEE4typeERSB_' type='func-type' binding='weak-binding' visibility='default-visibility' is-defined='yes'/>
    <elf-symbol name='_ZSt3getILm1EJPSt10lock_guardISt5mutexESt14default_deleteIS2_EEENSt9__add_refINSt13tuple_elementIXT_ESt5tupleIJDpT0_EEE4typeEE4typeERSB_' type='func-type' binding='weak-binding' visibility='default-visibility' is-defined='yes'/>
    <elf-symbol name='_ZSt3getILm1EJRPN5mongo16OperationContextERNS0_6StatusEEENSt9__add_refINSt13tuple_elementIXT_ESt5tupleIJDpT0_EEE4typeEE4typeERSB_' type='func-type' binding='weak-binding' visibility='default-visibility' is-defined='yes'/>
    <elf-symbol name='_ZSt3getILm1EJSt12_PlaceholderILi1EEPN5mongo4repl19ScatterGatherRunnerEEENSt9__add_refINSt13tuple_elementIXT_ESt5tupleIJDpT0_EEE4typeEE4typeERSB_' type='func-type' binding='weak-binding' visibility='default-visibility' is-defined='yes'/>
    <elf-symbol name='_ZSt3getILm1EJSt12_PlaceholderILi1EEPN5mongo4repl19ScatterGatherRunnerEPNS2_10StatusWithINS2_8executor12TaskExecutor11EventHandleEEEEENSt9__add_refINSt13tuple_elementIXT_ESt5tupleIJDpT0_EEE4typeEE4typeERSH_' type='func-type' binding='weak-binding' visibility='default-visibility' is-defined='yes'/>
    <elf-symbol name='_ZSt3getILm1EJSt12_PlaceholderILi1EESt8functionIFvRKN5mongo8executor12TaskExecutor25RemoteCommandCallbackArgsEEENS4_20RemoteCommandRequestEEENSt9__add_refINSt13tuple_elementIXT_ESt5tupleIJDpT0_EEE4typeEE4typeERSH_' type='func-type' binding='weak-binding' visibility='default-visibility' is-defined='yes'/>
    <elf-symbol name='_ZSt3getILm1EJSt12_PlaceholderILi1EESt8functionIFvRKN5mongo8executor12TaskExecutor25RemoteCommandCallbackArgsEEENS4_20RemoteCommandRequestENS3_10StatusWithINS4_21RemoteCommandResponseEEEEENSt9__add_refINSt13tuple_elementIXT_ESt5tupleIJDpT0_EEE4typeEE4typeERSK_' type='func-type' binding='weak-binding' visibility='default-visibility' is-defined='yes'/>
    <elf-symbol name='_ZSt3getILm2EJPN5mongo4repl19ReplicationExecutorENS0_8executor20RemoteCommandRequestESt12_PlaceholderILi1EENS4_12TaskExecutor14CallbackHandleEmSt8functionIFvRKNS8_25RemoteCommandCallbackArgsEEEEENSt9__add_refINSt13tuple_elementIXT_ESt5tupleIJDpT0_EEE4typeEE4typeERSL_' type='func-type' binding='weak-binding' visibility='default-visibility' is-defined='yes'/>
    <elf-symbol name='_ZSt3getILm2EJPN5mongo4repl19ReplicationExecutorESt12_PlaceholderILi1EES4_ILi2EENS0_8executor12TaskExecutor14CallbackHandleEPSt4listINS2_8WorkItemESaISB_EEDnEENSt9__add_refINSt13tuple_elementIXT_ESt5tupleIJDpT0_EEE4typeEE4typeERSK_' type='func-type' binding='weak-binding' visibility='default-visibility' is-defined='yes'/>
    <elf-symbol name='_ZSt3getILm2EJPN5mongo4repl19ReplicationExecutorESt12_PlaceholderILi1EES4_ILi2EENS0_8executor12TaskExecutor14CallbackHandleEPSt4listINS2_8WorkItemESaISB_EEPSt5mutexEENSt9__add_refINSt13tuple_elementIXT_ESt5tupleIJDpT0_EEE4typeEE4typeERSM_' type='func-type' binding='weak-binding' visibility='default-visibility' is-defined='yes'/>
    <elf-symbol name='_ZSt3getILm2EJSt12_PlaceholderILi1EEPN5mongo4repl19ScatterGatherRunnerEPNS2_10StatusWithINS2_8executor12TaskExecutor11EventHandleEEEEENSt9__add_refINSt13tuple_elementIXT_ESt5tupleIJDpT0_EEE4typeEE4typeERSH_' type='func-type' binding='weak-binding' visibility='default-visibility' is-defined='yes'/>
    <elf-symbol name='_ZSt3getILm2EJSt12_PlaceholderILi1EESt8functionIFvRKN5mongo8executor12TaskExecutor25RemoteCommandCallbackArgsEEENS4_20RemoteCommandRequestEEENSt9__add_refINSt13tuple_elementIXT_ESt5tupleIJDpT0_EEE4typeEE4typeERSH_' type='func-type' binding='weak-binding' visibility='default-visibility' is-defined='yes'/>
    <elf-symbol name='_ZSt3getILm2EJSt12_PlaceholderILi1EESt8functionIFvRKN5mongo8executor12TaskExecutor25RemoteCommandCallbackArgsEEENS4_20RemoteCommandRequestENS3_10StatusWithINS4_21RemoteCommandResponseEEEEENSt9__add_refINSt13tuple_elementIXT_ESt5tupleIJDpT0_EEE4typeEE4typeERSK_' type='func-type' binding='weak-binding' visibility='default-visibility' is-defined='yes'/>
    <elf-symbol name='_ZSt3getILm3EJPN5mongo4repl19ReplicationExecutorENS0_8executor20RemoteCommandRequestESt12_PlaceholderILi1EENS4_12TaskExecutor14CallbackHandleEmSt8functionIFvRKNS8_25RemoteCommandCallbackArgsEEEEENSt9__add_refINSt13tuple_elementIXT_ESt5tupleIJDpT0_EEE4typeEE4typeERSL_' type='func-type' binding='weak-binding' visibility='default-visibility' is-defined='yes'/>
    <elf-symbol name='_ZSt3getILm3EJPN5mongo4repl19ReplicationExecutorESt12_PlaceholderILi1EES4_ILi2EENS0_8executor12TaskExecutor14CallbackHandleEPSt4listINS2_8WorkItemESaISB_EEDnEENSt9__add_refINSt13tuple_elementIXT_ESt5tupleIJDpT0_EEE4typeEE4typeERSK_' type='func-type' binding='weak-binding' visibility='default-visibility' is-defined='yes'/>
    <elf-symbol name='_ZSt3getILm3EJPN5mongo4repl19ReplicationExecutorESt12_PlaceholderILi1EES4_ILi2EENS0_8executor12TaskExecutor14CallbackHandleEPSt4listINS2_8WorkItemESaISB_EEPSt5mutexEENSt9__add_refINSt13tuple_elementIXT_ESt5tupleIJDpT0_EEE4typeEE4typeERSM_' type='func-type' binding='weak-binding' visibility='default-visibility' is-defined='yes'/>
    <elf-symbol name='_ZSt3getILm3EJSt12_PlaceholderILi1EESt8functionIFvRKN5mongo8executor12TaskExecutor25RemoteCommandCallbackArgsEEENS4_20RemoteCommandRequestENS3_10StatusWithINS4_21RemoteCommandResponseEEEEENSt9__add_refINSt13tuple_elementIXT_ESt5tupleIJDpT0_EEE4typeEE4typeERSK_' type='func-type' binding='weak-binding' visibility='default-visibility' is-defined='yes'/>
    <elf-symbol name='_ZSt3getILm4EJPN5mongo4repl19ReplicationExecutorENS0_8executor20RemoteCommandRequestESt12_PlaceholderILi1EENS4_12TaskExecutor14CallbackHandleEmSt8functionIFvRKNS8_25RemoteCommandCallbackArgsEEEEENSt9__add_refINSt13tuple_elementIXT_ESt5tupleIJDpT0_EEE4typeEE4typeERSL_' type='func-type' binding='weak-binding' visibility='default-visibility' is-defined='yes'/>
    <elf-symbol name='_ZSt3getILm4EJPN5mongo4repl19ReplicationExecutorESt12_PlaceholderILi1EES4_ILi2EENS0_8executor12TaskExecutor14CallbackHandleEPSt4listINS2_8WorkItemESaISB_EEDnEENSt9__add_refINSt13tuple_elementIXT_ESt5tupleIJDpT0_EEE4typeEE4typeERSK_' type='func-type' binding='weak-binding' visibility='default-visibility' is-defined='yes'/>
    <elf-symbol name='_ZSt3getILm4EJPN5mongo4repl19ReplicationExecutorESt12_PlaceholderILi1EES4_ILi2EENS0_8executor12TaskExecutor14CallbackHandleEPSt4listINS2_8WorkItemESaISB_EEPSt5mutexEENSt9__add_refINSt13tuple_elementIXT_ESt5tupleIJDpT0_EEE4typeEE4typeERSM_' type='func-type' binding='weak-binding' visibility='default-visibility' is-defined='yes'/>
    <elf-symbol name='_ZSt3getILm5EJPN5mongo4repl19ReplicationExecutorENS0_8executor20RemoteCommandRequestESt12_PlaceholderILi1EENS4_12TaskExecutor14CallbackHandleEmSt8functionIFvRKNS8_25RemoteCommandCallbackArgsEEEEENSt9__add_refINSt13tuple_elementIXT_ESt5tupleIJDpT0_EEE4typeEE4typeERSL_' type='func-type' binding='weak-binding' visibility='default-visibility' is-defined='yes'/>
    <elf-symbol name='_ZSt3getILm5EJPN5mongo4repl19ReplicationExecutorESt12_PlaceholderILi1EES4_ILi2EENS0_8executor12TaskExecutor14CallbackHandleEPSt4listINS2_8WorkItemESaISB_EEDnEENSt9__add_refINSt13tuple_elementIXT_ESt5tupleIJDpT0_EEE4typeEE4typeERSK_' type='func-type' binding='weak-binding' visibility='default-visibility' is-defined='yes'/>
    <elf-symbol name='_ZSt3getILm5EJPN5mongo4repl19ReplicationExecutorESt12_PlaceholderILi1EES4_ILi2EENS0_8executor12TaskExecutor14CallbackHandleEPSt4listINS2_8WorkItemESaISB_EEPSt5mutexEENSt9__add_refINSt13tuple_elementIXT_ESt5tupleIJDpT0_EEE4typeEE4typeERSM_' type='func-type' binding='weak-binding' visibility='default-visibility' is-defined='yes'/>
    <elf-symbol name='_ZSt3maxImERKT_S2_S2_' type='func-type' binding='weak-binding' visibility='default-visibility' is-defined='yes'/>
    <elf-symbol name='_ZSt4bindIMN5mongo4repl16StorageInterfaceEFPNS0_16OperationContextEvEJRPS2_EENSt12_Bind_helperIXsr15__is_socketlikeIT_EE5valueESA_JDpT0_EE4typeEOSA_DpOSB_' type='func-type' binding='weak-binding' visibility='default-visibility' is-defined='yes'/>
    <elf-symbol name='_ZSt4bindIMN5mongo4repl19ReplicationExecutorEFvPNS0_16OperationContextERKNS0_6StatusERKNS0_8executor12TaskExecutor14CallbackHandleEPSt4listINS2_8WorkItemESaISE_EEPSt5mutexEJPS2_RKSt12_PlaceholderILi1EERKSN_ILi2EERSA_SH_DnEENSt12_Bind_helperIXsr15__is_socketlikeIT_EE5valueESW_JDpT0_EE4typeEOSW_DpOSX_' type='func-type' binding='weak-binding' visibility='default-visibility' is-defined='yes'/>
    <elf-symbol name='_ZSt4bindIMN5mongo4repl19ReplicationExecutorEFvPNS0_16OperationContextERKNS0_6StatusERKNS0_8executor12TaskExecutor14CallbackHandleEPSt4listINS2_8WorkItemESaISE_EEPSt5mutexEJPS2_RKSt12_PlaceholderILi1EERKSN_ILi2EERSA_SH_SJ_EENSt12_Bind_helperIXsr15__is_socketlikeIT_EE5valueESW_JDpT0_EE4typeEOSW_DpOSX_' type='func-type' binding='weak-binding' visibility='default-visibility' is-defined='yes'/>
    <elf-symbol name='_ZSt4bindIMN5mongo4repl19ReplicationExecutorEFvRKNS0_8executor12TaskExecutor14CallbackHandleEEJRPS2_RKSt12_PlaceholderILi1EEEENSt12_Bind_helperIXsr15__is_socketlikeIT_EE5valueESH_JDpT0_EE4typeEOSH_DpOSI_' type='func-type' binding='weak-binding' visibility='default-visibility' is-defined='yes'/>
    <elf-symbol name='_ZSt4bindIMN5mongo4repl19ReplicationExecutorEFvRKNS0_8executor20RemoteCommandRequestERKNS0_10StatusWithINS3_21RemoteCommandResponseEEERKNS3_12TaskExecutor14CallbackHandleEmRKSt8functionIFvRKNSC_25RemoteCommandCallbackArgsEEEEJPS2_RS4_RKSt12_PlaceholderILi1EERSD_RmSN_EENSt12_Bind_helperIXsr15__is_socketlikeIT_EE5valueESZ_JDpT0_EE4typeEOSZ_DpOS10_' type='func-type' binding='weak-binding' visibility='default-visibility' is-defined='yes'/>
    <elf-symbol name='_ZSt4bindIPFvRKN5mongo8executor12TaskExecutor25RemoteCommandCallbackArgsEPNS0_4repl19ScatterGatherRunnerEEJRKSt12_PlaceholderILi1EES8_EENSt12_Bind_helperIXsr15__is_socketlikeIT_EE5valueESG_JDpT0_EE4typeEOSG_DpOSH_' type='func-type' binding='weak-binding' visibility='default-visibility' is-defined='yes'/>
    <elf-symbol name='_ZSt4bindIRFvRKN5mongo8executor12TaskExecutor12CallbackArgsEPNS0_4repl19ScatterGatherRunnerEPNS0_10StatusWithINS2_11EventHandleEEEEJRKSt12_PlaceholderILi1EES8_SC_EENSt12_Bind_helperIXsr15__is_socketlikeIT_EE5valueESK_JDpT0_EE4typeEOSK_DpOSL_' type='func-type' binding='weak-binding' visibility='default-visibility' is-defined='yes'/>
    <elf-symbol name='_ZSt4bindIRFvRKN5mongo8executor12TaskExecutor12CallbackArgsERKSt8functionIFvRKNS2_25RemoteCommandCallbackArgsEEERKNS1_20RemoteCommandRequestEEJRKSt12_PlaceholderILi1EESD_RSE_EENSt12_Bind_helperIXsr15__is_socketlikeIT_EE5valueESP_JDpT0_EE4typeEOSP_DpOSQ_' type='func-type' binding='weak-binding' visibility='default-visibility' is-defined='yes'/>
    <elf-symbol name='_ZSt4bindIRFvRKN5mongo8executor12TaskExecutor12CallbackArgsERKSt8functionIFvRKNS2_25RemoteCommandCallbackArgsEEERKNS1_20RemoteCommandRequestERKNS0_10StatusWithINS1_21RemoteCommandResponseEEEEJRKSt12_PlaceholderILi1EESD_SG_SL_EENSt12_Bind_helperIXsr15__is_socketlikeIT_EE5valueEST_JDpT0_EE4typeEOST_DpOSU_' type='func-type' binding='weak-binding' visibility='default-visibility' is-defined='yes'/>
    <elf-symbol name='_ZSt4bindIRFvRKSt8functionIFvvEEEJS4_EENSt12_Bind_helperIXsr15__is_socketlikeIT_EE5valueES8_JDpT0_EE4typeEOS8_DpOS9_' type='func-type' binding='weak-binding' visibility='default-visibility' is-defined='yes'/>
    <elf-symbol name='_ZSt4bindIRKSt5_BindIFSt7_Mem_fnIMN5mongo4repl19ReplicationExecutorEFvPNS2_16OperationContextERKNS2_6StatusERKNS2_8executor12TaskExecutor14CallbackHandleEPSt4listINS4_8WorkItemESaISG_EEPSt5mutexEEPS4_St12_PlaceholderILi1EESQ_ILi2EESC_SJ_DnEEJRS6_S9_EENSt12_Bind_helperIXsr15__is_socketlikeIT_EE5valueESZ_JDpT0_EE4typeEOSZ_DpOS10_' type='func-type' binding='weak-binding' visibility='default-visibility' is-defined='yes'/>
    <elf-symbol name='_ZSt4bindIRKSt5_BindIFSt7_Mem_fnIMN5mongo4repl19ReplicationExecutorEFvPNS2_16OperationContextERKNS2_6StatusERKNS2_8executor12TaskExecutor14CallbackHandleEPSt4listINS4_8WorkItemESaISG_EEPSt5mutexEEPS4_St12_PlaceholderILi1EESQ_ILi2EESC_SJ_SL_EEJRS6_S9_EENSt12_Bind_helperIXsr15__is_socketlikeIT_EE5valueESZ_JDpT0_EE4typeEOSZ_DpOS10_' type='func-type' binding='weak-binding' visibility='default-visibility' is-defined='yes'/>
    <elf-symbol name='_ZSt4bindIRKSt8functionIFvRKN5mongo8executor12TaskExecutor12CallbackArgsEEEJS4_EENSt12_Bind_helperIXsr15__is_socketlikeIT_EE5valueESC_JDpT0_EE4typeEOSC_DpOSD_' type='func-type' binding='weak-binding' visibility='default-visibility' is-defined='yes'/>
    <elf-symbol name='_ZSt4moveIRKSaIN5mongo4repl19ReplicationExecutor5EventEEEONSt16remove_referenceIT_E4typeEOS8_' type='func-type' binding='weak-binding' visibility='default-visibility' is-defined='yes'/>
    <elf-symbol name='_ZSt4moveIRN5mongo12SharedBufferEEONSt16remove_referenceIT_E4typeEOS4_' type='func-type' binding='weak-binding' visibility='default-visibility' is-defined='yes'/>
    <elf-symbol name='_ZSt4moveIRN5mongo4repl19ReplicationExecutor8WorkItemEEONSt16remove_referenceIT_E4typeEOS6_' type='func-type' binding='weak-binding' visibility='default-visibility' is-defined='yes'/>
    <elf-symbol name='_ZSt4moveIRN5mongo6StatusEEONSt16remove_referenceIT_E4typeEOS4_' type='func-type' binding='weak-binding' visibility='default-visibility' is-defined='yes'/>
    <elf-symbol name='_ZSt4moveIRN5mongo8executor12TaskExecutor11EventHandleEEONSt16remove_referenceIT_E4typeEOS6_' type='func-type' binding='weak-binding' visibility='default-visibility' is-defined='yes'/>
    <elf-symbol name='_ZSt4moveIRN5mongo8executor12TaskExecutor14CallbackHandleEEONSt16remove_referenceIT_E4typeEOS6_' type='func-type' binding='weak-binding' visibility='default-visibility' is-defined='yes'/>
    <elf-symbol name='_ZSt4moveIRNSt6thread2idEEONSt16remove_referenceIT_E4typeEOS4_' type='func-type' binding='weak-binding' visibility='default-visibility' is-defined='yes'/>
    <elf-symbol name='_ZSt4moveIRPFbRSt9_Any_dataRKS0_St18_Manager_operationEEONSt16remove_referenceIT_E4typeEOS9_' type='func-type' binding='weak-binding' visibility='default-visibility' is-defined='yes'/>
    <elf-symbol name='_ZSt4moveIRPFvRKN5mongo8executor12TaskExecutor12CallbackArgsEPNS0_4repl19ScatterGatherRunnerEPNS0_10StatusWithINS2_11EventHandleEEEEEONSt16remove_referenceIT_E4typeEOSH_' type='func-type' binding='weak-binding' visibility='default-visibility' is-defined='yes'/>
    <elf-symbol name='_ZSt4moveIRPFvRKN5mongo8executor12TaskExecutor12CallbackArgsERKSt8functionIFvRKNS2_25RemoteCommandCallbackArgsEEERKNS1_20RemoteCommandRequestEEEONSt16remove_referenceIT_E4typeEOSL_' type='func-type' binding='weak-binding' visibility='default-visibility' is-defined='yes'/>
    <elf-symbol name='_ZSt4moveIRPFvRKN5mongo8executor12TaskExecutor12CallbackArgsERKSt8functionIFvRKNS2_25RemoteCommandCallbackArgsEEERKNS1_20RemoteCommandRequestERKNS0_10StatusWithINS1_21RemoteCommandResponseEEEEEONSt16remove_referenceIT_E4typeEOSQ_' type='func-type' binding='weak-binding' visibility='default-visibility' is-defined='yes'/>
    <elf-symbol name='_ZSt4moveIRPFvRKN5mongo8executor12TaskExecutor25RemoteCommandCallbackArgsEPNS0_4repl19ScatterGatherRunnerEEEONSt16remove_referenceIT_E4typeEOSD_' type='func-type' binding='weak-binding' visibility='default-visibility' is-defined='yes'/>
    <elf-symbol name='_ZSt4moveIRPFvRKSt8functionIFvvEEEEONSt16remove_referenceIT_E4typeEOS9_' type='func-type' binding='weak-binding' visibility='default-visibility' is-defined='yes'/>
    <elf-symbol name='_ZSt4moveIRPFvRKSt9_Any_dataEEONSt16remove_referenceIT_E4typeEOS7_' type='func-type' binding='weak-binding' visibility='default-visibility' is-defined='yes'/>
    <elf-symbol name='_ZSt4moveIRPFvRKSt9_Any_dataRKN5mongo8executor12TaskExecutor12CallbackArgsEEEONSt16remove_referenceIT_E4typeEOSD_' type='func-type' binding='weak-binding' visibility='default-visibility' is-defined='yes'/>
    <elf-symbol name='_ZSt4moveIRPFvRKSt9_Any_dataRKN5mongo8executor12TaskExecutor25RemoteCommandCallbackArgsEEEONSt16remove_referenceIT_E4typeEOSD_' type='func-type' binding='weak-binding' visibility='default-visibility' is-defined='yes'/>
    <elf-symbol name='_ZSt4moveIRPKcEONSt16remove_referenceIT_E4typeEOS4_' type='func-type' binding='weak-binding' visibility='default-visibility' is-defined='yes'/>
    <elf-symbol name='_ZSt4moveIRPN5mongo8executor12TaskExecutor10EventStateEEONSt16remove_referenceIT_E4typeEOS7_' type='func-type' binding='weak-binding' visibility='default-visibility' is-defined='yes'/>
    <elf-symbol name='_ZSt4moveIRPN5mongo8executor12TaskExecutor13CallbackStateEEONSt16remove_referenceIT_E4typeEOS7_' type='func-type' binding='weak-binding' visibility='default-visibility' is-defined='yes'/>
    <elf-symbol name='_ZSt4moveIRSsEONSt16remove_referenceIT_E4typeEOS2_' type='func-type' binding='weak-binding' visibility='default-visibility' is-defined='yes'/>
    <elf-symbol name='_ZSt4moveIRSt10shared_ptrIN5mongo4repl19ReplicationExecutor5EventEEEONSt16remove_referenceIT_E4typeEOS8_' type='func-type' binding='weak-binding' visibility='default-visibility' is-defined='yes'/>
    <elf-symbol name='_ZSt4moveIRSt10shared_ptrIN5mongo8executor12TaskExecutor10EventStateEEEONSt16remove_referenceIT_E4typeEOS8_' type='func-type' binding='weak-binding' visibility='default-visibility' is-defined='yes'/>
    <elf-symbol name='_ZSt4moveIRSt10shared_ptrIN5mongo8executor12TaskExecutor13CallbackStateEEEONSt16remove_referenceIT_E4typeEOS8_' type='func-type' binding='weak-binding' visibility='default-visibility' is-defined='yes'/>
    <elf-symbol name='_ZSt4moveIRSt11_Tuple_implILm1EJEEEONSt16remove_referenceIT_E4typeEOS4_' type='func-type' binding='weak-binding' visibility='default-visibility' is-defined='yes'/>
    <elf-symbol name='_ZSt4moveIRSt11_Tuple_implILm1EJN5mongo6StatusEEEEONSt16remove_referenceIT_E4typeEOS6_' type='func-type' binding='weak-binding' visibility='default-visibility' is-defined='yes'/>
    <elf-symbol name='_ZSt4moveIRSt11_Tuple_implILm1EJN5mongo8executor20RemoteCommandRequestESt12_PlaceholderILi1EENS2_12TaskExecutor14CallbackHandleEmSt8functionIFvRKNS6_25RemoteCommandCallbackArgsEEEEEEONSt16remove_referenceIT_E4typeEOSH_' type='func-type' binding='weak-binding' visibility='default-visibility' is-defined='yes'/>
    <elf-symbol name='_ZSt4moveIRSt11_Tuple_implILm1EJPN5mongo4repl19ScatterGatherRunnerEEEEONSt16remove_referenceIT_E4typeEOS8_' type='func-type' binding='weak-binding' visibility='default-visibility' is-defined='yes'/>
    <elf-symbol name='_ZSt4moveIRSt11_Tuple_implILm1EJPN5mongo4repl19ScatterGatherRunnerEPNS1_10StatusWithINS1_8executor12TaskExecutor11EventHandleEEEEEEONSt16remove_referenceIT_E4typeEOSE_' type='func-type' binding='weak-binding' visibility='default-visibility' is-defined='yes'/>
    <elf-symbol name='_ZSt4moveIRSt11_Tuple_implILm1EJSt12_PlaceholderILi1EEEEEONSt16remove_referenceIT_E4typeEOS6_' type='func-type' binding='weak-binding' visibility='default-visibility' is-defined='yes'/>
    <elf-symbol name='_ZSt4moveIRSt11_Tuple_implILm1EJSt12_PlaceholderILi1EES1_ILi2EEN5mongo8executor12TaskExecutor14CallbackHandleEPSt4listINS4_4repl19ReplicationExecutor8WorkItemESaISB_EEDnEEEONSt16remove_referenceIT_E4typeEOSI_' type='func-type' binding='weak-binding' visibility='default-visibility' is-defined='yes'/>
    <elf-symbol name='_ZSt4moveIRSt11_Tuple_implILm1EJSt12_PlaceholderILi1EES1_ILi2EEN5mongo8executor12TaskExecutor14CallbackHandleEPSt4listINS4_4repl19ReplicationExecutor8WorkItemESaISB_EEPSt5mutexEEEONSt16remove_referenceIT_E4typeEOSK_' type='func-type' binding='weak-binding' visibility='default-visibility' is-defined='yes'/>
    <elf-symbol name='_ZSt4moveIRSt11_Tuple_implILm1EJSt8functionIFvRKN5mongo8executor12TaskExecutor25RemoteCommandCallbackArgsEEENS3_20RemoteCommandRequestEEEEONSt16remove_referenceIT_E4typeEOSE_' type='func-type' binding='weak-binding' visibility='default-visibility' is-defined='yes'/>
    <elf-symbol name='_ZSt4moveIRSt11_Tuple_implILm1EJSt8functionIFvRKN5mongo8executor12TaskExecutor25RemoteCommandCallbackArgsEEENS3_20RemoteCommandRequestENS2_10StatusWithINS3_21RemoteCommandResponseEEEEEEONSt16remove_referenceIT_E4typeEOSH_' type='func-type' binding='weak-binding' visibility='default-visibility' is-defined='yes'/>
    <elf-symbol name='_ZSt4moveIRSt11_Tuple_implILm2EJEEEONSt16remove_referenceIT_E4typeEOS4_' type='func-type' binding='weak-binding' visibility='default-visibility' is-defined='yes'/>
    <elf-symbol name='_ZSt4moveIRSt11_Tuple_implILm2EJN5mongo8executor20RemoteCommandRequestEEEEONSt16remove_referenceIT_E4typeEOS7_' type='func-type' binding='weak-binding' visibility='default-visibility' is-defined='yes'/>
    <elf-symbol name='_ZSt4moveIRSt11_Tuple_implILm2EJN5mongo8executor20RemoteCommandRequestENS1_10StatusWithINS2_21RemoteCommandResponseEEEEEEONSt16remove_referenceIT_E4typeEOSA_' type='func-type' binding='weak-binding' visibility='default-visibility' is-defined='yes'/>
    <elf-symbol name='_ZSt4moveIRSt11_Tuple_implILm2EJPN5mongo10StatusWithINS1_8executor12TaskExecutor11EventHandleEEEEEEONSt16remove_referenceIT_E4typeEOSB_' type='func-type' binding='weak-binding' visibility='default-visibility' is-defined='yes'/>
    <elf-symbol name='_ZSt4moveIRSt11_Tuple_implILm2EJSt12_PlaceholderILi1EEN5mongo8executor12TaskExecutor14CallbackHandleEmSt8functionIFvRKNS5_25RemoteCommandCallbackArgsEEEEEEONSt16remove_referenceIT_E4typeEOSG_' type='func-type' binding='weak-binding' visibility='default-visibility' is-defined='yes'/>
    <elf-symbol name='_ZSt4moveIRSt11_Tuple_implILm2EJSt12_PlaceholderILi2EEN5mongo8executor12TaskExecutor14CallbackHandleEPSt4listINS3_4repl19ReplicationExecutor8WorkItemESaISA_EEDnEEEONSt16remove_referenceIT_E4typeEOSH_' type='func-type' binding='weak-binding' visibility='default-visibility' is-defined='yes'/>
    <elf-symbol name='_ZSt4moveIRSt11_Tuple_implILm2EJSt12_PlaceholderILi2EEN5mongo8executor12TaskExecutor14CallbackHandleEPSt4listINS3_4repl19ReplicationExecutor8WorkItemESaISA_EEPSt5mutexEEEONSt16remove_referenceIT_E4typeEOSJ_' type='func-type' binding='weak-binding' visibility='default-visibility' is-defined='yes'/>
    <elf-symbol name='_ZSt4moveIRSt11_Tuple_implILm3EJEEEONSt16remove_referenceIT_E4typeEOS4_' type='func-type' binding='weak-binding' visibility='default-visibility' is-defined='yes'/>
    <elf-symbol name='_ZSt4moveIRSt11_Tuple_implILm3EJN5mongo10StatusWithINS1_8executor21RemoteCommandResponseEEEEEEONSt16remove_referenceIT_E4typeEOS9_' type='func-type' binding='weak-binding' visibility='default-visibility' is-defined='yes'/>
    <elf-symbol name='_ZSt4moveIRSt11_Tuple_implILm3EJN5mongo8executor12TaskExecutor14CallbackHandleEPSt4listINS1_4repl19ReplicationExecutor8WorkItemESaIS8_EEDnEEEONSt16remove_referenceIT_E4typeEOSF_' type='func-type' binding='weak-binding' visibility='default-visibility' is-defined='yes'/>
    <elf-symbol name='_ZSt4moveIRSt11_Tuple_implILm3EJN5mongo8executor12TaskExecutor14CallbackHandleEPSt4listINS1_4repl19ReplicationExecutor8WorkItemESaIS8_EEPSt5mutexEEEONSt16remove_referenceIT_E4typeEOSH_' type='func-type' binding='weak-binding' visibility='default-visibility' is-defined='yes'/>
    <elf-symbol name='_ZSt4moveIRSt11_Tuple_implILm3EJN5mongo8executor12TaskExecutor14CallbackHandleEmSt8functionIFvRKNS3_25RemoteCommandCallbackArgsEEEEEEONSt16remove_referenceIT_E4typeEOSE_' type='func-type' binding='weak-binding' visibility='default-visibility' is-defined='yes'/>
    <elf-symbol name='_ZSt4moveIRSt11_Tuple_implILm4EJEEEONSt16remove_referenceIT_E4typeEOS4_' type='func-type' binding='weak-binding' visibility='default-visibility' is-defined='yes'/>
    <elf-symbol name='_ZSt4moveIRSt11_Tuple_implILm4EJPSt4listIN5mongo4repl19ReplicationExecutor8WorkItemESaIS5_EEDnEEEONSt16remove_referenceIT_E4typeEOSC_' type='func-type' binding='weak-binding' visibility='default-visibility' is-defined='yes'/>
    <elf-symbol name='_ZSt4moveIRSt11_Tuple_implILm4EJPSt4listIN5mongo4repl19ReplicationExecutor8WorkItemESaIS5_EEPSt5mutexEEEONSt16remove_referenceIT_E4typeEOSE_' type='func-type' binding='weak-binding' visibility='default-visibility' is-defined='yes'/>
    <elf-symbol name='_ZSt4moveIRSt11_Tuple_implILm4EJmSt8functionIFvRKN5mongo8executor12TaskExecutor25RemoteCommandCallbackArgsEEEEEEONSt16remove_referenceIT_E4typeEOSD_' type='func-type' binding='weak-binding' visibility='default-visibility' is-defined='yes'/>
    <elf-symbol name='_ZSt4moveIRSt11_Tuple_implILm5EJDnEEEONSt16remove_referenceIT_E4typeEOS4_' type='func-type' binding='weak-binding' visibility='default-visibility' is-defined='yes'/>
    <elf-symbol name='_ZSt4moveIRSt11_Tuple_implILm5EJPSt5mutexEEEONSt16remove_referenceIT_E4typeEOS6_' type='func-type' binding='weak-binding' visibility='default-visibility' is-defined='yes'/>
    <elf-symbol name='_ZSt4moveIRSt11_Tuple_implILm5EJSt8functionIFvRKN5mongo8executor12TaskExecutor25RemoteCommandCallbackArgsEEEEEEONSt16remove_referenceIT_E4typeEOSD_' type='func-type' binding='weak-binding' visibility='default-visibility' is-defined='yes'/>
    <elf-symbol name='_ZSt4moveIRSt11_Tuple_implILm6EJEEEONSt16remove_referenceIT_E4typeEOS4_' type='func-type' binding='weak-binding' visibility='default-visibility' is-defined='yes'/>
    <elf-symbol name='_ZSt4moveIRSt12__shared_ptrIN5mongo8executor12TaskExecutor10EventStateELN9__gnu_cxx12_Lock_policyE2EEEONSt16remove_referenceIT_E4typeEOSA_' type='func-type' binding='weak-binding' visibility='default-visibility' is-defined='yes'/>
    <elf-symbol name='_ZSt4moveIRSt12__shared_ptrIN5mongo8executor12TaskExecutor13CallbackStateELN9__gnu_cxx12_Lock_policyE2EEEONSt16remove_referenceIT_E4typeEOSA_' type='func-type' binding='weak-binding' visibility='default-visibility' is-defined='yes'/>
    <elf-symbol name='_ZSt4moveIRSt4listIN5mongo4repl19ReplicationExecutor8WorkItemESaIS4_EEEONSt16remove_referenceIT_E4typeEOS9_' type='func-type' binding='weak-binding' visibility='default-visibility' is-defined='yes'/>
    <elf-symbol name='_ZSt4moveIRSt5_BindIFPFvRKN5mongo8executor12TaskExecutor12CallbackArgsEPNS1_4repl19ScatterGatherRunnerEPNS1_10StatusWithINS3_11EventHandleEEEESt12_PlaceholderILi1EES9_SD_EEEONSt16remove_referenceIT_E4typeEOSM_' type='func-type' binding='weak-binding' visibility='default-visibility' is-defined='yes'/>
    <elf-symbol name='_ZSt4moveIRSt5_BindIFPFvRKN5mongo8executor12TaskExecutor12CallbackArgsERKSt8functionIFvRKNS3_25RemoteCommandCallbackArgsEEERKNS2_20RemoteCommandRequestEESt12_PlaceholderILi1EESC_SF_EEEONSt16remove_referenceIT_E4typeEOSQ_' type='func-type' binding='weak-binding' visibility='default-visibility' is-defined='yes'/>
    <elf-symbol name='_ZSt4moveIRSt5_BindIFPFvRKN5mongo8executor12TaskExecutor12CallbackArgsERKSt8functionIFvRKNS3_25RemoteCommandCallbackArgsEEERKNS2_20RemoteCommandRequestERKNS1_10StatusWithINS2_21RemoteCommandResponseEEEESt12_PlaceholderILi1EESC_SF_SK_EEEONSt16remove_referenceIT_E4typeEOSV_' type='func-type' binding='weak-binding' visibility='default-visibility' is-defined='yes'/>
    <elf-symbol name='_ZSt4moveIRSt5_BindIFPFvRKN5mongo8executor12TaskExecutor25RemoteCommandCallbackArgsEPNS1_4repl19ScatterGatherRunnerEESt12_PlaceholderILi1EES9_EEEONSt16remove_referenceIT_E4typeEOSI_' type='func-type' binding='weak-binding' visibility='default-visibility' is-defined='yes'/>
    <elf-symbol name='_ZSt4moveIRSt5_BindIFPFvRKSt8functionIFvvEEES3_EEEONSt16remove_referenceIT_E4typeEOSC_' type='func-type' binding='weak-binding' visibility='default-visibility' is-defined='yes'/>
    <elf-symbol name='_ZSt4moveIRSt5_BindIFS0_IFSt7_Mem_fnIMN5mongo4repl19ReplicationExecutorEFvPNS2_16OperationContextERKNS2_6StatusERKNS2_8executor12TaskExecutor14CallbackHandleEPSt4listINS4_8WorkItemESaISG_EEPSt5mutexEEPS4_St12_PlaceholderILi1EESQ_ILi2EESC_SJ_DnEES6_S7_EEEONSt16remove_referenceIT_E4typeEOSZ_' type='func-type' binding='weak-binding' visibility='default-visibility' is-defined='yes'/>
    <elf-symbol name='_ZSt4moveIRSt5_BindIFS0_IFSt7_Mem_fnIMN5mongo4repl19ReplicationExecutorEFvPNS2_16OperationContextERKNS2_6StatusERKNS2_8executor12TaskExecutor14CallbackHandleEPSt4listINS4_8WorkItemESaISG_EEPSt5mutexEEPS4_St12_PlaceholderILi1EESQ_ILi2EESC_SJ_SL_EES6_S7_EEEONSt16remove_referenceIT_E4typeEOSZ_' type='func-type' binding='weak-binding' visibility='default-visibility' is-defined='yes'/>
    <elf-symbol name='_ZSt4moveIRSt5_BindIFSt7_Mem_fnIMN5mongo4repl16StorageInterfaceEFPNS2_16OperationContextEvEEPS4_EEEONSt16remove_referenceIT_E4typeEOSF_' type='func-type' binding='weak-binding' visibility='default-visibility' is-defined='yes'/>
    <elf-symbol name='_ZSt4moveIRSt5_BindIFSt7_Mem_fnIMN5mongo4repl19ReplicationExecutorEFvPNS2_16OperationContextERKNS2_6StatusERKNS2_8executor12TaskExecutor14CallbackHandleEPSt4listINS4_8WorkItemESaISG_EEPSt5mutexEEPS4_St12_PlaceholderILi1EESQ_ILi2EESC_SJ_DnEEEONSt16remove_referenceIT_E4typeEOSX_' type='func-type' binding='weak-binding' visibility='default-visibility' is-defined='yes'/>
    <elf-symbol name='_ZSt4moveIRSt5_BindIFSt7_Mem_fnIMN5mongo4repl19ReplicationExecutorEFvPNS2_16OperationContextERKNS2_6StatusERKNS2_8executor12TaskExecutor14CallbackHandleEPSt4listINS4_8WorkItemESaISG_EEPSt5mutexEEPS4_St12_PlaceholderILi1EESQ_ILi2EESC_SJ_SL_EEEONSt16remove_referenceIT_E4typeEOSX_' type='func-type' binding='weak-binding' visibility='default-visibility' is-defined='yes'/>
    <elf-symbol name='_ZSt4moveIRSt5_BindIFSt7_Mem_fnIMN5mongo4repl19ReplicationExecutorEFvRKNS2_8executor12TaskExecutor14CallbackHandleEEEPS4_St12_PlaceholderILi1EEEEEONSt16remove_referenceIT_E4typeEOSK_' type='func-type' binding='weak-binding' visibility='default-visibility' is-defined='yes'/>
    <elf-symbol name='_ZSt4moveIRSt5_BindIFSt7_Mem_fnIMN5mongo4repl19ReplicationExecutorEFvRKNS2_8executor20RemoteCommandRequestERKNS2_10StatusWithINS5_21RemoteCommandResponseEEERKNS5_12TaskExecutor14CallbackHandleEmRKSt8functionIFvRKNSE_25RemoteCommandCallbackArgsEEEEEPS4_S6_St12_PlaceholderILi1EESF_mSN_EEEONSt16remove_referenceIT_E4typeEOS10_' type='func-type' binding='weak-binding' visibility='default-visibility' is-defined='yes'/>
    <elf-symbol name='_ZSt4moveIRSt5_BindIFSt8functionIFvRKN5mongo8executor12TaskExecutor12CallbackArgsEEES5_EEEONSt16remove_referenceIT_E4typeEOSE_' type='func-type' binding='weak-binding' visibility='default-visibility' is-defined='yes'/>
    <elf-symbol name='_ZSt4moveIRSt5tupleIJN5mongo8executor12TaskExecutor12CallbackArgsEEEEONSt16remove_referenceIT_E4typeEOS8_' type='func-type' binding='weak-binding' visibility='default-visibility' is-defined='yes'/>
    <elf-symbol name='_ZSt4moveIRSt5tupleIJPN5mongo16OperationContextENS1_6StatusEEEEONSt16remove_referenceIT_E4typeEOS8_' type='func-type' binding='weak-binding' visibility='default-visibility' is-defined='yes'/>
    <elf-symbol name='_ZSt4moveIRSt5tupleIJPN5mongo4repl16StorageInterfaceEEEEONSt16remove_referenceIT_E4typeEOS8_' type='func-type' binding='weak-binding' visibility='default-visibility' is-defined='yes'/>
    <elf-symbol name='_ZSt4moveIRSt5tupleIJPN5mongo4repl19ReplicationExecutorENS1_8executor20RemoteCommandRequestESt12_PlaceholderILi1EENS5_12TaskExecutor14CallbackHandleEmSt8functionIFvRKNS9_25RemoteCommandCallbackArgsEEEEEEONSt16remove_referenceIT_E4typeEOSK_' type='func-type' binding='weak-binding' visibility='default-visibility' is-defined='yes'/>
    <elf-symbol name='_ZSt4moveIRSt5tupleIJPN5mongo4repl19ReplicationExecutorESt12_PlaceholderILi1EEEEEONSt16remove_referenceIT_E4typeEOSA_' type='func-type' binding='weak-binding' visibility='default-visibility' is-defined='yes'/>
    <elf-symbol name='_ZSt4moveIRSt5tupleIJPN5mongo4repl19ReplicationExecutorESt12_PlaceholderILi1EES5_ILi2EENS1_8executor12TaskExecutor14CallbackHandleEPSt4listINS3_8WorkItemESaISC_EEDnEEEONSt16remove_referenceIT_E4typeEOSJ_' type='func-type' binding='weak-binding' visibility='default-visibility' is-defined='yes'/>
    <elf-symbol name='_ZSt4moveIRSt5tupleIJPN5mongo4repl19ReplicationExecutorESt12_PlaceholderILi1EES5_ILi2EENS1_8executor12TaskExecutor14CallbackHandleEPSt4listINS3_8WorkItemESaISC_EEPSt5mutexEEEONSt16remove_referenceIT_E4typeEOSL_' type='func-type' binding='weak-binding' visibility='default-visibility' is-defined='yes'/>
    <elf-symbol name='_ZSt4moveIRSt5tupleIJSt12_PlaceholderILi1EEPN5mongo4repl19ScatterGatherRunnerEEEEONSt16remove_referenceIT_E4typeEOSA_' type='func-type' binding='weak-binding' visibility='default-visibility' is-defined='yes'/>
    <elf-symbol name='_ZSt4moveIRSt5tupleIJSt12_PlaceholderILi1EEPN5mongo4repl19ScatterGatherRunnerEPNS3_10StatusWithINS3_8executor12TaskExecutor11EventHandleEEEEEEONSt16remove_referenceIT_E4typeEOSG_' type='func-type' binding='weak-binding' visibility='default-visibility' is-defined='yes'/>
    <elf-symbol name='_ZSt4moveIRSt5tupleIJSt12_PlaceholderILi1EESt8functionIFvRKN5mongo8executor12TaskExecutor25RemoteCommandCallbackArgsEEENS5_20RemoteCommandRequestEEEEONSt16remove_referenceIT_E4typeEOSG_' type='func-type' binding='weak-binding' visibility='default-visibility' is-defined='yes'/>
    <elf-symbol name='_ZSt4moveIRSt5tupleIJSt12_PlaceholderILi1EESt8functionIFvRKN5mongo8executor12TaskExecutor25RemoteCommandCallbackArgsEEENS5_20RemoteCommandRequestENS4_10StatusWithINS5_21RemoteCommandResponseEEEEEEONSt16remove_referenceIT_E4typeEOSJ_' type='func-type' binding='weak-binding' visibility='default-visibility' is-defined='yes'/>
    <elf-symbol name='_ZSt4moveIRSt5tupleIJSt8functionIFvvEEEEEONSt16remove_referenceIT_E4typeEOS7_' type='func-type' binding='weak-binding' visibility='default-visibility' is-defined='yes'/>
    <elf-symbol name='_ZSt4moveIRSt7_Mem_fnIMN5mongo4repl16StorageInterfaceEFPNS1_16OperationContextEvEEEONSt16remove_referenceIT_E4typeEOSB_' type='func-type' binding='weak-binding' visibility='default-visibility' is-defined='yes'/>
    <elf-symbol name='_ZSt4moveIRSt7_Mem_fnIMN5mongo4repl19ReplicationExecutorEFvPNS1_16OperationContextERKNS1_6StatusERKNS1_8executor12TaskExecutor14CallbackHandleEPSt4listINS3_8WorkItemESaISF_EEPSt5mutexEEEONSt16remove_referenceIT_E4typeEOSQ_' type='func-type' binding='weak-binding' visibility='default-visibility' is-defined='yes'/>
    <elf-symbol name='_ZSt4moveIRSt7_Mem_fnIMN5mongo4repl19ReplicationExecutorEFvRKNS1_8executor12TaskExecutor14CallbackHandleEEEEONSt16remove_referenceIT_E4typeEOSE_' type='func-type' binding='weak-binding' visibility='default-visibility' is-defined='yes'/>
    <elf-symbol name='_ZSt4moveIRSt7_Mem_fnIMN5mongo4repl19ReplicationExecutorEFvRKNS1_8executor20RemoteCommandRequestERKNS1_10StatusWithINS4_21RemoteCommandResponseEEERKNS4_12TaskExecutor14CallbackHandleEmRKSt8functionIFvRKNSD_25RemoteCommandCallbackArgsEEEEEEONSt16remove_referenceIT_E4typeEOSU_' type='func-type' binding='weak-binding' visibility='default-visibility' is-defined='yes'/>
    <elf-symbol name='_ZSt4moveIRSt8functionIFvRKN5mongo8executor12TaskExecutor12CallbackArgsEEEEONSt16remove_referenceIT_E4typeEOSB_' type='func-type' binding='weak-binding' visibility='default-visibility' is-defined='yes'/>
    <elf-symbol name='_ZSt4moveIRSt9_Any_dataEONSt16remove_referenceIT_E4typeEOS3_' type='func-type' binding='weak-binding' visibility='default-visibility' is-defined='yes'/>
    <elf-symbol name='_ZSt4swapINSt6thread2idEEvRT_S3_' type='func-type' binding='weak-binding' visibility='default-visibility' is-defined='yes'/>
    <elf-symbol name='_ZSt4swapIPFbRSt9_Any_dataRKS0_St18_Manager_operationEEvRT_S8_' type='func-type' binding='weak-binding' visibility='default-visibility' is-defined='yes'/>
    <elf-symbol name='_ZSt4swapIPFvRKSt9_Any_dataEEvRT_S6_' type='func-type' binding='weak-binding' visibility='default-visibility' is-defined='yes'/>
    <elf-symbol name='_ZSt4swapIPFvRKSt9_Any_dataRKN5mongo8executor12TaskExecutor12CallbackArgsEEEvRT_SC_' type='func-type' binding='weak-binding' visibility='default-visibility' is-defined='yes'/>
    <elf-symbol name='_ZSt4swapIPFvRKSt9_Any_dataRKN5mongo8executor12TaskExecutor25RemoteCommandCallbackArgsEEEvRT_SC_' type='func-type' binding='weak-binding' visibility='default-visibility' is-defined='yes'/>
    <elf-symbol name='_ZSt4swapIPN5mongo8executor12TaskExecutor10EventStateEEvRT_S6_' type='func-type' binding='weak-binding' visibility='default-visibility' is-defined='yes'/>
    <elf-symbol name='_ZSt4swapIPN5mongo8executor12TaskExecutor13CallbackStateEEvRT_S6_' type='func-type' binding='weak-binding' visibility='default-visibility' is-defined='yes'/>
    <elf-symbol name='_ZSt4swapISt9_Any_dataEvRT_S2_' type='func-type' binding='weak-binding' visibility='default-visibility' is-defined='yes'/>
    <elf-symbol name='_ZSt7forwardIDnEOT_RNSt16remove_referenceIS0_E4typeE' type='func-type' binding='weak-binding' visibility='default-visibility' is-defined='yes'/>
    <elf-symbol name='_ZSt7forwardIKSaIN5mongo4repl19ReplicationExecutor5EventEEEOT_RNSt16remove_referenceIS6_E4typeE' type='func-type' binding='weak-binding' visibility='default-visibility' is-defined='yes'/>
    <elf-symbol name='_ZSt7forwardIMN5mongo4repl16StorageInterfaceEFPNS0_16OperationContextEvEEOT_RNSt16remove_referenceIS7_E4typeE' type='func-type' binding='weak-binding' visibility='default-visibility' is-defined='yes'/>
    <elf-symbol name='_ZSt7forwardIMN5mongo4repl19ReplicationExecutorEFvPNS0_16OperationContextERKNS0_6StatusERKNS0_8executor12TaskExecutor14CallbackHandleEPSt4listINS2_8WorkItemESaISE_EEPSt5mutexEEOT_RNSt16remove_referenceISM_E4typeE' type='func-type' binding='weak-binding' visibility='default-visibility' is-defined='yes'/>
    <elf-symbol name='_ZSt7forwardIMN5mongo4repl19ReplicationExecutorEFvRKNS0_8executor12TaskExecutor14CallbackHandleEEEOT_RNSt16remove_referenceISA_E4typeE' type='func-type' binding='weak-binding' visibility='default-visibility' is-defined='yes'/>
    <elf-symbol name='_ZSt7forwardIMN5mongo4repl19ReplicationExecutorEFvRKNS0_8executor20RemoteCommandRequestERKNS0_10StatusWithINS3_21RemoteCommandResponseEEERKNS3_12TaskExecutor14CallbackHandleEmRKSt8functionIFvRKNSC_25RemoteCommandCallbackArgsEEEEEOT_RNSt16remove_referenceISQ_E4typeE' type='func-type' binding='weak-binding' visibility='default-visibility' is-defined='yes'/>
    <elf-symbol name='_ZSt7forwardIN5mongo10StatusWithINS0_8executor21RemoteCommandResponseEEEEOT_RNSt16remove_referenceIS5_E4typeE' type='func-type' binding='weak-binding' visibility='default-visibility' is-defined='yes'/>
    <elf-symbol name='_ZSt7forwardIN5mongo4repl19ReplicationExecutor8WorkItemEEOT_RNSt16remove_referenceIS4_E4typeE' type='func-type' binding='weak-binding' visibility='default-visibility' is-defined='yes'/>
    <elf-symbol name='_ZSt7forwardIN5mongo6StatusEEOT_RNSt16remove_referenceIS2_E4typeE' type='func-type' binding='weak-binding' visibility='default-visibility' is-defined='yes'/>
    <elf-symbol name='_ZSt7forwardIN5mongo8executor12TaskExecutor12CallbackArgsEEOT_RNSt16remove_referenceIS4_E4typeE' type='func-type' binding='weak-binding' visibility='default-visibility' is-defined='yes'/>
    <elf-symbol name='_ZSt7forwardIN5mongo8executor12TaskExecutor14CallbackHandleEEOT_RNSt16remove_referenceIS4_E4typeE' type='func-type' binding='weak-binding' visibility='default-visibility' is-defined='yes'/>
    <elf-symbol name='_ZSt7forwardIN5mongo8executor20RemoteCommandRequestEEOT_RNSt16remove_referenceIS3_E4typeE' type='func-type' binding='weak-binding' visibility='default-visibility' is-defined='yes'/>
    <elf-symbol name='_ZSt7forwardIPFvRKN5mongo8executor12TaskExecutor25RemoteCommandCallbackArgsEPNS0_4repl19ScatterGatherRunnerEEEOT_RNSt16remove_referenceISB_E4typeE' type='func-type' binding='weak-binding' visibility='default-visibility' is-defined='yes'/>
    <elf-symbol name='_ZSt7forwardIPN5mongo10StatusWithINS0_8executor12TaskExecutor11EventHandleEEEEOT_RNSt16remove_referenceIS7_E4typeE' type='func-type' binding='weak-binding' visibility='default-visibility' is-defined='yes'/>
    <elf-symbol name='_ZSt7forwardIPN5mongo16OperationContextEEOT_RNSt16remove_referenceIS3_E4typeE' type='func-type' binding='weak-binding' visibility='default-visibility' is-defined='yes'/>
    <elf-symbol name='_ZSt7forwardIPN5mongo4repl16StorageInterfaceEEOT_RNSt16remove_referenceIS4_E4typeE' type='func-type' binding='weak-binding' visibility='default-visibility' is-defined='yes'/>
    <elf-symbol name='_ZSt7forwardIPN5mongo4repl19ReplicationExecutorEEOT_RNSt16remove_referenceIS4_E4typeE' type='func-type' binding='weak-binding' visibility='default-visibility' is-defined='yes'/>
    <elf-symbol name='_ZSt7forwardIPN5mongo4repl19ScatterGatherRunnerEEOT_RNSt16remove_referenceIS4_E4typeE' type='func-type' binding='weak-binding' visibility='default-visibility' is-defined='yes'/>
    <elf-symbol name='_ZSt7forwardIPSt4listIN5mongo4repl19ReplicationExecutor8WorkItemESaIS4_EEEOT_RNSt16remove_referenceIS8_E4typeE' type='func-type' binding='weak-binding' visibility='default-visibility' is-defined='yes'/>
    <elf-symbol name='_ZSt7forwardIPSt5mutexEOT_RNSt16remove_referenceIS2_E4typeE' type='func-type' binding='weak-binding' visibility='default-visibility' is-defined='yes'/>
    <elf-symbol name='_ZSt7forwardIRDnEOT_RNSt16remove_referenceIS1_E4typeE' type='func-type' binding='weak-binding' visibility='default-visibility' is-defined='yes'/>
    <elf-symbol name='_ZSt7forwardIRFvRKN5mongo8executor12TaskExecutor12CallbackArgsEPNS0_4repl19ScatterGatherRunnerEPNS0_10StatusWithINS2_11EventHandleEEEEEOT_RNSt16remove_referenceISF_E4typeE' type='func-type' binding='weak-binding' visibility='default-visibility' is-defined='yes'/>
    <elf-symbol name='_ZSt7forwardIRFvRKN5mongo8executor12TaskExecutor12CallbackArgsERKSt8functionIFvRKNS2_25RemoteCommandCallbackArgsEEERKNS1_20RemoteCommandRequestEEEOT_RNSt16remove_referenceISJ_E4typeE' type='func-type' binding='weak-binding' visibility='default-visibility' is-defined='yes'/>
    <elf-symbol name='_ZSt7forwardIRFvRKN5mongo8executor12TaskExecutor12CallbackArgsERKSt8functionIFvRKNS2_25RemoteCommandCallbackArgsEEERKNS1_20RemoteCommandRequestERKNS0_10StatusWithINS1_21RemoteCommandResponseEEEEEOT_RNSt16remove_referenceISO_E4typeE' type='func-type' binding='weak-binding' visibility='default-visibility' is-defined='yes'/>
    <elf-symbol name='_ZSt7forwardIRFvRKSt8functionIFvvEEEEOT_RNSt16remove_referenceIS7_E4typeE' type='func-type' binding='weak-binding' visibility='default-visibility' is-defined='yes'/>
    <elf-symbol name='_ZSt7forwardIRKN5mongo10StatusWithINS0_8executor21RemoteCommandResponseEEEEOT_RNSt16remove_referenceIS7_E4typeE' type='func-type' binding='weak-binding' visibility='default-visibility' is-defined='yes'/>
    <elf-symbol name='_ZSt7forwardIRKN5mongo4repl19ReplicationExecutor8WorkItemEEOT_RNSt16remove_referenceIS6_E4typeE' type='func-type' binding='weak-binding' visibility='default-visibility' is-defined='yes'/>
    <elf-symbol name='_ZSt7forwardIRKN5mongo6StatusEEOT_RNSt16remove_referenceIS4_E4typeE' type='func-type' binding='weak-binding' visibility='default-visibility' is-defined='yes'/>
    <elf-symbol name='_ZSt7forwardIRKN5mongo8executor12TaskExecutor12CallbackArgsEEOT_RNSt16remove_referenceIS6_E4typeE' type='func-type' binding='weak-binding' visibility='default-visibility' is-defined='yes'/>
    <elf-symbol name='_ZSt7forwardIRKN5mongo8executor12TaskExecutor14CallbackHandleEEOT_RNSt16remove_referenceIS6_E4typeE' type='func-type' binding='weak-binding' visibility='default-visibility' is-defined='yes'/>
    <elf-symbol name='_ZSt7forwardIRKN5mongo8executor12TaskExecutor25RemoteCommandCallbackArgsEEOT_RNSt16remove_referenceIS6_E4typeE' type='func-type' binding='weak-binding' visibility='default-visibility' is-defined='yes'/>
    <elf-symbol name='_ZSt7forwardIRKN5mongo8executor20RemoteCommandRequestEEOT_RNSt16remove_referenceIS5_E4typeE' type='func-type' binding='weak-binding' visibility='default-visibility' is-defined='yes'/>
    <elf-symbol name='_ZSt7forwardIRKSt12_PlaceholderILi1EEEOT_RNSt16remove_referenceIS4_E4typeE' type='func-type' binding='weak-binding' visibility='default-visibility' is-defined='yes'/>
    <elf-symbol name='_ZSt7forwardIRKSt12_PlaceholderILi2EEEOT_RNSt16remove_referenceIS4_E4typeE' type='func-type' binding='weak-binding' visibility='default-visibility' is-defined='yes'/>
    <elf-symbol name='_ZSt7forwardIRKSt5_BindIFSt7_Mem_fnIMN5mongo4repl19ReplicationExecutorEFvPNS2_16OperationContextERKNS2_6StatusERKNS2_8executor12TaskExecutor14CallbackHandleEPSt4listINS4_8WorkItemESaISG_EEPSt5mutexEEPS4_St12_PlaceholderILi1EESQ_ILi2EESC_SJ_DnEEEOT_RNSt16remove_referenceISX_E4typeE' type='func-type' binding='weak-binding' visibility='default-visibility' is-defined='yes'/>
    <elf-symbol name='_ZSt7forwardIRKSt5_BindIFSt7_Mem_fnIMN5mongo4repl19ReplicationExecutorEFvPNS2_16OperationContextERKNS2_6StatusERKNS2_8executor12TaskExecutor14CallbackHandleEPSt4listINS4_8WorkItemESaISG_EEPSt5mutexEEPS4_St12_PlaceholderILi1EESQ_ILi2EESC_SJ_SL_EEEOT_RNSt16remove_referenceISX_E4typeE' type='func-type' binding='weak-binding' visibility='default-visibility' is-defined='yes'/>
    <elf-symbol name='_ZSt7forwardIRKSt8functionIFvRKN5mongo8executor12TaskExecutor12CallbackArgsEEEEOT_RNSt16remove_referenceISB_E4typeE' type='func-type' binding='weak-binding' visibility='default-visibility' is-defined='yes'/>
    <elf-symbol name='_ZSt7forwardIRKSt8functionIFvRKN5mongo8executor12TaskExecutor25RemoteCommandCallbackArgsEEEEOT_RNSt16remove_referenceISB_E4typeE' type='func-type' binding='weak-binding' visibility='default-visibility' is-defined='yes'/>
    <elf-symbol name='_ZSt7forwardIRKSt8functionIFvvEEEOT_RNSt16remove_referenceIS5_E4typeE' type='func-type' binding='weak-binding' visibility='default-visibility' is-defined='yes'/>
    <elf-symbol name='_ZSt7forwardIRN5mongo10StatusWithINS0_8executor21RemoteCommandResponseEEEEOT_RNSt16remove_referenceIS6_E4typeE' type='func-type' binding='weak-binding' visibility='default-visibility' is-defined='yes'/>
    <elf-symbol name='_ZSt7forwardIRN5mongo6StatusEEOT_RNSt16remove_referenceIS3_E4typeE' type='func-type' binding='weak-binding' visibility='default-visibility' is-defined='yes'/>
    <elf-symbol name='_ZSt7forwardIRN5mongo8executor12TaskExecutor12CallbackArgsEEOT_RNSt16remove_referenceIS5_E4typeE' type='func-type' binding='weak-binding' visibility='default-visibility' is-defined='yes'/>
    <elf-symbol name='_ZSt7forwardIRN5mongo8executor12TaskExecutor14CallbackHandleEEOT_RNSt16remove_referenceIS5_E4typeE' type='func-type' binding='weak-binding' visibility='default-visibility' is-defined='yes'/>
    <elf-symbol name='_ZSt7forwardIRN5mongo8executor20RemoteCommandRequestEEOT_RNSt16remove_referenceIS4_E4typeE' type='func-type' binding='weak-binding' visibility='default-visibility' is-defined='yes'/>
    <elf-symbol name='_ZSt7forwardIRPN5mongo10StatusWithINS0_8executor12TaskExecutor11EventHandleEEEEOT_RNSt16remove_referenceIS8_E4typeE' type='func-type' binding='weak-binding' visibility='default-visibility' is-defined='yes'/>
    <elf-symbol name='_ZSt7forwardIRPN5mongo16OperationContextEEOT_RNSt16remove_referenceIS4_E4typeE' type='func-type' binding='weak-binding' visibility='default-visibility' is-defined='yes'/>
    <elf-symbol name='_ZSt7forwardIRPN5mongo4repl16StorageInterfaceEEOT_RNSt16remove_referenceIS5_E4typeE' type='func-type' binding='weak-binding' visibility='default-visibility' is-defined='yes'/>
    <elf-symbol name='_ZSt7forwardIRPN5mongo4repl19ReplicationExecutorEEOT_RNSt16remove_referenceIS5_E4typeE' type='func-type' binding='weak-binding' visibility='default-visibility' is-defined='yes'/>
    <elf-symbol name='_ZSt7forwardIRPN5mongo4repl19ScatterGatherRunnerEEOT_RNSt16remove_referenceIS5_E4typeE' type='func-type' binding='weak-binding' visibility='default-visibility' is-defined='yes'/>
    <elf-symbol name='_ZSt7forwardIRPN5mongo8executor16NetworkInterfaceEEOT_RNSt16remove_referenceIS5_E4typeE' type='func-type' binding='weak-binding' visibility='default-visibility' is-defined='yes'/>
    <elf-symbol name='_ZSt7forwardIRPSt10lock_guardISt5mutexEEOT_RNSt16remove_referenceIS5_E4typeE' type='func-type' binding='weak-binding' visibility='default-visibility' is-defined='yes'/>
    <elf-symbol name='_ZSt7forwardIRPSt4listIN5mongo4repl19ReplicationExecutor8WorkItemESaIS4_EEEOT_RNSt16remove_referenceIS9_E4typeE' type='func-type' binding='weak-binding' visibility='default-visibility' is-defined='yes'/>
    <elf-symbol name='_ZSt7forwardIRPSt5mutexEOT_RNSt16remove_referenceIS3_E4typeE' type='func-type' binding='weak-binding' visibility='default-visibility' is-defined='yes'/>
    <elf-symbol name='_ZSt7forwardIRSt14_List_iteratorIN5mongo8executor12TaskExecutor11EventHandleEEEOT_RNSt16remove_referenceIS7_E4typeE' type='func-type' binding='weak-binding' visibility='default-visibility' is-defined='yes'/>
    <elf-symbol name='_ZSt7forwardIRSt8functionIFvRKN5mongo8executor12TaskExecutor25RemoteCommandCallbackArgsEEEEOT_RNSt16remove_referenceISA_E4typeE' type='func-type' binding='weak-binding' visibility='default-visibility' is-defined='yes'/>
    <elf-symbol name='_ZSt7forwardIRSt8functionIFvvEEEOT_RNSt16remove_referenceIS4_E4typeE' type='func-type' binding='weak-binding' visibility='default-visibility' is-defined='yes'/>
    <elf-symbol name='_ZSt7forwardIRmEOT_RNSt16remove_referenceIS1_E4typeE' type='func-type' binding='weak-binding' visibility='default-visibility' is-defined='yes'/>
    <elf-symbol name='_ZSt7forwardISt12_PlaceholderILi1EEEOT_RNSt16remove_referenceIS2_E4typeE' type='func-type' binding='weak-binding' visibility='default-visibility' is-defined='yes'/>
    <elf-symbol name='_ZSt7forwardISt12_PlaceholderILi2EEEOT_RNSt16remove_referenceIS2_E4typeE' type='func-type' binding='weak-binding' visibility='default-visibility' is-defined='yes'/>
    <elf-symbol name='_ZSt7forwardISt14default_deleteIN5mongo4repl16StorageInterfaceEEEOT_RNSt16remove_referenceIS5_E4typeE' type='func-type' binding='weak-binding' visibility='default-visibility' is-defined='yes'/>
    <elf-symbol name='_ZSt7forwardISt14default_deleteIN5mongo8executor16NetworkInterfaceEEEOT_RNSt16remove_referenceIS5_E4typeE' type='func-type' binding='weak-binding' visibility='default-visibility' is-defined='yes'/>
    <elf-symbol name='_ZSt7forwardISt14default_deleteISt10lock_guardISt5mutexEEEOT_RNSt16remove_referenceIS5_E4typeE' type='func-type' binding='weak-binding' visibility='default-visibility' is-defined='yes'/>
    <elf-symbol name='_ZSt7forwardISt5_BindIFPFvRKN5mongo8executor12TaskExecutor12CallbackArgsERKSt8functionIFvRKNS3_25RemoteCommandCallbackArgsEEERKNS2_20RemoteCommandRequestERKNS1_10StatusWithINS2_21RemoteCommandResponseEEEESt12_PlaceholderILi1EESC_SF_SK_EEEOT_RNSt16remove_referenceIST_E4typeE' type='func-type' binding='weak-binding' visibility='default-visibility' is-defined='yes'/>
    <elf-symbol name='_ZSt7forwardISt8functionIFvRKN5mongo8executor12TaskExecutor25RemoteCommandCallbackArgsEEEEOT_RNSt16remove_referenceIS9_E4typeE' type='func-type' binding='weak-binding' visibility='default-visibility' is-defined='yes'/>
    <elf-symbol name='_ZSt7forwardISt8functionIFvvEEEOT_RNSt16remove_referenceIS3_E4typeE' type='func-type' binding='weak-binding' visibility='default-visibility' is-defined='yes'/>
    <elf-symbol name='_ZSt7forwardImEOT_RNSt16remove_referenceIS0_E4typeE' type='func-type' binding='weak-binding' visibility='default-visibility' is-defined='yes'/>
    <elf-symbol name='_ZSt8_DestroyIN5mongo8executor12TaskExecutor14CallbackHandleEEvPT_' type='func-type' binding='weak-binding' visibility='default-visibility' is-defined='yes'/>
    <elf-symbol name='_ZSt8_DestroyIN5mongo8executor20RemoteCommandRequestEEvPT_' type='func-type' binding='weak-binding' visibility='default-visibility' is-defined='yes'/>
    <elf-symbol name='_ZSt8_DestroyIPN5mongo8executor12TaskExecutor14CallbackHandleEEvT_S5_' type='func-type' binding='weak-binding' visibility='default-visibility' is-defined='yes'/>
    <elf-symbol name='_ZSt8_DestroyIPN5mongo8executor12TaskExecutor14CallbackHandleES3_EvT_S5_RSaIT0_E' type='func-type' binding='weak-binding' visibility='default-visibility' is-defined='yes'/>
    <elf-symbol name='_ZSt8_DestroyIPN5mongo8executor20RemoteCommandRequestEEvT_S4_' type='func-type' binding='weak-binding' visibility='default-visibility' is-defined='yes'/>
    <elf-symbol name='_ZSt8_DestroyIPN5mongo8executor20RemoteCommandRequestES2_EvT_S4_RSaIT0_E' type='func-type' binding='weak-binding' visibility='default-visibility' is-defined='yes'/>
    <elf-symbol name='_ZSt8distanceISt20_List_const_iteratorIN5mongo4repl19ReplicationExecutor8WorkItemEEENSt15iterator_traitsIT_E15difference_typeES7_S7_' type='func-type' binding='weak-binding' visibility='default-visibility' is-defined='yes'/>
    <elf-symbol name='_ZSt8distanceISt20_List_const_iteratorIN5mongo8executor12TaskExecutor11EventHandleEEENSt15iterator_traitsIT_E15difference_typeES7_S7_' type='func-type' binding='weak-binding' visibility='default-visibility' is-defined='yes'/>
    <elf-symbol name='_ZSt8for_eachIN9__gnu_cxx17__normal_iteratorIPN5mongo8executor12TaskExecutor14CallbackHandleESt6vectorIS5_SaIS5_EEEESt5_BindIFSt7_Mem_fnIMNS2_4repl19ReplicationExecutorEFvRKS5_EEPSE_St12_PlaceholderILi1EEEEET0_T_SQ_SP_' type='func-type' binding='weak-binding' visibility='default-visibility' is-defined='yes'/>
    <elf-symbol name='_ZSt9make_pairIN5mongo4repl19ReplicationExecutor8WorkItemENS0_8executor12TaskExecutor14CallbackHandleEESt4pairINSt17__decay_and_stripIT_E6__typeENS8_IT0_E6__typeEEOS9_OSC_' type='func-type' binding='weak-binding' visibility='default-visibility' is-defined='yes'/>
    <elf-symbol name='_ZSt9make_pairIRKN5mongo4repl19ReplicationExecutor8WorkItemERKNS0_8executor12TaskExecutor14CallbackHandleEESt4pairINSt17__decay_and_stripIT_E6__typeENSC_IT0_E6__typeEEOSD_OSG_' type='func-type' binding='weak-binding' visibility='default-visibility' is-defined='yes'/>
    <elf-symbol name='_ZSteqIPN5mongo8executor12TaskExecutor14CallbackHandleEEbRKSt13move_iteratorIT_ES9_' type='func-type' binding='weak-binding' visibility='default-visibility' is-defined='yes'/>
    <elf-symbol name='_ZSteqNSt6thread2idES0_' type='func-type' binding='weak-binding' visibility='default-visibility' is-defined='yes'/>
    <elf-symbol name='_ZStneIPN5mongo8executor12TaskExecutor14CallbackHandleEEbRKSt13move_iteratorIT_ES9_' type='func-type' binding='weak-binding' visibility='default-visibility' is-defined='yes'/>
    <elf-symbol name='_ZStorSt13_Ios_OpenmodeS_' type='func-type' binding='weak-binding' visibility='default-visibility' is-defined='yes'/>
    <elf-symbol name='_fini' type='func-type' binding='global-binding' visibility='default-visibility' is-defined='yes'/>
    <elf-symbol name='_init' type='func-type' binding='global-binding' visibility='default-visibility' is-defined='yes'/>
  </elf-function-symbols>
  <elf-variable-symbols>
    <elf-symbol name='_ZTIN5mongo4repl19ReplicationExecutor5EventE' size='24' type='object-type' binding='global-binding' visibility='default-visibility' is-defined='yes'/>
    <elf-symbol name='_ZTIN5mongo4repl19ReplicationExecutor8CallbackE' size='24' type='object-type' binding='global-binding' visibility='default-visibility' is-defined='yes'/>
    <elf-symbol name='_ZTIN5mongo4repl19ReplicationExecutorE' size='24' type='object-type' binding='global-binding' visibility='default-visibility' is-defined='yes'/>
    <elf-symbol name='_ZTIN5mongo4repl22ScatterGatherAlgorithmE' size='16' type='object-type' binding='global-binding' visibility='default-visibility' is-defined='yes'/>
    <elf-symbol name='_ZTINSt6thread10_Impl_baseE' size='16' type='object-type' binding='weak-binding' visibility='default-visibility' is-defined='yes'/>
    <elf-symbol name='_ZTISt11_Mutex_baseILN9__gnu_cxx12_Lock_policyE2EE' size='16' type='object-type' binding='weak-binding' visibility='default-visibility' is-defined='yes'/>
    <elf-symbol name='_ZTISt15_Sp_counted_ptrIPN5mongo4repl19ReplicationExecutor8CallbackELN9__gnu_cxx12_Lock_policyE2EE' size='24' type='object-type' binding='weak-binding' visibility='default-visibility' is-defined='yes'/>
    <elf-symbol name='_ZTISt16_Sp_counted_baseILN9__gnu_cxx12_Lock_policyE2EE' size='24' type='object-type' binding='weak-binding' visibility='default-visibility' is-defined='yes'/>
    <elf-symbol name='_ZTISt17_Weak_result_typeIPFvRKN5mongo8executor12TaskExecutor12CallbackArgsEPNS0_4repl19ScatterGatherRunnerEPNS0_10StatusWithINS2_11EventHandleEEEEE' size='24' type='object-type' binding='weak-binding' visibility='default-visibility' is-defined='yes'/>
    <elf-symbol name='_ZTISt17_Weak_result_typeIPFvRKN5mongo8executor12TaskExecutor12CallbackArgsERKSt8functionIFvRKNS2_25RemoteCommandCallbackArgsEEERKNS1_20RemoteCommandRequestEEE' size='24' type='object-type' binding='weak-binding' visibility='default-visibility' is-defined='yes'/>
    <elf-symbol name='_ZTISt17_Weak_result_typeIPFvRKN5mongo8executor12TaskExecutor12CallbackArgsERKSt8functionIFvRKNS2_25RemoteCommandCallbackArgsEEERKNS1_20RemoteCommandRequestERKNS0_10StatusWithINS1_21RemoteCommandResponseEEEEE' size='24' type='object-type' binding='weak-binding' visibility='default-visibility' is-defined='yes'/>
    <elf-symbol name='_ZTISt17_Weak_result_typeIPFvRKN5mongo8executor12TaskExecutor25RemoteCommandCallbackArgsEPNS0_4repl19ScatterGatherRunnerEEE' size='24' type='object-type' binding='weak-binding' visibility='default-visibility' is-defined='yes'/>
    <elf-symbol name='_ZTISt17_Weak_result_typeIPFvRKSt8functionIFvvEEEE' size='24' type='object-type' binding='weak-binding' visibility='default-visibility' is-defined='yes'/>
    <elf-symbol name='_ZTISt17_Weak_result_typeISt5_BindIFSt7_Mem_fnIMN5mongo4repl19ReplicationExecutorEFvPNS2_16OperationContextERKNS2_6StatusERKNS2_8executor12TaskExecutor14CallbackHandleEPSt4listINS4_8WorkItemESaISG_EEPSt5mutexEEPS4_St12_PlaceholderILi1EESQ_ILi2EESC_SJ_DnEEE' size='24' type='object-type' binding='weak-binding' visibility='default-visibility' is-defined='yes'/>
    <elf-symbol name='_ZTISt17_Weak_result_typeISt5_BindIFSt7_Mem_fnIMN5mongo4repl19ReplicationExecutorEFvPNS2_16OperationContextERKNS2_6StatusERKNS2_8executor12TaskExecutor14CallbackHandleEPSt4listINS4_8WorkItemESaISG_EEPSt5mutexEEPS4_St12_PlaceholderILi1EESQ_ILi2EESC_SJ_SL_EEE' size='24' type='object-type' binding='weak-binding' visibility='default-visibility' is-defined='yes'/>
    <elf-symbol name='_ZTISt17_Weak_result_typeISt7_Mem_fnIMN5mongo4repl16StorageInterfaceEFPNS1_16OperationContextEvEEE' size='24' type='object-type' binding='weak-binding' visibility='default-visibility' is-defined='yes'/>
    <elf-symbol name='_ZTISt17_Weak_result_typeISt7_Mem_fnIMN5mongo4repl19ReplicationExecutorEFvRKNS1_8executor20RemoteCommandRequestERKNS1_10StatusWithINS4_21RemoteCommandResponseEEERKNS4_12TaskExecutor14CallbackHandleEmRKSt8functionIFvRKNSD_25RemoteCommandCallbackArgsEEEEEE' size='24' type='object-type' binding='weak-binding' visibility='default-visibility' is-defined='yes'/>
    <elf-symbol name='_ZTISt17_Weak_result_typeISt8functionIFvRKN5mongo8executor12TaskExecutor12CallbackArgsEEEE' size='24' type='object-type' binding='weak-binding' visibility='default-visibility' is-defined='yes'/>
    <elf-symbol name='_ZTISt19_Sp_make_shared_tag' size='16' type='object-type' binding='weak-binding' visibility='default-visibility' is-defined='yes'/>
    <elf-symbol name='_ZTISt22_Maybe_get_result_typeILb1ESt5_BindIFSt7_Mem_fnIMN5mongo4repl19ReplicationExecutorEFvPNS2_16OperationContextERKNS2_6StatusERKNS2_8executor12TaskExecutor14CallbackHandleEPSt4listINS4_8WorkItemESaISG_EEPSt5mutexEEPS4_St12_PlaceholderILi1EESQ_ILi2EESC_SJ_DnEEE' size='16' type='object-type' binding='weak-binding' visibility='default-visibility' is-defined='yes'/>
    <elf-symbol name='_ZTISt22_Maybe_get_result_typeILb1ESt5_BindIFSt7_Mem_fnIMN5mongo4repl19ReplicationExecutorEFvPNS2_16OperationContextERKNS2_6StatusERKNS2_8executor12TaskExecutor14CallbackHandleEPSt4listINS4_8WorkItemESaISG_EEPSt5mutexEEPS4_St12_PlaceholderILi1EESQ_ILi2EESC_SJ_SL_EEE' size='16' type='object-type' binding='weak-binding' visibility='default-visibility' is-defined='yes'/>
    <elf-symbol name='_ZTISt22_Maybe_get_result_typeILb1ESt7_Mem_fnIMN5mongo4repl16StorageInterfaceEFPNS1_16OperationContextEvEEE' size='16' type='object-type' binding='weak-binding' visibility='default-visibility' is-defined='yes'/>
    <elf-symbol name='_ZTISt22_Maybe_get_result_typeILb1ESt7_Mem_fnIMN5mongo4repl19ReplicationExecutorEFvRKNS1_8executor20RemoteCommandRequestERKNS1_10StatusWithINS4_21RemoteCommandResponseEEERKNS4_12TaskExecutor14CallbackHandleEmRKSt8functionIFvRKNSD_25RemoteCommandCallbackArgsEEEEEE' size='16' type='object-type' binding='weak-binding' visibility='default-visibility' is-defined='yes'/>
    <elf-symbol name='_ZTISt22_Maybe_get_result_typeILb1ESt8functionIFvRKN5mongo8executor12TaskExecutor12CallbackArgsEEEE' size='16' type='object-type' binding='weak-binding' visibility='default-visibility' is-defined='yes'/>
    <elf-symbol name='_ZTISt22_Weak_result_type_implIPFvRKN5mongo8executor12TaskExecutor12CallbackArgsEPNS0_4repl19ScatterGatherRunnerEPNS0_10StatusWithINS2_11EventHandleEEEEE' size='16' type='object-type' binding='weak-binding' visibility='default-visibility' is-defined='yes'/>
    <elf-symbol name='_ZTISt22_Weak_result_type_implIPFvRKN5mongo8executor12TaskExecutor12CallbackArgsERKSt8functionIFvRKNS2_25RemoteCommandCallbackArgsEEERKNS1_20RemoteCommandRequestEEE' size='16' type='object-type' binding='weak-binding' visibility='default-visibility' is-defined='yes'/>
    <elf-symbol name='_ZTISt22_Weak_result_type_implIPFvRKN5mongo8executor12TaskExecutor12CallbackArgsERKSt8functionIFvRKNS2_25RemoteCommandCallbackArgsEEERKNS1_20RemoteCommandRequestERKNS0_10StatusWithINS1_21RemoteCommandResponseEEEEE' size='16' type='object-type' binding='weak-binding' visibility='default-visibility' is-defined='yes'/>
    <elf-symbol name='_ZTISt22_Weak_result_type_implIPFvRKN5mongo8executor12TaskExecutor25RemoteCommandCallbackArgsEPNS0_4repl19ScatterGatherRunnerEEE' size='16' type='object-type' binding='weak-binding' visibility='default-visibility' is-defined='yes'/>
    <elf-symbol name='_ZTISt22_Weak_result_type_implIPFvRKSt8functionIFvvEEEE' size='16' type='object-type' binding='weak-binding' visibility='default-visibility' is-defined='yes'/>
    <elf-symbol name='_ZTISt22_Weak_result_type_implISt5_BindIFSt7_Mem_fnIMN5mongo4repl19ReplicationExecutorEFvPNS2_16OperationContextERKNS2_6StatusERKNS2_8executor12TaskExecutor14CallbackHandleEPSt4listINS4_8WorkItemESaISG_EEPSt5mutexEEPS4_St12_PlaceholderILi1EESQ_ILi2EESC_SJ_DnEEE' size='24' type='object-type' binding='weak-binding' visibility='default-visibility' is-defined='yes'/>
    <elf-symbol name='_ZTISt22_Weak_result_type_implISt5_BindIFSt7_Mem_fnIMN5mongo4repl19ReplicationExecutorEFvPNS2_16OperationContextERKNS2_6StatusERKNS2_8executor12TaskExecutor14CallbackHandleEPSt4listINS4_8WorkItemESaISG_EEPSt5mutexEEPS4_St12_PlaceholderILi1EESQ_ILi2EESC_SJ_SL_EEE' size='24' type='object-type' binding='weak-binding' visibility='default-visibility' is-defined='yes'/>
    <elf-symbol name='_ZTISt22_Weak_result_type_implISt7_Mem_fnIMN5mongo4repl16StorageInterfaceEFPNS1_16OperationContextEvEEE' size='24' type='object-type' binding='weak-binding' visibility='default-visibility' is-defined='yes'/>
    <elf-symbol name='_ZTISt22_Weak_result_type_implISt7_Mem_fnIMN5mongo4repl19ReplicationExecutorEFvRKNS1_8executor20RemoteCommandRequestERKNS1_10StatusWithINS4_21RemoteCommandResponseEEERKNS4_12TaskExecutor14CallbackHandleEmRKSt8functionIFvRKNSD_25RemoteCommandCallbackArgsEEEEEE' size='24' type='object-type' binding='weak-binding' visibility='default-visibility' is-defined='yes'/>
    <elf-symbol name='_ZTISt22_Weak_result_type_implISt8functionIFvRKN5mongo8executor12TaskExecutor12CallbackArgsEEEE' size='24' type='object-type' binding='weak-binding' visibility='default-visibility' is-defined='yes'/>
    <elf-symbol name='_ZTISt23_Sp_counted_ptr_inplaceIN5mongo4repl19ReplicationExecutor5EventESaIS3_ELN9__gnu_cxx12_Lock_policyE2EE' size='24' type='object-type' binding='weak-binding' visibility='default-visibility' is-defined='yes'/>
    <elf-symbol name='_ZTISt5_BindIFPFvRKN5mongo8executor12TaskExecutor12CallbackArgsEPNS0_4repl19ScatterGatherRunnerEPNS0_10StatusWithINS2_11EventHandleEEEESt12_PlaceholderILi1EES8_SC_EE' size='24' type='object-type' binding='weak-binding' visibility='default-visibility' is-defined='yes'/>
    <elf-symbol name='_ZTISt5_BindIFPFvRKN5mongo8executor12TaskExecutor12CallbackArgsERKSt8functionIFvRKNS2_25RemoteCommandCallbackArgsEEERKNS1_20RemoteCommandRequestEESt12_PlaceholderILi1EESB_SE_EE' size='24' type='object-type' binding='weak-binding' visibility='default-visibility' is-defined='yes'/>
    <elf-symbol name='_ZTISt5_BindIFPFvRKN5mongo8executor12TaskExecutor12CallbackArgsERKSt8functionIFvRKNS2_25RemoteCommandCallbackArgsEEERKNS1_20RemoteCommandRequestERKNS0_10StatusWithINS1_21RemoteCommandResponseEEEESt12_PlaceholderILi1EESB_SE_SJ_EE' size='24' type='object-type' binding='weak-binding' visibility='default-visibility' is-defined='yes'/>
    <elf-symbol name='_ZTISt5_BindIFPFvRKN5mongo8executor12TaskExecutor25RemoteCommandCallbackArgsEPNS0_4repl19ScatterGatherRunnerEESt12_PlaceholderILi1EES8_EE' size='24' type='object-type' binding='weak-binding' visibility='default-visibility' is-defined='yes'/>
    <elf-symbol name='_ZTISt5_BindIFPFvRKSt8functionIFvvEEES2_EE' size='24' type='object-type' binding='weak-binding' visibility='default-visibility' is-defined='yes'/>
    <elf-symbol name='_ZTISt5_BindIFS_IFSt7_Mem_fnIMN5mongo4repl19ReplicationExecutorEFvPNS1_16OperationContextERKNS1_6StatusERKNS1_8executor12TaskExecutor14CallbackHandleEPSt4listINS3_8WorkItemESaISF_EEPSt5mutexEEPS3_St12_PlaceholderILi1EESP_ILi2EESB_SI_DnEES5_S6_EE' size='24' type='object-type' binding='weak-binding' visibility='default-visibility' is-defined='yes'/>
    <elf-symbol name='_ZTISt5_BindIFS_IFSt7_Mem_fnIMN5mongo4repl19ReplicationExecutorEFvPNS1_16OperationContextERKNS1_6StatusERKNS1_8executor12TaskExecutor14CallbackHandleEPSt4listINS3_8WorkItemESaISF_EEPSt5mutexEEPS3_St12_PlaceholderILi1EESP_ILi2EESB_SI_SK_EES5_S6_EE' size='24' type='object-type' binding='weak-binding' visibility='default-visibility' is-defined='yes'/>
    <elf-symbol name='_ZTISt5_BindIFSt7_Mem_fnIMN5mongo4repl16StorageInterfaceEFPNS1_16OperationContextEvEEPS3_EE' size='24' type='object-type' binding='weak-binding' visibility='default-visibility' is-defined='yes'/>
    <elf-symbol name='_ZTISt5_BindIFSt7_Mem_fnIMN5mongo4repl19ReplicationExecutorEFvRKNS1_8executor20RemoteCommandRequestERKNS1_10StatusWithINS4_21RemoteCommandResponseEEERKNS4_12TaskExecutor14CallbackHandleEmRKSt8functionIFvRKNSD_25RemoteCommandCallbackArgsEEEEEPS3_S5_St12_PlaceholderILi1EESE_mSM_EE' size='24' type='object-type' binding='weak-binding' visibility='default-visibility' is-defined='yes'/>
    <elf-symbol name='_ZTISt5_BindIFSt8functionIFvRKN5mongo8executor12TaskExecutor12CallbackArgsEEES4_EE' size='24' type='object-type' binding='weak-binding' visibility='default-visibility' is-defined='yes'/>
    <elf-symbol name='_ZTSN5mongo4repl19ReplicationExecutor5EventE' size='41' type='object-type' binding='global-binding' visibility='default-visibility' is-defined='yes'/>
    <elf-symbol name='_ZTSN5mongo4repl19ReplicationExecutor8CallbackE' size='44' type='object-type' binding='global-binding' visibility='default-visibility' is-defined='yes'/>
    <elf-symbol name='_ZTSN5mongo4repl19ReplicationExecutorE' size='35' type='object-type' binding='global-binding' visibility='default-visibility' is-defined='yes'/>
    <elf-symbol name='_ZTSN5mongo4repl22ScatterGatherAlgorithmE' size='38' type='object-type' binding='global-binding' visibility='default-visibility' is-defined='yes'/>
    <elf-symbol name='_ZTSNSt6thread10_Impl_baseE' size='24' type='object-type' binding='weak-binding' visibility='default-visibility' is-defined='yes'/>
    <elf-symbol name='_ZTSSt11_Mutex_baseILN9__gnu_cxx12_Lock_policyE2EE' size='47' type='object-type' binding='weak-binding' visibility='default-visibility' is-defined='yes'/>
    <elf-symbol name='_ZTSSt15_Sp_counted_ptrIPN5mongo4repl19ReplicationExecutor8CallbackELN9__gnu_cxx12_Lock_policyE2EE' size='95' type='object-type' binding='weak-binding' visibility='default-visibility' is-defined='yes'/>
    <elf-symbol name='_ZTSSt16_Sp_counted_baseILN9__gnu_cxx12_Lock_policyE2EE' size='52' type='object-type' binding='weak-binding' visibility='default-visibility' is-defined='yes'/>
    <elf-symbol name='_ZTSSt17_Weak_result_typeIPFvRKN5mongo8executor12TaskExecutor12CallbackArgsEPNS0_4repl19ScatterGatherRunnerEPNS0_10StatusWithINS2_11EventHandleEEEEE' size='145' type='object-type' binding='weak-binding' visibility='default-visibility' is-defined='yes'/>
    <elf-symbol name='_ZTSSt17_Weak_result_typeIPFvRKN5mongo8executor12TaskExecutor12CallbackArgsERKSt8functionIFvRKNS2_25RemoteCommandCallbackArgsEEERKNS1_20RemoteCommandRequestEEE' size='156' type='object-type' binding='weak-binding' visibility='default-visibility' is-defined='yes'/>
    <elf-symbol name='_ZTSSt17_Weak_result_typeIPFvRKN5mongo8executor12TaskExecutor12CallbackArgsERKSt8functionIFvRKNS2_25RemoteCommandCallbackArgsEEERKNS1_20RemoteCommandRequestERKNS0_10StatusWithINS1_21RemoteCommandResponseEEEEE' size='205' type='object-type' binding='weak-binding' visibility='default-visibility' is-defined='yes'/>
    <elf-symbol name='_ZTSSt17_Weak_result_typeIPFvRKN5mongo8executor12TaskExecutor25RemoteCommandCallbackArgsEPNS0_4repl19ScatterGatherRunnerEEE' size='120' type='object-type' binding='weak-binding' visibility='default-visibility' is-defined='yes'/>
    <elf-symbol name='_ZTSSt17_Weak_result_typeIPFvRKSt8functionIFvvEEEE' size='47' type='object-type' binding='weak-binding' visibility='default-visibility' is-defined='yes'/>
    <elf-symbol name='_ZTSSt17_Weak_result_typeISt5_BindIFSt7_Mem_fnIMN5mongo4repl19ReplicationExecutorEFvPNS2_16OperationContextERKNS2_6StatusERKNS2_8executor12TaskExecutor14CallbackHandleEPSt4listINS4_8WorkItemESaISG_EEPSt5mutexEEPS4_St12_PlaceholderILi1EESQ_ILi2EESC_SJ_DnEEE' size='253' type='object-type' binding='weak-binding' visibility='default-visibility' is-defined='yes'/>
    <elf-symbol name='_ZTSSt17_Weak_result_typeISt5_BindIFSt7_Mem_fnIMN5mongo4repl19ReplicationExecutorEFvPNS2_16OperationContextERKNS2_6StatusERKNS2_8executor12TaskExecutor14CallbackHandleEPSt4listINS4_8WorkItemESaISG_EEPSt5mutexEEPS4_St12_PlaceholderILi1EESQ_ILi2EESC_SJ_SL_EEE' size='254' type='object-type' binding='weak-binding' visibility='default-visibility' is-defined='yes'/>
    <elf-symbol name='_ZTSSt17_Weak_result_typeISt7_Mem_fnIMN5mongo4repl16StorageInterfaceEFPNS1_16OperationContextEvEEE' size='95' type='object-type' binding='weak-binding' visibility='default-visibility' is-defined='yes'/>
    <elf-symbol name='_ZTSSt17_Weak_result_typeISt7_Mem_fnIMN5mongo4repl19ReplicationExecutorEFvRKNS1_8executor20RemoteCommandRequestERKNS1_10StatusWithINS4_21RemoteCommandResponseEEERKNS4_12TaskExecutor14CallbackHandleEmRKSt8functionIFvRKNSD_25RemoteCommandCallbackArgsEEEEEE' size='251' type='object-type' binding='weak-binding' visibility='default-visibility' is-defined='yes'/>
    <elf-symbol name='_ZTSSt17_Weak_result_typeISt8functionIFvRKN5mongo8executor12TaskExecutor12CallbackArgsEEEE' size='87' type='object-type' binding='weak-binding' visibility='default-visibility' is-defined='yes'/>
    <elf-symbol name='_ZTSSt19_Sp_make_shared_tag' size='24' type='object-type' binding='weak-binding' visibility='default-visibility' is-defined='yes'/>
    <elf-symbol name='_ZTSSt22_Maybe_get_result_typeILb1ESt5_BindIFSt7_Mem_fnIMN5mongo4repl19ReplicationExecutorEFvPNS2_16OperationContextERKNS2_6StatusERKNS2_8executor12TaskExecutor14CallbackHandleEPSt4listINS4_8WorkItemESaISG_EEPSt5mutexEEPS4_St12_PlaceholderILi1EESQ_ILi2EESC_SJ_DnEEE' size='262' type='object-type' binding='weak-binding' visibility='default-visibility' is-defined='yes'/>
    <elf-symbol name='_ZTSSt22_Maybe_get_result_typeILb1ESt5_BindIFSt7_Mem_fnIMN5mongo4repl19ReplicationExecutorEFvPNS2_16OperationContextERKNS2_6StatusERKNS2_8executor12TaskExecutor14CallbackHandleEPSt4listINS4_8WorkItemESaISG_EEPSt5mutexEEPS4_St12_PlaceholderILi1EESQ_ILi2EESC_SJ_SL_EEE' size='263' type='object-type' binding='weak-binding' visibility='default-visibility' is-defined='yes'/>
    <elf-symbol name='_ZTSSt22_Maybe_get_result_typeILb1ESt7_Mem_fnIMN5mongo4repl16StorageInterfaceEFPNS1_16OperationContextEvEEE' size='104' type='object-type' binding='weak-binding' visibility='default-visibility' is-defined='yes'/>
    <elf-symbol name='_ZTSSt22_Maybe_get_result_typeILb1ESt7_Mem_fnIMN5mongo4repl19ReplicationExecutorEFvRKNS1_8executor20RemoteCommandRequestERKNS1_10StatusWithINS4_21RemoteCommandResponseEEERKNS4_12TaskExecutor14CallbackHandleEmRKSt8functionIFvRKNSD_25RemoteCommandCallbackArgsEEEEEE' size='260' type='object-type' binding='weak-binding' visibility='default-visibility' is-defined='yes'/>
    <elf-symbol name='_ZTSSt22_Maybe_get_result_typeILb1ESt8functionIFvRKN5mongo8executor12TaskExecutor12CallbackArgsEEEE' size='96' type='object-type' binding='weak-binding' visibility='default-visibility' is-defined='yes'/>
    <elf-symbol name='_ZTSSt22_Weak_result_type_implIPFvRKN5mongo8executor12TaskExecutor12CallbackArgsEPNS0_4repl19ScatterGatherRunnerEPNS0_10StatusWithINS2_11EventHandleEEEEE' size='150' type='object-type' binding='weak-binding' visibility='default-visibility' is-defined='yes'/>
    <elf-symbol name='_ZTSSt22_Weak_result_type_implIPFvRKN5mongo8executor12TaskExecutor12CallbackArgsERKSt8functionIFvRKNS2_25RemoteCommandCallbackArgsEEERKNS1_20RemoteCommandRequestEEE' size='161' type='object-type' binding='weak-binding' visibility='default-visibility' is-defined='yes'/>
    <elf-symbol name='_ZTSSt22_Weak_result_type_implIPFvRKN5mongo8executor12TaskExecutor12CallbackArgsERKSt8functionIFvRKNS2_25RemoteCommandCallbackArgsEEERKNS1_20RemoteCommandRequestERKNS0_10StatusWithINS1_21RemoteCommandResponseEEEEE' size='210' type='object-type' binding='weak-binding' visibility='default-visibility' is-defined='yes'/>
    <elf-symbol name='_ZTSSt22_Weak_result_type_implIPFvRKN5mongo8executor12TaskExecutor25RemoteCommandCallbackArgsEPNS0_4repl19ScatterGatherRunnerEEE' size='125' type='object-type' binding='weak-binding' visibility='default-visibility' is-defined='yes'/>
    <elf-symbol name='_ZTSSt22_Weak_result_type_implIPFvRKSt8functionIFvvEEEE' size='52' type='object-type' binding='weak-binding' visibility='default-visibility' is-defined='yes'/>
    <elf-symbol name='_ZTSSt22_Weak_result_type_implISt5_BindIFSt7_Mem_fnIMN5mongo4repl19ReplicationExecutorEFvPNS2_16OperationContextERKNS2_6StatusERKNS2_8executor12TaskExecutor14CallbackHandleEPSt4listINS4_8WorkItemESaISG_EEPSt5mutexEEPS4_St12_PlaceholderILi1EESQ_ILi2EESC_SJ_DnEEE' size='258' type='object-type' binding='weak-binding' visibility='default-visibility' is-defined='yes'/>
    <elf-symbol name='_ZTSSt22_Weak_result_type_implISt5_BindIFSt7_Mem_fnIMN5mongo4repl19ReplicationExecutorEFvPNS2_16OperationContextERKNS2_6StatusERKNS2_8executor12TaskExecutor14CallbackHandleEPSt4listINS4_8WorkItemESaISG_EEPSt5mutexEEPS4_St12_PlaceholderILi1EESQ_ILi2EESC_SJ_SL_EEE' size='259' type='object-type' binding='weak-binding' visibility='default-visibility' is-defined='yes'/>
    <elf-symbol name='_ZTSSt22_Weak_result_type_implISt7_Mem_fnIMN5mongo4repl16StorageInterfaceEFPNS1_16OperationContextEvEEE' size='100' type='object-type' binding='weak-binding' visibility='default-visibility' is-defined='yes'/>
    <elf-symbol name='_ZTSSt22_Weak_result_type_implISt7_Mem_fnIMN5mongo4repl19ReplicationExecutorEFvRKNS1_8executor20RemoteCommandRequestERKNS1_10StatusWithINS4_21RemoteCommandResponseEEERKNS4_12TaskExecutor14CallbackHandleEmRKSt8functionIFvRKNSD_25RemoteCommandCallbackArgsEEEEEE' size='256' type='object-type' binding='weak-binding' visibility='default-visibility' is-defined='yes'/>
    <elf-symbol name='_ZTSSt22_Weak_result_type_implISt8functionIFvRKN5mongo8executor12TaskExecutor12CallbackArgsEEEE' size='92' type='object-type' binding='weak-binding' visibility='default-visibility' is-defined='yes'/>
    <elf-symbol name='_ZTSSt23_Sp_counted_ptr_inplaceIN5mongo4repl19ReplicationExecutor5EventESaIS3_ELN9__gnu_cxx12_Lock_policyE2EE' size='106' type='object-type' binding='weak-binding' visibility='default-visibility' is-defined='yes'/>
    <elf-symbol name='_ZTSSt5_BindIFPFvRKN5mongo8executor12TaskExecutor12CallbackArgsEPNS0_4repl19ScatterGatherRunnerEPNS0_10StatusWithINS2_11EventHandleEEEESt12_PlaceholderILi1EES8_SC_EE' size='162' type='object-type' binding='weak-binding' visibility='default-visibility' is-defined='yes'/>
    <elf-symbol name='_ZTSSt5_BindIFPFvRKN5mongo8executor12TaskExecutor12CallbackArgsERKSt8functionIFvRKNS2_25RemoteCommandCallbackArgsEEERKNS1_20RemoteCommandRequestEESt12_PlaceholderILi1EESB_SE_EE' size='173' type='object-type' binding='weak-binding' visibility='default-visibility' is-defined='yes'/>
    <elf-symbol name='_ZTSSt5_BindIFPFvRKN5mongo8executor12TaskExecutor12CallbackArgsERKSt8functionIFvRKNS2_25RemoteCommandCallbackArgsEEERKNS1_20RemoteCommandRequestERKNS0_10StatusWithINS1_21RemoteCommandResponseEEEESt12_PlaceholderILi1EESB_SE_SJ_EE' size='225' type='object-type' binding='weak-binding' visibility='default-visibility' is-defined='yes'/>
    <elf-symbol name='_ZTSSt5_BindIFPFvRKN5mongo8executor12TaskExecutor25RemoteCommandCallbackArgsEPNS0_4repl19ScatterGatherRunnerEESt12_PlaceholderILi1EES8_EE' size='134' type='object-type' binding='weak-binding' visibility='default-visibility' is-defined='yes'/>
    <elf-symbol name='_ZTSSt5_BindIFPFvRKSt8functionIFvvEEES2_EE' size='39' type='object-type' binding='weak-binding' visibility='default-visibility' is-defined='yes'/>
    <elf-symbol name='_ZTSSt5_BindIFS_IFSt7_Mem_fnIMN5mongo4repl19ReplicationExecutorEFvPNS1_16OperationContextERKNS1_6StatusERKNS1_8executor12TaskExecutor14CallbackHandleEPSt4listINS3_8WorkItemESaISF_EEPSt5mutexEEPS3_St12_PlaceholderILi1EESP_ILi2EESB_SI_DnEES5_S6_EE' size='242' type='object-type' binding='weak-binding' visibility='default-visibility' is-defined='yes'/>
    <elf-symbol name='_ZTSSt5_BindIFS_IFSt7_Mem_fnIMN5mongo4repl19ReplicationExecutorEFvPNS1_16OperationContextERKNS1_6StatusERKNS1_8executor12TaskExecutor14CallbackHandleEPSt4listINS3_8WorkItemESaISF_EEPSt5mutexEEPS3_St12_PlaceholderILi1EESP_ILi2EESB_SI_SK_EES5_S6_EE' size='243' type='object-type' binding='weak-binding' visibility='default-visibility' is-defined='yes'/>
    <elf-symbol name='_ZTSSt5_BindIFSt7_Mem_fnIMN5mongo4repl16StorageInterfaceEFPNS1_16OperationContextEvEEPS3_EE' size='88' type='object-type' binding='weak-binding' visibility='default-visibility' is-defined='yes'/>
    <elf-symbol name='_ZTSSt5_BindIFSt7_Mem_fnIMN5mongo4repl19ReplicationExecutorEFvRKNS1_8executor20RemoteCommandRequestERKNS1_10StatusWithINS4_21RemoteCommandResponseEEERKNS4_12TaskExecutor14CallbackHandleEmRKSt8functionIFvRKNSD_25RemoteCommandCallbackArgsEEEEEPS3_S5_St12_PlaceholderILi1EESE_mSM_EE' size='276' type='object-type' binding='weak-binding' visibility='default-visibility' is-defined='yes'/>
    <elf-symbol name='_ZTSSt5_BindIFSt8functionIFvRKN5mongo8executor12TaskExecutor12CallbackArgsEEES4_EE' size='79' type='object-type' binding='weak-binding' visibility='default-visibility' is-defined='yes'/>
    <elf-symbol name='_ZTVN5mongo4repl19ReplicationExecutor5EventE' size='56' type='object-type' binding='global-binding' visibility='default-visibility' is-defined='yes'/>
    <elf-symbol name='_ZTVN5mongo4repl19ReplicationExecutor8CallbackE' size='48' type='object-type' binding='global-binding' visibility='default-visibility' is-defined='yes'/>
    <elf-symbol name='_ZTVN5mongo4repl19ReplicationExecutorE' size='144' type='object-type' binding='global-binding' visibility='default-visibility' is-defined='yes'/>
    <elf-symbol name='_ZTVN5mongo4repl22ScatterGatherAlgorithmE' size='56' type='object-type' binding='global-binding' visibility='default-visibility' is-defined='yes'/>
    <elf-symbol name='_ZTVNSt6thread10_Impl_baseE' size='40' type='object-type' binding='weak-binding' visibility='default-visibility' is-defined='yes'/>
    <elf-symbol name='_ZTVSt15_Sp_counted_ptrIPN5mongo4repl19ReplicationExecutor8CallbackELN9__gnu_cxx12_Lock_policyE2EE' size='56' type='object-type' binding='weak-binding' visibility='default-visibility' is-defined='yes'/>
    <elf-symbol name='_ZTVSt16_Sp_counted_baseILN9__gnu_cxx12_Lock_policyE2EE' size='56' type='object-type' binding='weak-binding' visibility='default-visibility' is-defined='yes'/>
    <elf-symbol name='_ZTVSt23_Sp_counted_ptr_inplaceIN5mongo4repl19ReplicationExecutor5EventESaIS3_ELN9__gnu_cxx12_Lock_policyE2EE' size='56' type='object-type' binding='weak-binding' visibility='default-visibility' is-defined='yes'/>
    <elf-symbol name='_ZZN5mongo7BSONObjC1EvE21kEmptyObjectPrototype' size='5' type='object-type' binding='weak-binding' visibility='default-visibility' is-defined='yes'/>
  </elf-variable-symbols>
  <abi-instr address-size='64' path='src/mongo/db/repl/replication_executor.cpp' comp-dir-path='/home/andrew/Documents/10gen/dev/src/mongodb' language='LANG_C_plus_plus'>
    <type-decl name='bool' size-in-bits='8' id='type-id-1'/>
    <array-type-def dimensions='1' type-id='type-id-1' size-in-bits='112' id='type-id-2'>
      <subrange length='14' type-id='type-id-3' id='type-id-4'/>
    </array-type-def>
    <type-decl name='char' size-in-bits='8' id='type-id-5'/>
    <array-type-def dimensions='1' type-id='type-id-5' size-in-bits='96' id='type-id-6'>
      <subrange length='12' type-id='type-id-3' id='type-id-7'/>
    </array-type-def>
    <array-type-def dimensions='1' type-id='type-id-5' size-in-bits='112' id='type-id-8'>
      <subrange length='14' type-id='type-id-3' id='type-id-4'/>
    </array-type-def>
    <array-type-def dimensions='1' type-id='type-id-5' size-in-bits='120' id='type-id-9'>
      <subrange length='15' type-id='type-id-3' id='type-id-10'/>
    </array-type-def>
    <array-type-def dimensions='1' type-id='type-id-5' size-in-bits='128' id='type-id-11'>
      <subrange length='16' type-id='type-id-3' id='type-id-12'/>
    </array-type-def>
    <array-type-def dimensions='1' type-id='type-id-5' size-in-bits='152' id='type-id-13'>
      <subrange length='19' type-id='type-id-3' id='type-id-14'/>
    </array-type-def>
    <array-type-def dimensions='1' type-id='type-id-5' size-in-bits='160' id='type-id-15'>
      <subrange length='20' type-id='type-id-3' id='type-id-16'/>
    </array-type-def>
    <array-type-def dimensions='1' type-id='type-id-5' size-in-bits='176' id='type-id-17'>
      <subrange length='22' type-id='type-id-3' id='type-id-18'/>
    </array-type-def>
    <array-type-def dimensions='1' type-id='type-id-5' size-in-bits='320' id='type-id-19'>
      <subrange length='40' type-id='type-id-3' id='type-id-20'/>
    </array-type-def>
    <array-type-def dimensions='1' type-id='type-id-5' size-in-bits='384' id='type-id-21'>
      <subrange length='48' type-id='type-id-3' id='type-id-22'/>
    </array-type-def>
    <array-type-def dimensions='1' type-id='type-id-5' size-in-bits='32' id='type-id-23'>
      <subrange length='4' type-id='type-id-3' id='type-id-24'/>
    </array-type-def>
    <array-type-def dimensions='1' type-id='type-id-5' size-in-bits='56' id='type-id-25'>
      <subrange length='7' type-id='type-id-3' id='type-id-26'/>
    </array-type-def>
    <array-type-def dimensions='1' type-id='type-id-5' size-in-bits='64' id='type-id-27'>
      <subrange length='8' type-id='type-id-3' id='type-id-28'/>
    </array-type-def>
    <class-decl name='__va_list_tag' size-in-bits='192' is-struct='yes' visibility='default' id='type-id-29'>
      <data-member access='public' layout-offset-in-bits='0'>
        <var-decl name='gp_offset' type-id='type-id-30' visibility='default'/>
      </data-member>
      <data-member access='public' layout-offset-in-bits='32'>
        <var-decl name='fp_offset' type-id='type-id-30' visibility='default'/>
      </data-member>
      <data-member access='public' layout-offset-in-bits='64'>
        <var-decl name='overflow_arg_area' type-id='type-id-31' visibility='default'/>
      </data-member>
      <data-member access='public' layout-offset-in-bits='128'>
        <var-decl name='reg_save_area' type-id='type-id-31' visibility='default'/>
      </data-member>
    </class-decl>
    <array-type-def dimensions='1' type-id='type-id-32' size-in-bits='120' id='type-id-33'>
      <subrange length='15' type-id='type-id-3' id='type-id-10'/>
    </array-type-def>
    <array-type-def dimensions='1' type-id='type-id-32' size-in-bits='152' id='type-id-34'>
      <subrange length='19' type-id='type-id-3' id='type-id-14'/>
    </array-type-def>
    <array-type-def dimensions='1' type-id='type-id-32' size-in-bits='160' id='type-id-35'>
      <subrange length='20' type-id='type-id-3' id='type-id-16'/>
    </array-type-def>
    <array-type-def dimensions='1' type-id='type-id-32' size-in-bits='176' id='type-id-36'>
      <subrange length='22' type-id='type-id-3' id='type-id-18'/>
    </array-type-def>
    <array-type-def dimensions='1' type-id='type-id-32' size-in-bits='56' id='type-id-37'>
      <subrange length='7' type-id='type-id-3' id='type-id-26'/>
    </array-type-def>
    <array-type-def dimensions='1' type-id='type-id-32' size-in-bits='64' id='type-id-38'>
      <subrange length='8' type-id='type-id-3' id='type-id-28'/>
    </array-type-def>
    <array-type-def dimensions='1' type-id='type-id-39' size-in-bits='96' id='type-id-40'>
      <subrange length='12' type-id='type-id-3' id='type-id-7'/>
    </array-type-def>
    <type-decl name='double' size-in-bits='64' id='type-id-41'/>
    <type-decl name='float' size-in-bits='32' id='type-id-42'/>
    <type-decl name='int' size-in-bits='32' id='type-id-43'/>
    <type-decl name='long double' size-in-bits='128' id='type-id-44'/>
    <type-decl name='long int' size-in-bits='64' id='type-id-45'/>
    <type-decl name='long long int' size-in-bits='64' id='type-id-46'/>
    <type-decl name='long long unsigned int' size-in-bits='64' id='type-id-47'/>
    <type-decl name='short int' size-in-bits='16' id='type-id-48'/>
    <type-decl name='sizetype' size-in-bits='64' id='type-id-3'/>
    <typedef-decl name='__va_list_tag' type-id='type-id-29' id='type-id-49'/>
    <type-decl name='unnamed-enum-underlying-type-32' is-anonymous='yes' size-in-bits='32' alignment-in-bits='32' id='type-id-50'/>
    <type-decl name='unsigned char' size-in-bits='8' id='type-id-51'/>
    <array-type-def dimensions='1' type-id='type-id-51' size-in-bits='128' id='type-id-52'>
      <subrange length='16' type-id='type-id-3' id='type-id-12'/>
    </array-type-def>
    <array-type-def dimensions='1' type-id='type-id-51' size-in-bits='256' id='type-id-53'>
      <subrange length='32' type-id='type-id-3' id='type-id-54'/>
    </array-type-def>
    <array-type-def dimensions='1' type-id='type-id-51' size-in-bits='768' id='type-id-55'>
      <subrange length='96' type-id='type-id-3' id='type-id-56'/>
    </array-type-def>
    <type-decl name='unsigned int' size-in-bits='32' id='type-id-30'/>
    <type-decl name='unsigned long int' size-in-bits='64' id='type-id-57'/>
    <type-decl name='unsigned short int' size-in-bits='16' id='type-id-58'/>
    <type-decl name='variadic parameter type' id='type-id-59'/>
    <type-decl name='void' id='type-id-60'/>
    <type-decl name='wchar_t' size-in-bits='32' id='type-id-61'/>
    <typedef-decl name='lldiv_t' type-id='type-id-62' filepath='/usr/include/stdlib.h' line='121' column='1' id='type-id-63'/>
    <class-decl name='__anonymous_struct__' size-in-bits='128' is-struct='yes' is-anonymous='yes' naming-typedef-id='type-id-63' visibility='default' filepath='/usr/include/stdlib.h' line='117' column='1' id='type-id-62'>
      <data-member access='public' layout-offset-in-bits='0'>
        <var-decl name='quot' type-id='type-id-46' visibility='default' filepath='/usr/include/stdlib.h' line='119' column='1'/>
      </data-member>
      <data-member access='public' layout-offset-in-bits='64'>
        <var-decl name='rem' type-id='type-id-46' visibility='default' filepath='/usr/include/stdlib.h' line='120' column='1'/>
      </data-member>
    </class-decl>
    <typedef-decl name='size_type' type-id='type-id-64' filepath='/usr/bin/../lib/gcc/x86_64-linux-gnu/4.9/../../../../include/c++/4.9/ext/new_allocator.h' line='61' column='1' id='type-id-65'/>
    <typedef-decl name='size_t' type-id='type-id-57' filepath='/usr/lib/llvm-3.6/bin/../lib/clang/3.6.0/include/stddef.h' line='62' column='1' id='type-id-66'/>
    <typedef-decl name='_Atomic_word' type-id='type-id-43' filepath='/usr/bin/../lib/gcc/x86_64-linux-gnu/4.9/../../../../include/x86_64-linux-gnu/c++/4.9/bits/atomic_word.h' line='32' column='1' id='type-id-67'/>
    <typedef-decl name='int32_t' type-id='type-id-43' filepath='/usr/include/stdint.h' line='38' column='1' id='type-id-68'/>
    <typedef-decl name='uint32_t' type-id='type-id-30' filepath='/usr/include/stdint.h' line='51' column='1' id='type-id-69'/>
    <typedef-decl name='int64_t' type-id='type-id-45' filepath='/usr/include/stdint.h' line='40' column='1' id='type-id-70'/>
    <typedef-decl name='intptr_t' type-id='type-id-45' filepath='/usr/include/stdint.h' line='119' column='1' id='type-id-71'/>
    <typedef-decl name='__gthread_t' type-id='type-id-72' filepath='/usr/bin/../lib/gcc/x86_64-linux-gnu/4.9/../../../../include/x86_64-linux-gnu/c++/4.9/bits/gthr-default.h' line='47' column='1' id='type-id-73'/>
    <typedef-decl name='pthread_t' type-id='type-id-57' filepath='/usr/include/x86_64-linux-gnu/bits/pthreadtypes.h' line='60' column='1' id='type-id-72'/>
    <typedef-decl name='__gthread_mutex_t' type-id='type-id-74' filepath='/usr/bin/../lib/gcc/x86_64-linux-gnu/4.9/../../../../include/x86_64-linux-gnu/c++/4.9/bits/gthr-default.h' line='50' column='1' id='type-id-75'/>
    <typedef-decl name='pthread_mutex_t' type-id='type-id-76' filepath='/usr/include/x86_64-linux-gnu/bits/pthreadtypes.h' line='128' column='1' id='type-id-74'/>
    <union-decl name='__anonymous_union__' size-in-bits='320' is-anonymous='yes' visibility='default' filepath='/usr/include/x86_64-linux-gnu/bits/pthreadtypes.h' line='90' column='1' id='type-id-76'>
      <member-type access='public'>
        <class-decl name='__pthread_mutex_s' size-in-bits='320' is-struct='yes' visibility='default' filepath='/usr/include/x86_64-linux-gnu/bits/pthreadtypes.h' line='92' column='1' id='type-id-77'>
          <data-member access='public' layout-offset-in-bits='0'>
            <var-decl name='__lock' type-id='type-id-43' visibility='default' filepath='/usr/include/x86_64-linux-gnu/bits/pthreadtypes.h' line='94' column='1'/>
          </data-member>
          <data-member access='public' layout-offset-in-bits='32'>
            <var-decl name='__count' type-id='type-id-30' visibility='default' filepath='/usr/include/x86_64-linux-gnu/bits/pthreadtypes.h' line='95' column='1'/>
          </data-member>
          <data-member access='public' layout-offset-in-bits='64'>
            <var-decl name='__owner' type-id='type-id-43' visibility='default' filepath='/usr/include/x86_64-linux-gnu/bits/pthreadtypes.h' line='96' column='1'/>
          </data-member>
          <data-member access='public' layout-offset-in-bits='96'>
            <var-decl name='__nusers' type-id='type-id-30' visibility='default' filepath='/usr/include/x86_64-linux-gnu/bits/pthreadtypes.h' line='98' column='1'/>
          </data-member>
          <data-member access='public' layout-offset-in-bits='128'>
            <var-decl name='__kind' type-id='type-id-43' visibility='default' filepath='/usr/include/x86_64-linux-gnu/bits/pthreadtypes.h' line='102' column='1'/>
          </data-member>
          <data-member access='public' layout-offset-in-bits='160'>
            <var-decl name='__spins' type-id='type-id-48' visibility='default' filepath='/usr/include/x86_64-linux-gnu/bits/pthreadtypes.h' line='104' column='1'/>
          </data-member>
          <data-member access='public' layout-offset-in-bits='176'>
            <var-decl name='__elision' type-id='type-id-48' visibility='default' filepath='/usr/include/x86_64-linux-gnu/bits/pthreadtypes.h' line='105' column='1'/>
          </data-member>
          <data-member access='public' layout-offset-in-bits='192'>
            <var-decl name='__list' type-id='type-id-78' visibility='default' filepath='/usr/include/x86_64-linux-gnu/bits/pthreadtypes.h' line='106' column='1'/>
          </data-member>
        </class-decl>
      </member-type>
      <data-member access='public'>
        <var-decl name='__data' type-id='type-id-77' visibility='default' filepath='/usr/include/x86_64-linux-gnu/bits/pthreadtypes.h' line='125' column='1'/>
      </data-member>
      <data-member access='public'>
        <var-decl name='__size' type-id='type-id-19' visibility='default' filepath='/usr/include/x86_64-linux-gnu/bits/pthreadtypes.h' line='126' column='1'/>
      </data-member>
      <data-member access='public'>
        <var-decl name='__align' type-id='type-id-45' visibility='default' filepath='/usr/include/x86_64-linux-gnu/bits/pthreadtypes.h' line='127' column='1'/>
      </data-member>
    </union-decl>
    <typedef-decl name='__pthread_list_t' type-id='type-id-79' filepath='/usr/include/x86_64-linux-gnu/bits/pthreadtypes.h' line='79' column='1' id='type-id-78'/>
    <class-decl name='__pthread_internal_list' size-in-bits='128' is-struct='yes' visibility='default' filepath='/usr/include/x86_64-linux-gnu/bits/pthreadtypes.h' line='75' column='1' id='type-id-79'>
      <data-member access='public' layout-offset-in-bits='0'>
        <var-decl name='__prev' type-id='type-id-80' visibility='default' filepath='/usr/include/x86_64-linux-gnu/bits/pthreadtypes.h' line='77' column='1'/>
      </data-member>
      <data-member access='public' layout-offset-in-bits='64'>
        <var-decl name='__next' type-id='type-id-80' visibility='default' filepath='/usr/include/x86_64-linux-gnu/bits/pthreadtypes.h' line='78' column='1'/>
      </data-member>
    </class-decl>
    <typedef-decl name='__gthread_cond_t' type-id='type-id-81' filepath='/usr/bin/../lib/gcc/x86_64-linux-gnu/4.9/../../../../include/x86_64-linux-gnu/c++/4.9/bits/gthr-default.h' line='52' column='1' id='type-id-82'/>
    <typedef-decl name='pthread_cond_t' type-id='type-id-83' filepath='/usr/include/x86_64-linux-gnu/bits/pthreadtypes.h' line='154' column='1' id='type-id-81'/>
    <union-decl name='__anonymous_union__1' size-in-bits='384' is-anonymous='yes' visibility='default' filepath='/usr/include/x86_64-linux-gnu/bits/pthreadtypes.h' line='139' column='1' id='type-id-83'>
      <member-type access='public'>
        <class-decl name='__anonymous_struct__' size-in-bits='384' is-struct='yes' is-anonymous='yes' visibility='default' filepath='/usr/include/x86_64-linux-gnu/bits/pthreadtypes.h' line='141' column='1' id='type-id-84'>
          <data-member access='public' layout-offset-in-bits='0'>
            <var-decl name='__lock' type-id='type-id-43' visibility='default' filepath='/usr/include/x86_64-linux-gnu/bits/pthreadtypes.h' line='143' column='1'/>
          </data-member>
          <data-member access='public' layout-offset-in-bits='32'>
            <var-decl name='__futex' type-id='type-id-30' visibility='default' filepath='/usr/include/x86_64-linux-gnu/bits/pthreadtypes.h' line='144' column='1'/>
          </data-member>
          <data-member access='public' layout-offset-in-bits='64'>
            <var-decl name='__total_seq' type-id='type-id-47' visibility='default' filepath='/usr/include/x86_64-linux-gnu/bits/pthreadtypes.h' line='145' column='1'/>
          </data-member>
          <data-member access='public' layout-offset-in-bits='128'>
            <var-decl name='__wakeup_seq' type-id='type-id-47' visibility='default' filepath='/usr/include/x86_64-linux-gnu/bits/pthreadtypes.h' line='146' column='1'/>
          </data-member>
          <data-member access='public' layout-offset-in-bits='192'>
            <var-decl name='__woken_seq' type-id='type-id-47' visibility='default' filepath='/usr/include/x86_64-linux-gnu/bits/pthreadtypes.h' line='147' column='1'/>
          </data-member>
          <data-member access='public' layout-offset-in-bits='256'>
            <var-decl name='__mutex' type-id='type-id-31' visibility='default' filepath='/usr/include/x86_64-linux-gnu/bits/pthreadtypes.h' line='148' column='1'/>
          </data-member>
          <data-member access='public' layout-offset-in-bits='320'>
            <var-decl name='__nwaiters' type-id='type-id-30' visibility='default' filepath='/usr/include/x86_64-linux-gnu/bits/pthreadtypes.h' line='149' column='1'/>
          </data-member>
          <data-member access='public' layout-offset-in-bits='352'>
            <var-decl name='__broadcast_seq' type-id='type-id-30' visibility='default' filepath='/usr/include/x86_64-linux-gnu/bits/pthreadtypes.h' line='150' column='1'/>
          </data-member>
        </class-decl>
      </member-type>
      <data-member access='public'>
        <var-decl name='__data' type-id='type-id-84' visibility='default' filepath='/usr/include/x86_64-linux-gnu/bits/pthreadtypes.h' line='151' column='1'/>
      </data-member>
      <data-member access='public'>
        <var-decl name='__size' type-id='type-id-21' visibility='default' filepath='/usr/include/x86_64-linux-gnu/bits/pthreadtypes.h' line='152' column='1'/>
      </data-member>
      <data-member access='public'>
        <var-decl name='__align' type-id='type-id-46' visibility='default' filepath='/usr/include/x86_64-linux-gnu/bits/pthreadtypes.h' line='153' column='1'/>
      </data-member>
    </union-decl>
    <typedef-decl name='uint64_t' type-id='type-id-57' filepath='/usr/include/stdint.h' line='55' column='1' id='type-id-85'/>
    <typedef-decl name='time_t' type-id='type-id-86' filepath='/usr/include/time.h' line='75' column='1' id='type-id-87'/>
    <typedef-decl name='__time_t' type-id='type-id-45' filepath='/usr/include/x86_64-linux-gnu/bits/types.h' line='139' column='1' id='type-id-86'/>
    <typedef-decl name='is_not_reference_tag' type-id='type-id-88' filepath='src/third_party/boost-1.56.0/boost/optional/optional.hpp' line='226' column='1' id='type-id-89'/>
    <typedef-decl name='is_reference_tag' type-id='type-id-90' filepath='src/third_party/boost-1.56.0/boost/optional/optional.hpp' line='225' column='1' id='type-id-91'/>
    <typedef-decl name='wint_t' type-id='type-id-30' filepath='/usr/lib/llvm-3.6/bin/../lib/clang/3.6.0/include/stddef.h' line='132' column='1' id='type-id-92'/>
    <typedef-decl name='__FILE' type-id='type-id-93' filepath='/usr/include/stdio.h' line='64' column='1' id='type-id-94'/>
    <typedef-decl name='mbstate_t' type-id='type-id-95' filepath='/usr/include/wchar.h' line='106' column='1' id='type-id-96'/>
    <typedef-decl name='__mbstate_t' type-id='type-id-97' filepath='/usr/include/wchar.h' line='94' column='1' id='type-id-95'/>
    <class-decl name='__anonymous_struct__1' size-in-bits='64' is-struct='yes' is-anonymous='yes' naming-typedef-id='type-id-95' visibility='default' filepath='/usr/include/wchar.h' line='82' column='1' id='type-id-97'>
      <member-type access='public'>
        <union-decl name='__anonymous_union__' size-in-bits='32' is-anonymous='yes' visibility='default' filepath='/usr/include/wchar.h' line='85' column='1' id='type-id-98'>
          <data-member access='public'>
            <var-decl name='__wch' type-id='type-id-30' visibility='default' filepath='/usr/include/wchar.h' line='88' column='1'/>
          </data-member>
          <data-member access='public'>
            <var-decl name='__wchb' type-id='type-id-23' visibility='default' filepath='/usr/include/wchar.h' line='92' column='1'/>
          </data-member>
        </union-decl>
      </member-type>
      <data-member access='public' layout-offset-in-bits='0'>
        <var-decl name='__count' type-id='type-id-43' visibility='default' filepath='/usr/include/wchar.h' line='84' column='1'/>
      </data-member>
      <data-member access='public' layout-offset-in-bits='32'>
        <var-decl name='__value' type-id='type-id-98' visibility='default' filepath='/usr/include/wchar.h' line='93' column='1'/>
      </data-member>
    </class-decl>
    <class-decl name='tm' size-in-bits='448' is-struct='yes' visibility='default' filepath='/usr/include/time.h' line='133' column='1' id='type-id-99'>
      <data-member access='public' layout-offset-in-bits='0'>
        <var-decl name='tm_sec' type-id='type-id-43' visibility='default' filepath='/usr/include/time.h' line='135' column='1'/>
      </data-member>
      <data-member access='public' layout-offset-in-bits='32'>
        <var-decl name='tm_min' type-id='type-id-43' visibility='default' filepath='/usr/include/time.h' line='136' column='1'/>
      </data-member>
      <data-member access='public' layout-offset-in-bits='64'>
        <var-decl name='tm_hour' type-id='type-id-43' visibility='default' filepath='/usr/include/time.h' line='137' column='1'/>
      </data-member>
      <data-member access='public' layout-offset-in-bits='96'>
        <var-decl name='tm_mday' type-id='type-id-43' visibility='default' filepath='/usr/include/time.h' line='138' column='1'/>
      </data-member>
      <data-member access='public' layout-offset-in-bits='128'>
        <var-decl name='tm_mon' type-id='type-id-43' visibility='default' filepath='/usr/include/time.h' line='139' column='1'/>
      </data-member>
      <data-member access='public' layout-offset-in-bits='160'>
        <var-decl name='tm_year' type-id='type-id-43' visibility='default' filepath='/usr/include/time.h' line='140' column='1'/>
      </data-member>
      <data-member access='public' layout-offset-in-bits='192'>
        <var-decl name='tm_wday' type-id='type-id-43' visibility='default' filepath='/usr/include/time.h' line='141' column='1'/>
      </data-member>
      <data-member access='public' layout-offset-in-bits='224'>
        <var-decl name='tm_yday' type-id='type-id-43' visibility='default' filepath='/usr/include/time.h' line='142' column='1'/>
      </data-member>
      <data-member access='public' layout-offset-in-bits='256'>
        <var-decl name='tm_isdst' type-id='type-id-43' visibility='default' filepath='/usr/include/time.h' line='143' column='1'/>
      </data-member>
      <data-member access='public' layout-offset-in-bits='320'>
        <var-decl name='tm_gmtoff' type-id='type-id-45' visibility='default' filepath='/usr/include/time.h' line='146' column='1'/>
      </data-member>
      <data-member access='public' layout-offset-in-bits='384'>
        <var-decl name='tm_zone' type-id='type-id-100' visibility='default' filepath='/usr/include/time.h' line='147' column='1'/>
      </data-member>
    </class-decl>
    <typedef-decl name='__compar_fn_t' type-id='type-id-101' filepath='/usr/include/stdlib.h' line='741' column='1' id='type-id-102'/>
    <typedef-decl name='div_t' type-id='type-id-103' filepath='/usr/include/stdlib.h' line='101' column='1' id='type-id-104'/>
    <typedef-decl name='ldiv_t' type-id='type-id-105' filepath='/usr/include/stdlib.h' line='109' column='1' id='type-id-106'/>
    <class-decl name='__anonymous_struct__3' size-in-bits='128' is-struct='yes' is-anonymous='yes' naming-typedef-id='type-id-106' visibility='default' filepath='/usr/include/stdlib.h' line='105' column='1' id='type-id-105'>
      <data-member access='public' layout-offset-in-bits='0'>
        <var-decl name='quot' type-id='type-id-45' visibility='default' filepath='/usr/include/stdlib.h' line='107' column='1'/>
      </data-member>
      <data-member access='public' layout-offset-in-bits='64'>
        <var-decl name='rem' type-id='type-id-45' visibility='default' filepath='/usr/include/stdlib.h' line='108' column='1'/>
      </data-member>
    </class-decl>
    <typedef-decl name='FILE' type-id='type-id-93' filepath='/usr/include/stdio.h' line='48' column='1' id='type-id-107'/>
    <typedef-decl name='fpos_t' type-id='type-id-108' filepath='/usr/include/stdio.h' line='110' column='1' id='type-id-109'/>
    <typedef-decl name='_G_fpos_t' type-id='type-id-103' filepath='/usr/include/_G_config.h' line='25' column='1' id='type-id-108'/>
    <typedef-decl name='clock_t' type-id='type-id-110' filepath='/usr/include/time.h' line='59' column='1' id='type-id-111'/>
    <typedef-decl name='__clock_t' type-id='type-id-45' filepath='/usr/include/x86_64-linux-gnu/bits/types.h' line='135' column='1' id='type-id-110'/>
    <typedef-decl name='wctype_t' type-id='type-id-57' filepath='/usr/include/wctype.h' line='52' column='1' id='type-id-112'/>
    <typedef-decl name='wctrans_t' type-id='type-id-113' filepath='/usr/include/wctype.h' line='186' column='1' id='type-id-114'/>
    <typedef-decl name='__int32_t' type-id='type-id-43' filepath='/usr/include/x86_64-linux-gnu/bits/types.h' line='40' column='1' id='type-id-115'/>
    <typedef-decl name='__hash_code' type-id='type-id-64' filepath='/usr/bin/../lib/gcc/x86_64-linux-gnu/4.9/../../../../include/c++/4.9/bits/hashtable_policy.h' line='1251' column='1' id='type-id-116'/>
    <typedef-decl name='__bucket_type' type-id='type-id-117' filepath='/usr/bin/../lib/gcc/x86_64-linux-gnu/4.9/../../../../include/c++/4.9/bits/hashtable_policy.h' line='1905' column='1' id='type-id-118'/>
    <typedef-decl name='__node_base' type-id='type-id-119' filepath='/usr/bin/../lib/gcc/x86_64-linux-gnu/4.9/../../../../include/c++/4.9/bits/hashtable_policy.h' line='1904' column='1' id='type-id-120'/>
    <pointer-type-def type-id='type-id-107' size-in-bits='64' id='type-id-121'/>
    <qualified-type-def type-id='type-id-121' restrict='yes' id='type-id-122'/>
    <pointer-type-def type-id='type-id-94' size-in-bits='64' id='type-id-123'/>
    <qualified-type-def type-id='type-id-123' restrict='yes' id='type-id-124'/>
    <pointer-type-def type-id='type-id-118' size-in-bits='64' id='type-id-125'/>
    <pointer-type-def type-id='type-id-126' size-in-bits='64' id='type-id-127'/>
    <pointer-type-def type-id='type-id-128' size-in-bits='64' id='type-id-129'/>
    <pointer-type-def type-id='type-id-130' size-in-bits='64' id='type-id-131'/>
    <reference-type-def kind='lvalue' type-id='type-id-132' size-in-bits='64' id='type-id-133'/>
    <pointer-type-def type-id='type-id-134' size-in-bits='64' id='type-id-135'/>
    <pointer-type-def type-id='type-id-136' size-in-bits='64' id='type-id-137'/>
    <pointer-type-def type-id='type-id-138' size-in-bits='64' id='type-id-139'/>
    <pointer-type-def type-id='type-id-140' size-in-bits='64' id='type-id-141'/>
    <pointer-type-def type-id='type-id-142' size-in-bits='64' id='type-id-143'/>
    <pointer-type-def type-id='type-id-144' size-in-bits='64' id='type-id-145'/>
    <pointer-type-def type-id='type-id-146' size-in-bits='64' id='type-id-147'/>
    <pointer-type-def type-id='type-id-148' size-in-bits='64' id='type-id-149'/>
    <pointer-type-def type-id='type-id-150' size-in-bits='64' id='type-id-151'/>
    <pointer-type-def type-id='type-id-152' size-in-bits='64' id='type-id-153'/>
    <pointer-type-def type-id='type-id-154' size-in-bits='64' id='type-id-155'/>
    <pointer-type-def type-id='type-id-120' size-in-bits='64' id='type-id-117'/>
    <pointer-type-def type-id='type-id-79' size-in-bits='64' id='type-id-80'/>
    <pointer-type-def type-id='type-id-49' size-in-bits='64' id='type-id-156'/>
    <pointer-type-def type-id='type-id-157' size-in-bits='64' id='type-id-158'/>
    <reference-type-def kind='lvalue' type-id='type-id-158' size-in-bits='64' id='type-id-159'/>
    <reference-type-def kind='lvalue' type-id='type-id-1' size-in-bits='64' id='type-id-160'/>
    <reference-type-def kind='lvalue' type-id='type-id-161' size-in-bits='64' id='type-id-162'/>
    <reference-type-def kind='rvalue' type-id='type-id-161' size-in-bits='64' id='type-id-163'/>
    <pointer-type-def type-id='type-id-161' size-in-bits='64' id='type-id-164'/>
    <pointer-type-def type-id='type-id-165' size-in-bits='64' id='type-id-166'/>
    <reference-type-def kind='lvalue' type-id='type-id-167' size-in-bits='64' id='type-id-168'/>
    <reference-type-def kind='rvalue' type-id='type-id-167' size-in-bits='64' id='type-id-169'/>
    <pointer-type-def type-id='type-id-167' size-in-bits='64' id='type-id-170'/>
    <reference-type-def kind='lvalue' type-id='type-id-171' size-in-bits='64' id='type-id-172'/>
    <reference-type-def kind='rvalue' type-id='type-id-171' size-in-bits='64' id='type-id-173'/>
    <pointer-type-def type-id='type-id-171' size-in-bits='64' id='type-id-174'/>
    <reference-type-def kind='lvalue' type-id='type-id-175' size-in-bits='64' id='type-id-176'/>
    <reference-type-def kind='rvalue' type-id='type-id-175' size-in-bits='64' id='type-id-177'/>
    <pointer-type-def type-id='type-id-175' size-in-bits='64' id='type-id-178'/>
    <pointer-type-def type-id='type-id-179' size-in-bits='64' id='type-id-180'/>
    <pointer-type-def type-id='type-id-181' size-in-bits='64' id='type-id-182'/>
    <pointer-type-def type-id='type-id-183' size-in-bits='64' id='type-id-184'/>
    <reference-type-def kind='rvalue' type-id='type-id-185' size-in-bits='64' id='type-id-186'/>
    <pointer-type-def type-id='type-id-185' size-in-bits='64' id='type-id-187'/>
    <pointer-type-def type-id='type-id-188' size-in-bits='64' id='type-id-189'/>
    <reference-type-def kind='rvalue' type-id='type-id-190' size-in-bits='64' id='type-id-191'/>
    <pointer-type-def type-id='type-id-190' size-in-bits='64' id='type-id-192'/>
    <pointer-type-def type-id='type-id-193' size-in-bits='64' id='type-id-194'/>
    <reference-type-def kind='rvalue' type-id='type-id-195' size-in-bits='64' id='type-id-196'/>
    <pointer-type-def type-id='type-id-195' size-in-bits='64' id='type-id-197'/>
    <pointer-type-def type-id='type-id-198' size-in-bits='64' id='type-id-199'/>
    <reference-type-def kind='rvalue' type-id='type-id-200' size-in-bits='64' id='type-id-201'/>
    <reference-type-def kind='rvalue' type-id='type-id-202' size-in-bits='64' id='type-id-203'/>
    <reference-type-def kind='rvalue' type-id='type-id-204' size-in-bits='64' id='type-id-205'/>
    <reference-type-def kind='rvalue' type-id='type-id-206' size-in-bits='64' id='type-id-207'/>
    <pointer-type-def type-id='type-id-5' size-in-bits='64' id='type-id-208'/>
    <qualified-type-def type-id='type-id-208' restrict='yes' id='type-id-209'/>
    <pointer-type-def type-id='type-id-208' size-in-bits='64' id='type-id-210'/>
    <qualified-type-def type-id='type-id-210' restrict='yes' id='type-id-211'/>
    <qualified-type-def type-id='type-id-126' const='yes' id='type-id-212'/>
    <pointer-type-def type-id='type-id-212' size-in-bits='64' id='type-id-213'/>
    <qualified-type-def type-id='type-id-128' const='yes' id='type-id-214'/>
    <pointer-type-def type-id='type-id-214' size-in-bits='64' id='type-id-215'/>
    <qualified-type-def type-id='type-id-130' const='yes' id='type-id-216'/>
    <pointer-type-def type-id='type-id-216' size-in-bits='64' id='type-id-217'/>
    <qualified-type-def type-id='type-id-132' const='yes' id='type-id-218'/>
    <reference-type-def kind='lvalue' type-id='type-id-218' size-in-bits='64' id='type-id-219'/>
    <qualified-type-def type-id='type-id-134' const='yes' id='type-id-220'/>
    <reference-type-def kind='lvalue' type-id='type-id-220' size-in-bits='64' id='type-id-221'/>
    <pointer-type-def type-id='type-id-220' size-in-bits='64' id='type-id-222'/>
    <qualified-type-def type-id='type-id-136' const='yes' id='type-id-223'/>
    <reference-type-def kind='lvalue' type-id='type-id-223' size-in-bits='64' id='type-id-224'/>
    <pointer-type-def type-id='type-id-223' size-in-bits='64' id='type-id-225'/>
    <qualified-type-def type-id='type-id-138' const='yes' id='type-id-226'/>
    <reference-type-def kind='lvalue' type-id='type-id-226' size-in-bits='64' id='type-id-227'/>
    <pointer-type-def type-id='type-id-226' size-in-bits='64' id='type-id-228'/>
    <qualified-type-def type-id='type-id-140' const='yes' id='type-id-229'/>
    <reference-type-def kind='lvalue' type-id='type-id-229' size-in-bits='64' id='type-id-230'/>
    <pointer-type-def type-id='type-id-229' size-in-bits='64' id='type-id-231'/>
    <qualified-type-def type-id='type-id-142' const='yes' id='type-id-232'/>
    <reference-type-def kind='lvalue' type-id='type-id-232' size-in-bits='64' id='type-id-233'/>
    <pointer-type-def type-id='type-id-232' size-in-bits='64' id='type-id-234'/>
    <qualified-type-def type-id='type-id-144' const='yes' id='type-id-235'/>
    <reference-type-def kind='lvalue' type-id='type-id-235' size-in-bits='64' id='type-id-236'/>
    <pointer-type-def type-id='type-id-235' size-in-bits='64' id='type-id-237'/>
    <qualified-type-def type-id='type-id-146' const='yes' id='type-id-238'/>
    <reference-type-def kind='lvalue' type-id='type-id-238' size-in-bits='64' id='type-id-239'/>
    <pointer-type-def type-id='type-id-238' size-in-bits='64' id='type-id-240'/>
    <qualified-type-def type-id='type-id-148' const='yes' id='type-id-241'/>
    <reference-type-def kind='lvalue' type-id='type-id-241' size-in-bits='64' id='type-id-242'/>
    <pointer-type-def type-id='type-id-241' size-in-bits='64' id='type-id-243'/>
    <qualified-type-def type-id='type-id-150' const='yes' id='type-id-244'/>
    <reference-type-def kind='lvalue' type-id='type-id-244' size-in-bits='64' id='type-id-245'/>
    <pointer-type-def type-id='type-id-244' size-in-bits='64' id='type-id-246'/>
    <qualified-type-def type-id='type-id-152' const='yes' id='type-id-247'/>
    <reference-type-def kind='lvalue' type-id='type-id-247' size-in-bits='64' id='type-id-248'/>
    <pointer-type-def type-id='type-id-247' size-in-bits='64' id='type-id-249'/>
    <qualified-type-def type-id='type-id-154' const='yes' id='type-id-250'/>
    <reference-type-def kind='lvalue' type-id='type-id-250' size-in-bits='64' id='type-id-251'/>
    <pointer-type-def type-id='type-id-250' size-in-bits='64' id='type-id-252'/>
    <qualified-type-def type-id='type-id-115' const='yes' id='type-id-253'/>
    <pointer-type-def type-id='type-id-253' size-in-bits='64' id='type-id-113'/>
    <qualified-type-def type-id='type-id-1' const='yes' id='type-id-254'/>
    <reference-type-def kind='lvalue' type-id='type-id-254' size-in-bits='64' id='type-id-255'/>
    <qualified-type-def type-id='type-id-161' const='yes' id='type-id-256'/>
    <reference-type-def kind='lvalue' type-id='type-id-256' size-in-bits='64' id='type-id-257'/>
    <pointer-type-def type-id='type-id-256' size-in-bits='64' id='type-id-258'/>
    <qualified-type-def type-id='type-id-167' const='yes' id='type-id-259'/>
    <reference-type-def kind='lvalue' type-id='type-id-259' size-in-bits='64' id='type-id-260'/>
    <pointer-type-def type-id='type-id-259' size-in-bits='64' id='type-id-261'/>
    <qualified-type-def type-id='type-id-171' const='yes' id='type-id-262'/>
    <reference-type-def kind='lvalue' type-id='type-id-262' size-in-bits='64' id='type-id-263'/>
    <pointer-type-def type-id='type-id-262' size-in-bits='64' id='type-id-264'/>
    <qualified-type-def type-id='type-id-175' const='yes' id='type-id-265'/>
    <reference-type-def kind='lvalue' type-id='type-id-265' size-in-bits='64' id='type-id-266'/>
    <pointer-type-def type-id='type-id-265' size-in-bits='64' id='type-id-267'/>
    <qualified-type-def type-id='type-id-179' const='yes' id='type-id-268'/>
    <pointer-type-def type-id='type-id-268' size-in-bits='64' id='type-id-269'/>
    <qualified-type-def type-id='type-id-181' const='yes' id='type-id-270'/>
    <pointer-type-def type-id='type-id-270' size-in-bits='64' id='type-id-271'/>
    <qualified-type-def type-id='type-id-183' const='yes' id='type-id-272'/>
    <pointer-type-def type-id='type-id-272' size-in-bits='64' id='type-id-273'/>
    <qualified-type-def type-id='type-id-185' const='yes' id='type-id-274'/>
    <reference-type-def kind='lvalue' type-id='type-id-274' size-in-bits='64' id='type-id-275'/>
    <pointer-type-def type-id='type-id-274' size-in-bits='64' id='type-id-276'/>
    <qualified-type-def type-id='type-id-188' const='yes' id='type-id-277'/>
    <pointer-type-def type-id='type-id-277' size-in-bits='64' id='type-id-278'/>
    <qualified-type-def type-id='type-id-190' const='yes' id='type-id-279'/>
    <reference-type-def kind='lvalue' type-id='type-id-279' size-in-bits='64' id='type-id-280'/>
    <pointer-type-def type-id='type-id-279' size-in-bits='64' id='type-id-281'/>
    <qualified-type-def type-id='type-id-193' const='yes' id='type-id-282'/>
    <pointer-type-def type-id='type-id-282' size-in-bits='64' id='type-id-283'/>
    <qualified-type-def type-id='type-id-195' const='yes' id='type-id-284'/>
    <reference-type-def kind='lvalue' type-id='type-id-284' size-in-bits='64' id='type-id-285'/>
    <pointer-type-def type-id='type-id-284' size-in-bits='64' id='type-id-286'/>
    <qualified-type-def type-id='type-id-198' const='yes' id='type-id-287'/>
    <pointer-type-def type-id='type-id-287' size-in-bits='64' id='type-id-288'/>
    <qualified-type-def type-id='type-id-5' const='yes' id='type-id-32'/>
    <pointer-type-def type-id='type-id-32' size-in-bits='64' id='type-id-100'/>
    <qualified-type-def type-id='type-id-100' restrict='yes' id='type-id-289'/>
    <reference-type-def kind='lvalue' type-id='type-id-100' size-in-bits='64' id='type-id-290'/>
    <pointer-type-def type-id='type-id-100' size-in-bits='64' id='type-id-291'/>
    <qualified-type-def type-id='type-id-291' restrict='yes' id='type-id-292'/>
    <reference-type-def kind='lvalue' type-id='type-id-33' size-in-bits='64' id='type-id-293'/>
    <reference-type-def kind='lvalue' type-id='type-id-34' size-in-bits='64' id='type-id-294'/>
    <reference-type-def kind='lvalue' type-id='type-id-35' size-in-bits='64' id='type-id-295'/>
    <reference-type-def kind='lvalue' type-id='type-id-36' size-in-bits='64' id='type-id-296'/>
    <reference-type-def kind='lvalue' type-id='type-id-37' size-in-bits='64' id='type-id-297'/>
    <reference-type-def kind='lvalue' type-id='type-id-38' size-in-bits='64' id='type-id-298'/>
    <qualified-type-def type-id='type-id-109' const='yes' id='type-id-299'/>
    <pointer-type-def type-id='type-id-299' size-in-bits='64' id='type-id-300'/>
    <qualified-type-def type-id='type-id-43' const='yes' id='type-id-301'/>
    <qualified-type-def type-id='type-id-45' const='yes' id='type-id-302'/>
    <reference-type-def kind='lvalue' type-id='type-id-302' size-in-bits='64' id='type-id-303'/>
    <qualified-type-def type-id='type-id-46' const='yes' id='type-id-304'/>
    <reference-type-def kind='lvalue' type-id='type-id-304' size-in-bits='64' id='type-id-305'/>
    <qualified-type-def type-id='type-id-96' const='yes' id='type-id-306'/>
    <pointer-type-def type-id='type-id-306' size-in-bits='64' id='type-id-307'/>
    <qualified-type-def type-id='type-id-308' const='yes' id='type-id-309'/>
    <pointer-type-def type-id='type-id-309' size-in-bits='64' id='type-id-310'/>
    <qualified-type-def type-id='type-id-311' const='yes' id='type-id-312'/>
    <reference-type-def kind='lvalue' type-id='type-id-312' size-in-bits='64' id='type-id-313'/>
    <pointer-type-def type-id='type-id-312' size-in-bits='64' id='type-id-314'/>
    <qualified-type-def type-id='type-id-315' const='yes' id='type-id-316'/>
    <reference-type-def kind='lvalue' type-id='type-id-316' size-in-bits='64' id='type-id-317'/>
    <pointer-type-def type-id='type-id-316' size-in-bits='64' id='type-id-318'/>
    <qualified-type-def type-id='type-id-319' const='yes' id='type-id-320'/>
    <reference-type-def kind='lvalue' type-id='type-id-320' size-in-bits='64' id='type-id-321'/>
    <qualified-type-def type-id='type-id-322' const='yes' id='type-id-323'/>
    <reference-type-def kind='lvalue' type-id='type-id-323' size-in-bits='64' id='type-id-324'/>
    <qualified-type-def type-id='type-id-325' const='yes' id='type-id-326'/>
    <reference-type-def kind='lvalue' type-id='type-id-326' size-in-bits='64' id='type-id-327'/>
    <pointer-type-def type-id='type-id-326' size-in-bits='64' id='type-id-328'/>
    <qualified-type-def type-id='type-id-329' const='yes' id='type-id-330'/>
    <pointer-type-def type-id='type-id-330' size-in-bits='64' id='type-id-331'/>
    <qualified-type-def type-id='type-id-332' const='yes' id='type-id-333'/>
    <pointer-type-def type-id='type-id-333' size-in-bits='64' id='type-id-334'/>
    <qualified-type-def type-id='type-id-335' const='yes' id='type-id-336'/>
    <pointer-type-def type-id='type-id-336' size-in-bits='64' id='type-id-337'/>
    <qualified-type-def type-id='type-id-338' const='yes' id='type-id-339'/>
    <reference-type-def kind='lvalue' type-id='type-id-339' size-in-bits='64' id='type-id-340'/>
    <pointer-type-def type-id='type-id-339' size-in-bits='64' id='type-id-341'/>
    <qualified-type-def type-id='type-id-342' const='yes' id='type-id-343'/>
    <qualified-type-def type-id='type-id-344' const='yes' id='type-id-345'/>
    <reference-type-def kind='lvalue' type-id='type-id-345' size-in-bits='64' id='type-id-346'/>
    <pointer-type-def type-id='type-id-345' size-in-bits='64' id='type-id-347'/>
    <qualified-type-def type-id='type-id-348' const='yes' id='type-id-349'/>
    <qualified-type-def type-id='type-id-350' const='yes' id='type-id-351'/>
    <reference-type-def kind='lvalue' type-id='type-id-351' size-in-bits='64' id='type-id-352'/>
    <pointer-type-def type-id='type-id-351' size-in-bits='64' id='type-id-353'/>
    <qualified-type-def type-id='type-id-354' const='yes' id='type-id-355'/>
    <reference-type-def kind='lvalue' type-id='type-id-355' size-in-bits='64' id='type-id-356'/>
    <pointer-type-def type-id='type-id-355' size-in-bits='64' id='type-id-357'/>
    <qualified-type-def type-id='type-id-358' const='yes' id='type-id-359'/>
    <reference-type-def kind='lvalue' type-id='type-id-359' size-in-bits='64' id='type-id-360'/>
    <qualified-type-def type-id='type-id-361' const='yes' id='type-id-362'/>
    <reference-type-def kind='lvalue' type-id='type-id-362' size-in-bits='64' id='type-id-363'/>
    <qualified-type-def type-id='type-id-364' const='yes' id='type-id-365'/>
    <reference-type-def kind='lvalue' type-id='type-id-365' size-in-bits='64' id='type-id-366'/>
    <pointer-type-def type-id='type-id-365' size-in-bits='64' id='type-id-367'/>
    <qualified-type-def type-id='type-id-368' const='yes' id='type-id-369'/>
    <reference-type-def kind='lvalue' type-id='type-id-369' size-in-bits='64' id='type-id-370'/>
    <pointer-type-def type-id='type-id-369' size-in-bits='64' id='type-id-371'/>
    <qualified-type-def type-id='type-id-372' const='yes' id='type-id-373'/>
    <pointer-type-def type-id='type-id-373' size-in-bits='64' id='type-id-374'/>
    <qualified-type-def type-id='type-id-375' const='yes' id='type-id-376'/>
    <reference-type-def kind='lvalue' type-id='type-id-376' size-in-bits='64' id='type-id-377'/>
    <pointer-type-def type-id='type-id-376' size-in-bits='64' id='type-id-378'/>
    <qualified-type-def type-id='type-id-379' const='yes' id='type-id-380'/>
    <reference-type-def kind='lvalue' type-id='type-id-380' size-in-bits='64' id='type-id-381'/>
    <pointer-type-def type-id='type-id-380' size-in-bits='64' id='type-id-382'/>
    <qualified-type-def type-id='type-id-383' const='yes' id='type-id-384'/>
    <pointer-type-def type-id='type-id-384' size-in-bits='64' id='type-id-385'/>
    <qualified-type-def type-id='type-id-386' const='yes' id='type-id-387'/>
    <pointer-type-def type-id='type-id-387' size-in-bits='64' id='type-id-388'/>
    <qualified-type-def type-id='type-id-389' const='yes' id='type-id-390'/>
    <reference-type-def kind='lvalue' type-id='type-id-390' size-in-bits='64' id='type-id-391'/>
    <pointer-type-def type-id='type-id-390' size-in-bits='64' id='type-id-392'/>
    <qualified-type-def type-id='type-id-393' const='yes' id='type-id-394'/>
    <reference-type-def kind='lvalue' type-id='type-id-394' size-in-bits='64' id='type-id-395'/>
    <pointer-type-def type-id='type-id-394' size-in-bits='64' id='type-id-396'/>
    <qualified-type-def type-id='type-id-397' const='yes' id='type-id-398'/>
    <reference-type-def kind='lvalue' type-id='type-id-398' size-in-bits='64' id='type-id-399'/>
    <pointer-type-def type-id='type-id-398' size-in-bits='64' id='type-id-400'/>
    <qualified-type-def type-id='type-id-401' const='yes' id='type-id-402'/>
    <reference-type-def kind='lvalue' type-id='type-id-402' size-in-bits='64' id='type-id-403'/>
    <pointer-type-def type-id='type-id-402' size-in-bits='64' id='type-id-404'/>
    <qualified-type-def type-id='type-id-405' const='yes' id='type-id-406'/>
    <reference-type-def kind='lvalue' type-id='type-id-406' size-in-bits='64' id='type-id-407'/>
    <pointer-type-def type-id='type-id-406' size-in-bits='64' id='type-id-408'/>
    <qualified-type-def type-id='type-id-409' const='yes' id='type-id-410'/>
    <reference-type-def kind='lvalue' type-id='type-id-410' size-in-bits='64' id='type-id-411'/>
    <pointer-type-def type-id='type-id-410' size-in-bits='64' id='type-id-412'/>
    <qualified-type-def type-id='type-id-413' const='yes' id='type-id-414'/>
    <reference-type-def kind='lvalue' type-id='type-id-414' size-in-bits='64' id='type-id-415'/>
    <qualified-type-def type-id='type-id-416' const='yes' id='type-id-417'/>
    <reference-type-def kind='lvalue' type-id='type-id-417' size-in-bits='64' id='type-id-418'/>
    <qualified-type-def type-id='type-id-419' const='yes' id='type-id-420'/>
    <reference-type-def kind='lvalue' type-id='type-id-420' size-in-bits='64' id='type-id-421'/>
    <pointer-type-def type-id='type-id-420' size-in-bits='64' id='type-id-422'/>
    <qualified-type-def type-id='type-id-423' const='yes' id='type-id-424'/>
    <reference-type-def kind='lvalue' type-id='type-id-424' size-in-bits='64' id='type-id-425'/>
    <pointer-type-def type-id='type-id-424' size-in-bits='64' id='type-id-426'/>
    <qualified-type-def type-id='type-id-427' const='yes' id='type-id-428'/>
    <reference-type-def kind='lvalue' type-id='type-id-428' size-in-bits='64' id='type-id-429'/>
    <qualified-type-def type-id='type-id-430' const='yes' id='type-id-431'/>
    <reference-type-def kind='lvalue' type-id='type-id-431' size-in-bits='64' id='type-id-432'/>
    <qualified-type-def type-id='type-id-433' const='yes' id='type-id-434'/>
    <reference-type-def kind='lvalue' type-id='type-id-434' size-in-bits='64' id='type-id-435'/>
    <qualified-type-def type-id='type-id-436' const='yes' id='type-id-437'/>
    <reference-type-def kind='lvalue' type-id='type-id-437' size-in-bits='64' id='type-id-438'/>
    <pointer-type-def type-id='type-id-437' size-in-bits='64' id='type-id-439'/>
    <qualified-type-def type-id='type-id-440' const='yes' id='type-id-441'/>
    <reference-type-def kind='lvalue' type-id='type-id-441' size-in-bits='64' id='type-id-442'/>
    <pointer-type-def type-id='type-id-441' size-in-bits='64' id='type-id-443'/>
    <qualified-type-def type-id='type-id-444' const='yes' id='type-id-445'/>
    <pointer-type-def type-id='type-id-445' size-in-bits='64' id='type-id-446'/>
    <qualified-type-def type-id='type-id-447' const='yes' id='type-id-448'/>
    <reference-type-def kind='lvalue' type-id='type-id-448' size-in-bits='64' id='type-id-449'/>
    <pointer-type-def type-id='type-id-448' size-in-bits='64' id='type-id-450'/>
    <qualified-type-def type-id='type-id-451' const='yes' id='type-id-452'/>
    <reference-type-def kind='lvalue' type-id='type-id-452' size-in-bits='64' id='type-id-453'/>
    <pointer-type-def type-id='type-id-452' size-in-bits='64' id='type-id-454'/>
    <qualified-type-def type-id='type-id-455' const='yes' id='type-id-456'/>
    <reference-type-def kind='lvalue' type-id='type-id-456' size-in-bits='64' id='type-id-457'/>
    <qualified-type-def type-id='type-id-458' const='yes' id='type-id-459'/>
    <reference-type-def kind='lvalue' type-id='type-id-459' size-in-bits='64' id='type-id-460'/>
    <qualified-type-def type-id='type-id-461' const='yes' id='type-id-462'/>
    <pointer-type-def type-id='type-id-462' size-in-bits='64' id='type-id-463'/>
    <qualified-type-def type-id='type-id-464' const='yes' id='type-id-465'/>
    <reference-type-def kind='lvalue' type-id='type-id-465' size-in-bits='64' id='type-id-466'/>
    <pointer-type-def type-id='type-id-465' size-in-bits='64' id='type-id-467'/>
    <qualified-type-def type-id='type-id-468' const='yes' id='type-id-469'/>
    <reference-type-def kind='lvalue' type-id='type-id-469' size-in-bits='64' id='type-id-470'/>
    <pointer-type-def type-id='type-id-469' size-in-bits='64' id='type-id-471'/>
    <qualified-type-def type-id='type-id-472' const='yes' id='type-id-473'/>
    <reference-type-def kind='lvalue' type-id='type-id-473' size-in-bits='64' id='type-id-474'/>
    <pointer-type-def type-id='type-id-473' size-in-bits='64' id='type-id-475'/>
    <qualified-type-def type-id='type-id-476' const='yes' id='type-id-477'/>
    <pointer-type-def type-id='type-id-477' size-in-bits='64' id='type-id-478'/>
    <qualified-type-def type-id='type-id-479' const='yes' id='type-id-480'/>
    <pointer-type-def type-id='type-id-480' size-in-bits='64' id='type-id-481'/>
    <qualified-type-def type-id='type-id-482' const='yes' id='type-id-483'/>
    <pointer-type-def type-id='type-id-483' size-in-bits='64' id='type-id-484'/>
    <qualified-type-def type-id='type-id-66' const='yes' id='type-id-485'/>
    <qualified-type-def type-id='type-id-486' const='yes' id='type-id-487'/>
    <reference-type-def kind='lvalue' type-id='type-id-487' size-in-bits='64' id='type-id-488'/>
    <pointer-type-def type-id='type-id-487' size-in-bits='64' id='type-id-489'/>
    <qualified-type-def type-id='type-id-490' const='yes' id='type-id-491'/>
    <reference-type-def kind='lvalue' type-id='type-id-491' size-in-bits='64' id='type-id-492'/>
    <qualified-type-def type-id='type-id-493' const='yes' id='type-id-494'/>
    <reference-type-def kind='lvalue' type-id='type-id-494' size-in-bits='64' id='type-id-495'/>
    <qualified-type-def type-id='type-id-496' const='yes' id='type-id-497'/>
    <reference-type-def kind='lvalue' type-id='type-id-497' size-in-bits='64' id='type-id-498'/>
    <qualified-type-def type-id='type-id-499' const='yes' id='type-id-500'/>
    <reference-type-def kind='lvalue' type-id='type-id-500' size-in-bits='64' id='type-id-501'/>
    <qualified-type-def type-id='type-id-502' const='yes' id='type-id-503'/>
    <reference-type-def kind='lvalue' type-id='type-id-503' size-in-bits='64' id='type-id-504'/>
    <qualified-type-def type-id='type-id-505' const='yes' id='type-id-506'/>
    <reference-type-def kind='lvalue' type-id='type-id-506' size-in-bits='64' id='type-id-507'/>
    <qualified-type-def type-id='type-id-508' const='yes' id='type-id-509'/>
    <reference-type-def kind='lvalue' type-id='type-id-509' size-in-bits='64' id='type-id-510'/>
    <qualified-type-def type-id='type-id-511' const='yes' id='type-id-512'/>
    <reference-type-def kind='lvalue' type-id='type-id-512' size-in-bits='64' id='type-id-513'/>
    <qualified-type-def type-id='type-id-514' const='yes' id='type-id-515'/>
    <reference-type-def kind='lvalue' type-id='type-id-515' size-in-bits='64' id='type-id-516'/>
    <qualified-type-def type-id='type-id-517' const='yes' id='type-id-518'/>
    <reference-type-def kind='lvalue' type-id='type-id-518' size-in-bits='64' id='type-id-519'/>
    <qualified-type-def type-id='type-id-520' const='yes' id='type-id-521'/>
    <reference-type-def kind='lvalue' type-id='type-id-521' size-in-bits='64' id='type-id-522'/>
    <qualified-type-def type-id='type-id-523' const='yes' id='type-id-524'/>
    <pointer-type-def type-id='type-id-524' size-in-bits='64' id='type-id-525'/>
    <qualified-type-def type-id='type-id-526' const='yes' id='type-id-527'/>
    <reference-type-def kind='lvalue' type-id='type-id-527' size-in-bits='64' id='type-id-528'/>
    <pointer-type-def type-id='type-id-527' size-in-bits='64' id='type-id-529'/>
    <qualified-type-def type-id='type-id-530' const='yes' id='type-id-531'/>
    <reference-type-def kind='lvalue' type-id='type-id-531' size-in-bits='64' id='type-id-532'/>
    <qualified-type-def type-id='type-id-533' const='yes' id='type-id-534'/>
    <reference-type-def kind='lvalue' type-id='type-id-534' size-in-bits='64' id='type-id-535'/>
    <qualified-type-def type-id='type-id-536' const='yes' id='type-id-537'/>
    <reference-type-def kind='lvalue' type-id='type-id-537' size-in-bits='64' id='type-id-538'/>
    <qualified-type-def type-id='type-id-539' const='yes' id='type-id-540'/>
    <reference-type-def kind='lvalue' type-id='type-id-540' size-in-bits='64' id='type-id-541'/>
    <qualified-type-def type-id='type-id-542' const='yes' id='type-id-543'/>
    <reference-type-def kind='lvalue' type-id='type-id-543' size-in-bits='64' id='type-id-544'/>
    <qualified-type-def type-id='type-id-545' const='yes' id='type-id-546'/>
    <reference-type-def kind='lvalue' type-id='type-id-546' size-in-bits='64' id='type-id-547'/>
    <qualified-type-def type-id='type-id-548' const='yes' id='type-id-549'/>
    <reference-type-def kind='lvalue' type-id='type-id-549' size-in-bits='64' id='type-id-550'/>
    <qualified-type-def type-id='type-id-551' const='yes' id='type-id-552'/>
    <reference-type-def kind='lvalue' type-id='type-id-552' size-in-bits='64' id='type-id-553'/>
    <qualified-type-def type-id='type-id-554' const='yes' id='type-id-555'/>
    <reference-type-def kind='lvalue' type-id='type-id-555' size-in-bits='64' id='type-id-556'/>
    <qualified-type-def type-id='type-id-557' const='yes' id='type-id-558'/>
    <reference-type-def kind='lvalue' type-id='type-id-558' size-in-bits='64' id='type-id-559'/>
    <qualified-type-def type-id='type-id-560' const='yes' id='type-id-561'/>
    <reference-type-def kind='lvalue' type-id='type-id-561' size-in-bits='64' id='type-id-562'/>
    <qualified-type-def type-id='type-id-563' const='yes' id='type-id-564'/>
    <reference-type-def kind='lvalue' type-id='type-id-564' size-in-bits='64' id='type-id-565'/>
    <qualified-type-def type-id='type-id-566' const='yes' id='type-id-567'/>
    <reference-type-def kind='lvalue' type-id='type-id-567' size-in-bits='64' id='type-id-568'/>
    <qualified-type-def type-id='type-id-569' const='yes' id='type-id-570'/>
    <reference-type-def kind='lvalue' type-id='type-id-570' size-in-bits='64' id='type-id-571'/>
    <qualified-type-def type-id='type-id-572' const='yes' id='type-id-573'/>
    <reference-type-def kind='lvalue' type-id='type-id-573' size-in-bits='64' id='type-id-574'/>
    <qualified-type-def type-id='type-id-575' const='yes' id='type-id-576'/>
    <reference-type-def kind='lvalue' type-id='type-id-576' size-in-bits='64' id='type-id-577'/>
    <qualified-type-def type-id='type-id-578' const='yes' id='type-id-579'/>
    <reference-type-def kind='lvalue' type-id='type-id-579' size-in-bits='64' id='type-id-580'/>
    <qualified-type-def type-id='type-id-581' const='yes' id='type-id-582'/>
    <reference-type-def kind='lvalue' type-id='type-id-582' size-in-bits='64' id='type-id-583'/>
    <qualified-type-def type-id='type-id-584' const='yes' id='type-id-585'/>
    <reference-type-def kind='lvalue' type-id='type-id-585' size-in-bits='64' id='type-id-586'/>
    <qualified-type-def type-id='type-id-587' const='yes' id='type-id-588'/>
    <reference-type-def kind='lvalue' type-id='type-id-588' size-in-bits='64' id='type-id-589'/>
    <qualified-type-def type-id='type-id-590' const='yes' id='type-id-591'/>
    <reference-type-def kind='lvalue' type-id='type-id-591' size-in-bits='64' id='type-id-592'/>
    <qualified-type-def type-id='type-id-593' const='yes' id='type-id-594'/>
    <reference-type-def kind='lvalue' type-id='type-id-594' size-in-bits='64' id='type-id-595'/>
    <qualified-type-def type-id='type-id-596' const='yes' id='type-id-597'/>
    <reference-type-def kind='lvalue' type-id='type-id-597' size-in-bits='64' id='type-id-598'/>
    <qualified-type-def type-id='type-id-599' const='yes' id='type-id-600'/>
    <reference-type-def kind='lvalue' type-id='type-id-600' size-in-bits='64' id='type-id-601'/>
    <qualified-type-def type-id='type-id-602' const='yes' id='type-id-603'/>
    <reference-type-def kind='lvalue' type-id='type-id-603' size-in-bits='64' id='type-id-604'/>
    <qualified-type-def type-id='type-id-605' const='yes' id='type-id-606'/>
    <reference-type-def kind='lvalue' type-id='type-id-606' size-in-bits='64' id='type-id-607'/>
    <qualified-type-def type-id='type-id-608' const='yes' id='type-id-609'/>
    <reference-type-def kind='lvalue' type-id='type-id-609' size-in-bits='64' id='type-id-610'/>
    <qualified-type-def type-id='type-id-611' const='yes' id='type-id-612'/>
    <reference-type-def kind='lvalue' type-id='type-id-612' size-in-bits='64' id='type-id-613'/>
    <qualified-type-def type-id='type-id-614' const='yes' id='type-id-615'/>
    <reference-type-def kind='lvalue' type-id='type-id-615' size-in-bits='64' id='type-id-616'/>
    <qualified-type-def type-id='type-id-617' const='yes' id='type-id-618'/>
    <reference-type-def kind='lvalue' type-id='type-id-618' size-in-bits='64' id='type-id-619'/>
    <qualified-type-def type-id='type-id-620' const='yes' id='type-id-621'/>
    <reference-type-def kind='lvalue' type-id='type-id-621' size-in-bits='64' id='type-id-622'/>
    <qualified-type-def type-id='type-id-623' const='yes' id='type-id-624'/>
    <reference-type-def kind='lvalue' type-id='type-id-624' size-in-bits='64' id='type-id-625'/>
    <qualified-type-def type-id='type-id-626' const='yes' id='type-id-627'/>
    <reference-type-def kind='lvalue' type-id='type-id-627' size-in-bits='64' id='type-id-628'/>
    <qualified-type-def type-id='type-id-629' const='yes' id='type-id-630'/>
    <reference-type-def kind='lvalue' type-id='type-id-630' size-in-bits='64' id='type-id-631'/>
    <qualified-type-def type-id='type-id-632' const='yes' id='type-id-633'/>
    <reference-type-def kind='lvalue' type-id='type-id-633' size-in-bits='64' id='type-id-634'/>
    <qualified-type-def type-id='type-id-635' const='yes' id='type-id-636'/>
    <reference-type-def kind='lvalue' type-id='type-id-636' size-in-bits='64' id='type-id-637'/>
    <qualified-type-def type-id='type-id-638' const='yes' id='type-id-639'/>
    <reference-type-def kind='lvalue' type-id='type-id-639' size-in-bits='64' id='type-id-640'/>
    <qualified-type-def type-id='type-id-641' const='yes' id='type-id-642'/>
    <reference-type-def kind='lvalue' type-id='type-id-642' size-in-bits='64' id='type-id-643'/>
    <qualified-type-def type-id='type-id-644' const='yes' id='type-id-645'/>
    <pointer-type-def type-id='type-id-645' size-in-bits='64' id='type-id-646'/>
    <qualified-type-def type-id='type-id-647' const='yes' id='type-id-648'/>
    <reference-type-def kind='lvalue' type-id='type-id-648' size-in-bits='64' id='type-id-649'/>
    <qualified-type-def type-id='type-id-650' const='yes' id='type-id-651'/>
    <pointer-type-def type-id='type-id-651' size-in-bits='64' id='type-id-652'/>
    <qualified-type-def type-id='type-id-653' const='yes' id='type-id-654'/>
    <reference-type-def kind='lvalue' type-id='type-id-654' size-in-bits='64' id='type-id-655'/>
    <qualified-type-def type-id='type-id-656' const='yes' id='type-id-657'/>
    <reference-type-def kind='lvalue' type-id='type-id-657' size-in-bits='64' id='type-id-658'/>
    <pointer-type-def type-id='type-id-657' size-in-bits='64' id='type-id-659'/>
    <qualified-type-def type-id='type-id-660' const='yes' id='type-id-661'/>
    <reference-type-def kind='lvalue' type-id='type-id-661' size-in-bits='64' id='type-id-662'/>
    <qualified-type-def type-id='type-id-663' const='yes' id='type-id-664'/>
    <reference-type-def kind='lvalue' type-id='type-id-664' size-in-bits='64' id='type-id-665'/>
    <qualified-type-def type-id='type-id-666' const='yes' id='type-id-667'/>
    <reference-type-def kind='lvalue' type-id='type-id-667' size-in-bits='64' id='type-id-668'/>
    <pointer-type-def type-id='type-id-667' size-in-bits='64' id='type-id-669'/>
    <qualified-type-def type-id='type-id-670' const='yes' id='type-id-671'/>
    <reference-type-def kind='lvalue' type-id='type-id-671' size-in-bits='64' id='type-id-672'/>
    <qualified-type-def type-id='type-id-673' const='yes' id='type-id-674'/>
    <reference-type-def kind='lvalue' type-id='type-id-674' size-in-bits='64' id='type-id-675'/>
    <qualified-type-def type-id='type-id-676' const='yes' id='type-id-677'/>
    <pointer-type-def type-id='type-id-677' size-in-bits='64' id='type-id-678'/>
    <qualified-type-def type-id='type-id-679' const='yes' id='type-id-680'/>
    <reference-type-def kind='lvalue' type-id='type-id-680' size-in-bits='64' id='type-id-681'/>
    <qualified-type-def type-id='type-id-682' const='yes' id='type-id-683'/>
    <pointer-type-def type-id='type-id-683' size-in-bits='64' id='type-id-684'/>
    <qualified-type-def type-id='type-id-685' const='yes' id='type-id-686'/>
    <reference-type-def kind='lvalue' type-id='type-id-686' size-in-bits='64' id='type-id-687'/>
    <qualified-type-def type-id='type-id-688' const='yes' id='type-id-689'/>
    <reference-type-def kind='lvalue' type-id='type-id-689' size-in-bits='64' id='type-id-690'/>
    <pointer-type-def type-id='type-id-689' size-in-bits='64' id='type-id-691'/>
    <qualified-type-def type-id='type-id-692' const='yes' id='type-id-693'/>
    <reference-type-def kind='lvalue' type-id='type-id-693' size-in-bits='64' id='type-id-694'/>
    <pointer-type-def type-id='type-id-693' size-in-bits='64' id='type-id-695'/>
    <qualified-type-def type-id='type-id-696' const='yes' id='type-id-697'/>
    <pointer-type-def type-id='type-id-697' size-in-bits='64' id='type-id-698'/>
    <qualified-type-def type-id='type-id-699' const='yes' id='type-id-700'/>
    <pointer-type-def type-id='type-id-700' size-in-bits='64' id='type-id-701'/>
    <qualified-type-def type-id='type-id-702' const='yes' id='type-id-703'/>
    <pointer-type-def type-id='type-id-703' size-in-bits='64' id='type-id-704'/>
    <qualified-type-def type-id='type-id-705' const='yes' id='type-id-706'/>
    <reference-type-def kind='lvalue' type-id='type-id-706' size-in-bits='64' id='type-id-707'/>
    <qualified-type-def type-id='type-id-708' const='yes' id='type-id-709'/>
    <reference-type-def kind='lvalue' type-id='type-id-709' size-in-bits='64' id='type-id-710'/>
    <qualified-type-def type-id='type-id-711' const='yes' id='type-id-712'/>
    <reference-type-def kind='lvalue' type-id='type-id-712' size-in-bits='64' id='type-id-713'/>
    <pointer-type-def type-id='type-id-712' size-in-bits='64' id='type-id-714'/>
    <qualified-type-def type-id='type-id-715' const='yes' id='type-id-716'/>
    <reference-type-def kind='lvalue' type-id='type-id-716' size-in-bits='64' id='type-id-717'/>
    <qualified-type-def type-id='type-id-718' const='yes' id='type-id-719'/>
    <reference-type-def kind='lvalue' type-id='type-id-719' size-in-bits='64' id='type-id-720'/>
    <pointer-type-def type-id='type-id-719' size-in-bits='64' id='type-id-721'/>
    <qualified-type-def type-id='type-id-722' const='yes' id='type-id-723'/>
    <reference-type-def kind='lvalue' type-id='type-id-723' size-in-bits='64' id='type-id-724'/>
    <pointer-type-def type-id='type-id-723' size-in-bits='64' id='type-id-725'/>
    <qualified-type-def type-id='type-id-726' const='yes' id='type-id-727'/>
    <reference-type-def kind='lvalue' type-id='type-id-727' size-in-bits='64' id='type-id-728'/>
    <qualified-type-def type-id='type-id-729' const='yes' id='type-id-730'/>
    <reference-type-def kind='lvalue' type-id='type-id-730' size-in-bits='64' id='type-id-731'/>
    <qualified-type-def type-id='type-id-732' const='yes' id='type-id-733'/>
    <reference-type-def kind='lvalue' type-id='type-id-733' size-in-bits='64' id='type-id-734'/>
    <qualified-type-def type-id='type-id-735' const='yes' id='type-id-736'/>
    <reference-type-def kind='lvalue' type-id='type-id-736' size-in-bits='64' id='type-id-737'/>
    <qualified-type-def type-id='type-id-738' const='yes' id='type-id-739'/>
    <reference-type-def kind='lvalue' type-id='type-id-739' size-in-bits='64' id='type-id-740'/>
    <qualified-type-def type-id='type-id-741' const='yes' id='type-id-742'/>
    <reference-type-def kind='lvalue' type-id='type-id-742' size-in-bits='64' id='type-id-743'/>
    <qualified-type-def type-id='type-id-744' const='yes' id='type-id-745'/>
    <reference-type-def kind='lvalue' type-id='type-id-745' size-in-bits='64' id='type-id-746'/>
    <qualified-type-def type-id='type-id-747' const='yes' id='type-id-748'/>
    <reference-type-def kind='lvalue' type-id='type-id-748' size-in-bits='64' id='type-id-749'/>
    <qualified-type-def type-id='type-id-750' const='yes' id='type-id-751'/>
    <reference-type-def kind='lvalue' type-id='type-id-751' size-in-bits='64' id='type-id-752'/>
    <qualified-type-def type-id='type-id-753' const='yes' id='type-id-754'/>
    <reference-type-def kind='lvalue' type-id='type-id-754' size-in-bits='64' id='type-id-755'/>
    <qualified-type-def type-id='type-id-756' const='yes' id='type-id-757'/>
    <reference-type-def kind='lvalue' type-id='type-id-757' size-in-bits='64' id='type-id-758'/>
    <qualified-type-def type-id='type-id-759' const='yes' id='type-id-760'/>
    <reference-type-def kind='lvalue' type-id='type-id-760' size-in-bits='64' id='type-id-761'/>
    <qualified-type-def type-id='type-id-762' const='yes' id='type-id-763'/>
    <reference-type-def kind='lvalue' type-id='type-id-763' size-in-bits='64' id='type-id-764'/>
    <qualified-type-def type-id='type-id-765' const='yes' id='type-id-766'/>
    <reference-type-def kind='lvalue' type-id='type-id-766' size-in-bits='64' id='type-id-767'/>
    <qualified-type-def type-id='type-id-768' const='yes' id='type-id-769'/>
    <reference-type-def kind='lvalue' type-id='type-id-769' size-in-bits='64' id='type-id-770'/>
    <qualified-type-def type-id='type-id-771' const='yes' id='type-id-772'/>
    <reference-type-def kind='lvalue' type-id='type-id-772' size-in-bits='64' id='type-id-773'/>
    <qualified-type-def type-id='type-id-774' const='yes' id='type-id-775'/>
    <reference-type-def kind='lvalue' type-id='type-id-775' size-in-bits='64' id='type-id-776'/>
    <qualified-type-def type-id='type-id-777' const='yes' id='type-id-778'/>
    <reference-type-def kind='lvalue' type-id='type-id-778' size-in-bits='64' id='type-id-779'/>
    <qualified-type-def type-id='type-id-780' const='yes' id='type-id-781'/>
    <reference-type-def kind='lvalue' type-id='type-id-781' size-in-bits='64' id='type-id-782'/>
    <qualified-type-def type-id='type-id-783' const='yes' id='type-id-784'/>
    <reference-type-def kind='lvalue' type-id='type-id-784' size-in-bits='64' id='type-id-785'/>
    <qualified-type-def type-id='type-id-786' const='yes' id='type-id-787'/>
    <reference-type-def kind='lvalue' type-id='type-id-787' size-in-bits='64' id='type-id-788'/>
    <qualified-type-def type-id='type-id-789' const='yes' id='type-id-790'/>
    <reference-type-def kind='lvalue' type-id='type-id-790' size-in-bits='64' id='type-id-791'/>
    <qualified-type-def type-id='type-id-792' const='yes' id='type-id-793'/>
    <reference-type-def kind='lvalue' type-id='type-id-793' size-in-bits='64' id='type-id-794'/>
    <qualified-type-def type-id='type-id-795' const='yes' id='type-id-796'/>
    <reference-type-def kind='lvalue' type-id='type-id-796' size-in-bits='64' id='type-id-797'/>
    <qualified-type-def type-id='type-id-798' const='yes' id='type-id-799'/>
    <reference-type-def kind='lvalue' type-id='type-id-799' size-in-bits='64' id='type-id-800'/>
    <qualified-type-def type-id='type-id-801' const='yes' id='type-id-802'/>
    <reference-type-def kind='lvalue' type-id='type-id-802' size-in-bits='64' id='type-id-803'/>
    <qualified-type-def type-id='type-id-804' const='yes' id='type-id-805'/>
    <reference-type-def kind='lvalue' type-id='type-id-805' size-in-bits='64' id='type-id-806'/>
    <qualified-type-def type-id='type-id-807' const='yes' id='type-id-808'/>
    <reference-type-def kind='lvalue' type-id='type-id-808' size-in-bits='64' id='type-id-809'/>
    <qualified-type-def type-id='type-id-810' const='yes' id='type-id-811'/>
    <reference-type-def kind='lvalue' type-id='type-id-811' size-in-bits='64' id='type-id-812'/>
    <qualified-type-def type-id='type-id-813' const='yes' id='type-id-814'/>
    <reference-type-def kind='lvalue' type-id='type-id-814' size-in-bits='64' id='type-id-815'/>
    <qualified-type-def type-id='type-id-816' const='yes' id='type-id-817'/>
    <reference-type-def kind='lvalue' type-id='type-id-817' size-in-bits='64' id='type-id-818'/>
    <qualified-type-def type-id='type-id-819' const='yes' id='type-id-820'/>
    <reference-type-def kind='lvalue' type-id='type-id-820' size-in-bits='64' id='type-id-821'/>
    <qualified-type-def type-id='type-id-822' const='yes' id='type-id-823'/>
    <reference-type-def kind='lvalue' type-id='type-id-823' size-in-bits='64' id='type-id-824'/>
    <qualified-type-def type-id='type-id-825' const='yes' id='type-id-826'/>
    <reference-type-def kind='lvalue' type-id='type-id-826' size-in-bits='64' id='type-id-827'/>
    <qualified-type-def type-id='type-id-828' const='yes' id='type-id-829'/>
    <reference-type-def kind='lvalue' type-id='type-id-829' size-in-bits='64' id='type-id-830'/>
    <qualified-type-def type-id='type-id-831' const='yes' id='type-id-832'/>
    <reference-type-def kind='lvalue' type-id='type-id-832' size-in-bits='64' id='type-id-833'/>
    <qualified-type-def type-id='type-id-834' const='yes' id='type-id-835'/>
    <reference-type-def kind='lvalue' type-id='type-id-835' size-in-bits='64' id='type-id-836'/>
    <qualified-type-def type-id='type-id-837' const='yes' id='type-id-838'/>
    <reference-type-def kind='lvalue' type-id='type-id-838' size-in-bits='64' id='type-id-839'/>
    <qualified-type-def type-id='type-id-840' const='yes' id='type-id-841'/>
    <reference-type-def kind='lvalue' type-id='type-id-841' size-in-bits='64' id='type-id-842'/>
    <qualified-type-def type-id='type-id-843' const='yes' id='type-id-844'/>
    <reference-type-def kind='lvalue' type-id='type-id-844' size-in-bits='64' id='type-id-845'/>
    <qualified-type-def type-id='type-id-846' const='yes' id='type-id-847'/>
    <reference-type-def kind='lvalue' type-id='type-id-847' size-in-bits='64' id='type-id-848'/>
    <qualified-type-def type-id='type-id-849' const='yes' id='type-id-850'/>
    <reference-type-def kind='lvalue' type-id='type-id-850' size-in-bits='64' id='type-id-851'/>
    <qualified-type-def type-id='type-id-852' const='yes' id='type-id-853'/>
    <reference-type-def kind='lvalue' type-id='type-id-853' size-in-bits='64' id='type-id-854'/>
    <qualified-type-def type-id='type-id-855' const='yes' id='type-id-856'/>
    <reference-type-def kind='lvalue' type-id='type-id-856' size-in-bits='64' id='type-id-857'/>
    <qualified-type-def type-id='type-id-858' const='yes' id='type-id-859'/>
    <reference-type-def kind='lvalue' type-id='type-id-859' size-in-bits='64' id='type-id-860'/>
    <qualified-type-def type-id='type-id-861' const='yes' id='type-id-862'/>
    <reference-type-def kind='lvalue' type-id='type-id-862' size-in-bits='64' id='type-id-863'/>
    <qualified-type-def type-id='type-id-864' const='yes' id='type-id-865'/>
    <reference-type-def kind='lvalue' type-id='type-id-865' size-in-bits='64' id='type-id-866'/>
    <qualified-type-def type-id='type-id-867' const='yes' id='type-id-868'/>
    <reference-type-def kind='lvalue' type-id='type-id-868' size-in-bits='64' id='type-id-869'/>
    <qualified-type-def type-id='type-id-870' const='yes' id='type-id-871'/>
    <reference-type-def kind='lvalue' type-id='type-id-871' size-in-bits='64' id='type-id-872'/>
    <qualified-type-def type-id='type-id-873' const='yes' id='type-id-874'/>
    <reference-type-def kind='lvalue' type-id='type-id-874' size-in-bits='64' id='type-id-875'/>
    <qualified-type-def type-id='type-id-876' const='yes' id='type-id-877'/>
    <reference-type-def kind='lvalue' type-id='type-id-877' size-in-bits='64' id='type-id-878'/>
    <qualified-type-def type-id='type-id-879' const='yes' id='type-id-880'/>
    <reference-type-def kind='lvalue' type-id='type-id-880' size-in-bits='64' id='type-id-881'/>
    <qualified-type-def type-id='type-id-882' const='yes' id='type-id-883'/>
    <reference-type-def kind='lvalue' type-id='type-id-883' size-in-bits='64' id='type-id-884'/>
    <qualified-type-def type-id='type-id-885' const='yes' id='type-id-886'/>
    <reference-type-def kind='lvalue' type-id='type-id-886' size-in-bits='64' id='type-id-887'/>
    <qualified-type-def type-id='type-id-888' const='yes' id='type-id-889'/>
    <reference-type-def kind='lvalue' type-id='type-id-889' size-in-bits='64' id='type-id-890'/>
    <qualified-type-def type-id='type-id-891' const='yes' id='type-id-892'/>
    <reference-type-def kind='lvalue' type-id='type-id-892' size-in-bits='64' id='type-id-893'/>
    <qualified-type-def type-id='type-id-894' const='yes' id='type-id-895'/>
    <reference-type-def kind='lvalue' type-id='type-id-895' size-in-bits='64' id='type-id-896'/>
    <qualified-type-def type-id='type-id-897' const='yes' id='type-id-898'/>
    <reference-type-def kind='lvalue' type-id='type-id-898' size-in-bits='64' id='type-id-899'/>
    <qualified-type-def type-id='type-id-900' const='yes' id='type-id-901'/>
    <reference-type-def kind='lvalue' type-id='type-id-901' size-in-bits='64' id='type-id-902'/>
    <qualified-type-def type-id='type-id-903' const='yes' id='type-id-904'/>
    <reference-type-def kind='lvalue' type-id='type-id-904' size-in-bits='64' id='type-id-905'/>
    <qualified-type-def type-id='type-id-906' const='yes' id='type-id-907'/>
    <reference-type-def kind='lvalue' type-id='type-id-907' size-in-bits='64' id='type-id-908'/>
    <qualified-type-def type-id='type-id-909' const='yes' id='type-id-910'/>
    <reference-type-def kind='lvalue' type-id='type-id-910' size-in-bits='64' id='type-id-911'/>
    <qualified-type-def type-id='type-id-912' const='yes' id='type-id-913'/>
    <reference-type-def kind='lvalue' type-id='type-id-913' size-in-bits='64' id='type-id-914'/>
    <qualified-type-def type-id='type-id-915' const='yes' id='type-id-916'/>
    <reference-type-def kind='lvalue' type-id='type-id-916' size-in-bits='64' id='type-id-917'/>
    <qualified-type-def type-id='type-id-918' const='yes' id='type-id-919'/>
    <reference-type-def kind='lvalue' type-id='type-id-919' size-in-bits='64' id='type-id-920'/>
    <qualified-type-def type-id='type-id-921' const='yes' id='type-id-922'/>
    <reference-type-def kind='lvalue' type-id='type-id-922' size-in-bits='64' id='type-id-923'/>
    <qualified-type-def type-id='type-id-924' const='yes' id='type-id-925'/>
    <reference-type-def kind='lvalue' type-id='type-id-925' size-in-bits='64' id='type-id-926'/>
    <qualified-type-def type-id='type-id-927' const='yes' id='type-id-928'/>
    <reference-type-def kind='lvalue' type-id='type-id-928' size-in-bits='64' id='type-id-929'/>
    <qualified-type-def type-id='type-id-930' const='yes' id='type-id-931'/>
    <reference-type-def kind='lvalue' type-id='type-id-931' size-in-bits='64' id='type-id-932'/>
    <qualified-type-def type-id='type-id-933' const='yes' id='type-id-934'/>
    <reference-type-def kind='lvalue' type-id='type-id-934' size-in-bits='64' id='type-id-935'/>
    <qualified-type-def type-id='type-id-936' const='yes' id='type-id-937'/>
    <reference-type-def kind='lvalue' type-id='type-id-937' size-in-bits='64' id='type-id-938'/>
    <qualified-type-def type-id='type-id-939' const='yes' id='type-id-940'/>
    <reference-type-def kind='lvalue' type-id='type-id-940' size-in-bits='64' id='type-id-941'/>
    <qualified-type-def type-id='type-id-942' const='yes' id='type-id-943'/>
    <reference-type-def kind='lvalue' type-id='type-id-943' size-in-bits='64' id='type-id-944'/>
    <qualified-type-def type-id='type-id-945' const='yes' id='type-id-946'/>
    <reference-type-def kind='lvalue' type-id='type-id-946' size-in-bits='64' id='type-id-947'/>
    <qualified-type-def type-id='type-id-948' const='yes' id='type-id-949'/>
    <reference-type-def kind='lvalue' type-id='type-id-949' size-in-bits='64' id='type-id-950'/>
    <qualified-type-def type-id='type-id-951' const='yes' id='type-id-952'/>
    <reference-type-def kind='lvalue' type-id='type-id-952' size-in-bits='64' id='type-id-953'/>
    <qualified-type-def type-id='type-id-954' const='yes' id='type-id-955'/>
    <reference-type-def kind='lvalue' type-id='type-id-955' size-in-bits='64' id='type-id-956'/>
    <qualified-type-def type-id='type-id-957' const='yes' id='type-id-958'/>
    <reference-type-def kind='lvalue' type-id='type-id-958' size-in-bits='64' id='type-id-959'/>
    <qualified-type-def type-id='type-id-960' const='yes' id='type-id-961'/>
    <reference-type-def kind='lvalue' type-id='type-id-961' size-in-bits='64' id='type-id-962'/>
    <qualified-type-def type-id='type-id-963' const='yes' id='type-id-964'/>
    <reference-type-def kind='lvalue' type-id='type-id-964' size-in-bits='64' id='type-id-965'/>
    <qualified-type-def type-id='type-id-966' const='yes' id='type-id-967'/>
    <reference-type-def kind='lvalue' type-id='type-id-967' size-in-bits='64' id='type-id-968'/>
    <qualified-type-def type-id='type-id-969' const='yes' id='type-id-970'/>
    <reference-type-def kind='lvalue' type-id='type-id-970' size-in-bits='64' id='type-id-971'/>
    <qualified-type-def type-id='type-id-972' const='yes' id='type-id-973'/>
    <reference-type-def kind='lvalue' type-id='type-id-973' size-in-bits='64' id='type-id-974'/>
    <qualified-type-def type-id='type-id-975' const='yes' id='type-id-976'/>
    <reference-type-def kind='lvalue' type-id='type-id-976' size-in-bits='64' id='type-id-977'/>
    <qualified-type-def type-id='type-id-978' const='yes' id='type-id-979'/>
    <reference-type-def kind='lvalue' type-id='type-id-979' size-in-bits='64' id='type-id-980'/>
    <qualified-type-def type-id='type-id-981' const='yes' id='type-id-982'/>
    <reference-type-def kind='lvalue' type-id='type-id-982' size-in-bits='64' id='type-id-983'/>
    <qualified-type-def type-id='type-id-984' const='yes' id='type-id-985'/>
    <reference-type-def kind='lvalue' type-id='type-id-985' size-in-bits='64' id='type-id-986'/>
    <qualified-type-def type-id='type-id-987' const='yes' id='type-id-988'/>
    <reference-type-def kind='lvalue' type-id='type-id-988' size-in-bits='64' id='type-id-989'/>
    <qualified-type-def type-id='type-id-990' const='yes' id='type-id-991'/>
    <reference-type-def kind='lvalue' type-id='type-id-991' size-in-bits='64' id='type-id-992'/>
    <qualified-type-def type-id='type-id-993' const='yes' id='type-id-994'/>
    <reference-type-def kind='lvalue' type-id='type-id-994' size-in-bits='64' id='type-id-995'/>
    <qualified-type-def type-id='type-id-996' const='yes' id='type-id-997'/>
    <pointer-type-def type-id='type-id-997' size-in-bits='64' id='type-id-998'/>
    <qualified-type-def type-id='type-id-999' const='yes' id='type-id-1000'/>
    <reference-type-def kind='lvalue' type-id='type-id-1000' size-in-bits='64' id='type-id-1001'/>
    <qualified-type-def type-id='type-id-1002' const='yes' id='type-id-1003'/>
    <reference-type-def kind='lvalue' type-id='type-id-1003' size-in-bits='64' id='type-id-1004'/>
    <qualified-type-def type-id='type-id-1005' const='yes' id='type-id-1006'/>
    <reference-type-def kind='lvalue' type-id='type-id-1006' size-in-bits='64' id='type-id-1007'/>
    <pointer-type-def type-id='type-id-1006' size-in-bits='64' id='type-id-1008'/>
    <qualified-type-def type-id='type-id-1009' const='yes' id='type-id-1010'/>
    <reference-type-def kind='lvalue' type-id='type-id-1010' size-in-bits='64' id='type-id-1011'/>
    <qualified-type-def type-id='type-id-1012' const='yes' id='type-id-1013'/>
    <pointer-type-def type-id='type-id-1013' size-in-bits='64' id='type-id-1014'/>
    <qualified-type-def type-id='type-id-1015' const='yes' id='type-id-1016'/>
    <reference-type-def kind='lvalue' type-id='type-id-1016' size-in-bits='64' id='type-id-1017'/>
    <qualified-type-def type-id='type-id-1018' const='yes' id='type-id-1019'/>
    <pointer-type-def type-id='type-id-1019' size-in-bits='64' id='type-id-1020'/>
    <qualified-type-def type-id='type-id-1021' const='yes' id='type-id-1022'/>
    <pointer-type-def type-id='type-id-1022' size-in-bits='64' id='type-id-1023'/>
    <qualified-type-def type-id='type-id-1024' const='yes' id='type-id-1025'/>
    <reference-type-def kind='lvalue' type-id='type-id-1025' size-in-bits='64' id='type-id-1026'/>
    <pointer-type-def type-id='type-id-1025' size-in-bits='64' id='type-id-1027'/>
    <qualified-type-def type-id='type-id-1028' const='yes' id='type-id-1029'/>
    <pointer-type-def type-id='type-id-1029' size-in-bits='64' id='type-id-1030'/>
    <qualified-type-def type-id='type-id-1031' const='yes' id='type-id-1032'/>
    <reference-type-def kind='lvalue' type-id='type-id-1032' size-in-bits='64' id='type-id-1033'/>
    <pointer-type-def type-id='type-id-1032' size-in-bits='64' id='type-id-1034'/>
    <qualified-type-def type-id='type-id-1035' const='yes' id='type-id-1036'/>
    <reference-type-def kind='lvalue' type-id='type-id-1036' size-in-bits='64' id='type-id-1037'/>
    <qualified-type-def type-id='type-id-1038' const='yes' id='type-id-1039'/>
    <pointer-type-def type-id='type-id-1039' size-in-bits='64' id='type-id-1040'/>
    <qualified-type-def type-id='type-id-1041' const='yes' id='type-id-1042'/>
    <reference-type-def kind='lvalue' type-id='type-id-1042' size-in-bits='64' id='type-id-1043'/>
    <qualified-type-def type-id='type-id-1044' const='yes' id='type-id-1045'/>
    <reference-type-def kind='lvalue' type-id='type-id-1045' size-in-bits='64' id='type-id-1046'/>
    <qualified-type-def type-id='type-id-1047' const='yes' id='type-id-1048'/>
    <reference-type-def kind='lvalue' type-id='type-id-1048' size-in-bits='64' id='type-id-1049'/>
    <qualified-type-def type-id='type-id-1050' const='yes' id='type-id-1051'/>
    <reference-type-def kind='lvalue' type-id='type-id-1051' size-in-bits='64' id='type-id-1052'/>
    <qualified-type-def type-id='type-id-1053' const='yes' id='type-id-1054'/>
    <reference-type-def kind='lvalue' type-id='type-id-1054' size-in-bits='64' id='type-id-1055'/>
    <qualified-type-def type-id='type-id-1056' const='yes' id='type-id-1057'/>
    <reference-type-def kind='lvalue' type-id='type-id-1057' size-in-bits='64' id='type-id-1058'/>
    <qualified-type-def type-id='type-id-1059' const='yes' id='type-id-1060'/>
    <pointer-type-def type-id='type-id-1060' size-in-bits='64' id='type-id-1061'/>
    <qualified-type-def type-id='type-id-1062' const='yes' id='type-id-1063'/>
    <pointer-type-def type-id='type-id-1063' size-in-bits='64' id='type-id-1064'/>
    <qualified-type-def type-id='type-id-1065' const='yes' id='type-id-1066'/>
    <reference-type-def kind='lvalue' type-id='type-id-1066' size-in-bits='64' id='type-id-1067'/>
    <qualified-type-def type-id='type-id-1068' const='yes' id='type-id-1069'/>
    <reference-type-def kind='lvalue' type-id='type-id-1069' size-in-bits='64' id='type-id-1070'/>
    <qualified-type-def type-id='type-id-1071' const='yes' id='type-id-1072'/>
    <reference-type-def kind='lvalue' type-id='type-id-1072' size-in-bits='64' id='type-id-1073'/>
    <pointer-type-def type-id='type-id-1072' size-in-bits='64' id='type-id-1074'/>
    <qualified-type-def type-id='type-id-1075' const='yes' id='type-id-1076'/>
    <reference-type-def kind='lvalue' type-id='type-id-1076' size-in-bits='64' id='type-id-1077'/>
    <pointer-type-def type-id='type-id-1076' size-in-bits='64' id='type-id-1078'/>
    <qualified-type-def type-id='type-id-1079' const='yes' id='type-id-1080'/>
    <pointer-type-def type-id='type-id-1080' size-in-bits='64' id='type-id-1081'/>
    <qualified-type-def type-id='type-id-1082' const='yes' id='type-id-1083'/>
    <reference-type-def kind='lvalue' type-id='type-id-1083' size-in-bits='64' id='type-id-1084'/>
    <qualified-type-def type-id='type-id-1085' const='yes' id='type-id-1086'/>
    <reference-type-def kind='lvalue' type-id='type-id-1086' size-in-bits='64' id='type-id-1087'/>
    <qualified-type-def type-id='type-id-1088' const='yes' id='type-id-1089'/>
    <reference-type-def kind='lvalue' type-id='type-id-1089' size-in-bits='64' id='type-id-1090'/>
    <pointer-type-def type-id='type-id-1089' size-in-bits='64' id='type-id-1091'/>
    <qualified-type-def type-id='type-id-1092' const='yes' id='type-id-1093'/>
    <reference-type-def kind='lvalue' type-id='type-id-1093' size-in-bits='64' id='type-id-1094'/>
    <pointer-type-def type-id='type-id-1093' size-in-bits='64' id='type-id-1095'/>
    <qualified-type-def type-id='type-id-1096' const='yes' id='type-id-1097'/>
    <reference-type-def kind='lvalue' type-id='type-id-1097' size-in-bits='64' id='type-id-1098'/>
    <pointer-type-def type-id='type-id-1097' size-in-bits='64' id='type-id-1099'/>
    <qualified-type-def type-id='type-id-1100' const='yes' id='type-id-1101'/>
    <reference-type-def kind='lvalue' type-id='type-id-1101' size-in-bits='64' id='type-id-1102'/>
    <pointer-type-def type-id='type-id-1101' size-in-bits='64' id='type-id-1103'/>
    <qualified-type-def type-id='type-id-1104' const='yes' id='type-id-1105'/>
    <reference-type-def kind='lvalue' type-id='type-id-1105' size-in-bits='64' id='type-id-1106'/>
    <pointer-type-def type-id='type-id-1105' size-in-bits='64' id='type-id-1107'/>
    <qualified-type-def type-id='type-id-1108' const='yes' id='type-id-1109'/>
    <reference-type-def kind='lvalue' type-id='type-id-1109' size-in-bits='64' id='type-id-1110'/>
    <pointer-type-def type-id='type-id-1109' size-in-bits='64' id='type-id-1111'/>
    <qualified-type-def type-id='type-id-1112' const='yes' id='type-id-1113'/>
    <reference-type-def kind='lvalue' type-id='type-id-1113' size-in-bits='64' id='type-id-1114'/>
    <pointer-type-def type-id='type-id-1113' size-in-bits='64' id='type-id-1115'/>
    <qualified-type-def type-id='type-id-1116' const='yes' id='type-id-1117'/>
    <reference-type-def kind='lvalue' type-id='type-id-1117' size-in-bits='64' id='type-id-1118'/>
    <qualified-type-def type-id='type-id-1119' const='yes' id='type-id-1120'/>
    <reference-type-def kind='lvalue' type-id='type-id-1120' size-in-bits='64' id='type-id-1121'/>
    <qualified-type-def type-id='type-id-1122' const='yes' id='type-id-1123'/>
    <reference-type-def kind='lvalue' type-id='type-id-1123' size-in-bits='64' id='type-id-1124'/>
    <qualified-type-def type-id='type-id-1125' const='yes' id='type-id-1126'/>
    <reference-type-def kind='lvalue' type-id='type-id-1126' size-in-bits='64' id='type-id-1127'/>
    <qualified-type-def type-id='type-id-1128' const='yes' id='type-id-1129'/>
    <reference-type-def kind='lvalue' type-id='type-id-1129' size-in-bits='64' id='type-id-1130'/>
    <qualified-type-def type-id='type-id-1131' const='yes' id='type-id-1132'/>
    <reference-type-def kind='lvalue' type-id='type-id-1132' size-in-bits='64' id='type-id-1133'/>
    <qualified-type-def type-id='type-id-1134' const='yes' id='type-id-1135'/>
    <reference-type-def kind='lvalue' type-id='type-id-1135' size-in-bits='64' id='type-id-1136'/>
    <qualified-type-def type-id='type-id-1137' const='yes' id='type-id-1138'/>
    <reference-type-def kind='lvalue' type-id='type-id-1138' size-in-bits='64' id='type-id-1139'/>
    <reference-type-def kind='rvalue' type-id='type-id-1138' size-in-bits='64' id='type-id-1140'/>
    <qualified-type-def type-id='type-id-1141' const='yes' id='type-id-1142'/>
    <reference-type-def kind='lvalue' type-id='type-id-1142' size-in-bits='64' id='type-id-1143'/>
    <qualified-type-def type-id='type-id-1144' const='yes' id='type-id-1145'/>
    <reference-type-def kind='lvalue' type-id='type-id-1145' size-in-bits='64' id='type-id-1146'/>
    <qualified-type-def type-id='type-id-1147' const='yes' id='type-id-1148'/>
    <reference-type-def kind='lvalue' type-id='type-id-1148' size-in-bits='64' id='type-id-1149'/>
    <qualified-type-def type-id='type-id-1150' const='yes' id='type-id-1151'/>
    <reference-type-def kind='lvalue' type-id='type-id-1151' size-in-bits='64' id='type-id-1152'/>
    <qualified-type-def type-id='type-id-1153' const='yes' id='type-id-1154'/>
    <reference-type-def kind='lvalue' type-id='type-id-1154' size-in-bits='64' id='type-id-1155'/>
    <qualified-type-def type-id='type-id-1156' const='yes' id='type-id-1157'/>
    <reference-type-def kind='lvalue' type-id='type-id-1157' size-in-bits='64' id='type-id-1158'/>
    <qualified-type-def type-id='type-id-1159' const='yes' id='type-id-1160'/>
    <reference-type-def kind='lvalue' type-id='type-id-1160' size-in-bits='64' id='type-id-1161'/>
    <qualified-type-def type-id='type-id-1162' const='yes' id='type-id-1163'/>
    <reference-type-def kind='lvalue' type-id='type-id-1163' size-in-bits='64' id='type-id-1164'/>
    <reference-type-def kind='rvalue' type-id='type-id-1163' size-in-bits='64' id='type-id-1165'/>
    <qualified-type-def type-id='type-id-1166' const='yes' id='type-id-1167'/>
    <reference-type-def kind='lvalue' type-id='type-id-1167' size-in-bits='64' id='type-id-1168'/>
    <qualified-type-def type-id='type-id-1169' const='yes' id='type-id-1170'/>
    <reference-type-def kind='lvalue' type-id='type-id-1170' size-in-bits='64' id='type-id-1171'/>
    <qualified-type-def type-id='type-id-1172' const='yes' id='type-id-1173'/>
    <reference-type-def kind='lvalue' type-id='type-id-1173' size-in-bits='64' id='type-id-1174'/>
    <qualified-type-def type-id='type-id-1175' const='yes' id='type-id-1176'/>
    <reference-type-def kind='lvalue' type-id='type-id-1176' size-in-bits='64' id='type-id-1177'/>
    <pointer-type-def type-id='type-id-1176' size-in-bits='64' id='type-id-1178'/>
    <qualified-type-def type-id='type-id-1179' const='yes' id='type-id-1180'/>
    <reference-type-def kind='lvalue' type-id='type-id-1180' size-in-bits='64' id='type-id-1181'/>
    <qualified-type-def type-id='type-id-1182' const='yes' id='type-id-1183'/>
    <reference-type-def kind='lvalue' type-id='type-id-1183' size-in-bits='64' id='type-id-1184'/>
    <pointer-type-def type-id='type-id-1183' size-in-bits='64' id='type-id-1185'/>
    <qualified-type-def type-id='type-id-1186' const='yes' id='type-id-1187'/>
    <reference-type-def kind='lvalue' type-id='type-id-1187' size-in-bits='64' id='type-id-1188'/>
    <qualified-type-def type-id='type-id-1189' const='yes' id='type-id-1190'/>
    <reference-type-def kind='lvalue' type-id='type-id-1190' size-in-bits='64' id='type-id-1191'/>
    <pointer-type-def type-id='type-id-1190' size-in-bits='64' id='type-id-1192'/>
    <qualified-type-def type-id='type-id-1193' const='yes' id='type-id-1194'/>
    <reference-type-def kind='lvalue' type-id='type-id-1194' size-in-bits='64' id='type-id-1195'/>
    <qualified-type-def type-id='type-id-1196' const='yes' id='type-id-1197'/>
    <pointer-type-def type-id='type-id-1197' size-in-bits='64' id='type-id-1198'/>
    <qualified-type-def type-id='type-id-1199' const='yes' id='type-id-1200'/>
    <reference-type-def kind='lvalue' type-id='type-id-1200' size-in-bits='64' id='type-id-1201'/>
    <qualified-type-def type-id='type-id-1202' const='yes' id='type-id-1203'/>
    <reference-type-def kind='lvalue' type-id='type-id-1203' size-in-bits='64' id='type-id-1204'/>
    <qualified-type-def type-id='type-id-1205' const='yes' id='type-id-1206'/>
    <reference-type-def kind='lvalue' type-id='type-id-1206' size-in-bits='64' id='type-id-1207'/>
    <pointer-type-def type-id='type-id-1206' size-in-bits='64' id='type-id-1208'/>
    <qualified-type-def type-id='type-id-1209' const='yes' id='type-id-1210'/>
    <reference-type-def kind='lvalue' type-id='type-id-1210' size-in-bits='64' id='type-id-1211'/>
    <pointer-type-def type-id='type-id-1210' size-in-bits='64' id='type-id-1212'/>
    <qualified-type-def type-id='type-id-1213' const='yes' id='type-id-1214'/>
    <reference-type-def kind='lvalue' type-id='type-id-1214' size-in-bits='64' id='type-id-1215'/>
    <pointer-type-def type-id='type-id-1214' size-in-bits='64' id='type-id-1216'/>
    <qualified-type-def type-id='type-id-1217' const='yes' id='type-id-1218'/>
    <reference-type-def kind='lvalue' type-id='type-id-1218' size-in-bits='64' id='type-id-1219'/>
    <pointer-type-def type-id='type-id-1218' size-in-bits='64' id='type-id-1220'/>
    <qualified-type-def type-id='type-id-1221' const='yes' id='type-id-1222'/>
    <reference-type-def kind='lvalue' type-id='type-id-1222' size-in-bits='64' id='type-id-1223'/>
    <pointer-type-def type-id='type-id-1222' size-in-bits='64' id='type-id-1224'/>
    <qualified-type-def type-id='type-id-1225' const='yes' id='type-id-1226'/>
    <reference-type-def kind='lvalue' type-id='type-id-1226' size-in-bits='64' id='type-id-1227'/>
    <pointer-type-def type-id='type-id-1226' size-in-bits='64' id='type-id-1228'/>
    <qualified-type-def type-id='type-id-1229' const='yes' id='type-id-1230'/>
    <reference-type-def kind='lvalue' type-id='type-id-1230' size-in-bits='64' id='type-id-1231'/>
    <pointer-type-def type-id='type-id-1230' size-in-bits='64' id='type-id-1232'/>
    <qualified-type-def type-id='type-id-1233' const='yes' id='type-id-1234'/>
    <reference-type-def kind='lvalue' type-id='type-id-1234' size-in-bits='64' id='type-id-1235'/>
    <pointer-type-def type-id='type-id-1234' size-in-bits='64' id='type-id-1236'/>
    <qualified-type-def type-id='type-id-1237' const='yes' id='type-id-1238'/>
    <reference-type-def kind='lvalue' type-id='type-id-1238' size-in-bits='64' id='type-id-1239'/>
    <pointer-type-def type-id='type-id-1238' size-in-bits='64' id='type-id-1240'/>
    <qualified-type-def type-id='type-id-1241' const='yes' id='type-id-1242'/>
    <reference-type-def kind='lvalue' type-id='type-id-1242' size-in-bits='64' id='type-id-1243'/>
    <pointer-type-def type-id='type-id-1242' size-in-bits='64' id='type-id-1244'/>
    <qualified-type-def type-id='type-id-1245' const='yes' id='type-id-1246'/>
    <reference-type-def kind='lvalue' type-id='type-id-1246' size-in-bits='64' id='type-id-1247'/>
    <pointer-type-def type-id='type-id-1246' size-in-bits='64' id='type-id-1248'/>
    <qualified-type-def type-id='type-id-1249' const='yes' id='type-id-1250'/>
    <reference-type-def kind='lvalue' type-id='type-id-1250' size-in-bits='64' id='type-id-1251'/>
    <pointer-type-def type-id='type-id-1250' size-in-bits='64' id='type-id-1252'/>
    <qualified-type-def type-id='type-id-1253' const='yes' id='type-id-1254'/>
    <pointer-type-def type-id='type-id-1254' size-in-bits='64' id='type-id-1255'/>
    <qualified-type-def type-id='type-id-1256' const='yes' id='type-id-1257'/>
    <pointer-type-def type-id='type-id-1257' size-in-bits='64' id='type-id-1258'/>
    <qualified-type-def type-id='type-id-1259' const='yes' id='type-id-1260'/>
    <reference-type-def kind='lvalue' type-id='type-id-1260' size-in-bits='64' id='type-id-1261'/>
    <pointer-type-def type-id='type-id-1260' size-in-bits='64' id='type-id-1262'/>
    <qualified-type-def type-id='type-id-1263' const='yes' id='type-id-1264'/>
    <reference-type-def kind='lvalue' type-id='type-id-1264' size-in-bits='64' id='type-id-1265'/>
    <qualified-type-def type-id='type-id-1266' const='yes' id='type-id-1267'/>
    <reference-type-def kind='lvalue' type-id='type-id-1267' size-in-bits='64' id='type-id-1268'/>
    <qualified-type-def type-id='type-id-1269' const='yes' id='type-id-1270'/>
    <reference-type-def kind='lvalue' type-id='type-id-1270' size-in-bits='64' id='type-id-1271'/>
    <qualified-type-def type-id='type-id-1272' const='yes' id='type-id-1273'/>
    <reference-type-def kind='lvalue' type-id='type-id-1273' size-in-bits='64' id='type-id-1274'/>
    <pointer-type-def type-id='type-id-1273' size-in-bits='64' id='type-id-1275'/>
    <qualified-type-def type-id='type-id-1276' const='yes' id='type-id-1277'/>
    <reference-type-def kind='lvalue' type-id='type-id-1277' size-in-bits='64' id='type-id-1278'/>
    <qualified-type-def type-id='type-id-1279' const='yes' id='type-id-1280'/>
    <reference-type-def kind='lvalue' type-id='type-id-1280' size-in-bits='64' id='type-id-1281'/>
    <qualified-type-def type-id='type-id-1282' const='yes' id='type-id-1283'/>
    <reference-type-def kind='lvalue' type-id='type-id-1283' size-in-bits='64' id='type-id-1284'/>
    <qualified-type-def type-id='type-id-1285' const='yes' id='type-id-1286'/>
    <reference-type-def kind='lvalue' type-id='type-id-1286' size-in-bits='64' id='type-id-1287'/>
    <qualified-type-def type-id='type-id-1288' const='yes' id='type-id-1289'/>
    <reference-type-def kind='lvalue' type-id='type-id-1289' size-in-bits='64' id='type-id-1290'/>
    <qualified-type-def type-id='type-id-1291' const='yes' id='type-id-1292'/>
    <reference-type-def kind='lvalue' type-id='type-id-1292' size-in-bits='64' id='type-id-1293'/>
    <qualified-type-def type-id='type-id-1294' const='yes' id='type-id-1295'/>
    <reference-type-def kind='lvalue' type-id='type-id-1295' size-in-bits='64' id='type-id-1296'/>
    <pointer-type-def type-id='type-id-1295' size-in-bits='64' id='type-id-1297'/>
    <qualified-type-def type-id='type-id-1298' const='yes' id='type-id-1299'/>
    <reference-type-def kind='lvalue' type-id='type-id-1299' size-in-bits='64' id='type-id-1300'/>
    <qualified-type-def type-id='type-id-1301' const='yes' id='type-id-1302'/>
    <reference-type-def kind='lvalue' type-id='type-id-1302' size-in-bits='64' id='type-id-1303'/>
    <qualified-type-def type-id='type-id-1304' const='yes' id='type-id-1305'/>
    <reference-type-def kind='lvalue' type-id='type-id-1305' size-in-bits='64' id='type-id-1306'/>
    <qualified-type-def type-id='type-id-1307' const='yes' id='type-id-1308'/>
    <reference-type-def kind='lvalue' type-id='type-id-1308' size-in-bits='64' id='type-id-1309'/>
    <qualified-type-def type-id='type-id-1310' const='yes' id='type-id-1311'/>
    <reference-type-def kind='lvalue' type-id='type-id-1311' size-in-bits='64' id='type-id-1312'/>
    <qualified-type-def type-id='type-id-1313' const='yes' id='type-id-1314'/>
    <reference-type-def kind='lvalue' type-id='type-id-1314' size-in-bits='64' id='type-id-1315'/>
    <qualified-type-def type-id='type-id-64' const='yes' id='type-id-1316'/>
    <qualified-type-def type-id='type-id-1317' const='yes' id='type-id-1318'/>
    <reference-type-def kind='lvalue' type-id='type-id-1318' size-in-bits='64' id='type-id-1319'/>
    <qualified-type-def type-id='type-id-1320' const='yes' id='type-id-1321'/>
    <reference-type-def kind='lvalue' type-id='type-id-1321' size-in-bits='64' id='type-id-1322'/>
    <pointer-type-def type-id='type-id-1321' size-in-bits='64' id='type-id-1323'/>
    <qualified-type-def type-id='type-id-1324' const='yes' id='type-id-1325'/>
    <reference-type-def kind='lvalue' type-id='type-id-1325' size-in-bits='64' id='type-id-1326'/>
    <pointer-type-def type-id='type-id-1325' size-in-bits='64' id='type-id-1327'/>
    <qualified-type-def type-id='type-id-1328' const='yes' id='type-id-1329'/>
    <reference-type-def kind='lvalue' type-id='type-id-1329' size-in-bits='64' id='type-id-1330'/>
    <qualified-type-def type-id='type-id-1331' const='yes' id='type-id-1332'/>
    <reference-type-def kind='lvalue' type-id='type-id-1332' size-in-bits='64' id='type-id-1333'/>
    <qualified-type-def type-id='type-id-1334' const='yes' id='type-id-1335'/>
    <reference-type-def kind='lvalue' type-id='type-id-1335' size-in-bits='64' id='type-id-1336'/>
    <qualified-type-def type-id='type-id-1337' const='yes' id='type-id-1338'/>
    <reference-type-def kind='lvalue' type-id='type-id-1338' size-in-bits='64' id='type-id-1339'/>
    <qualified-type-def type-id='type-id-1340' const='yes' id='type-id-1341'/>
    <reference-type-def kind='lvalue' type-id='type-id-1341' size-in-bits='64' id='type-id-1342'/>
    <qualified-type-def type-id='type-id-1343' const='yes' id='type-id-1344'/>
    <reference-type-def kind='lvalue' type-id='type-id-1344' size-in-bits='64' id='type-id-1345'/>
    <qualified-type-def type-id='type-id-1346' const='yes' id='type-id-1347'/>
    <reference-type-def kind='lvalue' type-id='type-id-1347' size-in-bits='64' id='type-id-1348'/>
    <qualified-type-def type-id='type-id-1349' const='yes' id='type-id-1350'/>
    <reference-type-def kind='lvalue' type-id='type-id-1350' size-in-bits='64' id='type-id-1351'/>
    <qualified-type-def type-id='type-id-1352' const='yes' id='type-id-1353'/>
    <reference-type-def kind='lvalue' type-id='type-id-1353' size-in-bits='64' id='type-id-1354'/>
    <qualified-type-def type-id='type-id-1355' const='yes' id='type-id-1356'/>
    <reference-type-def kind='lvalue' type-id='type-id-1356' size-in-bits='64' id='type-id-1357'/>
    <qualified-type-def type-id='type-id-1358' const='yes' id='type-id-1359'/>
    <reference-type-def kind='lvalue' type-id='type-id-1359' size-in-bits='64' id='type-id-1360'/>
    <qualified-type-def type-id='type-id-1361' const='yes' id='type-id-1362'/>
    <reference-type-def kind='lvalue' type-id='type-id-1362' size-in-bits='64' id='type-id-1363'/>
    <qualified-type-def type-id='type-id-1364' const='yes' id='type-id-1365'/>
    <reference-type-def kind='lvalue' type-id='type-id-1365' size-in-bits='64' id='type-id-1366'/>
    <qualified-type-def type-id='type-id-1367' const='yes' id='type-id-1368'/>
    <reference-type-def kind='lvalue' type-id='type-id-1368' size-in-bits='64' id='type-id-1369'/>
    <qualified-type-def type-id='type-id-1370' const='yes' id='type-id-1371'/>
    <reference-type-def kind='lvalue' type-id='type-id-1371' size-in-bits='64' id='type-id-1372'/>
    <qualified-type-def type-id='type-id-1373' const='yes' id='type-id-1374'/>
    <reference-type-def kind='lvalue' type-id='type-id-1374' size-in-bits='64' id='type-id-1375'/>
    <qualified-type-def type-id='type-id-1376' const='yes' id='type-id-1377'/>
    <reference-type-def kind='lvalue' type-id='type-id-1377' size-in-bits='64' id='type-id-1378'/>
    <qualified-type-def type-id='type-id-1379' const='yes' id='type-id-1380'/>
    <reference-type-def kind='lvalue' type-id='type-id-1380' size-in-bits='64' id='type-id-1381'/>
    <qualified-type-def type-id='type-id-1382' const='yes' id='type-id-1383'/>
    <reference-type-def kind='lvalue' type-id='type-id-1383' size-in-bits='64' id='type-id-1384'/>
    <pointer-type-def type-id='type-id-1383' size-in-bits='64' id='type-id-1385'/>
    <reference-type-def kind='lvalue' type-id='type-id-1385' size-in-bits='64' id='type-id-1386'/>
    <qualified-type-def type-id='type-id-1387' const='yes' id='type-id-1388'/>
    <reference-type-def kind='lvalue' type-id='type-id-1388' size-in-bits='64' id='type-id-1389'/>
    <pointer-type-def type-id='type-id-1388' size-in-bits='64' id='type-id-1390'/>
    <qualified-type-def type-id='type-id-1391' const='yes' id='type-id-1392'/>
    <reference-type-def kind='lvalue' type-id='type-id-1392' size-in-bits='64' id='type-id-1393'/>
    <pointer-type-def type-id='type-id-1392' size-in-bits='64' id='type-id-1394'/>
    <qualified-type-def type-id='type-id-1395' const='yes' id='type-id-1396'/>
    <reference-type-def kind='lvalue' type-id='type-id-1396' size-in-bits='64' id='type-id-1397'/>
    <qualified-type-def type-id='type-id-1398' const='yes' id='type-id-1399'/>
    <reference-type-def kind='lvalue' type-id='type-id-1399' size-in-bits='64' id='type-id-1400'/>
    <pointer-type-def type-id='type-id-1399' size-in-bits='64' id='type-id-1401'/>
    <qualified-type-def type-id='type-id-1402' const='yes' id='type-id-1403'/>
    <reference-type-def kind='lvalue' type-id='type-id-1403' size-in-bits='64' id='type-id-1404'/>
    <qualified-type-def type-id='type-id-1405' const='yes' id='type-id-1406'/>
    <reference-type-def kind='lvalue' type-id='type-id-1406' size-in-bits='64' id='type-id-1407'/>
    <pointer-type-def type-id='type-id-1406' size-in-bits='64' id='type-id-1408'/>
    <qualified-type-def type-id='type-id-1409' const='yes' id='type-id-1410'/>
    <reference-type-def kind='lvalue' type-id='type-id-1410' size-in-bits='64' id='type-id-1411'/>
    <qualified-type-def type-id='type-id-1412' const='yes' id='type-id-1413'/>
    <reference-type-def kind='lvalue' type-id='type-id-1413' size-in-bits='64' id='type-id-1414'/>
    <pointer-type-def type-id='type-id-1413' size-in-bits='64' id='type-id-1415'/>
    <qualified-type-def type-id='type-id-1416' const='yes' id='type-id-1417'/>
