<abi-corpus version='2.0' path='data/test-read-dwarf/test18-pr19037-libvtkRenderingLIC-6.1.so' soname='libvtkRenderingLIC-6.1.so.1'>
  <elf-needed>
    <dependency name='libvtkIOLegacy-6.1.so.1'/>
    <dependency name='libvtkIOXML-6.1.so.1'/>
    <dependency name='libvtkImagingSources-6.1.so.1'/>
    <dependency name='libvtkRenderingOpenGL-6.1.so.1'/>
    <dependency name='libvtkIOGeometry-6.1.so.1'/>
    <dependency name='libvtkIOXMLParser-6.1.so.1'/>
    <dependency name='libvtkRenderingCore-6.1.so.1'/>
    <dependency name='libvtkImagingCore-6.1.so.1'/>
    <dependency name='libvtkIOCore-6.1.so.1'/>
    <dependency name='libvtkCommonExecutionModel-6.1.so.1'/>
    <dependency name='libvtkCommonDataModel-6.1.so.1'/>
    <dependency name='libvtkCommonMisc-6.1.so.1'/>
    <dependency name='libvtkCommonSystem-6.1.so.1'/>
    <dependency name='libvtksys-6.1.so.1'/>
    <dependency name='libvtkCommonTransforms-6.1.so.1'/>
    <dependency name='libvtkCommonMath-6.1.so.1'/>
    <dependency name='libvtkCommonCore-6.1.so.1'/>
    <dependency name='libGLU.so.1'/>
    <dependency name='libGL.so.1'/>
    <dependency name='libSM.so.6'/>
    <dependency name='libICE.so.6'/>
    <dependency name='libX11.so.6'/>
    <dependency name='libXext.so.6'/>
    <dependency name='libXt.so.6'/>
    <dependency name='libdl.so.2'/>
    <dependency name='libstdc++.so.6'/>
    <dependency name='libm.so.6'/>
    <dependency name='libc.so.6'/>
    <dependency name='libgcc_s.so.1'/>
  </elf-needed>
  <elf-function-symbols>
    <elf-symbol name='_ZN12vtkTextureIO5WriteEPKcP16vtkTextureObjectPKjPKd' type='func-type' binding='global-binding' visibility='default-visibility' is-defined='yes'/>
    <elf-symbol name='_ZN12vtkTextureIO5WriteEPKcP16vtkTextureObjectRKSt5dequeI14vtkPixelExtentSaIS5_EEPKd' type='func-type' binding='global-binding' visibility='default-visibility' is-defined='yes'/>
    <elf-symbol name='_ZN16vtkPixelTransfer4BlitERK14vtkPixelExtentS2_S2_S2_iiPviiS3_' type='func-type' binding='global-binding' visibility='default-visibility' is-defined='yes'/>
    <elf-symbol name='_ZN16vtkPixelTransfer4BlitIaEEiRK14vtkPixelExtentS3_S3_S3_iPT_iiPv' type='func-type' binding='weak-binding' visibility='default-visibility' is-defined='yes'/>
    <elf-symbol name='_ZN16vtkPixelTransfer4BlitIaaEEiRK14vtkPixelExtentS3_S3_S3_iPT_iPT0_' type='func-type' binding='weak-binding' visibility='default-visibility' is-defined='yes'/>
    <elf-symbol name='_ZN16vtkPixelTransfer4BlitIacEEiRK14vtkPixelExtentS3_S3_S3_iPT_iPT0_' type='func-type' binding='weak-binding' visibility='default-visibility' is-defined='yes'/>
    <elf-symbol name='_ZN16vtkPixelTransfer4BlitIadEEiRK14vtkPixelExtentS3_S3_S3_iPT_iPT0_' type='func-type' binding='weak-binding' visibility='default-visibility' is-defined='yes'/>
    <elf-symbol name='_ZN16vtkPixelTransfer4BlitIafEEiRK14vtkPixelExtentS3_S3_S3_iPT_iPT0_' type='func-type' binding='weak-binding' visibility='default-visibility' is-defined='yes'/>
    <elf-symbol name='_ZN16vtkPixelTransfer4BlitIahEEiRK14vtkPixelExtentS3_S3_S3_iPT_iPT0_' type='func-type' binding='weak-binding' visibility='default-visibility' is-defined='yes'/>
    <elf-symbol name='_ZN16vtkPixelTransfer4BlitIaiEEiRK14vtkPixelExtentS3_S3_S3_iPT_iPT0_' type='func-type' binding='weak-binding' visibility='default-visibility' is-defined='yes'/>
    <elf-symbol name='_ZN16vtkPixelTransfer4BlitIajEEiRK14vtkPixelExtentS3_S3_S3_iPT_iPT0_' type='func-type' binding='weak-binding' visibility='default-visibility' is-defined='yes'/>
    <elf-symbol name='_ZN16vtkPixelTransfer4BlitIalEEiRK14vtkPixelExtentS3_S3_S3_iPT_iPT0_' type='func-type' binding='weak-binding' visibility='default-visibility' is-defined='yes'/>
    <elf-symbol name='_ZN16vtkPixelTransfer4BlitIamEEiRK14vtkPixelExtentS3_S3_S3_iPT_iPT0_' type='func-type' binding='weak-binding' visibility='default-visibility' is-defined='yes'/>
    <elf-symbol name='_ZN16vtkPixelTransfer4BlitIasEEiRK14vtkPixelExtentS3_S3_S3_iPT_iPT0_' type='func-type' binding='weak-binding' visibility='default-visibility' is-defined='yes'/>
    <elf-symbol name='_ZN16vtkPixelTransfer4BlitIatEEiRK14vtkPixelExtentS3_S3_S3_iPT_iPT0_' type='func-type' binding='weak-binding' visibility='default-visibility' is-defined='yes'/>
    <elf-symbol name='_ZN16vtkPixelTransfer4BlitIaxEEiRK14vtkPixelExtentS3_S3_S3_iPT_iPT0_' type='func-type' binding='weak-binding' visibility='default-visibility' is-defined='yes'/>
    <elf-symbol name='_ZN16vtkPixelTransfer4BlitIayEEiRK14vtkPixelExtentS3_S3_S3_iPT_iPT0_' type='func-type' binding='weak-binding' visibility='default-visibility' is-defined='yes'/>
    <elf-symbol name='_ZN16vtkPixelTransfer4BlitIcEEiRK14vtkPixelExtentS3_S3_S3_iPT_iiPv' type='func-type' binding='weak-binding' visibility='default-visibility' is-defined='yes'/>
    <elf-symbol name='_ZN16vtkPixelTransfer4BlitIcaEEiRK14vtkPixelExtentS3_S3_S3_iPT_iPT0_' type='func-type' binding='weak-binding' visibility='default-visibility' is-defined='yes'/>
    <elf-symbol name='_ZN16vtkPixelTransfer4BlitIccEEiRK14vtkPixelExtentS3_S3_S3_iPT_iPT0_' type='func-type' binding='weak-binding' visibility='default-visibility' is-defined='yes'/>
    <elf-symbol name='_ZN16vtkPixelTransfer4BlitIcdEEiRK14vtkPixelExtentS3_S3_S3_iPT_iPT0_' type='func-type' binding='weak-binding' visibility='default-visibility' is-defined='yes'/>
    <elf-symbol name='_ZN16vtkPixelTransfer4BlitIcfEEiRK14vtkPixelExtentS3_S3_S3_iPT_iPT0_' type='func-type' binding='weak-binding' visibility='default-visibility' is-defined='yes'/>
    <elf-symbol name='_ZN16vtkPixelTransfer4BlitIchEEiRK14vtkPixelExtentS3_S3_S3_iPT_iPT0_' type='func-type' binding='weak-binding' visibility='default-visibility' is-defined='yes'/>
    <elf-symbol name='_ZN16vtkPixelTransfer4BlitIciEEiRK14vtkPixelExtentS3_S3_S3_iPT_iPT0_' type='func-type' binding='weak-binding' visibility='default-visibility' is-defined='yes'/>
    <elf-symbol name='_ZN16vtkPixelTransfer4BlitIcjEEiRK14vtkPixelExtentS3_S3_S3_iPT_iPT0_' type='func-type' binding='weak-binding' visibility='default-visibility' is-defined='yes'/>
    <elf-symbol name='_ZN16vtkPixelTransfer4BlitIclEEiRK14vtkPixelExtentS3_S3_S3_iPT_iPT0_' type='func-type' binding='weak-binding' visibility='default-visibility' is-defined='yes'/>
    <elf-symbol name='_ZN16vtkPixelTransfer4BlitIcmEEiRK14vtkPixelExtentS3_S3_S3_iPT_iPT0_' type='func-type' binding='weak-binding' visibility='default-visibility' is-defined='yes'/>
    <elf-symbol name='_ZN16vtkPixelTransfer4BlitIcsEEiRK14vtkPixelExtentS3_S3_S3_iPT_iPT0_' type='func-type' binding='weak-binding' visibility='default-visibility' is-defined='yes'/>
    <elf-symbol name='_ZN16vtkPixelTransfer4BlitIctEEiRK14vtkPixelExtentS3_S3_S3_iPT_iPT0_' type='func-type' binding='weak-binding' visibility='default-visibility' is-defined='yes'/>
    <elf-symbol name='_ZN16vtkPixelTransfer4BlitIcxEEiRK14vtkPixelExtentS3_S3_S3_iPT_iPT0_' type='func-type' binding='weak-binding' visibility='default-visibility' is-defined='yes'/>
    <elf-symbol name='_ZN16vtkPixelTransfer4BlitIcyEEiRK14vtkPixelExtentS3_S3_S3_iPT_iPT0_' type='func-type' binding='weak-binding' visibility='default-visibility' is-defined='yes'/>
    <elf-symbol name='_ZN16vtkPixelTransfer4BlitIdEEiRK14vtkPixelExtentS3_S3_S3_iPT_iiPv' type='func-type' binding='weak-binding' visibility='default-visibility' is-defined='yes'/>
    <elf-symbol name='_ZN16vtkPixelTransfer4BlitIdaEEiRK14vtkPixelExtentS3_S3_S3_iPT_iPT0_' type='func-type' binding='weak-binding' visibility='default-visibility' is-defined='yes'/>
    <elf-symbol name='_ZN16vtkPixelTransfer4BlitIdcEEiRK14vtkPixelExtentS3_S3_S3_iPT_iPT0_' type='func-type' binding='weak-binding' visibility='default-visibility' is-defined='yes'/>
    <elf-symbol name='_ZN16vtkPixelTransfer4BlitIddEEiRK14vtkPixelExtentS3_S3_S3_iPT_iPT0_' type='func-type' binding='weak-binding' visibility='default-visibility' is-defined='yes'/>
    <elf-symbol name='_ZN16vtkPixelTransfer4BlitIdfEEiRK14vtkPixelExtentS3_S3_S3_iPT_iPT0_' type='func-type' binding='weak-binding' visibility='default-visibility' is-defined='yes'/>
    <elf-symbol name='_ZN16vtkPixelTransfer4BlitIdhEEiRK14vtkPixelExtentS3_S3_S3_iPT_iPT0_' type='func-type' binding='weak-binding' visibility='default-visibility' is-defined='yes'/>
    <elf-symbol name='_ZN16vtkPixelTransfer4BlitIdiEEiRK14vtkPixelExtentS3_S3_S3_iPT_iPT0_' type='func-type' binding='weak-binding' visibility='default-visibility' is-defined='yes'/>
    <elf-symbol name='_ZN16vtkPixelTransfer4BlitIdjEEiRK14vtkPixelExtentS3_S3_S3_iPT_iPT0_' type='func-type' binding='weak-binding' visibility='default-visibility' is-defined='yes'/>
    <elf-symbol name='_ZN16vtkPixelTransfer4BlitIdlEEiRK14vtkPixelExtentS3_S3_S3_iPT_iPT0_' type='func-type' binding='weak-binding' visibility='default-visibility' is-defined='yes'/>
    <elf-symbol name='_ZN16vtkPixelTransfer4BlitIdmEEiRK14vtkPixelExtentS3_S3_S3_iPT_iPT0_' type='func-type' binding='weak-binding' visibility='default-visibility' is-defined='yes'/>
    <elf-symbol name='_ZN16vtkPixelTransfer4BlitIdsEEiRK14vtkPixelExtentS3_S3_S3_iPT_iPT0_' type='func-type' binding='weak-binding' visibility='default-visibility' is-defined='yes'/>
    <elf-symbol name='_ZN16vtkPixelTransfer4BlitIdtEEiRK14vtkPixelExtentS3_S3_S3_iPT_iPT0_' type='func-type' binding='weak-binding' visibility='default-visibility' is-defined='yes'/>
    <elf-symbol name='_ZN16vtkPixelTransfer4BlitIdxEEiRK14vtkPixelExtentS3_S3_S3_iPT_iPT0_' type='func-type' binding='weak-binding' visibility='default-visibility' is-defined='yes'/>
    <elf-symbol name='_ZN16vtkPixelTransfer4BlitIdyEEiRK14vtkPixelExtentS3_S3_S3_iPT_iPT0_' type='func-type' binding='weak-binding' visibility='default-visibility' is-defined='yes'/>
    <elf-symbol name='_ZN16vtkPixelTransfer4BlitIfEEiRK14vtkPixelExtentS3_S3_S3_iPT_iiPv' type='func-type' binding='weak-binding' visibility='default-visibility' is-defined='yes'/>
    <elf-symbol name='_ZN16vtkPixelTransfer4BlitIfaEEiRK14vtkPixelExtentS3_S3_S3_iPT_iPT0_' type='func-type' binding='weak-binding' visibility='default-visibility' is-defined='yes'/>
    <elf-symbol name='_ZN16vtkPixelTransfer4BlitIfcEEiRK14vtkPixelExtentS3_S3_S3_iPT_iPT0_' type='func-type' binding='weak-binding' visibility='default-visibility' is-defined='yes'/>
    <elf-symbol name='_ZN16vtkPixelTransfer4BlitIfdEEiRK14vtkPixelExtentS3_S3_S3_iPT_iPT0_' type='func-type' binding='weak-binding' visibility='default-visibility' is-defined='yes'/>
    <elf-symbol name='_ZN16vtkPixelTransfer4BlitIffEEiRK14vtkPixelExtentS3_S3_S3_iPT_iPT0_' type='func-type' binding='weak-binding' visibility='default-visibility' is-defined='yes'/>
    <elf-symbol name='_ZN16vtkPixelTransfer4BlitIfhEEiRK14vtkPixelExtentS3_S3_S3_iPT_iPT0_' type='func-type' binding='weak-binding' visibility='default-visibility' is-defined='yes'/>
    <elf-symbol name='_ZN16vtkPixelTransfer4BlitIfiEEiRK14vtkPixelExtentS3_S3_S3_iPT_iPT0_' type='func-type' binding='weak-binding' visibility='default-visibility' is-defined='yes'/>
    <elf-symbol name='_ZN16vtkPixelTransfer4BlitIfjEEiRK14vtkPixelExtentS3_S3_S3_iPT_iPT0_' type='func-type' binding='weak-binding' visibility='default-visibility' is-defined='yes'/>
    <elf-symbol name='_ZN16vtkPixelTransfer4BlitIflEEiRK14vtkPixelExtentS3_S3_S3_iPT_iPT0_' type='func-type' binding='weak-binding' visibility='default-visibility' is-defined='yes'/>
    <elf-symbol name='_ZN16vtkPixelTransfer4BlitIfmEEiRK14vtkPixelExtentS3_S3_S3_iPT_iPT0_' type='func-type' binding='weak-binding' visibility='default-visibility' is-defined='yes'/>
    <elf-symbol name='_ZN16vtkPixelTransfer4BlitIfsEEiRK14vtkPixelExtentS3_S3_S3_iPT_iPT0_' type='func-type' binding='weak-binding' visibility='default-visibility' is-defined='yes'/>
    <elf-symbol name='_ZN16vtkPixelTransfer4BlitIftEEiRK14vtkPixelExtentS3_S3_S3_iPT_iPT0_' type='func-type' binding='weak-binding' visibility='default-visibility' is-defined='yes'/>
    <elf-symbol name='_ZN16vtkPixelTransfer4BlitIfxEEiRK14vtkPixelExtentS3_S3_S3_iPT_iPT0_' type='func-type' binding='weak-binding' visibility='default-visibility' is-defined='yes'/>
    <elf-symbol name='_ZN16vtkPixelTransfer4BlitIfyEEiRK14vtkPixelExtentS3_S3_S3_iPT_iPT0_' type='func-type' binding='weak-binding' visibility='default-visibility' is-defined='yes'/>
    <elf-symbol name='_ZN16vtkPixelTransfer4BlitIhEEiRK14vtkPixelExtentS3_S3_S3_iPT_iiPv' type='func-type' binding='weak-binding' visibility='default-visibility' is-defined='yes'/>
    <elf-symbol name='_ZN16vtkPixelTransfer4BlitIhaEEiRK14vtkPixelExtentS3_S3_S3_iPT_iPT0_' type='func-type' binding='weak-binding' visibility='default-visibility' is-defined='yes'/>
    <elf-symbol name='_ZN16vtkPixelTransfer4BlitIhcEEiRK14vtkPixelExtentS3_S3_S3_iPT_iPT0_' type='func-type' binding='weak-binding' visibility='default-visibility' is-defined='yes'/>
    <elf-symbol name='_ZN16vtkPixelTransfer4BlitIhdEEiRK14vtkPixelExtentS3_S3_S3_iPT_iPT0_' type='func-type' binding='weak-binding' visibility='default-visibility' is-defined='yes'/>
    <elf-symbol name='_ZN16vtkPixelTransfer4BlitIhfEEiRK14vtkPixelExtentS3_S3_S3_iPT_iPT0_' type='func-type' binding='weak-binding' visibility='default-visibility' is-defined='yes'/>
    <elf-symbol name='_ZN16vtkPixelTransfer4BlitIhhEEiRK14vtkPixelExtentS3_S3_S3_iPT_iPT0_' type='func-type' binding='weak-binding' visibility='default-visibility' is-defined='yes'/>
    <elf-symbol name='_ZN16vtkPixelTransfer4BlitIhiEEiRK14vtkPixelExtentS3_S3_S3_iPT_iPT0_' type='func-type' binding='weak-binding' visibility='default-visibility' is-defined='yes'/>
    <elf-symbol name='_ZN16vtkPixelTransfer4BlitIhjEEiRK14vtkPixelExtentS3_S3_S3_iPT_iPT0_' type='func-type' binding='weak-binding' visibility='default-visibility' is-defined='yes'/>
    <elf-symbol name='_ZN16vtkPixelTransfer4BlitIhlEEiRK14vtkPixelExtentS3_S3_S3_iPT_iPT0_' type='func-type' binding='weak-binding' visibility='default-visibility' is-defined='yes'/>
    <elf-symbol name='_ZN16vtkPixelTransfer4BlitIhmEEiRK14vtkPixelExtentS3_S3_S3_iPT_iPT0_' type='func-type' binding='weak-binding' visibility='default-visibility' is-defined='yes'/>
    <elf-symbol name='_ZN16vtkPixelTransfer4BlitIhsEEiRK14vtkPixelExtentS3_S3_S3_iPT_iPT0_' type='func-type' binding='weak-binding' visibility='default-visibility' is-defined='yes'/>
    <elf-symbol name='_ZN16vtkPixelTransfer4BlitIhtEEiRK14vtkPixelExtentS3_S3_S3_iPT_iPT0_' type='func-type' binding='weak-binding' visibility='default-visibility' is-defined='yes'/>
    <elf-symbol name='_ZN16vtkPixelTransfer4BlitIhxEEiRK14vtkPixelExtentS3_S3_S3_iPT_iPT0_' type='func-type' binding='weak-binding' visibility='default-visibility' is-defined='yes'/>
    <elf-symbol name='_ZN16vtkPixelTransfer4BlitIhyEEiRK14vtkPixelExtentS3_S3_S3_iPT_iPT0_' type='func-type' binding='weak-binding' visibility='default-visibility' is-defined='yes'/>
    <elf-symbol name='_ZN16vtkPixelTransfer4BlitIiEEiRK14vtkPixelExtentS3_S3_S3_iPT_iiPv' type='func-type' binding='weak-binding' visibility='default-visibility' is-defined='yes'/>
    <elf-symbol name='_ZN16vtkPixelTransfer4BlitIiaEEiRK14vtkPixelExtentS3_S3_S3_iPT_iPT0_' type='func-type' binding='weak-binding' visibility='default-visibility' is-defined='yes'/>
    <elf-symbol name='_ZN16vtkPixelTransfer4BlitIicEEiRK14vtkPixelExtentS3_S3_S3_iPT_iPT0_' type='func-type' binding='weak-binding' visibility='default-visibility' is-defined='yes'/>
    <elf-symbol name='_ZN16vtkPixelTransfer4BlitIidEEiRK14vtkPixelExtentS3_S3_S3_iPT_iPT0_' type='func-type' binding='weak-binding' visibility='default-visibility' is-defined='yes'/>
    <elf-symbol name='_ZN16vtkPixelTransfer4BlitIifEEiRK14vtkPixelExtentS3_S3_S3_iPT_iPT0_' type='func-type' binding='weak-binding' visibility='default-visibility' is-defined='yes'/>
    <elf-symbol name='_ZN16vtkPixelTransfer4BlitIihEEiRK14vtkPixelExtentS3_S3_S3_iPT_iPT0_' type='func-type' binding='weak-binding' visibility='default-visibility' is-defined='yes'/>
    <elf-symbol name='_ZN16vtkPixelTransfer4BlitIiiEEiRK14vtkPixelExtentS3_S3_S3_iPT_iPT0_' type='func-type' binding='weak-binding' visibility='default-visibility' is-defined='yes'/>
    <elf-symbol name='_ZN16vtkPixelTransfer4BlitIijEEiRK14vtkPixelExtentS3_S3_S3_iPT_iPT0_' type='func-type' binding='weak-binding' visibility='default-visibility' is-defined='yes'/>
    <elf-symbol name='_ZN16vtkPixelTransfer4BlitIilEEiRK14vtkPixelExtentS3_S3_S3_iPT_iPT0_' type='func-type' binding='weak-binding' visibility='default-visibility' is-defined='yes'/>
    <elf-symbol name='_ZN16vtkPixelTransfer4BlitIimEEiRK14vtkPixelExtentS3_S3_S3_iPT_iPT0_' type='func-type' binding='weak-binding' visibility='default-visibility' is-defined='yes'/>
    <elf-symbol name='_ZN16vtkPixelTransfer4BlitIisEEiRK14vtkPixelExtentS3_S3_S3_iPT_iPT0_' type='func-type' binding='weak-binding' visibility='default-visibility' is-defined='yes'/>
    <elf-symbol name='_ZN16vtkPixelTransfer4BlitIitEEiRK14vtkPixelExtentS3_S3_S3_iPT_iPT0_' type='func-type' binding='weak-binding' visibility='default-visibility' is-defined='yes'/>
    <elf-symbol name='_ZN16vtkPixelTransfer4BlitIixEEiRK14vtkPixelExtentS3_S3_S3_iPT_iPT0_' type='func-type' binding='weak-binding' visibility='default-visibility' is-defined='yes'/>
    <elf-symbol name='_ZN16vtkPixelTransfer4BlitIiyEEiRK14vtkPixelExtentS3_S3_S3_iPT_iPT0_' type='func-type' binding='weak-binding' visibility='default-visibility' is-defined='yes'/>
    <elf-symbol name='_ZN16vtkPixelTransfer4BlitIjEEiRK14vtkPixelExtentS3_S3_S3_iPT_iiPv' type='func-type' binding='weak-binding' visibility='default-visibility' is-defined='yes'/>
    <elf-symbol name='_ZN16vtkPixelTransfer4BlitIjaEEiRK14vtkPixelExtentS3_S3_S3_iPT_iPT0_' type='func-type' binding='weak-binding' visibility='default-visibility' is-defined='yes'/>
    <elf-symbol name='_ZN16vtkPixelTransfer4BlitIjcEEiRK14vtkPixelExtentS3_S3_S3_iPT_iPT0_' type='func-type' binding='weak-binding' visibility='default-visibility' is-defined='yes'/>
    <elf-symbol name='_ZN16vtkPixelTransfer4BlitIjdEEiRK14vtkPixelExtentS3_S3_S3_iPT_iPT0_' type='func-type' binding='weak-binding' visibility='default-visibility' is-defined='yes'/>
    <elf-symbol name='_ZN16vtkPixelTransfer4BlitIjfEEiRK14vtkPixelExtentS3_S3_S3_iPT_iPT0_' type='func-type' binding='weak-binding' visibility='default-visibility' is-defined='yes'/>
    <elf-symbol name='_ZN16vtkPixelTransfer4BlitIjhEEiRK14vtkPixelExtentS3_S3_S3_iPT_iPT0_' type='func-type' binding='weak-binding' visibility='default-visibility' is-defined='yes'/>
    <elf-symbol name='_ZN16vtkPixelTransfer4BlitIjiEEiRK14vtkPixelExtentS3_S3_S3_iPT_iPT0_' type='func-type' binding='weak-binding' visibility='default-visibility' is-defined='yes'/>
    <elf-symbol name='_ZN16vtkPixelTransfer4BlitIjjEEiRK14vtkPixelExtentS3_S3_S3_iPT_iPT0_' type='func-type' binding='weak-binding' visibility='default-visibility' is-defined='yes'/>
    <elf-symbol name='_ZN16vtkPixelTransfer4BlitIjlEEiRK14vtkPixelExtentS3_S3_S3_iPT_iPT0_' type='func-type' binding='weak-binding' visibility='default-visibility' is-defined='yes'/>
    <elf-symbol name='_ZN16vtkPixelTransfer4BlitIjmEEiRK14vtkPixelExtentS3_S3_S3_iPT_iPT0_' type='func-type' binding='weak-binding' visibility='default-visibility' is-defined='yes'/>
    <elf-symbol name='_ZN16vtkPixelTransfer4BlitIjsEEiRK14vtkPixelExtentS3_S3_S3_iPT_iPT0_' type='func-type' binding='weak-binding' visibility='default-visibility' is-defined='yes'/>
    <elf-symbol name='_ZN16vtkPixelTransfer4BlitIjtEEiRK14vtkPixelExtentS3_S3_S3_iPT_iPT0_' type='func-type' binding='weak-binding' visibility='default-visibility' is-defined='yes'/>
    <elf-symbol name='_ZN16vtkPixelTransfer4BlitIjxEEiRK14vtkPixelExtentS3_S3_S3_iPT_iPT0_' type='func-type' binding='weak-binding' visibility='default-visibility' is-defined='yes'/>
    <elf-symbol name='_ZN16vtkPixelTransfer4BlitIjyEEiRK14vtkPixelExtentS3_S3_S3_iPT_iPT0_' type='func-type' binding='weak-binding' visibility='default-visibility' is-defined='yes'/>
    <elf-symbol name='_ZN16vtkPixelTransfer4BlitIlEEiRK14vtkPixelExtentS3_S3_S3_iPT_iiPv' type='func-type' binding='weak-binding' visibility='default-visibility' is-defined='yes'/>
    <elf-symbol name='_ZN16vtkPixelTransfer4BlitIlaEEiRK14vtkPixelExtentS3_S3_S3_iPT_iPT0_' type='func-type' binding='weak-binding' visibility='default-visibility' is-defined='yes'/>
    <elf-symbol name='_ZN16vtkPixelTransfer4BlitIlcEEiRK14vtkPixelExtentS3_S3_S3_iPT_iPT0_' type='func-type' binding='weak-binding' visibility='default-visibility' is-defined='yes'/>
    <elf-symbol name='_ZN16vtkPixelTransfer4BlitIldEEiRK14vtkPixelExtentS3_S3_S3_iPT_iPT0_' type='func-type' binding='weak-binding' visibility='default-visibility' is-defined='yes'/>
    <elf-symbol name='_ZN16vtkPixelTransfer4BlitIlfEEiRK14vtkPixelExtentS3_S3_S3_iPT_iPT0_' type='func-type' binding='weak-binding' visibility='default-visibility' is-defined='yes'/>
    <elf-symbol name='_ZN16vtkPixelTransfer4BlitIlhEEiRK14vtkPixelExtentS3_S3_S3_iPT_iPT0_' type='func-type' binding='weak-binding' visibility='default-visibility' is-defined='yes'/>
    <elf-symbol name='_ZN16vtkPixelTransfer4BlitIliEEiRK14vtkPixelExtentS3_S3_S3_iPT_iPT0_' type='func-type' binding='weak-binding' visibility='default-visibility' is-defined='yes'/>
    <elf-symbol name='_ZN16vtkPixelTransfer4BlitIljEEiRK14vtkPixelExtentS3_S3_S3_iPT_iPT0_' type='func-type' binding='weak-binding' visibility='default-visibility' is-defined='yes'/>
    <elf-symbol name='_ZN16vtkPixelTransfer4BlitIllEEiRK14vtkPixelExtentS3_S3_S3_iPT_iPT0_' type='func-type' binding='weak-binding' visibility='default-visibility' is-defined='yes'/>
    <elf-symbol name='_ZN16vtkPixelTransfer4BlitIlmEEiRK14vtkPixelExtentS3_S3_S3_iPT_iPT0_' type='func-type' binding='weak-binding' visibility='default-visibility' is-defined='yes'/>
    <elf-symbol name='_ZN16vtkPixelTransfer4BlitIlsEEiRK14vtkPixelExtentS3_S3_S3_iPT_iPT0_' type='func-type' binding='weak-binding' visibility='default-visibility' is-defined='yes'/>
    <elf-symbol name='_ZN16vtkPixelTransfer4BlitIltEEiRK14vtkPixelExtentS3_S3_S3_iPT_iPT0_' type='func-type' binding='weak-binding' visibility='default-visibility' is-defined='yes'/>
    <elf-symbol name='_ZN16vtkPixelTransfer4BlitIlxEEiRK14vtkPixelExtentS3_S3_S3_iPT_iPT0_' type='func-type' binding='weak-binding' visibility='default-visibility' is-defined='yes'/>
    <elf-symbol name='_ZN16vtkPixelTransfer4BlitIlyEEiRK14vtkPixelExtentS3_S3_S3_iPT_iPT0_' type='func-type' binding='weak-binding' visibility='default-visibility' is-defined='yes'/>
    <elf-symbol name='_ZN16vtkPixelTransfer4BlitImEEiRK14vtkPixelExtentS3_S3_S3_iPT_iiPv' type='func-type' binding='weak-binding' visibility='default-visibility' is-defined='yes'/>
    <elf-symbol name='_ZN16vtkPixelTransfer4BlitImaEEiRK14vtkPixelExtentS3_S3_S3_iPT_iPT0_' type='func-type' binding='weak-binding' visibility='default-visibility' is-defined='yes'/>
    <elf-symbol name='_ZN16vtkPixelTransfer4BlitImcEEiRK14vtkPixelExtentS3_S3_S3_iPT_iPT0_' type='func-type' binding='weak-binding' visibility='default-visibility' is-defined='yes'/>
    <elf-symbol name='_ZN16vtkPixelTransfer4BlitImdEEiRK14vtkPixelExtentS3_S3_S3_iPT_iPT0_' type='func-type' binding='weak-binding' visibility='default-visibility' is-defined='yes'/>
    <elf-symbol name='_ZN16vtkPixelTransfer4BlitImfEEiRK14vtkPixelExtentS3_S3_S3_iPT_iPT0_' type='func-type' binding='weak-binding' visibility='default-visibility' is-defined='yes'/>
    <elf-symbol name='_ZN16vtkPixelTransfer4BlitImhEEiRK14vtkPixelExtentS3_S3_S3_iPT_iPT0_' type='func-type' binding='weak-binding' visibility='default-visibility' is-defined='yes'/>
    <elf-symbol name='_ZN16vtkPixelTransfer4BlitImiEEiRK14vtkPixelExtentS3_S3_S3_iPT_iPT0_' type='func-type' binding='weak-binding' visibility='default-visibility' is-defined='yes'/>
    <elf-symbol name='_ZN16vtkPixelTransfer4BlitImjEEiRK14vtkPixelExtentS3_S3_S3_iPT_iPT0_' type='func-type' binding='weak-binding' visibility='default-visibility' is-defined='yes'/>
    <elf-symbol name='_ZN16vtkPixelTransfer4BlitImlEEiRK14vtkPixelExtentS3_S3_S3_iPT_iPT0_' type='func-type' binding='weak-binding' visibility='default-visibility' is-defined='yes'/>
    <elf-symbol name='_ZN16vtkPixelTransfer4BlitImmEEiRK14vtkPixelExtentS3_S3_S3_iPT_iPT0_' type='func-type' binding='weak-binding' visibility='default-visibility' is-defined='yes'/>
    <elf-symbol name='_ZN16vtkPixelTransfer4BlitImsEEiRK14vtkPixelExtentS3_S3_S3_iPT_iPT0_' type='func-type' binding='weak-binding' visibility='default-visibility' is-defined='yes'/>
    <elf-symbol name='_ZN16vtkPixelTransfer4BlitImtEEiRK14vtkPixelExtentS3_S3_S3_iPT_iPT0_' type='func-type' binding='weak-binding' visibility='default-visibility' is-defined='yes'/>
    <elf-symbol name='_ZN16vtkPixelTransfer4BlitImxEEiRK14vtkPixelExtentS3_S3_S3_iPT_iPT0_' type='func-type' binding='weak-binding' visibility='default-visibility' is-defined='yes'/>
    <elf-symbol name='_ZN16vtkPixelTransfer4BlitImyEEiRK14vtkPixelExtentS3_S3_S3_iPT_iPT0_' type='func-type' binding='weak-binding' visibility='default-visibility' is-defined='yes'/>
    <elf-symbol name='_ZN16vtkPixelTransfer4BlitIsEEiRK14vtkPixelExtentS3_S3_S3_iPT_iiPv' type='func-type' binding='weak-binding' visibility='default-visibility' is-defined='yes'/>
    <elf-symbol name='_ZN16vtkPixelTransfer4BlitIsaEEiRK14vtkPixelExtentS3_S3_S3_iPT_iPT0_' type='func-type' binding='weak-binding' visibility='default-visibility' is-defined='yes'/>
    <elf-symbol name='_ZN16vtkPixelTransfer4BlitIscEEiRK14vtkPixelExtentS3_S3_S3_iPT_iPT0_' type='func-type' binding='weak-binding' visibility='default-visibility' is-defined='yes'/>
    <elf-symbol name='_ZN16vtkPixelTransfer4BlitIsdEEiRK14vtkPixelExtentS3_S3_S3_iPT_iPT0_' type='func-type' binding='weak-binding' visibility='default-visibility' is-defined='yes'/>
    <elf-symbol name='_ZN16vtkPixelTransfer4BlitIsfEEiRK14vtkPixelExtentS3_S3_S3_iPT_iPT0_' type='func-type' binding='weak-binding' visibility='default-visibility' is-defined='yes'/>
    <elf-symbol name='_ZN16vtkPixelTransfer4BlitIshEEiRK14vtkPixelExtentS3_S3_S3_iPT_iPT0_' type='func-type' binding='weak-binding' visibility='default-visibility' is-defined='yes'/>
    <elf-symbol name='_ZN16vtkPixelTransfer4BlitIsiEEiRK14vtkPixelExtentS3_S3_S3_iPT_iPT0_' type='func-type' binding='weak-binding' visibility='default-visibility' is-defined='yes'/>
    <elf-symbol name='_ZN16vtkPixelTransfer4BlitIsjEEiRK14vtkPixelExtentS3_S3_S3_iPT_iPT0_' type='func-type' binding='weak-binding' visibility='default-visibility' is-defined='yes'/>
    <elf-symbol name='_ZN16vtkPixelTransfer4BlitIslEEiRK14vtkPixelExtentS3_S3_S3_iPT_iPT0_' type='func-type' binding='weak-binding' visibility='default-visibility' is-defined='yes'/>
    <elf-symbol name='_ZN16vtkPixelTransfer4BlitIsmEEiRK14vtkPixelExtentS3_S3_S3_iPT_iPT0_' type='func-type' binding='weak-binding' visibility='default-visibility' is-defined='yes'/>
    <elf-symbol name='_ZN16vtkPixelTransfer4BlitIssEEiRK14vtkPixelExtentS3_S3_S3_iPT_iPT0_' type='func-type' binding='weak-binding' visibility='default-visibility' is-defined='yes'/>
    <elf-symbol name='_ZN16vtkPixelTransfer4BlitIstEEiRK14vtkPixelExtentS3_S3_S3_iPT_iPT0_' type='func-type' binding='weak-binding' visibility='default-visibility' is-defined='yes'/>
    <elf-symbol name='_ZN16vtkPixelTransfer4BlitIsxEEiRK14vtkPixelExtentS3_S3_S3_iPT_iPT0_' type='func-type' binding='weak-binding' visibility='default-visibility' is-defined='yes'/>
    <elf-symbol name='_ZN16vtkPixelTransfer4BlitIsyEEiRK14vtkPixelExtentS3_S3_S3_iPT_iPT0_' type='func-type' binding='weak-binding' visibility='default-visibility' is-defined='yes'/>
    <elf-symbol name='_ZN16vtkPixelTransfer4BlitItEEiRK14vtkPixelExtentS3_S3_S3_iPT_iiPv' type='func-type' binding='weak-binding' visibility='default-visibility' is-defined='yes'/>
    <elf-symbol name='_ZN16vtkPixelTransfer4BlitItaEEiRK14vtkPixelExtentS3_S3_S3_iPT_iPT0_' type='func-type' binding='weak-binding' visibility='default-visibility' is-defined='yes'/>
    <elf-symbol name='_ZN16vtkPixelTransfer4BlitItcEEiRK14vtkPixelExtentS3_S3_S3_iPT_iPT0_' type='func-type' binding='weak-binding' visibility='default-visibility' is-defined='yes'/>
    <elf-symbol name='_ZN16vtkPixelTransfer4BlitItdEEiRK14vtkPixelExtentS3_S3_S3_iPT_iPT0_' type='func-type' binding='weak-binding' visibility='default-visibility' is-defined='yes'/>
    <elf-symbol name='_ZN16vtkPixelTransfer4BlitItfEEiRK14vtkPixelExtentS3_S3_S3_iPT_iPT0_' type='func-type' binding='weak-binding' visibility='default-visibility' is-defined='yes'/>
    <elf-symbol name='_ZN16vtkPixelTransfer4BlitIthEEiRK14vtkPixelExtentS3_S3_S3_iPT_iPT0_' type='func-type' binding='weak-binding' visibility='default-visibility' is-defined='yes'/>
    <elf-symbol name='_ZN16vtkPixelTransfer4BlitItiEEiRK14vtkPixelExtentS3_S3_S3_iPT_iPT0_' type='func-type' binding='weak-binding' visibility='default-visibility' is-defined='yes'/>
    <elf-symbol name='_ZN16vtkPixelTransfer4BlitItjEEiRK14vtkPixelExtentS3_S3_S3_iPT_iPT0_' type='func-type' binding='weak-binding' visibility='default-visibility' is-defined='yes'/>
    <elf-symbol name='_ZN16vtkPixelTransfer4BlitItlEEiRK14vtkPixelExtentS3_S3_S3_iPT_iPT0_' type='func-type' binding='weak-binding' visibility='default-visibility' is-defined='yes'/>
    <elf-symbol name='_ZN16vtkPixelTransfer4BlitItmEEiRK14vtkPixelExtentS3_S3_S3_iPT_iPT0_' type='func-type' binding='weak-binding' visibility='default-visibility' is-defined='yes'/>
    <elf-symbol name='_ZN16vtkPixelTransfer4BlitItsEEiRK14vtkPixelExtentS3_S3_S3_iPT_iPT0_' type='func-type' binding='weak-binding' visibility='default-visibility' is-defined='yes'/>
    <elf-symbol name='_ZN16vtkPixelTransfer4BlitIttEEiRK14vtkPixelExtentS3_S3_S3_iPT_iPT0_' type='func-type' binding='weak-binding' visibility='default-visibility' is-defined='yes'/>
    <elf-symbol name='_ZN16vtkPixelTransfer4BlitItxEEiRK14vtkPixelExtentS3_S3_S3_iPT_iPT0_' type='func-type' binding='weak-binding' visibility='default-visibility' is-defined='yes'/>
    <elf-symbol name='_ZN16vtkPixelTransfer4BlitItyEEiRK14vtkPixelExtentS3_S3_S3_iPT_iPT0_' type='func-type' binding='weak-binding' visibility='default-visibility' is-defined='yes'/>
    <elf-symbol name='_ZN16vtkPixelTransfer4BlitIxEEiRK14vtkPixelExtentS3_S3_S3_iPT_iiPv' type='func-type' binding='weak-binding' visibility='default-visibility' is-defined='yes'/>
    <elf-symbol name='_ZN16vtkPixelTransfer4BlitIxaEEiRK14vtkPixelExtentS3_S3_S3_iPT_iPT0_' type='func-type' binding='weak-binding' visibility='default-visibility' is-defined='yes'/>
    <elf-symbol name='_ZN16vtkPixelTransfer4BlitIxcEEiRK14vtkPixelExtentS3_S3_S3_iPT_iPT0_' type='func-type' binding='weak-binding' visibility='default-visibility' is-defined='yes'/>
    <elf-symbol name='_ZN16vtkPixelTransfer4BlitIxdEEiRK14vtkPixelExtentS3_S3_S3_iPT_iPT0_' type='func-type' binding='weak-binding' visibility='default-visibility' is-defined='yes'/>
    <elf-symbol name='_ZN16vtkPixelTransfer4BlitIxfEEiRK14vtkPixelExtentS3_S3_S3_iPT_iPT0_' type='func-type' binding='weak-binding' visibility='default-visibility' is-defined='yes'/>
    <elf-symbol name='_ZN16vtkPixelTransfer4BlitIxhEEiRK14vtkPixelExtentS3_S3_S3_iPT_iPT0_' type='func-type' binding='weak-binding' visibility='default-visibility' is-defined='yes'/>
    <elf-symbol name='_ZN16vtkPixelTransfer4BlitIxiEEiRK14vtkPixelExtentS3_S3_S3_iPT_iPT0_' type='func-type' binding='weak-binding' visibility='default-visibility' is-defined='yes'/>
    <elf-symbol name='_ZN16vtkPixelTransfer4BlitIxjEEiRK14vtkPixelExtentS3_S3_S3_iPT_iPT0_' type='func-type' binding='weak-binding' visibility='default-visibility' is-defined='yes'/>
    <elf-symbol name='_ZN16vtkPixelTransfer4BlitIxlEEiRK14vtkPixelExtentS3_S3_S3_iPT_iPT0_' type='func-type' binding='weak-binding' visibility='default-visibility' is-defined='yes'/>
    <elf-symbol name='_ZN16vtkPixelTransfer4BlitIxmEEiRK14vtkPixelExtentS3_S3_S3_iPT_iPT0_' type='func-type' binding='weak-binding' visibility='default-visibility' is-defined='yes'/>
    <elf-symbol name='_ZN16vtkPixelTransfer4BlitIxsEEiRK14vtkPixelExtentS3_S3_S3_iPT_iPT0_' type='func-type' binding='weak-binding' visibility='default-visibility' is-defined='yes'/>
    <elf-symbol name='_ZN16vtkPixelTransfer4BlitIxtEEiRK14vtkPixelExtentS3_S3_S3_iPT_iPT0_' type='func-type' binding='weak-binding' visibility='default-visibility' is-defined='yes'/>
    <elf-symbol name='_ZN16vtkPixelTransfer4BlitIxxEEiRK14vtkPixelExtentS3_S3_S3_iPT_iPT0_' type='func-type' binding='weak-binding' visibility='default-visibility' is-defined='yes'/>
    <elf-symbol name='_ZN16vtkPixelTransfer4BlitIxyEEiRK14vtkPixelExtentS3_S3_S3_iPT_iPT0_' type='func-type' binding='weak-binding' visibility='default-visibility' is-defined='yes'/>
    <elf-symbol name='_ZN16vtkPixelTransfer4BlitIyEEiRK14vtkPixelExtentS3_S3_S3_iPT_iiPv' type='func-type' binding='weak-binding' visibility='default-visibility' is-defined='yes'/>
    <elf-symbol name='_ZN16vtkPixelTransfer4BlitIyaEEiRK14vtkPixelExtentS3_S3_S3_iPT_iPT0_' type='func-type' binding='weak-binding' visibility='default-visibility' is-defined='yes'/>
    <elf-symbol name='_ZN16vtkPixelTransfer4BlitIycEEiRK14vtkPixelExtentS3_S3_S3_iPT_iPT0_' type='func-type' binding='weak-binding' visibility='default-visibility' is-defined='yes'/>
    <elf-symbol name='_ZN16vtkPixelTransfer4BlitIydEEiRK14vtkPixelExtentS3_S3_S3_iPT_iPT0_' type='func-type' binding='weak-binding' visibility='default-visibility' is-defined='yes'/>
    <elf-symbol name='_ZN16vtkPixelTransfer4BlitIyfEEiRK14vtkPixelExtentS3_S3_S3_iPT_iPT0_' type='func-type' binding='weak-binding' visibility='default-visibility' is-defined='yes'/>
    <elf-symbol name='_ZN16vtkPixelTransfer4BlitIyhEEiRK14vtkPixelExtentS3_S3_S3_iPT_iPT0_' type='func-type' binding='weak-binding' visibility='default-visibility' is-defined='yes'/>
    <elf-symbol name='_ZN16vtkPixelTransfer4BlitIyiEEiRK14vtkPixelExtentS3_S3_S3_iPT_iPT0_' type='func-type' binding='weak-binding' visibility='default-visibility' is-defined='yes'/>
    <elf-symbol name='_ZN16vtkPixelTransfer4BlitIyjEEiRK14vtkPixelExtentS3_S3_S3_iPT_iPT0_' type='func-type' binding='weak-binding' visibility='default-visibility' is-defined='yes'/>
    <elf-symbol name='_ZN16vtkPixelTransfer4BlitIylEEiRK14vtkPixelExtentS3_S3_S3_iPT_iPT0_' type='func-type' binding='weak-binding' visibility='default-visibility' is-defined='yes'/>
    <elf-symbol name='_ZN16vtkPixelTransfer4BlitIymEEiRK14vtkPixelExtentS3_S3_S3_iPT_iPT0_' type='func-type' binding='weak-binding' visibility='default-visibility' is-defined='yes'/>
    <elf-symbol name='_ZN16vtkPixelTransfer4BlitIysEEiRK14vtkPixelExtentS3_S3_S3_iPT_iPT0_' type='func-type' binding='weak-binding' visibility='default-visibility' is-defined='yes'/>
    <elf-symbol name='_ZN16vtkPixelTransfer4BlitIytEEiRK14vtkPixelExtentS3_S3_S3_iPT_iPT0_' type='func-type' binding='weak-binding' visibility='default-visibility' is-defined='yes'/>
    <elf-symbol name='_ZN16vtkPixelTransfer4BlitIyxEEiRK14vtkPixelExtentS3_S3_S3_iPT_iPT0_' type='func-type' binding='weak-binding' visibility='default-visibility' is-defined='yes'/>
    <elf-symbol name='_ZN16vtkPixelTransfer4BlitIyyEEiRK14vtkPixelExtentS3_S3_S3_iPT_iPT0_' type='func-type' binding='weak-binding' visibility='default-visibility' is-defined='yes'/>
    <elf-symbol name='_ZN17vtkImageDataLIC2D10GetContextEv' type='func-type' binding='global-binding' visibility='default-visibility' is-defined='yes'/>
    <elf-symbol name='_ZN17vtkImageDataLIC2D10SetContextEP15vtkRenderWindow' type='func-type' binding='global-binding' visibility='default-visibility' is-defined='yes'/>
    <elf-symbol name='_ZN17vtkImageDataLIC2D11RequestDataEP14vtkInformationPP20vtkInformationVectorS3_' type='func-type' binding='global-binding' visibility='default-visibility' is-defined='yes'/>
    <elf-symbol name='_ZN17vtkImageDataLIC2D18RequestInformationEP14vtkInformationPP20vtkInformationVectorS3_' type='func-type' binding='global-binding' visibility='default-visibility' is-defined='yes'/>
    <elf-symbol name='_ZN17vtkImageDataLIC2D19RequestUpdateExtentEP14vtkInformationPP20vtkInformationVectorS3_' type='func-type' binding='global-binding' visibility='default-visibility' is-defined='yes'/>
    <elf-symbol name='_ZN17vtkImageDataLIC2D20TranslateInputExtentEPKiS1_Pi' type='func-type' binding='global-binding' visibility='default-visibility' is-defined='yes'/>
    <elf-symbol name='_ZN17vtkImageDataLIC2D24FillInputPortInformationEiP14vtkInformation' type='func-type' binding='global-binding' visibility='default-visibility' is-defined='yes'/>
    <elf-symbol name='_ZN17vtkImageDataLIC2D3NewEv' type='func-type' binding='global-binding' visibility='default-visibility' is-defined='yes'/>
    <elf-symbol name='_ZN17vtkImageDataLIC2D9PrintSelfERSo9vtkIndent' type='func-type' binding='global-binding' visibility='default-visibility' is-defined='yes'/>
    <elf-symbol name='_ZN17vtkImageDataLIC2DC1Ev' type='func-type' binding='global-binding' visibility='default-visibility' alias='_ZN17vtkImageDataLIC2DC2Ev' is-defined='yes'/>
    <elf-symbol name='_ZN17vtkImageDataLIC2DC2Ev' type='func-type' binding='global-binding' visibility='default-visibility' is-defined='yes'/>
    <elf-symbol name='_ZN17vtkImageDataLIC2DD0Ev' type='func-type' binding='global-binding' visibility='default-visibility' is-defined='yes'/>
    <elf-symbol name='_ZN17vtkImageDataLIC2DD1Ev' type='func-type' binding='global-binding' visibility='default-visibility' alias='_ZN17vtkImageDataLIC2DD2Ev' is-defined='yes'/>
    <elf-symbol name='_ZN17vtkImageDataLIC2DD2Ev' type='func-type' binding='global-binding' visibility='default-visibility' is-defined='yes'/>
    <elf-symbol name='_ZN20vtkSurfaceLICPainter11IsSupportedEP15vtkRenderWindow' type='func-type' binding='global-binding' visibility='default-visibility' is-defined='yes'/>
    <elf-symbol name='_ZN20vtkSurfaceLICPainter11SetStepSizeEd' type='func-type' binding='global-binding' visibility='default-visibility' is-defined='yes'/>
    <elf-symbol name='_ZN20vtkSurfaceLICPainter12ClearTCoordsEP10vtkDataSet' type='func-type' binding='global-binding' visibility='default-visibility' is-defined='yes'/>
    <elf-symbol name='_ZN20vtkSurfaceLICPainter12SetAntiAliasEi' type='func-type' binding='global-binding' visibility='default-visibility' is-defined='yes'/>
    <elf-symbol name='_ZN20vtkSurfaceLICPainter12SetColorModeEi' type='func-type' binding='global-binding' visibility='default-visibility' is-defined='yes'/>
    <elf-symbol name='_ZN20vtkSurfaceLICPainter12SetMaskColorEPd' type='func-type' binding='global-binding' visibility='default-visibility' is-defined='yes'/>
    <elf-symbol name='_ZN20vtkSurfaceLICPainter12SetNoiseTypeEi' type='func-type' binding='global-binding' visibility='default-visibility' is-defined='yes'/>
    <elf-symbol name='_ZN20vtkSurfaceLICPainter12SetUpdateAllEv' type='func-type' binding='global-binding' visibility='default-visibility' is-defined='yes'/>
    <elf-symbol name='_ZN20vtkSurfaceLICPainter13PrepareOutputEv' type='func-type' binding='global-binding' visibility='default-visibility' is-defined='yes'/>
    <elf-symbol name='_ZN20vtkSurfaceLICPainter14NeedToColorLICEv' type='func-type' binding='global-binding' visibility='default-visibility' is-defined='yes'/>
    <elf-symbol name='_ZN20vtkSurfaceLICPainter14RenderInternalEP11vtkRendererP8vtkActormb' type='func-type' binding='global-binding' visibility='default-visibility' is-defined='yes'/>
    <elf-symbol name='_ZN20vtkSurfaceLICPainter14SetEnhancedLICEi' type='func-type' binding='global-binding' visibility='default-visibility' is-defined='yes'/>
    <elf-symbol name='_ZN20vtkSurfaceLICPainter14SetMapModeBiasEd' type='func-type' binding='global-binding' visibility='default-visibility' is-defined='yes'/>
    <elf-symbol name='_ZN20vtkSurfaceLICPainter15GetNoiseDataSetEv' type='func-type' binding='global-binding' visibility='default-visibility' is-defined='yes'/>
    <elf-symbol name='_ZN20vtkSurfaceLICPainter15SetLICIntensityEd' type='func-type' binding='global-binding' visibility='default-visibility' is-defined='yes'/>
    <elf-symbol name='_ZN20vtkSurfaceLICPainter15SetNoiseDataSetEP12vtkImageData' type='func-type' binding='global-binding' visibility='default-visibility' is-defined='yes'/>
    <elf-symbol name='_ZN20vtkSurfaceLICPainter15ValidateContextEP11vtkRenderer' type='func-type' binding='global-binding' visibility='default-visibility' is-defined='yes'/>
    <elf-symbol name='_ZN20vtkSurfaceLICPainter16NeedToComputeLICEv' type='func-type' binding='global-binding' visibility='default-visibility' is-defined='yes'/>
    <elf-symbol name='_ZN20vtkSurfaceLICPainter16ReportReferencesEP19vtkGarbageCollector' type='func-type' binding='global-binding' visibility='default-visibility' is-defined='yes'/>
    <elf-symbol name='_ZN20vtkSurfaceLICPainter16SetMaskIntensityEd' type='func-type' binding='global-binding' visibility='default-visibility' is-defined='yes'/>
    <elf-symbol name='_ZN20vtkSurfaceLICPainter16SetMaskOnSurfaceEi' type='func-type' binding='global-binding' visibility='default-visibility' is-defined='yes'/>
    <elf-symbol name='_ZN20vtkSurfaceLICPainter16SetMaskThresholdEd' type='func-type' binding='global-binding' visibility='default-visibility' is-defined='yes'/>
    <elf-symbol name='_ZN20vtkSurfaceLICPainter16SetMaxNoiseValueEd' type='func-type' binding='global-binding' visibility='default-visibility' is-defined='yes'/>
    <elf-symbol name='_ZN20vtkSurfaceLICPainter16SetMinNoiseValueEd' type='func-type' binding='global-binding' visibility='default-visibility' is-defined='yes'/>
    <elf-symbol name='_ZN20vtkSurfaceLICPainter16SetNumberOfStepsEi' type='func-type' binding='global-binding' visibility='default-visibility' is-defined='yes'/>
    <elf-symbol name='_ZN20vtkSurfaceLICPainter16UpdateNoiseImageEP15vtkRenderWindow' type='func-type' binding='global-binding' visibility='default-visibility' is-defined='yes'/>
    <elf-symbol name='_ZN20vtkSurfaceLICPainter16VectorsToTCoordsEP10vtkDataSet' type='func-type' binding='global-binding' visibility='default-visibility' is-defined='yes'/>
    <elf-symbol name='_ZN20vtkSurfaceLICPainter16VectorsToTCoordsEP13vtkDataObject' type='func-type' binding='global-binding' visibility='default-visibility' is-defined='yes'/>
    <elf-symbol name='_ZN20vtkSurfaceLICPainter17SetNoiseGrainSizeEi' type='func-type' binding='global-binding' visibility='default-visibility' is-defined='yes'/>
    <elf-symbol name='_ZN20vtkSurfaceLICPainter18CreateCommunicatorEi' type='func-type' binding='global-binding' visibility='default-visibility' is-defined='yes'/>
    <elf-symbol name='_ZN20vtkSurfaceLICPainter18CreateCommunicatorEv' type='func-type' binding='global-binding' visibility='default-visibility' is-defined='yes'/>
    <elf-symbol name='_ZN20vtkSurfaceLICPainter18ProcessInformationEP14vtkInformation' type='func-type' binding='global-binding' visibility='default-visibility' is-defined='yes'/>
    <elf-symbol name='_ZN20vtkSurfaceLICPainter18SetEnhanceContrastEi' type='func-type' binding='global-binding' visibility='default-visibility' is-defined='yes'/>
    <elf-symbol name='_ZN20vtkSurfaceLICPainter19CanRenderSurfaceLICEP8vtkActori' type='func-type' binding='global-binding' visibility='default-visibility' is-defined='yes'/>
    <elf-symbol name='_ZN20vtkSurfaceLICPainter19InitializeResourcesEv' type='func-type' binding='global-binding' visibility='default-visibility' is-defined='yes'/>
    <elf-symbol name='_ZN20vtkSurfaceLICPainter19NeedToGatherVectorsEv' type='func-type' binding='global-binding' visibility='default-visibility' is-defined='yes'/>
    <elf-symbol name='_ZN20vtkSurfaceLICPainter19SetNoiseTextureSizeEi' type='func-type' binding='global-binding' visibility='default-visibility' is-defined='yes'/>
    <elf-symbol name='_ZN20vtkSurfaceLICPainter19SetNormalizeVectorsEi' type='func-type' binding='global-binding' visibility='default-visibility' is-defined='yes'/>
    <elf-symbol name='_ZN20vtkSurfaceLICPainter20NeedToRenderGeometryEP11vtkRendererP8vtkActor' type='func-type' binding='global-binding' visibility='default-visibility' is-defined='yes'/>
    <elf-symbol name='_ZN20vtkSurfaceLICPainter20SetCompositeStrategyEi' type='func-type' binding='global-binding' visibility='default-visibility' is-defined='yes'/>
    <elf-symbol name='_ZN20vtkSurfaceLICPainter21SetNoiseGeneratorSeedEi' type='func-type' binding='global-binding' visibility='default-visibility' is-defined='yes'/>
    <elf-symbol name='_ZN20vtkSurfaceLICPainter22NeedToUpdateOutputDataEv' type='func-type' binding='global-binding' visibility='default-visibility' is-defined='yes'/>
    <elf-symbol name='_ZN20vtkSurfaceLICPainter22SetInputArrayToProcessEiPKc' type='func-type' binding='global-binding' visibility='default-visibility' is-defined='yes'/>
    <elf-symbol name='_ZN20vtkSurfaceLICPainter22SetInputArrayToProcessEii' type='func-type' binding='global-binding' visibility='default-visibility' is-defined='yes'/>
    <elf-symbol name='_ZN20vtkSurfaceLICPainter22SetNumberOfNoiseLevelsEi' type='func-type' binding='global-binding' visibility='default-visibility' is-defined='yes'/>
    <elf-symbol name='_ZN20vtkSurfaceLICPainter23SetGenerateNoiseTextureEi' type='func-type' binding='global-binding' visibility='default-visibility' is-defined='yes'/>
    <elf-symbol name='_ZN20vtkSurfaceLICPainter24NeedToUpdateCommunicatorEv' type='func-type' binding='global-binding' visibility='default-visibility' is-defined='yes'/>
    <elf-symbol name='_ZN20vtkSurfaceLICPainter24ReleaseGraphicsResourcesEP9vtkWindow' type='func-type' binding='global-binding' visibility='default-visibility' is-defined='yes'/>
    <elf-symbol name='_ZN20vtkSurfaceLICPainter26SetImpulseNoiseProbabilityEd' type='func-type' binding='global-binding' visibility='default-visibility' is-defined='yes'/>
    <elf-symbol name='_ZN20vtkSurfaceLICPainter30SetImpulseNoiseBackgroundValueEd' type='func-type' binding='global-binding' visibility='default-visibility' is-defined='yes'/>
    <elf-symbol name='_ZN20vtkSurfaceLICPainter34SetLowLICContrastEnhancementFactorEd' type='func-type' binding='global-binding' visibility='default-visibility' is-defined='yes'/>
    <elf-symbol name='_ZN20vtkSurfaceLICPainter35SetHighLICContrastEnhancementFactorEd' type='func-type' binding='global-binding' visibility='default-visibility' is-defined='yes'/>
    <elf-symbol name='_ZN20vtkSurfaceLICPainter36SetLowColorContrastEnhancementFactorEd' type='func-type' binding='global-binding' visibility='default-visibility' is-defined='yes'/>
    <elf-symbol name='_ZN20vtkSurfaceLICPainter37SetHighColorContrastEnhancementFactorEd' type='func-type' binding='global-binding' visibility='default-visibility' is-defined='yes'/>
    <elf-symbol name='_ZN20vtkSurfaceLICPainter3NewEv' type='func-type' binding='global-binding' visibility='default-visibility' is-defined='yes'/>
    <elf-symbol name='_ZN20vtkSurfaceLICPainter9GetBoundsEP13vtkDataObjectPd' type='func-type' binding='global-binding' visibility='default-visibility' is-defined='yes'/>
    <elf-symbol name='_ZN20vtkSurfaceLICPainter9GetOutputEv' type='func-type' binding='global-binding' visibility='default-visibility' is-defined='yes'/>
    <elf-symbol name='_ZN20vtkSurfaceLICPainter9PrintSelfERSo9vtkIndent' type='func-type' binding='global-binding' visibility='default-visibility' is-defined='yes'/>
    <elf-symbol name='_ZN20vtkSurfaceLICPainter9SetEnableEi' type='func-type' binding='global-binding' visibility='default-visibility' is-defined='yes'/>
    <elf-symbol name='_ZN20vtkSurfaceLICPainterC1Ev' type='func-type' binding='global-binding' visibility='default-visibility' alias='_ZN20vtkSurfaceLICPainterC2Ev' is-defined='yes'/>
    <elf-symbol name='_ZN20vtkSurfaceLICPainterC2Ev' type='func-type' binding='global-binding' visibility='default-visibility' is-defined='yes'/>
    <elf-symbol name='_ZN20vtkSurfaceLICPainterD0Ev' type='func-type' binding='global-binding' visibility='default-visibility' is-defined='yes'/>
    <elf-symbol name='_ZN20vtkSurfaceLICPainterD1Ev' type='func-type' binding='global-binding' visibility='default-visibility' alias='_ZN20vtkSurfaceLICPainterD2Ev' is-defined='yes'/>
    <elf-symbol name='_ZN20vtkSurfaceLICPainterD2Ev' type='func-type' binding='global-binding' visibility='default-visibility' is-defined='yes'/>
    <elf-symbol name='_ZN22vtkStructuredGridLIC2D10GetContextEv' type='func-type' binding='global-binding' visibility='default-visibility' is-defined='yes'/>
    <elf-symbol name='_ZN22vtkStructuredGridLIC2D10SetContextEP15vtkRenderWindow' type='func-type' binding='global-binding' visibility='default-visibility' is-defined='yes'/>
    <elf-symbol name='_ZN22vtkStructuredGridLIC2D11RequestDataEP14vtkInformationPP20vtkInformationVectorS3_' type='func-type' binding='global-binding' visibility='default-visibility' is-defined='yes'/>
    <elf-symbol name='_ZN22vtkStructuredGridLIC2D15AllocateScalarsEP17vtkStructuredGridP14vtkInformation' type='func-type' binding='global-binding' visibility='default-visibility' is-defined='yes'/>
    <elf-symbol name='_ZN22vtkStructuredGridLIC2D18AllocateOutputDataEP13vtkDataObjectP14vtkInformation' type='func-type' binding='global-binding' visibility='default-visibility' is-defined='yes'/>
    <elf-symbol name='_ZN22vtkStructuredGridLIC2D18RequestInformationEP14vtkInformationPP20vtkInformationVectorS3_' type='func-type' binding='global-binding' visibility='default-visibility' is-defined='yes'/>
    <elf-symbol name='_ZN22vtkStructuredGridLIC2D19RequestUpdateExtentEP14vtkInformationPP20vtkInformationVectorS3_' type='func-type' binding='global-binding' visibility='default-visibility' is-defined='yes'/>
    <elf-symbol name='_ZN22vtkStructuredGridLIC2D24FillInputPortInformationEiP14vtkInformation' type='func-type' binding='global-binding' visibility='default-visibility' is-defined='yes'/>
    <elf-symbol name='_ZN22vtkStructuredGridLIC2D25FillOutputPortInformationEiP14vtkInformation' type='func-type' binding='global-binding' visibility='default-visibility' is-defined='yes'/>
    <elf-symbol name='_ZN22vtkStructuredGridLIC2D3NewEv' type='func-type' binding='global-binding' visibility='default-visibility' is-defined='yes'/>
    <elf-symbol name='_ZN22vtkStructuredGridLIC2D9PrintSelfERSo9vtkIndent' type='func-type' binding='global-binding' visibility='default-visibility' is-defined='yes'/>
    <elf-symbol name='_ZN22vtkStructuredGridLIC2DC1Ev' type='func-type' binding='global-binding' visibility='default-visibility' alias='_ZN22vtkStructuredGridLIC2DC2Ev' is-defined='yes'/>
    <elf-symbol name='_ZN22vtkStructuredGridLIC2DC2Ev' type='func-type' binding='global-binding' visibility='default-visibility' is-defined='yes'/>
    <elf-symbol name='_ZN22vtkStructuredGridLIC2DD0Ev' type='func-type' binding='global-binding' visibility='default-visibility' is-defined='yes'/>
    <elf-symbol name='_ZN22vtkStructuredGridLIC2DD1Ev' type='func-type' binding='global-binding' visibility='default-visibility' alias='_ZN22vtkStructuredGridLIC2DD2Ev' is-defined='yes'/>
    <elf-symbol name='_ZN22vtkStructuredGridLIC2DD2Ev' type='func-type' binding='global-binding' visibility='default-visibility' is-defined='yes'/>
    <elf-symbol name='_ZN22vtkSurfaceLICComposite10InitializeERK14vtkPixelExtentRKSt5dequeIS0_SaIS0_EEidiiii' type='func-type' binding='global-binding' visibility='default-visibility' is-defined='yes'/>
    <elf-symbol name='_ZN22vtkSurfaceLICComposite14AddGuardPixelsERKSt5dequeI14vtkPixelExtentSaIS1_EERS3_S6_Pf' type='func-type' binding='global-binding' visibility='default-visibility' is-defined='yes'/>
    <elf-symbol name='_ZN22vtkSurfaceLICComposite14GetFudgeFactorEPi' type='func-type' binding='global-binding' visibility='default-visibility' is-defined='yes'/>
    <elf-symbol name='_ZN22vtkSurfaceLICComposite14GetPixelBoundsEPfiR14vtkPixelExtent' type='func-type' binding='global-binding' visibility='default-visibility' is-defined='yes'/>
    <elf-symbol name='_ZN22vtkSurfaceLICComposite18MakeDecompDisjointERKSt5dequeI14vtkPixelExtentSaIS1_EERS3_Pf' type='func-type' binding='global-binding' visibility='default-visibility' is-defined='yes'/>
    <elf-symbol name='_ZN22vtkSurfaceLICComposite18MakeDecompDisjointERSt5dequeI14vtkPixelExtentSaIS1_EES4_' type='func-type' binding='global-binding' visibility='default-visibility' is-defined='yes'/>
    <elf-symbol name='_ZN22vtkSurfaceLICComposite26InitializeCompositeExtentsEPf' type='func-type' binding='global-binding' visibility='default-visibility' is-defined='yes'/>
    <elf-symbol name='_ZN22vtkSurfaceLICComposite3NewEv' type='func-type' binding='global-binding' visibility='default-visibility' is-defined='yes'/>
    <elf-symbol name='_ZN22vtkSurfaceLICComposite9PrintSelfERSo9vtkIndent' type='func-type' binding='global-binding' visibility='default-visibility' is-defined='yes'/>
    <elf-symbol name='_ZN22vtkSurfaceLICComposite9VectorMaxERK14vtkPixelExtentPf' type='func-type' binding='global-binding' visibility='default-visibility' is-defined='yes'/>
    <elf-symbol name='_ZN22vtkSurfaceLICComposite9VectorMaxERKSt5dequeI14vtkPixelExtentSaIS1_EEPfRSt6vectorIfSaIfEE' type='func-type' binding='global-binding' visibility='default-visibility' is-defined='yes'/>
    <elf-symbol name='_ZN22vtkSurfaceLICCompositeC1Ev' type='func-type' binding='global-binding' visibility='default-visibility' alias='_ZN22vtkSurfaceLICCompositeC2Ev' is-defined='yes'/>
    <elf-symbol name='_ZN22vtkSurfaceLICCompositeC2Ev' type='func-type' binding='global-binding' visibility='default-visibility' is-defined='yes'/>
    <elf-symbol name='_ZN22vtkSurfaceLICCompositeD0Ev' type='func-type' binding='global-binding' visibility='default-visibility' is-defined='yes'/>
    <elf-symbol name='_ZN22vtkSurfaceLICCompositeD1Ev' type='func-type' binding='global-binding' visibility='default-visibility' alias='_ZN22vtkSurfaceLICCompositeD2Ev' is-defined='yes'/>
    <elf-symbol name='_ZN22vtkSurfaceLICCompositeD2Ev' type='func-type' binding='global-binding' visibility='default-visibility' is-defined='yes'/>
    <elf-symbol name='_ZN27vtkSurfaceLICDefaultPainter12UpdateBoundsEPd' type='func-type' binding='global-binding' visibility='default-visibility' is-defined='yes'/>
    <elf-symbol name='_ZN27vtkSurfaceLICDefaultPainter16ReportReferencesEP19vtkGarbageCollector' type='func-type' binding='global-binding' visibility='default-visibility' is-defined='yes'/>
    <elf-symbol name='_ZN27vtkSurfaceLICDefaultPainter17BuildPainterChainEv' type='func-type' binding='global-binding' visibility='default-visibility' is-defined='yes'/>
    <elf-symbol name='_ZN27vtkSurfaceLICDefaultPainter20SetSurfaceLICPainterEP20vtkSurfaceLICPainter' type='func-type' binding='global-binding' visibility='default-visibility' is-defined='yes'/>
    <elf-symbol name='_ZN27vtkSurfaceLICDefaultPainter3NewEv' type='func-type' binding='global-binding' visibility='default-visibility' is-defined='yes'/>
    <elf-symbol name='_ZN27vtkSurfaceLICDefaultPainter9PrintSelfERSo9vtkIndent' type='func-type' binding='global-binding' visibility='default-visibility' is-defined='yes'/>
    <elf-symbol name='_ZN27vtkSurfaceLICDefaultPainterC1Ev' type='func-type' binding='global-binding' visibility='default-visibility' is-defined='yes'/>
    <elf-symbol name='_ZN27vtkSurfaceLICDefaultPainterC2Ev' type='func-type' binding='global-binding' visibility='default-visibility' alias='_ZN27vtkSurfaceLICDefaultPainterC1Ev' is-defined='yes'/>
    <elf-symbol name='_ZN27vtkSurfaceLICDefaultPainterD0Ev' type='func-type' binding='global-binding' visibility='default-visibility' is-defined='yes'/>
    <elf-symbol name='_ZN27vtkSurfaceLICDefaultPainterD1Ev' type='func-type' binding='global-binding' visibility='default-visibility' alias='_ZN27vtkSurfaceLICDefaultPainterD2Ev' is-defined='yes'/>
    <elf-symbol name='_ZN27vtkSurfaceLICDefaultPainterD2Ev' type='func-type' binding='global-binding' visibility='default-visibility' is-defined='yes'/>
    <elf-symbol name='_ZN28vtkLineIntegralConvolution2D10GetContextEv' type='func-type' binding='global-binding' visibility='default-visibility' is-defined='yes'/>
    <elf-symbol name='_ZN28vtkLineIntegralConvolution2D10SetContextEP15vtkRenderWindow' type='func-type' binding='global-binding' visibility='default-visibility' is-defined='yes'/>
    <elf-symbol name='_ZN28vtkLineIntegralConvolution2D11IsSupportedEP15vtkRenderWindow' type='func-type' binding='global-binding' visibility='default-visibility' is-defined='yes'/>
    <elf-symbol name='_ZN28vtkLineIntegralConvolution2D11SetCEShaderEP17vtkShaderProgram2' type='func-type' binding='global-binding' visibility='default-visibility' is-defined='yes'/>
    <elf-symbol name='_ZN28vtkLineIntegralConvolution2D11SetEEShaderEP17vtkShaderProgram2' type='func-type' binding='global-binding' visibility='default-visibility' is-defined='yes'/>
    <elf-symbol name='_ZN28vtkLineIntegralConvolution2D11SetVTShaderEP17vtkShaderProgram2' type='func-type' binding='global-binding' visibility='default-visibility' is-defined='yes'/>
    <elf-symbol name='_ZN28vtkLineIntegralConvolution2D12BuildShadersEv' type='func-type' binding='global-binding' visibility='default-visibility' is-defined='yes'/>
    <elf-symbol name='_ZN28vtkLineIntegralConvolution2D12SetAAHShaderEP17vtkShaderProgram2' type='func-type' binding='global-binding' visibility='default-visibility' is-defined='yes'/>
    <elf-symbol name='_ZN28vtkLineIntegralConvolution2D12SetAAVShaderEP17vtkShaderProgram2' type='func-type' binding='global-binding' visibility='default-visibility' is-defined='yes'/>
    <elf-symbol name='_ZN28vtkLineIntegralConvolution2D13SetLIC0ShaderEP17vtkShaderProgram2' type='func-type' binding='global-binding' visibility='default-visibility' is-defined='yes'/>
    <elf-symbol name='_ZN28vtkLineIntegralConvolution2D13SetLICIShaderEP17vtkShaderProgram2' type='func-type' binding='global-binding' visibility='default-visibility' is-defined='yes'/>
    <elf-symbol name='_ZN28vtkLineIntegralConvolution2D13SetLICNShaderEP17vtkShaderProgram2' type='func-type' binding='global-binding' visibility='default-visibility' is-defined='yes'/>
    <elf-symbol name='_ZN28vtkLineIntegralConvolution2D15GetCommunicatorEv' type='func-type' binding='global-binding' visibility='default-visibility' is-defined='yes'/>
    <elf-symbol name='_ZN28vtkLineIntegralConvolution2D15SetComponentIdsEii' type='func-type' binding='global-binding' visibility='default-visibility' is-defined='yes'/>
    <elf-symbol name='_ZN28vtkLineIntegralConvolution2D19SetNormalizeVectorsEi' type='func-type' binding='global-binding' visibility='default-visibility' is-defined='yes'/>
    <elf-symbol name='_ZN28vtkLineIntegralConvolution2D19SetTransformVectorsEi' type='func-type' binding='global-binding' visibility='default-visibility' is-defined='yes'/>
    <elf-symbol name='_ZN28vtkLineIntegralConvolution2D21SetNoiseTexParametersEP16vtkTextureObject' type='func-type' binding='global-binding' visibility='default-visibility' is-defined='yes'/>
    <elf-symbol name='_ZN28vtkLineIntegralConvolution2D22SetVectorTexParametersEP16vtkTextureObject' type='func-type' binding='global-binding' visibility='default-visibility' is-defined='yes'/>
    <elf-symbol name='_ZN28vtkLineIntegralConvolution2D3NewEv' type='func-type' binding='global-binding' visibility='default-visibility' is-defined='yes'/>
    <elf-symbol name='_ZN28vtkLineIntegralConvolution2D7ExecuteEP16vtkTextureObjectS1_' type='func-type' binding='global-binding' visibility='default-visibility' is-defined='yes'/>
    <elf-symbol name='_ZN28vtkLineIntegralConvolution2D7ExecuteEPKiP16vtkTextureObjectS3_' type='func-type' binding='global-binding' visibility='default-visibility' is-defined='yes'/>
    <elf-symbol name='_ZN28vtkLineIntegralConvolution2D7ExecuteERK14vtkPixelExtentRKSt5dequeIS0_SaIS0_EES7_P16vtkTextureObjectS9_S9_' type='func-type' binding='global-binding' visibility='default-visibility' is-defined='yes'/>
    <elf-symbol name='_ZN28vtkLineIntegralConvolution2D9PrintSelfERSo9vtkIndent' type='func-type' binding='global-binding' visibility='default-visibility' is-defined='yes'/>
    <elf-symbol name='_ZN28vtkLineIntegralConvolution2DC1Ev' type='func-type' binding='global-binding' visibility='default-visibility' alias='_ZN28vtkLineIntegralConvolution2DC2Ev' is-defined='yes'/>
    <elf-symbol name='_ZN28vtkLineIntegralConvolution2DC2Ev' type='func-type' binding='global-binding' visibility='default-visibility' is-defined='yes'/>
    <elf-symbol name='_ZN28vtkLineIntegralConvolution2DD0Ev' type='func-type' binding='global-binding' visibility='default-visibility' is-defined='yes'/>
    <elf-symbol name='_ZN28vtkLineIntegralConvolution2DD1Ev' type='func-type' binding='global-binding' visibility='default-visibility' alias='_ZN28vtkLineIntegralConvolution2DD2Ev' is-defined='yes'/>
    <elf-symbol name='_ZN28vtkLineIntegralConvolution2DD2Ev' type='func-type' binding='global-binding' visibility='default-visibility' is-defined='yes'/>
    <elf-symbol name='_ZN33vtkImageDataLIC2DExtentTranslator12GetAlgorithmEv' type='func-type' binding='global-binding' visibility='default-visibility' is-defined='yes'/>
    <elf-symbol name='_ZN33vtkImageDataLIC2DExtentTranslator12SetAlgorithmEP17vtkImageDataLIC2D' type='func-type' binding='global-binding' visibility='default-visibility' is-defined='yes'/>
    <elf-symbol name='_ZN33vtkImageDataLIC2DExtentTranslator23PieceToExtentThreadSafeEiiiPiS0_ii' type='func-type' binding='global-binding' visibility='default-visibility' is-defined='yes'/>
    <elf-symbol name='_ZN33vtkImageDataLIC2DExtentTranslator24SetInputExtentTranslatorEP19vtkExtentTranslator' type='func-type' binding='global-binding' visibility='default-visibility' is-defined='yes'/>
    <elf-symbol name='_ZN33vtkImageDataLIC2DExtentTranslator3NewEv' type='func-type' binding='global-binding' visibility='default-visibility' is-defined='yes'/>
    <elf-symbol name='_ZN33vtkImageDataLIC2DExtentTranslator9PrintSelfERSo9vtkIndent' type='func-type' binding='global-binding' visibility='default-visibility' is-defined='yes'/>
    <elf-symbol name='_ZN33vtkImageDataLIC2DExtentTranslatorC1Ev' type='func-type' binding='global-binding' visibility='default-visibility' alias='_ZN33vtkImageDataLIC2DExtentTranslatorC2Ev' is-defined='yes'/>
    <elf-symbol name='_ZN33vtkImageDataLIC2DExtentTranslatorC2Ev' type='func-type' binding='global-binding' visibility='default-visibility' is-defined='yes'/>
    <elf-symbol name='_ZN33vtkImageDataLIC2DExtentTranslatorD0Ev' type='func-type' binding='global-binding' visibility='default-visibility' is-defined='yes'/>
    <elf-symbol name='_ZN33vtkImageDataLIC2DExtentTranslatorD1Ev' type='func-type' binding='global-binding' visibility='default-visibility' alias='_ZN33vtkImageDataLIC2DExtentTranslatorD2Ev' is-defined='yes'/>
    <elf-symbol name='_ZN33vtkImageDataLIC2DExtentTranslatorD2Ev' type='func-type' binding='global-binding' visibility='default-visibility' is-defined='yes'/>
    <elf-symbol name='_ZN9__gnu_cxx13new_allocatorI14vtkPixelExtentE8allocateEmPKv' type='func-type' binding='weak-binding' visibility='default-visibility' is-defined='yes'/>
    <elf-symbol name='_ZNKSt15_Deque_iteratorI14vtkPixelExtentRS0_PS0_EplEl' type='func-type' binding='weak-binding' visibility='default-visibility' is-defined='yes'/>
    <elf-symbol name='_ZNSt11_Deque_baseI14vtkPixelExtentSaIS0_EE17_M_initialize_mapEm' type='func-type' binding='weak-binding' visibility='default-visibility' is-defined='yes'/>
    <elf-symbol name='_ZNSt11_Deque_baseI14vtkPixelExtentSaIS0_EED1Ev' type='func-type' binding='weak-binding' visibility='default-visibility' alias='_ZNSt11_Deque_baseI14vtkPixelExtentSaIS0_EED2Ev' is-defined='yes'/>
    <elf-symbol name='_ZNSt11_Deque_baseI14vtkPixelExtentSaIS0_EED2Ev' type='func-type' binding='weak-binding' visibility='default-visibility' is-defined='yes'/>
    <elf-symbol name='_ZNSt15_Deque_iteratorI14vtkPixelExtentRS0_PS0_EpLEl' type='func-type' binding='weak-binding' visibility='default-visibility' is-defined='yes'/>
    <elf-symbol name='_ZNSt5dequeI14vtkPixelExtentSaIS0_EE13_M_insert_auxISt15_Deque_iteratorIS0_RKS0_PS5_EEEvS4_IS0_RS0_PS0_ET_SC_m' type='func-type' binding='weak-binding' visibility='default-visibility' is-defined='yes'/>
    <elf-symbol name='_ZNSt5dequeI14vtkPixelExtentSaIS0_EE13_M_insert_auxISt15_Deque_iteratorIS0_RS0_PS0_EEEvS7_T_S8_m' type='func-type' binding='weak-binding' visibility='default-visibility' is-defined='yes'/>
    <elf-symbol name='_ZNSt5dequeI14vtkPixelExtentSaIS0_EE17_M_reallocate_mapEmb' type='func-type' binding='weak-binding' visibility='default-visibility' is-defined='yes'/>
    <elf-symbol name='_ZNSt5dequeI14vtkPixelExtentSaIS0_EE19_M_range_insert_auxISt15_Deque_iteratorIS0_RKS0_PS5_EEEvS4_IS0_RS0_PS0_ET_SC_St20forward_iterator_tag' type='func-type' binding='weak-binding' visibility='default-visibility' is-defined='yes'/>
    <elf-symbol name='_ZNSt5dequeI14vtkPixelExtentSaIS0_EE19_M_range_insert_auxISt15_Deque_iteratorIS0_RS0_PS0_EEEvS7_T_S8_St20forward_iterator_tag' type='func-type' binding='weak-binding' visibility='default-visibility' is-defined='yes'/>
    <elf-symbol name='_ZNSt5dequeI14vtkPixelExtentSaIS0_EE22_M_reserve_map_at_backEm' type='func-type' binding='weak-binding' visibility='default-visibility' is-defined='yes'/>
    <elf-symbol name='_ZNSt5dequeI14vtkPixelExtentSaIS0_EE23_M_new_elements_at_backEm' type='func-type' binding='weak-binding' visibility='default-visibility' is-defined='yes'/>
    <elf-symbol name='_ZNSt5dequeI14vtkPixelExtentSaIS0_EE24_M_new_elements_at_frontEm' type='func-type' binding='weak-binding' visibility='default-visibility' is-defined='yes'/>
    <elf-symbol name='_ZNSt5dequeI14vtkPixelExtentSaIS0_EE27_M_reserve_elements_at_backEm' type='func-type' binding='weak-binding' visibility='default-visibility' is-defined='yes'/>
    <elf-symbol name='_ZNSt5dequeI14vtkPixelExtentSaIS0_EE28_M_reserve_elements_at_frontEm' type='func-type' binding='weak-binding' visibility='default-visibility' is-defined='yes'/>
    <elf-symbol name='_ZNSt5dequeI14vtkPixelExtentSaIS0_EEC1ERKS2_' type='func-type' binding='weak-binding' visibility='default-visibility' is-defined='yes'/>
    <elf-symbol name='_ZNSt5dequeI14vtkPixelExtentSaIS0_EEC2ERKS2_' type='func-type' binding='weak-binding' visibility='default-visibility' alias='_ZNSt5dequeI14vtkPixelExtentSaIS0_EEC1ERKS2_' is-defined='yes'/>
    <elf-symbol name='_ZNSt5dequeI14vtkPixelExtentSaIS0_EEaSERKS2_' type='func-type' binding='weak-binding' visibility='default-visibility' is-defined='yes'/>
    <elf-symbol name='_ZNSt6vectorIfSaIfEE14_M_fill_insertEN9__gnu_cxx17__normal_iteratorIPfS1_EEmRKf' type='func-type' binding='weak-binding' visibility='default-visibility' is-defined='yes'/>
    <elf-symbol name='_ZSt11__push_heapISt15_Deque_iteratorI14vtkPixelExtentRS1_PS1_ElS1_EvT_T0_S6_T1_' type='func-type' binding='weak-binding' visibility='default-visibility' is-defined='yes'/>
    <elf-symbol name='_ZSt13__adjust_heapISt15_Deque_iteratorI14vtkPixelExtentRS1_PS1_ElS1_EvT_T0_S6_T1_' type='func-type' binding='weak-binding' visibility='default-visibility' is-defined='yes'/>
    <elf-symbol name='_ZSt16__insertion_sortISt15_Deque_iteratorI14vtkPixelExtentRS1_PS1_EEvT_S5_' type='func-type' binding='weak-binding' visibility='default-visibility' is-defined='yes'/>
    <elf-symbol name='_ZSt16__introsort_loopISt15_Deque_iteratorI14vtkPixelExtentRS1_PS1_ElEvT_S5_T0_' type='func-type' binding='weak-binding' visibility='default-visibility' is-defined='yes'/>
    <elf-symbol name='_ZSt21__unguarded_partitionISt15_Deque_iteratorI14vtkPixelExtentRS1_PS1_ES1_ET_S5_S5_T0_' type='func-type' binding='weak-binding' visibility='default-visibility' is-defined='yes'/>
    <elf-symbol name='_ZSt22__final_insertion_sortISt15_Deque_iteratorI14vtkPixelExtentRS1_PS1_EEvT_S5_' type='func-type' binding='weak-binding' visibility='default-visibility' is-defined='yes'/>
    <elf-symbol name='_ZSt22__uninitialized_copy_aISt15_Deque_iteratorI14vtkPixelExtentRS1_PS1_ES4_S1_ET0_T_S6_S5_RSaIT1_E' type='func-type' binding='weak-binding' visibility='default-visibility' is-defined='yes'/>
    <elf-symbol name='_ZSt22__uninitialized_move_aIPfS0_SaIfEET0_T_S3_S2_RT1_' type='func-type' binding='weak-binding' visibility='default-visibility' is-defined='yes'/>
    <elf-symbol name='_ZSt25__unguarded_linear_insertISt15_Deque_iteratorI14vtkPixelExtentRS1_PS1_ES1_EvT_T0_' type='func-type' binding='weak-binding' visibility='default-visibility' is-defined='yes'/>
    <elf-symbol name='_ZSt4copyISt15_Deque_iteratorI14vtkPixelExtentRS1_PS1_ES4_ET0_T_S6_S5_' type='func-type' binding='weak-binding' visibility='default-visibility' is-defined='yes'/>
    <elf-symbol name='_ZSt9make_heapISt15_Deque_iteratorI14vtkPixelExtentRS1_PS1_EEvT_S5_' type='func-type' binding='weak-binding' visibility='default-visibility' is-defined='yes'/>
    <elf-symbol name='_fini' type='func-type' binding='global-binding' visibility='default-visibility' is-defined='yes'/>
    <elf-symbol name='_init' type='func-type' binding='global-binding' visibility='default-visibility' is-defined='yes'/>
  </elf-function-symbols>
  <elf-variable-symbols>
    <elf-symbol name='_ZTI17vtkImageDataLIC2D' size='24' type='object-type' binding='weak-binding' visibility='default-visibility' is-defined='yes'/>
    <elf-symbol name='_ZTI20vtkSurfaceLICPainter' size='24' type='object-type' binding='weak-binding' visibility='default-visibility' is-defined='yes'/>
    <elf-symbol name='_ZTI22vtkPainterCommunicator' size='16' type='object-type' binding='weak-binding' visibility='default-visibility' is-defined='yes'/>
    <elf-symbol name='_ZTI22vtkStructuredGridLIC2D' size='24' type='object-type' binding='weak-binding' visibility='default-visibility' is-defined='yes'/>
    <elf-symbol name='_ZTI22vtkSurfaceLICComposite' size='24' type='object-type' binding='weak-binding' visibility='default-visibility' is-defined='yes'/>
    <elf-symbol name='_ZTI27vtkSurfaceLICDefaultPainter' size='24' type='object-type' binding='weak-binding' visibility='default-visibility' is-defined='yes'/>
    <elf-symbol name='_ZTI28vtkLineIntegralConvolution2D' size='24' type='object-type' binding='weak-binding' visibility='default-visibility' is-defined='yes'/>
    <elf-symbol name='_ZTI33vtkImageDataLIC2DExtentTranslator' size='24' type='object-type' binding='weak-binding' visibility='default-visibility' is-defined='yes'/>
    <elf-symbol name='_ZTS17vtkImageDataLIC2D' size='20' type='object-type' binding='weak-binding' visibility='default-visibility' is-defined='yes'/>
    <elf-symbol name='_ZTS20vtkSurfaceLICPainter' size='23' type='object-type' binding='weak-binding' visibility='default-visibility' is-defined='yes'/>
    <elf-symbol name='_ZTS22vtkPainterCommunicator' size='25' type='object-type' binding='weak-binding' visibility='default-visibility' is-defined='yes'/>
    <elf-symbol name='_ZTS22vtkStructuredGridLIC2D' size='25' type='object-type' binding='weak-binding' visibility='default-visibility' is-defined='yes'/>
    <elf-symbol name='_ZTS22vtkSurfaceLICComposite' size='25' type='object-type' binding='weak-binding' visibility='default-visibility' is-defined='yes'/>
    <elf-symbol name='_ZTS27vtkSurfaceLICDefaultPainter' size='30' type='object-type' binding='weak-binding' visibility='default-visibility' is-defined='yes'/>
    <elf-symbol name='_ZTS28vtkLineIntegralConvolution2D' size='31' type='object-type' binding='weak-binding' visibility='default-visibility' is-defined='yes'/>
    <elf-symbol name='_ZTS33vtkImageDataLIC2DExtentTranslator' size='36' type='object-type' binding='weak-binding' visibility='default-visibility' is-defined='yes'/>
    <elf-symbol name='_ZTV17vtkImageDataLIC2D' size='720' type='object-type' binding='weak-binding' visibility='default-visibility' is-defined='yes'/>
    <elf-symbol name='_ZTV20vtkSurfaceLICPainter' size='696' type='object-type' binding='weak-binding' visibility='default-visibility' is-defined='yes'/>
    <elf-symbol name='_ZTV22vtkPainterCommunicator' size='104' type='object-type' binding='weak-binding' visibility='default-visibility' is-defined='yes'/>
    <elf-symbol name='_ZTV22vtkStructuredGridLIC2D' size='664' type='object-type' binding='weak-binding' visibility='default-visibility' is-defined='yes'/>
    <elf-symbol name='_ZTV22vtkSurfaceLICComposite' size='232' type='object-type' binding='weak-binding' visibility='default-visibility' is-defined='yes'/>
    <elf-symbol name='_ZTV27vtkSurfaceLICDefaultPainter' size='408' type='object-type' binding='weak-binding' visibility='default-visibility' is-defined='yes'/>
    <elf-symbol name='_ZTV28vtkLineIntegralConvolution2D' size='600' type='object-type' binding='weak-binding' visibility='default-visibility' is-defined='yes'/>
    <elf-symbol name='_ZTV33vtkImageDataLIC2DExtentTranslator' size='384' type='object-type' binding='weak-binding' visibility='default-visibility' is-defined='yes'/>
    <elf-symbol name='vtkLineIntegralConvolution2D_AAH' size='8' type='object-type' binding='global-binding' visibility='default-visibility' is-defined='yes'/>
    <elf-symbol name='vtkLineIntegralConvolution2D_AAV' size='8' type='object-type' binding='global-binding' visibility='default-visibility' is-defined='yes'/>
    <elf-symbol name='vtkLineIntegralConvolution2D_CE' size='8' type='object-type' binding='global-binding' visibility='default-visibility' is-defined='yes'/>
    <elf-symbol name='vtkLineIntegralConvolution2D_EE' size='8' type='object-type' binding='global-binding' visibility='default-visibility' is-defined='yes'/>
    <elf-symbol name='vtkLineIntegralConvolution2D_LIC0' size='8' type='object-type' binding='global-binding' visibility='default-visibility' is-defined='yes'/>
    <elf-symbol name='vtkLineIntegralConvolution2D_LICI' size='8' type='object-type' binding='global-binding' visibility='default-visibility' is-defined='yes'/>
    <elf-symbol name='vtkLineIntegralConvolution2D_LICN' size='8' type='object-type' binding='global-binding' visibility='default-visibility' is-defined='yes'/>
    <elf-symbol name='vtkLineIntegralConvolution2D_VT' size='8' type='object-type' binding='global-binding' visibility='default-visibility' is-defined='yes'/>
    <elf-symbol name='vtkStructuredGridLIC2D_fs' size='8' type='object-type' binding='global-binding' visibility='default-visibility' is-defined='yes'/>
    <elf-symbol name='vtkSurfaceLICPainter_CE' size='8' type='object-type' binding='global-binding' visibility='default-visibility' is-defined='yes'/>
    <elf-symbol name='vtkSurfaceLICPainter_DCpy' size='8' type='object-type' binding='global-binding' visibility='default-visibility' is-defined='yes'/>
    <elf-symbol name='vtkSurfaceLICPainter_GeomFs' size='8' type='object-type' binding='global-binding' visibility='default-visibility' is-defined='yes'/>
    <elf-symbol name='vtkSurfaceLICPainter_GeomVs' size='8' type='object-type' binding='global-binding' visibility='default-visibility' is-defined='yes'/>
    <elf-symbol name='vtkSurfaceLICPainter_SC' size='8' type='object-type' binding='global-binding' visibility='default-visibility' is-defined='yes'/>
  </elf-variable-symbols>
  <abi-instr address-size='64' path='/tmp/legendre/spack-stage/spack-stage-R_crTC/VTK-6.1.0/Rendering/LIC/vtkImageDataLIC2D.cxx' comp-dir-path='/tmp/legendre/spack-stage/spack-stage-R_crTC/VTK-6.1.0/spack-build/Rendering/LIC' language='LANG_C_plus_plus'>
    <type-decl name='bool' size-in-bits='8' id='type-id-1'/>
    <type-decl name='char' size-in-bits='8' id='type-id-2'/>
    <array-type-def dimensions='1' type-id='type-id-2' size-in-bits='8' id='type-id-3'>
      <subrange length='1' type-id='type-id-4' id='type-id-5'/>
    </array-type-def>
    <array-type-def dimensions='1' type-id='type-id-2' size-in-bits='160' id='type-id-6'>
      <subrange length='20' type-id='type-id-4' id='type-id-7'/>
    </array-type-def>
    <array-type-def dimensions='1' type-id='type-id-2' size-in-bits='320' id='type-id-8'>
      <subrange length='40' type-id='type-id-4' id='type-id-9'/>
    </array-type-def>
    <array-type-def dimensions='1' type-id='type-id-2' size-in-bits='32' id='type-id-10'>
      <subrange length='4' type-id='type-id-4' id='type-id-11'/>
    </array-type-def>
    <class-decl name='typedef __va_list_tag __va_list_tag' size-in-bits='192' is-struct='yes' visibility='default' id='type-id-12'>
      <data-member access='public' layout-offset-in-bits='0'>
        <var-decl name='gp_offset' type-id='type-id-13' visibility='default'/>
      </data-member>
      <data-member access='public' layout-offset-in-bits='32'>
        <var-decl name='fp_offset' type-id='type-id-13' visibility='default'/>
      </data-member>
      <data-member access='public' layout-offset-in-bits='64'>
        <var-decl name='overflow_arg_area' type-id='type-id-14' visibility='default'/>
      </data-member>
      <data-member access='public' layout-offset-in-bits='128'>
        <var-decl name='reg_save_area' type-id='type-id-14' visibility='default'/>
      </data-member>
    </class-decl>
    <type-decl name='double' size-in-bits='64' id='type-id-15'/>
    <type-decl name='float' size-in-bits='32' id='type-id-16'/>
    <type-decl name='int' size-in-bits='32' id='type-id-17'/>
    <array-type-def dimensions='1' type-id='type-id-17' size-in-bits='128' id='type-id-18'>
      <subrange length='4' type-id='type-id-4' id='type-id-11'/>
    </array-type-def>
    <type-decl name='long double' size-in-bits='128' id='type-id-19'/>
    <type-decl name='long int' size-in-bits='64' id='type-id-20'/>
    <type-decl name='long long int' size-in-bits='64' id='type-id-21'/>
    <type-decl name='long long unsigned int' size-in-bits='64' id='type-id-22'/>
    <type-decl name='signed char' size-in-bits='8' id='type-id-23'/>
    <type-decl name='unnamed-enum-underlying-type-32' is-anonymous='yes' size-in-bits='32' alignment-in-bits='32' id='type-id-24'/>
    <type-decl name='unsigned int' size-in-bits='32' id='type-id-13'/>
    <type-decl name='unsigned long int' size-in-bits='64' id='type-id-4'/>
    <type-decl name='unsigned short int' size-in-bits='16' id='type-id-25'/>
    <type-decl name='variadic parameter type' id='type-id-26'/>
    <type-decl name='void' id='type-id-27'/>
    <type-decl name='wchar_t' size-in-bits='32' id='type-id-28'/>
    <typedef-decl name='_Atomic_word' type-id='type-id-17' filepath='/usr/lib/gcc/x86_64-redhat-linux/4.4.7/../../../../include/c++/4.4.7/x86_64-redhat-linux/bits/atomic_word.h' line='32' column='1' id='type-id-29'/>
    <typedef-decl name='FILE' type-id='type-id-30' filepath='/usr/include/stdio.h' line='49' column='1' id='type-id-31'/>
    <class-decl name='_IO_FILE' size-in-bits='1728' is-struct='yes' visibility='default' filepath='/usr/include/libio.h' line='271' column='1' id='type-id-30'>
      <data-member access='public' layout-offset-in-bits='0'>
        <var-decl name='_flags' type-id='type-id-17' visibility='default' filepath='/usr/include/libio.h' line='272' column='1'/>
      </data-member>
      <data-member access='public' layout-offset-in-bits='64'>
        <var-decl name='_IO_read_ptr' type-id='type-id-32' visibility='default' filepath='/usr/include/libio.h' line='277' column='1'/>
      </data-member>
      <data-member access='public' layout-offset-in-bits='128'>
        <var-decl name='_IO_read_end' type-id='type-id-32' visibility='default' filepath='/usr/include/libio.h' line='278' column='1'/>
      </data-member>
      <data-member access='public' layout-offset-in-bits='192'>
        <var-decl name='_IO_read_base' type-id='type-id-32' visibility='default' filepath='/usr/include/libio.h' line='279' column='1'/>
      </data-member>
      <data-member access='public' layout-offset-in-bits='256'>
        <var-decl name='_IO_write_base' type-id='type-id-32' visibility='default' filepath='/usr/include/libio.h' line='280' column='1'/>
      </data-member>
      <data-member access='public' layout-offset-in-bits='320'>
        <var-decl name='_IO_write_ptr' type-id='type-id-32' visibility='default' filepath='/usr/include/libio.h' line='281' column='1'/>
      </data-member>
      <data-member access='public' layout-offset-in-bits='384'>
        <var-decl name='_IO_write_end' type-id='type-id-32' visibility='default' filepath='/usr/include/libio.h' line='282' column='1'/>
      </data-member>
      <data-member access='public' layout-offset-in-bits='448'>
        <var-decl name='_IO_buf_base' type-id='type-id-32' visibility='default' filepath='/usr/include/libio.h' line='283' column='1'/>
      </data-member>
      <data-member access='public' layout-offset-in-bits='512'>
        <var-decl name='_IO_buf_end' type-id='type-id-32' visibility='default' filepath='/usr/include/libio.h' line='284' column='1'/>
      </data-member>
      <data-member access='public' layout-offset-in-bits='576'>
        <var-decl name='_IO_save_base' type-id='type-id-32' visibility='default' filepath='/usr/include/libio.h' line='286' column='1'/>
      </data-member>
      <data-member access='public' layout-offset-in-bits='640'>
        <var-decl name='_IO_backup_base' type-id='type-id-32' visibility='default' filepath='/usr/include/libio.h' line='287' column='1'/>
      </data-member>
      <data-member access='public' layout-offset-in-bits='704'>
        <var-decl name='_IO_save_end' type-id='type-id-32' visibility='default' filepath='/usr/include/libio.h' line='288' column='1'/>
      </data-member>
      <data-member access='public' layout-offset-in-bits='768'>
        <var-decl name='_markers' type-id='type-id-33' visibility='default' filepath='/usr/include/libio.h' line='290' column='1'/>
      </data-member>
      <data-member access='public' layout-offset-in-bits='832'>
        <var-decl name='_chain' type-id='type-id-34' visibility='default' filepath='/usr/include/libio.h' line='292' column='1'/>
      </data-member>
      <data-member access='public' layout-offset-in-bits='896'>
        <var-decl name='_fileno' type-id='type-id-17' visibility='default' filepath='/usr/include/libio.h' line='294' column='1'/>
      </data-member>
      <data-member access='public' layout-offset-in-bits='928'>
        <var-decl name='_flags2' type-id='type-id-17' visibility='default' filepath='/usr/include/libio.h' line='298' column='1'/>
      </data-member>
      <data-member access='public' layout-offset-in-bits='960'>
        <var-decl name='_old_offset' type-id='type-id-35' visibility='default' filepath='/usr/include/libio.h' line='300' column='1'/>
      </data-member>
      <data-member access='public' layout-offset-in-bits='1024'>
        <var-decl name='_cur_column' type-id='type-id-25' visibility='default' filepath='/usr/include/libio.h' line='304' column='1'/>
      </data-member>
      <data-member access='public' layout-offset-in-bits='1040'>
        <var-decl name='_vtable_offset' type-id='type-id-23' visibility='default' filepath='/usr/include/libio.h' line='305' column='1'/>
      </data-member>
      <data-member access='public' layout-offset-in-bits='1048'>
        <var-decl name='_shortbuf' type-id='type-id-3' visibility='default' filepath='/usr/include/libio.h' line='306' column='1'/>
      </data-member>
      <data-member access='public' layout-offset-in-bits='1088'>
        <var-decl name='_lock' type-id='type-id-36' visibility='default' filepath='/usr/include/libio.h' line='310' column='1'/>
      </data-member>
      <data-member access='public' layout-offset-in-bits='1152'>
        <var-decl name='_offset' type-id='type-id-37' visibility='default' filepath='/usr/include/libio.h' line='319' column='1'/>
      </data-member>
      <data-member access='public' layout-offset-in-bits='1216'>
        <var-decl name='__pad1' type-id='type-id-14' visibility='default' filepath='/usr/include/libio.h' line='328' column='1'/>
      </data-member>
      <data-member access='public' layout-offset-in-bits='1280'>
        <var-decl name='__pad2' type-id='type-id-14' visibility='default' filepath='/usr/include/libio.h' line='329' column='1'/>
      </data-member>
      <data-member access='public' layout-offset-in-bits='1344'>
        <var-decl name='__pad3' type-id='type-id-14' visibility='default' filepath='/usr/include/libio.h' line='330' column='1'/>
      </data-member>
      <data-member access='public' layout-offset-in-bits='1408'>
        <var-decl name='__pad4' type-id='type-id-14' visibility='default' filepath='/usr/include/libio.h' line='331' column='1'/>
      </data-member>
      <data-member access='public' layout-offset-in-bits='1472'>
        <var-decl name='__pad5' type-id='type-id-38' visibility='default' filepath='/usr/include/libio.h' line='332' column='1'/>
      </data-member>
      <data-member access='public' layout-offset-in-bits='1536'>
        <var-decl name='_mode' type-id='type-id-17' visibility='default' filepath='/usr/include/libio.h' line='334' column='1'/>
      </data-member>
      <data-member access='public' layout-offset-in-bits='1568'>
        <var-decl name='_unused2' type-id='type-id-6' visibility='default' filepath='/usr/include/libio.h' line='336' column='1'/>
      </data-member>
    </class-decl>
    <class-decl name='_IO_marker' size-in-bits='192' is-struct='yes' visibility='default' filepath='/usr/include/libio.h' line='186' column='1' id='type-id-39'>
      <data-member access='public' layout-offset-in-bits='0'>
        <var-decl name='_next' type-id='type-id-33' visibility='default' filepath='/usr/include/libio.h' line='187' column='1'/>
      </data-member>
      <data-member access='public' layout-offset-in-bits='64'>
        <var-decl name='_sbuf' type-id='type-id-34' visibility='default' filepath='/usr/include/libio.h' line='188' column='1'/>
      </data-member>
      <data-member access='public' layout-offset-in-bits='128'>
        <var-decl name='_pos' type-id='type-id-17' visibility='default' filepath='/usr/include/libio.h' line='192' column='1'/>
      </data-member>
    </class-decl>
    <typedef-decl name='__off_t' type-id='type-id-20' filepath='/usr/include/bits/types.h' line='141' column='1' id='type-id-35'/>
    <typedef-decl name='_IO_lock_t' type-id='type-id-27' filepath='/usr/include/libio.h' line='180' column='1' id='type-id-40'/>
    <typedef-decl name='__off64_t' type-id='type-id-20' filepath='/usr/include/bits/types.h' line='142' column='1' id='type-id-37'/>
    <typedef-decl name='size_t' type-id='type-id-4' filepath='/usr/lib/gcc/x86_64-redhat-linux/4.4.7/include/stddef.h' line='211' column='1' id='type-id-38'/>
    <typedef-decl name='__gthread_mutex_t' type-id='type-id-41' filepath='/usr/lib/gcc/x86_64-redhat-linux/4.4.7/../../../../include/c++/4.4.7/x86_64-redhat-linux/bits/gthr-default.h' line='47' column='1' id='type-id-42'/>
    <union-decl name='pthread_mutex_t' size-in-bits='320' visibility='default' filepath='/usr/include/bits/pthreadtypes.h' line='77' column='1' id='type-id-41'>
      <member-type access='public'>
        <class-decl name='__pthread_mutex_s' size-in-bits='320' is-struct='yes' visibility='default' filepath='/usr/include/bits/pthreadtypes.h' line='79' column='1' id='type-id-43'>
          <data-member access='public' layout-offset-in-bits='0'>
            <var-decl name='__lock' type-id='type-id-17' visibility='default' filepath='/usr/include/bits/pthreadtypes.h' line='80' column='1'/>
          </data-member>
          <data-member access='public' layout-offset-in-bits='32'>
            <var-decl name='__count' type-id='type-id-13' visibility='default' filepath='/usr/include/bits/pthreadtypes.h' line='81' column='1'/>
          </data-member>
          <data-member access='public' layout-offset-in-bits='64'>
            <var-decl name='__owner' type-id='type-id-17' visibility='default' filepath='/usr/include/bits/pthreadtypes.h' line='82' column='1'/>
          </data-member>
          <data-member access='public' layout-offset-in-bits='96'>
            <var-decl name='__nusers' type-id='type-id-13' visibility='default' filepath='/usr/include/bits/pthreadtypes.h' line='84' column='1'/>
          </data-member>
          <data-member access='public' layout-offset-in-bits='128'>
            <var-decl name='__kind' type-id='type-id-17' visibility='default' filepath='/usr/include/bits/pthreadtypes.h' line='88' column='1'/>
          </data-member>
          <data-member access='public' layout-offset-in-bits='160'>
            <var-decl name='__spins' type-id='type-id-17' visibility='default' filepath='/usr/include/bits/pthreadtypes.h' line='90' column='1'/>
          </data-member>
          <data-member access='public' layout-offset-in-bits='192'>
            <var-decl name='__list' type-id='type-id-44' visibility='default' filepath='/usr/include/bits/pthreadtypes.h' line='91' column='1'/>
          </data-member>
        </class-decl>
      </member-type>
      <data-member access='public'>
        <var-decl name='__data' type-id='type-id-43' visibility='default' filepath='/usr/include/bits/pthreadtypes.h' line='101' column='1'/>
      </data-member>
      <data-member access='public'>
        <var-decl name='__size' type-id='type-id-8' visibility='default' filepath='/usr/include/bits/pthreadtypes.h' line='102' column='1'/>
      </data-member>
      <data-member access='public'>
        <var-decl name='__align' type-id='type-id-20' visibility='default' filepath='/usr/include/bits/pthreadtypes.h' line='103' column='1'/>
      </data-member>
    </union-decl>
    <typedef-decl name='__pthread_list_t' type-id='type-id-45' filepath='/usr/include/bits/pthreadtypes.h' line='65' column='1' id='type-id-44'/>
    <class-decl name='__pthread_internal_list' size-in-bits='128' is-struct='yes' visibility='default' filepath='/usr/include/bits/pthreadtypes.h' line='62' column='1' id='type-id-45'>
      <data-member access='public' layout-offset-in-bits='0'>
        <var-decl name='__prev' type-id='type-id-46' visibility='default' filepath='/usr/include/bits/pthreadtypes.h' line='63' column='1'/>
      </data-member>
      <data-member access='public' layout-offset-in-bits='64'>
        <var-decl name='__next' type-id='type-id-46' visibility='default' filepath='/usr/include/bits/pthreadtypes.h' line='64' column='1'/>
      </data-member>
    </class-decl>
    <typedef-decl name='ptrdiff_t' type-id='type-id-20' filepath='/usr/lib/gcc/x86_64-redhat-linux/4.4.7/include/stddef.h' line='149' column='1' id='type-id-47'/>
    <class-decl name='vtkPixelExtent' size-in-bits='128' visibility='default' filepath='/tmp/legendre/spack-stage/spack-stage-R_crTC/VTK-6.1.0/Common/DataModel/vtkPixelExtent.h' line='37' column='1' id='type-id-48'>
      <data-member access='private' layout-offset-in-bits='0'>
        <var-decl name='Data' type-id='type-id-18' visibility='default' filepath='/tmp/legendre/spack-stage/spack-stage-R_crTC/VTK-6.1.0/Common/DataModel/vtkPixelExtent.h' line='259' column='1'/>
      </data-member>
      <member-function access='private' constructor='yes'>
        <function-decl name='vtkPixelExtent' filepath='/tmp/legendre/spack-stage/spack-stage-R_crTC/VTK-6.1.0/Common/DataModel/vtkPixelExtent.h' line='39' column='1' visibility='default' binding='global' size-in-bits='64'>
          <parameter type-id='type-id-49' is-artificial='yes'/>
          <return type-id='type-id-27'/>
        </function-decl>
      </member-function>
      <member-function access='private' constructor='yes'>
        <function-decl name='vtkPixelExtent' filepath='/tmp/legendre/spack-stage/spack-stage-R_crTC/VTK-6.1.0/Common/DataModel/vtkPixelExtent.h' line='51' column='1' visibility='default' binding='global' size-in-bits='64'>
          <parameter type-id='type-id-49' is-artificial='yes'/>
          <parameter type-id='type-id-50'/>
          <return type-id='type-id-27'/>
        </function-decl>
      </member-function>
      <member-function access='private'>
        <function-decl name='SetData&lt;int&gt;' filepath='/tmp/legendre/spack-stage/spack-stage-R_crTC/VTK-6.1.0/Common/DataModel/vtkPixelExtent.h' line='269' column='1' visibility='default' binding='global' size-in-bits='64'>
          <parameter type-id='type-id-49' is-artificial='yes'/>
          <parameter type-id='type-id-51'/>
          <return type-id='type-id-27'/>
        </function-decl>
      </member-function>
      <member-function access='private'>
        <function-decl name='SetData&lt;int&gt;' filepath='/tmp/legendre/spack-stage/spack-stage-R_crTC/VTK-6.1.0/Common/DataModel/vtkPixelExtent.h' line='279' column='1' visibility='default' binding='global' size-in-bits='64'>
          <parameter type-id='type-id-49' is-artificial='yes'/>
          <parameter type-id='type-id-17'/>
          <parameter type-id='type-id-17'/>
          <parameter type-id='type-id-17'/>
          <parameter type-id='type-id-17'/>
          <return type-id='type-id-27'/>
        </function-decl>
      </member-function>
      <member-function access='private' static='yes'>
        <function-decl name='Size&lt;int&gt;' filepath='/tmp/legendre/spack-stage/spack-stage-R_crTC/VTK-6.1.0/Common/DataModel/vtkPixelExtent.h' line='355' column='1' visibility='default' binding='global' size-in-bits='64'>
          <parameter type-id='type-id-50'/>
          <parameter type-id='type-id-52'/>
          <return type-id='type-id-27'/>
        </function-decl>
      </member-function>
      <member-function access='private'>
        <function-decl name='Size&lt;int&gt;' filepath='/tmp/legendre/spack-stage/spack-stage-R_crTC/VTK-6.1.0/Common/DataModel/vtkPixelExtent.h' line='370' column='1' visibility='default' binding='global' size-in-bits='64'>
          <parameter type-id='type-id-53' is-artificial='yes'/>
          <parameter type-id='type-id-52'/>
          <return type-id='type-id-27'/>
        </function-decl>
      </member-function>
      <member-function access='private'>
        <function-decl name='vtkPixelExtent&lt;int&gt;' filepath='/tmp/legendre/spack-stage/spack-stage-R_crTC/VTK-6.1.0/Common/DataModel/vtkPixelExtent.h' line='48' column='1' visibility='default' binding='global' size-in-bits='64'>
          <parameter type-id='type-id-49' is-artificial='yes'/>
          <parameter type-id='type-id-17'/>
          <parameter type-id='type-id-17'/>
          <return type-id='type-id-27'/>
        </function-decl>
      </member-function>
      <member-function access='private'>
        <function-decl name='vtkPixelExtent&lt;int&gt;' filepath='/tmp/legendre/spack-stage/spack-stage-R_crTC/VTK-6.1.0/Common/DataModel/vtkPixelExtent.h' line='42' column='1' visibility='default' binding='global' size-in-bits='64'>
          <parameter type-id='type-id-49' is-artificial='yes'/>
          <parameter type-id='type-id-51'/>
          <return type-id='type-id-27'/>
        </function-decl>
      </member-function>
      <member-function access='private'>
        <function-decl name='vtkPixelExtent&lt;int&gt;' filepath='/tmp/legendre/spack-stage/spack-stage-R_crTC/VTK-6.1.0/Common/DataModel/vtkPixelExtent.h' line='325' column='1' visibility='default' binding='global' size-in-bits='64'>
          <parameter type-id='type-id-49' is-artificial='yes'/>
          <parameter type-id='type-id-17'/>
          <parameter type-id='type-id-17'/>
          <parameter type-id='type-id-17'/>
          <parameter type-id='type-id-17'/>
          <return type-id='type-id-27'/>
        </function-decl>
      </member-function>
      <member-function access='private' static='yes'>
        <function-decl name='Size&lt;unsigned int&gt;' filepath='/tmp/legendre/spack-stage/spack-stage-R_crTC/VTK-6.1.0/Common/DataModel/vtkPixelExtent.h' line='355' column='1' visibility='default' binding='global' size-in-bits='64'>
          <parameter type-id='type-id-50'/>
          <parameter type-id='type-id-54'/>
          <return type-id='type-id-27'/>
        </function-decl>
      </member-function>
      <member-function access='private'>
        <function-decl name='SetData&lt;unsigned int&gt;' filepath='/tmp/legendre/spack-stage/spack-stage-R_crTC/VTK-6.1.0/Common/DataModel/vtkPixelExtent.h' line='269' column='1' visibility='default' binding='global' size-in-bits='64'>
          <parameter type-id='type-id-49' is-artificial='yes'/>
          <parameter type-id='type-id-55'/>
          <return type-id='type-id-27'/>
        </function-decl>
      </member-function>
      <member-function access='private'>
        <function-decl name='SetData&lt;unsigned int&gt;' filepath='/tmp/legendre/spack-stage/spack-stage-R_crTC/VTK-6.1.0/Common/DataModel/vtkPixelExtent.h' line='279' column='1' visibility='default' binding='global' size-in-bits='64'>
          <parameter type-id='type-id-49' is-artificial='yes'/>
          <parameter type-id='type-id-13'/>
          <parameter type-id='type-id-13'/>
          <parameter type-id='type-id-13'/>
          <parameter type-id='type-id-13'/>
          <return type-id='type-id-27'/>
        </function-decl>
      </member-function>
      <member-function access='private'>
        <function-decl name='Size&lt;unsigned int&gt;' filepath='/tmp/legendre/spack-stage/spack-stage-R_crTC/VTK-6.1.0/Common/DataModel/vtkPixelExtent.h' line='370' column='1' visibility='default' binding='global' size-in-bits='64'>
          <parameter type-id='type-id-53' is-artificial='yes'/>
          <parameter type-id='type-id-54'/>
          <return type-id='type-id-27'/>
        </function-decl>
      </member-function>
      <member-function access='private'>
        <function-decl name='GetData&lt;float&gt;' filepath='/tmp/legendre/spack-stage/spack-stage-R_crTC/VTK-6.1.0/Common/DataModel/vtkPixelExtent.h' line='294' column='1' visibility='default' binding='global' size-in-bits='64'>
          <parameter type-id='type-id-53' is-artificial='yes'/>
          <parameter type-id='type-id-56'/>
          <return type-id='type-id-27'/>
        </function-decl>
      </member-function>
      <member-function access='private'>
        <function-decl name='vtkPixelExtent&lt;unsigned int&gt;' filepath='/tmp/legendre/spack-stage/spack-stage-R_crTC/VTK-6.1.0/Common/DataModel/vtkPixelExtent.h' line='48' column='1' visibility='default' binding='global' size-in-bits='64'>
          <parameter type-id='type-id-49' is-artificial='yes'/>
          <parameter type-id='type-id-13'/>
          <parameter type-id='type-id-13'/>
          <return type-id='type-id-27'/>
        </function-decl>
      </member-function>
      <member-function access='private' static='yes'>
        <function-decl name='Size&lt;GLfloat&gt;' filepath='/tmp/legendre/spack-stage/spack-stage-R_crTC/VTK-6.1.0/Common/DataModel/vtkPixelExtent.h' line='355' column='1' visibility='default' binding='global' size-in-bits='64'>
          <parameter type-id='type-id-50'/>
          <parameter type-id='type-id-57'/>
          <return type-id='type-id-27'/>
        </function-decl>
      </member-function>
      <member-function access='private'>
        <function-decl name='Size&lt;GLfloat&gt;' filepath='/tmp/legendre/spack-stage/spack-stage-R_crTC/VTK-6.1.0/Common/DataModel/vtkPixelExtent.h' line='370' column='1' visibility='default' binding='global' size-in-bits='64'>
          <parameter type-id='type-id-53' is-artificial='yes'/>
          <parameter type-id='type-id-57'/>
          <return type-id='type-id-27'/>
        </function-decl>
      </member-function>
      <member-function access='private'>
        <function-decl name='GetData&lt;GLfloat&gt;' filepath='/tmp/legendre/spack-stage/spack-stage-R_crTC/VTK-6.1.0/Common/DataModel/vtkPixelExtent.h' line='294' column='1' visibility='default' binding='global' size-in-bits='64'>
          <parameter type-id='type-id-53' is-artificial='yes'/>
          <parameter type-id='type-id-57'/>
          <return type-id='type-id-27'/>
        </function-decl>
      </member-function>
      <member-function access='private'>
        <function-decl name='vtkPixelExtent&lt;unsigned int&gt;' filepath='/tmp/legendre/spack-stage/spack-stage-R_crTC/VTK-6.1.0/Common/DataModel/vtkPixelExtent.h' line='325' column='1' visibility='default' binding='global' size-in-bits='64'>
          <parameter type-id='type-id-49' is-artificial='yes'/>
          <parameter type-id='type-id-13'/>
          <parameter type-id='type-id-13'/>
          <parameter type-id='type-id-13'/>
          <parameter type-id='type-id-13'/>
          <return type-id='type-id-27'/>
        </function-decl>
      </member-function>
      <member-function access='private'>
        <function-decl name='GetData&lt;int&gt;' filepath='/tmp/legendre/spack-stage/spack-stage-R_crTC/VTK-6.1.0/Common/DataModel/vtkPixelExtent.h' line='294' column='1' visibility='default' binding='global' size-in-bits='64'>
          <parameter type-id='type-id-53' is-artificial='yes'/>
          <parameter type-id='type-id-52'/>
          <return type-id='type-id-27'/>
        </function-decl>
      </member-function>
    </class-decl>
    <class-decl name='vtkImageDataLIC2DExtentTranslator' size-in-bits='1344' visibility='default' filepath='/tmp/legendre/spack-stage/spack-stage-R_crTC/VTK-6.1.0/Rendering/LIC/vtkImageDataLIC2DExtentTranslator.h' line='32' column='1' id='type-id-58'>
      <base-class access='public' layout-offset-in-bits='0' type-id='type-id-59'/>
      <data-member access='protected' layout-offset-in-bits='992'>
        <var-decl name='InputWholeExtent' type-id='type-id-60' visibility='default' filepath='/tmp/legendre/spack-stage/spack-stage-R_crTC/VTK-6.1.0/Rendering/LIC/vtkImageDataLIC2DExtentTranslator.h' line='65' column='1'/>
      </data-member>
      <data-member access='protected' layout-offset-in-bits='1216'>
        <var-decl name='InputExtentTranslator' type-id='type-id-61' visibility='default' filepath='/tmp/legendre/spack-stage/spack-stage-R_crTC/VTK-6.1.0/Rendering/LIC/vtkImageDataLIC2DExtentTranslator.h' line='66' column='1'/>
      </data-member>
      <data-member access='protected' layout-offset-in-bits='1280'>
        <var-decl name='Algorithm' type-id='type-id-62' visibility='default' filepath='/tmp/legendre/spack-stage/spack-stage-R_crTC/VTK-6.1.0/Rendering/LIC/vtkImageDataLIC2DExtentTranslator.h' line='67' column='1'/>
      </data-member>
      <member-function access='protected' constructor='yes'>
        <function-decl name='vtkImageDataLIC2DExtentTranslator' mangled-name='_ZN33vtkImageDataLIC2DExtentTranslatorC1Ev' filepath='/tmp/legendre/spack-stage/spack-stage-R_crTC/VTK-6.1.0/Rendering/LIC/vtkImageDataLIC2DExtentTranslator.cxx' line='30' column='1' visibility='default' binding='global' size-in-bits='64' elf-symbol-id='_ZN33vtkImageDataLIC2DExtentTranslatorC1Ev'>
          <parameter type-id='type-id-63' is-artificial='yes'/>
          <return type-id='type-id-27'/>
        </function-decl>
      </member-function>
      <member-function access='private' constructor='yes'>
        <function-decl name='vtkImageDataLIC2DExtentTranslator' filepath='/tmp/legendre/spack-stage/spack-stage-R_crTC/VTK-6.1.0/Rendering/LIC/vtkImageDataLIC2DExtentTranslator.h' line='69' column='1' visibility='default' binding='global' size-in-bits='64'>
          <parameter type-id='type-id-63' is-artificial='yes'/>
          <parameter type-id='type-id-64'/>
          <return type-id='type-id-27'/>
        </function-decl>
      </member-function>
      <member-function access='private'>
        <function-decl name='SetInputExtentTranslator' mangled-name='_ZN33vtkImageDataLIC2DExtentTranslator24SetInputExtentTranslatorEP19vtkExtentTranslator' filepath='/tmp/legendre/spack-stage/spack-stage-R_crTC/VTK-6.1.0/Rendering/LIC/vtkImageDataLIC2DExtentTranslator.cxx' line='24' column='1' visibility='default' binding='global' size-in-bits='64' elf-symbol-id='_ZN33vtkImageDataLIC2DExtentTranslator24SetInputExtentTranslatorEP19vtkExtentTranslator'>
          <parameter type-id='type-id-65' name='this' is-artificial='yes'/>
          <parameter type-id='type-id-61' name='_arg' filepath='/tmp/legendre/spack-stage/spack-stage-R_crTC/VTK-6.1.0/Rendering/LIC/vtkImageDataLIC2DExtentTranslator.cxx' line='24' column='1'/>
          <return type-id='type-id-27'/>
        </function-decl>
      </member-function>
      <member-function access='private'>
        <function-decl name='GetAlgorithm' mangled-name='_ZN33vtkImageDataLIC2DExtentTranslator12GetAlgorithmEv' filepath='/tmp/legendre/spack-stage/spack-stage-R_crTC/VTK-6.1.0/Rendering/LIC/vtkImageDataLIC2DExtentTranslator.cxx' line='60' column='1' visibility='default' binding='global' size-in-bits='64' elf-symbol-id='_ZN33vtkImageDataLIC2DExtentTranslator12GetAlgorithmEv'>
          <parameter type-id='type-id-65' name='this' is-artificial='yes'/>
          <return type-id='type-id-66'/>
        </function-decl>
      </member-function>
      <member-function access='private'>
        <function-decl name='SetAlgorithm' mangled-name='_ZN33vtkImageDataLIC2DExtentTranslator12SetAlgorithmEP17vtkImageDataLIC2D' filepath='/tmp/legendre/spack-stage/spack-stage-R_crTC/VTK-6.1.0/Rendering/LIC/vtkImageDataLIC2DExtentTranslator.cxx' line='49' column='1' visibility='default' binding='global' size-in-bits='64' elf-symbol-id='_ZN33vtkImageDataLIC2DExtentTranslator12SetAlgorithmEP17vtkImageDataLIC2D'>
          <parameter type-id='type-id-65' name='this' is-artificial='yes'/>
          <parameter type-id='type-id-66' name='alg' filepath='/tmp/legendre/spack-stage/spack-stage-R_crTC/VTK-6.1.0/Rendering/LIC/vtkImageDataLIC2DExtentTranslator.cxx' line='50' column='1'/>
          <return type-id='type-id-27'/>
        </function-decl>
      </member-function>
      <member-function access='private' static='yes'>
        <function-decl name='New' mangled-name='_ZN33vtkImageDataLIC2DExtentTranslator3NewEv' filepath='/tmp/legendre/spack-stage/spack-stage-R_crTC/VTK-6.1.0/Rendering/LIC/vtkImageDataLIC2DExtentTranslator.cxx' line='21' column='1' visibility='default' binding='global' size-in-bits='64' elf-symbol-id='_ZN33vtkImageDataLIC2DExtentTranslator3NewEv'>
          <return type-id='type-id-63'/>
        </function-decl>
      </member-function>
      <member-function access='protected' destructor='yes' vtable-offset='-1'>
        <function-decl name='~vtkImageDataLIC2DExtentTranslator' mangled-name='_ZN33vtkImageDataLIC2DExtentTranslatorD1Ev' filepath='/tmp/legendre/spack-stage/spack-stage-R_crTC/VTK-6.1.0/Rendering/LIC/vtkImageDataLIC2DExtentTranslator.cxx' line='43' column='1' visibility='default' binding='global' size-in-bits='64' elf-symbol-id='_ZN33vtkImageDataLIC2DExtentTranslatorD1Ev'>
          <parameter type-id='type-id-63' is-artificial='yes'/>
          <parameter type-id='type-id-17' is-artificial='yes'/>
          <return type-id='type-id-27'/>
        </function-decl>
      </member-function>
      <member-function access='private' vtable-offset='0'>
        <function-decl name='GetClassNameInternal' mangled-name='_ZNK33vtkImageDataLIC2DExtentTranslator20GetClassNameInternalEv' filepath='/tmp/legendre/spack-stage/spack-stage-R_crTC/VTK-6.1.0/Rendering/LIC/vtkImageDataLIC2DExtentTranslator.h' line='35' column='1' visibility='default' binding='global' size-in-bits='64'>
          <parameter type-id='type-id-67' is-artificial='yes'/>
          <return type-id='type-id-68'/>
        </function-decl>
      </member-function>
      <member-function access='private' vtable-offset='1'>
        <function-decl name='IsA' mangled-name='_ZN33vtkImageDataLIC2DExtentTranslator3IsAEPKc' filepath='/tmp/legendre/spack-stage/spack-stage-R_crTC/VTK-6.1.0/Rendering/LIC/vtkImageDataLIC2DExtentTranslator.h' line='35' column='1' visibility='default' binding='global' size-in-bits='64'>
          <parameter type-id='type-id-63' is-artificial='yes'/>
          <parameter type-id='type-id-68'/>
          <return type-id='type-id-17'/>
        </function-decl>
      </member-function>
      <member-function access='private' vtable-offset='4'>
        <function-decl name='PrintSelf' mangled-name='_ZN33vtkImageDataLIC2DExtentTranslator9PrintSelfERSo9vtkIndent' filepath='/tmp/legendre/spack-stage/spack-stage-R_crTC/VTK-6.1.0/Rendering/LIC/vtkImageDataLIC2DExtentTranslator.cxx' line='107' column='1' visibility='default' binding='global' size-in-bits='64' elf-symbol-id='_ZN33vtkImageDataLIC2DExtentTranslator9PrintSelfERSo9vtkIndent'>
          <parameter type-id='type-id-63' is-artificial='yes'/>
          <parameter type-id='type-id-69'/>
          <parameter type-id='type-id-70'/>
          <return type-id='type-id-27'/>
        </function-decl>
      </member-function>
      <member-function access='protected' vtable-offset='15'>
        <function-decl name='NewInstanceInternal' mangled-name='_ZNK33vtkImageDataLIC2DExtentTranslator19NewInstanceInternalEv' filepath='/tmp/legendre/spack-stage/spack-stage-R_crTC/VTK-6.1.0/Rendering/LIC/vtkImageDataLIC2DExtentTranslator.h' line='35' column='1' visibility='default' binding='global' size-in-bits='64'>
          <parameter type-id='type-id-67' is-artificial='yes'/>
          <return type-id='type-id-71'/>
        </function-decl>
      </member-function>
      <member-function access='private' vtable-offset='38'>
        <function-decl name='PieceToExtentThreadSafe' mangled-name='_ZN33vtkImageDataLIC2DExtentTranslator23PieceToExtentThreadSafeEiiiPiS0_ii' filepath='/tmp/legendre/spack-stage/spack-stage-R_crTC/VTK-6.1.0/Rendering/LIC/vtkImageDataLIC2DExtentTranslator.cxx' line='66' column='1' visibility='default' binding='global' size-in-bits='64' elf-symbol-id='_ZN33vtkImageDataLIC2DExtentTranslator23PieceToExtentThreadSafeEiiiPiS0_ii'>
          <parameter type-id='type-id-63' is-artificial='yes'/>
          <parameter type-id='type-id-17'/>
          <parameter type-id='type-id-17'/>
          <parameter type-id='type-id-17'/>
          <parameter type-id='type-id-52'/>
          <parameter type-id='type-id-52'/>
          <parameter type-id='type-id-17'/>
          <parameter type-id='type-id-17'/>
          <return type-id='type-id-17'/>
        </function-decl>
      </member-function>
      <member-function access='private' vtable-offset='40'>
        <function-decl name='GetInputExtentTranslator' mangled-name='_ZN33vtkImageDataLIC2DExtentTranslator24GetInputExtentTranslatorEv' filepath='/tmp/legendre/spack-stage/spack-stage-R_crTC/VTK-6.1.0/Rendering/LIC/vtkImageDataLIC2DExtentTranslator.h' line='46' column='1' visibility='default' binding='global' size-in-bits='64'>
          <parameter type-id='type-id-63' is-artificial='yes'/>
          <return type-id='type-id-61'/>
        </function-decl>
      </member-function>
      <member-function access='private' vtable-offset='41'>
        <function-decl name='SetInputWholeExtent' mangled-name='_ZN33vtkImageDataLIC2DExtentTranslator19SetInputWholeExtentEiiiiii' filepath='/tmp/legendre/spack-stage/spack-stage-R_crTC/VTK-6.1.0/Rendering/LIC/vtkImageDataLIC2DExtentTranslator.h' line='48' column='1' visibility='default' binding='global' size-in-bits='64'>
          <parameter type-id='type-id-63' is-artificial='yes'/>
          <parameter type-id='type-id-17'/>
          <parameter type-id='type-id-17'/>
          <parameter type-id='type-id-17'/>
          <parameter type-id='type-id-17'/>
          <parameter type-id='type-id-17'/>
          <parameter type-id='type-id-17'/>
          <return type-id='type-id-27'/>
        </function-decl>
      </member-function>
      <member-function access='private' vtable-offset='42'>
        <function-decl name='SetInputWholeExtent' mangled-name='_ZN33vtkImageDataLIC2DExtentTranslator19SetInputWholeExtentEPi' filepath='/tmp/legendre/spack-stage/spack-stage-R_crTC/VTK-6.1.0/Rendering/LIC/vtkImageDataLIC2DExtentTranslator.h' line='48' column='1' visibility='default' binding='global' size-in-bits='64'>
          <parameter type-id='type-id-63' is-artificial='yes'/>
          <parameter type-id='type-id-52'/>
          <return type-id='type-id-27'/>
        </function-decl>
      </member-function>
      <member-function access='private' vtable-offset='43'>
        <function-decl name='GetInputWholeExtent' mangled-name='_ZN33vtkImageDataLIC2DExtentTranslator19GetInputWholeExtentEv' filepath='/tmp/legendre/spack-stage/spack-stage-R_crTC/VTK-6.1.0/Rendering/LIC/vtkImageDataLIC2DExtentTranslator.h' line='49' column='1' visibility='default' binding='global' size-in-bits='64'>
          <parameter type-id='type-id-63' is-artificial='yes'/>
          <return type-id='type-id-52'/>
        </function-decl>
      </member-function>
      <member-function access='private' vtable-offset='44'>
        <function-decl name='GetInputWholeExtent' mangled-name='_ZN33vtkImageDataLIC2DExtentTranslator19GetInputWholeExtentERiS0_S0_S0_S0_S0_' filepath='/tmp/legendre/spack-stage/spack-stage-R_crTC/VTK-6.1.0/Rendering/LIC/vtkImageDataLIC2DExtentTranslator.h' line='49' column='1' visibility='default' binding='global' size-in-bits='64'>
          <parameter type-id='type-id-63' is-artificial='yes'/>
          <parameter type-id='type-id-72'/>
          <parameter type-id='type-id-72'/>
          <parameter type-id='type-id-72'/>
          <parameter type-id='type-id-72'/>
          <parameter type-id='type-id-72'/>
          <parameter type-id='type-id-72'/>
          <return type-id='type-id-27'/>
        </function-decl>
      </member-function>
      <member-function access='private' vtable-offset='45'>
        <function-decl name='GetInputWholeExtent' mangled-name='_ZN33vtkImageDataLIC2DExtentTranslator19GetInputWholeExtentEPi' filepath='/tmp/legendre/spack-stage/spack-stage-R_crTC/VTK-6.1.0/Rendering/LIC/vtkImageDataLIC2DExtentTranslator.h' line='49' column='1' visibility='default' binding='global' size-in-bits='64'>
          <parameter type-id='type-id-63' is-artificial='yes'/>
          <parameter type-id='type-id-52'/>
          <return type-id='type-id-27'/>
        </function-decl>
      </member-function>
    </class-decl>
    <class-decl name='vtkWeakPointer&lt;vtkRenderWindow&gt;' size-in-bits='64' visibility='default' filepath='/tmp/legendre/spack-stage/spack-stage-R_crTC/VTK-6.1.0/Common/Core/vtkWeakPointer.h' line='47' column='1' id='type-id-73'>
      <base-class access='public' layout-offset-in-bits='0' type-id='type-id-74'/>
      <member-function access='private'>
        <function-decl name='vtkWeakPointer' filepath='/tmp/legendre/spack-stage/spack-stage-R_crTC/VTK-6.1.0/Common/Core/vtkWeakPointer.h' line='51' column='1' visibility='default' binding='global' size-in-bits='64'>
          <parameter type-id='type-id-75' is-artificial='yes'/>
          <return type-id='type-id-27'/>
        </function-decl>
      </member-function>
      <member-function access='private'>
        <function-decl name='vtkWeakPointer' filepath='/tmp/legendre/spack-stage/spack-stage-R_crTC/VTK-6.1.0/Common/Core/vtkWeakPointer.h' line='55' column='1' visibility='default' binding='global' size-in-bits='64'>
          <parameter type-id='type-id-75' is-artificial='yes'/>
          <parameter type-id='type-id-76'/>
          <return type-id='type-id-27'/>
        </function-decl>
      </member-function>
      <member-function access='private'>
        <function-decl name='vtkWeakPointer' filepath='/tmp/legendre/spack-stage/spack-stage-R_crTC/VTK-6.1.0/Common/Core/vtkWeakPointer.h' line='59' column='1' visibility='default' binding='global' size-in-bits='64'>
          <parameter type-id='type-id-75' is-artificial='yes'/>
          <parameter type-id='type-id-77'/>
          <return type-id='type-id-27'/>
        </function-decl>
      </member-function>
      <member-function access='protected'>
        <function-decl name='vtkWeakPointer' filepath='/tmp/legendre/spack-stage/spack-stage-R_crTC/VTK-6.1.0/Common/Core/vtkWeakPointer.h' line='133' column='1' visibility='default' binding='global' size-in-bits='64'>
          <parameter type-id='type-id-75' is-artificial='yes'/>
          <parameter type-id='type-id-76'/>
          <parameter type-id='type-id-78'/>
          <return type-id='type-id-27'/>
        </function-decl>
      </member-function>
    </class-decl>
    <class-decl name='lldiv_t' size-in-bits='128' is-struct='yes' visibility='default' filepath='/usr/include/stdlib.h' line='119' column='1' id='type-id-79'>
      <data-member access='public' layout-offset-in-bits='0'>
        <var-decl name='quot' type-id='type-id-21' visibility='default' filepath='/usr/include/stdlib.h' line='120' column='1'/>
      </data-member>
      <data-member access='public' layout-offset-in-bits='64'>
        <var-decl name='rem' type-id='type-id-21' visibility='default' filepath='/usr/include/stdlib.h' line='121' column='1'/>
      </data-member>
    </class-decl>
    <typedef-decl name='wint_t' type-id='type-id-13' filepath='/usr/lib/gcc/x86_64-redhat-linux/4.4.7/include/stddef.h' line='352' column='1' id='type-id-80'/>
    <typedef-decl name='__FILE' type-id='type-id-30' filepath='/usr/include/stdio.h' line='65' column='1' id='type-id-81'/>
    <typedef-decl name='mbstate_t' type-id='type-id-82' filepath='/usr/include/wchar.h' line='106' column='1' id='type-id-83'/>
    <class-decl name='__mbstate_t' size-in-bits='64' is-struct='yes' visibility='default' filepath='/usr/include/wchar.h' line='84' column='1' id='type-id-82'>
      <member-type access='public'>
        <union-decl name='__anonymous_union__' size-in-bits='32' is-anonymous='yes' visibility='default' filepath='/usr/include/wchar.h' line='87' column='1' id='type-id-84'>
          <data-member access='public'>
            <var-decl name='__wch' type-id='type-id-13' visibility='default' filepath='/usr/include/wchar.h' line='89' column='1'/>
          </data-member>
          <data-member access='public'>
            <var-decl name='__wchb' type-id='type-id-10' visibility='default' filepath='/usr/include/wchar.h' line='93' column='1'/>
          </data-member>
        </union-decl>
      </member-type>
      <data-member access='public' layout-offset-in-bits='0'>
        <var-decl name='__count' type-id='type-id-17' visibility='default' filepath='/usr/include/wchar.h' line='85' column='1'/>
      </data-member>
      <data-member access='public' layout-offset-in-bits='32'>
        <var-decl name='__value' type-id='type-id-84' visibility='default' filepath='/usr/include/wchar.h' line='94' column='1'/>
      </data-member>
    </class-decl>
    <class-decl name='tm' size-in-bits='448' is-struct='yes' visibility='default' filepath='/usr/include/time.h' line='134' column='1' id='type-id-85'>
      <data-member access='public' layout-offset-in-bits='0'>
        <var-decl name='tm_sec' type-id='type-id-17' visibility='default' filepath='/usr/include/time.h' line='135' column='1'/>
      </data-member>
      <data-member access='public' layout-offset-in-bits='32'>
        <var-decl name='tm_min' type-id='type-id-17' visibility='default' filepath='/usr/include/time.h' line='136' column='1'/>
      </data-member>
      <data-member access='public' layout-offset-in-bits='64'>
        <var-decl name='tm_hour' type-id='type-id-17' visibility='default' filepath='/usr/include/time.h' line='137' column='1'/>
      </data-member>
      <data-member access='public' layout-offset-in-bits='96'>
        <var-decl name='tm_mday' type-id='type-id-17' visibility='default' filepath='/usr/include/time.h' line='138' column='1'/>
      </data-member>
      <data-member access='public' layout-offset-in-bits='128'>
        <var-decl name='tm_mon' type-id='type-id-17' visibility='default' filepath='/usr/include/time.h' line='139' column='1'/>
      </data-member>
      <data-member access='public' layout-offset-in-bits='160'>
        <var-decl name='tm_year' type-id='type-id-17' visibility='default' filepath='/usr/include/time.h' line='140' column='1'/>
      </data-member>
      <data-member access='public' layout-offset-in-bits='192'>
        <var-decl name='tm_wday' type-id='type-id-17' visibility='default' filepath='/usr/include/time.h' line='141' column='1'/>
      </data-member>
      <data-member access='public' layout-offset-in-bits='224'>
        <var-decl name='tm_yday' type-id='type-id-17' visibility='default' filepath='/usr/include/time.h' line='142' column='1'/>
      </data-member>
      <data-member access='public' layout-offset-in-bits='256'>
        <var-decl name='tm_isdst' type-id='type-id-17' visibility='default' filepath='/usr/include/time.h' line='143' column='1'/>
      </data-member>
      <data-member access='public' layout-offset-in-bits='320'>
        <var-decl name='tm_gmtoff' type-id='type-id-20' visibility='default' filepath='/usr/include/time.h' line='146' column='1'/>
      </data-member>
      <data-member access='public' layout-offset-in-bits='384'>
        <var-decl name='tm_zone' type-id='type-id-68' visibility='default' filepath='/usr/include/time.h' line='147' column='1'/>
      </data-member>
    </class-decl>
    <class-decl name='lconv' size-in-bits='768' is-struct='yes' visibility='default' filepath='/usr/include/locale.h' line='55' column='1' id='type-id-86'>
      <data-member access='public' layout-offset-in-bits='0'>
        <var-decl name='decimal_point' type-id='type-id-32' visibility='default' filepath='/usr/include/locale.h' line='58' column='1'/>
      </data-member>
      <data-member access='public' layout-offset-in-bits='64'>
        <var-decl name='thousands_sep' type-id='type-id-32' visibility='default' filepath='/usr/include/locale.h' line='59' column='1'/>
      </data-member>
      <data-member access='public' layout-offset-in-bits='128'>
        <var-decl name='grouping' type-id='type-id-32' visibility='default' filepath='/usr/include/locale.h' line='65' column='1'/>
      </data-member>
      <data-member access='public' layout-offset-in-bits='192'>
        <var-decl name='int_curr_symbol' type-id='type-id-32' visibility='default' filepath='/usr/include/locale.h' line='71' column='1'/>
      </data-member>
      <data-member access='public' layout-offset-in-bits='256'>
        <var-decl name='currency_symbol' type-id='type-id-32' visibility='default' filepath='/usr/include/locale.h' line='72' column='1'/>
      </data-member>
      <data-member access='public' layout-offset-in-bits='320'>
        <var-decl name='mon_decimal_point' type-id='type-id-32' visibility='default' filepath='/usr/include/locale.h' line='73' column='1'/>
      </data-member>
      <data-member access='public' layout-offset-in-bits='384'>
        <var-decl name='mon_thousands_sep' type-id='type-id-32' visibility='default' filepath='/usr/include/locale.h' line='74' column='1'/>
      </data-member>
      <data-member access='public' layout-offset-in-bits='448'>
        <var-decl name='mon_grouping' type-id='type-id-32' visibility='default' filepath='/usr/include/locale.h' line='75' column='1'/>
      </data-member>
      <data-member access='public' layout-offset-in-bits='512'>
        <var-decl name='positive_sign' type-id='type-id-32' visibility='default' filepath='/usr/include/locale.h' line='76' column='1'/>
      </data-member>
      <data-member access='public' layout-offset-in-bits='576'>
        <var-decl name='negative_sign' type-id='type-id-32' visibility='default' filepath='/usr/include/locale.h' line='77' column='1'/>
      </data-member>
      <data-member access='public' layout-offset-in-bits='640'>
        <var-decl name='int_frac_digits' type-id='type-id-2' visibility='default' filepath='/usr/include/locale.h' line='78' column='1'/>
      </data-member>
      <data-member access='public' layout-offset-in-bits='648'>
        <var-decl name='frac_digits' type-id='type-id-2' visibility='default' filepath='/usr/include/locale.h' line='79' column='1'/>
      </data-member>
      <data-member access='public' layout-offset-in-bits='656'>
        <var-decl name='p_cs_precedes' type-id='type-id-2' visibility='default' filepath='/usr/include/locale.h' line='81' column='1'/>
      </data-member>
      <data-member access='public' layout-offset-in-bits='664'>
        <var-decl name='p_sep_by_space' type-id='type-id-2' visibility='default' filepath='/usr/include/locale.h' line='83' column='1'/>
      </data-member>
      <data-member access='public' layout-offset-in-bits='672'>
        <var-decl name='n_cs_precedes' type-id='type-id-2' visibility='default' filepath='/usr/include/locale.h' line='85' column='1'/>
      </data-member>
      <data-member access='public' layout-offset-in-bits='680'>
        <var-decl name='n_sep_by_space' type-id='type-id-2' visibility='default' filepath='/usr/include/locale.h' line='87' column='1'/>
      </data-member>
      <data-member access='public' layout-offset-in-bits='688'>
        <var-decl name='p_sign_posn' type-id='type-id-2' visibility='default' filepath='/usr/include/locale.h' line='94' column='1'/>
      </data-member>
      <data-member access='public' layout-offset-in-bits='696'>
        <var-decl name='n_sign_posn' type-id='type-id-2' visibility='default' filepath='/usr/include/locale.h' line='95' column='1'/>
      </data-member>
      <data-member access='public' layout-offset-in-bits='704'>
        <var-decl name='int_p_cs_precedes' type-id='type-id-2' visibility='default' filepath='/usr/include/locale.h' line='98' column='1'/>
      </data-member>
      <data-member access='public' layout-offset-in-bits='712'>
        <var-decl name='int_p_sep_by_space' type-id='type-id-2' visibility='default' filepath='/usr/include/locale.h' line='100' column='1'/>
      </data-member>
      <data-member access='public' layout-offset-in-bits='720'>
        <var-decl name='int_n_cs_precedes' type-id='type-id-2' visibility='default' filepath='/usr/include/locale.h' line='102' column='1'/>
      </data-member>
      <data-member access='public' layout-offset-in-bits='728'>
        <var-decl name='int_n_sep_by_space' type-id='type-id-2' visibility='default' filepath='/usr/include/locale.h' line='104' column='1'/>
      </data-member>
      <data-member access='public' layout-offset-in-bits='736'>
        <var-decl name='int_p_sign_posn' type-id='type-id-2' visibility='default' filepath='/usr/include/locale.h' line='111' column='1'/>
      </data-member>
      <data-member access='public' layout-offset-in-bits='744'>
        <var-decl name='int_n_sign_posn' type-id='type-id-2' visibility='default' filepath='/usr/include/locale.h' line='112' column='1'/>
      </data-member>
    </class-decl>
    <typedef-decl name='wctype_t' type-id='type-id-4' filepath='/usr/include/wctype.h' line='53' column='1' id='type-id-87'/>
    <typedef-decl name='wctrans_t' type-id='type-id-88' filepath='/usr/include/wctype.h' line='187' column='1' id='type-id-89'/>
    <typedef-decl name='__int32_t' type-id='type-id-17' filepath='/usr/include/bits/types.h' line='41' column='1' id='type-id-90'/>
    <typedef-decl name='fpos_t' type-id='type-id-91' filepath='/usr/include/stdio.h' line='113' column='1' id='type-id-92'/>
    <class-decl name='_G_fpos64_t' size-in-bits='128' is-struct='yes' visibility='default' filepath='/usr/include/_G_config.h' line='28' column='1' id='type-id-91'>
      <data-member access='public' layout-offset-in-bits='0'>
        <var-decl name='__pos' type-id='type-id-37' visibility='default' filepath='/usr/include/_G_config.h' line='29' column='1'/>
      </data-member>
      <data-member access='public' layout-offset-in-bits='64'>
        <var-decl name='__state' type-id='type-id-82' visibility='default' filepath='/usr/include/_G_config.h' line='30' column='1'/>
      </data-member>
    </class-decl>
    <typedef-decl name='__compar_fn_t' type-id='type-id-93' filepath='/usr/include/stdlib.h' line='742' column='1' id='type-id-94'/>
    <class-decl name='div_t' size-in-bits='64' is-struct='yes' visibility='default' filepath='/usr/include/stdlib.h' line='99' column='1' id='type-id-95'>
      <data-member access='public' layout-offset-in-bits='0'>
        <var-decl name='quot' type-id='type-id-17' visibility='default' filepath='/usr/include/stdlib.h' line='100' column='1'/>
      </data-member>
      <data-member access='public' layout-offset-in-bits='32'>
        <var-decl name='rem' type-id='type-id-17' visibility='default' filepath='/usr/include/stdlib.h' line='101' column='1'/>
      </data-member>
    </class-decl>
    <class-decl name='ldiv_t' size-in-bits='128' is-struct='yes' visibility='default' filepath='/usr/include/stdlib.h' line='107' column='1' id='type-id-96'>
      <data-member access='public' layout-offset-in-bits='0'>
        <var-decl name='quot' type-id='type-id-20' visibility='default' filepath='/usr/include/stdlib.h' line='108' column='1'/>
      </data-member>
      <data-member access='public' layout-offset-in-bits='64'>
        <var-decl name='rem' type-id='type-id-20' visibility='default' filepath='/usr/include/stdlib.h' line='109' column='1'/>
      </data-member>
    </class-decl>
    <class-decl name='vtkWeakPointerBase' size-in-bits='64' visibility='default' filepath='/tmp/legendre/spack-stage/spack-stage-R_crTC/VTK-6.1.0/Common/Core/vtkWeakPointerBase.h' line='31' column='1' id='type-id-74'>
      <member-type access='protected'>
        <class-decl name='NoReference' size-in-bits='8' visibility='default' filepath='/tmp/legendre/spack-stage/spack-stage-R_crTC/VTK-6.1.0/Common/Core/vtkWeakPointerBase.h' line='70' column='1' id='type-id-97'/>
      </member-type>
      <data-member access='protected' layout-offset-in-bits='0'>
        <var-decl name='Object' type-id='type-id-71' visibility='default' filepath='/tmp/legendre/spack-stage/spack-stage-R_crTC/VTK-6.1.0/Common/Core/vtkWeakPointerBase.h' line='74' column='1'/>
      </data-member>
      <member-function access='private' constructor='yes'>
        <function-decl name='vtkWeakPointerBase' filepath='/tmp/legendre/spack-stage/spack-stage-R_crTC/VTK-6.1.0/Common/Core/vtkWeakPointerBase.h' line='35' column='1' visibility='default' binding='global' size-in-bits='64'>
          <parameter type-id='type-id-98' is-artificial='yes'/>
          <return type-id='type-id-27'/>
        </function-decl>
      </member-function>
      <member-function access='private' constructor='yes'>
        <function-decl name='vtkWeakPointerBase' filepath='/tmp/legendre/spack-stage/spack-stage-R_crTC/VTK-6.1.0/Common/Core/vtkWeakPointerBase.h' line='39' column='1' visibility='default' binding='global' size-in-bits='64'>
          <parameter type-id='type-id-98' is-artificial='yes'/>
          <parameter type-id='type-id-71'/>
          <return type-id='type-id-27'/>
        </function-decl>
      </member-function>
      <member-function access='private' constructor='yes'>
        <function-decl name='vtkWeakPointerBase' filepath='/tmp/legendre/spack-stage/spack-stage-R_crTC/VTK-6.1.0/Common/Core/vtkWeakPointerBase.h' line='43' column='1' visibility='default' binding='global' size-in-bits='64'>
          <parameter type-id='type-id-98' is-artificial='yes'/>
          <parameter type-id='type-id-77'/>
          <return type-id='type-id-27'/>
        </function-decl>
      </member-function>
      <member-function access='private' destructor='yes'>
        <function-decl name='~vtkWeakPointerBase' filepath='/tmp/legendre/spack-stage/spack-stage-R_crTC/VTK-6.1.0/Common/Core/vtkWeakPointerBase.h' line='47' column='1' visibility='default' binding='global' size-in-bits='64'>
          <parameter type-id='type-id-98' is-artificial='yes'/>
          <parameter type-id='type-id-17' is-artificial='yes'/>
          <return type-id='type-id-27'/>
        </function-decl>
      </member-function>
      <member-function access='protected' constructor='yes'>
        <function-decl name='vtkWeakPointerBase' filepath='/tmp/legendre/spack-stage/spack-stage-R_crTC/VTK-6.1.0/Common/Core/vtkWeakPointerBase.h' line='71' column='1' visibility='default' binding='global' size-in-bits='64'>
          <parameter type-id='type-id-98' is-artificial='yes'/>
          <parameter type-id='type-id-71'/>
          <parameter type-id='type-id-78'/>
          <return type-id='type-id-27'/>
        </function-decl>
      </member-function>
    </class-decl>
    <class-decl name='vtkImageDataLIC2D' size-in-bits='1472' visibility='default' filepath='/tmp/legendre/spack-stage/spack-stage-R_crTC/VTK-6.1.0/Rendering/LIC/vtkImageDataLIC2D.h' line='45' column='1' id='type-id-99'>
      <base-class access='public' layout-offset-in-bits='0' type-id='type-id-100'/>
      <data-member access='protected' layout-offset-in-bits='1024'>
        <var-decl name='Context' type-id='type-id-73' visibility='default' filepath='/tmp/legendre/spack-stage/spack-stage-R_crTC/VTK-6.1.0/Rendering/LIC/vtkImageDataLIC2D.h' line='121' column='1'/>
      </data-member>
      <data-member access='protected' layout-offset-in-bits='1088'>
        <var-decl name='OwnWindow' type-id='type-id-1' visibility='default' filepath='/tmp/legendre/spack-stage/spack-stage-R_crTC/VTK-6.1.0/Rendering/LIC/vtkImageDataLIC2D.h' line='122' column='1'/>
      </data-member>
      <data-member access='protected' layout-offset-in-bits='1120'>
        <var-decl name='OpenGLExtensionsSupported' type-id='type-id-17' visibility='default' filepath='/tmp/legendre/spack-stage/spack-stage-R_crTC/VTK-6.1.0/Rendering/LIC/vtkImageDataLIC2D.h' line='123' column='1'/>
      </data-member>
      <data-member access='protected' layout-offset-in-bits='1152'>
        <var-decl name='MagShader' type-id='type-id-101' visibility='default' filepath='/tmp/legendre/spack-stage/spack-stage-R_crTC/VTK-6.1.0/Rendering/LIC/vtkImageDataLIC2D.h' line='125' column='1'/>
      </data-member>
      <data-member access='protected' layout-offset-in-bits='1216'>
        <var-decl name='NoiseSource' type-id='type-id-102' visibility='default' filepath='/tmp/legendre/spack-stage/spack-stage-R_crTC/VTK-6.1.0/Rendering/LIC/vtkImageDataLIC2D.h' line='127' column='1'/>
      </data-member>
      <data-member access='protected' layout-offset-in-bits='1280'>
        <var-decl name='Steps' type-id='type-id-17' visibility='default' filepath='/tmp/legendre/spack-stage/spack-stage-R_crTC/VTK-6.1.0/Rendering/LIC/vtkImageDataLIC2D.h' line='129' column='1'/>
      </data-member>
      <data-member access='protected' layout-offset-in-bits='1344'>
        <var-decl name='StepSize' type-id='type-id-15' visibility='default' filepath='/tmp/legendre/spack-stage/spack-stage-R_crTC/VTK-6.1.0/Rendering/LIC/vtkImageDataLIC2D.h' line='130' column='1'/>
      </data-member>
      <data-member access='protected' layout-offset-in-bits='1408'>
        <var-decl name='Magnification' type-id='type-id-17' visibility='default' filepath='/tmp/legendre/spack-stage/spack-stage-R_crTC/VTK-6.1.0/Rendering/LIC/vtkImageDataLIC2D.h' line='131' column='1'/>
      </data-member>
      <member-function access='protected' constructor='yes'>
        <function-decl name='vtkImageDataLIC2D' mangled-name='_ZN17vtkImageDataLIC2DC1Ev' filepath='/tmp/legendre/spack-stage/spack-stage-R_crTC/VTK-6.1.0/Rendering/LIC/vtkImageDataLIC2D.cxx' line='62' column='1' visibility='default' binding='global' size-in-bits='64' elf-symbol-id='_ZN17vtkImageDataLIC2DC1Ev'>
          <parameter type-id='type-id-66' is-artificial='yes'/>
          <return type-id='type-id-27'/>
        </function-decl>
      </member-function>
      <member-function access='private' constructor='yes'>
        <function-decl name='vtkImageDataLIC2D' filepath='/tmp/legendre/spack-stage/spack-stage-R_crTC/VTK-6.1.0/Rendering/LIC/vtkImageDataLIC2D.h' line='136' column='1' visibility='default' binding='global' size-in-bits='64'>
          <parameter type-id='type-id-66' is-artificial='yes'/>
          <parameter type-id='type-id-103'/>
          <return type-id='type-id-27'/>
        </function-decl>
      </member-function>
      <member-function access='private'>
        <function-decl name='GetContext' mangled-name='_ZN17vtkImageDataLIC2D10GetContextEv' filepath='/tmp/legendre/spack-stage/spack-stage-R_crTC/VTK-6.1.0/Rendering/LIC/vtkImageDataLIC2D.cxx' line='176' column='1' visibility='default' binding='global' size-in-bits='64' elf-symbol-id='_ZN17vtkImageDataLIC2D10GetContextEv'>
          <parameter type-id='type-id-104' name='this' is-artificial='yes'/>
          <return type-id='type-id-76'/>
        </function-decl>
      </member-function>
      <member-function access='private'>
        <function-decl name='TranslateInputExtent' mangled-name='_ZN17vtkImageDataLIC2D20TranslateInputExtentEPKiS1_Pi' filepath='/tmp/legendre/spack-stage/spack-stage-R_crTC/VTK-6.1.0/Rendering/LIC/vtkImageDataLIC2D.cxx' line='198' column='1' visibility='default' binding='global' size-in-bits='64' elf-symbol-id='_ZN17vtkImageDataLIC2D20TranslateInputExtentEPKiS1_Pi'>
          <parameter type-id='type-id-104' name='this' is-artificial='yes'/>
          <parameter type-id='type-id-51' name='inExt' filepath='/tmp/legendre/spack-stage/spack-stage-R_crTC/VTK-6.1.0/Rendering/LIC/vtkImageDataLIC2D.cxx' line='199' column='1'/>
          <parameter type-id='type-id-51' name='inWholeExt' filepath='/tmp/legendre/spack-stage/spack-stage-R_crTC/VTK-6.1.0/Rendering/LIC/vtkImageDataLIC2D.cxx' line='200' column='1'/>
          <parameter type-id='type-id-52' name='resultExt' filepath='/tmp/legendre/spack-stage/spack-stage-R_crTC/VTK-6.1.0/Rendering/LIC/vtkImageDataLIC2D.cxx' line='201' column='1'/>
          <return type-id='type-id-27'/>
        </function-decl>
      </member-function>
      <member-function access='private'>
        <function-decl name='SetContext' mangled-name='_ZN17vtkImageDataLIC2D10SetContextEP15vtkRenderWindow' filepath='/tmp/legendre/spack-stage/spack-stage-R_crTC/VTK-6.1.0/Rendering/LIC/vtkImageDataLIC2D.cxx' line='99' column='1' visibility='default' binding='global' size-in-bits='64' elf-symbol-id='_ZN17vtkImageDataLIC2D10SetContextEP15vtkRenderWindow'>
          <parameter type-id='type-id-104' name='this' is-artificial='yes'/>
          <parameter type-id='type-id-76' name='renWin' filepath='/tmp/legendre/spack-stage/spack-stage-R_crTC/VTK-6.1.0/Rendering/LIC/vtkImageDataLIC2D.cxx' line='99' column='1'/>
          <return type-id='type-id-17'/>
        </function-decl>
      </member-function>
      <member-function access='private' static='yes'>
        <function-decl name='New' mangled-name='_ZN17vtkImageDataLIC2D3NewEv' filepath='/tmp/legendre/spack-stage/spack-stage-R_crTC/VTK-6.1.0/Rendering/LIC/vtkImageDataLIC2D.cxx' line='59' column='1' visibility='default' binding='global' size-in-bits='64' elf-symbol-id='_ZN17vtkImageDataLIC2D3NewEv'>
          <return type-id='type-id-66'/>
        </function-decl>
      </member-function>
      <member-function access='protected' destructor='yes' vtable-offset='-1'>
        <function-decl name='~vtkImageDataLIC2D' mangled-name='_ZN17vtkImageDataLIC2DD1Ev' filepath='/tmp/legendre/spack-stage/spack-stage-R_crTC/VTK-6.1.0/Rendering/LIC/vtkImageDataLIC2D.cxx' line='92' column='1' visibility='default' binding='global' size-in-bits='64' elf-symbol-id='_ZN17vtkImageDataLIC2DD1Ev'>
          <parameter type-id='type-id-66' is-artificial='yes'/>
          <parameter type-id='type-id-17'/>
          <return type-id='type-id-27'/>
        </function-decl>
      </member-function>
      <member-function access='private' vtable-offset='0'>
        <function-decl name='GetClassNameInternal' mangled-name='_ZNK17vtkImageDataLIC2D20GetClassNameInternalEv' filepath='/tmp/legendre/spack-stage/spack-stage-R_crTC/VTK-6.1.0/Rendering/LIC/vtkImageDataLIC2D.h' line='48' column='1' visibility='default' binding='global' size-in-bits='64'>
          <parameter type-id='type-id-105' is-artificial='yes'/>
          <return type-id='type-id-68'/>
        </function-decl>
      </member-function>
      <member-function access='private' vtable-offset='1'>
        <function-decl name='IsA' mangled-name='_ZN17vtkImageDataLIC2D3IsAEPKc' filepath='/tmp/legendre/spack-stage/spack-stage-R_crTC/VTK-6.1.0/Rendering/LIC/vtkImageDataLIC2D.h' line='48' column='1' visibility='default' binding='global' size-in-bits='64'>
          <parameter type-id='type-id-66' is-artificial='yes'/>
          <parameter type-id='type-id-68'/>
          <return type-id='type-id-17'/>
        </function-decl>
      </member-function>
      <member-function access='private' vtable-offset='4'>
        <function-decl name='PrintSelf' mangled-name='_ZN17vtkImageDataLIC2D9PrintSelfERSo9vtkIndent' filepath='/tmp/legendre/spack-stage/spack-stage-R_crTC/VTK-6.1.0/Rendering/LIC/vtkImageDataLIC2D.cxx' line='713' column='1' visibility='default' binding='global' size-in-bits='64' elf-symbol-id='_ZN17vtkImageDataLIC2D9PrintSelfERSo9vtkIndent'>
          <parameter type-id='type-id-66' is-artificial='yes'/>
          <parameter type-id='type-id-69'/>
          <parameter type-id='type-id-70'/>
          <return type-id='type-id-27'/>
        </function-decl>
      </member-function>
      <member-function access='protected' vtable-offset='15'>
        <function-decl name='NewInstanceInternal' mangled-name='_ZNK17vtkImageDataLIC2D19NewInstanceInternalEv' filepath='/tmp/legendre/spack-stage/spack-stage-R_crTC/VTK-6.1.0/Rendering/LIC/vtkImageDataLIC2D.h' line='48' column='1' visibility='default' binding='global' size-in-bits='64'>
          <parameter type-id='type-id-105' is-artificial='yes'/>
          <return type-id='type-id-71'/>
        </function-decl>
      </member-function>
      <member-function access='protected' vtable-offset='60'>
        <function-decl name='FillInputPortInformation' mangled-name='_ZN17vtkImageDataLIC2D24FillInputPortInformationEiP14vtkInformation' filepath='/tmp/legendre/spack-stage/spack-stage-R_crTC/VTK-6.1.0/Rendering/LIC/vtkImageDataLIC2D.cxx' line='182' column='1' visibility='default' binding='global' size-in-bits='64' elf-symbol-id='_ZN17vtkImageDataLIC2D24FillInputPortInformationEiP14vtkInformation'>
          <parameter type-id='type-id-66' is-artificial='yes'/>
          <parameter type-id='type-id-17'/>
          <parameter type-id='type-id-106'/>
          <return type-id='type-id-17'/>
        </function-decl>
      </member-function>
      <member-function access='protected' vtable-offset='71'>
        <function-decl name='RequestInformation' mangled-name='_ZN17vtkImageDataLIC2D18RequestInformationEP14vtkInformationPP20vtkInformationVectorS3_' filepath='/tmp/legendre/spack-stage/spack-stage-R_crTC/VTK-6.1.0/Rendering/LIC/vtkImageDataLIC2D.cxx' line='226' column='1' visibility='default' binding='global' size-in-bits='64' elf-symbol-id='_ZN17vtkImageDataLIC2D18RequestInformationEP14vtkInformationPP20vtkInformationVectorS3_'>
          <parameter type-id='type-id-66' is-artificial='yes'/>
          <parameter type-id='type-id-106'/>
          <parameter type-id='type-id-107'/>
          <parameter type-id='type-id-108'/>
          <return type-id='type-id-17'/>
        </function-decl>
      </member-function>
      <member-function access='protected' vtable-offset='72'>
        <function-decl name='RequestUpdateExtent' mangled-name='_ZN17vtkImageDataLIC2D19RequestUpdateExtentEP14vtkInformationPP20vtkInformationVectorS3_' filepath='/tmp/legendre/spack-stage/spack-stage-R_crTC/VTK-6.1.0/Rendering/LIC/vtkImageDataLIC2D.cxx' line='275' column='1' visibility='default' binding='global' size-in-bits='64' elf-symbol-id='_ZN17vtkImageDataLIC2D19RequestUpdateExtentEP14vtkInformationPP20vtkInformationVectorS3_'>
          <parameter type-id='type-id-66' is-artificial='yes'/>
          <parameter type-id='type-id-106'/>
          <parameter type-id='type-id-107'/>
          <parameter type-id='type-id-108'/>
          <return type-id='type-id-17'/>
        </function-decl>
      </member-function>
      <member-function access='protected' vtable-offset='74'>
        <function-decl name='RequestData' mangled-name='_ZN17vtkImageDataLIC2D11RequestDataEP14vtkInformationPP20vtkInformationVectorS3_' filepath='/tmp/legendre/spack-stage/spack-stage-R_crTC/VTK-6.1.0/Rendering/LIC/vtkImageDataLIC2D.cxx' line='319' column='1' visibility='default' binding='global' size-in-bits='64' elf-symbol-id='_ZN17vtkImageDataLIC2D11RequestDataEP14vtkInformationPP20vtkInformationVectorS3_'>
          <parameter type-id='type-id-66' is-artificial='yes'/>
          <parameter type-id='type-id-106'/>
          <parameter type-id='type-id-107'/>
          <parameter type-id='type-id-108'/>
          <return type-id='type-id-17'/>
        </function-decl>
      </member-function>
      <member-function access='private' vtable-offset='81'>
        <function-decl name='SetSteps' mangled-name='_ZN17vtkImageDataLIC2D8SetStepsEi' filepath='/tmp/legendre/spack-stage/spack-stage-R_crTC/VTK-6.1.0/Rendering/LIC/vtkImageDataLIC2D.h' line='64' column='1' visibility='default' binding='global' size-in-bits='64'>
          <parameter type-id='type-id-66' is-artificial='yes'/>
          <parameter type-id='type-id-17'/>
          <return type-id='type-id-27'/>
        </function-decl>
      </member-function>
      <member-function access='private' vtable-offset='82'>
        <function-decl name='GetSteps' mangled-name='_ZN17vtkImageDataLIC2D8GetStepsEv' filepath='/tmp/legendre/spack-stage/spack-stage-R_crTC/VTK-6.1.0/Rendering/LIC/vtkImageDataLIC2D.h' line='65' column='1' visibility='default' binding='global' size-in-bits='64'>
          <parameter type-id='type-id-66' is-artificial='yes'/>
          <return type-id='type-id-17'/>
        </function-decl>
      </member-function>
      <member-function access='private' vtable-offset='83'>
        <function-decl name='SetStepSize' mangled-name='_ZN17vtkImageDataLIC2D11SetStepSizeEd' filepath='/tmp/legendre/spack-stage/spack-stage-R_crTC/VTK-6.1.0/Rendering/LIC/vtkImageDataLIC2D.h' line='77' column='1' visibility='default' binding='global' size-in-bits='64'>
          <parameter type-id='type-id-66' is-artificial='yes'/>
          <parameter type-id='type-id-15'/>
          <return type-id='type-id-27'/>
        </function-decl>
      </member-function>
      <member-function access='private' vtable-offset='84'>
        <function-decl name='GetStepSize' mangled-name='_ZN17vtkImageDataLIC2D11GetStepSizeEv' filepath='/tmp/legendre/spack-stage/spack-stage-R_crTC/VTK-6.1.0/Rendering/LIC/vtkImageDataLIC2D.h' line='78' column='1' visibility='default' binding='global' size-in-bits='64'>
          <parameter type-id='type-id-66' is-artificial='yes'/>
          <return type-id='type-id-15'/>
        </function-decl>
      </member-function>
      <member-function access='private' vtable-offset='85'>
        <function-decl name='SetMagnification' mangled-name='_ZN17vtkImageDataLIC2D16SetMagnificationEi' filepath='/tmp/legendre/spack-stage/spack-stage-R_crTC/VTK-6.1.0/Rendering/LIC/vtkImageDataLIC2D.h' line='82' column='1' visibility='default' binding='global' size-in-bits='64'>
          <parameter type-id='type-id-66' is-artificial='yes'/>
          <parameter type-id='type-id-17'/>
          <return type-id='type-id-27'/>
        </function-decl>
      </member-function>
      <member-function access='private' vtable-offset='86'>
        <function-decl name='GetMagnification' mangled-name='_ZN17vtkImageDataLIC2D16GetMagnificationEv' filepath='/tmp/legendre/spack-stage/spack-stage-R_crTC/VTK-6.1.0/Rendering/LIC/vtkImageDataLIC2D.h' line='83' column='1' visibility='default' binding='global' size-in-bits='64'>
          <parameter type-id='type-id-66' is-artificial='yes'/>
          <return type-id='type-id-17'/>
        </function-decl>
      </member-function>
      <member-function access='private' vtable-offset='87'>
        <function-decl name='GetOpenGLExtensionsSupported' mangled-name='_ZN17vtkImageDataLIC2D28GetOpenGLExtensionsSupportedEv' filepath='/tmp/legendre/spack-stage/spack-stage-R_crTC/VTK-6.1.0/Rendering/LIC/vtkImageDataLIC2D.h' line='87' column='1' visibility='default' binding='global' size-in-bits='64'>
          <parameter type-id='type-id-66' is-artificial='yes'/>
          <return type-id='type-id-17'/>
        </function-decl>
      </member-function>
    </class-decl>
    <class-decl name='vtkPixelTransfer' size-in-bits='8' visibility='default' filepath='/tmp/legendre/spack-stage/spack-stage-R_crTC/VTK-6.1.0/Rendering/LIC/vtkPixelTransfer.h' line='35' column='1' id='type-id-109'>
      <member-type access='private'>
        <typedef-decl name='VTK_TT' type-id='type-id-15' filepath='/tmp/legendre/spack-stage/spack-stage-R_crTC/VTK-6.1.0/Rendering/LIC/vtkPixelTransfer.cxx' line='19' column='1' id='type-id-110'/>
      </member-type>
      <member-function access='private' static='yes'>
        <function-decl name='Blit&lt;float, float&gt;' mangled-name='_ZN16vtkPixelTransfer4BlitIffEEiRK14vtkPixelExtentS3_S3_S3_iPT_iPT0_' filepath='/tmp/legendre/spack-stage/spack-stage-R_crTC/VTK-6.1.0/Rendering/LIC/vtkPixelTransfer.h' line='154' column='1' visibility='default' binding='global' size-in-bits='64' elf-symbol-id='_ZN16vtkPixelTransfer4BlitIffEEiRK14vtkPixelExtentS3_S3_S3_iPT_iPT0_'>
          <parameter type-id='type-id-111' name='srcWholeExt' filepath='/tmp/legendre/spack-stage/spack-stage-R_crTC/VTK-6.1.0/Rendering/LIC/vtkPixelTransfer.h' line='155' column='1'/>
          <parameter type-id='type-id-111' name='srcSubset' filepath='/tmp/legendre/spack-stage/spack-stage-R_crTC/VTK-6.1.0/Rendering/LIC/vtkPixelTransfer.h' line='156' column='1'/>
          <parameter type-id='type-id-111' name='destWholeExt' filepath='/tmp/legendre/spack-stage/spack-stage-R_crTC/VTK-6.1.0/Rendering/LIC/vtkPixelTransfer.h' line='157' column='1'/>
          <parameter type-id='type-id-111' name='destSubset' filepath='/tmp/legendre/spack-stage/spack-stage-R_crTC/VTK-6.1.0/Rendering/LIC/vtkPixelTransfer.h' line='158' column='1'/>
          <parameter type-id='type-id-17' name='nSrcComps' filepath='/tmp/legendre/spack-stage/spack-stage-R_crTC/VTK-6.1.0/Rendering/LIC/vtkPixelTransfer.h' line='159' column='1'/>
          <parameter type-id='type-id-56' name='srcData' filepath='/tmp/legendre/spack-stage/spack-stage-R_crTC/VTK-6.1.0/Rendering/LIC/vtkPixelTransfer.h' line='160' column='1'/>
          <parameter type-id='type-id-17' name='nDestComps' filepath='/tmp/legendre/spack-stage/spack-stage-R_crTC/VTK-6.1.0/Rendering/LIC/vtkPixelTransfer.h' line='161' column='1'/>
          <parameter type-id='type-id-56' name='destData' filepath='/tmp/legendre/spack-stage/spack-stage-R_crTC/VTK-6.1.0/Rendering/LIC/vtkPixelTransfer.h' line='162' column='1'/>
          <return type-id='type-id-17'/>
        </function-decl>
      </member-function>
      <member-function access='private' static='yes'>
        <function-decl name='Blit&lt;vtkPixelTransfer::Blit::VTK_TT, vtkPixelTransfer::Blit::VTK_TT&gt;' mangled-name='_ZN16vtkPixelTransfer4BlitIhhEEiRK14vtkPixelExtentS3_S3_S3_iPT_iPT0_' filepath='/tmp/legendre/spack-stage/spack-stage-R_crTC/VTK-6.1.0/Rendering/LIC/vtkPixelTransfer.h' line='154' column='1' visibility='default' binding='global' size-in-bits='64' elf-symbol-id='_ZN16vtkPixelTransfer4BlitIddEEiRK14vtkPixelExtentS3_S3_S3_iPT_iPT0_'>
          <parameter type-id='type-id-111' name='srcWholeExt' filepath='/tmp/legendre/spack-stage/spack-stage-R_crTC/VTK-6.1.0/Rendering/LIC/vtkPixelTransfer.h' line='155' column='1'/>
          <parameter type-id='type-id-111' name='srcSubset' filepath='/tmp/legendre/spack-stage/spack-stage-R_crTC/VTK-6.1.0/Rendering/LIC/vtkPixelTransfer.h' line='156' column='1'/>
          <parameter type-id='type-id-111' name='destWholeExt' filepath='/tmp/legendre/spack-stage/spack-stage-R_crTC/VTK-6.1.0/Rendering/LIC/vtkPixelTransfer.h' line='157' column='1'/>
          <parameter type-id='type-id-111' name='destSubset' filepath='/tmp/legendre/spack-stage/spack-stage-R_crTC/VTK-6.1.0/Rendering/LIC/vtkPixelTransfer.h' line='158' column='1'/>
          <parameter type-id='type-id-17' name='nSrcComps' filepath='/tmp/legendre/spack-stage/spack-stage-R_crTC/VTK-6.1.0/Rendering/LIC/vtkPixelTransfer.h' line='159' column='1'/>
          <parameter type-id='type-id-112' name='srcData' filepath='/tmp/legendre/spack-stage/spack-stage-R_crTC/VTK-6.1.0/Rendering/LIC/vtkPixelTransfer.h' line='160' column='1'/>
          <parameter type-id='type-id-17' name='nDestComps' filepath='/tmp/legendre/spack-stage/spack-stage-R_crTC/VTK-6.1.0/Rendering/LIC/vtkPixelTransfer.h' line='161' column='1'/>
          <parameter type-id='type-id-112' name='destData' filepath='/tmp/legendre/spack-stage/spack-stage-R_crTC/VTK-6.1.0/Rendering/LIC/vtkPixelTransfer.h' line='162' column='1'/>
          <return type-id='type-id-17'/>
        </function-decl>
      </member-function>
      <member-function access='private' static='yes'>
        <function-decl name='Blit&lt;vtkPixelTransfer::Blit::VTK_TT&gt;' mangled-name='_ZN16vtkPixelTransfer4BlitIhEEiRK14vtkPixelExtentS3_S3_S3_iPT_iiPv' filepath='/tmp/legendre/spack-stage/spack-stage-R_crTC/VTK-6.1.0/Rendering/LIC/vtkPixelTransfer.h' line='124' column='1' visibility='default' binding='global' size-in-bits='64' elf-symbol-id='_ZN16vtkPixelTransfer4BlitIdEEiRK14vtkPixelExtentS3_S3_S3_iPT_iiPv'>
          <parameter type-id='type-id-111' name='srcWholeExt' filepath='/tmp/legendre/spack-stage/spack-stage-R_crTC/VTK-6.1.0/Rendering/LIC/vtkPixelTransfer.h' line='125' column='1'/>
          <parameter type-id='type-id-111' name='srcExt' filepath='/tmp/legendre/spack-stage/spack-stage-R_crTC/VTK-6.1.0/Rendering/LIC/vtkPixelTransfer.h' line='126' column='1'/>
          <parameter type-id='type-id-111' name='destWholeExt' filepath='/tmp/legendre/spack-stage/spack-stage-R_crTC/VTK-6.1.0/Rendering/LIC/vtkPixelTransfer.h' line='127' column='1'/>
          <parameter type-id='type-id-111' name='destExt' filepath='/tmp/legendre/spack-stage/spack-stage-R_crTC/VTK-6.1.0/Rendering/LIC/vtkPixelTransfer.h' line='128' column='1'/>
          <parameter type-id='type-id-17' name='nSrcComps' filepath='/tmp/legendre/spack-stage/spack-stage-R_crTC/VTK-6.1.0/Rendering/LIC/vtkPixelTransfer.h' line='129' column='1'/>
          <parameter type-id='type-id-112' name='srcData' filepath='/tmp/legendre/spack-stage/spack-stage-R_crTC/VTK-6.1.0/Rendering/LIC/vtkPixelTransfer.h' line='130' column='1'/>
          <parameter type-id='type-id-17' name='nDestComps' filepath='/tmp/legendre/spack-stage/spack-stage-R_crTC/VTK-6.1.0/Rendering/LIC/vtkPixelTransfer.h' line='131' column='1'/>
          <parameter type-id='type-id-17' name='destType' filepath='/tmp/legendre/spack-stage/spack-stage-R_crTC/VTK-6.1.0/Rendering/LIC/vtkPixelTransfer.h' line='132' column='1'/>
          <parameter type-id='type-id-14' name='destData' filepath='/tmp/legendre/spack-stage/spack-stage-R_crTC/VTK-6.1.0/Rendering/LIC/vtkPixelTransfer.h' line='133' column='1'/>
          <return type-id='type-id-17'/>
        </function-decl>
      </member-function>
      <member-function access='private' static='yes'>
        <function-decl name='Blit' mangled-name='_ZN16vtkPixelTransfer4BlitERK14vtkPixelExtentS2_S2_S2_iiPviiS3_' filepath='/tmp/legendre/spack-stage/spack-stage-R_crTC/VTK-6.1.0/Rendering/LIC/vtkPixelTransfer.cxx' line='4' column='1' visibility='default' binding='global' size-in-bits='64' elf-symbol-id='_ZN16vtkPixelTransfer4BlitERK14vtkPixelExtentS2_S2_S2_iiPviiS3_'>
          <parameter type-id='type-id-111' name='srcWholeExt' filepath='/tmp/legendre/spack-stage/spack-stage-R_crTC/VTK-6.1.0/Rendering/LIC/vtkPixelTransfer.cxx' line='5' column='1'/>
          <parameter type-id='type-id-111' name='srcExt' filepath='/tmp/legendre/spack-stage/spack-stage-R_crTC/VTK-6.1.0/Rendering/LIC/vtkPixelTransfer.cxx' line='6' column='1'/>
          <parameter type-id='type-id-111' name='destWholeExt' filepath='/tmp/legendre/spack-stage/spack-stage-R_crTC/VTK-6.1.0/Rendering/LIC/vtkPixelTransfer.cxx' line='7' column='1'/>
          <parameter type-id='type-id-111' name='destExt' filepath='/tmp/legendre/spack-stage/spack-stage-R_crTC/VTK-6.1.0/Rendering/LIC/vtkPixelTransfer.cxx' line='8' column='1'/>
          <parameter type-id='type-id-17' name='nSrcComps' filepath='/tmp/legendre/spack-stage/spack-stage-R_crTC/VTK-6.1.0/Rendering/LIC/vtkPixelTransfer.cxx' line='9' column='1'/>
          <parameter type-id='type-id-17' name='srcType' filepath='/tmp/legendre/spack-stage/spack-stage-R_crTC/VTK-6.1.0/Rendering/LIC/vtkPixelTransfer.cxx' line='10' column='1'/>
          <parameter type-id='type-id-14' name='srcData' filepath='/tmp/legendre/spack-stage/spack-stage-R_crTC/VTK-6.1.0/Rendering/LIC/vtkPixelTransfer.cxx' line='11' column='1'/>
          <parameter type-id='type-id-17' name='nDestComps' filepath='/tmp/legendre/spack-stage/spack-stage-R_crTC/VTK-6.1.0/Rendering/LIC/vtkPixelTransfer.cxx' line='12' column='1'/>
          <parameter type-id='type-id-17' name='destType' filepath='/tmp/legendre/spack-stage/spack-stage-R_crTC/VTK-6.1.0/Rendering/LIC/vtkPixelTransfer.cxx' line='13' column='1'/>
          <parameter type-id='type-id-14' name='destData' filepath='/tmp/legendre/spack-stage/spack-stage-R_crTC/VTK-6.1.0/Rendering/LIC/vtkPixelTransfer.cxx' line='14' column='1'/>
          <return type-id='type-id-17'/>
        </function-decl>
      </member-function>
    </class-decl>
    <typedef-decl name='vtkIdType' type-id='type-id-21' filepath='/tmp/legendre/spack-stage/spack-stage-R_crTC/VTK-6.1.0/Common/Core/vtkType.h' line='255' column='1' id='type-id-113'/>
    <class-decl name='vtkIndent' size-in-bits='32' visibility='default' filepath='/tmp/legendre/spack-stage/spack-stage-R_crTC/VTK-6.1.0/Common/Core/vtkIndent.h' line='31' column='1' id='type-id-70'>
      <data-member access='protected' layout-offset-in-bits='0'>
        <var-decl name='Indent' type-id='type-id-17' visibility='default' filepath='/tmp/legendre/spack-stage/spack-stage-R_crTC/VTK-6.1.0/Common/Core/vtkIndent.h' line='49' column='1'/>
      </data-member>
      <member-function access='private' constructor='yes'>
        <function-decl name='vtkIndent' filepath='/tmp/legendre/spack-stage/spack-stage-R_crTC/VTK-6.1.0/Common/Core/vtkIndent.h' line='34' column='1' visibility='default' binding='global' size-in-bits='64'>
          <parameter type-id='type-id-114' is-artificial='yes'/>
          <parameter type-id='type-id-17'/>
          <return type-id='type-id-27'/>
        </function-decl>
      </member-function>
    </class-decl>
    <pointer-type-def type-id='type-id-31' size-in-bits='64' id='type-id-115'/>
    <pointer-type-def type-id='type-id-30' size-in-bits='64' id='type-id-34'/>
    <pointer-type-def type-id='type-id-40' size-in-bits='64' id='type-id-36'/>
    <pointer-type-def type-id='type-id-39' size-in-bits='64' id='type-id-33'/>
    <pointer-type-def type-id='type-id-81' size-in-bits='64' id='type-id-116'/>
    <pointer-type-def type-id='type-id-117' size-in-bits='64' id='type-id-118'/>
    <qualified-type-def type-id='type-id-118' const='yes' id='type-id-119'/>
    <pointer-type-def type-id='type-id-120' size-in-bits='64' id='type-id-121'/>
    <qualified-type-def type-id='type-id-121' const='yes' id='type-id-122'/>
    <pointer-type-def type-id='type-id-45' size-in-bits='64' id='type-id-46'/>
    <pointer-type-def type-id='type-id-2' size-in-bits='64' id='type-id-32'/>
    <pointer-type-def type-id='type-id-32' size-in-bits='64' id='type-id-123'/>
    <qualified-type-def type-id='type-id-117' const='yes' id='type-id-124'/>
    <reference-type-def kind='lvalue' type-id='type-id-124' size-in-bits='64' id='type-id-125'/>
    <pointer-type-def type-id='type-id-124' size-in-bits='64' id='type-id-126'/>
    <qualified-type-def type-id='type-id-126' const='yes' id='type-id-127'/>
    <qualified-type-def type-id='type-id-120' const='yes' id='type-id-128'/>
    <reference-type-def kind='lvalue' type-id='type-id-128' size-in-bits='64' id='type-id-129'/>
    <pointer-type-def type-id='type-id-128' size-in-bits='64' id='type-id-130'/>
    <qualified-type-def type-id='type-id-130' const='yes' id='type-id-131'/>
    <qualified-type-def type-id='type-id-90' const='yes' id='type-id-132'/>
    <pointer-type-def type-id='type-id-132' size-in-bits='64' id='type-id-88'/>
    <qualified-type-def type-id='type-id-2' const='yes' id='type-id-133'/>
    <pointer-type-def type-id='type-id-133' size-in-bits='64' id='type-id-68'/>
    <pointer-type-def type-id='type-id-68' size-in-bits='64' id='type-id-134'/>
    <qualified-type-def type-id='type-id-92' const='yes' id='type-id-135'/>
    <pointer-type-def type-id='type-id-135' size-in-bits='64' id='type-id-136'/>
    <qualified-type-def type-id='type-id-17' const='yes' id='type-id-137'/>
    <reference-type-def kind='lvalue' type-id='type-id-137' size-in-bits='64' id='type-id-138'/>
    <pointer-type-def type-id='type-id-137' size-in-bits='64' id='type-id-51'/>
    <qualified-type-def type-id='type-id-83' const='yes' id='type-id-139'/>
    <pointer-type-def type-id='type-id-139' size-in-bits='64' id='type-id-140'/>
    <qualified-type-def type-id='type-id-38' const='yes' id='type-id-141'/>
    <reference-type-def kind='lvalue' type-id='type-id-141' size-in-bits='64' id='type-id-142'/>
    <qualified-type-def type-id='type-id-143' const='yes' id='type-id-144'/>
    <pointer-type-def type-id='type-id-144' size-in-bits='64' id='type-id-145'/>
    <qualified-type-def type-id='type-id-145' const='yes' id='type-id-146'/>
    <qualified-type-def type-id='type-id-147' const='yes' id='type-id-148'/>
    <reference-type-def kind='lvalue' type-id='type-id-148' size-in-bits='64' id='type-id-149'/>
    <pointer-type-def type-id='type-id-148' size-in-bits='64' id='type-id-150'/>
    <qualified-type-def type-id='type-id-151' const='yes' id='type-id-152'/>
    <qualified-type-def type-id='type-id-153' const='yes' id='type-id-154'/>
    <pointer-type-def type-id='type-id-154' size-in-bits='64' id='type-id-155'/>
    <qualified-type-def type-id='type-id-156' const='yes' id='type-id-157'/>
    <qualified-type-def type-id='type-id-158' const='yes' id='type-id-159'/>
    <qualified-type-def type-id='type-id-160' const='yes' id='type-id-161'/>
    <reference-type-def kind='lvalue' type-id='type-id-161' size-in-bits='64' id='type-id-162'/>
    <qualified-type-def type-id='type-id-163' const='yes' id='type-id-164'/>
    <qualified-type-def type-id='type-id-165' id='type-id-166'/>
    <reference-type-def kind='lvalue' type-id='type-id-164' size-in-bits='64' id='type-id-165'/>
    <qualified-type-def type-id='type-id-167' const='yes' id='type-id-168'/>
    <pointer-type-def type-id='type-id-168' size-in-bits='64' id='type-id-169'/>
    <qualified-type-def type-id='type-id-169' const='yes' id='type-id-170'/>
    <qualified-type-def type-id='type-id-171' const='yes' id='type-id-172'/>
    <qualified-type-def type-id='type-id-173' const='yes' id='type-id-174'/>
    <reference-type-def kind='lvalue' type-id='type-id-174' size-in-bits='64' id='type-id-175'/>
    <pointer-type-def type-id='type-id-174' size-in-bits='64' id='type-id-176'/>
    <qualified-type-def type-id='type-id-177' const='yes' id='type-id-178'/>
    <reference-type-def kind='lvalue' type-id='type-id-178' size-in-bits='64' id='type-id-179'/>
    <qualified-type-def type-id='type-id-180' const='yes' id='type-id-181'/>
    <reference-type-def kind='lvalue' type-id='type-id-181' size-in-bits='64' id='type-id-182'/>
    <pointer-type-def type-id='type-id-181' size-in-bits='64' id='type-id-183'/>
    <qualified-type-def type-id='type-id-85' const='yes' id='type-id-184'/>
    <pointer-type-def type-id='type-id-184' size-in-bits='64' id='type-id-185'/>
    <qualified-type-def type-id='type-id-13' const='yes' id='type-id-186'/>
    <pointer-type-def type-id='type-id-186' size-in-bits='64' id='type-id-55'/>
    <qualified-type-def type-id='type-id-99' const='yes' id='type-id-187'/>
    <reference-type-def kind='lvalue' type-id='type-id-187' size-in-bits='64' id='type-id-103'/>
    <pointer-type-def type-id='type-id-187' size-in-bits='64' id='type-id-105'/>
    <qualified-type-def type-id='type-id-188' const='yes' id='type-id-189'/>
    <qualified-type-def type-id='type-id-190' id='type-id-191'/>
    <reference-type-def kind='lvalue' type-id='type-id-189' size-in-bits='64' id='type-id-190'/>
    <qualified-type-def type-id='type-id-48' const='yes' id='type-id-192'/>
    <qualified-type-def type-id='type-id-50' id='type-id-111'/>
    <reference-type-def kind='lvalue' type-id='type-id-192' size-in-bits='64' id='type-id-50'/>
    <pointer-type-def type-id='type-id-192' size-in-bits='64' id='type-id-53'/>
    <qualified-type-def type-id='type-id-53' const='yes' id='type-id-193'/>
    <qualified-type-def type-id='type-id-73' const='yes' id='type-id-194'/>
    <pointer-type-def type-id='type-id-194' size-in-bits='64' id='type-id-195'/>
    <qualified-type-def type-id='type-id-195' const='yes' id='type-id-196'/>
    <qualified-type-def type-id='type-id-74' const='yes' id='type-id-197'/>
    <reference-type-def kind='lvalue' type-id='type-id-197' size-in-bits='64' id='type-id-77'/>
    <pointer-type-def type-id='type-id-197' size-in-bits='64' id='type-id-198'/>
    <qualified-type-def type-id='type-id-97' const='yes' id='type-id-199'/>
    <reference-type-def kind='lvalue' type-id='type-id-199' size-in-bits='64' id='type-id-78'/>
    <qualified-type-def type-id='type-id-28' const='yes' id='type-id-200'/>
    <pointer-type-def type-id='type-id-200' size-in-bits='64' id='type-id-201'/>
    <pointer-type-def type-id='type-id-201' size-in-bits='64' id='type-id-202'/>
    <pointer-type-def type-id='type-id-15' size-in-bits='64' id='type-id-203'/>
    <pointer-type-def type-id='type-id-16' size-in-bits='64' id='type-id-56'/>
    <pointer-type-def type-id='type-id-92' size-in-bits='64' id='type-id-204'/>
    <pointer-type-def type-id='type-id-205' size-in-bits='64' id='type-id-93'/>
    <reference-type-def kind='lvalue' type-id='type-id-17' size-in-bits='64' id='type-id-72'/>
    <pointer-type-def type-id='type-id-17' size-in-bits='64' id='type-id-52'/>
    <pointer-type-def type-id='type-id-86' size-in-bits='64' id='type-id-206'/>
    <pointer-type-def type-id='type-id-83' size-in-bits='64' id='type-id-207'/>
    <pointer-type-def type-id='type-id-143' size-in-bits='64' id='type-id-208'/>
    <qualified-type-def type-id='type-id-208' const='yes' id='type-id-209'/>
    <pointer-type-def type-id='type-id-210' size-in-bits='64' id='type-id-211'/>
    <reference-type-def kind='lvalue' type-id='type-id-147' size-in-bits='64' id='type-id-212'/>
    <pointer-type-def type-id='type-id-147' size-in-bits='64' id='type-id-213'/>
    <qualified-type-def type-id='type-id-213' const='yes' id='type-id-214'/>
    <pointer-type-def type-id='type-id-153' size-in-bits='64' id='type-id-215'/>
    <pointer-type-def type-id='type-id-216' size-in-bits='64' id='type-id-217'/>
    <pointer-type-def type-id='type-id-218' size-in-bits='64' id='type-id-219'/>
    <pointer-type-def type-id='type-id-160' size-in-bits='64' id='type-id-220'/>
    <reference-type-def kind='lvalue' type-id='type-id-163' size-in-bits='64' id='type-id-221'/>
    <pointer-type-def type-id='type-id-163' size-in-bits='64' id='type-id-222'/>
    <pointer-type-def type-id='type-id-167' size-in-bits='64' id='type-id-223'/>
    <qualified-type-def type-id='type-id-223' const='yes' id='type-id-224'/>
    <reference-type-def kind='lvalue' type-id='type-id-225' size-in-bits='64' id='type-id-226'/>
    <pointer-type-def type-id='type-id-225' size-in-bits='64' id='type-id-227'/>
    <qualified-type-def type-id='type-id-227' const='yes' id='type-id-228'/>
    <reference-type-def kind='lvalue' type-id='type-id-173' size-in-bits='64' id='type-id-229'/>
    <pointer-type-def type-id='type-id-173' size-in-bits='64' id='type-id-230'/>
    <reference-type-def kind='lvalue' type-id='type-id-180' size-in-bits='64' id='type-id-231'/>
    <pointer-type-def type-id='type-id-180' size-in-bits='64' id='type-id-232'/>
    <qualified-type-def type-id='type-id-232' const='yes' id='type-id-233'/>
    <reference-type-def kind='lvalue' type-id='type-id-234' size-in-bits='64' id='type-id-235'/>
    <pointer-type-def type-id='type-id-236' size-in-bits='64' id='type-id-237'/>
    <reference-type-def kind='lvalue' type-id='type-id-238' size-in-bits='64' id='type-id-69'/>
    <pointer-type-def type-id='type-id-12' size-in-bits='64' id='type-id-239'/>
    <pointer-type-def type-id='type-id-13' size-in-bits='64' id='type-id-54'/>
    <pointer-type-def type-id='type-id-240' size-in-bits='64' id='type-id-241'/>
    <pointer-type-def type-id='type-id-27' size-in-bits='64' id='type-id-14'/>
    <pointer-type-def type-id='type-id-242' size-in-bits='64' id='type-id-243'/>
    <qualified-type-def type-id='type-id-243' const='yes' id='type-id-244'/>
    <pointer-type-def type-id='type-id-245' size-in-bits='64' id='type-id-246'/>
    <pointer-type-def type-id='type-id-247' size-in-bits='64' id='type-id-248'/>
    <qualified-type-def type-id='type-id-248' const='yes' id='type-id-249'/>
    <pointer-type-def type-id='type-id-250' size-in-bits='64' id='type-id-251'/>
    <qualified-type-def type-id='type-id-251' const='yes' id='type-id-252'/>
    <pointer-type-def type-id='type-id-253' size-in-bits='64' id='type-id-254'/>
    <pointer-type-def type-id='type-id-255' size-in-bits='64' id='type-id-256'/>
    <qualified-type-def type-id='type-id-256' const='yes' id='type-id-257'/>
    <pointer-type-def type-id='type-id-59' size-in-bits='64' id='type-id-61'/>
    <pointer-type-def type-id='type-id-258' size-in-bits='64' id='type-id-259'/>
    <pointer-type-def type-id='type-id-99' size-in-bits='64' id='type-id-66'/>
    <qualified-type-def type-id='type-id-66' const='yes' id='type-id-104'/>
    <pointer-type-def type-id='type-id-58' size-in-bits='64' id='type-id-63'/>
    <pointer-type-def type-id='type-id-260' size-in-bits='64' id='type-id-102'/>
    <pointer-type-def type-id='type-id-70' size-in-bits='64' id='type-id-114'/>
    <pointer-type-def type-id='type-id-261' size-in-bits='64' id='type-id-106'/>
    <pointer-type-def type-id='type-id-262' size-in-bits='64' id='type-id-108'/>
    <pointer-type-def type-id='type-id-108' size-in-bits='64' id='type-id-107'/>
    <pointer-type-def type-id='type-id-263' size-in-bits='64' id='type-id-71'/>
    <pointer-type-def type-id='type-id-264' size-in-bits='64' id='type-id-265'/>
    <pointer-type-def type-id='type-id-266' size-in-bits='64' id='type-id-267'/>
    <qualified-type-def type-id='type-id-267' const='yes' id='type-id-268'/>
    <reference-type-def kind='lvalue' type-id='type-id-48' size-in-bits='64' id='type-id-269'/>
    <pointer-type-def type-id='type-id-48' size-in-bits='64' id='type-id-49'/>
    <qualified-type-def type-id='type-id-49' const='yes' id='type-id-270'/>
    <reference-type-def kind='lvalue' type-id='type-id-270' size-in-bits='64' id='type-id-271'/>
    <pointer-type-def type-id='type-id-270' size-in-bits='64' id='type-id-272'/>
    <reference-type-def kind='lvalue' type-id='type-id-49' size-in-bits='64' id='type-id-273'/>
    <pointer-type-def type-id='type-id-49' size-in-bits='64' id='type-id-274'/>
    <pointer-type-def type-id='type-id-275' size-in-bits='64' id='type-id-276'/>
    <pointer-type-def type-id='type-id-277' size-in-bits='64' id='type-id-278'/>
    <reference-type-def kind='lvalue' type-id='type-id-279' size-in-bits='64' id='type-id-280'/>
    <pointer-type-def type-id='type-id-279' size-in-bits='64' id='type-id-76'/>
    <pointer-type-def type-id='type-id-281' size-in-bits='64' id='type-id-101'/>
    <qualified-type-def type-id='type-id-101' const='yes' id='type-id-282'/>
    <reference-type-def kind='lvalue' type-id='type-id-73' size-in-bits='64' id='type-id-283'/>
    <pointer-type-def type-id='type-id-73' size-in-bits='64' id='type-id-75'/>
    <qualified-type-def type-id='type-id-75' const='yes' id='type-id-284'/>
    <reference-type-def kind='lvalue' type-id='type-id-74' size-in-bits='64' id='type-id-285'/>
    <pointer-type-def type-id='type-id-74' size-in-bits='64' id='type-id-98'/>
    <pointer-type-def type-id='type-id-28' size-in-bits='64' id='type-id-286'/>
    <pointer-type-def type-id='type-id-286' size-in-bits='64' id='type-id-287'/>
    <class-decl name='vtkAlgorithm' visibility='default' is-declaration-only='yes' id='type-id-245'>
      <member-function access='private' vtable-offset='24'>
        <function-decl name='GetInformation' mangled-name='_ZN12vtkAlgorithm14GetInformationEv' filepath='/tmp/legendre/spack-stage/spack-stage-R_crTC/VTK-6.1.0/Common/ExecutionModel/vtkAlgorithm.h' line='160' column='1' visibility='default' binding='global' size-in-bits='64'>
          <parameter type-id='type-id-246' is-artificial='yes'/>
          <return type-id='type-id-106'/>
        </function-decl>
      </member-function>
      <member-function access='private' vtable-offset='26'>
        <function-decl name='SetAbortExecute' mangled-name='_ZN12vtkAlgorithm15SetAbortExecuteEi' filepath='/tmp/legendre/spack-stage/spack-stage-R_crTC/VTK-6.1.0/Common/ExecutionModel/vtkAlgorithm.h' line='179' column='1' visibility='default' binding='global' size-in-bits='64'>
          <parameter type-id='type-id-246' is-artificial='yes'/>
          <parameter type-id='type-id-17'/>
          <return type-id='type-id-27'/>
        </function-decl>
      </member-function>
      <member-function access='private' vtable-offset='27'>
        <function-decl name='GetAbortExecute' mangled-name='_ZN12vtkAlgorithm15GetAbortExecuteEv' filepath='/tmp/legendre/spack-stage/spack-stage-R_crTC/VTK-6.1.0/Common/ExecutionModel/vtkAlgorithm.h' line='180' column='1' visibility='default' binding='global' size-in-bits='64'>
          <parameter type-id='type-id-246' is-artificial='yes'/>
          <return type-id='type-id-17'/>
        </function-decl>
      </member-function>
      <member-function access='private' vtable-offset='28'>
        <function-decl name='AbortExecuteOn' mangled-name='_ZN12vtkAlgorithm14AbortExecuteOnEv' filepath='/tmp/legendre/spack-stage/spack-stage-R_crTC/VTK-6.1.0/Common/ExecutionModel/vtkAlgorithm.h' line='181' column='1' visibility='default' binding='global' size-in-bits='64'>
          <parameter type-id='type-id-246' is-artificial='yes'/>
          <return type-id='type-id-27'/>
        </function-decl>
      </member-function>
      <member-function access='private' vtable-offset='29'>
        <function-decl name='AbortExecuteOff' mangled-name='_ZN12vtkAlgorithm15AbortExecuteOffEv' filepath='/tmp/legendre/spack-stage/spack-stage-R_crTC/VTK-6.1.0/Common/ExecutionModel/vtkAlgorithm.h' line='181' column='1' visibility='default' binding='global' size-in-bits='64'>
          <parameter type-id='type-id-246' is-artificial='yes'/>
          <return type-id='type-id-27'/>
        </function-decl>
      </member-function>
      <member-function access='private' vtable-offset='30'>
        <function-decl name='SetProgress' mangled-name='_ZN12vtkAlgorithm11SetProgressEd' filepath='/tmp/legendre/spack-stage/spack-stage-R_crTC/VTK-6.1.0/Common/ExecutionModel/vtkAlgorithm.h' line='185' column='1' visibility='default' binding='global' size-in-bits='64'>
          <parameter type-id='type-id-246' is-artificial='yes'/>
          <parameter type-id='type-id-15'/>
          <return type-id='type-id-27'/>
        </function-decl>
      </member-function>
      <member-function access='private' vtable-offset='31'>
        <function-decl name='GetProgressMinValue' mangled-name='_ZN12vtkAlgorithm19GetProgressMinValueEv' filepath='/tmp/legendre/spack-stage/spack-stage-R_crTC/VTK-6.1.0/Common/ExecutionModel/vtkAlgorithm.h' line='185' column='1' visibility='default' binding='global' size-in-bits='64'>
          <parameter type-id='type-id-246' is-artificial='yes'/>
          <return type-id='type-id-15'/>
        </function-decl>
      </member-function>
      <member-function access='private' vtable-offset='32'>
        <function-decl name='GetProgressMaxValue' mangled-name='_ZN12vtkAlgorithm19GetProgressMaxValueEv' filepath='/tmp/legendre/spack-stage/spack-stage-R_crTC/VTK-6.1.0/Common/ExecutionModel/vtkAlgorithm.h' line='185' column='1' visibility='default' binding='global' size-in-bits='64'>
          <parameter type-id='type-id-246' is-artificial='yes'/>
          <return type-id='type-id-15'/>
        </function-decl>
      </member-function>
      <member-function access='private' vtable-offset='33'>
        <function-decl name='GetProgress' mangled-name='_ZN12vtkAlgorithm11GetProgressEv' filepath='/tmp/legendre/spack-stage/spack-stage-R_crTC/VTK-6.1.0/Common/ExecutionModel/vtkAlgorithm.h' line='186' column='1' visibility='default' binding='global' size-in-bits='64'>
          <parameter type-id='type-id-246' is-artificial='yes'/>
          <return type-id='type-id-15'/>
        </function-decl>
      </member-function>
      <member-function access='private' vtable-offset='34'>
        <function-decl name='GetProgressText' mangled-name='_ZN12vtkAlgorithm15GetProgressTextEv' filepath='/tmp/legendre/spack-stage/spack-stage-R_crTC/VTK-6.1.0/Common/ExecutionModel/vtkAlgorithm.h' line='201' column='1' visibility='default' binding='global' size-in-bits='64'>
          <parameter type-id='type-id-246' is-artificial='yes'/>
          <return type-id='type-id-32'/>
        </function-decl>
      </member-function>
      <member-function access='private' vtable-offset='35'>
        <function-decl name='GetErrorCode' mangled-name='_ZN12vtkAlgorithm12GetErrorCodeEv' filepath='/tmp/legendre/spack-stage/spack-stage-R_crTC/VTK-6.1.0/Common/ExecutionModel/vtkAlgorithm.h' line='206' column='1' visibility='default' binding='global' size-in-bits='64'>
          <parameter type-id='type-id-246' is-artificial='yes'/>
          <return type-id='type-id-4'/>
        </function-decl>
      </member-function>
      <member-function access='private' vtable-offset='48'>
        <function-decl name='SetInputDataObject' mangled-name='_ZN12vtkAlgorithm18SetInputDataObjectEP13vtkDataObject' filepath='/tmp/legendre/spack-stage/spack-stage-R_crTC/VTK-6.1.0/Common/ExecutionModel/vtkAlgorithm.h' line='338' column='1' visibility='default' binding='global' size-in-bits='64'>
          <parameter type-id='type-id-246' is-artificial='yes'/>
          <parameter type-id='type-id-254'/>
          <return type-id='type-id-27'/>
        </function-decl>
      </member-function>
      <member-function access='private' vtable-offset='50'>
        <function-decl name='AddInputDataObject' mangled-name='_ZN12vtkAlgorithm18AddInputDataObjectEP13vtkDataObject' filepath='/tmp/legendre/spack-stage/spack-stage-R_crTC/VTK-6.1.0/Common/ExecutionModel/vtkAlgorithm.h' line='346' column='1' visibility='default' binding='global' size-in-bits='64'>
          <parameter type-id='type-id-246' is-artificial='yes'/>
          <parameter type-id='type-id-254'/>
          <return type-id='type-id-27'/>
        </function-decl>
      </member-function>
      <member-function access='private' vtable-offset='59'>
        <function-decl name='GetProgressObserver' mangled-name='_ZN12vtkAlgorithm19GetProgressObserverEv' filepath='/tmp/legendre/spack-stage/spack-stage-R_crTC/VTK-6.1.0/Common/ExecutionModel/vtkAlgorithm.h' line='578' column='1' visibility='default' binding='global' size-in-bits='64'>
          <parameter type-id='type-id-246' is-artificial='yes'/>
          <return type-id='type-id-278'/>
        </function-decl>
      </member-function>
      <member-function access='protected' vtable-offset='65'>
        <function-decl name='SetErrorCode' mangled-name='_ZN12vtkAlgorithm12SetErrorCodeEm' filepath='/tmp/legendre/spack-stage/spack-stage-R_crTC/VTK-6.1.0/Common/ExecutionModel/vtkAlgorithm.h' line='710' column='1' visibility='default' binding='global' size-in-bits='64'>
          <parameter type-id='type-id-246' is-artificial='yes'/>
          <parameter type-id='type-id-4'/>
          <return type-id='type-id-27'/>
        </function-decl>
      </member-function>
    </class-decl>
    <class-decl name='vtkDataArrayTemplate&lt;float&gt;' visibility='default' is-declaration-only='yes' id='type-id-250'>
      <member-type access='private'>
        <enum-decl name='DeleteMethod' filepath='/tmp/legendre/spack-stage/spack-stage-R_crTC/VTK-6.1.0/Common/Core/vtkDataArrayTemplate.h' line='254' column='1' id='type-id-288'>
          <underlying-type type-id='type-id-24'/>
          <enumerator name='VTK_DATA_ARRAY_FREE' value='0'/>
          <enumerator name='VTK_DATA_ARRAY_DELETE' value='1'/>
        </enum-decl>
      </member-type>
    </class-decl>
    <class-decl name='vtkDataObject' visibility='default' is-declaration-only='yes' id='type-id-253'>
      <member-type access='private'>
        <enum-decl name='FieldAssociations' filepath='/tmp/legendre/spack-stage/spack-stage-R_crTC/VTK-6.1.0/Common/DataModel/vtkDataObject.h' line='212' column='1' id='type-id-289'>
          <underlying-type type-id='type-id-24'/>
          <enumerator name='FIELD_ASSOCIATION_POINTS' value='0'/>
          <enumerator name='FIELD_ASSOCIATION_CELLS' value='1'/>
          <enumerator name='FIELD_ASSOCIATION_NONE' value='2'/>
          <enumerator name='FIELD_ASSOCIATION_POINTS_THEN_CELLS' value='3'/>
          <enumerator name='FIELD_ASSOCIATION_VERTICES' value='4'/>
          <enumerator name='FIELD_ASSOCIATION_EDGES' value='5'/>
          <enumerator name='FIELD_ASSOCIATION_ROWS' value='6'/>
          <enumerator name='NUMBER_OF_ASSOCIATIONS' value='7'/>
        </enum-decl>
      </member-type>
    </class-decl>
    <class-decl name='vtkExtentTranslator' visibility='default' is-declaration-only='yes' id='type-id-59'>
      <member-function access='private' vtable-offset='20'>
        <function-decl name='SetWholeExtent' mangled-name='_ZN19vtkExtentTranslator14SetWholeExtentEiiiiii' filepath='/tmp/legendre/spack-stage/spack-stage-R_crTC/VTK-6.1.0/Common/DataModel/vtkExtentTranslator.h' line='43' column='1' visibility='default' binding='global' size-in-bits='64'>
          <parameter type-id='type-id-61' is-artificial='yes'/>
          <parameter type-id='type-id-17'/>
          <parameter type-id='type-id-17'/>
          <parameter type-id='type-id-17'/>
          <parameter type-id='type-id-17'/>
          <parameter type-id='type-id-17'/>
          <parameter type-id='type-id-17'/>
          <return type-id='type-id-27'/>
        </function-decl>
      </member-function>
      <member-function access='private' vtable-offset='21'>
        <function-decl name='SetWholeExtent' mangled-name='_ZN19vtkExtentTranslator14SetWholeExtentEPi' filepath='/tmp/legendre/spack-stage/spack-stage-R_crTC/VTK-6.1.0/Common/DataModel/vtkExtentTranslator.h' line='43' column='1' visibility='default' binding='global' size-in-bits='64'>
          <parameter type-id='type-id-61' is-artificial='yes'/>
          <parameter type-id='type-id-52'/>
          <return type-id='type-id-27'/>
        </function-decl>
      </member-function>
      <member-function access='private' vtable-offset='22'>
        <function-decl name='GetWholeExtent' mangled-name='_ZN19vtkExtentTranslator14GetWholeExtentEv' filepath='/tmp/legendre/spack-stage/spack-stage-R_crTC/VTK-6.1.0/Common/DataModel/vtkExtentTranslator.h' line='44' column='1' visibility='default' binding='global' size-in-bits='64'>
          <parameter type-id='type-id-61' is-artificial='yes'/>
          <return type-id='type-id-52'/>
        </function-decl>
      </member-function>
      <member-function access='private' vtable-offset='23'>
        <function-decl name='GetWholeExtent' mangled-name='_ZN19vtkExtentTranslator14GetWholeExtentERiS0_S0_S0_S0_S0_' filepath='/tmp/legendre/spack-stage/spack-stage-R_crTC/VTK-6.1.0/Common/DataModel/vtkExtentTranslator.h' line='44' column='1' visibility='default' binding='global' size-in-bits='64'>
          <parameter type-id='type-id-61' is-artificial='yes'/>
          <parameter type-id='type-id-72'/>
          <parameter type-id='type-id-72'/>
          <parameter type-id='type-id-72'/>
          <parameter type-id='type-id-72'/>
          <parameter type-id='type-id-72'/>
          <parameter type-id='type-id-72'/>
          <return type-id='type-id-27'/>
        </function-decl>
      </member-function>
      <member-function access='private' vtable-offset='24'>
        <function-decl name='GetWholeExtent' mangled-name='_ZN19vtkExtentTranslator14GetWholeExtentEPi' filepath='/tmp/legendre/spack-stage/spack-stage-R_crTC/VTK-6.1.0/Common/DataModel/vtkExtentTranslator.h' line='44' column='1' visibility='default' binding='global' size-in-bits='64'>
          <parameter type-id='type-id-61' is-artificial='yes'/>
          <parameter type-id='type-id-52'/>
          <return type-id='type-id-27'/>
        </function-decl>
      </member-function>
      <member-function access='private' vtable-offset='25'>
        <function-decl name='SetExtent' mangled-name='_ZN19vtkExtentTranslator9SetExtentEiiiiii' filepath='/tmp/legendre/spack-stage/spack-stage-R_crTC/VTK-6.1.0/Common/DataModel/vtkExtentTranslator.h' line='45' column='1' visibility='default' binding='global' size-in-bits='64'>
          <parameter type-id='type-id-61' is-artificial='yes'/>
          <parameter type-id='type-id-17'/>
          <parameter type-id='type-id-17'/>
          <parameter type-id='type-id-17'/>
          <parameter type-id='type-id-17'/>
          <parameter type-id='type-id-17'/>
          <parameter type-id='type-id-17'/>
          <return type-id='type-id-27'/>
        </function-decl>
      </member-function>
      <member-function access='private' vtable-offset='26'>
        <function-decl name='SetExtent' mangled-name='_ZN19vtkExtentTranslator9SetExtentEPi' filepath='/tmp/legendre/spack-stage/spack-stage-R_crTC/VTK-6.1.0/Common/DataModel/vtkExtentTranslator.h' line='45' column='1' visibility='default' binding='global' size-in-bits='64'>
          <parameter type-id='type-id-61' is-artificial='yes'/>
          <parameter type-id='type-id-52'/>
          <return type-id='type-id-27'/>
        </function-decl>
      </member-function>
      <member-function access='private' vtable-offset='27'>
        <function-decl name='GetExtent' mangled-name='_ZN19vtkExtentTranslator9GetExtentEv' filepath='/tmp/legendre/spack-stage/spack-stage-R_crTC/VTK-6.1.0/Common/DataModel/vtkExtentTranslator.h' line='46' column='1' visibility='default' binding='global' size-in-bits='64'>
          <parameter type-id='type-id-61' is-artificial='yes'/>
          <return type-id='type-id-52'/>
        </function-decl>
      </member-function>
      <member-function access='private' vtable-offset='28'>
        <function-decl name='GetExtent' mangled-name='_ZN19vtkExtentTranslator9GetExtentERiS0_S0_S0_S0_S0_' filepath='/tmp/legendre/spack-stage/spack-stage-R_crTC/VTK-6.1.0/Common/DataModel/vtkExtentTranslator.h' line='46' column='1' visibility='default' binding='global' size-in-bits='64'>
          <parameter type-id='type-id-61' is-artificial='yes'/>
          <parameter type-id='type-id-72'/>
          <parameter type-id='type-id-72'/>
          <parameter type-id='type-id-72'/>
          <parameter type-id='type-id-72'/>
          <parameter type-id='type-id-72'/>
          <parameter type-id='type-id-72'/>
          <return type-id='type-id-27'/>
        </function-decl>
      </member-function>
      <member-function access='private' vtable-offset='29'>
        <function-decl name='GetExtent' mangled-name='_ZN19vtkExtentTranslator9GetExtentEPi' filepath='/tmp/legendre/spack-stage/spack-stage-R_crTC/VTK-6.1.0/Common/DataModel/vtkExtentTranslator.h' line='46' column='1' visibility='default' binding='global' size-in-bits='64'>
          <parameter type-id='type-id-61' is-artificial='yes'/>
          <parameter type-id='type-id-52'/>
          <return type-id='type-id-27'/>
        </function-decl>
      </member-function>
      <member-function access='private' vtable-offset='30'>
        <function-decl name='SetPiece' mangled-name='_ZN19vtkExtentTranslator8SetPieceEi' filepath='/tmp/legendre/spack-stage/spack-stage-R_crTC/VTK-6.1.0/Common/DataModel/vtkExtentTranslator.h' line='47' column='1' visibility='default' binding='global' size-in-bits='64'>
          <parameter type-id='type-id-61' is-artificial='yes'/>
          <parameter type-id='type-id-17'/>
          <return type-id='type-id-27'/>
        </function-decl>
      </member-function>
      <member-function access='private' vtable-offset='31'>
        <function-decl name='GetPiece' mangled-name='_ZN19vtkExtentTranslator8GetPieceEv' filepath='/tmp/legendre/spack-stage/spack-stage-R_crTC/VTK-6.1.0/Common/DataModel/vtkExtentTranslator.h' line='48' column='1' visibility='default' binding='global' size-in-bits='64'>
          <parameter type-id='type-id-61' is-artificial='yes'/>
          <return type-id='type-id-17'/>
        </function-decl>
      </member-function>
      <member-function access='private' vtable-offset='32'>
        <function-decl name='SetNumberOfPieces' mangled-name='_ZN19vtkExtentTranslator17SetNumberOfPiecesEi' filepath='/tmp/legendre/spack-stage/spack-stage-R_crTC/VTK-6.1.0/Common/DataModel/vtkExtentTranslator.h' line='49' column='1' visibility='default' binding='global' size-in-bits='64'>
          <parameter type-id='type-id-61' is-artificial='yes'/>
          <parameter type-id='type-id-17'/>
          <return type-id='type-id-27'/>
        </function-decl>
      </member-function>
      <member-function access='private' vtable-offset='33'>
        <function-decl name='GetNumberOfPieces' mangled-name='_ZN19vtkExtentTranslator17GetNumberOfPiecesEv' filepath='/tmp/legendre/spack-stage/spack-stage-R_crTC/VTK-6.1.0/Common/DataModel/vtkExtentTranslator.h' line='50' column='1' visibility='default' binding='global' size-in-bits='64'>
          <parameter type-id='type-id-61' is-artificial='yes'/>
          <return type-id='type-id-17'/>
        </function-decl>
      </member-function>
      <member-function access='private' vtable-offset='34'>
        <function-decl name='SetGhostLevel' mangled-name='_ZN19vtkExtentTranslator13SetGhostLevelEi' filepath='/tmp/legendre/spack-stage/spack-stage-R_crTC/VTK-6.1.0/Common/DataModel/vtkExtentTranslator.h' line='51' column='1' visibility='default' binding='global' size-in-bits='64'>
          <parameter type-id='type-id-61' is-artificial='yes'/>
          <parameter type-id='type-id-17'/>
          <return type-id='type-id-27'/>
        </function-decl>
      </member-function>
      <member-function access='private' vtable-offset='35'>
        <function-decl name='GetGhostLevel' mangled-name='_ZN19vtkExtentTranslator13GetGhostLevelEv' filepath='/tmp/legendre/spack-stage/spack-stage-R_crTC/VTK-6.1.0/Common/DataModel/vtkExtentTranslator.h' line='52' column='1' visibility='default' binding='global' size-in-bits='64'>
          <parameter type-id='type-id-61' is-artificial='yes'/>
          <return type-id='type-id-17'/>
        </function-decl>
      </member-function>
      <member-function access='private' vtable-offset='39'>
        <function-decl name='GetSplitMode' mangled-name='_ZN19vtkExtentTranslator12GetSplitModeEv' filepath='/tmp/legendre/spack-stage/spack-stage-R_crTC/VTK-6.1.0/Common/DataModel/vtkExtentTranslator.h' line='83' column='1' visibility='default' binding='global' size-in-bits='64'>
          <parameter type-id='type-id-61' is-artificial='yes'/>
          <return type-id='type-id-17'/>
        </function-decl>
      </member-function>
    </class-decl>
    <class-decl name='vtkOStreamWrapper' visibility='default' is-declaration-only='yes' id='type-id-290'>
      <member-type access='private'>
        <class-decl name='EndlType' size-in-bits='8' is-struct='yes' visibility='default' filepath='/tmp/legendre/spack-stage/spack-stage-R_crTC/VTK-6.1.0/Common/Core/vtkOStreamWrapper.h' line='58' column='1' id='type-id-188'/>
      </member-type>
    </class-decl>
    <class-decl name='vtkObjectBase' visibility='default' is-declaration-only='yes' id='type-id-263'>
      <member-function access='protected' vtable-offset='11'>
        <function-decl name='CollectRevisions' mangled-name='_ZN13vtkObjectBase16CollectRevisionsERSo' filepath='/tmp/legendre/spack-stage/spack-stage-R_crTC/VTK-6.1.0/Common/Core/vtkObjectBase.h' line='163' column='1' visibility='default' binding='global' size-in-bits='64'>
          <parameter type-id='type-id-71' is-artificial='yes'/>
          <parameter type-id='type-id-69'/>
          <return type-id='type-id-27'/>
        </function-decl>
      </member-function>
    </class-decl>
    <class-decl name='vtkPixelBufferObject' visibility='default' is-declaration-only='yes' id='type-id-266'>
      <member-type access='private'>
        <enum-decl name='BufferType' filepath='/tmp/legendre/spack-stage/spack-stage-R_crTC/VTK-6.1.0/Rendering/OpenGL/vtkPixelBufferObject.h' line='265' column='1' id='type-id-291'>
          <underlying-type type-id='type-id-24'/>
          <enumerator name='UNPACKED_BUFFER' value='0'/>
          <enumerator name='PACKED_BUFFER' value='1'/>
        </enum-decl>
      </member-type>
    </class-decl>
    <class-decl name='vtkTextureObject' visibility='default' is-declaration-only='yes' id='type-id-292'>
      <member-type access='private'>
        <enum-decl name='__anonymous_enum__2' is-anonymous='yes' filepath='/tmp/legendre/spack-stage/spack-stage-R_crTC/VTK-6.1.0/Rendering/OpenGL/vtkTextureObject.h' line='88' column='1' id='type-id-293'>
          <underlying-type type-id='type-id-24'/>
          <enumerator name='Native' value='0'/>
          <enumerator name='Fixed16' value='1'/>
          <enumerator name='Fixed24' value='2'/>
          <enumerator name='Fixed32' value='3'/>
          <enumerator name='Float32' value='4'/>
          <enumerator name='NumberOfDepthFormats' value='5'/>
        </enum-decl>
      </member-type>
      <member-type access='private'>
        <enum-decl name='__anonymous_enum__' is-anonymous='yes' filepath='/tmp/legendre/spack-stage/spack-stage-R_crTC/VTK-6.1.0/Rendering/OpenGL/vtkTextureObject.h' line='65' column='1' id='type-id-294'>
          <underlying-type type-id='type-id-24'/>
          <enumerator name='Clamp' value='0'/>
          <enumerator name='ClampToEdge' value='1'/>
          <enumerator name='Repeat' value='2'/>
          <enumerator name='ClampToBorder' value='3'/>
          <enumerator name='MirroredRepeat' value='4'/>
          <enumerator name='NumberOfWrapModes' value='5'/>
        </enum-decl>
      </member-type>
      <member-type access='private'>
        <enum-decl name='__anonymous_enum__1' is-anonymous='yes' filepath='/tmp/legendre/spack-stage/spack-stage-R_crTC/VTK-6.1.0/Rendering/OpenGL/vtkTextureObject.h' line='76' column='1' id='type-id-295'>
          <underlying-type type-id='type-id-24'/>
          <enumerator name='Nearest' value='0'/>
          <enumerator name='Linear' value='1'/>
          <enumerator name='NearestMipmapNearest' value='2'/>
          <enumerator name='NearestMipmapLinear' value='3'/>
          <enumerator name='LinearMipmapNearest' value='4'/>
          <enumerator name='LinearMipmapLinear' value='5'/>
          <enumerator name='NumberOfMinificationModes' value='6'/>
        </enum-decl>
      </member-type>
    </class-decl>
    <namespace-decl name='std'>
      <class-decl name='_Resetiosflags' size-in-bits='32' is-struct='yes' visibility='default' filepath='/usr/lib/gcc/x86_64-redhat-linux/4.4.7/../../../../include/c++/4.4.7/iomanip' line='49' column='1' id='type-id-296'>
        <member-type access='public'>
          <typedef-decl name='fmtflags' type-id='type-id-297' filepath='/usr/lib/gcc/x86_64-redhat-linux/4.4.7/../../../../include/c++/4.4.7/bits/ios_base.h' line='263' column='1' id='type-id-151'/>
        </member-type>
        <data-member access='public' layout-offset-in-bits='0'>
          <var-decl name='_M_mask' type-id='type-id-151' visibility='default' filepath='/usr/lib/gcc/x86_64-redhat-linux/4.4.7/../../../../include/c++/4.4.7/iomanip' line='49' column='1'/>
        </data-member>
      </class-decl>
      <enum-decl name='_Ios_Fmtflags' filepath='/usr/lib/gcc/x86_64-redhat-linux/4.4.7/../../../../include/c++/4.4.7/bits/ios_base.h' line='60' column='1' id='type-id-297'>
        <underlying-type type-id='type-id-24'/>
        <enumerator name='_S_boolalpha' value='1'/>
        <enumerator name='_S_dec' value='2'/>
        <enumerator name='_S_fixed' value='4'/>
        <enumerator name='_S_hex' value='8'/>
        <enumerator name='_S_internal' value='16'/>
        <enumerator name='_S_left' value='32'/>
        <enumerator name='_S_oct' value='64'/>
        <enumerator name='_S_right' value='128'/>
        <enumerator name='_S_scientific' value='256'/>
        <enumerator name='_S_showbase' value='512'/>
        <enumerator name='_S_showpoint' value='1024'/>
        <enumerator name='_S_showpos' value='2048'/>
        <enumerator name='_S_skipws' value='4096'/>
        <enumerator name='_S_unitbuf' value='8192'/>
        <enumerator name='_S_uppercase' value='16384'/>
        <enumerator name='_S_adjustfield' value='176'/>
        <enumerator name='_S_basefield' value='74'/>
        <enumerator name='_S_floatfield' value='260'/>
        <enumerator name='_S_ios_fmtflags_end' value='65536'/>
      </enum-decl>
      <enum-decl name='_Ios_Iostate' filepath='/usr/lib/gcc/x86_64-redhat-linux/4.4.7/../../../../include/c++/4.4.7/bits/ios_base.h' line='152' column='1' id='type-id-298'>
        <underlying-type type-id='type-id-24'/>
        <enumerator name='_S_goodbit' value='0'/>
        <enumerator name='_S_badbit' value='1'/>
        <enumerator name='_S_eofbit' value='2'/>
        <enumerator name='_S_failbit' value='4'/>
        <enumerator name='_S_ios_iostate_end' value='65536'/>
      </enum-decl>
      <class-decl name='__basic_file&lt;char&gt;' size-in-bits='128' visibility='default' filepath='/usr/lib/gcc/x86_64-redhat-linux/4.4.7/../../../../include/c++/4.4.7/x86_64-redhat-linux/bits/basic_file.h' line='53' column='1' id='type-id-153'>
        <member-type access='private'>
          <typedef-decl name='openmode' type-id='type-id-299' filepath='/usr/lib/gcc/x86_64-redhat-linux/4.4.7/../../../../include/c++/4.4.7/bits/ios_base.h' line='369' column='1' id='type-id-156'/>
        </member-type>
        <member-type access='private'>
          <typedef-decl name='seekdir' type-id='type-id-300' filepath='/usr/lib/gcc/x86_64-redhat-linux/4.4.7/../../../../include/c++/4.4.7/bits/ios_base.h' line='401' column='1' id='type-id-158'/>
        </member-type>
        <data-member access='private' layout-offset-in-bits='0'>
          <var-decl name='_M_cfile' type-id='type-id-217' visibility='default' filepath='/usr/lib/gcc/x86_64-redhat-linux/4.4.7/../../../../include/c++/4.4.7/x86_64-redhat-linux/bits/basic_file.h' line='55' column='1'/>
        </data-member>
        <data-member access='private' layout-offset-in-bits='64'>
          <var-decl name='_M_cfile_created' type-id='type-id-1' visibility='default' filepath='/usr/lib/gcc/x86_64-redhat-linux/4.4.7/../../../../include/c++/4.4.7/x86_64-redhat-linux/bits/basic_file.h' line='58' column='1'/>
        </data-member>
        <member-function access='private'>
          <function-decl name='__basic_file' filepath='/usr/lib/gcc/x86_64-redhat-linux/4.4.7/../../../../include/c++/4.4.7/x86_64-redhat-linux/bits/basic_file.h' line='61' column='1' visibility='default' binding='global' size-in-bits='64'>
            <parameter type-id='type-id-215' is-artificial='yes'/>
            <parameter type-id='type-id-219'/>
            <return type-id='type-id-27'/>
          </function-decl>
        </member-function>
        <member-function access='private' destructor='yes'>
          <function-decl name='~__basic_file' filepath='/usr/lib/gcc/x86_64-redhat-linux/4.4.7/../../../../include/c++/4.4.7/x86_64-redhat-linux/bits/basic_file.h' line='84' column='1' visibility='default' binding='global' size-in-bits='64'>
            <parameter type-id='type-id-215' is-artificial='yes'/>
            <parameter type-id='type-id-17' is-artificial='yes'/>
            <return type-id='type-id-27'/>
          </function-decl>
        </member-function>
      </class-decl>
      <typedef-decl name='__c_file' type-id='type-id-31' filepath='/usr/lib/gcc/x86_64-redhat-linux/4.4.7/../../../../include/c++/4.4.7/x86_64-redhat-linux/bits/c++io.h' line='45' column='1' id='type-id-216'/>
      <typedef-decl name='__c_lock' type-id='type-id-42' filepath='/usr/lib/gcc/x86_64-redhat-linux/4.4.7/../../../../include/c++/4.4.7/x86_64-redhat-linux/bits/c++io.h' line='42' column='1' id='type-id-218'/>
      <class-decl name='allocator&lt;vtkPixelExtent&gt;' size-in-bits='8' visibility='default' filepath='/usr/lib/gcc/x86_64-redhat-linux/4.4.7/../../../../include/c++/4.4.7/bits/allocator.h' line='87' column='1' id='type-id-163'>
        <base-class access='public' layout-offset-in-bits='0' type-id='type-id-120'/>
        <member-function access='private'>
          <function-decl name='allocator' filepath='/usr/lib/gcc/x86_64-redhat-linux/4.4.7/../../../../include/c++/4.4.7/bits/allocator.h' line='101' column='1' visibility='default' binding='global' size-in-bits='64'>
            <parameter type-id='type-id-222' is-artificial='yes'/>
            <return type-id='type-id-27'/>
          </function-decl>
        </member-function>
        <member-function access='private'>
          <function-decl name='allocator' filepath='/usr/lib/gcc/x86_64-redhat-linux/4.4.7/../../../../include/c++/4.4.7/bits/allocator.h' line='103' column='1' visibility='default' binding='global' size-in-bits='64'>
            <parameter type-id='type-id-222' is-artificial='yes'/>
            <parameter type-id='type-id-165'/>
            <return type-id='type-id-27'/>
          </function-decl>
        </member-function>
        <member-function access='private' destructor='yes'>
          <function-decl name='~allocator' filepath='/usr/lib/gcc/x86_64-redhat-linux/4.4.7/../../../../include/c++/4.4.7/bits/allocator.h' line='109' column='1' visibility='default' binding='global' size-in-bits='64'>
            <parameter type-id='type-id-222' is-artificial='yes'/>
            <parameter type-id='type-id-17' is-artificial='yes'/>
            <return type-id='type-id-27'/>
          </function-decl>
        </member-function>
      </class-decl>
      <enum-decl name='_Ios_Openmode' filepath='/usr/lib/gcc/x86_64-redhat-linux/4.4.7/../../../../include/c++/4.4.7/bits/ios_base.h' line='112' column='1' id='type-id-299'>
        <underlying-type type-id='type-id-24'/>
        <enumerator name='_S_app' value='1'/>
        <enumerator name='_S_ate' value='2'/>
        <enumerator name='_S_bin' value='4'/>
        <enumerator name='_S_in' value='8'/>
        <enumerator name='_S_out' value='16'/>
        <enumerator name='_S_trunc' value='32'/>
        <enumerator name='_S_ios_openmode_end' value='65536'/>
      </enum-decl>
      <typedef-decl name='streamsize' type-id='type-id-47' filepath='/usr/lib/gcc/x86_64-redhat-linux/4.4.7/../../../../include/c++/4.4.7/bits/postypes.h' line='98' column='1' id='type-id-301'/>
      <typedef-decl name='streamoff' type-id='type-id-20' filepath='/usr/lib/gcc/x86_64-redhat-linux/4.4.7/../../../../include/c++/4.4.7/bits/postypes.h' line='88' column='1' id='type-id-302'/>
      <enum-decl name='_Ios_Seekdir' filepath='/usr/lib/gcc/x86_64-redhat-linux/4.4.7/../../../../include/c++/4.4.7/bits/ios_base.h' line='189' column='1' id='type-id-300'>
        <underlying-type type-id='type-id-24'/>
        <enumerator name='_S_beg' value='0'/>
        <enumerator name='_S_cur' value='1'/>
        <enumerator name='_S_end' value='2'/>
        <enumerator name='_S_ios_seekdir_end' value='65536'/>
      </enum-decl>
      <class-decl name='_Setw' size-in-bits='32' is-struct='yes' visibility='default' filepath='/usr/lib/gcc/x86_64-redhat-linux/4.4.7/../../../../include/c++/4.4.7/iomanip' line='228' column='1' id='type-id-303'>
        <data-member access='public' layout-offset-in-bits='0'>
          <var-decl name='_M_n' type-id='type-id-17' visibility='default' filepath='/usr/lib/gcc/x86_64-redhat-linux/4.4.7/../../../../include/c++/4.4.7/iomanip' line='228' column='1'/>
        </data-member>
      </class-decl>
      <class-decl name='_Setprecision' size-in-bits='32' is-struct='yes' visibility='default' filepath='/usr/lib/gcc/x86_64-redhat-linux/4.4.7/../../../../include/c++/4.4.7/iomanip' line='194' column='1' id='type-id-304'>
        <data-member access='public' layout-offset-in-bits='0'>
          <var-decl name='_M_n' type-id='type-id-17' visibility='default' filepath='/usr/lib/gcc/x86_64-redhat-linux/4.4.7/../../../../include/c++/4.4.7/iomanip' line='194' column='1'/>
        </data-member>
      </class-decl>
      <class-decl name='_Deque_iterator&lt;vtkPixelExtent, vtkPixelExtent&amp;, vtkPixelExtent*&gt;' size-in-bits='256' is-struct='yes' visibility='default' filepath='/usr/lib/gcc/x86_64-redhat-linux/4.4.7/../../../../include/c++/4.4.7/bits/stl_deque.h' line='95' column='1' id='type-id-147'>
        <data-member access='public' layout-offset-in-bits='0'>
          <var-decl name='_M_cur' type-id='type-id-49' visibility='default' filepath='/usr/lib/gcc/x86_64-redhat-linux/4.4.7/../../../../include/c++/4.4.7/bits/stl_deque.h' line='111' column='1'/>
        </data-member>
        <data-member access='public' layout-offset-in-bits='64'>
          <var-decl name='_M_first' type-id='type-id-49' visibility='default' filepath='/usr/lib/gcc/x86_64-redhat-linux/4.4.7/../../../../include/c++/4.4.7/bits/stl_deque.h' line='112' column='1'/>
        </data-member>
        <data-member access='public' layout-offset-in-bits='128'>
          <var-decl name='_M_last' type-id='type-id-49' visibility='default' filepath='/usr/lib/gcc/x86_64-redhat-linux/4.4.7/../../../../include/c++/4.4.7/bits/stl_deque.h' line='113' column='1'/>
        </data-member>
        <data-member access='public' layout-offset-in-bits='192'>
          <var-decl name='_M_node' type-id='type-id-274' visibility='default' filepath='/usr/lib/gcc/x86_64-redhat-linux/4.4.7/../../../../include/c++/4.4.7/bits/stl_deque.h' line='114' column='1'/>
        </data-member>
        <member-function access='public'>
          <function-decl name='_Deque_iterator' filepath='/usr/lib/gcc/x86_64-redhat-linux/4.4.7/../../../../include/c++/4.4.7/bits/stl_deque.h' line='116' column='1' visibility='default' binding='global' size-in-bits='64'>
            <parameter type-id='type-id-213' is-artificial='yes'/>
            <parameter type-id='type-id-49'/>
            <parameter type-id='type-id-274'/>
            <return type-id='type-id-27'/>
          </function-decl>
        </member-function>
        <member-function access='public'>
          <function-decl name='_Deque_iterator' filepath='/usr/lib/gcc/x86_64-redhat-linux/4.4.7/../../../../include/c++/4.4.7/bits/stl_deque.h' line='120' column='1' visibility='default' binding='global' size-in-bits='64'>
            <parameter type-id='type-id-213' is-artificial='yes'/>
            <return type-id='type-id-27'/>
          </function-decl>
        </member-function>
        <member-function access='public'>
          <function-decl name='_Deque_iterator' filepath='/usr/lib/gcc/x86_64-redhat-linux/4.4.7/../../../../include/c++/4.4.7/bits/stl_deque.h' line='123' column='1' visibility='default' binding='global' size-in-bits='64'>
            <parameter type-id='type-id-213' is-artificial='yes'/>
            <parameter type-id='type-id-149'/>
            <return type-id='type-id-27'/>
          </function-decl>
        </member-function>
        <member-function access='public'>
          <function-decl name='operator+=' mangled-name='_ZNSt15_Deque_iteratorI14vtkPixelExtentRS0_PS0_EpLEl' filepath='/usr/lib/gcc/x86_64-redhat-linux/4.4.7/../../../../include/c++/4.4.7/bits/stl_deque.h' line='176' column='1' declared-inline='yes' visibility='default' binding='global' size-in-bits='64' elf-symbol-id='_ZNSt15_Deque_iteratorI14vtkPixelExtentRS0_PS0_EpLEl'>
            <parameter type-id='type-id-214' name='this' is-artificial='yes'/>
            <parameter type-id='type-id-47' name='__n' filepath='/usr/lib/gcc/x86_64-redhat-linux/4.4.7/../../../../include/c++/4.4.7/bits/stl_deque.h' line='176' column='1'/>
            <return type-id='type-id-212'/>
          </function-decl>
        </member-function>
        <member-function access='public'>
          <function-decl name='operator+' mangled-name='_ZNKSt15_Deque_iteratorI14vtkPixelExtentRS0_PS0_EplEl' filepath='/usr/lib/gcc/x86_64-redhat-linux/4.4.7/../../../../include/c++/4.4.7/bits/stl_deque.h' line='195' column='1' declared-inline='yes' visibility='default' binding='global' size-in-bits='64' elf-symbol-id='_ZNKSt15_Deque_iteratorI14vtkPixelExtentRS0_PS0_EplEl'>
            <parameter type-id='type-id-305' name='this' is-artificial='yes'/>
            <parameter type-id='type-id-47' name='__n' filepath='/usr/lib/gcc/x86_64-redhat-linux/4.4.7/../../../../include/c++/4.4.7/bits/stl_deque.h' line='195' column='1'/>
            <return type-id='type-id-147'/>
          </function-decl>
        </member-function>
      </class-decl>
      <class-decl name='deque&lt;vtkPixelExtent, std::allocator&lt;vtkPixelExtent&gt; &gt;' size-in-bits='640' visibility='default' filepath='/usr/lib/gcc/x86_64-redhat-linux/4.4.7/../../../../include/c++/4.4.7/bits/stl_deque.h' line='639' column='1' id='type-id-180'>
        <base-class access='protected' layout-offset-in-bits='0' type-id='type-id-143'/>
        <member-function access='private'>
          <function-decl name='deque' filepath='/usr/lib/gcc/x86_64-redhat-linux/4.4.7/../../../../include/c++/4.4.7/bits/stl_deque.h' line='690' column='1' visibility='default' binding='global' size-in-bits='64'>
            <parameter type-id='type-id-232' is-artificial='yes'/>
            <return type-id='type-id-27'/>
          </function-decl>
        </member-function>
        <member-function access='private'>
          <function-decl name='deque' filepath='/usr/lib/gcc/x86_64-redhat-linux/4.4.7/../../../../include/c++/4.4.7/bits/stl_deque.h' line='698' column='1' visibility='default' binding='global' size-in-bits='64'>
            <parameter type-id='type-id-232' is-artificial='yes'/>
            <parameter type-id='type-id-165'/>
            <return type-id='type-id-27'/>
          </function-decl>
        </member-function>
        <member-function access='private'>
          <function-decl name='deque' filepath='/usr/lib/gcc/x86_64-redhat-linux/4.4.7/../../../../include/c++/4.4.7/bits/stl_deque.h' line='710' column='1' visibility='default' binding='global' size-in-bits='64'>
            <parameter type-id='type-id-232' is-artificial='yes'/>
            <parameter type-id='type-id-4'/>
            <parameter type-id='type-id-50'/>
            <parameter type-id='type-id-165'/>
            <return type-id='type-id-27'/>
          </function-decl>
        </member-function>
        <member-function access='private'>
          <function-decl name='deque' mangled-name='_ZNSt5dequeI14vtkPixelExtentSaIS0_EEC2ERKS2_' filepath='/usr/lib/gcc/x86_64-redhat-linux/4.4.7/../../../../include/c++/4.4.7/bits/stl_deque.h' line='722' column='1' visibility='default' binding='global' size-in-bits='64' elf-symbol-id='_ZNSt5dequeI14vtkPixelExtentSaIS0_EEC2ERKS2_'>
            <parameter type-id='type-id-232' is-artificial='yes'/>
            <parameter type-id='type-id-182'/>
            <return type-id='type-id-27'/>
          </function-decl>
        </member-function>
        <member-function access='private' destructor='yes'>
          <function-decl name='~deque' filepath='/usr/lib/gcc/x86_64-redhat-linux/4.4.7/../../../../include/c++/4.4.7/bits/stl_deque.h' line='789' column='1' visibility='default' binding='global' size-in-bits='64'>
            <parameter type-id='type-id-232' is-artificial='yes'/>
            <parameter type-id='type-id-17' is-artificial='yes'/>
            <return type-id='type-id-27'/>
          </function-decl>
        </member-function>
        <member-function access='protected'>
          <function-decl name='_M_reallocate_map' mangled-name='_ZNSt5dequeI14vtkPixelExtentSaIS0_EE17_M_reallocate_mapEmb' filepath='/usr/lib/gcc/x86_64-redhat-linux/4.4.7/../../../../include/c++/4.4.7/bits/deque.tcc' line='795' column='1' visibility='default' binding='global' size-in-bits='64' elf-symbol-id='_ZNSt5dequeI14vtkPixelExtentSaIS0_EE17_M_reallocate_mapEmb'>
            <parameter type-id='type-id-233' name='this' is-artificial='yes'/>
            <parameter type-id='type-id-38' name='__nodes_to_add' filepath='/usr/lib/gcc/x86_64-redhat-linux/4.4.7/../../../../include/c++/4.4.7/bits/deque.tcc' line='796' column='1'/>
            <parameter type-id='type-id-1' name='__add_at_front' filepath='/usr/lib/gcc/x86_64-redhat-linux/4.4.7/../../../../include/c++/4.4.7/bits/deque.tcc' line='796' column='1'/>
            <return type-id='type-id-27'/>
          </function-decl>
        </member-function>
        <member-function access='protected'>
          <function-decl name='_M_insert_dispatch&lt;std::_Deque_iterator&lt;vtkPixelExtent, const vtkPixelExtent&amp;, const vtkPixelExtent*&gt; &gt;' filepath='/usr/lib/gcc/x86_64-redhat-linux/4.4.7/../../../../include/c++/4.4.7/bits/stl_deque.h' line='1587' column='1' visibility='default' binding='global' size-in-bits='64'>
            <parameter type-id='type-id-232' is-artificial='yes'/>
            <parameter type-id='type-id-147'/>
            <parameter type-id='type-id-306'/>
            <parameter type-id='type-id-306'/>
            <parameter type-id='type-id-307'/>
            <return type-id='type-id-27'/>
          </function-decl>
        </member-function>
        <member-function access='private'>
          <function-decl name='insert&lt;std::_Deque_iterator&lt;vtkPixelExtent, const vtkPixelExtent&amp;, const vtkPixelExtent*&gt; &gt;' filepath='/usr/lib/gcc/x86_64-redhat-linux/4.4.7/../../../../include/c++/4.4.7/bits/stl_deque.h' line='1345' column='1' visibility='default' binding='global' size-in-bits='64'>
            <parameter type-id='type-id-232' is-artificial='yes'/>
            <parameter type-id='type-id-147'/>
            <parameter type-id='type-id-306'/>
            <parameter type-id='type-id-306'/>
            <return type-id='type-id-27'/>
          </function-decl>
        </member-function>
        <member-function access='protected'>
          <function-decl name='_M_insert_dispatch&lt;std::_Deque_iterator&lt;vtkPixelExtent, vtkPixelExtent&amp;, vtkPixelExtent*&gt; &gt;' filepath='/usr/lib/gcc/x86_64-redhat-linux/4.4.7/../../../../include/c++/4.4.7/bits/stl_deque.h' line='1587' column='1' visibility='default' binding='global' size-in-bits='64'>
            <parameter type-id='type-id-232' is-artificial='yes'/>
            <parameter type-id='type-id-147'/>
            <parameter type-id='type-id-147'/>
            <parameter type-id='type-id-147'/>
            <parameter type-id='type-id-307'/>
            <return type-id='type-id-27'/>
          </function-decl>
        </member-function>
        <member-function access='private'>
          <function-decl name='insert&lt;std::_Deque_iterator&lt;vtkPixelExtent, vtkPixelExtent&amp;, vtkPixelExtent*&gt; &gt;' filepath='/usr/lib/gcc/x86_64-redhat-linux/4.4.7/../../../../include/c++/4.4.7/bits/stl_deque.h' line='1345' column='1' visibility='default' binding='global' size-in-bits='64'>
            <parameter type-id='type-id-232' is-artificial='yes'/>
            <parameter type-id='type-id-147'/>
            <parameter type-id='type-id-147'/>
            <parameter type-id='type-id-147'/>
            <return type-id='type-id-27'/>
          </function-decl>
        </member-function>
        <member-function access='protected'>
          <function-decl name='_M_new_elements_at_back' mangled-name='_ZNSt5dequeI14vtkPixelExtentSaIS0_EE23_M_new_elements_at_backEm' filepath='/usr/lib/gcc/x86_64-redhat-linux/4.4.7/../../../../include/c++/4.4.7/bits/deque.tcc' line='770' column='1' visibility='default' binding='global' size-in-bits='64' elf-symbol-id='_ZNSt5dequeI14vtkPixelExtentSaIS0_EE23_M_new_elements_at_backEm'>
            <parameter type-id='type-id-233' name='this' is-artificial='yes'/>
            <parameter type-id='type-id-38' name='__nodes_to_add' filepath='/usr/lib/gcc/x86_64-redhat-linux/4.4.7/../../../../include/c++/4.4.7/bits/stl_deque.h' line='1715' column='1'/>
            <return type-id='type-id-27'/>
          </function-decl>
        </member-function>
        <member-function access='protected'>
          <function-decl name='_M_reserve_elements_at_back' mangled-name='_ZNSt5dequeI14vtkPixelExtentSaIS0_EE27_M_reserve_elements_at_backEm' filepath='/usr/lib/gcc/x86_64-redhat-linux/4.4.7/../../../../include/c++/4.4.7/bits/stl_deque.h' line='1689' column='1' declared-inline='yes' visibility='default' binding='global' size-in-bits='64' elf-symbol-id='_ZNSt5dequeI14vtkPixelExtentSaIS0_EE27_M_reserve_elements_at_backEm'>
            <parameter type-id='type-id-233' name='this' is-artificial='yes'/>
            <parameter type-id='type-id-38' name='__n' filepath='/usr/lib/gcc/x86_64-redhat-linux/4.4.7/../../../../include/c++/4.4.7/bits/stl_deque.h' line='1689' column='1'/>
            <return type-id='type-id-147'/>
          </function-decl>
        </member-function>
        <member-function access='protected'>
          <function-decl name='_M_new_elements_at_front' mangled-name='_ZNSt5dequeI14vtkPixelExtentSaIS0_EE24_M_new_elements_at_frontEm' filepath='/usr/lib/gcc/x86_64-redhat-linux/4.4.7/../../../../include/c++/4.4.7/bits/deque.tcc' line='745' column='1' visibility='default' binding='global' size-in-bits='64' elf-symbol-id='_ZNSt5dequeI14vtkPixelExtentSaIS0_EE24_M_new_elements_at_frontEm'>
            <parameter type-id='type-id-233' name='this' is-artificial='yes'/>
            <parameter type-id='type-id-38' name='__nodes_to_add' filepath='/usr/lib/gcc/x86_64-redhat-linux/4.4.7/../../../../include/c++/4.4.7/bits/stl_deque.h' line='1715' column='1'/>
            <return type-id='type-id-27'/>
          </function-decl>
        </member-function>
        <member-function access='protected'>
          <function-decl name='_M_reserve_elements_at_front' mangled-name='_ZNSt5dequeI14vtkPixelExtentSaIS0_EE28_M_reserve_elements_at_frontEm' filepath='/usr/lib/gcc/x86_64-redhat-linux/4.4.7/../../../../include/c++/4.4.7/bits/stl_deque.h' line='1679' column='1' declared-inline='yes' visibility='default' binding='global' size-in-bits='64' elf-symbol-id='_ZNSt5dequeI14vtkPixelExtentSaIS0_EE28_M_reserve_elements_at_frontEm'>
            <parameter type-id='type-id-233' name='this' is-artificial='yes'/>
            <parameter type-id='type-id-38' name='__n' filepath='/usr/lib/gcc/x86_64-redhat-linux/4.4.7/../../../../include/c++/4.4.7/bits/stl_deque.h' line='1689' column='1'/>
            <return type-id='type-id-147'/>
          </function-decl>
        </member-function>
        <member-function access='protected'>
          <function-decl name='_M_insert_aux&lt;std::_Deque_iterator&lt;vtkPixelExtent, const vtkPixelExtent&amp;, const vtkPixelExtent*&gt; &gt;' mangled-name='_ZNSt5dequeI14vtkPixelExtentSaIS0_EE13_M_insert_auxISt15_Deque_iteratorIS0_RKS0_PS5_EEEvS4_IS0_RS0_PS0_ET_SC_m' filepath='/usr/lib/gcc/x86_64-redhat-linux/4.4.7/../../../../include/c++/4.4.7/bits/deque.tcc' line='635' column='1' visibility='default' binding='global' size-in-bits='64' elf-symbol-id='_ZNSt5dequeI14vtkPixelExtentSaIS0_EE13_M_insert_auxISt15_Deque_iteratorIS0_RKS0_PS5_EEEvS4_IS0_RS0_PS0_ET_SC_m'>
            <parameter type-id='type-id-233' name='this' is-artificial='yes'/>
            <parameter type-id='type-id-147' name='__pos' filepath='/usr/lib/gcc/x86_64-redhat-linux/4.4.7/../../../../include/c++/4.4.7/bits/deque.tcc' line='636' column='1'/>
            <parameter type-id='type-id-306' name='__first' filepath='/usr/lib/gcc/x86_64-redhat-linux/4.4.7/../../../../include/c++/4.4.7/bits/deque.tcc' line='637' column='1'/>
            <parameter type-id='type-id-306' name='__last' filepath='/usr/lib/gcc/x86_64-redhat-linux/4.4.7/../../../../include/c++/4.4.7/bits/deque.tcc' line='637' column='1'/>
            <parameter type-id='type-id-38' name='__n' filepath='/usr/lib/gcc/x86_64-redhat-linux/4.4.7/../../../../include/c++/4.4.7/bits/deque.tcc' line='638' column='1'/>
            <return type-id='type-id-27'/>
          </function-decl>
        </member-function>
        <member-function access='protected'>
          <function-decl name='_M_range_insert_aux&lt;std::_Deque_iterator&lt;vtkPixelExtent, const vtkPixelExtent&amp;, const vtkPixelExtent*&gt; &gt;' mangled-name='_ZNSt5dequeI14vtkPixelExtentSaIS0_EE19_M_range_insert_auxISt15_Deque_iteratorIS0_RKS0_PS5_EEEvS4_IS0_RS0_PS0_ET_SC_St20forward_iterator_tag' filepath='/usr/lib/gcc/x86_64-redhat-linux/4.4.7/../../../../include/c++/4.4.7/bits/deque.tcc' line='462' column='1' visibility='default' binding='global' size-in-bits='64' elf-symbol-id='_ZNSt5dequeI14vtkPixelExtentSaIS0_EE19_M_range_insert_auxISt15_Deque_iteratorIS0_RKS0_PS5_EEEvS4_IS0_RS0_PS0_ET_SC_St20forward_iterator_tag'>
            <parameter type-id='type-id-233' name='this' is-artificial='yes'/>
            <parameter type-id='type-id-147' name='__pos' filepath='/usr/lib/gcc/x86_64-redhat-linux/4.4.7/../../../../include/c++/4.4.7/bits/deque.tcc' line='463' column='1'/>
            <parameter type-id='type-id-306' name='__first' filepath='/usr/lib/gcc/x86_64-redhat-linux/4.4.7/../../../../include/c++/4.4.7/bits/deque.tcc' line='464' column='1'/>
            <parameter type-id='type-id-306' name='__last' filepath='/usr/lib/gcc/x86_64-redhat-linux/4.4.7/../../../../include/c++/4.4.7/bits/deque.tcc' line='464' column='1'/>
            <parameter type-id='type-id-308'/>
            <return type-id='type-id-27'/>
          </function-decl>
        </member-function>
        <member-function access='private'>
          <function-decl name='operator=' mangled-name='_ZNSt5dequeI14vtkPixelExtentSaIS0_EEaSERKS2_' filepath='/usr/lib/gcc/x86_64-redhat-linux/4.4.7/../../../../include/c++/4.4.7/bits/deque.tcc' line='64' column='1' visibility='default' binding='global' size-in-bits='64' elf-symbol-id='_ZNSt5dequeI14vtkPixelExtentSaIS0_EEaSERKS2_'>
            <parameter type-id='type-id-233' name='this' is-artificial='yes'/>
            <parameter type-id='type-id-309' name='__x' filepath='/usr/lib/gcc/x86_64-redhat-linux/4.4.7/../../../../include/c++/4.4.7/bits/deque.tcc' line='65' column='1'/>
            <return type-id='type-id-231'/>
          </function-decl>
        </member-function>
        <member-function access='protected'>
          <function-decl name='_M_insert_aux&lt;std::_Deque_iterator&lt;vtkPixelExtent, vtkPixelExtent&amp;, vtkPixelExtent*&gt; &gt;' mangled-name='_ZNSt5dequeI14vtkPixelExtentSaIS0_EE13_M_insert_auxISt15_Deque_iteratorIS0_RS0_PS0_EEEvS7_T_S8_m' filepath='/usr/lib/gcc/x86_64-redhat-linux/4.4.7/../../../../include/c++/4.4.7/bits/deque.tcc' line='635' column='1' visibility='default' binding='global' size-in-bits='64' elf-symbol-id='_ZNSt5dequeI14vtkPixelExtentSaIS0_EE13_M_insert_auxISt15_Deque_iteratorIS0_RS0_PS0_EEEvS7_T_S8_m'>
            <parameter type-id='type-id-233' name='this' is-artificial='yes'/>
            <parameter type-id='type-id-147' name='__pos' filepath='/usr/lib/gcc/x86_64-redhat-linux/4.4.7/../../../../include/c++/4.4.7/bits/deque.tcc' line='636' column='1'/>
            <parameter type-id='type-id-147' name='__first' filepath='/usr/lib/gcc/x86_64-redhat-linux/4.4.7/../../../../include/c++/4.4.7/bits/deque.tcc' line='637' column='1'/>
            <parameter type-id='type-id-147' name='__last' filepath='/usr/lib/gcc/x86_64-redhat-linux/4.4.7/../../../../include/c++/4.4.7/bits/deque.tcc' line='637' column='1'/>
            <parameter type-id='type-id-38' name='__n' filepath='/usr/lib/gcc/x86_64-redhat-linux/4.4.7/../../../../include/c++/4.4.7/bits/deque.tcc' line='638' column='1'/>
            <return type-id='type-id-27'/>
          </function-decl>
        </member-function>
        <member-function access='protected'>
          <function-decl name='_M_range_insert_aux&lt;std::_Deque_iterator&lt;vtkPixelExtent, vtkPixelExtent&amp;, vtkPixelExtent*&gt; &gt;' mangled-name='_ZNSt5dequeI14vtkPixelExtentSaIS0_EE19_M_range_insert_auxISt15_Deque_iteratorIS0_RS0_PS0_EEEvS7_T_S8_St20forward_iterator_tag' filepath='/usr/lib/gcc/x86_64-redhat-linux/4.4.7/../../../../include/c++/4.4.7/bits/deque.tcc' line='462' column='1' visibility='default' binding='global' size-in-bits='64' elf-symbol-id='_ZNSt5dequeI14vtkPixelExtentSaIS0_EE19_M_range_insert_auxISt15_Deque_iteratorIS0_RS0_PS0_EEEvS7_T_S8_St20forward_iterator_tag'>
            <parameter type-id='type-id-233' name='this' is-artificial='yes'/>
            <parameter type-id='type-id-147' name='__pos' filepath='/usr/lib/gcc/x86_64-redhat-linux/4.4.7/../../../../include/c++/4.4.7/bits/deque.tcc' line='463' column='1'/>
            <parameter type-id='type-id-147' name='__first' filepath='/usr/lib/gcc/x86_64-redhat-linux/4.4.7/../../../../include/c++/4.4.7/bits/deque.tcc' line='464' column='1'/>
            <parameter type-id='type-id-147' name='__last' filepath='/usr/lib/gcc/x86_64-redhat-linux/4.4.7/../../../../include/c++/4.4.7/bits/deque.tcc' line='464' column='1'/>
            <parameter type-id='type-id-308'/>
            <return type-id='type-id-27'/>
          </function-decl>
        </member-function>
        <member-function access='protected'>
          <function-decl name='_M_reserve_map_at_back' mangled-name='_ZNSt5dequeI14vtkPixelExtentSaIS0_EE22_M_reserve_map_at_backEm' filepath='/usr/lib/gcc/x86_64-redhat-linux/4.4.7/../../../../include/c++/4.4.7/bits/stl_deque.h' line='1715' column='1' declared-inline='yes' visibility='default' binding='global' size-in-bits='64' elf-symbol-id='_ZNSt5dequeI14vtkPixelExtentSaIS0_EE22_M_reserve_map_at_backEm'>
            <parameter type-id='type-id-233' name='this' is-artificial='yes'/>
            <parameter type-id='type-id-38' name='__nodes_to_add' filepath='/usr/lib/gcc/x86_64-redhat-linux/4.4.7/../../../../include/c++/4.4.7/bits/stl_deque.h' line='1715' column='1'/>
            <return type-id='type-id-27'/>
          </function-decl>
        </member-function>
      </class-decl>
      <typedef-decl name='ostream' type-id='type-id-225' filepath='/usr/lib/gcc/x86_64-redhat-linux/4.4.7/../../../../include/c++/4.4.7/iosfwd' line='130' column='1' id='type-id-238'/>
      <class-decl name='__uninitialized_fill&lt;false&gt;' size-in-bits='8' is-struct='yes' visibility='default' filepath='/usr/lib/gcc/x86_64-redhat-linux/4.4.7/../../../../include/c++/4.4.7/bits/stl_uninitialized.h' line='122' column='1' id='type-id-310'>
        <member-function access='public' static='yes'>
          <function-decl name='uninitialized_fill&lt;vtkPixelExtent*, vtkPixelExtent&gt;' filepath='/usr/lib/gcc/x86_64-redhat-linux/4.4.7/../../../../include/c++/4.4.7/bits/stl_uninitialized.h' line='125' column='1' visibility='default' binding='global' size-in-bits='64'>
            <parameter type-id='type-id-49'/>
            <parameter type-id='type-id-49'/>
            <parameter type-id='type-id-50'/>
            <return type-id='type-id-27'/>
          </function-decl>
        </member-function>
      </class-decl>
      <class-decl name='_Deque_iterator&lt;vtkPixelExtent, const vtkPixelExtent&amp;, const vtkPixelExtent*&gt;' size-in-bits='256' is-struct='yes' visibility='default' filepath='/usr/lib/gcc/x86_64-redhat-linux/4.4.7/../../../../include/c++/4.4.7/bits/stl_deque.h' line='95' column='1' id='type-id-306'>
        <data-member access='public' layout-offset-in-bits='0'>
          <var-decl name='_M_cur' type-id='type-id-49' visibility='default' filepath='/usr/lib/gcc/x86_64-redhat-linux/4.4.7/../../../../include/c++/4.4.7/bits/stl_deque.h' line='111' column='1'/>
        </data-member>
        <data-member access='public' layout-offset-in-bits='64'>
          <var-decl name='_M_first' type-id='type-id-49' visibility='default' filepath='/usr/lib/gcc/x86_64-redhat-linux/4.4.7/../../../../include/c++/4.4.7/bits/stl_deque.h' line='112' column='1'/>
        </data-member>
        <data-member access='public' layout-offset-in-bits='128'>
          <var-decl name='_M_last' type-id='type-id-49' visibility='default' filepath='/usr/lib/gcc/x86_64-redhat-linux/4.4.7/../../../../include/c++/4.4.7/bits/stl_deque.h' line='113' column='1'/>
        </data-member>
        <data-member access='public' layout-offset-in-bits='192'>
          <var-decl name='_M_node' type-id='type-id-274' visibility='default' filepath='/usr/lib/gcc/x86_64-redhat-linux/4.4.7/../../../../include/c++/4.4.7/bits/stl_deque.h' line='114' column='1'/>
        </data-member>
        <member-function access='public'>
          <function-decl name='_Deque_iterator' filepath='/usr/lib/gcc/x86_64-redhat-linux/4.4.7/../../../../include/c++/4.4.7/bits/stl_deque.h' line='116' column='1' visibility='default' binding='global' size-in-bits='64'>
            <parameter type-id='type-id-311' is-artificial='yes'/>
            <parameter type-id='type-id-49'/>
            <parameter type-id='type-id-274'/>
            <return type-id='type-id-27'/>
          </function-decl>
        </member-function>
        <member-function access='public'>
          <function-decl name='_Deque_iterator' filepath='/usr/lib/gcc/x86_64-redhat-linux/4.4.7/../../../../include/c++/4.4.7/bits/stl_deque.h' line='120' column='1' visibility='default' binding='global' size-in-bits='64'>
            <parameter type-id='type-id-311' is-artificial='yes'/>
            <return type-id='type-id-27'/>
          </function-decl>
        </member-function>
        <member-function access='public'>
          <function-decl name='_Deque_iterator' filepath='/usr/lib/gcc/x86_64-redhat-linux/4.4.7/../../../../include/c++/4.4.7/bits/stl_deque.h' line='123' column='1' visibility='default' binding='global' size-in-bits='64'>
            <parameter type-id='type-id-311' is-artificial='yes'/>
            <parameter type-id='type-id-149'/>
            <return type-id='type-id-27'/>
          </function-decl>
        </member-function>
      </class-decl>
      <class-decl name='_Destroy_aux&lt;true&gt;' size-in-bits='8' is-struct='yes' visibility='default' filepath='/usr/lib/gcc/x86_64-redhat-linux/4.4.7/../../../../include/c++/4.4.7/bits/stl_construct.h' line='106' column='1' id='type-id-312'>
        <member-function access='public' static='yes'>
          <function-decl name='__destroy&lt;std::_Deque_iterator&lt;vtkPixelExtent, vtkPixelExtent&amp;, vtkPixelExtent*&gt; &gt;' filepath='/usr/lib/gcc/x86_64-redhat-linux/4.4.7/../../../../include/c++/4.4.7/bits/stl_construct.h' line='109' column='1' visibility='default' binding='global' size-in-bits='64'>
            <parameter type-id='type-id-147'/>
            <parameter type-id='type-id-147'/>
            <return type-id='type-id-27'/>
          </function-decl>
        </member-function>
        <member-function access='public' static='yes'>
          <function-decl name='__destroy&lt;vtkPixelExtent*&gt;' filepath='/usr/lib/gcc/x86_64-redhat-linux/4.4.7/../../../../include/c++/4.4.7/bits/stl_construct.h' line='109' column='1' visibility='default' binding='global' size-in-bits='64'>
            <parameter type-id='type-id-49'/>
            <parameter type-id='type-id-49'/>
            <return type-id='type-id-27'/>
          </function-decl>
        </member-function>
        <member-function access='public' static='yes'>
          <function-decl name='__destroy&lt;vtkPixelBufferObject**&gt;' filepath='/usr/lib/gcc/x86_64-redhat-linux/4.4.7/../../../../include/c++/4.4.7/bits/stl_construct.h' line='109' column='1' visibility='default' binding='global' size-in-bits='64'>
            <parameter type-id='type-id-313'/>
            <parameter type-id='type-id-313'/>
            <return type-id='type-id-27'/>
          </function-decl>
        </member-function>
        <member-function access='public' static='yes'>
          <function-decl name='__destroy&lt;float*&gt;' filepath='/usr/lib/gcc/x86_64-redhat-linux/4.4.7/../../../../include/c++/4.4.7/bits/stl_construct.h' line='109' column='1' visibility='default' binding='global' size-in-bits='64'>
            <parameter type-id='type-id-56'/>
            <parameter type-id='type-id-56'/>
            <return type-id='type-id-27'/>
          </function-decl>
        </member-function>
      </class-decl>
      <class-decl name='_Deque_base&lt;vtkPixelExtent, std::allocator&lt;vtkPixelExtent&gt; &gt;' size-in-bits='640' visibility='default' filepath='/usr/lib/gcc/x86_64-redhat-linux/4.4.7/../../../../include/c++/4.4.7/bits/stl_deque.h' line='362' column='1' id='type-id-143'>
        <member-type access='protected'>
          <enum-decl name='__anonymous_enum__' is-anonymous='yes' filepath='/usr/lib/gcc/x86_64-redhat-linux/4.4.7/../../../../include/c++/4.4.7/bits/stl_deque.h' line='465' column='1' id='type-id-314'>
            <underlying-type type-id='type-id-24'/>
            <enumerator name='_S_initial_map_size' value='8'/>
          </enum-decl>
        </member-type>
        <member-type access='protected'>
          <class-decl name='_Deque_impl' size-in-bits='640' is-struct='yes' visibility='default' filepath='/usr/lib/gcc/x86_64-redhat-linux/4.4.7/../../../../include/c++/4.4.7/bits/stl_deque.h' line='412' column='1' id='type-id-210'>
            <base-class access='public' layout-offset-in-bits='0' type-id='type-id-163'/>
            <data-member access='public' layout-offset-in-bits='0'>
              <var-decl name='_M_map' type-id='type-id-274' visibility='default' filepath='/usr/lib/gcc/x86_64-redhat-linux/4.4.7/../../../../include/c++/4.4.7/bits/stl_deque.h' line='413' column='1'/>
            </data-member>
            <data-member access='public' layout-offset-in-bits='64'>
              <var-decl name='_M_map_size' type-id='type-id-38' visibility='default' filepath='/usr/lib/gcc/x86_64-redhat-linux/4.4.7/../../../../include/c++/4.4.7/bits/stl_deque.h' line='414' column='1'/>
            </data-member>
            <data-member access='public' layout-offset-in-bits='128'>
              <var-decl name='_M_start' type-id='type-id-147' visibility='default' filepath='/usr/lib/gcc/x86_64-redhat-linux/4.4.7/../../../../include/c++/4.4.7/bits/stl_deque.h' line='415' column='1'/>
            </data-member>
            <data-member access='public' layout-offset-in-bits='384'>
              <var-decl name='_M_finish' type-id='type-id-147' visibility='default' filepath='/usr/lib/gcc/x86_64-redhat-linux/4.4.7/../../../../include/c++/4.4.7/bits/stl_deque.h' line='416' column='1'/>
            </data-member>
            <member-function access='public' constructor='yes'>
              <function-decl name='_Deque_impl' filepath='/usr/lib/gcc/x86_64-redhat-linux/4.4.7/../../../../include/c++/4.4.7/bits/stl_deque.h' line='418' column='1' visibility='default' binding='global' size-in-bits='64'>
                <parameter type-id='type-id-211' is-artificial='yes'/>
                <return type-id='type-id-27'/>
              </function-decl>
            </member-function>
            <member-function access='public' constructor='yes'>
              <function-decl name='_Deque_impl' filepath='/usr/lib/gcc/x86_64-redhat-linux/4.4.7/../../../../include/c++/4.4.7/bits/stl_deque.h' line='423' column='1' visibility='default' binding='global' size-in-bits='64'>
                <parameter type-id='type-id-211' is-artificial='yes'/>
                <parameter type-id='type-id-165'/>
                <return type-id='type-id-27'/>
              </function-decl>
            </member-function>
          </class-decl>
        </member-type>
        <data-member access='protected' layout-offset-in-bits='0'>
          <var-decl name='_M_impl' type-id='type-id-210' visibility='default' filepath='/usr/lib/gcc/x86_64-redhat-linux/4.4.7/../../../../include/c++/4.4.7/bits/stl_deque.h' line='467' column='1'/>
        </data-member>
        <member-function access='private'>
          <function-decl name='_Deque_base' filepath='/usr/lib/gcc/x86_64-redhat-linux/4.4.7/../../../../include/c++/4.4.7/bits/stl_deque.h' line='373' column='1' visibility='default' binding='global' size-in-bits='64'>
            <parameter type-id='type-id-208' is-artificial='yes'/>
            <return type-id='type-id-27'/>
          </function-decl>
        </member-function>
        <member-function access='private'>
          <function-decl name='_Deque_base' filepath='/usr/lib/gcc/x86_64-redhat-linux/4.4.7/../../../../include/c++/4.4.7/bits/stl_deque.h' line='377' column='1' visibility='default' binding='global' size-in-bits='64'>
            <parameter type-id='type-id-208' is-artificial='yes'/>
            <parameter type-id='type-id-165'/>
            <parameter type-id='type-id-4'/>
            <return type-id='type-id-27'/>
          </function-decl>
        </member-function>
        <member-function access='private'>
          <function-decl name='_Deque_base' filepath='/usr/lib/gcc/x86_64-redhat-linux/4.4.7/../../../../include/c++/4.4.7/bits/stl_deque.h' line='381' column='1' visibility='default' binding='global' size-in-bits='64'>
            <parameter type-id='type-id-208' is-artificial='yes'/>
            <parameter type-id='type-id-165'/>
            <return type-id='type-id-27'/>
          </function-decl>
        </member-function>
        <member-function access='private' destructor='yes'>
          <function-decl name='~_Deque_base' mangled-name='_ZNSt11_Deque_baseI14vtkPixelExtentSaIS0_EED1Ev' filepath='/usr/lib/gcc/x86_64-redhat-linux/4.4.7/../../../../include/c++/4.4.7/bits/stl_deque.h' line='471' column='1' visibility='default' binding='global' size-in-bits='64' elf-symbol-id='_ZNSt11_Deque_baseI14vtkPixelExtentSaIS0_EED1Ev'>
            <parameter type-id='type-id-208' is-artificial='yes'/>
            <parameter type-id='type-id-17' is-artificial='yes'/>
            <return type-id='type-id-27'/>
          </function-decl>
        </member-function>
        <member-function access='protected'>
          <function-decl name='_M_initialize_map' mangled-name='_ZNSt11_Deque_baseI14vtkPixelExtentSaIS0_EE17_M_initialize_mapEm' filepath='/usr/lib/gcc/x86_64-redhat-linux/4.4.7/../../../../include/c++/4.4.7/bits/stl_deque.h' line='492' column='1' visibility='default' binding='global' size-in-bits='64' elf-symbol-id='_ZNSt11_Deque_baseI14vtkPixelExtentSaIS0_EE17_M_initialize_mapEm'>
            <parameter type-id='type-id-209' name='this' is-artificial='yes'/>
            <parameter type-id='type-id-38' name='__num_elements' filepath='/usr/lib/gcc/x86_64-redhat-linux/4.4.7/../../../../include/c++/4.4.7/bits/stl_deque.h' line='493' column='1'/>
            <return type-id='type-id-27'/>
          </function-decl>
        </member-function>
      </class-decl>
      <class-decl name='char_traits&lt;char&gt;' size-in-bits='8' is-struct='yes' visibility='default' filepath='/usr/lib/gcc/x86_64-redhat-linux/4.4.7/../../../../include/c++/4.4.7/bits/char_traits.h' line='238' column='1' id='type-id-315'>
        <member-type access='public'>
          <typedef-decl name='char_type' type-id='type-id-2' filepath='/usr/lib/gcc/x86_64-redhat-linux/4.4.7/../../../../include/c++/4.4.7/bits/char_traits.h' line='239' column='1' id='type-id-173'/>
        </member-type>
        <member-type access='public'>
          <typedef-decl name='int_type' type-id='type-id-17' filepath='/usr/lib/gcc/x86_64-redhat-linux/4.4.7/../../../../include/c++/4.4.7/bits/char_traits.h' line='240' column='1' id='type-id-177'/>
        </member-type>
      </class-decl>
      <class-decl name='allocator&lt;vtkPixelExtent*&gt;' size-in-bits='8' visibility='default' filepath='/usr/lib/gcc/x86_64-redhat-linux/4.4.7/../../../../include/c++/4.4.7/bits/allocator.h' line='87' column='1' id='type-id-160'>
        <base-class access='public' layout-offset-in-bits='0' type-id='type-id-117'/>
        <member-function access='private'>
          <function-decl name='allocator' filepath='/usr/lib/gcc/x86_64-redhat-linux/4.4.7/../../../../include/c++/4.4.7/bits/allocator.h' line='101' column='1' visibility='default' binding='global' size-in-bits='64'>
            <parameter type-id='type-id-220' is-artificial='yes'/>
            <return type-id='type-id-27'/>
          </function-decl>
        </member-function>
        <member-function access='private'>
          <function-decl name='allocator' filepath='/usr/lib/gcc/x86_64-redhat-linux/4.4.7/../../../../include/c++/4.4.7/bits/allocator.h' line='103' column='1' visibility='default' binding='global' size-in-bits='64'>
            <parameter type-id='type-id-220' is-artificial='yes'/>
            <parameter type-id='type-id-162'/>
            <return type-id='type-id-27'/>
          </function-decl>
        </member-function>
        <member-function access='private' destructor='yes'>
          <function-decl name='~allocator' filepath='/usr/lib/gcc/x86_64-redhat-linux/4.4.7/../../../../include/c++/4.4.7/bits/allocator.h' line='109' column='1' visibility='default' binding='global' size-in-bits='64'>
            <parameter type-id='type-id-220' is-artificial='yes'/>
            <parameter type-id='type-id-17' is-artificial='yes'/>
            <return type-id='type-id-27'/>
          </function-decl>
        </member-function>
        <member-function access='private'>
          <function-decl name='allocator&lt;vtkPixelExtent&gt;' filepath='/usr/lib/gcc/x86_64-redhat-linux/4.4.7/../../../../include/c++/4.4.7/bits/allocator.h' line='107' column='1' visibility='default' binding='global' size-in-bits='64'>
            <parameter type-id='type-id-220' is-artificial='yes'/>
            <parameter type-id='type-id-165'/>
            <return type-id='type-id-27'/>
          </function-decl>
        </member-function>
      </class-decl>
      <class-decl name='ios_base' visibility='default' is-declaration-only='yes' id='type-id-234'>
        <member-type access='private'>
          <class-decl name='Init' size-in-bits='8' visibility='default' filepath='/usr/lib/gcc/x86_64-redhat-linux/4.4.7/../../../../include/c++/4.4.7/bits/ios_base.h' line='538' column='1' id='type-id-236'>
            <data-member access='private' static='yes'>
              <var-decl name='_S_refcount' type-id='type-id-29' visibility='default' filepath='/usr/lib/gcc/x86_64-redhat-linux/4.4.7/../../../../include/c++/4.4.7/bits/ios_base.h' line='545' column='1'/>
            </data-member>
            <data-member access='private' static='yes'>
              <var-decl name='_S_synced_with_stdio' type-id='type-id-1' visibility='default' filepath='/usr/lib/gcc/x86_64-redhat-linux/4.4.7/../../../../include/c++/4.4.7/bits/ios_base.h' line='546' column='1'/>
            </data-member>
            <member-function access='private' constructor='yes'>
              <function-decl name='Init' filepath='/usr/lib/gcc/x86_64-redhat-linux/4.4.7/../../../../include/c++/4.4.7/bits/ios_base.h' line='541' column='1' visibility='default' binding='global' size-in-bits='64'>
                <parameter type-id='type-id-237' is-artificial='yes'/>
                <return type-id='type-id-27'/>
              </function-decl>
            </member-function>
            <member-function access='private' destructor='yes'>
              <function-decl name='~Init' filepath='/usr/lib/gcc/x86_64-redhat-linux/4.4.7/../../../../include/c++/4.4.7/bits/ios_base.h' line='542' column='1' visibility='default' binding='global' size-in-bits='64'>
                <parameter type-id='type-id-237' is-artificial='yes'/>
                <parameter type-id='type-id-17' is-artificial='yes'/>
                <return type-id='type-id-27'/>
              </function-decl>
            </member-function>
          </class-decl>
        </member-type>
        <data-member access='private' static='yes'>
          <var-decl name='boolalpha' type-id='type-id-152' visibility='default' filepath='/usr/lib/gcc/x86_64-redhat-linux/4.4.7/../../../../include/c++/4.4.7/bits/ios_base.h' line='266' column='1'/>
        </data-member>
        <data-member access='private' static='yes'>
          <var-decl name='dec' type-id='type-id-152' visibility='default' filepath='/usr/lib/gcc/x86_64-redhat-linux/4.4.7/../../../../include/c++/4.4.7/bits/ios_base.h' line='269' column='1'/>
        </data-member>
        <data-member access='private' static='yes'>
          <var-decl name='fixed' type-id='type-id-152' visibility='default' filepath='/usr/lib/gcc/x86_64-redhat-linux/4.4.7/../../../../include/c++/4.4.7/bits/ios_base.h' line='272' column='1'/>
        </data-member>
        <data-member access='private' static='yes'>
          <var-decl name='hex' type-id='type-id-152' visibility='default' filepath='/usr/lib/gcc/x86_64-redhat-linux/4.4.7/../../../../include/c++/4.4.7/bits/ios_base.h' line='275' column='1'/>
        </data-member>
        <data-member access='private' static='yes'>
          <var-decl name='internal' type-id='type-id-152' visibility='default' filepath='/usr/lib/gcc/x86_64-redhat-linux/4.4.7/../../../../include/c++/4.4.7/bits/ios_base.h' line='280' column='1'/>
        </data-member>
        <data-member access='private' static='yes'>
          <var-decl name='left' type-id='type-id-152' visibility='default' filepath='/usr/lib/gcc/x86_64-redhat-linux/4.4.7/../../../../include/c++/4.4.7/bits/ios_base.h' line='284' column='1'/>
        </data-member>
        <data-member access='private' static='yes'>
          <var-decl name='oct' type-id='type-id-152' visibility='default' filepath='/usr/lib/gcc/x86_64-redhat-linux/4.4.7/../../../../include/c++/4.4.7/bits/ios_base.h' line='287' column='1'/>
        </data-member>
        <data-member access='private' static='yes'>
          <var-decl name='right' type-id='type-id-152' visibility='default' filepath='/usr/lib/gcc/x86_64-redhat-linux/4.4.7/../../../../include/c++/4.4.7/bits/ios_base.h' line='291' column='1'/>
        </data-member>
        <data-member access='private' static='yes'>
          <var-decl name='scientific' type-id='type-id-152' visibility='default' filepath='/usr/lib/gcc/x86_64-redhat-linux/4.4.7/../../../../include/c++/4.4.7/bits/ios_base.h' line='294' column='1'/>
        </data-member>
        <data-member access='private' static='yes'>
          <var-decl name='showbase' type-id='type-id-152' visibility='default' filepath='/usr/lib/gcc/x86_64-redhat-linux/4.4.7/../../../../include/c++/4.4.7/bits/ios_base.h' line='298' column='1'/>
        </data-member>
        <data-member access='private' static='yes'>
          <var-decl name='showpoint' type-id='type-id-152' visibility='default' filepath='/usr/lib/gcc/x86_64-redhat-linux/4.4.7/../../../../include/c++/4.4.7/bits/ios_base.h' line='302' column='1'/>
        </data-member>
        <data-member access='private' static='yes'>
          <var-decl name='showpos' type-id='type-id-152' visibility='default' filepath='/usr/lib/gcc/x86_64-redhat-linux/4.4.7/../../../../include/c++/4.4.7/bits/ios_base.h' line='305' column='1'/>
        </data-member>
        <data-member access='private' static='yes'>
          <var-decl name='skipws' type-id='type-id-152' visibility='default' filepath='/usr/lib/gcc/x86_64-redhat-linux/4.4.7/../../../../include/c++/4.4.7/bits/ios_base.h' line='308' column='1'/>
        </data-member>
        <data-member access='private' static='yes'>
          <var-decl name='unitbuf' type-id='type-id-152' visibility='default' filepath='/usr/lib/gcc/x86_64-redhat-linux/4.4.7/../../../../include/c++/4.4.7/bits/ios_base.h' line='311' column='1'/>
        </data-member>
        <data-member access='private' static='yes'>
          <var-decl name='uppercase' type-id='type-id-152' visibility='default' filepath='/usr/lib/gcc/x86_64-redhat-linux/4.4.7/../../../../include/c++/4.4.7/bits/ios_base.h' line='315' column='1'/>
        </data-member>
        <data-member access='private' static='yes'>
          <var-decl name='adjustfield' type-id='type-id-152' visibility='default' filepath='/usr/lib/gcc/x86_64-redhat-linux/4.4.7/../../../../include/c++/4.4.7/bits/ios_base.h' line='318' column='1'/>
        </data-member>
        <data-member access='private' static='yes'>
          <var-decl name='basefield' type-id='type-id-152' visibility='default' filepath='/usr/lib/gcc/x86_64-redhat-linux/4.4.7/../../../../include/c++/4.4.7/bits/ios_base.h' line='321' column='1'/>
        </data-member>
        <data-member access='private' static='yes'>
          <var-decl name='floatfield' type-id='type-id-152' visibility='default' filepath='/usr/lib/gcc/x86_64-redhat-linux/4.4.7/../../../../include/c++/4.4.7/bits/ios_base.h' line='324' column='1'/>
        </data-member>
        <data-member access='private' static='yes'>
          <var-decl name='badbit' type-id='type-id-172' visibility='default' filepath='/usr/lib/gcc/x86_64-redhat-linux/4.4.7/../../../../include/c++/4.4.7/bits/ios_base.h' line='342' column='1'/>
        </data-member>
        <data-member access='private' static='yes'>
          <var-decl name='eofbit' type-id='type-id-172' visibility='default' filepath='/usr/lib/gcc/x86_64-redhat-linux/4.4.7/../../../../include/c++/4.4.7/bits/ios_base.h' line='345' column='1'/>
        </data-member>
        <data-member access='private' static='yes'>
          <var-decl name='failbit' type-id='type-id-172' visibility='default' filepath='/usr/lib/gcc/x86_64-redhat-linux/4.4.7/../../../../include/c++/4.4.7/bits/ios_base.h' line='350' column='1'/>
        </data-member>
        <data-member access='private' static='yes'>
          <var-decl name='goodbit' type-id='type-id-172' visibility='default' filepath='/usr/lib/gcc/x86_64-redhat-linux/4.4.7/../../../../include/c++/4.4.7/bits/ios_base.h' line='353' column='1'/>
        </data-member>
        <data-member access='private' static='yes'>
          <var-decl name='app' type-id='type-id-157' visibility='default' filepath='/usr/lib/gcc/x86_64-redhat-linux/4.4.7/../../../../include/c++/4.4.7/bits/ios_base.h' line='372' column='1'/>
        </data-member>
        <data-member access='private' static='yes'>
          <var-decl name='ate' type-id='type-id-157' visibility='default' filepath='/usr/lib/gcc/x86_64-redhat-linux/4.4.7/../../../../include/c++/4.4.7/bits/ios_base.h' line='375' column='1'/>
        </data-member>
        <data-member access='private' static='yes'>
          <var-decl name='in' type-id='type-id-157' visibility='default' filepath='/usr/lib/gcc/x86_64-redhat-linux/4.4.7/../../../../include/c++/4.4.7/bits/ios_base.h' line='383' column='1'/>
        </data-member>
        <data-member access='private' static='yes'>
          <var-decl name='out' type-id='type-id-157' visibility='default' filepath='/usr/lib/gcc/x86_64-redhat-linux/4.4.7/../../../../include/c++/4.4.7/bits/ios_base.h' line='386' column='1'/>
        </data-member>
        <data-member access='private' static='yes'>
          <var-decl name='trunc' type-id='type-id-157' visibility='default' filepath='/usr/lib/gcc/x86_64-redhat-linux/4.4.7/../../../../include/c++/4.4.7/bits/ios_base.h' line='389' column='1'/>
        </data-member>
        <data-member access='private' static='yes'>
          <var-decl name='beg' type-id='type-id-159' visibility='default' filepath='/usr/lib/gcc/x86_64-redhat-linux/4.4.7/../../../../include/c++/4.4.7/bits/ios_base.h' line='404' column='1'/>
        </data-member>
        <data-member access='private' static='yes'>
          <var-decl name='cur' type-id='type-id-159' visibility='default' filepath='/usr/lib/gcc/x86_64-redhat-linux/4.4.7/../../../../include/c++/4.4.7/bits/ios_base.h' line='407' column='1'/>
        </data-member>
        <data-member access='private' static='yes'>
          <var-decl name='end' type-id='type-id-159' visibility='default' filepath='/usr/lib/gcc/x86_64-redhat-linux/4.4.7/../../../../include/c++/4.4.7/bits/ios_base.h' line='410' column='1'/>
        </data-member>
      </class-decl>
      <class-decl name='basic_ios&lt;char, std::char_traits&lt;char&gt; &gt;' is-struct='yes' visibility='default' is-declaration-only='yes' id='type-id-167'>
        <member-type access='public'>
          <typedef-decl name='iostate' type-id='type-id-298' filepath='/usr/lib/gcc/x86_64-redhat-linux/4.4.7/../../../../include/c++/4.4.7/bits/ios_base.h' line='338' column='1' id='type-id-171'/>
        </member-type>
        <member-function access='protected'>
          <function-decl name='basic_ios' filepath='/usr/lib/gcc/x86_64-redhat-linux/4.4.7/../../../../include/c++/4.4.7/bits/basic_ios.h' line='450' column='1' visibility='default' binding='global' size-in-bits='64'>
            <parameter type-id='type-id-223' is-artificial='yes'/>
            <return type-id='type-id-27'/>
          </function-decl>
        </member-function>
        <member-function access='public' destructor='yes' vtable-offset='-1'>
          <function-decl name='~basic_ios' filepath='/usr/lib/gcc/x86_64-redhat-linux/4.4.7/../../../../include/c++/4.4.7/bits/basic_ios.h' line='272' column='1' visibility='default' binding='global' size-in-bits='64'>
            <parameter type-id='type-id-223' is-artificial='yes'/>
            <parameter type-id='type-id-17' is-artificial='yes'/>
            <return type-id='type-id-27'/>
          </function-decl>
        </member-function>
      </class-decl>
      <function-decl name='max&lt;int&gt;' filepath='/usr/lib/gcc/x86_64-redhat-linux/4.4.7/../../../../include/c++/4.4.7/bits/stl_algobase.h' line='209' column='1' visibility='default' binding='global' size-in-bits='64'>
        <parameter type-id='type-id-138'/>
        <parameter type-id='type-id-138'/>
        <return type-id='type-id-138'/>
      </function-decl>
      <function-decl name='min&lt;int&gt;' filepath='/usr/lib/gcc/x86_64-redhat-linux/4.4.7/../../../../include/c++/4.4.7/bits/stl_algobase.h' line='186' column='1' visibility='default' binding='global' size-in-bits='64'>
        <parameter type-id='type-id-138'/>
        <parameter type-id='type-id-138'/>
        <return type-id='type-id-138'/>
      </function-decl>
      <function-decl name='__deque_buf_size' filepath='/usr/lib/gcc/x86_64-redhat-linux/4.4.7/../../../../include/c++/4.4.7/bits/stl_deque.h' line='78' column='1' visibility='default' binding='global' size-in-bits='64'>
        <parameter type-id='type-id-38'/>
        <return type-id='type-id-38'/>
      </function-decl>
      <function-decl name='_Destroy&lt;std::_Deque_iterator&lt;vtkPixelExtent, vtkPixelExtent&amp;, vtkPixelExtent*&gt; &gt;' filepath='/usr/lib/gcc/x86_64-redhat-linux/4.4.7/../../../../include/c++/4.4.7/bits/stl_construct.h' line='119' column='1' visibility='default' binding='global' size-in-bits='64'>
        <parameter type-id='type-id-147'/>
        <parameter type-id='type-id-147'/>
        <return type-id='type-id-27'/>
      </function-decl>
      <function-decl name='operator|' filepath='/usr/lib/gcc/x86_64-redhat-linux/4.4.7/../../../../include/c++/4.4.7/bits/ios_base.h' line='166' column='1' visibility='default' binding='global' size-in-bits='64'>
        <parameter type-id='type-id-298'/>
        <parameter type-id='type-id-298'/>
        <return type-id='type-id-298'/>
      </function-decl>
      <function-decl name='_Construct&lt;vtkPixelExtent, vtkPixelExtent&gt;' filepath='/usr/lib/gcc/x86_64-redhat-linux/4.4.7/../../../../include/c++/4.4.7/bits/stl_construct.h' line='76' column='1' visibility='default' binding='global' size-in-bits='64'>
        <parameter type-id='type-id-49'/>
        <parameter type-id='type-id-50'/>
        <return type-id='type-id-27'/>
      </function-decl>
      <function-decl name='_Destroy&lt;vtkPixelExtent*&gt;' filepath='/usr/lib/gcc/x86_64-redhat-linux/4.4.7/../../../../include/c++/4.4.7/bits/stl_construct.h' line='119' column='1' visibility='default' binding='global' size-in-bits='64'>
        <parameter type-id='type-id-49'/>
        <parameter type-id='type-id-49'/>
        <return type-id='type-id-27'/>
      </function-decl>
      <function-decl name='uninitialized_fill&lt;vtkPixelExtent*, vtkPixelExtent&gt;' filepath='/usr/lib/gcc/x86_64-redhat-linux/4.4.7/../../../../include/c++/4.4.7/bits/stl_uninitialized.h' line='163' column='1' visibility='default' binding='global' size-in-bits='64'>
        <parameter type-id='type-id-49'/>
        <parameter type-id='type-id-49'/>
        <parameter type-id='type-id-50'/>
        <return type-id='type-id-27'/>
      </function-decl>
      <function-decl name='__uninitialized_fill_a&lt;vtkPixelExtent*, vtkPixelExtent, vtkPixelExtent&gt;' filepath='/usr/lib/gcc/x86_64-redhat-linux/4.4.7/../../../../include/c++/4.4.7/bits/stl_uninitialized.h' line='289' column='1' visibility='default' binding='global' size-in-bits='64'>
        <parameter type-id='type-id-49'/>
        <parameter type-id='type-id-49'/>
        <parameter type-id='type-id-50'/>
        <parameter type-id='type-id-221'/>
        <return type-id='type-id-27'/>
      </function-decl>
      <function-decl name='_Destroy&lt;std::_Deque_iterator&lt;vtkPixelExtent, vtkPixelExtent&amp;, vtkPixelExtent*&gt;, vtkPixelExtent&gt;' filepath='/usr/lib/gcc/x86_64-redhat-linux/4.4.7/../../../../include/c++/4.4.7/bits/stl_construct.h' line='146' column='1' visibility='default' binding='global' size-in-bits='64'>
        <parameter type-id='type-id-147'/>
        <parameter type-id='type-id-147'/>
        <parameter type-id='type-id-221'/>
        <return type-id='type-id-27'/>
      </function-decl>
      <function-decl name='max&lt;size_t&gt;' filepath='/usr/lib/gcc/x86_64-redhat-linux/4.4.7/../../../../include/c++/4.4.7/bits/stl_algobase.h' line='209' column='1' visibility='default' binding='global' size-in-bits='64'>
        <parameter type-id='type-id-142'/>
        <parameter type-id='type-id-142'/>
        <return type-id='type-id-142'/>
      </function-decl>
      <class-decl name='basic_ostream&lt;char, std::char_traits&lt;char&gt; &gt;' is-struct='yes' visibility='default' is-declaration-only='yes' id='type-id-225'>
        <member-function access='protected'>
          <function-decl name='basic_ostream' filepath='/usr/lib/gcc/x86_64-redhat-linux/4.4.7/../../../../include/c++/4.4.7/ostream' line='361' column='1' visibility='default' binding='global' size-in-bits='64'>
            <parameter type-id='type-id-227' is-artificial='yes'/>
            <parameter type-id='type-id-17' is-artificial='yes'/>
            <parameter type-id='type-id-316' is-artificial='yes'/>
            <return type-id='type-id-27'/>
          </function-decl>
        </member-function>
        <member-function access='public' destructor='yes' vtable-offset='-1'>
          <function-decl name='~basic_ostream' filepath='/usr/lib/gcc/x86_64-redhat-linux/4.4.7/../../../../include/c++/4.4.7/ostream' line='91' column='1' visibility='default' binding='global' size-in-bits='64'>
            <parameter type-id='type-id-227' is-artificial='yes'/>
            <parameter type-id='type-id-17' is-artificial='yes'/>
            <parameter type-id='type-id-316' is-artificial='yes'/>
            <return type-id='type-id-27'/>
          </function-decl>
        </member-function>
      </class-decl>
      <function-decl name='operator&lt;&lt; &lt;std::char_traits&lt;char&gt; &gt;' filepath='/usr/lib/gcc/x86_64-redhat-linux/4.4.7/../../../../include/c++/4.4.7/ostream' line='505' column='1' visibility='default' binding='global' size-in-bits='64'>
        <parameter type-id='type-id-226'/>
        <parameter type-id='type-id-68'/>
        <return type-id='type-id-226'/>
      </function-decl>
      <class-decl name='reverse_iterator&lt;std::_Deque_iterator&lt;vtkPixelExtent, vtkPixelExtent&amp;, vtkPixelExtent*&gt; &gt;' visibility='default' is-declaration-only='yes' id='type-id-317'/>
      <class-decl name='reverse_iterator&lt;std::_Deque_iterator&lt;vtkPixelExtent, const vtkPixelExtent&amp;, const vtkPixelExtent*&gt; &gt;' visibility='default' is-declaration-only='yes' id='type-id-318'/>
    </namespace-decl>
    <namespace-decl name='__gnu_cxx'>
      <class-decl name='new_allocator&lt;vtkPixelExtent&gt;' size-in-bits='8' visibility='default' filepath='/usr/lib/gcc/x86_64-redhat-linux/4.4.7/../../../../include/c++/4.4.7/ext/new_allocator.h' line='52' column='1' id='type-id-120'>
        <member-function access='private'>
          <function-decl name='new_allocator' filepath='/usr/lib/gcc/x86_64-redhat-linux/4.4.7/../../../../include/c++/4.4.7/ext/new_allocator.h' line='66' column='1' visibility='default' binding='global' size-in-bits='64'>
            <parameter type-id='type-id-121' is-artificial='yes'/>
            <return type-id='type-id-27'/>
          </function-decl>
        </member-function>
        <member-function access='private'>
          <function-decl name='new_allocator' filepath='/usr/lib/gcc/x86_64-redhat-linux/4.4.7/../../../../include/c++/4.4.7/ext/new_allocator.h' line='68' column='1' visibility='default' binding='global' size-in-bits='64'>
            <parameter type-id='type-id-121' is-artificial='yes'/>
            <parameter type-id='type-id-129'/>
            <return type-id='type-id-27'/>
          </function-decl>
        </member-function>
        <member-function access='private' destructor='yes'>
          <function-decl name='~new_allocator' filepath='/usr/lib/gcc/x86_64-redhat-linux/4.4.7/../../../../include/c++/4.4.7/ext/new_allocator.h' line='73' column='1' visibility='default' binding='global' size-in-bits='64'>
            <parameter type-id='type-id-121' is-artificial='yes'/>
            <parameter type-id='type-id-17' is-artificial='yes'/>
            <return type-id='type-id-27'/>
          </function-decl>
        </member-function>
        <member-function access='private'>
          <function-decl name='allocate' mangled-name='_ZN9__gnu_cxx13new_allocatorI14vtkPixelExtentE8allocateEmPKv' filepath='/usr/lib/gcc/x86_64-redhat-linux/4.4.7/../../../../include/c++/4.4.7/ext/new_allocator.h' line='84' column='1' declared-inline='yes' visibility='default' binding='global' size-in-bits='64' elf-symbol-id='_ZN9__gnu_cxx13new_allocatorI14vtkPixelExtentE8allocateEmPKv'>
            <parameter type-id='type-id-122' name='this' is-artificial='yes'/>
            <parameter type-id='type-id-38' name='__n' filepath='/usr/lib/gcc/x86_64-redhat-linux/4.4.7/../../../../include/c++/4.4.7/ext/new_allocator.h' line='84' column='1'/>
            <parameter type-id='type-id-14'/>
            <return type-id='type-id-49'/>
          </function-decl>
        </member-function>
      </class-decl>
      <class-decl name='new_allocator&lt;vtkPixelExtent*&gt;' size-in-bits='8' visibility='default' filepath='/usr/lib/gcc/x86_64-redhat-linux/4.4.7/../../../../include/c++/4.4.7/ext/new_allocator.h' line='52' column='1' id='type-id-117'>
        <member-function access='private'>
          <function-decl name='new_allocator' filepath='/usr/lib/gcc/x86_64-redhat-linux/4.4.7/../../../../include/c++/4.4.7/ext/new_allocator.h' line='66' column='1' visibility='default' binding='global' size-in-bits='64'>
            <parameter type-id='type-id-118' is-artificial='yes'/>
            <return type-id='type-id-27'/>
          </function-decl>
        </member-function>
        <member-function access='private'>
          <function-decl name='new_allocator' filepath='/usr/lib/gcc/x86_64-redhat-linux/4.4.7/../../../../include/c++/4.4.7/ext/new_allocator.h' line='68' column='1' visibility='default' binding='global' size-in-bits='64'>
            <parameter type-id='type-id-118' is-artificial='yes'/>
            <parameter type-id='type-id-125'/>
            <return type-id='type-id-27'/>
          </function-decl>
        </member-function>
        <member-function access='private' destructor='yes'>
          <function-decl name='~new_allocator' filepath='/usr/lib/gcc/x86_64-redhat-linux/4.4.7/../../../../include/c++/4.4.7/ext/new_allocator.h' line='73' column='1' visibility='default' binding='global' size-in-bits='64'>
            <parameter type-id='type-id-118' is-artificial='yes'/>
            <parameter type-id='type-id-17' is-artificial='yes'/>
            <return type-id='type-id-27'/>
          </function-decl>
        </member-function>
      </class-decl>
    </namespace-decl>
    <function-decl name='btowc' filepath='/usr/include/wchar.h' line='386' column='1' visibility='default' binding='global' size-in-bits='64'>
      <parameter type-id='type-id-17'/>
      <return type-id='type-id-80'/>
    </function-decl>
    <function-decl name='fgetwc' filepath='/usr/include/wchar.h' line='743' column='1' visibility='default' binding='global' size-in-bits='64'>
      <parameter type-id='type-id-116'/>
      <return type-id='type-id-80'/>
    </function-decl>
    <function-decl name='fgetws' filepath='/usr/include/wchar.h' line='772' column='1' visibility='default' binding='global' size-in-bits='64'>
      <parameter type-id='type-id-286'/>
      <parameter type-id='type-id-17'/>
      <parameter type-id='type-id-116'/>
      <return type-id='type-id-286'/>
    </function-decl>
    <function-decl name='fputwc' filepath='/usr/include/wchar.h' line='757' column='1' visibility='default' binding='global' size-in-bits='64'>
      <parameter type-id='type-id-28'/>
      <parameter type-id='type-id-116'/>
      <return type-id='type-id-80'/>
    </function-decl>
    <function-decl name='fputws' filepath='/usr/include/wchar.h' line='779' column='1' visibility='default' binding='global' size-in-bits='64'>
      <parameter type-id='type-id-201'/>
      <parameter type-id='type-id-116'/>
      <return type-id='type-id-17'/>
    </function-decl>
    <function-decl name='fwide' filepath='/usr/include/wchar.h' line='585' column='1' visibility='default' binding='global' size-in-bits='64'>
      <parameter type-id='type-id-116'/>
      <parameter type-id='type-id-17'/>
      <return type-id='type-id-17'/>
    </function-decl>
    <function-decl name='fwprintf' filepath='/usr/include/wchar.h' line='592' column='1' visibility='default' binding='global' size-in-bits='64'>
      <parameter type-id='type-id-116'/>
      <parameter type-id='type-id-201'/>
      <parameter is-variadic='yes'/>
      <return type-id='type-id-17'/>
    </function-decl>
    <function-decl name='fwscanf' filepath='/usr/include/wchar.h' line='633' column='1' visibility='default' binding='global' size-in-bits='64'>
      <parameter type-id='type-id-116'/>
      <parameter type-id='type-id-201'/>
      <parameter is-variadic='yes'/>
      <return type-id='type-id-17'/>
    </function-decl>
    <function-decl name='getwc' filepath='/usr/include/wchar.h' line='744' column='1' visibility='default' binding='global' size-in-bits='64'>
      <parameter type-id='type-id-116'/>
      <return type-id='type-id-80'/>
    </function-decl>
    <function-decl name='getwchar' filepath='/usr/include/wchar.h' line='750' column='1' visibility='default' binding='global' size-in-bits='64'>
      <return type-id='type-id-80'/>
    </function-decl>
    <function-decl name='mbrlen' filepath='/usr/include/wchar.h' line='397' column='1' visibility='default' binding='global' size-in-bits='64'>
      <parameter type-id='type-id-68'/>
      <parameter type-id='type-id-38'/>
      <parameter type-id='type-id-207'/>
      <return type-id='type-id-38'/>
    </function-decl>
    <function-decl name='mbrtowc' filepath='/usr/include/wchar.h' line='363' column='1' visibility='default' binding='global' size-in-bits='64'>
      <parameter type-id='type-id-286'/>
      <parameter type-id='type-id-68'/>
      <parameter type-id='type-id-38'/>
      <parameter type-id='type-id-207'/>
      <return type-id='type-id-38'/>
    </function-decl>
    <function-decl name='mbsinit' filepath='/usr/include/wchar.h' line='359' column='1' visibility='default' binding='global' size-in-bits='64'>
      <parameter type-id='type-id-140'/>
      <return type-id='type-id-17'/>
    </function-decl>
    <function-decl name='mbsrtowcs' filepath='/usr/include/wchar.h' line='406' column='1' visibility='default' binding='global' size-in-bits='64'>
      <parameter type-id='type-id-286'/>
      <parameter type-id='type-id-134'/>
      <parameter type-id='type-id-38'/>
      <parameter type-id='type-id-207'/>
      <return type-id='type-id-38'/>
    </function-decl>
    <function-decl name='putwc' filepath='/usr/include/wchar.h' line='758' column='1' visibility='default' binding='global' size-in-bits='64'>
      <parameter type-id='type-id-28'/>
      <parameter type-id='type-id-116'/>
      <return type-id='type-id-80'/>
    </function-decl>
    <function-decl name='putwchar' filepath='/usr/include/wchar.h' line='764' column='1' visibility='default' binding='global' size-in-bits='64'>
      <parameter type-id='type-id-28'/>
      <return type-id='type-id-80'/>
    </function-decl>
    <function-decl name='swprintf' filepath='/usr/include/wchar.h' line='602' column='1' visibility='default' binding='global' size-in-bits='64'>
      <parameter type-id='type-id-286'/>
      <parameter type-id='type-id-38'/>
      <parameter type-id='type-id-201'/>
      <parameter is-variadic='yes'/>
      <return type-id='type-id-17'/>
    </function-decl>
    <function-decl name='swscanf' filepath='/usr/include/wchar.h' line='643' column='1' visibility='default' binding='global' size-in-bits='64'>
      <parameter type-id='type-id-201'/>
      <parameter type-id='type-id-201'/>
      <parameter is-variadic='yes'/>
      <return type-id='type-id-17'/>
    </function-decl>
    <function-decl name='ungetwc' filepath='/usr/include/wchar.h' line='787' column='1' visibility='default' binding='global' size-in-bits='64'>
      <parameter type-id='type-id-80'/>
      <parameter type-id='type-id-116'/>
      <return type-id='type-id-80'/>
    </function-decl>
    <function-decl name='vfwprintf' filepath='/usr/include/wchar.h' line='610' column='1' visibility='default' binding='global' size-in-bits='64'>
      <parameter type-id='type-id-116'/>
      <parameter type-id='type-id-201'/>
      <parameter type-id='type-id-239'/>
      <return type-id='type-id-17'/>
    </function-decl>
    <function-decl name='vfwscanf' filepath='/usr/include/wchar.h' line='687' column='1' visibility='default' binding='global' size-in-bits='64'>
      <parameter type-id='type-id-116'/>
      <parameter type-id='type-id-201'/>
      <parameter type-id='type-id-239'/>
      <return type-id='type-id-17'/>
    </function-decl>
    <function-decl name='vswprintf' filepath='/usr/include/wchar.h' line='623' column='1' visibility='default' binding='global' size-in-bits='64'>
      <parameter type-id='type-id-286'/>
      <parameter type-id='type-id-38'/>
      <parameter type-id='type-id-201'/>
      <parameter type-id='type-id-239'/>
      <return type-id='type-id-17'/>
    </function-decl>
    <function-decl name='vswscanf' filepath='/usr/include/wchar.h' line='699' column='1' visibility='default' binding='global' size-in-bits='64'>
      <parameter type-id='type-id-201'/>
      <parameter type-id='type-id-201'/>
      <parameter type-id='type-id-239'/>
      <return type-id='type-id-17'/>
    </function-decl>
    <function-decl name='vwprintf' filepath='/usr/include/wchar.h' line='618' column='1' visibility='default' binding='global' size-in-bits='64'>
      <parameter type-id='type-id-201'/>
      <parameter type-id='type-id-239'/>
      <return type-id='type-id-17'/>
    </function-decl>
    <function-decl name='vwscanf' filepath='/usr/include/wchar.h' line='695' column='1' visibility='default' binding='global' size-in-bits='64'>
      <parameter type-id='type-id-201'/>
      <parameter type-id='type-id-239'/>
      <return type-id='type-id-17'/>
    </function-decl>
    <function-decl name='wcrtomb' filepath='/usr/include/wchar.h' line='368' column='1' visibility='default' binding='global' size-in-bits='64'>
      <parameter type-id='type-id-32'/>
      <parameter type-id='type-id-28'/>
      <parameter type-id='type-id-207'/>
      <return type-id='type-id-38'/>
    </function-decl>
    <function-decl name='wcscat' filepath='/usr/include/wchar.h' line='152' column='1' visibility='default' binding='global' size-in-bits='64'>
      <parameter type-id='type-id-286'/>
      <parameter type-id='type-id-201'/>
      <return type-id='type-id-286'/>
    </function-decl>
    <function-decl name='wcscmp' filepath='/usr/include/wchar.h' line='160' column='1' visibility='default' binding='global' size-in-bits='64'>
      <parameter type-id='type-id-201'/>
      <parameter type-id='type-id-201'/>
      <return type-id='type-id-17'/>
    </function-decl>
    <function-decl name='wcscoll' filepath='/usr/include/wchar.h' line='189' column='1' visibility='default' binding='global' size-in-bits='64'>
      <parameter type-id='type-id-201'/>
      <parameter type-id='type-id-201'/>
      <return type-id='type-id-17'/>
    </function-decl>
    <function-decl name='wcscpy' filepath='/usr/include/wchar.h' line='144' column='1' visibility='default' binding='global' size-in-bits='64'>
      <parameter type-id='type-id-286'/>
      <parameter type-id='type-id-201'/>
      <return type-id='type-id-286'/>
    </function-decl>
    <function-decl name='wcscspn' filepath='/usr/include/wchar.h' line='249' column='1' visibility='default' binding='global' size-in-bits='64'>
      <parameter type-id='type-id-201'/>
      <parameter type-id='type-id-201'/>
      <return type-id='type-id-38'/>
    </function-decl>
    <function-decl name='wcsftime' filepath='/usr/include/wchar.h' line='853' column='1' visibility='default' binding='global' size-in-bits='64'>
      <parameter type-id='type-id-286'/>
      <parameter type-id='type-id-38'/>
      <parameter type-id='type-id-201'/>
      <parameter type-id='type-id-185'/>
      <return type-id='type-id-38'/>
    </function-decl>
    <function-decl name='wcslen' filepath='/usr/include/wchar.h' line='284' column='1' visibility='default' binding='global' size-in-bits='64'>
      <parameter type-id='type-id-201'/>
      <return type-id='type-id-38'/>
    </function-decl>
    <function-decl name='wcsncat' filepath='/usr/include/wchar.h' line='155' column='1' visibility='default' binding='global' size-in-bits='64'>
      <parameter type-id='type-id-286'/>
      <parameter type-id='type-id-201'/>
      <parameter type-id='type-id-38'/>
      <return type-id='type-id-286'/>
    </function-decl>
    <function-decl name='wcsncmp' filepath='/usr/include/wchar.h' line='163' column='1' visibility='default' binding='global' size-in-bits='64'>
      <parameter type-id='type-id-201'/>
      <parameter type-id='type-id-201'/>
      <parameter type-id='type-id-38'/>
      <return type-id='type-id-17'/>
    </function-decl>
    <function-decl name='wcsncpy' filepath='/usr/include/wchar.h' line='147' column='1' visibility='default' binding='global' size-in-bits='64'>
      <parameter type-id='type-id-286'/>
      <parameter type-id='type-id-201'/>
      <parameter type-id='type-id-38'/>
      <return type-id='type-id-286'/>
    </function-decl>
    <function-decl name='wcsrtombs' filepath='/usr/include/wchar.h' line='412' column='1' visibility='default' binding='global' size-in-bits='64'>
      <parameter type-id='type-id-32'/>
      <parameter type-id='type-id-202'/>
      <parameter type-id='type-id-38'/>
      <parameter type-id='type-id-207'/>
      <return type-id='type-id-38'/>
    </function-decl>
    <function-decl name='wcsspn' filepath='/usr/include/wchar.h' line='253' column='1' visibility='default' binding='global' size-in-bits='64'>
      <parameter type-id='type-id-201'/>
      <parameter type-id='type-id-201'/>
      <return type-id='type-id-38'/>
    </function-decl>
    <function-decl name='wcstod' filepath='/usr/include/wchar.h' line='448' column='1' visibility='default' binding='global' size-in-bits='64'>
      <parameter type-id='type-id-201'/>
      <parameter type-id='type-id-287'/>
      <return type-id='type-id-15'/>
    </function-decl>
    <function-decl name='wcstof' filepath='/usr/include/wchar.h' line='455' column='1' visibility='default' binding='global' size-in-bits='64'>
      <parameter type-id='type-id-201'/>
      <parameter type-id='type-id-287'/>
      <return type-id='type-id-16'/>
    </function-decl>
    <function-decl name='wcstok' filepath='/usr/include/wchar.h' line='279' column='1' visibility='default' binding='global' size-in-bits='64'>
      <parameter type-id='type-id-286'/>
      <parameter type-id='type-id-201'/>
      <parameter type-id='type-id-287'/>
      <return type-id='type-id-286'/>
    </function-decl>
    <function-decl name='wcstol' filepath='/usr/include/wchar.h' line='466' column='1' visibility='default' binding='global' size-in-bits='64'>
      <parameter type-id='type-id-201'/>
      <parameter type-id='type-id-287'/>
      <parameter type-id='type-id-17'/>
      <return type-id='type-id-20'/>
    </function-decl>
    <function-decl name='wcstoul' filepath='/usr/include/wchar.h' line='471' column='1' visibility='default' binding='global' size-in-bits='64'>
      <parameter type-id='type-id-201'/>
      <parameter type-id='type-id-287'/>
      <parameter type-id='type-id-17'/>
      <return type-id='type-id-4'/>
    </function-decl>
    <function-decl name='wcsxfrm' filepath='/usr/include/wchar.h' line='193' column='1' visibility='default' binding='global' size-in-bits='64'>
      <parameter type-id='type-id-286'/>
      <parameter type-id='type-id-201'/>
      <parameter type-id='type-id-38'/>
      <return type-id='type-id-38'/>
    </function-decl>
    <function-decl name='wctob' filepath='/usr/include/wchar.h' line='392' column='1' visibility='default' binding='global' size-in-bits='64'>
      <parameter type-id='type-id-80'/>
      <return type-id='type-id-17'/>
    </function-decl>
    <function-decl name='wmemcmp' filepath='/usr/include/wchar.h' line='322' column='1' visibility='default' binding='global' size-in-bits='64'>
      <parameter type-id='type-id-201'/>
      <parameter type-id='type-id-201'/>
      <parameter type-id='type-id-38'/>
      <return type-id='type-id-17'/>
    </function-decl>
    <function-decl name='wmemcpy' filepath='/usr/include/wchar.h' line='327' column='1' visibility='default' binding='global' size-in-bits='64'>
      <parameter type-id='type-id-286'/>
      <parameter type-id='type-id-201'/>
      <parameter type-id='type-id-38'/>
      <return type-id='type-id-286'/>
    </function-decl>
    <function-decl name='wmemmove' filepath='/usr/include/wchar.h' line='332' column='1' visibility='default' binding='global' size-in-bits='64'>
      <parameter type-id='type-id-286'/>
      <parameter type-id='type-id-201'/>
      <parameter type-id='type-id-38'/>
      <return type-id='type-id-286'/>
    </function-decl>
    <function-decl name='wmemset' filepath='/usr/include/wchar.h' line='336' column='1' visibility='default' binding='global' size-in-bits='64'>
      <parameter type-id='type-id-286'/>
      <parameter type-id='type-id-28'/>
      <parameter type-id='type-id-38'/>
      <return type-id='type-id-286'/>
    </function-decl>
    <function-decl name='wprintf' filepath='/usr/include/wchar.h' line='599' column='1' visibility='default' binding='global' size-in-bits='64'>
      <parameter type-id='type-id-201'/>
      <parameter is-variadic='yes'/>
      <return type-id='type-id-17'/>
    </function-decl>
    <function-decl name='wscanf' filepath='/usr/include/wchar.h' line='640' column='1' visibility='default' binding='global' size-in-bits='64'>
      <parameter type-id='type-id-201'/>
      <parameter is-variadic='yes'/>
      <return type-id='type-id-17'/>
    </function-decl>
    <function-decl name='wcstold' filepath='/usr/include/wchar.h' line='457' column='1' visibility='default' binding='global' size-in-bits='64'>
      <parameter type-id='type-id-201'/>
      <parameter type-id='type-id-287'/>
      <return type-id='type-id-19'/>
    </function-decl>
    <function-decl name='wcstoll' filepath='/usr/include/wchar.h' line='481' column='1' visibility='default' binding='global' size-in-bits='64'>
      <parameter type-id='type-id-201'/>
      <parameter type-id='type-id-287'/>
      <parameter type-id='type-id-17'/>
      <return type-id='type-id-21'/>
    </function-decl>
    <function-decl name='wcstoull' filepath='/usr/include/wchar.h' line='488' column='1' visibility='default' binding='global' size-in-bits='64'>
      <parameter type-id='type-id-201'/>
      <parameter type-id='type-id-287'/>
      <parameter type-id='type-id-17'/>
      <return type-id='type-id-22'/>
    </function-decl>
    <function-decl name='setlocale' filepath='/usr/include/locale.h' line='125' column='1' visibility='default' binding='global' size-in-bits='64'>
      <parameter type-id='type-id-17'/>
      <parameter type-id='type-id-68'/>
      <return type-id='type-id-32'/>
    </function-decl>
    <function-decl name='localeconv' filepath='/usr/include/locale.h' line='128' column='1' visibility='default' binding='global' size-in-bits='64'>
      <return type-id='type-id-206'/>
    </function-decl>
    <function-decl name='iswctype' filepath='/usr/include/wctype.h' line='176' column='1' visibility='default' binding='global' size-in-bits='64'>
      <parameter type-id='type-id-80'/>
      <parameter type-id='type-id-87'/>
      <return type-id='type-id-17'/>
    </function-decl>
    <function-decl name='towctrans' filepath='/usr/include/wctype.h' line='222' column='1' visibility='default' binding='global' size-in-bits='64'>
      <parameter type-id='type-id-80'/>
      <parameter type-id='type-id-89'/>
      <return type-id='type-id-80'/>
    </function-decl>
    <function-decl name='wctrans' filepath='/usr/include/wctype.h' line='219' column='1' visibility='default' binding='global' size-in-bits='64'>
      <parameter type-id='type-id-68'/>
      <return type-id='type-id-89'/>
    </function-decl>
    <function-decl name='wctype' filepath='/usr/include/wctype.h' line='172' column='1' visibility='default' binding='global' size-in-bits='64'>
      <parameter type-id='type-id-68'/>
      <return type-id='type-id-87'/>
    </function-decl>
    <function-decl name='clearerr' filepath='/usr/include/stdio.h' line='821' column='1' visibility='default' binding='global' size-in-bits='64'>
      <parameter type-id='type-id-115'/>
      <return type-id='type-id-27'/>
    </function-decl>
    <function-decl name='fclose' filepath='/usr/include/stdio.h' line='236' column='1' visibility='default' binding='global' size-in-bits='64'>
      <parameter type-id='type-id-115'/>
      <return type-id='type-id-17'/>
    </function-decl>
    <function-decl name='feof' filepath='/usr/include/stdio.h' line='823' column='1' visibility='default' binding='global' size-in-bits='64'>
      <parameter type-id='type-id-115'/>
      <return type-id='type-id-17'/>
    </function-decl>
    <function-decl name='ferror' filepath='/usr/include/stdio.h' line='825' column='1' visibility='default' binding='global' size-in-bits='64'>
      <parameter type-id='type-id-115'/>
      <return type-id='type-id-17'/>
    </function-decl>
    <function-decl name='fflush' filepath='/usr/include/stdio.h' line='241' column='1' visibility='default' binding='global' size-in-bits='64'>
      <parameter type-id='type-id-115'/>
      <return type-id='type-id-17'/>
    </function-decl>
    <function-decl name='fgetc' filepath='/usr/include/stdio.h' line='535' column='1' visibility='default' binding='global' size-in-bits='64'>
      <parameter type-id='type-id-115'/>
      <return type-id='type-id-17'/>
    </function-decl>
    <function-decl name='fgets' filepath='/usr/include/stdio.h' line='626' column='1' visibility='default' binding='global' size-in-bits='64'>
      <parameter type-id='type-id-32'/>
      <parameter type-id='type-id-17'/>
      <parameter type-id='type-id-115'/>
      <return type-id='type-id-32'/>
    </function-decl>
    <function-decl name='fread' filepath='/usr/include/stdio.h' line='704' column='1' visibility='default' binding='global' size-in-bits='64'>
      <parameter type-id='type-id-14'/>
      <parameter type-id='type-id-38'/>
      <parameter type-id='type-id-38'/>
      <parameter type-id='type-id-115'/>
      <return type-id='type-id-38'/>
    </function-decl>
    <function-decl name='fseek' filepath='/usr/include/stdio.h' line='744' column='1' visibility='default' binding='global' size-in-bits='64'>
      <parameter type-id='type-id-115'/>
      <parameter type-id='type-id-20'/>
      <parameter type-id='type-id-17'/>
      <return type-id='type-id-17'/>
    </function-decl>
    <function-decl name='ftell' filepath='/usr/include/stdio.h' line='749' column='1' visibility='default' binding='global' size-in-bits='64'>
      <parameter type-id='type-id-115'/>
      <return type-id='type-id-20'/>
    </function-decl>
    <function-decl name='getc' filepath='/usr/include/stdio.h' line='536' column='1' visibility='default' binding='global' size-in-bits='64'>
      <parameter type-id='type-id-115'/>
      <return type-id='type-id-17'/>
    </function-decl>
    <function-decl name='getchar' filepath='/usr/include/bits/stdio.h' line='45' column='1' visibility='default' binding='global' size-in-bits='64'>
      <return type-id='type-id-17'/>
    </function-decl>
    <function-decl name='gets' filepath='/usr/include/stdio.h' line='634' column='1' visibility='default' binding='global' size-in-bits='64'>
      <parameter type-id='type-id-32'/>
      <return type-id='type-id-32'/>
    </function-decl>
    <function-decl name='perror' filepath='/usr/include/stdio.h' line='841' column='1' visibility='default' binding='global' size-in-bits='64'>
      <parameter type-id='type-id-68'/>
      <return type-id='type-id-27'/>
    </function-decl>
    <function-decl name='remove' filepath='/usr/include/stdio.h' line='177' column='1' visibility='default' binding='global' size-in-bits='64'>
      <parameter type-id='type-id-68'/>
      <return type-id='type-id-17'/>
    </function-decl>
    <function-decl name='rename' filepath='/usr/include/stdio.h' line='179' column='1' visibility='default' binding='global' size-in-bits='64'>
      <parameter type-id='type-id-68'/>
      <parameter type-id='type-id-68'/>
      <return type-id='type-id-17'/>
    </function-decl>
    <function-decl name='rewind' filepath='/usr/include/stdio.h' line='754' column='1' visibility='default' binding='global' size-in-bits='64'>
      <parameter type-id='type-id-115'/>
      <return type-id='type-id-27'/>
    </function-decl>
    <function-decl name='setbuf' filepath='/usr/include/stdio.h' line='331' column='1' visibility='default' binding='global' size-in-bits='64'>
      <parameter type-id='type-id-115'/>
      <parameter type-id='type-id-32'/>
      <return type-id='type-id-27'/>
    </function-decl>
    <function-decl name='setvbuf' filepath='/usr/include/stdio.h' line='335' column='1' visibility='default' binding='global' size-in-bits='64'>
      <parameter type-id='type-id-115'/>
      <parameter type-id='type-id-32'/>
      <parameter type-id='type-id-17'/>
      <parameter type-id='type-id-38'/>
      <return type-id='type-id-17'/>
    </function-decl>
    <function-decl name='tmpnam' filepath='/usr/include/stdio.h' line='208' column='1' visibility='default' binding='global' size-in-bits='64'>
      <parameter type-id='type-id-32'/>
      <return type-id='type-id-32'/>
    </function-decl>
    <function-decl name='ungetc' filepath='/usr/include/stdio.h' line='697' column='1' visibility='default' binding='global' size-in-bits='64'>
      <parameter type-id='type-id-17'/>
      <parameter type-id='type-id-115'/>
      <return type-id='type-id-17'/>
    </function-decl>
    <function-decl name='atexit' filepath='/usr/include/stdlib.h' line='518' column='1' visibility='default' binding='global' size-in-bits='64'>
      <parameter type-id='type-id-241'/>
      <return type-id='type-id-17'/>
    </function-decl>
    <function-decl name='atof' filepath='/usr/include/stdlib.h' line='279' column='1' visibility='default' binding='global' size-in-bits='64'>
      <parameter type-id='type-id-68'/>
      <return type-id='type-id-15'/>
    </function-decl>
    <function-decl name='atoi' filepath='/usr/include/stdlib.h' line='284' column='1' visibility='default' binding='global' size-in-bits='64'>
      <parameter type-id='type-id-68'/>
      <return type-id='type-id-17'/>
    </function-decl>
    <function-decl name='atol' filepath='/usr/include/stdlib.h' line='289' column='1' visibility='default' binding='global' size-in-bits='64'>
      <parameter type-id='type-id-68'/>
      <return type-id='type-id-20'/>
    </function-decl>
    <function-decl name='bsearch' filepath='/usr/include/stdlib.h' line='755' column='1' visibility='default' binding='global' size-in-bits='64'>
      <parameter type-id='type-id-14'/>
      <parameter type-id='type-id-14'/>
      <parameter type-id='type-id-38'/>
      <parameter type-id='type-id-38'/>
      <parameter type-id='type-id-94'/>
      <return type-id='type-id-14'/>
    </function-decl>
    <function-decl name='div' filepath='/usr/include/stdlib.h' line='785' column='1' visibility='default' binding='global' size-in-bits='64'>
      <parameter type-id='type-id-17'/>
      <parameter type-id='type-id-17'/>
      <return type-id='type-id-95'/>
    </function-decl>
    <function-decl name='getenv' filepath='/usr/include/stdlib.h' line='567' column='1' visibility='default' binding='global' size-in-bits='64'>
      <parameter type-id='type-id-68'/>
      <return type-id='type-id-32'/>
    </function-decl>
    <function-decl name='ldiv' filepath='/usr/include/stdlib.h' line='787' column='1' visibility='default' binding='global' size-in-bits='64'>
      <parameter type-id='type-id-20'/>
      <parameter type-id='type-id-20'/>
      <return type-id='type-id-96'/>
    </function-decl>
    <function-decl name='mblen' filepath='/usr/include/stdlib.h' line='860' column='1' visibility='default' binding='global' size-in-bits='64'>
      <parameter type-id='type-id-68'/>
      <parameter type-id='type-id-38'/>
      <return type-id='type-id-17'/>
    </function-decl>
    <function-decl name='mbstowcs' filepath='/usr/include/stdlib.h' line='871' column='1' visibility='default' binding='global' size-in-bits='64'>
      <parameter type-id='type-id-286'/>
      <parameter type-id='type-id-68'/>
      <parameter type-id='type-id-38'/>
      <return type-id='type-id-38'/>
    </function-decl>
    <function-decl name='mbtowc' filepath='/usr/include/stdlib.h' line='863' column='1' visibility='default' binding='global' size-in-bits='64'>
      <parameter type-id='type-id-286'/>
      <parameter type-id='type-id-68'/>
      <parameter type-id='type-id-38'/>
      <return type-id='type-id-17'/>
    </function-decl>
    <function-decl name='qsort' filepath='/usr/include/stdlib.h' line='761' column='1' visibility='default' binding='global' size-in-bits='64'>
      <parameter type-id='type-id-14'/>
      <parameter type-id='type-id-38'/>
      <parameter type-id='type-id-38'/>
      <parameter type-id='type-id-94'/>
      <return type-id='type-id-27'/>
    </function-decl>
    <function-decl name='rand' filepath='/usr/include/stdlib.h' line='380' column='1' visibility='default' binding='global' size-in-bits='64'>
      <return type-id='type-id-17'/>
    </function-decl>
    <function-decl name='srand' filepath='/usr/include/stdlib.h' line='382' column='1' visibility='default' binding='global' size-in-bits='64'>
      <parameter type-id='type-id-13'/>
      <return type-id='type-id-27'/>
    </function-decl>
    <function-decl name='strtod' filepath='/usr/include/stdlib.h' line='165' column='1' visibility='default' binding='global' size-in-bits='64'>
      <parameter type-id='type-id-68'/>
      <parameter type-id='type-id-123'/>
      <return type-id='type-id-15'/>
    </function-decl>
    <function-decl name='strtol' filepath='/usr/include/stdlib.h' line='184' column='1' visibility='default' binding='global' size-in-bits='64'>
      <parameter type-id='type-id-68'/>
      <parameter type-id='type-id-123'/>
      <parameter type-id='type-id-17'/>
      <return type-id='type-id-20'/>
    </function-decl>
    <function-decl name='strtoul' filepath='/usr/include/stdlib.h' line='188' column='1' visibility='default' binding='global' size-in-bits='64'>
      <parameter type-id='type-id-68'/>
      <parameter type-id='type-id-123'/>
      <parameter type-id='type-id-17'/>
      <return type-id='type-id-4'/>
    </function-decl>
    <function-decl name='system' filepath='/usr/include/stdlib.h' line='717' column='1' visibility='default' binding='global' size-in-bits='64'>
      <parameter type-id='type-id-68'/>
      <return type-id='type-id-17'/>
    </function-decl>
    <function-decl name='wcstombs' filepath='/usr/include/stdlib.h' line='874' column='1' visibility='default' binding='global' size-in-bits='64'>
      <parameter type-id='type-id-32'/>
      <parameter type-id='type-id-201'/>
      <parameter type-id='type-id-38'/>
      <return type-id='type-id-38'/>
    </function-decl>
    <function-decl name='wctomb' filepath='/usr/include/stdlib.h' line='867' column='1' visibility='default' binding='global' size-in-bits='64'>
      <parameter type-id='type-id-32'/>
      <parameter type-id='type-id-28'/>
      <return type-id='type-id-17'/>
    </function-decl>
    <function-decl name='lldiv' filepath='/usr/include/stdlib.h' line='793' column='1' visibility='default' binding='global' size-in-bits='64'>
      <parameter type-id='type-id-21'/>
      <parameter type-id='type-id-21'/>
      <return type-id='type-id-79'/>
    </function-decl>
    <function-decl name='atoll' filepath='/usr/include/stdlib.h' line='298' column='1' visibility='default' binding='global' size-in-bits='64'>
      <parameter type-id='type-id-68'/>
      <return type-id='type-id-21'/>
    </function-decl>
    <function-decl name='strtoll' filepath='/usr/include/stdlib.h' line='210' column='1' visibility='default' binding='global' size-in-bits='64'>
      <parameter type-id='type-id-68'/>
      <parameter type-id='type-id-123'/>
      <parameter type-id='type-id-17'/>
      <return type-id='type-id-21'/>
    </function-decl>
    <function-decl name='strtoull' filepath='/usr/include/stdlib.h' line='215' column='1' visibility='default' binding='global' size-in-bits='64'>
      <parameter type-id='type-id-68'/>
      <parameter type-id='type-id-123'/>
      <parameter type-id='type-id-17'/>
      <return type-id='type-id-22'/>
    </function-decl>
    <function-decl name='strtof' filepath='/usr/include/stdlib.h' line='173' column='1' visibility='default' binding='global' size-in-bits='64'>
      <parameter type-id='type-id-68'/>
      <parameter type-id='type-id-123'/>
      <return type-id='type-id-16'/>
    </function-decl>
    <function-decl name='strtold' filepath='/usr/include/stdlib.h' line='176' column='1' visibility='default' binding='global' size-in-bits='64'>
      <parameter type-id='type-id-68'/>
      <parameter type-id='type-id-123'/>
      <return type-id='type-id-19'/>
    </function-decl>
    <function-decl name='strcoll' filepath='/usr/include/string.h' line='150' column='1' visibility='default' binding='global' size-in-bits='64'>
      <parameter type-id='type-id-68'/>
      <parameter type-id='type-id-68'/>
      <return type-id='type-id-17'/>
    </function-decl>
    <function-decl name='strerror' filepath='/usr/include/string.h' line='413' column='1' visibility='default' binding='global' size-in-bits='64'>
      <parameter type-id='type-id-17'/>
      <return type-id='type-id-32'/>
    </function-decl>
    <function-decl name='strtok' filepath='/usr/include/string.h' line='348' column='1' visibility='default' binding='global' size-in-bits='64'>
      <parameter type-id='type-id-32'/>
      <parameter type-id='type-id-68'/>
      <return type-id='type-id-32'/>
    </function-decl>
    <function-decl name='strxfrm' filepath='/usr/include/string.h' line='153' column='1' visibility='default' binding='global' size-in-bits='64'>
      <parameter type-id='type-id-32'/>
      <parameter type-id='type-id-68'/>
      <parameter type-id='type-id-38'/>
      <return type-id='type-id-38'/>
    </function-decl>
    <pointer-type-def type-id='type-id-319' size-in-bits='64' id='type-id-57'/>
    <namespace-decl name='std'>
      <class-decl name='__false_type' size-in-bits='8' is-struct='yes' visibility='default' filepath='/usr/lib/gcc/x86_64-redhat-linux/4.4.7/../../../../include/c++/4.4.7/bits/cpp_type_traits.h' line='79' column='1' id='type-id-307'/>
    </namespace-decl>
    <namespace-decl name='std'>
      <class-decl name='forward_iterator_tag' size-in-bits='8' is-struct='yes' visibility='default' filepath='/usr/lib/gcc/x86_64-redhat-linux/4.4.7/../../../../include/c++/4.4.7/bits/stl_iterator_base_types.h' line='83' column='1' id='type-id-308'>
        <base-class access='public' layout-offset-in-bits='0' type-id='type-id-320'/>
      </class-decl>
    </namespace-decl>
    <class-decl name='vtkAbstractArray' is-struct='yes' visibility='default' is-declaration-only='yes' id='type-id-242'/>
    <class-decl name='vtkDataArray' visibility='default' is-declaration-only='yes' id='type-id-247'/>
    <class-decl name='vtkDataSet' visibility='default' is-declaration-only='yes' id='type-id-255'/>
    <class-decl name='vtkImageAlgorithm' visibility='default' is-declaration-only='yes' id='type-id-100'/>
    <class-decl name='vtkImageData' visibility='default' is-declaration-only='yes' id='type-id-258'/>
    <class-decl name='vtkImageNoiseSource' visibility='default' is-declaration-only='yes' id='type-id-260'/>
    <class-decl name='vtkInformation' is-struct='yes' visibility='default' is-declaration-only='yes' id='type-id-261'/>
    <class-decl name='vtkInformationVector' visibility='default' is-declaration-only='yes' id='type-id-262'/>
    <class-decl name='vtkOpenGLRenderWindow' visibility='default' is-declaration-only='yes' id='type-id-264'/>
    <class-decl name='vtkPointData' visibility='default' is-declaration-only='yes' id='type-id-275'/>
    <class-decl name='vtkProgressObserver' is-struct='yes' visibility='default' is-declaration-only='yes' id='type-id-277'/>
    <class-decl name='vtkRenderWindow' is-struct='yes' visibility='default' is-declaration-only='yes' id='type-id-279'/>
    <class-decl name='vtkShaderProgram2' visibility='default' is-declaration-only='yes' id='type-id-281'/>
    <class-decl name='vtkWeakPointer&lt;vtkImageDataLIC2D&gt;' size-in-bits='64' visibility='default' filepath='/tmp/legendre/spack-stage/spack-stage-R_crTC/VTK-6.1.0/Common/Core/vtkWeakPointer.h' line='47' column='1' id='type-id-62'>
      <base-class access='public' layout-offset-in-bits='0' type-id='type-id-74'/>
      <member-function access='private'>
        <function-decl name='vtkWeakPointer' filepath='/tmp/legendre/spack-stage/spack-stage-R_crTC/VTK-6.1.0/Common/Core/vtkWeakPointer.h' line='51' column='1' visibility='default' binding='global' size-in-bits='64'>
          <parameter type-id='type-id-321' is-artificial='yes'/>
          <return type-id='type-id-27'/>
        </function-decl>
      </member-function>
      <member-function access='private'>
        <function-decl name='vtkWeakPointer' filepath='/tmp/legendre/spack-stage/spack-stage-R_crTC/VTK-6.1.0/Common/Core/vtkWeakPointer.h' line='55' column='1' visibility='default' binding='global' size-in-bits='64'>
          <parameter type-id='type-id-321' is-artificial='yes'/>
          <parameter type-id='type-id-66'/>
          <return type-id='type-id-27'/>
        </function-decl>
      </member-function>
      <member-function access='private'>
        <function-decl name='vtkWeakPointer' filepath='/tmp/legendre/spack-stage/spack-stage-R_crTC/VTK-6.1.0/Common/Core/vtkWeakPointer.h' line='59' column='1' visibility='default' binding='global' size-in-bits='64'>
          <parameter type-id='type-id-321' is-artificial='yes'/>
          <parameter type-id='type-id-77'/>
          <return type-id='type-id-27'/>
        </function-decl>
      </member-function>
      <member-function access='protected'>
        <function-decl name='vtkWeakPointer' filepath='/tmp/legendre/spack-stage/spack-stage-R_crTC/VTK-6.1.0/Common/Core/vtkWeakPointer.h' line='133' column='1' visibility='default' binding='global' size-in-bits='64'>
          <parameter type-id='type-id-321' is-artificial='yes'/>
          <parameter type-id='type-id-66'/>
          <parameter type-id='type-id-78'/>
          <return type-id='type-id-27'/>
        </function-decl>
      </member-function>
    </class-decl>
    <qualified-type-def type-id='type-id-150' const='yes' id='type-id-305'/>
    <qualified-type-def type-id='type-id-182' id='type-id-309'/>
    <reference-type-def kind='lvalue' type-id='type-id-322' size-in-bits='64' id='type-id-64'/>
    <pointer-type-def type-id='type-id-322' size-in-bits='64' id='type-id-67'/>
    <function-type size-in-bits='64' id='type-id-205'>
      <parameter type-id='type-id-14'/>
      <parameter type-id='type-id-14'/>
      <return type-id='type-id-17'/>
    </function-type>
    <function-type size-in-bits='64' id='type-id-240'>
      <return type-id='type-id-27'/>
    </function-type>
    <array-type-def dimensions='1' type-id='type-id-17' size-in-bits='192' id='type-id-60'>
      <subrange length='6' type-id='type-id-4' id='type-id-323'/>
    </array-type-def>
    <pointer-type-def type-id='type-id-306' size-in-bits='64' id='type-id-311'/>
    <pointer-type-def type-id='type-id-14' size-in-bits='64' id='type-id-316'/>
    <qualified-type-def type-id='type-id-63' const='yes' id='type-id-65'/>
    <pointer-type-def type-id='type-id-267' size-in-bits='64' id='type-id-313'/>
    <pointer-type-def type-id='type-id-110' size-in-bits='64' id='type-id-112'/>
    <namespace-decl name='std'>
      <class-decl name='input_iterator_tag' size-in-bits='8' is-struct='yes' visibility='default' filepath='/usr/lib/gcc/x86_64-redhat-linux/4.4.7/../../../../include/c++/4.4.7/bits/stl_iterator_base_types.h' line='79' column='1' id='type-id-320'/>
    </namespace-decl>
    <qualified-type-def type-id='type-id-58' const='yes' id='type-id-322'/>
    <typedef-decl name='GLfloat' type-id='type-id-16' filepath='/collab/usr/global/tools/order/spack/opt/chaos_5_x86_64_ib/gcc@4.4.7/mesa@8.0.5-22dd4c4b/include/GL/gl.h' line='160' column='1' id='type-id-319'/>
    <pointer-type-def type-id='type-id-62' size-in-bits='64' id='type-id-321'/>
  </abi-instr>
  <abi-instr address-size='64' path='/tmp/legendre/spack-stage/spack-stage-R_crTC/VTK-6.1.0/Rendering/LIC/vtkImageDataLIC2DExtentTranslator.cxx' comp-dir-path='/tmp/legendre/spack-stage/spack-stage-R_crTC/VTK-6.1.0/spack-build/Rendering/LIC' language='LANG_C_plus_plus'>
    <array-type-def dimensions='1' type-id='type-id-17' size-in-bits='192' id='type-id-60'>
      <subrange length='6' type-id='type-id-4' id='type-id-323'/>
    </array-type-def>
    <class-decl name='vtkWeakPointer&lt;vtkImageDataLIC2D&gt;' size-in-bits='64' visibility='default' filepath='/tmp/legendre/spack-stage/spack-stage-R_crTC/VTK-6.1.0/Common/Core/vtkWeakPointer.h' line='47' column='1' id='type-id-62'>
      <base-class access='public' layout-offset-in-bits='0' type-id='type-id-74'/>
      <member-function access='private'>
        <function-decl name='vtkWeakPointer' filepath='/tmp/legendre/spack-stage/spack-stage-R_crTC/VTK-6.1.0/Common/Core/vtkWeakPointer.h' line='51' column='1' visibility='default' binding='global' size-in-bits='64'>
          <parameter type-id='type-id-321' is-artificial='yes'/>
          <return type-id='type-id-27'/>
        </function-decl>
      </member-function>
      <member-function access='private'>
        <function-decl name='vtkWeakPointer' filepath='/tmp/legendre/spack-stage/spack-stage-R_crTC/VTK-6.1.0/Common/Core/vtkWeakPointer.h' line='55' column='1' visibility='default' binding='global' size-in-bits='64'>
          <parameter type-id='type-id-321' is-artificial='yes'/>
          <parameter type-id='type-id-66'/>
          <return type-id='type-id-27'/>
        </function-decl>
      </member-function>
      <member-function access='private'>
        <function-decl name='vtkWeakPointer' filepath='/tmp/legendre/spack-stage/spack-stage-R_crTC/VTK-6.1.0/Common/Core/vtkWeakPointer.h' line='59' column='1' visibility='default' binding='global' size-in-bits='64'>
          <parameter type-id='type-id-321' is-artificial='yes'/>
          <parameter type-id='type-id-77'/>
          <return type-id='type-id-27'/>
        </function-decl>
      </member-function>
      <member-function access='protected'>
        <function-decl name='vtkWeakPointer' filepath='/tmp/legendre/spack-stage/spack-stage-R_crTC/VTK-6.1.0/Common/Core/vtkWeakPointer.h' line='133' column='1' visibility='default' binding='global' size-in-bits='64'>
          <parameter type-id='type-id-321' is-artificial='yes'/>
          <parameter type-id='type-id-66'/>
          <parameter type-id='type-id-78'/>
          <return type-id='type-id-27'/>
        </function-decl>
      </member-function>
    </class-decl>
    <qualified-type-def type-id='type-id-324' const='yes' id='type-id-325'/>
    <reference-type-def kind='lvalue' type-id='type-id-325' size-in-bits='64' id='type-id-326'/>
    <pointer-type-def type-id='type-id-325' size-in-bits='64' id='type-id-327'/>
    <qualified-type-def type-id='type-id-327' const='yes' id='type-id-328'/>
    <qualified-type-def type-id='type-id-58' const='yes' id='type-id-322'/>
    <reference-type-def kind='lvalue' type-id='type-id-322' size-in-bits='64' id='type-id-64'/>
    <pointer-type-def type-id='type-id-322' size-in-bits='64' id='type-id-67'/>
    <qualified-type-def type-id='type-id-62' const='yes' id='type-id-329'/>
    <pointer-type-def type-id='type-id-329' size-in-bits='64' id='type-id-330'/>
    <qualified-type-def type-id='type-id-330' const='yes' id='type-id-331'/>
    <pointer-type-def type-id='type-id-332' size-in-bits='64' id='type-id-333'/>
    <reference-type-def kind='lvalue' type-id='type-id-99' size-in-bits='64' id='type-id-334'/>
    <qualified-type-def type-id='type-id-63' const='yes' id='type-id-65'/>
    <reference-type-def kind='lvalue' type-id='type-id-62' size-in-bits='64' id='type-id-335'/>
    <pointer-type-def type-id='type-id-62' size-in-bits='64' id='type-id-321'/>
    <qualified-type-def type-id='type-id-321' const='yes' id='type-id-336'/>
    <namespace-decl name='std'>
      <class-decl name='ctype&lt;char&gt;' visibility='default' is-declaration-only='yes' id='type-id-324'>
        <member-type access='private'>
          <typedef-decl name='char_type' type-id='type-id-2' filepath='/usr/lib/gcc/x86_64-redhat-linux/4.4.7/../../../../include/c++/4.4.7/bits/locale_facets.h' line='679' column='1' id='type-id-337'/>
        </member-type>
      </class-decl>
      <function-decl name='__check_facet&lt;std::ctype&lt;char&gt; &gt;' filepath='/usr/lib/gcc/x86_64-redhat-linux/4.4.7/../../../../include/c++/4.4.7/bits/basic_ios.h' line='46' column='1' visibility='default' binding='global' size-in-bits='64'>
        <parameter type-id='type-id-327'/>
        <return type-id='type-id-326'/>
      </function-decl>
      <function-decl name='flush&lt;char, std::char_traits&lt;char&gt; &gt;' filepath='/usr/lib/gcc/x86_64-redhat-linux/4.4.7/../../../../include/c++/4.4.7/ostream' line='559' column='1' visibility='default' binding='global' size-in-bits='64'>
        <parameter type-id='type-id-226'/>
        <return type-id='type-id-226'/>
      </function-decl>
      <function-decl name='endl&lt;char, std::char_traits&lt;char&gt; &gt;' filepath='/usr/lib/gcc/x86_64-redhat-linux/4.4.7/../../../../include/c++/4.4.7/ostream' line='538' column='1' visibility='default' binding='global' size-in-bits='64'>
        <parameter type-id='type-id-226'/>
        <return type-id='type-id-226'/>
      </function-decl>
    </namespace-decl>
    <function-type size-in-bits='64' id='type-id-332'>
      <parameter type-id='type-id-226'/>
      <return type-id='type-id-226'/>
    </function-type>
  </abi-instr>
  <abi-instr address-size='64' path='/tmp/legendre/spack-stage/spack-stage-R_crTC/VTK-6.1.0/Rendering/LIC/vtkLineIntegralConvolution2D.cxx' comp-dir-path='/tmp/legendre/spack-stage/spack-stage-R_crTC/VTK-6.1.0/spack-build/Rendering/LIC' language='LANG_C_plus_plus'>
    <array-type-def dimensions='1' type-id='type-id-17' size-in-bits='64' id='type-id-338'>
      <subrange length='2' type-id='type-id-4' id='type-id-339'/>
    </array-type-def>
    <array-type-def dimensions='1' type-id='type-id-38' size-in-bits='256' id='type-id-340'>
      <subrange length='4' type-id='type-id-4' id='type-id-11'/>
    </array-type-def>
    <array-type-def dimensions='1' type-id='type-id-54' size-in-bits='128' id='type-id-341'>
      <subrange length='2' type-id='type-id-4' id='type-id-339'/>
    </array-type-def>
    <array-type-def dimensions='1' type-id='type-id-13' size-in-bits='64' id='type-id-342'>
      <subrange length='2' type-id='type-id-4' id='type-id-339'/>
    </array-type-def>
    <class-decl name='vtkPainterCommunicator' size-in-bits='64' visibility='default' filepath='/tmp/legendre/spack-stage/spack-stage-R_crTC/VTK-6.1.0/Rendering/LIC/vtkPainterCommunicator.h' line='30' column='1' id='type-id-343'>
      <member-function access='private' constructor='yes'>
        <function-decl name='vtkPainterCommunicator' filepath='/tmp/legendre/spack-stage/spack-stage-R_crTC/VTK-6.1.0/Rendering/LIC/vtkPainterCommunicator.h' line='32' column='1' visibility='default' binding='global' size-in-bits='64'>
          <parameter type-id='type-id-344' is-artificial='yes'/>
          <return type-id='type-id-27'/>
        </function-decl>
      </member-function>
      <member-function access='private' constructor='yes'>
        <function-decl name='vtkPainterCommunicator' filepath='/tmp/legendre/spack-stage/spack-stage-R_crTC/VTK-6.1.0/Rendering/LIC/vtkPainterCommunicator.h' line='38' column='1' visibility='default' binding='global' size-in-bits='64'>
          <parameter type-id='type-id-344' is-artificial='yes'/>
          <parameter type-id='type-id-345'/>
          <return type-id='type-id-27'/>
        </function-decl>
      </member-function>
      <member-function access='private' destructor='yes' vtable-offset='-1'>
        <function-decl name='~vtkPainterCommunicator' filepath='/tmp/legendre/spack-stage/spack-stage-R_crTC/VTK-6.1.0/Rendering/LIC/vtkPainterCommunicator.h' line='33' column='1' visibility='default' binding='global' size-in-bits='64'>
          <parameter type-id='type-id-344' is-artificial='yes'/>
          <parameter type-id='type-id-17' is-artificial='yes'/>
          <return type-id='type-id-27'/>
        </function-decl>
      </member-function>
      <member-function access='private' vtable-offset='2'>
        <function-decl name='Copy' mangled-name='_ZN22vtkPainterCommunicator4CopyEPKS_b' filepath='/tmp/legendre/spack-stage/spack-stage-R_crTC/VTK-6.1.0/Rendering/LIC/vtkPainterCommunicator.h' line='48' column='1' visibility='default' binding='global' size-in-bits='64'>
          <parameter type-id='type-id-344' is-artificial='yes'/>
          <parameter type-id='type-id-346'/>
          <parameter type-id='type-id-1'/>
          <return type-id='type-id-27'/>
        </function-decl>
      </member-function>
      <member-function access='private' vtable-offset='3'>
        <function-decl name='Duplicate' mangled-name='_ZN22vtkPainterCommunicator9DuplicateEPKS_' filepath='/tmp/legendre/spack-stage/spack-stage-R_crTC/VTK-6.1.0/Rendering/LIC/vtkPainterCommunicator.h' line='52' column='1' visibility='default' binding='global' size-in-bits='64'>
          <parameter type-id='type-id-344' is-artificial='yes'/>
          <parameter type-id='type-id-346'/>
          <return type-id='type-id-27'/>
        </function-decl>
      </member-function>
      <member-function access='private' vtable-offset='4'>
        <function-decl name='GetRank' mangled-name='_ZN22vtkPainterCommunicator7GetRankEv' filepath='/tmp/legendre/spack-stage/spack-stage-R_crTC/VTK-6.1.0/Rendering/LIC/vtkPainterCommunicator.h' line='56' column='1' visibility='default' binding='global' size-in-bits='64'>
          <parameter type-id='type-id-344' is-artificial='yes'/>
          <return type-id='type-id-17'/>
        </function-decl>
      </member-function>
      <member-function access='private' vtable-offset='5'>
        <function-decl name='GetSize' mangled-name='_ZN22vtkPainterCommunicator7GetSizeEv' filepath='/tmp/legendre/spack-stage/spack-stage-R_crTC/VTK-6.1.0/Rendering/LIC/vtkPainterCommunicator.h' line='57' column='1' visibility='default' binding='global' size-in-bits='64'>
          <parameter type-id='type-id-344' is-artificial='yes'/>
          <return type-id='type-id-17'/>
        </function-decl>
      </member-function>
      <member-function access='private' vtable-offset='6'>
        <function-decl name='GetIsNull' mangled-name='_ZN22vtkPainterCommunicator9GetIsNullEv' filepath='/tmp/legendre/spack-stage/spack-stage-R_crTC/VTK-6.1.0/Rendering/LIC/vtkPainterCommunicator.h' line='58' column='1' visibility='default' binding='global' size-in-bits='64'>
          <parameter type-id='type-id-344' is-artificial='yes'/>
          <return type-id='type-id-1'/>
        </function-decl>
      </member-function>
      <member-function access='private' vtable-offset='7'>
        <function-decl name='GetWorldRank' mangled-name='_ZN22vtkPainterCommunicator12GetWorldRankEv' filepath='/tmp/legendre/spack-stage/spack-stage-R_crTC/VTK-6.1.0/Rendering/LIC/vtkPainterCommunicator.h' line='62' column='1' visibility='default' binding='global' size-in-bits='64'>
          <parameter type-id='type-id-344' is-artificial='yes'/>
          <return type-id='type-id-17'/>
        </function-decl>
      </member-function>
      <member-function access='private' vtable-offset='8'>
        <function-decl name='GetWorldSize' mangled-name='_ZN22vtkPainterCommunicator12GetWorldSizeEv' filepath='/tmp/legendre/spack-stage/spack-stage-R_crTC/VTK-6.1.0/Rendering/LIC/vtkPainterCommunicator.h' line='63' column='1' visibility='default' binding='global' size-in-bits='64'>
          <parameter type-id='type-id-344' is-artificial='yes'/>
          <return type-id='type-id-17'/>
        </function-decl>
      </member-function>
      <member-function access='private' vtable-offset='9'>
        <function-decl name='GetMPIInitialized' mangled-name='_ZN22vtkPainterCommunicator17GetMPIInitializedEv' filepath='/tmp/legendre/spack-stage/spack-stage-R_crTC/VTK-6.1.0/Rendering/LIC/vtkPainterCommunicator.h' line='67' column='1' visibility='default' binding='global' size-in-bits='64'>
          <parameter type-id='type-id-344' is-artificial='yes'/>
          <return type-id='type-id-1'/>
        </function-decl>
      </member-function>
      <member-function access='private' vtable-offset='10'>
        <function-decl name='GetMPIFinalized' mangled-name='_ZN22vtkPainterCommunicator15GetMPIFinalizedEv' filepath='/tmp/legendre/spack-stage/spack-stage-R_crTC/VTK-6.1.0/Rendering/LIC/vtkPainterCommunicator.h' line='68' column='1' visibility='default' binding='global' size-in-bits='64'>
          <parameter type-id='type-id-344' is-artificial='yes'/>
          <return type-id='type-id-1'/>
        </function-decl>
      </member-function>
    </class-decl>
    <class-decl name='vtkLineIntegralConvolution2D' size-in-bits='1792' visibility='default' filepath='/tmp/legendre/spack-stage/spack-stage-R_crTC/VTK-6.1.0/Rendering/LIC/vtkLineIntegralConvolution2D.h' line='105' column='1' id='type-id-347'>
      <base-class access='public' layout-offset-in-bits='0' type-id='type-id-348'/>
      <member-type access='private'>
        <enum-decl name='__anonymous_enum__' is-anonymous='yes' filepath='/tmp/legendre/spack-stage/spack-stage-R_crTC/VTK-6.1.0/Rendering/LIC/vtkLineIntegralConvolution2D.h' line='149' column='1' id='type-id-349'>
          <underlying-type type-id='type-id-24'/>
          <enumerator name='ENHANCE_CONTRAST_OFF' value='0'/>
          <enumerator name='ENHANCE_CONTRAST_ON' value='1'/>
        </enum-decl>
      </member-type>
      <data-member access='protected' layout-offset-in-bits='384'>
        <var-decl name='Comm' type-id='type-id-344' visibility='default' filepath='/tmp/legendre/spack-stage/spack-stage-R_crTC/VTK-6.1.0/Rendering/LIC/vtkLineIntegralConvolution2D.h' line='362' column='1'/>
      </data-member>
      <data-member access='protected' layout-offset-in-bits='448'>
        <var-decl name='Context' type-id='type-id-73' visibility='default' filepath='/tmp/legendre/spack-stage/spack-stage-R_crTC/VTK-6.1.0/Rendering/LIC/vtkLineIntegralConvolution2D.h' line='364' column='1'/>
      </data-member>
      <data-member access='protected' layout-offset-in-bits='512'>
        <var-decl name='FBO' type-id='type-id-350' visibility='default' filepath='/tmp/legendre/spack-stage/spack-stage-R_crTC/VTK-6.1.0/Rendering/LIC/vtkLineIntegralConvolution2D.h' line='365' column='1'/>
      </data-member>
      <data-member access='protected' layout-offset-in-bits='576'>
        <var-decl name='ShadersNeedBuild' type-id='type-id-17' visibility='default' filepath='/tmp/legendre/spack-stage/spack-stage-R_crTC/VTK-6.1.0/Rendering/LIC/vtkLineIntegralConvolution2D.h' line='367' column='1'/>
      </data-member>
      <data-member access='protected' layout-offset-in-bits='640'>
        <var-decl name='VTShader' type-id='type-id-101' visibility='default' filepath='/tmp/legendre/spack-stage/spack-stage-R_crTC/VTK-6.1.0/Rendering/LIC/vtkLineIntegralConvolution2D.h' line='368' column='1'/>
      </data-member>
      <data-member access='protected' layout-offset-in-bits='704'>
        <var-decl name='LIC0Shader' type-id='type-id-101' visibility='default' filepath='/tmp/legendre/spack-stage/spack-stage-R_crTC/VTK-6.1.0/Rendering/LIC/vtkLineIntegralConvolution2D.h' line='369' column='1'/>
      </data-member>
      <data-member access='protected' layout-offset-in-bits='768'>
        <var-decl name='LICIShader' type-id='type-id-101' visibility='default' filepath='/tmp/legendre/spack-stage/spack-stage-R_crTC/VTK-6.1.0/Rendering/LIC/vtkLineIntegralConvolution2D.h' line='370' column='1'/>
      </data-member>
      <data-member access='protected' layout-offset-in-bits='832'>
        <var-decl name='LICNShader' type-id='type-id-101' visibility='default' filepath='/tmp/legendre/spack-stage/spack-stage-R_crTC/VTK-6.1.0/Rendering/LIC/vtkLineIntegralConvolution2D.h' line='371' column='1'/>
      </data-member>
      <data-member access='protected' layout-offset-in-bits='896'>
        <var-decl name='EEShader' type-id='type-id-101' visibility='default' filepath='/tmp/legendre/spack-stage/spack-stage-R_crTC/VTK-6.1.0/Rendering/LIC/vtkLineIntegralConvolution2D.h' line='372' column='1'/>
      </data-member>
      <data-member access='protected' layout-offset-in-bits='960'>
        <var-decl name='CEShader' type-id='type-id-101' visibility='default' filepath='/tmp/legendre/spack-stage/spack-stage-R_crTC/VTK-6.1.0/Rendering/LIC/vtkLineIntegralConvolution2D.h' line='373' column='1'/>
      </data-member>
      <data-member access='protected' layout-offset-in-bits='1024'>
        <var-decl name='AAHShader' type-id='type-id-101' visibility='default' filepath='/tmp/legendre/spack-stage/spack-stage-R_crTC/VTK-6.1.0/Rendering/LIC/vtkLineIntegralConvolution2D.h' line='374' column='1'/>
      </data-member>
      <data-member access='protected' layout-offset-in-bits='1088'>
        <var-decl name='AAVShader' type-id='type-id-101' visibility='default' filepath='/tmp/legendre/spack-stage/spack-stage-R_crTC/VTK-6.1.0/Rendering/LIC/vtkLineIntegralConvolution2D.h' line='375' column='1'/>
      </data-member>
      <data-member access='protected' layout-offset-in-bits='1152'>
        <var-decl name='NumberOfSteps' type-id='type-id-17' visibility='default' filepath='/tmp/legendre/spack-stage/spack-stage-R_crTC/VTK-6.1.0/Rendering/LIC/vtkLineIntegralConvolution2D.h' line='377' column='1'/>
      </data-member>
      <data-member access='protected' layout-offset-in-bits='1216'>
        <var-decl name='StepSize' type-id='type-id-15' visibility='default' filepath='/tmp/legendre/spack-stage/spack-stage-R_crTC/VTK-6.1.0/Rendering/LIC/vtkLineIntegralConvolution2D.h' line='378' column='1'/>
      </data-member>
      <data-member access='protected' layout-offset-in-bits='1280'>
        <var-decl name='EnhancedLIC' type-id='type-id-17' visibility='default' filepath='/tmp/legendre/spack-stage/spack-stage-R_crTC/VTK-6.1.0/Rendering/LIC/vtkLineIntegralConvolution2D.h' line='379' column='1'/>
      </data-member>
      <data-member access='protected' layout-offset-in-bits='1312'>
        <var-decl name='EnhanceContrast' type-id='type-id-17' visibility='default' filepath='/tmp/legendre/spack-stage/spack-stage-R_crTC/VTK-6.1.0/Rendering/LIC/vtkLineIntegralConvolution2D.h' line='380' column='1'/>
      </data-member>
      <data-member access='protected' layout-offset-in-bits='1344'>
        <var-decl name='LowContrastEnhancementFactor' type-id='type-id-15' visibility='default' filepath='/tmp/legendre/spack-stage/spack-stage-R_crTC/VTK-6.1.0/Rendering/LIC/vtkLineIntegralConvolution2D.h' line='381' column='1'/>
      </data-member>
      <data-member access='protected' layout-offset-in-bits='1408'>
        <var-decl name='HighContrastEnhancementFactor' type-id='type-id-15' visibility='default' filepath='/tmp/legendre/spack-stage/spack-stage-R_crTC/VTK-6.1.0/Rendering/LIC/vtkLineIntegralConvolution2D.h' line='382' column='1'/>
      </data-member>
      <data-member access='protected' layout-offset-in-bits='1472'>
        <var-decl name='AntiAlias' type-id='type-id-17' visibility='default' filepath='/tmp/legendre/spack-stage/spack-stage-R_crTC/VTK-6.1.0/Rendering/LIC/vtkLineIntegralConvolution2D.h' line='383' column='1'/>
      </data-member>
      <data-member access='protected' layout-offset-in-bits='1504'>
        <var-decl name='NoiseTextureLookupCompatibilityMode' type-id='type-id-17' visibility='default' filepath='/tmp/legendre/spack-stage/spack-stage-R_crTC/VTK-6.1.0/Rendering/LIC/vtkLineIntegralConvolution2D.h' line='384' column='1'/>
      </data-member>
      <data-member access='protected' layout-offset-in-bits='1536'>
        <var-decl name='MaskThreshold' type-id='type-id-15' visibility='default' filepath='/tmp/legendre/spack-stage/spack-stage-R_crTC/VTK-6.1.0/Rendering/LIC/vtkLineIntegralConvolution2D.h' line='385' column='1'/>
      </data-member>
      <data-member access='protected' layout-offset-in-bits='1600'>
        <var-decl name='TransformVectors' type-id='type-id-17' visibility='default' filepath='/tmp/legendre/spack-stage/spack-stage-R_crTC/VTK-6.1.0/Rendering/LIC/vtkLineIntegralConvolution2D.h' line='386' column='1'/>
      </data-member>
      <data-member access='protected' layout-offset-in-bits='1632'>
        <var-decl name='NormalizeVectors' type-id='type-id-17' visibility='default' filepath='/tmp/legendre/spack-stage/spack-stage-R_crTC/VTK-6.1.0/Rendering/LIC/vtkLineIntegralConvolution2D.h' line='387' column='1'/>
      </data-member>
      <data-member access='protected' layout-offset-in-bits='1664'>
        <var-decl name='ComponentIds' type-id='type-id-338' visibility='default' filepath='/tmp/legendre/spack-stage/spack-stage-R_crTC/VTK-6.1.0/Rendering/LIC/vtkLineIntegralConvolution2D.h' line='388' column='1'/>
      </data-member>
      <data-member access='protected' layout-offset-in-bits='1728'>
        <var-decl name='MaxNoiseValue' type-id='type-id-15' visibility='default' filepath='/tmp/legendre/spack-stage/spack-stage-R_crTC/VTK-6.1.0/Rendering/LIC/vtkLineIntegralConvolution2D.h' line='389' column='1'/>
      </data-member>
      <member-function access='protected' constructor='yes'>
        <function-decl name='vtkLineIntegralConvolution2D' mangled-name='_ZN28vtkLineIntegralConvolution2DC1Ev' filepath='/tmp/legendre/spack-stage/spack-stage-R_crTC/VTK-6.1.0/Rendering/LIC/vtkLineIntegralConvolution2D.cxx' line='959' column='1' visibility='default' binding='global' size-in-bits='64' elf-symbol-id='_ZN28vtkLineIntegralConvolution2DC1Ev'>
          <parameter type-id='type-id-351' is-artificial='yes'/>
          <return type-id='type-id-27'/>
        </function-decl>
      </member-function>
      <member-function access='private' constructor='yes'>
        <function-decl name='vtkLineIntegralConvolution2D' filepath='/tmp/legendre/spack-stage/spack-stage-R_crTC/VTK-6.1.0/Rendering/LIC/vtkLineIntegralConvolution2D.h' line='392' column='1' visibility='default' binding='global' size-in-bits='64'>
          <parameter type-id='type-id-351' is-artificial='yes'/>
          <parameter type-id='type-id-352'/>
          <return type-id='type-id-27'/>
        </function-decl>
      </member-function>
      <member-function access='private'>
        <function-decl name='GetContext' mangled-name='_ZN28vtkLineIntegralConvolution2D10GetContextEv' filepath='/tmp/legendre/spack-stage/spack-stage-R_crTC/VTK-6.1.0/Rendering/LIC/vtkLineIntegralConvolution2D.cxx' line='1024' column='1' visibility='default' binding='global' size-in-bits='64' elf-symbol-id='_ZN28vtkLineIntegralConvolution2D10GetContextEv'>
          <parameter type-id='type-id-353' name='this' is-artificial='yes'/>
          <return type-id='type-id-76'/>
        </function-decl>
      </member-function>
      <member-function access='private'>
        <function-decl name='SetComponentIds' mangled-name='_ZN28vtkLineIntegralConvolution2D15SetComponentIdsEii' filepath='/tmp/legendre/spack-stage/spack-stage-R_crTC/VTK-6.1.0/Rendering/LIC/vtkLineIntegralConvolution2D.cxx' line='1115' column='1' visibility='default' binding='global' size-in-bits='64' elf-symbol-id='_ZN28vtkLineIntegralConvolution2D15SetComponentIdsEii'>
          <parameter type-id='type-id-353' name='this' is-artificial='yes'/>
          <parameter type-id='type-id-17' name='c0' filepath='/tmp/legendre/spack-stage/spack-stage-R_crTC/VTK-6.1.0/Rendering/LIC/vtkLineIntegralConvolution2D.cxx' line='1115' column='1'/>
          <parameter type-id='type-id-17' name='c1' filepath='/tmp/legendre/spack-stage/spack-stage-R_crTC/VTK-6.1.0/Rendering/LIC/vtkLineIntegralConvolution2D.cxx' line='1115' column='1'/>
          <return type-id='type-id-27'/>
        </function-decl>
      </member-function>
      <member-function access='private'>
        <function-decl name='SetTransformVectors' mangled-name='_ZN28vtkLineIntegralConvolution2D19SetTransformVectorsEi' filepath='/tmp/legendre/spack-stage/spack-stage-R_crTC/VTK-6.1.0/Rendering/LIC/vtkLineIntegralConvolution2D.cxx' line='1128' column='1' visibility='default' binding='global' size-in-bits='64' elf-symbol-id='_ZN28vtkLineIntegralConvolution2D19SetTransformVectorsEi'>
          <parameter type-id='type-id-351' is-artificial='yes'/>
          <parameter type-id='type-id-17'/>
          <return type-id='type-id-27'/>
        </function-decl>
      </member-function>
      <member-function access='private'>
        <function-decl name='SetNormalizeVectors' mangled-name='_ZN28vtkLineIntegralConvolution2D19SetNormalizeVectorsEi' filepath='/tmp/legendre/spack-stage/spack-stage-R_crTC/VTK-6.1.0/Rendering/LIC/vtkLineIntegralConvolution2D.cxx' line='1142' column='1' visibility='default' binding='global' size-in-bits='64' elf-symbol-id='_ZN28vtkLineIntegralConvolution2D19SetNormalizeVectorsEi'>
          <parameter type-id='type-id-351' is-artificial='yes'/>
          <parameter type-id='type-id-17'/>
          <return type-id='type-id-27'/>
        </function-decl>
      </member-function>
      <member-function access='protected'>
        <function-decl name='SetVTShader' mangled-name='_ZN28vtkLineIntegralConvolution2D11SetVTShaderEP17vtkShaderProgram2' filepath='/tmp/legendre/spack-stage/spack-stage-R_crTC/VTK-6.1.0/Rendering/LIC/vtkLineIntegralConvolution2D.cxx' line='1156' column='1' visibility='default' binding='global' size-in-bits='64' elf-symbol-id='_ZN28vtkLineIntegralConvolution2D11SetVTShaderEP17vtkShaderProgram2'>
          <parameter type-id='type-id-353' name='this' is-artificial='yes'/>
          <parameter type-id='type-id-101' name='prog' filepath='/tmp/legendre/spack-stage/spack-stage-R_crTC/VTK-6.1.0/Rendering/LIC/vtkLineIntegralConvolution2D.cxx' line='1156' column='1'/>
          <return type-id='type-id-27'/>
        </function-decl>
      </member-function>
      <member-function access='protected'>
        <function-decl name='SetLIC0Shader' mangled-name='_ZN28vtkLineIntegralConvolution2D13SetLIC0ShaderEP17vtkShaderProgram2' filepath='/tmp/legendre/spack-stage/spack-stage-R_crTC/VTK-6.1.0/Rendering/LIC/vtkLineIntegralConvolution2D.cxx' line='1162' column='1' visibility='default' binding='global' size-in-bits='64' elf-symbol-id='_ZN28vtkLineIntegralConvolution2D13SetLIC0ShaderEP17vtkShaderProgram2'>
          <parameter type-id='type-id-353' name='this' is-artificial='yes'/>
          <parameter type-id='type-id-101' name='prog' filepath='/tmp/legendre/spack-stage/spack-stage-R_crTC/VTK-6.1.0/Rendering/LIC/vtkLineIntegralConvolution2D.cxx' line='1156' column='1'/>
          <return type-id='type-id-27'/>
        </function-decl>
      </member-function>
      <member-function access='protected'>
        <function-decl name='SetLICIShader' mangled-name='_ZN28vtkLineIntegralConvolution2D13SetLICIShaderEP17vtkShaderProgram2' filepath='/tmp/legendre/spack-stage/spack-stage-R_crTC/VTK-6.1.0/Rendering/LIC/vtkLineIntegralConvolution2D.cxx' line='1168' column='1' visibility='default' binding='global' size-in-bits='64' elf-symbol-id='_ZN28vtkLineIntegralConvolution2D13SetLICIShaderEP17vtkShaderProgram2'>
          <parameter type-id='type-id-353' name='this' is-artificial='yes'/>
          <parameter type-id='type-id-101' name='prog' filepath='/tmp/legendre/spack-stage/spack-stage-R_crTC/VTK-6.1.0/Rendering/LIC/vtkLineIntegralConvolution2D.cxx' line='1156' column='1'/>
          <return type-id='type-id-27'/>
        </function-decl>
      </member-function>
      <member-function access='protected'>
        <function-decl name='SetLICNShader' mangled-name='_ZN28vtkLineIntegralConvolution2D13SetLICNShaderEP17vtkShaderProgram2' filepath='/tmp/legendre/spack-stage/spack-stage-R_crTC/VTK-6.1.0/Rendering/LIC/vtkLineIntegralConvolution2D.cxx' line='1174' column='1' visibility='default' binding='global' size-in-bits='64' elf-symbol-id='_ZN28vtkLineIntegralConvolution2D13SetLICNShaderEP17vtkShaderProgram2'>
          <parameter type-id='type-id-353' name='this' is-artificial='yes'/>
          <parameter type-id='type-id-101' name='prog' filepath='/tmp/legendre/spack-stage/spack-stage-R_crTC/VTK-6.1.0/Rendering/LIC/vtkLineIntegralConvolution2D.cxx' line='1156' column='1'/>
          <return type-id='type-id-27'/>
        </function-decl>
      </member-function>
      <member-function access='protected'>
        <function-decl name='SetEEShader' mangled-name='_ZN28vtkLineIntegralConvolution2D11SetEEShaderEP17vtkShaderProgram2' filepath='/tmp/legendre/spack-stage/spack-stage-R_crTC/VTK-6.1.0/Rendering/LIC/vtkLineIntegralConvolution2D.cxx' line='1180' column='1' visibility='default' binding='global' size-in-bits='64' elf-symbol-id='_ZN28vtkLineIntegralConvolution2D11SetEEShaderEP17vtkShaderProgram2'>
          <parameter type-id='type-id-353' name='this' is-artificial='yes'/>
          <parameter type-id='type-id-101' name='prog' filepath='/tmp/legendre/spack-stage/spack-stage-R_crTC/VTK-6.1.0/Rendering/LIC/vtkLineIntegralConvolution2D.cxx' line='1156' column='1'/>
          <return type-id='type-id-27'/>
        </function-decl>
      </member-function>
      <member-function access='protected'>
        <function-decl name='SetCEShader' mangled-name='_ZN28vtkLineIntegralConvolution2D11SetCEShaderEP17vtkShaderProgram2' filepath='/tmp/legendre/spack-stage/spack-stage-R_crTC/VTK-6.1.0/Rendering/LIC/vtkLineIntegralConvolution2D.cxx' line='1185' column='1' visibility='default' binding='global' size-in-bits='64' elf-symbol-id='_ZN28vtkLineIntegralConvolution2D11SetCEShaderEP17vtkShaderProgram2'>
          <parameter type-id='type-id-353' name='this' is-artificial='yes'/>
          <parameter type-id='type-id-101' name='prog' filepath='/tmp/legendre/spack-stage/spack-stage-R_crTC/VTK-6.1.0/Rendering/LIC/vtkLineIntegralConvolution2D.cxx' line='1156' column='1'/>
          <return type-id='type-id-27'/>
        </function-decl>
      </member-function>
      <member-function access='protected'>
        <function-decl name='SetAAHShader' mangled-name='_ZN28vtkLineIntegralConvolution2D12SetAAHShaderEP17vtkShaderProgram2' filepath='/tmp/legendre/spack-stage/spack-stage-R_crTC/VTK-6.1.0/Rendering/LIC/vtkLineIntegralConvolution2D.cxx' line='1191' column='1' visibility='default' binding='global' size-in-bits='64' elf-symbol-id='_ZN28vtkLineIntegralConvolution2D12SetAAHShaderEP17vtkShaderProgram2'>
          <parameter type-id='type-id-353' name='this' is-artificial='yes'/>
          <parameter type-id='type-id-101' name='prog' filepath='/tmp/legendre/spack-stage/spack-stage-R_crTC/VTK-6.1.0/Rendering/LIC/vtkLineIntegralConvolution2D.cxx' line='1156' column='1'/>
          <return type-id='type-id-27'/>
        </function-decl>
      </member-function>
      <member-function access='protected'>
        <function-decl name='SetAAVShader' mangled-name='_ZN28vtkLineIntegralConvolution2D12SetAAVShaderEP17vtkShaderProgram2' filepath='/tmp/legendre/spack-stage/spack-stage-R_crTC/VTK-6.1.0/Rendering/LIC/vtkLineIntegralConvolution2D.cxx' line='1197' column='1' visibility='default' binding='global' size-in-bits='64' elf-symbol-id='_ZN28vtkLineIntegralConvolution2D12SetAAVShaderEP17vtkShaderProgram2'>
          <parameter type-id='type-id-353' name='this' is-artificial='yes'/>
          <parameter type-id='type-id-101' name='prog' filepath='/tmp/legendre/spack-stage/spack-stage-R_crTC/VTK-6.1.0/Rendering/LIC/vtkLineIntegralConvolution2D.cxx' line='1156' column='1'/>
          <return type-id='type-id-27'/>
        </function-decl>
      </member-function>
      <member-function access='private' static='yes'>
        <function-decl name='SetVectorTexParameters' mangled-name='_ZN28vtkLineIntegralConvolution2D22SetVectorTexParametersEP16vtkTextureObject' filepath='/tmp/legendre/spack-stage/spack-stage-R_crTC/VTK-6.1.0/Rendering/LIC/vtkLineIntegralConvolution2D.cxx' line='1099' column='1' visibility='default' binding='global' size-in-bits='64' elf-symbol-id='_ZN28vtkLineIntegralConvolution2D22SetVectorTexParametersEP16vtkTextureObject'>
          <parameter type-id='type-id-354'/>
          <return type-id='type-id-27'/>
        </function-decl>
      </member-function>
      <member-function access='private' static='yes'>
        <function-decl name='SetNoiseTexParameters' mangled-name='_ZN28vtkLineIntegralConvolution2D21SetNoiseTexParametersEP16vtkTextureObject' filepath='/tmp/legendre/spack-stage/spack-stage-R_crTC/VTK-6.1.0/Rendering/LIC/vtkLineIntegralConvolution2D.cxx' line='1084' column='1' visibility='default' binding='global' size-in-bits='64' elf-symbol-id='_ZN28vtkLineIntegralConvolution2D21SetNoiseTexParametersEP16vtkTextureObject'>
          <parameter type-id='type-id-354'/>
          <return type-id='type-id-27'/>
        </function-decl>
      </member-function>
      <member-function access='private' static='yes'>
        <function-decl name='IsSupported' mangled-name='_ZN28vtkLineIntegralConvolution2D11IsSupportedEP15vtkRenderWindow' filepath='/tmp/legendre/spack-stage/spack-stage-R_crTC/VTK-6.1.0/Rendering/LIC/vtkLineIntegralConvolution2D.cxx' line='1049' column='1' visibility='default' binding='global' size-in-bits='64' elf-symbol-id='_ZN28vtkLineIntegralConvolution2D11IsSupportedEP15vtkRenderWindow'>
          <parameter type-id='type-id-76'/>
          <return type-id='type-id-1'/>
        </function-decl>
      </member-function>
      <member-function access='private'>
        <function-decl name='SetContext' mangled-name='_ZN28vtkLineIntegralConvolution2D10SetContextEP15vtkRenderWindow' filepath='/tmp/legendre/spack-stage/spack-stage-R_crTC/VTK-6.1.0/Rendering/LIC/vtkLineIntegralConvolution2D.cxx' line='1030' column='1' visibility='default' binding='global' size-in-bits='64' elf-symbol-id='_ZN28vtkLineIntegralConvolution2D10SetContextEP15vtkRenderWindow'>
          <parameter type-id='type-id-353' name='this' is-artificial='yes'/>
          <parameter type-id='type-id-76' name='renWin' filepath='/tmp/legendre/spack-stage/spack-stage-R_crTC/VTK-6.1.0/Rendering/LIC/vtkLineIntegralConvolution2D.cxx' line='1030' column='1'/>
          <return type-id='type-id-27'/>
        </function-decl>
      </member-function>
      <member-function access='private' static='yes'>
        <function-decl name='New' mangled-name='_ZN28vtkLineIntegralConvolution2D3NewEv' filepath='/tmp/legendre/spack-stage/spack-stage-R_crTC/VTK-6.1.0/Rendering/LIC/vtkLineIntegralConvolution2D.cxx' line='956' column='1' visibility='default' binding='global' size-in-bits='64' elf-symbol-id='_ZN28vtkLineIntegralConvolution2D3NewEv'>
          <return type-id='type-id-351'/>
        </function-decl>
      </member-function>
      <member-function access='protected'>
        <function-decl name='BuildShaders' mangled-name='_ZN28vtkLineIntegralConvolution2D12BuildShadersEv' filepath='/tmp/legendre/spack-stage/spack-stage-R_crTC/VTK-6.1.0/Rendering/LIC/vtkLineIntegralConvolution2D.cxx' line='1203' column='1' visibility='default' binding='global' size-in-bits='64' elf-symbol-id='_ZN28vtkLineIntegralConvolution2D12BuildShadersEv'>
          <parameter type-id='type-id-351' is-artificial='yes'/>
          <return type-id='type-id-27'/>
        </function-decl>
      </member-function>
      <member-function access='private'>
        <function-decl name='Execute' mangled-name='_ZN28vtkLineIntegralConvolution2D7ExecuteERK14vtkPixelExtentRKSt5dequeIS0_SaIS0_EES7_P16vtkTextureObjectS9_S9_' filepath='/tmp/legendre/spack-stage/spack-stage-R_crTC/VTK-6.1.0/Rendering/LIC/vtkLineIntegralConvolution2D.cxx' line='1453' column='1' visibility='default' binding='global' size-in-bits='64' elf-symbol-id='_ZN28vtkLineIntegralConvolution2D7ExecuteERK14vtkPixelExtentRKSt5dequeIS0_SaIS0_EES7_P16vtkTextureObjectS9_S9_'>
          <parameter type-id='type-id-353' name='this' is-artificial='yes'/>
          <parameter type-id='type-id-111' name='inputTexExtent' filepath='/tmp/legendre/spack-stage/spack-stage-R_crTC/VTK-6.1.0/Rendering/LIC/vtkLineIntegralConvolution2D.cxx' line='1454' column='1'/>
          <parameter type-id='type-id-309' name='vectorExtents' filepath='/tmp/legendre/spack-stage/spack-stage-R_crTC/VTK-6.1.0/Rendering/LIC/vtkLineIntegralConvolution2D.cxx' line='1455' column='1'/>
          <parameter type-id='type-id-309' name='licExtents' filepath='/tmp/legendre/spack-stage/spack-stage-R_crTC/VTK-6.1.0/Rendering/LIC/vtkLineIntegralConvolution2D.cxx' line='1456' column='1'/>
          <parameter type-id='type-id-354' name='vectorTex' filepath='/tmp/legendre/spack-stage/spack-stage-R_crTC/VTK-6.1.0/Rendering/LIC/vtkLineIntegralConvolution2D.cxx' line='1457' column='1'/>
          <parameter type-id='type-id-354' name='maskVectorTex' filepath='/tmp/legendre/spack-stage/spack-stage-R_crTC/VTK-6.1.0/Rendering/LIC/vtkLineIntegralConvolution2D.cxx' line='1458' column='1'/>
          <parameter type-id='type-id-354' name='noiseTex' filepath='/tmp/legendre/spack-stage/spack-stage-R_crTC/VTK-6.1.0/Rendering/LIC/vtkLineIntegralConvolution2D.cxx' line='1459' column='1'/>
          <return type-id='type-id-354'/>
        </function-decl>
      </member-function>
      <member-function access='private'>
        <function-decl name='Execute' mangled-name='_ZN28vtkLineIntegralConvolution2D7ExecuteEPKiP16vtkTextureObjectS3_' filepath='/tmp/legendre/spack-stage/spack-stage-R_crTC/VTK-6.1.0/Rendering/LIC/vtkLineIntegralConvolution2D.cxx' line='1417' column='1' visibility='default' binding='global' size-in-bits='64' elf-symbol-id='_ZN28vtkLineIntegralConvolution2D7ExecuteEPKiP16vtkTextureObjectS3_'>
          <parameter type-id='type-id-353' name='this' is-artificial='yes'/>
          <parameter type-id='type-id-51' name='ext' filepath='/tmp/legendre/spack-stage/spack-stage-R_crTC/VTK-6.1.0/Rendering/LIC/vtkLineIntegralConvolution2D.cxx' line='1418' column='1'/>
          <parameter type-id='type-id-354' name='vectorTex' filepath='/tmp/legendre/spack-stage/spack-stage-R_crTC/VTK-6.1.0/Rendering/LIC/vtkLineIntegralConvolution2D.cxx' line='1419' column='1'/>
          <parameter type-id='type-id-354' name='noiseTex' filepath='/tmp/legendre/spack-stage/spack-stage-R_crTC/VTK-6.1.0/Rendering/LIC/vtkLineIntegralConvolution2D.cxx' line='1420' column='1'/>
          <return type-id='type-id-354'/>
        </function-decl>
      </member-function>
      <member-function access='private'>
        <function-decl name='Execute' mangled-name='_ZN28vtkLineIntegralConvolution2D7ExecuteEP16vtkTextureObjectS1_' filepath='/tmp/legendre/spack-stage/spack-stage-R_crTC/VTK-6.1.0/Rendering/LIC/vtkLineIntegralConvolution2D.cxx' line='1399' column='1' visibility='default' binding='global' size-in-bits='64' elf-symbol-id='_ZN28vtkLineIntegralConvolution2D7ExecuteEP16vtkTextureObjectS1_'>
          <parameter type-id='type-id-353' name='this' is-artificial='yes'/>
          <parameter type-id='type-id-354' name='vectorTex' filepath='/tmp/legendre/spack-stage/spack-stage-R_crTC/VTK-6.1.0/Rendering/LIC/vtkLineIntegralConvolution2D.cxx' line='1400' column='1'/>
          <parameter type-id='type-id-354' name='noiseTex' filepath='/tmp/legendre/spack-stage/spack-stage-R_crTC/VTK-6.1.0/Rendering/LIC/vtkLineIntegralConvolution2D.cxx' line='1401' column='1'/>
          <return type-id='type-id-354'/>
        </function-decl>
      </member-function>
      <member-function access='protected' destructor='yes' vtable-offset='-1'>
        <function-decl name='~vtkLineIntegralConvolution2D' mangled-name='_ZN28vtkLineIntegralConvolution2DD1Ev' filepath='/tmp/legendre/spack-stage/spack-stage-R_crTC/VTK-6.1.0/Rendering/LIC/vtkLineIntegralConvolution2D.cxx' line='994' column='1' visibility='default' binding='global' size-in-bits='64' elf-symbol-id='_ZN28vtkLineIntegralConvolution2DD1Ev'>
          <parameter type-id='type-id-351' is-artificial='yes'/>
          <parameter type-id='type-id-17'/>
          <return type-id='type-id-27'/>
        </function-decl>
      </member-function>
      <member-function access='private' vtable-offset='0'>
        <function-decl name='GetClassNameInternal' mangled-name='_ZNK28vtkLineIntegralConvolution2D20GetClassNameInternalEv' filepath='/tmp/legendre/spack-stage/spack-stage-R_crTC/VTK-6.1.0/Rendering/LIC/vtkLineIntegralConvolution2D.h' line='108' column='1' visibility='default' binding='global' size-in-bits='64'>
          <parameter type-id='type-id-355' is-artificial='yes'/>
          <return type-id='type-id-68'/>
        </function-decl>
      </member-function>
      <member-function access='private' vtable-offset='1'>
        <function-decl name='IsA' mangled-name='_ZN28vtkLineIntegralConvolution2D3IsAEPKc' filepath='/tmp/legendre/spack-stage/spack-stage-R_crTC/VTK-6.1.0/Rendering/LIC/vtkLineIntegralConvolution2D.h' line='108' column='1' visibility='default' binding='global' size-in-bits='64'>
          <parameter type-id='type-id-351' is-artificial='yes'/>
          <parameter type-id='type-id-68'/>
          <return type-id='type-id-17'/>
        </function-decl>
      </member-function>
      <member-function access='private' vtable-offset='4'>
        <function-decl name='PrintSelf' mangled-name='_ZN28vtkLineIntegralConvolution2D9PrintSelfERSo9vtkIndent' filepath='/tmp/legendre/spack-stage/spack-stage-R_crTC/VTK-6.1.0/Rendering/LIC/vtkLineIntegralConvolution2D.cxx' line='2129' column='1' visibility='default' binding='global' size-in-bits='64' elf-symbol-id='_ZN28vtkLineIntegralConvolution2D9PrintSelfERSo9vtkIndent'>
          <parameter type-id='type-id-351' is-artificial='yes'/>
          <parameter type-id='type-id-69'/>
          <parameter type-id='type-id-70'/>
          <return type-id='type-id-27'/>
        </function-decl>
      </member-function>
      <member-function access='protected' vtable-offset='15'>
        <function-decl name='NewInstanceInternal' mangled-name='_ZNK28vtkLineIntegralConvolution2D19NewInstanceInternalEv' filepath='/tmp/legendre/spack-stage/spack-stage-R_crTC/VTK-6.1.0/Rendering/LIC/vtkLineIntegralConvolution2D.h' line='108' column='1' visibility='default' binding='global' size-in-bits='64'>
          <parameter type-id='type-id-355' is-artificial='yes'/>
          <return type-id='type-id-71'/>
        </function-decl>
      </member-function>
      <member-function access='private' vtable-offset='20'>
        <function-decl name='SetEnhancedLIC' mangled-name='_ZN28vtkLineIntegralConvolution2D14SetEnhancedLICEi' filepath='/tmp/legendre/spack-stage/spack-stage-R_crTC/VTK-6.1.0/Rendering/LIC/vtkLineIntegralConvolution2D.h' line='125' column='1' visibility='default' binding='global' size-in-bits='64'>
          <parameter type-id='type-id-351' is-artificial='yes'/>
          <parameter type-id='type-id-17'/>
          <return type-id='type-id-27'/>
        </function-decl>
      </member-function>
      <member-function access='private' vtable-offset='21'>
        <function-decl name='GetEnhancedLICMinValue' mangled-name='_ZN28vtkLineIntegralConvolution2D22GetEnhancedLICMinValueEv' filepath='/tmp/legendre/spack-stage/spack-stage-R_crTC/VTK-6.1.0/Rendering/LIC/vtkLineIntegralConvolution2D.h' line='125' column='1' visibility='default' binding='global' size-in-bits='64'>
          <parameter type-id='type-id-351' is-artificial='yes'/>
          <return type-id='type-id-17'/>
        </function-decl>
      </member-function>
      <member-function access='private' vtable-offset='22'>
        <function-decl name='GetEnhancedLICMaxValue' mangled-name='_ZN28vtkLineIntegralConvolution2D22GetEnhancedLICMaxValueEv' filepath='/tmp/legendre/spack-stage/spack-stage-R_crTC/VTK-6.1.0/Rendering/LIC/vtkLineIntegralConvolution2D.h' line='125' column='1' visibility='default' binding='global' size-in-bits='64'>
          <parameter type-id='type-id-351' is-artificial='yes'/>
          <return type-id='type-id-17'/>
        </function-decl>
      </member-function>
      <member-function access='private' vtable-offset='23'>
        <function-decl name='GetEnhancedLIC' mangled-name='_ZN28vtkLineIntegralConvolution2D14GetEnhancedLICEv' filepath='/tmp/legendre/spack-stage/spack-stage-R_crTC/VTK-6.1.0/Rendering/LIC/vtkLineIntegralConvolution2D.h' line='126' column='1' visibility='default' binding='global' size-in-bits='64'>
          <parameter type-id='type-id-351' is-artificial='yes'/>
          <return type-id='type-id-17'/>
        </function-decl>
      </member-function>
      <member-function access='private' vtable-offset='24'>
        <function-decl name='EnhancedLICOn' mangled-name='_ZN28vtkLineIntegralConvolution2D13EnhancedLICOnEv' filepath='/tmp/legendre/spack-stage/spack-stage-R_crTC/VTK-6.1.0/Rendering/LIC/vtkLineIntegralConvolution2D.h' line='127' column='1' visibility='default' binding='global' size-in-bits='64'>
          <parameter type-id='type-id-351' is-artificial='yes'/>
          <return type-id='type-id-27'/>
        </function-decl>
      </member-function>
      <member-function access='private' vtable-offset='25'>
        <function-decl name='EnhancedLICOff' mangled-name='_ZN28vtkLineIntegralConvolution2D14EnhancedLICOffEv' filepath='/tmp/legendre/spack-stage/spack-stage-R_crTC/VTK-6.1.0/Rendering/LIC/vtkLineIntegralConvolution2D.h' line='127' column='1' visibility='default' binding='global' size-in-bits='64'>
          <parameter type-id='type-id-351' is-artificial='yes'/>
          <return type-id='type-id-27'/>
        </function-decl>
      </member-function>
      <member-function access='private' vtable-offset='26'>
        <function-decl name='SetEnhanceContrast' mangled-name='_ZN28vtkLineIntegralConvolution2D18SetEnhanceContrastEi' filepath='/tmp/legendre/spack-stage/spack-stage-R_crTC/VTK-6.1.0/Rendering/LIC/vtkLineIntegralConvolution2D.h' line='152' column='1' visibility='default' binding='global' size-in-bits='64'>
          <parameter type-id='type-id-351' is-artificial='yes'/>
          <parameter type-id='type-id-17'/>
          <return type-id='type-id-27'/>
        </function-decl>
      </member-function>
      <member-function access='private' vtable-offset='27'>
        <function-decl name='GetEnhanceContrastMinValue' mangled-name='_ZN28vtkLineIntegralConvolution2D26GetEnhanceContrastMinValueEv' filepath='/tmp/legendre/spack-stage/spack-stage-R_crTC/VTK-6.1.0/Rendering/LIC/vtkLineIntegralConvolution2D.h' line='152' column='1' visibility='default' binding='global' size-in-bits='64'>
          <parameter type-id='type-id-351' is-artificial='yes'/>
          <return type-id='type-id-17'/>
        </function-decl>
      </member-function>
      <member-function access='private' vtable-offset='28'>
        <function-decl name='GetEnhanceContrastMaxValue' mangled-name='_ZN28vtkLineIntegralConvolution2D26GetEnhanceContrastMaxValueEv' filepath='/tmp/legendre/spack-stage/spack-stage-R_crTC/VTK-6.1.0/Rendering/LIC/vtkLineIntegralConvolution2D.h' line='152' column='1' visibility='default' binding='global' size-in-bits='64'>
          <parameter type-id='type-id-351' is-artificial='yes'/>
          <return type-id='type-id-17'/>
        </function-decl>
      </member-function>
      <member-function access='private' vtable-offset='29'>
        <function-decl name='GetEnhanceContrast' mangled-name='_ZN28vtkLineIntegralConvolution2D18GetEnhanceContrastEv' filepath='/tmp/legendre/spack-stage/spack-stage-R_crTC/VTK-6.1.0/Rendering/LIC/vtkLineIntegralConvolution2D.h' line='153' column='1' visibility='default' binding='global' size-in-bits='64'>
          <parameter type-id='type-id-351' is-artificial='yes'/>
          <return type-id='type-id-17'/>
        </function-decl>
      </member-function>
      <member-function access='private' vtable-offset='30'>
        <function-decl name='EnhanceContrastOn' mangled-name='_ZN28vtkLineIntegralConvolution2D17EnhanceContrastOnEv' filepath='/tmp/legendre/spack-stage/spack-stage-R_crTC/VTK-6.1.0/Rendering/LIC/vtkLineIntegralConvolution2D.h' line='154' column='1' visibility='default' binding='global' size-in-bits='64'>
          <parameter type-id='type-id-351' is-artificial='yes'/>
          <return type-id='type-id-27'/>
        </function-decl>
      </member-function>
      <member-function access='private' vtable-offset='31'>
        <function-decl name='EnhanceContrastOff' mangled-name='_ZN28vtkLineIntegralConvolution2D18EnhanceContrastOffEv' filepath='/tmp/legendre/spack-stage/spack-stage-R_crTC/VTK-6.1.0/Rendering/LIC/vtkLineIntegralConvolution2D.h' line='154' column='1' visibility='default' binding='global' size-in-bits='64'>
          <parameter type-id='type-id-351' is-artificial='yes'/>
          <return type-id='type-id-27'/>
        </function-decl>
      </member-function>
      <member-function access='private' vtable-offset='32'>
        <function-decl name='SetLowContrastEnhancementFactor' mangled-name='_ZN28vtkLineIntegralConvolution2D31SetLowContrastEnhancementFactorEd' filepath='/tmp/legendre/spack-stage/spack-stage-R_crTC/VTK-6.1.0/Rendering/LIC/vtkLineIntegralConvolution2D.h' line='172' column='1' visibility='default' binding='global' size-in-bits='64'>
          <parameter type-id='type-id-351' is-artificial='yes'/>
          <parameter type-id='type-id-15'/>
          <return type-id='type-id-27'/>
        </function-decl>
      </member-function>
      <member-function access='private' vtable-offset='33'>
        <function-decl name='GetLowContrastEnhancementFactorMinValue' mangled-name='_ZN28vtkLineIntegralConvolution2D39GetLowContrastEnhancementFactorMinValueEv' filepath='/tmp/legendre/spack-stage/spack-stage-R_crTC/VTK-6.1.0/Rendering/LIC/vtkLineIntegralConvolution2D.h' line='172' column='1' visibility='default' binding='global' size-in-bits='64'>
          <parameter type-id='type-id-351' is-artificial='yes'/>
          <return type-id='type-id-15'/>
        </function-decl>
      </member-function>
      <member-function access='private' vtable-offset='34'>
        <function-decl name='GetLowContrastEnhancementFactorMaxValue' mangled-name='_ZN28vtkLineIntegralConvolution2D39GetLowContrastEnhancementFactorMaxValueEv' filepath='/tmp/legendre/spack-stage/spack-stage-R_crTC/VTK-6.1.0/Rendering/LIC/vtkLineIntegralConvolution2D.h' line='172' column='1' visibility='default' binding='global' size-in-bits='64'>
          <parameter type-id='type-id-351' is-artificial='yes'/>
          <return type-id='type-id-15'/>
        </function-decl>
      </member-function>
      <member-function access='private' vtable-offset='35'>
        <function-decl name='GetLowContrastEnhancementFactor' mangled-name='_ZN28vtkLineIntegralConvolution2D31GetLowContrastEnhancementFactorEv' filepath='/tmp/legendre/spack-stage/spack-stage-R_crTC/VTK-6.1.0/Rendering/LIC/vtkLineIntegralConvolution2D.h' line='173' column='1' visibility='default' binding='global' size-in-bits='64'>
          <parameter type-id='type-id-351' is-artificial='yes'/>
          <return type-id='type-id-15'/>
        </function-decl>
      </member-function>
      <member-function access='private' vtable-offset='36'>
        <function-decl name='SetHighContrastEnhancementFactor' mangled-name='_ZN28vtkLineIntegralConvolution2D32SetHighContrastEnhancementFactorEd' filepath='/tmp/legendre/spack-stage/spack-stage-R_crTC/VTK-6.1.0/Rendering/LIC/vtkLineIntegralConvolution2D.h' line='174' column='1' visibility='default' binding='global' size-in-bits='64'>
          <parameter type-id='type-id-351' is-artificial='yes'/>
          <parameter type-id='type-id-15'/>
          <return type-id='type-id-27'/>
        </function-decl>
      </member-function>
      <member-function access='private' vtable-offset='37'>
        <function-decl name='GetHighContrastEnhancementFactorMinValue' mangled-name='_ZN28vtkLineIntegralConvolution2D40GetHighContrastEnhancementFactorMinValueEv' filepath='/tmp/legendre/spack-stage/spack-stage-R_crTC/VTK-6.1.0/Rendering/LIC/vtkLineIntegralConvolution2D.h' line='174' column='1' visibility='default' binding='global' size-in-bits='64'>
          <parameter type-id='type-id-351' is-artificial='yes'/>
          <return type-id='type-id-15'/>
        </function-decl>
      </member-function>
      <member-function access='private' vtable-offset='38'>
        <function-decl name='GetHighContrastEnhancementFactorMaxValue' mangled-name='_ZN28vtkLineIntegralConvolution2D40GetHighContrastEnhancementFactorMaxValueEv' filepath='/tmp/legendre/spack-stage/spack-stage-R_crTC/VTK-6.1.0/Rendering/LIC/vtkLineIntegralConvolution2D.h' line='174' column='1' visibility='default' binding='global' size-in-bits='64'>
          <parameter type-id='type-id-351' is-artificial='yes'/>
          <return type-id='type-id-15'/>
        </function-decl>
      </member-function>
      <member-function access='private' vtable-offset='39'>
        <function-decl name='GetHighContrastEnhancementFactor' mangled-name='_ZN28vtkLineIntegralConvolution2D32GetHighContrastEnhancementFactorEv' filepath='/tmp/legendre/spack-stage/spack-stage-R_crTC/VTK-6.1.0/Rendering/LIC/vtkLineIntegralConvolution2D.h' line='175' column='1' visibility='default' binding='global' size-in-bits='64'>
          <parameter type-id='type-id-351' is-artificial='yes'/>
          <return type-id='type-id-15'/>
        </function-decl>
      </member-function>
      <member-function access='private' vtable-offset='40'>
        <function-decl name='SetAntiAlias' mangled-name='_ZN28vtkLineIntegralConvolution2D12SetAntiAliasEi' filepath='/tmp/legendre/spack-stage/spack-stage-R_crTC/VTK-6.1.0/Rendering/LIC/vtkLineIntegralConvolution2D.h' line='182' column='1' visibility='default' binding='global' size-in-bits='64'>
          <parameter type-id='type-id-351' is-artificial='yes'/>
          <parameter type-id='type-id-17'/>
          <return type-id='type-id-27'/>
        </function-decl>
      </member-function>
      <member-function access='private' vtable-offset='41'>
        <function-decl name='GetAntiAliasMinValue' mangled-name='_ZN28vtkLineIntegralConvolution2D20GetAntiAliasMinValueEv' filepath='/tmp/legendre/spack-stage/spack-stage-R_crTC/VTK-6.1.0/Rendering/LIC/vtkLineIntegralConvolution2D.h' line='182' column='1' visibility='default' binding='global' size-in-bits='64'>
          <parameter type-id='type-id-351' is-artificial='yes'/>
          <return type-id='type-id-17'/>
        </function-decl>
      </member-function>
      <member-function access='private' vtable-offset='42'>
        <function-decl name='GetAntiAliasMaxValue' mangled-name='_ZN28vtkLineIntegralConvolution2D20GetAntiAliasMaxValueEv' filepath='/tmp/legendre/spack-stage/spack-stage-R_crTC/VTK-6.1.0/Rendering/LIC/vtkLineIntegralConvolution2D.h' line='182' column='1' visibility='default' binding='global' size-in-bits='64'>
          <parameter type-id='type-id-351' is-artificial='yes'/>
          <return type-id='type-id-17'/>
        </function-decl>
      </member-function>
      <member-function access='private' vtable-offset='43'>
        <function-decl name='GetAntiAlias' mangled-name='_ZN28vtkLineIntegralConvolution2D12GetAntiAliasEv' filepath='/tmp/legendre/spack-stage/spack-stage-R_crTC/VTK-6.1.0/Rendering/LIC/vtkLineIntegralConvolution2D.h' line='183' column='1' visibility='default' binding='global' size-in-bits='64'>
          <parameter type-id='type-id-351' is-artificial='yes'/>
          <return type-id='type-id-17'/>
        </function-decl>
      </member-function>
      <member-function access='private' vtable-offset='44'>
        <function-decl name='AntiAliasOn' mangled-name='_ZN28vtkLineIntegralConvolution2D11AntiAliasOnEv' filepath='/tmp/legendre/spack-stage/spack-stage-R_crTC/VTK-6.1.0/Rendering/LIC/vtkLineIntegralConvolution2D.h' line='184' column='1' visibility='default' binding='global' size-in-bits='64'>
          <parameter type-id='type-id-351' is-artificial='yes'/>
          <return type-id='type-id-27'/>
        </function-decl>
      </member-function>
      <member-function access='private' vtable-offset='45'>
        <function-decl name='AntiAliasOff' mangled-name='_ZN28vtkLineIntegralConvolution2D12AntiAliasOffEv' filepath='/tmp/legendre/spack-stage/spack-stage-R_crTC/VTK-6.1.0/Rendering/LIC/vtkLineIntegralConvolution2D.h' line='184' column='1' visibility='default' binding='global' size-in-bits='64'>
          <parameter type-id='type-id-351' is-artificial='yes'/>
          <return type-id='type-id-27'/>
        </function-decl>
      </member-function>
      <member-function access='private' vtable-offset='46'>
        <function-decl name='SetNumberOfSteps' mangled-name='_ZN28vtkLineIntegralConvolution2D16SetNumberOfStepsEi' filepath='/tmp/legendre/spack-stage/spack-stage-R_crTC/VTK-6.1.0/Rendering/LIC/vtkLineIntegralConvolution2D.h' line='189' column='1' visibility='default' binding='global' size-in-bits='64'>
          <parameter type-id='type-id-351' is-artificial='yes'/>
          <parameter type-id='type-id-17'/>
          <return type-id='type-id-27'/>
        </function-decl>
      </member-function>
      <member-function access='private' vtable-offset='47'>
        <function-decl name='GetNumberOfStepsMinValue' mangled-name='_ZN28vtkLineIntegralConvolution2D24GetNumberOfStepsMinValueEv' filepath='/tmp/legendre/spack-stage/spack-stage-R_crTC/VTK-6.1.0/Rendering/LIC/vtkLineIntegralConvolution2D.h' line='189' column='1' visibility='default' binding='global' size-in-bits='64'>
          <parameter type-id='type-id-351' is-artificial='yes'/>
          <return type-id='type-id-17'/>
        </function-decl>
      </member-function>
      <member-function access='private' vtable-offset='48'>
        <function-decl name='GetNumberOfStepsMaxValue' mangled-name='_ZN28vtkLineIntegralConvolution2D24GetNumberOfStepsMaxValueEv' filepath='/tmp/legendre/spack-stage/spack-stage-R_crTC/VTK-6.1.0/Rendering/LIC/vtkLineIntegralConvolution2D.h' line='189' column='1' visibility='default' binding='global' size-in-bits='64'>
          <parameter type-id='type-id-351' is-artificial='yes'/>
          <return type-id='type-id-17'/>
        </function-decl>
      </member-function>
      <member-function access='private' vtable-offset='49'>
        <function-decl name='GetNumberOfSteps' mangled-name='_ZN28vtkLineIntegralConvolution2D16GetNumberOfStepsEv' filepath='/tmp/legendre/spack-stage/spack-stage-R_crTC/VTK-6.1.0/Rendering/LIC/vtkLineIntegralConvolution2D.h' line='190' column='1' visibility='default' binding='global' size-in-bits='64'>
          <parameter type-id='type-id-351' is-artificial='yes'/>
          <return type-id='type-id-17'/>
        </function-decl>
      </member-function>
      <member-function access='private' vtable-offset='50'>
        <function-decl name='SetStepSize' mangled-name='_ZN28vtkLineIntegralConvolution2D11SetStepSizeEd' filepath='/tmp/legendre/spack-stage/spack-stage-R_crTC/VTK-6.1.0/Rendering/LIC/vtkLineIntegralConvolution2D.h' line='198' column='1' visibility='default' binding='global' size-in-bits='64'>
          <parameter type-id='type-id-351' is-artificial='yes'/>
          <parameter type-id='type-id-15'/>
          <return type-id='type-id-27'/>
        </function-decl>
      </member-function>
      <member-function access='private' vtable-offset='51'>
        <function-decl name='GetStepSizeMinValue' mangled-name='_ZN28vtkLineIntegralConvolution2D19GetStepSizeMinValueEv' filepath='/tmp/legendre/spack-stage/spack-stage-R_crTC/VTK-6.1.0/Rendering/LIC/vtkLineIntegralConvolution2D.h' line='198' column='1' visibility='default' binding='global' size-in-bits='64'>
          <parameter type-id='type-id-351' is-artificial='yes'/>
          <return type-id='type-id-15'/>
        </function-decl>
      </member-function>
      <member-function access='private' vtable-offset='52'>
        <function-decl name='GetStepSizeMaxValue' mangled-name='_ZN28vtkLineIntegralConvolution2D19GetStepSizeMaxValueEv' filepath='/tmp/legendre/spack-stage/spack-stage-R_crTC/VTK-6.1.0/Rendering/LIC/vtkLineIntegralConvolution2D.h' line='198' column='1' visibility='default' binding='global' size-in-bits='64'>
          <parameter type-id='type-id-351' is-artificial='yes'/>
          <return type-id='type-id-15'/>
        </function-decl>
      </member-function>
      <member-function access='private' vtable-offset='53'>
        <function-decl name='GetStepSize' mangled-name='_ZN28vtkLineIntegralConvolution2D11GetStepSizeEv' filepath='/tmp/legendre/spack-stage/spack-stage-R_crTC/VTK-6.1.0/Rendering/LIC/vtkLineIntegralConvolution2D.h' line='199' column='1' visibility='default' binding='global' size-in-bits='64'>
          <parameter type-id='type-id-351' is-artificial='yes'/>
          <return type-id='type-id-15'/>
        </function-decl>
      </member-function>
      <member-function access='private' vtable-offset='54'>
        <function-decl name='GetComponentIds' mangled-name='_ZN28vtkLineIntegralConvolution2D15GetComponentIdsEv' filepath='/tmp/legendre/spack-stage/spack-stage-R_crTC/VTK-6.1.0/Rendering/LIC/vtkLineIntegralConvolution2D.h' line='207' column='1' visibility='default' binding='global' size-in-bits='64'>
          <parameter type-id='type-id-351' is-artificial='yes'/>
          <return type-id='type-id-52'/>
        </function-decl>
      </member-function>
      <member-function access='private' vtable-offset='55'>
        <function-decl name='GetComponentIds' mangled-name='_ZN28vtkLineIntegralConvolution2D15GetComponentIdsERiS0_' filepath='/tmp/legendre/spack-stage/spack-stage-R_crTC/VTK-6.1.0/Rendering/LIC/vtkLineIntegralConvolution2D.h' line='207' column='1' visibility='default' binding='global' size-in-bits='64'>
          <parameter type-id='type-id-351' is-artificial='yes'/>
          <parameter type-id='type-id-72'/>
          <parameter type-id='type-id-72'/>
          <return type-id='type-id-27'/>
        </function-decl>
      </member-function>
      <member-function access='private' vtable-offset='56'>
        <function-decl name='GetComponentIds' mangled-name='_ZN28vtkLineIntegralConvolution2D15GetComponentIdsEPi' filepath='/tmp/legendre/spack-stage/spack-stage-R_crTC/VTK-6.1.0/Rendering/LIC/vtkLineIntegralConvolution2D.h' line='207' column='1' visibility='default' binding='global' size-in-bits='64'>
          <parameter type-id='type-id-351' is-artificial='yes'/>
          <parameter type-id='type-id-52'/>
          <return type-id='type-id-27'/>
        </function-decl>
      </member-function>
      <member-function access='private' vtable-offset='57'>
        <function-decl name='SetMaxNoiseValue' mangled-name='_ZN28vtkLineIntegralConvolution2D16SetMaxNoiseValueEd' filepath='/tmp/legendre/spack-stage/spack-stage-R_crTC/VTK-6.1.0/Rendering/LIC/vtkLineIntegralConvolution2D.h' line='213' column='1' visibility='default' binding='global' size-in-bits='64'>
          <parameter type-id='type-id-351' is-artificial='yes'/>
          <parameter type-id='type-id-15'/>
          <return type-id='type-id-27'/>
        </function-decl>
      </member-function>
      <member-function access='private' vtable-offset='58'>
        <function-decl name='GetMaxNoiseValueMinValue' mangled-name='_ZN28vtkLineIntegralConvolution2D24GetMaxNoiseValueMinValueEv' filepath='/tmp/legendre/spack-stage/spack-stage-R_crTC/VTK-6.1.0/Rendering/LIC/vtkLineIntegralConvolution2D.h' line='213' column='1' visibility='default' binding='global' size-in-bits='64'>
          <parameter type-id='type-id-351' is-artificial='yes'/>
          <return type-id='type-id-15'/>
        </function-decl>
      </member-function>
      <member-function access='private' vtable-offset='59'>
        <function-decl name='GetMaxNoiseValueMaxValue' mangled-name='_ZN28vtkLineIntegralConvolution2D24GetMaxNoiseValueMaxValueEv' filepath='/tmp/legendre/spack-stage/spack-stage-R_crTC/VTK-6.1.0/Rendering/LIC/vtkLineIntegralConvolution2D.h' line='213' column='1' visibility='default' binding='global' size-in-bits='64'>
          <parameter type-id='type-id-351' is-artificial='yes'/>
          <return type-id='type-id-15'/>
        </function-decl>
      </member-function>
      <member-function access='private' vtable-offset='60'>
        <function-decl name='GetMaxNoiseValue' mangled-name='_ZN28vtkLineIntegralConvolution2D16GetMaxNoiseValueEv' filepath='/tmp/legendre/spack-stage/spack-stage-R_crTC/VTK-6.1.0/Rendering/LIC/vtkLineIntegralConvolution2D.h' line='214' column='1' visibility='default' binding='global' size-in-bits='64'>
          <parameter type-id='type-id-351' is-artificial='yes'/>
          <return type-id='type-id-15'/>
        </function-decl>
      </member-function>
      <member-function access='private' vtable-offset='61'>
        <function-decl name='GetTransformVectors' mangled-name='_ZN28vtkLineIntegralConvolution2D19GetTransformVectorsEv' filepath='/tmp/legendre/spack-stage/spack-stage-R_crTC/VTK-6.1.0/Rendering/LIC/vtkLineIntegralConvolution2D.h' line='222' column='1' visibility='default' binding='global' size-in-bits='64'>
          <parameter type-id='type-id-351' is-artificial='yes'/>
          <return type-id='type-id-17'/>
        </function-decl>
      </member-function>
      <member-function access='private' vtable-offset='62'>
        <function-decl name='GetNormalizeVectors' mangled-name='_ZN28vtkLineIntegralConvolution2D19GetNormalizeVectorsEv' filepath='/tmp/legendre/spack-stage/spack-stage-R_crTC/VTK-6.1.0/Rendering/LIC/vtkLineIntegralConvolution2D.h' line='243' column='1' visibility='default' binding='global' size-in-bits='64'>
          <parameter type-id='type-id-351' is-artificial='yes'/>
          <return type-id='type-id-17'/>
        </function-decl>
      </member-function>
      <member-function access='private' vtable-offset='63'>
        <function-decl name='SetMaskThreshold' mangled-name='_ZN28vtkLineIntegralConvolution2D16SetMaskThresholdEd' filepath='/tmp/legendre/spack-stage/spack-stage-R_crTC/VTK-6.1.0/Rendering/LIC/vtkLineIntegralConvolution2D.h' line='253' column='1' visibility='default' binding='global' size-in-bits='64'>
          <parameter type-id='type-id-351' is-artificial='yes'/>
          <parameter type-id='type-id-15'/>
          <return type-id='type-id-27'/>
        </function-decl>
      </member-function>
      <member-function access='private' vtable-offset='64'>
        <function-decl name='GetMaskThresholdMinValue' mangled-name='_ZN28vtkLineIntegralConvolution2D24GetMaskThresholdMinValueEv' filepath='/tmp/legendre/spack-stage/spack-stage-R_crTC/VTK-6.1.0/Rendering/LIC/vtkLineIntegralConvolution2D.h' line='253' column='1' visibility='default' binding='global' size-in-bits='64'>
          <parameter type-id='type-id-351' is-artificial='yes'/>
          <return type-id='type-id-15'/>
        </function-decl>
      </member-function>
      <member-function access='private' vtable-offset='65'>
        <function-decl name='GetMaskThresholdMaxValue' mangled-name='_ZN28vtkLineIntegralConvolution2D24GetMaskThresholdMaxValueEv' filepath='/tmp/legendre/spack-stage/spack-stage-R_crTC/VTK-6.1.0/Rendering/LIC/vtkLineIntegralConvolution2D.h' line='253' column='1' visibility='default' binding='global' size-in-bits='64'>
          <parameter type-id='type-id-351' is-artificial='yes'/>
          <return type-id='type-id-15'/>
        </function-decl>
      </member-function>
      <member-function access='private' vtable-offset='66'>
        <function-decl name='GetMaskThreshold' mangled-name='_ZN28vtkLineIntegralConvolution2D16GetMaskThresholdEv' filepath='/tmp/legendre/spack-stage/spack-stage-R_crTC/VTK-6.1.0/Rendering/LIC/vtkLineIntegralConvolution2D.h' line='254' column='1' visibility='default' binding='global' size-in-bits='64'>
          <parameter type-id='type-id-351' is-artificial='yes'/>
          <return type-id='type-id-15'/>
        </function-decl>
      </member-function>
      <member-function access='private' vtable-offset='67'>
        <function-decl name='SetCommunicator' mangled-name='_ZN28vtkLineIntegralConvolution2D15SetCommunicatorEP22vtkPainterCommunicator' filepath='/tmp/legendre/spack-stage/spack-stage-R_crTC/VTK-6.1.0/Rendering/LIC/vtkLineIntegralConvolution2D.h' line='308' column='1' visibility='default' binding='global' size-in-bits='64'>
          <parameter type-id='type-id-351' is-artificial='yes'/>
          <parameter type-id='type-id-344'/>
          <return type-id='type-id-27'/>
        </function-decl>
      </member-function>
      <member-function access='private' vtable-offset='68'>
        <function-decl name='GetCommunicator' mangled-name='_ZN28vtkLineIntegralConvolution2D15GetCommunicatorEv' filepath='/tmp/legendre/spack-stage/spack-stage-R_crTC/VTK-6.1.0/Rendering/LIC/vtkLineIntegralConvolution2D.cxx' line='1014' column='1' visibility='default' binding='global' size-in-bits='64' elf-symbol-id='_ZN28vtkLineIntegralConvolution2D15GetCommunicatorEv'>
          <parameter type-id='type-id-351' is-artificial='yes'/>
          <return type-id='type-id-344'/>
        </function-decl>
      </member-function>
      <member-function access='private' vtable-offset='69'>
        <function-decl name='GetGlobalMinMax' mangled-name='_ZN28vtkLineIntegralConvolution2D15GetGlobalMinMaxEP22vtkPainterCommunicatorRfS2_' filepath='/tmp/legendre/spack-stage/spack-stage-R_crTC/VTK-6.1.0/Rendering/LIC/vtkLineIntegralConvolution2D.h' line='314' column='1' visibility='default' binding='global' size-in-bits='64'>
          <parameter type-id='type-id-351' is-artificial='yes'/>
          <parameter type-id='type-id-344'/>
          <parameter type-id='type-id-356'/>
          <parameter type-id='type-id-356'/>
          <return type-id='type-id-27'/>
        </function-decl>
      </member-function>
      <member-function access='private' vtable-offset='70'>
        <function-decl name='WriteTimerLog' mangled-name='_ZN28vtkLineIntegralConvolution2D13WriteTimerLogEPKc' filepath='/tmp/legendre/spack-stage/spack-stage-R_crTC/VTK-6.1.0/Rendering/LIC/vtkLineIntegralConvolution2D.h' line='325' column='1' visibility='default' binding='global' size-in-bits='64'>
          <parameter type-id='type-id-351' is-artificial='yes'/>
          <parameter type-id='type-id-68'/>
          <return type-id='type-id-27'/>
        </function-decl>
      </member-function>
      <member-function access='protected' vtable-offset='71'>
        <function-decl name='StartTimerEvent' mangled-name='_ZN28vtkLineIntegralConvolution2D15StartTimerEventEPKc' filepath='/tmp/legendre/spack-stage/spack-stage-R_crTC/VTK-6.1.0/Rendering/LIC/vtkLineIntegralConvolution2D.h' line='358' column='1' visibility='default' binding='global' size-in-bits='64'>
          <parameter type-id='type-id-351' is-artificial='yes'/>
          <parameter type-id='type-id-68'/>
          <return type-id='type-id-27'/>
        </function-decl>
      </member-function>
      <member-function access='protected' vtable-offset='72'>
        <function-decl name='EndTimerEvent' mangled-name='_ZN28vtkLineIntegralConvolution2D13EndTimerEventEPKc' filepath='/tmp/legendre/spack-stage/spack-stage-R_crTC/VTK-6.1.0/Rendering/LIC/vtkLineIntegralConvolution2D.h' line='359' column='1' visibility='default' binding='global' size-in-bits='64'>
          <parameter type-id='type-id-351' is-artificial='yes'/>
          <parameter type-id='type-id-68'/>
          <return type-id='type-id-27'/>
        </function-decl>
      </member-function>
    </class-decl>
    <class-decl name='vtkLICPingPongBufferManager' size-in-bits='896' visibility='default' filepath='/tmp/legendre/spack-stage/spack-stage-R_crTC/VTK-6.1.0/Rendering/LIC/vtkLineIntegralConvolution2D.cxx' line='107' column='1' id='type-id-357'>
      <data-member access='private' layout-offset-in-bits='0'>
        <var-decl name='VectorTexture' type-id='type-id-354' visibility='default' filepath='/tmp/legendre/spack-stage/spack-stage-R_crTC/VTK-6.1.0/Rendering/LIC/vtkLineIntegralConvolution2D.cxx' line='779' column='1'/>
      </data-member>
      <data-member access='private' layout-offset-in-bits='64'>
        <var-decl name='ImageVectorTexture' type-id='type-id-354' visibility='default' filepath='/tmp/legendre/spack-stage/spack-stage-R_crTC/VTK-6.1.0/Rendering/LIC/vtkLineIntegralConvolution2D.cxx' line='780' column='1'/>
      </data-member>
      <data-member access='private' layout-offset-in-bits='128'>
        <var-decl name='MaskVectorTexture' type-id='type-id-354' visibility='default' filepath='/tmp/legendre/spack-stage/spack-stage-R_crTC/VTK-6.1.0/Rendering/LIC/vtkLineIntegralConvolution2D.cxx' line='781' column='1'/>
      </data-member>
      <data-member access='private' layout-offset-in-bits='192'>
        <var-decl name='NoiseTexture' type-id='type-id-354' visibility='default' filepath='/tmp/legendre/spack-stage/spack-stage-R_crTC/VTK-6.1.0/Rendering/LIC/vtkLineIntegralConvolution2D.cxx' line='782' column='1'/>
      </data-member>
      <data-member access='private' layout-offset-in-bits='256'>
        <var-decl name='EETexture' type-id='type-id-354' visibility='default' filepath='/tmp/legendre/spack-stage/spack-stage-R_crTC/VTK-6.1.0/Rendering/LIC/vtkLineIntegralConvolution2D.cxx' line='783' column='1'/>
      </data-member>
      <data-member access='private' layout-offset-in-bits='320'>
        <var-decl name='LICTexture0' type-id='type-id-354' visibility='default' filepath='/tmp/legendre/spack-stage/spack-stage-R_crTC/VTK-6.1.0/Rendering/LIC/vtkLineIntegralConvolution2D.cxx' line='784' column='1'/>
      </data-member>
      <data-member access='private' layout-offset-in-bits='384'>
        <var-decl name='SeedTexture0' type-id='type-id-354' visibility='default' filepath='/tmp/legendre/spack-stage/spack-stage-R_crTC/VTK-6.1.0/Rendering/LIC/vtkLineIntegralConvolution2D.cxx' line='785' column='1'/>
      </data-member>
      <data-member access='private' layout-offset-in-bits='448'>
        <var-decl name='LICTexture1' type-id='type-id-354' visibility='default' filepath='/tmp/legendre/spack-stage/spack-stage-R_crTC/VTK-6.1.0/Rendering/LIC/vtkLineIntegralConvolution2D.cxx' line='786' column='1'/>
      </data-member>
      <data-member access='private' layout-offset-in-bits='512'>
        <var-decl name='SeedTexture1' type-id='type-id-354' visibility='default' filepath='/tmp/legendre/spack-stage/spack-stage-R_crTC/VTK-6.1.0/Rendering/LIC/vtkLineIntegralConvolution2D.cxx' line='787' column='1'/>
      </data-member>
      <data-member access='private' layout-offset-in-bits='576'>
        <var-decl name='MaskVectorUnit' type-id='type-id-17' visibility='default' filepath='/tmp/legendre/spack-stage/spack-stage-R_crTC/VTK-6.1.0/Rendering/LIC/vtkLineIntegralConvolution2D.cxx' line='788' column='1'/>
      </data-member>
      <data-member access='private' layout-offset-in-bits='608'>
        <var-decl name='ReadIndex' type-id='type-id-17' visibility='default' filepath='/tmp/legendre/spack-stage/spack-stage-R_crTC/VTK-6.1.0/Rendering/LIC/vtkLineIntegralConvolution2D.cxx' line='790' column='1'/>
      </data-member>
      <data-member access='private' layout-offset-in-bits='640'>
        <var-decl name='PingTextures' type-id='type-id-342' visibility='default' filepath='/tmp/legendre/spack-stage/spack-stage-R_crTC/VTK-6.1.0/Rendering/LIC/vtkLineIntegralConvolution2D.cxx' line='791' column='1'/>
      </data-member>
      <data-member access='private' layout-offset-in-bits='704'>
        <var-decl name='PongTextures' type-id='type-id-342' visibility='default' filepath='/tmp/legendre/spack-stage/spack-stage-R_crTC/VTK-6.1.0/Rendering/LIC/vtkLineIntegralConvolution2D.cxx' line='792' column='1'/>
      </data-member>
      <data-member access='private' layout-offset-in-bits='768'>
        <var-decl name='Textures' type-id='type-id-341' visibility='default' filepath='/tmp/legendre/spack-stage/spack-stage-R_crTC/VTK-6.1.0/Rendering/LIC/vtkLineIntegralConvolution2D.cxx' line='793' column='1'/>
      </data-member>
      <member-function access='private' constructor='yes'>
        <function-decl name='vtkLICPingPongBufferManager' filepath='/tmp/legendre/spack-stage/spack-stage-R_crTC/VTK-6.1.0/Rendering/LIC/vtkLineIntegralConvolution2D.cxx' line='109' column='1' visibility='default' binding='global' size-in-bits='64'>
          <parameter type-id='type-id-358' is-artificial='yes'/>
          <parameter type-id='type-id-350'/>
          <parameter type-id='type-id-54'/>
          <parameter type-id='type-id-354'/>
          <parameter type-id='type-id-354'/>
          <parameter type-id='type-id-354'/>
          <parameter type-id='type-id-17'/>
          <parameter type-id='type-id-17'/>
          <return type-id='type-id-27'/>
        </function-decl>
      </member-function>
      <member-function access='private' destructor='yes'>
        <function-decl name='~vtkLICPingPongBufferManager' filepath='/tmp/legendre/spack-stage/spack-stage-R_crTC/VTK-6.1.0/Rendering/LIC/vtkLineIntegralConvolution2D.cxx' line='150' column='1' visibility='default' binding='global' size-in-bits='64'>
          <parameter type-id='type-id-358' is-artificial='yes'/>
          <parameter type-id='type-id-17' is-artificial='yes'/>
          <return type-id='type-id-27'/>
        </function-decl>
      </member-function>
    </class-decl>
    <pointer-type-def type-id='type-id-359' size-in-bits='64' id='type-id-360'/>
    <pointer-type-def type-id='type-id-361' size-in-bits='64' id='type-id-362'/>
    <qualified-type-def type-id='type-id-362' const='yes' id='type-id-363'/>
    <pointer-type-def type-id='type-id-364' size-in-bits='64' id='type-id-365'/>
    <qualified-type-def type-id='type-id-365' const='yes' id='type-id-366'/>
    <reference-type-def kind='lvalue' type-id='type-id-2' size-in-bits='64' id='type-id-367'/>
    <qualified-type-def type-id='type-id-32' const='yes' id='type-id-368'/>
    <reference-type-def kind='lvalue' type-id='type-id-368' size-in-bits='64' id='type-id-369'/>
    <qualified-type-def type-id='type-id-359' const='yes' id='type-id-370'/>
    <reference-type-def kind='lvalue' type-id='type-id-370' size-in-bits='64' id='type-id-371'/>
    <pointer-type-def type-id='type-id-370' size-in-bits='64' id='type-id-372'/>
    <qualified-type-def type-id='type-id-361' const='yes' id='type-id-373'/>
    <reference-type-def kind='lvalue' type-id='type-id-373' size-in-bits='64' id='type-id-374'/>
    <pointer-type-def type-id='type-id-373' size-in-bits='64' id='type-id-375'/>
    <qualified-type-def type-id='type-id-375' const='yes' id='type-id-376'/>
    <qualified-type-def type-id='type-id-364' const='yes' id='type-id-377'/>
    <reference-type-def kind='lvalue' type-id='type-id-377' size-in-bits='64' id='type-id-378'/>
    <pointer-type-def type-id='type-id-377' size-in-bits='64' id='type-id-379'/>
    <qualified-type-def type-id='type-id-379' const='yes' id='type-id-380'/>
    <reference-type-def kind='lvalue' type-id='type-id-133' size-in-bits='64' id='type-id-381'/>
    <qualified-type-def type-id='type-id-16' const='yes' id='type-id-382'/>
    <qualified-type-def type-id='type-id-383' id='type-id-384'/>
    <reference-type-def kind='lvalue' type-id='type-id-382' size-in-bits='64' id='type-id-383'/>
    <pointer-type-def type-id='type-id-382' size-in-bits='64' id='type-id-385'/>
    <qualified-type-def type-id='type-id-150' const='yes' id='type-id-305'/>
    <qualified-type-def type-id='type-id-386' const='yes' id='type-id-387'/>
    <pointer-type-def type-id='type-id-387' size-in-bits='64' id='type-id-388'/>
    <qualified-type-def type-id='type-id-389' const='yes' id='type-id-390'/>
    <pointer-type-def type-id='type-id-390' size-in-bits='64' id='type-id-391'/>
    <qualified-type-def type-id='type-id-392' const='yes' id='type-id-393'/>
    <qualified-type-def type-id='type-id-394' id='type-id-395'/>
    <reference-type-def kind='lvalue' type-id='type-id-393' size-in-bits='64' id='type-id-394'/>
    <qualified-type-def type-id='type-id-396' const='yes' id='type-id-397'/>
    <reference-type-def kind='lvalue' type-id='type-id-397' size-in-bits='64' id='type-id-398'/>
    <qualified-type-def type-id='type-id-399' const='yes' id='type-id-400'/>
    <reference-type-def kind='lvalue' type-id='type-id-400' size-in-bits='64' id='type-id-401'/>
    <qualified-type-def type-id='type-id-402' const='yes' id='type-id-403'/>
    <pointer-type-def type-id='type-id-403' size-in-bits='64' id='type-id-404'/>
    <qualified-type-def type-id='type-id-404' const='yes' id='type-id-405'/>
    <qualified-type-def type-id='type-id-406' const='yes' id='type-id-407'/>
    <pointer-type-def type-id='type-id-407' size-in-bits='64' id='type-id-408'/>
    <qualified-type-def type-id='type-id-408' const='yes' id='type-id-409'/>
    <qualified-type-def type-id='type-id-410' const='yes' id='type-id-411'/>
    <qualified-type-def type-id='type-id-412' id='type-id-413'/>
    <reference-type-def kind='lvalue' type-id='type-id-411' size-in-bits='64' id='type-id-412'/>
    <pointer-type-def type-id='type-id-411' size-in-bits='64' id='type-id-414'/>
    <qualified-type-def type-id='type-id-414' const='yes' id='type-id-415'/>
    <qualified-type-def type-id='type-id-416' const='yes' id='type-id-417'/>
    <pointer-type-def type-id='type-id-417' size-in-bits='64' id='type-id-418'/>
    <qualified-type-def type-id='type-id-418' const='yes' id='type-id-419'/>
    <qualified-type-def type-id='type-id-175' id='type-id-420'/>
    <qualified-type-def type-id='type-id-182' id='type-id-309'/>
    <qualified-type-def type-id='type-id-183' const='yes' id='type-id-421'/>
    <qualified-type-def type-id='type-id-422' const='yes' id='type-id-423'/>
    <reference-type-def kind='lvalue' type-id='type-id-423' size-in-bits='64' id='type-id-424'/>
    <pointer-type-def type-id='type-id-423' size-in-bits='64' id='type-id-425'/>
    <qualified-type-def type-id='type-id-426' const='yes' id='type-id-427'/>
    <reference-type-def kind='lvalue' type-id='type-id-427' size-in-bits='64' id='type-id-428'/>
    <pointer-type-def type-id='type-id-427' size-in-bits='64' id='type-id-429'/>
    <qualified-type-def type-id='type-id-347' const='yes' id='type-id-430'/>
    <reference-type-def kind='lvalue' type-id='type-id-430' size-in-bits='64' id='type-id-352'/>
    <pointer-type-def type-id='type-id-430' size-in-bits='64' id='type-id-355'/>
    <qualified-type-def type-id='type-id-343' const='yes' id='type-id-431'/>
    <reference-type-def kind='lvalue' type-id='type-id-431' size-in-bits='64' id='type-id-345'/>
    <pointer-type-def type-id='type-id-431' size-in-bits='64' id='type-id-346'/>
    <reference-type-def kind='lvalue' type-id='type-id-16' size-in-bits='64' id='type-id-356'/>
    <pointer-type-def type-id='type-id-386' size-in-bits='64' id='type-id-432'/>
    <qualified-type-def type-id='type-id-432' const='yes' id='type-id-433'/>
    <pointer-type-def type-id='type-id-434' size-in-bits='64' id='type-id-435'/>
    <pointer-type-def type-id='type-id-389' size-in-bits='64' id='type-id-436'/>
    <qualified-type-def type-id='type-id-436' const='yes' id='type-id-437'/>
    <pointer-type-def type-id='type-id-438' size-in-bits='64' id='type-id-439'/>
    <pointer-type-def type-id='type-id-392' size-in-bits='64' id='type-id-440'/>
    <reference-type-def kind='lvalue' type-id='type-id-396' size-in-bits='64' id='type-id-441'/>
    <pointer-type-def type-id='type-id-396' size-in-bits='64' id='type-id-442'/>
    <reference-type-def kind='lvalue' type-id='type-id-399' size-in-bits='64' id='type-id-443'/>
    <pointer-type-def type-id='type-id-399' size-in-bits='64' id='type-id-444'/>
    <pointer-type-def type-id='type-id-402' size-in-bits='64' id='type-id-445'/>
    <pointer-type-def type-id='type-id-406' size-in-bits='64' id='type-id-446'/>
    <reference-type-def kind='lvalue' type-id='type-id-410' size-in-bits='64' id='type-id-447'/>
    <pointer-type-def type-id='type-id-410' size-in-bits='64' id='type-id-448'/>
    <qualified-type-def type-id='type-id-448' const='yes' id='type-id-449'/>
    <pointer-type-def type-id='type-id-450' size-in-bits='64' id='type-id-451'/>
    <reference-type-def kind='lvalue' type-id='type-id-416' size-in-bits='64' id='type-id-452'/>
    <pointer-type-def type-id='type-id-416' size-in-bits='64' id='type-id-453'/>
    <qualified-type-def type-id='type-id-453' const='yes' id='type-id-454'/>
    <pointer-type-def type-id='type-id-455' size-in-bits='64' id='type-id-456'/>
    <qualified-type-def type-id='type-id-229' id='type-id-457'/>
    <reference-type-def kind='lvalue' type-id='type-id-422' size-in-bits='64' id='type-id-458'/>
    <pointer-type-def type-id='type-id-422' size-in-bits='64' id='type-id-459'/>
    <qualified-type-def type-id='type-id-459' const='yes' id='type-id-460'/>
    <reference-type-def kind='lvalue' type-id='type-id-426' size-in-bits='64' id='type-id-461'/>
    <pointer-type-def type-id='type-id-426' size-in-bits='64' id='type-id-462'/>
    <qualified-type-def type-id='type-id-462' const='yes' id='type-id-463'/>
    <pointer-type-def type-id='type-id-14' size-in-bits='64' id='type-id-316'/>
    <pointer-type-def type-id='type-id-464' size-in-bits='64' id='type-id-350'/>
    <qualified-type-def type-id='type-id-350' const='yes' id='type-id-465'/>
    <pointer-type-def type-id='type-id-357' size-in-bits='64' id='type-id-358'/>
    <qualified-type-def type-id='type-id-358' const='yes' id='type-id-466'/>
    <pointer-type-def type-id='type-id-347' size-in-bits='64' id='type-id-351'/>
    <qualified-type-def type-id='type-id-351' const='yes' id='type-id-353'/>
    <reference-type-def kind='lvalue' type-id='type-id-343' size-in-bits='64' id='type-id-467'/>
    <pointer-type-def type-id='type-id-343' size-in-bits='64' id='type-id-344'/>
    <qualified-type-def type-id='type-id-468' id='type-id-469'/>
    <reference-type-def kind='lvalue' type-id='type-id-268' size-in-bits='64' id='type-id-468'/>
    <pointer-type-def type-id='type-id-268' size-in-bits='64' id='type-id-470'/>
    <reference-type-def kind='lvalue' type-id='type-id-267' size-in-bits='64' id='type-id-471'/>
    <pointer-type-def type-id='type-id-267' size-in-bits='64' id='type-id-313'/>
    <pointer-type-def type-id='type-id-292' size-in-bits='64' id='type-id-354'/>
    <namespace-decl name='std'>
      <class-decl name='random_access_iterator_tag' size-in-bits='8' is-struct='yes' visibility='default' filepath='/usr/lib/gcc/x86_64-redhat-linux/4.4.7/../../../../include/c++/4.4.7/bits/stl_iterator_base_types.h' line='89' column='1' id='type-id-472'>
        <base-class access='public' layout-offset-in-bits='0' type-id='type-id-473'/>
      </class-decl>
      <class-decl name='bidirectional_iterator_tag' size-in-bits='8' is-struct='yes' visibility='default' filepath='/usr/lib/gcc/x86_64-redhat-linux/4.4.7/../../../../include/c++/4.4.7/bits/stl_iterator_base_types.h' line='86' column='1' id='type-id-473'>
        <base-class access='public' layout-offset-in-bits='0' type-id='type-id-308'/>
      </class-decl>
      <class-decl name='input_iterator_tag' size-in-bits='8' is-struct='yes' visibility='default' filepath='/usr/lib/gcc/x86_64-redhat-linux/4.4.7/../../../../include/c++/4.4.7/bits/stl_iterator_base_types.h' line='79' column='1' id='type-id-320'/>
      <class-decl name='basic_string&lt;char, std::char_traits&lt;char&gt;, std::allocator&lt;char&gt; &gt;' size-in-bits='64' is-struct='yes' visibility='default' filepath='/usr/lib/gcc/x86_64-redhat-linux/4.4.7/../../../../include/c++/4.4.7/bits/stringfwd.h' line='52' column='1' id='type-id-410'>
        <member-type access='private'>
          <class-decl name='_Rep_base' size-in-bits='192' is-struct='yes' visibility='default' filepath='/usr/lib/gcc/x86_64-redhat-linux/4.4.7/../../../../include/c++/4.4.7/bits/basic_string.h' line='141' column='1' id='type-id-474'>
            <data-member access='public' layout-offset-in-bits='0'>
              <var-decl name='_M_length' type-id='type-id-38' visibility='default' filepath='/usr/lib/gcc/x86_64-redhat-linux/4.4.7/../../../../include/c++/4.4.7/bits/basic_string.h' line='142' column='1'/>
            </data-member>
            <data-member access='public' layout-offset-in-bits='64'>
              <var-decl name='_M_capacity' type-id='type-id-38' visibility='default' filepath='/usr/lib/gcc/x86_64-redhat-linux/4.4.7/../../../../include/c++/4.4.7/bits/basic_string.h' line='143' column='1'/>
            </data-member>
            <data-member access='public' layout-offset-in-bits='128'>
              <var-decl name='_M_refcount' type-id='type-id-29' visibility='default' filepath='/usr/lib/gcc/x86_64-redhat-linux/4.4.7/../../../../include/c++/4.4.7/bits/basic_string.h' line='144' column='1'/>
            </data-member>
          </class-decl>
        </member-type>
        <member-type access='private'>
          <class-decl name='_Rep' size-in-bits='192' is-struct='yes' visibility='default' filepath='/usr/lib/gcc/x86_64-redhat-linux/4.4.7/../../../../include/c++/4.4.7/bits/basic_string.h' line='148' column='1' id='type-id-416'>
            <base-class access='public' layout-offset-in-bits='0' type-id='type-id-474'/>
            <data-member access='public' static='yes'>
              <var-decl name='_S_max_size' type-id='type-id-141' visibility='default' filepath='/usr/lib/gcc/x86_64-redhat-linux/4.4.7/../../../../include/c++/4.4.7/bits/basic_string.tcc' line='51' column='1'/>
            </data-member>
            <data-member access='public' static='yes'>
              <var-decl name='_S_terminal' type-id='type-id-133' visibility='default' filepath='/usr/lib/gcc/x86_64-redhat-linux/4.4.7/../../../../include/c++/4.4.7/bits/basic_string.tcc' line='56' column='1'/>
            </data-member>
            <data-member access='public' static='yes'>
              <var-decl name='_S_empty_rep_storage' type-id='type-id-340' visibility='default' filepath='/usr/lib/gcc/x86_64-redhat-linux/4.4.7/../../../../include/c++/4.4.7/bits/basic_string.tcc' line='68' column='1'/>
            </data-member>
          </class-decl>
        </member-type>
        <member-type access='private'>
          <class-decl name='_Alloc_hider' size-in-bits='64' is-struct='yes' visibility='default' filepath='/usr/lib/gcc/x86_64-redhat-linux/4.4.7/../../../../include/c++/4.4.7/bits/basic_string.h' line='258' column='1' id='type-id-450'>
            <base-class access='public' layout-offset-in-bits='0' type-id='type-id-392'/>
            <data-member access='public' layout-offset-in-bits='0'>
              <var-decl name='_M_p' type-id='type-id-32' visibility='default' filepath='/usr/lib/gcc/x86_64-redhat-linux/4.4.7/../../../../include/c++/4.4.7/bits/basic_string.h' line='262' column='1'/>
            </data-member>
            <member-function access='public' constructor='yes'>
              <function-decl name='_Alloc_hider' filepath='/usr/lib/gcc/x86_64-redhat-linux/4.4.7/../../../../include/c++/4.4.7/bits/basic_string.h' line='259' column='1' visibility='default' binding='global' size-in-bits='64'>
                <parameter type-id='type-id-451' is-artificial='yes'/>
                <parameter type-id='type-id-32'/>
                <parameter type-id='type-id-394'/>
                <return type-id='type-id-27'/>
              </function-decl>
            </member-function>
          </class-decl>
        </member-type>
        <data-member access='public' static='yes'>
          <var-decl name='npos' type-id='type-id-141' visibility='default' filepath='/usr/lib/gcc/x86_64-redhat-linux/4.4.7/../../../../include/c++/4.4.7/bits/basic_string.h' line='270' column='1'/>
        </data-member>
        <data-member access='private' layout-offset-in-bits='0'>
          <var-decl name='_M_dataplus' type-id='type-id-450' visibility='default' filepath='/usr/lib/gcc/x86_64-redhat-linux/4.4.7/../../../../include/c++/4.4.7/bits/basic_string.h' line='274' column='1'/>
        </data-member>
        <member-function access='public'>
          <function-decl name='basic_string' filepath='/usr/lib/gcc/x86_64-redhat-linux/4.4.7/../../../../include/c++/4.4.7/bits/basic_string.h' line='2144' column='1' visibility='default' binding='global' size-in-bits='64'>
            <parameter type-id='type-id-448' is-artificial='yes'/>
            <return type-id='type-id-27'/>
          </function-decl>
        </member-function>
        <member-function access='public'>
          <function-decl name='basic_string' filepath='/usr/lib/gcc/x86_64-redhat-linux/4.4.7/../../../../include/c++/4.4.7/bits/basic_string.tcc' line='178' column='1' visibility='default' binding='global' size-in-bits='64'>
            <parameter type-id='type-id-448' is-artificial='yes'/>
            <parameter type-id='type-id-394'/>
            <return type-id='type-id-27'/>
          </function-decl>
        </member-function>
        <member-function access='public'>
          <function-decl name='basic_string' filepath='/usr/lib/gcc/x86_64-redhat-linux/4.4.7/../../../../include/c++/4.4.7/bits/basic_string.tcc' line='170' column='1' visibility='default' binding='global' size-in-bits='64'>
            <parameter type-id='type-id-448' is-artificial='yes'/>
            <parameter type-id='type-id-412'/>
            <return type-id='type-id-27'/>
          </function-decl>
        </member-function>
        <member-function access='public'>
          <function-decl name='basic_string' filepath='/usr/lib/gcc/x86_64-redhat-linux/4.4.7/../../../../include/c++/4.4.7/bits/basic_string.tcc' line='184' column='1' visibility='default' binding='global' size-in-bits='64'>
            <parameter type-id='type-id-448' is-artificial='yes'/>
            <parameter type-id='type-id-412'/>
            <parameter type-id='type-id-4'/>
            <parameter type-id='type-id-4'/>
            <return type-id='type-id-27'/>
          </function-decl>
        </member-function>
        <member-function access='public'>
          <function-decl name='basic_string' filepath='/usr/lib/gcc/x86_64-redhat-linux/4.4.7/../../../../include/c++/4.4.7/bits/basic_string.tcc' line='194' column='1' visibility='default' binding='global' size-in-bits='64'>
            <parameter type-id='type-id-448' is-artificial='yes'/>
            <parameter type-id='type-id-412'/>
            <parameter type-id='type-id-4'/>
            <parameter type-id='type-id-4'/>
            <parameter type-id='type-id-394'/>
            <return type-id='type-id-27'/>
          </function-decl>
        </member-function>
        <member-function access='public'>
          <function-decl name='basic_string' filepath='/usr/lib/gcc/x86_64-redhat-linux/4.4.7/../../../../include/c++/4.4.7/bits/basic_string.tcc' line='206' column='1' visibility='default' binding='global' size-in-bits='64'>
            <parameter type-id='type-id-448' is-artificial='yes'/>
            <parameter type-id='type-id-68'/>
            <parameter type-id='type-id-4'/>
            <parameter type-id='type-id-394'/>
            <return type-id='type-id-27'/>
          </function-decl>
        </member-function>
        <member-function access='public'>
          <function-decl name='basic_string' filepath='/usr/lib/gcc/x86_64-redhat-linux/4.4.7/../../../../include/c++/4.4.7/bits/basic_string.tcc' line='213' column='1' visibility='default' binding='global' size-in-bits='64'>
            <parameter type-id='type-id-448' is-artificial='yes'/>
            <parameter type-id='type-id-68'/>
            <parameter type-id='type-id-394'/>
            <return type-id='type-id-27'/>
          </function-decl>
        </member-function>
        <member-function access='public'>
          <function-decl name='basic_string' filepath='/usr/lib/gcc/x86_64-redhat-linux/4.4.7/../../../../include/c++/4.4.7/bits/basic_string.tcc' line='220' column='1' visibility='default' binding='global' size-in-bits='64'>
            <parameter type-id='type-id-448' is-artificial='yes'/>
            <parameter type-id='type-id-4'/>
            <parameter type-id='type-id-2'/>
            <parameter type-id='type-id-394'/>
            <return type-id='type-id-27'/>
          </function-decl>
        </member-function>
        <member-function access='public' destructor='yes'>
          <function-decl name='~basic_string' filepath='/usr/lib/gcc/x86_64-redhat-linux/4.4.7/../../../../include/c++/4.4.7/bits/basic_string.h' line='502' column='1' visibility='default' binding='global' size-in-bits='64'>
            <parameter type-id='type-id-448' is-artificial='yes'/>
            <parameter type-id='type-id-17' is-artificial='yes'/>
            <return type-id='type-id-27'/>
          </function-decl>
        </member-function>
        <member-function access='public'>
          <function-decl name='basic_string&lt;char*&gt;' filepath='/usr/lib/gcc/x86_64-redhat-linux/4.4.7/../../../../include/c++/4.4.7/bits/basic_string.tcc' line='228' column='1' visibility='default' binding='global' size-in-bits='64'>
            <parameter type-id='type-id-448' is-artificial='yes'/>
            <parameter type-id='type-id-32'/>
            <parameter type-id='type-id-32'/>
            <parameter type-id='type-id-394'/>
            <return type-id='type-id-27'/>
          </function-decl>
        </member-function>
      </class-decl>
      <class-decl name='allocator&lt;float&gt;' size-in-bits='8' visibility='default' filepath='/usr/lib/gcc/x86_64-redhat-linux/4.4.7/../../../../include/c++/4.4.7/bits/allocator.h' line='87' column='1' id='type-id-396'>
        <base-class access='public' layout-offset-in-bits='0' type-id='type-id-361'/>
        <member-function access='private'>
          <function-decl name='allocator' filepath='/usr/lib/gcc/x86_64-redhat-linux/4.4.7/../../../../include/c++/4.4.7/bits/allocator.h' line='101' column='1' visibility='default' binding='global' size-in-bits='64'>
            <parameter type-id='type-id-442' is-artificial='yes'/>
            <return type-id='type-id-27'/>
          </function-decl>
        </member-function>
        <member-function access='private'>
          <function-decl name='allocator' filepath='/usr/lib/gcc/x86_64-redhat-linux/4.4.7/../../../../include/c++/4.4.7/bits/allocator.h' line='103' column='1' visibility='default' binding='global' size-in-bits='64'>
            <parameter type-id='type-id-442' is-artificial='yes'/>
            <parameter type-id='type-id-398'/>
            <return type-id='type-id-27'/>
          </function-decl>
        </member-function>
        <member-function access='private' destructor='yes'>
          <function-decl name='~allocator' filepath='/usr/lib/gcc/x86_64-redhat-linux/4.4.7/../../../../include/c++/4.4.7/bits/allocator.h' line='109' column='1' visibility='default' binding='global' size-in-bits='64'>
            <parameter type-id='type-id-442' is-artificial='yes'/>
            <parameter type-id='type-id-17' is-artificial='yes'/>
            <return type-id='type-id-27'/>
          </function-decl>
        </member-function>
      </class-decl>
      <typedef-decl name='string' type-id='type-id-410' filepath='/usr/lib/gcc/x86_64-redhat-linux/4.4.7/../../../../include/c++/4.4.7/bits/stringfwd.h' line='56' column='1' id='type-id-475'/>
      <class-decl name='_Vector_base&lt;float, std::allocator&lt;float&gt; &gt;' size-in-bits='192' is-struct='yes' visibility='default' filepath='/usr/lib/gcc/x86_64-redhat-linux/4.4.7/../../../../include/c++/4.4.7/bits/stl_vector.h' line='70' column='1' id='type-id-386'>
        <member-type access='public'>
          <class-decl name='_Vector_impl' size-in-bits='192' is-struct='yes' visibility='default' filepath='/usr/lib/gcc/x86_64-redhat-linux/4.4.7/../../../../include/c++/4.4.7/bits/stl_vector.h' line='75' column='1' id='type-id-434'>
            <base-class access='public' layout-offset-in-bits='0' type-id='type-id-396'/>
            <data-member access='public' layout-offset-in-bits='0'>
              <var-decl name='_M_start' type-id='type-id-56' visibility='default' filepath='/usr/lib/gcc/x86_64-redhat-linux/4.4.7/../../../../include/c++/4.4.7/bits/stl_vector.h' line='76' column='1'/>
            </data-member>
            <data-member access='public' layout-offset-in-bits='64'>
              <var-decl name='_M_finish' type-id='type-id-56' visibility='default' filepath='/usr/lib/gcc/x86_64-redhat-linux/4.4.7/../../../../include/c++/4.4.7/bits/stl_vector.h' line='77' column='1'/>
            </data-member>
            <data-member access='public' layout-offset-in-bits='128'>
              <var-decl name='_M_end_of_storage' type-id='type-id-56' visibility='default' filepath='/usr/lib/gcc/x86_64-redhat-linux/4.4.7/../../../../include/c++/4.4.7/bits/stl_vector.h' line='78' column='1'/>
            </data-member>
            <member-function access='public' constructor='yes'>
              <function-decl name='_Vector_impl' filepath='/usr/lib/gcc/x86_64-redhat-linux/4.4.7/../../../../include/c++/4.4.7/bits/stl_vector.h' line='80' column='1' visibility='default' binding='global' size-in-bits='64'>
                <parameter type-id='type-id-435' is-artificial='yes'/>
                <return type-id='type-id-27'/>
              </function-decl>
            </member-function>
            <member-function access='public' constructor='yes'>
              <function-decl name='_Vector_impl' filepath='/usr/lib/gcc/x86_64-redhat-linux/4.4.7/../../../../include/c++/4.4.7/bits/stl_vector.h' line='84' column='1' visibility='default' binding='global' size-in-bits='64'>
                <parameter type-id='type-id-435' is-artificial='yes'/>
                <parameter type-id='type-id-398'/>
                <return type-id='type-id-27'/>
              </function-decl>
            </member-function>
          </class-decl>
        </member-type>
        <data-member access='public' layout-offset-in-bits='0'>
          <var-decl name='_M_impl' type-id='type-id-434' visibility='default' filepath='/usr/lib/gcc/x86_64-redhat-linux/4.4.7/../../../../include/c++/4.4.7/bits/stl_vector.h' line='136' column='1'/>
        </data-member>
        <member-function access='public'>
          <function-decl name='_Vector_base' filepath='/usr/lib/gcc/x86_64-redhat-linux/4.4.7/../../../../include/c++/4.4.7/bits/stl_vector.h' line='104' column='1' visibility='default' binding='global' size-in-bits='64'>
            <parameter type-id='type-id-432' is-artificial='yes'/>
            <return type-id='type-id-27'/>
          </function-decl>
        </member-function>
        <member-function access='public'>
          <function-decl name='_Vector_base' filepath='/usr/lib/gcc/x86_64-redhat-linux/4.4.7/../../../../include/c++/4.4.7/bits/stl_vector.h' line='107' column='1' visibility='default' binding='global' size-in-bits='64'>
            <parameter type-id='type-id-432' is-artificial='yes'/>
            <parameter type-id='type-id-398'/>
            <return type-id='type-id-27'/>
          </function-decl>
        </member-function>
        <member-function access='public'>
          <function-decl name='_Vector_base' filepath='/usr/lib/gcc/x86_64-redhat-linux/4.4.7/../../../../include/c++/4.4.7/bits/stl_vector.h' line='110' column='1' visibility='default' binding='global' size-in-bits='64'>
            <parameter type-id='type-id-432' is-artificial='yes'/>
            <parameter type-id='type-id-4'/>
            <parameter type-id='type-id-398'/>
            <return type-id='type-id-27'/>
          </function-decl>
        </member-function>
        <member-function access='public' destructor='yes'>
          <function-decl name='~_Vector_base' filepath='/usr/lib/gcc/x86_64-redhat-linux/4.4.7/../../../../include/c++/4.4.7/bits/stl_vector.h' line='131' column='1' visibility='default' binding='global' size-in-bits='64'>
            <parameter type-id='type-id-432' is-artificial='yes'/>
            <parameter type-id='type-id-17' is-artificial='yes'/>
            <return type-id='type-id-27'/>
          </function-decl>
        </member-function>
      </class-decl>
      <class-decl name='__niter_base&lt;float*, false&gt;' size-in-bits='8' is-struct='yes' visibility='default' filepath='/usr/lib/gcc/x86_64-redhat-linux/4.4.7/../../../../include/c++/4.4.7/bits/stl_algobase.h' line='267' column='1' id='type-id-476'/>
      <class-decl name='vector&lt;float, std::allocator&lt;float&gt; &gt;' size-in-bits='192' visibility='default' filepath='/usr/lib/gcc/x86_64-redhat-linux/4.4.7/../../../../include/c++/4.4.7/bits/stl_vector.h' line='171' column='1' id='type-id-422'>
        <base-class access='protected' layout-offset-in-bits='0' type-id='type-id-386'/>
        <member-function access='private'>
          <function-decl name='vector' filepath='/usr/lib/gcc/x86_64-redhat-linux/4.4.7/../../../../include/c++/4.4.7/bits/stl_vector.h' line='207' column='1' visibility='default' binding='global' size-in-bits='64'>
            <parameter type-id='type-id-459' is-artificial='yes'/>
            <return type-id='type-id-27'/>
          </function-decl>
        </member-function>
        <member-function access='private'>
          <function-decl name='vector' filepath='/usr/lib/gcc/x86_64-redhat-linux/4.4.7/../../../../include/c++/4.4.7/bits/stl_vector.h' line='215' column='1' visibility='default' binding='global' size-in-bits='64'>
            <parameter type-id='type-id-459' is-artificial='yes'/>
            <parameter type-id='type-id-398'/>
            <return type-id='type-id-27'/>
          </function-decl>
        </member-function>
        <member-function access='private'>
          <function-decl name='vector' filepath='/usr/lib/gcc/x86_64-redhat-linux/4.4.7/../../../../include/c++/4.4.7/bits/stl_vector.h' line='227' column='1' visibility='default' binding='global' size-in-bits='64'>
            <parameter type-id='type-id-459' is-artificial='yes'/>
            <parameter type-id='type-id-4'/>
            <parameter type-id='type-id-383'/>
            <parameter type-id='type-id-398'/>
            <return type-id='type-id-27'/>
          </function-decl>
        </member-function>
        <member-function access='private'>
          <function-decl name='vector' filepath='/usr/lib/gcc/x86_64-redhat-linux/4.4.7/../../../../include/c++/4.4.7/bits/stl_vector.h' line='241' column='1' visibility='default' binding='global' size-in-bits='64'>
            <parameter type-id='type-id-459' is-artificial='yes'/>
            <parameter type-id='type-id-424'/>
            <return type-id='type-id-27'/>
          </function-decl>
        </member-function>
        <member-function access='private' destructor='yes'>
          <function-decl name='~vector' filepath='/usr/lib/gcc/x86_64-redhat-linux/4.4.7/../../../../include/c++/4.4.7/bits/stl_vector.h' line='312' column='1' visibility='default' binding='global' size-in-bits='64'>
            <parameter type-id='type-id-459' is-artificial='yes'/>
            <parameter type-id='type-id-17' is-artificial='yes'/>
            <return type-id='type-id-27'/>
          </function-decl>
        </member-function>
        <member-function access='protected'>
          <function-decl name='_M_fill_insert' mangled-name='_ZNSt6vectorIfSaIfEE14_M_fill_insertEN9__gnu_cxx17__normal_iteratorIPfS1_EEmRKf' filepath='/usr/lib/gcc/x86_64-redhat-linux/4.4.7/../../../../include/c++/4.4.7/bits/vector.tcc' line='372' column='1' visibility='default' binding='global' size-in-bits='64' elf-symbol-id='_ZNSt6vectorIfSaIfEE14_M_fill_insertEN9__gnu_cxx17__normal_iteratorIPfS1_EEmRKf'>
            <parameter type-id='type-id-460' name='this' is-artificial='yes'/>
            <parameter type-id='type-id-477' name='__position' filepath='/usr/lib/gcc/x86_64-redhat-linux/4.4.7/../../../../include/c++/4.4.7/bits/stl_vector.h' line='850' column='1'/>
            <parameter type-id='type-id-38' name='__n' filepath='/usr/lib/gcc/x86_64-redhat-linux/4.4.7/../../../../include/c++/4.4.7/bits/stl_vector.h' line='850' column='1'/>
            <parameter type-id='type-id-384' name='__x' filepath='/usr/lib/gcc/x86_64-redhat-linux/4.4.7/../../../../include/c++/4.4.7/bits/stl_vector.h' line='850' column='1'/>
            <return type-id='type-id-27'/>
          </function-decl>
        </member-function>
      </class-decl>
      <class-decl name='__niter_base&lt;vtkPixelBufferObject**, false&gt;' size-in-bits='8' is-struct='yes' visibility='default' filepath='/usr/lib/gcc/x86_64-redhat-linux/4.4.7/../../../../include/c++/4.4.7/bits/stl_algobase.h' line='267' column='1' id='type-id-478'/>
      <class-decl name='__uninitialized_fill_n&lt;true&gt;' size-in-bits='8' is-struct='yes' visibility='default' filepath='/usr/lib/gcc/x86_64-redhat-linux/4.4.7/../../../../include/c++/4.4.7/bits/stl_uninitialized.h' line='198' column='1' id='type-id-479'>
        <member-function access='public' static='yes'>
          <function-decl name='uninitialized_fill_n&lt;vtkPixelBufferObject**, long unsigned int, vtkPixelBufferObject*&gt;' filepath='/usr/lib/gcc/x86_64-redhat-linux/4.4.7/../../../../include/c++/4.4.7/bits/stl_uninitialized.h' line='201' column='1' visibility='default' binding='global' size-in-bits='64'>
            <parameter type-id='type-id-313'/>
            <parameter type-id='type-id-4'/>
            <parameter type-id='type-id-468'/>
            <return type-id='type-id-27'/>
          </function-decl>
        </member-function>
        <member-function access='public' static='yes'>
          <function-decl name='uninitialized_fill_n&lt;float*, long unsigned int, float&gt;' filepath='/usr/lib/gcc/x86_64-redhat-linux/4.4.7/../../../../include/c++/4.4.7/bits/stl_uninitialized.h' line='201' column='1' visibility='default' binding='global' size-in-bits='64'>
            <parameter type-id='type-id-56'/>
            <parameter type-id='type-id-4'/>
            <parameter type-id='type-id-383'/>
            <return type-id='type-id-27'/>
          </function-decl>
        </member-function>
      </class-decl>
      <class-decl name='_Vector_base&lt;vtkPixelBufferObject*, std::allocator&lt;vtkPixelBufferObject*&gt; &gt;' size-in-bits='192' is-struct='yes' visibility='default' filepath='/usr/lib/gcc/x86_64-redhat-linux/4.4.7/../../../../include/c++/4.4.7/bits/stl_vector.h' line='70' column='1' id='type-id-389'>
        <member-type access='public'>
          <class-decl name='_Vector_impl' size-in-bits='192' is-struct='yes' visibility='default' filepath='/usr/lib/gcc/x86_64-redhat-linux/4.4.7/../../../../include/c++/4.4.7/bits/stl_vector.h' line='75' column='1' id='type-id-438'>
            <base-class access='public' layout-offset-in-bits='0' type-id='type-id-399'/>
            <data-member access='public' layout-offset-in-bits='0'>
              <var-decl name='_M_start' type-id='type-id-313' visibility='default' filepath='/usr/lib/gcc/x86_64-redhat-linux/4.4.7/../../../../include/c++/4.4.7/bits/stl_vector.h' line='76' column='1'/>
            </data-member>
            <data-member access='public' layout-offset-in-bits='64'>
              <var-decl name='_M_finish' type-id='type-id-313' visibility='default' filepath='/usr/lib/gcc/x86_64-redhat-linux/4.4.7/../../../../include/c++/4.4.7/bits/stl_vector.h' line='77' column='1'/>
            </data-member>
            <data-member access='public' layout-offset-in-bits='128'>
              <var-decl name='_M_end_of_storage' type-id='type-id-313' visibility='default' filepath='/usr/lib/gcc/x86_64-redhat-linux/4.4.7/../../../../include/c++/4.4.7/bits/stl_vector.h' line='78' column='1'/>
            </data-member>
            <member-function access='public' constructor='yes'>
              <function-decl name='_Vector_impl' filepath='/usr/lib/gcc/x86_64-redhat-linux/4.4.7/../../../../include/c++/4.4.7/bits/stl_vector.h' line='80' column='1' visibility='default' binding='global' size-in-bits='64'>
                <parameter type-id='type-id-439' is-artificial='yes'/>
                <return type-id='type-id-27'/>
              </function-decl>
            </member-function>
            <member-function access='public' constructor='yes'>
              <function-decl name='_Vector_impl' filepath='/usr/lib/gcc/x86_64-redhat-linux/4.4.7/../../../../include/c++/4.4.7/bits/stl_vector.h' line='84' column='1' visibility='default' binding='global' size-in-bits='64'>
                <parameter type-id='type-id-439' is-artificial='yes'/>
                <parameter type-id='type-id-401'/>
                <return type-id='type-id-27'/>
              </function-decl>
            </member-function>
          </class-decl>
        </member-type>
        <data-member access='public' layout-offset-in-bits='0'>
          <var-decl name='_M_impl' type-id='type-id-438' visibility='default' filepath='/usr/lib/gcc/x86_64-redhat-linux/4.4.7/../../../../include/c++/4.4.7/bits/stl_vector.h' line='136' column='1'/>
        </data-member>
        <member-function access='public'>
          <function-decl name='_Vector_base' filepath='/usr/lib/gcc/x86_64-redhat-linux/4.4.7/../../../../include/c++/4.4.7/bits/stl_vector.h' line='104' column='1' visibility='default' binding='global' size-in-bits='64'>
            <parameter type-id='type-id-436' is-artificial='yes'/>
            <return type-id='type-id-27'/>
          </function-decl>
        </member-function>
        <member-function access='public'>
          <function-decl name='_Vector_base' filepath='/usr/lib/gcc/x86_64-redhat-linux/4.4.7/../../../../include/c++/4.4.7/bits/stl_vector.h' line='107' column='1' visibility='default' binding='global' size-in-bits='64'>
            <parameter type-id='type-id-436' is-artificial='yes'/>
            <parameter type-id='type-id-401'/>
            <return type-id='type-id-27'/>
          </function-decl>
        </member-function>
        <member-function access='public'>
          <function-decl name='_Vector_base' filepath='/usr/lib/gcc/x86_64-redhat-linux/4.4.7/../../../../include/c++/4.4.7/bits/stl_vector.h' line='110' column='1' visibility='default' binding='global' size-in-bits='64'>
            <parameter type-id='type-id-436' is-artificial='yes'/>
            <parameter type-id='type-id-4'/>
            <parameter type-id='type-id-401'/>
            <return type-id='type-id-27'/>
          </function-decl>
        </member-function>
        <member-function access='public' destructor='yes'>
          <function-decl name='~_Vector_base' filepath='/usr/lib/gcc/x86_64-redhat-linux/4.4.7/../../../../include/c++/4.4.7/bits/stl_vector.h' line='131' column='1' visibility='default' binding='global' size-in-bits='64'>
            <parameter type-id='type-id-436' is-artificial='yes'/>
            <parameter type-id='type-id-17' is-artificial='yes'/>
            <return type-id='type-id-27'/>
          </function-decl>
        </member-function>
      </class-decl>
      <class-decl name='allocator&lt;char&gt;' size-in-bits='8' is-struct='yes' visibility='default' filepath='/usr/lib/gcc/x86_64-redhat-linux/4.4.7/../../../../include/c++/4.4.7/bits/stringfwd.h' line='45' column='1' id='type-id-392'>
        <base-class access='public' layout-offset-in-bits='0' type-id='type-id-359'/>
        <member-function access='public'>
          <function-decl name='allocator' filepath='/usr/lib/gcc/x86_64-redhat-linux/4.4.7/../../../../include/c++/4.4.7/bits/allocator.h' line='101' column='1' visibility='default' binding='global' size-in-bits='64'>
            <parameter type-id='type-id-440' is-artificial='yes'/>
            <return type-id='type-id-27'/>
          </function-decl>
        </member-function>
        <member-function access='public'>
          <function-decl name='allocator' filepath='/usr/lib/gcc/x86_64-redhat-linux/4.4.7/../../../../include/c++/4.4.7/bits/allocator.h' line='103' column='1' visibility='default' binding='global' size-in-bits='64'>
            <parameter type-id='type-id-440' is-artificial='yes'/>
            <parameter type-id='type-id-394'/>
            <return type-id='type-id-27'/>
          </function-decl>
        </member-function>
        <member-function access='public' destructor='yes'>
          <function-decl name='~allocator' filepath='/usr/lib/gcc/x86_64-redhat-linux/4.4.7/../../../../include/c++/4.4.7/bits/allocator.h' line='109' column='1' visibility='default' binding='global' size-in-bits='64'>
            <parameter type-id='type-id-440' is-artificial='yes'/>
            <parameter type-id='type-id-17' is-artificial='yes'/>
            <return type-id='type-id-27'/>
          </function-decl>
        </member-function>
      </class-decl>
      <class-decl name='allocator&lt;vtkPixelBufferObject*&gt;' size-in-bits='8' visibility='default' filepath='/usr/lib/gcc/x86_64-redhat-linux/4.4.7/../../../../include/c++/4.4.7/bits/allocator.h' line='87' column='1' id='type-id-399'>
        <base-class access='public' layout-offset-in-bits='0' type-id='type-id-364'/>
        <member-function access='private'>
          <function-decl name='allocator' filepath='/usr/lib/gcc/x86_64-redhat-linux/4.4.7/../../../../include/c++/4.4.7/bits/allocator.h' line='101' column='1' visibility='default' binding='global' size-in-bits='64'>
            <parameter type-id='type-id-444' is-artificial='yes'/>
            <return type-id='type-id-27'/>
          </function-decl>
        </member-function>
        <member-function access='private'>
          <function-decl name='allocator' filepath='/usr/lib/gcc/x86_64-redhat-linux/4.4.7/../../../../include/c++/4.4.7/bits/allocator.h' line='103' column='1' visibility='default' binding='global' size-in-bits='64'>
            <parameter type-id='type-id-444' is-artificial='yes'/>
            <parameter type-id='type-id-401'/>
            <return type-id='type-id-27'/>
          </function-decl>
        </member-function>
        <member-function access='private' destructor='yes'>
          <function-decl name='~allocator' filepath='/usr/lib/gcc/x86_64-redhat-linux/4.4.7/../../../../include/c++/4.4.7/bits/allocator.h' line='109' column='1' visibility='default' binding='global' size-in-bits='64'>
            <parameter type-id='type-id-444' is-artificial='yes'/>
            <parameter type-id='type-id-17' is-artificial='yes'/>
            <return type-id='type-id-27'/>
          </function-decl>
        </member-function>
      </class-decl>
      <class-decl name='forward_iterator_tag' size-in-bits='8' is-struct='yes' visibility='default' filepath='/usr/lib/gcc/x86_64-redhat-linux/4.4.7/../../../../include/c++/4.4.7/bits/stl_iterator_base_types.h' line='83' column='1' id='type-id-308'>
        <base-class access='public' layout-offset-in-bits='0' type-id='type-id-320'/>
      </class-decl>
      <class-decl name='__false_type' size-in-bits='8' is-struct='yes' visibility='default' filepath='/usr/lib/gcc/x86_64-redhat-linux/4.4.7/../../../../include/c++/4.4.7/bits/cpp_type_traits.h' line='79' column='1' id='type-id-307'/>
      <class-decl name='vector&lt;vtkPixelBufferObject*, std::allocator&lt;vtkPixelBufferObject*&gt; &gt;' size-in-bits='192' visibility='default' filepath='/usr/lib/gcc/x86_64-redhat-linux/4.4.7/../../../../include/c++/4.4.7/bits/stl_vector.h' line='171' column='1' id='type-id-426'>
        <base-class access='protected' layout-offset-in-bits='0' type-id='type-id-389'/>
        <member-function access='private'>
          <function-decl name='vector' filepath='/usr/lib/gcc/x86_64-redhat-linux/4.4.7/../../../../include/c++/4.4.7/bits/stl_vector.h' line='207' column='1' visibility='default' binding='global' size-in-bits='64'>
            <parameter type-id='type-id-462' is-artificial='yes'/>
            <return type-id='type-id-27'/>
          </function-decl>
        </member-function>
        <member-function access='private'>
          <function-decl name='vector' filepath='/usr/lib/gcc/x86_64-redhat-linux/4.4.7/../../../../include/c++/4.4.7/bits/stl_vector.h' line='215' column='1' visibility='default' binding='global' size-in-bits='64'>
            <parameter type-id='type-id-462' is-artificial='yes'/>
            <parameter type-id='type-id-401'/>
            <return type-id='type-id-27'/>
          </function-decl>
        </member-function>
        <member-function access='private'>
          <function-decl name='vector' filepath='/usr/lib/gcc/x86_64-redhat-linux/4.4.7/../../../../include/c++/4.4.7/bits/stl_vector.h' line='227' column='1' visibility='default' binding='global' size-in-bits='64'>
            <parameter type-id='type-id-462' is-artificial='yes'/>
            <parameter type-id='type-id-4'/>
            <parameter type-id='type-id-468'/>
            <parameter type-id='type-id-401'/>
            <return type-id='type-id-27'/>
          </function-decl>
        </member-function>
        <member-function access='private'>
          <function-decl name='vector' filepath='/usr/lib/gcc/x86_64-redhat-linux/4.4.7/../../../../include/c++/4.4.7/bits/stl_vector.h' line='241' column='1' visibility='default' binding='global' size-in-bits='64'>
            <parameter type-id='type-id-462' is-artificial='yes'/>
            <parameter type-id='type-id-428'/>
            <return type-id='type-id-27'/>
          </function-decl>
        </member-function>
        <member-function access='private' destructor='yes'>
          <function-decl name='~vector' filepath='/usr/lib/gcc/x86_64-redhat-linux/4.4.7/../../../../include/c++/4.4.7/bits/stl_vector.h' line='312' column='1' visibility='default' binding='global' size-in-bits='64'>
            <parameter type-id='type-id-462' is-artificial='yes'/>
            <parameter type-id='type-id-17' is-artificial='yes'/>
            <return type-id='type-id-27'/>
          </function-decl>
        </member-function>
      </class-decl>
      <class-decl name='__copy_move_backward&lt;false, true, std::random_access_iterator_tag&gt;' size-in-bits='8' is-struct='yes' visibility='default' filepath='/usr/lib/gcc/x86_64-redhat-linux/4.4.7/../../../../include/c++/4.4.7/bits/stl_algobase.h' line='511' column='1' id='type-id-480'>
        <member-function access='public' static='yes'>
          <function-decl name='__copy_move_b&lt;vtkPixelExtent*&gt;' filepath='/usr/lib/gcc/x86_64-redhat-linux/4.4.7/../../../../include/c++/4.4.7/bits/stl_algobase.h' line='572' column='1' visibility='default' binding='global' size-in-bits='64'>
            <parameter type-id='type-id-272'/>
            <parameter type-id='type-id-272'/>
            <parameter type-id='type-id-274'/>
            <return type-id='type-id-274'/>
          </function-decl>
        </member-function>
        <member-function access='public' static='yes'>
          <function-decl name='__copy_move_b&lt;float&gt;' filepath='/usr/lib/gcc/x86_64-redhat-linux/4.4.7/../../../../include/c++/4.4.7/bits/stl_algobase.h' line='572' column='1' visibility='default' binding='global' size-in-bits='64'>
            <parameter type-id='type-id-385'/>
            <parameter type-id='type-id-385'/>
            <parameter type-id='type-id-56'/>
            <return type-id='type-id-56'/>
          </function-decl>
        </member-function>
      </class-decl>
      <class-decl name='__niter_base&lt;vtkPixelExtent**, false&gt;' size-in-bits='8' is-struct='yes' visibility='default' filepath='/usr/lib/gcc/x86_64-redhat-linux/4.4.7/../../../../include/c++/4.4.7/bits/stl_algobase.h' line='267' column='1' id='type-id-481'/>
      <class-decl name='__miter_base&lt;vtkPixelExtent**, false&gt;' size-in-bits='8' is-struct='yes' visibility='default' filepath='/usr/lib/gcc/x86_64-redhat-linux/4.4.7/../../../../include/c++/4.4.7/bits/stl_algobase.h' line='285' column='1' id='type-id-482'/>
      <class-decl name='__copy_move&lt;false, true, std::random_access_iterator_tag&gt;' size-in-bits='8' is-struct='yes' visibility='default' filepath='/usr/lib/gcc/x86_64-redhat-linux/4.4.7/../../../../include/c++/4.4.7/bits/stl_algobase.h' line='307' column='1' id='type-id-483'>
        <member-function access='public' static='yes'>
          <function-decl name='__copy_m&lt;vtkPixelExtent*&gt;' filepath='/usr/lib/gcc/x86_64-redhat-linux/4.4.7/../../../../include/c++/4.4.7/bits/stl_algobase.h' line='376' column='1' visibility='default' binding='global' size-in-bits='64'>
            <parameter type-id='type-id-272'/>
            <parameter type-id='type-id-272'/>
            <parameter type-id='type-id-274'/>
            <return type-id='type-id-274'/>
          </function-decl>
        </member-function>
        <member-function access='public' static='yes'>
          <function-decl name='__copy_m&lt;float&gt;' filepath='/usr/lib/gcc/x86_64-redhat-linux/4.4.7/../../../../include/c++/4.4.7/bits/stl_algobase.h' line='376' column='1' visibility='default' binding='global' size-in-bits='64'>
            <parameter type-id='type-id-385'/>
            <parameter type-id='type-id-385'/>
            <parameter type-id='type-id-56'/>
            <return type-id='type-id-56'/>
          </function-decl>
        </member-function>
      </class-decl>
      <function-decl name='operator-&lt;vtkPixelExtent, vtkPixelExtent&amp;, vtkPixelExtent*&gt;' filepath='/usr/lib/gcc/x86_64-redhat-linux/4.4.7/../../../../include/c++/4.4.7/bits/stl_deque.h' line='319' column='1' visibility='default' binding='global' size-in-bits='64'>
        <parameter type-id='type-id-149'/>
        <parameter type-id='type-id-149'/>
        <return type-id='type-id-47'/>
      </function-decl>
      <function-decl name='_Destroy&lt;vtkPixelBufferObject**&gt;' filepath='/usr/lib/gcc/x86_64-redhat-linux/4.4.7/../../../../include/c++/4.4.7/bits/stl_construct.h' line='119' column='1' visibility='default' binding='global' size-in-bits='64'>
        <parameter type-id='type-id-313'/>
        <parameter type-id='type-id-313'/>
        <return type-id='type-id-27'/>
      </function-decl>
      <function-decl name='_Destroy&lt;vtkPixelBufferObject**, vtkPixelBufferObject*&gt;' filepath='/usr/lib/gcc/x86_64-redhat-linux/4.4.7/../../../../include/c++/4.4.7/bits/stl_construct.h' line='146' column='1' visibility='default' binding='global' size-in-bits='64'>
        <parameter type-id='type-id-313'/>
        <parameter type-id='type-id-313'/>
        <parameter type-id='type-id-443'/>
        <return type-id='type-id-27'/>
      </function-decl>
      <function-decl name='_Destroy&lt;float*&gt;' filepath='/usr/lib/gcc/x86_64-redhat-linux/4.4.7/../../../../include/c++/4.4.7/bits/stl_construct.h' line='119' column='1' visibility='default' binding='global' size-in-bits='64'>
        <parameter type-id='type-id-56'/>
        <parameter type-id='type-id-56'/>
        <return type-id='type-id-27'/>
      </function-decl>
      <function-decl name='__fill_n_a&lt;vtkPixelBufferObject**, long unsigned int, vtkPixelBufferObject*&gt;' filepath='/usr/lib/gcc/x86_64-redhat-linux/4.4.7/../../../../include/c++/4.4.7/bits/stl_algobase.h' line='754' column='1' visibility='default' binding='global' size-in-bits='64'>
        <parameter type-id='type-id-313'/>
        <parameter type-id='type-id-4'/>
        <parameter type-id='type-id-468'/>
        <return type-id='type-id-313'/>
      </function-decl>
      <function-decl name='fill_n&lt;vtkPixelBufferObject**, long unsigned int, vtkPixelBufferObject*&gt;' filepath='/usr/lib/gcc/x86_64-redhat-linux/4.4.7/../../../../include/c++/4.4.7/bits/stl_algobase.h' line='785' column='1' visibility='default' binding='global' size-in-bits='64'>
        <parameter type-id='type-id-313'/>
        <parameter type-id='type-id-4'/>
        <parameter type-id='type-id-468'/>
        <return type-id='type-id-313'/>
      </function-decl>
      <function-decl name='uninitialized_fill_n&lt;vtkPixelBufferObject**, long unsigned int, vtkPixelBufferObject*&gt;' filepath='/usr/lib/gcc/x86_64-redhat-linux/4.4.7/../../../../include/c++/4.4.7/bits/stl_uninitialized.h' line='217' column='1' visibility='default' binding='global' size-in-bits='64'>
        <parameter type-id='type-id-313'/>
        <parameter type-id='type-id-4'/>
        <parameter type-id='type-id-468'/>
        <return type-id='type-id-27'/>
      </function-decl>
      <function-decl name='__uninitialized_fill_n_a&lt;vtkPixelBufferObject**, long unsigned int, vtkPixelBufferObject*, vtkPixelBufferObject*&gt;' filepath='/usr/lib/gcc/x86_64-redhat-linux/4.4.7/../../../../include/c++/4.4.7/bits/stl_uninitialized.h' line='315' column='1' visibility='default' binding='global' size-in-bits='64'>
        <parameter type-id='type-id-313'/>
        <parameter type-id='type-id-4'/>
        <parameter type-id='type-id-468'/>
        <parameter type-id='type-id-443'/>
        <return type-id='type-id-27'/>
      </function-decl>
      <function-decl name='__fill_n_a&lt;float*, long unsigned int, float&gt;' filepath='/usr/lib/gcc/x86_64-redhat-linux/4.4.7/../../../../include/c++/4.4.7/bits/stl_algobase.h' line='754' column='1' visibility='default' binding='global' size-in-bits='64'>
        <parameter type-id='type-id-56'/>
        <parameter type-id='type-id-4'/>
        <parameter type-id='type-id-383'/>
        <return type-id='type-id-56'/>
      </function-decl>
      <function-decl name='fill_n&lt;float*, long unsigned int, float&gt;' filepath='/usr/lib/gcc/x86_64-redhat-linux/4.4.7/../../../../include/c++/4.4.7/bits/stl_algobase.h' line='785' column='1' visibility='default' binding='global' size-in-bits='64'>
        <parameter type-id='type-id-56'/>
        <parameter type-id='type-id-4'/>
        <parameter type-id='type-id-383'/>
        <return type-id='type-id-56'/>
      </function-decl>
      <function-decl name='uninitialized_fill_n&lt;float*, long unsigned int, float&gt;' filepath='/usr/lib/gcc/x86_64-redhat-linux/4.4.7/../../../../include/c++/4.4.7/bits/stl_uninitialized.h' line='217' column='1' visibility='default' binding='global' size-in-bits='64'>
        <parameter type-id='type-id-56'/>
        <parameter type-id='type-id-4'/>
        <parameter type-id='type-id-383'/>
        <return type-id='type-id-27'/>
      </function-decl>
      <function-decl name='__uninitialized_fill_n_a&lt;float*, long unsigned int, float, float&gt;' filepath='/usr/lib/gcc/x86_64-redhat-linux/4.4.7/../../../../include/c++/4.4.7/bits/stl_uninitialized.h' line='315' column='1' visibility='default' binding='global' size-in-bits='64'>
        <parameter type-id='type-id-56'/>
        <parameter type-id='type-id-4'/>
        <parameter type-id='type-id-383'/>
        <parameter type-id='type-id-441'/>
        <return type-id='type-id-27'/>
      </function-decl>
      <function-decl name='__iterator_category&lt;char*&gt;' filepath='/usr/lib/gcc/x86_64-redhat-linux/4.4.7/../../../../include/c++/4.4.7/bits/stl_iterator_base_types.h' line='160' column='1' visibility='default' binding='global' size-in-bits='64'>
        <parameter type-id='type-id-369'/>
        <return type-id='type-id-472'/>
      </function-decl>
      <function-decl name='__distance&lt;char*&gt;' filepath='/usr/lib/gcc/x86_64-redhat-linux/4.4.7/../../../../include/c++/4.4.7/bits/stl_iterator_base_funcs.h' line='87' column='1' visibility='default' binding='global' size-in-bits='64'>
        <parameter type-id='type-id-32'/>
        <parameter type-id='type-id-32'/>
        <parameter type-id='type-id-472'/>
        <return type-id='type-id-47'/>
      </function-decl>
      <function-decl name='_Destroy&lt;float*, float&gt;' filepath='/usr/lib/gcc/x86_64-redhat-linux/4.4.7/../../../../include/c++/4.4.7/bits/stl_construct.h' line='146' column='1' visibility='default' binding='global' size-in-bits='64'>
        <parameter type-id='type-id-56'/>
        <parameter type-id='type-id-56'/>
        <parameter type-id='type-id-441'/>
        <return type-id='type-id-27'/>
      </function-decl>
      <function-decl name='operator==&lt;char&gt;' filepath='/usr/lib/gcc/x86_64-redhat-linux/4.4.7/../../../../include/c++/4.4.7/bits/allocator.h' line='121' column='1' visibility='default' binding='global' size-in-bits='64'>
        <parameter type-id='type-id-394'/>
        <parameter type-id='type-id-394'/>
        <return type-id='type-id-1'/>
      </function-decl>
      <function-decl name='distance&lt;char*&gt;' filepath='/usr/lib/gcc/x86_64-redhat-linux/4.4.7/../../../../include/c++/4.4.7/bits/stl_iterator_base_funcs.h' line='110' column='1' visibility='default' binding='global' size-in-bits='64'>
        <parameter type-id='type-id-32'/>
        <parameter type-id='type-id-32'/>
        <return type-id='type-id-47'/>
      </function-decl>
      <function-decl name='operator|' filepath='/usr/lib/gcc/x86_64-redhat-linux/4.4.7/../../../../include/c++/4.4.7/bits/ios_base.h' line='128' column='1' visibility='default' binding='global' size-in-bits='64'>
        <parameter type-id='type-id-299'/>
        <parameter type-id='type-id-299'/>
        <return type-id='type-id-299'/>
      </function-decl>
      <function-decl name='__copy_move_backward_a&lt;false, vtkPixelExtent**, vtkPixelExtent**&gt;' filepath='/usr/lib/gcc/x86_64-redhat-linux/4.4.7/../../../../include/c++/4.4.7/bits/stl_algobase.h' line='582' column='1' visibility='default' binding='global' size-in-bits='64'>
        <parameter type-id='type-id-274'/>
        <parameter type-id='type-id-274'/>
        <parameter type-id='type-id-274'/>
        <return type-id='type-id-274'/>
      </function-decl>
      <function-decl name='__copy_move_backward_a2&lt;false, vtkPixelExtent**, vtkPixelExtent**&gt;' filepath='/usr/lib/gcc/x86_64-redhat-linux/4.4.7/../../../../include/c++/4.4.7/bits/stl_algobase.h' line='600' column='1' visibility='default' binding='global' size-in-bits='64'>
        <parameter type-id='type-id-274'/>
        <parameter type-id='type-id-274'/>
        <parameter type-id='type-id-274'/>
        <return type-id='type-id-274'/>
      </function-decl>
      <function-decl name='__copy_move_a&lt;false, vtkPixelExtent**, vtkPixelExtent**&gt;' filepath='/usr/lib/gcc/x86_64-redhat-linux/4.4.7/../../../../include/c++/4.4.7/bits/stl_algobase.h' line='386' column='1' visibility='default' binding='global' size-in-bits='64'>
        <parameter type-id='type-id-274'/>
        <parameter type-id='type-id-274'/>
        <parameter type-id='type-id-274'/>
        <return type-id='type-id-274'/>
      </function-decl>
      <function-decl name='__copy_move_a2&lt;false, vtkPixelExtent**, vtkPixelExtent**&gt;' filepath='/usr/lib/gcc/x86_64-redhat-linux/4.4.7/../../../../include/c++/4.4.7/bits/stl_algobase.h' line='431' column='1' visibility='default' binding='global' size-in-bits='64'>
        <parameter type-id='type-id-274'/>
        <parameter type-id='type-id-274'/>
        <parameter type-id='type-id-274'/>
        <return type-id='type-id-274'/>
      </function-decl>
      <function-decl name='copy_backward&lt;vtkPixelExtent**, vtkPixelExtent**&gt;' filepath='/usr/lib/gcc/x86_64-redhat-linux/4.4.7/../../../../include/c++/4.4.7/bits/stl_algobase.h' line='628' column='1' visibility='default' binding='global' size-in-bits='64'>
        <parameter type-id='type-id-274'/>
        <parameter type-id='type-id-274'/>
        <parameter type-id='type-id-274'/>
        <return type-id='type-id-274'/>
      </function-decl>
      <function-decl name='copy&lt;vtkPixelExtent**, vtkPixelExtent**&gt;' filepath='/usr/lib/gcc/x86_64-redhat-linux/4.4.7/../../../../include/c++/4.4.7/bits/stl_algobase.h' line='458' column='1' visibility='default' binding='global' size-in-bits='64'>
        <parameter type-id='type-id-274'/>
        <parameter type-id='type-id-274'/>
        <parameter type-id='type-id-274'/>
        <return type-id='type-id-274'/>
      </function-decl>
      <class-decl name='reverse_iterator&lt;__gnu_cxx::__normal_iterator&lt;char*, std::basic_string&lt;char, std::char_traits&lt;char&gt;, std::allocator&lt;char&gt; &gt; &gt; &gt;' visibility='default' is-declaration-only='yes' id='type-id-484'/>
      <class-decl name='reverse_iterator&lt;__gnu_cxx::__normal_iterator&lt;const char*, std::basic_string&lt;char, std::char_traits&lt;char&gt;, std::allocator&lt;char&gt; &gt; &gt; &gt;' visibility='default' is-declaration-only='yes' id='type-id-485'/>
      <class-decl name='reverse_iterator&lt;__gnu_cxx::__normal_iterator&lt;vtkPixelBufferObject**, std::vector&lt;vtkPixelBufferObject*, std::allocator&lt;vtkPixelBufferObject*&gt; &gt; &gt; &gt;' visibility='default' is-declaration-only='yes' id='type-id-486'/>
      <class-decl name='reverse_iterator&lt;__gnu_cxx::__normal_iterator&lt;vtkPixelBufferObject* const*, std::vector&lt;vtkPixelBufferObject*, std::allocator&lt;vtkPixelBufferObject*&gt; &gt; &gt; &gt;' visibility='default' is-declaration-only='yes' id='type-id-487'/>
      <class-decl name='reverse_iterator&lt;__gnu_cxx::__normal_iterator&lt;float*, std::vector&lt;float, std::allocator&lt;float&gt; &gt; &gt; &gt;' visibility='default' is-declaration-only='yes' id='type-id-488'/>
      <class-decl name='reverse_iterator&lt;__gnu_cxx::__normal_iterator&lt;const float*, std::vector&lt;float, std::allocator&lt;float&gt; &gt; &gt; &gt;' visibility='default' is-declaration-only='yes' id='type-id-489'/>
      <class-decl name='basic_streambuf&lt;char, std::char_traits&lt;char&gt; &gt;' is-struct='yes' visibility='default' is-declaration-only='yes' id='type-id-406'>
        <member-function access='protected'>
          <function-decl name='basic_streambuf' filepath='/usr/lib/gcc/x86_64-redhat-linux/4.4.7/../../../../include/c++/4.4.7/streambuf' line='439' column='1' visibility='default' binding='global' size-in-bits='64'>
            <parameter type-id='type-id-446' is-artificial='yes'/>
            <return type-id='type-id-27'/>
          </function-decl>
        </member-function>
        <member-function access='public' destructor='yes' vtable-offset='-1'>
          <function-decl name='~basic_streambuf' filepath='/usr/lib/gcc/x86_64-redhat-linux/4.4.7/../../../../include/c++/4.4.7/streambuf' line='192' column='1' visibility='default' binding='global' size-in-bits='64'>
            <parameter type-id='type-id-446' is-artificial='yes'/>
            <parameter type-id='type-id-17' is-artificial='yes'/>
            <return type-id='type-id-27'/>
          </function-decl>
        </member-function>
      </class-decl>
      <class-decl name='basic_ostringstream&lt;char, std::char_traits&lt;char&gt;, std::allocator&lt;char&gt; &gt;' is-struct='yes' visibility='default' is-declaration-only='yes' id='type-id-402'>
        <member-function access='public'>
          <function-decl name='basic_ostringstream' filepath='/usr/lib/gcc/x86_64-redhat-linux/4.4.7/../../../../include/c++/4.4.7/sstream' line='402' column='1' visibility='default' binding='global' size-in-bits='64'>
            <parameter type-id='type-id-445' is-artificial='yes'/>
            <parameter type-id='type-id-17' is-artificial='yes'/>
            <parameter type-id='type-id-316' is-artificial='yes'/>
            <parameter type-id='type-id-299'/>
            <return type-id='type-id-27'/>
          </function-decl>
        </member-function>
        <member-function access='public' destructor='yes' vtable-offset='-1'>
          <function-decl name='~basic_ostringstream' filepath='/usr/lib/gcc/x86_64-redhat-linux/4.4.7/../../../../include/c++/4.4.7/sstream' line='431' column='1' visibility='default' binding='global' size-in-bits='64'>
            <parameter type-id='type-id-445' is-artificial='yes'/>
            <parameter type-id='type-id-17' is-artificial='yes'/>
            <parameter type-id='type-id-316' is-artificial='yes'/>
            <return type-id='type-id-27'/>
          </function-decl>
        </member-function>
      </class-decl>
      <class-decl name='basic_stringbuf&lt;char, std::char_traits&lt;char&gt;, std::allocator&lt;char&gt; &gt;' is-struct='yes' visibility='default' is-declaration-only='yes' id='type-id-455'>
        <member-function access='public'>
          <function-decl name='basic_stringbuf' filepath='/usr/lib/gcc/x86_64-redhat-linux/4.4.7/../../../../include/c++/4.4.7/sstream' line='92' column='1' visibility='default' binding='global' size-in-bits='64'>
            <parameter type-id='type-id-456' is-artificial='yes'/>
            <parameter type-id='type-id-299'/>
            <return type-id='type-id-27'/>
          </function-decl>
        </member-function>
      </class-decl>
    </namespace-decl>
    <namespace-decl name='__gnu_cxx'>
      <class-decl name='__normal_iterator&lt;float*, std::vector&lt;float, std::allocator&lt;float&gt; &gt; &gt;' size-in-bits='64' visibility='default' filepath='/usr/lib/gcc/x86_64-redhat-linux/4.4.7/../../../../include/c++/4.4.7/bits/stl_iterator.h' line='669' column='1' id='type-id-477'>
        <data-member access='protected' layout-offset-in-bits='0'>
          <var-decl name='_M_current' type-id='type-id-56' visibility='default' filepath='/usr/lib/gcc/x86_64-redhat-linux/4.4.7/../../../../include/c++/4.4.7/bits/stl_iterator.h' line='671' column='1'/>
        </data-member>
        <member-function access='private'>
          <function-decl name='__normal_iterator' filepath='/usr/lib/gcc/x86_64-redhat-linux/4.4.7/../../../../include/c++/4.4.7/bits/stl_iterator.h' line='683' column='1' visibility='default' binding='global' size-in-bits='64'>
            <parameter type-id='type-id-490' is-artificial='yes'/>
            <return type-id='type-id-27'/>
          </function-decl>
        </member-function>
        <member-function access='private'>
          <function-decl name='__normal_iterator' filepath='/usr/lib/gcc/x86_64-redhat-linux/4.4.7/../../../../include/c++/4.4.7/bits/stl_iterator.h' line='686' column='1' visibility='default' binding='global' size-in-bits='64'>
            <parameter type-id='type-id-490' is-artificial='yes'/>
            <parameter type-id='type-id-491'/>
            <return type-id='type-id-27'/>
          </function-decl>
        </member-function>
      </class-decl>
      <class-decl name='new_allocator&lt;float&gt;' size-in-bits='8' visibility='default' filepath='/usr/lib/gcc/x86_64-redhat-linux/4.4.7/../../../../include/c++/4.4.7/ext/new_allocator.h' line='52' column='1' id='type-id-361'>
        <member-function access='private'>
          <function-decl name='new_allocator' filepath='/usr/lib/gcc/x86_64-redhat-linux/4.4.7/../../../../include/c++/4.4.7/ext/new_allocator.h' line='66' column='1' visibility='default' binding='global' size-in-bits='64'>
            <parameter type-id='type-id-362' is-artificial='yes'/>
            <return type-id='type-id-27'/>
          </function-decl>
        </member-function>
        <member-function access='private'>
          <function-decl name='new_allocator' filepath='/usr/lib/gcc/x86_64-redhat-linux/4.4.7/../../../../include/c++/4.4.7/ext/new_allocator.h' line='68' column='1' visibility='default' binding='global' size-in-bits='64'>
            <parameter type-id='type-id-362' is-artificial='yes'/>
            <parameter type-id='type-id-374'/>
            <return type-id='type-id-27'/>
          </function-decl>
        </member-function>
        <member-function access='private' destructor='yes'>
          <function-decl name='~new_allocator' filepath='/usr/lib/gcc/x86_64-redhat-linux/4.4.7/../../../../include/c++/4.4.7/ext/new_allocator.h' line='73' column='1' visibility='default' binding='global' size-in-bits='64'>
            <parameter type-id='type-id-362' is-artificial='yes'/>
            <parameter type-id='type-id-17' is-artificial='yes'/>
            <return type-id='type-id-27'/>
          </function-decl>
        </member-function>
      </class-decl>
      <class-decl name='new_allocator&lt;char&gt;' size-in-bits='8' visibility='default' filepath='/usr/lib/gcc/x86_64-redhat-linux/4.4.7/../../../../include/c++/4.4.7/ext/new_allocator.h' line='52' column='1' id='type-id-359'>
        <member-function access='private'>
          <function-decl name='new_allocator' filepath='/usr/lib/gcc/x86_64-redhat-linux/4.4.7/../../../../include/c++/4.4.7/ext/new_allocator.h' line='66' column='1' visibility='default' binding='global' size-in-bits='64'>
            <parameter type-id='type-id-360' is-artificial='yes'/>
            <return type-id='type-id-27'/>
          </function-decl>
        </member-function>
        <member-function access='private'>
          <function-decl name='new_allocator' filepath='/usr/lib/gcc/x86_64-redhat-linux/4.4.7/../../../../include/c++/4.4.7/ext/new_allocator.h' line='68' column='1' visibility='default' binding='global' size-in-bits='64'>
            <parameter type-id='type-id-360' is-artificial='yes'/>
            <parameter type-id='type-id-371'/>
            <return type-id='type-id-27'/>
          </function-decl>
        </member-function>
        <member-function access='private' destructor='yes'>
          <function-decl name='~new_allocator' filepath='/usr/lib/gcc/x86_64-redhat-linux/4.4.7/../../../../include/c++/4.4.7/ext/new_allocator.h' line='73' column='1' visibility='default' binding='global' size-in-bits='64'>
            <parameter type-id='type-id-360' is-artificial='yes'/>
            <parameter type-id='type-id-17' is-artificial='yes'/>
            <return type-id='type-id-27'/>
          </function-decl>
        </member-function>
      </class-decl>
      <class-decl name='new_allocator&lt;vtkPixelBufferObject*&gt;' size-in-bits='8' visibility='default' filepath='/usr/lib/gcc/x86_64-redhat-linux/4.4.7/../../../../include/c++/4.4.7/ext/new_allocator.h' line='52' column='1' id='type-id-364'>
        <member-function access='private'>
          <function-decl name='new_allocator' filepath='/usr/lib/gcc/x86_64-redhat-linux/4.4.7/../../../../include/c++/4.4.7/ext/new_allocator.h' line='66' column='1' visibility='default' binding='global' size-in-bits='64'>
            <parameter type-id='type-id-365' is-artificial='yes'/>
            <return type-id='type-id-27'/>
          </function-decl>
        </member-function>
        <member-function access='private'>
          <function-decl name='new_allocator' filepath='/usr/lib/gcc/x86_64-redhat-linux/4.4.7/../../../../include/c++/4.4.7/ext/new_allocator.h' line='68' column='1' visibility='default' binding='global' size-in-bits='64'>
            <parameter type-id='type-id-365' is-artificial='yes'/>
            <parameter type-id='type-id-378'/>
            <return type-id='type-id-27'/>
          </function-decl>
        </member-function>
        <member-function access='private' destructor='yes'>
          <function-decl name='~new_allocator' filepath='/usr/lib/gcc/x86_64-redhat-linux/4.4.7/../../../../include/c++/4.4.7/ext/new_allocator.h' line='73' column='1' visibility='default' binding='global' size-in-bits='64'>
            <parameter type-id='type-id-365' is-artificial='yes'/>
            <parameter type-id='type-id-17' is-artificial='yes'/>
            <return type-id='type-id-27'/>
          </function-decl>
        </member-function>
      </class-decl>
      <function-decl name='__is_null_pointer&lt;char&gt;' filepath='/usr/lib/gcc/x86_64-redhat-linux/4.4.7/../../../../include/c++/4.4.7/ext/type_traits.h' line='148' column='1' visibility='default' binding='global' size-in-bits='64'>
        <parameter type-id='type-id-32'/>
        <return type-id='type-id-1'/>
      </function-decl>
      <class-decl name='__normal_iterator&lt;char*, std::basic_string&lt;char, std::char_traits&lt;char&gt;, std::allocator&lt;char&gt; &gt; &gt;' visibility='default' is-declaration-only='yes' id='type-id-492'/>
      <class-decl name='__normal_iterator&lt;const char*, std::basic_string&lt;char, std::char_traits&lt;char&gt;, std::allocator&lt;char&gt; &gt; &gt;' visibility='default' is-declaration-only='yes' id='type-id-493'/>
      <class-decl name='__normal_iterator&lt;vtkPixelBufferObject**, std::vector&lt;vtkPixelBufferObject*, std::allocator&lt;vtkPixelBufferObject*&gt; &gt; &gt;' visibility='default' is-declaration-only='yes' id='type-id-494'/>
      <class-decl name='__normal_iterator&lt;vtkPixelBufferObject* const*, std::vector&lt;vtkPixelBufferObject*, std::allocator&lt;vtkPixelBufferObject*&gt; &gt; &gt;' visibility='default' is-declaration-only='yes' id='type-id-495'/>
      <class-decl name='__normal_iterator&lt;const float*, std::vector&lt;float, std::allocator&lt;float&gt; &gt; &gt;' visibility='default' is-declaration-only='yes' id='type-id-496'/>
    </namespace-decl>
    <namespace-decl name='vtkLineIntegralConvolution2DUtil'>
      <function-decl name='GetVectorLookupProgram' filepath='/tmp/legendre/spack-stage/spack-stage-R_crTC/VTK-6.1.0/Rendering/LIC/vtkLineIntegralConvolution2D.cxx' line='814' column='1' visibility='default' binding='global' size-in-bits='64'>
        <parameter type-id='type-id-17'/>
        <return type-id='type-id-68'/>
      </function-decl>
    </namespace-decl>
    <pointer-type-def type-id='type-id-477' size-in-bits='64' id='type-id-490'/>
    <class-decl name='vtkFrameBufferObject2' visibility='default' is-declaration-only='yes' id='type-id-464'/>
    <class-decl name='vtkObject' visibility='default' is-declaration-only='yes' id='type-id-348'/>
    <reference-type-def kind='lvalue' type-id='type-id-497' size-in-bits='64' id='type-id-491'/>
    <qualified-type-def type-id='type-id-56' const='yes' id='type-id-497'/>
  </abi-instr>
  <abi-instr address-size='64' path='/tmp/legendre/spack-stage/spack-stage-R_crTC/VTK-6.1.0/Rendering/LIC/vtkPixelTransfer.cxx' comp-dir-path='/tmp/legendre/spack-stage/spack-stage-R_crTC/VTK-6.1.0/spack-build/Rendering/LIC' language='LANG_C_plus_plus'>
    <pointer-type-def type-id='type-id-110' size-in-bits='64' id='type-id-112'/>
  </abi-instr>
  <abi-instr address-size='64' path='/tmp/legendre/spack-stage/spack-stage-R_crTC/VTK-6.1.0/Rendering/LIC/vtkStructuredGridLIC2D.cxx' comp-dir-path='/tmp/legendre/spack-stage/spack-stage-R_crTC/VTK-6.1.0/spack-build/Rendering/LIC' language='LANG_C_plus_plus'>
    <class-decl name='vtkStructuredGridLIC2D' size-in-bits='1472' visibility='default' filepath='/tmp/legendre/spack-stage/spack-stage-R_crTC/VTK-6.1.0/Rendering/LIC/vtkStructuredGridLIC2D.h' line='51' column='1' id='type-id-498'>
      <base-class access='public' layout-offset-in-bits='0' type-id='type-id-499'/>
      <data-member access='protected' layout-offset-in-bits='1024'>
        <var-decl name='Steps' type-id='type-id-17' visibility='default' filepath='/tmp/legendre/spack-stage/spack-stage-R_crTC/VTK-6.1.0/Rendering/LIC/vtkStructuredGridLIC2D.h' line='149' column='1'/>
      </data-member>
      <data-member access='protected' layout-offset-in-bits='1088'>
        <var-decl name='StepSize' type-id='type-id-15' visibility='default' filepath='/tmp/legendre/spack-stage/spack-stage-R_crTC/VTK-6.1.0/Rendering/LIC/vtkStructuredGridLIC2D.h' line='150' column='1'/>
      </data-member>
      <data-member access='protected' layout-offset-in-bits='1152'>
        <var-decl name='Magnification' type-id='type-id-17' visibility='default' filepath='/tmp/legendre/spack-stage/spack-stage-R_crTC/VTK-6.1.0/Rendering/LIC/vtkStructuredGridLIC2D.h' line='151' column='1'/>
      </data-member>
      <data-member access='protected' layout-offset-in-bits='1184'>
        <var-decl name='OpenGLExtensionsSupported' type-id='type-id-17' visibility='default' filepath='/tmp/legendre/spack-stage/spack-stage-R_crTC/VTK-6.1.0/Rendering/LIC/vtkStructuredGridLIC2D.h' line='152' column='1'/>
      </data-member>
      <data-member access='protected' layout-offset-in-bits='1216'>
        <var-decl name='Context' type-id='type-id-73' visibility='default' filepath='/tmp/legendre/spack-stage/spack-stage-R_crTC/VTK-6.1.0/Rendering/LIC/vtkStructuredGridLIC2D.h' line='153' column='1'/>
      </data-member>
      <data-member access='protected' layout-offset-in-bits='1280'>
        <var-decl name='NoiseSource' type-id='type-id-102' visibility='default' filepath='/tmp/legendre/spack-stage/spack-stage-R_crTC/VTK-6.1.0/Rendering/LIC/vtkStructuredGridLIC2D.h' line='155' column='1'/>
      </data-member>
      <data-member access='protected' layout-offset-in-bits='1344'>
        <var-decl name='OwnWindow' type-id='type-id-1' visibility='default' filepath='/tmp/legendre/spack-stage/spack-stage-R_crTC/VTK-6.1.0/Rendering/LIC/vtkStructuredGridLIC2D.h' line='156' column='1'/>
      </data-member>
      <data-member access='protected' layout-offset-in-bits='1376'>
        <var-decl name='FBOSuccess' type-id='type-id-17' visibility='default' filepath='/tmp/legendre/spack-stage/spack-stage-R_crTC/VTK-6.1.0/Rendering/LIC/vtkStructuredGridLIC2D.h' line='157' column='1'/>
      </data-member>
      <data-member access='protected' layout-offset-in-bits='1408'>
        <var-decl name='LICSuccess' type-id='type-id-17' visibility='default' filepath='/tmp/legendre/spack-stage/spack-stage-R_crTC/VTK-6.1.0/Rendering/LIC/vtkStructuredGridLIC2D.h' line='158' column='1'/>
      </data-member>
      <member-function access='protected' constructor='yes'>
        <function-decl name='vtkStructuredGridLIC2D' mangled-name='_ZN22vtkStructuredGridLIC2DC1Ev' filepath='/tmp/legendre/spack-stage/spack-stage-R_crTC/VTK-6.1.0/Rendering/LIC/vtkStructuredGridLIC2D.cxx' line='52' column='1' visibility='default' binding='global' size-in-bits='64' elf-symbol-id='_ZN22vtkStructuredGridLIC2DC1Ev'>
          <parameter type-id='type-id-500' is-artificial='yes'/>
          <return type-id='type-id-27'/>
        </function-decl>
      </member-function>
      <member-function access='private' constructor='yes'>
        <function-decl name='vtkStructuredGridLIC2D' filepath='/tmp/legendre/spack-stage/spack-stage-R_crTC/VTK-6.1.0/Rendering/LIC/vtkStructuredGridLIC2D.h' line='161' column='1' visibility='default' binding='global' size-in-bits='64'>
          <parameter type-id='type-id-500' is-artificial='yes'/>
          <parameter type-id='type-id-501'/>
          <return type-id='type-id-27'/>
        </function-decl>
      </member-function>
      <member-function access='private'>
        <function-decl name='GetContext' mangled-name='_ZN22vtkStructuredGridLIC2D10GetContextEv' filepath='/tmp/legendre/spack-stage/spack-stage-R_crTC/VTK-6.1.0/Rendering/LIC/vtkStructuredGridLIC2D.cxx' line='79' column='1' visibility='default' binding='global' size-in-bits='64' elf-symbol-id='_ZN22vtkStructuredGridLIC2D10GetContextEv'>
          <parameter type-id='type-id-502' name='this' is-artificial='yes'/>
          <return type-id='type-id-76'/>
        </function-decl>
      </member-function>
      <member-function access='protected'>
        <function-decl name='AllocateScalars' mangled-name='_ZN22vtkStructuredGridLIC2D15AllocateScalarsEP17vtkStructuredGridP14vtkInformation' filepath='/tmp/legendre/spack-stage/spack-stage-R_crTC/VTK-6.1.0/Rendering/LIC/vtkStructuredGridLIC2D.cxx' line='309' column='1' visibility='default' binding='global' size-in-bits='64' elf-symbol-id='_ZN22vtkStructuredGridLIC2D15AllocateScalarsEP17vtkStructuredGridP14vtkInformation'>
          <parameter type-id='type-id-502' name='this' is-artificial='yes'/>
          <parameter type-id='type-id-503' name='sg' filepath='/tmp/legendre/spack-stage/spack-stage-R_crTC/VTK-6.1.0/Rendering/LIC/vtkStructuredGridLIC2D.cxx' line='309' column='1'/>
          <parameter type-id='type-id-106' name='outInfo' filepath='/tmp/legendre/spack-stage/spack-stage-R_crTC/VTK-6.1.0/Rendering/LIC/vtkStructuredGridLIC2D.cxx' line='310' column='1'/>
          <return type-id='type-id-27'/>
        </function-decl>
      </member-function>
      <member-function access='private'>
        <function-decl name='SetContext' mangled-name='_ZN22vtkStructuredGridLIC2D10SetContextEP15vtkRenderWindow' filepath='/tmp/legendre/spack-stage/spack-stage-R_crTC/VTK-6.1.0/Rendering/LIC/vtkStructuredGridLIC2D.cxx' line='85' column='1' visibility='default' binding='global' size-in-bits='64' elf-symbol-id='_ZN22vtkStructuredGridLIC2D10SetContextEP15vtkRenderWindow'>
          <parameter type-id='type-id-502' name='this' is-artificial='yes'/>
          <parameter type-id='type-id-76' name='context' filepath='/tmp/legendre/spack-stage/spack-stage-R_crTC/VTK-6.1.0/Rendering/LIC/vtkStructuredGridLIC2D.cxx' line='85' column='1'/>
          <return type-id='type-id-17'/>
        </function-decl>
      </member-function>
      <member-function access='private' static='yes'>
        <function-decl name='New' mangled-name='_ZN22vtkStructuredGridLIC2D3NewEv' filepath='/tmp/legendre/spack-stage/spack-stage-R_crTC/VTK-6.1.0/Rendering/LIC/vtkStructuredGridLIC2D.cxx' line='50' column='1' visibility='default' binding='global' size-in-bits='64' elf-symbol-id='_ZN22vtkStructuredGridLIC2D3NewEv'>
          <return type-id='type-id-500'/>
        </function-decl>
      </member-function>
      <member-function access='protected'>
        <function-decl name='AllocateOutputData' mangled-name='_ZN22vtkStructuredGridLIC2D18AllocateOutputDataEP13vtkDataObjectP14vtkInformation' filepath='/tmp/legendre/spack-stage/spack-stage-R_crTC/VTK-6.1.0/Rendering/LIC/vtkStructuredGridLIC2D.cxx' line='288' column='1' visibility='default' binding='global' size-in-bits='64' elf-symbol-id='_ZN22vtkStructuredGridLIC2D18AllocateOutputDataEP13vtkDataObjectP14vtkInformation'>
          <parameter type-id='type-id-502' name='this' is-artificial='yes'/>
          <parameter type-id='type-id-254' name='output' filepath='/tmp/legendre/spack-stage/spack-stage-R_crTC/VTK-6.1.0/Rendering/LIC/vtkStructuredGridLIC2D.cxx' line='288' column='1'/>
          <parameter type-id='type-id-106' name='outInfo' filepath='/tmp/legendre/spack-stage/spack-stage-R_crTC/VTK-6.1.0/Rendering/LIC/vtkStructuredGridLIC2D.cxx' line='289' column='1'/>
          <return type-id='type-id-27'/>
        </function-decl>
      </member-function>
      <member-function access='protected' destructor='yes' vtable-offset='-1'>
        <function-decl name='~vtkStructuredGridLIC2D' mangled-name='_ZN22vtkStructuredGridLIC2DD1Ev' filepath='/tmp/legendre/spack-stage/spack-stage-R_crTC/VTK-6.1.0/Rendering/LIC/vtkStructuredGridLIC2D.cxx' line='72' column='1' visibility='default' binding='global' size-in-bits='64' elf-symbol-id='_ZN22vtkStructuredGridLIC2DD1Ev'>
          <parameter type-id='type-id-500' is-artificial='yes'/>
          <parameter type-id='type-id-17'/>
          <return type-id='type-id-27'/>
        </function-decl>
      </member-function>
      <member-function access='private' vtable-offset='0'>
        <function-decl name='GetClassNameInternal' mangled-name='_ZNK22vtkStructuredGridLIC2D20GetClassNameInternalEv' filepath='/tmp/legendre/spack-stage/spack-stage-R_crTC/VTK-6.1.0/Rendering/LIC/vtkStructuredGridLIC2D.h' line='54' column='1' visibility='default' binding='global' size-in-bits='64'>
          <parameter type-id='type-id-504' is-artificial='yes'/>
          <return type-id='type-id-68'/>
        </function-decl>
      </member-function>
      <member-function access='private' vtable-offset='1'>
        <function-decl name='IsA' mangled-name='_ZN22vtkStructuredGridLIC2D3IsAEPKc' filepath='/tmp/legendre/spack-stage/spack-stage-R_crTC/VTK-6.1.0/Rendering/LIC/vtkStructuredGridLIC2D.h' line='54' column='1' visibility='default' binding='global' size-in-bits='64'>
          <parameter type-id='type-id-500' is-artificial='yes'/>
          <parameter type-id='type-id-68'/>
          <return type-id='type-id-17'/>
        </function-decl>
      </member-function>
      <member-function access='private' vtable-offset='4'>
        <function-decl name='PrintSelf' mangled-name='_ZN22vtkStructuredGridLIC2D9PrintSelfERSo9vtkIndent' filepath='/tmp/legendre/spack-stage/spack-stage-R_crTC/VTK-6.1.0/Rendering/LIC/vtkStructuredGridLIC2D.cxx' line='840' column='1' visibility='default' binding='global' size-in-bits='64' elf-symbol-id='_ZN22vtkStructuredGridLIC2D9PrintSelfERSo9vtkIndent'>
          <parameter type-id='type-id-500' is-artificial='yes'/>
          <parameter type-id='type-id-69'/>
          <parameter type-id='type-id-70'/>
          <return type-id='type-id-27'/>
        </function-decl>
      </member-function>
      <member-function access='protected' vtable-offset='15'>
        <function-decl name='NewInstanceInternal' mangled-name='_ZNK22vtkStructuredGridLIC2D19NewInstanceInternalEv' filepath='/tmp/legendre/spack-stage/spack-stage-R_crTC/VTK-6.1.0/Rendering/LIC/vtkStructuredGridLIC2D.h' line='54' column='1' visibility='default' binding='global' size-in-bits='64'>
          <parameter type-id='type-id-504' is-artificial='yes'/>
          <return type-id='type-id-71'/>
        </function-decl>
      </member-function>
      <member-function access='protected' vtable-offset='60'>
        <function-decl name='FillInputPortInformation' mangled-name='_ZN22vtkStructuredGridLIC2D24FillInputPortInformationEiP14vtkInformation' filepath='/tmp/legendre/spack-stage/spack-stage-R_crTC/VTK-6.1.0/Rendering/LIC/vtkStructuredGridLIC2D.cxx' line='142' column='1' visibility='default' binding='global' size-in-bits='64' elf-symbol-id='_ZN22vtkStructuredGridLIC2D24FillInputPortInformationEiP14vtkInformation'>
          <parameter type-id='type-id-500' is-artificial='yes'/>
          <parameter type-id='type-id-17'/>
          <parameter type-id='type-id-106'/>
          <return type-id='type-id-17'/>
        </function-decl>
      </member-function>
      <member-function access='protected' vtable-offset='61'>
        <function-decl name='FillOutputPortInformation' mangled-name='_ZN22vtkStructuredGridLIC2D25FillOutputPortInformationEiP14vtkInformation' filepath='/tmp/legendre/spack-stage/spack-stage-R_crTC/VTK-6.1.0/Rendering/LIC/vtkStructuredGridLIC2D.cxx' line='167' column='1' visibility='default' binding='global' size-in-bits='64' elf-symbol-id='_ZN22vtkStructuredGridLIC2D25FillOutputPortInformationEiP14vtkInformation'>
          <parameter type-id='type-id-500' is-artificial='yes'/>
          <parameter type-id='type-id-17'/>
          <parameter type-id='type-id-106'/>
          <return type-id='type-id-17'/>
        </function-decl>
      </member-function>
      <member-function access='protected' vtable-offset='69'>
        <function-decl name='RequestInformation' mangled-name='_ZN22vtkStructuredGridLIC2D18RequestInformationEP14vtkInformationPP20vtkInformationVectorS3_' filepath='/tmp/legendre/spack-stage/spack-stage-R_crTC/VTK-6.1.0/Rendering/LIC/vtkStructuredGridLIC2D.cxx' line='186' column='1' visibility='default' binding='global' size-in-bits='64' elf-symbol-id='_ZN22vtkStructuredGridLIC2D18RequestInformationEP14vtkInformationPP20vtkInformationVectorS3_'>
          <parameter type-id='type-id-500' is-artificial='yes'/>
          <parameter type-id='type-id-106'/>
          <parameter type-id='type-id-107'/>
          <parameter type-id='type-id-108'/>
          <return type-id='type-id-17'/>
        </function-decl>
      </member-function>
      <member-function access='protected' vtable-offset='70'>
        <function-decl name='RequestData' mangled-name='_ZN22vtkStructuredGridLIC2D11RequestDataEP14vtkInformationPP20vtkInformationVectorS3_' filepath='/tmp/legendre/spack-stage/spack-stage-R_crTC/VTK-6.1.0/Rendering/LIC/vtkStructuredGridLIC2D.cxx' line='370' column='1' visibility='default' binding='global' size-in-bits='64' elf-symbol-id='_ZN22vtkStructuredGridLIC2D11RequestDataEP14vtkInformationPP20vtkInformationVectorS3_'>
          <parameter type-id='type-id-500' is-artificial='yes'/>
          <parameter type-id='type-id-106'/>
          <parameter type-id='type-id-107'/>
          <parameter type-id='type-id-108'/>
          <return type-id='type-id-17'/>
        </function-decl>
      </member-function>
      <member-function access='protected' vtable-offset='71'>
        <function-decl name='RequestUpdateExtent' mangled-name='_ZN22vtkStructuredGridLIC2D19RequestUpdateExtentEP14vtkInformationPP20vtkInformationVectorS3_' filepath='/tmp/legendre/spack-stage/spack-stage-R_crTC/VTK-6.1.0/Rendering/LIC/vtkStructuredGridLIC2D.cxx' line='235' column='1' visibility='default' binding='global' size-in-bits='64' elf-symbol-id='_ZN22vtkStructuredGridLIC2D19RequestUpdateExtentEP14vtkInformationPP20vtkInformationVectorS3_'>
          <parameter type-id='type-id-500' is-artificial='yes'/>
          <parameter type-id='type-id-106'/>
          <parameter type-id='type-id-107'/>
          <parameter type-id='type-id-108'/>
          <return type-id='type-id-17'/>
        </function-decl>
      </member-function>
      <member-function access='private' vtable-offset='72'>
        <function-decl name='SetSteps' mangled-name='_ZN22vtkStructuredGridLIC2D8SetStepsEi' filepath='/tmp/legendre/spack-stage/spack-stage-R_crTC/VTK-6.1.0/Rendering/LIC/vtkStructuredGridLIC2D.h' line='70' column='1' visibility='default' binding='global' size-in-bits='64'>
          <parameter type-id='type-id-500' is-artificial='yes'/>
          <parameter type-id='type-id-17'/>
          <return type-id='type-id-27'/>
        </function-decl>
      </member-function>
      <member-function access='private' vtable-offset='73'>
        <function-decl name='GetSteps' mangled-name='_ZN22vtkStructuredGridLIC2D8GetStepsEv' filepath='/tmp/legendre/spack-stage/spack-stage-R_crTC/VTK-6.1.0/Rendering/LIC/vtkStructuredGridLIC2D.h' line='71' column='1' visibility='default' binding='global' size-in-bits='64'>
          <parameter type-id='type-id-500' is-artificial='yes'/>
          <return type-id='type-id-17'/>
        </function-decl>
      </member-function>
      <member-function access='private' vtable-offset='74'>
        <function-decl name='SetStepSize' mangled-name='_ZN22vtkStructuredGridLIC2D11SetStepSizeEd' filepath='/tmp/legendre/spack-stage/spack-stage-R_crTC/VTK-6.1.0/Rendering/LIC/vtkStructuredGridLIC2D.h' line='84' column='1' visibility='default' binding='global' size-in-bits='64'>
          <parameter type-id='type-id-500' is-artificial='yes'/>
          <parameter type-id='type-id-15'/>
          <return type-id='type-id-27'/>
        </function-decl>
      </member-function>
      <member-function access='private' vtable-offset='75'>
        <function-decl name='GetStepSize' mangled-name='_ZN22vtkStructuredGridLIC2D11GetStepSizeEv' filepath='/tmp/legendre/spack-stage/spack-stage-R_crTC/VTK-6.1.0/Rendering/LIC/vtkStructuredGridLIC2D.h' line='85' column='1' visibility='default' binding='global' size-in-bits='64'>
          <parameter type-id='type-id-500' is-artificial='yes'/>
          <return type-id='type-id-15'/>
        </function-decl>
      </member-function>
      <member-function access='private' vtable-offset='76'>
        <function-decl name='SetMagnification' mangled-name='_ZN22vtkStructuredGridLIC2D16SetMagnificationEi' filepath='/tmp/legendre/spack-stage/spack-stage-R_crTC/VTK-6.1.0/Rendering/LIC/vtkStructuredGridLIC2D.h' line='89' column='1' visibility='default' binding='global' size-in-bits='64'>
          <parameter type-id='type-id-500' is-artificial='yes'/>
          <parameter type-id='type-id-17'/>
          <return type-id='type-id-27'/>
        </function-decl>
      </member-function>
      <member-function access='private' vtable-offset='77'>
        <function-decl name='GetMagnificationMinValue' mangled-name='_ZN22vtkStructuredGridLIC2D24GetMagnificationMinValueEv' filepath='/tmp/legendre/spack-stage/spack-stage-R_crTC/VTK-6.1.0/Rendering/LIC/vtkStructuredGridLIC2D.h' line='89' column='1' visibility='default' binding='global' size-in-bits='64'>
          <parameter type-id='type-id-500' is-artificial='yes'/>
          <return type-id='type-id-17'/>
        </function-decl>
      </member-function>
      <member-function access='private' vtable-offset='78'>
        <function-decl name='GetMagnificationMaxValue' mangled-name='_ZN22vtkStructuredGridLIC2D24GetMagnificationMaxValueEv' filepath='/tmp/legendre/spack-stage/spack-stage-R_crTC/VTK-6.1.0/Rendering/LIC/vtkStructuredGridLIC2D.h' line='89' column='1' visibility='default' binding='global' size-in-bits='64'>
          <parameter type-id='type-id-500' is-artificial='yes'/>
          <return type-id='type-id-17'/>
        </function-decl>
      </member-function>
      <member-function access='private' vtable-offset='79'>
        <function-decl name='GetMagnification' mangled-name='_ZN22vtkStructuredGridLIC2D16GetMagnificationEv' filepath='/tmp/legendre/spack-stage/spack-stage-R_crTC/VTK-6.1.0/Rendering/LIC/vtkStructuredGridLIC2D.h' line='90' column='1' visibility='default' binding='global' size-in-bits='64'>
          <parameter type-id='type-id-500' is-artificial='yes'/>
          <return type-id='type-id-17'/>
        </function-decl>
      </member-function>
      <member-function access='private' vtable-offset='80'>
        <function-decl name='GetOpenGLExtensionsSupported' mangled-name='_ZN22vtkStructuredGridLIC2D28GetOpenGLExtensionsSupportedEv' filepath='/tmp/legendre/spack-stage/spack-stage-R_crTC/VTK-6.1.0/Rendering/LIC/vtkStructuredGridLIC2D.h' line='94' column='1' visibility='default' binding='global' size-in-bits='64'>
          <parameter type-id='type-id-500' is-artificial='yes'/>
          <return type-id='type-id-17'/>
        </function-decl>
      </member-function>
    </class-decl>
    <typedef-decl name='vtkTypeInt32' type-id='type-id-17' filepath='/tmp/legendre/spack-stage/spack-stage-R_crTC/VTK-6.1.0/Common/Core/vtkType.h' line='197' column='1' id='type-id-505'/>
    <class-decl name='vtkAtomicInt&lt;int&gt;' size-in-bits='32' visibility='default' filepath='/tmp/legendre/spack-stage/spack-stage-R_crTC/VTK-6.1.0/spack-build/Common/Core/vtkAtomicInt.h' line='308' column='1' id='type-id-506'>
      <base-class access='public' layout-offset-in-bits='0' type-id='type-id-507'/>
      <member-function access='private'>
        <function-decl name='vtkAtomicInt' filepath='/tmp/legendre/spack-stage/spack-stage-R_crTC/VTK-6.1.0/spack-build/Common/Core/vtkAtomicInt.h' line='314' column='1' visibility='default' binding='global' size-in-bits='64'>
          <parameter type-id='type-id-508' is-artificial='yes'/>
          <return type-id='type-id-27'/>
        </function-decl>
      </member-function>
      <member-function access='private'>
        <function-decl name='vtkAtomicInt' filepath='/tmp/legendre/spack-stage/spack-stage-R_crTC/VTK-6.1.0/spack-build/Common/Core/vtkAtomicInt.h' line='321' column='1' visibility='default' binding='global' size-in-bits='64'>
          <parameter type-id='type-id-508' is-artificial='yes'/>
          <parameter type-id='type-id-17'/>
          <return type-id='type-id-27'/>
        </function-decl>
      </member-function>
    </class-decl>
    <qualified-type-def type-id='type-id-507' const='yes' id='type-id-509'/>
    <pointer-type-def type-id='type-id-509' size-in-bits='64' id='type-id-510'/>
    <qualified-type-def type-id='type-id-510' const='yes' id='type-id-511'/>
    <qualified-type-def type-id='type-id-506' const='yes' id='type-id-512'/>
    <pointer-type-def type-id='type-id-512' size-in-bits='64' id='type-id-513'/>
    <qualified-type-def type-id='type-id-513' const='yes' id='type-id-514'/>
    <qualified-type-def type-id='type-id-498' const='yes' id='type-id-515'/>
    <reference-type-def kind='lvalue' type-id='type-id-515' size-in-bits='64' id='type-id-501'/>
    <pointer-type-def type-id='type-id-515' size-in-bits='64' id='type-id-504'/>
    <pointer-type-def type-id='type-id-507' size-in-bits='64' id='type-id-516'/>
    <pointer-type-def type-id='type-id-506' size-in-bits='64' id='type-id-508'/>
    <pointer-type-def type-id='type-id-517' size-in-bits='64' id='type-id-518'/>
    <qualified-type-def type-id='type-id-518' const='yes' id='type-id-519'/>
    <qualified-type-def type-id='type-id-71' const='yes' id='type-id-520'/>
    <pointer-type-def type-id='type-id-521' size-in-bits='64' id='type-id-522'/>
    <qualified-type-def type-id='type-id-522' const='yes' id='type-id-523'/>
    <pointer-type-def type-id='type-id-524' size-in-bits='64' id='type-id-503'/>
    <pointer-type-def type-id='type-id-498' size-in-bits='64' id='type-id-500'/>
    <qualified-type-def type-id='type-id-500' const='yes' id='type-id-502'/>
    <namespace-decl name='detail'>
      <class-decl name='vtkAtomicIntImpl&lt;int&gt;' size-in-bits='32' visibility='default' filepath='/tmp/legendre/spack-stage/spack-stage-R_crTC/VTK-6.1.0/spack-build/Common/Core/vtkAtomicInt.h' line='85' column='1' id='type-id-507'>
        <data-member access='protected' layout-offset-in-bits='0'>
          <var-decl name='Value' type-id='type-id-505' visibility='default' filepath='/tmp/legendre/spack-stage/spack-stage-R_crTC/VTK-6.1.0/spack-build/Common/Core/vtkAtomicInt.h' line='182' column='1'/>
        </data-member>
      </class-decl>
    </namespace-decl>
    <class-decl name='vtkFrameBufferObject' visibility='default' is-declaration-only='yes' id='type-id-517'/>
    <class-decl name='vtkPoints' visibility='default' is-declaration-only='yes' id='type-id-521'/>
    <class-decl name='vtkStructuredGrid' visibility='default' is-declaration-only='yes' id='type-id-524'/>
    <class-decl name='vtkStructuredGridAlgorithm' visibility='default' is-declaration-only='yes' id='type-id-499'/>
  </abi-instr>
  <abi-instr address-size='64' path='/tmp/legendre/spack-stage/spack-stage-R_crTC/VTK-6.1.0/Rendering/LIC/vtkSurfaceLICComposite.cxx' comp-dir-path='/tmp/legendre/spack-stage/spack-stage-R_crTC/VTK-6.1.0/spack-build/Rendering/LIC' language='LANG_C_plus_plus'>
    <class-decl name='vtkSurfaceLICComposite' size-in-bits='3584' visibility='default' filepath='/tmp/legendre/spack-stage/spack-stage-R_crTC/VTK-6.1.0/Rendering/LIC/vtkSurfaceLICComposite.h' line='38' column='1' id='type-id-525'>
      <base-class access='public' layout-offset-in-bits='0' type-id='type-id-348'/>
      <data-member access='protected' layout-offset-in-bits='384'>
        <var-decl name='Pass' type-id='type-id-17' visibility='default' filepath='/tmp/legendre/spack-stage/spack-stage-R_crTC/VTK-6.1.0/Rendering/LIC/vtkSurfaceLICComposite.h' line='241' column='1'/>
      </data-member>
      <data-member access='protected' layout-offset-in-bits='416'>
        <var-decl name='WindowExt' type-id='type-id-48' visibility='default' filepath='/tmp/legendre/spack-stage/spack-stage-R_crTC/VTK-6.1.0/Rendering/LIC/vtkSurfaceLICComposite.h' line='243' column='1'/>
      </data-member>
      <data-member access='protected' layout-offset-in-bits='544'>
        <var-decl name='DataSetExt' type-id='type-id-48' visibility='default' filepath='/tmp/legendre/spack-stage/spack-stage-R_crTC/VTK-6.1.0/Rendering/LIC/vtkSurfaceLICComposite.h' line='244' column='1'/>
      </data-member>
      <data-member access='protected' layout-offset-in-bits='704'>
        <var-decl name='BlockExts' type-id='type-id-180' visibility='default' filepath='/tmp/legendre/spack-stage/spack-stage-R_crTC/VTK-6.1.0/Rendering/LIC/vtkSurfaceLICComposite.h' line='245' column='1'/>
      </data-member>
      <data-member access='protected' layout-offset-in-bits='1344'>
        <var-decl name='CompositeExt' type-id='type-id-180' visibility='default' filepath='/tmp/legendre/spack-stage/spack-stage-R_crTC/VTK-6.1.0/Rendering/LIC/vtkSurfaceLICComposite.h' line='247' column='1'/>
      </data-member>
      <data-member access='protected' layout-offset-in-bits='1984'>
        <var-decl name='GuardExt' type-id='type-id-180' visibility='default' filepath='/tmp/legendre/spack-stage/spack-stage-R_crTC/VTK-6.1.0/Rendering/LIC/vtkSurfaceLICComposite.h' line='248' column='1'/>
      </data-member>
      <data-member access='protected' layout-offset-in-bits='2624'>
        <var-decl name='DisjointGuardExt' type-id='type-id-180' visibility='default' filepath='/tmp/legendre/spack-stage/spack-stage-R_crTC/VTK-6.1.0/Rendering/LIC/vtkSurfaceLICComposite.h' line='249' column='1'/>
      </data-member>
      <data-member access='protected' layout-offset-in-bits='3264'>
        <var-decl name='Strategy' type-id='type-id-17' visibility='default' filepath='/tmp/legendre/spack-stage/spack-stage-R_crTC/VTK-6.1.0/Rendering/LIC/vtkSurfaceLICComposite.h' line='251' column='1'/>
      </data-member>
      <data-member access='protected' layout-offset-in-bits='3328'>
        <var-decl name='StepSize' type-id='type-id-15' visibility='default' filepath='/tmp/legendre/spack-stage/spack-stage-R_crTC/VTK-6.1.0/Rendering/LIC/vtkSurfaceLICComposite.h' line='253' column='1'/>
      </data-member>
      <data-member access='protected' layout-offset-in-bits='3392'>
        <var-decl name='NumberOfSteps' type-id='type-id-17' visibility='default' filepath='/tmp/legendre/spack-stage/spack-stage-R_crTC/VTK-6.1.0/Rendering/LIC/vtkSurfaceLICComposite.h' line='254' column='1'/>
      </data-member>
      <data-member access='protected' layout-offset-in-bits='3424'>
        <var-decl name='NormalizeVectors' type-id='type-id-17' visibility='default' filepath='/tmp/legendre/spack-stage/spack-stage-R_crTC/VTK-6.1.0/Rendering/LIC/vtkSurfaceLICComposite.h' line='255' column='1'/>
      </data-member>
      <data-member access='protected' layout-offset-in-bits='3456'>
        <var-decl name='NumberOfGuardLevels' type-id='type-id-17' visibility='default' filepath='/tmp/legendre/spack-stage/spack-stage-R_crTC/VTK-6.1.0/Rendering/LIC/vtkSurfaceLICComposite.h' line='256' column='1'/>
      </data-member>
      <data-member access='protected' layout-offset-in-bits='3488'>
        <var-decl name='NumberOfEEGuardPixels' type-id='type-id-17' visibility='default' filepath='/tmp/legendre/spack-stage/spack-stage-R_crTC/VTK-6.1.0/Rendering/LIC/vtkSurfaceLICComposite.h' line='257' column='1'/>
      </data-member>
      <data-member access='protected' layout-offset-in-bits='3520'>
        <var-decl name='NumberOfAAGuardPixels' type-id='type-id-17' visibility='default' filepath='/tmp/legendre/spack-stage/spack-stage-R_crTC/VTK-6.1.0/Rendering/LIC/vtkSurfaceLICComposite.h' line='258' column='1'/>
      </data-member>
      <member-function access='protected' constructor='yes'>
        <function-decl name='vtkSurfaceLICComposite' mangled-name='_ZN22vtkSurfaceLICCompositeC1Ev' filepath='/tmp/legendre/spack-stage/spack-stage-R_crTC/VTK-6.1.0/Rendering/LIC/vtkSurfaceLICComposite.cxx' line='36' column='1' visibility='default' binding='global' size-in-bits='64' elf-symbol-id='_ZN22vtkSurfaceLICCompositeC1Ev'>
          <parameter type-id='type-id-526' is-artificial='yes'/>
          <return type-id='type-id-27'/>
        </function-decl>
      </member-function>
      <member-function access='private' constructor='yes'>
        <function-decl name='vtkSurfaceLICComposite' filepath='/tmp/legendre/spack-stage/spack-stage-R_crTC/VTK-6.1.0/Rendering/LIC/vtkSurfaceLICComposite.h' line='261' column='1' visibility='default' binding='global' size-in-bits='64'>
          <parameter type-id='type-id-526' is-artificial='yes'/>
          <parameter type-id='type-id-527'/>
          <return type-id='type-id-27'/>
        </function-decl>
      </member-function>
      <member-function access='protected'>
        <function-decl name='GetFudgeFactor' mangled-name='_ZN22vtkSurfaceLICComposite14GetFudgeFactorEPi' filepath='/tmp/legendre/spack-stage/spack-stage-R_crTC/VTK-6.1.0/Rendering/LIC/vtkSurfaceLICComposite.cxx' line='249' column='1' visibility='default' binding='global' size-in-bits='64' elf-symbol-id='_ZN22vtkSurfaceLICComposite14GetFudgeFactorEPi'>
          <parameter type-id='type-id-528' name='this' is-artificial='yes'/>
          <parameter type-id='type-id-52' name='nx' filepath='/tmp/legendre/spack-stage/spack-stage-R_crTC/VTK-6.1.0/Rendering/LIC/vtkSurfaceLICComposite.cxx' line='249' column='1'/>
          <return type-id='type-id-16'/>
        </function-decl>
      </member-function>
      <member-function access='protected'>
        <function-decl name='GetPixelBounds' mangled-name='_ZN22vtkSurfaceLICComposite14GetPixelBoundsEPfiR14vtkPixelExtent' filepath='/tmp/legendre/spack-stage/spack-stage-R_crTC/VTK-6.1.0/Rendering/LIC/vtkSurfaceLICComposite.cxx' line='337' column='1' visibility='default' binding='global' size-in-bits='64' elf-symbol-id='_ZN22vtkSurfaceLICComposite14GetPixelBoundsEPfiR14vtkPixelExtent'>
          <parameter type-id='type-id-528' name='this' is-artificial='yes'/>
          <parameter type-id='type-id-56' name='rgba' filepath='/tmp/legendre/spack-stage/spack-stage-R_crTC/VTK-6.1.0/Rendering/LIC/vtkSurfaceLICComposite.cxx' line='338' column='1'/>
          <parameter type-id='type-id-17' name='ni' filepath='/tmp/legendre/spack-stage/spack-stage-R_crTC/VTK-6.1.0/Rendering/LIC/vtkSurfaceLICComposite.cxx' line='339' column='1'/>
          <parameter type-id='type-id-529' name='ext' filepath='/tmp/legendre/spack-stage/spack-stage-R_crTC/VTK-6.1.0/Rendering/LIC/vtkSurfaceLICComposite.cxx' line='340' column='1'/>
          <return type-id='type-id-27'/>
        </function-decl>
      </member-function>
      <member-function access='protected'>
        <function-decl name='VectorMax' mangled-name='_ZN22vtkSurfaceLICComposite9VectorMaxERK14vtkPixelExtentPf' filepath='/tmp/legendre/spack-stage/spack-stage-R_crTC/VTK-6.1.0/Rendering/LIC/vtkSurfaceLICComposite.cxx' line='130' column='1' visibility='default' binding='global' size-in-bits='64' elf-symbol-id='_ZN22vtkSurfaceLICComposite9VectorMaxERK14vtkPixelExtentPf'>
          <parameter type-id='type-id-528' name='this' is-artificial='yes'/>
          <parameter type-id='type-id-111' name='ext' filepath='/tmp/legendre/spack-stage/spack-stage-R_crTC/VTK-6.1.0/Rendering/LIC/vtkSurfaceLICComposite.cxx' line='131' column='1'/>
          <parameter type-id='type-id-56' name='vectors' filepath='/tmp/legendre/spack-stage/spack-stage-R_crTC/VTK-6.1.0/Rendering/LIC/vtkSurfaceLICComposite.cxx' line='132' column='1'/>
          <return type-id='type-id-16'/>
        </function-decl>
      </member-function>
      <member-function access='private' static='yes'>
        <function-decl name='New' mangled-name='_ZN22vtkSurfaceLICComposite3NewEv' filepath='/tmp/legendre/spack-stage/spack-stage-R_crTC/VTK-6.1.0/Rendering/LIC/vtkSurfaceLICComposite.cxx' line='33' column='1' visibility='default' binding='global' size-in-bits='64' elf-symbol-id='_ZN22vtkSurfaceLICComposite3NewEv'>
          <return type-id='type-id-526'/>
        </function-decl>
      </member-function>
      <member-function access='protected'>
        <function-decl name='VectorMax' mangled-name='_ZN22vtkSurfaceLICComposite9VectorMaxERKSt5dequeI14vtkPixelExtentSaIS1_EEPfRSt6vectorIfSaIfEE' filepath='/tmp/legendre/spack-stage/spack-stage-R_crTC/VTK-6.1.0/Rendering/LIC/vtkSurfaceLICComposite.cxx' line='90' column='1' visibility='default' binding='global' size-in-bits='64' elf-symbol-id='_ZN22vtkSurfaceLICComposite9VectorMaxERKSt5dequeI14vtkPixelExtentSaIS1_EEPfRSt6vectorIfSaIfEE'>
          <parameter type-id='type-id-528' name='this' is-artificial='yes'/>
          <parameter type-id='type-id-309' name='exts' filepath='/tmp/legendre/spack-stage/spack-stage-R_crTC/VTK-6.1.0/Rendering/LIC/vtkSurfaceLICComposite.cxx' line='91' column='1'/>
          <parameter type-id='type-id-56' name='vectors' filepath='/tmp/legendre/spack-stage/spack-stage-R_crTC/VTK-6.1.0/Rendering/LIC/vtkSurfaceLICComposite.cxx' line='92' column='1'/>
          <parameter type-id='type-id-530' name='vMax' filepath='/tmp/legendre/spack-stage/spack-stage-R_crTC/VTK-6.1.0/Rendering/LIC/vtkSurfaceLICComposite.cxx' line='93' column='1'/>
          <return type-id='type-id-17'/>
        </function-decl>
      </member-function>
      <member-function access='private'>
        <function-decl name='Initialize' mangled-name='_ZN22vtkSurfaceLICComposite10InitializeERK14vtkPixelExtentRKSt5dequeIS0_SaIS0_EEidiiii' filepath='/tmp/legendre/spack-stage/spack-stage-R_crTC/VTK-6.1.0/Rendering/LIC/vtkSurfaceLICComposite.cxx' line='56' column='1' visibility='default' binding='global' size-in-bits='64' elf-symbol-id='_ZN22vtkSurfaceLICComposite10InitializeERK14vtkPixelExtentRKSt5dequeIS0_SaIS0_EEidiiii'>
          <parameter type-id='type-id-528' name='this' is-artificial='yes'/>
          <parameter type-id='type-id-111' name='winExt' filepath='/tmp/legendre/spack-stage/spack-stage-R_crTC/VTK-6.1.0/Rendering/LIC/vtkSurfaceLICComposite.cxx' line='57' column='1'/>
          <parameter type-id='type-id-309' name='blockExts' filepath='/tmp/legendre/spack-stage/spack-stage-R_crTC/VTK-6.1.0/Rendering/LIC/vtkSurfaceLICComposite.cxx' line='58' column='1'/>
          <parameter type-id='type-id-17' name='strategy' filepath='/tmp/legendre/spack-stage/spack-stage-R_crTC/VTK-6.1.0/Rendering/LIC/vtkSurfaceLICComposite.cxx' line='59' column='1'/>
          <parameter type-id='type-id-15' name='stepSize' filepath='/tmp/legendre/spack-stage/spack-stage-R_crTC/VTK-6.1.0/Rendering/LIC/vtkSurfaceLICComposite.cxx' line='60' column='1'/>
          <parameter type-id='type-id-17' name='nSteps' filepath='/tmp/legendre/spack-stage/spack-stage-R_crTC/VTK-6.1.0/Rendering/LIC/vtkSurfaceLICComposite.cxx' line='61' column='1'/>
          <parameter type-id='type-id-17' name='normalizeVectors' filepath='/tmp/legendre/spack-stage/spack-stage-R_crTC/VTK-6.1.0/Rendering/LIC/vtkSurfaceLICComposite.cxx' line='62' column='1'/>
          <parameter type-id='type-id-17' name='enhancedLIC' filepath='/tmp/legendre/spack-stage/spack-stage-R_crTC/VTK-6.1.0/Rendering/LIC/vtkSurfaceLICComposite.cxx' line='63' column='1'/>
          <parameter type-id='type-id-17' name='antialias' filepath='/tmp/legendre/spack-stage/spack-stage-R_crTC/VTK-6.1.0/Rendering/LIC/vtkSurfaceLICComposite.cxx' line='64' column='1'/>
          <return type-id='type-id-27'/>
        </function-decl>
      </member-function>
      <member-function access='private' static='yes'>
        <function-decl name='MakeDecompDisjoint' mangled-name='_ZN22vtkSurfaceLICComposite18MakeDecompDisjointERSt5dequeI14vtkPixelExtentSaIS1_EES4_' filepath='/tmp/legendre/spack-stage/spack-stage-R_crTC/VTK-6.1.0/Rendering/LIC/vtkSurfaceLICComposite.cxx' line='210' column='1' visibility='default' binding='global' size-in-bits='64' elf-symbol-id='_ZN22vtkSurfaceLICComposite18MakeDecompDisjointERSt5dequeI14vtkPixelExtentSaIS1_EES4_'>
          <parameter type-id='type-id-531' name='in' filepath='/tmp/legendre/spack-stage/spack-stage-R_crTC/VTK-6.1.0/Rendering/LIC/vtkSurfaceLICComposite.cxx' line='211' column='1'/>
          <parameter type-id='type-id-531' name='out' filepath='/tmp/legendre/spack-stage/spack-stage-R_crTC/VTK-6.1.0/Rendering/LIC/vtkSurfaceLICComposite.cxx' line='212' column='1'/>
          <return type-id='type-id-17'/>
        </function-decl>
      </member-function>
      <member-function access='protected'>
        <function-decl name='MakeDecompDisjoint' mangled-name='_ZN22vtkSurfaceLICComposite18MakeDecompDisjointERKSt5dequeI14vtkPixelExtentSaIS1_EERS3_Pf' filepath='/tmp/legendre/spack-stage/spack-stage-R_crTC/VTK-6.1.0/Rendering/LIC/vtkSurfaceLICComposite.cxx' line='164' column='1' visibility='default' binding='global' size-in-bits='64' elf-symbol-id='_ZN22vtkSurfaceLICComposite18MakeDecompDisjointERKSt5dequeI14vtkPixelExtentSaIS1_EERS3_Pf'>
          <parameter type-id='type-id-528' name='this' is-artificial='yes'/>
          <parameter type-id='type-id-309' name='in' filepath='/tmp/legendre/spack-stage/spack-stage-R_crTC/VTK-6.1.0/Rendering/LIC/vtkSurfaceLICComposite.cxx' line='165' column='1'/>
          <parameter type-id='type-id-531' name='out' filepath='/tmp/legendre/spack-stage/spack-stage-R_crTC/VTK-6.1.0/Rendering/LIC/vtkSurfaceLICComposite.cxx' line='166' column='1'/>
          <parameter type-id='type-id-56' name='vectors' filepath='/tmp/legendre/spack-stage/spack-stage-R_crTC/VTK-6.1.0/Rendering/LIC/vtkSurfaceLICComposite.cxx' line='167' column='1'/>
          <return type-id='type-id-17'/>
        </function-decl>
      </member-function>
      <member-function access='protected'>
        <function-decl name='AddGuardPixels' mangled-name='_ZN22vtkSurfaceLICComposite14AddGuardPixelsERKSt5dequeI14vtkPixelExtentSaIS1_EERS3_S6_Pf' filepath='/tmp/legendre/spack-stage/spack-stage-R_crTC/VTK-6.1.0/Rendering/LIC/vtkSurfaceLICComposite.cxx' line='262' column='1' visibility='default' binding='global' size-in-bits='64' elf-symbol-id='_ZN22vtkSurfaceLICComposite14AddGuardPixelsERKSt5dequeI14vtkPixelExtentSaIS1_EERS3_S6_Pf'>
          <parameter type-id='type-id-528' name='this' is-artificial='yes'/>
          <parameter type-id='type-id-309' name='exts' filepath='/tmp/legendre/spack-stage/spack-stage-R_crTC/VTK-6.1.0/Rendering/LIC/vtkSurfaceLICComposite.cxx' line='263' column='1'/>
          <parameter type-id='type-id-531' name='guardExts' filepath='/tmp/legendre/spack-stage/spack-stage-R_crTC/VTK-6.1.0/Rendering/LIC/vtkSurfaceLICComposite.cxx' line='264' column='1'/>
          <parameter type-id='type-id-531' name='disjointGuardExts' filepath='/tmp/legendre/spack-stage/spack-stage-R_crTC/VTK-6.1.0/Rendering/LIC/vtkSurfaceLICComposite.cxx' line='265' column='1'/>
          <parameter type-id='type-id-56' name='vectors' filepath='/tmp/legendre/spack-stage/spack-stage-R_crTC/VTK-6.1.0/Rendering/LIC/vtkSurfaceLICComposite.cxx' line='266' column='1'/>
          <return type-id='type-id-17'/>
        </function-decl>
      </member-function>
      <member-function access='private'>
        <function-decl name='InitializeCompositeExtents' mangled-name='_ZN22vtkSurfaceLICComposite26InitializeCompositeExtentsEPf' filepath='/tmp/legendre/spack-stage/spack-stage-R_crTC/VTK-6.1.0/Rendering/LIC/vtkSurfaceLICComposite.cxx' line='360' column='1' visibility='default' binding='global' size-in-bits='64' elf-symbol-id='_ZN22vtkSurfaceLICComposite26InitializeCompositeExtentsEPf'>
          <parameter type-id='type-id-526' is-artificial='yes'/>
          <parameter type-id='type-id-56'/>
          <return type-id='type-id-17'/>
        </function-decl>
      </member-function>
      <member-function access='protected' destructor='yes' vtable-offset='-1'>
        <function-decl name='~vtkSurfaceLICComposite' mangled-name='_ZN22vtkSurfaceLICCompositeD1Ev' filepath='/tmp/legendre/spack-stage/spack-stage-R_crTC/VTK-6.1.0/Rendering/LIC/vtkSurfaceLICComposite.cxx' line='52' column='1' visibility='default' binding='global' size-in-bits='64' elf-symbol-id='_ZN22vtkSurfaceLICCompositeD1Ev'>
          <parameter type-id='type-id-526' is-artificial='yes'/>
          <parameter type-id='type-id-17'/>
          <return type-id='type-id-27'/>
        </function-decl>
      </member-function>
      <member-function access='private' vtable-offset='0'>
        <function-decl name='GetClassNameInternal' mangled-name='_ZNK22vtkSurfaceLICComposite20GetClassNameInternalEv' filepath='/tmp/legendre/spack-stage/spack-stage-R_crTC/VTK-6.1.0/Rendering/LIC/vtkSurfaceLICComposite.h' line='41' column='1' visibility='default' binding='global' size-in-bits='64'>
          <parameter type-id='type-id-532' is-artificial='yes'/>
          <return type-id='type-id-68'/>
        </function-decl>
      </member-function>
      <member-function access='private' vtable-offset='1'>
        <function-decl name='IsA' mangled-name='_ZN22vtkSurfaceLICComposite3IsAEPKc' filepath='/tmp/legendre/spack-stage/spack-stage-R_crTC/VTK-6.1.0/Rendering/LIC/vtkSurfaceLICComposite.h' line='41' column='1' visibility='default' binding='global' size-in-bits='64'>
          <parameter type-id='type-id-526' is-artificial='yes'/>
          <parameter type-id='type-id-68'/>
          <return type-id='type-id-17'/>
        </function-decl>
      </member-function>
      <member-function access='private' vtable-offset='4'>
        <function-decl name='PrintSelf' mangled-name='_ZN22vtkSurfaceLICComposite9PrintSelfERSo9vtkIndent' filepath='/tmp/legendre/spack-stage/spack-stage-R_crTC/VTK-6.1.0/Rendering/LIC/vtkSurfaceLICComposite.cxx' line='392' column='1' visibility='default' binding='global' size-in-bits='64' elf-symbol-id='_ZN22vtkSurfaceLICComposite9PrintSelfERSo9vtkIndent'>
          <parameter type-id='type-id-526' is-artificial='yes'/>
          <parameter type-id='type-id-69'/>
          <parameter type-id='type-id-70'/>
          <return type-id='type-id-27'/>
        </function-decl>
      </member-function>
      <member-function access='protected' vtable-offset='15'>
        <function-decl name='NewInstanceInternal' mangled-name='_ZNK22vtkSurfaceLICComposite19NewInstanceInternalEv' filepath='/tmp/legendre/spack-stage/spack-stage-R_crTC/VTK-6.1.0/Rendering/LIC/vtkSurfaceLICComposite.h' line='41' column='1' visibility='default' binding='global' size-in-bits='64'>
          <parameter type-id='type-id-532' is-artificial='yes'/>
          <return type-id='type-id-71'/>
        </function-decl>
      </member-function>
      <member-function access='private' vtable-offset='20'>
        <function-decl name='SetContext' mangled-name='_ZN22vtkSurfaceLICComposite10SetContextEP21vtkOpenGLRenderWindow' filepath='/tmp/legendre/spack-stage/spack-stage-R_crTC/VTK-6.1.0/Rendering/LIC/vtkSurfaceLICComposite.h' line='149' column='1' visibility='default' binding='global' size-in-bits='64'>
          <parameter type-id='type-id-526' is-artificial='yes'/>
          <parameter type-id='type-id-265'/>
          <return type-id='type-id-27'/>
        </function-decl>
      </member-function>
      <member-function access='private' vtable-offset='21'>
        <function-decl name='GetContext' mangled-name='_ZN22vtkSurfaceLICComposite10GetContextEv' filepath='/tmp/legendre/spack-stage/spack-stage-R_crTC/VTK-6.1.0/Rendering/LIC/vtkSurfaceLICComposite.h' line='150' column='1' visibility='default' binding='global' size-in-bits='64'>
          <parameter type-id='type-id-526' is-artificial='yes'/>
          <return type-id='type-id-265'/>
        </function-decl>
      </member-function>
      <member-function access='private' vtable-offset='22'>
        <function-decl name='SetCommunicator' mangled-name='_ZN22vtkSurfaceLICComposite15SetCommunicatorEP22vtkPainterCommunicator' filepath='/tmp/legendre/spack-stage/spack-stage-R_crTC/VTK-6.1.0/Rendering/LIC/vtkSurfaceLICComposite.h' line='157' column='1' visibility='default' binding='global' size-in-bits='64'>
          <parameter type-id='type-id-526' is-artificial='yes'/>
          <parameter type-id='type-id-344'/>
          <return type-id='type-id-27'/>
        </function-decl>
      </member-function>
      <member-function access='private' vtable-offset='23'>
        <function-decl name='RestoreDefaultCommunicator' mangled-name='_ZN22vtkSurfaceLICComposite26RestoreDefaultCommunicatorEv' filepath='/tmp/legendre/spack-stage/spack-stage-R_crTC/VTK-6.1.0/Rendering/LIC/vtkSurfaceLICComposite.h' line='161' column='1' visibility='default' binding='global' size-in-bits='64'>
          <parameter type-id='type-id-526' is-artificial='yes'/>
          <return type-id='type-id-27'/>
        </function-decl>
      </member-function>
      <member-function access='private' vtable-offset='24'>
        <function-decl name='BuildProgram' mangled-name='_ZN22vtkSurfaceLICComposite12BuildProgramEPf' filepath='/tmp/legendre/spack-stage/spack-stage-R_crTC/VTK-6.1.0/Rendering/LIC/vtkSurfaceLICComposite.h' line='166' column='1' visibility='default' binding='global' size-in-bits='64'>
          <parameter type-id='type-id-526' is-artificial='yes'/>
          <parameter type-id='type-id-56'/>
          <return type-id='type-id-17'/>
        </function-decl>
      </member-function>
      <member-function access='private' vtable-offset='25'>
        <function-decl name='Gather' mangled-name='_ZN22vtkSurfaceLICComposite6GatherEPviiRP16vtkTextureObject' filepath='/tmp/legendre/spack-stage/spack-stage-R_crTC/VTK-6.1.0/Rendering/LIC/vtkSurfaceLICComposite.h' line='171' column='1' visibility='default' binding='global' size-in-bits='64'>
          <parameter type-id='type-id-526' is-artificial='yes'/>
          <parameter type-id='type-id-14'/>
          <parameter type-id='type-id-17'/>
          <parameter type-id='type-id-17'/>
          <parameter type-id='type-id-533'/>
          <return type-id='type-id-17'/>
        </function-decl>
      </member-function>
      <member-function access='private' vtable-offset='26'>
        <function-decl name='Scatter' mangled-name='_ZN22vtkSurfaceLICComposite7ScatterEPviiRP16vtkTextureObject' filepath='/tmp/legendre/spack-stage/spack-stage-R_crTC/VTK-6.1.0/Rendering/LIC/vtkSurfaceLICComposite.h' line='177' column='1' visibility='default' binding='global' size-in-bits='64'>
          <parameter type-id='type-id-526' is-artificial='yes'/>
          <parameter type-id='type-id-14'/>
          <parameter type-id='type-id-17'/>
          <parameter type-id='type-id-17'/>
          <parameter type-id='type-id-533'/>
          <return type-id='type-id-17'/>
        </function-decl>
