<abi-corpus version='2.0' path='data/test-read-dwarf/test16-pr18904.so' soname='liboffloadmic_host.so.5'>
  <elf-needed>
    <dependency name='libdl.so.2'/>
    <dependency name='libstdc++.so.6'/>
    <dependency name='libm.so.6'/>
    <dependency name='libc.so.6'/>
    <dependency name='libgcc_s.so.1'/>
  </elf-needed>
  <elf-function-symbols>
    <elf-symbol name='ORSLRelease' type='func-type' binding='global-binding' visibility='default-visibility' is-defined='yes'/>
    <elf-symbol name='ORSLReserve' type='func-type' binding='global-binding' visibility='default-visibility' is-defined='yes'/>
    <elf-symbol name='ORSLReservePartial' type='func-type' binding='global-binding' visibility='default-visibility' is-defined='yes'/>
    <elf-symbol name='ORSLTryReserve' type='func-type' binding='global-binding' visibility='default-visibility' is-defined='yes'/>
    <elf-symbol name='_Offload_find_associated_mic_memory' type='func-type' binding='global-binding' visibility='default-visibility' is-defined='yes'/>
    <elf-symbol name='_Offload_get_device_number' type='func-type' binding='global-binding' visibility='default-visibility' is-defined='yes'/>
    <elf-symbol name='_Offload_get_physical_device_number' type='func-type' binding='global-binding' visibility='default-visibility' is-defined='yes'/>
    <elf-symbol name='_Offload_number_of_devices' type='func-type' binding='global-binding' visibility='default-visibility' is-defined='yes'/>
    <elf-symbol name='_Offload_report' type='func-type' binding='global-binding' visibility='default-visibility' is-defined='yes'/>
    <elf-symbol name='_Offload_shared_aligned_arena_free' type='func-type' binding='global-binding' visibility='default-visibility' is-defined='yes'/>
    <elf-symbol name='_Offload_shared_aligned_arena_malloc' type='func-type' binding='global-binding' visibility='default-visibility' is-defined='yes'/>
    <elf-symbol name='_Offload_shared_aligned_free' type='func-type' binding='global-binding' visibility='default-visibility' is-defined='yes'/>
    <elf-symbol name='_Offload_shared_aligned_malloc' type='func-type' binding='global-binding' visibility='default-visibility' is-defined='yes'/>
    <elf-symbol name='_Offload_shared_arena_acquire' type='func-type' binding='global-binding' visibility='default-visibility' is-defined='yes'/>
    <elf-symbol name='_Offload_shared_arena_create' type='func-type' binding='global-binding' visibility='default-visibility' is-defined='yes'/>
    <elf-symbol name='_Offload_shared_arena_release' type='func-type' binding='global-binding' visibility='default-visibility' is-defined='yes'/>
    <elf-symbol name='_Offload_shared_free' type='func-type' binding='global-binding' visibility='default-visibility' is-defined='yes'/>
    <elf-symbol name='_Offload_shared_malloc' type='func-type' binding='global-binding' visibility='default-visibility' is-defined='yes'/>
    <elf-symbol name='_Offload_signaled' type='func-type' binding='global-binding' visibility='default-visibility' is-defined='yes'/>
    <elf-symbol name='_Offload_stream_completed' type='func-type' binding='global-binding' visibility='default-visibility' is-defined='yes'/>
    <elf-symbol name='_Offload_stream_create' type='func-type' binding='global-binding' visibility='default-visibility' is-defined='yes'/>
    <elf-symbol name='_Offload_stream_destroy' type='func-type' binding='global-binding' visibility='default-visibility' is-defined='yes'/>
    <elf-symbol name='_Z16__offload_mallocmm' type='func-type' binding='global-binding' visibility='default-visibility' is-defined='yes'/>
    <elf-symbol name='_Z23__offload_console_tracei' type='func-type' binding='global-binding' visibility='default-visibility' is-defined='yes'/>
    <elf-symbol name='_ZN10Marshaller11init_bufferEPcx' type='func-type' binding='weak-binding' visibility='default-visibility' is-defined='yes'/>
    <elf-symbol name='_ZN10Marshaller12receive_dataEPvl' type='func-type' binding='global-binding' visibility='default-visibility' is-defined='yes'/>
    <elf-symbol name='_ZN10Marshaller13send_func_ptrEPKv' type='func-type' binding='global-binding' visibility='default-visibility' is-defined='yes'/>
    <elf-symbol name='_ZN10Marshaller16receive_func_ptrEPPKv' type='func-type' binding='global-binding' visibility='default-visibility' is-defined='yes'/>
    <elf-symbol name='_ZN10Marshaller9send_dataEPKvl' type='func-type' binding='global-binding' visibility='default-visibility' is-defined='yes'/>
    <elf-symbol name='_ZN10MarshallerC1Ev' type='func-type' binding='weak-binding' visibility='default-visibility' is-defined='yes'/>
    <elf-symbol name='_ZN10MarshallerC2Ev' type='func-type' binding='weak-binding' visibility='default-visibility' alias='_ZN10MarshallerC1Ev' is-defined='yes'/>
    <elf-symbol name='_ZN10MyoWrapper13UnloadLibraryEv' type='func-type' binding='weak-binding' visibility='default-visibility' is-defined='yes'/>
    <elf-symbol name='_ZN10MyoWrapper15RemoteThunkCallEPvS0_i' type='func-type' binding='weak-binding' visibility='default-visibility' is-defined='yes'/>
    <elf-symbol name='_ZN10MyoWrapper17CreateVtableArenaEv' type='func-type' binding='global-binding' visibility='default-visibility' is-defined='yes'/>
    <elf-symbol name='_ZN10MyoWrapperC1Ev' type='func-type' binding='weak-binding' visibility='default-visibility' is-defined='yes'/>
    <elf-symbol name='_ZN10MyoWrapperC2Ev' type='func-type' binding='weak-binding' visibility='default-visibility' alias='_ZN10MyoWrapperC1Ev' is-defined='yes'/>
    <elf-symbol name='_ZN11PersistDataC1EPKvmmm' type='func-type' binding='weak-binding' visibility='default-visibility' is-defined='yes'/>
    <elf-symbol name='_ZN11PersistDataC2EPKvmmm' type='func-type' binding='weak-binding' visibility='default-visibility' alias='_ZN11PersistDataC1EPKvmmm' is-defined='yes'/>
    <elf-symbol name='_ZN11TargetImageC1EPKcPKvmS1_m' type='func-type' binding='weak-binding' visibility='default-visibility' is-defined='yes'/>
    <elf-symbol name='_ZN11TargetImageC2EPKcPKvmS1_m' type='func-type' binding='weak-binding' visibility='default-visibility' alias='_ZN11TargetImageC1EPKcPKvmS1_m' is-defined='yes'/>
    <elf-symbol name='_ZN12OffloadTimerC1EP20OffloadHostTimerData16OffloadHostPhase' type='func-type' binding='weak-binding' visibility='default-visibility' is-defined='yes'/>
    <elf-symbol name='_ZN12OffloadTimerC2EP20OffloadHostTimerData16OffloadHostPhase' type='func-type' binding='weak-binding' visibility='default-visibility' alias='_ZN12OffloadTimerC1EP20OffloadHostTimerData16OffloadHostPhase' is-defined='yes'/>
    <elf-symbol name='_ZN12OffloadTimerD1Ev' type='func-type' binding='weak-binding' visibility='default-visibility' is-defined='yes'/>
    <elf-symbol name='_ZN12OffloadTimerD2Ev' type='func-type' binding='weak-binding' visibility='default-visibility' alias='_ZN12OffloadTimerD1Ev' is-defined='yes'/>
    <elf-symbol name='_ZN12PtrDataTable13find_ptr_dataEPKv' type='func-type' binding='weak-binding' visibility='default-visibility' is-defined='yes'/>
    <elf-symbol name='_ZN12PtrDataTable15insert_ptr_dataEPKvmRb' type='func-type' binding='weak-binding' visibility='default-visibility' is-defined='yes'/>
    <elf-symbol name='_ZN12PtrDataTable15remove_ptr_dataEPKv' type='func-type' binding='weak-binding' visibility='default-visibility' is-defined='yes'/>
    <elf-symbol name='_ZN12PtrDataTableC1Ev' type='func-type' binding='weak-binding' visibility='default-visibility' is-defined='yes'/>
    <elf-symbol name='_ZN12PtrDataTableC2Ev' type='func-type' binding='weak-binding' visibility='default-visibility' alias='_ZN12PtrDataTableC1Ev' is-defined='yes'/>
    <elf-symbol name='_ZN12PtrDataTableD1Ev' type='func-type' binding='weak-binding' visibility='default-visibility' is-defined='yes'/>
    <elf-symbol name='_ZN12PtrDataTableD2Ev' type='func-type' binding='weak-binding' visibility='default-visibility' alias='_ZN12PtrDataTableD1Ev' is-defined='yes'/>
    <elf-symbol name='_ZN14mutex_locker_tC1ER7mutex_t' type='func-type' binding='weak-binding' visibility='default-visibility' is-defined='yes'/>
    <elf-symbol name='_ZN14mutex_locker_tC2ER7mutex_t' type='func-type' binding='weak-binding' visibility='default-visibility' alias='_ZN14mutex_locker_tC1ER7mutex_t' is-defined='yes'/>
    <elf-symbol name='_ZN14mutex_locker_tD1Ev' type='func-type' binding='weak-binding' visibility='default-visibility' is-defined='yes'/>
    <elf-symbol name='_ZN14mutex_locker_tD2Ev' type='func-type' binding='weak-binding' visibility='default-visibility' alias='_ZN14mutex_locker_tD1Ev' is-defined='yes'/>
    <elf-symbol name='_ZN15MYOVarTableList14process_vtableEv' type='func-type' binding='global-binding' visibility='default-visibility' is-defined='yes'/>
    <elf-symbol name='_ZN15MYOVarTableList4dumpEv' type='func-type' binding='global-binding' visibility='default-visibility' is-defined='yes'/>
    <elf-symbol name='_ZN15MYOVarTableList7processEv' type='func-type' binding='global-binding' visibility='default-visibility' is-defined='yes'/>
    <elf-symbol name='_ZN15MYOVarTableList8is_emptyEv' type='func-type' binding='global-binding' visibility='default-visibility' is-defined='yes'/>
    <elf-symbol name='_ZN15MYOVarTableList9add_tableEPN9TableListI11MYOVarTableE4NodeE' type='func-type' binding='weak-binding' visibility='default-visibility' is-defined='yes'/>
    <elf-symbol name='_ZN15MYOVarTableListC1Ev' type='func-type' binding='weak-binding' visibility='default-visibility' is-defined='yes'/>
    <elf-symbol name='_ZN15MYOVarTableListC2Ev' type='func-type' binding='weak-binding' visibility='default-visibility' alias='_ZN15MYOVarTableListC1Ev' is-defined='yes'/>
    <elf-symbol name='_ZN15MYOVarTableListD1Ev' type='func-type' binding='weak-binding' visibility='default-visibility' is-defined='yes'/>
    <elf-symbol name='_ZN15MYOVarTableListD2Ev' type='func-type' binding='weak-binding' visibility='default-visibility' alias='_ZN15MYOVarTableListD1Ev' is-defined='yes'/>
    <elf-symbol name='_ZN16MYOFuncTableList4dumpEv' type='func-type' binding='global-binding' visibility='default-visibility' is-defined='yes'/>
    <elf-symbol name='_ZN16MYOFuncTableList7processEv' type='func-type' binding='global-binding' visibility='default-visibility' is-defined='yes'/>
    <elf-symbol name='_ZN16MYOFuncTableList8is_emptyEv' type='func-type' binding='global-binding' visibility='default-visibility' is-defined='yes'/>
    <elf-symbol name='_ZN16MYOFuncTableList9add_tableEPN9TableListI12MYOFuncTableE4NodeE' type='func-type' binding='weak-binding' visibility='default-visibility' is-defined='yes'/>
    <elf-symbol name='_ZN16MYOFuncTableListC1Ev' type='func-type' binding='weak-binding' visibility='default-visibility' is-defined='yes'/>
    <elf-symbol name='_ZN16MYOFuncTableListC2Ev' type='func-type' binding='weak-binding' visibility='default-visibility' alias='_ZN16MYOFuncTableListC1Ev' is-defined='yes'/>
    <elf-symbol name='_ZN16MYOFuncTableListD1Ev' type='func-type' binding='weak-binding' visibility='default-visibility' alias='_ZN16MYOFuncTableListD2Ev' is-defined='yes'/>
    <elf-symbol name='_ZN16MYOFuncTableListD2Ev' type='func-type' binding='weak-binding' visibility='default-visibility' is-defined='yes'/>
    <elf-symbol name='_ZN16MYOInitTableList4dumpEv' type='func-type' binding='global-binding' visibility='default-visibility' is-defined='yes'/>
    <elf-symbol name='_ZN16MYOInitTableList7processEv' type='func-type' binding='global-binding' visibility='default-visibility' is-defined='yes'/>
    <elf-symbol name='_ZN16MYOInitTableList8is_emptyEv' type='func-type' binding='global-binding' visibility='default-visibility' is-defined='yes'/>
    <elf-symbol name='_ZN16MYOInitTableList9add_tableEPN9TableListI12MYOInitTableE4NodeE' type='func-type' binding='weak-binding' visibility='default-visibility' is-defined='yes'/>
    <elf-symbol name='_ZN16MYOInitTableListC1Ev' type='func-type' binding='weak-binding' visibility='default-visibility' is-defined='yes'/>
    <elf-symbol name='_ZN16MYOInitTableListC2Ev' type='func-type' binding='weak-binding' visibility='default-visibility' alias='_ZN16MYOInitTableListC1Ev' is-defined='yes'/>
    <elf-symbol name='_ZN16MYOInitTableListD1Ev' type='func-type' binding='weak-binding' visibility='default-visibility' alias='_ZN16MYOInitTableListD2Ev' is-defined='yes'/>
    <elf-symbol name='_ZN16MYOInitTableListD2Ev' type='func-type' binding='weak-binding' visibility='default-visibility' is-defined='yes'/>
    <elf-symbol name='_ZN17OffloadDescriptor10get_streamEv' type='func-type' binding='weak-binding' visibility='default-visibility' is-defined='yes'/>
    <elf-symbol name='_ZN17OffloadDescriptor10set_streamEm' type='func-type' binding='weak-binding' visibility='default-visibility' is-defined='yes'/>
    <elf-symbol name='_ZN17OffloadDescriptor11is_signaledEv' type='func-type' binding='global-binding' visibility='default-visibility' is-defined='yes'/>
    <elf-symbol name='_ZN17OffloadDescriptor12offload_wrapEPKcbP7VarDescP8VarDesc2iPPKviS8_iS7_12OffloadFlags' type='func-type' binding='global-binding' visibility='default-visibility' is-defined='yes'/>
    <elf-symbol name='_ZN17OffloadDescriptor13find_ptr_dataERP7PtrDataPvllbb' type='func-type' binding='global-binding' visibility='default-visibility' is-defined='yes'/>
    <elf-symbol name='_ZN17OffloadDescriptor14alloc_ptr_dataERP7PtrDataPvlllibbb' type='func-type' binding='global-binding' visibility='default-visibility' is-defined='yes'/>
    <elf-symbol name='_ZN17OffloadDescriptor14offload_finishEb' type='func-type' binding='global-binding' visibility='default-visibility' is-defined='yes'/>
    <elf-symbol name='_ZN17OffloadDescriptor15ReadArrElementsIPvE9read_nextEb' type='func-type' binding='weak-binding' visibility='default-visibility' is-defined='yes'/>
    <elf-symbol name='_ZN17OffloadDescriptor15ReadArrElementsIPvEC1Ev' type='func-type' binding='weak-binding' visibility='default-visibility' is-defined='yes'/>
    <elf-symbol name='_ZN17OffloadDescriptor15ReadArrElementsIPvEC2Ev' type='func-type' binding='weak-binding' visibility='default-visibility' alias='_ZN17OffloadDescriptor15ReadArrElementsIPvEC1Ev' is-defined='yes'/>
    <elf-symbol name='_ZN17OffloadDescriptor15ReadArrElementsIlE9read_nextEb' type='func-type' binding='weak-binding' visibility='default-visibility' is-defined='yes'/>
    <elf-symbol name='_ZN17OffloadDescriptor15ReadArrElementsIlEC1Ev' type='func-type' binding='weak-binding' visibility='default-visibility' is-defined='yes'/>
    <elf-symbol name='_ZN17OffloadDescriptor15ReadArrElementsIlEC2Ev' type='func-type' binding='weak-binding' visibility='default-visibility' alias='_ZN17OffloadDescriptor15ReadArrElementsIlEC1Ev' is-defined='yes'/>
    <elf-symbol name='_ZN17OffloadDescriptor15setup_misc_dataEPKc' type='func-type' binding='global-binding' visibility='default-visibility' is-defined='yes'/>
    <elf-symbol name='_ZN17OffloadDescriptor16init_mic_addressEP7PtrData' type='func-type' binding='global-binding' visibility='default-visibility' is-defined='yes'/>
    <elf-symbol name='_ZN17OffloadDescriptor16report_coi_errorE11error_types9COIRESULT' type='func-type' binding='global-binding' visibility='default-visibility' is-defined='yes'/>
    <elf-symbol name='_ZN17OffloadDescriptor17send_pointer_dataEbPv' type='func-type' binding='global-binding' visibility='default-visibility' is-defined='yes'/>
    <elf-symbol name='_ZN17OffloadDescriptor17setup_descriptorsEP7VarDescP8VarDesc2iiPKv' type='func-type' binding='global-binding' visibility='default-visibility' is-defined='yes'/>
    <elf-symbol name='_ZN17OffloadDescriptor17wait_dependenciesEPPKvim' type='func-type' binding='global-binding' visibility='default-visibility' is-defined='yes'/>
    <elf-symbol name='_ZN17OffloadDescriptor18gather_copyin_dataEv' type='func-type' binding='global-binding' visibility='default-visibility' is-defined='yes'/>
    <elf-symbol name='_ZN17OffloadDescriptor20init_static_ptr_dataEP7PtrData' type='func-type' binding='global-binding' visibility='default-visibility' is-defined='yes'/>
    <elf-symbol name='_ZN17OffloadDescriptor20nullify_target_stackEP9coibufferm' type='func-type' binding='global-binding' visibility='default-visibility' is-defined='yes'/>
    <elf-symbol name='_ZN17OffloadDescriptor20receive_pointer_dataEbbPv' type='func-type' binding='global-binding' visibility='default-visibility' is-defined='yes'/>
    <elf-symbol name='_ZN17OffloadDescriptor20scatter_copyout_dataEv' type='func-type' binding='global-binding' visibility='default-visibility' is-defined='yes'/>
    <elf-symbol name='_ZN17OffloadDescriptor20setup_omp_async_infoEv' type='func-type' binding='global-binding' visibility='default-visibility' is-defined='yes'/>
    <elf-symbol name='_ZN17OffloadDescriptor26get_stream_in_dependenciesERjRP8coievent' type='func-type' binding='global-binding' visibility='default-visibility' is-defined='yes'/>
    <elf-symbol name='_ZN17OffloadDescriptor28offload_stack_memory_managerEPKviiiPb' type='func-type' binding='global-binding' visibility='default-visibility' is-defined='yes'/>
    <elf-symbol name='_ZN17OffloadDescriptor28register_omp_event_call_backEPK8coieventPKv' type='func-type' binding='global-binding' visibility='default-visibility' is-defined='yes'/>
    <elf-symbol name='_ZN17OffloadDescriptor31gen_var_descs_for_pointer_arrayEi' type='func-type' binding='global-binding' visibility='default-visibility' is-defined='yes'/>
    <elf-symbol name='_ZN17OffloadDescriptor31send_noncontiguous_pointer_dataEiP7PtrDataS1_P8coieventRmjS3_' type='func-type' binding='global-binding' visibility='default-visibility' is-defined='yes'/>
    <elf-symbol name='_ZN17OffloadDescriptor34receive_noncontiguous_pointer_dataEiP9coibufferP8coieventRmjS3_' type='func-type' binding='global-binding' visibility='default-visibility' is-defined='yes'/>
    <elf-symbol name='_ZN17OffloadDescriptor7cleanupEv' type='func-type' binding='global-binding' visibility='default-visibility' is-defined='yes'/>
    <elf-symbol name='_ZN17OffloadDescriptor7computeEPv' type='func-type' binding='global-binding' visibility='default-visibility' is-defined='yes'/>
    <elf-symbol name='_ZN17OffloadDescriptor7offloadEPKcbP7VarDescP8VarDesc2iPPKviS8_iS7_12OffloadFlags' type='func-type' binding='global-binding' visibility='default-visibility' is-defined='yes'/>
    <elf-symbol name='_ZN17OffloadDescriptorC1EiP15_Offload_statusbbP20OffloadHostTimerData' type='func-type' binding='weak-binding' visibility='default-visibility' is-defined='yes'/>
    <elf-symbol name='_ZN17OffloadDescriptorC2EiP15_Offload_statusbbP20OffloadHostTimerData' type='func-type' binding='weak-binding' visibility='default-visibility' alias='_ZN17OffloadDescriptorC1EiP15_Offload_statusbbP20OffloadHostTimerData' is-defined='yes'/>
    <elf-symbol name='_ZN17OffloadDescriptorD1Ev' type='func-type' binding='weak-binding' visibility='default-visibility' is-defined='yes'/>
    <elf-symbol name='_ZN17OffloadDescriptorD2Ev' type='func-type' binding='weak-binding' visibility='default-visibility' alias='_ZN17OffloadDescriptorD1Ev' is-defined='yes'/>
    <elf-symbol name='_ZN6DynLibC1EPKcPKvP10coilibrary' type='func-type' binding='weak-binding' visibility='default-visibility' is-defined='yes'/>
    <elf-symbol name='_ZN6DynLibC2EPKcPKvP10coilibrary' type='func-type' binding='weak-binding' visibility='default-visibility' alias='_ZN6DynLibC1EPKcPKvP10coilibrary' is-defined='yes'/>
    <elf-symbol name='_ZN6Engine10add_signalEPKvP17OffloadDescriptor' type='func-type' binding='weak-binding' visibility='default-visibility' is-defined='yes'/>
    <elf-symbol name='_ZN6Engine11find_signalEPKvb' type='func-type' binding='weak-binding' visibility='default-visibility' is-defined='yes'/>
    <elf-symbol name='_ZN6Engine11init_deviceEv' type='func-type' binding='global-binding' visibility='default-visibility' is-defined='yes'/>
    <elf-symbol name='_ZN6Engine11set_indexesEii' type='func-type' binding='weak-binding' visibility='default-visibility' is-defined='yes'/>
    <elf-symbol name='_ZN6Engine12fini_processEb' type='func-type' binding='global-binding' visibility='default-visibility' is-defined='yes'/>
    <elf-symbol name='_ZN6Engine12get_pipelineEm' type='func-type' binding='global-binding' visibility='default-visibility' is-defined='yes'/>
    <elf-symbol name='_ZN6Engine12get_pipelineEv' type='func-type' binding='global-binding' visibility='default-visibility' is-defined='yes'/>
    <elf-symbol name='_ZN6Engine12init_processEv' type='func-type' binding='global-binding' visibility='default-visibility' is-defined='yes'/>
    <elf-symbol name='_ZN6Engine13find_ptr_dataEPKv' type='func-type' binding='weak-binding' visibility='default-visibility' is-defined='yes'/>
    <elf-symbol name='_ZN6Engine13get_auto_varsEv' type='func-type' binding='global-binding' visibility='default-visibility' is-defined='yes'/>
    <elf-symbol name='_ZN6Engine13get_thread_idEv' type='func-type' binding='global-binding' visibility='default-visibility' is-defined='yes'/>
    <elf-symbol name='_ZN6Engine13init_ptr_dataEv' type='func-type' binding='global-binding' visibility='default-visibility' is-defined='yes'/>
    <elf-symbol name='_ZN6Engine14find_auto_dataEPKv' type='func-type' binding='weak-binding' visibility='default-visibility' is-defined='yes'/>
    <elf-symbol name='_ZN6Engine14load_librariesEv' type='func-type' binding='global-binding' visibility='default-visibility' is-defined='yes'/>
    <elf-symbol name='_ZN6Engine14stream_destroyEm' type='func-type' binding='global-binding' visibility='default-visibility' is-defined='yes'/>
    <elf-symbol name='_ZN6Engine14unload_libraryEPKvPKc' type='func-type' binding='global-binding' visibility='default-visibility' is-defined='yes'/>
    <elf-symbol name='_ZN6Engine15insert_ptr_dataEPKvmRb' type='func-type' binding='weak-binding' visibility='default-visibility' is-defined='yes'/>
    <elf-symbol name='_ZN6Engine15remove_ptr_dataEPKv' type='func-type' binding='weak-binding' visibility='default-visibility' is-defined='yes'/>
    <elf-symbol name='_ZN6Engine16insert_auto_dataEPKvm' type='func-type' binding='weak-binding' visibility='default-visibility' is-defined='yes'/>
    <elf-symbol name='_ZN6Engine16remove_auto_dataEPKv' type='func-type' binding='weak-binding' visibility='default-visibility' is-defined='yes'/>
    <elf-symbol name='_ZN6Engine19destroy_thread_dataEPv' type='func-type' binding='global-binding' visibility='default-visibility' is-defined='yes'/>
    <elf-symbol name='_ZN6Engine19find_targetptr_dataEPKv' type='func-type' binding='weak-binding' visibility='default-visibility' is-defined='yes'/>
    <elf-symbol name='_ZN6Engine21insert_targetptr_dataEPKvmRb' type='func-type' binding='weak-binding' visibility='default-visibility' is-defined='yes'/>
    <elf-symbol name='_ZN6Engine21remove_targetptr_dataEPKv' type='func-type' binding='weak-binding' visibility='default-visibility' is-defined='yes'/>
    <elf-symbol name='_ZN6Engine4initEv' type='func-type' binding='global-binding' visibility='default-visibility' is-defined='yes'/>
    <elf-symbol name='_ZN6Engine7add_libERK11TargetImage' type='func-type' binding='weak-binding' visibility='default-visibility' is-defined='yes'/>
    <elf-symbol name='_ZN6Engine7computeEmRKNSt7__cxx114listIP9coibufferSaIS3_EEEPKvtPvtjPK8coieventPSB_' type='func-type' binding='global-binding' visibility='default-visibility' is-defined='yes'/>
    <elf-symbol name='_ZN6Engine8fini_myoEP8coievent' type='func-type' binding='weak-binding' visibility='default-visibility' is-defined='yes'/>
    <elf-symbol name='_ZN6Engine8init_myoEP8coievent' type='func-type' binding='weak-binding' visibility='default-visibility' is-defined='yes'/>
    <elf-symbol name='_ZN6EngineC1Ev' type='func-type' binding='weak-binding' visibility='default-visibility' is-defined='yes'/>
    <elf-symbol name='_ZN6EngineC2Ev' type='func-type' binding='weak-binding' visibility='default-visibility' alias='_ZN6EngineC1Ev' is-defined='yes'/>
    <elf-symbol name='_ZN6EngineD1Ev' type='func-type' binding='weak-binding' visibility='default-visibility' is-defined='yes'/>
    <elf-symbol name='_ZN6EngineD2Ev' type='func-type' binding='weak-binding' visibility='default-visibility' alias='_ZN6EngineD1Ev' is-defined='yes'/>
    <elf-symbol name='_ZN6Stream10add_streamEii' type='func-type' binding='weak-binding' visibility='default-visibility' is-defined='yes'/>
    <elf-symbol name='_ZN6Stream10get_deviceEv' type='func-type' binding='weak-binding' visibility='default-visibility' is-defined='yes'/>
    <elf-symbol name='_ZN6Stream11find_streamEmb' type='func-type' binding='global-binding' visibility='default-visibility' is-defined='yes'/>
    <elf-symbol name='_ZN6Stream12get_pipelineEv' type='func-type' binding='weak-binding' visibility='default-visibility' is-defined='yes'/>
    <elf-symbol name='_ZN6Stream12set_pipelineEP11coipipeline' type='func-type' binding='weak-binding' visibility='default-visibility' is-defined='yes'/>
    <elf-symbol name='_ZN6Stream14get_cpu_numberEv' type='func-type' binding='weak-binding' visibility='default-visibility' is-defined='yes'/>
    <elf-symbol name='_ZN6Stream16get_last_offloadEv' type='func-type' binding='weak-binding' visibility='default-visibility' is-defined='yes'/>
    <elf-symbol name='_ZN6Stream16set_last_offloadEP17OffloadDescriptor' type='func-type' binding='weak-binding' visibility='default-visibility' is-defined='yes'/>
    <elf-symbol name='_ZN6StreamC1Eii' type='func-type' binding='weak-binding' visibility='default-visibility' is-defined='yes'/>
    <elf-symbol name='_ZN6StreamC2Eii' type='func-type' binding='weak-binding' visibility='default-visibility' alias='_ZN6StreamC1Eii' is-defined='yes'/>
    <elf-symbol name='_ZN6StreamD1Ev' type='func-type' binding='weak-binding' visibility='default-visibility' is-defined='yes'/>
    <elf-symbol name='_ZN6StreamD2Ev' type='func-type' binding='weak-binding' visibility='default-visibility' alias='_ZN6StreamD1Ev' is-defined='yes'/>
    <elf-symbol name='_ZN6Thread12set_pipelineEiP11coipipeline' type='func-type' binding='weak-binding' visibility='default-visibility' is-defined='yes'/>
    <elf-symbol name='_ZN6Thread13get_auto_varsEv' type='func-type' binding='weak-binding' visibility='default-visibility' is-defined='yes'/>
    <elf-symbol name='_ZN6ThreadC1EPl' type='func-type' binding='weak-binding' visibility='default-visibility' is-defined='yes'/>
    <elf-symbol name='_ZN6ThreadC2EPl' type='func-type' binding='weak-binding' visibility='default-visibility' alias='_ZN6ThreadC1EPl' is-defined='yes'/>
    <elf-symbol name='_ZN6ThreadD1Ev' type='func-type' binding='weak-binding' visibility='default-visibility' is-defined='yes'/>
    <elf-symbol name='_ZN6ThreadD2Ev' type='func-type' binding='weak-binding' visibility='default-visibility' alias='_ZN6ThreadD1Ev' is-defined='yes'/>
    <elf-symbol name='_ZN7PtrData13add_referenceEv' type='func-type' binding='weak-binding' visibility='default-visibility' is-defined='yes'/>
    <elf-symbol name='_ZN7PtrData16remove_referenceEv' type='func-type' binding='weak-binding' visibility='default-visibility' is-defined='yes'/>
    <elf-symbol name='_ZN7PtrDataC1EPKvm' type='func-type' binding='weak-binding' visibility='default-visibility' is-defined='yes'/>
    <elf-symbol name='_ZN7PtrDataC1ERKS_' type='func-type' binding='weak-binding' visibility='default-visibility' is-defined='yes'/>
    <elf-symbol name='_ZN7PtrDataC2EPKvm' type='func-type' binding='weak-binding' visibility='default-visibility' alias='_ZN7PtrDataC1EPKvm' is-defined='yes'/>
    <elf-symbol name='_ZN7PtrDataC2ERKS_' type='func-type' binding='weak-binding' visibility='default-visibility' alias='_ZN7PtrDataC1ERKS_' is-defined='yes'/>
    <elf-symbol name='_ZN7PtrDataD1Ev' type='func-type' binding='weak-binding' visibility='default-visibility' is-defined='yes'/>
    <elf-symbol name='_ZN7PtrDataD2Ev' type='func-type' binding='weak-binding' visibility='default-visibility' alias='_ZN7PtrDataD1Ev' is-defined='yes'/>
    <elf-symbol name='_ZN7mutex_t4lockEv' type='func-type' binding='weak-binding' visibility='default-visibility' is-defined='yes'/>
    <elf-symbol name='_ZN7mutex_t6unlockEv' type='func-type' binding='weak-binding' visibility='default-visibility' is-defined='yes'/>
    <elf-symbol name='_ZN7mutex_tC1Ev' type='func-type' binding='weak-binding' visibility='default-visibility' is-defined='yes'/>
    <elf-symbol name='_ZN7mutex_tC2Ev' type='func-type' binding='weak-binding' visibility='default-visibility' alias='_ZN7mutex_tC1Ev' is-defined='yes'/>
    <elf-symbol name='_ZN7mutex_tD1Ev' type='func-type' binding='weak-binding' visibility='default-visibility' is-defined='yes'/>
    <elf-symbol name='_ZN7mutex_tD2Ev' type='func-type' binding='weak-binding' visibility='default-visibility' alias='_ZN7mutex_tD1Ev' is-defined='yes'/>
    <elf-symbol name='_ZN8AutoData13add_referenceEv' type='func-type' binding='weak-binding' visibility='default-visibility' is-defined='yes'/>
    <elf-symbol name='_ZN8AutoData16remove_referenceEv' type='func-type' binding='weak-binding' visibility='default-visibility' is-defined='yes'/>
    <elf-symbol name='_ZN8AutoData17nullify_referenceEv' type='func-type' binding='weak-binding' visibility='default-visibility' is-defined='yes'/>
    <elf-symbol name='_ZN8AutoDataC1EPKvm' type='func-type' binding='weak-binding' visibility='default-visibility' is-defined='yes'/>
    <elf-symbol name='_ZN8AutoDataC2EPKvm' type='func-type' binding='weak-binding' visibility='default-visibility' alias='_ZN8AutoDataC1EPKvm' is-defined='yes'/>
    <elf-symbol name='_ZN8Iterator8new_nodeEPN9TableListI8VarTableE4NodeE' type='func-type' binding='weak-binding' visibility='default-visibility' is-defined='yes'/>
    <elf-symbol name='_ZN8IteratorC1EPN9TableListI8VarTableE4NodeE' type='func-type' binding='weak-binding' visibility='default-visibility' is-defined='yes'/>
    <elf-symbol name='_ZN8IteratorC1Ev' type='func-type' binding='weak-binding' visibility='default-visibility' is-defined='yes'/>
    <elf-symbol name='_ZN8IteratorC2EPN9TableListI8VarTableE4NodeE' type='func-type' binding='weak-binding' visibility='default-visibility' alias='_ZN8IteratorC1EPN9TableListI8VarTableE4NodeE' is-defined='yes'/>
    <elf-symbol name='_ZN8IteratorC2Ev' type='func-type' binding='weak-binding' visibility='default-visibility' alias='_ZN8IteratorC1Ev' is-defined='yes'/>
    <elf-symbol name='_ZN8IteratorppEv' type='func-type' binding='weak-binding' visibility='default-visibility' is-defined='yes'/>
    <elf-symbol name='_ZN8MemRangeC1EPKvm' type='func-type' binding='weak-binding' visibility='default-visibility' is-defined='yes'/>
    <elf-symbol name='_ZN8MemRangeC2EPKvm' type='func-type' binding='weak-binding' visibility='default-visibility' alias='_ZN8MemRangeC1EPKvm' is-defined='yes'/>
    <elf-symbol name='_ZN8MyoTableC1EP18MyoiSharedVarEntryi' type='func-type' binding='weak-binding' visibility='default-visibility' is-defined='yes'/>
    <elf-symbol name='_ZN8MyoTableC2EP18MyoiSharedVarEntryi' type='func-type' binding='weak-binding' visibility='default-visibility' alias='_ZN8MyoTableC1EP18MyoiSharedVarEntryi' is-defined='yes'/>
    <elf-symbol name='_ZN9TableListI11MYOVarTableE12remove_tableEPNS1_4NodeE' type='func-type' binding='weak-binding' visibility='default-visibility' is-defined='yes'/>
    <elf-symbol name='_ZN9TableListI11MYOVarTableE9add_tableEPNS1_4NodeE' type='func-type' binding='weak-binding' visibility='default-visibility' is-defined='yes'/>
    <elf-symbol name='_ZN9TableListI11MYOVarTableEC1EPNS1_4NodeE' type='func-type' binding='weak-binding' visibility='default-visibility' is-defined='yes'/>
    <elf-symbol name='_ZN9TableListI11MYOVarTableEC2EPNS1_4NodeE' type='func-type' binding='weak-binding' visibility='default-visibility' alias='_ZN9TableListI11MYOVarTableEC1EPNS1_4NodeE' is-defined='yes'/>
    <elf-symbol name='_ZN9TableListI11MYOVarTableED1Ev' type='func-type' binding='weak-binding' visibility='default-visibility' is-defined='yes'/>
    <elf-symbol name='_ZN9TableListI11MYOVarTableED2Ev' type='func-type' binding='weak-binding' visibility='default-visibility' alias='_ZN9TableListI11MYOVarTableED1Ev' is-defined='yes'/>
    <elf-symbol name='_ZN9TableListI12MYOFuncTableE12remove_tableEPNS1_4NodeE' type='func-type' binding='weak-binding' visibility='default-visibility' is-defined='yes'/>
    <elf-symbol name='_ZN9TableListI12MYOFuncTableE9add_tableEPNS1_4NodeE' type='func-type' binding='weak-binding' visibility='default-visibility' is-defined='yes'/>
    <elf-symbol name='_ZN9TableListI12MYOFuncTableEC1EPNS1_4NodeE' type='func-type' binding='weak-binding' visibility='default-visibility' is-defined='yes'/>
    <elf-symbol name='_ZN9TableListI12MYOFuncTableEC2EPNS1_4NodeE' type='func-type' binding='weak-binding' visibility='default-visibility' alias='_ZN9TableListI12MYOFuncTableEC1EPNS1_4NodeE' is-defined='yes'/>
    <elf-symbol name='_ZN9TableListI12MYOFuncTableED1Ev' type='func-type' binding='weak-binding' visibility='default-visibility' alias='_ZN9TableListI12MYOFuncTableED2Ev' is-defined='yes'/>
    <elf-symbol name='_ZN9TableListI12MYOFuncTableED2Ev' type='func-type' binding='weak-binding' visibility='default-visibility' is-defined='yes'/>
    <elf-symbol name='_ZN9TableListI12MYOInitTableE12remove_tableEPNS1_4NodeE' type='func-type' binding='weak-binding' visibility='default-visibility' is-defined='yes'/>
    <elf-symbol name='_ZN9TableListI12MYOInitTableE9add_tableEPNS1_4NodeE' type='func-type' binding='weak-binding' visibility='default-visibility' is-defined='yes'/>
    <elf-symbol name='_ZN9TableListI12MYOInitTableEC1EPNS1_4NodeE' type='func-type' binding='weak-binding' visibility='default-visibility' is-defined='yes'/>
    <elf-symbol name='_ZN9TableListI12MYOInitTableEC2EPNS1_4NodeE' type='func-type' binding='weak-binding' visibility='default-visibility' alias='_ZN9TableListI12MYOInitTableEC1EPNS1_4NodeE' is-defined='yes'/>
    <elf-symbol name='_ZN9TableListI12MYOInitTableED1Ev' type='func-type' binding='weak-binding' visibility='default-visibility' alias='_ZN9TableListI12MYOInitTableED2Ev' is-defined='yes'/>
    <elf-symbol name='_ZN9TableListI12MYOInitTableED2Ev' type='func-type' binding='weak-binding' visibility='default-visibility' is-defined='yes'/>
    <elf-symbol name='_ZN9TableListI8VarTableE12remove_tableEPNS1_4NodeE' type='func-type' binding='weak-binding' visibility='default-visibility' is-defined='yes'/>
    <elf-symbol name='_ZN9TableListI8VarTableE9add_tableEPNS1_4NodeE' type='func-type' binding='weak-binding' visibility='default-visibility' is-defined='yes'/>
    <elf-symbol name='_ZN9TableListI8VarTableEC1EPNS1_4NodeE' type='func-type' binding='weak-binding' visibility='default-visibility' is-defined='yes'/>
    <elf-symbol name='_ZN9TableListI8VarTableEC2EPNS1_4NodeE' type='func-type' binding='weak-binding' visibility='default-visibility' alias='_ZN9TableListI8VarTableEC1EPNS1_4NodeE' is-defined='yes'/>
    <elf-symbol name='_ZN9TableListI8VarTableED1Ev' type='func-type' binding='weak-binding' visibility='default-visibility' is-defined='yes'/>
    <elf-symbol name='_ZN9TableListI8VarTableED2Ev' type='func-type' binding='weak-binding' visibility='default-visibility' alias='_ZN9TableListI8VarTableED1Ev' is-defined='yes'/>
    <elf-symbol name='_ZN9TableListI9FuncTableE12remove_tableEPNS1_4NodeE' type='func-type' binding='weak-binding' visibility='default-visibility' is-defined='yes'/>
    <elf-symbol name='_ZN9TableListI9FuncTableE9add_tableEPNS1_4NodeE' type='func-type' binding='weak-binding' visibility='default-visibility' is-defined='yes'/>
    <elf-symbol name='_ZN9TableListI9FuncTableEC1EPNS1_4NodeE' type='func-type' binding='weak-binding' visibility='default-visibility' is-defined='yes'/>
    <elf-symbol name='_ZN9TableListI9FuncTableEC2EPNS1_4NodeE' type='func-type' binding='weak-binding' visibility='default-visibility' alias='_ZN9TableListI9FuncTableEC1EPNS1_4NodeE' is-defined='yes'/>
    <elf-symbol name='_ZN9TableListI9FuncTableED1Ev' type='func-type' binding='weak-binding' visibility='default-visibility' alias='_ZN9TableListI9FuncTableED2Ev' is-defined='yes'/>
    <elf-symbol name='_ZN9TableListI9FuncTableED2Ev' type='func-type' binding='weak-binding' visibility='default-visibility' is-defined='yes'/>
    <elf-symbol name='_ZN9__gnu_cxx13new_allocatorIPKN8VarTable5EntryEE10deallocateEPS4_m' type='func-type' binding='weak-binding' visibility='default-visibility' is-defined='yes'/>
    <elf-symbol name='_ZN9__gnu_cxx13new_allocatorIPKN8VarTable5EntryEE7destroyIS4_EEvPT_' type='func-type' binding='weak-binding' visibility='default-visibility' is-defined='yes'/>
    <elf-symbol name='_ZN9__gnu_cxx13new_allocatorIPKN8VarTable5EntryEE8allocateEmPKv' type='func-type' binding='weak-binding' visibility='default-visibility' is-defined='yes'/>
    <elf-symbol name='_ZN9__gnu_cxx13new_allocatorIPKN8VarTable5EntryEE9constructIS4_IS4_EEEvPT_DpOT0_' type='func-type' binding='weak-binding' visibility='default-visibility' is-defined='yes'/>
    <elf-symbol name='_ZN9__gnu_cxx13new_allocatorIPKN8VarTable5EntryEE9constructIS4_JS4_EEEvPT_DpOT0_' type='func-type' binding='weak-binding' visibility='default-visibility' alias='_ZN9__gnu_cxx13new_allocatorIPKN8VarTable5EntryEE9constructIS4_IS4_EEEvPT_DpOT0_' is-defined='yes'/>
    <elf-symbol name='_ZN9__gnu_cxx13new_allocatorIPKN8VarTable5EntryEEC1ERKS5_' type='func-type' binding='weak-binding' visibility='default-visibility' is-defined='yes'/>
    <elf-symbol name='_ZN9__gnu_cxx13new_allocatorIPKN8VarTable5EntryEEC1Ev' type='func-type' binding='weak-binding' visibility='default-visibility' is-defined='yes'/>
    <elf-symbol name='_ZN9__gnu_cxx13new_allocatorIPKN8VarTable5EntryEEC2ERKS5_' type='func-type' binding='weak-binding' visibility='default-visibility' alias='_ZN9__gnu_cxx13new_allocatorIPKN8VarTable5EntryEEC1ERKS5_' is-defined='yes'/>
    <elf-symbol name='_ZN9__gnu_cxx13new_allocatorIPKN8VarTable5EntryEEC2Ev' type='func-type' binding='weak-binding' visibility='default-visibility' alias='_ZN9__gnu_cxx13new_allocatorIPKN8VarTable5EntryEEC1Ev' is-defined='yes'/>
    <elf-symbol name='_ZN9__gnu_cxx13new_allocatorIPKN8VarTable5EntryEED1Ev' type='func-type' binding='weak-binding' visibility='default-visibility' is-defined='yes'/>
    <elf-symbol name='_ZN9__gnu_cxx13new_allocatorIPKN8VarTable5EntryEED2Ev' type='func-type' binding='weak-binding' visibility='default-visibility' alias='_ZN9__gnu_cxx13new_allocatorIPKN8VarTable5EntryEED1Ev' is-defined='yes'/>
    <elf-symbol name='_ZN9__gnu_cxx13new_allocatorISt10_List_nodeI11PersistDataEE10deallocateEPS3_m' type='func-type' binding='weak-binding' visibility='default-visibility' is-defined='yes'/>
    <elf-symbol name='_ZN9__gnu_cxx13new_allocatorISt10_List_nodeI11PersistDataEE7destroyIS2_EEvPT_' type='func-type' binding='weak-binding' visibility='default-visibility' is-defined='yes'/>
    <elf-symbol name='_ZN9__gnu_cxx13new_allocatorISt10_List_nodeI11PersistDataEE8allocateEmPKv' type='func-type' binding='weak-binding' visibility='default-visibility' is-defined='yes'/>
    <elf-symbol name='_ZN9__gnu_cxx13new_allocatorISt10_List_nodeI11PersistDataEE9constructIS2_IRKS2_EEEvPT_DpOT0_' type='func-type' binding='weak-binding' visibility='default-visibility' is-defined='yes'/>
    <elf-symbol name='_ZN9__gnu_cxx13new_allocatorISt10_List_nodeI11PersistDataEE9constructIS2_JRKS2_EEEvPT_DpOT0_' type='func-type' binding='weak-binding' visibility='default-visibility' alias='_ZN9__gnu_cxx13new_allocatorISt10_List_nodeI11PersistDataEE9constructIS2_IRKS2_EEEvPT_DpOT0_' is-defined='yes'/>
    <elf-symbol name='_ZN9__gnu_cxx13new_allocatorISt10_List_nodeI11PersistDataEEC1Ev' type='func-type' binding='weak-binding' visibility='default-visibility' is-defined='yes'/>
    <elf-symbol name='_ZN9__gnu_cxx13new_allocatorISt10_List_nodeI11PersistDataEEC2Ev' type='func-type' binding='weak-binding' visibility='default-visibility' alias='_ZN9__gnu_cxx13new_allocatorISt10_List_nodeI11PersistDataEEC1Ev' is-defined='yes'/>
    <elf-symbol name='_ZN9__gnu_cxx13new_allocatorISt10_List_nodeI11PersistDataEED1Ev' type='func-type' binding='weak-binding' visibility='default-visibility' is-defined='yes'/>
    <elf-symbol name='_ZN9__gnu_cxx13new_allocatorISt10_List_nodeI11PersistDataEED2Ev' type='func-type' binding='weak-binding' visibility='default-visibility' alias='_ZN9__gnu_cxx13new_allocatorISt10_List_nodeI11PersistDataEED1Ev' is-defined='yes'/>
    <elf-symbol name='_ZN9__gnu_cxx13new_allocatorISt10_List_nodeI11TargetImageEE10deallocateEPS3_m' type='func-type' binding='weak-binding' visibility='default-visibility' is-defined='yes'/>
    <elf-symbol name='_ZN9__gnu_cxx13new_allocatorISt10_List_nodeI11TargetImageEE7destroyIS2_EEvPT_' type='func-type' binding='weak-binding' visibility='default-visibility' is-defined='yes'/>
    <elf-symbol name='_ZN9__gnu_cxx13new_allocatorISt10_List_nodeI11TargetImageEE8allocateEmPKv' type='func-type' binding='weak-binding' visibility='default-visibility' is-defined='yes'/>
    <elf-symbol name='_ZN9__gnu_cxx13new_allocatorISt10_List_nodeI11TargetImageEE9constructIS2_IRKS2_EEEvPT_DpOT0_' type='func-type' binding='weak-binding' visibility='default-visibility' is-defined='yes'/>
    <elf-symbol name='_ZN9__gnu_cxx13new_allocatorISt10_List_nodeI11TargetImageEE9constructIS2_IS2_EEEvPT_DpOT0_' type='func-type' binding='weak-binding' visibility='default-visibility' is-defined='yes'/>
    <elf-symbol name='_ZN9__gnu_cxx13new_allocatorISt10_List_nodeI11TargetImageEE9constructIS2_JRKS2_EEEvPT_DpOT0_' type='func-type' binding='weak-binding' visibility='default-visibility' alias='_ZN9__gnu_cxx13new_allocatorISt10_List_nodeI11TargetImageEE9constructIS2_IRKS2_EEEvPT_DpOT0_' is-defined='yes'/>
    <elf-symbol name='_ZN9__gnu_cxx13new_allocatorISt10_List_nodeI11TargetImageEE9constructIS2_JS2_EEEvPT_DpOT0_' type='func-type' binding='weak-binding' visibility='default-visibility' alias='_ZN9__gnu_cxx13new_allocatorISt10_List_nodeI11TargetImageEE9constructIS2_IS2_EEEvPT_DpOT0_' is-defined='yes'/>
    <elf-symbol name='_ZN9__gnu_cxx13new_allocatorISt10_List_nodeI11TargetImageEEC1Ev' type='func-type' binding='weak-binding' visibility='default-visibility' is-defined='yes'/>
    <elf-symbol name='_ZN9__gnu_cxx13new_allocatorISt10_List_nodeI11TargetImageEEC2Ev' type='func-type' binding='weak-binding' visibility='default-visibility' alias='_ZN9__gnu_cxx13new_allocatorISt10_List_nodeI11TargetImageEEC1Ev' is-defined='yes'/>
    <elf-symbol name='_ZN9__gnu_cxx13new_allocatorISt10_List_nodeI11TargetImageEED1Ev' type='func-type' binding='weak-binding' visibility='default-visibility' is-defined='yes'/>
    <elf-symbol name='_ZN9__gnu_cxx13new_allocatorISt10_List_nodeI11TargetImageEED2Ev' type='func-type' binding='weak-binding' visibility='default-visibility' alias='_ZN9__gnu_cxx13new_allocatorISt10_List_nodeI11TargetImageEED1Ev' is-defined='yes'/>
    <elf-symbol name='_ZN9__gnu_cxx13new_allocatorISt10_List_nodeI6DynLibEE10deallocateEPS3_m' type='func-type' binding='weak-binding' visibility='default-visibility' is-defined='yes'/>
    <elf-symbol name='_ZN9__gnu_cxx13new_allocatorISt10_List_nodeI6DynLibEE7destroyIS2_EEvPT_' type='func-type' binding='weak-binding' visibility='default-visibility' is-defined='yes'/>
    <elf-symbol name='_ZN9__gnu_cxx13new_allocatorISt10_List_nodeI6DynLibEE8allocateEmPKv' type='func-type' binding='weak-binding' visibility='default-visibility' is-defined='yes'/>
    <elf-symbol name='_ZN9__gnu_cxx13new_allocatorISt10_List_nodeI6DynLibEE9constructIS2_IS2_EEEvPT_DpOT0_' type='func-type' binding='weak-binding' visibility='default-visibility' is-defined='yes'/>
    <elf-symbol name='_ZN9__gnu_cxx13new_allocatorISt10_List_nodeI6DynLibEE9constructIS2_JS2_EEEvPT_DpOT0_' type='func-type' binding='weak-binding' visibility='default-visibility' alias='_ZN9__gnu_cxx13new_allocatorISt10_List_nodeI6DynLibEE9constructIS2_IS2_EEEvPT_DpOT0_' is-defined='yes'/>
    <elf-symbol name='_ZN9__gnu_cxx13new_allocatorISt10_List_nodeI6DynLibEEC1Ev' type='func-type' binding='weak-binding' visibility='default-visibility' is-defined='yes'/>
    <elf-symbol name='_ZN9__gnu_cxx13new_allocatorISt10_List_nodeI6DynLibEEC2Ev' type='func-type' binding='weak-binding' visibility='default-visibility' alias='_ZN9__gnu_cxx13new_allocatorISt10_List_nodeI6DynLibEEC1Ev' is-defined='yes'/>
    <elf-symbol name='_ZN9__gnu_cxx13new_allocatorISt10_List_nodeI6DynLibEED1Ev' type='func-type' binding='weak-binding' visibility='default-visibility' is-defined='yes'/>
    <elf-symbol name='_ZN9__gnu_cxx13new_allocatorISt10_List_nodeI6DynLibEED2Ev' type='func-type' binding='weak-binding' visibility='default-visibility' alias='_ZN9__gnu_cxx13new_allocatorISt10_List_nodeI6DynLibEED1Ev' is-defined='yes'/>
    <elf-symbol name='_ZN9__gnu_cxx13new_allocatorISt10_List_nodeI8MyoTableEE10deallocateEPS3_m' type='func-type' binding='weak-binding' visibility='default-visibility' is-defined='yes'/>
    <elf-symbol name='_ZN9__gnu_cxx13new_allocatorISt10_List_nodeI8MyoTableEE7destroyIS2_EEvPT_' type='func-type' binding='weak-binding' visibility='default-visibility' is-defined='yes'/>
    <elf-symbol name='_ZN9__gnu_cxx13new_allocatorISt10_List_nodeI8MyoTableEE8allocateEmPKv' type='func-type' binding='weak-binding' visibility='default-visibility' is-defined='yes'/>
    <elf-symbol name='_ZN9__gnu_cxx13new_allocatorISt10_List_nodeI8MyoTableEE9constructIS2_IS2_EEEvPT_DpOT0_' type='func-type' binding='weak-binding' visibility='default-visibility' is-defined='yes'/>
    <elf-symbol name='_ZN9__gnu_cxx13new_allocatorISt10_List_nodeI8MyoTableEE9constructIS2_JS2_EEEvPT_DpOT0_' type='func-type' binding='weak-binding' visibility='default-visibility' alias='_ZN9__gnu_cxx13new_allocatorISt10_List_nodeI8MyoTableEE9constructIS2_IS2_EEEvPT_DpOT0_' is-defined='yes'/>
    <elf-symbol name='_ZN9__gnu_cxx13new_allocatorISt10_List_nodeI8MyoTableEEC1Ev' type='func-type' binding='weak-binding' visibility='default-visibility' is-defined='yes'/>
    <elf-symbol name='_ZN9__gnu_cxx13new_allocatorISt10_List_nodeI8MyoTableEEC2Ev' type='func-type' binding='weak-binding' visibility='default-visibility' alias='_ZN9__gnu_cxx13new_allocatorISt10_List_nodeI8MyoTableEEC1Ev' is-defined='yes'/>
    <elf-symbol name='_ZN9__gnu_cxx13new_allocatorISt10_List_nodeI8MyoTableEED1Ev' type='func-type' binding='weak-binding' visibility='default-visibility' is-defined='yes'/>
    <elf-symbol name='_ZN9__gnu_cxx13new_allocatorISt10_List_nodeI8MyoTableEED2Ev' type='func-type' binding='weak-binding' visibility='default-visibility' alias='_ZN9__gnu_cxx13new_allocatorISt10_List_nodeI8MyoTableEED1Ev' is-defined='yes'/>
    <elf-symbol name='_ZN9__gnu_cxx13new_allocatorISt10_List_nodeIP7PtrDataEE10deallocateEPS4_m' type='func-type' binding='weak-binding' visibility='default-visibility' is-defined='yes'/>
    <elf-symbol name='_ZN9__gnu_cxx13new_allocatorISt10_List_nodeIP7PtrDataEE7destroyIS3_EEvPT_' type='func-type' binding='weak-binding' visibility='default-visibility' is-defined='yes'/>
    <elf-symbol name='_ZN9__gnu_cxx13new_allocatorISt10_List_nodeIP7PtrDataEE8allocateEmPKv' type='func-type' binding='weak-binding' visibility='default-visibility' is-defined='yes'/>
    <elf-symbol name='_ZN9__gnu_cxx13new_allocatorISt10_List_nodeIP7PtrDataEE9constructIS3_IRKS3_EEEvPT_DpOT0_' type='func-type' binding='weak-binding' visibility='default-visibility' is-defined='yes'/>
    <elf-symbol name='_ZN9__gnu_cxx13new_allocatorISt10_List_nodeIP7PtrDataEE9constructIS3_JRKS3_EEEvPT_DpOT0_' type='func-type' binding='weak-binding' visibility='default-visibility' alias='_ZN9__gnu_cxx13new_allocatorISt10_List_nodeIP7PtrDataEE9constructIS3_IRKS3_EEEvPT_DpOT0_' is-defined='yes'/>
    <elf-symbol name='_ZN9__gnu_cxx13new_allocatorISt10_List_nodeIP7PtrDataEEC1Ev' type='func-type' binding='weak-binding' visibility='default-visibility' is-defined='yes'/>
    <elf-symbol name='_ZN9__gnu_cxx13new_allocatorISt10_List_nodeIP7PtrDataEEC2Ev' type='func-type' binding='weak-binding' visibility='default-visibility' alias='_ZN9__gnu_cxx13new_allocatorISt10_List_nodeIP7PtrDataEEC1Ev' is-defined='yes'/>
    <elf-symbol name='_ZN9__gnu_cxx13new_allocatorISt10_List_nodeIP7PtrDataEED1Ev' type='func-type' binding='weak-binding' visibility='default-visibility' is-defined='yes'/>
    <elf-symbol name='_ZN9__gnu_cxx13new_allocatorISt10_List_nodeIP7PtrDataEED2Ev' type='func-type' binding='weak-binding' visibility='default-visibility' alias='_ZN9__gnu_cxx13new_allocatorISt10_List_nodeIP7PtrDataEED1Ev' is-defined='yes'/>
    <elf-symbol name='_ZN9__gnu_cxx13new_allocatorISt10_List_nodeIP9coibufferEE10deallocateEPS4_m' type='func-type' binding='weak-binding' visibility='default-visibility' is-defined='yes'/>
    <elf-symbol name='_ZN9__gnu_cxx13new_allocatorISt10_List_nodeIP9coibufferEE7destroyIS3_EEvPT_' type='func-type' binding='weak-binding' visibility='default-visibility' is-defined='yes'/>
    <elf-symbol name='_ZN9__gnu_cxx13new_allocatorISt10_List_nodeIP9coibufferEE8allocateEmPKv' type='func-type' binding='weak-binding' visibility='default-visibility' is-defined='yes'/>
    <elf-symbol name='_ZN9__gnu_cxx13new_allocatorISt10_List_nodeIP9coibufferEE9constructIS3_IRKS3_EEEvPT_DpOT0_' type='func-type' binding='weak-binding' visibility='default-visibility' is-defined='yes'/>
    <elf-symbol name='_ZN9__gnu_cxx13new_allocatorISt10_List_nodeIP9coibufferEE9constructIS3_JRKS3_EEEvPT_DpOT0_' type='func-type' binding='weak-binding' visibility='default-visibility' alias='_ZN9__gnu_cxx13new_allocatorISt10_List_nodeIP9coibufferEE9constructIS3_IRKS3_EEEvPT_DpOT0_' is-defined='yes'/>
    <elf-symbol name='_ZN9__gnu_cxx13new_allocatorISt10_List_nodeIP9coibufferEEC1Ev' type='func-type' binding='weak-binding' visibility='default-visibility' is-defined='yes'/>
    <elf-symbol name='_ZN9__gnu_cxx13new_allocatorISt10_List_nodeIP9coibufferEEC2Ev' type='func-type' binding='weak-binding' visibility='default-visibility' alias='_ZN9__gnu_cxx13new_allocatorISt10_List_nodeIP9coibufferEEC1Ev' is-defined='yes'/>
    <elf-symbol name='_ZN9__gnu_cxx13new_allocatorISt10_List_nodeIP9coibufferEED1Ev' type='func-type' binding='weak-binding' visibility='default-visibility' is-defined='yes'/>
    <elf-symbol name='_ZN9__gnu_cxx13new_allocatorISt10_List_nodeIP9coibufferEED2Ev' type='func-type' binding='weak-binding' visibility='default-visibility' alias='_ZN9__gnu_cxx13new_allocatorISt10_List_nodeIP9coibufferEED1Ev' is-defined='yes'/>
    <elf-symbol name='_ZN9__gnu_cxx13new_allocatorISt10_List_nodeIPcEE10deallocateEPS3_m' type='func-type' binding='weak-binding' visibility='default-visibility' is-defined='yes'/>
    <elf-symbol name='_ZN9__gnu_cxx13new_allocatorISt10_List_nodeIPcEE7destroyIS2_EEvPT_' type='func-type' binding='weak-binding' visibility='default-visibility' is-defined='yes'/>
    <elf-symbol name='_ZN9__gnu_cxx13new_allocatorISt10_List_nodeIPcEE8allocateEmPKv' type='func-type' binding='weak-binding' visibility='default-visibility' is-defined='yes'/>
    <elf-symbol name='_ZN9__gnu_cxx13new_allocatorISt10_List_nodeIPcEE9constructIS2_IRKS2_EEEvPT_DpOT0_' type='func-type' binding='weak-binding' visibility='default-visibility' is-defined='yes'/>
    <elf-symbol name='_ZN9__gnu_cxx13new_allocatorISt10_List_nodeIPcEE9constructIS2_JRKS2_EEEvPT_DpOT0_' type='func-type' binding='weak-binding' visibility='default-visibility' alias='_ZN9__gnu_cxx13new_allocatorISt10_List_nodeIPcEE9constructIS2_IRKS2_EEEvPT_DpOT0_' is-defined='yes'/>
    <elf-symbol name='_ZN9__gnu_cxx13new_allocatorISt10_List_nodeIPcEEC1Ev' type='func-type' binding='weak-binding' visibility='default-visibility' is-defined='yes'/>
    <elf-symbol name='_ZN9__gnu_cxx13new_allocatorISt10_List_nodeIPcEEC2Ev' type='func-type' binding='weak-binding' visibility='default-visibility' alias='_ZN9__gnu_cxx13new_allocatorISt10_List_nodeIPcEEC1Ev' is-defined='yes'/>
    <elf-symbol name='_ZN9__gnu_cxx13new_allocatorISt10_List_nodeIPcEED1Ev' type='func-type' binding='weak-binding' visibility='default-visibility' is-defined='yes'/>
    <elf-symbol name='_ZN9__gnu_cxx13new_allocatorISt10_List_nodeIPcEED2Ev' type='func-type' binding='weak-binding' visibility='default-visibility' alias='_ZN9__gnu_cxx13new_allocatorISt10_List_nodeIPcEED1Ev' is-defined='yes'/>
    <elf-symbol name='_ZN9__gnu_cxx13new_allocatorISt13_Rb_tree_nodeI7PtrDataEE10deallocateEPS3_m' type='func-type' binding='weak-binding' visibility='default-visibility' is-defined='yes'/>
    <elf-symbol name='_ZN9__gnu_cxx13new_allocatorISt13_Rb_tree_nodeI7PtrDataEE7destroyIS2_EEvPT_' type='func-type' binding='weak-binding' visibility='default-visibility' is-defined='yes'/>
    <elf-symbol name='_ZN9__gnu_cxx13new_allocatorISt13_Rb_tree_nodeI7PtrDataEE8allocateEmPKv' type='func-type' binding='weak-binding' visibility='default-visibility' is-defined='yes'/>
    <elf-symbol name='_ZN9__gnu_cxx13new_allocatorISt13_Rb_tree_nodeI7PtrDataEE9constructIS2_IS2_EEEvPT_DpOT0_' type='func-type' binding='weak-binding' visibility='default-visibility' is-defined='yes'/>
    <elf-symbol name='_ZN9__gnu_cxx13new_allocatorISt13_Rb_tree_nodeI7PtrDataEE9constructIS2_JS2_EEEvPT_DpOT0_' type='func-type' binding='weak-binding' visibility='default-visibility' alias='_ZN9__gnu_cxx13new_allocatorISt13_Rb_tree_nodeI7PtrDataEE9constructIS2_IS2_EEEvPT_DpOT0_' is-defined='yes'/>
    <elf-symbol name='_ZN9__gnu_cxx13new_allocatorISt13_Rb_tree_nodeI7PtrDataEEC1Ev' type='func-type' binding='weak-binding' visibility='default-visibility' is-defined='yes'/>
    <elf-symbol name='_ZN9__gnu_cxx13new_allocatorISt13_Rb_tree_nodeI7PtrDataEEC2Ev' type='func-type' binding='weak-binding' visibility='default-visibility' alias='_ZN9__gnu_cxx13new_allocatorISt13_Rb_tree_nodeI7PtrDataEEC1Ev' is-defined='yes'/>
    <elf-symbol name='_ZN9__gnu_cxx13new_allocatorISt13_Rb_tree_nodeI7PtrDataEED1Ev' type='func-type' binding='weak-binding' visibility='default-visibility' is-defined='yes'/>
    <elf-symbol name='_ZN9__gnu_cxx13new_allocatorISt13_Rb_tree_nodeI7PtrDataEED2Ev' type='func-type' binding='weak-binding' visibility='default-visibility' alias='_ZN9__gnu_cxx13new_allocatorISt13_Rb_tree_nodeI7PtrDataEED1Ev' is-defined='yes'/>
    <elf-symbol name='_ZN9__gnu_cxx13new_allocatorISt13_Rb_tree_nodeI8AutoDataEE10deallocateEPS3_m' type='func-type' binding='weak-binding' visibility='default-visibility' is-defined='yes'/>
    <elf-symbol name='_ZN9__gnu_cxx13new_allocatorISt13_Rb_tree_nodeI8AutoDataEE7destroyIS2_EEvPT_' type='func-type' binding='weak-binding' visibility='default-visibility' is-defined='yes'/>
    <elf-symbol name='_ZN9__gnu_cxx13new_allocatorISt13_Rb_tree_nodeI8AutoDataEE8allocateEmPKv' type='func-type' binding='weak-binding' visibility='default-visibility' is-defined='yes'/>
    <elf-symbol name='_ZN9__gnu_cxx13new_allocatorISt13_Rb_tree_nodeI8AutoDataEE9constructIS2_IS2_EEEvPT_DpOT0_' type='func-type' binding='weak-binding' visibility='default-visibility' is-defined='yes'/>
    <elf-symbol name='_ZN9__gnu_cxx13new_allocatorISt13_Rb_tree_nodeI8AutoDataEE9constructIS2_JS2_EEEvPT_DpOT0_' type='func-type' binding='weak-binding' visibility='default-visibility' alias='_ZN9__gnu_cxx13new_allocatorISt13_Rb_tree_nodeI8AutoDataEE9constructIS2_IS2_EEEvPT_DpOT0_' is-defined='yes'/>
    <elf-symbol name='_ZN9__gnu_cxx13new_allocatorISt13_Rb_tree_nodeI8AutoDataEEC1Ev' type='func-type' binding='weak-binding' visibility='default-visibility' is-defined='yes'/>
    <elf-symbol name='_ZN9__gnu_cxx13new_allocatorISt13_Rb_tree_nodeI8AutoDataEEC2Ev' type='func-type' binding='weak-binding' visibility='default-visibility' alias='_ZN9__gnu_cxx13new_allocatorISt13_Rb_tree_nodeI8AutoDataEEC1Ev' is-defined='yes'/>
    <elf-symbol name='_ZN9__gnu_cxx13new_allocatorISt13_Rb_tree_nodeI8AutoDataEED1Ev' type='func-type' binding='weak-binding' visibility='default-visibility' is-defined='yes'/>
    <elf-symbol name='_ZN9__gnu_cxx13new_allocatorISt13_Rb_tree_nodeI8AutoDataEED2Ev' type='func-type' binding='weak-binding' visibility='default-visibility' alias='_ZN9__gnu_cxx13new_allocatorISt13_Rb_tree_nodeI8AutoDataEED1Ev' is-defined='yes'/>
    <elf-symbol name='_ZN9__gnu_cxx13new_allocatorISt13_Rb_tree_nodeISt4pairIKPKvP17OffloadDescriptorEEE10deallocateEPS9_m' type='func-type' binding='weak-binding' visibility='default-visibility' is-defined='yes'/>
    <elf-symbol name='_ZN9__gnu_cxx13new_allocatorISt13_Rb_tree_nodeISt4pairIKPKvP17OffloadDescriptorEEE7destroyIS8_EEvPT_' type='func-type' binding='weak-binding' visibility='default-visibility' is-defined='yes'/>
    <elf-symbol name='_ZN9__gnu_cxx13new_allocatorISt13_Rb_tree_nodeISt4pairIKPKvP17OffloadDescriptorEEE8allocateEmS4_' type='func-type' binding='weak-binding' visibility='default-visibility' is-defined='yes'/>
    <elf-symbol name='_ZN9__gnu_cxx13new_allocatorISt13_Rb_tree_nodeISt4pairIKPKvP17OffloadDescriptorEEE9constructIS8_IRKSt21piecewise_construct_tSt5tupleIIRS5_EESF_IIEEEEEvPT_DpOT0_' type='func-type' binding='weak-binding' visibility='default-visibility' is-defined='yes'/>
    <elf-symbol name='_ZN9__gnu_cxx13new_allocatorISt13_Rb_tree_nodeISt4pairIKPKvP17OffloadDescriptorEEE9constructIS8_JRKSt21piecewise_construct_tSt5tupleIJRS5_EESF_IJEEEEEvPT_DpOT0_' type='func-type' binding='weak-binding' visibility='default-visibility' alias='_ZN9__gnu_cxx13new_allocatorISt13_Rb_tree_nodeISt4pairIKPKvP17OffloadDescriptorEEE9constructIS8_IRKSt21piecewise_construct_tSt5tupleIIRS5_EESF_IIEEEEEvPT_DpOT0_' is-defined='yes'/>
    <elf-symbol name='_ZN9__gnu_cxx13new_allocatorISt13_Rb_tree_nodeISt4pairIKPKvP17OffloadDescriptorEEEC1Ev' type='func-type' binding='weak-binding' visibility='default-visibility' is-defined='yes'/>
    <elf-symbol name='_ZN9__gnu_cxx13new_allocatorISt13_Rb_tree_nodeISt4pairIKPKvP17OffloadDescriptorEEEC2Ev' type='func-type' binding='weak-binding' visibility='default-visibility' alias='_ZN9__gnu_cxx13new_allocatorISt13_Rb_tree_nodeISt4pairIKPKvP17OffloadDescriptorEEEC1Ev' is-defined='yes'/>
    <elf-symbol name='_ZN9__gnu_cxx13new_allocatorISt13_Rb_tree_nodeISt4pairIKPKvP17OffloadDescriptorEEED1Ev' type='func-type' binding='weak-binding' visibility='default-visibility' is-defined='yes'/>
    <elf-symbol name='_ZN9__gnu_cxx13new_allocatorISt13_Rb_tree_nodeISt4pairIKPKvP17OffloadDescriptorEEED2Ev' type='func-type' binding='weak-binding' visibility='default-visibility' alias='_ZN9__gnu_cxx13new_allocatorISt13_Rb_tree_nodeISt4pairIKPKvP17OffloadDescriptorEEED1Ev' is-defined='yes'/>
    <elf-symbol name='_ZN9__gnu_cxx13new_allocatorISt13_Rb_tree_nodeISt4pairIKmP6StreamEEE10deallocateEPS7_m' type='func-type' binding='weak-binding' visibility='default-visibility' is-defined='yes'/>
    <elf-symbol name='_ZN9__gnu_cxx13new_allocatorISt13_Rb_tree_nodeISt4pairIKmP6StreamEEE7destroyIS6_EEvPT_' type='func-type' binding='weak-binding' visibility='default-visibility' is-defined='yes'/>
    <elf-symbol name='_ZN9__gnu_cxx13new_allocatorISt13_Rb_tree_nodeISt4pairIKmP6StreamEEE8allocateEmPKv' type='func-type' binding='weak-binding' visibility='default-visibility' is-defined='yes'/>
    <elf-symbol name='_ZN9__gnu_cxx13new_allocatorISt13_Rb_tree_nodeISt4pairIKmP6StreamEEE9constructIS6_IRKS6_EEEvPT_DpOT0_' type='func-type' binding='weak-binding' visibility='default-visibility' is-defined='yes'/>
    <elf-symbol name='_ZN9__gnu_cxx13new_allocatorISt13_Rb_tree_nodeISt4pairIKmP6StreamEEE9constructIS6_IRKSt21piecewise_construct_tSt5tupleIIRS3_EESD_IIEEEEEvPT_DpOT0_' type='func-type' binding='weak-binding' visibility='default-visibility' is-defined='yes'/>
    <elf-symbol name='_ZN9__gnu_cxx13new_allocatorISt13_Rb_tree_nodeISt4pairIKmP6StreamEEE9constructIS6_JRKS6_EEEvPT_DpOT0_' type='func-type' binding='weak-binding' visibility='default-visibility' alias='_ZN9__gnu_cxx13new_allocatorISt13_Rb_tree_nodeISt4pairIKmP6StreamEEE9constructIS6_IRKS6_EEEvPT_DpOT0_' is-defined='yes'/>
    <elf-symbol name='_ZN9__gnu_cxx13new_allocatorISt13_Rb_tree_nodeISt4pairIKmP6StreamEEE9constructIS6_JRKSt21piecewise_construct_tSt5tupleIJRS3_EESD_IJEEEEEvPT_DpOT0_' type='func-type' binding='weak-binding' visibility='default-visibility' alias='_ZN9__gnu_cxx13new_allocatorISt13_Rb_tree_nodeISt4pairIKmP6StreamEEE9constructIS6_IRKSt21piecewise_construct_tSt5tupleIIRS3_EESD_IIEEEEEvPT_DpOT0_' is-defined='yes'/>
    <elf-symbol name='_ZN9__gnu_cxx13new_allocatorISt13_Rb_tree_nodeISt4pairIKmP6StreamEEEC1ERKS8_' type='func-type' binding='weak-binding' visibility='default-visibility' is-defined='yes'/>
    <elf-symbol name='_ZN9__gnu_cxx13new_allocatorISt13_Rb_tree_nodeISt4pairIKmP6StreamEEEC1Ev' type='func-type' binding='weak-binding' visibility='default-visibility' is-defined='yes'/>
    <elf-symbol name='_ZN9__gnu_cxx13new_allocatorISt13_Rb_tree_nodeISt4pairIKmP6StreamEEEC2ERKS8_' type='func-type' binding='weak-binding' visibility='default-visibility' alias='_ZN9__gnu_cxx13new_allocatorISt13_Rb_tree_nodeISt4pairIKmP6StreamEEEC1ERKS8_' is-defined='yes'/>
    <elf-symbol name='_ZN9__gnu_cxx13new_allocatorISt13_Rb_tree_nodeISt4pairIKmP6StreamEEEC2Ev' type='func-type' binding='weak-binding' visibility='default-visibility' alias='_ZN9__gnu_cxx13new_allocatorISt13_Rb_tree_nodeISt4pairIKmP6StreamEEEC1Ev' is-defined='yes'/>
    <elf-symbol name='_ZN9__gnu_cxx13new_allocatorISt13_Rb_tree_nodeISt4pairIKmP6StreamEEED1Ev' type='func-type' binding='weak-binding' visibility='default-visibility' is-defined='yes'/>
    <elf-symbol name='_ZN9__gnu_cxx13new_allocatorISt13_Rb_tree_nodeISt4pairIKmP6StreamEEED2Ev' type='func-type' binding='weak-binding' visibility='default-visibility' alias='_ZN9__gnu_cxx13new_allocatorISt13_Rb_tree_nodeISt4pairIKmP6StreamEEED1Ev' is-defined='yes'/>
    <elf-symbol name='_ZN9__gnu_cxx14__alloc_traitsISaISt13_Rb_tree_nodeISt4pairIKmP6StreamEEEE17_S_select_on_copyERKS8_' type='func-type' binding='weak-binding' visibility='default-visibility' is-defined='yes'/>
    <elf-symbol name='_ZN9__gnu_cxx16__aligned_membufI11PersistDataE6_M_ptrEv' type='func-type' binding='weak-binding' visibility='default-visibility' is-defined='yes'/>
    <elf-symbol name='_ZN9__gnu_cxx16__aligned_membufI11PersistDataE7_M_addrEv' type='func-type' binding='weak-binding' visibility='default-visibility' is-defined='yes'/>
    <elf-symbol name='_ZN9__gnu_cxx16__aligned_membufI11TargetImageE6_M_ptrEv' type='func-type' binding='weak-binding' visibility='default-visibility' is-defined='yes'/>
    <elf-symbol name='_ZN9__gnu_cxx16__aligned_membufI11TargetImageE7_M_addrEv' type='func-type' binding='weak-binding' visibility='default-visibility' is-defined='yes'/>
    <elf-symbol name='_ZN9__gnu_cxx16__aligned_membufI6DynLibE6_M_ptrEv' type='func-type' binding='weak-binding' visibility='default-visibility' is-defined='yes'/>
    <elf-symbol name='_ZN9__gnu_cxx16__aligned_membufI6DynLibE7_M_addrEv' type='func-type' binding='weak-binding' visibility='default-visibility' is-defined='yes'/>
    <elf-symbol name='_ZN9__gnu_cxx16__aligned_membufI7PtrDataE6_M_ptrEv' type='func-type' binding='weak-binding' visibility='default-visibility' is-defined='yes'/>
    <elf-symbol name='_ZN9__gnu_cxx16__aligned_membufI7PtrDataE7_M_addrEv' type='func-type' binding='weak-binding' visibility='default-visibility' is-defined='yes'/>
    <elf-symbol name='_ZN9__gnu_cxx16__aligned_membufI7PtrDataEC1Ev' type='func-type' binding='weak-binding' visibility='default-visibility' is-defined='yes'/>
    <elf-symbol name='_ZN9__gnu_cxx16__aligned_membufI7PtrDataEC2Ev' type='func-type' binding='weak-binding' visibility='default-visibility' alias='_ZN9__gnu_cxx16__aligned_membufI7PtrDataEC1Ev' is-defined='yes'/>
    <elf-symbol name='_ZN9__gnu_cxx16__aligned_membufI8AutoDataE6_M_ptrEv' type='func-type' binding='weak-binding' visibility='default-visibility' is-defined='yes'/>
    <elf-symbol name='_ZN9__gnu_cxx16__aligned_membufI8AutoDataE7_M_addrEv' type='func-type' binding='weak-binding' visibility='default-visibility' is-defined='yes'/>
    <elf-symbol name='_ZN9__gnu_cxx16__aligned_membufI8AutoDataEC1Ev' type='func-type' binding='weak-binding' visibility='default-visibility' is-defined='yes'/>
    <elf-symbol name='_ZN9__gnu_cxx16__aligned_membufI8AutoDataEC2Ev' type='func-type' binding='weak-binding' visibility='default-visibility' alias='_ZN9__gnu_cxx16__aligned_membufI8AutoDataEC1Ev' is-defined='yes'/>
    <elf-symbol name='_ZN9__gnu_cxx16__aligned_membufI8MyoTableE6_M_ptrEv' type='func-type' binding='weak-binding' visibility='default-visibility' is-defined='yes'/>
    <elf-symbol name='_ZN9__gnu_cxx16__aligned_membufI8MyoTableE7_M_addrEv' type='func-type' binding='weak-binding' visibility='default-visibility' is-defined='yes'/>
    <elf-symbol name='_ZN9__gnu_cxx16__aligned_membufIP7PtrDataE6_M_ptrEv' type='func-type' binding='weak-binding' visibility='default-visibility' is-defined='yes'/>
    <elf-symbol name='_ZN9__gnu_cxx16__aligned_membufIP7PtrDataE7_M_addrEv' type='func-type' binding='weak-binding' visibility='default-visibility' is-defined='yes'/>
    <elf-symbol name='_ZN9__gnu_cxx16__aligned_membufIP9coibufferE6_M_ptrEv' type='func-type' binding='weak-binding' visibility='default-visibility' is-defined='yes'/>
    <elf-symbol name='_ZN9__gnu_cxx16__aligned_membufIP9coibufferE7_M_addrEv' type='func-type' binding='weak-binding' visibility='default-visibility' is-defined='yes'/>
    <elf-symbol name='_ZN9__gnu_cxx16__aligned_membufIPcE6_M_ptrEv' type='func-type' binding='weak-binding' visibility='default-visibility' is-defined='yes'/>
    <elf-symbol name='_ZN9__gnu_cxx16__aligned_membufIPcE7_M_addrEv' type='func-type' binding='weak-binding' visibility='default-visibility' is-defined='yes'/>
    <elf-symbol name='_ZN9__gnu_cxx16__aligned_membufISt4pairIKPKvP17OffloadDescriptorEE6_M_ptrEv' type='func-type' binding='weak-binding' visibility='default-visibility' is-defined='yes'/>
    <elf-symbol name='_ZN9__gnu_cxx16__aligned_membufISt4pairIKPKvP17OffloadDescriptorEE7_M_addrEv' type='func-type' binding='weak-binding' visibility='default-visibility' is-defined='yes'/>
    <elf-symbol name='_ZN9__gnu_cxx16__aligned_membufISt4pairIKPKvP17OffloadDescriptorEEC1Ev' type='func-type' binding='weak-binding' visibility='default-visibility' is-defined='yes'/>
    <elf-symbol name='_ZN9__gnu_cxx16__aligned_membufISt4pairIKPKvP17OffloadDescriptorEEC2Ev' type='func-type' binding='weak-binding' visibility='default-visibility' alias='_ZN9__gnu_cxx16__aligned_membufISt4pairIKPKvP17OffloadDescriptorEEC1Ev' is-defined='yes'/>
    <elf-symbol name='_ZN9__gnu_cxx16__aligned_membufISt4pairIKmP6StreamEE6_M_ptrEv' type='func-type' binding='weak-binding' visibility='default-visibility' is-defined='yes'/>
    <elf-symbol name='_ZN9__gnu_cxx16__aligned_membufISt4pairIKmP6StreamEE7_M_addrEv' type='func-type' binding='weak-binding' visibility='default-visibility' is-defined='yes'/>
    <elf-symbol name='_ZN9__gnu_cxx16__aligned_membufISt4pairIKmP6StreamEEC1Ev' type='func-type' binding='weak-binding' visibility='default-visibility' is-defined='yes'/>
    <elf-symbol name='_ZN9__gnu_cxx16__aligned_membufISt4pairIKmP6StreamEEC2Ev' type='func-type' binding='weak-binding' visibility='default-visibility' alias='_ZN9__gnu_cxx16__aligned_membufISt4pairIKmP6StreamEEC1Ev' is-defined='yes'/>
    <elf-symbol name='_ZN9__gnu_cxx16__aligned_membufImE6_M_ptrEv' type='func-type' binding='weak-binding' visibility='default-visibility' is-defined='yes'/>
    <elf-symbol name='_ZN9__gnu_cxx16__aligned_membufImE7_M_addrEv' type='func-type' binding='weak-binding' visibility='default-visibility' is-defined='yes'/>
    <elf-symbol name='_ZN9__gnu_cxx17__normal_iteratorIPKPKN8VarTable5EntryESt6vectorIS4_SaIS4_EEEC1ERKS6_' type='func-type' binding='weak-binding' visibility='default-visibility' is-defined='yes'/>
    <elf-symbol name='_ZN9__gnu_cxx17__normal_iteratorIPKPKN8VarTable5EntryESt6vectorIS4_SaIS4_EEEC1IPS4_EERKNS0_IT_NS_11__enable_ifIXsrSt10__are_sameISD_SC_E7__valueES9_E6__typeEEE' type='func-type' binding='weak-binding' visibility='default-visibility' is-defined='yes'/>
    <elf-symbol name='_ZN9__gnu_cxx17__normal_iteratorIPKPKN8VarTable5EntryESt6vectorIS4_SaIS4_EEEC2ERKS6_' type='func-type' binding='weak-binding' visibility='default-visibility' alias='_ZN9__gnu_cxx17__normal_iteratorIPKPKN8VarTable5EntryESt6vectorIS4_SaIS4_EEEC1ERKS6_' is-defined='yes'/>
    <elf-symbol name='_ZN9__gnu_cxx17__normal_iteratorIPKPKN8VarTable5EntryESt6vectorIS4_SaIS4_EEEC2IPS4_EERKNS0_IT_NS_11__enable_ifIXsrSt10__are_sameISD_SC_E7__valueES9_E6__typeEEE' type='func-type' binding='weak-binding' visibility='default-visibility' alias='_ZN9__gnu_cxx17__normal_iteratorIPKPKN8VarTable5EntryESt6vectorIS4_SaIS4_EEEC1IPS4_EERKNS0_IT_NS_11__enable_ifIXsrSt10__are_sameISD_SC_E7__valueES9_E6__typeEEE' is-defined='yes'/>
    <elf-symbol name='_ZN9__gnu_cxx17__normal_iteratorIPKPKN8VarTable5EntryESt6vectorIS4_SaIS4_EEEppEi' type='func-type' binding='weak-binding' visibility='default-visibility' is-defined='yes'/>
    <elf-symbol name='_ZN9__gnu_cxx17__normal_iteratorIPPKN8VarTable5EntryESt6vectorIS4_SaIS4_EEEC1ERKS5_' type='func-type' binding='weak-binding' visibility='default-visibility' is-defined='yes'/>
    <elf-symbol name='_ZN9__gnu_cxx17__normal_iteratorIPPKN8VarTable5EntryESt6vectorIS4_SaIS4_EEEC2ERKS5_' type='func-type' binding='weak-binding' visibility='default-visibility' alias='_ZN9__gnu_cxx17__normal_iteratorIPPKN8VarTable5EntryESt6vectorIS4_SaIS4_EEEC1ERKS5_' is-defined='yes'/>
    <elf-symbol name='_ZN9__gnu_cxx17__normal_iteratorIPPKN8VarTable5EntryESt6vectorIS4_SaIS4_EEEmmEv' type='func-type' binding='weak-binding' visibility='default-visibility' is-defined='yes'/>
    <elf-symbol name='_ZN9__gnu_cxx17__normal_iteratorIPPKN8VarTable5EntryESt6vectorIS4_SaIS4_EEEppEv' type='func-type' binding='weak-binding' visibility='default-visibility' is-defined='yes'/>
    <elf-symbol name='_ZN9__gnu_cxx5__ops14_Iter_comp_valIPFbPKN8VarTable5EntryES5_EEC1ES7_' type='func-type' binding='weak-binding' visibility='default-visibility' is-defined='yes'/>
    <elf-symbol name='_ZN9__gnu_cxx5__ops14_Iter_comp_valIPFbPKN8VarTable5EntryES5_EEC2ES7_' type='func-type' binding='weak-binding' visibility='default-visibility' alias='_ZN9__gnu_cxx5__ops14_Iter_comp_valIPFbPKN8VarTable5EntryES5_EEC1ES7_' is-defined='yes'/>
    <elf-symbol name='_ZN9__gnu_cxx5__ops14_Iter_comp_valIPFbPKN8VarTable5EntryES5_EEclINS_17__normal_iteratorIPS5_St6vectorIS5_SaIS5_EEEES5_EEbT_RT0_' type='func-type' binding='weak-binding' visibility='default-visibility' is-defined='yes'/>
    <elf-symbol name='_ZN9__gnu_cxx5__ops14_Val_comp_iterIPFbPKN8VarTable5EntryES5_EEC1ES7_' type='func-type' binding='weak-binding' visibility='default-visibility' is-defined='yes'/>
    <elf-symbol name='_ZN9__gnu_cxx5__ops14_Val_comp_iterIPFbPKN8VarTable5EntryES5_EEC2ES7_' type='func-type' binding='weak-binding' visibility='default-visibility' alias='_ZN9__gnu_cxx5__ops14_Val_comp_iterIPFbPKN8VarTable5EntryES5_EEC1ES7_' is-defined='yes'/>
    <elf-symbol name='_ZN9__gnu_cxx5__ops14_Val_comp_iterIPFbPKN8VarTable5EntryES5_EEclIS5_NS_17__normal_iteratorIPS5_St6vectorIS5_SaIS5_EEEEEEbRT_T0_' type='func-type' binding='weak-binding' visibility='default-visibility' is-defined='yes'/>
    <elf-symbol name='_ZN9__gnu_cxx5__ops15_Iter_comp_iterIPFbPKN8VarTable5EntryES5_EEC1ES7_' type='func-type' binding='weak-binding' visibility='default-visibility' is-defined='yes'/>
    <elf-symbol name='_ZN9__gnu_cxx5__ops15_Iter_comp_iterIPFbPKN8VarTable5EntryES5_EEC2ES7_' type='func-type' binding='weak-binding' visibility='default-visibility' alias='_ZN9__gnu_cxx5__ops15_Iter_comp_iterIPFbPKN8VarTable5EntryES5_EEC1ES7_' is-defined='yes'/>
    <elf-symbol name='_ZN9__gnu_cxx5__ops15_Iter_comp_iterIPFbPKN8VarTable5EntryES5_EEclINS_17__normal_iteratorIPS5_St6vectorIS5_SaIS5_EEEESF_EEbT_T0_' type='func-type' binding='weak-binding' visibility='default-visibility' is-defined='yes'/>
    <elf-symbol name='_ZN9__gnu_cxx5__ops15__iter_comp_valIPFbPKN8VarTable5EntryES5_EEENS0_14_Iter_comp_valIT_EENS0_15_Iter_comp_iterIS9_EE' type='func-type' binding='weak-binding' visibility='default-visibility' is-defined='yes'/>
    <elf-symbol name='_ZN9__gnu_cxx5__ops15__val_comp_iterIPFbPKN8VarTable5EntryES5_EEENS0_14_Val_comp_iterIT_EENS0_15_Iter_comp_iterIS9_EE' type='func-type' binding='weak-binding' visibility='default-visibility' is-defined='yes'/>
    <elf-symbol name='_ZN9__gnu_cxx5__ops16__iter_comp_iterIPFbPKN8VarTable5EntryES5_EEENS0_15_Iter_comp_iterIT_EES9_' type='func-type' binding='weak-binding' visibility='default-visibility' is-defined='yes'/>
    <elf-symbol name='_ZN9__gnu_cxxeqIPPKN8VarTable5EntryESt6vectorIS4_SaIS4_EEEEbRKNS_17__normal_iteratorIT_T0_EESE_' type='func-type' binding='weak-binding' visibility='default-visibility' is-defined='yes'/>
    <elf-symbol name='_ZN9__gnu_cxxltIPPKN8VarTable5EntryESt6vectorIS4_SaIS4_EEEEbRKNS_17__normal_iteratorIT_T0_EESE_' type='func-type' binding='weak-binding' visibility='default-visibility' is-defined='yes'/>
    <elf-symbol name='_ZN9__gnu_cxxmiIPPKN8VarTable5EntryESt6vectorIS4_SaIS4_EEEENS_17__normal_iteratorIT_T0_E15difference_typeERKSC_SF_' type='func-type' binding='weak-binding' visibility='default-visibility' is-defined='yes'/>
    <elf-symbol name='_ZN9__gnu_cxxneIPKPKN8VarTable5EntryESt6vectorIS4_SaIS4_EEEEbRKNS_17__normal_iteratorIT_T0_EESF_' type='func-type' binding='weak-binding' visibility='default-visibility' is-defined='yes'/>
    <elf-symbol name='_ZN9__gnu_cxxneIPPKN8VarTable5EntryESt6vectorIS4_SaIS4_EEEEbRKNS_17__normal_iteratorIT_T0_EESE_' type='func-type' binding='weak-binding' visibility='default-visibility' is-defined='yes'/>
    <elf-symbol name='_ZNK10Marshaller12get_tfr_sizeEv' type='func-type' binding='weak-binding' visibility='default-visibility' is-defined='yes'/>
    <elf-symbol name='_ZNK10MyoWrapper10RemoteCallEPKcPvi' type='func-type' binding='weak-binding' visibility='default-visibility' is-defined='yes'/>
    <elf-symbol name='_ZNK10MyoWrapper10SharedFreeEPv' type='func-type' binding='weak-binding' visibility='default-visibility' is-defined='yes'/>
    <elf-symbol name='_ZNK10MyoWrapper11ArenaCreateE16MyoOwnershipTypeiPj' type='func-type' binding='weak-binding' visibility='default-visibility' is-defined='yes'/>
    <elf-symbol name='_ZNK10MyoWrapper11CheckResultEPKc8MyoError' type='func-type' binding='weak-binding' visibility='default-visibility' is-defined='yes'/>
    <elf-symbol name='_ZNK10MyoWrapper12ArenaAcquireEj' type='func-type' binding='weak-binding' visibility='default-visibility' is-defined='yes'/>
    <elf-symbol name='_ZNK10MyoWrapper12ArenaReleaseEj' type='func-type' binding='weak-binding' visibility='default-visibility' is-defined='yes'/>
    <elf-symbol name='_ZNK10MyoWrapper12SharedMallocEm' type='func-type' binding='weak-binding' visibility='default-visibility' is-defined='yes'/>
    <elf-symbol name='_ZNK10MyoWrapper12is_availableEv' type='func-type' binding='weak-binding' visibility='default-visibility' is-defined='yes'/>
    <elf-symbol name='_ZNK10MyoWrapper14GetVtableArenaEv' type='func-type' binding='weak-binding' visibility='default-visibility' is-defined='yes'/>
    <elf-symbol name='_ZNK10MyoWrapper17SharedAlignedFreeEPv' type='func-type' binding='weak-binding' visibility='default-visibility' is-defined='yes'/>
    <elf-symbol name='_ZNK10MyoWrapper19SharedAlignedMallocEmm' type='func-type' binding='weak-binding' visibility='default-visibility' is-defined='yes'/>
    <elf-symbol name='_ZNK10MyoWrapper21HostFptrTableRegisterEPvii' type='func-type' binding='weak-binding' visibility='default-visibility' is-defined='yes'/>
    <elf-symbol name='_ZNK10MyoWrapper21HostVarTablePropagateEPvi' type='func-type' binding='weak-binding' visibility='default-visibility' is-defined='yes'/>
    <elf-symbol name='_ZNK10MyoWrapper21PostInitFuncSupportedEv' type='func-type' binding='weak-binding' visibility='default-visibility' is-defined='yes'/>
    <elf-symbol name='_ZNK10MyoWrapper22SharedAlignedArenaFreeEjPv' type='func-type' binding='weak-binding' visibility='default-visibility' is-defined='yes'/>
    <elf-symbol name='_ZNK10MyoWrapper24SharedAlignedArenaMallocEjmm' type='func-type' binding='weak-binding' visibility='default-visibility' is-defined='yes'/>
    <elf-symbol name='_ZNK10MyoWrapper7AcquireEv' type='func-type' binding='weak-binding' visibility='default-visibility' is-defined='yes'/>
    <elf-symbol name='_ZNK10MyoWrapper7LibFiniEv' type='func-type' binding='weak-binding' visibility='default-visibility' is-defined='yes'/>
    <elf-symbol name='_ZNK10MyoWrapper7LibInitEPvS0_' type='func-type' binding='weak-binding' visibility='default-visibility' is-defined='yes'/>
    <elf-symbol name='_ZNK10MyoWrapper7ReleaseEv' type='func-type' binding='weak-binding' visibility='default-visibility' is-defined='yes'/>
    <elf-symbol name='_ZNK10MyoWrapper9GetResultEPv' type='func-type' binding='weak-binding' visibility='default-visibility' is-defined='yes'/>
    <elf-symbol name='_ZNK17OffloadDescriptor14get_timer_dataEv' type='func-type' binding='weak-binding' visibility='default-visibility' is-defined='yes'/>
    <elf-symbol name='_ZNK17OffloadDescriptor19translate_coi_errorE9COIRESULT' type='func-type' binding='global-binding' visibility='default-visibility' is-defined='yes'/>
    <elf-symbol name='_ZNK6Engine11get_processEv' type='func-type' binding='weak-binding' visibility='default-visibility' is-defined='yes'/>
    <elf-symbol name='_ZNK6Engine17get_logical_indexEv' type='func-type' binding='weak-binding' visibility='default-visibility' is-defined='yes'/>
    <elf-symbol name='_ZNK6Engine18get_physical_indexEv' type='func-type' binding='weak-binding' visibility='default-visibility' is-defined='yes'/>
    <elf-symbol name='_ZNK6Thread12get_pipelineEi' type='func-type' binding='weak-binding' visibility='default-visibility' is-defined='yes'/>
    <elf-symbol name='_ZNK7PtrData13get_referenceEv' type='func-type' binding='weak-binding' visibility='default-visibility' is-defined='yes'/>
    <elf-symbol name='_ZNK7PtrDataltERKS_' type='func-type' binding='weak-binding' visibility='default-visibility' is-defined='yes'/>
    <elf-symbol name='_ZNK8AutoData13get_referenceEv' type='func-type' binding='weak-binding' visibility='default-visibility' is-defined='yes'/>
    <elf-symbol name='_ZNK8AutoDataltERKS_' type='func-type' binding='weak-binding' visibility='default-visibility' is-defined='yes'/>
    <elf-symbol name='_ZNK8IteratordeEv' type='func-type' binding='weak-binding' visibility='default-visibility' is-defined='yes'/>
    <elf-symbol name='_ZNK8IteratorneERKS_' type='func-type' binding='weak-binding' visibility='default-visibility' is-defined='yes'/>
    <elf-symbol name='_ZNK8MemRange3endEv' type='func-type' binding='weak-binding' visibility='default-visibility' is-defined='yes'/>
    <elf-symbol name='_ZNK8MemRange5startEv' type='func-type' binding='weak-binding' visibility='default-visibility' is-defined='yes'/>
    <elf-symbol name='_ZNK8MemRange6lengthEv' type='func-type' binding='weak-binding' visibility='default-visibility' is-defined='yes'/>
    <elf-symbol name='_ZNK8MemRange8containsERKS_' type='func-type' binding='weak-binding' visibility='default-visibility' is-defined='yes'/>
    <elf-symbol name='_ZNK8MemRange8overlapsERKS_' type='func-type' binding='weak-binding' visibility='default-visibility' is-defined='yes'/>
    <elf-symbol name='_ZNK9__gnu_cxx13new_allocatorIPKN8VarTable5EntryEE8max_sizeEv' type='func-type' binding='weak-binding' visibility='default-visibility' is-defined='yes'/>
    <elf-symbol name='_ZNK9__gnu_cxx13new_allocatorISt10_List_nodeI11PersistDataEE8max_sizeEv' type='func-type' binding='weak-binding' visibility='default-visibility' is-defined='yes'/>
    <elf-symbol name='_ZNK9__gnu_cxx13new_allocatorISt10_List_nodeI11TargetImageEE8max_sizeEv' type='func-type' binding='weak-binding' visibility='default-visibility' is-defined='yes'/>
    <elf-symbol name='_ZNK9__gnu_cxx13new_allocatorISt10_List_nodeI6DynLibEE8max_sizeEv' type='func-type' binding='weak-binding' visibility='default-visibility' is-defined='yes'/>
    <elf-symbol name='_ZNK9__gnu_cxx13new_allocatorISt10_List_nodeI8MyoTableEE8max_sizeEv' type='func-type' binding='weak-binding' visibility='default-visibility' is-defined='yes'/>
    <elf-symbol name='_ZNK9__gnu_cxx13new_allocatorISt10_List_nodeIP7PtrDataEE8max_sizeEv' type='func-type' binding='weak-binding' visibility='default-visibility' is-defined='yes'/>
    <elf-symbol name='_ZNK9__gnu_cxx13new_allocatorISt10_List_nodeIP9coibufferEE8max_sizeEv' type='func-type' binding='weak-binding' visibility='default-visibility' is-defined='yes'/>
    <elf-symbol name='_ZNK9__gnu_cxx13new_allocatorISt10_List_nodeIPcEE8max_sizeEv' type='func-type' binding='weak-binding' visibility='default-visibility' is-defined='yes'/>
    <elf-symbol name='_ZNK9__gnu_cxx13new_allocatorISt13_Rb_tree_nodeI7PtrDataEE8max_sizeEv' type='func-type' binding='weak-binding' visibility='default-visibility' is-defined='yes'/>
    <elf-symbol name='_ZNK9__gnu_cxx13new_allocatorISt13_Rb_tree_nodeI8AutoDataEE8max_sizeEv' type='func-type' binding='weak-binding' visibility='default-visibility' is-defined='yes'/>
    <elf-symbol name='_ZNK9__gnu_cxx13new_allocatorISt13_Rb_tree_nodeISt4pairIKPKvP17OffloadDescriptorEEE8max_sizeEv' type='func-type' binding='weak-binding' visibility='default-visibility' is-defined='yes'/>
    <elf-symbol name='_ZNK9__gnu_cxx13new_allocatorISt13_Rb_tree_nodeISt4pairIKmP6StreamEEE8max_sizeEv' type='func-type' binding='weak-binding' visibility='default-visibility' is-defined='yes'/>
    <elf-symbol name='_ZNK9__gnu_cxx16__aligned_membufI7PtrDataE6_M_ptrEv' type='func-type' binding='weak-binding' visibility='default-visibility' is-defined='yes'/>
    <elf-symbol name='_ZNK9__gnu_cxx16__aligned_membufI7PtrDataE7_M_addrEv' type='func-type' binding='weak-binding' visibility='default-visibility' is-defined='yes'/>
    <elf-symbol name='_ZNK9__gnu_cxx16__aligned_membufI8AutoDataE6_M_ptrEv' type='func-type' binding='weak-binding' visibility='default-visibility' is-defined='yes'/>
    <elf-symbol name='_ZNK9__gnu_cxx16__aligned_membufI8AutoDataE7_M_addrEv' type='func-type' binding='weak-binding' visibility='default-visibility' is-defined='yes'/>
    <elf-symbol name='_ZNK9__gnu_cxx16__aligned_membufI8MyoTableE6_M_ptrEv' type='func-type' binding='weak-binding' visibility='default-visibility' is-defined='yes'/>
    <elf-symbol name='_ZNK9__gnu_cxx16__aligned_membufI8MyoTableE7_M_addrEv' type='func-type' binding='weak-binding' visibility='default-visibility' is-defined='yes'/>
    <elf-symbol name='_ZNK9__gnu_cxx16__aligned_membufIP9coibufferE6_M_ptrEv' type='func-type' binding='weak-binding' visibility='default-visibility' is-defined='yes'/>
    <elf-symbol name='_ZNK9__gnu_cxx16__aligned_membufIP9coibufferE7_M_addrEv' type='func-type' binding='weak-binding' visibility='default-visibility' is-defined='yes'/>
    <elf-symbol name='_ZNK9__gnu_cxx16__aligned_membufISt4pairIKPKvP17OffloadDescriptorEE6_M_ptrEv' type='func-type' binding='weak-binding' visibility='default-visibility' is-defined='yes'/>
    <elf-symbol name='_ZNK9__gnu_cxx16__aligned_membufISt4pairIKPKvP17OffloadDescriptorEE7_M_addrEv' type='func-type' binding='weak-binding' visibility='default-visibility' is-defined='yes'/>
    <elf-symbol name='_ZNK9__gnu_cxx16__aligned_membufISt4pairIKmP6StreamEE6_M_ptrEv' type='func-type' binding='weak-binding' visibility='default-visibility' is-defined='yes'/>
    <elf-symbol name='_ZNK9__gnu_cxx16__aligned_membufISt4pairIKmP6StreamEE7_M_addrEv' type='func-type' binding='weak-binding' visibility='default-visibility' is-defined='yes'/>
    <elf-symbol name='_ZNK9__gnu_cxx16__aligned_membufImE6_M_ptrEv' type='func-type' binding='weak-binding' visibility='default-visibility' is-defined='yes'/>
    <elf-symbol name='_ZNK9__gnu_cxx16__aligned_membufImE7_M_addrEv' type='func-type' binding='weak-binding' visibility='default-visibility' is-defined='yes'/>
    <elf-symbol name='_ZNK9__gnu_cxx17__normal_iteratorIPKPKN8VarTable5EntryESt6vectorIS4_SaIS4_EEE4baseEv' type='func-type' binding='weak-binding' visibility='default-visibility' is-defined='yes'/>
    <elf-symbol name='_ZNK9__gnu_cxx17__normal_iteratorIPKPKN8VarTable5EntryESt6vectorIS4_SaIS4_EEEdeEv' type='func-type' binding='weak-binding' visibility='default-visibility' is-defined='yes'/>
    <elf-symbol name='_ZNK9__gnu_cxx17__normal_iteratorIPPKN8VarTable5EntryESt6vectorIS4_SaIS4_EEE4baseEv' type='func-type' binding='weak-binding' visibility='default-visibility' is-defined='yes'/>
    <elf-symbol name='_ZNK9__gnu_cxx17__normal_iteratorIPPKN8VarTable5EntryESt6vectorIS4_SaIS4_EEEdeEv' type='func-type' binding='weak-binding' visibility='default-visibility' is-defined='yes'/>
    <elf-symbol name='_ZNK9__gnu_cxx17__normal_iteratorIPPKN8VarTable5EntryESt6vectorIS4_SaIS4_EEEmiEl' type='func-type' binding='weak-binding' visibility='default-visibility' is-defined='yes'/>
    <elf-symbol name='_ZNK9__gnu_cxx17__normal_iteratorIPPKN8VarTable5EntryESt6vectorIS4_SaIS4_EEEplEl' type='func-type' binding='weak-binding' visibility='default-visibility' is-defined='yes'/>
    <elf-symbol name='_ZNKSt10_List_nodeI8MyoTableE9_M_valptrEv' type='func-type' binding='weak-binding' visibility='default-visibility' is-defined='yes'/>
    <elf-symbol name='_ZNKSt10_List_nodeIP9coibufferE9_M_valptrEv' type='func-type' binding='weak-binding' visibility='default-visibility' is-defined='yes'/>
    <elf-symbol name='_ZNKSt10_List_nodeImE9_M_valptrEv' type='func-type' binding='weak-binding' visibility='default-visibility' is-defined='yes'/>
    <elf-symbol name='_ZNKSt10_Select1stISt4pairIKPKvP17OffloadDescriptorEEclERKS6_' type='func-type' binding='weak-binding' visibility='default-visibility' is-defined='yes'/>
    <elf-symbol name='_ZNKSt10_Select1stISt4pairIKmP6StreamEEclERKS4_' type='func-type' binding='weak-binding' visibility='default-visibility' is-defined='yes'/>
    <elf-symbol name='_ZNKSt12_Base_bitsetILm16EE10_M_getwordEm' type='func-type' binding='weak-binding' visibility='default-visibility' is-defined='yes'/>
    <elf-symbol name='_ZNKSt12_Base_bitsetILm2EE11_M_do_countEv' type='func-type' binding='weak-binding' visibility='default-visibility' is-defined='yes'/>
    <elf-symbol name='_ZNKSt12_Vector_baseIPKN8VarTable5EntryESaIS3_EE19_M_get_Tp_allocatorEv' type='func-type' binding='weak-binding' visibility='default-visibility' is-defined='yes'/>
    <elf-symbol name='_ZNKSt13_Rb_tree_nodeI7PtrDataE9_M_valptrEv' type='func-type' binding='weak-binding' visibility='default-visibility' is-defined='yes'/>
    <elf-symbol name='_ZNKSt13_Rb_tree_nodeI8AutoDataE9_M_valptrEv' type='func-type' binding='weak-binding' visibility='default-visibility' is-defined='yes'/>
    <elf-symbol name='_ZNKSt13_Rb_tree_nodeISt4pairIKPKvP17OffloadDescriptorEE9_M_valptrEv' type='func-type' binding='weak-binding' visibility='default-visibility' is-defined='yes'/>
    <elf-symbol name='_ZNKSt13_Rb_tree_nodeISt4pairIKmP6StreamEE9_M_valptrEv' type='func-type' binding='weak-binding' visibility='default-visibility' is-defined='yes'/>
    <elf-symbol name='_ZNKSt13move_iteratorIPPKN8VarTable5EntryEE4baseEv' type='func-type' binding='weak-binding' visibility='default-visibility' is-defined='yes'/>
    <elf-symbol name='_ZNKSt13move_iteratorIPPKN8VarTable5EntryEEdeEv' type='func-type' binding='weak-binding' visibility='default-visibility' is-defined='yes'/>
    <elf-symbol name='_ZNKSt14_List_iteratorI11PersistDataEdeEv' type='func-type' binding='weak-binding' visibility='default-visibility' is-defined='yes'/>
    <elf-symbol name='_ZNKSt14_List_iteratorI11PersistDataEneERKS1_' type='func-type' binding='weak-binding' visibility='default-visibility' is-defined='yes'/>
    <elf-symbol name='_ZNKSt14_List_iteratorI11PersistDataEptEv' type='func-type' binding='weak-binding' visibility='default-visibility' is-defined='yes'/>
    <elf-symbol name='_ZNKSt14_List_iteratorI11TargetImageEdeEv' type='func-type' binding='weak-binding' visibility='default-visibility' is-defined='yes'/>
    <elf-symbol name='_ZNKSt14_List_iteratorI11TargetImageEneERKS1_' type='func-type' binding='weak-binding' visibility='default-visibility' is-defined='yes'/>
    <elf-symbol name='_ZNKSt14_List_iteratorI11TargetImageEptEv' type='func-type' binding='weak-binding' visibility='default-visibility' is-defined='yes'/>
    <elf-symbol name='_ZNKSt14_List_iteratorI6DynLibEneERKS1_' type='func-type' binding='weak-binding' visibility='default-visibility' is-defined='yes'/>
    <elf-symbol name='_ZNKSt14_List_iteratorI6DynLibEptEv' type='func-type' binding='weak-binding' visibility='default-visibility' is-defined='yes'/>
    <elf-symbol name='_ZNKSt14_List_iteratorIP7PtrDataEdeEv' type='func-type' binding='weak-binding' visibility='default-visibility' is-defined='yes'/>
    <elf-symbol name='_ZNKSt14_List_iteratorIP7PtrDataEneERKS2_' type='func-type' binding='weak-binding' visibility='default-visibility' is-defined='yes'/>
    <elf-symbol name='_ZNKSt14_List_iteratorIPcEdeEv' type='func-type' binding='weak-binding' visibility='default-visibility' is-defined='yes'/>
    <elf-symbol name='_ZNKSt14_List_iteratorIPcEneERKS1_' type='func-type' binding='weak-binding' visibility='default-visibility' is-defined='yes'/>
    <elf-symbol name='_ZNKSt17_Rb_tree_iteratorI7PtrDataEeqERKS1_' type='func-type' binding='weak-binding' visibility='default-visibility' is-defined='yes'/>
    <elf-symbol name='_ZNKSt17_Rb_tree_iteratorI8AutoDataEeqERKS1_' type='func-type' binding='weak-binding' visibility='default-visibility' is-defined='yes'/>
    <elf-symbol name='_ZNKSt17_Rb_tree_iteratorISt4pairIKPKvP17OffloadDescriptorEEdeEv' type='func-type' binding='weak-binding' visibility='default-visibility' is-defined='yes'/>
    <elf-symbol name='_ZNKSt17_Rb_tree_iteratorISt4pairIKPKvP17OffloadDescriptorEEeqERKS7_' type='func-type' binding='weak-binding' visibility='default-visibility' is-defined='yes'/>
    <elf-symbol name='_ZNKSt17_Rb_tree_iteratorISt4pairIKPKvP17OffloadDescriptorEEneERKS7_' type='func-type' binding='weak-binding' visibility='default-visibility' is-defined='yes'/>
    <elf-symbol name='_ZNKSt17_Rb_tree_iteratorISt4pairIKPKvP17OffloadDescriptorEEptEv' type='func-type' binding='weak-binding' visibility='default-visibility' is-defined='yes'/>
    <elf-symbol name='_ZNKSt17_Rb_tree_iteratorISt4pairIKmP6StreamEEdeEv' type='func-type' binding='weak-binding' visibility='default-visibility' is-defined='yes'/>
    <elf-symbol name='_ZNKSt17_Rb_tree_iteratorISt4pairIKmP6StreamEEeqERKS5_' type='func-type' binding='weak-binding' visibility='default-visibility' is-defined='yes'/>
    <elf-symbol name='_ZNKSt17_Rb_tree_iteratorISt4pairIKmP6StreamEEneERKS5_' type='func-type' binding='weak-binding' visibility='default-visibility' is-defined='yes'/>
    <elf-symbol name='_ZNKSt17_Rb_tree_iteratorISt4pairIKmP6StreamEEptEv' type='func-type' binding='weak-binding' visibility='default-visibility' is-defined='yes'/>
    <elf-symbol name='_ZNKSt20_List_const_iteratorI11PersistDataE13_M_const_castEv' type='func-type' binding='weak-binding' visibility='default-visibility' is-defined='yes'/>
    <elf-symbol name='_ZNKSt20_List_const_iteratorI11PersistDataEneERKS1_' type='func-type' binding='weak-binding' visibility='default-visibility' is-defined='yes'/>
    <elf-symbol name='_ZNKSt20_List_const_iteratorI6DynLibE13_M_const_castEv' type='func-type' binding='weak-binding' visibility='default-visibility' is-defined='yes'/>
    <elf-symbol name='_ZNKSt20_List_const_iteratorI8MyoTableEneERKS1_' type='func-type' binding='weak-binding' visibility='default-visibility' is-defined='yes'/>
    <elf-symbol name='_ZNKSt20_List_const_iteratorI8MyoTableEptEv' type='func-type' binding='weak-binding' visibility='default-visibility' is-defined='yes'/>
    <elf-symbol name='_ZNKSt20_List_const_iteratorIP9coibufferEdeEv' type='func-type' binding='weak-binding' visibility='default-visibility' is-defined='yes'/>
    <elf-symbol name='_ZNKSt20_List_const_iteratorIP9coibufferEneERKS2_' type='func-type' binding='weak-binding' visibility='default-visibility' is-defined='yes'/>
    <elf-symbol name='_ZNKSt23_Rb_tree_const_iteratorI7PtrDataE13_M_const_castEv' type='func-type' binding='weak-binding' visibility='default-visibility' is-defined='yes'/>
    <elf-symbol name='_ZNKSt23_Rb_tree_const_iteratorI7PtrDataEeqERKS1_' type='func-type' binding='weak-binding' visibility='default-visibility' is-defined='yes'/>
    <elf-symbol name='_ZNKSt23_Rb_tree_const_iteratorI7PtrDataEneERKS1_' type='func-type' binding='weak-binding' visibility='default-visibility' is-defined='yes'/>
    <elf-symbol name='_ZNKSt23_Rb_tree_const_iteratorI7PtrDataEptEv' type='func-type' binding='weak-binding' visibility='default-visibility' is-defined='yes'/>
    <elf-symbol name='_ZNKSt23_Rb_tree_const_iteratorI8AutoDataE13_M_const_castEv' type='func-type' binding='weak-binding' visibility='default-visibility' is-defined='yes'/>
    <elf-symbol name='_ZNKSt23_Rb_tree_const_iteratorI8AutoDataEeqERKS1_' type='func-type' binding='weak-binding' visibility='default-visibility' is-defined='yes'/>
    <elf-symbol name='_ZNKSt23_Rb_tree_const_iteratorI8AutoDataEneERKS1_' type='func-type' binding='weak-binding' visibility='default-visibility' is-defined='yes'/>
    <elf-symbol name='_ZNKSt23_Rb_tree_const_iteratorI8AutoDataEptEv' type='func-type' binding='weak-binding' visibility='default-visibility' is-defined='yes'/>
    <elf-symbol name='_ZNKSt23_Rb_tree_const_iteratorISt4pairIKPKvP17OffloadDescriptorEE13_M_const_castEv' type='func-type' binding='weak-binding' visibility='default-visibility' is-defined='yes'/>
    <elf-symbol name='_ZNKSt23_Rb_tree_const_iteratorISt4pairIKmP6StreamEE13_M_const_castEv' type='func-type' binding='weak-binding' visibility='default-visibility' is-defined='yes'/>
    <elf-symbol name='_ZNKSt3mapIPKvP17OffloadDescriptorSt4lessIS1_ESaISt4pairIKS1_S3_EEE8key_compEv' type='func-type' binding='weak-binding' visibility='default-visibility' is-defined='yes'/>
    <elf-symbol name='_ZNKSt3mapImP6StreamSt4lessImESaISt4pairIKmS1_EEE8key_compEv' type='func-type' binding='weak-binding' visibility='default-visibility' is-defined='yes'/>
    <elf-symbol name='_ZNKSt3setI7PtrDataSt4lessIS0_ESaIS0_EE3endEv' type='func-type' binding='weak-binding' visibility='default-visibility' is-defined='yes'/>
    <elf-symbol name='_ZNKSt3setI8AutoDataSt4lessIS0_ESaIS0_EE3endEv' type='func-type' binding='weak-binding' visibility='default-visibility' is-defined='yes'/>
    <elf-symbol name='_ZNKSt4lessI7PtrDataEclERKS0_S3_' type='func-type' binding='weak-binding' visibility='default-visibility' is-defined='yes'/>
    <elf-symbol name='_ZNKSt4lessI8AutoDataEclERKS0_S3_' type='func-type' binding='weak-binding' visibility='default-visibility' is-defined='yes'/>
    <elf-symbol name='_ZNKSt4lessIPKvEclERKS1_S4_' type='func-type' binding='weak-binding' visibility='default-visibility' is-defined='yes'/>
    <elf-symbol name='_ZNKSt4lessImEclERKmS2_' type='func-type' binding='weak-binding' visibility='default-visibility' is-defined='yes'/>
    <elf-symbol name='_ZNKSt6bitsetILm1024EE15_Unchecked_testEm' type='func-type' binding='weak-binding' visibility='default-visibility' is-defined='yes'/>
    <elf-symbol name='_ZNKSt6bitsetILm1024EE4testEm' type='func-type' binding='weak-binding' visibility='default-visibility' is-defined='yes'/>
    <elf-symbol name='_ZNKSt6bitsetILm1024EE8_M_checkEmPKc' type='func-type' binding='weak-binding' visibility='default-visibility' is-defined='yes'/>
    <elf-symbol name='_ZNKSt6bitsetILm1024EE9referencecvbEv' type='func-type' binding='weak-binding' visibility='default-visibility' is-defined='yes'/>
    <elf-symbol name='_ZNKSt6bitsetILm128EE5countEv' type='func-type' binding='weak-binding' visibility='default-visibility' is-defined='yes'/>
    <elf-symbol name='_ZNKSt6bitsetILm128EE8_M_checkEmPKc' type='func-type' binding='weak-binding' visibility='default-visibility' is-defined='yes'/>
    <elf-symbol name='_ZNKSt6bitsetILm128EE9referencecvbEv' type='func-type' binding='weak-binding' visibility='default-visibility' is-defined='yes'/>
    <elf-symbol name='_ZNKSt6vectorIPKN8VarTable5EntryESaIS3_EE12_M_check_lenEmPKc' type='func-type' binding='weak-binding' visibility='default-visibility' is-defined='yes'/>
    <elf-symbol name='_ZNKSt6vectorIPKN8VarTable5EntryESaIS3_EE4sizeEv' type='func-type' binding='weak-binding' visibility='default-visibility' is-defined='yes'/>
    <elf-symbol name='_ZNKSt6vectorIPKN8VarTable5EntryESaIS3_EE8max_sizeEv' type='func-type' binding='weak-binding' visibility='default-visibility' is-defined='yes'/>
    <elf-symbol name='_ZNKSt7__cxx1110_List_baseIP7PtrDataSaIS2_EE13_M_node_countEv' type='func-type' binding='weak-binding' visibility='default-visibility' is-defined='yes'/>
    <elf-symbol name='_ZNKSt7__cxx1110_List_baseIP9coibufferSaIS2_EE13_M_node_countEv' type='func-type' binding='weak-binding' visibility='default-visibility' is-defined='yes'/>
    <elf-symbol name='_ZNKSt7__cxx1110_List_baseIPcSaIS1_EE13_M_node_countEv' type='func-type' binding='weak-binding' visibility='default-visibility' is-defined='yes'/>
    <elf-symbol name='_ZNKSt7__cxx114listIP7PtrDataSaIS2_EE4sizeEv' type='func-type' binding='weak-binding' visibility='default-visibility' is-defined='yes'/>
    <elf-symbol name='_ZNKSt7__cxx114listIP9coibufferSaIS2_EE3endEv' type='func-type' binding='weak-binding' visibility='default-visibility' is-defined='yes'/>
    <elf-symbol name='_ZNKSt7__cxx114listIP9coibufferSaIS2_EE4sizeEv' type='func-type' binding='weak-binding' visibility='default-visibility' is-defined='yes'/>
    <elf-symbol name='_ZNKSt7__cxx114listIP9coibufferSaIS2_EE5beginEv' type='func-type' binding='weak-binding' visibility='default-visibility' is-defined='yes'/>
    <elf-symbol name='_ZNKSt7__cxx114listIPcSaIS1_EE4sizeEv' type='func-type' binding='weak-binding' visibility='default-visibility' is-defined='yes'/>
    <elf-symbol name='_ZNKSt8_Rb_treeI7PtrDataS0_St9_IdentityIS0_ESt4lessIS0_ESaIS0_EE11_Alloc_nodeclIS0_EEPSt13_Rb_tree_nodeIS0_EOT_' type='func-type' binding='weak-binding' visibility='default-visibility' is-defined='yes'/>
    <elf-symbol name='_ZNKSt8_Rb_treeI7PtrDataS0_St9_IdentityIS0_ESt4lessIS0_ESaIS0_EE3endEv' type='func-type' binding='weak-binding' visibility='default-visibility' is-defined='yes'/>
    <elf-symbol name='_ZNKSt8_Rb_treeI7PtrDataS0_St9_IdentityIS0_ESt4lessIS0_ESaIS0_EE4sizeEv' type='func-type' binding='weak-binding' visibility='default-visibility' is-defined='yes'/>
    <elf-symbol name='_ZNKSt8_Rb_treeI8AutoDataS0_St9_IdentityIS0_ESt4lessIS0_ESaIS0_EE11_Alloc_nodeclIS0_EEPSt13_Rb_tree_nodeIS0_EOT_' type='func-type' binding='weak-binding' visibility='default-visibility' is-defined='yes'/>
    <elf-symbol name='_ZNKSt8_Rb_treeI8AutoDataS0_St9_IdentityIS0_ESt4lessIS0_ESaIS0_EE3endEv' type='func-type' binding='weak-binding' visibility='default-visibility' is-defined='yes'/>
    <elf-symbol name='_ZNKSt8_Rb_treeI8AutoDataS0_St9_IdentityIS0_ESt4lessIS0_ESaIS0_EE4sizeEv' type='func-type' binding='weak-binding' visibility='default-visibility' is-defined='yes'/>
    <elf-symbol name='_ZNKSt8_Rb_treeIPKvSt4pairIKS1_P17OffloadDescriptorESt10_Select1stIS6_ESt4lessIS1_ESaIS6_EE4sizeEv' type='func-type' binding='weak-binding' visibility='default-visibility' is-defined='yes'/>
    <elf-symbol name='_ZNKSt8_Rb_treeIPKvSt4pairIKS1_P17OffloadDescriptorESt10_Select1stIS6_ESt4lessIS1_ESaIS6_EE8key_compEv' type='func-type' binding='weak-binding' visibility='default-visibility' is-defined='yes'/>
    <elf-symbol name='_ZNKSt8_Rb_treeImSt4pairIKmP6StreamESt10_Select1stIS4_ESt4lessImESaIS4_EE11_Alloc_nodeclIRKS4_EEPSt13_Rb_tree_nodeIS4_EOT_' type='func-type' binding='weak-binding' visibility='default-visibility' is-defined='yes'/>
    <elf-symbol name='_ZNKSt8_Rb_treeImSt4pairIKmP6StreamESt10_Select1stIS4_ESt4lessImESaIS4_EE21_M_get_Node_allocatorEv' type='func-type' binding='weak-binding' visibility='default-visibility' is-defined='yes'/>
    <elf-symbol name='_ZNKSt8_Rb_treeImSt4pairIKmP6StreamESt10_Select1stIS4_ESt4lessImESaIS4_EE4sizeEv' type='func-type' binding='weak-binding' visibility='default-visibility' is-defined='yes'/>
    <elf-symbol name='_ZNKSt8_Rb_treeImSt4pairIKmP6StreamESt10_Select1stIS4_ESt4lessImESaIS4_EE7_M_rootEv' type='func-type' binding='weak-binding' visibility='default-visibility' is-defined='yes'/>
    <elf-symbol name='_ZNKSt8_Rb_treeImSt4pairIKmP6StreamESt10_Select1stIS4_ESt4lessImESaIS4_EE8_M_beginEv' type='func-type' binding='weak-binding' visibility='default-visibility' is-defined='yes'/>
    <elf-symbol name='_ZNKSt8_Rb_treeImSt4pairIKmP6StreamESt10_Select1stIS4_ESt4lessImESaIS4_EE8key_compEv' type='func-type' binding='weak-binding' visibility='default-visibility' is-defined='yes'/>
    <elf-symbol name='_ZNKSt9_IdentityI7PtrDataEclERKS0_' type='func-type' binding='weak-binding' visibility='default-visibility' is-defined='yes'/>
    <elf-symbol name='_ZNKSt9_IdentityI7PtrDataEclERS0_' type='func-type' binding='weak-binding' visibility='default-visibility' is-defined='yes'/>
    <elf-symbol name='_ZNKSt9_IdentityI8AutoDataEclERKS0_' type='func-type' binding='weak-binding' visibility='default-visibility' is-defined='yes'/>
    <elf-symbol name='_ZNKSt9_IdentityI8AutoDataEclERS0_' type='func-type' binding='weak-binding' visibility='default-visibility' is-defined='yes'/>
    <elf-symbol name='_ZNSaIPKN8VarTable5EntryEEC1ERKS3_' type='func-type' binding='weak-binding' visibility='default-visibility' is-defined='yes'/>
    <elf-symbol name='_ZNSaIPKN8VarTable5EntryEEC1Ev' type='func-type' binding='weak-binding' visibility='default-visibility' is-defined='yes'/>
    <elf-symbol name='_ZNSaIPKN8VarTable5EntryEEC2ERKS3_' type='func-type' binding='weak-binding' visibility='default-visibility' alias='_ZNSaIPKN8VarTable5EntryEEC1ERKS3_' is-defined='yes'/>
    <elf-symbol name='_ZNSaIPKN8VarTable5EntryEEC2Ev' type='func-type' binding='weak-binding' visibility='default-visibility' alias='_ZNSaIPKN8VarTable5EntryEEC1Ev' is-defined='yes'/>
    <elf-symbol name='_ZNSaIPKN8VarTable5EntryEED1Ev' type='func-type' binding='weak-binding' visibility='default-visibility' is-defined='yes'/>
    <elf-symbol name='_ZNSaIPKN8VarTable5EntryEED2Ev' type='func-type' binding='weak-binding' visibility='default-visibility' alias='_ZNSaIPKN8VarTable5EntryEED1Ev' is-defined='yes'/>
    <elf-symbol name='_ZNSaISt10_List_nodeI11PersistDataEEC1Ev' type='func-type' binding='weak-binding' visibility='default-visibility' is-defined='yes'/>
    <elf-symbol name='_ZNSaISt10_List_nodeI11PersistDataEEC2Ev' type='func-type' binding='weak-binding' visibility='default-visibility' alias='_ZNSaISt10_List_nodeI11PersistDataEEC1Ev' is-defined='yes'/>
    <elf-symbol name='_ZNSaISt10_List_nodeI11PersistDataEED1Ev' type='func-type' binding='weak-binding' visibility='default-visibility' is-defined='yes'/>
    <elf-symbol name='_ZNSaISt10_List_nodeI11PersistDataEED2Ev' type='func-type' binding='weak-binding' visibility='default-visibility' alias='_ZNSaISt10_List_nodeI11PersistDataEED1Ev' is-defined='yes'/>
    <elf-symbol name='_ZNSaISt10_List_nodeI11TargetImageEEC1Ev' type='func-type' binding='weak-binding' visibility='default-visibility' is-defined='yes'/>
    <elf-symbol name='_ZNSaISt10_List_nodeI11TargetImageEEC2Ev' type='func-type' binding='weak-binding' visibility='default-visibility' alias='_ZNSaISt10_List_nodeI11TargetImageEEC1Ev' is-defined='yes'/>
    <elf-symbol name='_ZNSaISt10_List_nodeI11TargetImageEED1Ev' type='func-type' binding='weak-binding' visibility='default-visibility' is-defined='yes'/>
    <elf-symbol name='_ZNSaISt10_List_nodeI11TargetImageEED2Ev' type='func-type' binding='weak-binding' visibility='default-visibility' alias='_ZNSaISt10_List_nodeI11TargetImageEED1Ev' is-defined='yes'/>
    <elf-symbol name='_ZNSaISt10_List_nodeI6DynLibEEC1Ev' type='func-type' binding='weak-binding' visibility='default-visibility' is-defined='yes'/>
    <elf-symbol name='_ZNSaISt10_List_nodeI6DynLibEEC2Ev' type='func-type' binding='weak-binding' visibility='default-visibility' alias='_ZNSaISt10_List_nodeI6DynLibEEC1Ev' is-defined='yes'/>
    <elf-symbol name='_ZNSaISt10_List_nodeI6DynLibEED1Ev' type='func-type' binding='weak-binding' visibility='default-visibility' is-defined='yes'/>
    <elf-symbol name='_ZNSaISt10_List_nodeI6DynLibEED2Ev' type='func-type' binding='weak-binding' visibility='default-visibility' alias='_ZNSaISt10_List_nodeI6DynLibEED1Ev' is-defined='yes'/>
    <elf-symbol name='_ZNSaISt10_List_nodeI8MyoTableEEC1Ev' type='func-type' binding='weak-binding' visibility='default-visibility' is-defined='yes'/>
    <elf-symbol name='_ZNSaISt10_List_nodeI8MyoTableEEC2Ev' type='func-type' binding='weak-binding' visibility='default-visibility' alias='_ZNSaISt10_List_nodeI8MyoTableEEC1Ev' is-defined='yes'/>
    <elf-symbol name='_ZNSaISt10_List_nodeI8MyoTableEED1Ev' type='func-type' binding='weak-binding' visibility='default-visibility' is-defined='yes'/>
    <elf-symbol name='_ZNSaISt10_List_nodeI8MyoTableEED2Ev' type='func-type' binding='weak-binding' visibility='default-visibility' alias='_ZNSaISt10_List_nodeI8MyoTableEED1Ev' is-defined='yes'/>
    <elf-symbol name='_ZNSaISt10_List_nodeIP7PtrDataEEC1Ev' type='func-type' binding='weak-binding' visibility='default-visibility' is-defined='yes'/>
    <elf-symbol name='_ZNSaISt10_List_nodeIP7PtrDataEEC2Ev' type='func-type' binding='weak-binding' visibility='default-visibility' alias='_ZNSaISt10_List_nodeIP7PtrDataEEC1Ev' is-defined='yes'/>
    <elf-symbol name='_ZNSaISt10_List_nodeIP7PtrDataEED1Ev' type='func-type' binding='weak-binding' visibility='default-visibility' is-defined='yes'/>
    <elf-symbol name='_ZNSaISt10_List_nodeIP7PtrDataEED2Ev' type='func-type' binding='weak-binding' visibility='default-visibility' alias='_ZNSaISt10_List_nodeIP7PtrDataEED1Ev' is-defined='yes'/>
    <elf-symbol name='_ZNSaISt10_List_nodeIP9coibufferEEC1Ev' type='func-type' binding='weak-binding' visibility='default-visibility' is-defined='yes'/>
    <elf-symbol name='_ZNSaISt10_List_nodeIP9coibufferEEC2Ev' type='func-type' binding='weak-binding' visibility='default-visibility' alias='_ZNSaISt10_List_nodeIP9coibufferEEC1Ev' is-defined='yes'/>
    <elf-symbol name='_ZNSaISt10_List_nodeIP9coibufferEED1Ev' type='func-type' binding='weak-binding' visibility='default-visibility' is-defined='yes'/>
    <elf-symbol name='_ZNSaISt10_List_nodeIP9coibufferEED2Ev' type='func-type' binding='weak-binding' visibility='default-visibility' alias='_ZNSaISt10_List_nodeIP9coibufferEED1Ev' is-defined='yes'/>
    <elf-symbol name='_ZNSaISt10_List_nodeIPcEEC1Ev' type='func-type' binding='weak-binding' visibility='default-visibility' is-defined='yes'/>
    <elf-symbol name='_ZNSaISt10_List_nodeIPcEEC2Ev' type='func-type' binding='weak-binding' visibility='default-visibility' alias='_ZNSaISt10_List_nodeIPcEEC1Ev' is-defined='yes'/>
    <elf-symbol name='_ZNSaISt10_List_nodeIPcEED1Ev' type='func-type' binding='weak-binding' visibility='default-visibility' is-defined='yes'/>
    <elf-symbol name='_ZNSaISt10_List_nodeIPcEED2Ev' type='func-type' binding='weak-binding' visibility='default-visibility' alias='_ZNSaISt10_List_nodeIPcEED1Ev' is-defined='yes'/>
    <elf-symbol name='_ZNSaISt13_Rb_tree_nodeI7PtrDataEEC1Ev' type='func-type' binding='weak-binding' visibility='default-visibility' is-defined='yes'/>
    <elf-symbol name='_ZNSaISt13_Rb_tree_nodeI7PtrDataEEC2Ev' type='func-type' binding='weak-binding' visibility='default-visibility' alias='_ZNSaISt13_Rb_tree_nodeI7PtrDataEEC1Ev' is-defined='yes'/>
    <elf-symbol name='_ZNSaISt13_Rb_tree_nodeI7PtrDataEED1Ev' type='func-type' binding='weak-binding' visibility='default-visibility' is-defined='yes'/>
    <elf-symbol name='_ZNSaISt13_Rb_tree_nodeI7PtrDataEED2Ev' type='func-type' binding='weak-binding' visibility='default-visibility' alias='_ZNSaISt13_Rb_tree_nodeI7PtrDataEED1Ev' is-defined='yes'/>
    <elf-symbol name='_ZNSaISt13_Rb_tree_nodeI8AutoDataEEC1Ev' type='func-type' binding='weak-binding' visibility='default-visibility' is-defined='yes'/>
    <elf-symbol name='_ZNSaISt13_Rb_tree_nodeI8AutoDataEEC2Ev' type='func-type' binding='weak-binding' visibility='default-visibility' alias='_ZNSaISt13_Rb_tree_nodeI8AutoDataEEC1Ev' is-defined='yes'/>
    <elf-symbol name='_ZNSaISt13_Rb_tree_nodeI8AutoDataEED1Ev' type='func-type' binding='weak-binding' visibility='default-visibility' is-defined='yes'/>
    <elf-symbol name='_ZNSaISt13_Rb_tree_nodeI8AutoDataEED2Ev' type='func-type' binding='weak-binding' visibility='default-visibility' alias='_ZNSaISt13_Rb_tree_nodeI8AutoDataEED1Ev' is-defined='yes'/>
    <elf-symbol name='_ZNSaISt13_Rb_tree_nodeISt4pairIKPKvP17OffloadDescriptorEEEC1Ev' type='func-type' binding='weak-binding' visibility='default-visibility' is-defined='yes'/>
    <elf-symbol name='_ZNSaISt13_Rb_tree_nodeISt4pairIKPKvP17OffloadDescriptorEEEC2Ev' type='func-type' binding='weak-binding' visibility='default-visibility' alias='_ZNSaISt13_Rb_tree_nodeISt4pairIKPKvP17OffloadDescriptorEEEC1Ev' is-defined='yes'/>
    <elf-symbol name='_ZNSaISt13_Rb_tree_nodeISt4pairIKPKvP17OffloadDescriptorEEED1Ev' type='func-type' binding='weak-binding' visibility='default-visibility' is-defined='yes'/>
    <elf-symbol name='_ZNSaISt13_Rb_tree_nodeISt4pairIKPKvP17OffloadDescriptorEEED2Ev' type='func-type' binding='weak-binding' visibility='default-visibility' alias='_ZNSaISt13_Rb_tree_nodeISt4pairIKPKvP17OffloadDescriptorEEED1Ev' is-defined='yes'/>
    <elf-symbol name='_ZNSaISt13_Rb_tree_nodeISt4pairIKmP6StreamEEEC1ERKS6_' type='func-type' binding='weak-binding' visibility='default-visibility' is-defined='yes'/>
    <elf-symbol name='_ZNSaISt13_Rb_tree_nodeISt4pairIKmP6StreamEEEC1Ev' type='func-type' binding='weak-binding' visibility='default-visibility' is-defined='yes'/>
    <elf-symbol name='_ZNSaISt13_Rb_tree_nodeISt4pairIKmP6StreamEEEC2ERKS6_' type='func-type' binding='weak-binding' visibility='default-visibility' alias='_ZNSaISt13_Rb_tree_nodeISt4pairIKmP6StreamEEEC1ERKS6_' is-defined='yes'/>
    <elf-symbol name='_ZNSaISt13_Rb_tree_nodeISt4pairIKmP6StreamEEEC2Ev' type='func-type' binding='weak-binding' visibility='default-visibility' alias='_ZNSaISt13_Rb_tree_nodeISt4pairIKmP6StreamEEEC1Ev' is-defined='yes'/>
    <elf-symbol name='_ZNSaISt13_Rb_tree_nodeISt4pairIKmP6StreamEEED1Ev' type='func-type' binding='weak-binding' visibility='default-visibility' is-defined='yes'/>
    <elf-symbol name='_ZNSaISt13_Rb_tree_nodeISt4pairIKmP6StreamEEED2Ev' type='func-type' binding='weak-binding' visibility='default-visibility' alias='_ZNSaISt13_Rb_tree_nodeISt4pairIKmP6StreamEEED1Ev' is-defined='yes'/>
    <elf-symbol name='_ZNSt10_Head_baseILm0ERKPKvLb0EE7_M_headERS4_' type='func-type' binding='weak-binding' visibility='default-visibility' is-defined='yes'/>
    <elf-symbol name='_ZNSt10_Head_baseILm0ERKPKvLb0EEC1ES3_' type='func-type' binding='weak-binding' visibility='default-visibility' is-defined='yes'/>
    <elf-symbol name='_ZNSt10_Head_baseILm0ERKPKvLb0EEC2ES3_' type='func-type' binding='weak-binding' visibility='default-visibility' alias='_ZNSt10_Head_baseILm0ERKPKvLb0EEC1ES3_' is-defined='yes'/>
    <elf-symbol name='_ZNSt10_Head_baseILm0ERKmLb0EE7_M_headERS2_' type='func-type' binding='weak-binding' visibility='default-visibility' is-defined='yes'/>
    <elf-symbol name='_ZNSt10_Head_baseILm0ERKmLb0EEC1ES1_' type='func-type' binding='weak-binding' visibility='default-visibility' is-defined='yes'/>
    <elf-symbol name='_ZNSt10_Head_baseILm0ERKmLb0EEC2ES1_' type='func-type' binding='weak-binding' visibility='default-visibility' alias='_ZNSt10_Head_baseILm0ERKmLb0EEC1ES1_' is-defined='yes'/>
    <elf-symbol name='_ZNSt10_List_nodeI11PersistDataE9_M_valptrEv' type='func-type' binding='weak-binding' visibility='default-visibility' is-defined='yes'/>
    <elf-symbol name='_ZNSt10_List_nodeI11TargetImageE9_M_valptrEv' type='func-type' binding='weak-binding' visibility='default-visibility' is-defined='yes'/>
    <elf-symbol name='_ZNSt10_List_nodeI6DynLibE9_M_valptrEv' type='func-type' binding='weak-binding' visibility='default-visibility' is-defined='yes'/>
    <elf-symbol name='_ZNSt10_List_nodeI8MyoTableE9_M_valptrEv' type='func-type' binding='weak-binding' visibility='default-visibility' is-defined='yes'/>
    <elf-symbol name='_ZNSt10_List_nodeIP7PtrDataE9_M_valptrEv' type='func-type' binding='weak-binding' visibility='default-visibility' is-defined='yes'/>
    <elf-symbol name='_ZNSt10_List_nodeIP9coibufferE9_M_valptrEv' type='func-type' binding='weak-binding' visibility='default-visibility' is-defined='yes'/>
    <elf-symbol name='_ZNSt10_List_nodeIPcE9_M_valptrEv' type='func-type' binding='weak-binding' visibility='default-visibility' is-defined='yes'/>
    <elf-symbol name='_ZNSt10_List_nodeImE9_M_valptrEv' type='func-type' binding='weak-binding' visibility='default-visibility' is-defined='yes'/>
    <elf-symbol name='_ZNSt11_Tuple_implILm0EIRKPKvEE7_M_headERS4_' type='func-type' binding='weak-binding' visibility='default-visibility' is-defined='yes'/>
    <elf-symbol name='_ZNSt11_Tuple_implILm0EIRKPKvEEC1EOS4_' type='func-type' binding='weak-binding' visibility='default-visibility' is-defined='yes'/>
    <elf-symbol name='_ZNSt11_Tuple_implILm0EIRKPKvEEC1ES3_' type='func-type' binding='weak-binding' visibility='default-visibility' is-defined='yes'/>
    <elf-symbol name='_ZNSt11_Tuple_implILm0EIRKPKvEEC2EOS4_' type='func-type' binding='weak-binding' visibility='default-visibility' is-defined='yes'/>
    <elf-symbol name='_ZNSt11_Tuple_implILm0EIRKPKvEEC2ES3_' type='func-type' binding='weak-binding' visibility='default-visibility' is-defined='yes'/>
    <elf-symbol name='_ZNSt11_Tuple_implILm0EIRKmEE7_M_headERS2_' type='func-type' binding='weak-binding' visibility='default-visibility' is-defined='yes'/>
    <elf-symbol name='_ZNSt11_Tuple_implILm0EIRKmEEC1EOS2_' type='func-type' binding='weak-binding' visibility='default-visibility' is-defined='yes'/>
    <elf-symbol name='_ZNSt11_Tuple_implILm0EIRKmEEC1ES1_' type='func-type' binding='weak-binding' visibility='default-visibility' is-defined='yes'/>
    <elf-symbol name='_ZNSt11_Tuple_implILm0EIRKmEEC2EOS2_' type='func-type' binding='weak-binding' visibility='default-visibility' is-defined='yes'/>
    <elf-symbol name='_ZNSt11_Tuple_implILm0EIRKmEEC2ES1_' type='func-type' binding='weak-binding' visibility='default-visibility' is-defined='yes'/>
    <elf-symbol name='_ZNSt11_Tuple_implILm0EJRKPKvEE7_M_headERS4_' type='func-type' binding='weak-binding' visibility='default-visibility' alias='_ZNSt11_Tuple_implILm0EIRKPKvEE7_M_headERS4_' is-defined='yes'/>
    <elf-symbol name='_ZNSt11_Tuple_implILm0EJRKPKvEEC1EOS4_' type='func-type' binding='weak-binding' visibility='default-visibility' is-defined='yes'/>
    <elf-symbol name='_ZNSt11_Tuple_implILm0EJRKPKvEEC1ES3_' type='func-type' binding='weak-binding' visibility='default-visibility' is-defined='yes'/>
    <elf-symbol name='_ZNSt11_Tuple_implILm0EJRKPKvEEC2EOS4_' type='func-type' binding='weak-binding' visibility='default-visibility' alias='_ZNSt11_Tuple_implILm0EIRKPKvEEC2EOS4_,_ZNSt11_Tuple_implILm0EJRKPKvEEC1EOS4_,_ZNSt11_Tuple_implILm0EIRKPKvEEC1EOS4_' is-defined='yes'/>
    <elf-symbol name='_ZNSt11_Tuple_implILm0EJRKPKvEEC2ES3_' type='func-type' binding='weak-binding' visibility='default-visibility' alias='_ZNSt11_Tuple_implILm0EJRKPKvEEC1ES3_,_ZNSt11_Tuple_implILm0EIRKPKvEEC1ES3_,_ZNSt11_Tuple_implILm0EIRKPKvEEC2ES3_' is-defined='yes'/>
    <elf-symbol name='_ZNSt11_Tuple_implILm0EJRKmEE7_M_headERS2_' type='func-type' binding='weak-binding' visibility='default-visibility' alias='_ZNSt11_Tuple_implILm0EIRKmEE7_M_headERS2_' is-defined='yes'/>
    <elf-symbol name='_ZNSt11_Tuple_implILm0EJRKmEEC1EOS2_' type='func-type' binding='weak-binding' visibility='default-visibility' is-defined='yes'/>
    <elf-symbol name='_ZNSt11_Tuple_implILm0EJRKmEEC1ES1_' type='func-type' binding='weak-binding' visibility='default-visibility' is-defined='yes'/>
    <elf-symbol name='_ZNSt11_Tuple_implILm0EJRKmEEC2EOS2_' type='func-type' binding='weak-binding' visibility='default-visibility' alias='_ZNSt11_Tuple_implILm0EJRKmEEC1EOS2_,_ZNSt11_Tuple_implILm0EIRKmEEC2EOS2_,_ZNSt11_Tuple_implILm0EIRKmEEC1EOS2_' is-defined='yes'/>
    <elf-symbol name='_ZNSt11_Tuple_implILm0EJRKmEEC2ES1_' type='func-type' binding='weak-binding' visibility='default-visibility' alias='_ZNSt11_Tuple_implILm0EIRKmEEC2ES1_,_ZNSt11_Tuple_implILm0EIRKmEEC1ES1_,_ZNSt11_Tuple_implILm0EJRKmEEC1ES1_' is-defined='yes'/>
    <elf-symbol name='_ZNSt11__copy_moveILb0ELb0ESt26bidirectional_iterator_tagE8__copy_mISt14_List_iteratorIPcEPS4_EET0_T_S8_S7_' type='func-type' binding='weak-binding' visibility='default-visibility' is-defined='yes'/>
    <elf-symbol name='_ZNSt11__copy_moveILb1ELb0ESt26random_access_iterator_tagE8__copy_mISt13move_iteratorIPPKN8VarTable5EntryEES8_EET0_T_SB_SA_' type='func-type' binding='weak-binding' visibility='default-visibility' is-defined='yes'/>
    <elf-symbol name='_ZNSt12_Base_bitsetILm16EE10_M_getwordEm' type='func-type' binding='weak-binding' visibility='default-visibility' is-defined='yes'/>
    <elf-symbol name='_ZNSt12_Base_bitsetILm16EE10_S_maskbitEm' type='func-type' binding='weak-binding' visibility='default-visibility' is-defined='yes'/>
    <elf-symbol name='_ZNSt12_Base_bitsetILm16EE11_M_do_resetEv' type='func-type' binding='weak-binding' visibility='default-visibility' is-defined='yes'/>
    <elf-symbol name='_ZNSt12_Base_bitsetILm16EE11_S_whichbitEm' type='func-type' binding='weak-binding' visibility='default-visibility' is-defined='yes'/>
    <elf-symbol name='_ZNSt12_Base_bitsetILm16EE12_S_whichwordEm' type='func-type' binding='weak-binding' visibility='default-visibility' is-defined='yes'/>
    <elf-symbol name='_ZNSt12_Base_bitsetILm16EEC2Ev' type='func-type' binding='weak-binding' visibility='default-visibility' is-defined='yes'/>
    <elf-symbol name='_ZNSt12_Base_bitsetILm2EE10_M_getwordEm' type='func-type' binding='weak-binding' visibility='default-visibility' is-defined='yes'/>
    <elf-symbol name='_ZNSt12_Base_bitsetILm2EE10_S_maskbitEm' type='func-type' binding='weak-binding' visibility='default-visibility' is-defined='yes'/>
    <elf-symbol name='_ZNSt12_Base_bitsetILm2EE11_M_do_resetEv' type='func-type' binding='weak-binding' visibility='default-visibility' is-defined='yes'/>
    <elf-symbol name='_ZNSt12_Base_bitsetILm2EE11_S_whichbitEm' type='func-type' binding='weak-binding' visibility='default-visibility' is-defined='yes'/>
    <elf-symbol name='_ZNSt12_Base_bitsetILm2EE12_S_whichwordEm' type='func-type' binding='weak-binding' visibility='default-visibility' is-defined='yes'/>
    <elf-symbol name='_ZNSt12_Destroy_auxILb1EE9__destroyIPPKN8VarTable5EntryEEEvT_S7_' type='func-type' binding='weak-binding' visibility='default-visibility' is-defined='yes'/>
    <elf-symbol name='_ZNSt12_Vector_baseIPKN8VarTable5EntryESaIS3_EE11_M_allocateEm' type='func-type' binding='weak-binding' visibility='default-visibility' is-defined='yes'/>
    <elf-symbol name='_ZNSt12_Vector_baseIPKN8VarTable5EntryESaIS3_EE12_Vector_implC1ERKS4_' type='func-type' binding='weak-binding' visibility='default-visibility' is-defined='yes'/>
    <elf-symbol name='_ZNSt12_Vector_baseIPKN8VarTable5EntryESaIS3_EE12_Vector_implC2ERKS4_' type='func-type' binding='weak-binding' visibility='default-visibility' alias='_ZNSt12_Vector_baseIPKN8VarTable5EntryESaIS3_EE12_Vector_implC1ERKS4_' is-defined='yes'/>
    <elf-symbol name='_ZNSt12_Vector_baseIPKN8VarTable5EntryESaIS3_EE12_Vector_implD1Ev' type='func-type' binding='weak-binding' visibility='default-visibility' alias='_ZNSt12_Vector_baseIPKN8VarTable5EntryESaIS3_EE12_Vector_implD2Ev' is-defined='yes'/>
    <elf-symbol name='_ZNSt12_Vector_baseIPKN8VarTable5EntryESaIS3_EE12_Vector_implD2Ev' type='func-type' binding='weak-binding' visibility='default-visibility' is-defined='yes'/>
    <elf-symbol name='_ZNSt12_Vector_baseIPKN8VarTable5EntryESaIS3_EE13_M_deallocateEPS3_m' type='func-type' binding='weak-binding' visibility='default-visibility' is-defined='yes'/>
    <elf-symbol name='_ZNSt12_Vector_baseIPKN8VarTable5EntryESaIS3_EE19_M_get_Tp_allocatorEv' type='func-type' binding='weak-binding' visibility='default-visibility' is-defined='yes'/>
    <elf-symbol name='_ZNSt12_Vector_baseIPKN8VarTable5EntryESaIS3_EEC1ERKS4_' type='func-type' binding='weak-binding' visibility='default-visibility' is-defined='yes'/>
    <elf-symbol name='_ZNSt12_Vector_baseIPKN8VarTable5EntryESaIS3_EEC2ERKS4_' type='func-type' binding='weak-binding' visibility='default-visibility' alias='_ZNSt12_Vector_baseIPKN8VarTable5EntryESaIS3_EEC1ERKS4_' is-defined='yes'/>
    <elf-symbol name='_ZNSt12_Vector_baseIPKN8VarTable5EntryESaIS3_EED1Ev' type='func-type' binding='weak-binding' visibility='default-visibility' is-defined='yes'/>
    <elf-symbol name='_ZNSt12_Vector_baseIPKN8VarTable5EntryESaIS3_EED2Ev' type='func-type' binding='weak-binding' visibility='default-visibility' alias='_ZNSt12_Vector_baseIPKN8VarTable5EntryESaIS3_EED1Ev' is-defined='yes'/>
    <elf-symbol name='_ZNSt13_Rb_tree_nodeI7PtrDataE9_M_valptrEv' type='func-type' binding='weak-binding' visibility='default-visibility' is-defined='yes'/>
    <elf-symbol name='_ZNSt13_Rb_tree_nodeI7PtrDataEC1Ev' type='func-type' binding='weak-binding' visibility='default-visibility' is-defined='yes'/>
    <elf-symbol name='_ZNSt13_Rb_tree_nodeI7PtrDataEC2Ev' type='func-type' binding='weak-binding' visibility='default-visibility' alias='_ZNSt13_Rb_tree_nodeI7PtrDataEC1Ev' is-defined='yes'/>
    <elf-symbol name='_ZNSt13_Rb_tree_nodeI8AutoDataE9_M_valptrEv' type='func-type' binding='weak-binding' visibility='default-visibility' is-defined='yes'/>
    <elf-symbol name='_ZNSt13_Rb_tree_nodeI8AutoDataEC1Ev' type='func-type' binding='weak-binding' visibility='default-visibility' is-defined='yes'/>
    <elf-symbol name='_ZNSt13_Rb_tree_nodeI8AutoDataEC2Ev' type='func-type' binding='weak-binding' visibility='default-visibility' alias='_ZNSt13_Rb_tree_nodeI8AutoDataEC1Ev' is-defined='yes'/>
    <elf-symbol name='_ZNSt13_Rb_tree_nodeISt4pairIKPKvP17OffloadDescriptorEE9_M_valptrEv' type='func-type' binding='weak-binding' visibility='default-visibility' is-defined='yes'/>
    <elf-symbol name='_ZNSt13_Rb_tree_nodeISt4pairIKPKvP17OffloadDescriptorEEC1Ev' type='func-type' binding='weak-binding' visibility='default-visibility' is-defined='yes'/>
    <elf-symbol name='_ZNSt13_Rb_tree_nodeISt4pairIKPKvP17OffloadDescriptorEEC2Ev' type='func-type' binding='weak-binding' visibility='default-visibility' alias='_ZNSt13_Rb_tree_nodeISt4pairIKPKvP17OffloadDescriptorEEC1Ev' is-defined='yes'/>
    <elf-symbol name='_ZNSt13_Rb_tree_nodeISt4pairIKmP6StreamEE9_M_valptrEv' type='func-type' binding='weak-binding' visibility='default-visibility' is-defined='yes'/>
    <elf-symbol name='_ZNSt13_Rb_tree_nodeISt4pairIKmP6StreamEEC1Ev' type='func-type' binding='weak-binding' visibility='default-visibility' is-defined='yes'/>
    <elf-symbol name='_ZNSt13_Rb_tree_nodeISt4pairIKmP6StreamEEC2Ev' type='func-type' binding='weak-binding' visibility='default-visibility' alias='_ZNSt13_Rb_tree_nodeISt4pairIKmP6StreamEEC1Ev' is-defined='yes'/>
    <elf-symbol name='_ZNSt13move_iteratorIPPKN8VarTable5EntryEEC1ES4_' type='func-type' binding='weak-binding' visibility='default-visibility' is-defined='yes'/>
    <elf-symbol name='_ZNSt13move_iteratorIPPKN8VarTable5EntryEEC2ES4_' type='func-type' binding='weak-binding' visibility='default-visibility' alias='_ZNSt13move_iteratorIPPKN8VarTable5EntryEEC1ES4_' is-defined='yes'/>
    <elf-symbol name='_ZNSt13move_iteratorIPPKN8VarTable5EntryEEppEv' type='func-type' binding='weak-binding' visibility='default-visibility' is-defined='yes'/>
    <elf-symbol name='_ZNSt14_List_iteratorI11PersistDataEC1EPNSt8__detail15_List_node_baseE' type='func-type' binding='weak-binding' visibility='default-visibility' is-defined='yes'/>
    <elf-symbol name='_ZNSt14_List_iteratorI11PersistDataEC1Ev' type='func-type' binding='weak-binding' visibility='default-visibility' is-defined='yes'/>
    <elf-symbol name='_ZNSt14_List_iteratorI11PersistDataEC2EPNSt8__detail15_List_node_baseE' type='func-type' binding='weak-binding' visibility='default-visibility' alias='_ZNSt14_List_iteratorI11PersistDataEC1EPNSt8__detail15_List_node_baseE' is-defined='yes'/>
    <elf-symbol name='_ZNSt14_List_iteratorI11PersistDataEC2Ev' type='func-type' binding='weak-binding' visibility='default-visibility' alias='_ZNSt14_List_iteratorI11PersistDataEC1Ev' is-defined='yes'/>
    <elf-symbol name='_ZNSt14_List_iteratorI11PersistDataEppEi' type='func-type' binding='weak-binding' visibility='default-visibility' is-defined='yes'/>
    <elf-symbol name='_ZNSt14_List_iteratorI11PersistDataEppEv' type='func-type' binding='weak-binding' visibility='default-visibility' is-defined='yes'/>
    <elf-symbol name='_ZNSt14_List_iteratorI11TargetImageEC1EPNSt8__detail15_List_node_baseE' type='func-type' binding='weak-binding' visibility='default-visibility' is-defined='yes'/>
    <elf-symbol name='_ZNSt14_List_iteratorI11TargetImageEC2EPNSt8__detail15_List_node_baseE' type='func-type' binding='weak-binding' visibility='default-visibility' alias='_ZNSt14_List_iteratorI11TargetImageEC1EPNSt8__detail15_List_node_baseE' is-defined='yes'/>
    <elf-symbol name='_ZNSt14_List_iteratorI11TargetImageEppEi' type='func-type' binding='weak-binding' visibility='default-visibility' is-defined='yes'/>
    <elf-symbol name='_ZNSt14_List_iteratorI6DynLibEC1EPNSt8__detail15_List_node_baseE' type='func-type' binding='weak-binding' visibility='default-visibility' is-defined='yes'/>
    <elf-symbol name='_ZNSt14_List_iteratorI6DynLibEC2EPNSt8__detail15_List_node_baseE' type='func-type' binding='weak-binding' visibility='default-visibility' alias='_ZNSt14_List_iteratorI6DynLibEC1EPNSt8__detail15_List_node_baseE' is-defined='yes'/>
    <elf-symbol name='_ZNSt14_List_iteratorI6DynLibEppEi' type='func-type' binding='weak-binding' visibility='default-visibility' is-defined='yes'/>
    <elf-symbol name='_ZNSt14_List_iteratorI8MyoTableEC1EPNSt8__detail15_List_node_baseE' type='func-type' binding='weak-binding' visibility='default-visibility' is-defined='yes'/>
    <elf-symbol name='_ZNSt14_List_iteratorI8MyoTableEC2EPNSt8__detail15_List_node_baseE' type='func-type' binding='weak-binding' visibility='default-visibility' alias='_ZNSt14_List_iteratorI8MyoTableEC1EPNSt8__detail15_List_node_baseE' is-defined='yes'/>
    <elf-symbol name='_ZNSt14_List_iteratorIP7PtrDataEC1EPNSt8__detail15_List_node_baseE' type='func-type' binding='weak-binding' visibility='default-visibility' is-defined='yes'/>
    <elf-symbol name='_ZNSt14_List_iteratorIP7PtrDataEC2EPNSt8__detail15_List_node_baseE' type='func-type' binding='weak-binding' visibility='default-visibility' alias='_ZNSt14_List_iteratorIP7PtrDataEC1EPNSt8__detail15_List_node_baseE' is-defined='yes'/>
    <elf-symbol name='_ZNSt14_List_iteratorIP7PtrDataEppEi' type='func-type' binding='weak-binding' visibility='default-visibility' is-defined='yes'/>
    <elf-symbol name='_ZNSt14_List_iteratorIP9coibufferEC1EPNSt8__detail15_List_node_baseE' type='func-type' binding='weak-binding' visibility='default-visibility' is-defined='yes'/>
    <elf-symbol name='_ZNSt14_List_iteratorIP9coibufferEC2EPNSt8__detail15_List_node_baseE' type='func-type' binding='weak-binding' visibility='default-visibility' alias='_ZNSt14_List_iteratorIP9coibufferEC1EPNSt8__detail15_List_node_baseE' is-defined='yes'/>
    <elf-symbol name='_ZNSt14_List_iteratorIPcEC1EPNSt8__detail15_List_node_baseE' type='func-type' binding='weak-binding' visibility='default-visibility' is-defined='yes'/>
    <elf-symbol name='_ZNSt14_List_iteratorIPcEC2EPNSt8__detail15_List_node_baseE' type='func-type' binding='weak-binding' visibility='default-visibility' alias='_ZNSt14_List_iteratorIPcEC1EPNSt8__detail15_List_node_baseE' is-defined='yes'/>
    <elf-symbol name='_ZNSt14_List_iteratorIPcEppEv' type='func-type' binding='weak-binding' visibility='default-visibility' is-defined='yes'/>
    <elf-symbol name='_ZNSt15__allocated_ptrISaISt10_List_nodeI11PersistDataEEEC1ERS3_PS2_' type='func-type' binding='weak-binding' visibility='default-visibility' is-defined='yes'/>
    <elf-symbol name='_ZNSt15__allocated_ptrISaISt10_List_nodeI11PersistDataEEEC2ERS3_PS2_' type='func-type' binding='weak-binding' visibility='default-visibility' alias='_ZNSt15__allocated_ptrISaISt10_List_nodeI11PersistDataEEEC1ERS3_PS2_' is-defined='yes'/>
    <elf-symbol name='_ZNSt15__allocated_ptrISaISt10_List_nodeI11PersistDataEEED1Ev' type='func-type' binding='weak-binding' visibility='default-visibility' is-defined='yes'/>
    <elf-symbol name='_ZNSt15__allocated_ptrISaISt10_List_nodeI11PersistDataEEED2Ev' type='func-type' binding='weak-binding' visibility='default-visibility' alias='_ZNSt15__allocated_ptrISaISt10_List_nodeI11PersistDataEEED1Ev' is-defined='yes'/>
    <elf-symbol name='_ZNSt15__allocated_ptrISaISt10_List_nodeI11PersistDataEEEaSEDn' type='func-type' binding='weak-binding' visibility='default-visibility' is-defined='yes'/>
    <elf-symbol name='_ZNSt15__allocated_ptrISaISt10_List_nodeI11TargetImageEEEC1ERS3_PS2_' type='func-type' binding='weak-binding' visibility='default-visibility' is-defined='yes'/>
    <elf-symbol name='_ZNSt15__allocated_ptrISaISt10_List_nodeI11TargetImageEEEC2ERS3_PS2_' type='func-type' binding='weak-binding' visibility='default-visibility' alias='_ZNSt15__allocated_ptrISaISt10_List_nodeI11TargetImageEEEC1ERS3_PS2_' is-defined='yes'/>
    <elf-symbol name='_ZNSt15__allocated_ptrISaISt10_List_nodeI11TargetImageEEED1Ev' type='func-type' binding='weak-binding' visibility='default-visibility' is-defined='yes'/>
    <elf-symbol name='_ZNSt15__allocated_ptrISaISt10_List_nodeI11TargetImageEEED2Ev' type='func-type' binding='weak-binding' visibility='default-visibility' alias='_ZNSt15__allocated_ptrISaISt10_List_nodeI11TargetImageEEED1Ev' is-defined='yes'/>
    <elf-symbol name='_ZNSt15__allocated_ptrISaISt10_List_nodeI11TargetImageEEEaSEDn' type='func-type' binding='weak-binding' visibility='default-visibility' is-defined='yes'/>
    <elf-symbol name='_ZNSt15__allocated_ptrISaISt10_List_nodeI6DynLibEEEC1ERS3_PS2_' type='func-type' binding='weak-binding' visibility='default-visibility' is-defined='yes'/>
    <elf-symbol name='_ZNSt15__allocated_ptrISaISt10_List_nodeI6DynLibEEEC2ERS3_PS2_' type='func-type' binding='weak-binding' visibility='default-visibility' alias='_ZNSt15__allocated_ptrISaISt10_List_nodeI6DynLibEEEC1ERS3_PS2_' is-defined='yes'/>
    <elf-symbol name='_ZNSt15__allocated_ptrISaISt10_List_nodeI6DynLibEEED1Ev' type='func-type' binding='weak-binding' visibility='default-visibility' is-defined='yes'/>
    <elf-symbol name='_ZNSt15__allocated_ptrISaISt10_List_nodeI6DynLibEEED2Ev' type='func-type' binding='weak-binding' visibility='default-visibility' alias='_ZNSt15__allocated_ptrISaISt10_List_nodeI6DynLibEEED1Ev' is-defined='yes'/>
    <elf-symbol name='_ZNSt15__allocated_ptrISaISt10_List_nodeI6DynLibEEEaSEDn' type='func-type' binding='weak-binding' visibility='default-visibility' is-defined='yes'/>
    <elf-symbol name='_ZNSt15__allocated_ptrISaISt10_List_nodeI8MyoTableEEEC1ERS3_PS2_' type='func-type' binding='weak-binding' visibility='default-visibility' is-defined='yes'/>
    <elf-symbol name='_ZNSt15__allocated_ptrISaISt10_List_nodeI8MyoTableEEEC2ERS3_PS2_' type='func-type' binding='weak-binding' visibility='default-visibility' alias='_ZNSt15__allocated_ptrISaISt10_List_nodeI8MyoTableEEEC1ERS3_PS2_' is-defined='yes'/>
    <elf-symbol name='_ZNSt15__allocated_ptrISaISt10_List_nodeI8MyoTableEEED1Ev' type='func-type' binding='weak-binding' visibility='default-visibility' is-defined='yes'/>
    <elf-symbol name='_ZNSt15__allocated_ptrISaISt10_List_nodeI8MyoTableEEED2Ev' type='func-type' binding='weak-binding' visibility='default-visibility' alias='_ZNSt15__allocated_ptrISaISt10_List_nodeI8MyoTableEEED1Ev' is-defined='yes'/>
    <elf-symbol name='_ZNSt15__allocated_ptrISaISt10_List_nodeI8MyoTableEEEaSEDn' type='func-type' binding='weak-binding' visibility='default-visibility' is-defined='yes'/>
    <elf-symbol name='_ZNSt15__allocated_ptrISaISt10_List_nodeIP7PtrDataEEEC1ERS4_PS3_' type='func-type' binding='weak-binding' visibility='default-visibility' is-defined='yes'/>
    <elf-symbol name='_ZNSt15__allocated_ptrISaISt10_List_nodeIP7PtrDataEEEC2ERS4_PS3_' type='func-type' binding='weak-binding' visibility='default-visibility' alias='_ZNSt15__allocated_ptrISaISt10_List_nodeIP7PtrDataEEEC1ERS4_PS3_' is-defined='yes'/>
    <elf-symbol name='_ZNSt15__allocated_ptrISaISt10_List_nodeIP7PtrDataEEED1Ev' type='func-type' binding='weak-binding' visibility='default-visibility' is-defined='yes'/>
    <elf-symbol name='_ZNSt15__allocated_ptrISaISt10_List_nodeIP7PtrDataEEED2Ev' type='func-type' binding='weak-binding' visibility='default-visibility' alias='_ZNSt15__allocated_ptrISaISt10_List_nodeIP7PtrDataEEED1Ev' is-defined='yes'/>
    <elf-symbol name='_ZNSt15__allocated_ptrISaISt10_List_nodeIP7PtrDataEEEaSEDn' type='func-type' binding='weak-binding' visibility='default-visibility' is-defined='yes'/>
    <elf-symbol name='_ZNSt15__allocated_ptrISaISt10_List_nodeIP9coibufferEEEC1ERS4_PS3_' type='func-type' binding='weak-binding' visibility='default-visibility' is-defined='yes'/>
    <elf-symbol name='_ZNSt15__allocated_ptrISaISt10_List_nodeIP9coibufferEEEC2ERS4_PS3_' type='func-type' binding='weak-binding' visibility='default-visibility' alias='_ZNSt15__allocated_ptrISaISt10_List_nodeIP9coibufferEEEC1ERS4_PS3_' is-defined='yes'/>
    <elf-symbol name='_ZNSt15__allocated_ptrISaISt10_List_nodeIP9coibufferEEED1Ev' type='func-type' binding='weak-binding' visibility='default-visibility' is-defined='yes'/>
    <elf-symbol name='_ZNSt15__allocated_ptrISaISt10_List_nodeIP9coibufferEEED2Ev' type='func-type' binding='weak-binding' visibility='default-visibility' alias='_ZNSt15__allocated_ptrISaISt10_List_nodeIP9coibufferEEED1Ev' is-defined='yes'/>
    <elf-symbol name='_ZNSt15__allocated_ptrISaISt10_List_nodeIP9coibufferEEEaSEDn' type='func-type' binding='weak-binding' visibility='default-visibility' is-defined='yes'/>
    <elf-symbol name='_ZNSt15__allocated_ptrISaISt10_List_nodeIPcEEEC1ERS3_PS2_' type='func-type' binding='weak-binding' visibility='default-visibility' is-defined='yes'/>
    <elf-symbol name='_ZNSt15__allocated_ptrISaISt10_List_nodeIPcEEEC2ERS3_PS2_' type='func-type' binding='weak-binding' visibility='default-visibility' alias='_ZNSt15__allocated_ptrISaISt10_List_nodeIPcEEEC1ERS3_PS2_' is-defined='yes'/>
    <elf-symbol name='_ZNSt15__allocated_ptrISaISt10_List_nodeIPcEEED1Ev' type='func-type' binding='weak-binding' visibility='default-visibility' is-defined='yes'/>
    <elf-symbol name='_ZNSt15__allocated_ptrISaISt10_List_nodeIPcEEED2Ev' type='func-type' binding='weak-binding' visibility='default-visibility' alias='_ZNSt15__allocated_ptrISaISt10_List_nodeIPcEEED1Ev' is-defined='yes'/>
    <elf-symbol name='_ZNSt15__allocated_ptrISaISt10_List_nodeIPcEEEaSEDn' type='func-type' binding='weak-binding' visibility='default-visibility' is-defined='yes'/>
    <elf-symbol name='_ZNSt16allocator_traitsISaIPKN8VarTable5EntryEEE10_S_destroyIS4_S3_EEDTcldtfp_7destroyfp0_EERT_PT0_i' type='func-type' binding='weak-binding' visibility='default-visibility' is-defined='yes'/>
    <elf-symbol name='_ZNSt16allocator_traitsISaIPKN8VarTable5EntryEEE10deallocateERS4_PS3_m' type='func-type' binding='weak-binding' visibility='default-visibility' is-defined='yes'/>
    <elf-symbol name='_ZNSt16allocator_traitsISaIPKN8VarTable5EntryEEE11_S_max_sizeIKS4_EEDTcldtfp_8max_sizeEERT_i' type='func-type' binding='weak-binding' visibility='default-visibility' is-defined='yes'/>
    <elf-symbol name='_ZNSt16allocator_traitsISaIPKN8VarTable5EntryEEE12_S_constructIS3_IS3_EEENSt9enable_ifIXsrSt6__and_IINS5_18__construct_helperIT_IDpT0_EE4typeEEE5valueEvE4typeERS4_PSA_DpOSB_' type='func-type' binding='weak-binding' visibility='default-visibility' is-defined='yes'/>
    <elf-symbol name='_ZNSt16allocator_traitsISaIPKN8VarTable5EntryEEE12_S_constructIS3_JS3_EEENSt9enable_ifIXsrSt6__and_IJNS5_18__construct_helperIT_JDpT0_EE4typeEEE5valueEvE4typeERS4_PSA_DpOSB_' type='func-type' binding='weak-binding' visibility='default-visibility' alias='_ZNSt16allocator_traitsISaIPKN8VarTable5EntryEEE12_S_constructIS3_IS3_EEENSt9enable_ifIXsrSt6__and_IINS5_18__construct_helperIT_IDpT0_EE4typeEEE5valueEvE4typeERS4_PSA_DpOSB_' is-defined='yes'/>
    <elf-symbol name='_ZNSt16allocator_traitsISaIPKN8VarTable5EntryEEE7destroyIS3_EEvRS4_PT_' type='func-type' binding='weak-binding' visibility='default-visibility' is-defined='yes'/>
    <elf-symbol name='_ZNSt16allocator_traitsISaIPKN8VarTable5EntryEEE8allocateERS4_m' type='func-type' binding='weak-binding' visibility='default-visibility' is-defined='yes'/>
    <elf-symbol name='_ZNSt16allocator_traitsISaIPKN8VarTable5EntryEEE8max_sizeERKS4_' type='func-type' binding='weak-binding' visibility='default-visibility' is-defined='yes'/>
    <elf-symbol name='_ZNSt16allocator_traitsISaIPKN8VarTable5EntryEEE9constructIS3_IS3_EEEDTcl12_S_constructfp_fp0_spcl7forwardIT0_Efp1_EEERS4_PT_DpOS7_' type='func-type' binding='weak-binding' visibility='default-visibility' is-defined='yes'/>
    <elf-symbol name='_ZNSt16allocator_traitsISaIPKN8VarTable5EntryEEE9constructIS3_JS3_EEEDTcl12_S_constructfp_fp0_spcl7forwardIT0_Efp1_EEERS4_PT_DpOS7_' type='func-type' binding='weak-binding' visibility='default-visibility' alias='_ZNSt16allocator_traitsISaIPKN8VarTable5EntryEEE9constructIS3_IS3_EEEDTcl12_S_constructfp_fp0_spcl7forwardIT0_Efp1_EEERS4_PT_DpOS7_' is-defined='yes'/>
    <elf-symbol name='_ZNSt16allocator_traitsISaISt10_List_nodeI11PersistDataEEE10_S_destroyIS3_S1_EEDTcldtfp_7destroyfp0_EERT_PT0_i' type='func-type' binding='weak-binding' visibility='default-visibility' is-defined='yes'/>
    <elf-symbol name='_ZNSt16allocator_traitsISaISt10_List_nodeI11PersistDataEEE10deallocateERS3_PS2_m' type='func-type' binding='weak-binding' visibility='default-visibility' is-defined='yes'/>
    <elf-symbol name='_ZNSt16allocator_traitsISaISt10_List_nodeI11PersistDataEEE12_S_constructIS1_IRKS1_EEENSt9enable_ifIXsrSt6__and_IINS4_18__construct_helperIT_IDpT0_EE4typeEEE5valueEvE4typeERS3_PSB_DpOSC_' type='func-type' binding='weak-binding' visibility='default-visibility' is-defined='yes'/>
    <elf-symbol name='_ZNSt16allocator_traitsISaISt10_List_nodeI11PersistDataEEE12_S_constructIS1_JRKS1_EEENSt9enable_ifIXsrSt6__and_IJNS4_18__construct_helperIT_JDpT0_EE4typeEEE5valueEvE4typeERS3_PSB_DpOSC_' type='func-type' binding='weak-binding' visibility='default-visibility' alias='_ZNSt16allocator_traitsISaISt10_List_nodeI11PersistDataEEE12_S_constructIS1_IRKS1_EEENSt9enable_ifIXsrSt6__and_IINS4_18__construct_helperIT_IDpT0_EE4typeEEE5valueEvE4typeERS3_PSB_DpOSC_' is-defined='yes'/>
    <elf-symbol name='_ZNSt16allocator_traitsISaISt10_List_nodeI11PersistDataEEE7destroyIS1_EEvRS3_PT_' type='func-type' binding='weak-binding' visibility='default-visibility' is-defined='yes'/>
    <elf-symbol name='_ZNSt16allocator_traitsISaISt10_List_nodeI11PersistDataEEE8allocateERS3_m' type='func-type' binding='weak-binding' visibility='default-visibility' is-defined='yes'/>
    <elf-symbol name='_ZNSt16allocator_traitsISaISt10_List_nodeI11PersistDataEEE9constructIS1_IRKS1_EEEDTcl12_S_constructfp_fp0_spcl7forwardIT0_Efp1_EEERS3_PT_DpOS8_' type='func-type' binding='weak-binding' visibility='default-visibility' is-defined='yes'/>
    <elf-symbol name='_ZNSt16allocator_traitsISaISt10_List_nodeI11PersistDataEEE9constructIS1_JRKS1_EEEDTcl12_S_constructfp_fp0_spcl7forwardIT0_Efp1_EEERS3_PT_DpOS8_' type='func-type' binding='weak-binding' visibility='default-visibility' alias='_ZNSt16allocator_traitsISaISt10_List_nodeI11PersistDataEEE9constructIS1_IRKS1_EEEDTcl12_S_constructfp_fp0_spcl7forwardIT0_Efp1_EEERS3_PT_DpOS8_' is-defined='yes'/>
    <elf-symbol name='_ZNSt16allocator_traitsISaISt10_List_nodeI11TargetImageEEE10_S_destroyIS3_S1_EEDTcldtfp_7destroyfp0_EERT_PT0_i' type='func-type' binding='weak-binding' visibility='default-visibility' is-defined='yes'/>
    <elf-symbol name='_ZNSt16allocator_traitsISaISt10_List_nodeI11TargetImageEEE10deallocateERS3_PS2_m' type='func-type' binding='weak-binding' visibility='default-visibility' is-defined='yes'/>
    <elf-symbol name='_ZNSt16allocator_traitsISaISt10_List_nodeI11TargetImageEEE12_S_constructIS1_IRKS1_EEENSt9enable_ifIXsrSt6__and_IINS4_18__construct_helperIT_IDpT0_EE4typeEEE5valueEvE4typeERS3_PSB_DpOSC_' type='func-type' binding='weak-binding' visibility='default-visibility' is-defined='yes'/>
    <elf-symbol name='_ZNSt16allocator_traitsISaISt10_List_nodeI11TargetImageEEE12_S_constructIS1_IS1_EEENSt9enable_ifIXsrSt6__and_IINS4_18__construct_helperIT_IDpT0_EE4typeEEE5valueEvE4typeERS3_PS9_DpOSA_' type='func-type' binding='weak-binding' visibility='default-visibility' is-defined='yes'/>
    <elf-symbol name='_ZNSt16allocator_traitsISaISt10_List_nodeI11TargetImageEEE12_S_constructIS1_JRKS1_EEENSt9enable_ifIXsrSt6__and_IJNS4_18__construct_helperIT_JDpT0_EE4typeEEE5valueEvE4typeERS3_PSB_DpOSC_' type='func-type' binding='weak-binding' visibility='default-visibility' alias='_ZNSt16allocator_traitsISaISt10_List_nodeI11TargetImageEEE12_S_constructIS1_IRKS1_EEENSt9enable_ifIXsrSt6__and_IINS4_18__construct_helperIT_IDpT0_EE4typeEEE5valueEvE4typeERS3_PSB_DpOSC_' is-defined='yes'/>
    <elf-symbol name='_ZNSt16allocator_traitsISaISt10_List_nodeI11TargetImageEEE12_S_constructIS1_JS1_EEENSt9enable_ifIXsrSt6__and_IJNS4_18__construct_helperIT_JDpT0_EE4typeEEE5valueEvE4typeERS3_PS9_DpOSA_' type='func-type' binding='weak-binding' visibility='default-visibility' alias='_ZNSt16allocator_traitsISaISt10_List_nodeI11TargetImageEEE12_S_constructIS1_IS1_EEENSt9enable_ifIXsrSt6__and_IINS4_18__construct_helperIT_IDpT0_EE4typeEEE5valueEvE4typeERS3_PS9_DpOSA_' is-defined='yes'/>
    <elf-symbol name='_ZNSt16allocator_traitsISaISt10_List_nodeI11TargetImageEEE7destroyIS1_EEvRS3_PT_' type='func-type' binding='weak-binding' visibility='default-visibility' is-defined='yes'/>
    <elf-symbol name='_ZNSt16allocator_traitsISaISt10_List_nodeI11TargetImageEEE8allocateERS3_m' type='func-type' binding='weak-binding' visibility='default-visibility' is-defined='yes'/>
    <elf-symbol name='_ZNSt16allocator_traitsISaISt10_List_nodeI11TargetImageEEE9constructIS1_IRKS1_EEEDTcl12_S_constructfp_fp0_spcl7forwardIT0_Efp1_EEERS3_PT_DpOS8_' type='func-type' binding='weak-binding' visibility='default-visibility' is-defined='yes'/>
    <elf-symbol name='_ZNSt16allocator_traitsISaISt10_List_nodeI11TargetImageEEE9constructIS1_IS1_EEEDTcl12_S_constructfp_fp0_spcl7forwardIT0_Efp1_EEERS3_PT_DpOS6_' type='func-type' binding='weak-binding' visibility='default-visibility' is-defined='yes'/>
    <elf-symbol name='_ZNSt16allocator_traitsISaISt10_List_nodeI11TargetImageEEE9constructIS1_JRKS1_EEEDTcl12_S_constructfp_fp0_spcl7forwardIT0_Efp1_EEERS3_PT_DpOS8_' type='func-type' binding='weak-binding' visibility='default-visibility' alias='_ZNSt16allocator_traitsISaISt10_List_nodeI11TargetImageEEE9constructIS1_IRKS1_EEEDTcl12_S_constructfp_fp0_spcl7forwardIT0_Efp1_EEERS3_PT_DpOS8_' is-defined='yes'/>
    <elf-symbol name='_ZNSt16allocator_traitsISaISt10_List_nodeI11TargetImageEEE9constructIS1_JS1_EEEDTcl12_S_constructfp_fp0_spcl7forwardIT0_Efp1_EEERS3_PT_DpOS6_' type='func-type' binding='weak-binding' visibility='default-visibility' alias='_ZNSt16allocator_traitsISaISt10_List_nodeI11TargetImageEEE9constructIS1_IS1_EEEDTcl12_S_constructfp_fp0_spcl7forwardIT0_Efp1_EEERS3_PT_DpOS6_' is-defined='yes'/>
    <elf-symbol name='_ZNSt16allocator_traitsISaISt10_List_nodeI6DynLibEEE10_S_destroyIS3_S1_EEDTcldtfp_7destroyfp0_EERT_PT0_i' type='func-type' binding='weak-binding' visibility='default-visibility' is-defined='yes'/>
    <elf-symbol name='_ZNSt16allocator_traitsISaISt10_List_nodeI6DynLibEEE10deallocateERS3_PS2_m' type='func-type' binding='weak-binding' visibility='default-visibility' is-defined='yes'/>
    <elf-symbol name='_ZNSt16allocator_traitsISaISt10_List_nodeI6DynLibEEE12_S_constructIS1_IS1_EEENSt9enable_ifIXsrSt6__and_IINS4_18__construct_helperIT_IDpT0_EE4typeEEE5valueEvE4typeERS3_PS9_DpOSA_' type='func-type' binding='weak-binding' visibility='default-visibility' is-defined='yes'/>
    <elf-symbol name='_ZNSt16allocator_traitsISaISt10_List_nodeI6DynLibEEE12_S_constructIS1_JS1_EEENSt9enable_ifIXsrSt6__and_IJNS4_18__construct_helperIT_JDpT0_EE4typeEEE5valueEvE4typeERS3_PS9_DpOSA_' type='func-type' binding='weak-binding' visibility='default-visibility' alias='_ZNSt16allocator_traitsISaISt10_List_nodeI6DynLibEEE12_S_constructIS1_IS1_EEENSt9enable_ifIXsrSt6__and_IINS4_18__construct_helperIT_IDpT0_EE4typeEEE5valueEvE4typeERS3_PS9_DpOSA_' is-defined='yes'/>
    <elf-symbol name='_ZNSt16allocator_traitsISaISt10_List_nodeI6DynLibEEE7destroyIS1_EEvRS3_PT_' type='func-type' binding='weak-binding' visibility='default-visibility' is-defined='yes'/>
    <elf-symbol name='_ZNSt16allocator_traitsISaISt10_List_nodeI6DynLibEEE8allocateERS3_m' type='func-type' binding='weak-binding' visibility='default-visibility' is-defined='yes'/>
    <elf-symbol name='_ZNSt16allocator_traitsISaISt10_List_nodeI6DynLibEEE9constructIS1_IS1_EEEDTcl12_S_constructfp_fp0_spcl7forwardIT0_Efp1_EEERS3_PT_DpOS6_' type='func-type' binding='weak-binding' visibility='default-visibility' is-defined='yes'/>
    <elf-symbol name='_ZNSt16allocator_traitsISaISt10_List_nodeI6DynLibEEE9constructIS1_JS1_EEEDTcl12_S_constructfp_fp0_spcl7forwardIT0_Efp1_EEERS3_PT_DpOS6_' type='func-type' binding='weak-binding' visibility='default-visibility' alias='_ZNSt16allocator_traitsISaISt10_List_nodeI6DynLibEEE9constructIS1_IS1_EEEDTcl12_S_constructfp_fp0_spcl7forwardIT0_Efp1_EEERS3_PT_DpOS6_' is-defined='yes'/>
    <elf-symbol name='_ZNSt16allocator_traitsISaISt10_List_nodeI8MyoTableEEE10_S_destroyIS3_S1_EEDTcldtfp_7destroyfp0_EERT_PT0_i' type='func-type' binding='weak-binding' visibility='default-visibility' is-defined='yes'/>
    <elf-symbol name='_ZNSt16allocator_traitsISaISt10_List_nodeI8MyoTableEEE10deallocateERS3_PS2_m' type='func-type' binding='weak-binding' visibility='default-visibility' is-defined='yes'/>
    <elf-symbol name='_ZNSt16allocator_traitsISaISt10_List_nodeI8MyoTableEEE12_S_constructIS1_IS1_EEENSt9enable_ifIXsrSt6__and_IINS4_18__construct_helperIT_IDpT0_EE4typeEEE5valueEvE4typeERS3_PS9_DpOSA_' type='func-type' binding='weak-binding' visibility='default-visibility' is-defined='yes'/>
    <elf-symbol name='_ZNSt16allocator_traitsISaISt10_List_nodeI8MyoTableEEE12_S_constructIS1_JS1_EEENSt9enable_ifIXsrSt6__and_IJNS4_18__construct_helperIT_JDpT0_EE4typeEEE5valueEvE4typeERS3_PS9_DpOSA_' type='func-type' binding='weak-binding' visibility='default-visibility' alias='_ZNSt16allocator_traitsISaISt10_List_nodeI8MyoTableEEE12_S_constructIS1_IS1_EEENSt9enable_ifIXsrSt6__and_IINS4_18__construct_helperIT_IDpT0_EE4typeEEE5valueEvE4typeERS3_PS9_DpOSA_' is-defined='yes'/>
    <elf-symbol name='_ZNSt16allocator_traitsISaISt10_List_nodeI8MyoTableEEE7destroyIS1_EEvRS3_PT_' type='func-type' binding='weak-binding' visibility='default-visibility' is-defined='yes'/>
    <elf-symbol name='_ZNSt16allocator_traitsISaISt10_List_nodeI8MyoTableEEE8allocateERS3_m' type='func-type' binding='weak-binding' visibility='default-visibility' is-defined='yes'/>
    <elf-symbol name='_ZNSt16allocator_traitsISaISt10_List_nodeI8MyoTableEEE9constructIS1_IS1_EEEDTcl12_S_constructfp_fp0_spcl7forwardIT0_Efp1_EEERS3_PT_DpOS6_' type='func-type' binding='weak-binding' visibility='default-visibility' is-defined='yes'/>
    <elf-symbol name='_ZNSt16allocator_traitsISaISt10_List_nodeI8MyoTableEEE9constructIS1_JS1_EEEDTcl12_S_constructfp_fp0_spcl7forwardIT0_Efp1_EEERS3_PT_DpOS6_' type='func-type' binding='weak-binding' visibility='default-visibility' alias='_ZNSt16allocator_traitsISaISt10_List_nodeI8MyoTableEEE9constructIS1_IS1_EEEDTcl12_S_constructfp_fp0_spcl7forwardIT0_Efp1_EEERS3_PT_DpOS6_' is-defined='yes'/>
    <elf-symbol name='_ZNSt16allocator_traitsISaISt10_List_nodeIP7PtrDataEEE10_S_destroyIS4_S2_EEDTcldtfp_7destroyfp0_EERT_PT0_i' type='func-type' binding='weak-binding' visibility='default-visibility' is-defined='yes'/>
    <elf-symbol name='_ZNSt16allocator_traitsISaISt10_List_nodeIP7PtrDataEEE10deallocateERS4_PS3_m' type='func-type' binding='weak-binding' visibility='default-visibility' is-defined='yes'/>
    <elf-symbol name='_ZNSt16allocator_traitsISaISt10_List_nodeIP7PtrDataEEE12_S_constructIS2_IRKS2_EEENSt9enable_ifIXsrSt6__and_IINS5_18__construct_helperIT_IDpT0_EE4typeEEE5valueEvE4typeERS4_PSC_DpOSD_' type='func-type' binding='weak-binding' visibility='default-visibility' is-defined='yes'/>
    <elf-symbol name='_ZNSt16allocator_traitsISaISt10_List_nodeIP7PtrDataEEE12_S_constructIS2_JRKS2_EEENSt9enable_ifIXsrSt6__and_IJNS5_18__construct_helperIT_JDpT0_EE4typeEEE5valueEvE4typeERS4_PSC_DpOSD_' type='func-type' binding='weak-binding' visibility='default-visibility' alias='_ZNSt16allocator_traitsISaISt10_List_nodeIP7PtrDataEEE12_S_constructIS2_IRKS2_EEENSt9enable_ifIXsrSt6__and_IINS5_18__construct_helperIT_IDpT0_EE4typeEEE5valueEvE4typeERS4_PSC_DpOSD_' is-defined='yes'/>
    <elf-symbol name='_ZNSt16allocator_traitsISaISt10_List_nodeIP7PtrDataEEE7destroyIS2_EEvRS4_PT_' type='func-type' binding='weak-binding' visibility='default-visibility' is-defined='yes'/>
    <elf-symbol name='_ZNSt16allocator_traitsISaISt10_List_nodeIP7PtrDataEEE8allocateERS4_m' type='func-type' binding='weak-binding' visibility='default-visibility' is-defined='yes'/>
    <elf-symbol name='_ZNSt16allocator_traitsISaISt10_List_nodeIP7PtrDataEEE9constructIS2_IRKS2_EEEDTcl12_S_constructfp_fp0_spcl7forwardIT0_Efp1_EEERS4_PT_DpOS9_' type='func-type' binding='weak-binding' visibility='default-visibility' is-defined='yes'/>
    <elf-symbol name='_ZNSt16allocator_traitsISaISt10_List_nodeIP7PtrDataEEE9constructIS2_JRKS2_EEEDTcl12_S_constructfp_fp0_spcl7forwardIT0_Efp1_EEERS4_PT_DpOS9_' type='func-type' binding='weak-binding' visibility='default-visibility' alias='_ZNSt16allocator_traitsISaISt10_List_nodeIP7PtrDataEEE9constructIS2_IRKS2_EEEDTcl12_S_constructfp_fp0_spcl7forwardIT0_Efp1_EEERS4_PT_DpOS9_' is-defined='yes'/>
    <elf-symbol name='_ZNSt16allocator_traitsISaISt10_List_nodeIP9coibufferEEE10_S_destroyIS4_S2_EEDTcldtfp_7destroyfp0_EERT_PT0_i' type='func-type' binding='weak-binding' visibility='default-visibility' is-defined='yes'/>
    <elf-symbol name='_ZNSt16allocator_traitsISaISt10_List_nodeIP9coibufferEEE10deallocateERS4_PS3_m' type='func-type' binding='weak-binding' visibility='default-visibility' is-defined='yes'/>
    <elf-symbol name='_ZNSt16allocator_traitsISaISt10_List_nodeIP9coibufferEEE12_S_constructIS2_IRKS2_EEENSt9enable_ifIXsrSt6__and_IINS5_18__construct_helperIT_IDpT0_EE4typeEEE5valueEvE4typeERS4_PSC_DpOSD_' type='func-type' binding='weak-binding' visibility='default-visibility' is-defined='yes'/>
    <elf-symbol name='_ZNSt16allocator_traitsISaISt10_List_nodeIP9coibufferEEE12_S_constructIS2_JRKS2_EEENSt9enable_ifIXsrSt6__and_IJNS5_18__construct_helperIT_JDpT0_EE4typeEEE5valueEvE4typeERS4_PSC_DpOSD_' type='func-type' binding='weak-binding' visibility='default-visibility' alias='_ZNSt16allocator_traitsISaISt10_List_nodeIP9coibufferEEE12_S_constructIS2_IRKS2_EEENSt9enable_ifIXsrSt6__and_IINS5_18__construct_helperIT_IDpT0_EE4typeEEE5valueEvE4typeERS4_PSC_DpOSD_' is-defined='yes'/>
    <elf-symbol name='_ZNSt16allocator_traitsISaISt10_List_nodeIP9coibufferEEE7destroyIS2_EEvRS4_PT_' type='func-type' binding='weak-binding' visibility='default-visibility' is-defined='yes'/>
    <elf-symbol name='_ZNSt16allocator_traitsISaISt10_List_nodeIP9coibufferEEE8allocateERS4_m' type='func-type' binding='weak-binding' visibility='default-visibility' is-defined='yes'/>
    <elf-symbol name='_ZNSt16allocator_traitsISaISt10_List_nodeIP9coibufferEEE9constructIS2_IRKS2_EEEDTcl12_S_constructfp_fp0_spcl7forwardIT0_Efp1_EEERS4_PT_DpOS9_' type='func-type' binding='weak-binding' visibility='default-visibility' is-defined='yes'/>
    <elf-symbol name='_ZNSt16allocator_traitsISaISt10_List_nodeIP9coibufferEEE9constructIS2_JRKS2_EEEDTcl12_S_constructfp_fp0_spcl7forwardIT0_Efp1_EEERS4_PT_DpOS9_' type='func-type' binding='weak-binding' visibility='default-visibility' alias='_ZNSt16allocator_traitsISaISt10_List_nodeIP9coibufferEEE9constructIS2_IRKS2_EEEDTcl12_S_constructfp_fp0_spcl7forwardIT0_Efp1_EEERS4_PT_DpOS9_' is-defined='yes'/>
    <elf-symbol name='_ZNSt16allocator_traitsISaISt10_List_nodeIPcEEE10_S_destroyIS3_S1_EEDTcldtfp_7destroyfp0_EERT_PT0_i' type='func-type' binding='weak-binding' visibility='default-visibility' is-defined='yes'/>
    <elf-symbol name='_ZNSt16allocator_traitsISaISt10_List_nodeIPcEEE10deallocateERS3_PS2_m' type='func-type' binding='weak-binding' visibility='default-visibility' is-defined='yes'/>
    <elf-symbol name='_ZNSt16allocator_traitsISaISt10_List_nodeIPcEEE12_S_constructIS1_IRKS1_EEENSt9enable_ifIXsrSt6__and_IINS4_18__construct_helperIT_IDpT0_EE4typeEEE5valueEvE4typeERS3_PSB_DpOSC_' type='func-type' binding='weak-binding' visibility='default-visibility' is-defined='yes'/>
    <elf-symbol name='_ZNSt16allocator_traitsISaISt10_List_nodeIPcEEE12_S_constructIS1_JRKS1_EEENSt9enable_ifIXsrSt6__and_IJNS4_18__construct_helperIT_JDpT0_EE4typeEEE5valueEvE4typeERS3_PSB_DpOSC_' type='func-type' binding='weak-binding' visibility='default-visibility' alias='_ZNSt16allocator_traitsISaISt10_List_nodeIPcEEE12_S_constructIS1_IRKS1_EEENSt9enable_ifIXsrSt6__and_IINS4_18__construct_helperIT_IDpT0_EE4typeEEE5valueEvE4typeERS3_PSB_DpOSC_' is-defined='yes'/>
    <elf-symbol name='_ZNSt16allocator_traitsISaISt10_List_nodeIPcEEE7destroyIS1_EEvRS3_PT_' type='func-type' binding='weak-binding' visibility='default-visibility' is-defined='yes'/>
    <elf-symbol name='_ZNSt16allocator_traitsISaISt10_List_nodeIPcEEE8allocateERS3_m' type='func-type' binding='weak-binding' visibility='default-visibility' is-defined='yes'/>
    <elf-symbol name='_ZNSt16allocator_traitsISaISt10_List_nodeIPcEEE9constructIS1_IRKS1_EEEDTcl12_S_constructfp_fp0_spcl7forwardIT0_Efp1_EEERS3_PT_DpOS8_' type='func-type' binding='weak-binding' visibility='default-visibility' is-defined='yes'/>
    <elf-symbol name='_ZNSt16allocator_traitsISaISt10_List_nodeIPcEEE9constructIS1_JRKS1_EEEDTcl12_S_constructfp_fp0_spcl7forwardIT0_Efp1_EEERS3_PT_DpOS8_' type='func-type' binding='weak-binding' visibility='default-visibility' alias='_ZNSt16allocator_traitsISaISt10_List_nodeIPcEEE9constructIS1_IRKS1_EEEDTcl12_S_constructfp_fp0_spcl7forwardIT0_Efp1_EEERS3_PT_DpOS8_' is-defined='yes'/>
    <elf-symbol name='_ZNSt16allocator_traitsISaISt13_Rb_tree_nodeI7PtrDataEEE10_S_destroyIS3_S1_EEDTcldtfp_7destroyfp0_EERT_PT0_i' type='func-type' binding='weak-binding' visibility='default-visibility' is-defined='yes'/>
    <elf-symbol name='_ZNSt16allocator_traitsISaISt13_Rb_tree_nodeI7PtrDataEEE10deallocateERS3_PS2_m' type='func-type' binding='weak-binding' visibility='default-visibility' is-defined='yes'/>
    <elf-symbol name='_ZNSt16allocator_traitsISaISt13_Rb_tree_nodeI7PtrDataEEE12_S_constructIS1_IS1_EEENSt9enable_ifIXsrSt6__and_IINS4_18__construct_helperIT_IDpT0_EE4typeEEE5valueEvE4typeERS3_PS9_DpOSA_' type='func-type' binding='weak-binding' visibility='default-visibility' is-defined='yes'/>
    <elf-symbol name='_ZNSt16allocator_traitsISaISt13_Rb_tree_nodeI7PtrDataEEE12_S_constructIS1_JS1_EEENSt9enable_ifIXsrSt6__and_IJNS4_18__construct_helperIT_JDpT0_EE4typeEEE5valueEvE4typeERS3_PS9_DpOSA_' type='func-type' binding='weak-binding' visibility='default-visibility' alias='_ZNSt16allocator_traitsISaISt13_Rb_tree_nodeI7PtrDataEEE12_S_constructIS1_IS1_EEENSt9enable_ifIXsrSt6__and_IINS4_18__construct_helperIT_IDpT0_EE4typeEEE5valueEvE4typeERS3_PS9_DpOSA_' is-defined='yes'/>
    <elf-symbol name='_ZNSt16allocator_traitsISaISt13_Rb_tree_nodeI7PtrDataEEE7destroyIS1_EEvRS3_PT_' type='func-type' binding='weak-binding' visibility='default-visibility' is-defined='yes'/>
    <elf-symbol name='_ZNSt16allocator_traitsISaISt13_Rb_tree_nodeI7PtrDataEEE8allocateERS3_m' type='func-type' binding='weak-binding' visibility='default-visibility' is-defined='yes'/>
    <elf-symbol name='_ZNSt16allocator_traitsISaISt13_Rb_tree_nodeI7PtrDataEEE9constructIS1_IS1_EEEDTcl12_S_constructfp_fp0_spcl7forwardIT0_Efp1_EEERS3_PT_DpOS6_' type='func-type' binding='weak-binding' visibility='default-visibility' is-defined='yes'/>
    <elf-symbol name='_ZNSt16allocator_traitsISaISt13_Rb_tree_nodeI7PtrDataEEE9constructIS1_JS1_EEEDTcl12_S_constructfp_fp0_spcl7forwardIT0_Efp1_EEERS3_PT_DpOS6_' type='func-type' binding='weak-binding' visibility='default-visibility' alias='_ZNSt16allocator_traitsISaISt13_Rb_tree_nodeI7PtrDataEEE9constructIS1_IS1_EEEDTcl12_S_constructfp_fp0_spcl7forwardIT0_Efp1_EEERS3_PT_DpOS6_' is-defined='yes'/>
    <elf-symbol name='_ZNSt16allocator_traitsISaISt13_Rb_tree_nodeI8AutoDataEEE10_S_destroyIS3_S1_EEDTcldtfp_7destroyfp0_EERT_PT0_i' type='func-type' binding='weak-binding' visibility='default-visibility' is-defined='yes'/>
    <elf-symbol name='_ZNSt16allocator_traitsISaISt13_Rb_tree_nodeI8AutoDataEEE10deallocateERS3_PS2_m' type='func-type' binding='weak-binding' visibility='default-visibility' is-defined='yes'/>
    <elf-symbol name='_ZNSt16allocator_traitsISaISt13_Rb_tree_nodeI8AutoDataEEE12_S_constructIS1_IS1_EEENSt9enable_ifIXsrSt6__and_IINS4_18__construct_helperIT_IDpT0_EE4typeEEE5valueEvE4typeERS3_PS9_DpOSA_' type='func-type' binding='weak-binding' visibility='default-visibility' is-defined='yes'/>
    <elf-symbol name='_ZNSt16allocator_traitsISaISt13_Rb_tree_nodeI8AutoDataEEE12_S_constructIS1_JS1_EEENSt9enable_ifIXsrSt6__and_IJNS4_18__construct_helperIT_JDpT0_EE4typeEEE5valueEvE4typeERS3_PS9_DpOSA_' type='func-type' binding='weak-binding' visibility='default-visibility' alias='_ZNSt16allocator_traitsISaISt13_Rb_tree_nodeI8AutoDataEEE12_S_constructIS1_IS1_EEENSt9enable_ifIXsrSt6__and_IINS4_18__construct_helperIT_IDpT0_EE4typeEEE5valueEvE4typeERS3_PS9_DpOSA_' is-defined='yes'/>
    <elf-symbol name='_ZNSt16allocator_traitsISaISt13_Rb_tree_nodeI8AutoDataEEE7destroyIS1_EEvRS3_PT_' type='func-type' binding='weak-binding' visibility='default-visibility' is-defined='yes'/>
    <elf-symbol name='_ZNSt16allocator_traitsISaISt13_Rb_tree_nodeI8AutoDataEEE8allocateERS3_m' type='func-type' binding='weak-binding' visibility='default-visibility' is-defined='yes'/>
    <elf-symbol name='_ZNSt16allocator_traitsISaISt13_Rb_tree_nodeI8AutoDataEEE9constructIS1_IS1_EEEDTcl12_S_constructfp_fp0_spcl7forwardIT0_Efp1_EEERS3_PT_DpOS6_' type='func-type' binding='weak-binding' visibility='default-visibility' is-defined='yes'/>
    <elf-symbol name='_ZNSt16allocator_traitsISaISt13_Rb_tree_nodeI8AutoDataEEE9constructIS1_JS1_EEEDTcl12_S_constructfp_fp0_spcl7forwardIT0_Efp1_EEERS3_PT_DpOS6_' type='func-type' binding='weak-binding' visibility='default-visibility' alias='_ZNSt16allocator_traitsISaISt13_Rb_tree_nodeI8AutoDataEEE9constructIS1_IS1_EEEDTcl12_S_constructfp_fp0_spcl7forwardIT0_Efp1_EEERS3_PT_DpOS6_' is-defined='yes'/>
    <elf-symbol name='_ZNSt16allocator_traitsISaISt13_Rb_tree_nodeISt4pairIKPKvP17OffloadDescriptorEEEE10_S_destroyIS9_S7_EEDTcldtfp_7destroyfp0_EERT_PT0_i' type='func-type' binding='weak-binding' visibility='default-visibility' is-defined='yes'/>
    <elf-symbol name='_ZNSt16allocator_traitsISaISt13_Rb_tree_nodeISt4pairIKPKvP17OffloadDescriptorEEEE10deallocateERS9_PS8_m' type='func-type' binding='weak-binding' visibility='default-visibility' is-defined='yes'/>
    <elf-symbol name='_ZNSt16allocator_traitsISaISt13_Rb_tree_nodeISt4pairIKPKvP17OffloadDescriptorEEEE12_S_constructIS7_IRKSt21piecewise_construct_tSt5tupleIIRS4_EESF_IIEEEEENSt9enable_ifIXsrSt6__and_IINSA_18__construct_helperIT_IDpT0_EE4typeEEE5valueEvE4typeERS9_PSM_DpOSN_' type='func-type' binding='weak-binding' visibility='default-visibility' is-defined='yes'/>
    <elf-symbol name='_ZNSt16allocator_traitsISaISt13_Rb_tree_nodeISt4pairIKPKvP17OffloadDescriptorEEEE12_S_constructIS7_JRKSt21piecewise_construct_tSt5tupleIJRS4_EESF_IJEEEEENSt9enable_ifIXsrSt6__and_IJNSA_18__construct_helperIT_JDpT0_EE4typeEEE5valueEvE4typeERS9_PSM_DpOSN_' type='func-type' binding='weak-binding' visibility='default-visibility' alias='_ZNSt16allocator_traitsISaISt13_Rb_tree_nodeISt4pairIKPKvP17OffloadDescriptorEEEE12_S_constructIS7_IRKSt21piecewise_construct_tSt5tupleIIRS4_EESF_IIEEEEENSt9enable_ifIXsrSt6__and_IINSA_18__construct_helperIT_IDpT0_EE4typeEEE5valueEvE4typeERS9_PSM_DpOSN_' is-defined='yes'/>
    <elf-symbol name='_ZNSt16allocator_traitsISaISt13_Rb_tree_nodeISt4pairIKPKvP17OffloadDescriptorEEEE7destroyIS7_EEvRS9_PT_' type='func-type' binding='weak-binding' visibility='default-visibility' is-defined='yes'/>
    <elf-symbol name='_ZNSt16allocator_traitsISaISt13_Rb_tree_nodeISt4pairIKPKvP17OffloadDescriptorEEEE8allocateERS9_m' type='func-type' binding='weak-binding' visibility='default-visibility' is-defined='yes'/>
    <elf-symbol name='_ZNSt16allocator_traitsISaISt13_Rb_tree_nodeISt4pairIKPKvP17OffloadDescriptorEEEE9constructIS7_IRKSt21piecewise_construct_tSt5tupleIIRS4_EESF_IIEEEEEDTcl12_S_constructfp_fp0_spcl7forwardIT0_Efp1_EEERS9_PT_DpOSJ_' type='func-type' binding='weak-binding' visibility='default-visibility' is-defined='yes'/>
    <elf-symbol name='_ZNSt16allocator_traitsISaISt13_Rb_tree_nodeISt4pairIKPKvP17OffloadDescriptorEEEE9constructIS7_JRKSt21piecewise_construct_tSt5tupleIJRS4_EESF_IJEEEEEDTcl12_S_constructfp_fp0_spcl7forwardIT0_Efp1_EEERS9_PT_DpOSJ_' type='func-type' binding='weak-binding' visibility='default-visibility' alias='_ZNSt16allocator_traitsISaISt13_Rb_tree_nodeISt4pairIKPKvP17OffloadDescriptorEEEE9constructIS7_IRKSt21piecewise_construct_tSt5tupleIIRS4_EESF_IIEEEEEDTcl12_S_constructfp_fp0_spcl7forwardIT0_Efp1_EEERS9_PT_DpOSJ_' is-defined='yes'/>
    <elf-symbol name='_ZNSt16allocator_traitsISaISt13_Rb_tree_nodeISt4pairIKmP6StreamEEEE10_S_destroyIS7_S5_EEDTcldtfp_7destroyfp0_EERT_PT0_i' type='func-type' binding='weak-binding' visibility='default-visibility' is-defined='yes'/>
    <elf-symbol name='_ZNSt16allocator_traitsISaISt13_Rb_tree_nodeISt4pairIKmP6StreamEEEE10deallocateERS7_PS6_m' type='func-type' binding='weak-binding' visibility='default-visibility' is-defined='yes'/>
    <elf-symbol name='_ZNSt16allocator_traitsISaISt13_Rb_tree_nodeISt4pairIKmP6StreamEEEE12_S_constructIS5_IRKS5_EEENSt9enable_ifIXsrSt6__and_IINS8_18__construct_helperIT_IDpT0_EE4typeEEE5valueEvE4typeERS7_PSF_DpOSG_' type='func-type' binding='weak-binding' visibility='default-visibility' is-defined='yes'/>
    <elf-symbol name='_ZNSt16allocator_traitsISaISt13_Rb_tree_nodeISt4pairIKmP6StreamEEEE12_S_constructIS5_IRKSt21piecewise_construct_tSt5tupleIIRS2_EESD_IIEEEEENSt9enable_ifIXsrSt6__and_IINS8_18__construct_helperIT_IDpT0_EE4typeEEE5valueEvE4typeERS7_PSK_DpOSL_' type='func-type' binding='weak-binding' visibility='default-visibility' is-defined='yes'/>
    <elf-symbol name='_ZNSt16allocator_traitsISaISt13_Rb_tree_nodeISt4pairIKmP6StreamEEEE12_S_constructIS5_JRKS5_EEENSt9enable_ifIXsrSt6__and_IJNS8_18__construct_helperIT_JDpT0_EE4typeEEE5valueEvE4typeERS7_PSF_DpOSG_' type='func-type' binding='weak-binding' visibility='default-visibility' alias='_ZNSt16allocator_traitsISaISt13_Rb_tree_nodeISt4pairIKmP6StreamEEEE12_S_constructIS5_IRKS5_EEENSt9enable_ifIXsrSt6__and_IINS8_18__construct_helperIT_IDpT0_EE4typeEEE5valueEvE4typeERS7_PSF_DpOSG_' is-defined='yes'/>
    <elf-symbol name='_ZNSt16allocator_traitsISaISt13_Rb_tree_nodeISt4pairIKmP6StreamEEEE12_S_constructIS5_JRKSt21piecewise_construct_tSt5tupleIJRS2_EESD_IJEEEEENSt9enable_ifIXsrSt6__and_IJNS8_18__construct_helperIT_JDpT0_EE4typeEEE5valueEvE4typeERS7_PSK_DpOSL_' type='func-type' binding='weak-binding' visibility='default-visibility' alias='_ZNSt16allocator_traitsISaISt13_Rb_tree_nodeISt4pairIKmP6StreamEEEE12_S_constructIS5_IRKSt21piecewise_construct_tSt5tupleIIRS2_EESD_IIEEEEENSt9enable_ifIXsrSt6__and_IINS8_18__construct_helperIT_IDpT0_EE4typeEEE5valueEvE4typeERS7_PSK_DpOSL_' is-defined='yes'/>
    <elf-symbol name='_ZNSt16allocator_traitsISaISt13_Rb_tree_nodeISt4pairIKmP6StreamEEEE37select_on_container_copy_constructionERKS7_' type='func-type' binding='weak-binding' visibility='default-visibility' is-defined='yes'/>
    <elf-symbol name='_ZNSt16allocator_traitsISaISt13_Rb_tree_nodeISt4pairIKmP6StreamEEEE7destroyIS5_EEvRS7_PT_' type='func-type' binding='weak-binding' visibility='default-visibility' is-defined='yes'/>
    <elf-symbol name='_ZNSt16allocator_traitsISaISt13_Rb_tree_nodeISt4pairIKmP6StreamEEEE8allocateERS7_m' type='func-type' binding='weak-binding' visibility='default-visibility' is-defined='yes'/>
    <elf-symbol name='_ZNSt16allocator_traitsISaISt13_Rb_tree_nodeISt4pairIKmP6StreamEEEE9_S_selectIKS7_EET_RSB_z' type='func-type' binding='weak-binding' visibility='default-visibility' is-defined='yes'/>
    <elf-symbol name='_ZNSt16allocator_traitsISaISt13_Rb_tree_nodeISt4pairIKmP6StreamEEEE9constructIS5_IRKS5_EEEDTcl12_S_constructfp_fp0_spcl7forwardIT0_Efp1_EEERS7_PT_DpOSC_' type='func-type' binding='weak-binding' visibility='default-visibility' is-defined='yes'/>
    <elf-symbol name='_ZNSt16allocator_traitsISaISt13_Rb_tree_nodeISt4pairIKmP6StreamEEEE9constructIS5_IRKSt21piecewise_construct_tSt5tupleIIRS2_EESD_IIEEEEEDTcl12_S_constructfp_fp0_spcl7forwardIT0_Efp1_EEERS7_PT_DpOSH_' type='func-type' binding='weak-binding' visibility='default-visibility' is-defined='yes'/>
    <elf-symbol name='_ZNSt16allocator_traitsISaISt13_Rb_tree_nodeISt4pairIKmP6StreamEEEE9constructIS5_JRKS5_EEEDTcl12_S_constructfp_fp0_spcl7forwardIT0_Efp1_EEERS7_PT_DpOSC_' type='func-type' binding='weak-binding' visibility='default-visibility' alias='_ZNSt16allocator_traitsISaISt13_Rb_tree_nodeISt4pairIKmP6StreamEEEE9constructIS5_IRKS5_EEEDTcl12_S_constructfp_fp0_spcl7forwardIT0_Efp1_EEERS7_PT_DpOSC_' is-defined='yes'/>
    <elf-symbol name='_ZNSt16allocator_traitsISaISt13_Rb_tree_nodeISt4pairIKmP6StreamEEEE9constructIS5_JRKSt21piecewise_construct_tSt5tupleIJRS2_EESD_IJEEEEEDTcl12_S_constructfp_fp0_spcl7forwardIT0_Efp1_EEERS7_PT_DpOSH_' type='func-type' binding='weak-binding' visibility='default-visibility' alias='_ZNSt16allocator_traitsISaISt13_Rb_tree_nodeISt4pairIKmP6StreamEEEE9constructIS5_IRKSt21piecewise_construct_tSt5tupleIIRS2_EESD_IIEEEEEDTcl12_S_constructfp_fp0_spcl7forwardIT0_Efp1_EEERS7_PT_DpOSH_' is-defined='yes'/>
    <elf-symbol name='_ZNSt17_Rb_tree_iteratorI7PtrDataEC1EPSt18_Rb_tree_node_base' type='func-type' binding='weak-binding' visibility='default-visibility' is-defined='yes'/>
    <elf-symbol name='_ZNSt17_Rb_tree_iteratorI7PtrDataEC2EPSt18_Rb_tree_node_base' type='func-type' binding='weak-binding' visibility='default-visibility' alias='_ZNSt17_Rb_tree_iteratorI7PtrDataEC1EPSt18_Rb_tree_node_base' is-defined='yes'/>
    <elf-symbol name='_ZNSt17_Rb_tree_iteratorI7PtrDataEmmEv' type='func-type' binding='weak-binding' visibility='default-visibility' is-defined='yes'/>
    <elf-symbol name='_ZNSt17_Rb_tree_iteratorI8AutoDataEC1EPSt18_Rb_tree_node_base' type='func-type' binding='weak-binding' visibility='default-visibility' is-defined='yes'/>
    <elf-symbol name='_ZNSt17_Rb_tree_iteratorI8AutoDataEC2EPSt18_Rb_tree_node_base' type='func-type' binding='weak-binding' visibility='default-visibility' alias='_ZNSt17_Rb_tree_iteratorI8AutoDataEC1EPSt18_Rb_tree_node_base' is-defined='yes'/>
    <elf-symbol name='_ZNSt17_Rb_tree_iteratorI8AutoDataEmmEv' type='func-type' binding='weak-binding' visibility='default-visibility' is-defined='yes'/>
    <elf-symbol name='_ZNSt17_Rb_tree_iteratorISt4pairIKPKvP17OffloadDescriptorEEC1EPSt18_Rb_tree_node_base' type='func-type' binding='weak-binding' visibility='default-visibility' is-defined='yes'/>
    <elf-symbol name='_ZNSt17_Rb_tree_iteratorISt4pairIKPKvP17OffloadDescriptorEEC2EPSt18_Rb_tree_node_base' type='func-type' binding='weak-binding' visibility='default-visibility' alias='_ZNSt17_Rb_tree_iteratorISt4pairIKPKvP17OffloadDescriptorEEC1EPSt18_Rb_tree_node_base' is-defined='yes'/>
    <elf-symbol name='_ZNSt17_Rb_tree_iteratorISt4pairIKPKvP17OffloadDescriptorEEmmEv' type='func-type' binding='weak-binding' visibility='default-visibility' is-defined='yes'/>
    <elf-symbol name='_ZNSt17_Rb_tree_iteratorISt4pairIKPKvP17OffloadDescriptorEEppEv' type='func-type' binding='weak-binding' visibility='default-visibility' is-defined='yes'/>
    <elf-symbol name='_ZNSt17_Rb_tree_iteratorISt4pairIKmP6StreamEEC1EPSt18_Rb_tree_node_base' type='func-type' binding='weak-binding' visibility='default-visibility' is-defined='yes'/>
    <elf-symbol name='_ZNSt17_Rb_tree_iteratorISt4pairIKmP6StreamEEC2EPSt18_Rb_tree_node_base' type='func-type' binding='weak-binding' visibility='default-visibility' alias='_ZNSt17_Rb_tree_iteratorISt4pairIKmP6StreamEEC1EPSt18_Rb_tree_node_base' is-defined='yes'/>
    <elf-symbol name='_ZNSt17_Rb_tree_iteratorISt4pairIKmP6StreamEEmmEv' type='func-type' binding='weak-binding' visibility='default-visibility' is-defined='yes'/>
    <elf-symbol name='_ZNSt17_Rb_tree_iteratorISt4pairIKmP6StreamEEppEi' type='func-type' binding='weak-binding' visibility='default-visibility' is-defined='yes'/>
    <elf-symbol name='_ZNSt17_Rb_tree_iteratorISt4pairIKmP6StreamEEppEv' type='func-type' binding='weak-binding' visibility='default-visibility' is-defined='yes'/>
    <elf-symbol name='_ZNSt18_Rb_tree_node_base10_S_maximumEPS_' type='func-type' binding='weak-binding' visibility='default-visibility' is-defined='yes'/>
    <elf-symbol name='_ZNSt18_Rb_tree_node_base10_S_minimumEPS_' type='func-type' binding='weak-binding' visibility='default-visibility' is-defined='yes'/>
    <elf-symbol name='_ZNSt18_Rb_tree_node_baseC1Ev' type='func-type' binding='weak-binding' visibility='default-visibility' alias='_ZNSt18_Rb_tree_node_baseC2Ev' is-defined='yes'/>
    <elf-symbol name='_ZNSt18_Rb_tree_node_baseC2Ev' type='func-type' binding='weak-binding' visibility='default-visibility' is-defined='yes'/>
    <elf-symbol name='_ZNSt20_List_const_iteratorI11PersistDataEC1ERKSt14_List_iteratorIS0_E' type='func-type' binding='weak-binding' visibility='default-visibility' is-defined='yes'/>
    <elf-symbol name='_ZNSt20_List_const_iteratorI11PersistDataEC2ERKSt14_List_iteratorIS0_E' type='func-type' binding='weak-binding' visibility='default-visibility' alias='_ZNSt20_List_const_iteratorI11PersistDataEC1ERKSt14_List_iteratorIS0_E' is-defined='yes'/>
    <elf-symbol name='_ZNSt20_List_const_iteratorI6DynLibEC1ERKSt14_List_iteratorIS0_E' type='func-type' binding='weak-binding' visibility='default-visibility' is-defined='yes'/>
    <elf-symbol name='_ZNSt20_List_const_iteratorI6DynLibEC2ERKSt14_List_iteratorIS0_E' type='func-type' binding='weak-binding' visibility='default-visibility' alias='_ZNSt20_List_const_iteratorI6DynLibEC1ERKSt14_List_iteratorIS0_E' is-defined='yes'/>
    <elf-symbol name='_ZNSt20_List_const_iteratorI8MyoTableEC1ERKSt14_List_iteratorIS0_E' type='func-type' binding='weak-binding' visibility='default-visibility' is-defined='yes'/>
    <elf-symbol name='_ZNSt20_List_const_iteratorI8MyoTableEC2ERKSt14_List_iteratorIS0_E' type='func-type' binding='weak-binding' visibility='default-visibility' alias='_ZNSt20_List_const_iteratorI8MyoTableEC1ERKSt14_List_iteratorIS0_E' is-defined='yes'/>
    <elf-symbol name='_ZNSt20_List_const_iteratorI8MyoTableEppEv' type='func-type' binding='weak-binding' visibility='default-visibility' is-defined='yes'/>
    <elf-symbol name='_ZNSt20_List_const_iteratorIP9coibufferEC1EPKNSt8__detail15_List_node_baseE' type='func-type' binding='weak-binding' visibility='default-visibility' is-defined='yes'/>
    <elf-symbol name='_ZNSt20_List_const_iteratorIP9coibufferEC1ERKSt14_List_iteratorIS1_E' type='func-type' binding='weak-binding' visibility='default-visibility' is-defined='yes'/>
    <elf-symbol name='_ZNSt20_List_const_iteratorIP9coibufferEC2EPKNSt8__detail15_List_node_baseE' type='func-type' binding='weak-binding' visibility='default-visibility' alias='_ZNSt20_List_const_iteratorIP9coibufferEC1EPKNSt8__detail15_List_node_baseE' is-defined='yes'/>
    <elf-symbol name='_ZNSt20_List_const_iteratorIP9coibufferEC2ERKSt14_List_iteratorIS1_E' type='func-type' binding='weak-binding' visibility='default-visibility' alias='_ZNSt20_List_const_iteratorIP9coibufferEC1ERKSt14_List_iteratorIS1_E' is-defined='yes'/>
    <elf-symbol name='_ZNSt20_List_const_iteratorIP9coibufferEppEi' type='func-type' binding='weak-binding' visibility='default-visibility' is-defined='yes'/>
    <elf-symbol name='_ZNSt20__copy_move_backwardILb1ELb1ESt26random_access_iterator_tagE13__copy_move_bIN7VarList8BufEntryEEEPT_PKS5_S8_S6_' type='func-type' binding='weak-binding' visibility='default-visibility' is-defined='yes'/>
    <elf-symbol name='_ZNSt20__copy_move_backwardILb1ELb1ESt26random_access_iterator_tagE13__copy_move_bIPKN8VarTable5EntryEEEPT_PKS7_SA_S8_' type='func-type' binding='weak-binding' visibility='default-visibility' is-defined='yes'/>
    <elf-symbol name='_ZNSt20__uninitialized_copyILb1EE13__uninit_copyISt13move_iteratorIPPKN8VarTable5EntryEES7_EET0_T_SA_S9_' type='func-type' binding='weak-binding' visibility='default-visibility' is-defined='yes'/>
    <elf-symbol name='_ZNSt23_Rb_tree_const_iteratorI7PtrDataEC1EPKSt18_Rb_tree_node_base' type='func-type' binding='weak-binding' visibility='default-visibility' is-defined='yes'/>
    <elf-symbol name='_ZNSt23_Rb_tree_const_iteratorI7PtrDataEC1ERKSt17_Rb_tree_iteratorIS0_E' type='func-type' binding='weak-binding' visibility='default-visibility' is-defined='yes'/>
    <elf-symbol name='_ZNSt23_Rb_tree_const_iteratorI7PtrDataEC2EPKSt18_Rb_tree_node_base' type='func-type' binding='weak-binding' visibility='default-visibility' alias='_ZNSt23_Rb_tree_const_iteratorI7PtrDataEC1EPKSt18_Rb_tree_node_base' is-defined='yes'/>
    <elf-symbol name='_ZNSt23_Rb_tree_const_iteratorI7PtrDataEC2ERKSt17_Rb_tree_iteratorIS0_E' type='func-type' binding='weak-binding' visibility='default-visibility' alias='_ZNSt23_Rb_tree_const_iteratorI7PtrDataEC1ERKSt17_Rb_tree_iteratorIS0_E' is-defined='yes'/>
    <elf-symbol name='_ZNSt23_Rb_tree_const_iteratorI7PtrDataEppEi' type='func-type' binding='weak-binding' visibility='default-visibility' is-defined='yes'/>
    <elf-symbol name='_ZNSt23_Rb_tree_const_iteratorI7PtrDataEppEv' type='func-type' binding='weak-binding' visibility='default-visibility' is-defined='yes'/>
    <elf-symbol name='_ZNSt23_Rb_tree_const_iteratorI8AutoDataEC1EPKSt18_Rb_tree_node_base' type='func-type' binding='weak-binding' visibility='default-visibility' is-defined='yes'/>
    <elf-symbol name='_ZNSt23_Rb_tree_const_iteratorI8AutoDataEC1ERKSt17_Rb_tree_iteratorIS0_E' type='func-type' binding='weak-binding' visibility='default-visibility' is-defined='yes'/>
    <elf-symbol name='_ZNSt23_Rb_tree_const_iteratorI8AutoDataEC2EPKSt18_Rb_tree_node_base' type='func-type' binding='weak-binding' visibility='default-visibility' alias='_ZNSt23_Rb_tree_const_iteratorI8AutoDataEC1EPKSt18_Rb_tree_node_base' is-defined='yes'/>
    <elf-symbol name='_ZNSt23_Rb_tree_const_iteratorI8AutoDataEC2ERKSt17_Rb_tree_iteratorIS0_E' type='func-type' binding='weak-binding' visibility='default-visibility' alias='_ZNSt23_Rb_tree_const_iteratorI8AutoDataEC1ERKSt17_Rb_tree_iteratorIS0_E' is-defined='yes'/>
    <elf-symbol name='_ZNSt23_Rb_tree_const_iteratorI8AutoDataEppEi' type='func-type' binding='weak-binding' visibility='default-visibility' is-defined='yes'/>
    <elf-symbol name='_ZNSt23_Rb_tree_const_iteratorI8AutoDataEppEv' type='func-type' binding='weak-binding' visibility='default-visibility' is-defined='yes'/>
    <elf-symbol name='_ZNSt23_Rb_tree_const_iteratorISt4pairIKPKvP17OffloadDescriptorEEC1ERKSt17_Rb_tree_iteratorIS6_E' type='func-type' binding='weak-binding' visibility='default-visibility' is-defined='yes'/>
    <elf-symbol name='_ZNSt23_Rb_tree_const_iteratorISt4pairIKPKvP17OffloadDescriptorEEC2ERKSt17_Rb_tree_iteratorIS6_E' type='func-type' binding='weak-binding' visibility='default-visibility' alias='_ZNSt23_Rb_tree_const_iteratorISt4pairIKPKvP17OffloadDescriptorEEC1ERKSt17_Rb_tree_iteratorIS6_E' is-defined='yes'/>
    <elf-symbol name='_ZNSt23_Rb_tree_const_iteratorISt4pairIKmP6StreamEEC1ERKSt17_Rb_tree_iteratorIS4_E' type='func-type' binding='weak-binding' visibility='default-visibility' is-defined='yes'/>
    <elf-symbol name='_ZNSt23_Rb_tree_const_iteratorISt4pairIKmP6StreamEEC2ERKSt17_Rb_tree_iteratorIS4_E' type='func-type' binding='weak-binding' visibility='default-visibility' alias='_ZNSt23_Rb_tree_const_iteratorISt4pairIKmP6StreamEEC1ERKSt17_Rb_tree_iteratorIS4_E' is-defined='yes'/>
    <elf-symbol name='_ZNSt3mapIPKvP17OffloadDescriptorSt4lessIS1_ESaISt4pairIKS1_S3_EEE11lower_boundERS7_' type='func-type' binding='weak-binding' visibility='default-visibility' is-defined='yes'/>
    <elf-symbol name='_ZNSt3mapIPKvP17OffloadDescriptorSt4lessIS1_ESaISt4pairIKS1_S3_EEE3endEv' type='func-type' binding='weak-binding' visibility='default-visibility' is-defined='yes'/>
    <elf-symbol name='_ZNSt3mapIPKvP17OffloadDescriptorSt4lessIS1_ESaISt4pairIKS1_S3_EEE4findERS7_' type='func-type' binding='weak-binding' visibility='default-visibility' is-defined='yes'/>
    <elf-symbol name='_ZNSt3mapIPKvP17OffloadDescriptorSt4lessIS1_ESaISt4pairIKS1_S3_EEEC1Ev' type='func-type' binding='weak-binding' visibility='default-visibility' is-defined='yes'/>
    <elf-symbol name='_ZNSt3mapIPKvP17OffloadDescriptorSt4lessIS1_ESaISt4pairIKS1_S3_EEEC2Ev' type='func-type' binding='weak-binding' visibility='default-visibility' alias='_ZNSt3mapIPKvP17OffloadDescriptorSt4lessIS1_ESaISt4pairIKS1_S3_EEEC1Ev' is-defined='yes'/>
    <elf-symbol name='_ZNSt3mapIPKvP17OffloadDescriptorSt4lessIS1_ESaISt4pairIKS1_S3_EEED1Ev' type='func-type' binding='weak-binding' visibility='default-visibility' is-defined='yes'/>
    <elf-symbol name='_ZNSt3mapIPKvP17OffloadDescriptorSt4lessIS1_ESaISt4pairIKS1_S3_EEED2Ev' type='func-type' binding='weak-binding' visibility='default-visibility' alias='_ZNSt3mapIPKvP17OffloadDescriptorSt4lessIS1_ESaISt4pairIKS1_S3_EEED1Ev' is-defined='yes'/>
    <elf-symbol name='_ZNSt3mapIPKvP17OffloadDescriptorSt4lessIS1_ESaISt4pairIKS1_S3_EEEixERS7_' type='func-type' binding='weak-binding' visibility='default-visibility' is-defined='yes'/>
    <elf-symbol name='_ZNSt3mapImP6StreamSt4lessImESaISt4pairIKmS1_EEE11lower_boundERS5_' type='func-type' binding='weak-binding' visibility='default-visibility' is-defined='yes'/>
    <elf-symbol name='_ZNSt3mapImP6StreamSt4lessImESaISt4pairIKmS1_EEE3endEv' type='func-type' binding='weak-binding' visibility='default-visibility' is-defined='yes'/>
    <elf-symbol name='_ZNSt3mapImP6StreamSt4lessImESaISt4pairIKmS1_EEE4findERS5_' type='func-type' binding='weak-binding' visibility='default-visibility' is-defined='yes'/>
    <elf-symbol name='_ZNSt3mapImP6StreamSt4lessImESaISt4pairIKmS1_EEE5beginEv' type='func-type' binding='weak-binding' visibility='default-visibility' is-defined='yes'/>
    <elf-symbol name='_ZNSt3mapImP6StreamSt4lessImESaISt4pairIKmS1_EEE5eraseB5cxx11ESt17_Rb_tree_iteratorIS6_E' type='func-type' binding='weak-binding' visibility='default-visibility' is-defined='yes'/>
    <elf-symbol name='_ZNSt3mapImP6StreamSt4lessImESaISt4pairIKmS1_EEEC1ERKS8_' type='func-type' binding='weak-binding' visibility='default-visibility' is-defined='yes'/>
    <elf-symbol name='_ZNSt3mapImP6StreamSt4lessImESaISt4pairIKmS1_EEEC1Ev' type='func-type' binding='weak-binding' visibility='default-visibility' is-defined='yes'/>
    <elf-symbol name='_ZNSt3mapImP6StreamSt4lessImESaISt4pairIKmS1_EEEC2ERKS8_' type='func-type' binding='weak-binding' visibility='default-visibility' alias='_ZNSt3mapImP6StreamSt4lessImESaISt4pairIKmS1_EEEC1ERKS8_' is-defined='yes'/>
    <elf-symbol name='_ZNSt3mapImP6StreamSt4lessImESaISt4pairIKmS1_EEEC2Ev' type='func-type' binding='weak-binding' visibility='default-visibility' alias='_ZNSt3mapImP6StreamSt4lessImESaISt4pairIKmS1_EEEC1Ev' is-defined='yes'/>
    <elf-symbol name='_ZNSt3mapImP6StreamSt4lessImESaISt4pairIKmS1_EEED1Ev' type='func-type' binding='weak-binding' visibility='default-visibility' is-defined='yes'/>
    <elf-symbol name='_ZNSt3mapImP6StreamSt4lessImESaISt4pairIKmS1_EEED2Ev' type='func-type' binding='weak-binding' visibility='default-visibility' alias='_ZNSt3mapImP6StreamSt4lessImESaISt4pairIKmS1_EEED1Ev' is-defined='yes'/>
    <elf-symbol name='_ZNSt3mapImP6StreamSt4lessImESaISt4pairIKmS1_EEEixERS5_' type='func-type' binding='weak-binding' visibility='default-visibility' is-defined='yes'/>
    <elf-symbol name='_ZNSt3setI7PtrDataSt4lessIS0_ESaIS0_EE4findERKS0_' type='func-type' binding='weak-binding' visibility='default-visibility' is-defined='yes'/>
    <elf-symbol name='_ZNSt3setI7PtrDataSt4lessIS0_ESaIS0_EE5eraseERKS0_' type='func-type' binding='weak-binding' visibility='default-visibility' is-defined='yes'/>
    <elf-symbol name='_ZNSt3setI7PtrDataSt4lessIS0_ESaIS0_EE6insertEOS0_' type='func-type' binding='weak-binding' visibility='default-visibility' is-defined='yes'/>
    <elf-symbol name='_ZNSt3setI7PtrDataSt4lessIS0_ESaIS0_EEC1Ev' type='func-type' binding='weak-binding' visibility='default-visibility' is-defined='yes'/>
    <elf-symbol name='_ZNSt3setI7PtrDataSt4lessIS0_ESaIS0_EEC2Ev' type='func-type' binding='weak-binding' visibility='default-visibility' alias='_ZNSt3setI7PtrDataSt4lessIS0_ESaIS0_EEC1Ev' is-defined='yes'/>
    <elf-symbol name='_ZNSt3setI7PtrDataSt4lessIS0_ESaIS0_EED1Ev' type='func-type' binding='weak-binding' visibility='default-visibility' is-defined='yes'/>
    <elf-symbol name='_ZNSt3setI7PtrDataSt4lessIS0_ESaIS0_EED2Ev' type='func-type' binding='weak-binding' visibility='default-visibility' alias='_ZNSt3setI7PtrDataSt4lessIS0_ESaIS0_EED1Ev' is-defined='yes'/>
    <elf-symbol name='_ZNSt3setI8AutoDataSt4lessIS0_ESaIS0_EE4findERKS0_' type='func-type' binding='weak-binding' visibility='default-visibility' is-defined='yes'/>
    <elf-symbol name='_ZNSt3setI8AutoDataSt4lessIS0_ESaIS0_EE5eraseERKS0_' type='func-type' binding='weak-binding' visibility='default-visibility' is-defined='yes'/>
    <elf-symbol name='_ZNSt3setI8AutoDataSt4lessIS0_ESaIS0_EE6insertEOS0_' type='func-type' binding='weak-binding' visibility='default-visibility' is-defined='yes'/>
    <elf-symbol name='_ZNSt3setI8AutoDataSt4lessIS0_ESaIS0_EEC1Ev' type='func-type' binding='weak-binding' visibility='default-visibility' is-defined='yes'/>
    <elf-symbol name='_ZNSt3setI8AutoDataSt4lessIS0_ESaIS0_EEC2Ev' type='func-type' binding='weak-binding' visibility='default-visibility' alias='_ZNSt3setI8AutoDataSt4lessIS0_ESaIS0_EEC1Ev' is-defined='yes'/>
    <elf-symbol name='_ZNSt3setI8AutoDataSt4lessIS0_ESaIS0_EED1Ev' type='func-type' binding='weak-binding' visibility='default-visibility' alias='_ZNSt3setI8AutoDataSt4lessIS0_ESaIS0_EED2Ev' is-defined='yes'/>
    <elf-symbol name='_ZNSt3setI8AutoDataSt4lessIS0_ESaIS0_EED2Ev' type='func-type' binding='weak-binding' visibility='default-visibility' is-defined='yes'/>
    <elf-symbol name='_ZNSt4pairIKPKvP17OffloadDescriptorEC1IIRS2_EIEEESt21piecewise_construct_tSt5tupleIIDpT_EES9_IIDpT0_EE' type='func-type' binding='weak-binding' visibility='default-visibility' is-defined='yes'/>
    <elf-symbol name='_ZNSt4pairIKPKvP17OffloadDescriptorEC1IIRS2_EILm0EEIEIEEERSt5tupleIIDpT_EERS8_IIDpT1_EESt12_Index_tupleIIXspT0_EEESH_IIXspT2_EEE' type='func-type' binding='weak-binding' visibility='default-visibility' is-defined='yes'/>
    <elf-symbol name='_ZNSt4pairIKPKvP17OffloadDescriptorEC1IJRS2_EJEEESt21piecewise_construct_tSt5tupleIJDpT_EES9_IJDpT0_EE' type='func-type' binding='weak-binding' visibility='default-visibility' is-defined='yes'/>
    <elf-symbol name='_ZNSt4pairIKPKvP17OffloadDescriptorEC1IJRS2_EJLm0EEJEJEEERSt5tupleIJDpT_EERS8_IJDpT1_EESt12_Index_tupleIJXspT0_EEESH_IJXspT2_EEE' type='func-type' binding='weak-binding' visibility='default-visibility' is-defined='yes'/>
    <elf-symbol name='_ZNSt4pairIKPKvP17OffloadDescriptorEC2IIRS2_EIEEESt21piecewise_construct_tSt5tupleIIDpT_EES9_IIDpT0_EE' type='func-type' binding='weak-binding' visibility='default-visibility' is-defined='yes'/>
    <elf-symbol name='_ZNSt4pairIKPKvP17OffloadDescriptorEC2IIRS2_EILm0EEIEIEEERSt5tupleIIDpT_EERS8_IIDpT1_EESt12_Index_tupleIIXspT0_EEESH_IIXspT2_EEE' type='func-type' binding='weak-binding' visibility='default-visibility' is-defined='yes'/>
    <elf-symbol name='_ZNSt4pairIKPKvP17OffloadDescriptorEC2IJRS2_EJEEESt21piecewise_construct_tSt5tupleIJDpT_EES9_IJDpT0_EE' type='func-type' binding='weak-binding' visibility='default-visibility' alias='_ZNSt4pairIKPKvP17OffloadDescriptorEC1IJRS2_EJEEESt21piecewise_construct_tSt5tupleIJDpT_EES9_IJDpT0_EE,_ZNSt4pairIKPKvP17OffloadDescriptorEC1IIRS2_EIEEESt21piecewise_construct_tSt5tupleIIDpT_EES9_IIDpT0_EE,_ZNSt4pairIKPKvP17OffloadDescriptorEC2IIRS2_EIEEESt21piecewise_construct_tSt5tupleIIDpT_EES9_IIDpT0_EE' is-defined='yes'/>
    <elf-symbol name='_ZNSt4pairIKPKvP17OffloadDescriptorEC2IJRS2_EJLm0EEJEJEEERSt5tupleIJDpT_EERS8_IJDpT1_EESt12_Index_tupleIJXspT0_EEESH_IJXspT2_EEE' type='func-type' binding='weak-binding' visibility='default-visibility' alias='_ZNSt4pairIKPKvP17OffloadDescriptorEC2IIRS2_EILm0EEIEIEEERSt5tupleIIDpT_EERS8_IIDpT1_EESt12_Index_tupleIIXspT0_EEESH_IIXspT2_EEE,_ZNSt4pairIKPKvP17OffloadDescriptorEC1IJRS2_EJLm0EEJEJEEERSt5tupleIJDpT_EERS8_IJDpT1_EESt12_Index_tupleIJXspT0_EEESH_IJXspT2_EEE,_ZNSt4pairIKPKvP17OffloadDescriptorEC1IIRS2_EILm0EEIEIEEERSt5tupleIIDpT_EERS8_IIDpT1_EESt12_Index_tupleIIXspT0_EEESH_IIXspT2_EEE' is-defined='yes'/>
    <elf-symbol name='_ZNSt4pairIKmP6StreamEC1IIRS0_EIEEESt21piecewise_construct_tSt5tupleIIDpT_EES7_IIDpT0_EE' type='func-type' binding='weak-binding' visibility='default-visibility' is-defined='yes'/>
    <elf-symbol name='_ZNSt4pairIKmP6StreamEC1IIRS0_EILm0EEIEIEEERSt5tupleIIDpT_EERS6_IIDpT1_EESt12_Index_tupleIIXspT0_EEESF_IIXspT2_EEE' type='func-type' binding='weak-binding' visibility='default-visibility' is-defined='yes'/>
    <elf-symbol name='_ZNSt4pairIKmP6StreamEC1IJRS0_EJEEESt21piecewise_construct_tSt5tupleIJDpT_EES7_IJDpT0_EE' type='func-type' binding='weak-binding' visibility='default-visibility' is-defined='yes'/>
    <elf-symbol name='_ZNSt4pairIKmP6StreamEC1IJRS0_EJLm0EEJEJEEERSt5tupleIJDpT_EERS6_IJDpT1_EESt12_Index_tupleIJXspT0_EEESF_IJXspT2_EEE' type='func-type' binding='weak-binding' visibility='default-visibility' is-defined='yes'/>
    <elf-symbol name='_ZNSt4pairIKmP6StreamEC2IIRS0_EIEEESt21piecewise_construct_tSt5tupleIIDpT_EES7_IIDpT0_EE' type='func-type' binding='weak-binding' visibility='default-visibility' is-defined='yes'/>
    <elf-symbol name='_ZNSt4pairIKmP6StreamEC2IIRS0_EILm0EEIEIEEERSt5tupleIIDpT_EERS6_IIDpT1_EESt12_Index_tupleIIXspT0_EEESF_IIXspT2_EEE' type='func-type' binding='weak-binding' visibility='default-visibility' is-defined='yes'/>
    <elf-symbol name='_ZNSt4pairIKmP6StreamEC2IJRS0_EJEEESt21piecewise_construct_tSt5tupleIJDpT_EES7_IJDpT0_EE' type='func-type' binding='weak-binding' visibility='default-visibility' alias='_ZNSt4pairIKmP6StreamEC2IIRS0_EIEEESt21piecewise_construct_tSt5tupleIIDpT_EES7_IIDpT0_EE,_ZNSt4pairIKmP6StreamEC1IIRS0_EIEEESt21piecewise_construct_tSt5tupleIIDpT_EES7_IIDpT0_EE,_ZNSt4pairIKmP6StreamEC1IJRS0_EJEEESt21piecewise_construct_tSt5tupleIJDpT_EES7_IJDpT0_EE' is-defined='yes'/>
    <elf-symbol name='_ZNSt4pairIKmP6StreamEC2IJRS0_EJLm0EEJEJEEERSt5tupleIJDpT_EERS6_IJDpT1_EESt12_Index_tupleIJXspT0_EEESF_IJXspT2_EEE' type='func-type' binding='weak-binding' visibility='default-visibility' alias='_ZNSt4pairIKmP6StreamEC2IIRS0_EILm0EEIEIEEERSt5tupleIIDpT_EERS6_IIDpT1_EESt12_Index_tupleIIXspT0_EEESF_IIXspT2_EEE,_ZNSt4pairIKmP6StreamEC1IIRS0_EILm0EEIEIEEERSt5tupleIIDpT_EERS6_IIDpT1_EESt12_Index_tupleIIXspT0_EEESF_IIXspT2_EEE,_ZNSt4pairIKmP6StreamEC1IJRS0_EJLm0EEJEJEEERSt5tupleIJDpT_EERS6_IJDpT1_EESt12_Index_tupleIJXspT0_EEESF_IJXspT2_EEE' is-defined='yes'/>
    <elf-symbol name='_ZNSt4pairIPSt18_Rb_tree_node_baseS1_EC1IRPSt13_Rb_tree_nodeI7PtrDataERS1_Lb1EEEOT_OT0_' type='func-type' binding='weak-binding' visibility='default-visibility' is-defined='yes'/>
    <elf-symbol name='_ZNSt4pairIPSt18_Rb_tree_node_baseS1_EC1IRPSt13_Rb_tree_nodeI8AutoDataERS1_Lb1EEEOT_OT0_' type='func-type' binding='weak-binding' visibility='default-visibility' is-defined='yes'/>
    <elf-symbol name='_ZNSt4pairIPSt18_Rb_tree_node_baseS1_EC1IRPSt13_Rb_tree_nodeIS_IKPKvP17OffloadDescriptorEERS1_Lb1EEEOT_OT0_' type='func-type' binding='weak-binding' visibility='default-visibility' is-defined='yes'/>
    <elf-symbol name='_ZNSt4pairIPSt18_Rb_tree_node_baseS1_EC1IRPSt13_Rb_tree_nodeIS_IKmP6StreamEERS1_Lb1EEEOT_OT0_' type='func-type' binding='weak-binding' visibility='default-visibility' is-defined='yes'/>
    <elf-symbol name='_ZNSt4pairIPSt18_Rb_tree_node_baseS1_EC1IRS1_Lb1EEEOT_RKS1_' type='func-type' binding='weak-binding' visibility='default-visibility' is-defined='yes'/>
    <elf-symbol name='_ZNSt4pairIPSt18_Rb_tree_node_baseS1_EC1IRS1_Lb1EEERKS1_OT_' type='func-type' binding='weak-binding' visibility='default-visibility' is-defined='yes'/>
    <elf-symbol name='_ZNSt4pairIPSt18_Rb_tree_node_baseS1_EC1IRS1_S4_Lb1EEEOT_OT0_' type='func-type' binding='weak-binding' visibility='default-visibility' is-defined='yes'/>
    <elf-symbol name='_ZNSt4pairIPSt18_Rb_tree_node_baseS1_EC2IRPSt13_Rb_tree_nodeI7PtrDataERS1_Lb1EEEOT_OT0_' type='func-type' binding='weak-binding' visibility='default-visibility' alias='_ZNSt4pairIPSt18_Rb_tree_node_baseS1_EC1IRPSt13_Rb_tree_nodeI7PtrDataERS1_Lb1EEEOT_OT0_' is-defined='yes'/>
    <elf-symbol name='_ZNSt4pairIPSt18_Rb_tree_node_baseS1_EC2IRPSt13_Rb_tree_nodeI8AutoDataERS1_Lb1EEEOT_OT0_' type='func-type' binding='weak-binding' visibility='default-visibility' alias='_ZNSt4pairIPSt18_Rb_tree_node_baseS1_EC1IRPSt13_Rb_tree_nodeI8AutoDataERS1_Lb1EEEOT_OT0_' is-defined='yes'/>
    <elf-symbol name='_ZNSt4pairIPSt18_Rb_tree_node_baseS1_EC2IRPSt13_Rb_tree_nodeIS_IKPKvP17OffloadDescriptorEERS1_Lb1EEEOT_OT0_' type='func-type' binding='weak-binding' visibility='default-visibility' alias='_ZNSt4pairIPSt18_Rb_tree_node_baseS1_EC1IRPSt13_Rb_tree_nodeIS_IKPKvP17OffloadDescriptorEERS1_Lb1EEEOT_OT0_' is-defined='yes'/>
    <elf-symbol name='_ZNSt4pairIPSt18_Rb_tree_node_baseS1_EC2IRPSt13_Rb_tree_nodeIS_IKmP6StreamEERS1_Lb1EEEOT_OT0_' type='func-type' binding='weak-binding' visibility='default-visibility' alias='_ZNSt4pairIPSt18_Rb_tree_node_baseS1_EC1IRPSt13_Rb_tree_nodeIS_IKmP6StreamEERS1_Lb1EEEOT_OT0_' is-defined='yes'/>
    <elf-symbol name='_ZNSt4pairIPSt18_Rb_tree_node_baseS1_EC2IRS1_Lb1EEEOT_RKS1_' type='func-type' binding='weak-binding' visibility='default-visibility' alias='_ZNSt4pairIPSt18_Rb_tree_node_baseS1_EC1IRS1_Lb1EEEOT_RKS1_' is-defined='yes'/>
    <elf-symbol name='_ZNSt4pairIPSt18_Rb_tree_node_baseS1_EC2IRS1_Lb1EEERKS1_OT_' type='func-type' binding='weak-binding' visibility='default-visibility' alias='_ZNSt4pairIPSt18_Rb_tree_node_baseS1_EC1IRS1_Lb1EEERKS1_OT_' is-defined='yes'/>
    <elf-symbol name='_ZNSt4pairIPSt18_Rb_tree_node_baseS1_EC2IRS1_S4_Lb1EEEOT_OT0_' type='func-type' binding='weak-binding' visibility='default-visibility' alias='_ZNSt4pairIPSt18_Rb_tree_node_baseS1_EC1IRS1_S4_Lb1EEEOT_OT0_' is-defined='yes'/>
    <elf-symbol name='_ZNSt4pairISt17_Rb_tree_iteratorI7PtrDataES2_EC1IS2_S2_Lb1EEEOT_OT0_' type='func-type' binding='weak-binding' visibility='default-visibility' is-defined='yes'/>
    <elf-symbol name='_ZNSt4pairISt17_Rb_tree_iteratorI7PtrDataES2_EC2IS2_S2_Lb1EEEOT_OT0_' type='func-type' binding='weak-binding' visibility='default-visibility' alias='_ZNSt4pairISt17_Rb_tree_iteratorI7PtrDataES2_EC1IS2_S2_Lb1EEEOT_OT0_' is-defined='yes'/>
    <elf-symbol name='_ZNSt4pairISt17_Rb_tree_iteratorI7PtrDataEbEC1IS2_bLb1EEEOT_OT0_' type='func-type' binding='weak-binding' visibility='default-visibility' is-defined='yes'/>
    <elf-symbol name='_ZNSt4pairISt17_Rb_tree_iteratorI7PtrDataEbEC2IS2_bLb1EEEOT_OT0_' type='func-type' binding='weak-binding' visibility='default-visibility' alias='_ZNSt4pairISt17_Rb_tree_iteratorI7PtrDataEbEC1IS2_bLb1EEEOT_OT0_' is-defined='yes'/>
    <elf-symbol name='_ZNSt4pairISt17_Rb_tree_iteratorI8AutoDataES2_EC1IS2_S2_Lb1EEEOT_OT0_' type='func-type' binding='weak-binding' visibility='default-visibility' is-defined='yes'/>
    <elf-symbol name='_ZNSt4pairISt17_Rb_tree_iteratorI8AutoDataES2_EC2IS2_S2_Lb1EEEOT_OT0_' type='func-type' binding='weak-binding' visibility='default-visibility' alias='_ZNSt4pairISt17_Rb_tree_iteratorI8AutoDataES2_EC1IS2_S2_Lb1EEEOT_OT0_' is-defined='yes'/>
    <elf-symbol name='_ZNSt4pairISt17_Rb_tree_iteratorI8AutoDataEbEC1IS2_bLb1EEEOT_OT0_' type='func-type' binding='weak-binding' visibility='default-visibility' is-defined='yes'/>
    <elf-symbol name='_ZNSt4pairISt17_Rb_tree_iteratorI8AutoDataEbEC2IS2_bLb1EEEOT_OT0_' type='func-type' binding='weak-binding' visibility='default-visibility' alias='_ZNSt4pairISt17_Rb_tree_iteratorI8AutoDataEbEC1IS2_bLb1EEEOT_OT0_' is-defined='yes'/>
    <elf-symbol name='_ZNSt4pairISt23_Rb_tree_const_iteratorI7PtrDataEbEC1IRSt17_Rb_tree_iteratorIS1_ERbLb1EEEOT_OT0_' type='func-type' binding='weak-binding' visibility='default-visibility' is-defined='yes'/>
    <elf-symbol name='_ZNSt4pairISt23_Rb_tree_const_iteratorI7PtrDataEbEC2IRSt17_Rb_tree_iteratorIS1_ERbLb1EEEOT_OT0_' type='func-type' binding='weak-binding' visibility='default-visibility' alias='_ZNSt4pairISt23_Rb_tree_const_iteratorI7PtrDataEbEC1IRSt17_Rb_tree_iteratorIS1_ERbLb1EEEOT_OT0_' is-defined='yes'/>
    <elf-symbol name='_ZNSt4pairISt23_Rb_tree_const_iteratorI8AutoDataEbEC1IRSt17_Rb_tree_iteratorIS1_ERbLb1EEEOT_OT0_' type='func-type' binding='weak-binding' visibility='default-visibility' is-defined='yes'/>
    <elf-symbol name='_ZNSt4pairISt23_Rb_tree_const_iteratorI8AutoDataEbEC2IRSt17_Rb_tree_iteratorIS1_ERbLb1EEEOT_OT0_' type='func-type' binding='weak-binding' visibility='default-visibility' alias='_ZNSt4pairISt23_Rb_tree_const_iteratorI8AutoDataEbEC1IRSt17_Rb_tree_iteratorIS1_ERbLb1EEEOT_OT0_' is-defined='yes'/>
    <elf-symbol name='_ZNSt5tupleIIRKPKvEEC1EOS4_' type='func-type' binding='weak-binding' visibility='default-visibility' is-defined='yes'/>
    <elf-symbol name='_ZNSt5tupleIIRKPKvEEC1IvLb1EEES3_' type='func-type' binding='weak-binding' visibility='default-visibility' is-defined='yes'/>
    <elf-symbol name='_ZNSt5tupleIIRKPKvEEC2EOS4_' type='func-type' binding='weak-binding' visibility='default-visibility' is-defined='yes'/>
    <elf-symbol name='_ZNSt5tupleIIRKPKvEEC2IvLb1EEES3_' type='func-type' binding='weak-binding' visibility='default-visibility' is-defined='yes'/>
    <elf-symbol name='_ZNSt5tupleIIRKmEEC1EOS2_' type='func-type' binding='weak-binding' visibility='default-visibility' is-defined='yes'/>
    <elf-symbol name='_ZNSt5tupleIIRKmEEC1IvLb1EEES1_' type='func-type' binding='weak-binding' visibility='default-visibility' is-defined='yes'/>
    <elf-symbol name='_ZNSt5tupleIIRKmEEC2EOS2_' type='func-type' binding='weak-binding' visibility='default-visibility' is-defined='yes'/>
    <elf-symbol name='_ZNSt5tupleIIRKmEEC2IvLb1EEES1_' type='func-type' binding='weak-binding' visibility='default-visibility' is-defined='yes'/>
    <elf-symbol name='_ZNSt5tupleIJRKPKvEEC1EOS4_' type='func-type' binding='weak-binding' visibility='default-visibility' is-defined='yes'/>
    <elf-symbol name='_ZNSt5tupleIJRKPKvEEC1IvLb1EEES3_' type='func-type' binding='weak-binding' visibility='default-visibility' is-defined='yes'/>
    <elf-symbol name='_ZNSt5tupleIJRKPKvEEC2EOS4_' type='func-type' binding='weak-binding' visibility='default-visibility' alias='_ZNSt5tupleIIRKPKvEEC1EOS4_,_ZNSt5tupleIIRKPKvEEC2EOS4_,_ZNSt5tupleIJRKPKvEEC1EOS4_' is-defined='yes'/>
    <elf-symbol name='_ZNSt5tupleIJRKPKvEEC2IvLb1EEES3_' type='func-type' binding='weak-binding' visibility='default-visibility' alias='_ZNSt5tupleIJRKPKvEEC1IvLb1EEES3_,_ZNSt5tupleIIRKPKvEEC1IvLb1EEES3_,_ZNSt5tupleIIRKPKvEEC2IvLb1EEES3_' is-defined='yes'/>
    <elf-symbol name='_ZNSt5tupleIJRKmEEC1EOS2_' type='func-type' binding='weak-binding' visibility='default-visibility' is-defined='yes'/>
    <elf-symbol name='_ZNSt5tupleIJRKmEEC1IvLb1EEES1_' type='func-type' binding='weak-binding' visibility='default-visibility' is-defined='yes'/>
    <elf-symbol name='_ZNSt5tupleIJRKmEEC2EOS2_' type='func-type' binding='weak-binding' visibility='default-visibility' alias='_ZNSt5tupleIIRKmEEC1EOS2_,_ZNSt5tupleIJRKmEEC1EOS2_,_ZNSt5tupleIIRKmEEC2EOS2_' is-defined='yes'/>
    <elf-symbol name='_ZNSt5tupleIJRKmEEC2IvLb1EEES1_' type='func-type' binding='weak-binding' visibility='default-visibility' alias='_ZNSt5tupleIIRKmEEC2IvLb1EEES1_,_ZNSt5tupleIIRKmEEC1IvLb1EEES1_,_ZNSt5tupleIJRKmEEC1IvLb1EEES1_' is-defined='yes'/>
    <elf-symbol name='_ZNSt6bitsetILm1024EE14_Unchecked_setEmi' type='func-type' binding='weak-binding' visibility='default-visibility' is-defined='yes'/>
    <elf-symbol name='_ZNSt6bitsetILm1024EE3setEmb' type='func-type' binding='weak-binding' visibility='default-visibility' is-defined='yes'/>
    <elf-symbol name='_ZNSt6bitsetILm1024EE5resetEv' type='func-type' binding='weak-binding' visibility='default-visibility' is-defined='yes'/>
    <elf-symbol name='_ZNSt6bitsetILm1024EE9referenceC1ERS0_m' type='func-type' binding='weak-binding' visibility='default-visibility' is-defined='yes'/>
    <elf-symbol name='_ZNSt6bitsetILm1024EE9referenceC2ERS0_m' type='func-type' binding='weak-binding' visibility='default-visibility' alias='_ZNSt6bitsetILm1024EE9referenceC1ERS0_m' is-defined='yes'/>
    <elf-symbol name='_ZNSt6bitsetILm1024EE9referenceD1Ev' type='func-type' binding='weak-binding' visibility='default-visibility' is-defined='yes'/>
    <elf-symbol name='_ZNSt6bitsetILm1024EE9referenceD2Ev' type='func-type' binding='weak-binding' visibility='default-visibility' alias='_ZNSt6bitsetILm1024EE9referenceD1Ev' is-defined='yes'/>
    <elf-symbol name='_ZNSt6bitsetILm1024EEC1Ev' type='func-type' binding='weak-binding' visibility='default-visibility' is-defined='yes'/>
    <elf-symbol name='_ZNSt6bitsetILm1024EEixEm' type='func-type' binding='weak-binding' visibility='default-visibility' is-defined='yes'/>
    <elf-symbol name='_ZNSt6bitsetILm128EE14_Unchecked_setEmi' type='func-type' binding='weak-binding' visibility='default-visibility' is-defined='yes'/>
    <elf-symbol name='_ZNSt6bitsetILm128EE3setEmb' type='func-type' binding='weak-binding' visibility='default-visibility' is-defined='yes'/>
    <elf-symbol name='_ZNSt6bitsetILm128EE5resetEv' type='func-type' binding='weak-binding' visibility='default-visibility' is-defined='yes'/>
    <elf-symbol name='_ZNSt6bitsetILm128EE9referenceC1ERS0_m' type='func-type' binding='weak-binding' visibility='default-visibility' is-defined='yes'/>
    <elf-symbol name='_ZNSt6bitsetILm128EE9referenceC2ERS0_m' type='func-type' binding='weak-binding' visibility='default-visibility' alias='_ZNSt6bitsetILm128EE9referenceC1ERS0_m' is-defined='yes'/>
    <elf-symbol name='_ZNSt6bitsetILm128EE9referenceD1Ev' type='func-type' binding='weak-binding' visibility='default-visibility' is-defined='yes'/>
    <elf-symbol name='_ZNSt6bitsetILm128EE9referenceD2Ev' type='func-type' binding='weak-binding' visibility='default-visibility' alias='_ZNSt6bitsetILm128EE9referenceD1Ev' is-defined='yes'/>
    <elf-symbol name='_ZNSt6bitsetILm128EEixEm' type='func-type' binding='weak-binding' visibility='default-visibility' is-defined='yes'/>
    <elf-symbol name='_ZNSt6vectorIPKN8VarTable5EntryESaIS3_EE12emplace_backIIS3_EEEvDpOT_' type='func-type' binding='weak-binding' visibility='default-visibility' is-defined='yes'/>
    <elf-symbol name='_ZNSt6vectorIPKN8VarTable5EntryESaIS3_EE12emplace_backIJS3_EEEvDpOT_' type='func-type' binding='weak-binding' visibility='default-visibility' alias='_ZNSt6vectorIPKN8VarTable5EntryESaIS3_EE12emplace_backIIS3_EEEvDpOT_' is-defined='yes'/>
    <elf-symbol name='_ZNSt6vectorIPKN8VarTable5EntryESaIS3_EE19_M_emplace_back_auxIIS3_EEEvDpOT_' type='func-type' binding='weak-binding' visibility='default-visibility' is-defined='yes'/>
    <elf-symbol name='_ZNSt6vectorIPKN8VarTable5EntryESaIS3_EE19_M_emplace_back_auxIJS3_EEEvDpOT_' type='func-type' binding='weak-binding' visibility='default-visibility' alias='_ZNSt6vectorIPKN8VarTable5EntryESaIS3_EE19_M_emplace_back_auxIIS3_EEEvDpOT_' is-defined='yes'/>
    <elf-symbol name='_ZNSt6vectorIPKN8VarTable5EntryESaIS3_EE19_M_range_initializeI8IteratorEEvT_S8_St18input_iterator_tag' type='func-type' binding='weak-binding' visibility='default-visibility' is-defined='yes'/>
    <elf-symbol name='_ZNSt6vectorIPKN8VarTable5EntryESaIS3_EE22_M_initialize_dispatchI8IteratorEEvT_S8_St12__false_type' type='func-type' binding='weak-binding' visibility='default-visibility' is-defined='yes'/>
    <elf-symbol name='_ZNSt6vectorIPKN8VarTable5EntryESaIS3_EE3endEv' type='func-type' binding='weak-binding' visibility='default-visibility' is-defined='yes'/>
    <elf-symbol name='_ZNSt6vectorIPKN8VarTable5EntryESaIS3_EE5beginEv' type='func-type' binding='weak-binding' visibility='default-visibility' is-defined='yes'/>
    <elf-symbol name='_ZNSt6vectorIPKN8VarTable5EntryESaIS3_EEC1I8IteratorvEET_S8_RKS4_' type='func-type' binding='weak-binding' visibility='default-visibility' is-defined='yes'/>
    <elf-symbol name='_ZNSt6vectorIPKN8VarTable5EntryESaIS3_EEC2I8IteratorvEET_S8_RKS4_' type='func-type' binding='weak-binding' visibility='default-visibility' alias='_ZNSt6vectorIPKN8VarTable5EntryESaIS3_EEC1I8IteratorvEET_S8_RKS4_' is-defined='yes'/>
    <elf-symbol name='_ZNSt6vectorIPKN8VarTable5EntryESaIS3_EED1Ev' type='func-type' binding='weak-binding' visibility='default-visibility' is-defined='yes'/>
    <elf-symbol name='_ZNSt6vectorIPKN8VarTable5EntryESaIS3_EED2Ev' type='func-type' binding='weak-binding' visibility='default-visibility' alias='_ZNSt6vectorIPKN8VarTable5EntryESaIS3_EED1Ev' is-defined='yes'/>
    <elf-symbol name='_ZNSt7__cxx1110_List_baseI11PersistDataSaIS1_EE10_List_implC1Ev' type='func-type' binding='weak-binding' visibility='default-visibility' is-defined='yes'/>
    <elf-symbol name='_ZNSt7__cxx1110_List_baseI11PersistDataSaIS1_EE10_List_implC2Ev' type='func-type' binding='weak-binding' visibility='default-visibility' alias='_ZNSt7__cxx1110_List_baseI11PersistDataSaIS1_EE10_List_implC1Ev' is-defined='yes'/>
    <elf-symbol name='_ZNSt7__cxx1110_List_baseI11PersistDataSaIS1_EE10_List_implD1Ev' type='func-type' binding='weak-binding' visibility='default-visibility' is-defined='yes'/>
    <elf-symbol name='_ZNSt7__cxx1110_List_baseI11PersistDataSaIS1_EE10_List_implD2Ev' type='func-type' binding='weak-binding' visibility='default-visibility' alias='_ZNSt7__cxx1110_List_baseI11PersistDataSaIS1_EE10_List_implD1Ev' is-defined='yes'/>
    <elf-symbol name='_ZNSt7__cxx1110_List_baseI11PersistDataSaIS1_EE11_M_dec_sizeEm' type='func-type' binding='weak-binding' visibility='default-visibility' is-defined='yes'/>
    <elf-symbol name='_ZNSt7__cxx1110_List_baseI11PersistDataSaIS1_EE11_M_get_nodeEv' type='func-type' binding='weak-binding' visibility='default-visibility' is-defined='yes'/>
    <elf-symbol name='_ZNSt7__cxx1110_List_baseI11PersistDataSaIS1_EE11_M_inc_sizeEm' type='func-type' binding='weak-binding' visibility='default-visibility' is-defined='yes'/>
    <elf-symbol name='_ZNSt7__cxx1110_List_baseI11PersistDataSaIS1_EE11_M_put_nodeEPSt10_List_nodeIS1_E' type='func-type' binding='weak-binding' visibility='default-visibility' is-defined='yes'/>
    <elf-symbol name='_ZNSt7__cxx1110_List_baseI11PersistDataSaIS1_EE11_M_set_sizeEm' type='func-type' binding='weak-binding' visibility='default-visibility' is-defined='yes'/>
    <elf-symbol name='_ZNSt7__cxx1110_List_baseI11PersistDataSaIS1_EE21_M_get_Node_allocatorEv' type='func-type' binding='weak-binding' visibility='default-visibility' is-defined='yes'/>
    <elf-symbol name='_ZNSt7__cxx1110_List_baseI11PersistDataSaIS1_EE7_M_initEv' type='func-type' binding='weak-binding' visibility='default-visibility' is-defined='yes'/>
    <elf-symbol name='_ZNSt7__cxx1110_List_baseI11PersistDataSaIS1_EE8_M_clearEv' type='func-type' binding='weak-binding' visibility='default-visibility' is-defined='yes'/>
    <elf-symbol name='_ZNSt7__cxx1110_List_baseI11PersistDataSaIS1_EEC1Ev' type='func-type' binding='weak-binding' visibility='default-visibility' is-defined='yes'/>
    <elf-symbol name='_ZNSt7__cxx1110_List_baseI11PersistDataSaIS1_EEC2Ev' type='func-type' binding='weak-binding' visibility='default-visibility' alias='_ZNSt7__cxx1110_List_baseI11PersistDataSaIS1_EEC1Ev' is-defined='yes'/>
    <elf-symbol name='_ZNSt7__cxx1110_List_baseI11PersistDataSaIS1_EED1Ev' type='func-type' binding='weak-binding' visibility='default-visibility' is-defined='yes'/>
    <elf-symbol name='_ZNSt7__cxx1110_List_baseI11PersistDataSaIS1_EED2Ev' type='func-type' binding='weak-binding' visibility='default-visibility' alias='_ZNSt7__cxx1110_List_baseI11PersistDataSaIS1_EED1Ev' is-defined='yes'/>
    <elf-symbol name='_ZNSt7__cxx1110_List_baseI11TargetImageSaIS1_EE10_List_implC1Ev' type='func-type' binding='weak-binding' visibility='default-visibility' is-defined='yes'/>
    <elf-symbol name='_ZNSt7__cxx1110_List_baseI11TargetImageSaIS1_EE10_List_implC2Ev' type='func-type' binding='weak-binding' visibility='default-visibility' alias='_ZNSt7__cxx1110_List_baseI11TargetImageSaIS1_EE10_List_implC1Ev' is-defined='yes'/>
    <elf-symbol name='_ZNSt7__cxx1110_List_baseI11TargetImageSaIS1_EE10_List_implD1Ev' type='func-type' binding='weak-binding' visibility='default-visibility' alias='_ZNSt7__cxx1110_List_baseI11TargetImageSaIS1_EE10_List_implD2Ev' is-defined='yes'/>
    <elf-symbol name='_ZNSt7__cxx1110_List_baseI11TargetImageSaIS1_EE10_List_implD2Ev' type='func-type' binding='weak-binding' visibility='default-visibility' is-defined='yes'/>
    <elf-symbol name='_ZNSt7__cxx1110_List_baseI11TargetImageSaIS1_EE11_M_get_nodeEv' type='func-type' binding='weak-binding' visibility='default-visibility' is-defined='yes'/>
    <elf-symbol name='_ZNSt7__cxx1110_List_baseI11TargetImageSaIS1_EE11_M_inc_sizeEm' type='func-type' binding='weak-binding' visibility='default-visibility' is-defined='yes'/>
    <elf-symbol name='_ZNSt7__cxx1110_List_baseI11TargetImageSaIS1_EE11_M_put_nodeEPSt10_List_nodeIS1_E' type='func-type' binding='weak-binding' visibility='default-visibility' is-defined='yes'/>
    <elf-symbol name='_ZNSt7__cxx1110_List_baseI11TargetImageSaIS1_EE11_M_set_sizeEm' type='func-type' binding='weak-binding' visibility='default-visibility' is-defined='yes'/>
    <elf-symbol name='_ZNSt7__cxx1110_List_baseI11TargetImageSaIS1_EE21_M_get_Node_allocatorEv' type='func-type' binding='weak-binding' visibility='default-visibility' is-defined='yes'/>
    <elf-symbol name='_ZNSt7__cxx1110_List_baseI11TargetImageSaIS1_EE7_M_initEv' type='func-type' binding='weak-binding' visibility='default-visibility' is-defined='yes'/>
    <elf-symbol name='_ZNSt7__cxx1110_List_baseI11TargetImageSaIS1_EE8_M_clearEv' type='func-type' binding='weak-binding' visibility='default-visibility' is-defined='yes'/>
    <elf-symbol name='_ZNSt7__cxx1110_List_baseI11TargetImageSaIS1_EEC1Ev' type='func-type' binding='weak-binding' visibility='default-visibility' is-defined='yes'/>
    <elf-symbol name='_ZNSt7__cxx1110_List_baseI11TargetImageSaIS1_EEC2Ev' type='func-type' binding='weak-binding' visibility='default-visibility' alias='_ZNSt7__cxx1110_List_baseI11TargetImageSaIS1_EEC1Ev' is-defined='yes'/>
    <elf-symbol name='_ZNSt7__cxx1110_List_baseI11TargetImageSaIS1_EED1Ev' type='func-type' binding='weak-binding' visibility='default-visibility' is-defined='yes'/>
    <elf-symbol name='_ZNSt7__cxx1110_List_baseI11TargetImageSaIS1_EED2Ev' type='func-type' binding='weak-binding' visibility='default-visibility' alias='_ZNSt7__cxx1110_List_baseI11TargetImageSaIS1_EED1Ev' is-defined='yes'/>
    <elf-symbol name='_ZNSt7__cxx1110_List_baseI6DynLibSaIS1_EE10_List_implC1Ev' type='func-type' binding='weak-binding' visibility='default-visibility' is-defined='yes'/>
    <elf-symbol name='_ZNSt7__cxx1110_List_baseI6DynLibSaIS1_EE10_List_implC2Ev' type='func-type' binding='weak-binding' visibility='default-visibility' alias='_ZNSt7__cxx1110_List_baseI6DynLibSaIS1_EE10_List_implC1Ev' is-defined='yes'/>
    <elf-symbol name='_ZNSt7__cxx1110_List_baseI6DynLibSaIS1_EE10_List_implD1Ev' type='func-type' binding='weak-binding' visibility='default-visibility' alias='_ZNSt7__cxx1110_List_baseI6DynLibSaIS1_EE10_List_implD2Ev' is-defined='yes'/>
    <elf-symbol name='_ZNSt7__cxx1110_List_baseI6DynLibSaIS1_EE10_List_implD2Ev' type='func-type' binding='weak-binding' visibility='default-visibility' is-defined='yes'/>
    <elf-symbol name='_ZNSt7__cxx1110_List_baseI6DynLibSaIS1_EE11_M_dec_sizeEm' type='func-type' binding='weak-binding' visibility='default-visibility' is-defined='yes'/>
    <elf-symbol name='_ZNSt7__cxx1110_List_baseI6DynLibSaIS1_EE11_M_get_nodeEv' type='func-type' binding='weak-binding' visibility='default-visibility' is-defined='yes'/>
    <elf-symbol name='_ZNSt7__cxx1110_List_baseI6DynLibSaIS1_EE11_M_inc_sizeEm' type='func-type' binding='weak-binding' visibility='default-visibility' is-defined='yes'/>
    <elf-symbol name='_ZNSt7__cxx1110_List_baseI6DynLibSaIS1_EE11_M_put_nodeEPSt10_List_nodeIS1_E' type='func-type' binding='weak-binding' visibility='default-visibility' is-defined='yes'/>
    <elf-symbol name='_ZNSt7__cxx1110_List_baseI6DynLibSaIS1_EE11_M_set_sizeEm' type='func-type' binding='weak-binding' visibility='default-visibility' is-defined='yes'/>
    <elf-symbol name='_ZNSt7__cxx1110_List_baseI6DynLibSaIS1_EE21_M_get_Node_allocatorEv' type='func-type' binding='weak-binding' visibility='default-visibility' is-defined='yes'/>
    <elf-symbol name='_ZNSt7__cxx1110_List_baseI6DynLibSaIS1_EE7_M_initEv' type='func-type' binding='weak-binding' visibility='default-visibility' is-defined='yes'/>
    <elf-symbol name='_ZNSt7__cxx1110_List_baseI6DynLibSaIS1_EE8_M_clearEv' type='func-type' binding='weak-binding' visibility='default-visibility' is-defined='yes'/>
    <elf-symbol name='_ZNSt7__cxx1110_List_baseI6DynLibSaIS1_EEC1Ev' type='func-type' binding='weak-binding' visibility='default-visibility' is-defined='yes'/>
    <elf-symbol name='_ZNSt7__cxx1110_List_baseI6DynLibSaIS1_EEC2Ev' type='func-type' binding='weak-binding' visibility='default-visibility' alias='_ZNSt7__cxx1110_List_baseI6DynLibSaIS1_EEC1Ev' is-defined='yes'/>
    <elf-symbol name='_ZNSt7__cxx1110_List_baseI6DynLibSaIS1_EED1Ev' type='func-type' binding='weak-binding' visibility='default-visibility' is-defined='yes'/>
    <elf-symbol name='_ZNSt7__cxx1110_List_baseI6DynLibSaIS1_EED2Ev' type='func-type' binding='weak-binding' visibility='default-visibility' alias='_ZNSt7__cxx1110_List_baseI6DynLibSaIS1_EED1Ev' is-defined='yes'/>
    <elf-symbol name='_ZNSt7__cxx1110_List_baseI8MyoTableSaIS1_EE10_List_implC1Ev' type='func-type' binding='weak-binding' visibility='default-visibility' is-defined='yes'/>
    <elf-symbol name='_ZNSt7__cxx1110_List_baseI8MyoTableSaIS1_EE10_List_implC2Ev' type='func-type' binding='weak-binding' visibility='default-visibility' alias='_ZNSt7__cxx1110_List_baseI8MyoTableSaIS1_EE10_List_implC1Ev' is-defined='yes'/>
    <elf-symbol name='_ZNSt7__cxx1110_List_baseI8MyoTableSaIS1_EE10_List_implD1Ev' type='func-type' binding='weak-binding' visibility='default-visibility' is-defined='yes'/>
    <elf-symbol name='_ZNSt7__cxx1110_List_baseI8MyoTableSaIS1_EE10_List_implD2Ev' type='func-type' binding='weak-binding' visibility='default-visibility' alias='_ZNSt7__cxx1110_List_baseI8MyoTableSaIS1_EE10_List_implD1Ev' is-defined='yes'/>
    <elf-symbol name='_ZNSt7__cxx1110_List_baseI8MyoTableSaIS1_EE11_M_get_nodeEv' type='func-type' binding='weak-binding' visibility='default-visibility' is-defined='yes'/>
    <elf-symbol name='_ZNSt7__cxx1110_List_baseI8MyoTableSaIS1_EE11_M_inc_sizeEm' type='func-type' binding='weak-binding' visibility='default-visibility' is-defined='yes'/>
    <elf-symbol name='_ZNSt7__cxx1110_List_baseI8MyoTableSaIS1_EE11_M_put_nodeEPSt10_List_nodeIS1_E' type='func-type' binding='weak-binding' visibility='default-visibility' is-defined='yes'/>
    <elf-symbol name='_ZNSt7__cxx1110_List_baseI8MyoTableSaIS1_EE11_M_set_sizeEm' type='func-type' binding='weak-binding' visibility='default-visibility' is-defined='yes'/>
    <elf-symbol name='_ZNSt7__cxx1110_List_baseI8MyoTableSaIS1_EE21_M_get_Node_allocatorEv' type='func-type' binding='weak-binding' visibility='default-visibility' is-defined='yes'/>
    <elf-symbol name='_ZNSt7__cxx1110_List_baseI8MyoTableSaIS1_EE7_M_initEv' type='func-type' binding='weak-binding' visibility='default-visibility' is-defined='yes'/>
    <elf-symbol name='_ZNSt7__cxx1110_List_baseI8MyoTableSaIS1_EE8_M_clearEv' type='func-type' binding='weak-binding' visibility='default-visibility' is-defined='yes'/>
    <elf-symbol name='_ZNSt7__cxx1110_List_baseI8MyoTableSaIS1_EEC1Ev' type='func-type' binding='weak-binding' visibility='default-visibility' is-defined='yes'/>
    <elf-symbol name='_ZNSt7__cxx1110_List_baseI8MyoTableSaIS1_EEC2Ev' type='func-type' binding='weak-binding' visibility='default-visibility' alias='_ZNSt7__cxx1110_List_baseI8MyoTableSaIS1_EEC1Ev' is-defined='yes'/>
    <elf-symbol name='_ZNSt7__cxx1110_List_baseI8MyoTableSaIS1_EED1Ev' type='func-type' binding='weak-binding' visibility='default-visibility' is-defined='yes'/>
    <elf-symbol name='_ZNSt7__cxx1110_List_baseI8MyoTableSaIS1_EED2Ev' type='func-type' binding='weak-binding' visibility='default-visibility' alias='_ZNSt7__cxx1110_List_baseI8MyoTableSaIS1_EED1Ev' is-defined='yes'/>
    <elf-symbol name='_ZNSt7__cxx1110_List_baseIP7PtrDataSaIS2_EE10_List_implC1Ev' type='func-type' binding='weak-binding' visibility='default-visibility' is-defined='yes'/>
    <elf-symbol name='_ZNSt7__cxx1110_List_baseIP7PtrDataSaIS2_EE10_List_implC2Ev' type='func-type' binding='weak-binding' visibility='default-visibility' alias='_ZNSt7__cxx1110_List_baseIP7PtrDataSaIS2_EE10_List_implC1Ev' is-defined='yes'/>
    <elf-symbol name='_ZNSt7__cxx1110_List_baseIP7PtrDataSaIS2_EE10_List_implD1Ev' type='func-type' binding='weak-binding' visibility='default-visibility' alias='_ZNSt7__cxx1110_List_baseIP7PtrDataSaIS2_EE10_List_implD2Ev' is-defined='yes'/>
    <elf-symbol name='_ZNSt7__cxx1110_List_baseIP7PtrDataSaIS2_EE10_List_implD2Ev' type='func-type' binding='weak-binding' visibility='default-visibility' is-defined='yes'/>
    <elf-symbol name='_ZNSt7__cxx1110_List_baseIP7PtrDataSaIS2_EE11_M_get_nodeEv' type='func-type' binding='weak-binding' visibility='default-visibility' is-defined='yes'/>
    <elf-symbol name='_ZNSt7__cxx1110_List_baseIP7PtrDataSaIS2_EE11_M_inc_sizeEm' type='func-type' binding='weak-binding' visibility='default-visibility' is-defined='yes'/>
    <elf-symbol name='_ZNSt7__cxx1110_List_baseIP7PtrDataSaIS2_EE11_M_put_nodeEPSt10_List_nodeIS2_E' type='func-type' binding='weak-binding' visibility='default-visibility' is-defined='yes'/>
    <elf-symbol name='_ZNSt7__cxx1110_List_baseIP7PtrDataSaIS2_EE11_M_set_sizeEm' type='func-type' binding='weak-binding' visibility='default-visibility' is-defined='yes'/>
    <elf-symbol name='_ZNSt7__cxx1110_List_baseIP7PtrDataSaIS2_EE21_M_get_Node_allocatorEv' type='func-type' binding='weak-binding' visibility='default-visibility' is-defined='yes'/>
    <elf-symbol name='_ZNSt7__cxx1110_List_baseIP7PtrDataSaIS2_EE7_M_initEv' type='func-type' binding='weak-binding' visibility='default-visibility' is-defined='yes'/>
    <elf-symbol name='_ZNSt7__cxx1110_List_baseIP7PtrDataSaIS2_EE8_M_clearEv' type='func-type' binding='weak-binding' visibility='default-visibility' is-defined='yes'/>
    <elf-symbol name='_ZNSt7__cxx1110_List_baseIP7PtrDataSaIS2_EEC1Ev' type='func-type' binding='weak-binding' visibility='default-visibility' is-defined='yes'/>
    <elf-symbol name='_ZNSt7__cxx1110_List_baseIP7PtrDataSaIS2_EEC2Ev' type='func-type' binding='weak-binding' visibility='default-visibility' alias='_ZNSt7__cxx1110_List_baseIP7PtrDataSaIS2_EEC1Ev' is-defined='yes'/>
    <elf-symbol name='_ZNSt7__cxx1110_List_baseIP7PtrDataSaIS2_EED1Ev' type='func-type' binding='weak-binding' visibility='default-visibility' is-defined='yes'/>
    <elf-symbol name='_ZNSt7__cxx1110_List_baseIP7PtrDataSaIS2_EED2Ev' type='func-type' binding='weak-binding' visibility='default-visibility' alias='_ZNSt7__cxx1110_List_baseIP7PtrDataSaIS2_EED1Ev' is-defined='yes'/>
    <elf-symbol name='_ZNSt7__cxx1110_List_baseIP9coibufferSaIS2_EE10_List_implC1Ev' type='func-type' binding='weak-binding' visibility='default-visibility' is-defined='yes'/>
    <elf-symbol name='_ZNSt7__cxx1110_List_baseIP9coibufferSaIS2_EE10_List_implC2Ev' type='func-type' binding='weak-binding' visibility='default-visibility' alias='_ZNSt7__cxx1110_List_baseIP9coibufferSaIS2_EE10_List_implC1Ev' is-defined='yes'/>
    <elf-symbol name='_ZNSt7__cxx1110_List_baseIP9coibufferSaIS2_EE10_List_implD1Ev' type='func-type' binding='weak-binding' visibility='default-visibility' alias='_ZNSt7__cxx1110_List_baseIP9coibufferSaIS2_EE10_List_implD2Ev' is-defined='yes'/>
    <elf-symbol name='_ZNSt7__cxx1110_List_baseIP9coibufferSaIS2_EE10_List_implD2Ev' type='func-type' binding='weak-binding' visibility='default-visibility' is-defined='yes'/>
    <elf-symbol name='_ZNSt7__cxx1110_List_baseIP9coibufferSaIS2_EE11_M_get_nodeEv' type='func-type' binding='weak-binding' visibility='default-visibility' is-defined='yes'/>
    <elf-symbol name='_ZNSt7__cxx1110_List_baseIP9coibufferSaIS2_EE11_M_inc_sizeEm' type='func-type' binding='weak-binding' visibility='default-visibility' is-defined='yes'/>
    <elf-symbol name='_ZNSt7__cxx1110_List_baseIP9coibufferSaIS2_EE11_M_put_nodeEPSt10_List_nodeIS2_E' type='func-type' binding='weak-binding' visibility='default-visibility' is-defined='yes'/>
    <elf-symbol name='_ZNSt7__cxx1110_List_baseIP9coibufferSaIS2_EE11_M_set_sizeEm' type='func-type' binding='weak-binding' visibility='default-visibility' is-defined='yes'/>
    <elf-symbol name='_ZNSt7__cxx1110_List_baseIP9coibufferSaIS2_EE21_M_get_Node_allocatorEv' type='func-type' binding='weak-binding' visibility='default-visibility' is-defined='yes'/>
    <elf-symbol name='_ZNSt7__cxx1110_List_baseIP9coibufferSaIS2_EE7_M_initEv' type='func-type' binding='weak-binding' visibility='default-visibility' is-defined='yes'/>
    <elf-symbol name='_ZNSt7__cxx1110_List_baseIP9coibufferSaIS2_EE8_M_clearEv' type='func-type' binding='weak-binding' visibility='default-visibility' is-defined='yes'/>
    <elf-symbol name='_ZNSt7__cxx1110_List_baseIP9coibufferSaIS2_EEC1Ev' type='func-type' binding='weak-binding' visibility='default-visibility' is-defined='yes'/>
    <elf-symbol name='_ZNSt7__cxx1110_List_baseIP9coibufferSaIS2_EEC2Ev' type='func-type' binding='weak-binding' visibility='default-visibility' alias='_ZNSt7__cxx1110_List_baseIP9coibufferSaIS2_EEC1Ev' is-defined='yes'/>
    <elf-symbol name='_ZNSt7__cxx1110_List_baseIP9coibufferSaIS2_EED1Ev' type='func-type' binding='weak-binding' visibility='default-visibility' is-defined='yes'/>
    <elf-symbol name='_ZNSt7__cxx1110_List_baseIP9coibufferSaIS2_EED2Ev' type='func-type' binding='weak-binding' visibility='default-visibility' alias='_ZNSt7__cxx1110_List_baseIP9coibufferSaIS2_EED1Ev' is-defined='yes'/>
    <elf-symbol name='_ZNSt7__cxx1110_List_baseIPcSaIS1_EE10_List_implC1Ev' type='func-type' binding='weak-binding' visibility='default-visibility' is-defined='yes'/>
    <elf-symbol name='_ZNSt7__cxx1110_List_baseIPcSaIS1_EE10_List_implC2Ev' type='func-type' binding='weak-binding' visibility='default-visibility' alias='_ZNSt7__cxx1110_List_baseIPcSaIS1_EE10_List_implC1Ev' is-defined='yes'/>
    <elf-symbol name='_ZNSt7__cxx1110_List_baseIPcSaIS1_EE10_List_implD1Ev' type='func-type' binding='weak-binding' visibility='default-visibility' alias='_ZNSt7__cxx1110_List_baseIPcSaIS1_EE10_List_implD2Ev' is-defined='yes'/>
    <elf-symbol name='_ZNSt7__cxx1110_List_baseIPcSaIS1_EE10_List_implD2Ev' type='func-type' binding='weak-binding' visibility='default-visibility' is-defined='yes'/>
    <elf-symbol name='_ZNSt7__cxx1110_List_baseIPcSaIS1_EE11_M_get_nodeEv' type='func-type' binding='weak-binding' visibility='default-visibility' is-defined='yes'/>
    <elf-symbol name='_ZNSt7__cxx1110_List_baseIPcSaIS1_EE11_M_inc_sizeEm' type='func-type' binding='weak-binding' visibility='default-visibility' is-defined='yes'/>
    <elf-symbol name='_ZNSt7__cxx1110_List_baseIPcSaIS1_EE11_M_put_nodeEPSt10_List_nodeIS1_E' type='func-type' binding='weak-binding' visibility='default-visibility' is-defined='yes'/>
    <elf-symbol name='_ZNSt7__cxx1110_List_baseIPcSaIS1_EE11_M_set_sizeEm' type='func-type' binding='weak-binding' visibility='default-visibility' is-defined='yes'/>
    <elf-symbol name='_ZNSt7__cxx1110_List_baseIPcSaIS1_EE21_M_get_Node_allocatorEv' type='func-type' binding='weak-binding' visibility='default-visibility' is-defined='yes'/>
    <elf-symbol name='_ZNSt7__cxx1110_List_baseIPcSaIS1_EE7_M_initEv' type='func-type' binding='weak-binding' visibility='default-visibility' is-defined='yes'/>
    <elf-symbol name='_ZNSt7__cxx1110_List_baseIPcSaIS1_EE8_M_clearEv' type='func-type' binding='weak-binding' visibility='default-visibility' is-defined='yes'/>
    <elf-symbol name='_ZNSt7__cxx1110_List_baseIPcSaIS1_EEC1Ev' type='func-type' binding='weak-binding' visibility='default-visibility' is-defined='yes'/>
    <elf-symbol name='_ZNSt7__cxx1110_List_baseIPcSaIS1_EEC2Ev' type='func-type' binding='weak-binding' visibility='default-visibility' alias='_ZNSt7__cxx1110_List_baseIPcSaIS1_EEC1Ev' is-defined='yes'/>
    <elf-symbol name='_ZNSt7__cxx1110_List_baseIPcSaIS1_EED1Ev' type='func-type' binding='weak-binding' visibility='default-visibility' is-defined='yes'/>
    <elf-symbol name='_ZNSt7__cxx1110_List_baseIPcSaIS1_EED2Ev' type='func-type' binding='weak-binding' visibility='default-visibility' alias='_ZNSt7__cxx1110_List_baseIPcSaIS1_EED1Ev' is-defined='yes'/>
    <elf-symbol name='_ZNSt7__cxx114listI11PersistDataSaIS1_EE10push_frontERKS1_' type='func-type' binding='weak-binding' visibility='default-visibility' is-defined='yes'/>
    <elf-symbol name='_ZNSt7__cxx114listI11PersistDataSaIS1_EE14_M_create_nodeIIRKS1_EEEPSt10_List_nodeIS1_EDpOT_' type='func-type' binding='weak-binding' visibility='default-visibility' is-defined='yes'/>
    <elf-symbol name='_ZNSt7__cxx114listI11PersistDataSaIS1_EE14_M_create_nodeIJRKS1_EEEPSt10_List_nodeIS1_EDpOT_' type='func-type' binding='weak-binding' visibility='default-visibility' alias='_ZNSt7__cxx114listI11PersistDataSaIS1_EE14_M_create_nodeIIRKS1_EEEPSt10_List_nodeIS1_EDpOT_' is-defined='yes'/>
    <elf-symbol name='_ZNSt7__cxx114listI11PersistDataSaIS1_EE3endEv' type='func-type' binding='weak-binding' visibility='default-visibility' is-defined='yes'/>
    <elf-symbol name='_ZNSt7__cxx114listI11PersistDataSaIS1_EE5beginEv' type='func-type' binding='weak-binding' visibility='default-visibility' is-defined='yes'/>
    <elf-symbol name='_ZNSt7__cxx114listI11PersistDataSaIS1_EE5eraseESt20_List_const_iteratorIS1_E' type='func-type' binding='weak-binding' visibility='default-visibility' is-defined='yes'/>
    <elf-symbol name='_ZNSt7__cxx114listI11PersistDataSaIS1_EE5eraseESt20_List_const_iteratorIS1_ES5_' type='func-type' binding='weak-binding' visibility='default-visibility' is-defined='yes'/>
    <elf-symbol name='_ZNSt7__cxx114listI11PersistDataSaIS1_EE5frontEv' type='func-type' binding='weak-binding' visibility='default-visibility' is-defined='yes'/>
    <elf-symbol name='_ZNSt7__cxx114listI11PersistDataSaIS1_EE8_M_eraseESt14_List_iteratorIS1_E' type='func-type' binding='weak-binding' visibility='default-visibility' is-defined='yes'/>
    <elf-symbol name='_ZNSt7__cxx114listI11PersistDataSaIS1_EE9_M_insertIIRKS1_EEEvSt14_List_iteratorIS1_EDpOT_' type='func-type' binding='weak-binding' visibility='default-visibility' is-defined='yes'/>
    <elf-symbol name='_ZNSt7__cxx114listI11PersistDataSaIS1_EE9_M_insertIJRKS1_EEEvSt14_List_iteratorIS1_EDpOT_' type='func-type' binding='weak-binding' visibility='default-visibility' alias='_ZNSt7__cxx114listI11PersistDataSaIS1_EE9_M_insertIIRKS1_EEEvSt14_List_iteratorIS1_EDpOT_' is-defined='yes'/>
    <elf-symbol name='_ZNSt7__cxx114listI11PersistDataSaIS1_EEC1Ev' type='func-type' binding='weak-binding' visibility='default-visibility' is-defined='yes'/>
    <elf-symbol name='_ZNSt7__cxx114listI11PersistDataSaIS1_EEC2Ev' type='func-type' binding='weak-binding' visibility='default-visibility' alias='_ZNSt7__cxx114listI11PersistDataSaIS1_EEC1Ev' is-defined='yes'/>
    <elf-symbol name='_ZNSt7__cxx114listI11PersistDataSaIS1_EED1Ev' type='func-type' binding='weak-binding' visibility='default-visibility' alias='_ZNSt7__cxx114listI11PersistDataSaIS1_EED2Ev' is-defined='yes'/>
    <elf-symbol name='_ZNSt7__cxx114listI11PersistDataSaIS1_EED2Ev' type='func-type' binding='weak-binding' visibility='default-visibility' is-defined='yes'/>
    <elf-symbol name='_ZNSt7__cxx114listI11TargetImageSaIS1_EE14_M_create_nodeIIRKS1_EEEPSt10_List_nodeIS1_EDpOT_' type='func-type' binding='weak-binding' visibility='default-visibility' is-defined='yes'/>
    <elf-symbol name='_ZNSt7__cxx114listI11TargetImageSaIS1_EE14_M_create_nodeIIS1_EEEPSt10_List_nodeIS1_EDpOT_' type='func-type' binding='weak-binding' visibility='default-visibility' is-defined='yes'/>
    <elf-symbol name='_ZNSt7__cxx114listI11TargetImageSaIS1_EE14_M_create_nodeIJRKS1_EEEPSt10_List_nodeIS1_EDpOT_' type='func-type' binding='weak-binding' visibility='default-visibility' alias='_ZNSt7__cxx114listI11TargetImageSaIS1_EE14_M_create_nodeIIRKS1_EEEPSt10_List_nodeIS1_EDpOT_' is-defined='yes'/>
    <elf-symbol name='_ZNSt7__cxx114listI11TargetImageSaIS1_EE14_M_create_nodeIJS1_EEEPSt10_List_nodeIS1_EDpOT_' type='func-type' binding='weak-binding' visibility='default-visibility' alias='_ZNSt7__cxx114listI11TargetImageSaIS1_EE14_M_create_nodeIIS1_EEEPSt10_List_nodeIS1_EDpOT_' is-defined='yes'/>
    <elf-symbol name='_ZNSt7__cxx114listI11TargetImageSaIS1_EE3endEv' type='func-type' binding='weak-binding' visibility='default-visibility' is-defined='yes'/>
    <elf-symbol name='_ZNSt7__cxx114listI11TargetImageSaIS1_EE5beginEv' type='func-type' binding='weak-binding' visibility='default-visibility' is-defined='yes'/>
    <elf-symbol name='_ZNSt7__cxx114listI11TargetImageSaIS1_EE5clearEv' type='func-type' binding='weak-binding' visibility='default-visibility' is-defined='yes'/>
    <elf-symbol name='_ZNSt7__cxx114listI11TargetImageSaIS1_EE9_M_insertIIRKS1_EEEvSt14_List_iteratorIS1_EDpOT_' type='func-type' binding='weak-binding' visibility='default-visibility' is-defined='yes'/>
    <elf-symbol name='_ZNSt7__cxx114listI11TargetImageSaIS1_EE9_M_insertIIS1_EEEvSt14_List_iteratorIS1_EDpOT_' type='func-type' binding='weak-binding' visibility='default-visibility' is-defined='yes'/>
    <elf-symbol name='_ZNSt7__cxx114listI11TargetImageSaIS1_EE9_M_insertIJRKS1_EEEvSt14_List_iteratorIS1_EDpOT_' type='func-type' binding='weak-binding' visibility='default-visibility' alias='_ZNSt7__cxx114listI11TargetImageSaIS1_EE9_M_insertIIRKS1_EEEvSt14_List_iteratorIS1_EDpOT_' is-defined='yes'/>
    <elf-symbol name='_ZNSt7__cxx114listI11TargetImageSaIS1_EE9_M_insertIJS1_EEEvSt14_List_iteratorIS1_EDpOT_' type='func-type' binding='weak-binding' visibility='default-visibility' alias='_ZNSt7__cxx114listI11TargetImageSaIS1_EE9_M_insertIIS1_EEEvSt14_List_iteratorIS1_EDpOT_' is-defined='yes'/>
    <elf-symbol name='_ZNSt7__cxx114listI11TargetImageSaIS1_EE9push_backEOS1_' type='func-type' binding='weak-binding' visibility='default-visibility' is-defined='yes'/>
    <elf-symbol name='_ZNSt7__cxx114listI11TargetImageSaIS1_EE9push_backERKS1_' type='func-type' binding='weak-binding' visibility='default-visibility' is-defined='yes'/>
    <elf-symbol name='_ZNSt7__cxx114listI11TargetImageSaIS1_EEC1Ev' type='func-type' binding='weak-binding' visibility='default-visibility' is-defined='yes'/>
    <elf-symbol name='_ZNSt7__cxx114listI11TargetImageSaIS1_EEC2Ev' type='func-type' binding='weak-binding' visibility='default-visibility' alias='_ZNSt7__cxx114listI11TargetImageSaIS1_EEC1Ev' is-defined='yes'/>
    <elf-symbol name='_ZNSt7__cxx114listI11TargetImageSaIS1_EED1Ev' type='func-type' binding='weak-binding' visibility='default-visibility' is-defined='yes'/>
    <elf-symbol name='_ZNSt7__cxx114listI11TargetImageSaIS1_EED2Ev' type='func-type' binding='weak-binding' visibility='default-visibility' alias='_ZNSt7__cxx114listI11TargetImageSaIS1_EED1Ev' is-defined='yes'/>
    <elf-symbol name='_ZNSt7__cxx114listI6DynLibSaIS1_EE10push_frontEOS1_' type='func-type' binding='weak-binding' visibility='default-visibility' is-defined='yes'/>
    <elf-symbol name='_ZNSt7__cxx114listI6DynLibSaIS1_EE14_M_create_nodeIIS1_EEEPSt10_List_nodeIS1_EDpOT_' type='func-type' binding='weak-binding' visibility='default-visibility' is-defined='yes'/>
    <elf-symbol name='_ZNSt7__cxx114listI6DynLibSaIS1_EE14_M_create_nodeIJS1_EEEPSt10_List_nodeIS1_EDpOT_' type='func-type' binding='weak-binding' visibility='default-visibility' alias='_ZNSt7__cxx114listI6DynLibSaIS1_EE14_M_create_nodeIIS1_EEEPSt10_List_nodeIS1_EDpOT_' is-defined='yes'/>
    <elf-symbol name='_ZNSt7__cxx114listI6DynLibSaIS1_EE3endEv' type='func-type' binding='weak-binding' visibility='default-visibility' is-defined='yes'/>
    <elf-symbol name='_ZNSt7__cxx114listI6DynLibSaIS1_EE5beginEv' type='func-type' binding='weak-binding' visibility='default-visibility' is-defined='yes'/>
    <elf-symbol name='_ZNSt7__cxx114listI6DynLibSaIS1_EE5eraseESt20_List_const_iteratorIS1_E' type='func-type' binding='weak-binding' visibility='default-visibility' is-defined='yes'/>
    <elf-symbol name='_ZNSt7__cxx114listI6DynLibSaIS1_EE8_M_eraseESt14_List_iteratorIS1_E' type='func-type' binding='weak-binding' visibility='default-visibility' is-defined='yes'/>
    <elf-symbol name='_ZNSt7__cxx114listI6DynLibSaIS1_EE9_M_insertIIS1_EEEvSt14_List_iteratorIS1_EDpOT_' type='func-type' binding='weak-binding' visibility='default-visibility' is-defined='yes'/>
    <elf-symbol name='_ZNSt7__cxx114listI6DynLibSaIS1_EE9_M_insertIJS1_EEEvSt14_List_iteratorIS1_EDpOT_' type='func-type' binding='weak-binding' visibility='default-visibility' alias='_ZNSt7__cxx114listI6DynLibSaIS1_EE9_M_insertIIS1_EEEvSt14_List_iteratorIS1_EDpOT_' is-defined='yes'/>
    <elf-symbol name='_ZNSt7__cxx114listI6DynLibSaIS1_EEC1Ev' type='func-type' binding='weak-binding' visibility='default-visibility' is-defined='yes'/>
    <elf-symbol name='_ZNSt7__cxx114listI6DynLibSaIS1_EEC2Ev' type='func-type' binding='weak-binding' visibility='default-visibility' alias='_ZNSt7__cxx114listI6DynLibSaIS1_EEC1Ev' is-defined='yes'/>
    <elf-symbol name='_ZNSt7__cxx114listI6DynLibSaIS1_EED1Ev' type='func-type' binding='weak-binding' visibility='default-visibility' is-defined='yes'/>
    <elf-symbol name='_ZNSt7__cxx114listI6DynLibSaIS1_EED2Ev' type='func-type' binding='weak-binding' visibility='default-visibility' alias='_ZNSt7__cxx114listI6DynLibSaIS1_EED1Ev' is-defined='yes'/>
    <elf-symbol name='_ZNSt7__cxx114listI8MyoTableSaIS1_EE14_M_create_nodeIIS1_EEEPSt10_List_nodeIS1_EDpOT_' type='func-type' binding='weak-binding' visibility='default-visibility' is-defined='yes'/>
    <elf-symbol name='_ZNSt7__cxx114listI8MyoTableSaIS1_EE14_M_create_nodeIJS1_EEEPSt10_List_nodeIS1_EDpOT_' type='func-type' binding='weak-binding' visibility='default-visibility' alias='_ZNSt7__cxx114listI8MyoTableSaIS1_EE14_M_create_nodeIIS1_EEEPSt10_List_nodeIS1_EDpOT_' is-defined='yes'/>
    <elf-symbol name='_ZNSt7__cxx114listI8MyoTableSaIS1_EE3endEv' type='func-type' binding='weak-binding' visibility='default-visibility' is-defined='yes'/>
    <elf-symbol name='_ZNSt7__cxx114listI8MyoTableSaIS1_EE5beginEv' type='func-type' binding='weak-binding' visibility='default-visibility' is-defined='yes'/>
    <elf-symbol name='_ZNSt7__cxx114listI8MyoTableSaIS1_EE5clearEv' type='func-type' binding='weak-binding' visibility='default-visibility' is-defined='yes'/>
    <elf-symbol name='_ZNSt7__cxx114listI8MyoTableSaIS1_EE9_M_insertIIS1_EEEvSt14_List_iteratorIS1_EDpOT_' type='func-type' binding='weak-binding' visibility='default-visibility' is-defined='yes'/>
    <elf-symbol name='_ZNSt7__cxx114listI8MyoTableSaIS1_EE9_M_insertIJS1_EEEvSt14_List_iteratorIS1_EDpOT_' type='func-type' binding='weak-binding' visibility='default-visibility' alias='_ZNSt7__cxx114listI8MyoTableSaIS1_EE9_M_insertIIS1_EEEvSt14_List_iteratorIS1_EDpOT_' is-defined='yes'/>
    <elf-symbol name='_ZNSt7__cxx114listI8MyoTableSaIS1_EE9push_backEOS1_' type='func-type' binding='weak-binding' visibility='default-visibility' is-defined='yes'/>
    <elf-symbol name='_ZNSt7__cxx114listI8MyoTableSaIS1_EEC1Ev' type='func-type' binding='weak-binding' visibility='default-visibility' is-defined='yes'/>
    <elf-symbol name='_ZNSt7__cxx114listI8MyoTableSaIS1_EEC2Ev' type='func-type' binding='weak-binding' visibility='default-visibility' alias='_ZNSt7__cxx114listI8MyoTableSaIS1_EEC1Ev' is-defined='yes'/>
    <elf-symbol name='_ZNSt7__cxx114listI8MyoTableSaIS1_EED1Ev' type='func-type' binding='weak-binding' visibility='default-visibility' is-defined='yes'/>
    <elf-symbol name='_ZNSt7__cxx114listI8MyoTableSaIS1_EED2Ev' type='func-type' binding='weak-binding' visibility='default-visibility' alias='_ZNSt7__cxx114listI8MyoTableSaIS1_EED1Ev' is-defined='yes'/>
    <elf-symbol name='_ZNSt7__cxx114listIP7PtrDataSaIS2_EE10push_frontERKS2_' type='func-type' binding='weak-binding' visibility='default-visibility' is-defined='yes'/>
    <elf-symbol name='_ZNSt7__cxx114listIP7PtrDataSaIS2_EE14_M_create_nodeIIRKS2_EEEPSt10_List_nodeIS2_EDpOT_' type='func-type' binding='weak-binding' visibility='default-visibility' is-defined='yes'/>
    <elf-symbol name='_ZNSt7__cxx114listIP7PtrDataSaIS2_EE14_M_create_nodeIJRKS2_EEEPSt10_List_nodeIS2_EDpOT_' type='func-type' binding='weak-binding' visibility='default-visibility' alias='_ZNSt7__cxx114listIP7PtrDataSaIS2_EE14_M_create_nodeIIRKS2_EEEPSt10_List_nodeIS2_EDpOT_' is-defined='yes'/>
    <elf-symbol name='_ZNSt7__cxx114listIP7PtrDataSaIS2_EE3endEv' type='func-type' binding='weak-binding' visibility='default-visibility' is-defined='yes'/>
    <elf-symbol name='_ZNSt7__cxx114listIP7PtrDataSaIS2_EE5beginEv' type='func-type' binding='weak-binding' visibility='default-visibility' is-defined='yes'/>
    <elf-symbol name='_ZNSt7__cxx114listIP7PtrDataSaIS2_EE5clearEv' type='func-type' binding='weak-binding' visibility='default-visibility' is-defined='yes'/>
    <elf-symbol name='_ZNSt7__cxx114listIP7PtrDataSaIS2_EE9_M_insertIIRKS2_EEEvSt14_List_iteratorIS2_EDpOT_' type='func-type' binding='weak-binding' visibility='default-visibility' is-defined='yes'/>
    <elf-symbol name='_ZNSt7__cxx114listIP7PtrDataSaIS2_EE9_M_insertIJRKS2_EEEvSt14_List_iteratorIS2_EDpOT_' type='func-type' binding='weak-binding' visibility='default-visibility' alias='_ZNSt7__cxx114listIP7PtrDataSaIS2_EE9_M_insertIIRKS2_EEEvSt14_List_iteratorIS2_EDpOT_' is-defined='yes'/>
    <elf-symbol name='_ZNSt7__cxx114listIP7PtrDataSaIS2_EEC1Ev' type='func-type' binding='weak-binding' visibility='default-visibility' is-defined='yes'/>
    <elf-symbol name='_ZNSt7__cxx114listIP7PtrDataSaIS2_EEC2Ev' type='func-type' binding='weak-binding' visibility='default-visibility' alias='_ZNSt7__cxx114listIP7PtrDataSaIS2_EEC1Ev' is-defined='yes'/>
    <elf-symbol name='_ZNSt7__cxx114listIP7PtrDataSaIS2_EED1Ev' type='func-type' binding='weak-binding' visibility='default-visibility' alias='_ZNSt7__cxx114listIP7PtrDataSaIS2_EED2Ev' is-defined='yes'/>
    <elf-symbol name='_ZNSt7__cxx114listIP7PtrDataSaIS2_EED2Ev' type='func-type' binding='weak-binding' visibility='default-visibility' is-defined='yes'/>
    <elf-symbol name='_ZNSt7__cxx114listIP9coibufferSaIS2_EE14_M_create_nodeIIRKS2_EEEPSt10_List_nodeIS2_EDpOT_' type='func-type' binding='weak-binding' visibility='default-visibility' is-defined='yes'/>
    <elf-symbol name='_ZNSt7__cxx114listIP9coibufferSaIS2_EE14_M_create_nodeIJRKS2_EEEPSt10_List_nodeIS2_EDpOT_' type='func-type' binding='weak-binding' visibility='default-visibility' alias='_ZNSt7__cxx114listIP9coibufferSaIS2_EE14_M_create_nodeIIRKS2_EEEPSt10_List_nodeIS2_EDpOT_' is-defined='yes'/>
    <elf-symbol name='_ZNSt7__cxx114listIP9coibufferSaIS2_EE3endEv' type='func-type' binding='weak-binding' visibility='default-visibility' is-defined='yes'/>
    <elf-symbol name='_ZNSt7__cxx114listIP9coibufferSaIS2_EE5beginEv' type='func-type' binding='weak-binding' visibility='default-visibility' is-defined='yes'/>
    <elf-symbol name='_ZNSt7__cxx114listIP9coibufferSaIS2_EE9_M_insertIIRKS2_EEEvSt14_List_iteratorIS2_EDpOT_' type='func-type' binding='weak-binding' visibility='default-visibility' is-defined='yes'/>
    <elf-symbol name='_ZNSt7__cxx114listIP9coibufferSaIS2_EE9_M_insertIJRKS2_EEEvSt14_List_iteratorIS2_EDpOT_' type='func-type' binding='weak-binding' visibility='default-visibility' alias='_ZNSt7__cxx114listIP9coibufferSaIS2_EE9_M_insertIIRKS2_EEEvSt14_List_iteratorIS2_EDpOT_' is-defined='yes'/>
    <elf-symbol name='_ZNSt7__cxx114listIP9coibufferSaIS2_EE9push_backERKS2_' type='func-type' binding='weak-binding' visibility='default-visibility' is-defined='yes'/>
    <elf-symbol name='_ZNSt7__cxx114listIP9coibufferSaIS2_EEC1Ev' type='func-type' binding='weak-binding' visibility='default-visibility' is-defined='yes'/>
    <elf-symbol name='_ZNSt7__cxx114listIP9coibufferSaIS2_EEC2Ev' type='func-type' binding='weak-binding' visibility='default-visibility' alias='_ZNSt7__cxx114listIP9coibufferSaIS2_EEC1Ev' is-defined='yes'/>
    <elf-symbol name='_ZNSt7__cxx114listIP9coibufferSaIS2_EED1Ev' type='func-type' binding='weak-binding' visibility='default-visibility' alias='_ZNSt7__cxx114listIP9coibufferSaIS2_EED2Ev' is-defined='yes'/>
    <elf-symbol name='_ZNSt7__cxx114listIP9coibufferSaIS2_EED2Ev' type='func-type' binding='weak-binding' visibility='default-visibility' is-defined='yes'/>
    <elf-symbol name='_ZNSt7__cxx114listIPcSaIS1_EE14_M_create_nodeIIRKS1_EEEPSt10_List_nodeIS1_EDpOT_' type='func-type' binding='weak-binding' visibility='default-visibility' is-defined='yes'/>
    <elf-symbol name='_ZNSt7__cxx114listIPcSaIS1_EE14_M_create_nodeIJRKS1_EEEPSt10_List_nodeIS1_EDpOT_' type='func-type' binding='weak-binding' visibility='default-visibility' alias='_ZNSt7__cxx114listIPcSaIS1_EE14_M_create_nodeIIRKS1_EEEPSt10_List_nodeIS1_EDpOT_' is-defined='yes'/>
    <elf-symbol name='_ZNSt7__cxx114listIPcSaIS1_EE3endEv' type='func-type' binding='weak-binding' visibility='default-visibility' is-defined='yes'/>
    <elf-symbol name='_ZNSt7__cxx114listIPcSaIS1_EE5beginEv' type='func-type' binding='weak-binding' visibility='default-visibility' is-defined='yes'/>
    <elf-symbol name='_ZNSt7__cxx114listIPcSaIS1_EE9_M_insertIIRKS1_EEEvSt14_List_iteratorIS1_EDpOT_' type='func-type' binding='weak-binding' visibility='default-visibility' is-defined='yes'/>
    <elf-symbol name='_ZNSt7__cxx114listIPcSaIS1_EE9_M_insertIJRKS1_EEEvSt14_List_iteratorIS1_EDpOT_' type='func-type' binding='weak-binding' visibility='default-visibility' alias='_ZNSt7__cxx114listIPcSaIS1_EE9_M_insertIIRKS1_EEEvSt14_List_iteratorIS1_EDpOT_' is-defined='yes'/>
    <elf-symbol name='_ZNSt7__cxx114listIPcSaIS1_EE9push_backERKS1_' type='func-type' binding='weak-binding' visibility='default-visibility' is-defined='yes'/>
    <elf-symbol name='_ZNSt7__cxx114listIPcSaIS1_EEC1Ev' type='func-type' binding='weak-binding' visibility='default-visibility' is-defined='yes'/>
    <elf-symbol name='_ZNSt7__cxx114listIPcSaIS1_EEC2Ev' type='func-type' binding='weak-binding' visibility='default-visibility' alias='_ZNSt7__cxx114listIPcSaIS1_EEC1Ev' is-defined='yes'/>
    <elf-symbol name='_ZNSt7__cxx114listIPcSaIS1_EED1Ev' type='func-type' binding='weak-binding' visibility='default-visibility' alias='_ZNSt7__cxx114listIPcSaIS1_EED2Ev' is-defined='yes'/>
    <elf-symbol name='_ZNSt7__cxx114listIPcSaIS1_EED2Ev' type='func-type' binding='weak-binding' visibility='default-visibility' is-defined='yes'/>
    <elf-symbol name='_ZNSt8_Rb_treeI7PtrDataS0_St9_IdentityIS0_ESt4lessIS0_ESaIS0_EE10_M_insert_IS0_NS6_11_Alloc_nodeEEESt17_Rb_tree_iteratorIS0_EPSt18_Rb_tree_node_baseSC_OT_RT0_' type='func-type' binding='weak-binding' visibility='default-visibility' is-defined='yes'/>
    <elf-symbol name='_ZNSt8_Rb_treeI7PtrDataS0_St9_IdentityIS0_ESt4lessIS0_ESaIS0_EE11_Alloc_nodeC1ERS6_' type='func-type' binding='weak-binding' visibility='default-visibility' is-defined='yes'/>
    <elf-symbol name='_ZNSt8_Rb_treeI7PtrDataS0_St9_IdentityIS0_ESt4lessIS0_ESaIS0_EE11_Alloc_nodeC2ERS6_' type='func-type' binding='weak-binding' visibility='default-visibility' alias='_ZNSt8_Rb_treeI7PtrDataS0_St9_IdentityIS0_ESt4lessIS0_ESaIS0_EE11_Alloc_nodeC1ERS6_' is-defined='yes'/>
    <elf-symbol name='_ZNSt8_Rb_treeI7PtrDataS0_St9_IdentityIS0_ESt4lessIS0_ESaIS0_EE11_M_get_nodeEv' type='func-type' binding='weak-binding' visibility='default-visibility' is-defined='yes'/>
    <elf-symbol name='_ZNSt8_Rb_treeI7PtrDataS0_St9_IdentityIS0_ESt4lessIS0_ESaIS0_EE11_M_put_nodeEPSt13_Rb_tree_nodeIS0_E' type='func-type' binding='weak-binding' visibility='default-visibility' is-defined='yes'/>
    <elf-symbol name='_ZNSt8_Rb_treeI7PtrDataS0_St9_IdentityIS0_ESt4lessIS0_ESaIS0_EE11equal_rangeERKS0_' type='func-type' binding='weak-binding' visibility='default-visibility' is-defined='yes'/>
    <elf-symbol name='_ZNSt8_Rb_treeI7PtrDataS0_St9_IdentityIS0_ESt4lessIS0_ESaIS0_EE12_M_drop_nodeEPSt13_Rb_tree_nodeIS0_E' type='func-type' binding='weak-binding' visibility='default-visibility' is-defined='yes'/>
    <elf-symbol name='_ZNSt8_Rb_treeI7PtrDataS0_St9_IdentityIS0_ESt4lessIS0_ESaIS0_EE12_M_erase_auxESt23_Rb_tree_const_iteratorIS0_E' type='func-type' binding='weak-binding' visibility='default-visibility' is-defined='yes'/>
    <elf-symbol name='_ZNSt8_Rb_treeI7PtrDataS0_St9_IdentityIS0_ESt4lessIS0_ESaIS0_EE12_M_erase_auxESt23_Rb_tree_const_iteratorIS0_ES8_' type='func-type' binding='weak-binding' visibility='default-visibility' is-defined='yes'/>
    <elf-symbol name='_ZNSt8_Rb_treeI7PtrDataS0_St9_IdentityIS0_ESt4lessIS0_ESaIS0_EE13_Rb_tree_implIS4_Lb1EE13_M_initializeEv' type='func-type' binding='weak-binding' visibility='default-visibility' is-defined='yes'/>
    <elf-symbol name='_ZNSt8_Rb_treeI7PtrDataS0_St9_IdentityIS0_ESt4lessIS0_ESaIS0_EE13_Rb_tree_implIS4_Lb1EE8_M_resetEv' type='func-type' binding='weak-binding' visibility='default-visibility' is-defined='yes'/>
    <elf-symbol name='_ZNSt8_Rb_treeI7PtrDataS0_St9_IdentityIS0_ESt4lessIS0_ESaIS0_EE13_Rb_tree_implIS4_Lb1EEC1Ev' type='func-type' binding='weak-binding' visibility='default-visibility' is-defined='yes'/>
    <elf-symbol name='_ZNSt8_Rb_treeI7PtrDataS0_St9_IdentityIS0_ESt4lessIS0_ESaIS0_EE13_Rb_tree_implIS4_Lb1EEC2Ev' type='func-type' binding='weak-binding' visibility='default-visibility' alias='_ZNSt8_Rb_treeI7PtrDataS0_St9_IdentityIS0_ESt4lessIS0_ESaIS0_EE13_Rb_tree_implIS4_Lb1EEC1Ev' is-defined='yes'/>
    <elf-symbol name='_ZNSt8_Rb_treeI7PtrDataS0_St9_IdentityIS0_ESt4lessIS0_ESaIS0_EE13_Rb_tree_implIS4_Lb1EED1Ev' type='func-type' binding='weak-binding' visibility='default-visibility' is-defined='yes'/>
    <elf-symbol name='_ZNSt8_Rb_treeI7PtrDataS0_St9_IdentityIS0_ESt4lessIS0_ESaIS0_EE13_Rb_tree_implIS4_Lb1EED2Ev' type='func-type' binding='weak-binding' visibility='default-visibility' alias='_ZNSt8_Rb_treeI7PtrDataS0_St9_IdentityIS0_ESt4lessIS0_ESaIS0_EE13_Rb_tree_implIS4_Lb1EED1Ev' is-defined='yes'/>
    <elf-symbol name='_ZNSt8_Rb_treeI7PtrDataS0_St9_IdentityIS0_ESt4lessIS0_ESaIS0_EE14_M_create_nodeIIS0_EEEPSt13_Rb_tree_nodeIS0_EDpOT_' type='func-type' binding='weak-binding' visibility='default-visibility' is-defined='yes'/>
    <elf-symbol name='_ZNSt8_Rb_treeI7PtrDataS0_St9_IdentityIS0_ESt4lessIS0_ESaIS0_EE14_M_create_nodeIJS0_EEEPSt13_Rb_tree_nodeIS0_EDpOT_' type='func-type' binding='weak-binding' visibility='default-visibility' alias='_ZNSt8_Rb_treeI7PtrDataS0_St9_IdentityIS0_ESt4lessIS0_ESaIS0_EE14_M_create_nodeIIS0_EEEPSt13_Rb_tree_nodeIS0_EDpOT_' is-defined='yes'/>
    <elf-symbol name='_ZNSt8_Rb_treeI7PtrDataS0_St9_IdentityIS0_ESt4lessIS0_ESaIS0_EE14_M_lower_boundEPSt13_Rb_tree_nodeIS0_EPSt18_Rb_tree_node_baseRKS0_' type='func-type' binding='weak-binding' visibility='default-visibility' is-defined='yes'/>
    <elf-symbol name='_ZNSt8_Rb_treeI7PtrDataS0_St9_IdentityIS0_ESt4lessIS0_ESaIS0_EE14_M_upper_boundEPSt13_Rb_tree_nodeIS0_EPSt18_Rb_tree_node_baseRKS0_' type='func-type' binding='weak-binding' visibility='default-visibility' is-defined='yes'/>
    <elf-symbol name='_ZNSt8_Rb_treeI7PtrDataS0_St9_IdentityIS0_ESt4lessIS0_ESaIS0_EE15_M_destroy_nodeEPSt13_Rb_tree_nodeIS0_E' type='func-type' binding='weak-binding' visibility='default-visibility' is-defined='yes'/>
    <elf-symbol name='_ZNSt8_Rb_treeI7PtrDataS0_St9_IdentityIS0_ESt4lessIS0_ESaIS0_EE16_M_insert_uniqueIS0_EESt4pairISt17_Rb_tree_iteratorIS0_EbEOT_' type='func-type' binding='weak-binding' visibility='default-visibility' is-defined='yes'/>
    <elf-symbol name='_ZNSt8_Rb_treeI7PtrDataS0_St9_IdentityIS0_ESt4lessIS0_ESaIS0_EE17_M_construct_nodeIIS0_EEEvPSt13_Rb_tree_nodeIS0_EDpOT_' type='func-type' binding='weak-binding' visibility='default-visibility' is-defined='yes'/>
    <elf-symbol name='_ZNSt8_Rb_treeI7PtrDataS0_St9_IdentityIS0_ESt4lessIS0_ESaIS0_EE17_M_construct_nodeIJS0_EEEvPSt13_Rb_tree_nodeIS0_EDpOT_' type='func-type' binding='weak-binding' visibility='default-visibility' alias='_ZNSt8_Rb_treeI7PtrDataS0_St9_IdentityIS0_ESt4lessIS0_ESaIS0_EE17_M_construct_nodeIIS0_EEEvPSt13_Rb_tree_nodeIS0_EDpOT_' is-defined='yes'/>
    <elf-symbol name='_ZNSt8_Rb_treeI7PtrDataS0_St9_IdentityIS0_ESt4lessIS0_ESaIS0_EE21_M_get_Node_allocatorEv' type='func-type' binding='weak-binding' visibility='default-visibility' is-defined='yes'/>
    <elf-symbol name='_ZNSt8_Rb_treeI7PtrDataS0_St9_IdentityIS0_ESt4lessIS0_ESaIS0_EE24_M_get_insert_unique_posERKS0_' type='func-type' binding='weak-binding' visibility='default-visibility' is-defined='yes'/>
    <elf-symbol name='_ZNSt8_Rb_treeI7PtrDataS0_St9_IdentityIS0_ESt4lessIS0_ESaIS0_EE3endEv' type='func-type' binding='weak-binding' visibility='default-visibility' is-defined='yes'/>
    <elf-symbol name='_ZNSt8_Rb_treeI7PtrDataS0_St9_IdentityIS0_ESt4lessIS0_ESaIS0_EE4findERKS0_' type='func-type' binding='weak-binding' visibility='default-visibility' is-defined='yes'/>
    <elf-symbol name='_ZNSt8_Rb_treeI7PtrDataS0_St9_IdentityIS0_ESt4lessIS0_ESaIS0_EE5beginEv' type='func-type' binding='weak-binding' visibility='default-visibility' is-defined='yes'/>
    <elf-symbol name='_ZNSt8_Rb_treeI7PtrDataS0_St9_IdentityIS0_ESt4lessIS0_ESaIS0_EE5clearEv' type='func-type' binding='weak-binding' visibility='default-visibility' is-defined='yes'/>
    <elf-symbol name='_ZNSt8_Rb_treeI7PtrDataS0_St9_IdentityIS0_ESt4lessIS0_ESaIS0_EE5eraseB5cxx11ESt23_Rb_tree_const_iteratorIS0_E' type='func-type' binding='weak-binding' visibility='default-visibility' is-defined='yes'/>
    <elf-symbol name='_ZNSt8_Rb_treeI7PtrDataS0_St9_IdentityIS0_ESt4lessIS0_ESaIS0_EE5eraseB5cxx11ESt23_Rb_tree_const_iteratorIS0_ES8_' type='func-type' binding='weak-binding' visibility='default-visibility' is-defined='yes'/>
    <elf-symbol name='_ZNSt8_Rb_treeI7PtrDataS0_St9_IdentityIS0_ESt4lessIS0_ESaIS0_EE5eraseERKS0_' type='func-type' binding='weak-binding' visibility='default-visibility' is-defined='yes'/>
    <elf-symbol name='_ZNSt8_Rb_treeI7PtrDataS0_St9_IdentityIS0_ESt4lessIS0_ESaIS0_EE6_M_endEv' type='func-type' binding='weak-binding' visibility='default-visibility' is-defined='yes'/>
    <elf-symbol name='_ZNSt8_Rb_treeI7PtrDataS0_St9_IdentityIS0_ESt4lessIS0_ESaIS0_EE6_S_keyEPKSt13_Rb_tree_nodeIS0_E' type='func-type' binding='weak-binding' visibility='default-visibility' is-defined='yes'/>
    <elf-symbol name='_ZNSt8_Rb_treeI7PtrDataS0_St9_IdentityIS0_ESt4lessIS0_ESaIS0_EE6_S_keyEPKSt18_Rb_tree_node_base' type='func-type' binding='weak-binding' visibility='default-visibility' is-defined='yes'/>
    <elf-symbol name='_ZNSt8_Rb_treeI7PtrDataS0_St9_IdentityIS0_ESt4lessIS0_ESaIS0_EE7_S_leftEPSt18_Rb_tree_node_base' type='func-type' binding='weak-binding' visibility='default-visibility' is-defined='yes'/>
    <elf-symbol name='_ZNSt8_Rb_treeI7PtrDataS0_St9_IdentityIS0_ESt4lessIS0_ESaIS0_EE8_M_beginEv' type='func-type' binding='weak-binding' visibility='default-visibility' is-defined='yes'/>
    <elf-symbol name='_ZNSt8_Rb_treeI7PtrDataS0_St9_IdentityIS0_ESt4lessIS0_ESaIS0_EE8_M_eraseEPSt13_Rb_tree_nodeIS0_E' type='func-type' binding='weak-binding' visibility='default-visibility' is-defined='yes'/>
    <elf-symbol name='_ZNSt8_Rb_treeI7PtrDataS0_St9_IdentityIS0_ESt4lessIS0_ESaIS0_EE8_S_rightEPSt18_Rb_tree_node_base' type='func-type' binding='weak-binding' visibility='default-visibility' is-defined='yes'/>
    <elf-symbol name='_ZNSt8_Rb_treeI7PtrDataS0_St9_IdentityIS0_ESt4lessIS0_ESaIS0_EE8_S_valueEPKSt13_Rb_tree_nodeIS0_E' type='func-type' binding='weak-binding' visibility='default-visibility' is-defined='yes'/>
    <elf-symbol name='_ZNSt8_Rb_treeI7PtrDataS0_St9_IdentityIS0_ESt4lessIS0_ESaIS0_EE8_S_valueEPKSt18_Rb_tree_node_base' type='func-type' binding='weak-binding' visibility='default-visibility' is-defined='yes'/>
    <elf-symbol name='_ZNSt8_Rb_treeI7PtrDataS0_St9_IdentityIS0_ESt4lessIS0_ESaIS0_EEC1Ev' type='func-type' binding='weak-binding' visibility='default-visibility' is-defined='yes'/>
    <elf-symbol name='_ZNSt8_Rb_treeI7PtrDataS0_St9_IdentityIS0_ESt4lessIS0_ESaIS0_EEC2Ev' type='func-type' binding='weak-binding' visibility='default-visibility' alias='_ZNSt8_Rb_treeI7PtrDataS0_St9_IdentityIS0_ESt4lessIS0_ESaIS0_EEC1Ev' is-defined='yes'/>
    <elf-symbol name='_ZNSt8_Rb_treeI7PtrDataS0_St9_IdentityIS0_ESt4lessIS0_ESaIS0_EED1Ev' type='func-type' binding='weak-binding' visibility='default-visibility' is-defined='yes'/>
    <elf-symbol name='_ZNSt8_Rb_treeI7PtrDataS0_St9_IdentityIS0_ESt4lessIS0_ESaIS0_EED2Ev' type='func-type' binding='weak-binding' visibility='default-visibility' alias='_ZNSt8_Rb_treeI7PtrDataS0_St9_IdentityIS0_ESt4lessIS0_ESaIS0_EED1Ev' is-defined='yes'/>
    <elf-symbol name='_ZNSt8_Rb_treeI8AutoDataS0_St9_IdentityIS0_ESt4lessIS0_ESaIS0_EE10_M_insert_IS0_NS6_11_Alloc_nodeEEESt17_Rb_tree_iteratorIS0_EPSt18_Rb_tree_node_baseSC_OT_RT0_' type='func-type' binding='weak-binding' visibility='default-visibility' is-defined='yes'/>
    <elf-symbol name='_ZNSt8_Rb_treeI8AutoDataS0_St9_IdentityIS0_ESt4lessIS0_ESaIS0_EE11_Alloc_nodeC1ERS6_' type='func-type' binding='weak-binding' visibility='default-visibility' is-defined='yes'/>
    <elf-symbol name='_ZNSt8_Rb_treeI8AutoDataS0_St9_IdentityIS0_ESt4lessIS0_ESaIS0_EE11_Alloc_nodeC2ERS6_' type='func-type' binding='weak-binding' visibility='default-visibility' alias='_ZNSt8_Rb_treeI8AutoDataS0_St9_IdentityIS0_ESt4lessIS0_ESaIS0_EE11_Alloc_nodeC1ERS6_' is-defined='yes'/>
    <elf-symbol name='_ZNSt8_Rb_treeI8AutoDataS0_St9_IdentityIS0_ESt4lessIS0_ESaIS0_EE11_M_get_nodeEv' type='func-type' binding='weak-binding' visibility='default-visibility' is-defined='yes'/>
    <elf-symbol name='_ZNSt8_Rb_treeI8AutoDataS0_St9_IdentityIS0_ESt4lessIS0_ESaIS0_EE11_M_put_nodeEPSt13_Rb_tree_nodeIS0_E' type='func-type' binding='weak-binding' visibility='default-visibility' is-defined='yes'/>
    <elf-symbol name='_ZNSt8_Rb_treeI8AutoDataS0_St9_IdentityIS0_ESt4lessIS0_ESaIS0_EE11equal_rangeERKS0_' type='func-type' binding='weak-binding' visibility='default-visibility' is-defined='yes'/>
    <elf-symbol name='_ZNSt8_Rb_treeI8AutoDataS0_St9_IdentityIS0_ESt4lessIS0_ESaIS0_EE12_M_drop_nodeEPSt13_Rb_tree_nodeIS0_E' type='func-type' binding='weak-binding' visibility='default-visibility' is-defined='yes'/>
    <elf-symbol name='_ZNSt8_Rb_treeI8AutoDataS0_St9_IdentityIS0_ESt4lessIS0_ESaIS0_EE12_M_erase_auxESt23_Rb_tree_const_iteratorIS0_E' type='func-type' binding='weak-binding' visibility='default-visibility' is-defined='yes'/>
    <elf-symbol name='_ZNSt8_Rb_treeI8AutoDataS0_St9_IdentityIS0_ESt4lessIS0_ESaIS0_EE12_M_erase_auxESt23_Rb_tree_const_iteratorIS0_ES8_' type='func-type' binding='weak-binding' visibility='default-visibility' is-defined='yes'/>
    <elf-symbol name='_ZNSt8_Rb_treeI8AutoDataS0_St9_IdentityIS0_ESt4lessIS0_ESaIS0_EE13_Rb_tree_implIS4_Lb1EE13_M_initializeEv' type='func-type' binding='weak-binding' visibility='default-visibility' is-defined='yes'/>
    <elf-symbol name='_ZNSt8_Rb_treeI8AutoDataS0_St9_IdentityIS0_ESt4lessIS0_ESaIS0_EE13_Rb_tree_implIS4_Lb1EE8_M_resetEv' type='func-type' binding='weak-binding' visibility='default-visibility' is-defined='yes'/>
    <elf-symbol name='_ZNSt8_Rb_treeI8AutoDataS0_St9_IdentityIS0_ESt4lessIS0_ESaIS0_EE13_Rb_tree_implIS4_Lb1EEC1Ev' type='func-type' binding='weak-binding' visibility='default-visibility' is-defined='yes'/>
    <elf-symbol name='_ZNSt8_Rb_treeI8AutoDataS0_St9_IdentityIS0_ESt4lessIS0_ESaIS0_EE13_Rb_tree_implIS4_Lb1EEC2Ev' type='func-type' binding='weak-binding' visibility='default-visibility' alias='_ZNSt8_Rb_treeI8AutoDataS0_St9_IdentityIS0_ESt4lessIS0_ESaIS0_EE13_Rb_tree_implIS4_Lb1EEC1Ev' is-defined='yes'/>
    <elf-symbol name='_ZNSt8_Rb_treeI8AutoDataS0_St9_IdentityIS0_ESt4lessIS0_ESaIS0_EE13_Rb_tree_implIS4_Lb1EED1Ev' type='func-type' binding='weak-binding' visibility='default-visibility' is-defined='yes'/>
    <elf-symbol name='_ZNSt8_Rb_treeI8AutoDataS0_St9_IdentityIS0_ESt4lessIS0_ESaIS0_EE13_Rb_tree_implIS4_Lb1EED2Ev' type='func-type' binding='weak-binding' visibility='default-visibility' alias='_ZNSt8_Rb_treeI8AutoDataS0_St9_IdentityIS0_ESt4lessIS0_ESaIS0_EE13_Rb_tree_implIS4_Lb1EED1Ev' is-defined='yes'/>
    <elf-symbol name='_ZNSt8_Rb_treeI8AutoDataS0_St9_IdentityIS0_ESt4lessIS0_ESaIS0_EE14_M_create_nodeIIS0_EEEPSt13_Rb_tree_nodeIS0_EDpOT_' type='func-type' binding='weak-binding' visibility='default-visibility' is-defined='yes'/>
    <elf-symbol name='_ZNSt8_Rb_treeI8AutoDataS0_St9_IdentityIS0_ESt4lessIS0_ESaIS0_EE14_M_create_nodeIJS0_EEEPSt13_Rb_tree_nodeIS0_EDpOT_' type='func-type' binding='weak-binding' visibility='default-visibility' alias='_ZNSt8_Rb_treeI8AutoDataS0_St9_IdentityIS0_ESt4lessIS0_ESaIS0_EE14_M_create_nodeIIS0_EEEPSt13_Rb_tree_nodeIS0_EDpOT_' is-defined='yes'/>
    <elf-symbol name='_ZNSt8_Rb_treeI8AutoDataS0_St9_IdentityIS0_ESt4lessIS0_ESaIS0_EE14_M_lower_boundEPSt13_Rb_tree_nodeIS0_EPSt18_Rb_tree_node_baseRKS0_' type='func-type' binding='weak-binding' visibility='default-visibility' is-defined='yes'/>
    <elf-symbol name='_ZNSt8_Rb_treeI8AutoDataS0_St9_IdentityIS0_ESt4lessIS0_ESaIS0_EE14_M_upper_boundEPSt13_Rb_tree_nodeIS0_EPSt18_Rb_tree_node_baseRKS0_' type='func-type' binding='weak-binding' visibility='default-visibility' is-defined='yes'/>
    <elf-symbol name='_ZNSt8_Rb_treeI8AutoDataS0_St9_IdentityIS0_ESt4lessIS0_ESaIS0_EE15_M_destroy_nodeEPSt13_Rb_tree_nodeIS0_E' type='func-type' binding='weak-binding' visibility='default-visibility' is-defined='yes'/>
    <elf-symbol name='_ZNSt8_Rb_treeI8AutoDataS0_St9_IdentityIS0_ESt4lessIS0_ESaIS0_EE16_M_insert_uniqueIS0_EESt4pairISt17_Rb_tree_iteratorIS0_EbEOT_' type='func-type' binding='weak-binding' visibility='default-visibility' is-defined='yes'/>
    <elf-symbol name='_ZNSt8_Rb_treeI8AutoDataS0_St9_IdentityIS0_ESt4lessIS0_ESaIS0_EE17_M_construct_nodeIIS0_EEEvPSt13_Rb_tree_nodeIS0_EDpOT_' type='func-type' binding='weak-binding' visibility='default-visibility' is-defined='yes'/>
    <elf-symbol name='_ZNSt8_Rb_treeI8AutoDataS0_St9_IdentityIS0_ESt4lessIS0_ESaIS0_EE17_M_construct_nodeIJS0_EEEvPSt13_Rb_tree_nodeIS0_EDpOT_' type='func-type' binding='weak-binding' visibility='default-visibility' alias='_ZNSt8_Rb_treeI8AutoDataS0_St9_IdentityIS0_ESt4lessIS0_ESaIS0_EE17_M_construct_nodeIIS0_EEEvPSt13_Rb_tree_nodeIS0_EDpOT_' is-defined='yes'/>
    <elf-symbol name='_ZNSt8_Rb_treeI8AutoDataS0_St9_IdentityIS0_ESt4lessIS0_ESaIS0_EE21_M_get_Node_allocatorEv' type='func-type' binding='weak-binding' visibility='default-visibility' is-defined='yes'/>
    <elf-symbol name='_ZNSt8_Rb_treeI8AutoDataS0_St9_IdentityIS0_ESt4lessIS0_ESaIS0_EE24_M_get_insert_unique_posERKS0_' type='func-type' binding='weak-binding' visibility='default-visibility' is-defined='yes'/>
    <elf-symbol name='_ZNSt8_Rb_treeI8AutoDataS0_St9_IdentityIS0_ESt4lessIS0_ESaIS0_EE3endEv' type='func-type' binding='weak-binding' visibility='default-visibility' is-defined='yes'/>
    <elf-symbol name='_ZNSt8_Rb_treeI8AutoDataS0_St9_IdentityIS0_ESt4lessIS0_ESaIS0_EE4findERKS0_' type='func-type' binding='weak-binding' visibility='default-visibility' is-defined='yes'/>
    <elf-symbol name='_ZNSt8_Rb_treeI8AutoDataS0_St9_IdentityIS0_ESt4lessIS0_ESaIS0_EE5beginEv' type='func-type' binding='weak-binding' visibility='default-visibility' is-defined='yes'/>
    <elf-symbol name='_ZNSt8_Rb_treeI8AutoDataS0_St9_IdentityIS0_ESt4lessIS0_ESaIS0_EE5clearEv' type='func-type' binding='weak-binding' visibility='default-visibility' is-defined='yes'/>
    <elf-symbol name='_ZNSt8_Rb_treeI8AutoDataS0_St9_IdentityIS0_ESt4lessIS0_ESaIS0_EE5eraseB5cxx11ESt23_Rb_tree_const_iteratorIS0_E' type='func-type' binding='weak-binding' visibility='default-visibility' is-defined='yes'/>
    <elf-symbol name='_ZNSt8_Rb_treeI8AutoDataS0_St9_IdentityIS0_ESt4lessIS0_ESaIS0_EE5eraseB5cxx11ESt23_Rb_tree_const_iteratorIS0_ES8_' type='func-type' binding='weak-binding' visibility='default-visibility' is-defined='yes'/>
    <elf-symbol name='_ZNSt8_Rb_treeI8AutoDataS0_St9_IdentityIS0_ESt4lessIS0_ESaIS0_EE5eraseERKS0_' type='func-type' binding='weak-binding' visibility='default-visibility' is-defined='yes'/>
    <elf-symbol name='_ZNSt8_Rb_treeI8AutoDataS0_St9_IdentityIS0_ESt4lessIS0_ESaIS0_EE6_M_endEv' type='func-type' binding='weak-binding' visibility='default-visibility' is-defined='yes'/>
    <elf-symbol name='_ZNSt8_Rb_treeI8AutoDataS0_St9_IdentityIS0_ESt4lessIS0_ESaIS0_EE6_S_keyEPKSt13_Rb_tree_nodeIS0_E' type='func-type' binding='weak-binding' visibility='default-visibility' is-defined='yes'/>
    <elf-symbol name='_ZNSt8_Rb_treeI8AutoDataS0_St9_IdentityIS0_ESt4lessIS0_ESaIS0_EE6_S_keyEPKSt18_Rb_tree_node_base' type='func-type' binding='weak-binding' visibility='default-visibility' is-defined='yes'/>
    <elf-symbol name='_ZNSt8_Rb_treeI8AutoDataS0_St9_IdentityIS0_ESt4lessIS0_ESaIS0_EE7_S_leftEPSt18_Rb_tree_node_base' type='func-type' binding='weak-binding' visibility='default-visibility' is-defined='yes'/>
    <elf-symbol name='_ZNSt8_Rb_treeI8AutoDataS0_St9_IdentityIS0_ESt4lessIS0_ESaIS0_EE8_M_beginEv' type='func-type' binding='weak-binding' visibility='default-visibility' is-defined='yes'/>
    <elf-symbol name='_ZNSt8_Rb_treeI8AutoDataS0_St9_IdentityIS0_ESt4lessIS0_ESaIS0_EE8_M_eraseEPSt13_Rb_tree_nodeIS0_E' type='func-type' binding='weak-binding' visibility='default-visibility' is-defined='yes'/>
    <elf-symbol name='_ZNSt8_Rb_treeI8AutoDataS0_St9_IdentityIS0_ESt4lessIS0_ESaIS0_EE8_S_rightEPSt18_Rb_tree_node_base' type='func-type' binding='weak-binding' visibility='default-visibility' is-defined='yes'/>
    <elf-symbol name='_ZNSt8_Rb_treeI8AutoDataS0_St9_IdentityIS0_ESt4lessIS0_ESaIS0_EE8_S_valueEPKSt13_Rb_tree_nodeIS0_E' type='func-type' binding='weak-binding' visibility='default-visibility' is-defined='yes'/>
    <elf-symbol name='_ZNSt8_Rb_treeI8AutoDataS0_St9_IdentityIS0_ESt4lessIS0_ESaIS0_EE8_S_valueEPKSt18_Rb_tree_node_base' type='func-type' binding='weak-binding' visibility='default-visibility' is-defined='yes'/>
    <elf-symbol name='_ZNSt8_Rb_treeI8AutoDataS0_St9_IdentityIS0_ESt4lessIS0_ESaIS0_EEC1Ev' type='func-type' binding='weak-binding' visibility='default-visibility' is-defined='yes'/>
    <elf-symbol name='_ZNSt8_Rb_treeI8AutoDataS0_St9_IdentityIS0_ESt4lessIS0_ESaIS0_EEC2Ev' type='func-type' binding='weak-binding' visibility='default-visibility' alias='_ZNSt8_Rb_treeI8AutoDataS0_St9_IdentityIS0_ESt4lessIS0_ESaIS0_EEC1Ev' is-defined='yes'/>
    <elf-symbol name='_ZNSt8_Rb_treeI8AutoDataS0_St9_IdentityIS0_ESt4lessIS0_ESaIS0_EED1Ev' type='func-type' binding='weak-binding' visibility='default-visibility' is-defined='yes'/>
    <elf-symbol name='_ZNSt8_Rb_treeI8AutoDataS0_St9_IdentityIS0_ESt4lessIS0_ESaIS0_EED2Ev' type='func-type' binding='weak-binding' visibility='default-visibility' alias='_ZNSt8_Rb_treeI8AutoDataS0_St9_IdentityIS0_ESt4lessIS0_ESaIS0_EED1Ev' is-defined='yes'/>
    <elf-symbol name='_ZNSt8_Rb_treeIPKvSt4pairIKS1_P17OffloadDescriptorESt10_Select1stIS6_ESt4lessIS1_ESaIS6_EE11_M_get_nodeEv' type='func-type' binding='weak-binding' visibility='default-visibility' is-defined='yes'/>
    <elf-symbol name='_ZNSt8_Rb_treeIPKvSt4pairIKS1_P17OffloadDescriptorESt10_Select1stIS6_ESt4lessIS1_ESaIS6_EE11_M_leftmostEv' type='func-type' binding='weak-binding' visibility='default-visibility' is-defined='yes'/>
    <elf-symbol name='_ZNSt8_Rb_treeIPKvSt4pairIKS1_P17OffloadDescriptorESt10_Select1stIS6_ESt4lessIS1_ESaIS6_EE11_M_put_nodeEPSt13_Rb_tree_nodeIS6_E' type='func-type' binding='weak-binding' visibility='default-visibility' is-defined='yes'/>
    <elf-symbol name='_ZNSt8_Rb_treeIPKvSt4pairIKS1_P17OffloadDescriptorESt10_Select1stIS6_ESt4lessIS1_ESaIS6_EE11lower_boundERS3_' type='func-type' binding='weak-binding' visibility='default-visibility' is-defined='yes'/>
    <elf-symbol name='_ZNSt8_Rb_treeIPKvSt4pairIKS1_P17OffloadDescriptorESt10_Select1stIS6_ESt4lessIS1_ESaIS6_EE12_M_drop_nodeEPSt13_Rb_tree_nodeIS6_E' type='func-type' binding='weak-binding' visibility='default-visibility' is-defined='yes'/>
    <elf-symbol name='_ZNSt8_Rb_treeIPKvSt4pairIKS1_P17OffloadDescriptorESt10_Select1stIS6_ESt4lessIS1_ESaIS6_EE12_M_rightmostEv' type='func-type' binding='weak-binding' visibility='default-visibility' is-defined='yes'/>
    <elf-symbol name='_ZNSt8_Rb_treeIPKvSt4pairIKS1_P17OffloadDescriptorESt10_Select1stIS6_ESt4lessIS1_ESaIS6_EE13_Rb_tree_implISA_Lb1EE13_M_initializeEv' type='func-type' binding='weak-binding' visibility='default-visibility' is-defined='yes'/>
    <elf-symbol name='_ZNSt8_Rb_treeIPKvSt4pairIKS1_P17OffloadDescriptorESt10_Select1stIS6_ESt4lessIS1_ESaIS6_EE13_Rb_tree_implISA_Lb1EEC1Ev' type='func-type' binding='weak-binding' visibility='default-visibility' is-defined='yes'/>
    <elf-symbol name='_ZNSt8_Rb_treeIPKvSt4pairIKS1_P17OffloadDescriptorESt10_Select1stIS6_ESt4lessIS1_ESaIS6_EE13_Rb_tree_implISA_Lb1EEC2Ev' type='func-type' binding='weak-binding' visibility='default-visibility' alias='_ZNSt8_Rb_treeIPKvSt4pairIKS1_P17OffloadDescriptorESt10_Select1stIS6_ESt4lessIS1_ESaIS6_EE13_Rb_tree_implISA_Lb1EEC1Ev' is-defined='yes'/>
    <elf-symbol name='_ZNSt8_Rb_treeIPKvSt4pairIKS1_P17OffloadDescriptorESt10_Select1stIS6_ESt4lessIS1_ESaIS6_EE13_Rb_tree_implISA_Lb1EED1Ev' type='func-type' binding='weak-binding' visibility='default-visibility' alias='_ZNSt8_Rb_treeIPKvSt4pairIKS1_P17OffloadDescriptorESt10_Select1stIS6_ESt4lessIS1_ESaIS6_EE13_Rb_tree_implISA_Lb1EED2Ev' is-defined='yes'/>
    <elf-symbol name='_ZNSt8_Rb_treeIPKvSt4pairIKS1_P17OffloadDescriptorESt10_Select1stIS6_ESt4lessIS1_ESaIS6_EE13_Rb_tree_implISA_Lb1EED2Ev' type='func-type' binding='weak-binding' visibility='default-visibility' is-defined='yes'/>
    <elf-symbol name='_ZNSt8_Rb_treeIPKvSt4pairIKS1_P17OffloadDescriptorESt10_Select1stIS6_ESt4lessIS1_ESaIS6_EE14_M_create_nodeIIRKSt21piecewise_construct_tSt5tupleIIRS3_EESH_IIEEEEEPSt13_Rb_tree_nodeIS6_EDpOT_' type='func-type' binding='weak-binding' visibility='default-visibility' is-defined='yes'/>
    <elf-symbol name='_ZNSt8_Rb_treeIPKvSt4pairIKS1_P17OffloadDescriptorESt10_Select1stIS6_ESt4lessIS1_ESaIS6_EE14_M_create_nodeIJRKSt21piecewise_construct_tSt5tupleIJRS3_EESH_IJEEEEEPSt13_Rb_tree_nodeIS6_EDpOT_' type='func-type' binding='weak-binding' visibility='default-visibility' alias='_ZNSt8_Rb_treeIPKvSt4pairIKS1_P17OffloadDescriptorESt10_Select1stIS6_ESt4lessIS1_ESaIS6_EE14_M_create_nodeIIRKSt21piecewise_construct_tSt5tupleIIRS3_EESH_IIEEEEEPSt13_Rb_tree_nodeIS6_EDpOT_' is-defined='yes'/>
    <elf-symbol name='_ZNSt8_Rb_treeIPKvSt4pairIKS1_P17OffloadDescriptorESt10_Select1stIS6_ESt4lessIS1_ESaIS6_EE14_M_insert_nodeEPSt18_Rb_tree_node_baseSE_PSt13_Rb_tree_nodeIS6_E' type='func-type' binding='weak-binding' visibility='default-visibility' is-defined='yes'/>
    <elf-symbol name='_ZNSt8_Rb_treeIPKvSt4pairIKS1_P17OffloadDescriptorESt10_Select1stIS6_ESt4lessIS1_ESaIS6_EE14_M_lower_boundEPSt13_Rb_tree_nodeIS6_EPSt18_Rb_tree_node_baseRS3_' type='func-type' binding='weak-binding' visibility='default-visibility' is-defined='yes'/>
    <elf-symbol name='_ZNSt8_Rb_treeIPKvSt4pairIKS1_P17OffloadDescriptorESt10_Select1stIS6_ESt4lessIS1_ESaIS6_EE15_M_destroy_nodeEPSt13_Rb_tree_nodeIS6_E' type='func-type' binding='weak-binding' visibility='default-visibility' is-defined='yes'/>
    <elf-symbol name='_ZNSt8_Rb_treeIPKvSt4pairIKS1_P17OffloadDescriptorESt10_Select1stIS6_ESt4lessIS1_ESaIS6_EE17_M_construct_nodeIIRKSt21piecewise_construct_tSt5tupleIIRS3_EESH_IIEEEEEvPSt13_Rb_tree_nodeIS6_EDpOT_' type='func-type' binding='weak-binding' visibility='default-visibility' is-defined='yes'/>
    <elf-symbol name='_ZNSt8_Rb_treeIPKvSt4pairIKS1_P17OffloadDescriptorESt10_Select1stIS6_ESt4lessIS1_ESaIS6_EE17_M_construct_nodeIJRKSt21piecewise_construct_tSt5tupleIJRS3_EESH_IJEEEEEvPSt13_Rb_tree_nodeIS6_EDpOT_' type='func-type' binding='weak-binding' visibility='default-visibility' alias='_ZNSt8_Rb_treeIPKvSt4pairIKS1_P17OffloadDescriptorESt10_Select1stIS6_ESt4lessIS1_ESaIS6_EE17_M_construct_nodeIIRKSt21piecewise_construct_tSt5tupleIIRS3_EESH_IIEEEEEvPSt13_Rb_tree_nodeIS6_EDpOT_' is-defined='yes'/>
    <elf-symbol name='_ZNSt8_Rb_treeIPKvSt4pairIKS1_P17OffloadDescriptorESt10_Select1stIS6_ESt4lessIS1_ESaIS6_EE21_M_get_Node_allocatorEv' type='func-type' binding='weak-binding' visibility='default-visibility' is-defined='yes'/>
    <elf-symbol name='_ZNSt8_Rb_treeIPKvSt4pairIKS1_P17OffloadDescriptorESt10_Select1stIS6_ESt4lessIS1_ESaIS6_EE22_M_emplace_hint_uniqueIIRKSt21piecewise_construct_tSt5tupleIIRS3_EESH_IIEEEEESt17_Rb_tree_iteratorIS6_ESt23_Rb_tree_const_iteratorIS6_EDpOT_' type='func-type' binding='weak-binding' visibility='default-visibility' is-defined='yes'/>
    <elf-symbol name='_ZNSt8_Rb_treeIPKvSt4pairIKS1_P17OffloadDescriptorESt10_Select1stIS6_ESt4lessIS1_ESaIS6_EE22_M_emplace_hint_uniqueIJRKSt21piecewise_construct_tSt5tupleIJRS3_EESH_IJEEEEESt17_Rb_tree_iteratorIS6_ESt23_Rb_tree_const_iteratorIS6_EDpOT_' type='func-type' binding='weak-binding' visibility='default-visibility' alias='_ZNSt8_Rb_treeIPKvSt4pairIKS1_P17OffloadDescriptorESt10_Select1stIS6_ESt4lessIS1_ESaIS6_EE22_M_emplace_hint_uniqueIIRKSt21piecewise_construct_tSt5tupleIIRS3_EESH_IIEEEEESt17_Rb_tree_iteratorIS6_ESt23_Rb_tree_const_iteratorIS6_EDpOT_' is-defined='yes'/>
    <elf-symbol name='_ZNSt8_Rb_treeIPKvSt4pairIKS1_P17OffloadDescriptorESt10_Select1stIS6_ESt4lessIS1_ESaIS6_EE24_M_get_insert_unique_posERS3_' type='func-type' binding='weak-binding' visibility='default-visibility' is-defined='yes'/>
    <elf-symbol name='_ZNSt8_Rb_treeIPKvSt4pairIKS1_P17OffloadDescriptorESt10_Select1stIS6_ESt4lessIS1_ESaIS6_EE29_M_get_insert_hint_unique_posESt23_Rb_tree_const_iteratorIS6_ERS3_' type='func-type' binding='weak-binding' visibility='default-visibility' is-defined='yes'/>
    <elf-symbol name='_ZNSt8_Rb_treeIPKvSt4pairIKS1_P17OffloadDescriptorESt10_Select1stIS6_ESt4lessIS1_ESaIS6_EE3endEv' type='func-type' binding='weak-binding' visibility='default-visibility' is-defined='yes'/>
    <elf-symbol name='_ZNSt8_Rb_treeIPKvSt4pairIKS1_P17OffloadDescriptorESt10_Select1stIS6_ESt4lessIS1_ESaIS6_EE4findERS3_' type='func-type' binding='weak-binding' visibility='default-visibility' is-defined='yes'/>
    <elf-symbol name='_ZNSt8_Rb_treeIPKvSt4pairIKS1_P17OffloadDescriptorESt10_Select1stIS6_ESt4lessIS1_ESaIS6_EE5beginEv' type='func-type' binding='weak-binding' visibility='default-visibility' is-defined='yes'/>
    <elf-symbol name='_ZNSt8_Rb_treeIPKvSt4pairIKS1_P17OffloadDescriptorESt10_Select1stIS6_ESt4lessIS1_ESaIS6_EE6_M_endEv' type='func-type' binding='weak-binding' visibility='default-visibility' is-defined='yes'/>
    <elf-symbol name='_ZNSt8_Rb_treeIPKvSt4pairIKS1_P17OffloadDescriptorESt10_Select1stIS6_ESt4lessIS1_ESaIS6_EE6_S_keyEPKSt13_Rb_tree_nodeIS6_E' type='func-type' binding='weak-binding' visibility='default-visibility' is-defined='yes'/>
    <elf-symbol name='_ZNSt8_Rb_treeIPKvSt4pairIKS1_P17OffloadDescriptorESt10_Select1stIS6_ESt4lessIS1_ESaIS6_EE6_S_keyEPKSt18_Rb_tree_node_base' type='func-type' binding='weak-binding' visibility='default-visibility' is-defined='yes'/>
    <elf-symbol name='_ZNSt8_Rb_treeIPKvSt4pairIKS1_P17OffloadDescriptorESt10_Select1stIS6_ESt4lessIS1_ESaIS6_EE7_S_leftEPSt18_Rb_tree_node_base' type='func-type' binding='weak-binding' visibility='default-visibility' is-defined='yes'/>
    <elf-symbol name='_ZNSt8_Rb_treeIPKvSt4pairIKS1_P17OffloadDescriptorESt10_Select1stIS6_ESt4lessIS1_ESaIS6_EE8_M_beginEv' type='func-type' binding='weak-binding' visibility='default-visibility' is-defined='yes'/>
    <elf-symbol name='_ZNSt8_Rb_treeIPKvSt4pairIKS1_P17OffloadDescriptorESt10_Select1stIS6_ESt4lessIS1_ESaIS6_EE8_M_eraseEPSt13_Rb_tree_nodeIS6_E' type='func-type' binding='weak-binding' visibility='default-visibility' is-defined='yes'/>
    <elf-symbol name='_ZNSt8_Rb_treeIPKvSt4pairIKS1_P17OffloadDescriptorESt10_Select1stIS6_ESt4lessIS1_ESaIS6_EE8_S_rightEPSt18_Rb_tree_node_base' type='func-type' binding='weak-binding' visibility='default-visibility' is-defined='yes'/>
    <elf-symbol name='_ZNSt8_Rb_treeIPKvSt4pairIKS1_P17OffloadDescriptorESt10_Select1stIS6_ESt4lessIS1_ESaIS6_EE8_S_valueEPKSt13_Rb_tree_nodeIS6_E' type='func-type' binding='weak-binding' visibility='default-visibility' is-defined='yes'/>
    <elf-symbol name='_ZNSt8_Rb_treeIPKvSt4pairIKS1_P17OffloadDescriptorESt10_Select1stIS6_ESt4lessIS1_ESaIS6_EE8_S_valueEPKSt18_Rb_tree_node_base' type='func-type' binding='weak-binding' visibility='default-visibility' is-defined='yes'/>
    <elf-symbol name='_ZNSt8_Rb_treeIPKvSt4pairIKS1_P17OffloadDescriptorESt10_Select1stIS6_ESt4lessIS1_ESaIS6_EEC1Ev' type='func-type' binding='weak-binding' visibility='default-visibility' is-defined='yes'/>
    <elf-symbol name='_ZNSt8_Rb_treeIPKvSt4pairIKS1_P17OffloadDescriptorESt10_Select1stIS6_ESt4lessIS1_ESaIS6_EEC2Ev' type='func-type' binding='weak-binding' visibility='default-visibility' alias='_ZNSt8_Rb_treeIPKvSt4pairIKS1_P17OffloadDescriptorESt10_Select1stIS6_ESt4lessIS1_ESaIS6_EEC1Ev' is-defined='yes'/>
    <elf-symbol name='_ZNSt8_Rb_treeIPKvSt4pairIKS1_P17OffloadDescriptorESt10_Select1stIS6_ESt4lessIS1_ESaIS6_EED1Ev' type='func-type' binding='weak-binding' visibility='default-visibility' is-defined='yes'/>
    <elf-symbol name='_ZNSt8_Rb_treeIPKvSt4pairIKS1_P17OffloadDescriptorESt10_Select1stIS6_ESt4lessIS1_ESaIS6_EED2Ev' type='func-type' binding='weak-binding' visibility='default-visibility' alias='_ZNSt8_Rb_treeIPKvSt4pairIKS1_P17OffloadDescriptorESt10_Select1stIS6_ESt4lessIS1_ESaIS6_EED1Ev' is-defined='yes'/>
    <elf-symbol name='_ZNSt8_Rb_treeImSt4pairIKmP6StreamESt10_Select1stIS4_ESt4lessImESaIS4_EE10_S_maximumEPSt18_Rb_tree_node_base' type='func-type' binding='weak-binding' visibility='default-visibility' is-defined='yes'/>
    <elf-symbol name='_ZNSt8_Rb_treeImSt4pairIKmP6StreamESt10_Select1stIS4_ESt4lessImESaIS4_EE10_S_minimumEPSt18_Rb_tree_node_base' type='func-type' binding='weak-binding' visibility='default-visibility' is-defined='yes'/>
    <elf-symbol name='_ZNSt8_Rb_treeImSt4pairIKmP6StreamESt10_Select1stIS4_ESt4lessImESaIS4_EE11_Alloc_nodeC1ERSA_' type='func-type' binding='weak-binding' visibility='default-visibility' is-defined='yes'/>
    <elf-symbol name='_ZNSt8_Rb_treeImSt4pairIKmP6StreamESt10_Select1stIS4_ESt4lessImESaIS4_EE11_Alloc_nodeC2ERSA_' type='func-type' binding='weak-binding' visibility='default-visibility' alias='_ZNSt8_Rb_treeImSt4pairIKmP6StreamESt10_Select1stIS4_ESt4lessImESaIS4_EE11_Alloc_nodeC1ERSA_' is-defined='yes'/>
    <elf-symbol name='_ZNSt8_Rb_treeImSt4pairIKmP6StreamESt10_Select1stIS4_ESt4lessImESaIS4_EE11_M_get_nodeEv' type='func-type' binding='weak-binding' visibility='default-visibility' is-defined='yes'/>
    <elf-symbol name='_ZNSt8_Rb_treeImSt4pairIKmP6StreamESt10_Select1stIS4_ESt4lessImESaIS4_EE11_M_leftmostEv' type='func-type' binding='weak-binding' visibility='default-visibility' is-defined='yes'/>
    <elf-symbol name='_ZNSt8_Rb_treeImSt4pairIKmP6StreamESt10_Select1stIS4_ESt4lessImESaIS4_EE11_M_put_nodeEPSt13_Rb_tree_nodeIS4_E' type='func-type' binding='weak-binding' visibility='default-visibility' is-defined='yes'/>
    <elf-symbol name='_ZNSt8_Rb_treeImSt4pairIKmP6StreamESt10_Select1stIS4_ESt4lessImESaIS4_EE11lower_boundERS1_' type='func-type' binding='weak-binding' visibility='default-visibility' is-defined='yes'/>
    <elf-symbol name='_ZNSt8_Rb_treeImSt4pairIKmP6StreamESt10_Select1stIS4_ESt4lessImESaIS4_EE12_M_drop_nodeEPSt13_Rb_tree_nodeIS4_E' type='func-type' binding='weak-binding' visibility='default-visibility' is-defined='yes'/>
    <elf-symbol name='_ZNSt8_Rb_treeImSt4pairIKmP6StreamESt10_Select1stIS4_ESt4lessImESaIS4_EE12_M_erase_auxESt23_Rb_tree_const_iteratorIS4_E' type='func-type' binding='weak-binding' visibility='default-visibility' is-defined='yes'/>
    <elf-symbol name='_ZNSt8_Rb_treeImSt4pairIKmP6StreamESt10_Select1stIS4_ESt4lessImESaIS4_EE12_M_rightmostEv' type='func-type' binding='weak-binding' visibility='default-visibility' is-defined='yes'/>
    <elf-symbol name='_ZNSt8_Rb_treeImSt4pairIKmP6StreamESt10_Select1stIS4_ESt4lessImESaIS4_EE13_M_clone_nodeINSA_11_Alloc_nodeEEEPSt13_Rb_tree_nodeIS4_EPKSE_RT_' type='func-type' binding='weak-binding' visibility='default-visibility' is-defined='yes'/>
    <elf-symbol name='_ZNSt8_Rb_treeImSt4pairIKmP6StreamESt10_Select1stIS4_ESt4lessImESaIS4_EE13_Rb_tree_implIS8_Lb1EE13_M_initializeEv' type='func-type' binding='weak-binding' visibility='default-visibility' is-defined='yes'/>
    <elf-symbol name='_ZNSt8_Rb_treeImSt4pairIKmP6StreamESt10_Select1stIS4_ESt4lessImESaIS4_EE13_Rb_tree_implIS8_Lb1EEC1ERKS8_OSaISt13_Rb_tree_nodeIS4_EE' type='func-type' binding='weak-binding' visibility='default-visibility' is-defined='yes'/>
    <elf-symbol name='_ZNSt8_Rb_treeImSt4pairIKmP6StreamESt10_Select1stIS4_ESt4lessImESaIS4_EE13_Rb_tree_implIS8_Lb1EEC1Ev' type='func-type' binding='weak-binding' visibility='default-visibility' is-defined='yes'/>
    <elf-symbol name='_ZNSt8_Rb_treeImSt4pairIKmP6StreamESt10_Select1stIS4_ESt4lessImESaIS4_EE13_Rb_tree_implIS8_Lb1EEC2ERKS8_OSaISt13_Rb_tree_nodeIS4_EE' type='func-type' binding='weak-binding' visibility='default-visibility' alias='_ZNSt8_Rb_treeImSt4pairIKmP6StreamESt10_Select1stIS4_ESt4lessImESaIS4_EE13_Rb_tree_implIS8_Lb1EEC1ERKS8_OSaISt13_Rb_tree_nodeIS4_EE' is-defined='yes'/>
    <elf-symbol name='_ZNSt8_Rb_treeImSt4pairIKmP6StreamESt10_Select1stIS4_ESt4lessImESaIS4_EE13_Rb_tree_implIS8_Lb1EEC2Ev' type='func-type' binding='weak-binding' visibility='default-visibility' alias='_ZNSt8_Rb_treeImSt4pairIKmP6StreamESt10_Select1stIS4_ESt4lessImESaIS4_EE13_Rb_tree_implIS8_Lb1EEC1Ev' is-defined='yes'/>
    <elf-symbol name='_ZNSt8_Rb_treeImSt4pairIKmP6StreamESt10_Select1stIS4_ESt4lessImESaIS4_EE13_Rb_tree_implIS8_Lb1EED1Ev' type='func-type' binding='weak-binding' visibility='default-visibility' is-defined='yes'/>
    <elf-symbol name='_ZNSt8_Rb_treeImSt4pairIKmP6StreamESt10_Select1stIS4_ESt4lessImESaIS4_EE13_Rb_tree_implIS8_Lb1EED2Ev' type='func-type' binding='weak-binding' visibility='default-visibility' alias='_ZNSt8_Rb_treeImSt4pairIKmP6StreamESt10_Select1stIS4_ESt4lessImESaIS4_EE13_Rb_tree_implIS8_Lb1EED1Ev' is-defined='yes'/>
    <elf-symbol name='_ZNSt8_Rb_treeImSt4pairIKmP6StreamESt10_Select1stIS4_ESt4lessImESaIS4_EE14_M_create_nodeIIRKS4_EEEPSt13_Rb_tree_nodeIS4_EDpOT_' type='func-type' binding='weak-binding' visibility='default-visibility' is-defined='yes'/>
    <elf-symbol name='_ZNSt8_Rb_treeImSt4pairIKmP6StreamESt10_Select1stIS4_ESt4lessImESaIS4_EE14_M_create_nodeIIRKSt21piecewise_construct_tSt5tupleIIRS1_EESF_IIEEEEEPSt13_Rb_tree_nodeIS4_EDpOT_' type='func-type' binding='weak-binding' visibility='default-visibility' is-defined='yes'/>
    <elf-symbol name='_ZNSt8_Rb_treeImSt4pairIKmP6StreamESt10_Select1stIS4_ESt4lessImESaIS4_EE14_M_create_nodeIJRKS4_EEEPSt13_Rb_tree_nodeIS4_EDpOT_' type='func-type' binding='weak-binding' visibility='default-visibility' alias='_ZNSt8_Rb_treeImSt4pairIKmP6StreamESt10_Select1stIS4_ESt4lessImESaIS4_EE14_M_create_nodeIIRKS4_EEEPSt13_Rb_tree_nodeIS4_EDpOT_' is-defined='yes'/>
    <elf-symbol name='_ZNSt8_Rb_treeImSt4pairIKmP6StreamESt10_Select1stIS4_ESt4lessImESaIS4_EE14_M_create_nodeIJRKSt21piecewise_construct_tSt5tupleIJRS1_EESF_IJEEEEEPSt13_Rb_tree_nodeIS4_EDpOT_' type='func-type' binding='weak-binding' visibility='default-visibility' alias='_ZNSt8_Rb_treeImSt4pairIKmP6StreamESt10_Select1stIS4_ESt4lessImESaIS4_EE14_M_create_nodeIIRKSt21piecewise_construct_tSt5tupleIIRS1_EESF_IIEEEEEPSt13_Rb_tree_nodeIS4_EDpOT_' is-defined='yes'/>
    <elf-symbol name='_ZNSt8_Rb_treeImSt4pairIKmP6StreamESt10_Select1stIS4_ESt4lessImESaIS4_EE14_M_insert_nodeEPSt18_Rb_tree_node_baseSC_PSt13_Rb_tree_nodeIS4_E' type='func-type' binding='weak-binding' visibility='default-visibility' is-defined='yes'/>
    <elf-symbol name='_ZNSt8_Rb_treeImSt4pairIKmP6StreamESt10_Select1stIS4_ESt4lessImESaIS4_EE14_M_lower_boundEPSt13_Rb_tree_nodeIS4_EPSt18_Rb_tree_node_baseRS1_' type='func-type' binding='weak-binding' visibility='default-visibility' is-defined='yes'/>
    <elf-symbol name='_ZNSt8_Rb_treeImSt4pairIKmP6StreamESt10_Select1stIS4_ESt4lessImESaIS4_EE15_M_destroy_nodeEPSt13_Rb_tree_nodeIS4_E' type='func-type' binding='weak-binding' visibility='default-visibility' is-defined='yes'/>
    <elf-symbol name='_ZNSt8_Rb_treeImSt4pairIKmP6StreamESt10_Select1stIS4_ESt4lessImESaIS4_EE17_M_construct_nodeIIRKS4_EEEvPSt13_Rb_tree_nodeIS4_EDpOT_' type='func-type' binding='weak-binding' visibility='default-visibility' is-defined='yes'/>
    <elf-symbol name='_ZNSt8_Rb_treeImSt4pairIKmP6StreamESt10_Select1stIS4_ESt4lessImESaIS4_EE17_M_construct_nodeIIRKSt21piecewise_construct_tSt5tupleIIRS1_EESF_IIEEEEEvPSt13_Rb_tree_nodeIS4_EDpOT_' type='func-type' binding='weak-binding' visibility='default-visibility' is-defined='yes'/>
    <elf-symbol name='_ZNSt8_Rb_treeImSt4pairIKmP6StreamESt10_Select1stIS4_ESt4lessImESaIS4_EE17_M_construct_nodeIJRKS4_EEEvPSt13_Rb_tree_nodeIS4_EDpOT_' type='func-type' binding='weak-binding' visibility='default-visibility' alias='_ZNSt8_Rb_treeImSt4pairIKmP6StreamESt10_Select1stIS4_ESt4lessImESaIS4_EE17_M_construct_nodeIIRKS4_EEEvPSt13_Rb_tree_nodeIS4_EDpOT_' is-defined='yes'/>
    <elf-symbol name='_ZNSt8_Rb_treeImSt4pairIKmP6StreamESt10_Select1stIS4_ESt4lessImESaIS4_EE17_M_construct_nodeIJRKSt21piecewise_construct_tSt5tupleIJRS1_EESF_IJEEEEEvPSt13_Rb_tree_nodeIS4_EDpOT_' type='func-type' binding='weak-binding' visibility='default-visibility' alias='_ZNSt8_Rb_treeImSt4pairIKmP6StreamESt10_Select1stIS4_ESt4lessImESaIS4_EE17_M_construct_nodeIIRKSt21piecewise_construct_tSt5tupleIIRS1_EESF_IIEEEEEvPSt13_Rb_tree_nodeIS4_EDpOT_' is-defined='yes'/>
    <elf-symbol name='_ZNSt8_Rb_treeImSt4pairIKmP6StreamESt10_Select1stIS4_ESt4lessImESaIS4_EE21_M_get_Node_allocatorEv' type='func-type' binding='weak-binding' visibility='default-visibility' is-defined='yes'/>
    <elf-symbol name='_ZNSt8_Rb_treeImSt4pairIKmP6StreamESt10_Select1stIS4_ESt4lessImESaIS4_EE22_M_emplace_hint_uniqueIIRKSt21piecewise_construct_tSt5tupleIIRS1_EESF_IIEEEEESt17_Rb_tree_iteratorIS4_ESt23_Rb_tree_const_iteratorIS4_EDpOT_' type='func-type' binding='weak-binding' visibility='default-visibility' is-defined='yes'/>
    <elf-symbol name='_ZNSt8_Rb_treeImSt4pairIKmP6StreamESt10_Select1stIS4_ESt4lessImESaIS4_EE22_M_emplace_hint_uniqueIJRKSt21piecewise_construct_tSt5tupleIJRS1_EESF_IJEEEEESt17_Rb_tree_iteratorIS4_ESt23_Rb_tree_const_iteratorIS4_EDpOT_' type='func-type' binding='weak-binding' visibility='default-visibility' alias='_ZNSt8_Rb_treeImSt4pairIKmP6StreamESt10_Select1stIS4_ESt4lessImESaIS4_EE22_M_emplace_hint_uniqueIIRKSt21piecewise_construct_tSt5tupleIIRS1_EESF_IIEEEEESt17_Rb_tree_iteratorIS4_ESt23_Rb_tree_const_iteratorIS4_EDpOT_' is-defined='yes'/>
    <elf-symbol name='_ZNSt8_Rb_treeImSt4pairIKmP6StreamESt10_Select1stIS4_ESt4lessImESaIS4_EE24_M_get_insert_unique_posERS1_' type='func-type' binding='weak-binding' visibility='default-visibility' is-defined='yes'/>
    <elf-symbol name='_ZNSt8_Rb_treeImSt4pairIKmP6StreamESt10_Select1stIS4_ESt4lessImESaIS4_EE29_M_get_insert_hint_unique_posESt23_Rb_tree_const_iteratorIS4_ERS1_' type='func-type' binding='weak-binding' visibility='default-visibility' is-defined='yes'/>
    <elf-symbol name='_ZNSt8_Rb_treeImSt4pairIKmP6StreamESt10_Select1stIS4_ESt4lessImESaIS4_EE3endEv' type='func-type' binding='weak-binding' visibility='default-visibility' is-defined='yes'/>
    <elf-symbol name='_ZNSt8_Rb_treeImSt4pairIKmP6StreamESt10_Select1stIS4_ESt4lessImESaIS4_EE4findERS1_' type='func-type' binding='weak-binding' visibility='default-visibility' is-defined='yes'/>
    <elf-symbol name='_ZNSt8_Rb_treeImSt4pairIKmP6StreamESt10_Select1stIS4_ESt4lessImESaIS4_EE5beginEv' type='func-type' binding='weak-binding' visibility='default-visibility' is-defined='yes'/>
    <elf-symbol name='_ZNSt8_Rb_treeImSt4pairIKmP6StreamESt10_Select1stIS4_ESt4lessImESaIS4_EE5eraseB5cxx11ESt17_Rb_tree_iteratorIS4_E' type='func-type' binding='weak-binding' visibility='default-visibility' is-defined='yes'/>
    <elf-symbol name='_ZNSt8_Rb_treeImSt4pairIKmP6StreamESt10_Select1stIS4_ESt4lessImESaIS4_EE6_M_endEv' type='func-type' binding='weak-binding' visibility='default-visibility' is-defined='yes'/>
    <elf-symbol name='_ZNSt8_Rb_treeImSt4pairIKmP6StreamESt10_Select1stIS4_ESt4lessImESaIS4_EE6_S_keyEPKSt13_Rb_tree_nodeIS4_E' type='func-type' binding='weak-binding' visibility='default-visibility' is-defined='yes'/>
    <elf-symbol name='_ZNSt8_Rb_treeImSt4pairIKmP6StreamESt10_Select1stIS4_ESt4lessImESaIS4_EE6_S_keyEPKSt18_Rb_tree_node_base' type='func-type' binding='weak-binding' visibility='default-visibility' is-defined='yes'/>
    <elf-symbol name='_ZNSt8_Rb_treeImSt4pairIKmP6StreamESt10_Select1stIS4_ESt4lessImESaIS4_EE7_M_copyEPKSt13_Rb_tree_nodeIS4_EPSt18_Rb_tree_node_base' type='func-type' binding='weak-binding' visibility='default-visibility' is-defined='yes'/>
    <elf-symbol name='_ZNSt8_Rb_treeImSt4pairIKmP6StreamESt10_Select1stIS4_ESt4lessImESaIS4_EE7_M_copyINSA_11_Alloc_nodeEEEPSt13_Rb_tree_nodeIS4_EPKSE_PSt18_Rb_tree_node_baseRT_' type='func-type' binding='weak-binding' visibility='default-visibility' is-defined='yes'/>
    <elf-symbol name='_ZNSt8_Rb_treeImSt4pairIKmP6StreamESt10_Select1stIS4_ESt4lessImESaIS4_EE7_M_rootEv' type='func-type' binding='weak-binding' visibility='default-visibility' is-defined='yes'/>
    <elf-symbol name='_ZNSt8_Rb_treeImSt4pairIKmP6StreamESt10_Select1stIS4_ESt4lessImESaIS4_EE7_S_leftEPKSt18_Rb_tree_node_base' type='func-type' binding='weak-binding' visibility='default-visibility' is-defined='yes'/>
    <elf-symbol name='_ZNSt8_Rb_treeImSt4pairIKmP6StreamESt10_Select1stIS4_ESt4lessImESaIS4_EE7_S_leftEPSt18_Rb_tree_node_base' type='func-type' binding='weak-binding' visibility='default-visibility' is-defined='yes'/>
    <elf-symbol name='_ZNSt8_Rb_treeImSt4pairIKmP6StreamESt10_Select1stIS4_ESt4lessImESaIS4_EE8_M_beginEv' type='func-type' binding='weak-binding' visibility='default-visibility' is-defined='yes'/>
    <elf-symbol name='_ZNSt8_Rb_treeImSt4pairIKmP6StreamESt10_Select1stIS4_ESt4lessImESaIS4_EE8_M_eraseEPSt13_Rb_tree_nodeIS4_E' type='func-type' binding='weak-binding' visibility='default-visibility' is-defined='yes'/>
    <elf-symbol name='_ZNSt8_Rb_treeImSt4pairIKmP6StreamESt10_Select1stIS4_ESt4lessImESaIS4_EE8_S_rightEPKSt18_Rb_tree_node_base' type='func-type' binding='weak-binding' visibility='default-visibility' is-defined='yes'/>
    <elf-symbol name='_ZNSt8_Rb_treeImSt4pairIKmP6StreamESt10_Select1stIS4_ESt4lessImESaIS4_EE8_S_rightEPSt18_Rb_tree_node_base' type='func-type' binding='weak-binding' visibility='default-visibility' is-defined='yes'/>
    <elf-symbol name='_ZNSt8_Rb_treeImSt4pairIKmP6StreamESt10_Select1stIS4_ESt4lessImESaIS4_EE8_S_valueEPKSt13_Rb_tree_nodeIS4_E' type='func-type' binding='weak-binding' visibility='default-visibility' is-defined='yes'/>
    <elf-symbol name='_ZNSt8_Rb_treeImSt4pairIKmP6StreamESt10_Select1stIS4_ESt4lessImESaIS4_EE8_S_valueEPKSt18_Rb_tree_node_base' type='func-type' binding='weak-binding' visibility='default-visibility' is-defined='yes'/>
    <elf-symbol name='_ZNSt8_Rb_treeImSt4pairIKmP6StreamESt10_Select1stIS4_ESt4lessImESaIS4_EEC1ERKSA_' type='func-type' binding='weak-binding' visibility='default-visibility' is-defined='yes'/>
    <elf-symbol name='_ZNSt8_Rb_treeImSt4pairIKmP6StreamESt10_Select1stIS4_ESt4lessImESaIS4_EEC1Ev' type='func-type' binding='weak-binding' visibility='default-visibility' is-defined='yes'/>
    <elf-symbol name='_ZNSt8_Rb_treeImSt4pairIKmP6StreamESt10_Select1stIS4_ESt4lessImESaIS4_EEC2ERKSA_' type='func-type' binding='weak-binding' visibility='default-visibility' alias='_ZNSt8_Rb_treeImSt4pairIKmP6StreamESt10_Select1stIS4_ESt4lessImESaIS4_EEC1ERKSA_' is-defined='yes'/>
    <elf-symbol name='_ZNSt8_Rb_treeImSt4pairIKmP6StreamESt10_Select1stIS4_ESt4lessImESaIS4_EEC2Ev' type='func-type' binding='weak-binding' visibility='default-visibility' alias='_ZNSt8_Rb_treeImSt4pairIKmP6StreamESt10_Select1stIS4_ESt4lessImESaIS4_EEC1Ev' is-defined='yes'/>
    <elf-symbol name='_ZNSt8_Rb_treeImSt4pairIKmP6StreamESt10_Select1stIS4_ESt4lessImESaIS4_EED1Ev' type='func-type' binding='weak-binding' visibility='default-visibility' is-defined='yes'/>
    <elf-symbol name='_ZNSt8_Rb_treeImSt4pairIKmP6StreamESt10_Select1stIS4_ESt4lessImESaIS4_EED2Ev' type='func-type' binding='weak-binding' visibility='default-visibility' alias='_ZNSt8_Rb_treeImSt4pairIKmP6StreamESt10_Select1stIS4_ESt4lessImESaIS4_EED1Ev' is-defined='yes'/>
    <elf-symbol name='_ZNSt8ios_base4setfESt13_Ios_FmtflagsS0_' type='func-type' binding='weak-binding' visibility='default-visibility' is-defined='yes'/>
    <elf-symbol name='_ZNSt8iteratorISt18input_iterator_tagN8VarTable5EntryElPS2_RS2_EC1Ev' type='func-type' binding='weak-binding' visibility='default-visibility' is-defined='yes'/>
    <elf-symbol name='_ZNSt8iteratorISt18input_iterator_tagN8VarTable5EntryElPS2_RS2_EC2Ev' type='func-type' binding='weak-binding' visibility='default-visibility' alias='_ZNSt8iteratorISt18input_iterator_tagN8VarTable5EntryElPS2_RS2_EC1Ev' is-defined='yes'/>
    <elf-symbol name='_ZSt10__pop_heapIN9__gnu_cxx17__normal_iteratorIPPKN8VarTable5EntryESt6vectorIS5_SaIS5_EEEENS0_5__ops15_Iter_comp_iterIPFbS5_S5_EEEEvT_SG_SG_T0_' type='func-type' binding='weak-binding' visibility='default-visibility' is-defined='yes'/>
    <elf-symbol name='_ZSt11__addressofISaISt10_List_nodeI11PersistDataEEEPT_RS4_' type='func-type' binding='weak-binding' visibility='default-visibility' is-defined='yes'/>
    <elf-symbol name='_ZSt11__addressofISaISt10_List_nodeI11TargetImageEEEPT_RS4_' type='func-type' binding='weak-binding' visibility='default-visibility' is-defined='yes'/>
    <elf-symbol name='_ZSt11__addressofISaISt10_List_nodeI6DynLibEEEPT_RS4_' type='func-type' binding='weak-binding' visibility='default-visibility' is-defined='yes'/>
    <elf-symbol name='_ZSt11__addressofISaISt10_List_nodeI8MyoTableEEEPT_RS4_' type='func-type' binding='weak-binding' visibility='default-visibility' is-defined='yes'/>
    <elf-symbol name='_ZSt11__addressofISaISt10_List_nodeIP7PtrDataEEEPT_RS5_' type='func-type' binding='weak-binding' visibility='default-visibility' is-defined='yes'/>
    <elf-symbol name='_ZSt11__addressofISaISt10_List_nodeIP9coibufferEEEPT_RS5_' type='func-type' binding='weak-binding' visibility='default-visibility' is-defined='yes'/>
    <elf-symbol name='_ZSt11__addressofISaISt10_List_nodeIPcEEEPT_RS4_' type='func-type' binding='weak-binding' visibility='default-visibility' is-defined='yes'/>
    <elf-symbol name='_ZSt11__make_heapIN9__gnu_cxx17__normal_iteratorIPPKN8VarTable5EntryESt6vectorIS5_SaIS5_EEEENS0_5__ops15_Iter_comp_iterIPFbS5_S5_EEEEvT_SG_T0_' type='func-type' binding='weak-binding' visibility='default-visibility' is-defined='yes'/>
    <elf-symbol name='_ZSt11__push_heapIN9__gnu_cxx17__normal_iteratorIPPKN8VarTable5EntryESt6vectorIS5_SaIS5_EEEElS5_NS0_5__ops14_Iter_comp_valIPFbS5_S5_EEEEvT_T0_SH_T1_T2_' type='func-type' binding='weak-binding' visibility='default-visibility' is-defined='yes'/>
    <elf-symbol name='_ZSt11__sort_heapIN9__gnu_cxx17__normal_iteratorIPPKN8VarTable5EntryESt6vectorIS5_SaIS5_EEEENS0_5__ops15_Iter_comp_iterIPFbS5_S5_EEEEvT_SG_T0_' type='func-type' binding='weak-binding' visibility='default-visibility' is-defined='yes'/>
    <elf-symbol name='_ZSt12__get_helperILm0ERKPKvIEERT0_RSt11_Tuple_implIXT_EIS4_DpT1_EE' type='func-type' binding='weak-binding' visibility='default-visibility' is-defined='yes'/>
    <elf-symbol name='_ZSt12__get_helperILm0ERKPKvJEERT0_RSt11_Tuple_implIXT_EJS4_DpT1_EE' type='func-type' binding='weak-binding' visibility='default-visibility' alias='_ZSt12__get_helperILm0ERKPKvIEERT0_RSt11_Tuple_implIXT_EIS4_DpT1_EE' is-defined='yes'/>
    <elf-symbol name='_ZSt12__get_helperILm0ERKmIEERT0_RSt11_Tuple_implIXT_EIS2_DpT1_EE' type='func-type' binding='weak-binding' visibility='default-visibility' is-defined='yes'/>
    <elf-symbol name='_ZSt12__get_helperILm0ERKmJEERT0_RSt11_Tuple_implIXT_EJS2_DpT1_EE' type='func-type' binding='weak-binding' visibility='default-visibility' alias='_ZSt12__get_helperILm0ERKmIEERT0_RSt11_Tuple_implIXT_EIS2_DpT1_EE' is-defined='yes'/>
    <elf-symbol name='_ZSt12__miter_baseIN9__gnu_cxx17__normal_iteratorIPPKN8VarTable5EntryESt6vectorIS5_SaIS5_EEEEET_SB_' type='func-type' binding='weak-binding' visibility='default-visibility' is-defined='yes'/>
    <elf-symbol name='_ZSt12__miter_baseISt13move_iteratorIPPKN8VarTable5EntryEEET_S7_' type='func-type' binding='weak-binding' visibility='default-visibility' is-defined='yes'/>
    <elf-symbol name='_ZSt12__miter_baseISt14_List_iteratorIPcEET_S3_' type='func-type' binding='weak-binding' visibility='default-visibility' is-defined='yes'/>
    <elf-symbol name='_ZSt12__niter_baseIPPKN8VarTable5EntryEET_S5_' type='func-type' binding='weak-binding' visibility='default-visibility' is-defined='yes'/>
    <elf-symbol name='_ZSt12__niter_baseIPPKN8VarTable5EntryESt6vectorIS3_SaIS3_EEET_N9__gnu_cxx17__normal_iteratorIS8_T0_EE' type='func-type' binding='weak-binding' visibility='default-visibility' is-defined='yes'/>
    <elf-symbol name='_ZSt12__niter_baseIPPcET_S2_' type='func-type' binding='weak-binding' visibility='default-visibility' is-defined='yes'/>
    <elf-symbol name='_ZSt12__niter_baseISt13move_iteratorIPPKN8VarTable5EntryEEET_S7_' type='func-type' binding='weak-binding' visibility='default-visibility' is-defined='yes'/>
    <elf-symbol name='_ZSt12__niter_baseISt14_List_iteratorIPcEET_S3_' type='func-type' binding='weak-binding' visibility='default-visibility' is-defined='yes'/>
    <elf-symbol name='_ZSt12setprecisioni' type='func-type' binding='weak-binding' visibility='default-visibility' is-defined='yes'/>
    <elf-symbol name='_ZSt13__adjust_heapIN9__gnu_cxx17__normal_iteratorIPPKN8VarTable5EntryESt6vectorIS5_SaIS5_EEEElS5_NS0_5__ops15_Iter_comp_iterIPFbS5_S5_EEEEvT_T0_SH_T1_T2_' type='func-type' binding='weak-binding' visibility='default-visibility' is-defined='yes'/>
    <elf-symbol name='_ZSt13__copy_move_aILb0ESt14_List_iteratorIPcEPS1_ET1_T0_S5_S4_' type='func-type' binding='weak-binding' visibility='default-visibility' is-defined='yes'/>
    <elf-symbol name='_ZSt13__copy_move_aILb1ESt13move_iteratorIPPKN8VarTable5EntryEES5_ET1_T0_S8_S7_' type='func-type' binding='weak-binding' visibility='default-visibility' is-defined='yes'/>
    <elf-symbol name='_ZSt13__heap_selectIN9__gnu_cxx17__normal_iteratorIPPKN8VarTable5EntryESt6vectorIS5_SaIS5_EEEENS0_5__ops15_Iter_comp_iterIPFbS5_S5_EEEEvT_SG_SG_T0_' type='func-type' binding='weak-binding' visibility='default-visibility' is-defined='yes'/>
    <elf-symbol name='_ZSt13move_backwardIN9__gnu_cxx17__normal_iteratorIPPKN8VarTable5EntryESt6vectorIS5_SaIS5_EEEESA_ET0_T_SC_SB_' type='func-type' binding='weak-binding' visibility='default-visibility' is-defined='yes'/>
    <elf-symbol name='_ZSt14__copy_move_a2ILb0ESt14_List_iteratorIPcEPS1_ET1_T0_S5_S4_' type='func-type' binding='weak-binding' visibility='default-visibility' is-defined='yes'/>
    <elf-symbol name='_ZSt14__copy_move_a2ILb1ESt13move_iteratorIPPKN8VarTable5EntryEES5_ET1_T0_S8_S7_' type='func-type' binding='weak-binding' visibility='default-visibility' is-defined='yes'/>
    <elf-symbol name='_ZSt14__partial_sortIN9__gnu_cxx17__normal_iteratorIPPKN8VarTable5EntryESt6vectorIS5_SaIS5_EEEENS0_5__ops15_Iter_comp_iterIPFbS5_S5_EEEEvT_SG_SG_T0_' type='func-type' binding='weak-binding' visibility='default-visibility' is-defined='yes'/>
    <elf-symbol name='_ZSt16__insertion_sortIN9__gnu_cxx17__normal_iteratorIPPKN8VarTable5EntryESt6vectorIS5_SaIS5_EEEENS0_5__ops15_Iter_comp_iterIPFbS5_S5_EEEEvT_SG_T0_' type='func-type' binding='weak-binding' visibility='default-visibility' is-defined='yes'/>
    <elf-symbol name='_ZSt16__introsort_loopIN9__gnu_cxx17__normal_iteratorIPPKN8VarTable5EntryESt6vectorIS5_SaIS5_EEEElNS0_5__ops15_Iter_comp_iterIPFbS5_S5_EEEEvT_SG_T0_T1_' type='func-type' binding='weak-binding' visibility='default-visibility' is-defined='yes'/>
    <elf-symbol name='_ZSt18uninitialized_copyISt13move_iteratorIPPKN8VarTable5EntryEES5_ET0_T_S8_S7_' type='func-type' binding='weak-binding' visibility='default-visibility' is-defined='yes'/>
    <elf-symbol name='_ZSt21__unguarded_partitionIN9__gnu_cxx17__normal_iteratorIPPKN8VarTable5EntryESt6vectorIS5_SaIS5_EEEENS0_5__ops15_Iter_comp_iterIPFbS5_S5_EEEET_SG_SG_SG_T0_' type='func-type' binding='weak-binding' visibility='default-visibility' is-defined='yes'/>
    <elf-symbol name='_ZSt22__copy_move_backward_aILb1EPPKN8VarTable5EntryES4_ET1_T0_S6_S5_' type='func-type' binding='weak-binding' visibility='default-visibility' is-defined='yes'/>
    <elf-symbol name='_ZSt22__final_insertion_sortIN9__gnu_cxx17__normal_iteratorIPPKN8VarTable5EntryESt6vectorIS5_SaIS5_EEEENS0_5__ops15_Iter_comp_iterIPFbS5_S5_EEEEvT_SG_T0_' type='func-type' binding='weak-binding' visibility='default-visibility' is-defined='yes'/>
    <elf-symbol name='_ZSt22__move_median_to_firstIN9__gnu_cxx17__normal_iteratorIPPKN8VarTable5EntryESt6vectorIS5_SaIS5_EEEENS0_5__ops15_Iter_comp_iterIPFbS5_S5_EEEEvT_SG_SG_SG_T0_' type='func-type' binding='weak-binding' visibility='default-visibility' is-defined='yes'/>
    <elf-symbol name='_ZSt22__uninitialized_copy_aISt13move_iteratorIPPKN8VarTable5EntryEES5_S4_ET0_T_S8_S7_RSaIT1_E' type='func-type' binding='weak-binding' visibility='default-visibility' is-defined='yes'/>
    <elf-symbol name='_ZSt23__copy_move_backward_a2ILb1EN9__gnu_cxx17__normal_iteratorIPPKN8VarTable5EntryESt6vectorIS5_SaIS5_EEEESA_ET1_T0_SC_SB_' type='func-type' binding='weak-binding' visibility='default-visibility' is-defined='yes'/>
    <elf-symbol name='_ZSt25__unguarded_linear_insertIN9__gnu_cxx17__normal_iteratorIPPKN8VarTable5EntryESt6vectorIS5_SaIS5_EEEENS0_5__ops14_Val_comp_iterIPFbS5_S5_EEEEvT_T0_' type='func-type' binding='weak-binding' visibility='default-visibility' is-defined='yes'/>
    <elf-symbol name='_ZSt26__unguarded_insertion_sortIN9__gnu_cxx17__normal_iteratorIPPKN8VarTable5EntryESt6vectorIS5_SaIS5_EEEENS0_5__ops15_Iter_comp_iterIPFbS5_S5_EEEEvT_SG_T0_' type='func-type' binding='weak-binding' visibility='default-visibility' is-defined='yes'/>
    <elf-symbol name='_ZSt27__unguarded_partition_pivotIN9__gnu_cxx17__normal_iteratorIPPKN8VarTable5EntryESt6vectorIS5_SaIS5_EEEENS0_5__ops15_Iter_comp_iterIPFbS5_S5_EEEET_SG_SG_T0_' type='func-type' binding='weak-binding' visibility='default-visibility' is-defined='yes'/>
    <elf-symbol name='_ZSt32__make_move_if_noexcept_iteratorIPKN8VarTable5EntryESt13move_iteratorIPS3_EET0_PT_' type='func-type' binding='weak-binding' visibility='default-visibility' is-defined='yes'/>
    <elf-symbol name='_ZSt34__uninitialized_move_if_noexcept_aIPPKN8VarTable5EntryES4_SaIS3_EET0_T_S7_S6_RT1_' type='func-type' binding='weak-binding' visibility='default-visibility' is-defined='yes'/>
    <elf-symbol name='_ZSt3decRSt8ios_base' type='func-type' binding='weak-binding' visibility='default-visibility' is-defined='yes'/>
    <elf-symbol name='_ZSt3getILm0EIRKPKvEERNSt13tuple_elementIXT_ESt5tupleIIDpT0_EEE4typeERS8_' type='func-type' binding='weak-binding' visibility='default-visibility' is-defined='yes'/>
    <elf-symbol name='_ZSt3getILm0EIRKmEERNSt13tuple_elementIXT_ESt5tupleIIDpT0_EEE4typeERS6_' type='func-type' binding='weak-binding' visibility='default-visibility' is-defined='yes'/>
    <elf-symbol name='_ZSt3getILm0EJRKPKvEERNSt13tuple_elementIXT_ESt5tupleIJDpT0_EEE4typeERS8_' type='func-type' binding='weak-binding' visibility='default-visibility' alias='_ZSt3getILm0EIRKPKvEERNSt13tuple_elementIXT_ESt5tupleIIDpT0_EEE4typeERS8_' is-defined='yes'/>
    <elf-symbol name='_ZSt3getILm0EJRKmEERNSt13tuple_elementIXT_ESt5tupleIJDpT0_EEE4typeERS6_' type='func-type' binding='weak-binding' visibility='default-visibility' alias='_ZSt3getILm0EIRKmEERNSt13tuple_elementIXT_ESt5tupleIIDpT0_EEE4typeERS6_' is-defined='yes'/>
    <elf-symbol name='_ZSt3hexRSt8ios_base' type='func-type' binding='weak-binding' visibility='default-visibility' is-defined='yes'/>
    <elf-symbol name='_ZSt3maxImERKT_S2_S2_' type='func-type' binding='weak-binding' visibility='default-visibility' is-defined='yes'/>
    <elf-symbol name='_ZSt4__lgl' type='func-type' binding='weak-binding' visibility='default-visibility' is-defined='yes'/>
    <elf-symbol name='_ZSt4copyISt13move_iteratorIPPKN8VarTable5EntryEES5_ET0_T_S8_S7_' type='func-type' binding='weak-binding' visibility='default-visibility' is-defined='yes'/>
    <elf-symbol name='_ZSt4copyISt14_List_iteratorIPcEPS1_ET0_T_S5_S4_' type='func-type' binding='weak-binding' visibility='default-visibility' is-defined='yes'/>
    <elf-symbol name='_ZSt4moveIPKN8VarTable5EntryEEONSt16remove_referenceIT_E4typeEOS5_' type='func-type' binding='weak-binding' visibility='default-visibility' is-defined='yes'/>
    <elf-symbol name='_ZSt4moveIR11TargetImageEONSt16remove_referenceIT_E4typeEOS3_' type='func-type' binding='weak-binding' visibility='default-visibility' is-defined='yes'/>
    <elf-symbol name='_ZSt4moveIR6DynLibEONSt16remove_referenceIT_E4typeEOS3_' type='func-type' binding='weak-binding' visibility='default-visibility' is-defined='yes'/>
    <elf-symbol name='_ZSt4moveIR7PtrDataEONSt16remove_referenceIT_E4typeEOS3_' type='func-type' binding='weak-binding' visibility='default-visibility' is-defined='yes'/>
    <elf-symbol name='_ZSt4moveIR8AutoDataEONSt16remove_referenceIT_E4typeEOS3_' type='func-type' binding='weak-binding' visibility='default-visibility' is-defined='yes'/>
    <elf-symbol name='_ZSt4moveIR8MyoTableEONSt16remove_referenceIT_E4typeEOS3_' type='func-type' binding='weak-binding' visibility='default-visibility' is-defined='yes'/>
    <elf-symbol name='_ZSt4moveIRPKN8VarTable5EntryEEONSt16remove_referenceIT_E4typeEOS6_' type='func-type' binding='weak-binding' visibility='default-visibility' is-defined='yes'/>
    <elf-symbol name='_ZSt4moveIRSaISt13_Rb_tree_nodeISt4pairIKmP6StreamEEEEONSt16remove_referenceIT_E4typeEOSA_' type='func-type' binding='weak-binding' visibility='default-visibility' is-defined='yes'/>
    <elf-symbol name='_ZSt4sortIN9__gnu_cxx17__normal_iteratorIPPKN8VarTable5EntryESt6vectorIS5_SaIS5_EEEEPFbS5_S5_EEvT_SD_T0_' type='func-type' binding='weak-binding' visibility='default-visibility' is-defined='yes'/>
    <elf-symbol name='_ZSt4swapIPKN8VarTable5EntryEENSt9enable_ifIXsrSt6__and_IISt21is_move_constructibleIT_ESt18is_move_assignableIS7_EEE5valueEvE4typeERS7_SE_' type='func-type' binding='weak-binding' visibility='default-visibility' is-defined='yes'/>
    <elf-symbol name='_ZSt4swapIPKN8VarTable5EntryEENSt9enable_ifIXsrSt6__and_IJSt21is_move_constructibleIT_ESt18is_move_assignableIS7_EEE5valueEvE4typeERS7_SE_' type='func-type' binding='weak-binding' visibility='default-visibility' alias='_ZSt4swapIPKN8VarTable5EntryEENSt9enable_ifIXsrSt6__and_IISt21is_move_constructibleIT_ESt18is_move_assignableIS7_EEE5valueEvE4typeERS7_SE_' is-defined='yes'/>
    <elf-symbol name='_ZSt5fixedRSt8ios_base' type='func-type' binding='weak-binding' visibility='default-visibility' is-defined='yes'/>
    <elf-symbol name='_ZSt6__sortIN9__gnu_cxx17__normal_iteratorIPPKN8VarTable5EntryESt6vectorIS5_SaIS5_EEEENS0_5__ops15_Iter_comp_iterIPFbS5_S5_EEEEvT_SG_T0_' type='func-type' binding='weak-binding' visibility='default-visibility' is-defined='yes'/>
    <elf-symbol name='_ZSt7forwardI11TargetImageEOT_RNSt16remove_referenceIS1_E4typeE' type='func-type' binding='weak-binding' visibility='default-visibility' is-defined='yes'/>
    <elf-symbol name='_ZSt7forwardI6DynLibEOT_RNSt16remove_referenceIS1_E4typeE' type='func-type' binding='weak-binding' visibility='default-visibility' is-defined='yes'/>
    <elf-symbol name='_ZSt7forwardI7PtrDataEOT_RNSt16remove_referenceIS1_E4typeE' type='func-type' binding='weak-binding' visibility='default-visibility' is-defined='yes'/>
    <elf-symbol name='_ZSt7forwardI8AutoDataEOT_RNSt16remove_referenceIS1_E4typeE' type='func-type' binding='weak-binding' visibility='default-visibility' is-defined='yes'/>
    <elf-symbol name='_ZSt7forwardI8MyoTableEOT_RNSt16remove_referenceIS1_E4typeE' type='func-type' binding='weak-binding' visibility='default-visibility' is-defined='yes'/>
    <elf-symbol name='_ZSt7forwardIPKN8VarTable5EntryEEOT_RNSt16remove_referenceIS4_E4typeE' type='func-type' binding='weak-binding' visibility='default-visibility' is-defined='yes'/>
    <elf-symbol name='_ZSt7forwardIRK11PersistDataEOT_RNSt16remove_referenceIS3_E4typeE' type='func-type' binding='weak-binding' visibility='default-visibility' is-defined='yes'/>
    <elf-symbol name='_ZSt7forwardIRK11TargetImageEOT_RNSt16remove_referenceIS3_E4typeE' type='func-type' binding='weak-binding' visibility='default-visibility' is-defined='yes'/>
    <elf-symbol name='_ZSt7forwardIRKP7PtrDataEOT_RNSt16remove_referenceIS4_E4typeE' type='func-type' binding='weak-binding' visibility='default-visibility' is-defined='yes'/>
    <elf-symbol name='_ZSt7forwardIRKP9coibufferEOT_RNSt16remove_referenceIS4_E4typeE' type='func-type' binding='weak-binding' visibility='default-visibility' is-defined='yes'/>
    <elf-symbol name='_ZSt7forwardIRKPKvEOT_RNSt16remove_referenceIS4_E4typeE' type='func-type' binding='weak-binding' visibility='default-visibility' is-defined='yes'/>
    <elf-symbol name='_ZSt7forwardIRKPcEOT_RNSt16remove_referenceIS3_E4typeE' type='func-type' binding='weak-binding' visibility='default-visibility' is-defined='yes'/>
    <elf-symbol name='_ZSt7forwardIRKSt21piecewise_construct_tEOT_RNSt16remove_referenceIS3_E4typeE' type='func-type' binding='weak-binding' visibility='default-visibility' is-defined='yes'/>
    <elf-symbol name='_ZSt7forwardIRKSt4pairIKmP6StreamEEOT_RNSt16remove_referenceIS7_E4typeE' type='func-type' binding='weak-binding' visibility='default-visibility' is-defined='yes'/>
    <elf-symbol name='_ZSt7forwardIRKmEOT_RNSt16remove_referenceIS2_E4typeE' type='func-type' binding='weak-binding' visibility='default-visibility' is-defined='yes'/>
    <elf-symbol name='_ZSt7forwardIRPSt13_Rb_tree_nodeI7PtrDataEEOT_RNSt16remove_referenceIS5_E4typeE' type='func-type' binding='weak-binding' visibility='default-visibility' is-defined='yes'/>
    <elf-symbol name='_ZSt7forwardIRPSt13_Rb_tree_nodeI8AutoDataEEOT_RNSt16remove_referenceIS5_E4typeE' type='func-type' binding='weak-binding' visibility='default-visibility' is-defined='yes'/>
    <elf-symbol name='_ZSt7forwardIRPSt13_Rb_tree_nodeISt4pairIKPKvP17OffloadDescriptorEEEOT_RNSt16remove_referenceISB_E4typeE' type='func-type' binding='weak-binding' visibility='default-visibility' is-defined='yes'/>
    <elf-symbol name='_ZSt7forwardIRPSt13_Rb_tree_nodeISt4pairIKmP6StreamEEEOT_RNSt16remove_referenceIS9_E4typeE' type='func-type' binding='weak-binding' visibility='default-visibility' is-defined='yes'/>
    <elf-symbol name='_ZSt7forwardIRPSt18_Rb_tree_node_baseEOT_RNSt16remove_referenceIS3_E4typeE' type='func-type' binding='weak-binding' visibility='default-visibility' is-defined='yes'/>
    <elf-symbol name='_ZSt7forwardIRSt17_Rb_tree_iteratorI7PtrDataEEOT_RNSt16remove_referenceIS4_E4typeE' type='func-type' binding='weak-binding' visibility='default-visibility' is-defined='yes'/>
    <elf-symbol name='_ZSt7forwardIRSt17_Rb_tree_iteratorI8AutoDataEEOT_RNSt16remove_referenceIS4_E4typeE' type='func-type' binding='weak-binding' visibility='default-visibility' is-defined='yes'/>
    <elf-symbol name='_ZSt7forwardIRbEOT_RNSt16remove_referenceIS1_E4typeE' type='func-type' binding='weak-binding' visibility='default-visibility' is-defined='yes'/>
    <elf-symbol name='_ZSt7forwardISt17_Rb_tree_iteratorI7PtrDataEEOT_RNSt16remove_referenceIS3_E4typeE' type='func-type' binding='weak-binding' visibility='default-visibility' is-defined='yes'/>
    <elf-symbol name='_ZSt7forwardISt17_Rb_tree_iteratorI8AutoDataEEOT_RNSt16remove_referenceIS3_E4typeE' type='func-type' binding='weak-binding' visibility='default-visibility' is-defined='yes'/>
    <elf-symbol name='_ZSt7forwardISt5tupleIIEEEOT_RNSt16remove_referenceIS2_E4typeE' type='func-type' binding='weak-binding' visibility='default-visibility' is-defined='yes'/>
    <elf-symbol name='_ZSt7forwardISt5tupleIIRKPKvEEEOT_RNSt16remove_referenceIS6_E4typeE' type='func-type' binding='weak-binding' visibility='default-visibility' is-defined='yes'/>
    <elf-symbol name='_ZSt7forwardISt5tupleIIRKmEEEOT_RNSt16remove_referenceIS4_E4typeE' type='func-type' binding='weak-binding' visibility='default-visibility' is-defined='yes'/>
    <elf-symbol name='_ZSt7forwardISt5tupleIJEEEOT_RNSt16remove_referenceIS2_E4typeE' type='func-type' binding='weak-binding' visibility='default-visibility' alias='_ZSt7forwardISt5tupleIIEEEOT_RNSt16remove_referenceIS2_E4typeE' is-defined='yes'/>
    <elf-symbol name='_ZSt7forwardISt5tupleIJRKPKvEEEOT_RNSt16remove_referenceIS6_E4typeE' type='func-type' binding='weak-binding' visibility='default-visibility' alias='_ZSt7forwardISt5tupleIIRKPKvEEEOT_RNSt16remove_referenceIS6_E4typeE' is-defined='yes'/>
    <elf-symbol name='_ZSt7forwardISt5tupleIJRKmEEEOT_RNSt16remove_referenceIS4_E4typeE' type='func-type' binding='weak-binding' visibility='default-visibility' alias='_ZSt7forwardISt5tupleIIRKmEEEOT_RNSt16remove_referenceIS4_E4typeE' is-defined='yes'/>
    <elf-symbol name='_ZSt7forwardIbEOT_RNSt16remove_referenceIS0_E4typeE' type='func-type' binding='weak-binding' visibility='default-visibility' is-defined='yes'/>
    <elf-symbol name='_ZSt8_DestroyIPPKN8VarTable5EntryEEvT_S5_' type='func-type' binding='weak-binding' visibility='default-visibility' is-defined='yes'/>
    <elf-symbol name='_ZSt8_DestroyIPPKN8VarTable5EntryES3_EvT_S5_RSaIT0_E' type='func-type' binding='weak-binding' visibility='default-visibility' is-defined='yes'/>
    <elf-symbol name='_ZSt9iter_swapIN9__gnu_cxx17__normal_iteratorIPPKN8VarTable5EntryESt6vectorIS5_SaIS5_EEEESA_EvT_T0_' type='func-type' binding='weak-binding' visibility='default-visibility' is-defined='yes'/>
    <elf-symbol name='_ZStaNRSt13_Ios_FmtflagsS_' type='func-type' binding='weak-binding' visibility='default-visibility' is-defined='yes'/>
    <elf-symbol name='_ZStanSt13_Ios_FmtflagsS_' type='func-type' binding='weak-binding' visibility='default-visibility' is-defined='yes'/>
    <elf-symbol name='_ZStcoSt13_Ios_Fmtflags' type='func-type' binding='weak-binding' visibility='default-visibility' is-defined='yes'/>
    <elf-symbol name='_ZStmiIPPKN8VarTable5EntryEEDTmicldtfp_4baseEcldtfp0_4baseEERKSt13move_iteratorIT_ESA_' type='func-type' binding='weak-binding' visibility='default-visibility' is-defined='yes'/>
    <elf-symbol name='_ZStoRRSt13_Ios_FmtflagsS_' type='func-type' binding='weak-binding' visibility='default-visibility' is-defined='yes'/>
    <elf-symbol name='_ZStorSt13_Ios_FmtflagsS_' type='func-type' binding='weak-binding' visibility='default-visibility' is-defined='yes'/>
    <elf-symbol name='_ZStorSt13_Ios_OpenmodeS_' type='func-type' binding='weak-binding' visibility='default-visibility' is-defined='yes'/>
    <elf-symbol name='_ZdlPvS_' type='func-type' binding='weak-binding' visibility='default-visibility' is-defined='yes'/>
    <elf-symbol name='_ZnwmPv' type='func-type' binding='weak-binding' visibility='default-visibility' is-defined='yes'/>
    <elf-symbol name='__dbg_target_so_loaded' type='func-type' binding='global-binding' visibility='default-visibility' is-defined='yes'/>
    <elf-symbol name='__dbg_target_so_unloaded' type='func-type' binding='global-binding' visibility='default-visibility' is-defined='yes'/>
    <elf-symbol name='__intel_cilk_for_32_offload' type='func-type' binding='global-binding' visibility='default-visibility' is-defined='yes'/>
    <elf-symbol name='__intel_cilk_for_64_offload' type='func-type' binding='global-binding' visibility='default-visibility' is-defined='yes'/>
    <elf-symbol name='__offload_myoIsAvailable' type='func-type' binding='global-binding' visibility='default-visibility' is-defined='yes'/>
    <elf-symbol name='__offload_myoProcessTables' type='func-type' binding='global-binding' visibility='default-visibility' is-defined='yes'/>
    <elf-symbol name='__offload_myoRegisterTables' type='func-type' binding='global-binding' visibility='default-visibility' is-defined='yes'/>
    <elf-symbol name='__offload_myoRegisterTables1' type='func-type' binding='global-binding' visibility='default-visibility' is-defined='yes'/>
    <elf-symbol name='__offload_myoRemoveTables' type='func-type' binding='global-binding' visibility='default-visibility' is-defined='yes'/>
    <elf-symbol name='__offload_myoiRemoteIThunkCall' type='func-type' binding='global-binding' visibility='default-visibility' is-defined='yes'/>
    <elf-symbol name='__offload_offload' type='func-type' binding='global-binding' visibility='default-visibility' is-defined='yes'/>
    <elf-symbol name='__offload_offload1' type='func-type' binding='global-binding' visibility='default-visibility' is-defined='yes'/>
    <elf-symbol name='__offload_offload2' type='func-type' binding='global-binding' visibility='default-visibility' is-defined='yes'/>
    <elf-symbol name='__offload_offload3' type='func-type' binding='global-binding' visibility='default-visibility' is-defined='yes'/>
    <elf-symbol name='__offload_offload_call_count' type='func-type' binding='global-binding' visibility='default-visibility' is-defined='yes'/>
    <elf-symbol name='__offload_register_image' type='func-type' binding='global-binding' visibility='default-visibility' is-defined='yes'/>
    <elf-symbol name='__offload_register_tables' type='func-type' binding='global-binding' visibility='default-visibility' is-defined='yes'/>
    <elf-symbol name='__offload_target_acquire' type='func-type' binding='global-binding' visibility='default-visibility' is-defined='yes'/>
    <elf-symbol name='__offload_target_acquire1' type='func-type' binding='global-binding' visibility='default-visibility' is-defined='yes'/>
    <elf-symbol name='__offload_target_acquire2' type='func-type' binding='global-binding' visibility='default-visibility' is-defined='yes'/>
    <elf-symbol name='__offload_target_image_is_executable' type='func-type' binding='global-binding' visibility='default-visibility' is-defined='yes'/>
    <elf-symbol name='__offload_unregister_image' type='func-type' binding='global-binding' visibility='default-visibility' is-defined='yes'/>
    <elf-symbol name='__offload_unregister_tables' type='func-type' binding='global-binding' visibility='default-visibility' is-defined='yes'/>
    <elf-symbol name='_fini' type='func-type' binding='global-binding' visibility='default-visibility' is-defined='yes'/>
    <elf-symbol name='_init' type='func-type' binding='global-binding' visibility='default-visibility' is-defined='yes'/>
    <elf-symbol name='for__continue_traceback' type='func-type' binding='weak-binding' visibility='default-visibility' is-defined='yes'/>
    <elf-symbol name='offload_proxy_task_completed_ooo' type='func-type' binding='global-binding' visibility='default-visibility' is-defined='yes'/>
    <elf-symbol name='omp_destroy_lock_target' type='func-type' binding='global-binding' visibility='default-visibility' is-defined='yes'/>
    <elf-symbol name='omp_destroy_nest_lock_target' type='func-type' binding='global-binding' visibility='default-visibility' is-defined='yes'/>
    <elf-symbol name='omp_get_default_device' type='func-type' binding='global-binding' visibility='default-visibility' is-defined='yes'/>
    <elf-symbol name='omp_get_dynamic_target' type='func-type' binding='global-binding' visibility='default-visibility' is-defined='yes'/>
    <elf-symbol name='omp_get_max_threads_target' type='func-type' binding='global-binding' visibility='default-visibility' is-defined='yes'/>
    <elf-symbol name='omp_get_nested_target' type='func-type' binding='global-binding' visibility='default-visibility' is-defined='yes'/>
    <elf-symbol name='omp_get_num_devices' type='func-type' binding='global-binding' visibility='default-visibility' is-defined='yes'/>
    <elf-symbol name='omp_get_num_procs_target' type='func-type' binding='global-binding' visibility='default-visibility' is-defined='yes'/>
    <elf-symbol name='omp_get_schedule_target' type='func-type' binding='global-binding' visibility='default-visibility' is-defined='yes'/>
    <elf-symbol name='omp_init_lock_target' type='func-type' binding='global-binding' visibility='default-visibility' is-defined='yes'/>
    <elf-symbol name='omp_init_nest_lock_target' type='func-type' binding='global-binding' visibility='default-visibility' is-defined='yes'/>
    <elf-symbol name='omp_set_default_device' type='func-type' binding='global-binding' visibility='default-visibility' is-defined='yes'/>
    <elf-symbol name='omp_set_dynamic_target' type='func-type' binding='global-binding' visibility='default-visibility' is-defined='yes'/>
    <elf-symbol name='omp_set_lock_target' type='func-type' binding='global-binding' visibility='default-visibility' is-defined='yes'/>
    <elf-symbol name='omp_set_nest_lock_target' type='func-type' binding='global-binding' visibility='default-visibility' is-defined='yes'/>
    <elf-symbol name='omp_set_nested_target' type='func-type' binding='global-binding' visibility='default-visibility' is-defined='yes'/>
    <elf-symbol name='omp_set_num_threads_target' type='func-type' binding='global-binding' visibility='default-visibility' is-defined='yes'/>
    <elf-symbol name='omp_set_schedule_target' type='func-type' binding='global-binding' visibility='default-visibility' is-defined='yes'/>
    <elf-symbol name='omp_test_lock_target' type='func-type' binding='global-binding' visibility='default-visibility' is-defined='yes'/>
    <elf-symbol name='omp_test_nest_lock_target' type='func-type' binding='global-binding' visibility='default-visibility' is-defined='yes'/>
    <elf-symbol name='omp_unset_lock_target' type='func-type' binding='global-binding' visibility='default-visibility' is-defined='yes'/>
    <elf-symbol name='omp_unset_nest_lock_target' type='func-type' binding='global-binding' visibility='default-visibility' is-defined='yes'/>
  </elf-function-symbols>
  <elf-variable-symbols>
    <elf-symbol name='_ZN3COI13EngineGetInfoE' size='8' type='object-type' binding='global-binding' visibility='default-visibility' is-defined='yes'/>
    <elf-symbol name='_ZN3COI18PipelineSetCPUMaskE' size='8' type='object-type' binding='global-binding' visibility='default-visibility' is-defined='yes'/>
    <elf-symbol name='_ZN3COI20PipelineClearCPUMaskE' size='8' type='object-type' binding='global-binding' visibility='default-visibility' is-defined='yes'/>
    <elf-symbol name='_ZN3COI21EventRegisterCallbackE' size='8' type='object-type' binding='global-binding' visibility='default-visibility' is-defined='yes'/>
    <elf-symbol name='_ZN6Engine12m_func_namesE' size='56' type='object-type' binding='global-binding' visibility='default-visibility' is-defined='yes'/>
    <elf-symbol name='_ZN6Engine14c_signal_namesE' size='256' type='object-type' binding='global-binding' visibility='default-visibility' is-defined='yes'/>
    <elf-symbol name='_ZN6Stream11all_streamsE' size='48' type='object-type' binding='global-binding' visibility='default-visibility' is-defined='yes'/>
    <elf-symbol name='_ZN6Stream13m_stream_lockE' size='40' type='object-type' binding='global-binding' visibility='default-visibility' is-defined='yes'/>
    <elf-symbol name='_ZN6Stream15m_streams_countE' size='8' type='object-type' binding='global-binding' visibility='default-visibility' is-defined='yes'/>
    <elf-symbol name='__dbg_api_major_version' size='4' type='object-type' binding='global-binding' visibility='default-visibility' is-defined='yes'/>
    <elf-symbol name='__dbg_api_minor_version' size='4' type='object-type' binding='global-binding' visibility='default-visibility' is-defined='yes'/>
    <elf-symbol name='__dbg_is_attached' size='4' type='object-type' binding='global-binding' visibility='default-visibility' is-defined='yes'/>
    <elf-symbol name='__dbg_target_exe_name' size='512' type='object-type' binding='global-binding' visibility='default-visibility' is-defined='yes'/>
    <elf-symbol name='__dbg_target_id' size='4' type='object-type' binding='global-binding' visibility='default-visibility' is-defined='yes'/>
    <elf-symbol name='__dbg_target_so_pid' size='4' type='object-type' binding='global-binding' visibility='default-visibility' is-defined='yes'/>
    <elf-symbol name='__offload_myo_func_tables' size='48' type='object-type' binding='global-binding' visibility='default-visibility' is-defined='yes'/>
    <elf-symbol name='__offload_myo_init_tables' size='48' type='object-type' binding='global-binding' visibility='default-visibility' is-defined='yes'/>
    <elf-symbol name='__offload_myo_var_tables' size='48' type='object-type' binding='global-binding' visibility='default-visibility' is-defined='yes'/>
    <elf-symbol name='__offload_myo_vtable_tables' size='48' type='object-type' binding='global-binding' visibility='default-visibility' is-defined='yes'/>
  </elf-variable-symbols>
  <abi-instr address-size='64' path='../../../gcc/liboffloadmic/runtime/cean_util.cpp' comp-dir-path='/export/users/iverbin/gcc_build_host/x86_64-pc-linux-gnu/liboffloadmic' language='LANG_C_plus_plus'>
  </abi-instr>
  <abi-instr address-size='64' path='../../../gcc/liboffloadmic/runtime/coi/coi_client.cpp' comp-dir-path='/export/users/iverbin/gcc_build_host/x86_64-pc-linux-gnu/liboffloadmic' language='LANG_C_plus_plus'>
    <type-decl name='unsigned char' size-in-bits='8' id='type-id-1'/>
    <array-type-def dimensions='1' type-id='type-id-2' size-in-bits='32768' id='type-id-3'>
      <subrange length='1024' type-id='type-id-4' id='type-id-5'/>
    </array-type-def>
    <array-type-def dimensions='1' type-id='type-id-6' size-in-bits='128' id='type-id-7'>
      <subrange length='2' type-id='type-id-4' id='type-id-8'/>
    </array-type-def>
    <array-type-def dimensions='1' type-id='type-id-9' size-in-bits='8160' id='type-id-10'>
      <subrange length='255' type-id='type-id-4' id='type-id-11'/>
    </array-type-def>
    <typedef-decl name='COIRESULT' type-id='type-id-12' filepath='../../../gcc/liboffloadmic/include/coi/source/../common/COIResult_common.h' line='122' column='1' id='type-id-13'/>
    <enum-decl name='COIRESULT' filepath='../../../gcc/liboffloadmic/include/coi/source/../common/COIResult_common.h' line='57' column='1' id='type-id-12'>
      <underlying-type type-id='type-id-14'/>
      <enumerator name='COI_SUCCESS' value='0'/>
      <enumerator name='COI_ERROR' value='1'/>
      <enumerator name='COI_NOT_INITIALIZED' value='2'/>
      <enumerator name='COI_ALREADY_INITIALIZED' value='3'/>
      <enumerator name='COI_ALREADY_EXISTS' value='4'/>
      <enumerator name='COI_DOES_NOT_EXIST' value='5'/>
      <enumerator name='COI_INVALID_POINTER' value='6'/>
      <enumerator name='COI_OUT_OF_RANGE' value='7'/>
      <enumerator name='COI_NOT_SUPPORTED' value='8'/>
      <enumerator name='COI_TIME_OUT_REACHED' value='9'/>
      <enumerator name='COI_MEMORY_OVERLAP' value='10'/>
      <enumerator name='COI_ARGUMENT_MISMATCH' value='11'/>
      <enumerator name='COI_SIZE_MISMATCH' value='12'/>
      <enumerator name='COI_OUT_OF_MEMORY' value='13'/>
      <enumerator name='COI_INVALID_HANDLE' value='14'/>
      <enumerator name='COI_RETRY' value='15'/>
      <enumerator name='COI_RESOURCE_EXHAUSTED' value='16'/>
      <enumerator name='COI_ALREADY_LOCKED' value='17'/>
      <enumerator name='COI_NOT_LOCKED' value='18'/>
      <enumerator name='COI_MISSING_DEPENDENCY' value='19'/>
      <enumerator name='COI_UNDEFINED_SYMBOL' value='20'/>
      <enumerator name='COI_PENDING' value='21'/>
      <enumerator name='COI_BINARY_AND_HARDWARE_MISMATCH' value='22'/>
      <enumerator name='COI_PROCESS_DIED' value='23'/>
      <enumerator name='COI_INVALID_FILE' value='24'/>
      <enumerator name='COI_EVENT_CANCELED' value='25'/>
      <enumerator name='COI_VERSION_MISMATCH' value='26'/>
      <enumerator name='COI_BAD_PORT' value='27'/>
      <enumerator name='COI_AUTHENTICATION_FAILURE' value='28'/>
      <enumerator name='COI_NUM_RESULTS' value='29'/>
    </enum-decl>
    <typedef-decl name='COI_ISA_TYPE' type-id='type-id-15' filepath='../../../gcc/liboffloadmic/include/coi/source/../common/COIEngine_common.h' line='78' column='1' id='type-id-16'/>
    <enum-decl name='__anonymous_enum__' is-anonymous='yes' linkage-name='12COI_ISA_TYPE' filepath='../../../gcc/liboffloadmic/include/coi/source/../common/COIEngine_common.h' line='70' column='1' id='type-id-15'>
      <underlying-type type-id='type-id-14'/>
      <enumerator name='COI_ISA_INVALID' value='0'/>
      <enumerator name='COI_ISA_x86_64' value='1'/>
      <enumerator name='COI_ISA_MIC' value='2'/>
      <enumerator name='COI_ISA_KNF' value='3'/>
      <enumerator name='COI_ISA_KNC' value='4'/>
    </enum-decl>
    <typedef-decl name='uint32_t' type-id='type-id-2' filepath='/usr/include/stdint.h' line='51' column='1' id='type-id-17'/>
    <typedef-decl name='COIENGINE' type-id='type-id-18' filepath='../../../gcc/liboffloadmic/include/coi/common/../common/COITypes_common.h' line='68' column='1' id='type-id-19'/>
    <typedef-decl name='uint8_t' type-id='type-id-1' filepath='/usr/include/stdint.h' line='48' column='1' id='type-id-20'/>
    <typedef-decl name='COIPROCESS' type-id='type-id-21' filepath='../../../gcc/liboffloadmic/include/coi/common/../common/COITypes_common.h' line='65' column='1' id='type-id-22'/>
    <typedef-decl name='COIEVENT' type-id='type-id-23' filepath='../../../gcc/liboffloadmic/include/coi/common/../common/COITypes_common.h' line='69' column='1' id='type-id-24'/>
    <typedef-decl name='int32_t' type-id='type-id-25' filepath='/usr/include/stdint.h' line='38' column='1' id='type-id-26'/>
    <typedef-decl name='int8_t' type-id='type-id-27' filepath='/usr/include/stdint.h' line='36' column='1' id='type-id-28'/>
    <typedef-decl name='COIFUNCTION' type-id='type-id-29' filepath='../../../gcc/liboffloadmic/include/coi/common/../common/COITypes_common.h' line='67' column='1' id='type-id-30'/>
    <typedef-decl name='COILIBRARY' type-id='type-id-31' filepath='../../../gcc/liboffloadmic/include/coi/common/../common/COITypes_common.h' line='71' column='1' id='type-id-32'/>
    <typedef-decl name='COIPIPELINE' type-id='type-id-33' filepath='../../../gcc/liboffloadmic/include/coi/common/../common/COITypes_common.h' line='66' column='1' id='type-id-34'/>
    <typedef-decl name='COIBUFFER' type-id='type-id-35' filepath='../../../gcc/liboffloadmic/include/coi/common/../common/COITypes_common.h' line='70' column='1' id='type-id-36'/>
    <typedef-decl name='COI_ACCESS_FLAGS' type-id='type-id-37' filepath='../../../gcc/liboffloadmic/include/coi/source/COIPipeline_source.h' line='97' column='1' id='type-id-38'/>
    <enum-decl name='COI_ACCESS_FLAGS' filepath='../../../gcc/liboffloadmic/include/coi/source/COIPipeline_source.h' line='69' column='1' id='type-id-37'>
      <underlying-type type-id='type-id-14'/>
      <enumerator name='COI_SINK_READ' value='1'/>
      <enumerator name='COI_SINK_WRITE' value='2'/>
      <enumerator name='COI_SINK_WRITE_ENTIRE' value='3'/>
      <enumerator name='COI_SINK_READ_ADDREF' value='4'/>
      <enumerator name='COI_SINK_WRITE_ADDREF' value='5'/>
      <enumerator name='COI_SINK_WRITE_ENTIRE_ADDREF' value='6'/>
    </enum-decl>
    <typedef-decl name='uint16_t' type-id='type-id-39' filepath='/usr/include/stdint.h' line='49' column='1' id='type-id-40'/>
    <typedef-decl name='COI_BUFFER_TYPE' type-id='type-id-41' filepath='../../../gcc/liboffloadmic/include/coi/source/COIBuffer_source.h' line='87' column='1' id='type-id-42'/>
    <enum-decl name='COI_BUFFER_TYPE' filepath='../../../gcc/liboffloadmic/include/coi/source/COIBuffer_source.h' line='65' column='1' id='type-id-41'>
      <underlying-type type-id='type-id-14'/>
      <enumerator name='COI_BUFFER_NORMAL' value='1'/>
      <enumerator name='COI_BUFFER_RESERVED_1' value='2'/>
      <enumerator name='COI_BUFFER_RESERVED_2' value='3'/>
      <enumerator name='COI_BUFFER_PINNED' value='4'/>
      <enumerator name='COI_BUFFER_OPENCL' value='5'/>
    </enum-decl>
    <typedef-decl name='COI_MAP_TYPE' type-id='type-id-43' filepath='../../../gcc/liboffloadmic/include/coi/source/COIBuffer_source.h' line='204' column='1' id='type-id-44'/>
    <enum-decl name='COI_MAP_TYPE' filepath='../../../gcc/liboffloadmic/include/coi/source/COIBuffer_source.h' line='183' column='1' id='type-id-43'>
      <underlying-type type-id='type-id-14'/>
      <enumerator name='COI_MAP_READ_WRITE' value='1'/>
      <enumerator name='COI_MAP_READ_ONLY' value='2'/>
      <enumerator name='COI_MAP_WRITE_ENTIRE_BUFFER' value='3'/>
    </enum-decl>
    <typedef-decl name='COIMAPINSTANCE' type-id='type-id-45' filepath='../../../gcc/liboffloadmic/include/coi/common/../common/COITypes_common.h' line='72' column='1' id='type-id-46'/>
    <typedef-decl name='COI_COPY_TYPE' type-id='type-id-47' filepath='../../../gcc/liboffloadmic/include/coi/source/COIBuffer_source.h' line='265' column='1' id='type-id-48'/>
    <enum-decl name='COI_COPY_TYPE' filepath='../../../gcc/liboffloadmic/include/coi/source/COIBuffer_source.h' line='240' column='1' id='type-id-47'>
      <underlying-type type-id='type-id-14'/>
      <enumerator name='COI_COPY_UNSPECIFIED' value='0'/>
      <enumerator name='COI_COPY_USE_DMA' value='1'/>
      <enumerator name='COI_COPY_USE_CPU' value='2'/>
      <enumerator name='COI_COPY_UNSPECIFIED_MOVE_ENTIRE' value='3'/>
      <enumerator name='COI_COPY_USE_DMA_MOVE_ENTIRE' value='4'/>
      <enumerator name='COI_COPY_USE_CPU_MOVE_ENTIRE' value='5'/>
    </enum-decl>
    <typedef-decl name='COI_BUFFER_STATE' type-id='type-id-49' filepath='../../../gcc/liboffloadmic/include/coi/source/COIBuffer_source.h' line='342' column='1' id='type-id-50'/>
    <enum-decl name='__anonymous_enum__1' is-anonymous='yes' linkage-name='16COI_BUFFER_STATE' filepath='../../../gcc/liboffloadmic/include/coi/source/COIBuffer_source.h' line='335' column='1' id='type-id-49'>
      <underlying-type type-id='type-id-14'/>
      <enumerator name='COI_BUFFER_VALID' value='0'/>
      <enumerator name='COI_BUFFER_INVALID' value='1'/>
      <enumerator name='COI_BUFFER_VALID_MAY_DROP' value='2'/>
      <enumerator name='COI_BUFFER_RESERVED' value='3'/>
    </enum-decl>
    <typedef-decl name='COI_BUFFER_MOVE_FLAG' type-id='type-id-51' filepath='../../../gcc/liboffloadmic/include/coi/source/COIBuffer_source.h' line='362' column='1' id='type-id-52'/>
    <enum-decl name='__anonymous_enum__2' is-anonymous='yes' linkage-name='20COI_BUFFER_MOVE_FLAG' filepath='../../../gcc/liboffloadmic/include/coi/source/COIBuffer_source.h' line='359' column='1' id='type-id-51'>
      <underlying-type type-id='type-id-14'/>
      <enumerator name='COI_BUFFER_MOVE' value='0'/>
      <enumerator name='COI_BUFFER_NO_MOVE' value='1'/>
    </enum-decl>
    <typedef-decl name='COI_ENGINE_INFO' type-id='type-id-53' filepath='../../../gcc/liboffloadmic/include/coi/source/COIEngine_source.h' line='133' column='1' id='type-id-54'/>
    <class-decl name='COI_ENGINE_INFO' size-in-bits='41472' is-struct='yes' visibility='default' filepath='../../../gcc/liboffloadmic/include/coi/source/COIEngine_source.h' line='83' column='1' id='type-id-53'>
      <data-member access='public' layout-offset-in-bits='0'>
        <var-decl name='DriverVersion' type-id='type-id-10' visibility='default' filepath='../../../gcc/liboffloadmic/include/coi/source/COIEngine_source.h' line='86' column='1'/>
      </data-member>
      <data-member access='public' layout-offset-in-bits='8160'>
        <var-decl name='ISA' type-id='type-id-16' visibility='default' filepath='../../../gcc/liboffloadmic/include/coi/source/COIEngine_source.h' line='89' column='1'/>
      </data-member>
      <data-member access='public' layout-offset-in-bits='8192'>
        <var-decl name='NumCores' type-id='type-id-17' visibility='default' filepath='../../../gcc/liboffloadmic/include/coi/source/COIEngine_source.h' line='92' column='1'/>
      </data-member>
      <data-member access='public' layout-offset-in-bits='8224'>
        <var-decl name='MiscFlags' type-id='type-id-55' visibility='default' filepath='../../../gcc/liboffloadmic/include/coi/source/COIEngine_source.h' line='95' column='1'/>
      </data-member>
      <data-member access='public' layout-offset-in-bits='8256'>
        <var-decl name='NumThreads' type-id='type-id-17' visibility='default' filepath='../../../gcc/liboffloadmic/include/coi/source/COIEngine_source.h' line='98' column='1'/>
      </data-member>
      <data-member access='public' layout-offset-in-bits='8288'>
        <var-decl name='CoreMaxFrequency' type-id='type-id-17' visibility='default' filepath='../../../gcc/liboffloadmic/include/coi/source/COIEngine_source.h' line='101' column='1'/>
      </data-member>
      <data-member access='public' layout-offset-in-bits='8320'>
        <var-decl name='Load' type-id='type-id-3' visibility='default' filepath='../../../gcc/liboffloadmic/include/coi/source/COIEngine_source.h' line='105' column='1'/>
      </data-member>
      <data-member access='public' layout-offset-in-bits='41088'>
        <var-decl name='PhysicalMemory' type-id='type-id-56' visibility='default' filepath='../../../gcc/liboffloadmic/include/coi/source/COIEngine_source.h' line='108' column='1'/>
      </data-member>
      <data-member access='public' layout-offset-in-bits='41152'>
        <var-decl name='PhysicalMemoryFree' type-id='type-id-56' visibility='default' filepath='../../../gcc/liboffloadmic/include/coi/source/COIEngine_source.h' line='111' column='1'/>
      </data-member>
      <data-member access='public' layout-offset-in-bits='41216'>
        <var-decl name='SwapMemory' type-id='type-id-56' visibility='default' filepath='../../../gcc/liboffloadmic/include/coi/source/COIEngine_source.h' line='114' column='1'/>
      </data-member>
      <data-member access='public' layout-offset-in-bits='41280'>
        <var-decl name='SwapMemoryFree' type-id='type-id-56' visibility='default' filepath='../../../gcc/liboffloadmic/include/coi/source/COIEngine_source.h' line='117' column='1'/>
      </data-member>
      <data-member access='public' layout-offset-in-bits='41344'>
        <var-decl name='VendorId' type-id='type-id-40' visibility='default' filepath='../../../gcc/liboffloadmic/include/coi/source/COIEngine_source.h' line='120' column='1'/>
      </data-member>
      <data-member access='public' layout-offset-in-bits='41360'>
        <var-decl name='DeviceId' type-id='type-id-40' visibility='default' filepath='../../../gcc/liboffloadmic/include/coi/source/COIEngine_source.h' line='123' column='1'/>
      </data-member>
      <data-member access='public' layout-offset-in-bits='41376'>
        <var-decl name='SubSystemId' type-id='type-id-40' visibility='default' filepath='../../../gcc/liboffloadmic/include/coi/source/COIEngine_source.h' line='126' column='1'/>
      </data-member>
      <data-member access='public' layout-offset-in-bits='41392'>
        <var-decl name='BoardStepping' type-id='type-id-40' visibility='default' filepath='../../../gcc/liboffloadmic/include/coi/source/COIEngine_source.h' line='129' column='1'/>
      </data-member>
      <data-member access='public' layout-offset-in-bits='41408'>
        <var-decl name='BoardSKU' type-id='type-id-40' visibility='default' filepath='../../../gcc/liboffloadmic/include/coi/source/COIEngine_source.h' line='132' column='1'/>
      </data-member>
    </class-decl>
    <typedef-decl name='coi_eng_misc' type-id='type-id-57' filepath='../../../gcc/liboffloadmic/include/coi/source/COIEngine_source.h' line='74' column='1' id='type-id-55'/>
    <enum-decl name='__anonymous_enum__3' is-anonymous='yes' linkage-name='12coi_eng_misc' filepath='../../../gcc/liboffloadmic/include/coi/source/COIEngine_source.h' line='70' column='1' id='type-id-57'>
      <underlying-type type-id='type-id-14'/>
      <enumerator name='COI_ENG_ECC_DISABLED' value='0'/>
      <enumerator name='COI_ENG_ECC_ENABLED' value='1'/>
      <enumerator name='COI_ENG_ECC_UNKNOWN' value='2'/>
    </enum-decl>
    <class-decl name='coievent' size-in-bits='128' is-struct='yes' visibility='default' filepath='../../../gcc/liboffloadmic/include/coi/common/../common/COITypes_common.h' line='63' column='1' id='type-id-23'>
      <data-member access='public' layout-offset-in-bits='0'>
        <var-decl name='opaque' type-id='type-id-7' visibility='default' filepath='../../../gcc/liboffloadmic/include/coi/common/../common/COITypes_common.h' line='63' column='1'/>
      </data-member>
    </class-decl>
    <pointer-type-def type-id='type-id-36' size-in-bits='64' id='type-id-58'/>
    <pointer-type-def type-id='type-id-19' size-in-bits='64' id='type-id-59'/>
    <pointer-type-def type-id='type-id-24' size-in-bits='64' id='type-id-60'/>
    <pointer-type-def type-id='type-id-30' size-in-bits='64' id='type-id-61'/>
    <pointer-type-def type-id='type-id-32' size-in-bits='64' id='type-id-62'/>
    <pointer-type-def type-id='type-id-46' size-in-bits='64' id='type-id-63'/>
    <pointer-type-def type-id='type-id-34' size-in-bits='64' id='type-id-64'/>
    <pointer-type-def type-id='type-id-22' size-in-bits='64' id='type-id-65'/>
    <pointer-type-def type-id='type-id-54' size-in-bits='64' id='type-id-66'/>
    <pointer-type-def type-id='type-id-67' size-in-bits='64' id='type-id-35'/>
    <pointer-type-def type-id='type-id-68' size-in-bits='64' id='type-id-18'/>
    <pointer-type-def type-id='type-id-69' size-in-bits='64' id='type-id-29'/>
    <pointer-type-def type-id='type-id-70' size-in-bits='64' id='type-id-31'/>
    <pointer-type-def type-id='type-id-71' size-in-bits='64' id='type-id-45'/>
    <pointer-type-def type-id='type-id-72' size-in-bits='64' id='type-id-33'/>
    <pointer-type-def type-id='type-id-73' size-in-bits='64' id='type-id-21'/>
    <qualified-type-def type-id='type-id-36' const='yes' id='type-id-74'/>
    <pointer-type-def type-id='type-id-74' size-in-bits='64' id='type-id-75'/>
    <qualified-type-def type-id='type-id-24' const='yes' id='type-id-76'/>
    <pointer-type-def type-id='type-id-76' size-in-bits='64' id='type-id-77'/>
    <qualified-type-def type-id='type-id-22' const='yes' id='type-id-78'/>
    <pointer-type-def type-id='type-id-78' size-in-bits='64' id='type-id-79'/>
    <qualified-type-def type-id='type-id-38' const='yes' id='type-id-80'/>
    <pointer-type-def type-id='type-id-80' size-in-bits='64' id='type-id-81'/>
    <qualified-type-def type-id='type-id-56' const='yes' id='type-id-82'/>
    <pointer-type-def type-id='type-id-82' size-in-bits='64' id='type-id-83'/>
    <pointer-type-def type-id='type-id-28' size-in-bits='64' id='type-id-84'/>
    <pointer-type-def type-id='type-id-85' size-in-bits='64' id='type-id-86'/>
    <pointer-type-def type-id='type-id-87' size-in-bits='64' id='type-id-88'/>
    <pointer-type-def type-id='type-id-89' size-in-bits='64' id='type-id-90'/>
    <pointer-type-def type-id='type-id-91' size-in-bits='64' id='type-id-92'/>
    <pointer-type-def type-id='type-id-93' size-in-bits='64' id='type-id-94'/>
    <pointer-type-def type-id='type-id-95' size-in-bits='64' id='type-id-96'/>
    <pointer-type-def type-id='type-id-97' size-in-bits='64' id='type-id-98'/>
    <pointer-type-def type-id='type-id-99' size-in-bits='64' id='type-id-100'/>
    <pointer-type-def type-id='type-id-101' size-in-bits='64' id='type-id-102'/>
    <pointer-type-def type-id='type-id-103' size-in-bits='64' id='type-id-104'/>
    <pointer-type-def type-id='type-id-105' size-in-bits='64' id='type-id-106'/>
    <pointer-type-def type-id='type-id-107' size-in-bits='64' id='type-id-108'/>
    <pointer-type-def type-id='type-id-109' size-in-bits='64' id='type-id-110'/>
    <pointer-type-def type-id='type-id-111' size-in-bits='64' id='type-id-112'/>
    <pointer-type-def type-id='type-id-113' size-in-bits='64' id='type-id-114'/>
    <pointer-type-def type-id='type-id-115' size-in-bits='64' id='type-id-116'/>
    <pointer-type-def type-id='type-id-117' size-in-bits='64' id='type-id-118'/>
    <pointer-type-def type-id='type-id-119' size-in-bits='64' id='type-id-120'/>
    <pointer-type-def type-id='type-id-121' size-in-bits='64' id='type-id-122'/>
    <pointer-type-def type-id='type-id-123' size-in-bits='64' id='type-id-124'/>
    <pointer-type-def type-id='type-id-125' size-in-bits='64' id='type-id-126'/>
    <pointer-type-def type-id='type-id-127' size-in-bits='64' id='type-id-128'/>
    <pointer-type-def type-id='type-id-129' size-in-bits='64' id='type-id-130'/>
    <pointer-type-def type-id='type-id-131' size-in-bits='64' id='type-id-132'/>
    <pointer-type-def type-id='type-id-133' size-in-bits='64' id='type-id-134'/>
    <pointer-type-def type-id='type-id-135' size-in-bits='64' id='type-id-136'/>
    <pointer-type-def type-id='type-id-137' size-in-bits='64' id='type-id-138'/>
    <pointer-type-def type-id='type-id-139' size-in-bits='64' id='type-id-140'/>
    <pointer-type-def type-id='type-id-141' size-in-bits='64' id='type-id-142'/>
    <pointer-type-def type-id='type-id-143' size-in-bits='64' id='type-id-144'/>
    <pointer-type-def type-id='type-id-17' size-in-bits='64' id='type-id-145'/>
    <pointer-type-def type-id='type-id-56' size-in-bits='64' id='type-id-146'/>
    <pointer-type-def type-id='type-id-147' size-in-bits='64' id='type-id-148'/>
    <namespace-decl name='COI'>
      <var-decl name='is_available' type-id='type-id-149' mangled-name='_ZN3COI12is_availableE' visibility='default' filepath='../../../gcc/liboffloadmic/runtime/coi/coi_client.h' line='60' column='1'/>
      <var-decl name='EngineGetCount' type-id='type-id-132' mangled-name='_ZN3COI14EngineGetCountE' visibility='default' filepath='../../../gcc/liboffloadmic/runtime/coi/coi_client.h' line='63' column='1'/>
      <var-decl name='EngineGetHandle' type-id='type-id-130' mangled-name='_ZN3COI15EngineGetHandleE' visibility='default' filepath='../../../gcc/liboffloadmic/runtime/coi/coi_client.h' line='64' column='1'/>
      <var-decl name='ProcessCreateFromMemory' type-id='type-id-104' mangled-name='_ZN3COI23ProcessCreateFromMemoryE' visibility='default' filepath='../../../gcc/liboffloadmic/runtime/coi/coi_client.h' line='66' column='1'/>
      <var-decl name='ProcessCreateFromFile' type-id='type-id-102' mangled-name='_ZN3COI21ProcessCreateFromFileE' visibility='default' filepath='../../../gcc/liboffloadmic/runtime/coi/coi_client.h' line='74' column='1'/>
      <var-decl name='ProcessSetCacheSize' type-id='type-id-124' mangled-name='_ZN3COI19ProcessSetCacheSizeE' visibility='default' filepath='../../../gcc/liboffloadmic/runtime/coi/coi_client.h' line='82' column='1'/>
      <var-decl name='ProcessDestroy' type-id='type-id-118' mangled-name='_ZN3COI14ProcessDestroyE' visibility='default' filepath='../../../gcc/liboffloadmic/runtime/coi/coi_client.h' line='85' column='1'/>
      <var-decl name='ProcessGetFunctionHandles' type-id='type-id-120' mangled-name='_ZN3COI25ProcessGetFunctionHandlesE' visibility='default' filepath='../../../gcc/liboffloadmic/runtime/coi/coi_client.h' line='87' column='1'/>
      <var-decl name='ProcessLoadLibraryFromMemory' type-id='type-id-128' mangled-name='_ZN3COI28ProcessLoadLibraryFromMemoryE' visibility='default' filepath='../../../gcc/liboffloadmic/runtime/coi/coi_client.h' line='90' column='1'/>
      <var-decl name='ProcessUnloadLibrary' type-id='type-id-116' mangled-name='_ZN3COI20ProcessUnloadLibraryE' visibility='default' filepath='../../../gcc/liboffloadmic/runtime/coi/coi_client.h' line='100' column='1'/>
      <var-decl name='ProcessRegisterLibraries' type-id='type-id-136' mangled-name='_ZN3COI24ProcessRegisterLibrariesE' visibility='default' filepath='../../../gcc/liboffloadmic/runtime/coi/coi_client.h' line='103' column='1'/>
      <var-decl name='PipelineCreate' type-id='type-id-126' mangled-name='_ZN3COI14PipelineCreateE' visibility='default' filepath='../../../gcc/liboffloadmic/runtime/coi/coi_client.h' line='109' column='1'/>
      <var-decl name='PipelineDestroy' type-id='type-id-112' mangled-name='_ZN3COI15PipelineDestroyE' visibility='default' filepath='../../../gcc/liboffloadmic/runtime/coi/coi_client.h' line='111' column='1'/>
      <var-decl name='PipelineRunFunction' type-id='type-id-114' mangled-name='_ZN3COI19PipelineRunFunctionE' visibility='default' filepath='../../../gcc/liboffloadmic/runtime/coi/coi_client.h' line='112' column='1'/>
      <var-decl name='BufferCreate' type-id='type-id-140' mangled-name='_ZN3COI12BufferCreateE' visibility='default' filepath='../../../gcc/liboffloadmic/runtime/coi/coi_client.h' line='119' column='1'/>
      <var-decl name='BufferCreateFromMemory' type-id='type-id-140' mangled-name='_ZN3COI22BufferCreateFromMemoryE' visibility='default' filepath='../../../gcc/liboffloadmic/runtime/coi/coi_client.h' line='122' column='1'/>
      <var-decl name='BufferDestroy' type-id='type-id-86' mangled-name='_ZN3COI13BufferDestroyE' visibility='default' filepath='../../../gcc/liboffloadmic/runtime/coi/coi_client.h' line='126' column='1'/>
      <var-decl name='BufferMap' type-id='type-id-94' mangled-name='_ZN3COI9BufferMapE' visibility='default' filepath='../../../gcc/liboffloadmic/runtime/coi/coi_client.h' line='127' column='1'/>
      <var-decl name='BufferUnmap' type-id='type-id-110' mangled-name='_ZN3COI11BufferUnmapE' visibility='default' filepath='../../../gcc/liboffloadmic/runtime/coi/coi_client.h' line='130' column='1'/>
      <var-decl name='BufferWrite' type-id='type-id-96' mangled-name='_ZN3COI11BufferWriteE' visibility='default' filepath='../../../gcc/liboffloadmic/runtime/coi/coi_client.h' line='132' column='1'/>
      <var-decl name='BufferRead' type-id='type-id-96' mangled-name='_ZN3COI10BufferReadE' visibility='default' filepath='../../../gcc/liboffloadmic/runtime/coi/coi_client.h' line='135' column='1'/>
      <var-decl name='BufferReadMultiD' type-id='type-id-98' mangled-name='_ZN3COI16BufferReadMultiDE' visibility='default' filepath='../../../gcc/liboffloadmic/runtime/coi/coi_client.h' line='138' column='1'/>
      <var-decl name='BufferWriteMultiD' type-id='type-id-92' mangled-name='_ZN3COI17BufferWriteMultiDE' visibility='default' filepath='../../../gcc/liboffloadmic/runtime/coi/coi_client.h' line='141' column='1'/>
      <var-decl name='BufferCopy' type-id='type-id-88' mangled-name='_ZN3COI10BufferCopyE' visibility='default' filepath='../../../gcc/liboffloadmic/runtime/coi/coi_client.h' line='145' column='1'/>
      <var-decl name='BufferGetSinkAddress' type-id='type-id-100' mangled-name='_ZN3COI20BufferGetSinkAddressE' visibility='default' filepath='../../../gcc/liboffloadmic/runtime/coi/coi_client.h' line='148' column='1'/>
      <var-decl name='BufferSetState' type-id='type-id-90' mangled-name='_ZN3COI14BufferSetStateE' visibility='default' filepath='../../../gcc/liboffloadmic/runtime/coi/coi_client.h' line='149' column='1'/>
      <var-decl name='EventWait' type-id='type-id-134' mangled-name='_ZN3COI9EventWaitE' visibility='default' filepath='../../../gcc/liboffloadmic/runtime/coi/coi_client.h' line='153' column='1'/>
      <var-decl name='PerfGetCycleFrequency' type-id='type-id-144' mangled-name='_ZN3COI21PerfGetCycleFrequencyE' visibility='default' filepath='../../../gcc/liboffloadmic/runtime/coi/coi_client.h' line='156' column='1'/>
      <var-decl name='PipelineClearCPUMask' type-id='type-id-142' mangled-name='_ZN3COI20PipelineClearCPUMaskE' visibility='default' filepath='../../../gcc/liboffloadmic/runtime/coi/coi_client.h' line='160' column='1' elf-symbol-id='_ZN3COI20PipelineClearCPUMaskE'/>
      <var-decl name='PipelineSetCPUMask' type-id='type-id-122' mangled-name='_ZN3COI18PipelineSetCPUMaskE' visibility='default' filepath='../../../gcc/liboffloadmic/runtime/coi/coi_client.h' line='162' column='1' elf-symbol-id='_ZN3COI18PipelineSetCPUMaskE'/>
      <var-decl name='EngineGetInfo' type-id='type-id-106' mangled-name='_ZN3COI13EngineGetInfoE' visibility='default' filepath='../../../gcc/liboffloadmic/runtime/coi/coi_client.h' line='164' column='1' elf-symbol-id='_ZN3COI13EngineGetInfoE'/>
      <var-decl name='EventRegisterCallback' type-id='type-id-108' mangled-name='_ZN3COI21EventRegisterCallbackE' visibility='default' filepath='../../../gcc/liboffloadmic/runtime/coi/coi_client.h' line='166' column='1' elf-symbol-id='_ZN3COI21EventRegisterCallbackE'/>
      <var-decl name='ProcessConfigureDMA' type-id='type-id-138' mangled-name='_ZN3COI19ProcessConfigureDMAE' visibility='default' filepath='../../../gcc/liboffloadmic/runtime/coi/coi_client.h' line='158' column='1'/>
    </namespace-decl>
    <type-decl name='bool' size-in-bits='8' id='type-id-149'/>
    <class-decl name='coibuffer' is-struct='yes' visibility='default' is-declaration-only='yes' id='type-id-67'/>
    <class-decl name='coiengine' is-struct='yes' visibility='default' is-declaration-only='yes' id='type-id-68'/>
    <class-decl name='coifunction' is-struct='yes' visibility='default' is-declaration-only='yes' id='type-id-69'/>
    <class-decl name='coilibrary' is-struct='yes' visibility='default' is-declaration-only='yes' id='type-id-70'/>
    <class-decl name='coimapinst' is-struct='yes' visibility='default' is-declaration-only='yes' id='type-id-71'/>
    <class-decl name='coipipeline' is-struct='yes' visibility='default' is-declaration-only='yes' id='type-id-72'/>
    <class-decl name='coiprocess' is-struct='yes' visibility='default' is-declaration-only='yes' id='type-id-73'/>
    <function-type size-in-bits='64' id='type-id-85'>
      <parameter type-id='type-id-36'/>
      <return type-id='type-id-13'/>
    </function-type>
    <function-type size-in-bits='64' id='type-id-87'>
      <parameter type-id='type-id-36'/>
      <parameter type-id='type-id-36'/>
      <parameter type-id='type-id-56'/>
      <parameter type-id='type-id-56'/>
      <parameter type-id='type-id-56'/>
      <parameter type-id='type-id-48'/>
      <parameter type-id='type-id-17'/>
      <parameter type-id='type-id-77'/>
      <parameter type-id='type-id-60'/>
      <return type-id='type-id-13'/>
    </function-type>
    <function-type size-in-bits='64' id='type-id-89'>
      <parameter type-id='type-id-36'/>
      <parameter type-id='type-id-22'/>
      <parameter type-id='type-id-50'/>
      <parameter type-id='type-id-52'/>
      <parameter type-id='type-id-17'/>
      <parameter type-id='type-id-77'/>
      <parameter type-id='type-id-60'/>
      <return type-id='type-id-13'/>
    </function-type>
    <function-type size-in-bits='64' id='type-id-91'>
      <parameter type-id='type-id-36'/>
      <parameter type-id='type-id-22'/>
      <parameter type-id='type-id-56'/>
      <parameter type-id='type-id-150'/>
      <parameter type-id='type-id-150'/>
      <parameter type-id='type-id-48'/>
      <parameter type-id='type-id-17'/>
      <parameter type-id='type-id-77'/>
      <parameter type-id='type-id-60'/>
      <return type-id='type-id-13'/>
    </function-type>
    <function-type size-in-bits='64' id='type-id-93'>
      <parameter type-id='type-id-36'/>
      <parameter type-id='type-id-56'/>
      <parameter type-id='type-id-56'/>
      <parameter type-id='type-id-44'/>
      <parameter type-id='type-id-17'/>
      <parameter type-id='type-id-77'/>
      <parameter type-id='type-id-60'/>
      <parameter type-id='type-id-63'/>
      <parameter type-id='type-id-151'/>
      <return type-id='type-id-13'/>
    </function-type>
    <function-type size-in-bits='64' id='type-id-95'>
      <parameter type-id='type-id-36'/>
      <parameter type-id='type-id-56'/>
      <parameter type-id='type-id-150'/>
      <parameter type-id='type-id-56'/>
      <parameter type-id='type-id-48'/>
      <parameter type-id='type-id-17'/>
      <parameter type-id='type-id-77'/>
      <parameter type-id='type-id-60'/>
      <return type-id='type-id-13'/>
    </function-type>
    <function-type size-in-bits='64' id='type-id-97'>
      <parameter type-id='type-id-36'/>
      <parameter type-id='type-id-56'/>
      <parameter type-id='type-id-150'/>
      <parameter type-id='type-id-150'/>
      <parameter type-id='type-id-48'/>
      <parameter type-id='type-id-17'/>
      <parameter type-id='type-id-77'/>
      <parameter type-id='type-id-60'/>
      <return type-id='type-id-13'/>
    </function-type>
    <function-type size-in-bits='64' id='type-id-99'>
      <parameter type-id='type-id-36'/>
      <parameter type-id='type-id-146'/>
      <return type-id='type-id-13'/>
    </function-type>
    <function-type size-in-bits='64' id='type-id-101'>
      <parameter type-id='type-id-19'/>
      <parameter type-id='type-id-152'/>
      <parameter type-id='type-id-25'/>
      <parameter type-id='type-id-153'/>
      <parameter type-id='type-id-20'/>
      <parameter type-id='type-id-153'/>
      <parameter type-id='type-id-20'/>
      <parameter type-id='type-id-152'/>
      <parameter type-id='type-id-56'/>
      <parameter type-id='type-id-152'/>
      <parameter type-id='type-id-65'/>
      <return type-id='type-id-13'/>
    </function-type>
    <function-type size-in-bits='64' id='type-id-103'>
      <parameter type-id='type-id-19'/>
      <parameter type-id='type-id-152'/>
      <parameter type-id='type-id-150'/>
      <parameter type-id='type-id-56'/>
      <parameter type-id='type-id-25'/>
      <parameter type-id='type-id-153'/>
      <parameter type-id='type-id-20'/>
      <parameter type-id='type-id-153'/>
      <parameter type-id='type-id-20'/>
      <parameter type-id='type-id-152'/>
      <parameter type-id='type-id-56'/>
      <parameter type-id='type-id-152'/>
      <parameter type-id='type-id-152'/>
      <parameter type-id='type-id-56'/>
      <parameter type-id='type-id-65'/>
      <return type-id='type-id-13'/>
    </function-type>
    <function-type size-in-bits='64' id='type-id-105'>
      <parameter type-id='type-id-19'/>
      <parameter type-id='type-id-17'/>
      <parameter type-id='type-id-66'/>
      <return type-id='type-id-13'/>
    </function-type>
    <function-type size-in-bits='64' id='type-id-107'>
      <parameter type-id='type-id-24'/>
      <parameter type-id='type-id-148'/>
      <parameter type-id='type-id-150'/>
      <parameter type-id='type-id-56'/>
      <return type-id='type-id-13'/>
    </function-type>
    <function-type size-in-bits='64' id='type-id-109'>
      <parameter type-id='type-id-46'/>
      <parameter type-id='type-id-17'/>
      <parameter type-id='type-id-77'/>
      <parameter type-id='type-id-60'/>
      <return type-id='type-id-13'/>
    </function-type>
    <function-type size-in-bits='64' id='type-id-111'>
      <parameter type-id='type-id-34'/>
      <return type-id='type-id-13'/>
    </function-type>
    <function-type size-in-bits='64' id='type-id-113'>
      <parameter type-id='type-id-34'/>
      <parameter type-id='type-id-30'/>
      <parameter type-id='type-id-17'/>
      <parameter type-id='type-id-75'/>
      <parameter type-id='type-id-81'/>
      <parameter type-id='type-id-17'/>
      <parameter type-id='type-id-77'/>
      <parameter type-id='type-id-150'/>
      <parameter type-id='type-id-40'/>
      <parameter type-id='type-id-150'/>
      <parameter type-id='type-id-40'/>
      <parameter type-id='type-id-60'/>
      <return type-id='type-id-13'/>
    </function-type>
    <function-type size-in-bits='64' id='type-id-115'>
      <parameter type-id='type-id-22'/>
      <parameter type-id='type-id-32'/>
      <return type-id='type-id-13'/>
    </function-type>
    <function-type size-in-bits='64' id='type-id-117'>
      <parameter type-id='type-id-22'/>
      <parameter type-id='type-id-26'/>
      <parameter type-id='type-id-20'/>
      <parameter type-id='type-id-84'/>
      <parameter type-id='type-id-145'/>
      <return type-id='type-id-13'/>
    </function-type>
    <function-type size-in-bits='64' id='type-id-119'>
      <parameter type-id='type-id-22'/>
      <parameter type-id='type-id-17'/>
      <parameter type-id='type-id-153'/>
      <parameter type-id='type-id-61'/>
      <return type-id='type-id-13'/>
    </function-type>
    <function-type size-in-bits='64' id='type-id-121'>
      <parameter type-id='type-id-22'/>
      <parameter type-id='type-id-17'/>
      <parameter type-id='type-id-20'/>
      <parameter type-id='type-id-146'/>
      <return type-id='type-id-13'/>
    </function-type>
    <function-type size-in-bits='64' id='type-id-123'>
      <parameter type-id='type-id-22'/>
      <parameter type-id='type-id-56'/>
      <parameter type-id='type-id-17'/>
      <parameter type-id='type-id-56'/>
      <parameter type-id='type-id-17'/>
      <parameter type-id='type-id-17'/>
      <parameter type-id='type-id-77'/>
      <parameter type-id='type-id-60'/>
      <return type-id='type-id-13'/>
    </function-type>
    <function-type size-in-bits='64' id='type-id-125'>
      <parameter type-id='type-id-22'/>
      <parameter type-id='type-id-146'/>
      <parameter type-id='type-id-17'/>
      <parameter type-id='type-id-64'/>
      <return type-id='type-id-13'/>
    </function-type>
    <function-type size-in-bits='64' id='type-id-127'>
      <parameter type-id='type-id-22'/>
      <parameter type-id='type-id-150'/>
      <parameter type-id='type-id-56'/>
      <parameter type-id='type-id-152'/>
      <parameter type-id='type-id-152'/>
      <parameter type-id='type-id-152'/>
      <parameter type-id='type-id-56'/>
      <parameter type-id='type-id-17'/>
      <parameter type-id='type-id-62'/>
      <return type-id='type-id-13'/>
    </function-type>
    <function-type size-in-bits='64' id='type-id-129'>
      <parameter type-id='type-id-16'/>
      <parameter type-id='type-id-17'/>
      <parameter type-id='type-id-59'/>
      <return type-id='type-id-13'/>
    </function-type>
    <function-type size-in-bits='64' id='type-id-131'>
      <parameter type-id='type-id-16'/>
      <parameter type-id='type-id-145'/>
      <return type-id='type-id-13'/>
    </function-type>
    <function-type size-in-bits='64' id='type-id-133'>
      <parameter type-id='type-id-40'/>
      <parameter type-id='type-id-77'/>
      <parameter type-id='type-id-26'/>
      <parameter type-id='type-id-20'/>
      <parameter type-id='type-id-145'/>
      <parameter type-id='type-id-145'/>
      <return type-id='type-id-13'/>
    </function-type>
    <function-type size-in-bits='64' id='type-id-135'>
      <parameter type-id='type-id-17'/>
      <parameter type-id='type-id-151'/>
      <parameter type-id='type-id-83'/>
      <parameter type-id='type-id-153'/>
      <parameter type-id='type-id-83'/>
      <return type-id='type-id-13'/>
    </function-type>
    <function-type size-in-bits='64' id='type-id-137'>
      <parameter type-id='type-id-56'/>
      <parameter type-id='type-id-25'/>
      <return type-id='type-id-13'/>
    </function-type>
    <function-type size-in-bits='64' id='type-id-139'>
      <parameter type-id='type-id-56'/>
      <parameter type-id='type-id-42'/>
      <parameter type-id='type-id-17'/>
      <parameter type-id='type-id-150'/>
      <parameter type-id='type-id-17'/>
      <parameter type-id='type-id-79'/>
      <parameter type-id='type-id-58'/>
      <return type-id='type-id-13'/>
    </function-type>
    <function-type size-in-bits='64' id='type-id-141'>
      <parameter type-id='type-id-146'/>
      <return type-id='type-id-13'/>
    </function-type>
    <function-type size-in-bits='64' id='type-id-143'>
      <return type-id='type-id-56'/>
    </function-type>
    <function-type size-in-bits='64' id='type-id-147'>
      <parameter type-id='type-id-24'/>
      <parameter type-id='type-id-13'/>
      <parameter type-id='type-id-150'/>
      <return type-id='type-id-154'/>
    </function-type>
    <type-decl name='int' size-in-bits='32' id='type-id-25'/>
    <type-decl name='signed char' size-in-bits='8' id='type-id-27'/>
    <type-decl name='sizetype' size-in-bits='64' id='type-id-4'/>
    <typedef-decl name='uint64_t' type-id='type-id-6' filepath='/usr/include/stdint.h' line='55' column='1' id='type-id-56'/>
    <type-decl name='unsigned int' size-in-bits='32' id='type-id-2'/>
    <type-decl name='unsigned long int' size-in-bits='64' id='type-id-6'/>
    <type-decl name='unsigned short int' size-in-bits='16' id='type-id-39'/>
    <type-decl name='wchar_t' size-in-bits='32' id='type-id-9'/>
    <pointer-type-def type-id='type-id-155' size-in-bits='64' id='type-id-152'/>
    <pointer-type-def type-id='type-id-152' size-in-bits='64' id='type-id-153'/>
    <type-decl name='void' id='type-id-154'/>
    <pointer-type-def type-id='type-id-154' size-in-bits='64' id='type-id-150'/>
    <pointer-type-def type-id='type-id-150' size-in-bits='64' id='type-id-151'/>
    <qualified-type-def type-id='type-id-156' const='yes' id='type-id-155'/>
    <type-decl name='char' size-in-bits='8' id='type-id-156'/>
  </abi-instr>
  <abi-instr address-size='64' path='../../../gcc/liboffloadmic/runtime/compiler_if_host.cpp' comp-dir-path='/export/users/iverbin/gcc_build_host/x86_64-pc-linux-gnu/liboffloadmic' language='LANG_C_plus_plus'>
    <array-type-def dimensions='1' type-id='type-id-157' size-in-bits='128' id='type-id-158'>
      <subrange length='1' type-id='type-id-4' id='type-id-159'/>
    </array-type-def>
    <array-type-def dimensions='1' type-id='type-id-160' size-in-bits='320' id='type-id-161'>
      <subrange length='1' type-id='type-id-4' id='type-id-159'/>
    </array-type-def>
    <array-type-def dimensions='1' type-id='type-id-162' size-in-bits='2560' id='type-id-163'>
      <subrange length='20' type-id='type-id-4' id='type-id-164'/>
    </array-type-def>
    <array-type-def dimensions='1' type-id='type-id-165' size-in-bits='1152' id='type-id-166'>
      <subrange length='9' type-id='type-id-4' id='type-id-167'/>
    </array-type-def>
    <array-type-def dimensions='1' type-id='type-id-156' size-in-bits='infinite' id='type-id-168'>
      <subrange length='infinite' type-id='type-id-4' id='type-id-169'/>
    </array-type-def>
    <array-type-def dimensions='1' type-id='type-id-29' size-in-bits='448' id='type-id-170'>
      <subrange length='7' type-id='type-id-4' id='type-id-171'/>
    </array-type-def>
    <array-type-def dimensions='1' type-id='type-id-152' size-in-bits='2048' id='type-id-172'>
      <subrange length='32' type-id='type-id-4' id='type-id-173'/>
    </array-type-def>
    <array-type-def dimensions='1' type-id='type-id-152' size-in-bits='448' id='type-id-174'>
      <subrange length='7' type-id='type-id-4' id='type-id-171'/>
    </array-type-def>
    <array-type-def dimensions='1' type-id='type-id-1' size-in-bits='832' id='type-id-175'>
      <subrange length='104' type-id='type-id-4' id='type-id-176'/>
    </array-type-def>
    <array-type-def dimensions='1' type-id='type-id-1' size-in-bits='128' id='type-id-177'>
      <subrange length='16' type-id='type-id-4' id='type-id-178'/>
    </array-type-def>
    <array-type-def dimensions='1' type-id='type-id-1' size-in-bits='192' id='type-id-179'>
      <subrange length='24' type-id='type-id-4' id='type-id-180'/>
    </array-type-def>
    <array-type-def dimensions='1' type-id='type-id-1' size-in-bits='320' id='type-id-181'>
      <subrange length='40' type-id='type-id-4' id='type-id-182'/>
    </array-type-def>
    <array-type-def dimensions='1' type-id='type-id-1' size-in-bits='64' id='type-id-183'>
      <subrange length='8' type-id='type-id-4' id='type-id-184'/>
    </array-type-def>
    <array-type-def dimensions='1' type-id='type-id-6' size-in-bits='1024' id='type-id-185'>
      <subrange length='16' type-id='type-id-4' id='type-id-178'/>
    </array-type-def>
    <class-decl name='Engine' size-in-bits='5504' is-struct='yes' visibility='default' filepath='../../../gcc/liboffloadmic/runtime/offload_engine.h' line='395' column='1' id='type-id-186'>
      <member-type access='private'>
        <typedef-decl name='SignalMap' type-id='type-id-188' filepath='../../../gcc/liboffloadmic/runtime/offload_engine.h' line='608' column='1' id='type-id-187'/>
      </member-type>
      <member-type access='private'>
        <enum-decl name='__anonymous_enum__' is-anonymous='yes' filepath='../../../gcc/liboffloadmic/runtime/offload_engine.h' line='647' column='1' id='type-id-189'>
          <underlying-type type-id='type-id-14'/>
          <enumerator name='c_func_compute' value='0'/>
          <enumerator name='c_func_myo_init' value='1'/>
          <enumerator name='c_func_myo_fini' value='2'/>
          <enumerator name='c_func_init' value='3'/>
          <enumerator name='c_func_var_table_size' value='4'/>
          <enumerator name='c_func_var_table_copy' value='5'/>
          <enumerator name='c_func_set_stream_affinity' value='6'/>
          <enumerator name='c_funcs_total' value='7'/>
        </enum-decl>
      </member-type>
      <data-member access='public' layout-offset-in-bits='0'>
        <var-decl name='m_persist_list' type-id='type-id-190' visibility='default' filepath='../../../gcc/liboffloadmic/runtime/offload_engine.h' line='563' column='1'/>
      </data-member>
      <data-member access='private' layout-offset-in-bits='192'>
        <var-decl name='m_index' type-id='type-id-25' visibility='default' filepath='../../../gcc/liboffloadmic/runtime/offload_engine.h' line='611' column='1'/>
      </data-member>
      <data-member access='private' layout-offset-in-bits='224'>
        <var-decl name='m_physical_index' type-id='type-id-25' visibility='default' filepath='../../../gcc/liboffloadmic/runtime/offload_engine.h' line='612' column='1'/>
      </data-member>
      <data-member access='private' layout-offset-in-bits='256'>
        <var-decl name='m_proc_number' type-id='type-id-191' visibility='default' filepath='../../../gcc/liboffloadmic/runtime/offload_engine.h' line='615' column='1'/>
      </data-member>
      <data-member access='private' layout-offset-in-bits='320'>
        <var-decl name='m_process' type-id='type-id-22' visibility='default' filepath='../../../gcc/liboffloadmic/runtime/offload_engine.h' line='618' column='1'/>
      </data-member>
      <data-member access='private' layout-offset-in-bits='384'>
        <var-decl name='m_ready' type-id='type-id-149' visibility='default' filepath='../../../gcc/liboffloadmic/runtime/offload_engine.h' line='622' column='1'/>
      </data-member>
      <data-member access='private' layout-offset-in-bits='448'>
        <var-decl name='m_lock' type-id='type-id-192' visibility='default' filepath='../../../gcc/liboffloadmic/runtime/offload_engine.h' line='623' column='1'/>
      </data-member>
      <data-member access='private' layout-offset-in-bits='768'>
        <var-decl name='m_images' type-id='type-id-193' visibility='default' filepath='../../../gcc/liboffloadmic/runtime/offload_engine.h' line='626' column='1'/>
      </data-member>
      <data-member access='private' layout-offset-in-bits='960'>
        <var-decl name='m_ptr_set' type-id='type-id-194' visibility='default' filepath='../../../gcc/liboffloadmic/runtime/offload_engine.h' line='629' column='1'/>
      </data-member>
      <data-member access='private' layout-offset-in-bits='1664'>
        <var-decl name='m_targetptr_set' type-id='type-id-194' visibility='default' filepath='../../../gcc/liboffloadmic/runtime/offload_engine.h' line='630' column='1'/>
      </data-member>
      <data-member access='private' layout-offset-in-bits='2368'>
        <var-decl name='m_signal_map' type-id='type-id-187' visibility='default' filepath='../../../gcc/liboffloadmic/runtime/offload_engine.h' line='633' column='1'/>
      </data-member>
      <data-member access='private' layout-offset-in-bits='2752'>
        <var-decl name='m_signal_lock' type-id='type-id-192' visibility='default' filepath='../../../gcc/liboffloadmic/runtime/offload_engine.h' line='634' column='1'/>
      </data-member>
      <data-member access='private' layout-offset-in-bits='3072'>
        <var-decl name='m_stream_map' type-id='type-id-195' visibility='default' filepath='../../../gcc/liboffloadmic/runtime/offload_engine.h' line='637' column='1'/>
      </data-member>
      <data-member access='private' layout-offset-in-bits='3456'>
        <var-decl name='m_stream_lock' type-id='type-id-192' visibility='default' filepath='../../../gcc/liboffloadmic/runtime/offload_engine.h' line='638' column='1'/>
      </data-member>
      <data-member access='private' layout-offset-in-bits='3776'>
        <var-decl name='m_num_cores' type-id='type-id-25' visibility='default' filepath='../../../gcc/liboffloadmic/runtime/offload_engine.h' line='639' column='1'/>
      </data-member>
      <data-member access='private' layout-offset-in-bits='3808'>
        <var-decl name='m_num_threads' type-id='type-id-25' visibility='default' filepath='../../../gcc/liboffloadmic/runtime/offload_engine.h' line='640' column='1'/>
      </data-member>
      <data-member access='private' layout-offset-in-bits='3840'>
        <var-decl name='m_cpus' type-id='type-id-196' visibility='default' filepath='../../../gcc/liboffloadmic/runtime/offload_engine.h' line='641' column='1'/>
      </data-member>
      <data-member access='private' layout-offset-in-bits='4864'>
        <var-decl name='m_dyn_libs' type-id='type-id-197' visibility='default' filepath='../../../gcc/liboffloadmic/runtime/offload_engine.h' line='644' column='1'/>
      </data-member>
      <data-member access='private' static='yes'>
        <var-decl name='m_func_names' type-id='type-id-174' mangled-name='_ZN6Engine12m_func_namesE' visibility='default' filepath='../../../gcc/liboffloadmic/runtime/offload_engine.h' line='659' column='1' elf-symbol-id='_ZN6Engine12m_func_namesE'/>
      </data-member>
      <data-member access='private' layout-offset-in-bits='5056'>
        <var-decl name='m_funcs' type-id='type-id-170' visibility='default' filepath='../../../gcc/liboffloadmic/runtime/offload_engine.h' line='662' column='1'/>
      </data-member>
      <data-member access='private' static='yes'>
        <var-decl name='c_signal_max' type-id='type-id-198' visibility='default' filepath='../../../gcc/liboffloadmic/runtime/offload_engine.h' line='665' column='1'/>
      </data-member>
      <data-member access='private' static='yes'>
        <var-decl name='c_signal_names' type-id='type-id-172' mangled-name='_ZN6Engine14c_signal_namesE' visibility='default' filepath='../../../gcc/liboffloadmic/runtime/offload_engine.h' line='666' column='1' elf-symbol-id='_ZN6Engine14c_signal_namesE'/>
      </data-member>
      <member-function access='private' static='yes'>
        <function-decl name='destroy_thread_data' mangled-name='_ZN6Engine19destroy_thread_dataEPv' filepath='../../../gcc/liboffloadmic/runtime/offload_engine.cpp' line='894' column='1' visibility='default' binding='global' size-in-bits='64' elf-symbol-id='_ZN6Engine19destroy_thread_dataEPv'>
          <parameter type-id='type-id-150'/>
          <return type-id='type-id-154'/>
        </function-decl>
      </member-function>
      <member-function access='private'>
        <function-decl name='get_auto_vars' mangled-name='_ZN6Engine13get_auto_varsEv' filepath='../../../gcc/liboffloadmic/runtime/offload_engine.cpp' line='883' column='1' visibility='default' binding='global' size-in-bits='64' elf-symbol-id='_ZN6Engine13get_auto_varsEv'>
          <parameter type-id='type-id-199' name='this' is-artificial='yes'/>
          <return type-id='type-id-200'/>
        </function-decl>
      </member-function>
      <member-function access='public'>
        <function-decl name='get_thread_id' mangled-name='_ZN6Engine13get_thread_idEv' filepath='../../../gcc/liboffloadmic/runtime/offload_engine.cpp' line='872' column='1' visibility='default' binding='global' size-in-bits='64' elf-symbol-id='_ZN6Engine13get_thread_idEv'>
          <parameter type-id='type-id-199' name='this' is-artificial='yes'/>
          <return type-id='type-id-56'/>
        </function-decl>
      </member-function>
      <member-function access='public'>
        <function-decl name='stream_destroy' mangled-name='_ZN6Engine14stream_destroyEm' filepath='../../../gcc/liboffloadmic/runtime/offload_engine.cpp' line='852' column='1' visibility='default' binding='global' size-in-bits='64' elf-symbol-id='_ZN6Engine14stream_destroyEm'>
          <parameter type-id='type-id-199' name='this' is-artificial='yes'/>
          <parameter type-id='type-id-201' name='handle' filepath='../../../gcc/liboffloadmic/runtime/offload_engine.cpp' line='852' column='1'/>
          <return type-id='type-id-154'/>
        </function-decl>
      </member-function>
      <member-function access='public'>
        <function-decl name='get_pipeline' mangled-name='_ZN6Engine12get_pipelineEm' filepath='../../../gcc/liboffloadmic/runtime/offload_engine.cpp' line='698' column='1' visibility='default' binding='global' size-in-bits='64' elf-symbol-id='_ZN6Engine12get_pipelineEm'>
          <parameter type-id='type-id-199' name='this' is-artificial='yes'/>
          <parameter type-id='type-id-201' name='handle' filepath='../../../gcc/liboffloadmic/runtime/offload_engine.cpp' line='698' column='1'/>
          <return type-id='type-id-34'/>
        </function-decl>
      </member-function>
      <member-function access='private'>
        <function-decl name='get_pipeline' mangled-name='_ZN6Engine12get_pipelineEv' filepath='../../../gcc/liboffloadmic/runtime/offload_engine.cpp' line='649' column='1' visibility='default' binding='global' size-in-bits='64' elf-symbol-id='_ZN6Engine12get_pipelineEv'>
          <parameter type-id='type-id-199' name='this' is-artificial='yes'/>
          <return type-id='type-id-34'/>
        </function-decl>
      </member-function>
      <member-function access='private'>
        <function-decl name='init_device' mangled-name='_ZN6Engine11init_deviceEv' filepath='../../../gcc/liboffloadmic/runtime/offload_engine.cpp' line='572' column='1' visibility='default' binding='global' size-in-bits='64' elf-symbol-id='_ZN6Engine11init_deviceEv'>
          <parameter type-id='type-id-199' name='this' is-artificial='yes'/>
          <return type-id='type-id-202'/>
        </function-decl>
      </member-function>
      <member-function access='public'>
        <function-decl name='compute' mangled-name='_ZN6Engine7computeEmRKNSt7__cxx114listIP9coibufferSaIS3_EEEPKvtPvtjPK8coieventPSB_' filepath='../../../gcc/liboffloadmic/runtime/offload_engine.cpp' line='522' column='1' visibility='default' binding='global' size-in-bits='64' elf-symbol-id='_ZN6Engine7computeEmRKNSt7__cxx114listIP9coibufferSaIS3_EEEPKvtPvtjPK8coieventPSB_'>
          <parameter type-id='type-id-199' name='this' is-artificial='yes'/>
          <parameter type-id='type-id-201' name='stream' filepath='../../../gcc/liboffloadmic/runtime/offload_engine.cpp' line='523' column='1'/>
          <parameter type-id='type-id-203' name='buffers' filepath='../../../gcc/liboffloadmic/runtime/offload_engine.cpp' line='524' column='1'/>
          <parameter type-id='type-id-150' name='data' filepath='../../../gcc/liboffloadmic/runtime/offload_engine.cpp' line='525' column='1'/>
          <parameter type-id='type-id-40' name='data_size' filepath='../../../gcc/liboffloadmic/runtime/offload_engine.cpp' line='526' column='1'/>
          <parameter type-id='type-id-150' name='ret' filepath='../../../gcc/liboffloadmic/runtime/offload_engine.cpp' line='527' column='1'/>
          <parameter type-id='type-id-40' name='ret_size' filepath='../../../gcc/liboffloadmic/runtime/offload_engine.cpp' line='528' column='1'/>
          <parameter type-id='type-id-17' name='num_deps' filepath='../../../gcc/liboffloadmic/runtime/offload_engine.cpp' line='529' column='1'/>
          <parameter type-id='type-id-77' name='deps' filepath='../../../gcc/liboffloadmic/runtime/offload_engine.cpp' line='530' column='1'/>
          <parameter type-id='type-id-60' name='event' filepath='../../../gcc/liboffloadmic/runtime/offload_engine.cpp' line='531' column='1'/>
          <return type-id='type-id-13'/>
        </function-decl>
      </member-function>
      <member-function access='private'>
        <function-decl name='init_ptr_data' mangled-name='_ZN6Engine13init_ptr_dataEv' filepath='../../../gcc/liboffloadmic/runtime/offload_engine.cpp' line='411' column='1' visibility='default' binding='global' size-in-bits='64' elf-symbol-id='_ZN6Engine13init_ptr_dataEv'>
          <parameter type-id='type-id-199' name='this' is-artificial='yes'/>
          <return type-id='type-id-154'/>
        </function-decl>
      </member-function>
      <member-function access='public'>
        <function-decl name='unload_library' mangled-name='_ZN6Engine14unload_libraryEPKvPKc' filepath='../../../gcc/liboffloadmic/runtime/offload_engine.cpp' line='372' column='1' visibility='default' binding='global' size-in-bits='64' elf-symbol-id='_ZN6Engine14unload_libraryEPKvPKc'>
          <parameter type-id='type-id-199' name='this' is-artificial='yes'/>
          <parameter type-id='type-id-150' name='data' filepath='../../../gcc/liboffloadmic/runtime/offload_engine.cpp' line='372' column='1'/>
          <parameter type-id='type-id-152' name='name' filepath='../../../gcc/liboffloadmic/runtime/offload_engine.cpp' line='372' column='1'/>
          <return type-id='type-id-154'/>
        </function-decl>
      </member-function>
      <member-function access='private'>
        <function-decl name='load_libraries' mangled-name='_ZN6Engine14load_librariesEv' filepath='../../../gcc/liboffloadmic/runtime/offload_engine.cpp' line='342' column='1' visibility='default' binding='global' size-in-bits='64' elf-symbol-id='_ZN6Engine14load_librariesEv'>
          <parameter type-id='type-id-199' name='this' is-artificial='yes'/>
          <return type-id='type-id-154'/>
        </function-decl>
      </member-function>
      <member-function access='public'>
        <function-decl name='fini_process' mangled-name='_ZN6Engine12fini_processEb' filepath='../../../gcc/liboffloadmic/runtime/offload_engine.cpp' line='302' column='1' visibility='default' binding='global' size-in-bits='64' elf-symbol-id='_ZN6Engine12fini_processEb'>
          <parameter type-id='type-id-199' name='this' is-artificial='yes'/>
          <parameter type-id='type-id-149' name='verbose' filepath='../../../gcc/liboffloadmic/runtime/offload_engine.cpp' line='302' column='1'/>
          <return type-id='type-id-154'/>
        </function-decl>
      </member-function>
      <member-function access='private'>
        <function-decl name='init_process' mangled-name='_ZN6Engine12init_processEv' filepath='../../../gcc/liboffloadmic/runtime/offload_engine.cpp' line='122' column='1' visibility='default' binding='global' size-in-bits='64' elf-symbol-id='_ZN6Engine12init_processEv'>
          <parameter type-id='type-id-199' name='this' is-artificial='yes'/>
          <return type-id='type-id-154'/>
        </function-decl>
      </member-function>
      <member-function access='public'>
        <function-decl name='init' mangled-name='_ZN6Engine4initEv' filepath='../../../gcc/liboffloadmic/runtime/offload_engine.cpp' line='99' column='1' visibility='default' binding='global' size-in-bits='64' elf-symbol-id='_ZN6Engine4initEv'>
          <parameter type-id='type-id-199' name='this' is-artificial='yes'/>
          <return type-id='type-id-154'/>
        </function-decl>
      </member-function>
      <member-function access='public'>
        <function-decl name='insert_ptr_data' mangled-name='_ZN6Engine15insert_ptr_dataEPKvmRb' filepath='../../../gcc/liboffloadmic/runtime/offload_engine.h' line='484' column='1' visibility='default' binding='global' size-in-bits='64' elf-symbol-id='_ZN6Engine15insert_ptr_dataEPKvmRb'>
          <parameter type-id='type-id-199' name='this' is-artificial='yes'/>
          <parameter type-id='type-id-150' name='ptr' filepath='../../../gcc/liboffloadmic/runtime/offload_engine.h' line='484' column='1'/>
          <parameter type-id='type-id-56' name='len' filepath='../../../gcc/liboffloadmic/runtime/offload_engine.h' line='484' column='1'/>
          <parameter type-id='type-id-204' name='is_new' filepath='../../../gcc/liboffloadmic/runtime/offload_engine.h' line='484' column='1'/>
          <return type-id='type-id-205'/>
        </function-decl>
      </member-function>
      <member-function access='private'>
        <function-decl name='set_indexes' mangled-name='_ZN6Engine11set_indexesEii' filepath='../../../gcc/liboffloadmic/runtime/offload_engine.h' line='582' column='1' visibility='default' binding='global' size-in-bits='64' elf-symbol-id='_ZN6Engine11set_indexesEii'>
          <parameter type-id='type-id-199' name='this' is-artificial='yes'/>
          <parameter type-id='type-id-25' name='logical_index' filepath='../../../gcc/liboffloadmic/runtime/offload_engine.h' line='582' column='1'/>
          <parameter type-id='type-id-25' name='physical_index' filepath='../../../gcc/liboffloadmic/runtime/offload_engine.h' line='582' column='1'/>
          <return type-id='type-id-154'/>
        </function-decl>
      </member-function>
      <member-function access='private' destructor='yes'>
        <function-decl name='~Engine' mangled-name='_ZN6EngineD2Ev' filepath='../../../gcc/liboffloadmic/runtime/offload_engine.h' line='570' column='1' visibility='default' binding='global' size-in-bits='64' elf-symbol-id='_ZN6EngineD2Ev'>
          <parameter type-id='type-id-199' name='this' is-artificial='yes'/>
          <return type-id='type-id-154'/>
        </function-decl>
      </member-function>
      <member-function access='private' constructor='yes'>
        <function-decl name='Engine' mangled-name='_ZN6EngineC2Ev' filepath='../../../gcc/liboffloadmic/runtime/offload_engine.h' line='566' column='1' visibility='default' binding='global' size-in-bits='64' elf-symbol-id='_ZN6EngineC2Ev'>
          <parameter type-id='type-id-199' name='this' is-artificial='yes'/>
          <return type-id='type-id-154'/>
        </function-decl>
      </member-function>
      <member-function access='public'>
        <function-decl name='find_signal' mangled-name='_ZN6Engine11find_signalEPKvb' filepath='../../../gcc/liboffloadmic/runtime/offload_engine.h' line='533' column='1' visibility='default' binding='global' size-in-bits='64' elf-symbol-id='_ZN6Engine11find_signalEPKvb'>
          <parameter type-id='type-id-199' name='this' is-artificial='yes'/>
          <parameter type-id='type-id-150' name='signal' filepath='../../../gcc/liboffloadmic/runtime/offload_engine.h' line='533' column='1'/>
          <parameter type-id='type-id-149' name='remove' filepath='../../../gcc/liboffloadmic/runtime/offload_engine.h' line='533' column='1'/>
          <return type-id='type-id-206'/>
        </function-decl>
      </member-function>
      <member-function access='public'>
        <function-decl name='add_signal' mangled-name='_ZN6Engine10add_signalEPKvP17OffloadDescriptor' filepath='../../../gcc/liboffloadmic/runtime/offload_engine.h' line='527' column='1' visibility='default' binding='global' size-in-bits='64' elf-symbol-id='_ZN6Engine10add_signalEPKvP17OffloadDescriptor'>
          <parameter type-id='type-id-199' name='this' is-artificial='yes'/>
          <parameter type-id='type-id-150' name='signal' filepath='../../../gcc/liboffloadmic/runtime/offload_engine.h' line='527' column='1'/>
          <parameter type-id='type-id-206' name='desc' filepath='../../../gcc/liboffloadmic/runtime/offload_engine.h' line='527' column='1'/>
          <return type-id='type-id-154'/>
        </function-decl>
      </member-function>
      <member-function access='public'>
        <function-decl name='remove_auto_data' mangled-name='_ZN6Engine16remove_auto_dataEPKv' filepath='../../../gcc/liboffloadmic/runtime/offload_engine.h' line='520' column='1' visibility='default' binding='global' size-in-bits='64' elf-symbol-id='_ZN6Engine16remove_auto_dataEPKv'>
          <parameter type-id='type-id-199' name='this' is-artificial='yes'/>
          <parameter type-id='type-id-150' name='ptr' filepath='../../../gcc/liboffloadmic/runtime/offload_engine.h' line='520' column='1'/>
          <return type-id='type-id-154'/>
        </function-decl>
      </member-function>
      <member-function access='public'>
        <function-decl name='insert_auto_data' mangled-name='_ZN6Engine16insert_auto_dataEPKvm' filepath='../../../gcc/liboffloadmic/runtime/offload_engine.h' line='513' column='1' visibility='default' binding='global' size-in-bits='64' elf-symbol-id='_ZN6Engine16insert_auto_dataEPKvm'>
          <parameter type-id='type-id-199' name='this' is-artificial='yes'/>
          <parameter type-id='type-id-150' name='ptr' filepath='../../../gcc/liboffloadmic/runtime/offload_engine.h' line='513' column='1'/>
          <parameter type-id='type-id-56' name='len' filepath='../../../gcc/liboffloadmic/runtime/offload_engine.h' line='513' column='1'/>
          <return type-id='type-id-207'/>
        </function-decl>
      </member-function>
      <member-function access='public'>
        <function-decl name='find_auto_data' mangled-name='_ZN6Engine14find_auto_dataEPKv' filepath='../../../gcc/liboffloadmic/runtime/offload_engine.h' line='504' column='1' visibility='default' binding='global' size-in-bits='64' elf-symbol-id='_ZN6Engine14find_auto_dataEPKv'>
          <parameter type-id='type-id-199' name='this' is-artificial='yes'/>
          <parameter type-id='type-id-150' name='ptr' filepath='../../../gcc/liboffloadmic/runtime/offload_engine.h' line='504' column='1'/>
          <return type-id='type-id-207'/>
        </function-decl>
      </member-function>
      <member-function access='public'>
        <function-decl name='remove_targetptr_data' mangled-name='_ZN6Engine21remove_targetptr_dataEPKv' filepath='../../../gcc/liboffloadmic/runtime/offload_engine.h' line='497' column='1' visibility='default' binding='global' size-in-bits='64' elf-symbol-id='_ZN6Engine21remove_targetptr_dataEPKv'>
          <parameter type-id='type-id-199' name='this' is-artificial='yes'/>
          <parameter type-id='type-id-150' name='ptr' filepath='../../../gcc/liboffloadmic/runtime/offload_engine.h' line='520' column='1'/>
          <return type-id='type-id-154'/>
        </function-decl>
      </member-function>
      <member-function access='public'>
        <function-decl name='remove_ptr_data' mangled-name='_ZN6Engine15remove_ptr_dataEPKv' filepath='../../../gcc/liboffloadmic/runtime/offload_engine.h' line='493' column='1' visibility='default' binding='global' size-in-bits='64' elf-symbol-id='_ZN6Engine15remove_ptr_dataEPKv'>
          <parameter type-id='type-id-199' name='this' is-artificial='yes'/>
          <parameter type-id='type-id-150' name='ptr' filepath='../../../gcc/liboffloadmic/runtime/offload_engine.h' line='520' column='1'/>
          <return type-id='type-id-154'/>
        </function-decl>
      </member-function>
      <member-function access='public'>
        <function-decl name='insert_targetptr_data' mangled-name='_ZN6Engine21insert_targetptr_dataEPKvmRb' filepath='../../../gcc/liboffloadmic/runtime/offload_engine.h' line='488' column='1' visibility='default' binding='global' size-in-bits='64' elf-symbol-id='_ZN6Engine21insert_targetptr_dataEPKvmRb'>
          <parameter type-id='type-id-199' name='this' is-artificial='yes'/>
          <parameter type-id='type-id-150' name='ptr' filepath='../../../gcc/liboffloadmic/runtime/offload_engine.h' line='484' column='1'/>
          <parameter type-id='type-id-56' name='len' filepath='../../../gcc/liboffloadmic/runtime/offload_engine.h' line='484' column='1'/>
          <parameter type-id='type-id-204' name='is_new' filepath='../../../gcc/liboffloadmic/runtime/offload_engine.h' line='484' column='1'/>
          <return type-id='type-id-205'/>
        </function-decl>
      </member-function>
      <member-function access='public'>
        <function-decl name='find_targetptr_data' mangled-name='_ZN6Engine19find_targetptr_dataEPKv' filepath='../../../gcc/liboffloadmic/runtime/offload_engine.h' line='480' column='1' visibility='default' binding='global' size-in-bits='64' elf-symbol-id='_ZN6Engine19find_targetptr_dataEPKv'>
          <parameter type-id='type-id-199' name='this' is-artificial='yes'/>
          <parameter type-id='type-id-150' name='ptr' filepath='../../../gcc/liboffloadmic/runtime/offload_engine.h' line='480' column='1'/>
          <return type-id='type-id-205'/>
        </function-decl>
      </member-function>
      <member-function access='public'>
        <function-decl name='find_ptr_data' mangled-name='_ZN6Engine13find_ptr_dataEPKv' filepath='../../../gcc/liboffloadmic/runtime/offload_engine.h' line='476' column='1' visibility='default' binding='global' size-in-bits='64' elf-symbol-id='_ZN6Engine13find_ptr_dataEPKv'>
          <parameter type-id='type-id-199' name='this' is-artificial='yes'/>
          <parameter type-id='type-id-150' name='ptr' filepath='../../../gcc/liboffloadmic/runtime/offload_engine.h' line='480' column='1'/>
          <return type-id='type-id-205'/>
        </function-decl>
      </member-function>
      <member-function access='public'>
        <function-decl name='add_lib' mangled-name='_ZN6Engine7add_libERK11TargetImage' filepath='../../../gcc/liboffloadmic/runtime/offload_engine.h' line='432' column='1' visibility='default' binding='global' size-in-bits='64' elf-symbol-id='_ZN6Engine7add_libERK11TargetImage'>
          <parameter type-id='type-id-199' name='this' is-artificial='yes'/>
          <parameter type-id='type-id-208' name='lib' filepath='../../../gcc/liboffloadmic/runtime/offload_engine.h' line='432' column='1'/>
          <return type-id='type-id-154'/>
        </function-decl>
      </member-function>
      <member-function access='public' const='yes'>
        <function-decl name='get_process' mangled-name='_ZNK6Engine11get_processEv' filepath='../../../gcc/liboffloadmic/runtime/offload_engine.h' line='419' column='1' visibility='default' binding='global' size-in-bits='64' elf-symbol-id='_ZNK6Engine11get_processEv'>
          <parameter type-id='type-id-209' name='this' is-artificial='yes'/>
          <return type-id='type-id-210'/>
        </function-decl>
      </member-function>
      <member-function access='public' const='yes'>
        <function-decl name='get_logical_index' mangled-name='_ZNK6Engine17get_logical_indexEv' filepath='../../../gcc/liboffloadmic/runtime/offload_engine.h' line='411' column='1' visibility='default' binding='global' size-in-bits='64' elf-symbol-id='_ZNK6Engine17get_logical_indexEv'>
          <parameter type-id='type-id-209' name='this' is-artificial='yes'/>
          <return type-id='type-id-25'/>
        </function-decl>
      </member-function>
      <member-function access='public'>
        <function-decl name='fini_myo' mangled-name='_ZN6Engine8fini_myoEP8coievent' filepath='../../../gcc/liboffloadmic/runtime/offload_engine.h' line='463' column='1' visibility='default' binding='global' size-in-bits='64' elf-symbol-id='_ZN6Engine8fini_myoEP8coievent'>
          <parameter type-id='type-id-199' name='this' is-artificial='yes'/>
          <parameter type-id='type-id-60' name='event' filepath='../../../gcc/liboffloadmic/runtime/offload_engine.h' line='463' column='1'/>
          <return type-id='type-id-154'/>
        </function-decl>
      </member-function>
      <member-function access='public'>
        <function-decl name='init_myo' mangled-name='_ZN6Engine8init_myoEP8coievent' filepath='../../../gcc/liboffloadmic/runtime/offload_engine.h' line='454' column='1' visibility='default' binding='global' size-in-bits='64' elf-symbol-id='_ZN6Engine8init_myoEP8coievent'>
          <parameter type-id='type-id-199' name='this' is-artificial='yes'/>
          <parameter type-id='type-id-60' name='event' filepath='../../../gcc/liboffloadmic/runtime/offload_engine.h' line='463' column='1'/>
          <return type-id='type-id-154'/>
        </function-decl>
      </member-function>
      <member-function access='public' const='yes'>
        <function-decl name='get_physical_index' mangled-name='_ZNK6Engine18get_physical_indexEv' filepath='../../../gcc/liboffloadmic/runtime/offload_engine.h' line='415' column='1' visibility='default' binding='global' size-in-bits='64' elf-symbol-id='_ZNK6Engine18get_physical_indexEv'>
          <parameter type-id='type-id-209' name='this' is-artificial='yes'/>
          <return type-id='type-id-25'/>
        </function-decl>
      </member-function>
    </class-decl>
    <class-decl name='TargetImage' size-in-bits='320' is-struct='yes' visibility='default' filepath='../../../gcc/liboffloadmic/runtime/offload_engine.h' line='262' column='1' id='type-id-211'>
      <data-member access='public' layout-offset-in-bits='0'>
        <var-decl name='name' type-id='type-id-152' visibility='default' filepath='../../../gcc/liboffloadmic/runtime/offload_engine.h' line='271' column='1'/>
      </data-member>
      <data-member access='public' layout-offset-in-bits='64'>
        <var-decl name='data' type-id='type-id-150' visibility='default' filepath='../../../gcc/liboffloadmic/runtime/offload_engine.h' line='274' column='1'/>
      </data-member>
      <data-member access='public' layout-offset-in-bits='128'>
        <var-decl name='size' type-id='type-id-56' visibility='default' filepath='../../../gcc/liboffloadmic/runtime/offload_engine.h' line='275' column='1'/>
      </data-member>
      <data-member access='public' layout-offset-in-bits='192'>
        <var-decl name='origin' type-id='type-id-152' visibility='default' filepath='../../../gcc/liboffloadmic/runtime/offload_engine.h' line='278' column='1'/>
      </data-member>
      <data-member access='public' layout-offset-in-bits='256'>
        <var-decl name='offset' type-id='type-id-56' visibility='default' filepath='../../../gcc/liboffloadmic/runtime/offload_engine.h' line='279' column='1'/>
      </data-member>
      <member-function access='public' constructor='yes'>
        <function-decl name='TargetImage' mangled-name='_ZN11TargetImageC2EPKcPKvmS1_m' filepath='../../../gcc/liboffloadmic/runtime/offload_engine.h' line='264' column='1' visibility='default' binding='global' size-in-bits='64' elf-symbol-id='_ZN11TargetImageC2EPKcPKvmS1_m'>
          <parameter type-id='type-id-212' name='this' is-artificial='yes'/>
          <parameter type-id='type-id-152' name='_name' filepath='../../../gcc/liboffloadmic/runtime/offload_engine.h' line='264' column='1'/>
          <parameter type-id='type-id-150' name='_data' filepath='../../../gcc/liboffloadmic/runtime/offload_engine.h' line='264' column='1'/>
          <parameter type-id='type-id-56' name='_size' filepath='../../../gcc/liboffloadmic/runtime/offload_engine.h' line='264' column='1'/>
          <parameter type-id='type-id-152' name='_origin' filepath='../../../gcc/liboffloadmic/runtime/offload_engine.h' line='265' column='1'/>
          <parameter type-id='type-id-56' name='_offset' filepath='../../../gcc/liboffloadmic/runtime/offload_engine.h' line='265' column='1'/>
          <return type-id='type-id-154'/>
        </function-decl>
      </member-function>
    </class-decl>
    <class-decl name='PersistData' size-in-bits='320' is-struct='yes' visibility='default' filepath='../../../gcc/liboffloadmic/runtime/offload_engine.h' line='302' column='1' id='type-id-213'>
      <data-member access='public' layout-offset-in-bits='0'>
        <var-decl name='stack_cpu_addr' type-id='type-id-150' visibility='default' filepath='../../../gcc/liboffloadmic/runtime/offload_engine.h' line='311' column='1'/>
      </data-member>
      <data-member access='public' layout-offset-in-bits='64'>
        <var-decl name='routine_id' type-id='type-id-56' visibility='default' filepath='../../../gcc/liboffloadmic/runtime/offload_engine.h' line='313' column='1'/>
      </data-member>
      <data-member access='public' layout-offset-in-bits='128'>
        <var-decl name='thread_id' type-id='type-id-56' visibility='default' filepath='../../../gcc/liboffloadmic/runtime/offload_engine.h' line='315' column='1'/>
      </data-member>
      <data-member access='public' layout-offset-in-bits='192'>
        <var-decl name='stack_ptr_data' type-id='type-id-205' visibility='default' filepath='../../../gcc/liboffloadmic/runtime/offload_engine.h' line='318' column='1'/>
      </data-member>
      <data-member access='public' layout-offset-in-bits='256'>
        <var-decl name='cpu_stack_addr' type-id='type-id-214' visibility='default' filepath='../../../gcc/liboffloadmic/runtime/offload_engine.h' line='320' column='1'/>
      </data-member>
      <member-function access='public' constructor='yes'>
        <function-decl name='PersistData' mangled-name='_ZN11PersistDataC2EPKvmmm' filepath='../../../gcc/liboffloadmic/runtime/offload_engine.h' line='304' column='1' visibility='default' binding='global' size-in-bits='64' elf-symbol-id='_ZN11PersistDataC2EPKvmmm'>
          <parameter type-id='type-id-215' name='this' is-artificial='yes'/>
          <parameter type-id='type-id-150' name='addr' filepath='../../../gcc/liboffloadmic/runtime/offload_engine.h' line='304' column='1'/>
          <parameter type-id='type-id-56' name='routine_num' filepath='../../../gcc/liboffloadmic/runtime/offload_engine.h' line='304' column='1'/>
          <parameter type-id='type-id-56' name='size' filepath='../../../gcc/liboffloadmic/runtime/offload_engine.h' line='305' column='1'/>
          <parameter type-id='type-id-56' name='thread' filepath='../../../gcc/liboffloadmic/runtime/offload_engine.h' line='305' column='1'/>
          <return type-id='type-id-154'/>
        </function-decl>
      </member-function>
    </class-decl>
    <class-decl name='PtrData' size-in-bits='832' visibility='default' filepath='../../../gcc/liboffloadmic/runtime/offload_engine.h' line='81' column='1' id='type-id-216'>
      <data-member access='private' layout-offset-in-bits='0'>
        <var-decl name='cpu_addr' type-id='type-id-217' visibility='default' filepath='../../../gcc/liboffloadmic/runtime/offload_engine.h' line='137' column='1'/>
      </data-member>
      <data-member access='private' layout-offset-in-bits='128'>
        <var-decl name='cpu_buf' type-id='type-id-36' visibility='default' filepath='../../../gcc/liboffloadmic/runtime/offload_engine.h' line='140' column='1'/>
      </data-member>
      <data-member access='private' layout-offset-in-bits='192'>
        <var-decl name='mic_buf' type-id='type-id-36' visibility='default' filepath='../../../gcc/liboffloadmic/runtime/offload_engine.h' line='141' column='1'/>
      </data-member>
      <data-member access='private' layout-offset-in-bits='256'>
        <var-decl name='mic_addr' type-id='type-id-56' visibility='default' filepath='../../../gcc/liboffloadmic/runtime/offload_engine.h' line='144' column='1'/>
      </data-member>
      <data-member access='private' layout-offset-in-bits='320'>
        <var-decl name='alloc_disp' type-id='type-id-56' visibility='default' filepath='../../../gcc/liboffloadmic/runtime/offload_engine.h' line='146' column='1'/>
      </data-member>
      <data-member access='private' layout-offset-in-bits='384'>
        <var-decl name='mic_offset' type-id='type-id-17' visibility='default' filepath='../../../gcc/liboffloadmic/runtime/offload_engine.h' line='150' column='1'/>
      </data-member>
      <data-member access='private' layout-offset-in-bits='416'>
        <var-decl name='is_static' type-id='type-id-149' visibility='default' filepath='../../../gcc/liboffloadmic/runtime/offload_engine.h' line='153' column='1'/>
      </data-member>
      <data-member access='private' layout-offset-in-bits='448'>
        <var-decl name='alloc_ptr_data_lock' type-id='type-id-192' visibility='default' filepath='../../../gcc/liboffloadmic/runtime/offload_engine.h' line='154' column='1'/>
      </data-member>
      <data-member access='private' layout-offset-in-bits='768'>
        <var-decl name='ref_count' type-id='type-id-191' visibility='default' filepath='../../../gcc/liboffloadmic/runtime/offload_engine.h' line='158' column='1'/>
      </data-member>
      <member-function access='private' const='yes'>
        <function-decl name='operator&lt;' mangled-name='_ZNK7PtrDataltERKS_' filepath='../../../gcc/liboffloadmic/runtime/offload_engine.h' line='99' column='1' visibility='default' binding='global' size-in-bits='64' elf-symbol-id='_ZNK7PtrDataltERKS_'>
          <parameter type-id='type-id-218' name='this' is-artificial='yes'/>
          <parameter type-id='type-id-219' name='o' filepath='../../../gcc/liboffloadmic/runtime/offload_engine.h' line='99' column='1'/>
          <return type-id='type-id-149'/>
        </function-decl>
      </member-function>
      <member-function access='private' constructor='yes'>
        <function-decl name='PtrData' mangled-name='_ZN7PtrDataC2ERKS_' filepath='../../../gcc/liboffloadmic/runtime/offload_engine.h' line='92' column='1' visibility='default' binding='global' size-in-bits='64' elf-symbol-id='_ZN7PtrDataC2ERKS_'>
          <parameter type-id='type-id-220' name='this' is-artificial='yes'/>
          <parameter type-id='type-id-219' name='ptr' filepath='../../../gcc/liboffloadmic/runtime/offload_engine.h' line='92' column='1'/>
          <return type-id='type-id-154'/>
        </function-decl>
      </member-function>
      <member-function access='private' constructor='yes'>
        <function-decl name='PtrData' mangled-name='_ZN7PtrDataC2EPKvm' filepath='../../../gcc/liboffloadmic/runtime/offload_engine.h' line='83' column='1' visibility='default' binding='global' size-in-bits='64' elf-symbol-id='_ZN7PtrDataC2EPKvm'>
          <parameter type-id='type-id-220' name='this' is-artificial='yes'/>
          <parameter type-id='type-id-150' name='addr' filepath='../../../gcc/liboffloadmic/runtime/offload_engine.h' line='83' column='1'/>
          <parameter type-id='type-id-56' name='len' filepath='../../../gcc/liboffloadmic/runtime/offload_engine.h' line='83' column='1'/>
          <return type-id='type-id-154'/>
        </function-decl>
      </member-function>
      <member-function access='private' const='yes'>
        <function-decl name='get_reference' mangled-name='_ZNK7PtrData13get_referenceEv' filepath='../../../gcc/liboffloadmic/runtime/offload_engine.h' line='128' column='1' visibility='default' binding='global' size-in-bits='64' elf-symbol-id='_ZNK7PtrData13get_referenceEv'>
          <parameter type-id='type-id-218' name='this' is-artificial='yes'/>
          <return type-id='type-id-191'/>
        </function-decl>
      </member-function>
      <member-function access='private'>
        <function-decl name='remove_reference' mangled-name='_ZN7PtrData16remove_referenceEv' filepath='../../../gcc/liboffloadmic/runtime/offload_engine.h' line='117' column='1' visibility='default' binding='global' size-in-bits='64' elf-symbol-id='_ZN7PtrData16remove_referenceEv'>
          <parameter type-id='type-id-220' name='this' is-artificial='yes'/>
          <return type-id='type-id-191'/>
        </function-decl>
      </member-function>
      <member-function access='private'>
        <function-decl name='add_reference' mangled-name='_ZN7PtrData13add_referenceEv' filepath='../../../gcc/liboffloadmic/runtime/offload_engine.h' line='106' column='1' visibility='default' binding='global' size-in-bits='64' elf-symbol-id='_ZN7PtrData13add_referenceEv'>
          <parameter type-id='type-id-220' name='this' is-artificial='yes'/>
          <return type-id='type-id-191'/>
        </function-decl>
      </member-function>
      <member-function access='private' constructor='yes'>
        <function-decl name='PtrData' mangled-name='_ZN7PtrDataC2ERKS_' filepath='../../../gcc/liboffloadmic/runtime/offload_engine.h' line='92' column='1' visibility='default' binding='global' size-in-bits='64' elf-symbol-id='_ZN7PtrDataC2ERKS_'>
          <parameter type-id='type-id-220' name='this' is-artificial='yes'/>
          <parameter type-id='type-id-219' name='ptr' filepath='../../../gcc/liboffloadmic/runtime/offload_engine.h' line='92' column='1'/>
          <return type-id='type-id-154'/>
        </function-decl>
      </member-function>
      <member-function access='private' constructor='yes'>
        <function-decl name='PtrData' mangled-name='_ZN7PtrDataC2EPKvm' filepath='../../../gcc/liboffloadmic/runtime/offload_engine.h' line='83' column='1' visibility='default' binding='global' size-in-bits='64' elf-symbol-id='_ZN7PtrDataC2EPKvm'>
          <parameter type-id='type-id-220' name='this' is-artificial='yes'/>
          <parameter type-id='type-id-150' name='addr' filepath='../../../gcc/liboffloadmic/runtime/offload_engine.h' line='83' column='1'/>
          <parameter type-id='type-id-56' name='len' filepath='../../../gcc/liboffloadmic/runtime/offload_engine.h' line='83' column='1'/>
          <return type-id='type-id-154'/>
        </function-decl>
      </member-function>
    </class-decl>
    <class-decl name='AutoData' size-in-bits='192' visibility='default' filepath='../../../gcc/liboffloadmic/runtime/offload_engine.h' line='208' column='1' id='type-id-221'>
      <data-member access='private' layout-offset-in-bits='0'>
        <var-decl name='cpu_addr' type-id='type-id-217' visibility='default' filepath='../../../gcc/liboffloadmic/runtime/offload_engine.h' line='251' column='1'/>
      </data-member>
      <data-member access='private' layout-offset-in-bits='128'>
        <var-decl name='ref_count' type-id='type-id-191' visibility='default' filepath='../../../gcc/liboffloadmic/runtime/offload_engine.h' line='255' column='1'/>
      </data-member>
      <member-function access='private' const='yes'>
        <function-decl name='get_reference' mangled-name='_ZNK8AutoData13get_referenceEv' filepath='../../../gcc/liboffloadmic/runtime/offload_engine.h' line='245' column='1' visibility='default' binding='global' size-in-bits='64' elf-symbol-id='_ZNK8AutoData13get_referenceEv'>
          <parameter type-id='type-id-222' name='this' is-artificial='yes'/>
          <return type-id='type-id-191'/>
        </function-decl>
      </member-function>
      <member-function access='private'>
        <function-decl name='nullify_reference' mangled-name='_ZN8AutoData17nullify_referenceEv' filepath='../../../gcc/liboffloadmic/runtime/offload_engine.h' line='237' column='1' visibility='default' binding='global' size-in-bits='64' elf-symbol-id='_ZN8AutoData17nullify_referenceEv'>
          <parameter type-id='type-id-223' name='this' is-artificial='yes'/>
          <return type-id='type-id-191'/>
        </function-decl>
      </member-function>
      <member-function access='private'>
        <function-decl name='remove_reference' mangled-name='_ZN8AutoData16remove_referenceEv' filepath='../../../gcc/liboffloadmic/runtime/offload_engine.h' line='229' column='1' visibility='default' binding='global' size-in-bits='64' elf-symbol-id='_ZN8AutoData16remove_referenceEv'>
          <parameter type-id='type-id-223' name='this' is-artificial='yes'/>
          <return type-id='type-id-191'/>
        </function-decl>
      </member-function>
      <member-function access='private'>
        <function-decl name='add_reference' mangled-name='_ZN8AutoData13add_referenceEv' filepath='../../../gcc/liboffloadmic/runtime/offload_engine.h' line='221' column='1' visibility='default' binding='global' size-in-bits='64' elf-symbol-id='_ZN8AutoData13add_referenceEv'>
          <parameter type-id='type-id-223' name='this' is-artificial='yes'/>
          <return type-id='type-id-191'/>
        </function-decl>
      </member-function>
      <member-function access='private' const='yes'>
        <function-decl name='operator&lt;' mangled-name='_ZNK8AutoDataltERKS_' filepath='../../../gcc/liboffloadmic/runtime/offload_engine.h' line='214' column='1' visibility='default' binding='global' size-in-bits='64' elf-symbol-id='_ZNK8AutoDataltERKS_'>
          <parameter type-id='type-id-222' name='this' is-artificial='yes'/>
          <parameter type-id='type-id-224' name='o' filepath='../../../gcc/liboffloadmic/runtime/offload_engine.h' line='214' column='1'/>
          <return type-id='type-id-149'/>
        </function-decl>
      </member-function>
      <member-function access='private' constructor='yes'>
        <function-decl name='AutoData' mangled-name='_ZN8AutoDataC2EPKvm' filepath='../../../gcc/liboffloadmic/runtime/offload_engine.h' line='210' column='1' visibility='default' binding='global' size-in-bits='64' elf-symbol-id='_ZN8AutoDataC2EPKvm'>
          <parameter type-id='type-id-223' name='this' is-artificial='yes'/>
          <parameter type-id='type-id-150' name='addr' filepath='../../../gcc/liboffloadmic/runtime/offload_engine.h' line='210' column='1'/>
          <parameter type-id='type-id-56' name='len' filepath='../../../gcc/liboffloadmic/runtime/offload_engine.h' line='210' column='1'/>
          <return type-id='type-id-154'/>
        </function-decl>
      </member-function>
    </class-decl>
    <typedef-decl name='OFFLOAD' type-id='type-id-206' filepath='../../../gcc/liboffloadmic/runtime/offload_common.h' line='500' column='1' id='type-id-225'/>
    <class-decl name='Arr_Desc' size-in-bits='448' is-struct='yes' visibility='default' filepath='../../../gcc/liboffloadmic/runtime/cean_util.h' line='46' column='1' id='type-id-226'>
      <data-member access='public' layout-offset-in-bits='0'>
        <var-decl name='base' type-id='type-id-227' visibility='default' filepath='../../../gcc/liboffloadmic/runtime/cean_util.h' line='47' column='1'/>
      </data-member>
      <data-member access='public' layout-offset-in-bits='64'>
        <var-decl name='rank' type-id='type-id-227' visibility='default' filepath='../../../gcc/liboffloadmic/runtime/cean_util.h' line='48' column='1'/>
      </data-member>
      <data-member access='public' layout-offset-in-bits='128'>
        <var-decl name='dim' type-id='type-id-161' visibility='default' filepath='../../../gcc/liboffloadmic/runtime/cean_util.h' line='49' column='1'/>
      </data-member>
    </class-decl>
    <class-decl name='Dim_Desc' size-in-bits='320' is-struct='yes' visibility='default' filepath='../../../gcc/liboffloadmic/runtime/cean_util.h' line='38' column='1' id='type-id-160'>
      <data-member access='public' layout-offset-in-bits='0'>
        <var-decl name='size' type-id='type-id-227' visibility='default' filepath='../../../gcc/liboffloadmic/runtime/cean_util.h' line='39' column='1'/>
      </data-member>
      <data-member access='public' layout-offset-in-bits='64'>
        <var-decl name='lindex' type-id='type-id-227' visibility='default' filepath='../../../gcc/liboffloadmic/runtime/cean_util.h' line='40' column='1'/>
      </data-member>
      <data-member access='public' layout-offset-in-bits='128'>
        <var-decl name='lower' type-id='type-id-227' visibility='default' filepath='../../../gcc/liboffloadmic/runtime/cean_util.h' line='41' column='1'/>
      </data-member>
      <data-member access='public' layout-offset-in-bits='192'>
        <var-decl name='upper' type-id='type-id-227' visibility='default' filepath='../../../gcc/liboffloadmic/runtime/cean_util.h' line='42' column='1'/>
      </data-member>
      <data-member access='public' layout-offset-in-bits='256'>
        <var-decl name='stride' type-id='type-id-227' visibility='default' filepath='../../../gcc/liboffloadmic/runtime/cean_util.h' line='43' column='1'/>
      </data-member>
    </class-decl>
    <class-decl name='CeanReadDim' size-in-bits='128' is-struct='yes' visibility='default' filepath='../../../gcc/liboffloadmic/runtime/cean_util.h' line='52' column='1' id='type-id-157'>
      <data-member access='public' layout-offset-in-bits='0'>
        <var-decl name='count' type-id='type-id-227' visibility='default' filepath='../../../gcc/liboffloadmic/runtime/cean_util.h' line='53' column='1'/>
      </data-member>
      <data-member access='public' layout-offset-in-bits='64'>
        <var-decl name='size' type-id='type-id-227' visibility='default' filepath='../../../gcc/liboffloadmic/runtime/cean_util.h' line='54' column='1'/>
      </data-member>
    </class-decl>
    <typedef-decl name='PtrDataList' type-id='type-id-228' filepath='../../../gcc/liboffloadmic/runtime/offload_engine.h' line='161' column='1' id='type-id-229'/>
    <typedef-decl name='PersistDataList' type-id='type-id-230' filepath='../../../gcc/liboffloadmic/runtime/offload_engine.h' line='323' column='1' id='type-id-190'/>
    <typedef-decl name='TargetImageList' type-id='type-id-231' filepath='../../../gcc/liboffloadmic/runtime/offload_engine.h' line='282' column='1' id='type-id-193'/>
    <typedef-decl name='StreamMap' type-id='type-id-232' filepath='../../../gcc/liboffloadmic/runtime/offload_engine.h' line='392' column='1' id='type-id-195'/>
    <typedef-decl name='_Offload_stream' type-id='type-id-56' filepath='../../../gcc/liboffloadmic/runtime/offload.h' line='96' column='1' id='type-id-201'/>
    <class-decl name='DynLib' size-in-bits='192' is-struct='yes' visibility='default' filepath='../../../gcc/liboffloadmic/runtime/offload_engine.h' line='285' column='1' id='type-id-233'>
      <data-member access='public' layout-offset-in-bits='0'>
        <var-decl name='name' type-id='type-id-152' visibility='default' filepath='../../../gcc/liboffloadmic/runtime/offload_engine.h' line='292' column='1'/>
      </data-member>
      <data-member access='public' layout-offset-in-bits='64'>
        <var-decl name='data' type-id='type-id-150' visibility='default' filepath='../../../gcc/liboffloadmic/runtime/offload_engine.h' line='295' column='1'/>
      </data-member>
      <data-member access='public' layout-offset-in-bits='128'>
        <var-decl name='lib' type-id='type-id-32' visibility='default' filepath='../../../gcc/liboffloadmic/runtime/offload_engine.h' line='297' column='1'/>
      </data-member>
      <member-function access='public' constructor='yes'>
        <function-decl name='DynLib' mangled-name='_ZN6DynLibC2EPKcPKvP10coilibrary' filepath='../../../gcc/liboffloadmic/runtime/offload_engine.h' line='287' column='1' visibility='default' binding='global' size-in-bits='64' elf-symbol-id='_ZN6DynLibC2EPKcPKvP10coilibrary'>
          <parameter type-id='type-id-234' name='this' is-artificial='yes'/>
          <parameter type-id='type-id-152' name='_name' filepath='../../../gcc/liboffloadmic/runtime/offload_engine.h' line='287' column='1'/>
          <parameter type-id='type-id-150' name='_data' filepath='../../../gcc/liboffloadmic/runtime/offload_engine.h' line='287' column='1'/>
          <parameter type-id='type-id-32' name='_lib' filepath='../../../gcc/liboffloadmic/runtime/offload_engine.h' line='288' column='1'/>
          <return type-id='type-id-154'/>
        </function-decl>
      </member-function>
    </class-decl>
    <typedef-decl name='DynLibList' type-id='type-id-235' filepath='../../../gcc/liboffloadmic/runtime/offload_engine.h' line='299' column='1' id='type-id-197'/>
    <typedef-decl name='pid_t' type-id='type-id-236' filepath='/usr/include/unistd.h' line='260' column='1' id='type-id-202'/>
    <typedef-decl name='__pid_t' type-id='type-id-25' filepath='/usr/include/bits/types.h' line='133' column='1' id='type-id-236'/>
    <typedef-decl name='AutoSet' type-id='type-id-237' filepath='../../../gcc/liboffloadmic/runtime/offload_engine.h' line='259' column='1' id='type-id-238'/>
    <union-decl name='varDescFlags' size-in-bits='32' visibility='default' filepath='../../../gcc/liboffloadmic/runtime/offload_common.h' line='217' column='1' id='type-id-239'>
      <member-type access='public'>
        <class-decl name='__anonymous_struct__' size-in-bits='32' is-struct='yes' is-anonymous='yes' visibility='default' filepath='../../../gcc/liboffloadmic/runtime/offload_common.h' line='218' column='1' id='type-id-240'>
          <data-member access='public' layout-offset-in-bits='0'>
            <var-decl name='is_static' type-id='type-id-17' visibility='default' filepath='../../../gcc/liboffloadmic/runtime/offload_common.h' line='220' column='1'/>
          </data-member>
          <data-member access='public' layout-offset-in-bits='1'>
            <var-decl name='is_static_dstn' type-id='type-id-17' visibility='default' filepath='../../../gcc/liboffloadmic/runtime/offload_common.h' line='222' column='1'/>
          </data-member>
          <data-member access='public' layout-offset-in-bits='2'>
            <var-decl name='has_length' type-id='type-id-17' visibility='default' filepath='../../../gcc/liboffloadmic/runtime/offload_common.h' line='224' column='1'/>
          </data-member>
          <data-member access='public' layout-offset-in-bits='3'>
            <var-decl name='is_stack_buf' type-id='type-id-17' visibility='default' filepath='../../../gcc/liboffloadmic/runtime/offload_common.h' line='226' column='1'/>
          </data-member>
          <data-member access='public' layout-offset-in-bits='4'>
            <var-decl name='targetptr' type-id='type-id-17' visibility='default' filepath='../../../gcc/liboffloadmic/runtime/offload_common.h' line='228' column='1'/>
          </data-member>
          <data-member access='public' layout-offset-in-bits='5'>
            <var-decl name='preallocated' type-id='type-id-17' visibility='default' filepath='../../../gcc/liboffloadmic/runtime/offload_common.h' line='230' column='1'/>
          </data-member>
          <data-member access='public' layout-offset-in-bits='6'>
            <var-decl name='is_pointer' type-id='type-id-17' visibility='default' filepath='../../../gcc/liboffloadmic/runtime/offload_common.h' line='232' column='1'/>
          </data-member>
          <data-member access='public' layout-offset-in-bits='7'>
            <var-decl name='sink_addr' type-id='type-id-17' visibility='default' filepath='../../../gcc/liboffloadmic/runtime/offload_common.h' line='235' column='1'/>
          </data-member>
          <data-member access='public' layout-offset-in-bits='8'>
            <var-decl name='alloc_disp' type-id='type-id-17' visibility='default' filepath='../../../gcc/liboffloadmic/runtime/offload_common.h' line='237' column='1'/>
          </data-member>
          <data-member access='public' layout-offset-in-bits='9'>
            <var-decl name='is_noncont_src' type-id='type-id-17' visibility='default' filepath='../../../gcc/liboffloadmic/runtime/offload_common.h' line='239' column='1'/>
          </data-member>
          <data-member access='public' layout-offset-in-bits='10'>
            <var-decl name='is_noncont_dst' type-id='type-id-17' visibility='default' filepath='../../../gcc/liboffloadmic/runtime/offload_common.h' line='241' column='1'/>
          </data-member>
          <data-member access='public' layout-offset-in-bits='11'>
            <var-decl name='always_copy' type-id='type-id-17' visibility='default' filepath='../../../gcc/liboffloadmic/runtime/offload_common.h' line='244' column='1'/>
          </data-member>
          <data-member access='public' layout-offset-in-bits='12'>
            <var-decl name='always_delete' type-id='type-id-17' visibility='default' filepath='../../../gcc/liboffloadmic/runtime/offload_common.h' line='246' column='1'/>
          </data-member>
          <data-member access='public' layout-offset-in-bits='13'>
            <var-decl name='pin' type-id='type-id-17' visibility='default' filepath='../../../gcc/liboffloadmic/runtime/offload_common.h' line='248' column='1'/>
          </data-member>
        </class-decl>
      </member-type>
      <data-member access='public'>
        <var-decl name='' type-id='type-id-240' visibility='default'/>
      </data-member>
      <data-member access='public'>
        <var-decl name='bits' type-id='type-id-17' visibility='default' filepath='../../../gcc/liboffloadmic/runtime/offload_common.h' line='250' column='1'/>
      </data-member>
    </union-decl>
    <typedef-decl name='_Offload_status' type-id='type-id-241' filepath='../../../gcc/liboffloadmic/runtime/offload.h' line='94' column='1' id='type-id-242'/>
    <class-decl name='__anonymous_struct__' size-in-bits='192' is-struct='yes' is-anonymous='yes' naming-typedef-id='type-id-242' visibility='default' filepath='../../../gcc/liboffloadmic/runtime/offload.h' line='89' column='1' id='type-id-241'>
      <data-member access='public' layout-offset-in-bits='0'>
        <var-decl name='result' type-id='type-id-243' visibility='default' filepath='../../../gcc/liboffloadmic/runtime/offload.h' line='90' column='1'/>
      </data-member>
      <data-member access='public' layout-offset-in-bits='32'>
        <var-decl name='device_number' type-id='type-id-25' visibility='default' filepath='../../../gcc/liboffloadmic/runtime/offload.h' line='91' column='1'/>
      </data-member>
      <data-member access='public' layout-offset-in-bits='64'>
        <var-decl name='data_sent' type-id='type-id-244' visibility='default' filepath='../../../gcc/liboffloadmic/runtime/offload.h' line='92' column='1'/>
      </data-member>
      <data-member access='public' layout-offset-in-bits='128'>
        <var-decl name='data_received' type-id='type-id-244' visibility='default' filepath='../../../gcc/liboffloadmic/runtime/offload.h' line='93' column='1'/>
      </data-member>
    </class-decl>
    <typedef-decl name='_Offload_result' type-id='type-id-245' filepath='../../../gcc/liboffloadmic/runtime/offload.h' line='87' column='1' id='type-id-243'/>
    <enum-decl name='__anonymous_enum__' is-anonymous='yes' linkage-name='15_Offload_result' filepath='../../../gcc/liboffloadmic/runtime/offload.h' line='80' column='1' id='type-id-245'>
      <underlying-type type-id='type-id-14'/>
      <enumerator name='OFFLOAD_SUCCESS' value='0'/>
      <enumerator name='OFFLOAD_DISABLED' value='1'/>
      <enumerator name='OFFLOAD_UNAVAILABLE' value='2'/>
      <enumerator name='OFFLOAD_OUT_OF_MEMORY' value='3'/>
      <enumerator name='OFFLOAD_PROCESS_DIED' value='4'/>
      <enumerator name='OFFLOAD_ERROR' value='5'/>
    </enum-decl>
    <class-decl name='FunctionDescriptor' size-in-bits='320' is-struct='yes' visibility='default' filepath='../../../gcc/liboffloadmic/runtime/offload_common.h' line='467' column='1' id='type-id-246'>
      <data-member access='public' layout-offset-in-bits='0'>
        <var-decl name='in_datalen' type-id='type-id-247' visibility='default' filepath='../../../gcc/liboffloadmic/runtime/offload_common.h' line='470' column='1'/>
      </data-member>
      <data-member access='public' layout-offset-in-bits='64'>
        <var-decl name='out_datalen' type-id='type-id-247' visibility='default' filepath='../../../gcc/liboffloadmic/runtime/offload_common.h' line='473' column='1'/>
      </data-member>
      <data-member access='public' layout-offset-in-bits='128'>
        <var-decl name='console_enabled' type-id='type-id-20' visibility='default' filepath='../../../gcc/liboffloadmic/runtime/offload_common.h' line='478' column='1'/>
      </data-member>
      <data-member access='public' layout-offset-in-bits='136'>
        <var-decl name='timer_enabled' type-id='type-id-20' visibility='default' filepath='../../../gcc/liboffloadmic/runtime/offload_common.h' line='482' column='1'/>
      </data-member>
      <data-member access='public' layout-offset-in-bits='160'>
        <var-decl name='offload_report_level' type-id='type-id-25' visibility='default' filepath='../../../gcc/liboffloadmic/runtime/offload_common.h' line='484' column='1'/>
      </data-member>
      <data-member access='public' layout-offset-in-bits='192'>
        <var-decl name='offload_number' type-id='type-id-25' visibility='default' filepath='../../../gcc/liboffloadmic/runtime/offload_common.h' line='485' column='1'/>
      </data-member>
      <data-member access='public' layout-offset-in-bits='224'>
        <var-decl name='vars_num' type-id='type-id-25' visibility='default' filepath='../../../gcc/liboffloadmic/runtime/offload_common.h' line='488' column='1'/>
      </data-member>
      <data-member access='public' layout-offset-in-bits='256'>
        <var-decl name='data_offset' type-id='type-id-25' visibility='default' filepath='../../../gcc/liboffloadmic/runtime/offload_common.h' line='492' column='1'/>
      </data-member>
      <data-member access='public' layout-offset-in-bits='288'>
        <var-decl name='data' type-id='type-id-168' visibility='default' filepath='../../../gcc/liboffloadmic/runtime/offload_common.h' line='495' column='1'/>
      </data-member>
    </class-decl>
    <class-decl name='OffloadTargetTimerData' size-in-bits='1216' is-struct='yes' visibility='default' filepath='../../../gcc/liboffloadmic/runtime/offload_timer.h' line='43' column='1' id='type-id-248'>
      <member-type access='public'>
        <class-decl name='__anonymous_struct__' size-in-bits='128' is-struct='yes' is-anonymous='yes' visibility='default' filepath='../../../gcc/liboffloadmic/runtime/offload_timer.h' line='45' column='1' id='type-id-165'>
          <data-member access='public' layout-offset-in-bits='0'>
            <var-decl name='start' type-id='type-id-56' visibility='default' filepath='../../../gcc/liboffloadmic/runtime/offload_timer.h' line='46' column='1'/>
          </data-member>
          <data-member access='public' layout-offset-in-bits='64'>
            <var-decl name='total' type-id='type-id-56' visibility='default' filepath='../../../gcc/liboffloadmic/runtime/offload_timer.h' line='47' column='1'/>
          </data-member>
        </class-decl>
      </member-type>
      <data-member access='public' layout-offset-in-bits='0'>
        <var-decl name='frequency' type-id='type-id-56' visibility='default' filepath='../../../gcc/liboffloadmic/runtime/offload_timer.h' line='44' column='1'/>
      </data-member>
      <data-member access='public' layout-offset-in-bits='64'>
        <var-decl name='phases' type-id='type-id-166' visibility='default' filepath='../../../gcc/liboffloadmic/runtime/offload_timer.h' line='48' column='1'/>
      </data-member>
    </class-decl>
    <typedef-decl name='error_types' type-id='type-id-249' filepath='../../../gcc/liboffloadmic/runtime/liboffload_error_codes.h' line='184' column='1' id='type-id-250'/>
    <enum-decl name='__anonymous_enum__1' is-anonymous='yes' linkage-name='11error_types' filepath='../../../gcc/liboffloadmic/runtime/liboffload_error_codes.h' line='38' column='1' id='type-id-249'>
      <underlying-type type-id='type-id-14'/>
      <enumerator name='c_device_is_not_available' value='0'/>
      <enumerator name='c_invalid_device_number' value='1'/>
      <enumerator name='c_offload1' value='2'/>
      <enumerator name='c_unknown_var_type' value='3'/>
      <enumerator name='c_send_func_ptr' value='4'/>
      <enumerator name='c_receive_func_ptr' value='5'/>
      <enumerator name='c_malloc' value='6'/>
      <enumerator name='c_offload_malloc' value='7'/>
      <enumerator name='c_invalid_env_var_value' value='8'/>
      <enumerator name='c_invalid_env_var_int_value' value='9'/>
      <enumerator name='c_invalid_env_report_value' value='10'/>
      <enumerator name='c_offload_signaled1' value='11'/>
      <enumerator name='c_offload_signaled2' value='12'/>
      <enumerator name='c_myotarget_checkresult' value='13'/>
      <enumerator name='c_myowrapper_checkresult' value='14'/>
      <enumerator name='c_offload_descriptor_offload' value='15'/>
      <enumerator name='c_merge_var_descs1' value='16'/>
      <enumerator name='c_merge_var_descs2' value='17'/>
      <enumerator name='c_mic_parse_env_var_list1' value='18'/>
      <enumerator name='c_mic_parse_env_var_list2' value='19'/>
      <enumerator name='c_mic_process_exit_ret' value='20'/>
      <enumerator name='c_mic_process_exit_sig' value='21'/>
      <enumerator name='c_mic_process_exit' value='22'/>
      <enumerator name='c_mic_init3' value='23'/>
      <enumerator name='c_mic_init4' value='24'/>
      <enumerator name='c_mic_init5' value='25'/>
      <enumerator name='c_mic_init6' value='26'/>
      <enumerator name='c_no_static_var_data' value='27'/>
      <enumerator name='c_no_ptr_data' value='28'/>
      <enumerator name='c_get_engine_handle' value='29'/>
      <enumerator name='c_get_engine_index' value='30'/>
      <enumerator name='c_process_create' value='31'/>
      <enumerator name='c_process_set_cache_size' value='32'/>
      <enumerator name='c_process_get_func_handles' value='33'/>
      <enumerator name='c_process_wait_shutdown' value='34'/>
      <enumerator name='c_process_proxy_flush' value='35'/>
      <enumerator name='c_load_library' value='36'/>
      <enumerator name='c_pipeline_create' value='37'/>
      <enumerator name='c_pipeline_run_func' value='38'/>
      <enumerator name='c_pipeline_start_run_funcs' value='39'/>
      <enumerator name='c_buf_create' value='40'/>
      <enumerator name='c_buf_create_out_of_mem' value='41'/>
      <enumerator name='c_buf_create_from_mem' value='42'/>
      <enumerator name='c_buf_destroy' value='43'/>
      <enumerator name='c_buf_map' value='44'/>
      <enumerator name='c_buf_unmap' value='45'/>
      <enumerator name='c_buf_read' value='46'/>
      <enumerator name='c_buf_write' value='47'/>
      <enumerator name='c_buf_copy' value='48'/>
      <enumerator name='c_buf_get_address' value='49'/>
      <enumerator name='c_buf_add_ref' value='50'/>
      <enumerator name='c_buf_release_ref' value='51'/>
      <enumerator name='c_buf_set_state' value='52'/>
      <enumerator name='c_event_wait' value='53'/>
      <enumerator name='c_zero_or_neg_ptr_len' value='54'/>
      <enumerator name='c_zero_or_neg_transfer_size' value='55'/>
      <enumerator name='c_bad_ptr_mem_alloc' value='56'/>
      <enumerator name='c_bad_ptr_mem_range' value='57'/>
      <enumerator name='c_different_src_and_dstn_sizes' value='58'/>
      <enumerator name='c_ranges_dont_match' value='59'/>
      <enumerator name='c_destination_is_over' value='60'/>
      <enumerator name='c_slice_of_noncont_array' value='61'/>
      <enumerator name='c_non_contiguous_dope_vector' value='62'/>
      <enumerator name='c_pointer_array_mismatch' value='63'/>
      <enumerator name='c_omp_invalid_device_num_env' value='64'/>
      <enumerator name='c_omp_invalid_device_num' value='65'/>
      <enumerator name='c_unknown_binary_type' value='66'/>
      <enumerator name='c_multiple_target_exes' value='67'/>
      <enumerator name='c_no_target_exe' value='68'/>
      <enumerator name='c_incorrect_affinity' value='69'/>
      <enumerator name='c_cannot_set_affinity' value='70'/>
      <enumerator name='c_report_host' value='71'/>
      <enumerator name='c_report_target' value='72'/>
      <enumerator name='c_report_title' value='73'/>
      <enumerator name='c_report_from_file' value='74'/>
      <enumerator name='c_report_file' value='75'/>
      <enumerator name='c_report_line' value='76'/>
      <enumerator name='c_report_tag' value='77'/>
      <enumerator name='c_report_seconds' value='78'/>
      <enumerator name='c_report_bytes' value='79'/>
      <enumerator name='c_report_mic' value='80'/>
      <enumerator name='c_report_cpu_time' value='81'/>
      <enumerator name='c_report_cpu_to_mic_data' value='82'/>
      <enumerator name='c_report_mic_time' value='83'/>
      <enumerator name='c_report_mic_to_cpu_data' value='84'/>
      <enumerator name='c_report_unknown_timer_node' value='85'/>
      <enumerator name='c_report_unknown_trace_node' value='86'/>
      <enumerator name='c_report_offload' value='87'/>
      <enumerator name='c_report_w_tag' value='88'/>
      <enumerator name='c_report_state' value='89'/>
      <enumerator name='c_report_start' value='90'/>
      <enumerator name='c_report_init' value='91'/>
      <enumerator name='c_report_logical_card' value='92'/>
      <enumerator name='c_report_physical_card' value='93'/>
      <enumerator name='c_report_register' value='94'/>
      <enumerator name='c_report_init_func' value='95'/>
      <enumerator name='c_report_create_buf_host' value='96'/>
      <enumerator name='c_report_create_buf_mic' value='97'/>
      <enumerator name='c_report_send_pointer_data' value='98'/>
      <enumerator name='c_report_sent_pointer_data' value='99'/>
      <enumerator name='c_report_gather_copyin_data' value='100'/>
      <enumerator name='c_report_copyin_data' value='101'/>
      <enumerator name='c_report_state_signal' value='102'/>
      <enumerator name='c_report_signal' value='103'/>
      <enumerator name='c_report_wait' value='104'/>
      <enumerator name='c_report_compute' value='105'/>
      <enumerator name='c_report_receive_pointer_data' value='106'/>
      <enumerator name='c_report_received_pointer_data' value='107'/>
      <enumerator name='c_report_start_target_func' value='108'/>
      <enumerator name='c_report_var' value='109'/>
      <enumerator name='c_report_scatter_copyin_data' value='110'/>
      <enumerator name='c_report_gather_copyout_data' value='111'/>
      <enumerator name='c_report_scatter_copyout_data' value='112'/>
      <enumerator name='c_report_copyout_data' value='113'/>
      <enumerator name='c_report_unregister' value='114'/>
      <enumerator name='c_report_destroy' value='115'/>
      <enumerator name='c_report_myoinit' value='116'/>
      <enumerator name='c_report_myoregister' value='117'/>
      <enumerator name='c_report_myofini' value='118'/>
      <enumerator name='c_report_mic_myo_shared' value='119'/>
      <enumerator name='c_report_mic_myo_fptr' value='120'/>
      <enumerator name='c_report_myosharedmalloc' value='121'/>
      <enumerator name='c_report_myosharedfree' value='122'/>
      <enumerator name='c_report_myosharedalignedmalloc' value='123'/>
      <enumerator name='c_report_myosharedalignedfree' value='124'/>
      <enumerator name='c_report_myoacquire' value='125'/>
      <enumerator name='c_report_myorelease' value='126'/>
      <enumerator name='c_report_myosupportsfeature' value='127'/>
      <enumerator name='c_report_myosharedarenacreate' value='128'/>
      <enumerator name='c_report_myosharedalignedarenamalloc' value='129'/>
      <enumerator name='c_report_myosharedalignedarenafree' value='130'/>
      <enumerator name='c_report_myoarenaacquire' value='131'/>
      <enumerator name='c_report_myoarenarelease' value='132'/>
      <enumerator name='c_coipipe_max_number' value='133'/>
      <enumerator name='c_in_with_preallocated' value='134'/>
      <enumerator name='c_report_no_host_exe' value='135'/>
      <enumerator name='c_report_path_buff_overflow' value='136'/>
      <enumerator name='c_create_pipeline_for_stream' value='137'/>
      <enumerator name='c_offload_no_stream' value='138'/>
      <enumerator name='c_get_engine_info' value='139'/>
      <enumerator name='c_clear_cpu_mask' value='140'/>
      <enumerator name='c_set_cpu_mask' value='141'/>
      <enumerator name='c_report_state_stream' value='142'/>
      <enumerator name='c_report_stream' value='143'/>
      <enumerator name='c_unload_library' value='144'/>
    </enum-decl>
    <typedef-decl name='TARGET_TYPE' type-id='type-id-251' filepath='../../../gcc/liboffloadmic/runtime/offload.h' line='65' column='1' id='type-id-252'/>
    <enum-decl name='TARGET_TYPE' filepath='../../../gcc/liboffloadmic/runtime/offload.h' line='61' column='1' id='type-id-251'>
      <underlying-type type-id='type-id-14'/>
      <enumerator name='TARGET_NONE' value='0'/>
      <enumerator name='TARGET_HOST' value='1'/>
      <enumerator name='TARGET_MIC' value='2'/>
    </enum-decl>
    <class-decl name='OffloadDescriptor' size-in-bits='2368' is-struct='yes' visibility='default' filepath='../../../gcc/liboffloadmic/runtime/offload_host.h' line='68' column='1' id='type-id-253'>
      <member-type access='public'>
        <enum-decl name='OmpAsyncLastEventType' filepath='../../../gcc/liboffloadmic/runtime/offload_host.h' line='71' column='1' id='type-id-254'>
          <underlying-type type-id='type-id-14'/>
          <enumerator name='c_last_not' value='0'/>
          <enumerator name='c_last_write' value='1'/>
          <enumerator name='c_last_read' value='2'/>
          <enumerator name='c_last_runfunc' value='3'/>
        </enum-decl>
      </member-type>
      <member-type access='private'>
        <class-decl name='VarExtra' size-in-bits='640' is-struct='yes' visibility='default' filepath='../../../gcc/liboffloadmic/runtime/offload_host.h' line='216' column='1' id='type-id-255'>
          <data-member access='public' layout-offset-in-bits='0'>
            <var-decl name='src_data' type-id='type-id-205' visibility='default' filepath='../../../gcc/liboffloadmic/runtime/offload_host.h' line='217' column='1'/>
          </data-member>
          <data-member access='public' layout-offset-in-bits='64'>
            <var-decl name='dst_data' type-id='type-id-205' visibility='default' filepath='../../../gcc/liboffloadmic/runtime/offload_host.h' line='218' column='1'/>
          </data-member>
          <data-member access='public' layout-offset-in-bits='128'>
            <var-decl name='auto_data' type-id='type-id-207' visibility='default' filepath='../../../gcc/liboffloadmic/runtime/offload_host.h' line='219' column='1'/>
          </data-member>
          <data-member access='public' layout-offset-in-bits='192'>
            <var-decl name='cpu_disp' type-id='type-id-227' visibility='default' filepath='../../../gcc/liboffloadmic/runtime/offload_host.h' line='220' column='1'/>
          </data-member>
          <data-member access='public' layout-offset-in-bits='256'>
            <var-decl name='cpu_offset' type-id='type-id-227' visibility='default' filepath='../../../gcc/liboffloadmic/runtime/offload_host.h' line='221' column='1'/>
          </data-member>
          <data-member access='public' layout-offset-in-bits='320'>
            <var-decl name='alloc' type-id='type-id-150' visibility='default' filepath='../../../gcc/liboffloadmic/runtime/offload_host.h' line='222' column='1'/>
          </data-member>
          <data-member access='public' layout-offset-in-bits='384'>
            <var-decl name='read_rng_src' type-id='type-id-256' visibility='default' filepath='../../../gcc/liboffloadmic/runtime/offload_host.h' line='223' column='1'/>
          </data-member>
          <data-member access='public' layout-offset-in-bits='448'>
            <var-decl name='read_rng_dst' type-id='type-id-256' visibility='default' filepath='../../../gcc/liboffloadmic/runtime/offload_host.h' line='224' column='1'/>
          </data-member>
          <data-member access='public' layout-offset-in-bits='512'>
            <var-decl name='ptr_arr_offset' type-id='type-id-227' visibility='default' filepath='../../../gcc/liboffloadmic/runtime/offload_host.h' line='225' column='1'/>
          </data-member>
          <data-member access='public' layout-offset-in-bits='576'>
            <var-decl name='is_arr_ptr_el' type-id='type-id-149' visibility='default' filepath='../../../gcc/liboffloadmic/runtime/offload_host.h' line='226' column='1'/>
          </data-member>
          <data-member access='public' layout-offset-in-bits='608'>
            <var-decl name='omp_last_event_type' type-id='type-id-254' visibility='default' filepath='../../../gcc/liboffloadmic/runtime/offload_host.h' line='227' column='1'/>
          </data-member>
        </class-decl>
      </member-type>
      <member-type access='private'>
        <typedef-decl name='BufferList' type-id='type-id-258' filepath='../../../gcc/liboffloadmic/runtime/offload_host.h' line='213' column='1' id='type-id-257'/>
      </member-type>
      <member-type access='private'>
        <class-decl name='ReadArrElements&lt;void*&gt;' size-in-bits='512' visibility='default' filepath='../../../gcc/liboffloadmic/runtime/offload_host.h' line='230' column='1' id='type-id-259'>
          <data-member access='private' layout-offset-in-bits='0'>
            <var-decl name='ranges' type-id='type-id-256' visibility='default' filepath='../../../gcc/liboffloadmic/runtime/offload_host.h' line='269' column='1'/>
          </data-member>
          <data-member access='private' layout-offset-in-bits='64'>
            <var-decl name='val' type-id='type-id-150' visibility='default' filepath='../../../gcc/liboffloadmic/runtime/offload_host.h' line='270' column='1'/>
          </data-member>
          <data-member access='private' layout-offset-in-bits='128'>
            <var-decl name='el_size' type-id='type-id-25' visibility='default' filepath='../../../gcc/liboffloadmic/runtime/offload_host.h' line='271' column='1'/>
          </data-member>
          <data-member access='private' layout-offset-in-bits='192'>
            <var-decl name='size' type-id='type-id-227' visibility='default' filepath='../../../gcc/liboffloadmic/runtime/offload_host.h' line='272' column='1'/>
          </data-member>
          <data-member access='private' layout-offset-in-bits='256'>
            <var-decl name='offset' type-id='type-id-227' visibility='default' filepath='../../../gcc/liboffloadmic/runtime/offload_host.h' line='273' column='1'/>
          </data-member>
          <data-member access='private' layout-offset-in-bits='320'>
            <var-decl name='length_cur' type-id='type-id-227' visibility='default' filepath='../../../gcc/liboffloadmic/runtime/offload_host.h' line='274' column='1'/>
          </data-member>
          <data-member access='private' layout-offset-in-bits='384'>
            <var-decl name='is_empty' type-id='type-id-149' visibility='default' filepath='../../../gcc/liboffloadmic/runtime/offload_host.h' line='275' column='1'/>
          </data-member>
          <data-member access='private' layout-offset-in-bits='416'>
            <var-decl name='count' type-id='type-id-25' visibility='default' filepath='../../../gcc/liboffloadmic/runtime/offload_host.h' line='276' column='1'/>
          </data-member>
          <data-member access='private' layout-offset-in-bits='448'>
            <var-decl name='base' type-id='type-id-214' visibility='default' filepath='../../../gcc/liboffloadmic/runtime/offload_host.h' line='277' column='1'/>
          </data-member>
          <member-function access='private'>
            <function-decl name='read_next' mangled-name='_ZN17OffloadDescriptor15ReadArrElementsIPvE9read_nextEb' filepath='../../../gcc/liboffloadmic/runtime/offload_host.h' line='241' column='1' visibility='default' binding='global' size-in-bits='64' elf-symbol-id='_ZN17OffloadDescriptor15ReadArrElementsIPvE9read_nextEb'>
              <parameter type-id='type-id-260' name='this' is-artificial='yes'/>
              <parameter type-id='type-id-149' name='flag' filepath='../../../gcc/liboffloadmic/runtime/offload_host.h' line='241' column='1'/>
              <return type-id='type-id-149'/>
            </function-decl>
          </member-function>
          <member-function access='private'>
            <function-decl name='ReadArrElements' mangled-name='_ZN17OffloadDescriptor15ReadArrElementsIPvEC2Ev' filepath='../../../gcc/liboffloadmic/runtime/offload_host.h' line='232' column='1' visibility='default' binding='global' size-in-bits='64' elf-symbol-id='_ZN17OffloadDescriptor15ReadArrElementsIPvEC2Ev'>
              <parameter type-id='type-id-260' name='this' is-artificial='yes'/>
              <return type-id='type-id-154'/>
            </function-decl>
          </member-function>
        </class-decl>
      </member-type>
      <member-type access='private'>
        <class-decl name='ReadArrElements&lt;long int&gt;' size-in-bits='512' visibility='default' filepath='../../../gcc/liboffloadmic/runtime/offload_host.h' line='230' column='1' id='type-id-261'>
          <data-member access='private' layout-offset-in-bits='0'>
            <var-decl name='ranges' type-id='type-id-256' visibility='default' filepath='../../../gcc/liboffloadmic/runtime/offload_host.h' line='269' column='1'/>
          </data-member>
          <data-member access='private' layout-offset-in-bits='64'>
            <var-decl name='val' type-id='type-id-191' visibility='default' filepath='../../../gcc/liboffloadmic/runtime/offload_host.h' line='270' column='1'/>
          </data-member>
          <data-member access='private' layout-offset-in-bits='128'>
            <var-decl name='el_size' type-id='type-id-25' visibility='default' filepath='../../../gcc/liboffloadmic/runtime/offload_host.h' line='271' column='1'/>
          </data-member>
          <data-member access='private' layout-offset-in-bits='192'>
            <var-decl name='size' type-id='type-id-227' visibility='default' filepath='../../../gcc/liboffloadmic/runtime/offload_host.h' line='272' column='1'/>
          </data-member>
          <data-member access='private' layout-offset-in-bits='256'>
            <var-decl name='offset' type-id='type-id-227' visibility='default' filepath='../../../gcc/liboffloadmic/runtime/offload_host.h' line='273' column='1'/>
          </data-member>
          <data-member access='private' layout-offset-in-bits='320'>
            <var-decl name='length_cur' type-id='type-id-227' visibility='default' filepath='../../../gcc/liboffloadmic/runtime/offload_host.h' line='274' column='1'/>
          </data-member>
          <data-member access='private' layout-offset-in-bits='384'>
            <var-decl name='is_empty' type-id='type-id-149' visibility='default' filepath='../../../gcc/liboffloadmic/runtime/offload_host.h' line='275' column='1'/>
          </data-member>
          <data-member access='private' layout-offset-in-bits='416'>
            <var-decl name='count' type-id='type-id-25' visibility='default' filepath='../../../gcc/liboffloadmic/runtime/offload_host.h' line='276' column='1'/>
          </data-member>
          <data-member access='private' layout-offset-in-bits='448'>
            <var-decl name='base' type-id='type-id-214' visibility='default' filepath='../../../gcc/liboffloadmic/runtime/offload_host.h' line='277' column='1'/>
          </data-member>
          <member-function access='private'>
            <function-decl name='read_next' mangled-name='_ZN17OffloadDescriptor15ReadArrElementsIlE9read_nextEb' filepath='../../../gcc/liboffloadmic/runtime/offload_host.h' line='241' column='1' visibility='default' binding='global' size-in-bits='64' elf-symbol-id='_ZN17OffloadDescriptor15ReadArrElementsIlE9read_nextEb'>
              <parameter type-id='type-id-262' name='this' is-artificial='yes'/>
              <parameter type-id='type-id-149' name='flag' filepath='../../../gcc/liboffloadmic/runtime/offload_host.h' line='241' column='1'/>
              <return type-id='type-id-149'/>
            </function-decl>
          </member-function>
          <member-function access='private'>
            <function-decl name='ReadArrElements' mangled-name='_ZN17OffloadDescriptor15ReadArrElementsIlEC2Ev' filepath='../../../gcc/liboffloadmic/runtime/offload_host.h' line='232' column='1' visibility='default' binding='global' size-in-bits='64' elf-symbol-id='_ZN17OffloadDescriptor15ReadArrElementsIlEC2Ev'>
              <parameter type-id='type-id-262' name='this' is-artificial='yes'/>
              <return type-id='type-id-154'/>
            </function-decl>
          </member-function>
        </class-decl>
      </member-type>
      <data-member access='private' layout-offset-in-bits='0'>
        <var-decl name='m_stack_ptr_data' type-id='type-id-205' visibility='default' filepath='../../../gcc/liboffloadmic/runtime/offload_host.h' line='281' column='1'/>
      </data-member>
      <data-member access='private' layout-offset-in-bits='64'>
        <var-decl name='m_destroy_stack' type-id='type-id-229' visibility='default' filepath='../../../gcc/liboffloadmic/runtime/offload_host.h' line='282' column='1'/>
      </data-member>
      <data-member access='private' layout-offset-in-bits='256'>
        <var-decl name='m_device' type-id='type-id-263' visibility='default' filepath='../../../gcc/liboffloadmic/runtime/offload_host.h' line='285' column='1'/>
      </data-member>
      <data-member access='private' layout-offset-in-bits='320'>
        <var-decl name='m_wait_all_devices' type-id='type-id-149' visibility='default' filepath='../../../gcc/liboffloadmic/runtime/offload_host.h' line='288' column='1'/>
      </data-member>
      <data-member access='private' layout-offset-in-bits='328'>
        <var-decl name='m_is_mandatory' type-id='type-id-149' visibility='default' filepath='../../../gcc/liboffloadmic/runtime/offload_host.h' line='291' column='1'/>
      </data-member>
      <data-member access='private' layout-offset-in-bits='336'>
        <var-decl name='m_is_openmp' type-id='type-id-264' visibility='default' filepath='../../../gcc/liboffloadmic/runtime/offload_host.h' line='294' column='1'/>
      </data-member>
      <data-member access='private' layout-offset-in-bits='384'>
        <var-decl name='m_in' type-id='type-id-265' visibility='default' filepath='../../../gcc/liboffloadmic/runtime/offload_host.h' line='297' column='1'/>
      </data-member>
      <data-member access='private' layout-offset-in-bits='640'>
        <var-decl name='m_out' type-id='type-id-265' visibility='default' filepath='../../../gcc/liboffloadmic/runtime/offload_host.h' line='300' column='1'/>
      </data-member>
      <data-member access='private' layout-offset-in-bits='896'>
        <var-decl name='m_compute_buffers' type-id='type-id-257' visibility='default' filepath='../../../gcc/liboffloadmic/runtime/offload_host.h' line='303' column='1'/>
      </data-member>
      <data-member access='private' layout-offset-in-bits='1088'>
        <var-decl name='m_destroy_buffers' type-id='type-id-257' visibility='default' filepath='../../../gcc/liboffloadmic/runtime/offload_host.h' line='306' column='1'/>
      </data-member>
      <data-member access='private' layout-offset-in-bits='1280'>
        <var-decl name='m_vars' type-id='type-id-266' visibility='default' filepath='../../../gcc/liboffloadmic/runtime/offload_host.h' line='309' column='1'/>
      </data-member>
      <data-member access='private' layout-offset-in-bits='1344'>
        <var-decl name='m_vars_extra' type-id='type-id-267' visibility='default' filepath='../../../gcc/liboffloadmic/runtime/offload_host.h' line='310' column='1'/>
      </data-member>
      <data-member access='private' layout-offset-in-bits='1408'>
        <var-decl name='m_vars_total' type-id='type-id-25' visibility='default' filepath='../../../gcc/liboffloadmic/runtime/offload_host.h' line='311' column='1'/>
      </data-member>
      <data-member access='private' layout-offset-in-bits='1472'>
        <var-decl name='m_status' type-id='type-id-268' visibility='default' filepath='../../../gcc/liboffloadmic/runtime/offload_host.h' line='314' column='1'/>
      </data-member>
      <data-member access='private' layout-offset-in-bits='1536'>
        <var-decl name='m_func_desc' type-id='type-id-269' visibility='default' filepath='../../../gcc/liboffloadmic/runtime/offload_host.h' line='317' column='1'/>
      </data-member>
      <data-member access='private' layout-offset-in-bits='1600'>
        <var-decl name='m_func_desc_size' type-id='type-id-17' visibility='default' filepath='../../../gcc/liboffloadmic/runtime/offload_host.h' line='318' column='1'/>
      </data-member>
      <data-member access='private' layout-offset-in-bits='1664'>
        <var-decl name='m_inout_buf' type-id='type-id-36' visibility='default' filepath='../../../gcc/liboffloadmic/runtime/offload_host.h' line='321' column='1'/>
      </data-member>
      <data-member access='private' layout-offset-in-bits='1728'>
        <var-decl name='m_in_deps' type-id='type-id-60' visibility='default' filepath='../../../gcc/liboffloadmic/runtime/offload_host.h' line='324' column='1'/>
      </data-member>
      <data-member access='private' layout-offset-in-bits='1792'>
        <var-decl name='m_in_deps_total' type-id='type-id-17' visibility='default' filepath='../../../gcc/liboffloadmic/runtime/offload_host.h' line='325' column='1'/>
      </data-member>
      <data-member access='private' layout-offset-in-bits='1824'>
        <var-decl name='m_in_deps_allocated' type-id='type-id-17' visibility='default' filepath='../../../gcc/liboffloadmic/runtime/offload_host.h' line='326' column='1'/>
      </data-member>
      <data-member access='private' layout-offset-in-bits='1856'>
        <var-decl name='m_out_deps' type-id='type-id-60' visibility='default' filepath='../../../gcc/liboffloadmic/runtime/offload_host.h' line='327' column='1'/>
      </data-member>
      <data-member access='private' layout-offset-in-bits='1920'>
        <var-decl name='m_out_deps_total' type-id='type-id-17' visibility='default' filepath='../../../gcc/liboffloadmic/runtime/offload_host.h' line='328' column='1'/>
      </data-member>
      <data-member access='private' layout-offset-in-bits='1952'>
        <var-decl name='m_out_deps_allocated' type-id='type-id-17' visibility='default' filepath='../../../gcc/liboffloadmic/runtime/offload_host.h' line='329' column='1'/>
      </data-member>
      <data-member access='private' layout-offset-in-bits='1984'>
        <var-decl name='m_stream' type-id='type-id-201' visibility='default' filepath='../../../gcc/liboffloadmic/runtime/offload_host.h' line='332' column='1'/>
      </data-member>
      <data-member access='private' layout-offset-in-bits='2048'>
        <var-decl name='m_timer_data' type-id='type-id-270' visibility='default' filepath='../../../gcc/liboffloadmic/runtime/offload_host.h' line='335' column='1'/>
      </data-member>
      <data-member access='private' layout-offset-in-bits='2112'>
        <var-decl name='m_in_datalen' type-id='type-id-56' visibility='default' filepath='../../../gcc/liboffloadmic/runtime/offload_host.h' line='338' column='1'/>
      </data-member>
      <data-member access='private' layout-offset-in-bits='2176'>
        <var-decl name='m_out_datalen' type-id='type-id-56' visibility='default' filepath='../../../gcc/liboffloadmic/runtime/offload_host.h' line='339' column='1'/>
      </data-member>
      <data-member access='private' layout-offset-in-bits='2240'>
        <var-decl name='m_need_runfunction' type-id='type-id-149' visibility='default' filepath='../../../gcc/liboffloadmic/runtime/offload_host.h' line='343' column='1'/>
      </data-member>
      <data-member access='private' layout-offset-in-bits='2248'>
        <var-decl name='m_initial_need_runfunction' type-id='type-id-149' visibility='default' filepath='../../../gcc/liboffloadmic/runtime/offload_host.h' line='347' column='1'/>
      </data-member>
      <data-member access='private' layout-offset-in-bits='2256'>
        <var-decl name='m_out_with_preallocated' type-id='type-id-149' visibility='default' filepath='../../../gcc/liboffloadmic/runtime/offload_host.h' line='352' column='1'/>
      </data-member>
      <data-member access='private' layout-offset-in-bits='2264'>
        <var-decl name='m_preallocated_alloc' type-id='type-id-149' visibility='default' filepath='../../../gcc/liboffloadmic/runtime/offload_host.h' line='357' column='1'/>
      </data-member>
      <data-member access='private' layout-offset-in-bits='2272'>
        <var-decl name='m_traceback_called' type-id='type-id-149' visibility='default' filepath='../../../gcc/liboffloadmic/runtime/offload_host.h' line='360' column='1'/>
      </data-member>
      <data-member access='private' layout-offset-in-bits='2304'>
        <var-decl name='m_omp_async_last_event_type' type-id='type-id-254' visibility='default' filepath='../../../gcc/liboffloadmic/runtime/offload_host.h' line='362' column='1'/>
      </data-member>
      <member-function access='public'>
        <function-decl name='get_stream' mangled-name='_ZN17OffloadDescriptor10get_streamEv' filepath='../../../gcc/liboffloadmic/runtime/offload_host.h' line='145' column='1' visibility='default' binding='global' size-in-bits='64' elf-symbol-id='_ZN17OffloadDescriptor10get_streamEv'>
          <parameter type-id='type-id-271' name='this' is-artificial='yes'/>
          <return type-id='type-id-201'/>
        </function-decl>
      </member-function>
      <member-function access='public'>
        <function-decl name='set_stream' mangled-name='_ZN17OffloadDescriptor10set_streamEm' filepath='../../../gcc/liboffloadmic/runtime/offload_host.h' line='141' column='1' visibility='default' binding='global' size-in-bits='64' elf-symbol-id='_ZN17OffloadDescriptor10set_streamEm'>
          <parameter type-id='type-id-271' name='this' is-artificial='yes'/>
          <parameter type-id='type-id-201' name='stream' filepath='../../../gcc/liboffloadmic/runtime/offload_host.h' line='141' column='1'/>
          <return type-id='type-id-154'/>
        </function-decl>
      </member-function>
      <member-function access='public' destructor='yes'>
        <function-decl name='~OffloadDescriptor' mangled-name='_ZN17OffloadDescriptorD2Ev' filepath='../../../gcc/liboffloadmic/runtime/offload_host.h' line='110' column='1' visibility='default' binding='global' size-in-bits='64' elf-symbol-id='_ZN17OffloadDescriptorD2Ev'>
          <parameter type-id='type-id-271' name='this' is-artificial='yes'/>
          <return type-id='type-id-154'/>
        </function-decl>
      </member-function>
      <member-function access='public' constructor='yes'>
        <function-decl name='OffloadDescriptor' mangled-name='_ZN17OffloadDescriptorC2EiP15_Offload_statusbbP20OffloadHostTimerData' filepath='../../../gcc/liboffloadmic/runtime/offload_host.h' line='78' column='1' visibility='default' binding='global' size-in-bits='64' elf-symbol-id='_ZN17OffloadDescriptorC2EiP15_Offload_statusbbP20OffloadHostTimerData'>
          <parameter type-id='type-id-271' name='this' is-artificial='yes'/>
          <parameter type-id='type-id-25' name='index' filepath='../../../gcc/liboffloadmic/runtime/offload_host.h' line='79' column='1'/>
          <parameter type-id='type-id-268' name='status' filepath='../../../gcc/liboffloadmic/runtime/offload_host.h' line='80' column='1'/>
          <parameter type-id='type-id-149' name='is_mandatory' filepath='../../../gcc/liboffloadmic/runtime/offload_host.h' line='81' column='1'/>
          <parameter type-id='type-id-149' name='is_openmp' filepath='../../../gcc/liboffloadmic/runtime/offload_host.h' line='82' column='1'/>
          <parameter type-id='type-id-270' name='timer_data' filepath='../../../gcc/liboffloadmic/runtime/offload_host.h' line='83' column='1'/>
          <return type-id='type-id-154'/>
        </function-decl>
      </member-function>
      <member-function access='private'>
        <function-decl name='get_stream_in_dependencies' mangled-name='_ZN17OffloadDescriptor26get_stream_in_dependenciesERjRP8coievent' filepath='../../../gcc/liboffloadmic/runtime/offload_host.cpp' line='5057' column='1' visibility='default' binding='global' size-in-bits='64' elf-symbol-id='_ZN17OffloadDescriptor26get_stream_in_dependenciesERjRP8coievent'>
          <parameter type-id='type-id-271' name='this' is-artificial='yes'/>
          <parameter type-id='type-id-272' name='in_deps_amount' filepath='../../../gcc/liboffloadmic/runtime/offload_host.cpp' line='5058' column='1'/>
          <parameter type-id='type-id-273' name='in_deps' filepath='../../../gcc/liboffloadmic/runtime/offload_host.cpp' line='5059' column='1'/>
          <return type-id='type-id-154'/>
        </function-decl>
      </member-function>
      <member-function access='private'>
        <function-decl name='gen_var_descs_for_pointer_array' mangled-name='_ZN17OffloadDescriptor31gen_var_descs_for_pointer_arrayEi' filepath='../../../gcc/liboffloadmic/runtime/offload_host.cpp' line='4646' column='1' visibility='default' binding='global' size-in-bits='64' elf-symbol-id='_ZN17OffloadDescriptor31gen_var_descs_for_pointer_arrayEi'>
          <parameter type-id='type-id-271' name='this' is-artificial='yes'/>
          <parameter type-id='type-id-25' name='i' filepath='../../../gcc/liboffloadmic/runtime/offload_host.cpp' line='4646' column='1'/>
          <return type-id='type-id-149'/>
        </function-decl>
      </member-function>
      <member-function access='private'>
        <function-decl name='scatter_copyout_data' mangled-name='_ZN17OffloadDescriptor20scatter_copyout_dataEv' filepath='../../../gcc/liboffloadmic/runtime/offload_host.cpp' line='4468' column='1' visibility='default' binding='global' size-in-bits='64' elf-symbol-id='_ZN17OffloadDescriptor20scatter_copyout_dataEv'>
          <parameter type-id='type-id-271' name='this' is-artificial='yes'/>
          <return type-id='type-id-149'/>
        </function-decl>
      </member-function>
      <member-function access='private'>
        <function-decl name='receive_pointer_data' mangled-name='_ZN17OffloadDescriptor20receive_pointer_dataEbbPv' filepath='../../../gcc/liboffloadmic/runtime/offload_host.cpp' line='4059' column='1' visibility='default' binding='global' size-in-bits='64' elf-symbol-id='_ZN17OffloadDescriptor20receive_pointer_dataEbbPv'>
          <parameter type-id='type-id-271' name='this' is-artificial='yes'/>
          <parameter type-id='type-id-149' name='is_async' filepath='../../../gcc/liboffloadmic/runtime/offload_host.cpp' line='4059' column='1'/>
          <parameter type-id='type-id-149' name='first_run' filepath='../../../gcc/liboffloadmic/runtime/offload_host.cpp' line='4060' column='1'/>
          <parameter type-id='type-id-150' name='info' filepath='../../../gcc/liboffloadmic/runtime/offload_host.cpp' line='4060' column='1'/>
          <return type-id='type-id-149'/>
        </function-decl>
      </member-function>
      <member-function access='private'>
        <function-decl name='receive_noncontiguous_pointer_data' mangled-name='_ZN17OffloadDescriptor34receive_noncontiguous_pointer_dataEiP9coibufferP8coieventRmjS3_' filepath='../../../gcc/liboffloadmic/runtime/offload_host.cpp' line='3850' column='1' visibility='default' binding='global' size-in-bits='64' elf-symbol-id='_ZN17OffloadDescriptor34receive_noncontiguous_pointer_dataEiP9coibufferP8coieventRmjS3_'>
          <parameter type-id='type-id-271' name='this' is-artificial='yes'/>
          <parameter type-id='type-id-25' name='i' filepath='../../../gcc/liboffloadmic/runtime/offload_host.cpp' line='3851' column='1'/>
          <parameter type-id='type-id-36' name='dst_buf' filepath='../../../gcc/liboffloadmic/runtime/offload_host.cpp' line='3852' column='1'/>
          <parameter type-id='type-id-60' name='event' filepath='../../../gcc/liboffloadmic/runtime/offload_host.cpp' line='3853' column='1'/>
          <parameter type-id='type-id-274' name='received_data' filepath='../../../gcc/liboffloadmic/runtime/offload_host.cpp' line='3854' column='1'/>
          <parameter type-id='type-id-17' name='in_deps_amount' filepath='../../../gcc/liboffloadmic/runtime/offload_host.cpp' line='3855' column='1'/>
          <parameter type-id='type-id-60' name='in_deps' filepath='../../../gcc/liboffloadmic/runtime/offload_host.cpp' line='3856' column='1'/>
          <return type-id='type-id-149'/>
        </function-decl>
      </member-function>
      <member-function access='private'>
        <function-decl name='compute' mangled-name='_ZN17OffloadDescriptor7computeEPv' filepath='../../../gcc/liboffloadmic/runtime/offload_host.cpp' line='3788' column='1' visibility='default' binding='global' size-in-bits='64' elf-symbol-id='_ZN17OffloadDescriptor7computeEPv'>
          <parameter type-id='type-id-271' name='this' is-artificial='yes'/>
          <parameter type-id='type-id-150' name='info' filepath='../../../gcc/liboffloadmic/runtime/offload_host.cpp' line='3788' column='1'/>
          <return type-id='type-id-149'/>
        </function-decl>
      </member-function>
      <member-function access='private'>
        <function-decl name='gather_copyin_data' mangled-name='_ZN17OffloadDescriptor18gather_copyin_dataEv' filepath='../../../gcc/liboffloadmic/runtime/offload_host.cpp' line='3642' column='1' visibility='default' binding='global' size-in-bits='64' elf-symbol-id='_ZN17OffloadDescriptor18gather_copyin_dataEv'>
          <parameter type-id='type-id-271' name='this' is-artificial='yes'/>
          <return type-id='type-id-149'/>
        </function-decl>
      </member-function>
      <member-function access='private'>
        <function-decl name='send_pointer_data' mangled-name='_ZN17OffloadDescriptor17send_pointer_dataEbPv' filepath='../../../gcc/liboffloadmic/runtime/offload_host.cpp' line='3259' column='1' visibility='default' binding='global' size-in-bits='64' elf-symbol-id='_ZN17OffloadDescriptor17send_pointer_dataEbPv'>
          <parameter type-id='type-id-271' name='this' is-artificial='yes'/>
          <parameter type-id='type-id-149' name='is_async' filepath='../../../gcc/liboffloadmic/runtime/offload_host.cpp' line='3259' column='1'/>
          <parameter type-id='type-id-150' name='info' filepath='../../../gcc/liboffloadmic/runtime/offload_host.cpp' line='3259' column='1'/>
          <return type-id='type-id-149'/>
        </function-decl>
      </member-function>
      <member-function access='private'>
        <function-decl name='send_noncontiguous_pointer_data' mangled-name='_ZN17OffloadDescriptor31send_noncontiguous_pointer_dataEiP7PtrDataS1_P8coieventRmjS3_' filepath='../../../gcc/liboffloadmic/runtime/offload_host.cpp' line='3041' column='1' visibility='default' binding='global' size-in-bits='64' elf-symbol-id='_ZN17OffloadDescriptor31send_noncontiguous_pointer_dataEiP7PtrDataS1_P8coieventRmjS3_'>
          <parameter type-id='type-id-271' name='this' is-artificial='yes'/>
          <parameter type-id='type-id-25' name='i' filepath='../../../gcc/liboffloadmic/runtime/offload_host.cpp' line='3042' column='1'/>
          <parameter type-id='type-id-205' name='src_data' filepath='../../../gcc/liboffloadmic/runtime/offload_host.cpp' line='3043' column='1'/>
          <parameter type-id='type-id-205' name='dst_data' filepath='../../../gcc/liboffloadmic/runtime/offload_host.cpp' line='3044' column='1'/>
          <parameter type-id='type-id-60' name='event' filepath='../../../gcc/liboffloadmic/runtime/offload_host.cpp' line='3045' column='1'/>
          <parameter type-id='type-id-274' name='data_sent' filepath='../../../gcc/liboffloadmic/runtime/offload_host.cpp' line='3046' column='1'/>
          <parameter type-id='type-id-17' name='in_deps_amount' filepath='../../../gcc/liboffloadmic/runtime/offload_host.cpp' line='3047' column='1'/>
          <parameter type-id='type-id-60' name='in_deps' filepath='../../../gcc/liboffloadmic/runtime/offload_host.cpp' line='3048' column='1'/>
          <return type-id='type-id-149'/>
        </function-decl>
      </member-function>
      <member-function access='public'>
        <function-decl name='is_signaled' mangled-name='_ZN17OffloadDescriptor11is_signaledEv' filepath='../../../gcc/liboffloadmic/runtime/offload_host.cpp' line='2999' column='1' visibility='default' binding='global' size-in-bits='64' elf-symbol-id='_ZN17OffloadDescriptor11is_signaledEv'>
          <parameter type-id='type-id-271' name='this' is-artificial='yes'/>
          <return type-id='type-id-149'/>
        </function-decl>
      </member-function>
      <member-function access='private'>
        <function-decl name='cleanup' mangled-name='_ZN17OffloadDescriptor7cleanupEv' filepath='../../../gcc/liboffloadmic/runtime/offload_host.cpp' line='2988' column='1' visibility='default' binding='global' size-in-bits='64' elf-symbol-id='_ZN17OffloadDescriptor7cleanupEv'>
          <parameter type-id='type-id-271' name='this' is-artificial='yes'/>
          <return type-id='type-id-154'/>
        </function-decl>
      </member-function>
      <member-function access='public'>
        <function-decl name='offload_finish' mangled-name='_ZN17OffloadDescriptor14offload_finishEb' filepath='../../../gcc/liboffloadmic/runtime/offload_host.cpp' line='2889' column='1' visibility='default' binding='global' size-in-bits='64' elf-symbol-id='_ZN17OffloadDescriptor14offload_finishEb'>
          <parameter type-id='type-id-271' name='this' is-artificial='yes'/>
          <parameter type-id='type-id-149' name='is_traceback' filepath='../../../gcc/liboffloadmic/runtime/offload_host.cpp' line='2890' column='1'/>
          <return type-id='type-id-149'/>
        </function-decl>
      </member-function>
      <member-function access='public'>
        <function-decl name='offload' mangled-name='_ZN17OffloadDescriptor7offloadEPKcbP7VarDescP8VarDesc2iPPKviS8_iS7_12OffloadFlags' filepath='../../../gcc/liboffloadmic/runtime/offload_host.cpp' line='2860' column='1' visibility='default' binding='global' size-in-bits='64' elf-symbol-id='_ZN17OffloadDescriptor7offloadEPKcbP7VarDescP8VarDesc2iPPKviS8_iS7_12OffloadFlags'>
          <parameter type-id='type-id-271' name='this' is-artificial='yes'/>
          <parameter type-id='type-id-152' name='name' filepath='../../../gcc/liboffloadmic/runtime/offload_host.cpp' line='2861' column='1'/>
          <parameter type-id='type-id-149' name='is_empty' filepath='../../../gcc/liboffloadmic/runtime/offload_host.cpp' line='2862' column='1'/>
          <parameter type-id='type-id-266' name='vars' filepath='../../../gcc/liboffloadmic/runtime/offload_host.cpp' line='2863' column='1'/>
          <parameter type-id='type-id-275' name='vars2' filepath='../../../gcc/liboffloadmic/runtime/offload_host.cpp' line='2864' column='1'/>
          <parameter type-id='type-id-25' name='vars_total' filepath='../../../gcc/liboffloadmic/runtime/offload_host.cpp' line='2865' column='1'/>
          <parameter type-id='type-id-151' name='waits' filepath='../../../gcc/liboffloadmic/runtime/offload_host.cpp' line='2866' column='1'/>
          <parameter type-id='type-id-25' name='num_waits' filepath='../../../gcc/liboffloadmic/runtime/offload_host.cpp' line='2867' column='1'/>
          <parameter type-id='type-id-151' name='signal' filepath='../../../gcc/liboffloadmic/runtime/offload_host.cpp' line='2868' column='1'/>
          <parameter type-id='type-id-25' name='entry_id' filepath='../../../gcc/liboffloadmic/runtime/offload_host.cpp' line='2869' column='1'/>
          <parameter type-id='type-id-150' name='stack_addr' filepath='../../../gcc/liboffloadmic/runtime/offload_host.cpp' line='2870' column='1'/>
          <parameter type-id='type-id-276' name='offload_flags' filepath='../../../gcc/liboffloadmic/runtime/offload_host.cpp' line='2871' column='1'/>
          <return type-id='type-id-149'/>
        </function-decl>
      </member-function>
      <member-function access='private'>
        <function-decl name='offload_wrap' mangled-name='_ZN17OffloadDescriptor12offload_wrapEPKcbP7VarDescP8VarDesc2iPPKviS8_iS7_12OffloadFlags' filepath='../../../gcc/liboffloadmic/runtime/offload_host.cpp' line='2636' column='1' visibility='default' binding='global' size-in-bits='64' elf-symbol-id='_ZN17OffloadDescriptor12offload_wrapEPKcbP7VarDescP8VarDesc2iPPKviS8_iS7_12OffloadFlags'>
          <parameter type-id='type-id-271' name='this' is-artificial='yes'/>
          <parameter type-id='type-id-152' name='name' filepath='../../../gcc/liboffloadmic/runtime/offload_host.cpp' line='2861' column='1'/>
          <parameter type-id='type-id-149' name='is_empty' filepath='../../../gcc/liboffloadmic/runtime/offload_host.cpp' line='2862' column='1'/>
          <parameter type-id='type-id-266' name='vars' filepath='../../../gcc/liboffloadmic/runtime/offload_host.cpp' line='2863' column='1'/>
          <parameter type-id='type-id-275' name='vars2' filepath='../../../gcc/liboffloadmic/runtime/offload_host.cpp' line='2864' column='1'/>
          <parameter type-id='type-id-25' name='vars_total' filepath='../../../gcc/liboffloadmic/runtime/offload_host.cpp' line='2865' column='1'/>
          <parameter type-id='type-id-151' name='waits' filepath='../../../gcc/liboffloadmic/runtime/offload_host.cpp' line='2866' column='1'/>
          <parameter type-id='type-id-25' name='num_waits' filepath='../../../gcc/liboffloadmic/runtime/offload_host.cpp' line='2867' column='1'/>
          <parameter type-id='type-id-151' name='signal' filepath='../../../gcc/liboffloadmic/runtime/offload_host.cpp' line='2868' column='1'/>
          <parameter type-id='type-id-25' name='entry_id' filepath='../../../gcc/liboffloadmic/runtime/offload_host.cpp' line='2869' column='1'/>
          <parameter type-id='type-id-150' name='stack_addr' filepath='../../../gcc/liboffloadmic/runtime/offload_host.cpp' line='2870' column='1'/>
          <parameter type-id='type-id-276' name='offload_flags' filepath='../../../gcc/liboffloadmic/runtime/offload_host.cpp' line='2871' column='1'/>
          <return type-id='type-id-149'/>
        </function-decl>
      </member-function>
      <member-function access='private'>
        <function-decl name='wait_dependencies' mangled-name='_ZN17OffloadDescriptor17wait_dependenciesEPPKvim' filepath='../../../gcc/liboffloadmic/runtime/offload_host.cpp' line='2534' column='1' visibility='default' binding='global' size-in-bits='64' elf-symbol-id='_ZN17OffloadDescriptor17wait_dependenciesEPPKvim'>
          <parameter type-id='type-id-271' name='this' is-artificial='yes'/>
          <parameter type-id='type-id-151' name='waits' filepath='../../../gcc/liboffloadmic/runtime/offload_host.cpp' line='2535' column='1'/>
          <parameter type-id='type-id-25' name='num_waits' filepath='../../../gcc/liboffloadmic/runtime/offload_host.cpp' line='2536' column='1'/>
          <parameter type-id='type-id-201' name='handle' filepath='../../../gcc/liboffloadmic/runtime/offload_host.cpp' line='2537' column='1'/>
          <return type-id='type-id-149'/>
        </function-decl>
      </member-function>
      <member-function access='private'>
        <function-decl name='register_omp_event_call_back' mangled-name='_ZN17OffloadDescriptor28register_omp_event_call_backEPK8coieventPKv' filepath='../../../gcc/liboffloadmic/runtime/offload_host.cpp' line='2518' column='1' visibility='default' binding='global' size-in-bits='64' elf-symbol-id='_ZN17OffloadDescriptor28register_omp_event_call_backEPK8coieventPKv'>
          <parameter type-id='type-id-271' name='this' is-artificial='yes'/>
          <parameter type-id='type-id-77' name='event' filepath='../../../gcc/liboffloadmic/runtime/offload_host.cpp' line='2519' column='1'/>
          <parameter type-id='type-id-150' name='info' filepath='../../../gcc/liboffloadmic/runtime/offload_host.cpp' line='2520' column='1'/>
          <return type-id='type-id-154'/>
        </function-decl>
      </member-function>
      <member-function access='private'>
        <function-decl name='setup_omp_async_info' mangled-name='_ZN17OffloadDescriptor20setup_omp_async_infoEv' filepath='../../../gcc/liboffloadmic/runtime/offload_host.cpp' line='2449' column='1' visibility='default' binding='global' size-in-bits='64' elf-symbol-id='_ZN17OffloadDescriptor20setup_omp_async_infoEv'>
          <parameter type-id='type-id-271' name='this' is-artificial='yes'/>
          <return type-id='type-id-154'/>
        </function-decl>
      </member-function>
      <member-function access='private'>
        <function-decl name='setup_misc_data' mangled-name='_ZN17OffloadDescriptor15setup_misc_dataEPKc' filepath='../../../gcc/liboffloadmic/runtime/offload_host.cpp' line='2363' column='1' visibility='default' binding='global' size-in-bits='64' elf-symbol-id='_ZN17OffloadDescriptor15setup_misc_dataEPKc'>
          <parameter type-id='type-id-271' name='this' is-artificial='yes'/>
          <parameter type-id='type-id-152' name='name' filepath='../../../gcc/liboffloadmic/runtime/offload_host.cpp' line='2363' column='1'/>
          <return type-id='type-id-149'/>
        </function-decl>
      </member-function>
      <member-function access='private'>
        <function-decl name='setup_descriptors' mangled-name='_ZN17OffloadDescriptor17setup_descriptorsEP7VarDescP8VarDesc2iiPKv' filepath='../../../gcc/liboffloadmic/runtime/offload_host.cpp' line='1005' column='1' visibility='default' binding='global' size-in-bits='64' elf-symbol-id='_ZN17OffloadDescriptor17setup_descriptorsEP7VarDescP8VarDesc2iiPKv'>
          <parameter type-id='type-id-271' name='this' is-artificial='yes'/>
          <parameter type-id='type-id-266' name='vars' filepath='../../../gcc/liboffloadmic/runtime/offload_host.cpp' line='1006' column='1'/>
          <parameter type-id='type-id-275' name='vars2' filepath='../../../gcc/liboffloadmic/runtime/offload_host.cpp' line='1007' column='1'/>
          <parameter type-id='type-id-25' name='vars_total' filepath='../../../gcc/liboffloadmic/runtime/offload_host.cpp' line='1008' column='1'/>
          <parameter type-id='type-id-25' name='entry_id' filepath='../../../gcc/liboffloadmic/runtime/offload_host.cpp' line='1009' column='1'/>
          <parameter type-id='type-id-150' name='stack_addr' filepath='../../../gcc/liboffloadmic/runtime/offload_host.cpp' line='1010' column='1'/>
          <return type-id='type-id-149'/>
        </function-decl>
      </member-function>
      <member-function access='private'>
        <function-decl name='offload_stack_memory_manager' mangled-name='_ZN17OffloadDescriptor28offload_stack_memory_managerEPKviiiPb' filepath='../../../gcc/liboffloadmic/runtime/offload_host.cpp' line='871' column='1' visibility='default' binding='global' size-in-bits='64' elf-symbol-id='_ZN17OffloadDescriptor28offload_stack_memory_managerEPKviiiPb'>
          <parameter type-id='type-id-271' name='this' is-artificial='yes'/>
          <parameter type-id='type-id-150' name='stack_begin' filepath='../../../gcc/liboffloadmic/runtime/offload_host.cpp' line='872' column='1'/>
          <parameter type-id='type-id-25' name='routine_id' filepath='../../../gcc/liboffloadmic/runtime/offload_host.cpp' line='873' column='1'/>
          <parameter type-id='type-id-25' name='buf_size' filepath='../../../gcc/liboffloadmic/runtime/offload_host.cpp' line='874' column='1'/>
          <parameter type-id='type-id-25' name='align' filepath='../../../gcc/liboffloadmic/runtime/offload_host.cpp' line='875' column='1'/>
          <parameter type-id='type-id-277' name='is_new' filepath='../../../gcc/liboffloadmic/runtime/offload_host.cpp' line='876' column='1'/>
          <return type-id='type-id-149'/>
        </function-decl>
      </member-function>
      <member-function access='private'>
        <function-decl name='nullify_target_stack' mangled-name='_ZN17OffloadDescriptor20nullify_target_stackEP9coibufferm' filepath='../../../gcc/liboffloadmic/runtime/offload_host.cpp' line='842' column='1' visibility='default' binding='global' size-in-bits='64' elf-symbol-id='_ZN17OffloadDescriptor20nullify_target_stackEP9coibufferm'>
          <parameter type-id='type-id-271' name='this' is-artificial='yes'/>
          <parameter type-id='type-id-36' name='targ_buf' filepath='../../../gcc/liboffloadmic/runtime/offload_host.cpp' line='843' column='1'/>
          <parameter type-id='type-id-56' name='size' filepath='../../../gcc/liboffloadmic/runtime/offload_host.cpp' line='844' column='1'/>
          <return type-id='type-id-149'/>
        </function-decl>
      </member-function>
      <member-function access='private'>
        <function-decl name='init_mic_address' mangled-name='_ZN17OffloadDescriptor16init_mic_addressEP7PtrData' filepath='../../../gcc/liboffloadmic/runtime/offload_host.cpp' line='824' column='1' visibility='default' binding='global' size-in-bits='64' elf-symbol-id='_ZN17OffloadDescriptor16init_mic_addressEP7PtrData'>
          <parameter type-id='type-id-271' name='this' is-artificial='yes'/>
          <parameter type-id='type-id-205' name='ptr_data' filepath='../../../gcc/liboffloadmic/runtime/offload_host.cpp' line='824' column='1'/>
          <return type-id='type-id-149'/>
        </function-decl>
      </member-function>
      <member-function access='private'>
        <function-decl name='init_static_ptr_data' mangled-name='_ZN17OffloadDescriptor20init_static_ptr_dataEP7PtrData' filepath='../../../gcc/liboffloadmic/runtime/offload_host.cpp' line='775' column='1' visibility='default' binding='global' size-in-bits='64' elf-symbol-id='_ZN17OffloadDescriptor20init_static_ptr_dataEP7PtrData'>
          <parameter type-id='type-id-271' name='this' is-artificial='yes'/>
          <parameter type-id='type-id-205' name='ptr_data' filepath='../../../gcc/liboffloadmic/runtime/offload_host.cpp' line='824' column='1'/>
          <return type-id='type-id-149'/>
        </function-decl>
      </member-function>
      <member-function access='private'>
        <function-decl name='find_ptr_data' mangled-name='_ZN17OffloadDescriptor13find_ptr_dataERP7PtrDataPvllbb' filepath='../../../gcc/liboffloadmic/runtime/offload_host.cpp' line='718' column='1' visibility='default' binding='global' size-in-bits='64' elf-symbol-id='_ZN17OffloadDescriptor13find_ptr_dataERP7PtrDataPvllbb'>
          <parameter type-id='type-id-271' name='this' is-artificial='yes'/>
          <parameter type-id='type-id-278' name='ptr_data' filepath='../../../gcc/liboffloadmic/runtime/offload_host.cpp' line='719' column='1'/>
          <parameter type-id='type-id-150' name='in_base' filepath='../../../gcc/liboffloadmic/runtime/offload_host.cpp' line='720' column='1'/>
          <parameter type-id='type-id-227' name='disp' filepath='../../../gcc/liboffloadmic/runtime/offload_host.cpp' line='721' column='1'/>
          <parameter type-id='type-id-227' name='size' filepath='../../../gcc/liboffloadmic/runtime/offload_host.cpp' line='722' column='1'/>
          <parameter type-id='type-id-149' name='is_targetptr' filepath='../../../gcc/liboffloadmic/runtime/offload_host.cpp' line='723' column='1'/>
          <parameter type-id='type-id-149' name='report_error' filepath='../../../gcc/liboffloadmic/runtime/offload_host.cpp' line='724' column='1'/>
          <return type-id='type-id-149'/>
        </function-decl>
      </member-function>
      <member-function access='private'>
        <function-decl name='alloc_ptr_data' mangled-name='_ZN17OffloadDescriptor14alloc_ptr_dataERP7PtrDataPvlllibbb' filepath='../../../gcc/liboffloadmic/runtime/offload_host.cpp' line='472' column='1' visibility='default' binding='global' size-in-bits='64' elf-symbol-id='_ZN17OffloadDescriptor14alloc_ptr_dataERP7PtrDataPvlllibbb'>
          <parameter type-id='type-id-271' name='this' is-artificial='yes'/>
          <parameter type-id='type-id-278' name='ptr_data' filepath='../../../gcc/liboffloadmic/runtime/offload_host.cpp' line='473' column='1'/>
          <parameter type-id='type-id-150' name='base' filepath='../../../gcc/liboffloadmic/runtime/offload_host.cpp' line='474' column='1'/>
          <parameter type-id='type-id-227' name='disp' filepath='../../../gcc/liboffloadmic/runtime/offload_host.cpp' line='475' column='1'/>
          <parameter type-id='type-id-227' name='size' filepath='../../../gcc/liboffloadmic/runtime/offload_host.cpp' line='476' column='1'/>
          <parameter type-id='type-id-227' name='alloc_disp' filepath='../../../gcc/liboffloadmic/runtime/offload_host.cpp' line='477' column='1'/>
          <parameter type-id='type-id-25' name='align' filepath='../../../gcc/liboffloadmic/runtime/offload_host.cpp' line='478' column='1'/>
          <parameter type-id='type-id-149' name='is_targptr' filepath='../../../gcc/liboffloadmic/runtime/offload_host.cpp' line='479' column='1'/>
          <parameter type-id='type-id-149' name='is_prealloc' filepath='../../../gcc/liboffloadmic/runtime/offload_host.cpp' line='480' column='1'/>
          <parameter type-id='type-id-149' name='pin' filepath='../../../gcc/liboffloadmic/runtime/offload_host.cpp' line='481' column='1'/>
          <return type-id='type-id-149'/>
        </function-decl>
      </member-function>
      <member-function access='private' const='yes'>
        <function-decl name='translate_coi_error' mangled-name='_ZNK17OffloadDescriptor19translate_coi_errorE9COIRESULT' filepath='../../../gcc/liboffloadmic/runtime/offload_host.cpp' line='448' column='1' visibility='default' binding='global' size-in-bits='64' elf-symbol-id='_ZNK17OffloadDescriptor19translate_coi_errorE9COIRESULT'>
          <parameter type-id='type-id-279' name='this' is-artificial='yes'/>
          <parameter type-id='type-id-13' name='res' filepath='../../../gcc/liboffloadmic/runtime/offload_host.cpp' line='448' column='1'/>
          <return type-id='type-id-243'/>
        </function-decl>
      </member-function>
      <member-function access='private'>
        <function-decl name='report_coi_error' mangled-name='_ZN17OffloadDescriptor16report_coi_errorE11error_types9COIRESULT' filepath='../../../gcc/liboffloadmic/runtime/offload_host.cpp' line='409' column='1' visibility='default' binding='global' size-in-bits='64' elf-symbol-id='_ZN17OffloadDescriptor16report_coi_errorE11error_types9COIRESULT'>
          <parameter type-id='type-id-271' name='this' is-artificial='yes'/>
          <parameter type-id='type-id-250' name='msg' filepath='../../../gcc/liboffloadmic/runtime/offload_host.cpp' line='409' column='1'/>
          <parameter type-id='type-id-13' name='res' filepath='../../../gcc/liboffloadmic/runtime/offload_host.cpp' line='409' column='1'/>
          <return type-id='type-id-154'/>
        </function-decl>
      </member-function>
      <member-function access='public' const='yes'>
        <function-decl name='get_timer_data' mangled-name='_ZNK17OffloadDescriptor14get_timer_dataEv' filepath='../../../gcc/liboffloadmic/runtime/offload_host.h' line='137' column='1' visibility='default' binding='global' size-in-bits='64' elf-symbol-id='_ZNK17OffloadDescriptor14get_timer_dataEv'>
          <parameter type-id='type-id-279' name='this' is-artificial='yes'/>
          <return type-id='type-id-270'/>
        </function-decl>
      </member-function>
      <member-function access='public' destructor='yes'>
        <function-decl name='~OffloadDescriptor' mangled-name='_ZN17OffloadDescriptorD2Ev' filepath='../../../gcc/liboffloadmic/runtime/offload_host.h' line='110' column='1' visibility='default' binding='global' size-in-bits='64' elf-symbol-id='_ZN17OffloadDescriptorD2Ev'>
          <parameter type-id='type-id-271' name='this' is-artificial='yes'/>
          <return type-id='type-id-154'/>
        </function-decl>
      </member-function>
    </class-decl>
    <class-decl name='CeanReadRanges' size-in-bits='576' is-struct='yes' visibility='default' filepath='../../../gcc/liboffloadmic/runtime/cean_util.h' line='58' column='1' id='type-id-280'>
      <data-member access='public' layout-offset-in-bits='0'>
        <var-decl name='arr_desc' type-id='type-id-281' visibility='default' filepath='../../../gcc/liboffloadmic/runtime/cean_util.h' line='59' column='1'/>
      </data-member>
      <data-member access='public' layout-offset-in-bits='64'>
        <var-decl name='ptr' type-id='type-id-150' visibility='default' filepath='../../../gcc/liboffloadmic/runtime/cean_util.h' line='60' column='1'/>
      </data-member>
      <data-member access='public' layout-offset-in-bits='128'>
        <var-decl name='current_number' type-id='type-id-227' visibility='default' filepath='../../../gcc/liboffloadmic/runtime/cean_util.h' line='61' column='1'/>
      </data-member>
      <data-member access='public' layout-offset-in-bits='192'>
        <var-decl name='range_max_number' type-id='type-id-227' visibility='default' filepath='../../../gcc/liboffloadmic/runtime/cean_util.h' line='62' column='1'/>
      </data-member>
      <data-member access='public' layout-offset-in-bits='256'>
        <var-decl name='range_size' type-id='type-id-227' visibility='default' filepath='../../../gcc/liboffloadmic/runtime/cean_util.h' line='63' column='1'/>
      </data-member>
      <data-member access='public' layout-offset-in-bits='320'>
        <var-decl name='last_noncont_ind' type-id='type-id-25' visibility='default' filepath='../../../gcc/liboffloadmic/runtime/cean_util.h' line='64' column='1'/>
      </data-member>
      <data-member access='public' layout-offset-in-bits='384'>
        <var-decl name='init_offset' type-id='type-id-227' visibility='default' filepath='../../../gcc/liboffloadmic/runtime/cean_util.h' line='65' column='1'/>
      </data-member>
      <data-member access='public' layout-offset-in-bits='448'>
        <var-decl name='Dim' type-id='type-id-158' visibility='default' filepath='../../../gcc/liboffloadmic/runtime/cean_util.h' line='66' column='1'/>
      </data-member>
    </class-decl>
    <class-decl name='Stream' size-in-bits='1216' is-struct='yes' visibility='default' filepath='../../../gcc/liboffloadmic/runtime/offload_engine.h' line='326' column='1' id='type-id-282'>
      <member-type access='public'>
        <typedef-decl name='StreamMap' type-id='type-id-232' filepath='../../../gcc/liboffloadmic/runtime/offload_engine.h' line='371' column='1' id='type-id-283'/>
      </member-type>
      <data-member access='public' static='yes'>
        <var-decl name='m_streams_count' type-id='type-id-56' mangled-name='_ZN6Stream15m_streams_countE' visibility='default' filepath='../../../gcc/liboffloadmic/runtime/offload_engine.h' line='373' column='1' elf-symbol-id='_ZN6Stream15m_streams_countE'/>
      </data-member>
      <data-member access='public' static='yes'>
        <var-decl name='all_streams' type-id='type-id-283' mangled-name='_ZN6Stream11all_streamsE' visibility='default' filepath='../../../gcc/liboffloadmic/runtime/offload_engine.h' line='374' column='1' elf-symbol-id='_ZN6Stream11all_streamsE'/>
      </data-member>
      <data-member access='public' static='yes'>
        <var-decl name='m_stream_lock' type-id='type-id-192' mangled-name='_ZN6Stream13m_stream_lockE' visibility='default' filepath='../../../gcc/liboffloadmic/runtime/offload_engine.h' line='375' column='1' elf-symbol-id='_ZN6Stream13m_stream_lockE'/>
      </data-member>
      <data-member access='public' layout-offset-in-bits='0'>
        <var-decl name='m_device' type-id='type-id-25' visibility='default' filepath='../../../gcc/liboffloadmic/runtime/offload_engine.h' line='377' column='1'/>
      </data-member>
      <data-member access='public' layout-offset-in-bits='32'>
        <var-decl name='m_number_of_cpus' type-id='type-id-25' visibility='default' filepath='../../../gcc/liboffloadmic/runtime/offload_engine.h' line='380' column='1'/>
      </data-member>
      <data-member access='public' layout-offset-in-bits='64'>
        <var-decl name='m_pipeline' type-id='type-id-34' visibility='default' filepath='../../../gcc/liboffloadmic/runtime/offload_engine.h' line='383' column='1'/>
      </data-member>
      <data-member access='public' layout-offset-in-bits='128'>
        <var-decl name='m_last_offload' type-id='type-id-206' visibility='default' filepath='../../../gcc/liboffloadmic/runtime/offload_engine.h' line='386' column='1'/>
      </data-member>
      <data-member access='public' layout-offset-in-bits='192'>
        <var-decl name='m_stream_cpus' type-id='type-id-196' visibility='default' filepath='../../../gcc/liboffloadmic/runtime/offload_engine.h' line='389' column='1'/>
      </data-member>
      <member-function access='public'>
        <function-decl name='get_device' mangled-name='_ZN6Stream10get_deviceEv' filepath='../../../gcc/liboffloadmic/runtime/offload_engine.h' line='342' column='1' visibility='default' binding='global' size-in-bits='64' elf-symbol-id='_ZN6Stream10get_deviceEv'>
          <parameter type-id='type-id-284' name='this' is-artificial='yes'/>
          <return type-id='type-id-25'/>
        </function-decl>
      </member-function>
      <member-function access='public' static='yes'>
        <function-decl name='find_stream' mangled-name='_ZN6Stream11find_streamEmb' filepath='../../../gcc/liboffloadmic/runtime/offload_engine.cpp' line='680' column='1' visibility='default' binding='global' size-in-bits='64' elf-symbol-id='_ZN6Stream11find_streamEmb'>
          <parameter type-id='type-id-56'/>
          <parameter type-id='type-id-149'/>
          <return type-id='type-id-285'/>
        </function-decl>
      </member-function>
      <member-function access='public'>
        <function-decl name='set_pipeline' mangled-name='_ZN6Stream12set_pipelineEP11coipipeline' filepath='../../../gcc/liboffloadmic/runtime/offload_engine.h' line='350' column='1' visibility='default' binding='global' size-in-bits='64' elf-symbol-id='_ZN6Stream12set_pipelineEP11coipipeline'>
          <parameter type-id='type-id-284' name='this' is-artificial='yes'/>
          <parameter type-id='type-id-34' name='pipeline' filepath='../../../gcc/liboffloadmic/runtime/offload_engine.h' line='350' column='1'/>
          <return type-id='type-id-154'/>
        </function-decl>
      </member-function>
      <member-function access='public'>
        <function-decl name='get_cpu_number' mangled-name='_ZN6Stream14get_cpu_numberEv' filepath='../../../gcc/liboffloadmic/runtime/offload_engine.h' line='346' column='1' visibility='default' binding='global' size-in-bits='64' elf-symbol-id='_ZN6Stream14get_cpu_numberEv'>
          <parameter type-id='type-id-284' name='this' is-artificial='yes'/>
          <return type-id='type-id-25'/>
        </function-decl>
      </member-function>
      <member-function access='public'>
        <function-decl name='get_pipeline' mangled-name='_ZN6Stream12get_pipelineEv' filepath='../../../gcc/liboffloadmic/runtime/offload_engine.h' line='338' column='1' visibility='default' binding='global' size-in-bits='64' elf-symbol-id='_ZN6Stream12get_pipelineEv'>
          <parameter type-id='type-id-284' name='this' is-artificial='yes'/>
          <return type-id='type-id-34'/>
        </function-decl>
      </member-function>
      <member-function access='public' destructor='yes'>
        <function-decl name='~Stream' mangled-name='_ZN6StreamD2Ev' filepath='../../../gcc/liboffloadmic/runtime/offload_engine.h' line='332' column='1' visibility='default' binding='global' size-in-bits='64' elf-symbol-id='_ZN6StreamD2Ev'>
          <parameter type-id='type-id-284' name='this' is-artificial='yes'/>
          <return type-id='type-id-154'/>
        </function-decl>
      </member-function>
      <member-function access='public' static='yes'>
        <function-decl name='add_stream' mangled-name='_ZN6Stream10add_streamEii' filepath='../../../gcc/liboffloadmic/runtime/offload_engine.h' line='364' column='1' visibility='default' binding='global' size-in-bits='64' elf-symbol-id='_ZN6Stream10add_streamEii'>
          <parameter type-id='type-id-25'/>
          <parameter type-id='type-id-25'/>
          <return type-id='type-id-201'/>
        </function-decl>
      </member-function>
      <member-function access='public'>
        <function-decl name='set_last_offload' mangled-name='_ZN6Stream16set_last_offloadEP17OffloadDescriptor' filepath='../../../gcc/liboffloadmic/runtime/offload_engine.h' line='358' column='1' visibility='default' binding='global' size-in-bits='64' elf-symbol-id='_ZN6Stream16set_last_offloadEP17OffloadDescriptor'>
          <parameter type-id='type-id-284' name='this' is-artificial='yes'/>
          <parameter type-id='type-id-206' name='last_offload' filepath='../../../gcc/liboffloadmic/runtime/offload_engine.h' line='358' column='1'/>
          <return type-id='type-id-154'/>
        </function-decl>
      </member-function>
      <member-function access='public'>
        <function-decl name='get_last_offload' mangled-name='_ZN6Stream16get_last_offloadEv' filepath='../../../gcc/liboffloadmic/runtime/offload_engine.h' line='354' column='1' visibility='default' binding='global' size-in-bits='64' elf-symbol-id='_ZN6Stream16get_last_offloadEv'>
          <parameter type-id='type-id-284' name='this' is-artificial='yes'/>
          <return type-id='type-id-206'/>
        </function-decl>
      </member-function>
      <member-function access='public' destructor='yes'>
        <function-decl name='~Stream' mangled-name='_ZN6StreamD2Ev' filepath='../../../gcc/liboffloadmic/runtime/offload_engine.h' line='332' column='1' visibility='default' binding='global' size-in-bits='64' elf-symbol-id='_ZN6StreamD2Ev'>
          <parameter type-id='type-id-284' name='this' is-artificial='yes'/>
          <return type-id='type-id-154'/>
        </function-decl>
      </member-function>
      <member-function access='public' constructor='yes'>
        <function-decl name='Stream' mangled-name='_ZN6StreamC2Eii' filepath='../../../gcc/liboffloadmic/runtime/offload_engine.h' line='328' column='1' visibility='default' binding='global' size-in-bits='64' elf-symbol-id='_ZN6StreamC2Eii'>
          <parameter type-id='type-id-284' name='this' is-artificial='yes'/>
          <parameter type-id='type-id-25' name='device' filepath='../../../gcc/liboffloadmic/runtime/offload_engine.h' line='328' column='1'/>
          <parameter type-id='type-id-25' name='num_of_cpus' filepath='../../../gcc/liboffloadmic/runtime/offload_engine.h' line='328' column='1'/>
          <return type-id='type-id-154'/>
        </function-decl>
      </member-function>
    </class-decl>
    <class-decl name='VarDesc' size-in-bits='512' is-struct='yes' visibility='default' filepath='../../../gcc/liboffloadmic/runtime/offload_common.h' line='254' column='1' id='type-id-286'>
      <member-type access='public'>
        <union-decl name='__anonymous_union__' size-in-bits='8' is-anonymous='yes' visibility='default' filepath='../../../gcc/liboffloadmic/runtime/offload_common.h' line='256' column='1' id='type-id-287'>
          <member-type access='public'>
            <class-decl name='__anonymous_struct__' size-in-bits='8' is-struct='yes' is-anonymous='yes' visibility='default' filepath='../../../gcc/liboffloadmic/runtime/offload_common.h' line='257' column='1' id='type-id-288'>
              <data-member access='public' layout-offset-in-bits='0'>
                <var-decl name='dst' type-id='type-id-20' visibility='default' filepath='../../../gcc/liboffloadmic/runtime/offload_common.h' line='258' column='1'/>
              </data-member>
              <data-member access='public' layout-offset-in-bits='4'>
                <var-decl name='src' type-id='type-id-20' visibility='default' filepath='../../../gcc/liboffloadmic/runtime/offload_common.h' line='259' column='1'/>
              </data-member>
            </class-decl>
          </member-type>
          <data-member access='public'>
            <var-decl name='' type-id='type-id-288' visibility='default'/>
          </data-member>
          <data-member access='public'>
            <var-decl name='bits' type-id='type-id-20' visibility='default' filepath='../../../gcc/liboffloadmic/runtime/offload_common.h' line='261' column='1'/>
          </data-member>
        </union-decl>
      </member-type>
      <member-type access='public'>
        <union-decl name='__anonymous_union__1' size-in-bits='8' is-anonymous='yes' visibility='default' filepath='../../../gcc/liboffloadmic/runtime/offload_common.h' line='265' column='1' id='type-id-289'>
          <member-type access='public'>
            <class-decl name='__anonymous_struct__' size-in-bits='8' is-struct='yes' is-anonymous='yes' visibility='default' filepath='../../../gcc/liboffloadmic/runtime/offload_common.h' line='266' column='1' id='type-id-290'>
              <data-member access='public' layout-offset-in-bits='0'>
                <var-decl name='in' type-id='type-id-20' visibility='default' filepath='../../../gcc/liboffloadmic/runtime/offload_common.h' line='267' column='1'/>
              </data-member>
              <data-member access='public' layout-offset-in-bits='1'>
                <var-decl name='out' type-id='type-id-20' visibility='default' filepath='../../../gcc/liboffloadmic/runtime/offload_common.h' line='268' column='1'/>
              </data-member>
            </class-decl>
          </member-type>
          <data-member access='public'>
            <var-decl name='' type-id='type-id-290' visibility='default'/>
          </data-member>
          <data-member access='public'>
            <var-decl name='bits' type-id='type-id-20' visibility='default' filepath='../../../gcc/liboffloadmic/runtime/offload_common.h' line='270' column='1'/>
          </data-member>
        </union-decl>
      </member-type>
      <member-type access='public'>
        <union-decl name='__anonymous_union__2' size-in-bits='64' is-anonymous='yes' visibility='default' filepath='../../../gcc/liboffloadmic/runtime/offload_common.h' line='287' column='1' id='type-id-291'>
          <data-member access='public'>
            <var-decl name='count' type-id='type-id-227' visibility='default' filepath='../../../gcc/liboffloadmic/runtime/offload_common.h' line='291' column='1'/>
          </data-member>
          <data-member access='public'>
            <var-decl name='disp' type-id='type-id-227' visibility='default' filepath='../../../gcc/liboffloadmic/runtime/offload_common.h' line='293' column='1'/>
          </data-member>
        </union-decl>
      </member-type>
      <member-type access='public'>
        <union-decl name='__anonymous_union__3' size-in-bits='64' is-anonymous='yes' visibility='default' filepath='../../../gcc/liboffloadmic/runtime/offload_common.h' line='298' column='1' id='type-id-292'>
          <data-member access='public'>
