<abi-corpus version='2.0' path='data/test-read-dwarf/test20-pr19025-libvtkParallelCore-6.1.so' soname='libvtkParallelCore-6.1.so.1'>
  <elf-needed>
    <dependency name='libvtkIOLegacy-6.1.so.1'/>
    <dependency name='libvtkIOCore-6.1.so.1'/>
    <dependency name='libvtkCommonExecutionModel-6.1.so.1'/>
    <dependency name='libvtkCommonDataModel-6.1.so.1'/>
    <dependency name='libvtkCommonMisc-6.1.so.1'/>
    <dependency name='libvtkCommonSystem-6.1.so.1'/>
    <dependency name='libvtksys-6.1.so.1'/>
    <dependency name='libvtkCommonTransforms-6.1.so.1'/>
    <dependency name='libvtkCommonMath-6.1.so.1'/>
    <dependency name='libvtkCommonCore-6.1.so.1'/>
    <dependency name='libdl.so.2'/>
    <dependency name='libstdc++.so.6'/>
    <dependency name='libm.so.6'/>
    <dependency name='libc.so.6'/>
    <dependency name='libgcc_s.so.1'/>
  </elf-needed>
  <elf-function-symbols>
    <elf-symbol name='_ZN10vtkProcess13GetControllerEv' type='func-type' binding='global-binding' visibility='default-visibility' is-defined='yes'/>
    <elf-symbol name='_ZN10vtkProcess13SetControllerEP25vtkMultiProcessController' type='func-type' binding='global-binding' visibility='default-visibility' is-defined='yes'/>
    <elf-symbol name='_ZN10vtkProcess14GetReturnValueEv' type='func-type' binding='global-binding' visibility='default-visibility' is-defined='yes'/>
    <elf-symbol name='_ZN10vtkProcess9PrintSelfERSo9vtkIndent' type='func-type' binding='global-binding' visibility='default-visibility' is-defined='yes'/>
    <elf-symbol name='_ZN10vtkProcessC1Ev' type='func-type' binding='global-binding' visibility='default-visibility' alias='_ZN10vtkProcessC2Ev' is-defined='yes'/>
    <elf-symbol name='_ZN10vtkProcessC2Ev' type='func-type' binding='global-binding' visibility='default-visibility' is-defined='yes'/>
    <elf-symbol name='_ZN11vtkSubGroup10InitializeEiiiiP15vtkCommunicator' type='func-type' binding='global-binding' visibility='default-visibility' is-defined='yes'/>
    <elf-symbol name='_ZN11vtkSubGroup11restoreRootEi' type='func-type' binding='global-binding' visibility='default-visibility' is-defined='yes'/>
    <elf-symbol name='_ZN11vtkSubGroup12getLocalRankEi' type='func-type' binding='global-binding' visibility='default-visibility' is-defined='yes'/>
    <elf-symbol name='_ZN11vtkSubGroup16MakeSortedUniqueEPiiPS0_' type='func-type' binding='global-binding' visibility='default-visibility' is-defined='yes'/>
    <elf-symbol name='_ZN11vtkSubGroup16setGatherPatternEii' type='func-type' binding='global-binding' visibility='default-visibility' is-defined='yes'/>
    <elf-symbol name='_ZN11vtkSubGroup17MergeSortedUniqueEPiiS0_iPS0_' type='func-type' binding='global-binding' visibility='default-visibility' is-defined='yes'/>
    <elf-symbol name='_ZN11vtkSubGroup19AllReduceUniqueListEPiiPS0_' type='func-type' binding='global-binding' visibility='default-visibility' is-defined='yes'/>
    <elf-symbol name='_ZN11vtkSubGroup19computeFanInTargetsEv' type='func-type' binding='global-binding' visibility='default-visibility' is-defined='yes'/>
    <elf-symbol name='_ZN11vtkSubGroup3NewEv' type='func-type' binding='global-binding' visibility='default-visibility' is-defined='yes'/>
    <elf-symbol name='_ZN11vtkSubGroup6GatherEPcS0_ii' type='func-type' binding='global-binding' visibility='default-visibility' is-defined='yes'/>
    <elf-symbol name='_ZN11vtkSubGroup6GatherEPfS0_ii' type='func-type' binding='global-binding' visibility='default-visibility' is-defined='yes'/>
    <elf-symbol name='_ZN11vtkSubGroup6GatherEPiS0_ii' type='func-type' binding='global-binding' visibility='default-visibility' is-defined='yes'/>
    <elf-symbol name='_ZN11vtkSubGroup6GatherEPxS0_ii' type='func-type' binding='global-binding' visibility='default-visibility' is-defined='yes'/>
    <elf-symbol name='_ZN11vtkSubGroup7BarrierEv' type='func-type' binding='global-binding' visibility='default-visibility' is-defined='yes'/>
    <elf-symbol name='_ZN11vtkSubGroup8moveRootEi' type='func-type' binding='global-binding' visibility='default-visibility' is-defined='yes'/>
    <elf-symbol name='_ZN11vtkSubGroup9BroadcastEPcii' type='func-type' binding='global-binding' visibility='default-visibility' is-defined='yes'/>
    <elf-symbol name='_ZN11vtkSubGroup9BroadcastEPdii' type='func-type' binding='global-binding' visibility='default-visibility' is-defined='yes'/>
    <elf-symbol name='_ZN11vtkSubGroup9BroadcastEPfii' type='func-type' binding='global-binding' visibility='default-visibility' is-defined='yes'/>
    <elf-symbol name='_ZN11vtkSubGroup9BroadcastEPiii' type='func-type' binding='global-binding' visibility='default-visibility' is-defined='yes'/>
    <elf-symbol name='_ZN11vtkSubGroup9BroadcastEPxii' type='func-type' binding='global-binding' visibility='default-visibility' is-defined='yes'/>
    <elf-symbol name='_ZN11vtkSubGroup9PrintSelfERSo9vtkIndent' type='func-type' binding='global-binding' visibility='default-visibility' is-defined='yes'/>
    <elf-symbol name='_ZN11vtkSubGroup9ReduceMaxEPdS0_ii' type='func-type' binding='global-binding' visibility='default-visibility' is-defined='yes'/>
    <elf-symbol name='_ZN11vtkSubGroup9ReduceMaxEPfS0_ii' type='func-type' binding='global-binding' visibility='default-visibility' is-defined='yes'/>
    <elf-symbol name='_ZN11vtkSubGroup9ReduceMaxEPiS0_ii' type='func-type' binding='global-binding' visibility='default-visibility' is-defined='yes'/>
    <elf-symbol name='_ZN11vtkSubGroup9ReduceMinEPdS0_ii' type='func-type' binding='global-binding' visibility='default-visibility' is-defined='yes'/>
    <elf-symbol name='_ZN11vtkSubGroup9ReduceMinEPfS0_ii' type='func-type' binding='global-binding' visibility='default-visibility' is-defined='yes'/>
    <elf-symbol name='_ZN11vtkSubGroup9ReduceMinEPiS0_ii' type='func-type' binding='global-binding' visibility='default-visibility' is-defined='yes'/>
    <elf-symbol name='_ZN11vtkSubGroup9ReduceSumEPiS0_ii' type='func-type' binding='global-binding' visibility='default-visibility' is-defined='yes'/>
    <elf-symbol name='_ZN11vtkSubGroup9setUpRootEi' type='func-type' binding='global-binding' visibility='default-visibility' is-defined='yes'/>
    <elf-symbol name='_ZN11vtkSubGroupC1Ev' type='func-type' binding='global-binding' visibility='default-visibility' alias='_ZN11vtkSubGroupC2Ev' is-defined='yes'/>
    <elf-symbol name='_ZN11vtkSubGroupC2Ev' type='func-type' binding='global-binding' visibility='default-visibility' is-defined='yes'/>
    <elf-symbol name='_ZN11vtkSubGroupD0Ev' type='func-type' binding='global-binding' visibility='default-visibility' is-defined='yes'/>
    <elf-symbol name='_ZN11vtkSubGroupD1Ev' type='func-type' binding='global-binding' visibility='default-visibility' alias='_ZN11vtkSubGroupD2Ev' is-defined='yes'/>
    <elf-symbol name='_ZN11vtkSubGroupD2Ev' type='func-type' binding='global-binding' visibility='default-visibility' is-defined='yes'/>
    <elf-symbol name='_ZN15vtkCommunicator10AllGatherVEP12vtkDataArrayS1_' type='func-type' binding='global-binding' visibility='default-visibility' is-defined='yes'/>
    <elf-symbol name='_ZN15vtkCommunicator10AllGatherVEP12vtkDataArrayS1_PxS2_' type='func-type' binding='global-binding' visibility='default-visibility' is-defined='yes'/>
    <elf-symbol name='_ZN15vtkCommunicator10SetUseCopyEi' type='func-type' binding='global-binding' visibility='default-visibility' is-defined='yes'/>
    <elf-symbol name='_ZN15vtkCommunicator15GatherVoidArrayEPKvPvxii' type='func-type' binding='global-binding' visibility='default-visibility' is-defined='yes'/>
    <elf-symbol name='_ZN15vtkCommunicator15ReduceVoidArrayEPKvPvxiPNS_9OperationEi' type='func-type' binding='global-binding' visibility='default-visibility' is-defined='yes'/>
    <elf-symbol name='_ZN15vtkCommunicator15ReduceVoidArrayEPKvPvxiii' type='func-type' binding='global-binding' visibility='default-visibility' is-defined='yes'/>
    <elf-symbol name='_ZN15vtkCommunicator16GatherVVoidArrayEPKvPvxPxS3_ii' type='func-type' binding='global-binding' visibility='default-visibility' is-defined='yes'/>
    <elf-symbol name='_ZN15vtkCommunicator16ScatterVoidArrayEPKvPvxii' type='func-type' binding='global-binding' visibility='default-visibility' is-defined='yes'/>
    <elf-symbol name='_ZN15vtkCommunicator17MarshalDataObjectEP13vtkDataObjectP12vtkCharArray' type='func-type' binding='global-binding' visibility='default-visibility' is-defined='yes'/>
    <elf-symbol name='_ZN15vtkCommunicator17ReceiveDataObjectEP13vtkDataObjectiii' type='func-type' binding='global-binding' visibility='default-visibility' is-defined='yes'/>
    <elf-symbol name='_ZN15vtkCommunicator17ReceiveDataObjectEii' type='func-type' binding='global-binding' visibility='default-visibility' is-defined='yes'/>
    <elf-symbol name='_ZN15vtkCommunicator17ScatterVVoidArrayEPKvPvPxS3_xii' type='func-type' binding='global-binding' visibility='default-visibility' is-defined='yes'/>
    <elf-symbol name='_ZN15vtkCommunicator18AllGatherVoidArrayEPKvPvxi' type='func-type' binding='global-binding' visibility='default-visibility' is-defined='yes'/>
    <elf-symbol name='_ZN15vtkCommunicator18AllReduceVoidArrayEPKvPvxiPNS_9OperationE' type='func-type' binding='global-binding' visibility='default-visibility' is-defined='yes'/>
    <elf-symbol name='_ZN15vtkCommunicator18AllReduceVoidArrayEPKvPvxii' type='func-type' binding='global-binding' visibility='default-visibility' is-defined='yes'/>
    <elf-symbol name='_ZN15vtkCommunicator18BroadcastVoidArrayEPvxii' type='func-type' binding='global-binding' visibility='default-visibility' is-defined='yes'/>
    <elf-symbol name='_ZN15vtkCommunicator18GetParentProcessorEi' type='func-type' binding='global-binding' visibility='default-visibility' is-defined='yes'/>
    <elf-symbol name='_ZN15vtkCommunicator19AllGatherVVoidArrayEPKvPvxPxS3_i' type='func-type' binding='global-binding' visibility='default-visibility' is-defined='yes'/>
    <elf-symbol name='_ZN15vtkCommunicator19ComputeGlobalBoundsEiiP14vtkBoundingBoxPiS2_iii' type='func-type' binding='global-binding' visibility='default-visibility' is-defined='yes'/>
    <elf-symbol name='_ZN15vtkCommunicator19UnMarshalDataObjectEP12vtkCharArrayP13vtkDataObject' type='func-type' binding='global-binding' visibility='default-visibility' is-defined='yes'/>
    <elf-symbol name='_ZN15vtkCommunicator20SetNumberOfProcessesEi' type='func-type' binding='global-binding' visibility='default-visibility' is-defined='yes'/>
    <elf-symbol name='_ZN15vtkCommunicator21GetLeftChildProcessorEi' type='func-type' binding='global-binding' visibility='default-visibility' is-defined='yes'/>
    <elf-symbol name='_ZN15vtkCommunicator23SendElementalDataObjectEP13vtkDataObjectii' type='func-type' binding='global-binding' visibility='default-visibility' is-defined='yes'/>
    <elf-symbol name='_ZN15vtkCommunicator26ReceiveElementalDataObjectEP13vtkDataObjectii' type='func-type' binding='global-binding' visibility='default-visibility' is-defined='yes'/>
    <elf-symbol name='_ZN15vtkCommunicator4SendEP12vtkDataArrayii' type='func-type' binding='global-binding' visibility='default-visibility' is-defined='yes'/>
    <elf-symbol name='_ZN15vtkCommunicator4SendEP13vtkDataObjectii' type='func-type' binding='global-binding' visibility='default-visibility' is-defined='yes'/>
    <elf-symbol name='_ZN15vtkCommunicator4SendERK21vtkMultiProcessStreamii' type='func-type' binding='global-binding' visibility='default-visibility' is-defined='yes'/>
    <elf-symbol name='_ZN15vtkCommunicator6GatherEP12vtkDataArrayS1_i' type='func-type' binding='global-binding' visibility='default-visibility' is-defined='yes'/>
    <elf-symbol name='_ZN15vtkCommunicator6ReduceEP12vtkDataArrayS1_PNS_9OperationEi' type='func-type' binding='global-binding' visibility='default-visibility' is-defined='yes'/>
    <elf-symbol name='_ZN15vtkCommunicator6ReduceEP12vtkDataArrayS1_ii' type='func-type' binding='global-binding' visibility='default-visibility' is-defined='yes'/>
    <elf-symbol name='_ZN15vtkCommunicator7BarrierEv' type='func-type' binding='global-binding' visibility='default-visibility' is-defined='yes'/>
    <elf-symbol name='_ZN15vtkCommunicator7GatherVEP12vtkDataArrayS1_PxS2_i' type='func-type' binding='global-binding' visibility='default-visibility' is-defined='yes'/>
    <elf-symbol name='_ZN15vtkCommunicator7GatherVEP12vtkDataArrayS1_i' type='func-type' binding='global-binding' visibility='default-visibility' is-defined='yes'/>
    <elf-symbol name='_ZN15vtkCommunicator7ReceiveEP12vtkDataArrayii' type='func-type' binding='global-binding' visibility='default-visibility' is-defined='yes'/>
    <elf-symbol name='_ZN15vtkCommunicator7ReceiveEP13vtkDataObjectii' type='func-type' binding='global-binding' visibility='default-visibility' is-defined='yes'/>
    <elf-symbol name='_ZN15vtkCommunicator7ReceiveER21vtkMultiProcessStreamii' type='func-type' binding='global-binding' visibility='default-visibility' is-defined='yes'/>
    <elf-symbol name='_ZN15vtkCommunicator7ScatterEP12vtkDataArrayS1_i' type='func-type' binding='global-binding' visibility='default-visibility' is-defined='yes'/>
    <elf-symbol name='_ZN15vtkCommunicator9AllGatherEP12vtkDataArrayS1_' type='func-type' binding='global-binding' visibility='default-visibility' is-defined='yes'/>
    <elf-symbol name='_ZN15vtkCommunicator9AllReduceEP12vtkDataArrayS1_PNS_9OperationE' type='func-type' binding='global-binding' visibility='default-visibility' is-defined='yes'/>
    <elf-symbol name='_ZN15vtkCommunicator9AllReduceEP12vtkDataArrayS1_i' type='func-type' binding='global-binding' visibility='default-visibility' is-defined='yes'/>
    <elf-symbol name='_ZN15vtkCommunicator9BroadcastEP12vtkDataArrayi' type='func-type' binding='global-binding' visibility='default-visibility' is-defined='yes'/>
    <elf-symbol name='_ZN15vtkCommunicator9BroadcastEP13vtkDataObjecti' type='func-type' binding='global-binding' visibility='default-visibility' is-defined='yes'/>
    <elf-symbol name='_ZN15vtkCommunicator9BroadcastER21vtkMultiProcessStreami' type='func-type' binding='global-binding' visibility='default-visibility' is-defined='yes'/>
    <elf-symbol name='_ZN15vtkCommunicator9PrintSelfERSo9vtkIndent' type='func-type' binding='global-binding' visibility='default-visibility' is-defined='yes'/>
    <elf-symbol name='_ZN15vtkCommunicatorC1Ev' type='func-type' binding='global-binding' visibility='default-visibility' is-defined='yes'/>
    <elf-symbol name='_ZN15vtkCommunicatorC2Ev' type='func-type' binding='global-binding' visibility='default-visibility' alias='_ZN15vtkCommunicatorC1Ev' is-defined='yes'/>
    <elf-symbol name='_ZN15vtkCommunicatorD0Ev' type='func-type' binding='global-binding' visibility='default-visibility' is-defined='yes'/>
    <elf-symbol name='_ZN15vtkCommunicatorD1Ev' type='func-type' binding='global-binding' visibility='default-visibility' alias='_ZN15vtkCommunicatorD2Ev' is-defined='yes'/>
    <elf-symbol name='_ZN15vtkCommunicatorD2Ev' type='func-type' binding='global-binding' visibility='default-visibility' is-defined='yes'/>
    <elf-symbol name='_ZN15vtkProcessGroup10InitializeEP15vtkCommunicator' type='func-type' binding='global-binding' visibility='default-visibility' is-defined='yes'/>
    <elf-symbol name='_ZN15vtkProcessGroup10InitializeEP25vtkMultiProcessController' type='func-type' binding='global-binding' visibility='default-visibility' is-defined='yes'/>
    <elf-symbol name='_ZN15vtkProcessGroup12AddProcessIdEi' type='func-type' binding='global-binding' visibility='default-visibility' is-defined='yes'/>
    <elf-symbol name='_ZN15vtkProcessGroup13FindProcessIdEi' type='func-type' binding='global-binding' visibility='default-visibility' is-defined='yes'/>
    <elf-symbol name='_ZN15vtkProcessGroup15RemoveProcessIdEi' type='func-type' binding='global-binding' visibility='default-visibility' is-defined='yes'/>
    <elf-symbol name='_ZN15vtkProcessGroup15SetCommunicatorEP15vtkCommunicator' type='func-type' binding='global-binding' visibility='default-visibility' is-defined='yes'/>
    <elf-symbol name='_ZN15vtkProcessGroup17GetLocalProcessIdEv' type='func-type' binding='global-binding' visibility='default-visibility' is-defined='yes'/>
    <elf-symbol name='_ZN15vtkProcessGroup19RemoveAllProcessIdsEv' type='func-type' binding='global-binding' visibility='default-visibility' is-defined='yes'/>
    <elf-symbol name='_ZN15vtkProcessGroup3NewEv' type='func-type' binding='global-binding' visibility='default-visibility' is-defined='yes'/>
    <elf-symbol name='_ZN15vtkProcessGroup4CopyEPS_' type='func-type' binding='global-binding' visibility='default-visibility' is-defined='yes'/>
    <elf-symbol name='_ZN15vtkProcessGroup9PrintSelfERSo9vtkIndent' type='func-type' binding='global-binding' visibility='default-visibility' is-defined='yes'/>
    <elf-symbol name='_ZN15vtkProcessGroupC1Ev' type='func-type' binding='global-binding' visibility='default-visibility' alias='_ZN15vtkProcessGroupC2Ev' is-defined='yes'/>
    <elf-symbol name='_ZN15vtkProcessGroupC2Ev' type='func-type' binding='global-binding' visibility='default-visibility' is-defined='yes'/>
    <elf-symbol name='_ZN15vtkProcessGroupD0Ev' type='func-type' binding='global-binding' visibility='default-visibility' is-defined='yes'/>
    <elf-symbol name='_ZN15vtkProcessGroupD1Ev' type='func-type' binding='global-binding' visibility='default-visibility' alias='_ZN15vtkProcessGroupD2Ev' is-defined='yes'/>
    <elf-symbol name='_ZN15vtkProcessGroupD2Ev' type='func-type' binding='global-binding' visibility='default-visibility' is-defined='yes'/>
    <elf-symbol name='_ZN18vtkDummyController15SetCommunicatorEP15vtkCommunicator' type='func-type' binding='global-binding' visibility='default-visibility' is-defined='yes'/>
    <elf-symbol name='_ZN18vtkDummyController18SetRMICommunicatorEP15vtkCommunicator' type='func-type' binding='global-binding' visibility='default-visibility' is-defined='yes'/>
    <elf-symbol name='_ZN18vtkDummyController19SingleMethodExecuteEv' type='func-type' binding='global-binding' visibility='default-visibility' is-defined='yes'/>
    <elf-symbol name='_ZN18vtkDummyController21MultipleMethodExecuteEv' type='func-type' binding='global-binding' visibility='default-visibility' is-defined='yes'/>
    <elf-symbol name='_ZN18vtkDummyController3NewEv' type='func-type' binding='global-binding' visibility='default-visibility' is-defined='yes'/>
    <elf-symbol name='_ZN18vtkDummyController9PrintSelfERSo9vtkIndent' type='func-type' binding='global-binding' visibility='default-visibility' is-defined='yes'/>
    <elf-symbol name='_ZN18vtkDummyControllerC1Ev' type='func-type' binding='global-binding' visibility='default-visibility' is-defined='yes'/>
    <elf-symbol name='_ZN18vtkDummyControllerC2Ev' type='func-type' binding='global-binding' visibility='default-visibility' alias='_ZN18vtkDummyControllerC1Ev' is-defined='yes'/>
    <elf-symbol name='_ZN18vtkDummyControllerD0Ev' type='func-type' binding='global-binding' visibility='default-visibility' is-defined='yes'/>
    <elf-symbol name='_ZN18vtkDummyControllerD1Ev' type='func-type' binding='global-binding' visibility='default-visibility' alias='_ZN18vtkDummyControllerD2Ev' is-defined='yes'/>
    <elf-symbol name='_ZN18vtkDummyControllerD2Ev' type='func-type' binding='global-binding' visibility='default-visibility' is-defined='yes'/>
    <elf-symbol name='_ZN18vtkSubCommunicator13SendVoidArrayEPKvxiii' type='func-type' binding='global-binding' visibility='default-visibility' is-defined='yes'/>
    <elf-symbol name='_ZN18vtkSubCommunicator16ReceiveVoidArrayEPvxiii' type='func-type' binding='global-binding' visibility='default-visibility' is-defined='yes'/>
    <elf-symbol name='_ZN18vtkSubCommunicator3NewEv' type='func-type' binding='global-binding' visibility='default-visibility' is-defined='yes'/>
    <elf-symbol name='_ZN18vtkSubCommunicator8SetGroupEP15vtkProcessGroup' type='func-type' binding='global-binding' visibility='default-visibility' is-defined='yes'/>
    <elf-symbol name='_ZN18vtkSubCommunicator9PrintSelfERSo9vtkIndent' type='func-type' binding='global-binding' visibility='default-visibility' is-defined='yes'/>
    <elf-symbol name='_ZN18vtkSubCommunicatorC1Ev' type='func-type' binding='global-binding' visibility='default-visibility' alias='_ZN18vtkSubCommunicatorC2Ev' is-defined='yes'/>
    <elf-symbol name='_ZN18vtkSubCommunicatorC2Ev' type='func-type' binding='global-binding' visibility='default-visibility' is-defined='yes'/>
    <elf-symbol name='_ZN18vtkSubCommunicatorD0Ev' type='func-type' binding='global-binding' visibility='default-visibility' is-defined='yes'/>
    <elf-symbol name='_ZN18vtkSubCommunicatorD1Ev' type='func-type' binding='global-binding' visibility='default-visibility' alias='_ZN18vtkSubCommunicatorD2Ev' is-defined='yes'/>
    <elf-symbol name='_ZN18vtkSubCommunicatorD2Ev' type='func-type' binding='global-binding' visibility='default-visibility' is-defined='yes'/>
    <elf-symbol name='_ZN19vtkSocketController10InitializeEPiPPPc' type='func-type' binding='global-binding' visibility='default-visibility' is-defined='yes'/>
    <elf-symbol name='_ZN19vtkSocketController15CloseConnectionEv' type='func-type' binding='global-binding' visibility='default-visibility' is-defined='yes'/>
    <elf-symbol name='_ZN19vtkSocketController15SetCommunicatorEP21vtkSocketCommunicator' type='func-type' binding='global-binding' visibility='default-visibility' is-defined='yes'/>
    <elf-symbol name='_ZN19vtkSocketController17WaitForConnectionEi' type='func-type' binding='global-binding' visibility='default-visibility' is-defined='yes'/>
    <elf-symbol name='_ZN19vtkSocketController25CreateCompliantControllerEv' type='func-type' binding='global-binding' visibility='default-visibility' is-defined='yes'/>
    <elf-symbol name='_ZN19vtkSocketController26GetSwapBytesInReceivedDataEv' type='func-type' binding='global-binding' visibility='default-visibility' is-defined='yes'/>
    <elf-symbol name='_ZN19vtkSocketController3NewEv' type='func-type' binding='global-binding' visibility='default-visibility' is-defined='yes'/>
    <elf-symbol name='_ZN19vtkSocketController9ConnectToEPKci' type='func-type' binding='global-binding' visibility='default-visibility' is-defined='yes'/>
    <elf-symbol name='_ZN19vtkSocketController9PrintSelfERSo9vtkIndent' type='func-type' binding='global-binding' visibility='default-visibility' is-defined='yes'/>
    <elf-symbol name='_ZN19vtkSocketControllerC1Ev' type='func-type' binding='global-binding' visibility='default-visibility' is-defined='yes'/>
    <elf-symbol name='_ZN19vtkSocketControllerC2Ev' type='func-type' binding='global-binding' visibility='default-visibility' alias='_ZN19vtkSocketControllerC1Ev' is-defined='yes'/>
    <elf-symbol name='_ZN19vtkSocketControllerD0Ev' type='func-type' binding='global-binding' visibility='default-visibility' is-defined='yes'/>
    <elf-symbol name='_ZN19vtkSocketControllerD1Ev' type='func-type' binding='global-binding' visibility='default-visibility' alias='_ZN19vtkSocketControllerD2Ev' is-defined='yes'/>
    <elf-symbol name='_ZN19vtkSocketControllerD2Ev' type='func-type' binding='global-binding' visibility='default-visibility' is-defined='yes'/>
    <elf-symbol name='_ZN20vtkDummyCommunicator3NewEv' type='func-type' binding='global-binding' visibility='default-visibility' is-defined='yes'/>
    <elf-symbol name='_ZN20vtkDummyCommunicator9PrintSelfERSo9vtkIndent' type='func-type' binding='global-binding' visibility='default-visibility' is-defined='yes'/>
    <elf-symbol name='_ZN20vtkDummyCommunicatorC1Ev' type='func-type' binding='global-binding' visibility='default-visibility' alias='_ZN20vtkDummyCommunicatorC2Ev' is-defined='yes'/>
    <elf-symbol name='_ZN20vtkDummyCommunicatorC2Ev' type='func-type' binding='global-binding' visibility='default-visibility' is-defined='yes'/>
    <elf-symbol name='_ZN20vtkDummyCommunicatorD0Ev' type='func-type' binding='global-binding' visibility='default-visibility' is-defined='yes'/>
    <elf-symbol name='_ZN20vtkDummyCommunicatorD1Ev' type='func-type' binding='global-binding' visibility='default-visibility' alias='_ZN20vtkDummyCommunicatorD2Ev' is-defined='yes'/>
    <elf-symbol name='_ZN20vtkDummyCommunicatorD2Ev' type='func-type' binding='global-binding' visibility='default-visibility' is-defined='yes'/>
    <elf-symbol name='_ZN21vtkMultiProcessStream10GetRawDataERPhRj' type='func-type' binding='global-binding' visibility='default-visibility' is-defined='yes'/>
    <elf-symbol name='_ZN21vtkMultiProcessStream10SetRawDataEPKhj' type='func-type' binding='global-binding' visibility='default-visibility' is-defined='yes'/>
    <elf-symbol name='_ZN21vtkMultiProcessStream10SetRawDataERKSt6vectorIhSaIhEE' type='func-type' binding='global-binding' visibility='default-visibility' is-defined='yes'/>
    <elf-symbol name='_ZN21vtkMultiProcessStream3PopERPcRj' type='func-type' binding='global-binding' visibility='default-visibility' is-defined='yes'/>
    <elf-symbol name='_ZN21vtkMultiProcessStream3PopERPdRj' type='func-type' binding='global-binding' visibility='default-visibility' is-defined='yes'/>
    <elf-symbol name='_ZN21vtkMultiProcessStream3PopERPfRj' type='func-type' binding='global-binding' visibility='default-visibility' is-defined='yes'/>
    <elf-symbol name='_ZN21vtkMultiProcessStream3PopERPhRj' type='func-type' binding='global-binding' visibility='default-visibility' is-defined='yes'/>
    <elf-symbol name='_ZN21vtkMultiProcessStream3PopERPiRj' type='func-type' binding='global-binding' visibility='default-visibility' is-defined='yes'/>
    <elf-symbol name='_ZN21vtkMultiProcessStream3PopERPjRj' type='func-type' binding='global-binding' visibility='default-visibility' is-defined='yes'/>
    <elf-symbol name='_ZN21vtkMultiProcessStream3PopERPxRj' type='func-type' binding='global-binding' visibility='default-visibility' is-defined='yes'/>
    <elf-symbol name='_ZN21vtkMultiProcessStream3PopERPyRj' type='func-type' binding='global-binding' visibility='default-visibility' is-defined='yes'/>
    <elf-symbol name='_ZN21vtkMultiProcessStream4PushEPcj' type='func-type' binding='global-binding' visibility='default-visibility' is-defined='yes'/>
    <elf-symbol name='_ZN21vtkMultiProcessStream4PushEPdj' type='func-type' binding='global-binding' visibility='default-visibility' is-defined='yes'/>
    <elf-symbol name='_ZN21vtkMultiProcessStream4PushEPfj' type='func-type' binding='global-binding' visibility='default-visibility' is-defined='yes'/>
    <elf-symbol name='_ZN21vtkMultiProcessStream4PushEPhj' type='func-type' binding='global-binding' visibility='default-visibility' is-defined='yes'/>
    <elf-symbol name='_ZN21vtkMultiProcessStream4PushEPij' type='func-type' binding='global-binding' visibility='default-visibility' is-defined='yes'/>
    <elf-symbol name='_ZN21vtkMultiProcessStream4PushEPjj' type='func-type' binding='global-binding' visibility='default-visibility' is-defined='yes'/>
    <elf-symbol name='_ZN21vtkMultiProcessStream4PushEPxj' type='func-type' binding='global-binding' visibility='default-visibility' is-defined='yes'/>
    <elf-symbol name='_ZN21vtkMultiProcessStream4PushEPyj' type='func-type' binding='global-binding' visibility='default-visibility' is-defined='yes'/>
    <elf-symbol name='_ZN21vtkMultiProcessStream4SizeEv' type='func-type' binding='global-binding' visibility='default-visibility' is-defined='yes'/>
    <elf-symbol name='_ZN21vtkMultiProcessStream5EmptyEv' type='func-type' binding='global-binding' visibility='default-visibility' is-defined='yes'/>
    <elf-symbol name='_ZN21vtkMultiProcessStream5ResetEv' type='func-type' binding='global-binding' visibility='default-visibility' is-defined='yes'/>
    <elf-symbol name='_ZN21vtkMultiProcessStreamC1ERKS_' type='func-type' binding='global-binding' visibility='default-visibility' is-defined='yes'/>
    <elf-symbol name='_ZN21vtkMultiProcessStreamC1Ev' type='func-type' binding='global-binding' visibility='default-visibility' alias='_ZN21vtkMultiProcessStreamC2Ev' is-defined='yes'/>
    <elf-symbol name='_ZN21vtkMultiProcessStreamC2ERKS_' type='func-type' binding='global-binding' visibility='default-visibility' alias='_ZN21vtkMultiProcessStreamC1ERKS_' is-defined='yes'/>
    <elf-symbol name='_ZN21vtkMultiProcessStreamC2Ev' type='func-type' binding='global-binding' visibility='default-visibility' is-defined='yes'/>
    <elf-symbol name='_ZN21vtkMultiProcessStreamD1Ev' type='func-type' binding='global-binding' visibility='default-visibility' alias='_ZN21vtkMultiProcessStreamD2Ev' is-defined='yes'/>
    <elf-symbol name='_ZN21vtkMultiProcessStreamD2Ev' type='func-type' binding='global-binding' visibility='default-visibility' is-defined='yes'/>
    <elf-symbol name='_ZN21vtkMultiProcessStreamaSERKS_' type='func-type' binding='global-binding' visibility='default-visibility' is-defined='yes'/>
    <elf-symbol name='_ZN21vtkMultiProcessStreamlsERKS_' type='func-type' binding='global-binding' visibility='default-visibility' is-defined='yes'/>
    <elf-symbol name='_ZN21vtkMultiProcessStreamlsERKSs' type='func-type' binding='global-binding' visibility='default-visibility' is-defined='yes'/>
    <elf-symbol name='_ZN21vtkMultiProcessStreamlsEc' type='func-type' binding='global-binding' visibility='default-visibility' is-defined='yes'/>
    <elf-symbol name='_ZN21vtkMultiProcessStreamlsEd' type='func-type' binding='global-binding' visibility='default-visibility' is-defined='yes'/>
    <elf-symbol name='_ZN21vtkMultiProcessStreamlsEf' type='func-type' binding='global-binding' visibility='default-visibility' is-defined='yes'/>
    <elf-symbol name='_ZN21vtkMultiProcessStreamlsEh' type='func-type' binding='global-binding' visibility='default-visibility' is-defined='yes'/>
    <elf-symbol name='_ZN21vtkMultiProcessStreamlsEi' type='func-type' binding='global-binding' visibility='default-visibility' is-defined='yes'/>
    <elf-symbol name='_ZN21vtkMultiProcessStreamlsEj' type='func-type' binding='global-binding' visibility='default-visibility' is-defined='yes'/>
    <elf-symbol name='_ZN21vtkMultiProcessStreamlsEx' type='func-type' binding='global-binding' visibility='default-visibility' is-defined='yes'/>
    <elf-symbol name='_ZN21vtkMultiProcessStreamlsEy' type='func-type' binding='global-binding' visibility='default-visibility' is-defined='yes'/>
    <elf-symbol name='_ZN21vtkMultiProcessStreamrsERS_' type='func-type' binding='global-binding' visibility='default-visibility' is-defined='yes'/>
    <elf-symbol name='_ZN21vtkMultiProcessStreamrsERSs' type='func-type' binding='global-binding' visibility='default-visibility' is-defined='yes'/>
    <elf-symbol name='_ZN21vtkMultiProcessStreamrsERc' type='func-type' binding='global-binding' visibility='default-visibility' is-defined='yes'/>
    <elf-symbol name='_ZN21vtkMultiProcessStreamrsERd' type='func-type' binding='global-binding' visibility='default-visibility' is-defined='yes'/>
    <elf-symbol name='_ZN21vtkMultiProcessStreamrsERf' type='func-type' binding='global-binding' visibility='default-visibility' is-defined='yes'/>
    <elf-symbol name='_ZN21vtkMultiProcessStreamrsERh' type='func-type' binding='global-binding' visibility='default-visibility' is-defined='yes'/>
    <elf-symbol name='_ZN21vtkMultiProcessStreamrsERi' type='func-type' binding='global-binding' visibility='default-visibility' is-defined='yes'/>
    <elf-symbol name='_ZN21vtkMultiProcessStreamrsERj' type='func-type' binding='global-binding' visibility='default-visibility' is-defined='yes'/>
    <elf-symbol name='_ZN21vtkMultiProcessStreamrsERx' type='func-type' binding='global-binding' visibility='default-visibility' is-defined='yes'/>
    <elf-symbol name='_ZN21vtkMultiProcessStreamrsERy' type='func-type' binding='global-binding' visibility='default-visibility' is-defined='yes'/>
    <elf-symbol name='_ZN21vtkSocketCommunicator10GetVersionEv' type='func-type' binding='global-binding' visibility='default-visibility' is-defined='yes'/>
    <elf-symbol name='_ZN21vtkSocketCommunicator10SendTaggedEPKviiiPKc' type='func-type' binding='global-binding' visibility='default-visibility' is-defined='yes'/>
    <elf-symbol name='_ZN21vtkSocketCommunicator12FixByteOrderEPvii' type='func-type' binding='global-binding' visibility='default-visibility' is-defined='yes'/>
    <elf-symbol name='_ZN21vtkSocketCommunicator12GetLogStreamEv' type='func-type' binding='global-binding' visibility='default-visibility' is-defined='yes'/>
    <elf-symbol name='_ZN21vtkSocketCommunicator12SetLogStreamEPSo' type='func-type' binding='global-binding' visibility='default-visibility' is-defined='yes'/>
    <elf-symbol name='_ZN21vtkSocketCommunicator13ReceiveTaggedEPviiiPKc' type='func-type' binding='global-binding' visibility='default-visibility' is-defined='yes'/>
    <elf-symbol name='_ZN21vtkSocketCommunicator13SendVoidArrayEPKvxiii' type='func-type' binding='global-binding' visibility='default-visibility' is-defined='yes'/>
    <elf-symbol name='_ZN21vtkSocketCommunicator14GetIsConnectedEv' type='func-type' binding='global-binding' visibility='default-visibility' is-defined='yes'/>
    <elf-symbol name='_ZN21vtkSocketCommunicator15CloseConnectionEv' type='func-type' binding='global-binding' visibility='default-visibility' is-defined='yes'/>
    <elf-symbol name='_ZN21vtkSocketCommunicator15GatherVoidArrayEPKvPvxii' type='func-type' binding='global-binding' visibility='default-visibility' is-defined='yes'/>
    <elf-symbol name='_ZN21vtkSocketCommunicator15ReduceVoidArrayEPKvPvxiPN15vtkCommunicator9OperationEi' type='func-type' binding='global-binding' visibility='default-visibility' is-defined='yes'/>
    <elf-symbol name='_ZN21vtkSocketCommunicator15ReduceVoidArrayEPKvPvxiii' type='func-type' binding='global-binding' visibility='default-visibility' is-defined='yes'/>
    <elf-symbol name='_ZN21vtkSocketCommunicator16GatherVVoidArrayEPKvPvxPxS3_ii' type='func-type' binding='global-binding' visibility='default-visibility' is-defined='yes'/>
    <elf-symbol name='_ZN21vtkSocketCommunicator16ReceiveVoidArrayEPvxiii' type='func-type' binding='global-binding' visibility='default-visibility' is-defined='yes'/>
    <elf-symbol name='_ZN21vtkSocketCommunicator16ScatterVoidArrayEPKvPvxii' type='func-type' binding='global-binding' visibility='default-visibility' is-defined='yes'/>
    <elf-symbol name='_ZN21vtkSocketCommunicator17ScatterVVoidArrayEPKvPvPxS3_xii' type='func-type' binding='global-binding' visibility='default-visibility' is-defined='yes'/>
    <elf-symbol name='_ZN21vtkSocketCommunicator17WaitForConnectionEP15vtkServerSocketm' type='func-type' binding='global-binding' visibility='default-visibility' is-defined='yes'/>
    <elf-symbol name='_ZN21vtkSocketCommunicator17WaitForConnectionEi' type='func-type' binding='global-binding' visibility='default-visibility' is-defined='yes'/>
    <elf-symbol name='_ZN21vtkSocketCommunicator18AllGatherVoidArrayEPKvPvxi' type='func-type' binding='global-binding' visibility='default-visibility' is-defined='yes'/>
    <elf-symbol name='_ZN21vtkSocketCommunicator18AllReduceVoidArrayEPKvPvxiPN15vtkCommunicator9OperationE' type='func-type' binding='global-binding' visibility='default-visibility' is-defined='yes'/>
    <elf-symbol name='_ZN21vtkSocketCommunicator18AllReduceVoidArrayEPKvPvxii' type='func-type' binding='global-binding' visibility='default-visibility' is-defined='yes'/>
    <elf-symbol name='_ZN21vtkSocketCommunicator18BroadcastVoidArrayEPvxii' type='func-type' binding='global-binding' visibility='default-visibility' is-defined='yes'/>
    <elf-symbol name='_ZN21vtkSocketCommunicator19AllGatherVVoidArrayEPKvPvxPxS3_i' type='func-type' binding='global-binding' visibility='default-visibility' is-defined='yes'/>
    <elf-symbol name='_ZN21vtkSocketCommunicator19ClientSideHandshakeEv' type='func-type' binding='global-binding' visibility='default-visibility' is-defined='yes'/>
    <elf-symbol name='_ZN21vtkSocketCommunicator19ServerSideHandshakeEv' type='func-type' binding='global-binding' visibility='default-visibility' is-defined='yes'/>
    <elf-symbol name='_ZN21vtkSocketCommunicator20HasBufferredMessagesEv' type='func-type' binding='global-binding' visibility='default-visibility' is-defined='yes'/>
    <elf-symbol name='_ZN21vtkSocketCommunicator20ReceivePartialTaggedEPviiiPKc' type='func-type' binding='global-binding' visibility='default-visibility' is-defined='yes'/>
    <elf-symbol name='_ZN21vtkSocketCommunicator20SetNumberOfProcessesEi' type='func-type' binding='global-binding' visibility='default-visibility' is-defined='yes'/>
    <elf-symbol name='_ZN21vtkSocketCommunicator21CheckForErrorInternalEi' type='func-type' binding='global-binding' visibility='default-visibility' is-defined='yes'/>
    <elf-symbol name='_ZN21vtkSocketCommunicator24ReceivedTaggedFromBufferEPviiiPKc' type='func-type' binding='global-binding' visibility='default-visibility' is-defined='yes'/>
    <elf-symbol name='_ZN21vtkSocketCommunicator3NewEv' type='func-type' binding='global-binding' visibility='default-visibility' is-defined='yes'/>
    <elf-symbol name='_ZN21vtkSocketCommunicator7BarrierEv' type='func-type' binding='global-binding' visibility='default-visibility' is-defined='yes'/>
    <elf-symbol name='_ZN21vtkSocketCommunicator9ConnectToEPKci' type='func-type' binding='global-binding' visibility='default-visibility' is-defined='yes'/>
    <elf-symbol name='_ZN21vtkSocketCommunicator9HandshakeEv' type='func-type' binding='global-binding' visibility='default-visibility' is-defined='yes'/>
    <elf-symbol name='_ZN21vtkSocketCommunicator9LogTaggedEPKcPKviiiS1_' type='func-type' binding='global-binding' visibility='default-visibility' is-defined='yes'/>
    <elf-symbol name='_ZN21vtkSocketCommunicator9LogToFileEPKc' type='func-type' binding='global-binding' visibility='default-visibility' is-defined='yes'/>
    <elf-symbol name='_ZN21vtkSocketCommunicator9LogToFileEPKci' type='func-type' binding='global-binding' visibility='default-visibility' is-defined='yes'/>
    <elf-symbol name='_ZN21vtkSocketCommunicator9PrintSelfERSo9vtkIndent' type='func-type' binding='global-binding' visibility='default-visibility' is-defined='yes'/>
    <elf-symbol name='_ZN21vtkSocketCommunicator9SetSocketEP15vtkClientSocket' type='func-type' binding='global-binding' visibility='default-visibility' is-defined='yes'/>
    <elf-symbol name='_ZN21vtkSocketCommunicatorC1Ev' type='func-type' binding='global-binding' visibility='default-visibility' alias='_ZN21vtkSocketCommunicatorC2Ev' is-defined='yes'/>
    <elf-symbol name='_ZN21vtkSocketCommunicatorC2Ev' type='func-type' binding='global-binding' visibility='default-visibility' is-defined='yes'/>
    <elf-symbol name='_ZN21vtkSocketCommunicatorD0Ev' type='func-type' binding='global-binding' visibility='default-visibility' is-defined='yes'/>
    <elf-symbol name='_ZN21vtkSocketCommunicatorD1Ev' type='func-type' binding='global-binding' visibility='default-visibility' alias='_ZN21vtkSocketCommunicatorD2Ev' is-defined='yes'/>
    <elf-symbol name='_ZN21vtkSocketCommunicatorD2Ev' type='func-type' binding='global-binding' visibility='default-visibility' is-defined='yes'/>
    <elf-symbol name='_ZN22vtkFieldDataSerializer11DeserializeER21vtkMultiProcessStreamP12vtkFieldData' type='func-type' binding='global-binding' visibility='default-visibility' is-defined='yes'/>
    <elf-symbol name='_ZN22vtkFieldDataSerializer15SerializeTuplesEP9vtkIdListP12vtkFieldDataR21vtkMultiProcessStream' type='func-type' binding='global-binding' visibility='default-visibility' is-defined='yes'/>
    <elf-symbol name='_ZN22vtkFieldDataSerializer17SerializeMetaDataEP12vtkFieldDataR21vtkMultiProcessStream' type='func-type' binding='global-binding' visibility='default-visibility' is-defined='yes'/>
    <elf-symbol name='_ZN22vtkFieldDataSerializer18SerializeDataArrayEP12vtkDataArrayR21vtkMultiProcessStream' type='func-type' binding='global-binding' visibility='default-visibility' is-defined='yes'/>
    <elf-symbol name='_ZN22vtkFieldDataSerializer18SerializeSubExtentEPiS0_P12vtkFieldDataR21vtkMultiProcessStream' type='func-type' binding='global-binding' visibility='default-visibility' is-defined='yes'/>
    <elf-symbol name='_ZN22vtkFieldDataSerializer19DeserializeMetaDataER21vtkMultiProcessStreamP14vtkStringArrayP11vtkIntArrayS5_' type='func-type' binding='global-binding' visibility='default-visibility' is-defined='yes'/>
    <elf-symbol name='_ZN22vtkFieldDataSerializer20DeserializeDataArrayER21vtkMultiProcessStreamRP12vtkDataArray' type='func-type' binding='global-binding' visibility='default-visibility' is-defined='yes'/>
    <elf-symbol name='_ZN22vtkFieldDataSerializer20ExtractSubExtentDataEPiS0_P12vtkDataArray' type='func-type' binding='global-binding' visibility='default-visibility' is-defined='yes'/>
    <elf-symbol name='_ZN22vtkFieldDataSerializer21ExtractSelectedTuplesEP9vtkIdListP12vtkDataArray' type='func-type' binding='global-binding' visibility='default-visibility' is-defined='yes'/>
    <elf-symbol name='_ZN22vtkFieldDataSerializer3NewEv' type='func-type' binding='global-binding' visibility='default-visibility' is-defined='yes'/>
    <elf-symbol name='_ZN22vtkFieldDataSerializer9PrintSelfERSo9vtkIndent' type='func-type' binding='global-binding' visibility='default-visibility' is-defined='yes'/>
    <elf-symbol name='_ZN22vtkFieldDataSerializer9SerializeEP12vtkFieldDataR21vtkMultiProcessStream' type='func-type' binding='global-binding' visibility='default-visibility' is-defined='yes'/>
    <elf-symbol name='_ZN22vtkFieldDataSerializerC1Ev' type='func-type' binding='global-binding' visibility='default-visibility' alias='_ZN22vtkFieldDataSerializerC2Ev' is-defined='yes'/>
    <elf-symbol name='_ZN22vtkFieldDataSerializerC2Ev' type='func-type' binding='global-binding' visibility='default-visibility' is-defined='yes'/>
    <elf-symbol name='_ZN22vtkFieldDataSerializerD0Ev' type='func-type' binding='global-binding' visibility='default-visibility' is-defined='yes'/>
    <elf-symbol name='_ZN22vtkFieldDataSerializerD1Ev' type='func-type' binding='global-binding' visibility='default-visibility' alias='_ZN22vtkFieldDataSerializerD2Ev' is-defined='yes'/>
    <elf-symbol name='_ZN22vtkFieldDataSerializerD2Ev' type='func-type' binding='global-binding' visibility='default-visibility' is-defined='yes'/>
    <elf-symbol name='_ZN25vtkMultiProcessController10ProcessRMIEiPvii' type='func-type' binding='global-binding' visibility='default-visibility' is-defined='yes'/>
    <elf-symbol name='_ZN25vtkMultiProcessController10TriggerRMIEiPvii' type='func-type' binding='global-binding' visibility='default-visibility' is-defined='yes'/>
    <elf-symbol name='_ZN25vtkMultiProcessController11ProcessRMIsEii' type='func-type' binding='global-binding' visibility='default-visibility' is-defined='yes'/>
    <elf-symbol name='_ZN25vtkMultiProcessController11ProcessRMIsEv' type='func-type' binding='global-binding' visibility='default-visibility' is-defined='yes'/>
    <elf-symbol name='_ZN25vtkMultiProcessController14AddRMICallbackEPFvPvS0_iiES0_i' type='func-type' binding='global-binding' visibility='default-visibility' is-defined='yes'/>
    <elf-symbol name='_ZN25vtkMultiProcessController14RemoveFirstRMIEi' type='func-type' binding='global-binding' visibility='default-visibility' is-defined='yes'/>
    <elf-symbol name='_ZN25vtkMultiProcessController15SetSingleMethodEPFvPS_PvES1_' type='func-type' binding='global-binding' visibility='default-visibility' is-defined='yes'/>
    <elf-symbol name='_ZN25vtkMultiProcessController16TriggerBreakRMIsEv' type='func-type' binding='global-binding' visibility='default-visibility' is-defined='yes'/>
    <elf-symbol name='_ZN25vtkMultiProcessController17GetLocalProcessIdEv' type='func-type' binding='global-binding' visibility='default-visibility' is-defined='yes'/>
    <elf-symbol name='_ZN25vtkMultiProcessController17GetMultipleMethodEiRPFvPS_PvERS1_' type='func-type' binding='global-binding' visibility='default-visibility' is-defined='yes'/>
    <elf-symbol name='_ZN25vtkMultiProcessController17RemoveRMICallbackEm' type='func-type' binding='global-binding' visibility='default-visibility' is-defined='yes'/>
    <elf-symbol name='_ZN25vtkMultiProcessController17SetMultipleMethodEiPFvPS_PvES1_' type='func-type' binding='global-binding' visibility='default-visibility' is-defined='yes'/>
    <elf-symbol name='_ZN25vtkMultiProcessController18GetLocalControllerEv' type='func-type' binding='global-binding' visibility='default-visibility' is-defined='yes'/>
    <elf-symbol name='_ZN25vtkMultiProcessController18TriggerRMIInternalEiPviib' type='func-type' binding='global-binding' visibility='default-visibility' is-defined='yes'/>
    <elf-symbol name='_ZN25vtkMultiProcessController19CreateSubControllerEP15vtkProcessGroup' type='func-type' binding='global-binding' visibility='default-visibility' is-defined='yes'/>
    <elf-symbol name='_ZN25vtkMultiProcessController19GetGlobalControllerEv' type='func-type' binding='global-binding' visibility='default-visibility' is-defined='yes'/>
    <elf-symbol name='_ZN25vtkMultiProcessController19PartitionControllerEii' type='func-type' binding='global-binding' visibility='default-visibility' is-defined='yes'/>
    <elf-symbol name='_ZN25vtkMultiProcessController19SetGlobalControllerEPS_' type='func-type' binding='global-binding' visibility='default-visibility' is-defined='yes'/>
    <elf-symbol name='_ZN25vtkMultiProcessController20GetNumberOfProcessesEv' type='func-type' binding='global-binding' visibility='default-visibility' is-defined='yes'/>
    <elf-symbol name='_ZN25vtkMultiProcessController20SetNumberOfProcessesEi' type='func-type' binding='global-binding' visibility='default-visibility' is-defined='yes'/>
    <elf-symbol name='_ZN25vtkMultiProcessController21RemoveAllRMICallbacksEi' type='func-type' binding='global-binding' visibility='default-visibility' is-defined='yes'/>
    <elf-symbol name='_ZN25vtkMultiProcessController22SetSingleProcessObjectEP10vtkProcess' type='func-type' binding='global-binding' visibility='default-visibility' is-defined='yes'/>
    <elf-symbol name='_ZN25vtkMultiProcessController23TriggerRMIOnAllChildrenEPvii' type='func-type' binding='global-binding' visibility='default-visibility' is-defined='yes'/>
    <elf-symbol name='_ZN25vtkMultiProcessController6AddRMIEPFvPvS0_iiES0_i' type='func-type' binding='global-binding' visibility='default-visibility' is-defined='yes'/>
    <elf-symbol name='_ZN25vtkMultiProcessController9PrintSelfERSo9vtkIndent' type='func-type' binding='global-binding' visibility='default-visibility' is-defined='yes'/>
    <elf-symbol name='_ZN25vtkMultiProcessController9RemoveRMIEm' type='func-type' binding='global-binding' visibility='default-visibility' is-defined='yes'/>
    <elf-symbol name='_ZN25vtkMultiProcessControllerC1Ev' type='func-type' binding='global-binding' visibility='default-visibility' is-defined='yes'/>
    <elf-symbol name='_ZN25vtkMultiProcessControllerC2Ev' type='func-type' binding='global-binding' visibility='default-visibility' alias='_ZN25vtkMultiProcessControllerC1Ev' is-defined='yes'/>
    <elf-symbol name='_ZN25vtkMultiProcessControllerD0Ev' type='func-type' binding='global-binding' visibility='default-visibility' is-defined='yes'/>
    <elf-symbol name='_ZN25vtkMultiProcessControllerD1Ev' type='func-type' binding='global-binding' visibility='default-visibility' alias='_ZN25vtkMultiProcessControllerD2Ev' is-defined='yes'/>
    <elf-symbol name='_ZN25vtkMultiProcessControllerD2Ev' type='func-type' binding='global-binding' visibility='default-visibility' is-defined='yes'/>
    <elf-symbol name='_ZNK11vtkSubGroup13PrintSubGroupEv' type='func-type' binding='global-binding' visibility='default-visibility' is-defined='yes'/>
    <elf-symbol name='_ZNK21vtkMultiProcessStream10GetRawDataERSt6vectorIhSaIhEE' type='func-type' binding='global-binding' visibility='default-visibility' is-defined='yes'/>
    <elf-symbol name='_ZNSt10_List_baseISt6vectorIcSaIcEESaIS2_EED1Ev' type='func-type' binding='weak-binding' visibility='default-visibility' alias='_ZNSt10_List_baseISt6vectorIcSaIcEESaIS2_EED2Ev' is-defined='yes'/>
    <elf-symbol name='_ZNSt10_List_baseISt6vectorIcSaIcEESaIS2_EED2Ev' type='func-type' binding='weak-binding' visibility='default-visibility' is-defined='yes'/>
    <elf-symbol name='_ZNSt11_Deque_baseIhSaIhEE17_M_initialize_mapEm' type='func-type' binding='weak-binding' visibility='default-visibility' is-defined='yes'/>
    <elf-symbol name='_ZNSt5dequeIhSaIhEE13_M_insert_auxESt15_Deque_iteratorIhRhPhEmRKh' type='func-type' binding='weak-binding' visibility='default-visibility' is-defined='yes'/>
    <elf-symbol name='_ZNSt5dequeIhSaIhEE13_M_insert_auxISt15_Deque_iteratorIhRKhPS4_EEEvS3_IhRhPhET_SB_m' type='func-type' binding='weak-binding' visibility='default-visibility' is-defined='yes'/>
    <elf-symbol name='_ZNSt5dequeIhSaIhEE13_M_insert_auxISt15_Deque_iteratorIhRhPhEEEvS6_T_S7_m' type='func-type' binding='weak-binding' visibility='default-visibility' is-defined='yes'/>
    <elf-symbol name='_ZNSt5dequeIhSaIhEE17_M_reallocate_mapEmb' type='func-type' binding='weak-binding' visibility='default-visibility' is-defined='yes'/>
    <elf-symbol name='_ZNSt5dequeIhSaIhEE19_M_range_insert_auxISt15_Deque_iteratorIhRKhPS4_EEEvS3_IhRhPhET_SB_St20forward_iterator_tag' type='func-type' binding='weak-binding' visibility='default-visibility' is-defined='yes'/>
    <elf-symbol name='_ZNSt5dequeIhSaIhEE19_M_range_insert_auxISt15_Deque_iteratorIhRhPhEEEvS6_T_S7_St20forward_iterator_tag' type='func-type' binding='weak-binding' visibility='default-visibility' is-defined='yes'/>
    <elf-symbol name='_ZNSt5dequeIhSaIhEE22_M_reserve_map_at_backEm' type='func-type' binding='weak-binding' visibility='default-visibility' is-defined='yes'/>
    <elf-symbol name='_ZNSt5dequeIhSaIhEE23_M_new_elements_at_backEm' type='func-type' binding='weak-binding' visibility='default-visibility' is-defined='yes'/>
    <elf-symbol name='_ZNSt5dequeIhSaIhEE24_M_new_elements_at_frontEm' type='func-type' binding='weak-binding' visibility='default-visibility' is-defined='yes'/>
    <elf-symbol name='_ZNSt5dequeIhSaIhEE28_M_reserve_elements_at_frontEm' type='func-type' binding='weak-binding' visibility='default-visibility' is-defined='yes'/>
    <elf-symbol name='_ZNSt5dequeIhSaIhEEaSERKS1_' type='func-type' binding='weak-binding' visibility='default-visibility' is-defined='yes'/>
    <elf-symbol name='_ZNSt6vectorIN25vtkMultiProcessController11vtkInternal14vtkRMICallbackESaIS2_EE13_M_insert_auxEN9__gnu_cxx17__normal_iteratorIPS2_S4_EERKS2_' type='func-type' binding='weak-binding' visibility='default-visibility' is-defined='yes'/>
    <elf-symbol name='_ZNSt6vectorIPN6vtksys15_Hashtable_nodeISt4pairIKiPFvP25vtkMultiProcessControllerPvEEEESaISB_EE14_M_fill_insertEN9__gnu_cxx17__normal_iteratorIPSB_SD_EEmRKSB_' type='func-type' binding='weak-binding' visibility='default-visibility' is-defined='yes'/>
    <elf-symbol name='_ZNSt6vectorIPN6vtksys15_Hashtable_nodeISt4pairIKiPFvP25vtkMultiProcessControllerPvEEEESaISB_EE7reserveEm' type='func-type' binding='weak-binding' visibility='default-visibility' is-defined='yes'/>
    <elf-symbol name='_ZNSt6vectorIPN6vtksys15_Hashtable_nodeISt4pairIKiPvEEESaIS7_EE14_M_fill_insertEN9__gnu_cxx17__normal_iteratorIPS7_S9_EEmRKS7_' type='func-type' binding='weak-binding' visibility='default-visibility' is-defined='yes'/>
    <elf-symbol name='_ZNSt6vectorIPN6vtksys15_Hashtable_nodeISt4pairIKiPvEEESaIS7_EE7reserveEm' type='func-type' binding='weak-binding' visibility='default-visibility' is-defined='yes'/>
    <elf-symbol name='_ZNSt6vectorIPN6vtksys15_Hashtable_nodeISt4pairIKiS_IN25vtkMultiProcessController11vtkInternal14vtkRMICallbackESaIS6_EEEEESaISB_EE14_M_fill_insertEN9__gnu_cxx17__normal_iteratorIPSB_SD_EEmRKSB_' type='func-type' binding='weak-binding' visibility='default-visibility' is-defined='yes'/>
    <elf-symbol name='_ZNSt6vectorIPN6vtksys15_Hashtable_nodeISt4pairIKiS_IN25vtkMultiProcessController11vtkInternal14vtkRMICallbackESaIS6_EEEEESaISB_EE7reserveEm' type='func-type' binding='weak-binding' visibility='default-visibility' is-defined='yes'/>
    <elf-symbol name='_ZNSt6vectorIbSaIbEE14_M_fill_insertESt13_Bit_iteratormb' type='func-type' binding='weak-binding' visibility='default-visibility' is-defined='yes'/>
    <elf-symbol name='_ZNSt6vectorIcSaIcEE15_M_range_insertIPcEEvN9__gnu_cxx17__normal_iteratorIS3_S1_EET_S7_St20forward_iterator_tag' type='func-type' binding='weak-binding' visibility='default-visibility' is-defined='yes'/>
    <elf-symbol name='_ZNSt6vectorIhSaIhEE13_M_insert_auxEN9__gnu_cxx17__normal_iteratorIPhS1_EERKh' type='func-type' binding='weak-binding' visibility='default-visibility' is-defined='yes'/>
    <elf-symbol name='_ZNSt6vectorIhSaIhEE14_M_fill_insertEN9__gnu_cxx17__normal_iteratorIPhS1_EEmRKh' type='func-type' binding='weak-binding' visibility='default-visibility' is-defined='yes'/>
    <elf-symbol name='_ZNSt6vectorIiSaIiEE14_M_fill_insertEN9__gnu_cxx17__normal_iteratorIPiS1_EEmRKi' type='func-type' binding='weak-binding' visibility='default-visibility' is-defined='yes'/>
    <elf-symbol name='_ZNSt6vectorIiSaIiEE6resizeEmi' type='func-type' binding='weak-binding' visibility='default-visibility' is-defined='yes'/>
    <elf-symbol name='_ZNSt8_Rb_treeIiSt4pairIKiSt4listISt6vectorIcSaIcEESaIS5_EEESt10_Select1stIS8_ESt4lessIiESaIS8_EE10_M_insert_EPKSt18_Rb_tree_node_baseSH_RKS8_' type='func-type' binding='weak-binding' visibility='default-visibility' is-defined='yes'/>
    <elf-symbol name='_ZNSt8_Rb_treeIiSt4pairIKiSt4listISt6vectorIcSaIcEESaIS5_EEESt10_Select1stIS8_ESt4lessIiESaIS8_EE16_M_insert_uniqueERKS8_' type='func-type' binding='weak-binding' visibility='default-visibility' is-defined='yes'/>
    <elf-symbol name='_ZNSt8_Rb_treeIiSt4pairIKiSt4listISt6vectorIcSaIcEESaIS5_EEESt10_Select1stIS8_ESt4lessIiESaIS8_EE17_M_insert_unique_ESt23_Rb_tree_const_iteratorIS8_ERKS8_' type='func-type' binding='weak-binding' visibility='default-visibility' is-defined='yes'/>
    <elf-symbol name='_ZNSt8_Rb_treeIiSt4pairIKiSt4listISt6vectorIcSaIcEESaIS5_EEESt10_Select1stIS8_ESt4lessIiESaIS8_EE8_M_eraseEPSt13_Rb_tree_nodeIS8_E' type='func-type' binding='weak-binding' visibility='default-visibility' is-defined='yes'/>
    <elf-symbol name='_ZSt13__adjust_heapIPiliEvT_T0_S2_T1_' type='func-type' binding='weak-binding' visibility='default-visibility' is-defined='yes'/>
    <elf-symbol name='_ZSt16__insertion_sortIPiEvT_S1_' type='func-type' binding='weak-binding' visibility='default-visibility' is-defined='yes'/>
    <elf-symbol name='_ZSt16__introsort_loopIPilEvT_S1_T0_' type='func-type' binding='weak-binding' visibility='default-visibility' is-defined='yes'/>
    <elf-symbol name='_ZSt4copyIPKxPxET0_T_S4_S3_' type='func-type' binding='weak-binding' visibility='default-visibility' is-defined='yes'/>
    <elf-symbol name='_ZSt4fillIhEvRKSt15_Deque_iteratorIT_RS1_PS1_ES6_RKS1_' type='func-type' binding='weak-binding' visibility='default-visibility' is-defined='yes'/>
    <elf-symbol name='_fini' type='func-type' binding='global-binding' visibility='default-visibility' is-defined='yes'/>
    <elf-symbol name='_init' type='func-type' binding='global-binding' visibility='default-visibility' is-defined='yes'/>
  </elf-function-symbols>
  <elf-variable-symbols>
    <elf-symbol name='_ZN15vtkCommunicator7UseCopyE' size='4' type='object-type' binding='global-binding' visibility='default-visibility' is-defined='yes'/>
    <elf-symbol name='_ZN19vtkSocketController11InitializedE' size='4' type='object-type' binding='global-binding' visibility='default-visibility' is-defined='yes'/>
    <elf-symbol name='_ZTI10vtkProcess' size='24' type='object-type' binding='weak-binding' visibility='default-visibility' is-defined='yes'/>
    <elf-symbol name='_ZTI11vtkSubGroup' size='24' type='object-type' binding='weak-binding' visibility='default-visibility' is-defined='yes'/>
    <elf-symbol name='_ZTI15vtkCommunicator' size='24' type='object-type' binding='weak-binding' visibility='default-visibility' is-defined='yes'/>
    <elf-symbol name='_ZTI15vtkProcessGroup' size='24' type='object-type' binding='weak-binding' visibility='default-visibility' is-defined='yes'/>
    <elf-symbol name='_ZTI18vtkDummyController' size='24' type='object-type' binding='weak-binding' visibility='default-visibility' is-defined='yes'/>
    <elf-symbol name='_ZTI18vtkSubCommunicator' size='24' type='object-type' binding='weak-binding' visibility='default-visibility' is-defined='yes'/>
    <elf-symbol name='_ZTI19vtkSocketController' size='24' type='object-type' binding='weak-binding' visibility='default-visibility' is-defined='yes'/>
    <elf-symbol name='_ZTI20vtkDummyCommunicator' size='24' type='object-type' binding='weak-binding' visibility='default-visibility' is-defined='yes'/>
    <elf-symbol name='_ZTI21vtkSocketCommunicator' size='24' type='object-type' binding='weak-binding' visibility='default-visibility' is-defined='yes'/>
    <elf-symbol name='_ZTI22vtkFieldDataSerializer' size='24' type='object-type' binding='weak-binding' visibility='default-visibility' is-defined='yes'/>
    <elf-symbol name='_ZTI25vtkMultiProcessController' size='24' type='object-type' binding='weak-binding' visibility='default-visibility' is-defined='yes'/>
    <elf-symbol name='_ZTIN15vtkCommunicator9OperationE' size='16' type='object-type' binding='weak-binding' visibility='default-visibility' is-defined='yes'/>
    <elf-symbol name='_ZTS10vtkProcess' size='13' type='object-type' binding='weak-binding' visibility='default-visibility' is-defined='yes'/>
    <elf-symbol name='_ZTS11vtkSubGroup' size='14' type='object-type' binding='weak-binding' visibility='default-visibility' is-defined='yes'/>
    <elf-symbol name='_ZTS15vtkCommunicator' size='18' type='object-type' binding='weak-binding' visibility='default-visibility' is-defined='yes'/>
    <elf-symbol name='_ZTS15vtkProcessGroup' size='18' type='object-type' binding='weak-binding' visibility='default-visibility' is-defined='yes'/>
    <elf-symbol name='_ZTS18vtkDummyController' size='21' type='object-type' binding='weak-binding' visibility='default-visibility' is-defined='yes'/>
    <elf-symbol name='_ZTS18vtkSubCommunicator' size='21' type='object-type' binding='weak-binding' visibility='default-visibility' is-defined='yes'/>
    <elf-symbol name='_ZTS19vtkSocketController' size='22' type='object-type' binding='weak-binding' visibility='default-visibility' is-defined='yes'/>
    <elf-symbol name='_ZTS20vtkDummyCommunicator' size='23' type='object-type' binding='weak-binding' visibility='default-visibility' is-defined='yes'/>
    <elf-symbol name='_ZTS21vtkSocketCommunicator' size='24' type='object-type' binding='weak-binding' visibility='default-visibility' is-defined='yes'/>
    <elf-symbol name='_ZTS22vtkFieldDataSerializer' size='25' type='object-type' binding='weak-binding' visibility='default-visibility' is-defined='yes'/>
    <elf-symbol name='_ZTS25vtkMultiProcessController' size='28' type='object-type' binding='weak-binding' visibility='default-visibility' is-defined='yes'/>
    <elf-symbol name='_ZTSN15vtkCommunicator9OperationE' size='30' type='object-type' binding='weak-binding' visibility='default-visibility' is-defined='yes'/>
    <elf-symbol name='_ZTV10vtkProcess' size='184' type='object-type' binding='weak-binding' visibility='default-visibility' is-defined='yes'/>
    <elf-symbol name='_ZTV11vtkSubGroup' size='176' type='object-type' binding='weak-binding' visibility='default-visibility' is-defined='yes'/>
    <elf-symbol name='_ZTV15vtkCommunicator' size='328' type='object-type' binding='weak-binding' visibility='default-visibility' is-defined='yes'/>
    <elf-symbol name='_ZTV15vtkProcessGroup' size='192' type='object-type' binding='weak-binding' visibility='default-visibility' is-defined='yes'/>
    <elf-symbol name='_ZTV18vtkDummyController' size='368' type='object-type' binding='weak-binding' visibility='default-visibility' is-defined='yes'/>
    <elf-symbol name='_ZTV18vtkSubCommunicator' size='344' type='object-type' binding='weak-binding' visibility='default-visibility' is-defined='yes'/>
    <elf-symbol name='_ZTV19vtkSocketController' size='376' type='object-type' binding='weak-binding' visibility='default-visibility' is-defined='yes'/>
    <elf-symbol name='_ZTV20vtkDummyCommunicator' size='328' type='object-type' binding='weak-binding' visibility='default-visibility' is-defined='yes'/>
    <elf-symbol name='_ZTV21vtkSocketCommunicator' size='480' type='object-type' binding='weak-binding' visibility='default-visibility' is-defined='yes'/>
    <elf-symbol name='_ZTV22vtkFieldDataSerializer' size='176' type='object-type' binding='weak-binding' visibility='default-visibility' is-defined='yes'/>
    <elf-symbol name='_ZTV25vtkMultiProcessController' size='344' type='object-type' binding='weak-binding' visibility='default-visibility' is-defined='yes'/>
    <elf-symbol name='_ZTVN15vtkCommunicator9OperationE' size='48' type='object-type' binding='weak-binding' visibility='default-visibility' is-defined='yes'/>
  </elf-variable-symbols>
  <abi-instr address-size='64' path='/tmp/legendre/spack-stage/spack-stage-R_crTC/VTK-6.1.0/Parallel/Core/vtkCommunicator.cxx' comp-dir-path='/tmp/legendre/spack-stage/spack-stage-R_crTC/VTK-6.1.0/spack-build/Parallel/Core' language='LANG_C_plus_plus'>
    <type-decl name='bool' size-in-bits='8' id='type-id-1'/>
    <type-decl name='char' size-in-bits='8' id='type-id-2'/>
    <array-type-def dimensions='1' type-id='type-id-2' size-in-bits='8' id='type-id-3'>
      <subrange length='1' type-id='type-id-4' id='type-id-5'/>
    </array-type-def>
    <array-type-def dimensions='1' type-id='type-id-2' size-in-bits='160' id='type-id-6'>
      <subrange length='20' type-id='type-id-4' id='type-id-7'/>
    </array-type-def>
    <array-type-def dimensions='1' type-id='type-id-2' size-in-bits='320' id='type-id-8'>
      <subrange length='40' type-id='type-id-4' id='type-id-9'/>
    </array-type-def>
    <array-type-def dimensions='1' type-id='type-id-2' size-in-bits='32' id='type-id-10'>
      <subrange length='4' type-id='type-id-4' id='type-id-11'/>
    </array-type-def>
    <class-decl name='typedef __va_list_tag __va_list_tag' size-in-bits='192' is-struct='yes' visibility='default' id='type-id-12'>
      <data-member access='public' layout-offset-in-bits='0'>
        <var-decl name='gp_offset' type-id='type-id-13' visibility='default'/>
      </data-member>
      <data-member access='public' layout-offset-in-bits='32'>
        <var-decl name='fp_offset' type-id='type-id-13' visibility='default'/>
      </data-member>
      <data-member access='public' layout-offset-in-bits='64'>
        <var-decl name='overflow_arg_area' type-id='type-id-14' visibility='default'/>
      </data-member>
      <data-member access='public' layout-offset-in-bits='128'>
        <var-decl name='reg_save_area' type-id='type-id-14' visibility='default'/>
      </data-member>
    </class-decl>
    <type-decl name='double' size-in-bits='64' id='type-id-15'/>
    <array-type-def dimensions='1' type-id='type-id-15' size-in-bits='192' id='type-id-16'>
      <subrange length='3' type-id='type-id-4' id='type-id-17'/>
    </array-type-def>
    <type-decl name='float' size-in-bits='32' id='type-id-18'/>
    <type-decl name='int' size-in-bits='32' id='type-id-19'/>
    <type-decl name='long double' size-in-bits='128' id='type-id-20'/>
    <type-decl name='long int' size-in-bits='64' id='type-id-21'/>
    <type-decl name='long long int' size-in-bits='64' id='type-id-22'/>
    <type-decl name='long long unsigned int' size-in-bits='64' id='type-id-23'/>
    <type-decl name='signed char' size-in-bits='8' id='type-id-24'/>
    <type-decl name='unnamed-enum-underlying-type-32' is-anonymous='yes' size-in-bits='32' alignment-in-bits='32' id='type-id-25'/>
    <type-decl name='unsigned char' size-in-bits='8' id='type-id-26'/>
    <type-decl name='unsigned int' size-in-bits='32' id='type-id-13'/>
    <type-decl name='unsigned long int' size-in-bits='64' id='type-id-4'/>
    <type-decl name='unsigned short int' size-in-bits='16' id='type-id-27'/>
    <type-decl name='variadic parameter type' id='type-id-28'/>
    <type-decl name='void' id='type-id-29'/>
    <type-decl name='wchar_t' size-in-bits='32' id='type-id-30'/>
    <typedef-decl name='_Atomic_word' type-id='type-id-19' filepath='/usr/lib/gcc/x86_64-redhat-linux/4.4.7/../../../../include/c++/4.4.7/x86_64-redhat-linux/bits/atomic_word.h' line='32' column='1' id='type-id-31'/>
    <typedef-decl name='FILE' type-id='type-id-32' filepath='/usr/include/stdio.h' line='49' column='1' id='type-id-33'/>
    <class-decl name='_IO_FILE' size-in-bits='1728' is-struct='yes' visibility='default' filepath='/usr/include/libio.h' line='271' column='1' id='type-id-32'>
      <data-member access='public' layout-offset-in-bits='0'>
        <var-decl name='_flags' type-id='type-id-19' visibility='default' filepath='/usr/include/libio.h' line='272' column='1'/>
      </data-member>
      <data-member access='public' layout-offset-in-bits='64'>
        <var-decl name='_IO_read_ptr' type-id='type-id-34' visibility='default' filepath='/usr/include/libio.h' line='277' column='1'/>
      </data-member>
      <data-member access='public' layout-offset-in-bits='128'>
        <var-decl name='_IO_read_end' type-id='type-id-34' visibility='default' filepath='/usr/include/libio.h' line='278' column='1'/>
      </data-member>
      <data-member access='public' layout-offset-in-bits='192'>
        <var-decl name='_IO_read_base' type-id='type-id-34' visibility='default' filepath='/usr/include/libio.h' line='279' column='1'/>
      </data-member>
      <data-member access='public' layout-offset-in-bits='256'>
        <var-decl name='_IO_write_base' type-id='type-id-34' visibility='default' filepath='/usr/include/libio.h' line='280' column='1'/>
      </data-member>
      <data-member access='public' layout-offset-in-bits='320'>
        <var-decl name='_IO_write_ptr' type-id='type-id-34' visibility='default' filepath='/usr/include/libio.h' line='281' column='1'/>
      </data-member>
      <data-member access='public' layout-offset-in-bits='384'>
        <var-decl name='_IO_write_end' type-id='type-id-34' visibility='default' filepath='/usr/include/libio.h' line='282' column='1'/>
      </data-member>
      <data-member access='public' layout-offset-in-bits='448'>
        <var-decl name='_IO_buf_base' type-id='type-id-34' visibility='default' filepath='/usr/include/libio.h' line='283' column='1'/>
      </data-member>
      <data-member access='public' layout-offset-in-bits='512'>
        <var-decl name='_IO_buf_end' type-id='type-id-34' visibility='default' filepath='/usr/include/libio.h' line='284' column='1'/>
      </data-member>
      <data-member access='public' layout-offset-in-bits='576'>
        <var-decl name='_IO_save_base' type-id='type-id-34' visibility='default' filepath='/usr/include/libio.h' line='286' column='1'/>
      </data-member>
      <data-member access='public' layout-offset-in-bits='640'>
        <var-decl name='_IO_backup_base' type-id='type-id-34' visibility='default' filepath='/usr/include/libio.h' line='287' column='1'/>
      </data-member>
      <data-member access='public' layout-offset-in-bits='704'>
        <var-decl name='_IO_save_end' type-id='type-id-34' visibility='default' filepath='/usr/include/libio.h' line='288' column='1'/>
      </data-member>
      <data-member access='public' layout-offset-in-bits='768'>
        <var-decl name='_markers' type-id='type-id-35' visibility='default' filepath='/usr/include/libio.h' line='290' column='1'/>
      </data-member>
      <data-member access='public' layout-offset-in-bits='832'>
        <var-decl name='_chain' type-id='type-id-36' visibility='default' filepath='/usr/include/libio.h' line='292' column='1'/>
      </data-member>
      <data-member access='public' layout-offset-in-bits='896'>
        <var-decl name='_fileno' type-id='type-id-19' visibility='default' filepath='/usr/include/libio.h' line='294' column='1'/>
      </data-member>
      <data-member access='public' layout-offset-in-bits='928'>
        <var-decl name='_flags2' type-id='type-id-19' visibility='default' filepath='/usr/include/libio.h' line='298' column='1'/>
      </data-member>
      <data-member access='public' layout-offset-in-bits='960'>
        <var-decl name='_old_offset' type-id='type-id-37' visibility='default' filepath='/usr/include/libio.h' line='300' column='1'/>
      </data-member>
      <data-member access='public' layout-offset-in-bits='1024'>
        <var-decl name='_cur_column' type-id='type-id-27' visibility='default' filepath='/usr/include/libio.h' line='304' column='1'/>
      </data-member>
      <data-member access='public' layout-offset-in-bits='1040'>
        <var-decl name='_vtable_offset' type-id='type-id-24' visibility='default' filepath='/usr/include/libio.h' line='305' column='1'/>
      </data-member>
      <data-member access='public' layout-offset-in-bits='1048'>
        <var-decl name='_shortbuf' type-id='type-id-3' visibility='default' filepath='/usr/include/libio.h' line='306' column='1'/>
      </data-member>
      <data-member access='public' layout-offset-in-bits='1088'>
        <var-decl name='_lock' type-id='type-id-38' visibility='default' filepath='/usr/include/libio.h' line='310' column='1'/>
      </data-member>
      <data-member access='public' layout-offset-in-bits='1152'>
        <var-decl name='_offset' type-id='type-id-39' visibility='default' filepath='/usr/include/libio.h' line='319' column='1'/>
      </data-member>
      <data-member access='public' layout-offset-in-bits='1216'>
        <var-decl name='__pad1' type-id='type-id-14' visibility='default' filepath='/usr/include/libio.h' line='328' column='1'/>
      </data-member>
      <data-member access='public' layout-offset-in-bits='1280'>
        <var-decl name='__pad2' type-id='type-id-14' visibility='default' filepath='/usr/include/libio.h' line='329' column='1'/>
      </data-member>
      <data-member access='public' layout-offset-in-bits='1344'>
        <var-decl name='__pad3' type-id='type-id-14' visibility='default' filepath='/usr/include/libio.h' line='330' column='1'/>
      </data-member>
      <data-member access='public' layout-offset-in-bits='1408'>
        <var-decl name='__pad4' type-id='type-id-14' visibility='default' filepath='/usr/include/libio.h' line='331' column='1'/>
      </data-member>
      <data-member access='public' layout-offset-in-bits='1472'>
        <var-decl name='__pad5' type-id='type-id-40' visibility='default' filepath='/usr/include/libio.h' line='332' column='1'/>
      </data-member>
      <data-member access='public' layout-offset-in-bits='1536'>
        <var-decl name='_mode' type-id='type-id-19' visibility='default' filepath='/usr/include/libio.h' line='334' column='1'/>
      </data-member>
      <data-member access='public' layout-offset-in-bits='1568'>
        <var-decl name='_unused2' type-id='type-id-6' visibility='default' filepath='/usr/include/libio.h' line='336' column='1'/>
      </data-member>
    </class-decl>
    <class-decl name='_IO_marker' size-in-bits='192' is-struct='yes' visibility='default' filepath='/usr/include/libio.h' line='186' column='1' id='type-id-41'>
      <data-member access='public' layout-offset-in-bits='0'>
        <var-decl name='_next' type-id='type-id-35' visibility='default' filepath='/usr/include/libio.h' line='187' column='1'/>
      </data-member>
      <data-member access='public' layout-offset-in-bits='64'>
        <var-decl name='_sbuf' type-id='type-id-36' visibility='default' filepath='/usr/include/libio.h' line='188' column='1'/>
      </data-member>
      <data-member access='public' layout-offset-in-bits='128'>
        <var-decl name='_pos' type-id='type-id-19' visibility='default' filepath='/usr/include/libio.h' line='192' column='1'/>
      </data-member>
    </class-decl>
    <typedef-decl name='__off_t' type-id='type-id-21' filepath='/usr/include/bits/types.h' line='141' column='1' id='type-id-37'/>
    <typedef-decl name='_IO_lock_t' type-id='type-id-29' filepath='/usr/include/libio.h' line='180' column='1' id='type-id-42'/>
    <typedef-decl name='__off64_t' type-id='type-id-21' filepath='/usr/include/bits/types.h' line='142' column='1' id='type-id-39'/>
    <typedef-decl name='size_t' type-id='type-id-4' filepath='/usr/lib/gcc/x86_64-redhat-linux/4.4.7/include/stddef.h' line='211' column='1' id='type-id-40'/>
    <typedef-decl name='__gthread_mutex_t' type-id='type-id-43' filepath='/usr/lib/gcc/x86_64-redhat-linux/4.4.7/../../../../include/c++/4.4.7/x86_64-redhat-linux/bits/gthr-default.h' line='47' column='1' id='type-id-44'/>
    <union-decl name='pthread_mutex_t' size-in-bits='320' visibility='default' filepath='/usr/include/bits/pthreadtypes.h' line='77' column='1' id='type-id-43'>
      <member-type access='public'>
        <class-decl name='__pthread_mutex_s' size-in-bits='320' is-struct='yes' visibility='default' filepath='/usr/include/bits/pthreadtypes.h' line='79' column='1' id='type-id-45'>
          <data-member access='public' layout-offset-in-bits='0'>
            <var-decl name='__lock' type-id='type-id-19' visibility='default' filepath='/usr/include/bits/pthreadtypes.h' line='80' column='1'/>
          </data-member>
          <data-member access='public' layout-offset-in-bits='32'>
            <var-decl name='__count' type-id='type-id-13' visibility='default' filepath='/usr/include/bits/pthreadtypes.h' line='81' column='1'/>
          </data-member>
          <data-member access='public' layout-offset-in-bits='64'>
            <var-decl name='__owner' type-id='type-id-19' visibility='default' filepath='/usr/include/bits/pthreadtypes.h' line='82' column='1'/>
          </data-member>
          <data-member access='public' layout-offset-in-bits='96'>
            <var-decl name='__nusers' type-id='type-id-13' visibility='default' filepath='/usr/include/bits/pthreadtypes.h' line='84' column='1'/>
          </data-member>
          <data-member access='public' layout-offset-in-bits='128'>
            <var-decl name='__kind' type-id='type-id-19' visibility='default' filepath='/usr/include/bits/pthreadtypes.h' line='88' column='1'/>
          </data-member>
          <data-member access='public' layout-offset-in-bits='160'>
            <var-decl name='__spins' type-id='type-id-19' visibility='default' filepath='/usr/include/bits/pthreadtypes.h' line='90' column='1'/>
          </data-member>
          <data-member access='public' layout-offset-in-bits='192'>
            <var-decl name='__list' type-id='type-id-46' visibility='default' filepath='/usr/include/bits/pthreadtypes.h' line='91' column='1'/>
          </data-member>
        </class-decl>
      </member-type>
      <data-member access='public'>
        <var-decl name='__data' type-id='type-id-45' visibility='default' filepath='/usr/include/bits/pthreadtypes.h' line='101' column='1'/>
      </data-member>
      <data-member access='public'>
        <var-decl name='__size' type-id='type-id-8' visibility='default' filepath='/usr/include/bits/pthreadtypes.h' line='102' column='1'/>
      </data-member>
      <data-member access='public'>
        <var-decl name='__align' type-id='type-id-21' visibility='default' filepath='/usr/include/bits/pthreadtypes.h' line='103' column='1'/>
      </data-member>
    </union-decl>
    <typedef-decl name='__pthread_list_t' type-id='type-id-47' filepath='/usr/include/bits/pthreadtypes.h' line='65' column='1' id='type-id-46'/>
    <class-decl name='__pthread_internal_list' size-in-bits='128' is-struct='yes' visibility='default' filepath='/usr/include/bits/pthreadtypes.h' line='62' column='1' id='type-id-47'>
      <data-member access='public' layout-offset-in-bits='0'>
        <var-decl name='__prev' type-id='type-id-48' visibility='default' filepath='/usr/include/bits/pthreadtypes.h' line='63' column='1'/>
      </data-member>
      <data-member access='public' layout-offset-in-bits='64'>
        <var-decl name='__next' type-id='type-id-48' visibility='default' filepath='/usr/include/bits/pthreadtypes.h' line='64' column='1'/>
      </data-member>
    </class-decl>
    <typedef-decl name='ptrdiff_t' type-id='type-id-21' filepath='/usr/lib/gcc/x86_64-redhat-linux/4.4.7/include/stddef.h' line='149' column='1' id='type-id-49'/>
    <class-decl name='lldiv_t' size-in-bits='128' is-struct='yes' visibility='default' filepath='/usr/include/stdlib.h' line='119' column='1' id='type-id-50'>
      <data-member access='public' layout-offset-in-bits='0'>
        <var-decl name='quot' type-id='type-id-22' visibility='default' filepath='/usr/include/stdlib.h' line='120' column='1'/>
      </data-member>
      <data-member access='public' layout-offset-in-bits='64'>
        <var-decl name='rem' type-id='type-id-22' visibility='default' filepath='/usr/include/stdlib.h' line='121' column='1'/>
      </data-member>
    </class-decl>
    <class-decl name='vtkIndent' size-in-bits='32' visibility='default' filepath='/tmp/legendre/spack-stage/spack-stage-R_crTC/VTK-6.1.0/Common/Core/vtkIndent.h' line='31' column='1' id='type-id-51'>
      <data-member access='protected' layout-offset-in-bits='0'>
        <var-decl name='Indent' type-id='type-id-19' visibility='default' filepath='/tmp/legendre/spack-stage/spack-stage-R_crTC/VTK-6.1.0/Common/Core/vtkIndent.h' line='49' column='1'/>
      </data-member>
      <member-function access='private' constructor='yes'>
        <function-decl name='vtkIndent' filepath='/tmp/legendre/spack-stage/spack-stage-R_crTC/VTK-6.1.0/Common/Core/vtkIndent.h' line='34' column='1' visibility='default' binding='global' size-in-bits='64'>
          <parameter type-id='type-id-52' is-artificial='yes'/>
          <parameter type-id='type-id-19'/>
          <return type-id='type-id-29'/>
        </function-decl>
      </member-function>
    </class-decl>
    <class-decl name='vtkMultiProcessStream' size-in-bits='128' visibility='default' filepath='/tmp/legendre/spack-stage/spack-stage-R_crTC/VTK-6.1.0/Parallel/Core/vtkMultiProcessStream.h' line='35' column='1' id='type-id-53'>
      <member-type access='private'>
        <class-decl name='vtkInternals' size-in-bits='640' is-struct='yes' visibility='default' filepath='/tmp/legendre/spack-stage/spack-stage-R_crTC/VTK-6.1.0/Parallel/Core/vtkMultiProcessStream.cxx' line='23' column='1' id='type-id-54'>
          <member-type access='public'>
            <enum-decl name='Types' filepath='/tmp/legendre/spack-stage/spack-stage-R_crTC/VTK-6.1.0/Parallel/Core/vtkMultiProcessStream.cxx' line='28' column='1' id='type-id-55'>
              <underlying-type type-id='type-id-25'/>
              <enumerator name='int32_value' value='0'/>
              <enumerator name='uint32_value' value='1'/>
              <enumerator name='char_value' value='2'/>
              <enumerator name='uchar_value' value='3'/>
              <enumerator name='double_value' value='4'/>
              <enumerator name='float_value' value='5'/>
              <enumerator name='string_value' value='6'/>
              <enumerator name='int64_value' value='7'/>
              <enumerator name='uint64_value' value='8'/>
              <enumerator name='stream_value' value='9'/>
            </enum-decl>
          </member-type>
          <member-type access='public'>
            <typedef-decl name='DataType' type-id='type-id-57' filepath='/tmp/legendre/spack-stage/spack-stage-R_crTC/VTK-6.1.0/Parallel/Core/vtkMultiProcessStream.cxx' line='25' column='1' id='type-id-56'/>
          </member-type>
          <data-member access='private' layout-offset-in-bits='0'>
            <var-decl name='Data' type-id='type-id-56' visibility='default' filepath='/tmp/legendre/spack-stage/spack-stage-R_crTC/VTK-6.1.0/Parallel/Core/vtkMultiProcessStream.cxx' line='26' column='1'/>
          </data-member>
        </class-decl>
      </member-type>
      <data-member access='private' layout-offset-in-bits='0'>
        <var-decl name='Internals' type-id='type-id-58' visibility='default' filepath='/tmp/legendre/spack-stage/spack-stage-R_crTC/VTK-6.1.0/Parallel/Core/vtkMultiProcessStream.h' line='123' column='1'/>
      </data-member>
      <data-member access='private' layout-offset-in-bits='64'>
        <var-decl name='Endianness' type-id='type-id-26' visibility='default' filepath='/tmp/legendre/spack-stage/spack-stage-R_crTC/VTK-6.1.0/Parallel/Core/vtkMultiProcessStream.h' line='124' column='1'/>
      </data-member>
      <member-function access='private' constructor='yes'>
        <function-decl name='vtkMultiProcessStream' mangled-name='_ZN21vtkMultiProcessStreamC1Ev' filepath='/tmp/legendre/spack-stage/spack-stage-R_crTC/VTK-6.1.0/Parallel/Core/vtkMultiProcessStream.h' line='37' column='1' visibility='default' binding='global' size-in-bits='64' elf-symbol-id='_ZN21vtkMultiProcessStreamC1Ev'>
          <parameter type-id='type-id-59' is-artificial='yes'/>
          <return type-id='type-id-29'/>
        </function-decl>
      </member-function>
      <member-function access='private' constructor='yes'>
        <function-decl name='vtkMultiProcessStream' mangled-name='_ZN21vtkMultiProcessStreamC2ERKS_' filepath='/tmp/legendre/spack-stage/spack-stage-R_crTC/VTK-6.1.0/Parallel/Core/vtkMultiProcessStream.h' line='38' column='1' visibility='default' binding='global' size-in-bits='64' elf-symbol-id='_ZN21vtkMultiProcessStreamC2ERKS_'>
          <parameter type-id='type-id-59' is-artificial='yes'/>
          <parameter type-id='type-id-60'/>
          <return type-id='type-id-29'/>
        </function-decl>
      </member-function>
      <member-function access='private' destructor='yes'>
        <function-decl name='~vtkMultiProcessStream' mangled-name='_ZN21vtkMultiProcessStreamD1Ev' filepath='/tmp/legendre/spack-stage/spack-stage-R_crTC/VTK-6.1.0/Parallel/Core/vtkMultiProcessStream.h' line='39' column='1' visibility='default' binding='global' size-in-bits='64' elf-symbol-id='_ZN21vtkMultiProcessStreamD1Ev'>
          <parameter type-id='type-id-59' is-artificial='yes'/>
          <parameter type-id='type-id-19' is-artificial='yes'/>
          <return type-id='type-id-29'/>
        </function-decl>
      </member-function>
      <member-function access='private'>
        <function-decl name='Empty' mangled-name='_ZN21vtkMultiProcessStream5EmptyEv' filepath='/tmp/legendre/spack-stage/spack-stage-R_crTC/VTK-6.1.0/Parallel/Core/vtkMultiProcessStream.cxx' line='171' column='1' visibility='default' binding='global' size-in-bits='64' elf-symbol-id='_ZN21vtkMultiProcessStream5EmptyEv'>
          <parameter type-id='type-id-61' name='this' is-artificial='yes'/>
          <return type-id='type-id-1'/>
        </function-decl>
      </member-function>
      <member-function access='private'>
        <function-decl name='Reset' mangled-name='_ZN21vtkMultiProcessStream5ResetEv' filepath='/tmp/legendre/spack-stage/spack-stage-R_crTC/VTK-6.1.0/Parallel/Core/vtkMultiProcessStream.cxx' line='159' column='1' visibility='default' binding='global' size-in-bits='64' elf-symbol-id='_ZN21vtkMultiProcessStream5ResetEv'>
          <parameter type-id='type-id-59' is-artificial='yes'/>
          <parameter type-id='type-id-19' is-artificial='yes'/>
          <return type-id='type-id-29'/>
        </function-decl>
      </member-function>
      <member-function access='private'>
        <function-decl name='Size' mangled-name='_ZN21vtkMultiProcessStream4SizeEv' filepath='/tmp/legendre/spack-stage/spack-stage-R_crTC/VTK-6.1.0/Parallel/Core/vtkMultiProcessStream.cxx' line='165' column='1' visibility='default' binding='global' size-in-bits='64' elf-symbol-id='_ZN21vtkMultiProcessStream4SizeEv'>
          <parameter type-id='type-id-61' name='this' is-artificial='yes'/>
          <return type-id='type-id-19'/>
        </function-decl>
      </member-function>
      <member-function access='private'>
        <function-decl name='GetRawData' mangled-name='_ZN21vtkMultiProcessStream10GetRawDataERPhRj' filepath='/tmp/legendre/spack-stage/spack-stage-R_crTC/VTK-6.1.0/Parallel/Core/vtkMultiProcessStream.cxx' line='796' column='1' visibility='default' binding='global' size-in-bits='64' elf-symbol-id='_ZN21vtkMultiProcessStream10GetRawDataERPhRj'>
          <parameter type-id='type-id-61' name='this' is-artificial='yes'/>
          <parameter type-id='type-id-62' name='data' filepath='/tmp/legendre/spack-stage/spack-stage-R_crTC/VTK-6.1.0/Parallel/Core/vtkMultiProcessStream.cxx' line='797' column='1'/>
          <parameter type-id='type-id-63' name='size' filepath='/tmp/legendre/spack-stage/spack-stage-R_crTC/VTK-6.1.0/Parallel/Core/vtkMultiProcessStream.cxx' line='797' column='1'/>
          <return type-id='type-id-29'/>
        </function-decl>
      </member-function>
      <member-function access='private'>
        <function-decl name='GetRawData' mangled-name='_ZNK21vtkMultiProcessStream10GetRawDataERSt6vectorIhSaIhEE' filepath='/tmp/legendre/spack-stage/spack-stage-R_crTC/VTK-6.1.0/Parallel/Core/vtkMultiProcessStream.cxx' line='762' column='1' visibility='default' binding='global' size-in-bits='64' elf-symbol-id='_ZNK21vtkMultiProcessStream10GetRawDataERSt6vectorIhSaIhEE'>
          <parameter type-id='type-id-64' name='this' is-artificial='yes'/>
          <parameter type-id='type-id-65' name='data' filepath='/tmp/legendre/spack-stage/spack-stage-R_crTC/VTK-6.1.0/Parallel/Core/vtkMultiProcessStream.cxx' line='762' column='1'/>
          <return type-id='type-id-29'/>
        </function-decl>
      </member-function>
      <member-function access='private'>
        <function-decl name='operator&gt;&gt;' mangled-name='_ZN21vtkMultiProcessStreamrsERj' filepath='/tmp/legendre/spack-stage/spack-stage-R_crTC/VTK-6.1.0/Parallel/Core/vtkMultiProcessStream.cxx' line='698' column='1' visibility='default' binding='global' size-in-bits='64' elf-symbol-id='_ZN21vtkMultiProcessStreamrsERj'>
          <parameter type-id='type-id-61' name='this' is-artificial='yes'/>
          <parameter type-id='type-id-63' name='value' filepath='/tmp/legendre/spack-stage/spack-stage-R_crTC/VTK-6.1.0/Parallel/Core/vtkMultiProcessStream.cxx' line='698' column='1'/>
          <return type-id='type-id-66'/>
        </function-decl>
      </member-function>
      <member-function access='private'>
        <function-decl name='operator&gt;&gt;' mangled-name='_ZN21vtkMultiProcessStreamrsERc' filepath='/tmp/legendre/spack-stage/spack-stage-R_crTC/VTK-6.1.0/Parallel/Core/vtkMultiProcessStream.cxx' line='689' column='1' visibility='default' binding='global' size-in-bits='64' elf-symbol-id='_ZN21vtkMultiProcessStreamrsERc'>
          <parameter type-id='type-id-61' name='this' is-artificial='yes'/>
          <parameter type-id='type-id-67' name='value' filepath='/tmp/legendre/spack-stage/spack-stage-R_crTC/VTK-6.1.0/Parallel/Core/vtkMultiProcessStream.cxx' line='689' column='1'/>
          <return type-id='type-id-66'/>
        </function-decl>
      </member-function>
      <member-function access='private'>
        <function-decl name='operator&gt;&gt;' mangled-name='_ZN21vtkMultiProcessStreamrsERy' filepath='/tmp/legendre/spack-stage/spack-stage-R_crTC/VTK-6.1.0/Parallel/Core/vtkMultiProcessStream.cxx' line='734' column='1' visibility='default' binding='global' size-in-bits='64' elf-symbol-id='_ZN21vtkMultiProcessStreamrsERy'>
          <parameter type-id='type-id-61' name='this' is-artificial='yes'/>
          <parameter type-id='type-id-68' name='value' filepath='/tmp/legendre/spack-stage/spack-stage-R_crTC/VTK-6.1.0/Parallel/Core/vtkMultiProcessStream.cxx' line='734' column='1'/>
          <return type-id='type-id-66'/>
        </function-decl>
      </member-function>
      <member-function access='private'>
        <function-decl name='operator&gt;&gt;' mangled-name='_ZN21vtkMultiProcessStreamrsERf' filepath='/tmp/legendre/spack-stage/spack-stage-R_crTC/VTK-6.1.0/Parallel/Core/vtkMultiProcessStream.cxx' line='662' column='1' visibility='default' binding='global' size-in-bits='64' elf-symbol-id='_ZN21vtkMultiProcessStreamrsERf'>
          <parameter type-id='type-id-61' name='this' is-artificial='yes'/>
          <parameter type-id='type-id-69' name='value' filepath='/tmp/legendre/spack-stage/spack-stage-R_crTC/VTK-6.1.0/Parallel/Core/vtkMultiProcessStream.cxx' line='662' column='1'/>
          <return type-id='type-id-66'/>
        </function-decl>
      </member-function>
      <member-function access='private'>
        <function-decl name='operator&gt;&gt;' mangled-name='_ZN21vtkMultiProcessStreamrsERh' filepath='/tmp/legendre/spack-stage/spack-stage-R_crTC/VTK-6.1.0/Parallel/Core/vtkMultiProcessStream.cxx' line='707' column='1' visibility='default' binding='global' size-in-bits='64' elf-symbol-id='_ZN21vtkMultiProcessStreamrsERh'>
          <parameter type-id='type-id-61' name='this' is-artificial='yes'/>
          <parameter type-id='type-id-70' name='value' filepath='/tmp/legendre/spack-stage/spack-stage-R_crTC/VTK-6.1.0/Parallel/Core/vtkMultiProcessStream.cxx' line='707' column='1'/>
          <return type-id='type-id-66'/>
        </function-decl>
      </member-function>
      <member-function access='private'>
        <function-decl name='operator&gt;&gt;' mangled-name='_ZN21vtkMultiProcessStreamrsERSs' filepath='/tmp/legendre/spack-stage/spack-stage-R_crTC/VTK-6.1.0/Parallel/Core/vtkMultiProcessStream.cxx' line='743' column='1' visibility='default' binding='global' size-in-bits='64' elf-symbol-id='_ZN21vtkMultiProcessStreamrsERSs'>
          <parameter type-id='type-id-61' name='this' is-artificial='yes'/>
          <parameter type-id='type-id-71' name='value' filepath='/tmp/legendre/spack-stage/spack-stage-R_crTC/VTK-6.1.0/Parallel/Core/vtkMultiProcessStream.cxx' line='743' column='1'/>
          <return type-id='type-id-66'/>
        </function-decl>
      </member-function>
      <member-function access='private'>
        <function-decl name='operator&gt;&gt;' mangled-name='_ZN21vtkMultiProcessStreamrsERd' filepath='/tmp/legendre/spack-stage/spack-stage-R_crTC/VTK-6.1.0/Parallel/Core/vtkMultiProcessStream.cxx' line='653' column='1' visibility='default' binding='global' size-in-bits='64' elf-symbol-id='_ZN21vtkMultiProcessStreamrsERd'>
          <parameter type-id='type-id-61' name='this' is-artificial='yes'/>
          <parameter type-id='type-id-72' name='value' filepath='/tmp/legendre/spack-stage/spack-stage-R_crTC/VTK-6.1.0/Parallel/Core/vtkMultiProcessStream.cxx' line='653' column='1'/>
          <return type-id='type-id-66'/>
        </function-decl>
      </member-function>
      <member-function access='private'>
        <function-decl name='Pop' mangled-name='_ZN21vtkMultiProcessStream3PopERPiRj' filepath='/tmp/legendre/spack-stage/spack-stage-R_crTC/VTK-6.1.0/Parallel/Core/vtkMultiProcessStream.cxx' line='334' column='1' visibility='default' binding='global' size-in-bits='64' elf-symbol-id='_ZN21vtkMultiProcessStream3PopERPiRj'>
          <parameter type-id='type-id-61' name='this' is-artificial='yes'/>
          <parameter type-id='type-id-73' name='array' filepath='/tmp/legendre/spack-stage/spack-stage-R_crTC/VTK-6.1.0/Parallel/Core/vtkMultiProcessStream.cxx' line='334' column='1'/>
          <parameter type-id='type-id-63' name='size' filepath='/tmp/legendre/spack-stage/spack-stage-R_crTC/VTK-6.1.0/Parallel/Core/vtkMultiProcessStream.cxx' line='334' column='1'/>
          <return type-id='type-id-29'/>
        </function-decl>
      </member-function>
      <member-function access='private'>
        <function-decl name='Pop' mangled-name='_ZN21vtkMultiProcessStream3PopERPxRj' filepath='/tmp/legendre/spack-stage/spack-stage-R_crTC/VTK-6.1.0/Parallel/Core/vtkMultiProcessStream.cxx' line='465' column='1' visibility='default' binding='global' size-in-bits='64' elf-symbol-id='_ZN21vtkMultiProcessStream3PopERPxRj'>
          <parameter type-id='type-id-61' name='this' is-artificial='yes'/>
          <parameter type-id='type-id-74' name='array' filepath='/tmp/legendre/spack-stage/spack-stage-R_crTC/VTK-6.1.0/Parallel/Core/vtkMultiProcessStream.cxx' line='465' column='1'/>
          <parameter type-id='type-id-63' name='size' filepath='/tmp/legendre/spack-stage/spack-stage-R_crTC/VTK-6.1.0/Parallel/Core/vtkMultiProcessStream.cxx' line='465' column='1'/>
          <return type-id='type-id-29'/>
        </function-decl>
      </member-function>
      <member-function access='private'>
        <function-decl name='operator&gt;&gt;' mangled-name='_ZN21vtkMultiProcessStreamrsERx' filepath='/tmp/legendre/spack-stage/spack-stage-R_crTC/VTK-6.1.0/Parallel/Core/vtkMultiProcessStream.cxx' line='716' column='1' visibility='default' binding='global' size-in-bits='64' elf-symbol-id='_ZN21vtkMultiProcessStreamrsERx'>
          <parameter type-id='type-id-61' name='this' is-artificial='yes'/>
          <parameter type-id='type-id-75' name='value' filepath='/tmp/legendre/spack-stage/spack-stage-R_crTC/VTK-6.1.0/Parallel/Core/vtkMultiProcessStream.cxx' line='716' column='1'/>
          <return type-id='type-id-66'/>
        </function-decl>
      </member-function>
      <member-function access='private'>
        <function-decl name='operator&gt;&gt;' mangled-name='_ZN21vtkMultiProcessStreamrsERi' filepath='/tmp/legendre/spack-stage/spack-stage-R_crTC/VTK-6.1.0/Parallel/Core/vtkMultiProcessStream.cxx' line='671' column='1' visibility='default' binding='global' size-in-bits='64' elf-symbol-id='_ZN21vtkMultiProcessStreamrsERi'>
          <parameter type-id='type-id-61' name='this' is-artificial='yes'/>
          <parameter type-id='type-id-76' name='value' filepath='/tmp/legendre/spack-stage/spack-stage-R_crTC/VTK-6.1.0/Parallel/Core/vtkMultiProcessStream.cxx' line='671' column='1'/>
          <return type-id='type-id-66'/>
        </function-decl>
      </member-function>
      <member-function access='private'>
        <function-decl name='Pop' mangled-name='_ZN21vtkMultiProcessStream3PopERPfRj' filepath='/tmp/legendre/spack-stage/spack-stage-R_crTC/VTK-6.1.0/Parallel/Core/vtkMultiProcessStream.cxx' line='301' column='1' visibility='default' binding='global' size-in-bits='64' elf-symbol-id='_ZN21vtkMultiProcessStream3PopERPfRj'>
          <parameter type-id='type-id-61' name='this' is-artificial='yes'/>
          <parameter type-id='type-id-77' name='array' filepath='/tmp/legendre/spack-stage/spack-stage-R_crTC/VTK-6.1.0/Parallel/Core/vtkMultiProcessStream.cxx' line='301' column='1'/>
          <parameter type-id='type-id-63' name='size' filepath='/tmp/legendre/spack-stage/spack-stage-R_crTC/VTK-6.1.0/Parallel/Core/vtkMultiProcessStream.cxx' line='301' column='1'/>
          <return type-id='type-id-29'/>
        </function-decl>
      </member-function>
      <member-function access='private'>
        <function-decl name='Pop' mangled-name='_ZN21vtkMultiProcessStream3PopERPyRj' filepath='/tmp/legendre/spack-stage/spack-stage-R_crTC/VTK-6.1.0/Parallel/Core/vtkMultiProcessStream.cxx' line='498' column='1' visibility='default' binding='global' size-in-bits='64' elf-symbol-id='_ZN21vtkMultiProcessStream3PopERPyRj'>
          <parameter type-id='type-id-61' name='this' is-artificial='yes'/>
          <parameter type-id='type-id-78' name='array' filepath='/tmp/legendre/spack-stage/spack-stage-R_crTC/VTK-6.1.0/Parallel/Core/vtkMultiProcessStream.cxx' line='498' column='1'/>
          <parameter type-id='type-id-63' name='size' filepath='/tmp/legendre/spack-stage/spack-stage-R_crTC/VTK-6.1.0/Parallel/Core/vtkMultiProcessStream.cxx' line='498' column='1'/>
          <return type-id='type-id-29'/>
        </function-decl>
      </member-function>
      <member-function access='private'>
        <function-decl name='Pop' mangled-name='_ZN21vtkMultiProcessStream3PopERPdRj' filepath='/tmp/legendre/spack-stage/spack-stage-R_crTC/VTK-6.1.0/Parallel/Core/vtkMultiProcessStream.cxx' line='268' column='1' visibility='default' binding='global' size-in-bits='64' elf-symbol-id='_ZN21vtkMultiProcessStream3PopERPdRj'>
          <parameter type-id='type-id-61' name='this' is-artificial='yes'/>
          <parameter type-id='type-id-79' name='array' filepath='/tmp/legendre/spack-stage/spack-stage-R_crTC/VTK-6.1.0/Parallel/Core/vtkMultiProcessStream.cxx' line='268' column='1'/>
          <parameter type-id='type-id-63' name='size' filepath='/tmp/legendre/spack-stage/spack-stage-R_crTC/VTK-6.1.0/Parallel/Core/vtkMultiProcessStream.cxx' line='268' column='1'/>
          <return type-id='type-id-29'/>
        </function-decl>
      </member-function>
      <member-function access='private'>
        <function-decl name='Pop' mangled-name='_ZN21vtkMultiProcessStream3PopERPhRj' filepath='/tmp/legendre/spack-stage/spack-stage-R_crTC/VTK-6.1.0/Parallel/Core/vtkMultiProcessStream.cxx' line='433' column='1' visibility='default' binding='global' size-in-bits='64' elf-symbol-id='_ZN21vtkMultiProcessStream3PopERPhRj'>
          <parameter type-id='type-id-61' name='this' is-artificial='yes'/>
          <parameter type-id='type-id-62' name='data' filepath='/tmp/legendre/spack-stage/spack-stage-R_crTC/VTK-6.1.0/Parallel/Core/vtkMultiProcessStream.cxx' line='797' column='1'/>
          <parameter type-id='type-id-63' name='size' filepath='/tmp/legendre/spack-stage/spack-stage-R_crTC/VTK-6.1.0/Parallel/Core/vtkMultiProcessStream.cxx' line='797' column='1'/>
          <return type-id='type-id-29'/>
        </function-decl>
      </member-function>
      <member-function access='private'>
        <function-decl name='Pop' mangled-name='_ZN21vtkMultiProcessStream3PopERPcRj' filepath='/tmp/legendre/spack-stage/spack-stage-R_crTC/VTK-6.1.0/Parallel/Core/vtkMultiProcessStream.cxx' line='367' column='1' visibility='default' binding='global' size-in-bits='64' elf-symbol-id='_ZN21vtkMultiProcessStream3PopERPcRj'>
          <parameter type-id='type-id-61' name='this' is-artificial='yes'/>
          <parameter type-id='type-id-80' name='array' filepath='/tmp/legendre/spack-stage/spack-stage-R_crTC/VTK-6.1.0/Parallel/Core/vtkMultiProcessStream.cxx' line='367' column='1'/>
          <parameter type-id='type-id-63' name='size' filepath='/tmp/legendre/spack-stage/spack-stage-R_crTC/VTK-6.1.0/Parallel/Core/vtkMultiProcessStream.cxx' line='367' column='1'/>
          <return type-id='type-id-29'/>
        </function-decl>
      </member-function>
      <member-function access='private'>
        <function-decl name='Pop' mangled-name='_ZN21vtkMultiProcessStream3PopERPjRj' filepath='/tmp/legendre/spack-stage/spack-stage-R_crTC/VTK-6.1.0/Parallel/Core/vtkMultiProcessStream.cxx' line='400' column='1' visibility='default' binding='global' size-in-bits='64' elf-symbol-id='_ZN21vtkMultiProcessStream3PopERPjRj'>
          <parameter type-id='type-id-61' name='this' is-artificial='yes'/>
          <parameter type-id='type-id-81' name='array' filepath='/tmp/legendre/spack-stage/spack-stage-R_crTC/VTK-6.1.0/Parallel/Core/vtkMultiProcessStream.cxx' line='400' column='1'/>
          <parameter type-id='type-id-63' name='size' filepath='/tmp/legendre/spack-stage/spack-stage-R_crTC/VTK-6.1.0/Parallel/Core/vtkMultiProcessStream.cxx' line='400' column='1'/>
          <return type-id='type-id-29'/>
        </function-decl>
      </member-function>
      <member-function access='private'>
        <function-decl name='operator&lt;&lt;' mangled-name='_ZN21vtkMultiProcessStreamlsERKSs' filepath='/tmp/legendre/spack-stage/spack-stage-R_crTC/VTK-6.1.0/Parallel/Core/vtkMultiProcessStream.cxx' line='597' column='1' visibility='default' binding='global' size-in-bits='64' elf-symbol-id='_ZN21vtkMultiProcessStreamlsERKSs'>
          <parameter type-id='type-id-61' name='this' is-artificial='yes'/>
          <parameter type-id='type-id-82' name='value' filepath='/tmp/legendre/spack-stage/spack-stage-R_crTC/VTK-6.1.0/Parallel/Core/vtkMultiProcessStream.cxx' line='597' column='1'/>
          <return type-id='type-id-66'/>
        </function-decl>
      </member-function>
      <member-function access='private'>
        <function-decl name='operator&lt;&lt;' mangled-name='_ZN21vtkMultiProcessStreamlsEf' filepath='/tmp/legendre/spack-stage/spack-stage-R_crTC/VTK-6.1.0/Parallel/Core/vtkMultiProcessStream.cxx' line='539' column='1' visibility='default' binding='global' size-in-bits='64' elf-symbol-id='_ZN21vtkMultiProcessStreamlsEf'>
          <parameter type-id='type-id-61' name='this' is-artificial='yes'/>
          <parameter type-id='type-id-18' name='value' filepath='/tmp/legendre/spack-stage/spack-stage-R_crTC/VTK-6.1.0/Parallel/Core/vtkMultiProcessStream.cxx' line='539' column='1'/>
          <return type-id='type-id-66'/>
        </function-decl>
      </member-function>
      <member-function access='private'>
        <function-decl name='operator&lt;&lt;' mangled-name='_ZN21vtkMultiProcessStreamlsEh' filepath='/tmp/legendre/spack-stage/spack-stage-R_crTC/VTK-6.1.0/Parallel/Core/vtkMultiProcessStream.cxx' line='571' column='1' visibility='default' binding='global' size-in-bits='64' elf-symbol-id='_ZN21vtkMultiProcessStreamlsEh'>
          <parameter type-id='type-id-61' name='this' is-artificial='yes'/>
          <parameter type-id='type-id-26' name='value' filepath='/tmp/legendre/spack-stage/spack-stage-R_crTC/VTK-6.1.0/Parallel/Core/vtkMultiProcessStream.cxx' line='571' column='1'/>
          <return type-id='type-id-66'/>
        </function-decl>
      </member-function>
      <member-function access='private'>
        <function-decl name='operator&lt;&lt;' mangled-name='_ZN21vtkMultiProcessStreamlsERKS_' filepath='/tmp/legendre/spack-stage/spack-stage-R_crTC/VTK-6.1.0/Parallel/Core/vtkMultiProcessStream.cxx' line='619' column='1' visibility='default' binding='global' size-in-bits='64' elf-symbol-id='_ZN21vtkMultiProcessStreamlsERKS_'>
          <parameter type-id='type-id-61' name='this' is-artificial='yes'/>
          <parameter type-id='type-id-83' name='value' filepath='/tmp/legendre/spack-stage/spack-stage-R_crTC/VTK-6.1.0/Parallel/Core/vtkMultiProcessStream.cxx' line='620' column='1'/>
          <return type-id='type-id-66'/>
        </function-decl>
      </member-function>
      <member-function access='private'>
        <function-decl name='Push' mangled-name='_ZN21vtkMultiProcessStream4PushEPdj' filepath='/tmp/legendre/spack-stage/spack-stage-R_crTC/VTK-6.1.0/Parallel/Core/vtkMultiProcessStream.cxx' line='177' column='1' visibility='default' binding='global' size-in-bits='64' elf-symbol-id='_ZN21vtkMultiProcessStream4PushEPdj'>
          <parameter type-id='type-id-61' name='this' is-artificial='yes'/>
          <parameter type-id='type-id-84' name='array' filepath='/tmp/legendre/spack-stage/spack-stage-R_crTC/VTK-6.1.0/Parallel/Core/vtkMultiProcessStream.cxx' line='177' column='1'/>
          <parameter type-id='type-id-13' name='size' filepath='/tmp/legendre/spack-stage/spack-stage-R_crTC/VTK-6.1.0/Parallel/Core/vtkMultiProcessStream.cxx' line='177' column='1'/>
          <return type-id='type-id-29'/>
        </function-decl>
      </member-function>
      <member-function access='private'>
        <function-decl name='operator&lt;&lt;' mangled-name='_ZN21vtkMultiProcessStreamlsEy' filepath='/tmp/legendre/spack-stage/spack-stage-R_crTC/VTK-6.1.0/Parallel/Core/vtkMultiProcessStream.cxx' line='588' column='1' visibility='default' binding='global' size-in-bits='64' elf-symbol-id='_ZN21vtkMultiProcessStreamlsEy'>
          <parameter type-id='type-id-61' name='this' is-artificial='yes'/>
          <parameter type-id='type-id-85' name='value' filepath='/tmp/legendre/spack-stage/spack-stage-R_crTC/VTK-6.1.0/Parallel/Core/vtkMultiProcessStream.cxx' line='588' column='1'/>
          <return type-id='type-id-66'/>
        </function-decl>
      </member-function>
      <member-function access='private'>
        <function-decl name='SetRawData' mangled-name='_ZN21vtkMultiProcessStream10SetRawDataEPKhj' filepath='/tmp/legendre/spack-stage/spack-stage-R_crTC/VTK-6.1.0/Parallel/Core/vtkMultiProcessStream.cxx' line='818' column='1' visibility='default' binding='global' size-in-bits='64' elf-symbol-id='_ZN21vtkMultiProcessStream10SetRawDataEPKhj'>
          <parameter type-id='type-id-61' name='this' is-artificial='yes'/>
          <parameter type-id='type-id-86' name='data' filepath='/tmp/legendre/spack-stage/spack-stage-R_crTC/VTK-6.1.0/Parallel/Core/vtkMultiProcessStream.cxx' line='818' column='1'/>
          <parameter type-id='type-id-13' name='size' filepath='/tmp/legendre/spack-stage/spack-stage-R_crTC/VTK-6.1.0/Parallel/Core/vtkMultiProcessStream.cxx' line='819' column='1'/>
          <return type-id='type-id-29'/>
        </function-decl>
      </member-function>
      <member-function access='private'>
        <function-decl name='SetRawData' mangled-name='_ZN21vtkMultiProcessStream10SetRawDataERKSt6vectorIhSaIhEE' filepath='/tmp/legendre/spack-stage/spack-stage-R_crTC/VTK-6.1.0/Parallel/Core/vtkMultiProcessStream.cxx' line='777' column='1' visibility='default' binding='global' size-in-bits='64' elf-symbol-id='_ZN21vtkMultiProcessStream10SetRawDataERKSt6vectorIhSaIhEE'>
          <parameter type-id='type-id-61' name='this' is-artificial='yes'/>
          <parameter type-id='type-id-87' name='data' filepath='/tmp/legendre/spack-stage/spack-stage-R_crTC/VTK-6.1.0/Parallel/Core/vtkMultiProcessStream.cxx' line='777' column='1'/>
          <return type-id='type-id-29'/>
        </function-decl>
      </member-function>
      <member-function access='private'>
        <function-decl name='operator=' mangled-name='_ZN21vtkMultiProcessStreamaSERKS_' filepath='/tmp/legendre/spack-stage/spack-stage-R_crTC/VTK-6.1.0/Parallel/Core/vtkMultiProcessStream.cxx' line='152' column='1' visibility='default' binding='global' size-in-bits='64' elf-symbol-id='_ZN21vtkMultiProcessStreamaSERKS_'>
          <parameter type-id='type-id-61' name='this' is-artificial='yes'/>
          <parameter type-id='type-id-83' name='value' filepath='/tmp/legendre/spack-stage/spack-stage-R_crTC/VTK-6.1.0/Parallel/Core/vtkMultiProcessStream.cxx' line='620' column='1'/>
          <return type-id='type-id-66'/>
        </function-decl>
      </member-function>
      <member-function access='private'>
        <function-decl name='operator&lt;&lt;' mangled-name='_ZN21vtkMultiProcessStreamlsEc' filepath='/tmp/legendre/spack-stage/spack-stage-R_crTC/VTK-6.1.0/Parallel/Core/vtkMultiProcessStream.cxx' line='555' column='1' visibility='default' binding='global' size-in-bits='64' elf-symbol-id='_ZN21vtkMultiProcessStreamlsEc'>
          <parameter type-id='type-id-61' name='this' is-artificial='yes'/>
          <parameter type-id='type-id-2' name='value' filepath='/tmp/legendre/spack-stage/spack-stage-R_crTC/VTK-6.1.0/Parallel/Core/vtkMultiProcessStream.cxx' line='555' column='1'/>
          <return type-id='type-id-66'/>
        </function-decl>
      </member-function>
      <member-function access='private'>
        <function-decl name='Push' mangled-name='_ZN21vtkMultiProcessStream4PushEPjj' filepath='/tmp/legendre/spack-stage/spack-stage-R_crTC/VTK-6.1.0/Parallel/Core/vtkMultiProcessStream.cxx' line='221' column='1' visibility='default' binding='global' size-in-bits='64' elf-symbol-id='_ZN21vtkMultiProcessStream4PushEPjj'>
          <parameter type-id='type-id-61' name='this' is-artificial='yes'/>
          <parameter type-id='type-id-88' name='array' filepath='/tmp/legendre/spack-stage/spack-stage-R_crTC/VTK-6.1.0/Parallel/Core/vtkMultiProcessStream.cxx' line='222' column='1'/>
          <parameter type-id='type-id-13' name='size' filepath='/tmp/legendre/spack-stage/spack-stage-R_crTC/VTK-6.1.0/Parallel/Core/vtkMultiProcessStream.cxx' line='222' column='1'/>
          <return type-id='type-id-29'/>
        </function-decl>
      </member-function>
      <member-function access='private'>
        <function-decl name='Push' mangled-name='_ZN21vtkMultiProcessStream4PushEPhj' filepath='/tmp/legendre/spack-stage/spack-stage-R_crTC/VTK-6.1.0/Parallel/Core/vtkMultiProcessStream.cxx' line='233' column='1' visibility='default' binding='global' size-in-bits='64' elf-symbol-id='_ZN21vtkMultiProcessStream4PushEPhj'>
          <parameter type-id='type-id-61' name='this' is-artificial='yes'/>
          <parameter type-id='type-id-89' name='array' filepath='/tmp/legendre/spack-stage/spack-stage-R_crTC/VTK-6.1.0/Parallel/Core/vtkMultiProcessStream.cxx' line='234' column='1'/>
          <parameter type-id='type-id-13' name='size' filepath='/tmp/legendre/spack-stage/spack-stage-R_crTC/VTK-6.1.0/Parallel/Core/vtkMultiProcessStream.cxx' line='234' column='1'/>
          <return type-id='type-id-29'/>
        </function-decl>
      </member-function>
      <member-function access='private'>
        <function-decl name='Push' mangled-name='_ZN21vtkMultiProcessStream4PushEPij' filepath='/tmp/legendre/spack-stage/spack-stage-R_crTC/VTK-6.1.0/Parallel/Core/vtkMultiProcessStream.cxx' line='199' column='1' visibility='default' binding='global' size-in-bits='64' elf-symbol-id='_ZN21vtkMultiProcessStream4PushEPij'>
          <parameter type-id='type-id-61' name='this' is-artificial='yes'/>
          <parameter type-id='type-id-90' name='array' filepath='/tmp/legendre/spack-stage/spack-stage-R_crTC/VTK-6.1.0/Parallel/Core/vtkMultiProcessStream.cxx' line='199' column='1'/>
          <parameter type-id='type-id-13' name='size' filepath='/tmp/legendre/spack-stage/spack-stage-R_crTC/VTK-6.1.0/Parallel/Core/vtkMultiProcessStream.cxx' line='199' column='1'/>
          <return type-id='type-id-29'/>
        </function-decl>
      </member-function>
      <member-function access='private'>
        <function-decl name='operator&lt;&lt;' mangled-name='_ZN21vtkMultiProcessStreamlsEx' filepath='/tmp/legendre/spack-stage/spack-stage-R_crTC/VTK-6.1.0/Parallel/Core/vtkMultiProcessStream.cxx' line='579' column='1' visibility='default' binding='global' size-in-bits='64' elf-symbol-id='_ZN21vtkMultiProcessStreamlsEx'>
          <parameter type-id='type-id-61' name='this' is-artificial='yes'/>
          <parameter type-id='type-id-91' name='value' filepath='/tmp/legendre/spack-stage/spack-stage-R_crTC/VTK-6.1.0/Parallel/Core/vtkMultiProcessStream.cxx' line='579' column='1'/>
          <return type-id='type-id-66'/>
        </function-decl>
      </member-function>
      <member-function access='private'>
        <function-decl name='Push' mangled-name='_ZN21vtkMultiProcessStream4PushEPcj' filepath='/tmp/legendre/spack-stage/spack-stage-R_crTC/VTK-6.1.0/Parallel/Core/vtkMultiProcessStream.cxx' line='210' column='1' visibility='default' binding='global' size-in-bits='64' elf-symbol-id='_ZN21vtkMultiProcessStream4PushEPcj'>
          <parameter type-id='type-id-61' name='this' is-artificial='yes'/>
          <parameter type-id='type-id-34' name='array' filepath='/tmp/legendre/spack-stage/spack-stage-R_crTC/VTK-6.1.0/Parallel/Core/vtkMultiProcessStream.cxx' line='210' column='1'/>
          <parameter type-id='type-id-13' name='size' filepath='/tmp/legendre/spack-stage/spack-stage-R_crTC/VTK-6.1.0/Parallel/Core/vtkMultiProcessStream.cxx' line='210' column='1'/>
          <return type-id='type-id-29'/>
        </function-decl>
      </member-function>
      <member-function access='private'>
        <function-decl name='operator&lt;&lt;' mangled-name='_ZN21vtkMultiProcessStreamlsEd' filepath='/tmp/legendre/spack-stage/spack-stage-R_crTC/VTK-6.1.0/Parallel/Core/vtkMultiProcessStream.cxx' line='531' column='1' visibility='default' binding='global' size-in-bits='64' elf-symbol-id='_ZN21vtkMultiProcessStreamlsEd'>
          <parameter type-id='type-id-61' name='this' is-artificial='yes'/>
          <parameter type-id='type-id-15' name='value' filepath='/tmp/legendre/spack-stage/spack-stage-R_crTC/VTK-6.1.0/Parallel/Core/vtkMultiProcessStream.cxx' line='531' column='1'/>
          <return type-id='type-id-66'/>
        </function-decl>
      </member-function>
      <member-function access='private'>
        <function-decl name='Push' mangled-name='_ZN21vtkMultiProcessStream4PushEPfj' filepath='/tmp/legendre/spack-stage/spack-stage-R_crTC/VTK-6.1.0/Parallel/Core/vtkMultiProcessStream.cxx' line='188' column='1' visibility='default' binding='global' size-in-bits='64' elf-symbol-id='_ZN21vtkMultiProcessStream4PushEPfj'>
          <parameter type-id='type-id-61' name='this' is-artificial='yes'/>
          <parameter type-id='type-id-92' name='array' filepath='/tmp/legendre/spack-stage/spack-stage-R_crTC/VTK-6.1.0/Parallel/Core/vtkMultiProcessStream.cxx' line='188' column='1'/>
          <parameter type-id='type-id-13' name='size' filepath='/tmp/legendre/spack-stage/spack-stage-R_crTC/VTK-6.1.0/Parallel/Core/vtkMultiProcessStream.cxx' line='188' column='1'/>
          <return type-id='type-id-29'/>
        </function-decl>
      </member-function>
      <member-function access='private'>
        <function-decl name='operator&lt;&lt;' mangled-name='_ZN21vtkMultiProcessStreamlsEj' filepath='/tmp/legendre/spack-stage/spack-stage-R_crTC/VTK-6.1.0/Parallel/Core/vtkMultiProcessStream.cxx' line='563' column='1' visibility='default' binding='global' size-in-bits='64' elf-symbol-id='_ZN21vtkMultiProcessStreamlsEj'>
          <parameter type-id='type-id-61' name='this' is-artificial='yes'/>
          <parameter type-id='type-id-13' name='value' filepath='/tmp/legendre/spack-stage/spack-stage-R_crTC/VTK-6.1.0/Parallel/Core/vtkMultiProcessStream.cxx' line='563' column='1'/>
          <return type-id='type-id-66'/>
        </function-decl>
      </member-function>
      <member-function access='private'>
        <function-decl name='Push' mangled-name='_ZN21vtkMultiProcessStream4PushEPxj' filepath='/tmp/legendre/spack-stage/spack-stage-R_crTC/VTK-6.1.0/Parallel/Core/vtkMultiProcessStream.cxx' line='244' column='1' visibility='default' binding='global' size-in-bits='64' elf-symbol-id='_ZN21vtkMultiProcessStream4PushEPxj'>
          <parameter type-id='type-id-61' name='this' is-artificial='yes'/>
          <parameter type-id='type-id-93' name='array' filepath='/tmp/legendre/spack-stage/spack-stage-R_crTC/VTK-6.1.0/Parallel/Core/vtkMultiProcessStream.cxx' line='245' column='1'/>
          <parameter type-id='type-id-13' name='size' filepath='/tmp/legendre/spack-stage/spack-stage-R_crTC/VTK-6.1.0/Parallel/Core/vtkMultiProcessStream.cxx' line='245' column='1'/>
          <return type-id='type-id-29'/>
        </function-decl>
      </member-function>
      <member-function access='private'>
        <function-decl name='operator&gt;&gt;' mangled-name='_ZN21vtkMultiProcessStreamrsERS_' filepath='/tmp/legendre/spack-stage/spack-stage-R_crTC/VTK-6.1.0/Parallel/Core/vtkMultiProcessStream.cxx' line='634' column='1' visibility='default' binding='global' size-in-bits='64' elf-symbol-id='_ZN21vtkMultiProcessStreamrsERS_'>
          <parameter type-id='type-id-61' name='this' is-artificial='yes'/>
          <parameter type-id='type-id-94' name='value' filepath='/tmp/legendre/spack-stage/spack-stage-R_crTC/VTK-6.1.0/Parallel/Core/vtkMultiProcessStream.cxx' line='635' column='1'/>
          <return type-id='type-id-66'/>
        </function-decl>
      </member-function>
      <member-function access='private'>
        <function-decl name='operator&lt;&lt;' mangled-name='_ZN21vtkMultiProcessStreamlsEi' filepath='/tmp/legendre/spack-stage/spack-stage-R_crTC/VTK-6.1.0/Parallel/Core/vtkMultiProcessStream.cxx' line='547' column='1' visibility='default' binding='global' size-in-bits='64' elf-symbol-id='_ZN21vtkMultiProcessStreamlsEi'>
          <parameter type-id='type-id-61' name='this' is-artificial='yes'/>
          <parameter type-id='type-id-19' name='value' filepath='/tmp/legendre/spack-stage/spack-stage-R_crTC/VTK-6.1.0/Parallel/Core/vtkMultiProcessStream.cxx' line='547' column='1'/>
          <return type-id='type-id-66'/>
        </function-decl>
      </member-function>
      <member-function access='private'>
        <function-decl name='Push' mangled-name='_ZN21vtkMultiProcessStream4PushEPyj' filepath='/tmp/legendre/spack-stage/spack-stage-R_crTC/VTK-6.1.0/Parallel/Core/vtkMultiProcessStream.cxx' line='256' column='1' visibility='default' binding='global' size-in-bits='64' elf-symbol-id='_ZN21vtkMultiProcessStream4PushEPyj'>
          <parameter type-id='type-id-61' name='this' is-artificial='yes'/>
          <parameter type-id='type-id-95' name='array' filepath='/tmp/legendre/spack-stage/spack-stage-R_crTC/VTK-6.1.0/Parallel/Core/vtkMultiProcessStream.cxx' line='257' column='1'/>
          <parameter type-id='type-id-13' name='size' filepath='/tmp/legendre/spack-stage/spack-stage-R_crTC/VTK-6.1.0/Parallel/Core/vtkMultiProcessStream.cxx' line='257' column='1'/>
          <return type-id='type-id-29'/>
        </function-decl>
      </member-function>
    </class-decl>
    <typedef-decl name='wint_t' type-id='type-id-13' filepath='/usr/lib/gcc/x86_64-redhat-linux/4.4.7/include/stddef.h' line='352' column='1' id='type-id-96'/>
    <typedef-decl name='__FILE' type-id='type-id-32' filepath='/usr/include/stdio.h' line='65' column='1' id='type-id-97'/>
    <typedef-decl name='mbstate_t' type-id='type-id-98' filepath='/usr/include/wchar.h' line='106' column='1' id='type-id-99'/>
    <class-decl name='__mbstate_t' size-in-bits='64' is-struct='yes' visibility='default' filepath='/usr/include/wchar.h' line='84' column='1' id='type-id-98'>
      <member-type access='public'>
        <union-decl name='__anonymous_union__' size-in-bits='32' is-anonymous='yes' visibility='default' filepath='/usr/include/wchar.h' line='87' column='1' id='type-id-100'>
          <data-member access='public'>
            <var-decl name='__wch' type-id='type-id-13' visibility='default' filepath='/usr/include/wchar.h' line='89' column='1'/>
          </data-member>
          <data-member access='public'>
            <var-decl name='__wchb' type-id='type-id-10' visibility='default' filepath='/usr/include/wchar.h' line='93' column='1'/>
          </data-member>
        </union-decl>
      </member-type>
      <data-member access='public' layout-offset-in-bits='0'>
        <var-decl name='__count' type-id='type-id-19' visibility='default' filepath='/usr/include/wchar.h' line='85' column='1'/>
      </data-member>
      <data-member access='public' layout-offset-in-bits='32'>
        <var-decl name='__value' type-id='type-id-100' visibility='default' filepath='/usr/include/wchar.h' line='94' column='1'/>
      </data-member>
    </class-decl>
    <class-decl name='tm' size-in-bits='448' is-struct='yes' visibility='default' filepath='/usr/include/time.h' line='134' column='1' id='type-id-101'>
      <data-member access='public' layout-offset-in-bits='0'>
        <var-decl name='tm_sec' type-id='type-id-19' visibility='default' filepath='/usr/include/time.h' line='135' column='1'/>
      </data-member>
      <data-member access='public' layout-offset-in-bits='32'>
        <var-decl name='tm_min' type-id='type-id-19' visibility='default' filepath='/usr/include/time.h' line='136' column='1'/>
      </data-member>
      <data-member access='public' layout-offset-in-bits='64'>
        <var-decl name='tm_hour' type-id='type-id-19' visibility='default' filepath='/usr/include/time.h' line='137' column='1'/>
      </data-member>
      <data-member access='public' layout-offset-in-bits='96'>
        <var-decl name='tm_mday' type-id='type-id-19' visibility='default' filepath='/usr/include/time.h' line='138' column='1'/>
      </data-member>
      <data-member access='public' layout-offset-in-bits='128'>
        <var-decl name='tm_mon' type-id='type-id-19' visibility='default' filepath='/usr/include/time.h' line='139' column='1'/>
      </data-member>
      <data-member access='public' layout-offset-in-bits='160'>
        <var-decl name='tm_year' type-id='type-id-19' visibility='default' filepath='/usr/include/time.h' line='140' column='1'/>
      </data-member>
      <data-member access='public' layout-offset-in-bits='192'>
        <var-decl name='tm_wday' type-id='type-id-19' visibility='default' filepath='/usr/include/time.h' line='141' column='1'/>
      </data-member>
      <data-member access='public' layout-offset-in-bits='224'>
        <var-decl name='tm_yday' type-id='type-id-19' visibility='default' filepath='/usr/include/time.h' line='142' column='1'/>
      </data-member>
      <data-member access='public' layout-offset-in-bits='256'>
        <var-decl name='tm_isdst' type-id='type-id-19' visibility='default' filepath='/usr/include/time.h' line='143' column='1'/>
      </data-member>
      <data-member access='public' layout-offset-in-bits='320'>
        <var-decl name='tm_gmtoff' type-id='type-id-21' visibility='default' filepath='/usr/include/time.h' line='146' column='1'/>
      </data-member>
      <data-member access='public' layout-offset-in-bits='384'>
        <var-decl name='tm_zone' type-id='type-id-102' visibility='default' filepath='/usr/include/time.h' line='147' column='1'/>
      </data-member>
    </class-decl>
    <class-decl name='lconv' size-in-bits='768' is-struct='yes' visibility='default' filepath='/usr/include/locale.h' line='55' column='1' id='type-id-103'>
      <data-member access='public' layout-offset-in-bits='0'>
        <var-decl name='decimal_point' type-id='type-id-34' visibility='default' filepath='/usr/include/locale.h' line='58' column='1'/>
      </data-member>
      <data-member access='public' layout-offset-in-bits='64'>
        <var-decl name='thousands_sep' type-id='type-id-34' visibility='default' filepath='/usr/include/locale.h' line='59' column='1'/>
      </data-member>
      <data-member access='public' layout-offset-in-bits='128'>
        <var-decl name='grouping' type-id='type-id-34' visibility='default' filepath='/usr/include/locale.h' line='65' column='1'/>
      </data-member>
      <data-member access='public' layout-offset-in-bits='192'>
        <var-decl name='int_curr_symbol' type-id='type-id-34' visibility='default' filepath='/usr/include/locale.h' line='71' column='1'/>
      </data-member>
      <data-member access='public' layout-offset-in-bits='256'>
        <var-decl name='currency_symbol' type-id='type-id-34' visibility='default' filepath='/usr/include/locale.h' line='72' column='1'/>
      </data-member>
      <data-member access='public' layout-offset-in-bits='320'>
        <var-decl name='mon_decimal_point' type-id='type-id-34' visibility='default' filepath='/usr/include/locale.h' line='73' column='1'/>
      </data-member>
      <data-member access='public' layout-offset-in-bits='384'>
        <var-decl name='mon_thousands_sep' type-id='type-id-34' visibility='default' filepath='/usr/include/locale.h' line='74' column='1'/>
      </data-member>
      <data-member access='public' layout-offset-in-bits='448'>
        <var-decl name='mon_grouping' type-id='type-id-34' visibility='default' filepath='/usr/include/locale.h' line='75' column='1'/>
      </data-member>
      <data-member access='public' layout-offset-in-bits='512'>
        <var-decl name='positive_sign' type-id='type-id-34' visibility='default' filepath='/usr/include/locale.h' line='76' column='1'/>
      </data-member>
      <data-member access='public' layout-offset-in-bits='576'>
        <var-decl name='negative_sign' type-id='type-id-34' visibility='default' filepath='/usr/include/locale.h' line='77' column='1'/>
      </data-member>
      <data-member access='public' layout-offset-in-bits='640'>
        <var-decl name='int_frac_digits' type-id='type-id-2' visibility='default' filepath='/usr/include/locale.h' line='78' column='1'/>
      </data-member>
      <data-member access='public' layout-offset-in-bits='648'>
        <var-decl name='frac_digits' type-id='type-id-2' visibility='default' filepath='/usr/include/locale.h' line='79' column='1'/>
      </data-member>
      <data-member access='public' layout-offset-in-bits='656'>
        <var-decl name='p_cs_precedes' type-id='type-id-2' visibility='default' filepath='/usr/include/locale.h' line='81' column='1'/>
      </data-member>
      <data-member access='public' layout-offset-in-bits='664'>
        <var-decl name='p_sep_by_space' type-id='type-id-2' visibility='default' filepath='/usr/include/locale.h' line='83' column='1'/>
      </data-member>
      <data-member access='public' layout-offset-in-bits='672'>
        <var-decl name='n_cs_precedes' type-id='type-id-2' visibility='default' filepath='/usr/include/locale.h' line='85' column='1'/>
      </data-member>
      <data-member access='public' layout-offset-in-bits='680'>
        <var-decl name='n_sep_by_space' type-id='type-id-2' visibility='default' filepath='/usr/include/locale.h' line='87' column='1'/>
      </data-member>
      <data-member access='public' layout-offset-in-bits='688'>
        <var-decl name='p_sign_posn' type-id='type-id-2' visibility='default' filepath='/usr/include/locale.h' line='94' column='1'/>
      </data-member>
      <data-member access='public' layout-offset-in-bits='696'>
        <var-decl name='n_sign_posn' type-id='type-id-2' visibility='default' filepath='/usr/include/locale.h' line='95' column='1'/>
      </data-member>
      <data-member access='public' layout-offset-in-bits='704'>
        <var-decl name='int_p_cs_precedes' type-id='type-id-2' visibility='default' filepath='/usr/include/locale.h' line='98' column='1'/>
      </data-member>
      <data-member access='public' layout-offset-in-bits='712'>
        <var-decl name='int_p_sep_by_space' type-id='type-id-2' visibility='default' filepath='/usr/include/locale.h' line='100' column='1'/>
      </data-member>
      <data-member access='public' layout-offset-in-bits='720'>
        <var-decl name='int_n_cs_precedes' type-id='type-id-2' visibility='default' filepath='/usr/include/locale.h' line='102' column='1'/>
      </data-member>
      <data-member access='public' layout-offset-in-bits='728'>
        <var-decl name='int_n_sep_by_space' type-id='type-id-2' visibility='default' filepath='/usr/include/locale.h' line='104' column='1'/>
      </data-member>
      <data-member access='public' layout-offset-in-bits='736'>
        <var-decl name='int_p_sign_posn' type-id='type-id-2' visibility='default' filepath='/usr/include/locale.h' line='111' column='1'/>
      </data-member>
      <data-member access='public' layout-offset-in-bits='744'>
        <var-decl name='int_n_sign_posn' type-id='type-id-2' visibility='default' filepath='/usr/include/locale.h' line='112' column='1'/>
      </data-member>
    </class-decl>
    <typedef-decl name='wctype_t' type-id='type-id-4' filepath='/usr/include/wctype.h' line='53' column='1' id='type-id-104'/>
    <typedef-decl name='wctrans_t' type-id='type-id-105' filepath='/usr/include/wctype.h' line='187' column='1' id='type-id-106'/>
    <typedef-decl name='__int32_t' type-id='type-id-19' filepath='/usr/include/bits/types.h' line='41' column='1' id='type-id-107'/>
    <typedef-decl name='fpos_t' type-id='type-id-108' filepath='/usr/include/stdio.h' line='113' column='1' id='type-id-109'/>
    <class-decl name='_G_fpos64_t' size-in-bits='128' is-struct='yes' visibility='default' filepath='/usr/include/_G_config.h' line='28' column='1' id='type-id-108'>
      <data-member access='public' layout-offset-in-bits='0'>
        <var-decl name='__pos' type-id='type-id-39' visibility='default' filepath='/usr/include/_G_config.h' line='29' column='1'/>
      </data-member>
      <data-member access='public' layout-offset-in-bits='64'>
        <var-decl name='__state' type-id='type-id-98' visibility='default' filepath='/usr/include/_G_config.h' line='30' column='1'/>
      </data-member>
    </class-decl>
    <typedef-decl name='__compar_fn_t' type-id='type-id-110' filepath='/usr/include/stdlib.h' line='742' column='1' id='type-id-111'/>
    <class-decl name='div_t' size-in-bits='64' is-struct='yes' visibility='default' filepath='/usr/include/stdlib.h' line='99' column='1' id='type-id-112'>
      <data-member access='public' layout-offset-in-bits='0'>
        <var-decl name='quot' type-id='type-id-19' visibility='default' filepath='/usr/include/stdlib.h' line='100' column='1'/>
      </data-member>
      <data-member access='public' layout-offset-in-bits='32'>
        <var-decl name='rem' type-id='type-id-19' visibility='default' filepath='/usr/include/stdlib.h' line='101' column='1'/>
      </data-member>
    </class-decl>
    <class-decl name='ldiv_t' size-in-bits='128' is-struct='yes' visibility='default' filepath='/usr/include/stdlib.h' line='107' column='1' id='type-id-113'>
      <data-member access='public' layout-offset-in-bits='0'>
        <var-decl name='quot' type-id='type-id-21' visibility='default' filepath='/usr/include/stdlib.h' line='108' column='1'/>
      </data-member>
      <data-member access='public' layout-offset-in-bits='64'>
        <var-decl name='rem' type-id='type-id-21' visibility='default' filepath='/usr/include/stdlib.h' line='109' column='1'/>
      </data-member>
    </class-decl>
    <class-decl name='vtkBoundingBox' size-in-bits='384' visibility='default' filepath='/tmp/legendre/spack-stage/spack-stage-R_crTC/VTK-6.1.0/Common/DataModel/vtkBoundingBox.h' line='30' column='1' id='type-id-114'>
      <data-member access='protected' layout-offset-in-bits='0'>
        <var-decl name='MinPnt' type-id='type-id-16' visibility='default' filepath='/tmp/legendre/spack-stage/spack-stage-R_crTC/VTK-6.1.0/Common/DataModel/vtkBoundingBox.h' line='185' column='1'/>
      </data-member>
      <data-member access='protected' layout-offset-in-bits='192'>
        <var-decl name='MaxPnt' type-id='type-id-16' visibility='default' filepath='/tmp/legendre/spack-stage/spack-stage-R_crTC/VTK-6.1.0/Common/DataModel/vtkBoundingBox.h' line='185' column='1'/>
      </data-member>
      <member-function access='private' constructor='yes'>
        <function-decl name='vtkBoundingBox' filepath='/tmp/legendre/spack-stage/spack-stage-R_crTC/VTK-6.1.0/Common/DataModel/vtkBoundingBox.h' line='35' column='1' visibility='default' binding='global' size-in-bits='64'>
          <parameter type-id='type-id-115' is-artificial='yes'/>
          <return type-id='type-id-29'/>
        </function-decl>
      </member-function>
      <member-function access='private' constructor='yes'>
        <function-decl name='vtkBoundingBox' filepath='/tmp/legendre/spack-stage/spack-stage-R_crTC/VTK-6.1.0/Common/DataModel/vtkBoundingBox.h' line='36' column='1' visibility='default' binding='global' size-in-bits='64'>
          <parameter type-id='type-id-115' is-artificial='yes'/>
          <parameter type-id='type-id-116'/>
          <return type-id='type-id-29'/>
        </function-decl>
      </member-function>
      <member-function access='private' constructor='yes'>
        <function-decl name='vtkBoundingBox' filepath='/tmp/legendre/spack-stage/spack-stage-R_crTC/VTK-6.1.0/Common/DataModel/vtkBoundingBox.h' line='37' column='1' visibility='default' binding='global' size-in-bits='64'>
          <parameter type-id='type-id-115' is-artificial='yes'/>
          <parameter type-id='type-id-15'/>
          <parameter type-id='type-id-15'/>
          <parameter type-id='type-id-15'/>
          <parameter type-id='type-id-15'/>
          <parameter type-id='type-id-15'/>
          <parameter type-id='type-id-15'/>
          <return type-id='type-id-29'/>
        </function-decl>
      </member-function>
      <member-function access='private' constructor='yes'>
        <function-decl name='vtkBoundingBox' filepath='/tmp/legendre/spack-stage/spack-stage-R_crTC/VTK-6.1.0/Common/DataModel/vtkBoundingBox.h' line='43' column='1' visibility='default' binding='global' size-in-bits='64'>
          <parameter type-id='type-id-115' is-artificial='yes'/>
          <parameter type-id='type-id-117'/>
          <return type-id='type-id-29'/>
        </function-decl>
      </member-function>
    </class-decl>
    <class-decl name='vtkCommunicator' size-in-bits='576' visibility='default' filepath='/tmp/legendre/spack-stage/spack-stage-R_crTC/VTK-6.1.0/Parallel/Core/vtkCommunicator.h' line='45' column='1' id='type-id-118'>
      <base-class access='public' layout-offset-in-bits='0' type-id='type-id-119'/>
      <member-type access='private'>
        <enum-decl name='Tags' filepath='/tmp/legendre/spack-stage/spack-stage-R_crTC/VTK-6.1.0/Parallel/Core/vtkCommunicator.h' line='65' column='1' id='type-id-120'>
          <underlying-type type-id='type-id-25'/>
          <enumerator name='BROADCAST_TAG' value='10'/>
          <enumerator name='GATHER_TAG' value='11'/>
          <enumerator name='GATHERV_TAG' value='12'/>
          <enumerator name='SCATTER_TAG' value='13'/>
          <enumerator name='SCATTERV_TAG' value='14'/>
          <enumerator name='REDUCE_TAG' value='15'/>
          <enumerator name='BARRIER_TAG' value='16'/>
        </enum-decl>
      </member-type>
      <member-type access='private'>
        <enum-decl name='StandardOperations' filepath='/tmp/legendre/spack-stage/spack-stage-R_crTC/VTK-6.1.0/Parallel/Core/vtkCommunicator.h' line='76' column='1' id='type-id-121'>
          <underlying-type type-id='type-id-25'/>
          <enumerator name='MAX_OP' value='0'/>
          <enumerator name='MIN_OP' value='1'/>
          <enumerator name='SUM_OP' value='2'/>
          <enumerator name='PRODUCT_OP' value='3'/>
          <enumerator name='LOGICAL_AND_OP' value='4'/>
          <enumerator name='BITWISE_AND_OP' value='5'/>
          <enumerator name='LOGICAL_OR_OP' value='6'/>
          <enumerator name='BITWISE_OR_OP' value='7'/>
          <enumerator name='LOGICAL_XOR_OP' value='8'/>
          <enumerator name='BITWISE_XOR_OP' value='9'/>
        </enum-decl>
      </member-type>
      <member-type access='private'>
        <class-decl name='Operation' size-in-bits='64' visibility='default' filepath='/tmp/legendre/spack-stage/spack-stage-R_crTC/VTK-6.1.0/Parallel/Core/vtkCommunicator.h' line='94' column='1' id='type-id-122'>
          <member-function access='private' destructor='yes' vtable-offset='-1'>
            <function-decl name='~Operation' filepath='/tmp/legendre/spack-stage/spack-stage-R_crTC/VTK-6.1.0/Parallel/Core/vtkCommunicator.h' line='113' column='1' visibility='default' binding='global' size-in-bits='64'>
              <parameter type-id='type-id-123' is-artificial='yes'/>
              <parameter type-id='type-id-19' is-artificial='yes'/>
              <return type-id='type-id-29'/>
            </function-decl>
          </member-function>
          <member-function access='private' vtable-offset='0'>
            <function-decl name='Function' mangled-name='_ZN15vtkCommunicator9Operation8FunctionEPKvPvxi' filepath='/tmp/legendre/spack-stage/spack-stage-R_crTC/VTK-6.1.0/Parallel/Core/vtkCommunicator.h' line='105' column='1' visibility='default' binding='global' size-in-bits='64'>
              <parameter type-id='type-id-123' is-artificial='yes'/>
              <parameter type-id='type-id-14'/>
              <parameter type-id='type-id-14'/>
              <parameter type-id='type-id-124'/>
              <parameter type-id='type-id-19'/>
              <return type-id='type-id-29'/>
            </function-decl>
          </member-function>
          <member-function access='private' vtable-offset='1'>
            <function-decl name='Commutative' mangled-name='_ZN15vtkCommunicator9Operation11CommutativeEv' filepath='/tmp/legendre/spack-stage/spack-stage-R_crTC/VTK-6.1.0/Parallel/Core/vtkCommunicator.h' line='111' column='1' visibility='default' binding='global' size-in-bits='64'>
              <parameter type-id='type-id-123' is-artificial='yes'/>
              <return type-id='type-id-19'/>
            </function-decl>
          </member-function>
        </class-decl>
      </member-type>
      <data-member access='protected' layout-offset-in-bits='384'>
        <var-decl name='MaximumNumberOfProcesses' type-id='type-id-19' visibility='default' filepath='/tmp/legendre/spack-stage/spack-stage-R_crTC/VTK-6.1.0/Parallel/Core/vtkCommunicator.h' line='855' column='1'/>
      </data-member>
      <data-member access='protected' layout-offset-in-bits='416'>
        <var-decl name='NumberOfProcesses' type-id='type-id-19' visibility='default' filepath='/tmp/legendre/spack-stage/spack-stage-R_crTC/VTK-6.1.0/Parallel/Core/vtkCommunicator.h' line='856' column='1'/>
      </data-member>
      <data-member access='protected' layout-offset-in-bits='448'>
        <var-decl name='LocalProcessId' type-id='type-id-19' visibility='default' filepath='/tmp/legendre/spack-stage/spack-stage-R_crTC/VTK-6.1.0/Parallel/Core/vtkCommunicator.h' line='858' column='1'/>
      </data-member>
      <data-member access='protected' static='yes'>
        <var-decl name='UseCopy' type-id='type-id-19' mangled-name='_ZN15vtkCommunicator7UseCopyE' visibility='default' filepath='/tmp/legendre/spack-stage/spack-stage-R_crTC/VTK-6.1.0/Parallel/Core/vtkCommunicator.cxx' line='117' column='1' elf-symbol-id='_ZN15vtkCommunicator7UseCopyE'/>
      </data-member>
      <data-member access='protected' layout-offset-in-bits='512'>
        <var-decl name='Count' type-id='type-id-124' visibility='default' filepath='/tmp/legendre/spack-stage/spack-stage-R_crTC/VTK-6.1.0/Parallel/Core/vtkCommunicator.h' line='862' column='1'/>
      </data-member>
      <member-function access='protected' constructor='yes'>
        <function-decl name='vtkCommunicator' mangled-name='_ZN15vtkCommunicatorC2Ev' filepath='/tmp/legendre/spack-stage/spack-stage-R_crTC/VTK-6.1.0/Parallel/Core/vtkCommunicator.cxx' line='103' column='1' visibility='default' binding='global' size-in-bits='64' elf-symbol-id='_ZN15vtkCommunicatorC2Ev'>
          <parameter type-id='type-id-125' is-artificial='yes'/>
          <return type-id='type-id-29'/>
        </function-decl>
      </member-function>
      <member-function access='private' constructor='yes'>
        <function-decl name='vtkCommunicator' filepath='/tmp/legendre/spack-stage/spack-stage-R_crTC/VTK-6.1.0/Parallel/Core/vtkCommunicator.h' line='865' column='1' visibility='default' binding='global' size-in-bits='64'>
          <parameter type-id='type-id-125' is-artificial='yes'/>
          <parameter type-id='type-id-126'/>
          <return type-id='type-id-29'/>
        </function-decl>
      </member-function>
      <member-function access='private' static='yes'>
        <function-decl name='SetUseCopy' mangled-name='_ZN15vtkCommunicator10SetUseCopyEi' filepath='/tmp/legendre/spack-stage/spack-stage-R_crTC/VTK-6.1.0/Parallel/Core/vtkCommunicator.cxx' line='118' column='1' visibility='default' binding='global' size-in-bits='64' elf-symbol-id='_ZN15vtkCommunicator10SetUseCopyEi'>
          <parameter type-id='type-id-19'/>
          <return type-id='type-id-29'/>
        </function-decl>
      </member-function>
      <member-function access='private' static='yes'>
        <function-decl name='GetParentProcessor' mangled-name='_ZN15vtkCommunicator18GetParentProcessorEi' filepath='/tmp/legendre/spack-stage/spack-stage-R_crTC/VTK-6.1.0/Parallel/Core/vtkCommunicator.cxx' line='654' column='1' visibility='default' binding='global' size-in-bits='64' elf-symbol-id='_ZN15vtkCommunicator18GetParentProcessorEi'>
          <parameter type-id='type-id-19'/>
          <return type-id='type-id-19'/>
        </function-decl>
      </member-function>
      <member-function access='private' static='yes'>
        <function-decl name='GetLeftChildProcessor' mangled-name='_ZN15vtkCommunicator21GetLeftChildProcessorEi' filepath='/tmp/legendre/spack-stage/spack-stage-R_crTC/VTK-6.1.0/Parallel/Core/vtkCommunicator.cxx' line='668' column='1' visibility='default' binding='global' size-in-bits='64' elf-symbol-id='_ZN15vtkCommunicator21GetLeftChildProcessorEi'>
          <parameter type-id='type-id-19'/>
          <return type-id='type-id-19'/>
        </function-decl>
      </member-function>
      <member-function access='private'>
        <function-decl name='AllReduce' mangled-name='_ZN15vtkCommunicator9AllReduceEP12vtkDataArrayS1_PNS_9OperationE' filepath='/tmp/legendre/spack-stage/spack-stage-R_crTC/VTK-6.1.0/Parallel/Core/vtkCommunicator.cxx' line='1447' column='1' visibility='default' binding='global' size-in-bits='64' elf-symbol-id='_ZN15vtkCommunicator9AllReduceEP12vtkDataArrayS1_PNS_9OperationE'>
          <parameter type-id='type-id-127' name='this' is-artificial='yes'/>
          <parameter type-id='type-id-128' name='sendBuffer' filepath='/tmp/legendre/spack-stage/spack-stage-R_crTC/VTK-6.1.0/Parallel/Core/vtkCommunicator.cxx' line='1447' column='1'/>
          <parameter type-id='type-id-128' name='recvBuffer' filepath='/tmp/legendre/spack-stage/spack-stage-R_crTC/VTK-6.1.0/Parallel/Core/vtkCommunicator.cxx' line='1448' column='1'/>
          <parameter type-id='type-id-123' name='operation' filepath='/tmp/legendre/spack-stage/spack-stage-R_crTC/VTK-6.1.0/Parallel/Core/vtkCommunicator.cxx' line='1449' column='1'/>
          <return type-id='type-id-19'/>
        </function-decl>
      </member-function>
      <member-function access='private'>
        <function-decl name='AllReduce' mangled-name='_ZN15vtkCommunicator9AllReduceEP12vtkDataArrayS1_i' filepath='/tmp/legendre/spack-stage/spack-stage-R_crTC/VTK-6.1.0/Parallel/Core/vtkCommunicator.cxx' line='1425' column='1' visibility='default' binding='global' size-in-bits='64' elf-symbol-id='_ZN15vtkCommunicator9AllReduceEP12vtkDataArrayS1_i'>
          <parameter type-id='type-id-127' name='this' is-artificial='yes'/>
          <parameter type-id='type-id-128' name='sendBuffer' filepath='/tmp/legendre/spack-stage/spack-stage-R_crTC/VTK-6.1.0/Parallel/Core/vtkCommunicator.cxx' line='1425' column='1'/>
          <parameter type-id='type-id-128' name='recvBuffer' filepath='/tmp/legendre/spack-stage/spack-stage-R_crTC/VTK-6.1.0/Parallel/Core/vtkCommunicator.cxx' line='1426' column='1'/>
          <parameter type-id='type-id-19' name='operation' filepath='/tmp/legendre/spack-stage/spack-stage-R_crTC/VTK-6.1.0/Parallel/Core/vtkCommunicator.cxx' line='1427' column='1'/>
          <return type-id='type-id-19'/>
        </function-decl>
      </member-function>
      <member-function access='private'>
        <function-decl name='Reduce' mangled-name='_ZN15vtkCommunicator6ReduceEP12vtkDataArrayS1_PNS_9OperationEi' filepath='/tmp/legendre/spack-stage/spack-stage-R_crTC/VTK-6.1.0/Parallel/Core/vtkCommunicator.cxx' line='1376' column='1' visibility='default' binding='global' size-in-bits='64' elf-symbol-id='_ZN15vtkCommunicator6ReduceEP12vtkDataArrayS1_PNS_9OperationEi'>
          <parameter type-id='type-id-127' name='this' is-artificial='yes'/>
          <parameter type-id='type-id-128' name='sendBuffer' filepath='/tmp/legendre/spack-stage/spack-stage-R_crTC/VTK-6.1.0/Parallel/Core/vtkCommunicator.cxx' line='1376' column='1'/>
          <parameter type-id='type-id-128' name='recvBuffer' filepath='/tmp/legendre/spack-stage/spack-stage-R_crTC/VTK-6.1.0/Parallel/Core/vtkCommunicator.cxx' line='1377' column='1'/>
          <parameter type-id='type-id-123' name='operation' filepath='/tmp/legendre/spack-stage/spack-stage-R_crTC/VTK-6.1.0/Parallel/Core/vtkCommunicator.cxx' line='1378' column='1'/>
          <parameter type-id='type-id-19' name='destProcessId' filepath='/tmp/legendre/spack-stage/spack-stage-R_crTC/VTK-6.1.0/Parallel/Core/vtkCommunicator.cxx' line='1378' column='1'/>
          <return type-id='type-id-19'/>
        </function-decl>
      </member-function>
      <member-function access='private'>
        <function-decl name='Reduce' mangled-name='_ZN15vtkCommunicator6ReduceEP12vtkDataArrayS1_ii' filepath='/tmp/legendre/spack-stage/spack-stage-R_crTC/VTK-6.1.0/Parallel/Core/vtkCommunicator.cxx' line='1353' column='1' visibility='default' binding='global' size-in-bits='64' elf-symbol-id='_ZN15vtkCommunicator6ReduceEP12vtkDataArrayS1_ii'>
          <parameter type-id='type-id-127' name='this' is-artificial='yes'/>
          <parameter type-id='type-id-128' name='sendBuffer' filepath='/tmp/legendre/spack-stage/spack-stage-R_crTC/VTK-6.1.0/Parallel/Core/vtkCommunicator.cxx' line='1353' column='1'/>
          <parameter type-id='type-id-128' name='recvBuffer' filepath='/tmp/legendre/spack-stage/spack-stage-R_crTC/VTK-6.1.0/Parallel/Core/vtkCommunicator.cxx' line='1354' column='1'/>
          <parameter type-id='type-id-19' name='operation' filepath='/tmp/legendre/spack-stage/spack-stage-R_crTC/VTK-6.1.0/Parallel/Core/vtkCommunicator.cxx' line='1355' column='1'/>
          <parameter type-id='type-id-19' name='destProcessId' filepath='/tmp/legendre/spack-stage/spack-stage-R_crTC/VTK-6.1.0/Parallel/Core/vtkCommunicator.cxx' line='1355' column='1'/>
          <return type-id='type-id-19'/>
        </function-decl>
      </member-function>
      <member-function access='private'>
        <function-decl name='AllGatherV' mangled-name='_ZN15vtkCommunicator10AllGatherVEP12vtkDataArrayS1_PxS2_' filepath='/tmp/legendre/spack-stage/spack-stage-R_crTC/VTK-6.1.0/Parallel/Core/vtkCommunicator.cxx' line='1220' column='1' visibility='default' binding='global' size-in-bits='64' elf-symbol-id='_ZN15vtkCommunicator10AllGatherVEP12vtkDataArrayS1_PxS2_'>
          <parameter type-id='type-id-127' name='this' is-artificial='yes'/>
          <parameter type-id='type-id-128' name='sendBuffer' filepath='/tmp/legendre/spack-stage/spack-stage-R_crTC/VTK-6.1.0/Parallel/Core/vtkCommunicator.cxx' line='1220' column='1'/>
          <parameter type-id='type-id-128' name='recvBuffer' filepath='/tmp/legendre/spack-stage/spack-stage-R_crTC/VTK-6.1.0/Parallel/Core/vtkCommunicator.cxx' line='1221' column='1'/>
          <parameter type-id='type-id-129' name='recvLengths' filepath='/tmp/legendre/spack-stage/spack-stage-R_crTC/VTK-6.1.0/Parallel/Core/vtkCommunicator.cxx' line='1222' column='1'/>
          <parameter type-id='type-id-129' name='offsets' filepath='/tmp/legendre/spack-stage/spack-stage-R_crTC/VTK-6.1.0/Parallel/Core/vtkCommunicator.cxx' line='1223' column='1'/>
          <return type-id='type-id-19'/>
        </function-decl>
      </member-function>
      <member-function access='private'>
        <function-decl name='AllGather' mangled-name='_ZN15vtkCommunicator9AllGatherEP12vtkDataArrayS1_' filepath='/tmp/legendre/spack-stage/spack-stage-R_crTC/VTK-6.1.0/Parallel/Core/vtkCommunicator.cxx' line='1180' column='1' visibility='default' binding='global' size-in-bits='64' elf-symbol-id='_ZN15vtkCommunicator9AllGatherEP12vtkDataArrayS1_'>
          <parameter type-id='type-id-127' name='this' is-artificial='yes'/>
          <parameter type-id='type-id-128' name='sendBuffer' filepath='/tmp/legendre/spack-stage/spack-stage-R_crTC/VTK-6.1.0/Parallel/Core/vtkCommunicator.cxx' line='1180' column='1'/>
          <parameter type-id='type-id-128' name='recvBuffer' filepath='/tmp/legendre/spack-stage/spack-stage-R_crTC/VTK-6.1.0/Parallel/Core/vtkCommunicator.cxx' line='1181' column='1'/>
          <return type-id='type-id-19'/>
        </function-decl>
      </member-function>
      <member-function access='private'>
        <function-decl name='Scatter' mangled-name='_ZN15vtkCommunicator7ScatterEP12vtkDataArrayS1_i' filepath='/tmp/legendre/spack-stage/spack-stage-R_crTC/VTK-6.1.0/Parallel/Core/vtkCommunicator.cxx' line='1100' column='1' visibility='default' binding='global' size-in-bits='64' elf-symbol-id='_ZN15vtkCommunicator7ScatterEP12vtkDataArrayS1_i'>
          <parameter type-id='type-id-127' name='this' is-artificial='yes'/>
          <parameter type-id='type-id-128' name='sendBuffer' filepath='/tmp/legendre/spack-stage/spack-stage-R_crTC/VTK-6.1.0/Parallel/Core/vtkCommunicator.cxx' line='1425' column='1'/>
          <parameter type-id='type-id-128' name='recvBuffer' filepath='/tmp/legendre/spack-stage/spack-stage-R_crTC/VTK-6.1.0/Parallel/Core/vtkCommunicator.cxx' line='1426' column='1'/>
          <parameter type-id='type-id-19' name='operation' filepath='/tmp/legendre/spack-stage/spack-stage-R_crTC/VTK-6.1.0/Parallel/Core/vtkCommunicator.cxx' line='1427' column='1'/>
          <return type-id='type-id-19'/>
        </function-decl>
      </member-function>
      <member-function access='private'>
        <function-decl name='GatherV' mangled-name='_ZN15vtkCommunicator7GatherVEP12vtkDataArrayS1_PxS2_i' filepath='/tmp/legendre/spack-stage/spack-stage-R_crTC/VTK-6.1.0/Parallel/Core/vtkCommunicator.cxx' line='1009' column='1' visibility='default' binding='global' size-in-bits='64' elf-symbol-id='_ZN15vtkCommunicator7GatherVEP12vtkDataArrayS1_PxS2_i'>
          <parameter type-id='type-id-127' name='this' is-artificial='yes'/>
          <parameter type-id='type-id-128' name='sendBuffer' filepath='/tmp/legendre/spack-stage/spack-stage-R_crTC/VTK-6.1.0/Parallel/Core/vtkCommunicator.cxx' line='1009' column='1'/>
          <parameter type-id='type-id-128' name='recvBuffer' filepath='/tmp/legendre/spack-stage/spack-stage-R_crTC/VTK-6.1.0/Parallel/Core/vtkCommunicator.cxx' line='1009' column='1'/>
          <parameter type-id='type-id-129' name='recvLengths' filepath='/tmp/legendre/spack-stage/spack-stage-R_crTC/VTK-6.1.0/Parallel/Core/vtkCommunicator.cxx' line='1010' column='1'/>
          <parameter type-id='type-id-129' name='offsets' filepath='/tmp/legendre/spack-stage/spack-stage-R_crTC/VTK-6.1.0/Parallel/Core/vtkCommunicator.cxx' line='1010' column='1'/>
          <parameter type-id='type-id-19' name='destProcessId' filepath='/tmp/legendre/spack-stage/spack-stage-R_crTC/VTK-6.1.0/Parallel/Core/vtkCommunicator.cxx' line='1011' column='1'/>
          <return type-id='type-id-19'/>
        </function-decl>
      </member-function>
      <member-function access='private'>
        <function-decl name='Gather' mangled-name='_ZN15vtkCommunicator6GatherEP12vtkDataArrayS1_i' filepath='/tmp/legendre/spack-stage/spack-stage-R_crTC/VTK-6.1.0/Parallel/Core/vtkCommunicator.cxx' line='944' column='1' visibility='default' binding='global' size-in-bits='64' elf-symbol-id='_ZN15vtkCommunicator6GatherEP12vtkDataArrayS1_i'>
          <parameter type-id='type-id-127' name='this' is-artificial='yes'/>
          <parameter type-id='type-id-128' name='sendBuffer' filepath='/tmp/legendre/spack-stage/spack-stage-R_crTC/VTK-6.1.0/Parallel/Core/vtkCommunicator.cxx' line='1425' column='1'/>
          <parameter type-id='type-id-128' name='recvBuffer' filepath='/tmp/legendre/spack-stage/spack-stage-R_crTC/VTK-6.1.0/Parallel/Core/vtkCommunicator.cxx' line='1426' column='1'/>
          <parameter type-id='type-id-19' name='operation' filepath='/tmp/legendre/spack-stage/spack-stage-R_crTC/VTK-6.1.0/Parallel/Core/vtkCommunicator.cxx' line='1427' column='1'/>
          <return type-id='type-id-19'/>
        </function-decl>
      </member-function>
      <member-function access='private'>
        <function-decl name='Send' mangled-name='_ZN15vtkCommunicator4SendEP12vtkDataArrayii' filepath='/tmp/legendre/spack-stage/spack-stage-R_crTC/VTK-6.1.0/Parallel/Core/vtkCommunicator.cxx' line='229' column='1' visibility='default' binding='global' size-in-bits='64' elf-symbol-id='_ZN15vtkCommunicator4SendEP12vtkDataArrayii'>
          <parameter type-id='type-id-127' name='this' is-artificial='yes'/>
          <parameter type-id='type-id-128' name='data' filepath='/tmp/legendre/spack-stage/spack-stage-R_crTC/VTK-6.1.0/Parallel/Core/vtkCommunicator.cxx' line='229' column='1'/>
          <parameter type-id='type-id-19' name='remoteHandle' filepath='/tmp/legendre/spack-stage/spack-stage-R_crTC/VTK-6.1.0/Parallel/Core/vtkCommunicator.cxx' line='229' column='1'/>
          <parameter type-id='type-id-19' name='tag' filepath='/tmp/legendre/spack-stage/spack-stage-R_crTC/VTK-6.1.0/Parallel/Core/vtkCommunicator.cxx' line='229' column='1'/>
          <return type-id='type-id-19'/>
        </function-decl>
      </member-function>
      <member-function access='private'>
        <function-decl name='Broadcast' mangled-name='_ZN15vtkCommunicator9BroadcastEP12vtkDataArrayi' filepath='/tmp/legendre/spack-stage/spack-stage-R_crTC/VTK-6.1.0/Parallel/Core/vtkCommunicator.cxx' line='842' column='1' visibility='default' binding='global' size-in-bits='64' elf-symbol-id='_ZN15vtkCommunicator9BroadcastEP12vtkDataArrayi'>
          <parameter type-id='type-id-127' name='this' is-artificial='yes'/>
          <parameter type-id='type-id-128' name='data' filepath='/tmp/legendre/spack-stage/spack-stage-R_crTC/VTK-6.1.0/Parallel/Core/vtkCommunicator.cxx' line='842' column='1'/>
          <parameter type-id='type-id-19' name='srcProcessId' filepath='/tmp/legendre/spack-stage/spack-stage-R_crTC/VTK-6.1.0/Parallel/Core/vtkCommunicator.cxx' line='842' column='1'/>
          <return type-id='type-id-19'/>
        </function-decl>
      </member-function>
      <member-function access='private' static='yes'>
        <function-decl name='UnMarshalDataObject' mangled-name='_ZN15vtkCommunicator19UnMarshalDataObjectEP12vtkCharArrayP13vtkDataObject' filepath='/tmp/legendre/spack-stage/spack-stage-R_crTC/VTK-6.1.0/Parallel/Core/vtkCommunicator.cxx' line='589' column='1' visibility='default' binding='global' size-in-bits='64' elf-symbol-id='_ZN15vtkCommunicator19UnMarshalDataObjectEP12vtkCharArrayP13vtkDataObject'>
          <parameter type-id='type-id-130'/>
          <parameter type-id='type-id-131'/>
          <return type-id='type-id-19'/>
        </function-decl>
      </member-function>
      <member-function access='private' static='yes'>
        <function-decl name='MarshalDataObject' mangled-name='_ZN15vtkCommunicator17MarshalDataObjectEP13vtkDataObjectP12vtkCharArray' filepath='/tmp/legendre/spack-stage/spack-stage-R_crTC/VTK-6.1.0/Parallel/Core/vtkCommunicator.cxx' line='511' column='1' visibility='default' binding='global' size-in-bits='64' elf-symbol-id='_ZN15vtkCommunicator17MarshalDataObjectEP13vtkDataObjectP12vtkCharArray'>
          <parameter type-id='type-id-131'/>
          <parameter type-id='type-id-130'/>
          <return type-id='type-id-19'/>
        </function-decl>
      </member-function>
      <member-function access='private'>
        <function-decl name='Receive' mangled-name='_ZN15vtkCommunicator7ReceiveER21vtkMultiProcessStreamii' filepath='/tmp/legendre/spack-stage/spack-stage-R_crTC/VTK-6.1.0/Parallel/Core/vtkCommunicator.cxx' line='1526' column='1' visibility='default' binding='global' size-in-bits='64' elf-symbol-id='_ZN15vtkCommunicator7ReceiveER21vtkMultiProcessStreamii'>
          <parameter type-id='type-id-127' name='this' is-artificial='yes'/>
          <parameter type-id='type-id-94' name='stream' filepath='/tmp/legendre/spack-stage/spack-stage-R_crTC/VTK-6.1.0/Parallel/Core/vtkCommunicator.cxx' line='1526' column='1'/>
          <parameter type-id='type-id-19' name='remoteId' filepath='/tmp/legendre/spack-stage/spack-stage-R_crTC/VTK-6.1.0/Parallel/Core/vtkCommunicator.cxx' line='1526' column='1'/>
          <parameter type-id='type-id-19' name='tag' filepath='/tmp/legendre/spack-stage/spack-stage-R_crTC/VTK-6.1.0/Parallel/Core/vtkCommunicator.cxx' line='1526' column='1'/>
          <return type-id='type-id-19'/>
        </function-decl>
      </member-function>
      <member-function access='private'>
        <function-decl name='Broadcast' mangled-name='_ZN15vtkCommunicator9BroadcastEP13vtkDataObjecti' filepath='/tmp/legendre/spack-stage/spack-stage-R_crTC/VTK-6.1.0/Parallel/Core/vtkCommunicator.cxx' line='814' column='1' visibility='default' binding='global' size-in-bits='64' elf-symbol-id='_ZN15vtkCommunicator9BroadcastEP13vtkDataObjecti'>
          <parameter type-id='type-id-127' name='this' is-artificial='yes'/>
          <parameter type-id='type-id-131' name='data' filepath='/tmp/legendre/spack-stage/spack-stage-R_crTC/VTK-6.1.0/Parallel/Core/vtkCommunicator.cxx' line='814' column='1'/>
          <parameter type-id='type-id-19' name='srcProcessId' filepath='/tmp/legendre/spack-stage/spack-stage-R_crTC/VTK-6.1.0/Parallel/Core/vtkCommunicator.cxx' line='814' column='1'/>
          <return type-id='type-id-19'/>
        </function-decl>
      </member-function>
      <member-function access='protected'>
        <function-decl name='SendElementalDataObject' mangled-name='_ZN15vtkCommunicator23SendElementalDataObjectEP13vtkDataObjectii' filepath='/tmp/legendre/spack-stage/spack-stage-R_crTC/VTK-6.1.0/Parallel/Core/vtkCommunicator.cxx' line='216' column='1' visibility='default' binding='global' size-in-bits='64' elf-symbol-id='_ZN15vtkCommunicator23SendElementalDataObjectEP13vtkDataObjectii'>
          <parameter type-id='type-id-127' name='this' is-artificial='yes'/>
          <parameter type-id='type-id-131' name='data' filepath='/tmp/legendre/spack-stage/spack-stage-R_crTC/VTK-6.1.0/Parallel/Core/vtkCommunicator.cxx' line='217' column='1'/>
          <parameter type-id='type-id-19' name='remoteHandle' filepath='/tmp/legendre/spack-stage/spack-stage-R_crTC/VTK-6.1.0/Parallel/Core/vtkCommunicator.cxx' line='217' column='1'/>
          <parameter type-id='type-id-19' name='tag' filepath='/tmp/legendre/spack-stage/spack-stage-R_crTC/VTK-6.1.0/Parallel/Core/vtkCommunicator.cxx' line='218' column='1'/>
          <return type-id='type-id-19'/>
        </function-decl>
      </member-function>
      <member-function access='private'>
        <function-decl name='Send' mangled-name='_ZN15vtkCommunicator4SendEP13vtkDataObjectii' filepath='/tmp/legendre/spack-stage/spack-stage-R_crTC/VTK-6.1.0/Parallel/Core/vtkCommunicator.cxx' line='157' column='1' visibility='default' binding='global' size-in-bits='64' elf-symbol-id='_ZN15vtkCommunicator4SendEP13vtkDataObjectii'>
          <parameter type-id='type-id-127' name='this' is-artificial='yes'/>
          <parameter type-id='type-id-131' name='data' filepath='/tmp/legendre/spack-stage/spack-stage-R_crTC/VTK-6.1.0/Parallel/Core/vtkCommunicator.cxx' line='217' column='1'/>
          <parameter type-id='type-id-19' name='remoteHandle' filepath='/tmp/legendre/spack-stage/spack-stage-R_crTC/VTK-6.1.0/Parallel/Core/vtkCommunicator.cxx' line='217' column='1'/>
          <parameter type-id='type-id-19' name='tag' filepath='/tmp/legendre/spack-stage/spack-stage-R_crTC/VTK-6.1.0/Parallel/Core/vtkCommunicator.cxx' line='218' column='1'/>
          <return type-id='type-id-19'/>
        </function-decl>
      </member-function>
      <member-function access='private'>
        <function-decl name='Receive' mangled-name='_ZN15vtkCommunicator7ReceiveEP12vtkDataArrayii' filepath='/tmp/legendre/spack-stage/spack-stage-R_crTC/VTK-6.1.0/Parallel/Core/vtkCommunicator.cxx' line='423' column='1' visibility='default' binding='global' size-in-bits='64' elf-symbol-id='_ZN15vtkCommunicator7ReceiveEP12vtkDataArrayii'>
          <parameter type-id='type-id-127' name='this' is-artificial='yes'/>
          <parameter type-id='type-id-128' name='data' filepath='/tmp/legendre/spack-stage/spack-stage-R_crTC/VTK-6.1.0/Parallel/Core/vtkCommunicator.cxx' line='229' column='1'/>
          <parameter type-id='type-id-19' name='remoteHandle' filepath='/tmp/legendre/spack-stage/spack-stage-R_crTC/VTK-6.1.0/Parallel/Core/vtkCommunicator.cxx' line='229' column='1'/>
          <parameter type-id='type-id-19' name='tag' filepath='/tmp/legendre/spack-stage/spack-stage-R_crTC/VTK-6.1.0/Parallel/Core/vtkCommunicator.cxx' line='229' column='1'/>
          <return type-id='type-id-19'/>
        </function-decl>
      </member-function>
      <member-function access='protected'>
        <function-decl name='ReceiveElementalDataObject' mangled-name='_ZN15vtkCommunicator26ReceiveElementalDataObjectEP13vtkDataObjectii' filepath='/tmp/legendre/spack-stage/spack-stage-R_crTC/VTK-6.1.0/Parallel/Core/vtkCommunicator.cxx' line='410' column='1' visibility='default' binding='global' size-in-bits='64' elf-symbol-id='_ZN15vtkCommunicator26ReceiveElementalDataObjectEP13vtkDataObjectii'>
          <parameter type-id='type-id-127' name='this' is-artificial='yes'/>
          <parameter type-id='type-id-131' name='data' filepath='/tmp/legendre/spack-stage/spack-stage-R_crTC/VTK-6.1.0/Parallel/Core/vtkCommunicator.cxx' line='217' column='1'/>
          <parameter type-id='type-id-19' name='remoteHandle' filepath='/tmp/legendre/spack-stage/spack-stage-R_crTC/VTK-6.1.0/Parallel/Core/vtkCommunicator.cxx' line='217' column='1'/>
          <parameter type-id='type-id-19' name='tag' filepath='/tmp/legendre/spack-stage/spack-stage-R_crTC/VTK-6.1.0/Parallel/Core/vtkCommunicator.cxx' line='218' column='1'/>
          <return type-id='type-id-19'/>
        </function-decl>
      </member-function>
      <member-function access='protected'>
        <function-decl name='ReceiveDataObject' mangled-name='_ZN15vtkCommunicator17ReceiveDataObjectEP13vtkDataObjectiii' filepath='/tmp/legendre/spack-stage/spack-stage-R_crTC/VTK-6.1.0/Parallel/Core/vtkCommunicator.cxx' line='342' column='1' visibility='default' binding='global' size-in-bits='64' elf-symbol-id='_ZN15vtkCommunicator17ReceiveDataObjectEP13vtkDataObjectiii'>
          <parameter type-id='type-id-127' name='this' is-artificial='yes'/>
          <parameter type-id='type-id-131' name='data' filepath='/tmp/legendre/spack-stage/spack-stage-R_crTC/VTK-6.1.0/Parallel/Core/vtkCommunicator.cxx' line='342' column='1'/>
          <parameter type-id='type-id-19' name='remoteHandle' filepath='/tmp/legendre/spack-stage/spack-stage-R_crTC/VTK-6.1.0/Parallel/Core/vtkCommunicator.cxx' line='342' column='1'/>
          <parameter type-id='type-id-19' name='tag' filepath='/tmp/legendre/spack-stage/spack-stage-R_crTC/VTK-6.1.0/Parallel/Core/vtkCommunicator.cxx' line='343' column='1'/>
          <parameter type-id='type-id-19' name='dataType' filepath='/tmp/legendre/spack-stage/spack-stage-R_crTC/VTK-6.1.0/Parallel/Core/vtkCommunicator.cxx' line='343' column='1'/>
          <return type-id='type-id-19'/>
        </function-decl>
      </member-function>
      <member-function access='private'>
        <function-decl name='Receive' mangled-name='_ZN15vtkCommunicator7ReceiveEP13vtkDataObjectii' filepath='/tmp/legendre/spack-stage/spack-stage-R_crTC/VTK-6.1.0/Parallel/Core/vtkCommunicator.cxx' line='293' column='1' visibility='default' binding='global' size-in-bits='64' elf-symbol-id='_ZN15vtkCommunicator7ReceiveEP13vtkDataObjectii'>
          <parameter type-id='type-id-127' name='this' is-artificial='yes'/>
          <parameter type-id='type-id-131' name='data' filepath='/tmp/legendre/spack-stage/spack-stage-R_crTC/VTK-6.1.0/Parallel/Core/vtkCommunicator.cxx' line='217' column='1'/>
          <parameter type-id='type-id-19' name='remoteHandle' filepath='/tmp/legendre/spack-stage/spack-stage-R_crTC/VTK-6.1.0/Parallel/Core/vtkCommunicator.cxx' line='217' column='1'/>
          <parameter type-id='type-id-19' name='tag' filepath='/tmp/legendre/spack-stage/spack-stage-R_crTC/VTK-6.1.0/Parallel/Core/vtkCommunicator.cxx' line='218' column='1'/>
          <return type-id='type-id-19'/>
        </function-decl>
      </member-function>
      <member-function access='private'>
        <function-decl name='ReceiveDataObject' mangled-name='_ZN15vtkCommunicator17ReceiveDataObjectEii' filepath='/tmp/legendre/spack-stage/spack-stage-R_crTC/VTK-6.1.0/Parallel/Core/vtkCommunicator.cxx' line='301' column='1' visibility='default' binding='global' size-in-bits='64' elf-symbol-id='_ZN15vtkCommunicator17ReceiveDataObjectEii'>
          <parameter type-id='type-id-127' name='this' is-artificial='yes'/>
          <parameter type-id='type-id-19' name='remoteHandle' filepath='/tmp/legendre/spack-stage/spack-stage-R_crTC/VTK-6.1.0/Parallel/Core/vtkCommunicator.cxx' line='301' column='1'/>
          <parameter type-id='type-id-19' name='tag' filepath='/tmp/legendre/spack-stage/spack-stage-R_crTC/VTK-6.1.0/Parallel/Core/vtkCommunicator.cxx' line='301' column='1'/>
          <return type-id='type-id-131'/>
        </function-decl>
      </member-function>
      <member-function access='private'>
        <function-decl name='AllGatherV' mangled-name='_ZN15vtkCommunicator10AllGatherVEP12vtkDataArrayS1_' filepath='/tmp/legendre/spack-stage/spack-stage-R_crTC/VTK-6.1.0/Parallel/Core/vtkCommunicator.cxx' line='1239' column='1' visibility='default' binding='global' size-in-bits='64' elf-symbol-id='_ZN15vtkCommunicator10AllGatherVEP12vtkDataArrayS1_'>
          <parameter type-id='type-id-127' name='this' is-artificial='yes'/>
          <parameter type-id='type-id-128' name='sendBuffer' filepath='/tmp/legendre/spack-stage/spack-stage-R_crTC/VTK-6.1.0/Parallel/Core/vtkCommunicator.cxx' line='1180' column='1'/>
          <parameter type-id='type-id-128' name='recvBuffer' filepath='/tmp/legendre/spack-stage/spack-stage-R_crTC/VTK-6.1.0/Parallel/Core/vtkCommunicator.cxx' line='1181' column='1'/>
          <return type-id='type-id-19'/>
        </function-decl>
      </member-function>
      <member-function access='private'>
        <function-decl name='GatherV' mangled-name='_ZN15vtkCommunicator7GatherVEP12vtkDataArrayS1_i' filepath='/tmp/legendre/spack-stage/spack-stage-R_crTC/VTK-6.1.0/Parallel/Core/vtkCommunicator.cxx' line='1029' column='1' visibility='default' binding='global' size-in-bits='64' elf-symbol-id='_ZN15vtkCommunicator7GatherVEP12vtkDataArrayS1_i'>
          <parameter type-id='type-id-127' name='this' is-artificial='yes'/>
          <parameter type-id='type-id-128' name='sendBuffer' filepath='/tmp/legendre/spack-stage/spack-stage-R_crTC/VTK-6.1.0/Parallel/Core/vtkCommunicator.cxx' line='1425' column='1'/>
          <parameter type-id='type-id-128' name='recvBuffer' filepath='/tmp/legendre/spack-stage/spack-stage-R_crTC/VTK-6.1.0/Parallel/Core/vtkCommunicator.cxx' line='1426' column='1'/>
          <parameter type-id='type-id-19' name='operation' filepath='/tmp/legendre/spack-stage/spack-stage-R_crTC/VTK-6.1.0/Parallel/Core/vtkCommunicator.cxx' line='1427' column='1'/>
          <return type-id='type-id-19'/>
        </function-decl>
      </member-function>
      <member-function access='private'>
        <function-decl name='Send' mangled-name='_ZN15vtkCommunicator4SendERK21vtkMultiProcessStreamii' filepath='/tmp/legendre/spack-stage/spack-stage-R_crTC/VTK-6.1.0/Parallel/Core/vtkCommunicator.cxx' line='1509' column='1' visibility='default' binding='global' size-in-bits='64' elf-symbol-id='_ZN15vtkCommunicator4SendERK21vtkMultiProcessStreamii'>
          <parameter type-id='type-id-127' name='this' is-artificial='yes'/>
          <parameter type-id='type-id-83' name='stream' filepath='/tmp/legendre/spack-stage/spack-stage-R_crTC/VTK-6.1.0/Parallel/Core/vtkCommunicator.cxx' line='1509' column='1'/>
          <parameter type-id='type-id-19' name='remoteId' filepath='/tmp/legendre/spack-stage/spack-stage-R_crTC/VTK-6.1.0/Parallel/Core/vtkCommunicator.cxx' line='1509' column='1'/>
          <parameter type-id='type-id-19' name='tag' filepath='/tmp/legendre/spack-stage/spack-stage-R_crTC/VTK-6.1.0/Parallel/Core/vtkCommunicator.cxx' line='1509' column='1'/>
          <return type-id='type-id-19'/>
        </function-decl>
      </member-function>
      <member-function access='private'>
        <function-decl name='Broadcast' mangled-name='_ZN15vtkCommunicator9BroadcastER21vtkMultiProcessStreami' filepath='/tmp/legendre/spack-stage/spack-stage-R_crTC/VTK-6.1.0/Parallel/Core/vtkCommunicator.cxx' line='1469' column='1' visibility='default' binding='global' size-in-bits='64' elf-symbol-id='_ZN15vtkCommunicator9BroadcastER21vtkMultiProcessStreami'>
          <parameter type-id='type-id-127' name='this' is-artificial='yes'/>
          <parameter type-id='type-id-94' name='stream' filepath='/tmp/legendre/spack-stage/spack-stage-R_crTC/VTK-6.1.0/Parallel/Core/vtkCommunicator.cxx' line='1469' column='1'/>
          <parameter type-id='type-id-19' name='srcProcessId' filepath='/tmp/legendre/spack-stage/spack-stage-R_crTC/VTK-6.1.0/Parallel/Core/vtkCommunicator.cxx' line='1469' column='1'/>
          <return type-id='type-id-19'/>
        </function-decl>
      </member-function>
      <member-function access='protected' destructor='yes' vtable-offset='-1'>
        <function-decl name='~vtkCommunicator' mangled-name='_ZN15vtkCommunicatorD1Ev' filepath='/tmp/legendre/spack-stage/spack-stage-R_crTC/VTK-6.1.0/Parallel/Core/vtkCommunicator.cxx' line='112' column='1' visibility='default' binding='global' size-in-bits='64' elf-symbol-id='_ZN15vtkCommunicatorD1Ev'>
          <parameter type-id='type-id-125' is-artificial='yes'/>
          <parameter type-id='type-id-19'/>
          <return type-id='type-id-29'/>
        </function-decl>
      </member-function>
      <member-function access='private' vtable-offset='0'>
        <function-decl name='GetClassNameInternal' mangled-name='_ZNK15vtkCommunicator20GetClassNameInternalEv' filepath='/tmp/legendre/spack-stage/spack-stage-R_crTC/VTK-6.1.0/Parallel/Core/vtkCommunicator.h' line='49' column='1' visibility='default' binding='global' size-in-bits='64'>
          <parameter type-id='type-id-132' is-artificial='yes'/>
          <return type-id='type-id-102'/>
        </function-decl>
      </member-function>
      <member-function access='private' vtable-offset='1'>
        <function-decl name='IsA' mangled-name='_ZN15vtkCommunicator3IsAEPKc' filepath='/tmp/legendre/spack-stage/spack-stage-R_crTC/VTK-6.1.0/Parallel/Core/vtkCommunicator.h' line='49' column='1' visibility='default' binding='global' size-in-bits='64'>
          <parameter type-id='type-id-125' is-artificial='yes'/>
          <parameter type-id='type-id-102'/>
          <return type-id='type-id-19'/>
        </function-decl>
      </member-function>
      <member-function access='private' vtable-offset='4'>
        <function-decl name='PrintSelf' mangled-name='_ZN15vtkCommunicator9PrintSelfERSo9vtkIndent' filepath='/tmp/legendre/spack-stage/spack-stage-R_crTC/VTK-6.1.0/Parallel/Core/vtkCommunicator.cxx' line='124' column='1' visibility='default' binding='global' size-in-bits='64' elf-symbol-id='_ZN15vtkCommunicator9PrintSelfERSo9vtkIndent'>
          <parameter type-id='type-id-125' is-artificial='yes'/>
          <parameter type-id='type-id-133'/>
          <parameter type-id='type-id-51'/>
          <return type-id='type-id-29'/>
        </function-decl>
      </member-function>
      <member-function access='protected' vtable-offset='15'>
        <function-decl name='NewInstanceInternal' mangled-name='_ZNK15vtkCommunicator19NewInstanceInternalEv' filepath='/tmp/legendre/spack-stage/spack-stage-R_crTC/VTK-6.1.0/Parallel/Core/vtkCommunicator.h' line='49' column='1' visibility='default' binding='global' size-in-bits='64'>
          <parameter type-id='type-id-132' is-artificial='yes'/>
          <return type-id='type-id-134'/>
        </function-decl>
      </member-function>
      <member-function access='private' vtable-offset='20'>
        <function-decl name='SetNumberOfProcesses' mangled-name='_ZN15vtkCommunicator20SetNumberOfProcessesEi' filepath='/tmp/legendre/spack-stage/spack-stage-R_crTC/VTK-6.1.0/Parallel/Core/vtkCommunicator.cxx' line='136' column='1' visibility='default' binding='global' size-in-bits='64' elf-symbol-id='_ZN15vtkCommunicator20SetNumberOfProcessesEi'>
          <parameter type-id='type-id-125' is-artificial='yes'/>
          <parameter type-id='type-id-19'/>
          <return type-id='type-id-29'/>
        </function-decl>
      </member-function>
      <member-function access='private' vtable-offset='21'>
        <function-decl name='GetNumberOfProcesses' mangled-name='_ZN15vtkCommunicator20GetNumberOfProcessesEv' filepath='/tmp/legendre/spack-stage/spack-stage-R_crTC/VTK-6.1.0/Parallel/Core/vtkCommunicator.h' line='57' column='1' visibility='default' binding='global' size-in-bits='64'>
          <parameter type-id='type-id-125' is-artificial='yes'/>
          <return type-id='type-id-19'/>
        </function-decl>
      </member-function>
      <member-function access='private' vtable-offset='22'>
        <function-decl name='GetLocalProcessId' mangled-name='_ZN15vtkCommunicator17GetLocalProcessIdEv' filepath='/tmp/legendre/spack-stage/spack-stage-R_crTC/VTK-6.1.0/Parallel/Core/vtkCommunicator.h' line='61' column='1' visibility='default' binding='global' size-in-bits='64'>
          <parameter type-id='type-id-125' is-artificial='yes'/>
          <return type-id='type-id-19'/>
        </function-decl>
      </member-function>
      <member-function access='private' vtable-offset='23'>
        <function-decl name='SendVoidArray' mangled-name='_ZN15vtkCommunicator13SendVoidArrayEPKvxiii' filepath='/tmp/legendre/spack-stage/spack-stage-R_crTC/VTK-6.1.0/Parallel/Core/vtkCommunicator.h' line='135' column='1' visibility='default' binding='global' size-in-bits='64'>
          <parameter type-id='type-id-125' is-artificial='yes'/>
          <parameter type-id='type-id-14'/>
          <parameter type-id='type-id-124'/>
          <parameter type-id='type-id-19'/>
          <parameter type-id='type-id-19'/>
          <parameter type-id='type-id-19'/>
          <return type-id='type-id-19'/>
        </function-decl>
      </member-function>
      <member-function access='private' vtable-offset='24'>
        <function-decl name='ReceiveVoidArray' mangled-name='_ZN15vtkCommunicator16ReceiveVoidArrayEPvxiii' filepath='/tmp/legendre/spack-stage/spack-stage-R_crTC/VTK-6.1.0/Parallel/Core/vtkCommunicator.h' line='197' column='1' visibility='default' binding='global' size-in-bits='64'>
          <parameter type-id='type-id-125' is-artificial='yes'/>
          <parameter type-id='type-id-14'/>
          <parameter type-id='type-id-124'/>
          <parameter type-id='type-id-19'/>
          <parameter type-id='type-id-19'/>
          <parameter type-id='type-id-19'/>
          <return type-id='type-id-19'/>
        </function-decl>
      </member-function>
      <member-function access='private' vtable-offset='25'>
        <function-decl name='GetCount' mangled-name='_ZN15vtkCommunicator8GetCountEv' filepath='/tmp/legendre/spack-stage/spack-stage-R_crTC/VTK-6.1.0/Parallel/Core/vtkCommunicator.h' line='241' column='1' visibility='default' binding='global' size-in-bits='64'>
          <parameter type-id='type-id-125' is-artificial='yes'/>
          <return type-id='type-id-124'/>
        </function-decl>
      </member-function>
      <member-function access='private' vtable-offset='26'>
        <function-decl name='Barrier' mangled-name='_ZN15vtkCommunicator7BarrierEv' filepath='/tmp/legendre/spack-stage/spack-stage-R_crTC/VTK-6.1.0/Parallel/Core/vtkCommunicator.cxx' line='773' column='1' visibility='default' binding='global' size-in-bits='64' elf-symbol-id='_ZN15vtkCommunicator7BarrierEv'>
          <parameter type-id='type-id-125' is-artificial='yes'/>
          <return type-id='type-id-29'/>
        </function-decl>
      </member-function>
      <member-function access='private' vtable-offset='27'>
        <function-decl name='BroadcastVoidArray' mangled-name='_ZN15vtkCommunicator18BroadcastVoidArrayEPvxii' filepath='/tmp/legendre/spack-stage/spack-stage-R_crTC/VTK-6.1.0/Parallel/Core/vtkCommunicator.cxx' line='791' column='1' visibility='default' binding='global' size-in-bits='64' elf-symbol-id='_ZN15vtkCommunicator18BroadcastVoidArrayEPvxii'>
          <parameter type-id='type-id-125' is-artificial='yes'/>
          <parameter type-id='type-id-14'/>
          <parameter type-id='type-id-124'/>
          <parameter type-id='type-id-19'/>
          <parameter type-id='type-id-19'/>
          <return type-id='type-id-19'/>
        </function-decl>
      </member-function>
      <member-function access='private' vtable-offset='28'>
        <function-decl name='GatherVoidArray' mangled-name='_ZN15vtkCommunicator15GatherVoidArrayEPKvPvxii' filepath='/tmp/legendre/spack-stage/spack-stage-R_crTC/VTK-6.1.0/Parallel/Core/vtkCommunicator.cxx' line='906' column='1' visibility='default' binding='global' size-in-bits='64' elf-symbol-id='_ZN15vtkCommunicator15GatherVoidArrayEPKvPvxii'>
          <parameter type-id='type-id-125' is-artificial='yes'/>
          <parameter type-id='type-id-14'/>
          <parameter type-id='type-id-14'/>
          <parameter type-id='type-id-124'/>
          <parameter type-id='type-id-19'/>
          <parameter type-id='type-id-19'/>
          <return type-id='type-id-19'/>
        </function-decl>
      </member-function>
      <member-function access='private' vtable-offset='29'>
        <function-decl name='GatherVVoidArray' mangled-name='_ZN15vtkCommunicator16GatherVVoidArrayEPKvPvxPxS3_ii' filepath='/tmp/legendre/spack-stage/spack-stage-R_crTC/VTK-6.1.0/Parallel/Core/vtkCommunicator.cxx' line='969' column='1' visibility='default' binding='global' size-in-bits='64' elf-symbol-id='_ZN15vtkCommunicator16GatherVVoidArrayEPKvPvxPxS3_ii'>
          <parameter type-id='type-id-125' is-artificial='yes'/>
          <parameter type-id='type-id-14'/>
          <parameter type-id='type-id-14'/>
          <parameter type-id='type-id-124'/>
          <parameter type-id='type-id-129'/>
          <parameter type-id='type-id-129'/>
          <parameter type-id='type-id-19'/>
          <parameter type-id='type-id-19'/>
          <return type-id='type-id-19'/>
        </function-decl>
      </member-function>
      <member-function access='private' vtable-offset='30'>
        <function-decl name='ScatterVoidArray' mangled-name='_ZN15vtkCommunicator16ScatterVoidArrayEPKvPvxii' filepath='/tmp/legendre/spack-stage/spack-stage-R_crTC/VTK-6.1.0/Parallel/Core/vtkCommunicator.cxx' line='1061' column='1' visibility='default' binding='global' size-in-bits='64' elf-symbol-id='_ZN15vtkCommunicator16ScatterVoidArrayEPKvPvxii'>
          <parameter type-id='type-id-125' is-artificial='yes'/>
          <parameter type-id='type-id-14'/>
          <parameter type-id='type-id-14'/>
          <parameter type-id='type-id-124'/>
          <parameter type-id='type-id-19'/>
          <parameter type-id='type-id-19'/>
          <return type-id='type-id-19'/>
        </function-decl>
      </member-function>
      <member-function access='private' vtable-offset='31'>
        <function-decl name='ScatterVVoidArray' mangled-name='_ZN15vtkCommunicator17ScatterVVoidArrayEPKvPvPxS3_xii' filepath='/tmp/legendre/spack-stage/spack-stage-R_crTC/VTK-6.1.0/Parallel/Core/vtkCommunicator.cxx' line='1129' column='1' visibility='default' binding='global' size-in-bits='64' elf-symbol-id='_ZN15vtkCommunicator17ScatterVVoidArrayEPKvPvPxS3_xii'>
          <parameter type-id='type-id-125' is-artificial='yes'/>
          <parameter type-id='type-id-14'/>
          <parameter type-id='type-id-14'/>
          <parameter type-id='type-id-129'/>
          <parameter type-id='type-id-129'/>
          <parameter type-id='type-id-124'/>
          <parameter type-id='type-id-19'/>
          <parameter type-id='type-id-19'/>
          <return type-id='type-id-19'/>
        </function-decl>
      </member-function>
      <member-function access='private' vtable-offset='32'>
        <function-decl name='AllGatherVoidArray' mangled-name='_ZN15vtkCommunicator18AllGatherVoidArrayEPKvPvxi' filepath='/tmp/legendre/spack-stage/spack-stage-R_crTC/VTK-6.1.0/Parallel/Core/vtkCommunicator.cxx' line='1168' column='1' visibility='default' binding='global' size-in-bits='64' elf-symbol-id='_ZN15vtkCommunicator18AllGatherVoidArrayEPKvPvxi'>
          <parameter type-id='type-id-125' is-artificial='yes'/>
          <parameter type-id='type-id-14'/>
          <parameter type-id='type-id-14'/>
          <parameter type-id='type-id-124'/>
          <parameter type-id='type-id-19'/>
          <return type-id='type-id-19'/>
        </function-decl>
      </member-function>
      <member-function access='private' vtable-offset='33'>
        <function-decl name='AllGatherVVoidArray' mangled-name='_ZN15vtkCommunicator19AllGatherVVoidArrayEPKvPvxPxS3_i' filepath='/tmp/legendre/spack-stage/spack-stage-R_crTC/VTK-6.1.0/Parallel/Core/vtkCommunicator.cxx' line='1199' column='1' visibility='default' binding='global' size-in-bits='64' elf-symbol-id='_ZN15vtkCommunicator19AllGatherVVoidArrayEPKvPvxPxS3_i'>
          <parameter type-id='type-id-125' is-artificial='yes'/>
          <parameter type-id='type-id-14'/>
          <parameter type-id='type-id-14'/>
          <parameter type-id='type-id-124'/>
          <parameter type-id='type-id-129'/>
          <parameter type-id='type-id-129'/>
          <parameter type-id='type-id-19'/>
          <return type-id='type-id-19'/>
        </function-decl>
      </member-function>
      <member-function access='private' vtable-offset='34'>
        <function-decl name='ReduceVoidArray' mangled-name='_ZN15vtkCommunicator15ReduceVoidArrayEPKvPvxiii' filepath='/tmp/legendre/spack-stage/spack-stage-R_crTC/VTK-6.1.0/Parallel/Core/vtkCommunicator.cxx' line='1267' column='1' visibility='default' binding='global' size-in-bits='64' elf-symbol-id='_ZN15vtkCommunicator15ReduceVoidArrayEPKvPvxiii'>
          <parameter type-id='type-id-125' is-artificial='yes'/>
          <parameter type-id='type-id-14'/>
          <parameter type-id='type-id-14'/>
          <parameter type-id='type-id-124'/>
          <parameter type-id='type-id-19'/>
          <parameter type-id='type-id-19'/>
          <parameter type-id='type-id-19'/>
          <return type-id='type-id-19'/>
        </function-decl>
      </member-function>
      <member-function access='private' vtable-offset='35'>
        <function-decl name='ReduceVoidArray' mangled-name='_ZN15vtkCommunicator15ReduceVoidArrayEPKvPvxiPNS_9OperationEi' filepath='/tmp/legendre/spack-stage/spack-stage-R_crTC/VTK-6.1.0/Parallel/Core/vtkCommunicator.cxx' line='1307' column='1' visibility='default' binding='global' size-in-bits='64' elf-symbol-id='_ZN15vtkCommunicator15ReduceVoidArrayEPKvPvxiPNS_9OperationEi'>
          <parameter type-id='type-id-125' is-artificial='yes'/>
          <parameter type-id='type-id-14'/>
          <parameter type-id='type-id-14'/>
          <parameter type-id='type-id-124'/>
          <parameter type-id='type-id-19'/>
          <parameter type-id='type-id-123'/>
          <parameter type-id='type-id-19'/>
          <return type-id='type-id-19'/>
        </function-decl>
      </member-function>
      <member-function access='private' vtable-offset='36'>
        <function-decl name='AllReduceVoidArray' mangled-name='_ZN15vtkCommunicator18AllReduceVoidArrayEPKvPvxii' filepath='/tmp/legendre/spack-stage/spack-stage-R_crTC/VTK-6.1.0/Parallel/Core/vtkCommunicator.cxx' line='1399' column='1' visibility='default' binding='global' size-in-bits='64' elf-symbol-id='_ZN15vtkCommunicator18AllReduceVoidArrayEPKvPvxii'>
          <parameter type-id='type-id-125' is-artificial='yes'/>
          <parameter type-id='type-id-14'/>
          <parameter type-id='type-id-14'/>
          <parameter type-id='type-id-124'/>
          <parameter type-id='type-id-19'/>
          <parameter type-id='type-id-19'/>
          <return type-id='type-id-19'/>
        </function-decl>
      </member-function>
      <member-function access='private' vtable-offset='37'>
        <function-decl name='AllReduceVoidArray' mangled-name='_ZN15vtkCommunicator18AllReduceVoidArrayEPKvPvxiPNS_9OperationE' filepath='/tmp/legendre/spack-stage/spack-stage-R_crTC/VTK-6.1.0/Parallel/Core/vtkCommunicator.cxx' line='1412' column='1' visibility='default' binding='global' size-in-bits='64' elf-symbol-id='_ZN15vtkCommunicator18AllReduceVoidArrayEPKvPvxiPNS_9OperationE'>
          <parameter type-id='type-id-125' is-artificial='yes'/>
          <parameter type-id='type-id-14'/>
          <parameter type-id='type-id-14'/>
          <parameter type-id='type-id-124'/>
          <parameter type-id='type-id-19'/>
          <parameter type-id='type-id-123'/>
          <return type-id='type-id-19'/>
        </function-decl>
      </member-function>
      <member-function access='private' vtable-offset='38'>
        <function-decl name='ComputeGlobalBounds' mangled-name='_ZN15vtkCommunicator19ComputeGlobalBoundsEiiP14vtkBoundingBoxPiS2_iii' filepath='/tmp/legendre/spack-stage/spack-stage-R_crTC/VTK-6.1.0/Parallel/Core/vtkCommunicator.cxx' line='673' column='1' visibility='default' binding='global' size-in-bits='64' elf-symbol-id='_ZN15vtkCommunicator19ComputeGlobalBoundsEiiP14vtkBoundingBoxPiS2_iii'>
          <parameter type-id='type-id-125' is-artificial='yes'/>
          <parameter type-id='type-id-19'/>
          <parameter type-id='type-id-19'/>
          <parameter type-id='type-id-115'/>
          <parameter type-id='type-id-90'/>
          <parameter type-id='type-id-90'/>
          <parameter type-id='type-id-19'/>
          <parameter type-id='type-id-19'/>
          <parameter type-id='type-id-19'/>
          <return type-id='type-id-19'/>
        </function-decl>
      </member-function>
    </class-decl>
    <typedef-decl name='vtkIdType' type-id='type-id-22' filepath='/tmp/legendre/spack-stage/spack-stage-R_crTC/VTK-6.1.0/Common/Core/vtkType.h' line='255' column='1' id='type-id-124'/>
    <typedef-decl name='vtkTypeInt64' type-id='type-id-22' filepath='/tmp/legendre/spack-stage/spack-stage-R_crTC/VTK-6.1.0/Common/Core/vtkType.h' line='212' column='1' id='type-id-91'/>
    <typedef-decl name='vtkTypeUInt64' type-id='type-id-23' filepath='/tmp/legendre/spack-stage/spack-stage-R_crTC/VTK-6.1.0/Common/Core/vtkType.h' line='211' column='1' id='type-id-85'/>
    <class-decl name='vtkCommunicatorMaxClass' size-in-bits='64' visibility='default' filepath='/tmp/legendre/spack-stage/spack-stage-R_crTC/VTK-6.1.0/Parallel/Core/vtkCommunicator.cxx' line='85' column='1' id='type-id-135'>
      <base-class access='public' layout-offset-in-bits='0' type-id='type-id-122'/>
      <member-function access='private' vtable-offset='0'>
        <function-decl name='Function' mangled-name='_ZN23vtkCommunicatorMaxClass8FunctionEPKvPvxi' filepath='/tmp/legendre/spack-stage/spack-stage-R_crTC/VTK-6.1.0/Parallel/Core/vtkCommunicator.cxx' line='85' column='1' visibility='default' binding='global' size-in-bits='64'>
          <parameter type-id='type-id-136' is-artificial='yes'/>
          <parameter type-id='type-id-14'/>
          <parameter type-id='type-id-14'/>
          <parameter type-id='type-id-124'/>
          <parameter type-id='type-id-19'/>
          <return type-id='type-id-29'/>
        </function-decl>
      </member-function>
      <member-function access='private' vtable-offset='1'>
        <function-decl name='Commutative' mangled-name='_ZN23vtkCommunicatorMaxClass11CommutativeEv' filepath='/tmp/legendre/spack-stage/spack-stage-R_crTC/VTK-6.1.0/Parallel/Core/vtkCommunicator.cxx' line='85' column='1' visibility='default' binding='global' size-in-bits='64'>
          <parameter type-id='type-id-136' is-artificial='yes'/>
          <return type-id='type-id-19'/>
        </function-decl>
      </member-function>
    </class-decl>
    <class-decl name='vtkCommunicatorMinClass' size-in-bits='64' visibility='default' filepath='/tmp/legendre/spack-stage/spack-stage-R_crTC/VTK-6.1.0/Parallel/Core/vtkCommunicator.cxx' line='86' column='1' id='type-id-137'>
      <base-class access='public' layout-offset-in-bits='0' type-id='type-id-122'/>
      <member-function access='private' vtable-offset='0'>
        <function-decl name='Function' mangled-name='_ZN23vtkCommunicatorMinClass8FunctionEPKvPvxi' filepath='/tmp/legendre/spack-stage/spack-stage-R_crTC/VTK-6.1.0/Parallel/Core/vtkCommunicator.cxx' line='86' column='1' visibility='default' binding='global' size-in-bits='64'>
          <parameter type-id='type-id-138' is-artificial='yes'/>
          <parameter type-id='type-id-14'/>
          <parameter type-id='type-id-14'/>
          <parameter type-id='type-id-124'/>
          <parameter type-id='type-id-19'/>
          <return type-id='type-id-29'/>
        </function-decl>
      </member-function>
      <member-function access='private' vtable-offset='1'>
        <function-decl name='Commutative' mangled-name='_ZN23vtkCommunicatorMinClass11CommutativeEv' filepath='/tmp/legendre/spack-stage/spack-stage-R_crTC/VTK-6.1.0/Parallel/Core/vtkCommunicator.cxx' line='86' column='1' visibility='default' binding='global' size-in-bits='64'>
          <parameter type-id='type-id-138' is-artificial='yes'/>
          <return type-id='type-id-19'/>
        </function-decl>
      </member-function>
    </class-decl>
    <class-decl name='vtkCommunicatorSumClass' size-in-bits='64' visibility='default' filepath='/tmp/legendre/spack-stage/spack-stage-R_crTC/VTK-6.1.0/Parallel/Core/vtkCommunicator.cxx' line='87' column='1' id='type-id-139'>
      <base-class access='public' layout-offset-in-bits='0' type-id='type-id-122'/>
      <member-function access='private' vtable-offset='0'>
        <function-decl name='Function' mangled-name='_ZN23vtkCommunicatorSumClass8FunctionEPKvPvxi' filepath='/tmp/legendre/spack-stage/spack-stage-R_crTC/VTK-6.1.0/Parallel/Core/vtkCommunicator.cxx' line='87' column='1' visibility='default' binding='global' size-in-bits='64'>
          <parameter type-id='type-id-140' is-artificial='yes'/>
          <parameter type-id='type-id-14'/>
          <parameter type-id='type-id-14'/>
          <parameter type-id='type-id-124'/>
          <parameter type-id='type-id-19'/>
          <return type-id='type-id-29'/>
        </function-decl>
      </member-function>
      <member-function access='private' vtable-offset='1'>
        <function-decl name='Commutative' mangled-name='_ZN23vtkCommunicatorSumClass11CommutativeEv' filepath='/tmp/legendre/spack-stage/spack-stage-R_crTC/VTK-6.1.0/Parallel/Core/vtkCommunicator.cxx' line='87' column='1' visibility='default' binding='global' size-in-bits='64'>
          <parameter type-id='type-id-140' is-artificial='yes'/>
          <return type-id='type-id-19'/>
        </function-decl>
      </member-function>
    </class-decl>
    <class-decl name='vtkCommunicatorProductClass' size-in-bits='64' visibility='default' filepath='/tmp/legendre/spack-stage/spack-stage-R_crTC/VTK-6.1.0/Parallel/Core/vtkCommunicator.cxx' line='88' column='1' id='type-id-141'>
      <base-class access='public' layout-offset-in-bits='0' type-id='type-id-122'/>
      <member-function access='private' vtable-offset='0'>
        <function-decl name='Function' mangled-name='_ZN27vtkCommunicatorProductClass8FunctionEPKvPvxi' filepath='/tmp/legendre/spack-stage/spack-stage-R_crTC/VTK-6.1.0/Parallel/Core/vtkCommunicator.cxx' line='88' column='1' visibility='default' binding='global' size-in-bits='64'>
          <parameter type-id='type-id-142' is-artificial='yes'/>
          <parameter type-id='type-id-14'/>
          <parameter type-id='type-id-14'/>
          <parameter type-id='type-id-124'/>
          <parameter type-id='type-id-19'/>
          <return type-id='type-id-29'/>
        </function-decl>
      </member-function>
      <member-function access='private' vtable-offset='1'>
        <function-decl name='Commutative' mangled-name='_ZN27vtkCommunicatorProductClass11CommutativeEv' filepath='/tmp/legendre/spack-stage/spack-stage-R_crTC/VTK-6.1.0/Parallel/Core/vtkCommunicator.cxx' line='88' column='1' visibility='default' binding='global' size-in-bits='64'>
          <parameter type-id='type-id-142' is-artificial='yes'/>
          <return type-id='type-id-19'/>
        </function-decl>
      </member-function>
    </class-decl>
    <class-decl name='vtkCommunicatorLogicalAndClass' size-in-bits='64' visibility='default' filepath='/tmp/legendre/spack-stage/spack-stage-R_crTC/VTK-6.1.0/Parallel/Core/vtkCommunicator.cxx' line='90' column='1' id='type-id-143'>
      <base-class access='public' layout-offset-in-bits='0' type-id='type-id-122'/>
      <member-function access='private' vtable-offset='0'>
        <function-decl name='Function' mangled-name='_ZN30vtkCommunicatorLogicalAndClass8FunctionEPKvPvxi' filepath='/tmp/legendre/spack-stage/spack-stage-R_crTC/VTK-6.1.0/Parallel/Core/vtkCommunicator.cxx' line='90' column='1' visibility='default' binding='global' size-in-bits='64'>
          <parameter type-id='type-id-144' is-artificial='yes'/>
          <parameter type-id='type-id-14'/>
          <parameter type-id='type-id-14'/>
          <parameter type-id='type-id-124'/>
          <parameter type-id='type-id-19'/>
          <return type-id='type-id-29'/>
        </function-decl>
      </member-function>
      <member-function access='private' vtable-offset='1'>
        <function-decl name='Commutative' mangled-name='_ZN30vtkCommunicatorLogicalAndClass11CommutativeEv' filepath='/tmp/legendre/spack-stage/spack-stage-R_crTC/VTK-6.1.0/Parallel/Core/vtkCommunicator.cxx' line='90' column='1' visibility='default' binding='global' size-in-bits='64'>
          <parameter type-id='type-id-144' is-artificial='yes'/>
          <return type-id='type-id-19'/>
        </function-decl>
      </member-function>
    </class-decl>
    <class-decl name='vtkCommunicatorBitwiseAndClass' size-in-bits='64' visibility='default' filepath='/tmp/legendre/spack-stage/spack-stage-R_crTC/VTK-6.1.0/Parallel/Core/vtkCommunicator.cxx' line='92' column='1' id='type-id-145'>
      <base-class access='public' layout-offset-in-bits='0' type-id='type-id-122'/>
      <member-function access='private' vtable-offset='0'>
        <function-decl name='Function' mangled-name='_ZN30vtkCommunicatorBitwiseAndClass8FunctionEPKvPvxi' filepath='/tmp/legendre/spack-stage/spack-stage-R_crTC/VTK-6.1.0/Parallel/Core/vtkCommunicator.cxx' line='92' column='1' visibility='default' binding='global' size-in-bits='64'>
          <parameter type-id='type-id-146' is-artificial='yes'/>
          <parameter type-id='type-id-14'/>
          <parameter type-id='type-id-14'/>
          <parameter type-id='type-id-124'/>
          <parameter type-id='type-id-19'/>
          <return type-id='type-id-29'/>
        </function-decl>
      </member-function>
      <member-function access='private' vtable-offset='1'>
        <function-decl name='Commutative' mangled-name='_ZN30vtkCommunicatorBitwiseAndClass11CommutativeEv' filepath='/tmp/legendre/spack-stage/spack-stage-R_crTC/VTK-6.1.0/Parallel/Core/vtkCommunicator.cxx' line='92' column='1' visibility='default' binding='global' size-in-bits='64'>
          <parameter type-id='type-id-146' is-artificial='yes'/>
          <return type-id='type-id-19'/>
        </function-decl>
      </member-function>
    </class-decl>
    <class-decl name='vtkCommunicatorLogicalOrClass' size-in-bits='64' visibility='default' filepath='/tmp/legendre/spack-stage/spack-stage-R_crTC/VTK-6.1.0/Parallel/Core/vtkCommunicator.cxx' line='94' column='1' id='type-id-147'>
      <base-class access='public' layout-offset-in-bits='0' type-id='type-id-122'/>
      <member-function access='private' vtable-offset='0'>
        <function-decl name='Function' mangled-name='_ZN29vtkCommunicatorLogicalOrClass8FunctionEPKvPvxi' filepath='/tmp/legendre/spack-stage/spack-stage-R_crTC/VTK-6.1.0/Parallel/Core/vtkCommunicator.cxx' line='94' column='1' visibility='default' binding='global' size-in-bits='64'>
          <parameter type-id='type-id-148' is-artificial='yes'/>
          <parameter type-id='type-id-14'/>
          <parameter type-id='type-id-14'/>
          <parameter type-id='type-id-124'/>
          <parameter type-id='type-id-19'/>
          <return type-id='type-id-29'/>
        </function-decl>
      </member-function>
      <member-function access='private' vtable-offset='1'>
        <function-decl name='Commutative' mangled-name='_ZN29vtkCommunicatorLogicalOrClass11CommutativeEv' filepath='/tmp/legendre/spack-stage/spack-stage-R_crTC/VTK-6.1.0/Parallel/Core/vtkCommunicator.cxx' line='94' column='1' visibility='default' binding='global' size-in-bits='64'>
          <parameter type-id='type-id-148' is-artificial='yes'/>
          <return type-id='type-id-19'/>
        </function-decl>
      </member-function>
    </class-decl>
    <class-decl name='vtkCommunicatorBitwiseOrClass' size-in-bits='64' visibility='default' filepath='/tmp/legendre/spack-stage/spack-stage-R_crTC/VTK-6.1.0/Parallel/Core/vtkCommunicator.cxx' line='96' column='1' id='type-id-149'>
      <base-class access='public' layout-offset-in-bits='0' type-id='type-id-122'/>
      <member-function access='private' vtable-offset='0'>
        <function-decl name='Function' mangled-name='_ZN29vtkCommunicatorBitwiseOrClass8FunctionEPKvPvxi' filepath='/tmp/legendre/spack-stage/spack-stage-R_crTC/VTK-6.1.0/Parallel/Core/vtkCommunicator.cxx' line='96' column='1' visibility='default' binding='global' size-in-bits='64'>
          <parameter type-id='type-id-150' is-artificial='yes'/>
          <parameter type-id='type-id-14'/>
          <parameter type-id='type-id-14'/>
          <parameter type-id='type-id-124'/>
          <parameter type-id='type-id-19'/>
          <return type-id='type-id-29'/>
        </function-decl>
      </member-function>
      <member-function access='private' vtable-offset='1'>
        <function-decl name='Commutative' mangled-name='_ZN29vtkCommunicatorBitwiseOrClass11CommutativeEv' filepath='/tmp/legendre/spack-stage/spack-stage-R_crTC/VTK-6.1.0/Parallel/Core/vtkCommunicator.cxx' line='96' column='1' visibility='default' binding='global' size-in-bits='64'>
          <parameter type-id='type-id-150' is-artificial='yes'/>
          <return type-id='type-id-19'/>
        </function-decl>
      </member-function>
    </class-decl>
    <class-decl name='vtkCommunicatorLogicalXorClass' size-in-bits='64' visibility='default' filepath='/tmp/legendre/spack-stage/spack-stage-R_crTC/VTK-6.1.0/Parallel/Core/vtkCommunicator.cxx' line='98' column='1' id='type-id-151'>
      <base-class access='public' layout-offset-in-bits='0' type-id='type-id-122'/>
      <member-function access='private' vtable-offset='0'>
        <function-decl name='Function' mangled-name='_ZN30vtkCommunicatorLogicalXorClass8FunctionEPKvPvxi' filepath='/tmp/legendre/spack-stage/spack-stage-R_crTC/VTK-6.1.0/Parallel/Core/vtkCommunicator.cxx' line='98' column='1' visibility='default' binding='global' size-in-bits='64'>
          <parameter type-id='type-id-152' is-artificial='yes'/>
          <parameter type-id='type-id-14'/>
          <parameter type-id='type-id-14'/>
          <parameter type-id='type-id-124'/>
          <parameter type-id='type-id-19'/>
          <return type-id='type-id-29'/>
        </function-decl>
      </member-function>
      <member-function access='private' vtable-offset='1'>
        <function-decl name='Commutative' mangled-name='_ZN30vtkCommunicatorLogicalXorClass11CommutativeEv' filepath='/tmp/legendre/spack-stage/spack-stage-R_crTC/VTK-6.1.0/Parallel/Core/vtkCommunicator.cxx' line='98' column='1' visibility='default' binding='global' size-in-bits='64'>
          <parameter type-id='type-id-152' is-artificial='yes'/>
          <return type-id='type-id-19'/>
        </function-decl>
      </member-function>
    </class-decl>
    <class-decl name='vtkCommunicatorBitwiseXorClass' size-in-bits='64' visibility='default' filepath='/tmp/legendre/spack-stage/spack-stage-R_crTC/VTK-6.1.0/Parallel/Core/vtkCommunicator.cxx' line='100' column='1' id='type-id-153'>
      <base-class access='public' layout-offset-in-bits='0' type-id='type-id-122'/>
      <member-function access='private' vtable-offset='0'>
        <function-decl name='Function' mangled-name='_ZN30vtkCommunicatorBitwiseXorClass8FunctionEPKvPvxi' filepath='/tmp/legendre/spack-stage/spack-stage-R_crTC/VTK-6.1.0/Parallel/Core/vtkCommunicator.cxx' line='100' column='1' visibility='default' binding='global' size-in-bits='64'>
          <parameter type-id='type-id-154' is-artificial='yes'/>
          <parameter type-id='type-id-14'/>
          <parameter type-id='type-id-14'/>
          <parameter type-id='type-id-124'/>
          <parameter type-id='type-id-19'/>
          <return type-id='type-id-29'/>
        </function-decl>
      </member-function>
      <member-function access='private' vtable-offset='1'>
        <function-decl name='Commutative' mangled-name='_ZN30vtkCommunicatorBitwiseXorClass11CommutativeEv' filepath='/tmp/legendre/spack-stage/spack-stage-R_crTC/VTK-6.1.0/Parallel/Core/vtkCommunicator.cxx' line='100' column='1' visibility='default' binding='global' size-in-bits='64'>
          <parameter type-id='type-id-154' is-artificial='yes'/>
          <return type-id='type-id-19'/>
        </function-decl>
      </member-function>
    </class-decl>
    <class-decl name='vtkSmartPointer&lt;vtkCharArray&gt;' size-in-bits='64' visibility='default' filepath='/tmp/legendre/spack-stage/spack-stage-R_crTC/VTK-6.1.0/Common/Core/vtkSmartPointer.h' line='27' column='1' id='type-id-155'>
      <base-class access='public' layout-offset-in-bits='0' type-id='type-id-156'/>
      <member-function access='private'>
        <function-decl name='vtkSmartPointer' filepath='/tmp/legendre/spack-stage/spack-stage-R_crTC/VTK-6.1.0/Common/Core/vtkSmartPointer.h' line='32' column='1' visibility='default' binding='global' size-in-bits='64'>
          <parameter type-id='type-id-157' is-artificial='yes'/>
          <return type-id='type-id-29'/>
        </function-decl>
      </member-function>
      <member-function access='private'>
        <function-decl name='vtkSmartPointer' filepath='/tmp/legendre/spack-stage/spack-stage-R_crTC/VTK-6.1.0/Common/Core/vtkSmartPointer.h' line='36' column='1' visibility='default' binding='global' size-in-bits='64'>
          <parameter type-id='type-id-157' is-artificial='yes'/>
          <parameter type-id='type-id-130'/>
          <return type-id='type-id-29'/>
        </function-decl>
      </member-function>
      <member-function access='protected'>
        <function-decl name='vtkSmartPointer' filepath='/tmp/legendre/spack-stage/spack-stage-R_crTC/VTK-6.1.0/Common/Core/vtkSmartPointer.h' line='167' column='1' visibility='default' binding='global' size-in-bits='64'>
          <parameter type-id='type-id-157' is-artificial='yes'/>
          <parameter type-id='type-id-130'/>
          <parameter type-id='type-id-158'/>
          <return type-id='type-id-29'/>
        </function-decl>
      </member-function>
    </class-decl>
    <class-decl name='vtkSmartPointer&lt;vtkGenericDataObjectReader&gt;' size-in-bits='64' visibility='default' filepath='/tmp/legendre/spack-stage/spack-stage-R_crTC/VTK-6.1.0/Common/Core/vtkSmartPointer.h' line='27' column='1' id='type-id-159'>
      <base-class access='public' layout-offset-in-bits='0' type-id='type-id-156'/>
      <member-function access='private'>
        <function-decl name='vtkSmartPointer' filepath='/tmp/legendre/spack-stage/spack-stage-R_crTC/VTK-6.1.0/Common/Core/vtkSmartPointer.h' line='32' column='1' visibility='default' binding='global' size-in-bits='64'>
          <parameter type-id='type-id-160' is-artificial='yes'/>
          <return type-id='type-id-29'/>
        </function-decl>
      </member-function>
      <member-function access='private'>
        <function-decl name='vtkSmartPointer' filepath='/tmp/legendre/spack-stage/spack-stage-R_crTC/VTK-6.1.0/Common/Core/vtkSmartPointer.h' line='36' column='1' visibility='default' binding='global' size-in-bits='64'>
          <parameter type-id='type-id-160' is-artificial='yes'/>
          <parameter type-id='type-id-161'/>
          <return type-id='type-id-29'/>
        </function-decl>
      </member-function>
      <member-function access='protected'>
        <function-decl name='vtkSmartPointer' filepath='/tmp/legendre/spack-stage/spack-stage-R_crTC/VTK-6.1.0/Common/Core/vtkSmartPointer.h' line='167' column='1' visibility='default' binding='global' size-in-bits='64'>
          <parameter type-id='type-id-160' is-artificial='yes'/>
          <parameter type-id='type-id-161'/>
          <parameter type-id='type-id-158'/>
          <return type-id='type-id-29'/>
        </function-decl>
      </member-function>
    </class-decl>
    <class-decl name='vtkTypeTraits&lt;int&gt;' size-in-bits='8' is-struct='yes' visibility='default' filepath='/tmp/legendre/spack-stage/spack-stage-R_crTC/VTK-6.1.0/Common/Core/vtkTypeTraits.h' line='99' column='1' id='type-id-162'/>
    <class-decl name='vtkSmartPointer&lt;vtkGenericDataObjectWriter&gt;' size-in-bits='64' visibility='default' filepath='/tmp/legendre/spack-stage/spack-stage-R_crTC/VTK-6.1.0/Common/Core/vtkSmartPointer.h' line='27' column='1' id='type-id-163'>
      <base-class access='public' layout-offset-in-bits='0' type-id='type-id-156'/>
      <member-function access='private'>
        <function-decl name='vtkSmartPointer' filepath='/tmp/legendre/spack-stage/spack-stage-R_crTC/VTK-6.1.0/Common/Core/vtkSmartPointer.h' line='32' column='1' visibility='default' binding='global' size-in-bits='64'>
          <parameter type-id='type-id-164' is-artificial='yes'/>
          <return type-id='type-id-29'/>
        </function-decl>
      </member-function>
      <member-function access='private'>
        <function-decl name='vtkSmartPointer' filepath='/tmp/legendre/spack-stage/spack-stage-R_crTC/VTK-6.1.0/Common/Core/vtkSmartPointer.h' line='36' column='1' visibility='default' binding='global' size-in-bits='64'>
          <parameter type-id='type-id-164' is-artificial='yes'/>
          <parameter type-id='type-id-165'/>
          <return type-id='type-id-29'/>
        </function-decl>
      </member-function>
      <member-function access='protected'>
        <function-decl name='vtkSmartPointer' filepath='/tmp/legendre/spack-stage/spack-stage-R_crTC/VTK-6.1.0/Common/Core/vtkSmartPointer.h' line='167' column='1' visibility='default' binding='global' size-in-bits='64'>
          <parameter type-id='type-id-164' is-artificial='yes'/>
          <parameter type-id='type-id-165'/>
          <parameter type-id='type-id-158'/>
          <return type-id='type-id-29'/>
        </function-decl>
      </member-function>
    </class-decl>
    <class-decl name='vtkSmartPointer&lt;vtkDataObject&gt;' size-in-bits='64' visibility='default' filepath='/tmp/legendre/spack-stage/spack-stage-R_crTC/VTK-6.1.0/Common/Core/vtkSmartPointer.h' line='27' column='1' id='type-id-166'>
      <base-class access='public' layout-offset-in-bits='0' type-id='type-id-156'/>
      <member-function access='private'>
        <function-decl name='vtkSmartPointer' filepath='/tmp/legendre/spack-stage/spack-stage-R_crTC/VTK-6.1.0/Common/Core/vtkSmartPointer.h' line='32' column='1' visibility='default' binding='global' size-in-bits='64'>
          <parameter type-id='type-id-167' is-artificial='yes'/>
          <return type-id='type-id-29'/>
        </function-decl>
      </member-function>
      <member-function access='private'>
        <function-decl name='vtkSmartPointer' filepath='/tmp/legendre/spack-stage/spack-stage-R_crTC/VTK-6.1.0/Common/Core/vtkSmartPointer.h' line='36' column='1' visibility='default' binding='global' size-in-bits='64'>
          <parameter type-id='type-id-167' is-artificial='yes'/>
          <parameter type-id='type-id-131'/>
          <return type-id='type-id-29'/>
        </function-decl>
      </member-function>
      <member-function access='protected'>
        <function-decl name='vtkSmartPointer' filepath='/tmp/legendre/spack-stage/spack-stage-R_crTC/VTK-6.1.0/Common/Core/vtkSmartPointer.h' line='167' column='1' visibility='default' binding='global' size-in-bits='64'>
          <parameter type-id='type-id-167' is-artificial='yes'/>
          <parameter type-id='type-id-131'/>
          <parameter type-id='type-id-158'/>
          <return type-id='type-id-29'/>
        </function-decl>
      </member-function>
    </class-decl>
    <class-decl name='vtkSmartPointerBase' size-in-bits='64' visibility='default' filepath='/tmp/legendre/spack-stage/spack-stage-R_crTC/VTK-6.1.0/Common/Core/vtkSmartPointerBase.h' line='30' column='1' id='type-id-156'>
      <member-type access='protected'>
        <class-decl name='NoReference' size-in-bits='8' visibility='default' filepath='/tmp/legendre/spack-stage/spack-stage-R_crTC/VTK-6.1.0/Common/Core/vtkSmartPointerBase.h' line='73' column='1' id='type-id-168'/>
      </member-type>
      <data-member access='protected' layout-offset-in-bits='0'>
        <var-decl name='Object' type-id='type-id-134' visibility='default' filepath='/tmp/legendre/spack-stage/spack-stage-R_crTC/VTK-6.1.0/Common/Core/vtkSmartPointerBase.h' line='77' column='1'/>
      </data-member>
      <member-function access='private' constructor='yes'>
        <function-decl name='vtkSmartPointerBase' filepath='/tmp/legendre/spack-stage/spack-stage-R_crTC/VTK-6.1.0/Common/Core/vtkSmartPointerBase.h' line='34' column='1' visibility='default' binding='global' size-in-bits='64'>
          <parameter type-id='type-id-169' is-artificial='yes'/>
          <return type-id='type-id-29'/>
        </function-decl>
      </member-function>
      <member-function access='private' constructor='yes'>
        <function-decl name='vtkSmartPointerBase' filepath='/tmp/legendre/spack-stage/spack-stage-R_crTC/VTK-6.1.0/Common/Core/vtkSmartPointerBase.h' line='38' column='1' visibility='default' binding='global' size-in-bits='64'>
          <parameter type-id='type-id-169' is-artificial='yes'/>
          <parameter type-id='type-id-134'/>
          <return type-id='type-id-29'/>
        </function-decl>
      </member-function>
      <member-function access='private' constructor='yes'>
        <function-decl name='vtkSmartPointerBase' filepath='/tmp/legendre/spack-stage/spack-stage-R_crTC/VTK-6.1.0/Common/Core/vtkSmartPointerBase.h' line='43' column='1' visibility='default' binding='global' size-in-bits='64'>
          <parameter type-id='type-id-169' is-artificial='yes'/>
          <parameter type-id='type-id-170'/>
          <return type-id='type-id-29'/>
        </function-decl>
      </member-function>
      <member-function access='private' destructor='yes'>
        <function-decl name='~vtkSmartPointerBase' filepath='/tmp/legendre/spack-stage/spack-stage-R_crTC/VTK-6.1.0/Common/Core/vtkSmartPointerBase.h' line='47' column='1' visibility='default' binding='global' size-in-bits='64'>
          <parameter type-id='type-id-169' is-artificial='yes'/>
          <parameter type-id='type-id-19' is-artificial='yes'/>
          <return type-id='type-id-29'/>
        </function-decl>
      </member-function>
      <member-function access='protected' constructor='yes'>
        <function-decl name='vtkSmartPointerBase' filepath='/tmp/legendre/spack-stage/spack-stage-R_crTC/VTK-6.1.0/Common/Core/vtkSmartPointerBase.h' line='74' column='1' visibility='default' binding='global' size-in-bits='64'>
          <parameter type-id='type-id-169' is-artificial='yes'/>
          <parameter type-id='type-id-134'/>
          <parameter type-id='type-id-158'/>
          <return type-id='type-id-29'/>
        </function-decl>
      </member-function>
    </class-decl>
    <pointer-type-def type-id='type-id-33' size-in-bits='64' id='type-id-171'/>
    <pointer-type-def type-id='type-id-32' size-in-bits='64' id='type-id-36'/>
    <pointer-type-def type-id='type-id-42' size-in-bits='64' id='type-id-38'/>
    <pointer-type-def type-id='type-id-41' size-in-bits='64' id='type-id-35'/>
    <pointer-type-def type-id='type-id-97' size-in-bits='64' id='type-id-172'/>
    <reference-type-def kind='lvalue' type-id='type-id-173' size-in-bits='64' id='type-id-174'/>
    <pointer-type-def type-id='type-id-173' size-in-bits='64' id='type-id-175'/>
    <pointer-type-def type-id='type-id-176' size-in-bits='64' id='type-id-177'/>
    <pointer-type-def type-id='type-id-178' size-in-bits='64' id='type-id-179'/>
    <qualified-type-def type-id='type-id-179' const='yes' id='type-id-180'/>
    <pointer-type-def type-id='type-id-181' size-in-bits='64' id='type-id-182'/>
    <qualified-type-def type-id='type-id-182' const='yes' id='type-id-183'/>
    <pointer-type-def type-id='type-id-47' size-in-bits='64' id='type-id-48'/>
    <reference-type-def kind='lvalue' type-id='type-id-2' size-in-bits='64' id='type-id-184'/>
    <pointer-type-def type-id='type-id-2' size-in-bits='64' id='type-id-34'/>
    <reference-type-def kind='lvalue' type-id='type-id-34' size-in-bits='64' id='type-id-185'/>
    <pointer-type-def type-id='type-id-34' size-in-bits='64' id='type-id-186'/>
    <qualified-type-def type-id='type-id-173' const='yes' id='type-id-187'/>
    <reference-type-def kind='lvalue' type-id='type-id-187' size-in-bits='64' id='type-id-188'/>
    <pointer-type-def type-id='type-id-187' size-in-bits='64' id='type-id-189'/>
    <qualified-type-def type-id='type-id-189' const='yes' id='type-id-190'/>
    <qualified-type-def type-id='type-id-176' const='yes' id='type-id-191'/>
    <reference-type-def kind='lvalue' type-id='type-id-191' size-in-bits='64' id='type-id-192'/>
    <pointer-type-def type-id='type-id-191' size-in-bits='64' id='type-id-193'/>
    <qualified-type-def type-id='type-id-178' const='yes' id='type-id-194'/>
    <reference-type-def kind='lvalue' type-id='type-id-194' size-in-bits='64' id='type-id-195'/>
    <pointer-type-def type-id='type-id-194' size-in-bits='64' id='type-id-196'/>
    <qualified-type-def type-id='type-id-196' const='yes' id='type-id-197'/>
    <qualified-type-def type-id='type-id-181' const='yes' id='type-id-198'/>
    <reference-type-def kind='lvalue' type-id='type-id-198' size-in-bits='64' id='type-id-199'/>
    <pointer-type-def type-id='type-id-198' size-in-bits='64' id='type-id-200'/>
    <qualified-type-def type-id='type-id-200' const='yes' id='type-id-201'/>
    <qualified-type-def type-id='type-id-107' const='yes' id='type-id-202'/>
    <pointer-type-def type-id='type-id-202' size-in-bits='64' id='type-id-105'/>
    <qualified-type-def type-id='type-id-2' const='yes' id='type-id-203'/>
    <reference-type-def kind='lvalue' type-id='type-id-203' size-in-bits='64' id='type-id-204'/>
    <pointer-type-def type-id='type-id-203' size-in-bits='64' id='type-id-102'/>
    <pointer-type-def type-id='type-id-102' size-in-bits='64' id='type-id-205'/>
    <qualified-type-def type-id='type-id-15' const='yes' id='type-id-206'/>
    <pointer-type-def type-id='type-id-206' size-in-bits='64' id='type-id-116'/>
    <qualified-type-def type-id='type-id-18' const='yes' id='type-id-207'/>
    <pointer-type-def type-id='type-id-207' size-in-bits='64' id='type-id-208'/>
    <qualified-type-def type-id='type-id-109' const='yes' id='type-id-209'/>
    <pointer-type-def type-id='type-id-209' size-in-bits='64' id='type-id-210'/>
    <qualified-type-def type-id='type-id-19' const='yes' id='type-id-211'/>
    <pointer-type-def type-id='type-id-211' size-in-bits='64' id='type-id-212'/>
    <qualified-type-def type-id='type-id-22' const='yes' id='type-id-213'/>
    <qualified-type-def type-id='type-id-214' id='type-id-215'/>
    <reference-type-def kind='lvalue' type-id='type-id-213' size-in-bits='64' id='type-id-214'/>
    <pointer-type-def type-id='type-id-213' size-in-bits='64' id='type-id-216'/>
    <qualified-type-def type-id='type-id-99' const='yes' id='type-id-217'/>
    <pointer-type-def type-id='type-id-217' size-in-bits='64' id='type-id-218'/>
    <qualified-type-def type-id='type-id-49' const='yes' id='type-id-219'/>
    <reference-type-def kind='lvalue' type-id='type-id-219' size-in-bits='64' id='type-id-220'/>
    <qualified-type-def type-id='type-id-40' const='yes' id='type-id-221'/>
    <reference-type-def kind='lvalue' type-id='type-id-221' size-in-bits='64' id='type-id-222'/>
    <qualified-type-def type-id='type-id-223' const='yes' id='type-id-224'/>
    <qualified-type-def type-id='type-id-225' const='yes' id='type-id-226'/>
    <pointer-type-def type-id='type-id-226' size-in-bits='64' id='type-id-227'/>
    <qualified-type-def type-id='type-id-228' const='yes' id='type-id-229'/>
    <pointer-type-def type-id='type-id-229' size-in-bits='64' id='type-id-230'/>
    <qualified-type-def type-id='type-id-230' const='yes' id='type-id-231'/>
    <qualified-type-def type-id='type-id-232' const='yes' id='type-id-233'/>
    <pointer-type-def type-id='type-id-233' size-in-bits='64' id='type-id-234'/>
    <qualified-type-def type-id='type-id-235' const='yes' id='type-id-236'/>
    <qualified-type-def type-id='type-id-237' const='yes' id='type-id-238'/>
    <qualified-type-def type-id='type-id-239' const='yes' id='type-id-240'/>
    <reference-type-def kind='lvalue' type-id='type-id-240' size-in-bits='64' id='type-id-241'/>
    <pointer-type-def type-id='type-id-240' size-in-bits='64' id='type-id-242'/>
    <qualified-type-def type-id='type-id-243' const='yes' id='type-id-244'/>
    <reference-type-def kind='lvalue' type-id='type-id-244' size-in-bits='64' id='type-id-245'/>
    <qualified-type-def type-id='type-id-246' const='yes' id='type-id-247'/>
    <reference-type-def kind='lvalue' type-id='type-id-247' size-in-bits='64' id='type-id-248'/>
    <qualified-type-def type-id='type-id-249' const='yes' id='type-id-250'/>
    <reference-type-def kind='lvalue' type-id='type-id-250' size-in-bits='64' id='type-id-251'/>
    <qualified-type-def type-id='type-id-252' const='yes' id='type-id-253'/>
    <pointer-type-def type-id='type-id-253' size-in-bits='64' id='type-id-254'/>
    <qualified-type-def type-id='type-id-254' const='yes' id='type-id-255'/>
    <qualified-type-def type-id='type-id-256' const='yes' id='type-id-257'/>
    <qualified-type-def type-id='type-id-258' const='yes' id='type-id-259'/>
    <reference-type-def kind='lvalue' type-id='type-id-259' size-in-bits='64' id='type-id-260'/>
    <pointer-type-def type-id='type-id-259' size-in-bits='64' id='type-id-261'/>
    <qualified-type-def type-id='type-id-262' const='yes' id='type-id-263'/>
    <reference-type-def kind='lvalue' type-id='type-id-263' size-in-bits='64' id='type-id-264'/>
    <pointer-type-def type-id='type-id-263' size-in-bits='64' id='type-id-265'/>
    <qualified-type-def type-id='type-id-266' const='yes' id='type-id-267'/>
    <reference-type-def kind='lvalue' type-id='type-id-267' size-in-bits='64' id='type-id-268'/>
    <qualified-type-def type-id='type-id-269' const='yes' id='type-id-270'/>
    <reference-type-def kind='lvalue' type-id='type-id-270' size-in-bits='64' id='type-id-271'/>
    <pointer-type-def type-id='type-id-270' size-in-bits='64' id='type-id-272'/>
    <qualified-type-def type-id='type-id-272' const='yes' id='type-id-273'/>
    <qualified-type-def type-id='type-id-274' const='yes' id='type-id-275'/>
    <reference-type-def kind='lvalue' type-id='type-id-275' size-in-bits='64' id='type-id-276'/>
    <qualified-type-def type-id='type-id-277' const='yes' id='type-id-278'/>
    <reference-type-def kind='lvalue' type-id='type-id-278' size-in-bits='64' id='type-id-279'/>
    <pointer-type-def type-id='type-id-278' size-in-bits='64' id='type-id-280'/>
    <qualified-type-def type-id='type-id-280' const='yes' id='type-id-281'/>
    <qualified-type-def type-id='type-id-282' const='yes' id='type-id-283'/>
    <reference-type-def kind='lvalue' type-id='type-id-283' size-in-bits='64' id='type-id-284'/>
    <pointer-type-def type-id='type-id-283' size-in-bits='64' id='type-id-285'/>
    <qualified-type-def type-id='type-id-285' const='yes' id='type-id-286'/>
    <qualified-type-def type-id='type-id-101' const='yes' id='type-id-287'/>
    <pointer-type-def type-id='type-id-287' size-in-bits='64' id='type-id-288'/>
    <qualified-type-def type-id='type-id-26' const='yes' id='type-id-289'/>
    <qualified-type-def type-id='type-id-290' id='type-id-291'/>
    <reference-type-def kind='lvalue' type-id='type-id-289' size-in-bits='64' id='type-id-290'/>
    <pointer-type-def type-id='type-id-289' size-in-bits='64' id='type-id-86'/>
    <qualified-type-def type-id='type-id-13' const='yes' id='type-id-292'/>
    <pointer-type-def type-id='type-id-292' size-in-bits='64' id='type-id-293'/>
    <qualified-type-def type-id='type-id-4' const='yes' id='type-id-294'/>
    <pointer-type-def type-id='type-id-294' size-in-bits='64' id='type-id-295'/>
    <qualified-type-def type-id='type-id-114' const='yes' id='type-id-296'/>
    <reference-type-def kind='lvalue' type-id='type-id-296' size-in-bits='64' id='type-id-117'/>
    <pointer-type-def type-id='type-id-296' size-in-bits='64' id='type-id-297'/>
    <qualified-type-def type-id='type-id-297' const='yes' id='type-id-298'/>
    <qualified-type-def type-id='type-id-118' const='yes' id='type-id-299'/>
    <reference-type-def kind='lvalue' type-id='type-id-299' size-in-bits='64' id='type-id-126'/>
    <pointer-type-def type-id='type-id-299' size-in-bits='64' id='type-id-132'/>
    <qualified-type-def type-id='type-id-300' const='yes' id='type-id-301'/>
    <pointer-type-def type-id='type-id-301' size-in-bits='64' id='type-id-302'/>
    <qualified-type-def type-id='type-id-302' const='yes' id='type-id-303'/>
    <qualified-type-def type-id='type-id-124' const='yes' id='type-id-304'/>
    <pointer-type-def type-id='type-id-304' size-in-bits='64' id='type-id-305'/>
    <qualified-type-def type-id='type-id-53' const='yes' id='type-id-306'/>
    <qualified-type-def type-id='type-id-60' id='type-id-83'/>
    <reference-type-def kind='lvalue' type-id='type-id-306' size-in-bits='64' id='type-id-60'/>
    <pointer-type-def type-id='type-id-306' size-in-bits='64' id='type-id-307'/>
    <qualified-type-def type-id='type-id-308' const='yes' id='type-id-309'/>
    <qualified-type-def type-id='type-id-310' id='type-id-311'/>
    <reference-type-def kind='lvalue' type-id='type-id-309' size-in-bits='64' id='type-id-310'/>
    <qualified-type-def type-id='type-id-155' const='yes' id='type-id-312'/>
    <pointer-type-def type-id='type-id-312' size-in-bits='64' id='type-id-313'/>
    <qualified-type-def type-id='type-id-313' const='yes' id='type-id-314'/>
    <qualified-type-def type-id='type-id-166' const='yes' id='type-id-315'/>
    <pointer-type-def type-id='type-id-315' size-in-bits='64' id='type-id-316'/>
    <qualified-type-def type-id='type-id-316' const='yes' id='type-id-317'/>
    <qualified-type-def type-id='type-id-159' const='yes' id='type-id-318'/>
    <pointer-type-def type-id='type-id-318' size-in-bits='64' id='type-id-319'/>
    <qualified-type-def type-id='type-id-319' const='yes' id='type-id-320'/>
    <qualified-type-def type-id='type-id-163' const='yes' id='type-id-321'/>
    <pointer-type-def type-id='type-id-321' size-in-bits='64' id='type-id-322'/>
    <qualified-type-def type-id='type-id-322' const='yes' id='type-id-323'/>
    <qualified-type-def type-id='type-id-156' const='yes' id='type-id-324'/>
    <reference-type-def kind='lvalue' type-id='type-id-324' size-in-bits='64' id='type-id-170'/>
    <pointer-type-def type-id='type-id-324' size-in-bits='64' id='type-id-325'/>
    <qualified-type-def type-id='type-id-168' const='yes' id='type-id-326'/>
    <reference-type-def kind='lvalue' type-id='type-id-326' size-in-bits='64' id='type-id-158'/>
    <qualified-type-def type-id='type-id-30' const='yes' id='type-id-327'/>
    <pointer-type-def type-id='type-id-327' size-in-bits='64' id='type-id-328'/>
    <pointer-type-def type-id='type-id-328' size-in-bits='64' id='type-id-329'/>
    <qualified-type-def type-id='type-id-330' id='type-id-72'/>
    <reference-type-def kind='lvalue' type-id='type-id-15' size-in-bits='64' id='type-id-330'/>
    <pointer-type-def type-id='type-id-15' size-in-bits='64' id='type-id-84'/>
    <reference-type-def kind='lvalue' type-id='type-id-84' size-in-bits='64' id='type-id-331'/>
    <reference-type-def kind='lvalue' type-id='type-id-18' size-in-bits='64' id='type-id-332'/>
    <pointer-type-def type-id='type-id-18' size-in-bits='64' id='type-id-92'/>
    <reference-type-def kind='lvalue' type-id='type-id-92' size-in-bits='64' id='type-id-333'/>
    <pointer-type-def type-id='type-id-109' size-in-bits='64' id='type-id-334'/>
    <pointer-type-def type-id='type-id-335' size-in-bits='64' id='type-id-110'/>
    <reference-type-def kind='lvalue' type-id='type-id-19' size-in-bits='64' id='type-id-336'/>
    <pointer-type-def type-id='type-id-19' size-in-bits='64' id='type-id-90'/>
    <reference-type-def kind='lvalue' type-id='type-id-90' size-in-bits='64' id='type-id-337'/>
    <pointer-type-def type-id='type-id-103' size-in-bits='64' id='type-id-338'/>
    <reference-type-def kind='lvalue' type-id='type-id-22' size-in-bits='64' id='type-id-339'/>
    <pointer-type-def type-id='type-id-22' size-in-bits='64' id='type-id-340'/>
    <pointer-type-def type-id='type-id-99' size-in-bits='64' id='type-id-341'/>
    <pointer-type-def type-id='type-id-342' size-in-bits='64' id='type-id-343'/>
    <pointer-type-def type-id='type-id-225' size-in-bits='64' id='type-id-344'/>
    <qualified-type-def type-id='type-id-344' const='yes' id='type-id-345'/>
    <pointer-type-def type-id='type-id-346' size-in-bits='64' id='type-id-347'/>
    <pointer-type-def type-id='type-id-228' size-in-bits='64' id='type-id-348'/>
    <qualified-type-def type-id='type-id-348' const='yes' id='type-id-349'/>
    <pointer-type-def type-id='type-id-350' size-in-bits='64' id='type-id-351'/>
    <pointer-type-def type-id='type-id-232' size-in-bits='64' id='type-id-352'/>
    <pointer-type-def type-id='type-id-353' size-in-bits='64' id='type-id-354'/>
    <pointer-type-def type-id='type-id-355' size-in-bits='64' id='type-id-356'/>
    <pointer-type-def type-id='type-id-239' size-in-bits='64' id='type-id-357'/>
    <pointer-type-def type-id='type-id-243' size-in-bits='64' id='type-id-358'/>
    <reference-type-def kind='lvalue' type-id='type-id-246' size-in-bits='64' id='type-id-359'/>
    <pointer-type-def type-id='type-id-246' size-in-bits='64' id='type-id-360'/>
    <reference-type-def kind='lvalue' type-id='type-id-249' size-in-bits='64' id='type-id-361'/>
    <pointer-type-def type-id='type-id-249' size-in-bits='64' id='type-id-362'/>
    <pointer-type-def type-id='type-id-252' size-in-bits='64' id='type-id-363'/>
    <qualified-type-def type-id='type-id-363' const='yes' id='type-id-364'/>
    <reference-type-def kind='lvalue' type-id='type-id-365' size-in-bits='64' id='type-id-366'/>
    <pointer-type-def type-id='type-id-367' size-in-bits='64' id='type-id-368'/>
    <pointer-type-def type-id='type-id-365' size-in-bits='64' id='type-id-369'/>
    <qualified-type-def type-id='type-id-369' const='yes' id='type-id-370'/>
    <reference-type-def kind='lvalue' type-id='type-id-258' size-in-bits='64' id='type-id-371'/>
    <pointer-type-def type-id='type-id-258' size-in-bits='64' id='type-id-372'/>
    <pointer-type-def type-id='type-id-373' size-in-bits='64' id='type-id-374'/>
    <reference-type-def kind='lvalue' type-id='type-id-375' size-in-bits='64' id='type-id-376'/>
    <pointer-type-def type-id='type-id-375' size-in-bits='64' id='type-id-377'/>
    <reference-type-def kind='lvalue' type-id='type-id-262' size-in-bits='64' id='type-id-378'/>
    <pointer-type-def type-id='type-id-262' size-in-bits='64' id='type-id-379'/>
    <reference-type-def kind='lvalue' type-id='type-id-380' size-in-bits='64' id='type-id-381'/>
    <pointer-type-def type-id='type-id-382' size-in-bits='64' id='type-id-383'/>
    <reference-type-def kind='lvalue' type-id='type-id-384' size-in-bits='64' id='type-id-133'/>
    <reference-type-def kind='lvalue' type-id='type-id-274' size-in-bits='64' id='type-id-385'/>
    <reference-type-def kind='lvalue' type-id='type-id-277' size-in-bits='64' id='type-id-386'/>
    <pointer-type-def type-id='type-id-277' size-in-bits='64' id='type-id-387'/>
    <qualified-type-def type-id='type-id-387' const='yes' id='type-id-388'/>
    <reference-type-def kind='lvalue' type-id='type-id-282' size-in-bits='64' id='type-id-389'/>
    <pointer-type-def type-id='type-id-282' size-in-bits='64' id='type-id-390'/>
    <qualified-type-def type-id='type-id-390' const='yes' id='type-id-391'/>
    <pointer-type-def type-id='type-id-12' size-in-bits='64' id='type-id-392'/>
    <reference-type-def kind='lvalue' type-id='type-id-26' size-in-bits='64' id='type-id-393'/>
    <pointer-type-def type-id='type-id-26' size-in-bits='64' id='type-id-89'/>
    <qualified-type-def type-id='type-id-89' const='yes' id='type-id-394'/>
    <reference-type-def kind='lvalue' type-id='type-id-394' size-in-bits='64' id='type-id-395'/>
    <reference-type-def kind='lvalue' type-id='type-id-89' size-in-bits='64' id='type-id-396'/>
    <reference-type-def kind='lvalue' type-id='type-id-13' size-in-bits='64' id='type-id-397'/>
    <pointer-type-def type-id='type-id-13' size-in-bits='64' id='type-id-88'/>
    <reference-type-def kind='lvalue' type-id='type-id-88' size-in-bits='64' id='type-id-398'/>
    <pointer-type-def type-id='type-id-4' size-in-bits='64' id='type-id-399'/>
    <pointer-type-def type-id='type-id-400' size-in-bits='64' id='type-id-401'/>
    <pointer-type-def type-id='type-id-29' size-in-bits='64' id='type-id-14'/>
    <pointer-type-def type-id='type-id-402' size-in-bits='64' id='type-id-403'/>
    <qualified-type-def type-id='type-id-403' const='yes' id='type-id-404'/>
    <reference-type-def kind='lvalue' type-id='type-id-114' size-in-bits='64' id='type-id-405'/>
    <pointer-type-def type-id='type-id-114' size-in-bits='64' id='type-id-115'/>
    <reference-type-def kind='lvalue' type-id='type-id-406' size-in-bits='64' id='type-id-407'/>
    <pointer-type-def type-id='type-id-406' size-in-bits='64' id='type-id-130'/>
    <pointer-type-def type-id='type-id-118' size-in-bits='64' id='type-id-125'/>
    <qualified-type-def type-id='type-id-125' const='yes' id='type-id-127'/>
    <pointer-type-def type-id='type-id-122' size-in-bits='64' id='type-id-123'/>
    <pointer-type-def type-id='type-id-145' size-in-bits='64' id='type-id-146'/>
    <pointer-type-def type-id='type-id-149' size-in-bits='64' id='type-id-150'/>
    <pointer-type-def type-id='type-id-153' size-in-bits='64' id='type-id-154'/>
    <pointer-type-def type-id='type-id-143' size-in-bits='64' id='type-id-144'/>
    <pointer-type-def type-id='type-id-147' size-in-bits='64' id='type-id-148'/>
    <pointer-type-def type-id='type-id-151' size-in-bits='64' id='type-id-152'/>
    <pointer-type-def type-id='type-id-135' size-in-bits='64' id='type-id-136'/>
    <pointer-type-def type-id='type-id-137' size-in-bits='64' id='type-id-138'/>
    <pointer-type-def type-id='type-id-141' size-in-bits='64' id='type-id-142'/>
    <pointer-type-def type-id='type-id-139' size-in-bits='64' id='type-id-140'/>
    <pointer-type-def type-id='type-id-408' size-in-bits='64' id='type-id-128'/>
    <pointer-type-def type-id='type-id-409' size-in-bits='64' id='type-id-410'/>
    <qualified-type-def type-id='type-id-410' const='yes' id='type-id-411'/>
    <reference-type-def kind='lvalue' type-id='type-id-300' size-in-bits='64' id='type-id-412'/>
    <pointer-type-def type-id='type-id-300' size-in-bits='64' id='type-id-131'/>
    <pointer-type-def type-id='type-id-413' size-in-bits='64' id='type-id-414'/>
    <pointer-type-def type-id='type-id-415' size-in-bits='64' id='type-id-416'/>
    <qualified-type-def type-id='type-id-416' const='yes' id='type-id-417'/>
    <pointer-type-def type-id='type-id-418' size-in-bits='64' id='type-id-419'/>
    <reference-type-def kind='lvalue' type-id='type-id-420' size-in-bits='64' id='type-id-421'/>
    <pointer-type-def type-id='type-id-420' size-in-bits='64' id='type-id-161'/>
    <reference-type-def kind='lvalue' type-id='type-id-422' size-in-bits='64' id='type-id-423'/>
    <pointer-type-def type-id='type-id-422' size-in-bits='64' id='type-id-165'/>
    <pointer-type-def type-id='type-id-124' size-in-bits='64' id='type-id-129'/>
    <pointer-type-def type-id='type-id-424' size-in-bits='64' id='type-id-425'/>
    <pointer-type-def type-id='type-id-51' size-in-bits='64' id='type-id-52'/>
    <pointer-type-def type-id='type-id-426' size-in-bits='64' id='type-id-427'/>
    <qualified-type-def type-id='type-id-66' id='type-id-94'/>
    <reference-type-def kind='lvalue' type-id='type-id-53' size-in-bits='64' id='type-id-66'/>
    <pointer-type-def type-id='type-id-53' size-in-bits='64' id='type-id-59'/>
    <pointer-type-def type-id='type-id-54' size-in-bits='64' id='type-id-58'/>
    <pointer-type-def type-id='type-id-428' size-in-bits='64' id='type-id-134'/>
    <pointer-type-def type-id='type-id-429' size-in-bits='64' id='type-id-430'/>
    <reference-type-def kind='lvalue' type-id='type-id-155' size-in-bits='64' id='type-id-431'/>
    <pointer-type-def type-id='type-id-155' size-in-bits='64' id='type-id-157'/>
    <reference-type-def kind='lvalue' type-id='type-id-166' size-in-bits='64' id='type-id-432'/>
    <pointer-type-def type-id='type-id-166' size-in-bits='64' id='type-id-167'/>
    <qualified-type-def type-id='type-id-167' const='yes' id='type-id-433'/>
    <reference-type-def kind='lvalue' type-id='type-id-159' size-in-bits='64' id='type-id-434'/>
    <pointer-type-def type-id='type-id-159' size-in-bits='64' id='type-id-160'/>
    <reference-type-def kind='lvalue' type-id='type-id-163' size-in-bits='64' id='type-id-435'/>
    <pointer-type-def type-id='type-id-163' size-in-bits='64' id='type-id-164'/>
    <reference-type-def kind='lvalue' type-id='type-id-156' size-in-bits='64' id='type-id-436'/>
    <pointer-type-def type-id='type-id-156' size-in-bits='64' id='type-id-169'/>
    <pointer-type-def type-id='type-id-437' size-in-bits='64' id='type-id-438'/>
    <reference-type-def kind='lvalue' type-id='type-id-91' size-in-bits='64' id='type-id-439'/>
    <pointer-type-def type-id='type-id-91' size-in-bits='64' id='type-id-93'/>
    <reference-type-def kind='lvalue' type-id='type-id-93' size-in-bits='64' id='type-id-440'/>
    <reference-type-def kind='lvalue' type-id='type-id-85' size-in-bits='64' id='type-id-441'/>
    <pointer-type-def type-id='type-id-85' size-in-bits='64' id='type-id-95'/>
    <reference-type-def kind='lvalue' type-id='type-id-95' size-in-bits='64' id='type-id-442'/>
    <pointer-type-def type-id='type-id-30' size-in-bits='64' id='type-id-443'/>
    <pointer-type-def type-id='type-id-443' size-in-bits='64' id='type-id-444'/>
    <class-decl name='vtkDataArrayTemplate&lt;char&gt;' visibility='default' is-declaration-only='yes' id='type-id-409'>
      <member-type access='private'>
        <enum-decl name='DeleteMethod' filepath='/tmp/legendre/spack-stage/spack-stage-R_crTC/VTK-6.1.0/Common/Core/vtkDataArrayTemplate.h' line='254' column='1' id='type-id-445'>
          <underlying-type type-id='type-id-25'/>
          <enumerator name='VTK_DATA_ARRAY_FREE' value='0'/>
          <enumerator name='VTK_DATA_ARRAY_DELETE' value='1'/>
        </enum-decl>
      </member-type>
    </class-decl>
    <class-decl name='vtkOStreamWrapper' visibility='default' is-declaration-only='yes' id='type-id-446'>
      <member-type access='private'>
        <class-decl name='EndlType' size-in-bits='8' is-struct='yes' visibility='default' filepath='/tmp/legendre/spack-stage/spack-stage-R_crTC/VTK-6.1.0/Common/Core/vtkOStreamWrapper.h' line='58' column='1' id='type-id-308'/>
      </member-type>
    </class-decl>
    <class-decl name='vtkObjectBase' visibility='default' is-declaration-only='yes' id='type-id-428'>
      <member-function access='protected' vtable-offset='11'>
        <function-decl name='CollectRevisions' mangled-name='_ZN13vtkObjectBase16CollectRevisionsERSo' filepath='/tmp/legendre/spack-stage/spack-stage-R_crTC/VTK-6.1.0/Common/Core/vtkObjectBase.h' line='163' column='1' visibility='default' binding='global' size-in-bits='64'>
          <parameter type-id='type-id-134' is-artificial='yes'/>
          <parameter type-id='type-id-133'/>
          <return type-id='type-id-29'/>
        </function-decl>
      </member-function>
    </class-decl>
    <namespace-decl name='std'>
      <class-decl name='_Resetiosflags' size-in-bits='32' is-struct='yes' visibility='default' filepath='/usr/lib/gcc/x86_64-redhat-linux/4.4.7/../../../../include/c++/4.4.7/iomanip' line='49' column='1' id='type-id-447'>
        <member-type access='public'>
          <typedef-decl name='fmtflags' type-id='type-id-448' filepath='/usr/lib/gcc/x86_64-redhat-linux/4.4.7/../../../../include/c++/4.4.7/bits/ios_base.h' line='263' column='1' id='type-id-223'/>
        </member-type>
        <data-member access='public' layout-offset-in-bits='0'>
          <var-decl name='_M_mask' type-id='type-id-223' visibility='default' filepath='/usr/lib/gcc/x86_64-redhat-linux/4.4.7/../../../../include/c++/4.4.7/iomanip' line='49' column='1'/>
        </data-member>
      </class-decl>
      <enum-decl name='_Ios_Fmtflags' filepath='/usr/lib/gcc/x86_64-redhat-linux/4.4.7/../../../../include/c++/4.4.7/bits/ios_base.h' line='60' column='1' id='type-id-448'>
        <underlying-type type-id='type-id-25'/>
        <enumerator name='_S_boolalpha' value='1'/>
        <enumerator name='_S_dec' value='2'/>
        <enumerator name='_S_fixed' value='4'/>
        <enumerator name='_S_hex' value='8'/>
        <enumerator name='_S_internal' value='16'/>
        <enumerator name='_S_left' value='32'/>
        <enumerator name='_S_oct' value='64'/>
        <enumerator name='_S_right' value='128'/>
        <enumerator name='_S_scientific' value='256'/>
        <enumerator name='_S_showbase' value='512'/>
        <enumerator name='_S_showpoint' value='1024'/>
        <enumerator name='_S_showpos' value='2048'/>
        <enumerator name='_S_skipws' value='4096'/>
        <enumerator name='_S_unitbuf' value='8192'/>
        <enumerator name='_S_uppercase' value='16384'/>
        <enumerator name='_S_adjustfield' value='176'/>
        <enumerator name='_S_basefield' value='74'/>
        <enumerator name='_S_floatfield' value='260'/>
        <enumerator name='_S_ios_fmtflags_end' value='65536'/>
      </enum-decl>
      <enum-decl name='_Ios_Iostate' filepath='/usr/lib/gcc/x86_64-redhat-linux/4.4.7/../../../../include/c++/4.4.7/bits/ios_base.h' line='152' column='1' id='type-id-449'>
        <underlying-type type-id='type-id-25'/>
        <enumerator name='_S_goodbit' value='0'/>
        <enumerator name='_S_badbit' value='1'/>
        <enumerator name='_S_eofbit' value='2'/>
        <enumerator name='_S_failbit' value='4'/>
        <enumerator name='_S_ios_iostate_end' value='65536'/>
      </enum-decl>
      <typedef-decl name='__c_file' type-id='type-id-33' filepath='/usr/lib/gcc/x86_64-redhat-linux/4.4.7/../../../../include/c++/4.4.7/x86_64-redhat-linux/bits/c++io.h' line='45' column='1' id='type-id-353'/>
      <class-decl name='allocator&lt;unsigned char&gt;' size-in-bits='8' visibility='default' filepath='/usr/lib/gcc/x86_64-redhat-linux/4.4.7/../../../../include/c++/4.4.7/bits/allocator.h' line='87' column='1' id='type-id-249'>
        <base-class access='public' layout-offset-in-bits='0' type-id='type-id-181'/>
        <member-function access='private'>
          <function-decl name='allocator' filepath='/usr/lib/gcc/x86_64-redhat-linux/4.4.7/../../../../include/c++/4.4.7/bits/allocator.h' line='101' column='1' visibility='default' binding='global' size-in-bits='64'>
            <parameter type-id='type-id-362' is-artificial='yes'/>
            <return type-id='type-id-29'/>
          </function-decl>
        </member-function>
        <member-function access='private'>
          <function-decl name='allocator' filepath='/usr/lib/gcc/x86_64-redhat-linux/4.4.7/../../../../include/c++/4.4.7/bits/allocator.h' line='103' column='1' visibility='default' binding='global' size-in-bits='64'>
            <parameter type-id='type-id-362' is-artificial='yes'/>
            <parameter type-id='type-id-251'/>
            <return type-id='type-id-29'/>
          </function-decl>
        </member-function>
        <member-function access='private' destructor='yes'>
          <function-decl name='~allocator' filepath='/usr/lib/gcc/x86_64-redhat-linux/4.4.7/../../../../include/c++/4.4.7/bits/allocator.h' line='109' column='1' visibility='default' binding='global' size-in-bits='64'>
            <parameter type-id='type-id-362' is-artificial='yes'/>
            <parameter type-id='type-id-19' is-artificial='yes'/>
            <return type-id='type-id-29'/>
          </function-decl>
        </member-function>
      </class-decl>
      <typedef-decl name='__c_lock' type-id='type-id-44' filepath='/usr/lib/gcc/x86_64-redhat-linux/4.4.7/../../../../include/c++/4.4.7/x86_64-redhat-linux/bits/c++io.h' line='42' column='1' id='type-id-355'/>
      <class-decl name='basic_string&lt;char, std::char_traits&lt;char&gt;, std::allocator&lt;char&gt; &gt;' size-in-bits='64' is-struct='yes' visibility='default' filepath='/usr/lib/gcc/x86_64-redhat-linux/4.4.7/../../../../include/c++/4.4.7/bits/stringfwd.h' line='52' column='1' id='type-id-258'>
        <member-type access='private'>
          <class-decl name='_Rep' size-in-bits='192' is-struct='yes' visibility='default' filepath='/usr/lib/gcc/x86_64-redhat-linux/4.4.7/../../../../include/c++/4.4.7/bits/basic_string.h' line='148' column='1' id='type-id-375'>
            <base-class access='public' layout-offset-in-bits='0' type-id='type-id-450'/>
            <data-member access='public' static='yes'>
              <var-decl name='_S_max_size' type-id='type-id-221' visibility='default' filepath='/usr/lib/gcc/x86_64-redhat-linux/4.4.7/../../../../include/c++/4.4.7/bits/basic_string.tcc' line='51' column='1'/>
            </data-member>
            <data-member access='public' static='yes'>
              <var-decl name='_S_terminal' type-id='type-id-203' visibility='default' filepath='/usr/lib/gcc/x86_64-redhat-linux/4.4.7/../../../../include/c++/4.4.7/bits/basic_string.tcc' line='56' column='1'/>
            </data-member>
            <data-member access='public' static='yes'>
              <var-decl name='_S_empty_rep_storage' type-id='type-id-451' visibility='default' filepath='/usr/lib/gcc/x86_64-redhat-linux/4.4.7/../../../../include/c++/4.4.7/bits/basic_string.tcc' line='68' column='1'/>
            </data-member>
          </class-decl>
        </member-type>
        <member-type access='private'>
          <class-decl name='_Alloc_hider' size-in-bits='64' is-struct='yes' visibility='default' filepath='/usr/lib/gcc/x86_64-redhat-linux/4.4.7/../../../../include/c++/4.4.7/bits/basic_string.h' line='258' column='1' id='type-id-373'>
            <base-class access='public' layout-offset-in-bits='0' type-id='type-id-243'/>
            <data-member access='public' layout-offset-in-bits='0'>
              <var-decl name='_M_p' type-id='type-id-34' visibility='default' filepath='/usr/lib/gcc/x86_64-redhat-linux/4.4.7/../../../../include/c++/4.4.7/bits/basic_string.h' line='262' column='1'/>
            </data-member>
            <member-function access='public' constructor='yes'>
              <function-decl name='_Alloc_hider' filepath='/usr/lib/gcc/x86_64-redhat-linux/4.4.7/../../../../include/c++/4.4.7/bits/basic_string.h' line='259' column='1' visibility='default' binding='global' size-in-bits='64'>
                <parameter type-id='type-id-374' is-artificial='yes'/>
                <parameter type-id='type-id-34'/>
                <parameter type-id='type-id-245'/>
                <return type-id='type-id-29'/>
              </function-decl>
            </member-function>
          </class-decl>
        </member-type>
        <member-type access='private'>
          <class-decl name='_Rep_base' size-in-bits='192' is-struct='yes' visibility='default' filepath='/usr/lib/gcc/x86_64-redhat-linux/4.4.7/../../../../include/c++/4.4.7/bits/basic_string.h' line='141' column='1' id='type-id-450'>
            <data-member access='public' layout-offset-in-bits='0'>
              <var-decl name='_M_length' type-id='type-id-40' visibility='default' filepath='/usr/lib/gcc/x86_64-redhat-linux/4.4.7/../../../../include/c++/4.4.7/bits/basic_string.h' line='142' column='1'/>
            </data-member>
            <data-member access='public' layout-offset-in-bits='64'>
              <var-decl name='_M_capacity' type-id='type-id-40' visibility='default' filepath='/usr/lib/gcc/x86_64-redhat-linux/4.4.7/../../../../include/c++/4.4.7/bits/basic_string.h' line='143' column='1'/>
            </data-member>
            <data-member access='public' layout-offset-in-bits='128'>
              <var-decl name='_M_refcount' type-id='type-id-31' visibility='default' filepath='/usr/lib/gcc/x86_64-redhat-linux/4.4.7/../../../../include/c++/4.4.7/bits/basic_string.h' line='144' column='1'/>
            </data-member>
          </class-decl>
        </member-type>
        <data-member access='public' static='yes'>
          <var-decl name='npos' type-id='type-id-221' visibility='default' filepath='/usr/lib/gcc/x86_64-redhat-linux/4.4.7/../../../../include/c++/4.4.7/bits/basic_string.h' line='270' column='1'/>
        </data-member>
        <data-member access='private' layout-offset-in-bits='0'>
          <var-decl name='_M_dataplus' type-id='type-id-373' visibility='default' filepath='/usr/lib/gcc/x86_64-redhat-linux/4.4.7/../../../../include/c++/4.4.7/bits/basic_string.h' line='274' column='1'/>
        </data-member>
        <member-function access='public'>
          <function-decl name='basic_string' filepath='/usr/lib/gcc/x86_64-redhat-linux/4.4.7/../../../../include/c++/4.4.7/bits/basic_string.h' line='2144' column='1' visibility='default' binding='global' size-in-bits='64'>
            <parameter type-id='type-id-372' is-artificial='yes'/>
            <return type-id='type-id-29'/>
          </function-decl>
        </member-function>
        <member-function access='public'>
          <function-decl name='basic_string' filepath='/usr/lib/gcc/x86_64-redhat-linux/4.4.7/../../../../include/c++/4.4.7/bits/basic_string.tcc' line='178' column='1' visibility='default' binding='global' size-in-bits='64'>
            <parameter type-id='type-id-372' is-artificial='yes'/>
            <parameter type-id='type-id-245'/>
            <return type-id='type-id-29'/>
          </function-decl>
        </member-function>
        <member-function access='public'>
          <function-decl name='basic_string' filepath='/usr/lib/gcc/x86_64-redhat-linux/4.4.7/../../../../include/c++/4.4.7/bits/basic_string.tcc' line='170' column='1' visibility='default' binding='global' size-in-bits='64'>
            <parameter type-id='type-id-372' is-artificial='yes'/>
            <parameter type-id='type-id-260'/>
            <return type-id='type-id-29'/>
          </function-decl>
        </member-function>
        <member-function access='public'>
          <function-decl name='basic_string' filepath='/usr/lib/gcc/x86_64-redhat-linux/4.4.7/../../../../include/c++/4.4.7/bits/basic_string.tcc' line='184' column='1' visibility='default' binding='global' size-in-bits='64'>
            <parameter type-id='type-id-372' is-artificial='yes'/>
            <parameter type-id='type-id-260'/>
            <parameter type-id='type-id-4'/>
            <parameter type-id='type-id-4'/>
            <return type-id='type-id-29'/>
          </function-decl>
        </member-function>
        <member-function access='public'>
          <function-decl name='basic_string' filepath='/usr/lib/gcc/x86_64-redhat-linux/4.4.7/../../../../include/c++/4.4.7/bits/basic_string.tcc' line='194' column='1' visibility='default' binding='global' size-in-bits='64'>
            <parameter type-id='type-id-372' is-artificial='yes'/>
            <parameter type-id='type-id-260'/>
            <parameter type-id='type-id-4'/>
            <parameter type-id='type-id-4'/>
            <parameter type-id='type-id-245'/>
            <return type-id='type-id-29'/>
          </function-decl>
        </member-function>
        <member-function access='public'>
          <function-decl name='basic_string' filepath='/usr/lib/gcc/x86_64-redhat-linux/4.4.7/../../../../include/c++/4.4.7/bits/basic_string.tcc' line='206' column='1' visibility='default' binding='global' size-in-bits='64'>
            <parameter type-id='type-id-372' is-artificial='yes'/>
            <parameter type-id='type-id-102'/>
            <parameter type-id='type-id-4'/>
            <parameter type-id='type-id-245'/>
            <return type-id='type-id-29'/>
          </function-decl>
        </member-function>
        <member-function access='public'>
          <function-decl name='basic_string' filepath='/usr/lib/gcc/x86_64-redhat-linux/4.4.7/../../../../include/c++/4.4.7/bits/basic_string.tcc' line='213' column='1' visibility='default' binding='global' size-in-bits='64'>
            <parameter type-id='type-id-372' is-artificial='yes'/>
            <parameter type-id='type-id-102'/>
            <parameter type-id='type-id-245'/>
            <return type-id='type-id-29'/>
          </function-decl>
        </member-function>
        <member-function access='public'>
          <function-decl name='basic_string' filepath='/usr/lib/gcc/x86_64-redhat-linux/4.4.7/../../../../include/c++/4.4.7/bits/basic_string.tcc' line='220' column='1' visibility='default' binding='global' size-in-bits='64'>
            <parameter type-id='type-id-372' is-artificial='yes'/>
            <parameter type-id='type-id-4'/>
            <parameter type-id='type-id-2'/>
            <parameter type-id='type-id-245'/>
            <return type-id='type-id-29'/>
          </function-decl>
        </member-function>
        <member-function access='public' destructor='yes'>
          <function-decl name='~basic_string' filepath='/usr/lib/gcc/x86_64-redhat-linux/4.4.7/../../../../include/c++/4.4.7/bits/basic_string.h' line='502' column='1' visibility='default' binding='global' size-in-bits='64'>
            <parameter type-id='type-id-372' is-artificial='yes'/>
            <parameter type-id='type-id-19' is-artificial='yes'/>
            <return type-id='type-id-29'/>
          </function-decl>
        </member-function>
      </class-decl>
      <enum-decl name='_Ios_Openmode' filepath='/usr/lib/gcc/x86_64-redhat-linux/4.4.7/../../../../include/c++/4.4.7/bits/ios_base.h' line='112' column='1' id='type-id-452'>
        <underlying-type type-id='type-id-25'/>
        <enumerator name='_S_app' value='1'/>
        <enumerator name='_S_ate' value='2'/>
        <enumerator name='_S_bin' value='4'/>
        <enumerator name='_S_in' value='8'/>
        <enumerator name='_S_out' value='16'/>
        <enumerator name='_S_trunc' value='32'/>
        <enumerator name='_S_ios_openmode_end' value='65536'/>
      </enum-decl>
      <typedef-decl name='streamsize' type-id='type-id-49' filepath='/usr/lib/gcc/x86_64-redhat-linux/4.4.7/../../../../include/c++/4.4.7/bits/postypes.h' line='98' column='1' id='type-id-453'/>
      <typedef-decl name='streamoff' type-id='type-id-21' filepath='/usr/lib/gcc/x86_64-redhat-linux/4.4.7/../../../../include/c++/4.4.7/bits/postypes.h' line='88' column='1' id='type-id-454'/>
      <enum-decl name='_Ios_Seekdir' filepath='/usr/lib/gcc/x86_64-redhat-linux/4.4.7/../../../../include/c++/4.4.7/bits/ios_base.h' line='189' column='1' id='type-id-455'>
        <underlying-type type-id='type-id-25'/>
        <enumerator name='_S_beg' value='0'/>
        <enumerator name='_S_cur' value='1'/>
        <enumerator name='_S_end' value='2'/>
        <enumerator name='_S_ios_seekdir_end' value='65536'/>
      </enum-decl>
      <class-decl name='_Setw' size-in-bits='32' is-struct='yes' visibility='default' filepath='/usr/lib/gcc/x86_64-redhat-linux/4.4.7/../../../../include/c++/4.4.7/iomanip' line='228' column='1' id='type-id-456'>
        <data-member access='public' layout-offset-in-bits='0'>
          <var-decl name='_M_n' type-id='type-id-19' visibility='default' filepath='/usr/lib/gcc/x86_64-redhat-linux/4.4.7/../../../../include/c++/4.4.7/iomanip' line='228' column='1'/>
        </data-member>
      </class-decl>
      <class-decl name='_Setprecision' size-in-bits='32' is-struct='yes' visibility='default' filepath='/usr/lib/gcc/x86_64-redhat-linux/4.4.7/../../../../include/c++/4.4.7/iomanip' line='194' column='1' id='type-id-457'>
        <data-member access='public' layout-offset-in-bits='0'>
          <var-decl name='_M_n' type-id='type-id-19' visibility='default' filepath='/usr/lib/gcc/x86_64-redhat-linux/4.4.7/../../../../include/c++/4.4.7/iomanip' line='194' column='1'/>
        </data-member>
      </class-decl>
      <class-decl name='allocator&lt;long long int&gt;' size-in-bits='8' visibility='default' filepath='/usr/lib/gcc/x86_64-redhat-linux/4.4.7/../../../../include/c++/4.4.7/bits/allocator.h' line='87' column='1' id='type-id-246'>
        <base-class access='public' layout-offset-in-bits='0' type-id='type-id-178'/>
        <member-function access='private'>
          <function-decl name='allocator' filepath='/usr/lib/gcc/x86_64-redhat-linux/4.4.7/../../../../include/c++/4.4.7/bits/allocator.h' line='101' column='1' visibility='default' binding='global' size-in-bits='64'>
            <parameter type-id='type-id-360' is-artificial='yes'/>
            <return type-id='type-id-29'/>
          </function-decl>
        </member-function>
        <member-function access='private'>
          <function-decl name='allocator' filepath='/usr/lib/gcc/x86_64-redhat-linux/4.4.7/../../../../include/c++/4.4.7/bits/allocator.h' line='103' column='1' visibility='default' binding='global' size-in-bits='64'>
            <parameter type-id='type-id-360' is-artificial='yes'/>
            <parameter type-id='type-id-248'/>
            <return type-id='type-id-29'/>
          </function-decl>
        </member-function>
        <member-function access='private' destructor='yes'>
          <function-decl name='~allocator' filepath='/usr/lib/gcc/x86_64-redhat-linux/4.4.7/../../../../include/c++/4.4.7/bits/allocator.h' line='109' column='1' visibility='default' binding='global' size-in-bits='64'>
            <parameter type-id='type-id-360' is-artificial='yes'/>
            <parameter type-id='type-id-19' is-artificial='yes'/>
            <return type-id='type-id-29'/>
          </function-decl>
        </member-function>
      </class-decl>
      <typedef-decl name='_Bit_type' type-id='type-id-4' filepath='/usr/lib/gcc/x86_64-redhat-linux/4.4.7/../../../../include/c++/4.4.7/bits/stl_bvector.h' line='64' column='1' id='type-id-342'/>
      <class-decl name='__copy_move_backward&lt;false, true, std::random_access_iterator_tag&gt;' size-in-bits='8' is-struct='yes' visibility='default' filepath='/usr/lib/gcc/x86_64-redhat-linux/4.4.7/../../../../include/c++/4.4.7/bits/stl_algobase.h' line='511' column='1' id='type-id-458'>
        <member-function access='public' static='yes'>
          <function-decl name='__copy_move_b&lt;vtkCommunicator::ReduceVoidArray::VTK_TT&gt;' filepath='/usr/lib/gcc/x86_64-redhat-linux/4.4.7/../../../../include/c++/4.4.7/bits/stl_algobase.h' line='572' column='1' visibility='default' binding='global' size-in-bits='64'>
            <parameter type-id='type-id-242'/>
            <parameter type-id='type-id-242'/>
            <parameter type-id='type-id-357'/>
            <return type-id='type-id-357'/>
          </function-decl>
        </member-function>
        <member-function access='public' static='yes'>
          <function-decl name='__copy_move_b&lt;vtkMultiProcessController::vtkInternal::vtkRMICallback&gt;' filepath='/usr/lib/gcc/x86_64-redhat-linux/4.4.7/../../../../include/c++/4.4.7/bits/stl_algobase.h' line='572' column='1' visibility='default' binding='global' size-in-bits='64'>
            <parameter type-id='type-id-459'/>
            <parameter type-id='type-id-459'/>
            <parameter type-id='type-id-460'/>
            <return type-id='type-id-460'/>
          </function-decl>
        </member-function>
        <member-function access='public' static='yes'>
          <function-decl name='__copy_move_b&lt;vtksys::_Hashtable_node&lt;std::pair&lt;const int, void (*)(vtkMultiProcessController*, void*)&gt; &gt;*&gt;' filepath='/usr/lib/gcc/x86_64-redhat-linux/4.4.7/../../../../include/c++/4.4.7/bits/stl_algobase.h' line='572' column='1' visibility='default' binding='global' size-in-bits='64'>
            <parameter type-id='type-id-461'/>
            <parameter type-id='type-id-461'/>
            <parameter type-id='type-id-462'/>
            <return type-id='type-id-462'/>
          </function-decl>
        </member-function>
        <member-function access='public' static='yes'>
          <function-decl name='__copy_move_b&lt;vtksys::_Hashtable_node&lt;std::pair&lt;const int, void*&gt; &gt;*&gt;' filepath='/usr/lib/gcc/x86_64-redhat-linux/4.4.7/../../../../include/c++/4.4.7/bits/stl_algobase.h' line='572' column='1' visibility='default' binding='global' size-in-bits='64'>
            <parameter type-id='type-id-463'/>
            <parameter type-id='type-id-463'/>
            <parameter type-id='type-id-464'/>
            <return type-id='type-id-464'/>
          </function-decl>
        </member-function>
        <member-function access='public' static='yes'>
          <function-decl name='__copy_move_b&lt;vtksys::_Hashtable_node&lt;std::pair&lt;const int, std::vector&lt;vtkMultiProcessController::vtkInternal::vtkRMICallback, std::allocator&lt;vtkMultiProcessController::vtkInternal::vtkRMICallback&gt; &gt; &gt; &gt;*&gt;' filepath='/usr/lib/gcc/x86_64-redhat-linux/4.4.7/../../../../include/c++/4.4.7/bits/stl_algobase.h' line='572' column='1' visibility='default' binding='global' size-in-bits='64'>
            <parameter type-id='type-id-465'/>
            <parameter type-id='type-id-465'/>
            <parameter type-id='type-id-466'/>
            <return type-id='type-id-466'/>
          </function-decl>
        </member-function>
        <member-function access='public' static='yes'>
          <function-decl name='__copy_move_b&lt;unsigned char*&gt;' filepath='/usr/lib/gcc/x86_64-redhat-linux/4.4.7/../../../../include/c++/4.4.7/bits/stl_algobase.h' line='572' column='1' visibility='default' binding='global' size-in-bits='64'>
            <parameter type-id='type-id-467'/>
            <parameter type-id='type-id-467'/>
            <parameter type-id='type-id-468'/>
            <return type-id='type-id-468'/>
          </function-decl>
        </member-function>
        <member-function access='public' static='yes'>
          <function-decl name='__copy_move_b&lt;unsigned char&gt;' filepath='/usr/lib/gcc/x86_64-redhat-linux/4.4.7/../../../../include/c++/4.4.7/bits/stl_algobase.h' line='572' column='1' visibility='default' binding='global' size-in-bits='64'>
            <parameter type-id='type-id-86'/>
            <parameter type-id='type-id-86'/>
            <parameter type-id='type-id-89'/>
            <return type-id='type-id-89'/>
          </function-decl>
        </member-function>
        <member-function access='public' static='yes'>
          <function-decl name='__copy_move_b&lt;char&gt;' filepath='/usr/lib/gcc/x86_64-redhat-linux/4.4.7/../../../../include/c++/4.4.7/bits/stl_algobase.h' line='572' column='1' visibility='default' binding='global' size-in-bits='64'>
            <parameter type-id='type-id-102'/>
            <parameter type-id='type-id-102'/>
            <parameter type-id='type-id-34'/>
            <return type-id='type-id-34'/>
          </function-decl>
        </member-function>
        <member-function access='public' static='yes'>
          <function-decl name='__copy_move_b&lt;int&gt;' filepath='/usr/lib/gcc/x86_64-redhat-linux/4.4.7/../../../../include/c++/4.4.7/bits/stl_algobase.h' line='572' column='1' visibility='default' binding='global' size-in-bits='64'>
            <parameter type-id='type-id-212'/>
            <parameter type-id='type-id-212'/>
            <parameter type-id='type-id-90'/>
            <return type-id='type-id-90'/>
          </function-decl>
        </member-function>
      </class-decl>
      <class-decl name='allocator&lt;char&gt;' size-in-bits='8' is-struct='yes' visibility='default' filepath='/usr/lib/gcc/x86_64-redhat-linux/4.4.7/../../../../include/c++/4.4.7/bits/stringfwd.h' line='45' column='1' id='type-id-243'>
        <base-class access='public' layout-offset-in-bits='0' type-id='type-id-176'/>
        <member-function access='public'>
          <function-decl name='allocator' filepath='/usr/lib/gcc/x86_64-redhat-linux/4.4.7/../../../../include/c++/4.4.7/bits/allocator.h' line='101' column='1' visibility='default' binding='global' size-in-bits='64'>
            <parameter type-id='type-id-358' is-artificial='yes'/>
            <return type-id='type-id-29'/>
          </function-decl>
        </member-function>
        <member-function access='public'>
          <function-decl name='allocator' filepath='/usr/lib/gcc/x86_64-redhat-linux/4.4.7/../../../../include/c++/4.4.7/bits/allocator.h' line='103' column='1' visibility='default' binding='global' size-in-bits='64'>
            <parameter type-id='type-id-358' is-artificial='yes'/>
            <parameter type-id='type-id-245'/>
            <return type-id='type-id-29'/>
          </function-decl>
        </member-function>
        <member-function access='public' destructor='yes'>
          <function-decl name='~allocator' filepath='/usr/lib/gcc/x86_64-redhat-linux/4.4.7/../../../../include/c++/4.4.7/bits/allocator.h' line='109' column='1' visibility='default' binding='global' size-in-bits='64'>
            <parameter type-id='type-id-358' is-artificial='yes'/>
            <parameter type-id='type-id-19' is-artificial='yes'/>
            <return type-id='type-id-29'/>
          </function-decl>
        </member-function>
      </class-decl>
      <class-decl name='char_traits&lt;char&gt;' size-in-bits='8' is-struct='yes' visibility='default' filepath='/usr/lib/gcc/x86_64-redhat-linux/4.4.7/../../../../include/c++/4.4.7/bits/char_traits.h' line='238' column='1' id='type-id-469'>
        <member-type access='public'>
          <typedef-decl name='char_type' type-id='type-id-2' filepath='/usr/lib/gcc/x86_64-redhat-linux/4.4.7/../../../../include/c++/4.4.7/bits/char_traits.h' line='239' column='1' id='type-id-262'/>
        </member-type>
        <member-type access='public'>
          <typedef-decl name='int_type' type-id='type-id-19' filepath='/usr/lib/gcc/x86_64-redhat-linux/4.4.7/../../../../include/c++/4.4.7/bits/char_traits.h' line='240' column='1' id='type-id-266'/>
        </member-type>
      </class-decl>
      <class-decl name='vector&lt;unsigned char, std::allocator&lt;unsigned char&gt; &gt;' size-in-bits='192' visibility='default' filepath='/usr/lib/gcc/x86_64-redhat-linux/4.4.7/../../../../include/c++/4.4.7/bits/stl_vector.h' line='171' column='1' id='type-id-282'>
        <base-class access='protected' layout-offset-in-bits='0' type-id='type-id-228'/>
        <member-function access='private'>
          <function-decl name='vector' filepath='/usr/lib/gcc/x86_64-redhat-linux/4.4.7/../../../../include/c++/4.4.7/bits/stl_vector.h' line='207' column='1' visibility='default' binding='global' size-in-bits='64'>
            <parameter type-id='type-id-390' is-artificial='yes'/>
            <return type-id='type-id-29'/>
          </function-decl>
        </member-function>
        <member-function access='private'>
          <function-decl name='vector' filepath='/usr/lib/gcc/x86_64-redhat-linux/4.4.7/../../../../include/c++/4.4.7/bits/stl_vector.h' line='215' column='1' visibility='default' binding='global' size-in-bits='64'>
            <parameter type-id='type-id-390' is-artificial='yes'/>
            <parameter type-id='type-id-251'/>
            <return type-id='type-id-29'/>
          </function-decl>
        </member-function>
        <member-function access='private'>
          <function-decl name='vector' filepath='/usr/lib/gcc/x86_64-redhat-linux/4.4.7/../../../../include/c++/4.4.7/bits/stl_vector.h' line='227' column='1' visibility='default' binding='global' size-in-bits='64'>
            <parameter type-id='type-id-390' is-artificial='yes'/>
            <parameter type-id='type-id-4'/>
            <parameter type-id='type-id-290'/>
            <parameter type-id='type-id-251'/>
            <return type-id='type-id-29'/>
          </function-decl>
        </member-function>
        <member-function access='private'>
          <function-decl name='vector' filepath='/usr/lib/gcc/x86_64-redhat-linux/4.4.7/../../../../include/c++/4.4.7/bits/stl_vector.h' line='241' column='1' visibility='default' binding='global' size-in-bits='64'>
            <parameter type-id='type-id-390' is-artificial='yes'/>
            <parameter type-id='type-id-284'/>
            <return type-id='type-id-29'/>
          </function-decl>
        </member-function>
        <member-function access='private' destructor='yes'>
          <function-decl name='~vector' filepath='/usr/lib/gcc/x86_64-redhat-linux/4.4.7/../../../../include/c++/4.4.7/bits/stl_vector.h' line='312' column='1' visibility='default' binding='global' size-in-bits='64'>
            <parameter type-id='type-id-390' is-artificial='yes'/>
            <parameter type-id='type-id-19' is-artificial='yes'/>
            <return type-id='type-id-29'/>
          </function-decl>
        </member-function>
        <member-function access='protected'>
          <function-decl name='_M_fill_insert' mangled-name='_ZNSt6vectorIhSaIhEE14_M_fill_insertEN9__gnu_cxx17__normal_iteratorIPhS1_EEmRKh' filepath='/usr/lib/gcc/x86_64-redhat-linux/4.4.7/../../../../include/c++/4.4.7/bits/vector.tcc' line='372' column='1' visibility='default' binding='global' size-in-bits='64' elf-symbol-id='_ZNSt6vectorIhSaIhEE14_M_fill_insertEN9__gnu_cxx17__normal_iteratorIPhS1_EEmRKh'>
            <parameter type-id='type-id-391' name='this' is-artificial='yes'/>
            <parameter type-id='type-id-173' name='__position' filepath='/usr/lib/gcc/x86_64-redhat-linux/4.4.7/../../../../include/c++/4.4.7/bits/stl_vector.h' line='850' column='1'/>
            <parameter type-id='type-id-40' name='__n' filepath='/usr/lib/gcc/x86_64-redhat-linux/4.4.7/../../../../include/c++/4.4.7/bits/stl_vector.h' line='850' column='1'/>
            <parameter type-id='type-id-291' name='__x' filepath='/usr/lib/gcc/x86_64-redhat-linux/4.4.7/../../../../include/c++/4.4.7/bits/stl_vector.h' line='850' column='1'/>
            <return type-id='type-id-29'/>
          </function-decl>
        </member-function>
        <member-function access='protected'>
          <function-decl name='_M_insert_aux' mangled-name='_ZNSt6vectorIhSaIhEE13_M_insert_auxEN9__gnu_cxx17__normal_iteratorIPhS1_EERKh' filepath='/usr/lib/gcc/x86_64-redhat-linux/4.4.7/../../../../include/c++/4.4.7/bits/vector.tcc' line='295' column='1' visibility='default' binding='global' size-in-bits='64' elf-symbol-id='_ZNSt6vectorIhSaIhEE13_M_insert_auxEN9__gnu_cxx17__normal_iteratorIPhS1_EERKh'>
            <parameter type-id='type-id-391' name='this' is-artificial='yes'/>
            <parameter type-id='type-id-173' name='__position' filepath='/usr/lib/gcc/x86_64-redhat-linux/4.4.7/../../../../include/c++/4.4.7/bits/vector.tcc' line='296' column='1'/>
            <parameter type-id='type-id-291' name='__x' filepath='/usr/lib/gcc/x86_64-redhat-linux/4.4.7/../../../../include/c++/4.4.7/bits/vector.tcc' line='296' column='1'/>
            <return type-id='type-id-29'/>
          </function-decl>
        </member-function>
      </class-decl>
      <typedef-decl name='ostream' type-id='type-id-365' filepath='/usr/lib/gcc/x86_64-redhat-linux/4.4.7/../../../../include/c++/4.4.7/iosfwd' line='130' column='1' id='type-id-384'/>
      <class-decl name='_Vector_base&lt;unsigned char, std::allocator&lt;unsigned char&gt; &gt;' size-in-bits='192' is-struct='yes' visibility='default' filepath='/usr/lib/gcc/x86_64-redhat-linux/4.4.7/../../../../include/c++/4.4.7/bits/stl_vector.h' line='70' column='1' id='type-id-228'>
        <member-type access='public'>
          <class-decl name='_Vector_impl' size-in-bits='192' is-struct='yes' visibility='default' filepath='/usr/lib/gcc/x86_64-redhat-linux/4.4.7/../../../../include/c++/4.4.7/bits/stl_vector.h' line='75' column='1' id='type-id-350'>
            <base-class access='public' layout-offset-in-bits='0' type-id='type-id-249'/>
            <data-member access='public' layout-offset-in-bits='0'>
              <var-decl name='_M_start' type-id='type-id-89' visibility='default' filepath='/usr/lib/gcc/x86_64-redhat-linux/4.4.7/../../../../include/c++/4.4.7/bits/stl_vector.h' line='76' column='1'/>
            </data-member>
            <data-member access='public' layout-offset-in-bits='64'>
              <var-decl name='_M_finish' type-id='type-id-89' visibility='default' filepath='/usr/lib/gcc/x86_64-redhat-linux/4.4.7/../../../../include/c++/4.4.7/bits/stl_vector.h' line='77' column='1'/>
            </data-member>
            <data-member access='public' layout-offset-in-bits='128'>
              <var-decl name='_M_end_of_storage' type-id='type-id-89' visibility='default' filepath='/usr/lib/gcc/x86_64-redhat-linux/4.4.7/../../../../include/c++/4.4.7/bits/stl_vector.h' line='78' column='1'/>
            </data-member>
            <member-function access='public' constructor='yes'>
              <function-decl name='_Vector_impl' filepath='/usr/lib/gcc/x86_64-redhat-linux/4.4.7/../../../../include/c++/4.4.7/bits/stl_vector.h' line='80' column='1' visibility='default' binding='global' size-in-bits='64'>
                <parameter type-id='type-id-351' is-artificial='yes'/>
                <return type-id='type-id-29'/>
              </function-decl>
            </member-function>
            <member-function access='public' constructor='yes'>
              <function-decl name='_Vector_impl' filepath='/usr/lib/gcc/x86_64-redhat-linux/4.4.7/../../../../include/c++/4.4.7/bits/stl_vector.h' line='84' column='1' visibility='default' binding='global' size-in-bits='64'>
                <parameter type-id='type-id-351' is-artificial='yes'/>
                <parameter type-id='type-id-251'/>
                <return type-id='type-id-29'/>
              </function-decl>
            </member-function>
          </class-decl>
        </member-type>
        <data-member access='public' layout-offset-in-bits='0'>
          <var-decl name='_M_impl' type-id='type-id-350' visibility='default' filepath='/usr/lib/gcc/x86_64-redhat-linux/4.4.7/../../../../include/c++/4.4.7/bits/stl_vector.h' line='136' column='1'/>
        </data-member>
        <member-function access='public'>
          <function-decl name='_Vector_base' filepath='/usr/lib/gcc/x86_64-redhat-linux/4.4.7/../../../../include/c++/4.4.7/bits/stl_vector.h' line='104' column='1' visibility='default' binding='global' size-in-bits='64'>
            <parameter type-id='type-id-348' is-artificial='yes'/>
            <return type-id='type-id-29'/>
          </function-decl>
        </member-function>
        <member-function access='public'>
          <function-decl name='_Vector_base' filepath='/usr/lib/gcc/x86_64-redhat-linux/4.4.7/../../../../include/c++/4.4.7/bits/stl_vector.h' line='107' column='1' visibility='default' binding='global' size-in-bits='64'>
            <parameter type-id='type-id-348' is-artificial='yes'/>
            <parameter type-id='type-id-251'/>
            <return type-id='type-id-29'/>
          </function-decl>
        </member-function>
        <member-function access='public'>
          <function-decl name='_Vector_base' filepath='/usr/lib/gcc/x86_64-redhat-linux/4.4.7/../../../../include/c++/4.4.7/bits/stl_vector.h' line='110' column='1' visibility='default' binding='global' size-in-bits='64'>
            <parameter type-id='type-id-348' is-artificial='yes'/>
            <parameter type-id='type-id-4'/>
            <parameter type-id='type-id-251'/>
            <return type-id='type-id-29'/>
          </function-decl>
        </member-function>
        <member-function access='public' destructor='yes'>
          <function-decl name='~_Vector_base' filepath='/usr/lib/gcc/x86_64-redhat-linux/4.4.7/../../../../include/c++/4.4.7/bits/stl_vector.h' line='131' column='1' visibility='default' binding='global' size-in-bits='64'>
            <parameter type-id='type-id-348' is-artificial='yes'/>
            <parameter type-id='type-id-19' is-artificial='yes'/>
            <return type-id='type-id-29'/>
          </function-decl>
        </member-function>
      </class-decl>
      <typedef-decl name='string' type-id='type-id-258' filepath='/usr/lib/gcc/x86_64-redhat-linux/4.4.7/../../../../include/c++/4.4.7/bits/stringfwd.h' line='56' column='1' id='type-id-274'/>
      <class-decl name='__miter_base&lt;unsigned char*, false&gt;' size-in-bits='8' is-struct='yes' visibility='default' filepath='/usr/lib/gcc/x86_64-redhat-linux/4.4.7/../../../../include/c++/4.4.7/bits/stl_algobase.h' line='285' column='1' id='type-id-470'/>
      <class-decl name='_Destroy_aux&lt;true&gt;' size-in-bits='8' is-struct='yes' visibility='default' filepath='/usr/lib/gcc/x86_64-redhat-linux/4.4.7/../../../../include/c++/4.4.7/bits/stl_construct.h' line='106' column='1' id='type-id-471'>
        <member-function access='public' static='yes'>
          <function-decl name='__destroy&lt;long long int*&gt;' filepath='/usr/lib/gcc/x86_64-redhat-linux/4.4.7/../../../../include/c++/4.4.7/bits/stl_construct.h' line='109' column='1' visibility='default' binding='global' size-in-bits='64'>
            <parameter type-id='type-id-340'/>
            <parameter type-id='type-id-340'/>
            <return type-id='type-id-29'/>
          </function-decl>
        </member-function>
        <member-function access='public' static='yes'>
          <function-decl name='__destroy&lt;unsigned char*&gt;' filepath='/usr/lib/gcc/x86_64-redhat-linux/4.4.7/../../../../include/c++/4.4.7/bits/stl_construct.h' line='109' column='1' visibility='default' binding='global' size-in-bits='64'>
            <parameter type-id='type-id-89'/>
            <parameter type-id='type-id-89'/>
            <return type-id='type-id-29'/>
          </function-decl>
        </member-function>
        <member-function access='public' static='yes'>
          <function-decl name='__destroy&lt;int*&gt;' filepath='/usr/lib/gcc/x86_64-redhat-linux/4.4.7/../../../../include/c++/4.4.7/bits/stl_construct.h' line='109' column='1' visibility='default' binding='global' size-in-bits='64'>
            <parameter type-id='type-id-90'/>
            <parameter type-id='type-id-90'/>
            <return type-id='type-id-29'/>
          </function-decl>
        </member-function>
        <member-function access='public' static='yes'>
          <function-decl name='__destroy&lt;vtkMultiProcessController::vtkInternal::vtkRMICallback*&gt;' filepath='/usr/lib/gcc/x86_64-redhat-linux/4.4.7/../../../../include/c++/4.4.7/bits/stl_construct.h' line='109' column='1' visibility='default' binding='global' size-in-bits='64'>
            <parameter type-id='type-id-460'/>
            <parameter type-id='type-id-460'/>
            <return type-id='type-id-29'/>
          </function-decl>
        </member-function>
        <member-function access='public' static='yes'>
          <function-decl name='__destroy&lt;vtksys::_Hashtable_node&lt;std::pair&lt;const int, void (*)(vtkMultiProcessController*, void*)&gt; &gt;**&gt;' filepath='/usr/lib/gcc/x86_64-redhat-linux/4.4.7/../../../../include/c++/4.4.7/bits/stl_construct.h' line='109' column='1' visibility='default' binding='global' size-in-bits='64'>
            <parameter type-id='type-id-462'/>
            <parameter type-id='type-id-462'/>
            <return type-id='type-id-29'/>
          </function-decl>
        </member-function>
        <member-function access='public' static='yes'>
          <function-decl name='__destroy&lt;vtksys::_Hashtable_node&lt;std::pair&lt;const int, void*&gt; &gt;**&gt;' filepath='/usr/lib/gcc/x86_64-redhat-linux/4.4.7/../../../../include/c++/4.4.7/bits/stl_construct.h' line='109' column='1' visibility='default' binding='global' size-in-bits='64'>
            <parameter type-id='type-id-464'/>
            <parameter type-id='type-id-464'/>
            <return type-id='type-id-29'/>
          </function-decl>
        </member-function>
        <member-function access='public' static='yes'>
          <function-decl name='__destroy&lt;vtksys::_Hashtable_node&lt;std::pair&lt;const int, std::vector&lt;vtkMultiProcessController::vtkInternal::vtkRMICallback, std::allocator&lt;vtkMultiProcessController::vtkInternal::vtkRMICallback&gt; &gt; &gt; &gt;**&gt;' filepath='/usr/lib/gcc/x86_64-redhat-linux/4.4.7/../../../../include/c++/4.4.7/bits/stl_construct.h' line='109' column='1' visibility='default' binding='global' size-in-bits='64'>
            <parameter type-id='type-id-466'/>
            <parameter type-id='type-id-466'/>
            <return type-id='type-id-29'/>
          </function-decl>
        </member-function>
        <member-function access='public' static='yes'>
          <function-decl name='__destroy&lt;std::_Deque_iterator&lt;unsigned char, unsigned char&amp;, unsigned char*&gt; &gt;' filepath='/usr/lib/gcc/x86_64-redhat-linux/4.4.7/../../../../include/c++/4.4.7/bits/stl_construct.h' line='109' column='1' visibility='default' binding='global' size-in-bits='64'>
            <parameter type-id='type-id-472'/>
            <parameter type-id='type-id-472'/>
            <return type-id='type-id-29'/>
          </function-decl>
        </member-function>
        <member-function access='public' static='yes'>
          <function-decl name='__destroy&lt;char*&gt;' filepath='/usr/lib/gcc/x86_64-redhat-linux/4.4.7/../../../../include/c++/4.4.7/bits/stl_construct.h' line='109' column='1' visibility='default' binding='global' size-in-bits='64'>
            <parameter type-id='type-id-34'/>
            <parameter type-id='type-id-34'/>
            <return type-id='type-id-29'/>
          </function-decl>
        </member-function>
      </class-decl>
      <class-decl name='_Vector_base&lt;long long int, std::allocator&lt;long long int&gt; &gt;' size-in-bits='192' is-struct='yes' visibility='default' filepath='/usr/lib/gcc/x86_64-redhat-linux/4.4.7/../../../../include/c++/4.4.7/bits/stl_vector.h' line='70' column='1' id='type-id-225'>
        <member-type access='public'>
          <class-decl name='_Vector_impl' size-in-bits='192' is-struct='yes' visibility='default' filepath='/usr/lib/gcc/x86_64-redhat-linux/4.4.7/../../../../include/c++/4.4.7/bits/stl_vector.h' line='75' column='1' id='type-id-346'>
            <base-class access='public' layout-offset-in-bits='0' type-id='type-id-246'/>
            <data-member access='public' layout-offset-in-bits='0'>
              <var-decl name='_M_start' type-id='type-id-340' visibility='default' filepath='/usr/lib/gcc/x86_64-redhat-linux/4.4.7/../../../../include/c++/4.4.7/bits/stl_vector.h' line='76' column='1'/>
            </data-member>
            <data-member access='public' layout-offset-in-bits='64'>
              <var-decl name='_M_finish' type-id='type-id-340' visibility='default' filepath='/usr/lib/gcc/x86_64-redhat-linux/4.4.7/../../../../include/c++/4.4.7/bits/stl_vector.h' line='77' column='1'/>
            </data-member>
            <data-member access='public' layout-offset-in-bits='128'>
              <var-decl name='_M_end_of_storage' type-id='type-id-340' visibility='default' filepath='/usr/lib/gcc/x86_64-redhat-linux/4.4.7/../../../../include/c++/4.4.7/bits/stl_vector.h' line='78' column='1'/>
            </data-member>
            <member-function access='public' constructor='yes'>
              <function-decl name='_Vector_impl' filepath='/usr/lib/gcc/x86_64-redhat-linux/4.4.7/../../../../include/c++/4.4.7/bits/stl_vector.h' line='80' column='1' visibility='default' binding='global' size-in-bits='64'>
                <parameter type-id='type-id-347' is-artificial='yes'/>
                <return type-id='type-id-29'/>
              </function-decl>
            </member-function>
            <member-function access='public' constructor='yes'>
              <function-decl name='_Vector_impl' filepath='/usr/lib/gcc/x86_64-redhat-linux/4.4.7/../../../../include/c++/4.4.7/bits/stl_vector.h' line='84' column='1' visibility='default' binding='global' size-in-bits='64'>
                <parameter type-id='type-id-347' is-artificial='yes'/>
                <parameter type-id='type-id-248'/>
                <return type-id='type-id-29'/>
              </function-decl>
            </member-function>
          </class-decl>
        </member-type>
        <data-member access='public' layout-offset-in-bits='0'>
          <var-decl name='_M_impl' type-id='type-id-346' visibility='default' filepath='/usr/lib/gcc/x86_64-redhat-linux/4.4.7/../../../../include/c++/4.4.7/bits/stl_vector.h' line='136' column='1'/>
        </data-member>
        <member-function access='public'>
          <function-decl name='_Vector_base' filepath='/usr/lib/gcc/x86_64-redhat-linux/4.4.7/../../../../include/c++/4.4.7/bits/stl_vector.h' line='104' column='1' visibility='default' binding='global' size-in-bits='64'>
            <parameter type-id='type-id-344' is-artificial='yes'/>
            <return type-id='type-id-29'/>
          </function-decl>
        </member-function>
        <member-function access='public'>
          <function-decl name='_Vector_base' filepath='/usr/lib/gcc/x86_64-redhat-linux/4.4.7/../../../../include/c++/4.4.7/bits/stl_vector.h' line='107' column='1' visibility='default' binding='global' size-in-bits='64'>
            <parameter type-id='type-id-344' is-artificial='yes'/>
            <parameter type-id='type-id-248'/>
            <return type-id='type-id-29'/>
          </function-decl>
        </member-function>
        <member-function access='public'>
          <function-decl name='_Vector_base' filepath='/usr/lib/gcc/x86_64-redhat-linux/4.4.7/../../../../include/c++/4.4.7/bits/stl_vector.h' line='110' column='1' visibility='default' binding='global' size-in-bits='64'>
            <parameter type-id='type-id-344' is-artificial='yes'/>
            <parameter type-id='type-id-4'/>
            <parameter type-id='type-id-248'/>
            <return type-id='type-id-29'/>
          </function-decl>
        </member-function>
        <member-function access='public' destructor='yes'>
          <function-decl name='~_Vector_base' filepath='/usr/lib/gcc/x86_64-redhat-linux/4.4.7/../../../../include/c++/4.4.7/bits/stl_vector.h' line='131' column='1' visibility='default' binding='global' size-in-bits='64'>
            <parameter type-id='type-id-344' is-artificial='yes'/>
            <parameter type-id='type-id-19' is-artificial='yes'/>
            <return type-id='type-id-29'/>
          </function-decl>
        </member-function>
      </class-decl>
      <class-decl name='__uninitialized_fill_n&lt;true&gt;' size-in-bits='8' is-struct='yes' visibility='default' filepath='/usr/lib/gcc/x86_64-redhat-linux/4.4.7/../../../../include/c++/4.4.7/bits/stl_uninitialized.h' line='198' column='1' id='type-id-473'>
        <member-function access='public' static='yes'>
          <function-decl name='uninitialized_fill_n&lt;long long int*, long unsigned int, long long int&gt;' filepath='/usr/lib/gcc/x86_64-redhat-linux/4.4.7/../../../../include/c++/4.4.7/bits/stl_uninitialized.h' line='201' column='1' visibility='default' binding='global' size-in-bits='64'>
            <parameter type-id='type-id-340'/>
            <parameter type-id='type-id-4'/>
            <parameter type-id='type-id-214'/>
            <return type-id='type-id-29'/>
          </function-decl>
        </member-function>
        <member-function access='public' static='yes'>
          <function-decl name='uninitialized_fill_n&lt;unsigned char*, long unsigned int, unsigned char&gt;' filepath='/usr/lib/gcc/x86_64-redhat-linux/4.4.7/../../../../include/c++/4.4.7/bits/stl_uninitialized.h' line='201' column='1' visibility='default' binding='global' size-in-bits='64'>
            <parameter type-id='type-id-89'/>
            <parameter type-id='type-id-4'/>
            <parameter type-id='type-id-290'/>
            <return type-id='type-id-29'/>
          </function-decl>
        </member-function>
        <member-function access='public' static='yes'>
          <function-decl name='uninitialized_fill_n&lt;int*, long unsigned int, int&gt;' filepath='/usr/lib/gcc/x86_64-redhat-linux/4.4.7/../../../../include/c++/4.4.7/bits/stl_uninitialized.h' line='201' column='1' visibility='default' binding='global' size-in-bits='64'>
            <parameter type-id='type-id-90'/>
            <parameter type-id='type-id-4'/>
            <parameter type-id='type-id-474'/>
            <return type-id='type-id-29'/>
          </function-decl>
        </member-function>
        <member-function access='public' static='yes'>
          <function-decl name='uninitialized_fill_n&lt;vtksys::_Hashtable_node&lt;std::pair&lt;const int, void (*)(vtkMultiProcessController*, void*)&gt; &gt;**, long unsigned int, vtksys::_Hashtable_node&lt;std::pair&lt;const int, void (*)(vtkMultiProcessController*, void*)&gt; &gt;*&gt;' filepath='/usr/lib/gcc/x86_64-redhat-linux/4.4.7/../../../../include/c++/4.4.7/bits/stl_uninitialized.h' line='201' column='1' visibility='default' binding='global' size-in-bits='64'>
            <parameter type-id='type-id-462'/>
            <parameter type-id='type-id-4'/>
            <parameter type-id='type-id-475'/>
            <return type-id='type-id-29'/>
          </function-decl>
        </member-function>
        <member-function access='public' static='yes'>
          <function-decl name='uninitialized_fill_n&lt;vtksys::_Hashtable_node&lt;std::pair&lt;const int, void*&gt; &gt;**, long unsigned int, vtksys::_Hashtable_node&lt;std::pair&lt;const int, void*&gt; &gt;*&gt;' filepath='/usr/lib/gcc/x86_64-redhat-linux/4.4.7/../../../../include/c++/4.4.7/bits/stl_uninitialized.h' line='201' column='1' visibility='default' binding='global' size-in-bits='64'>
            <parameter type-id='type-id-464'/>
            <parameter type-id='type-id-4'/>
            <parameter type-id='type-id-476'/>
            <return type-id='type-id-29'/>
          </function-decl>
        </member-function>
        <member-function access='public' static='yes'>
          <function-decl name='uninitialized_fill_n&lt;vtksys::_Hashtable_node&lt;std::pair&lt;const int, std::vector&lt;vtkMultiProcessController::vtkInternal::vtkRMICallback, std::allocator&lt;vtkMultiProcessController::vtkInternal::vtkRMICallback&gt; &gt; &gt; &gt;**, long unsigned int, vtksys::_Hashtable_node&lt;std::pair&lt;const int, std::vector&lt;vtkMultiProcessController::vtkInternal::vtkRMICallback, std::allocator&lt;vtkMultiProcessController::vtkInternal::vtkRMICallback&gt; &gt; &gt; &gt;*&gt;' filepath='/usr/lib/gcc/x86_64-redhat-linux/4.4.7/../../../../include/c++/4.4.7/bits/stl_uninitialized.h' line='201' column='1' visibility='default' binding='global' size-in-bits='64'>
            <parameter type-id='type-id-466'/>
            <parameter type-id='type-id-4'/>
            <parameter type-id='type-id-477'/>
            <return type-id='type-id-29'/>
          </function-decl>
        </member-function>
      </class-decl>
      <class-decl name='__copy_move&lt;false, true, std::random_access_iterator_tag&gt;' size-in-bits='8' is-struct='yes' visibility='default' filepath='/usr/lib/gcc/x86_64-redhat-linux/4.4.7/../../../../include/c++/4.4.7/bits/stl_algobase.h' line='307' column='1' id='type-id-478'>
        <member-function access='public' static='yes'>
          <function-decl name='__copy_m&lt;vtkCommunicator::ReduceVoidArray::VTK_TT&gt;' filepath='/usr/lib/gcc/x86_64-redhat-linux/4.4.7/../../../../include/c++/4.4.7/bits/stl_algobase.h' line='376' column='1' visibility='default' binding='global' size-in-bits='64'>
            <parameter type-id='type-id-242'/>
            <parameter type-id='type-id-242'/>
            <parameter type-id='type-id-357'/>
            <return type-id='type-id-357'/>
          </function-decl>
        </member-function>
        <member-function access='public' static='yes'>
          <function-decl name='__copy_m&lt;std::_Bit_type&gt;' filepath='/usr/lib/gcc/x86_64-redhat-linux/4.4.7/../../../../include/c++/4.4.7/bits/stl_algobase.h' line='376' column='1' visibility='default' binding='global' size-in-bits='64'>
            <parameter type-id='type-id-479'/>
            <parameter type-id='type-id-479'/>
            <parameter type-id='type-id-343'/>
            <return type-id='type-id-343'/>
          </function-decl>
        </member-function>
        <member-function access='public' static='yes'>
          <function-decl name='__copy_m&lt;vtksys::_Hashtable_node&lt;std::pair&lt;const int, void (*)(vtkMultiProcessController*, void*)&gt; &gt;*&gt;' filepath='/usr/lib/gcc/x86_64-redhat-linux/4.4.7/../../../../include/c++/4.4.7/bits/stl_algobase.h' line='376' column='1' visibility='default' binding='global' size-in-bits='64'>
            <parameter type-id='type-id-461'/>
            <parameter type-id='type-id-461'/>
            <parameter type-id='type-id-462'/>
            <return type-id='type-id-462'/>
          </function-decl>
        </member-function>
        <member-function access='public' static='yes'>
          <function-decl name='__copy_m&lt;vtksys::_Hashtable_node&lt;std::pair&lt;const int, void*&gt; &gt;*&gt;' filepath='/usr/lib/gcc/x86_64-redhat-linux/4.4.7/../../../../include/c++/4.4.7/bits/stl_algobase.h' line='376' column='1' visibility='default' binding='global' size-in-bits='64'>
            <parameter type-id='type-id-463'/>
            <parameter type-id='type-id-463'/>
            <parameter type-id='type-id-464'/>
            <return type-id='type-id-464'/>
          </function-decl>
        </member-function>
        <member-function access='public' static='yes'>
          <function-decl name='__copy_m&lt;vtksys::_Hashtable_node&lt;std::pair&lt;const int, std::vector&lt;vtkMultiProcessController::vtkInternal::vtkRMICallback, std::allocator&lt;vtkMultiProcessController::vtkInternal::vtkRMICallback&gt; &gt; &gt; &gt;*&gt;' filepath='/usr/lib/gcc/x86_64-redhat-linux/4.4.7/../../../../include/c++/4.4.7/bits/stl_algobase.h' line='376' column='1' visibility='default' binding='global' size-in-bits='64'>
            <parameter type-id='type-id-465'/>
            <parameter type-id='type-id-465'/>
            <parameter type-id='type-id-466'/>
            <return type-id='type-id-466'/>
          </function-decl>
        </member-function>
        <member-function access='public' static='yes'>
          <function-decl name='__copy_m&lt;vtkMultiProcessController::vtkInternal::vtkRMICallback&gt;' filepath='/usr/lib/gcc/x86_64-redhat-linux/4.4.7/../../../../include/c++/4.4.7/bits/stl_algobase.h' line='376' column='1' visibility='default' binding='global' size-in-bits='64'>
            <parameter type-id='type-id-459'/>
            <parameter type-id='type-id-459'/>
            <parameter type-id='type-id-460'/>
            <return type-id='type-id-460'/>
          </function-decl>
        </member-function>
        <member-function access='public' static='yes'>
          <function-decl name='__copy_m&lt;unsigned char*&gt;' filepath='/usr/lib/gcc/x86_64-redhat-linux/4.4.7/../../../../include/c++/4.4.7/bits/stl_algobase.h' line='376' column='1' visibility='default' binding='global' size-in-bits='64'>
            <parameter type-id='type-id-467'/>
            <parameter type-id='type-id-467'/>
            <parameter type-id='type-id-468'/>
            <return type-id='type-id-468'/>
          </function-decl>
        </member-function>
        <member-function access='public' static='yes'>
          <function-decl name='__copy_m&lt;unsigned char&gt;' filepath='/usr/lib/gcc/x86_64-redhat-linux/4.4.7/../../../../include/c++/4.4.7/bits/stl_algobase.h' line='376' column='1' visibility='default' binding='global' size-in-bits='64'>
            <parameter type-id='type-id-86'/>
            <parameter type-id='type-id-86'/>
            <parameter type-id='type-id-89'/>
            <return type-id='type-id-89'/>
          </function-decl>
        </member-function>
        <member-function access='public' static='yes'>
          <function-decl name='__copy_m&lt;int&gt;' filepath='/usr/lib/gcc/x86_64-redhat-linux/4.4.7/../../../../include/c++/4.4.7/bits/stl_algobase.h' line='376' column='1' visibility='default' binding='global' size-in-bits='64'>
            <parameter type-id='type-id-212'/>
            <parameter type-id='type-id-212'/>
            <parameter type-id='type-id-90'/>
            <return type-id='type-id-90'/>
          </function-decl>
        </member-function>
        <member-function access='public' static='yes'>
          <function-decl name='__copy_m&lt;char&gt;' filepath='/usr/lib/gcc/x86_64-redhat-linux/4.4.7/../../../../include/c++/4.4.7/bits/stl_algobase.h' line='376' column='1' visibility='default' binding='global' size-in-bits='64'>
            <parameter type-id='type-id-102'/>
            <parameter type-id='type-id-102'/>
            <parameter type-id='type-id-34'/>
            <return type-id='type-id-34'/>
          </function-decl>
        </member-function>
      </class-decl>
      <class-decl name='__uninitialized_copy&lt;true&gt;' size-in-bits='8' is-struct='yes' visibility='default' filepath='/usr/lib/gcc/x86_64-redhat-linux/4.4.7/../../../../include/c++/4.4.7/bits/stl_uninitialized.h' line='87' column='1' id='type-id-480'>
        <member-function access='public' static='yes'>
          <function-decl name='uninitialized_copy&lt;unsigned char*, unsigned char*&gt;' filepath='/usr/lib/gcc/x86_64-redhat-linux/4.4.7/../../../../include/c++/4.4.7/bits/stl_uninitialized.h' line='90' column='1' visibility='default' binding='global' size-in-bits='64'>
            <parameter type-id='type-id-89'/>
            <parameter type-id='type-id-89'/>
            <parameter type-id='type-id-89'/>
            <return type-id='type-id-89'/>
          </function-decl>
        </member-function>
        <member-function access='public' static='yes'>
          <function-decl name='uninitialized_copy&lt;vtkMultiProcessController::vtkInternal::vtkRMICallback*, vtkMultiProcessController::vtkInternal::vtkRMICallback*&gt;' filepath='/usr/lib/gcc/x86_64-redhat-linux/4.4.7/../../../../include/c++/4.4.7/bits/stl_uninitialized.h' line='90' column='1' visibility='default' binding='global' size-in-bits='64'>
            <parameter type-id='type-id-460'/>
            <parameter type-id='type-id-460'/>
            <parameter type-id='type-id-460'/>
            <return type-id='type-id-460'/>
          </function-decl>
        </member-function>
        <member-function access='public' static='yes'>
          <function-decl name='uninitialized_copy&lt;__gnu_cxx::__normal_iterator&lt;const vtkMultiProcessController::vtkInternal::vtkRMICallback*, std::vector&lt;vtkMultiProcessController::vtkInternal::vtkRMICallback, std::allocator&lt;vtkMultiProcessController::vtkInternal::vtkRMICallback&gt; &gt; &gt;, vtkMultiProcessController::vtkInternal::vtkRMICallback*&gt;' filepath='/usr/lib/gcc/x86_64-redhat-linux/4.4.7/../../../../include/c++/4.4.7/bits/stl_uninitialized.h' line='90' column='1' visibility='default' binding='global' size-in-bits='64'>
            <parameter type-id='type-id-481'/>
            <parameter type-id='type-id-481'/>
            <parameter type-id='type-id-460'/>
            <return type-id='type-id-460'/>
          </function-decl>
        </member-function>
        <member-function access='public' static='yes'>
          <function-decl name='uninitialized_copy&lt;vtksys::_Hashtable_node&lt;std::pair&lt;const int, void (*)(vtkMultiProcessController*, void*)&gt; &gt;**, vtksys::_Hashtable_node&lt;std::pair&lt;const int, void (*)(vtkMultiProcessController*, void*)&gt; &gt;**&gt;' filepath='/usr/lib/gcc/x86_64-redhat-linux/4.4.7/../../../../include/c++/4.4.7/bits/stl_uninitialized.h' line='90' column='1' visibility='default' binding='global' size-in-bits='64'>
            <parameter type-id='type-id-462'/>
            <parameter type-id='type-id-462'/>
            <parameter type-id='type-id-462'/>
            <return type-id='type-id-462'/>
          </function-decl>
        </member-function>
        <member-function access='public' static='yes'>
          <function-decl name='uninitialized_copy&lt;vtksys::_Hashtable_node&lt;std::pair&lt;const int, void*&gt; &gt;**, vtksys::_Hashtable_node&lt;std::pair&lt;const int, void*&gt; &gt;**&gt;' filepath='/usr/lib/gcc/x86_64-redhat-linux/4.4.7/../../../../include/c++/4.4.7/bits/stl_uninitialized.h' line='90' column='1' visibility='default' binding='global' size-in-bits='64'>
            <parameter type-id='type-id-464'/>
            <parameter type-id='type-id-464'/>
            <parameter type-id='type-id-464'/>
            <return type-id='type-id-464'/>
          </function-decl>
        </member-function>
        <member-function access='public' static='yes'>
          <function-decl name='uninitialized_copy&lt;vtksys::_Hashtable_node&lt;std::pair&lt;const int, std::vector&lt;vtkMultiProcessController::vtkInternal::vtkRMICallback, std::allocator&lt;vtkMultiProcessController::vtkInternal::vtkRMICallback&gt; &gt; &gt; &gt;**, vtksys::_Hashtable_node&lt;std::pair&lt;const int, std::vector&lt;vtkMultiProcessController::vtkInternal::vtkRMICallback, std::allocator&lt;vtkMultiProcessController::vtkInternal::vtkRMICallback&gt; &gt; &gt; &gt;**&gt;' filepath='/usr/lib/gcc/x86_64-redhat-linux/4.4.7/../../../../include/c++/4.4.7/bits/stl_uninitialized.h' line='90' column='1' visibility='default' binding='global' size-in-bits='64'>
            <parameter type-id='type-id-466'/>
            <parameter type-id='type-id-466'/>
            <parameter type-id='type-id-466'/>
            <return type-id='type-id-466'/>
          </function-decl>
        </member-function>
        <member-function access='public' static='yes'>
          <function-decl name='uninitialized_copy&lt;std::_Deque_iterator&lt;unsigned char, const unsigned char&amp;, const unsigned char*&gt;, std::_Deque_iterator&lt;unsigned char, unsigned char&amp;, unsigned char*&gt; &gt;' filepath='/usr/lib/gcc/x86_64-redhat-linux/4.4.7/../../../../include/c++/4.4.7/bits/stl_uninitialized.h' line='90' column='1' visibility='default' binding='global' size-in-bits='64'>
            <parameter type-id='type-id-482'/>
            <parameter type-id='type-id-482'/>
            <parameter type-id='type-id-472'/>
            <return type-id='type-id-472'/>
          </function-decl>
        </member-function>
        <member-function access='public' static='yes'>
          <function-decl name='uninitialized_copy&lt;std::_Deque_iterator&lt;unsigned char, unsigned char&amp;, unsigned char*&gt;, std::_Deque_iterator&lt;unsigned char, unsigned char&amp;, unsigned char*&gt; &gt;' filepath='/usr/lib/gcc/x86_64-redhat-linux/4.4.7/../../../../include/c++/4.4.7/bits/stl_uninitialized.h' line='90' column='1' visibility='default' binding='global' size-in-bits='64'>
            <parameter type-id='type-id-472'/>
            <parameter type-id='type-id-472'/>
            <parameter type-id='type-id-472'/>
            <return type-id='type-id-472'/>
          </function-decl>
        </member-function>
        <member-function access='public' static='yes'>
          <function-decl name='uninitialized_copy&lt;__gnu_cxx::__normal_iterator&lt;const char*, std::vector&lt;char, std::allocator&lt;char&gt; &gt; &gt;, char*&gt;' filepath='/usr/lib/gcc/x86_64-redhat-linux/4.4.7/../../../../include/c++/4.4.7/bits/stl_uninitialized.h' line='90' column='1' visibility='default' binding='global' size-in-bits='64'>
            <parameter type-id='type-id-483'/>
            <parameter type-id='type-id-483'/>
            <parameter type-id='type-id-34'/>
            <return type-id='type-id-34'/>
          </function-decl>
        </member-function>
        <member-function access='public' static='yes'>
          <function-decl name='uninitialized_copy&lt;char*, char*&gt;' filepath='/usr/lib/gcc/x86_64-redhat-linux/4.4.7/../../../../include/c++/4.4.7/bits/stl_uninitialized.h' line='90' column='1' visibility='default' binding='global' size-in-bits='64'>
            <parameter type-id='type-id-34'/>
            <parameter type-id='type-id-34'/>
            <parameter type-id='type-id-34'/>
            <return type-id='type-id-34'/>
          </function-decl>
        </member-function>
        <member-function access='public' static='yes'>
          <function-decl name='uninitialized_copy&lt;int*, int*&gt;' filepath='/usr/lib/gcc/x86_64-redhat-linux/4.4.7/../../../../include/c++/4.4.7/bits/stl_uninitialized.h' line='90' column='1' visibility='default' binding='global' size-in-bits='64'>
            <parameter type-id='type-id-90'/>
            <parameter type-id='type-id-90'/>
            <parameter type-id='type-id-90'/>
            <return type-id='type-id-90'/>
          </function-decl>
        </member-function>
      </class-decl>
      <class-decl name='__niter_base&lt;vtkCommunicator::ReduceVoidArray::VTK_TT*, false&gt;' size-in-bits='8' is-struct='yes' visibility='default' filepath='/usr/lib/gcc/x86_64-redhat-linux/4.4.7/../../../../include/c++/4.4.7/bits/stl_algobase.h' line='267' column='1' id='type-id-484'/>
      <class-decl name='__niter_base&lt;const vtkCommunicator::ReduceVoidArray::VTK_TT*, false&gt;' size-in-bits='8' is-struct='yes' visibility='default' filepath='/usr/lib/gcc/x86_64-redhat-linux/4.4.7/../../../../include/c++/4.4.7/bits/stl_algobase.h' line='267' column='1' id='type-id-485'/>
      <class-decl name='__miter_base&lt;const vtkCommunicator::ReduceVoidArray::VTK_TT*, false&gt;' size-in-bits='8' is-struct='yes' visibility='default' filepath='/usr/lib/gcc/x86_64-redhat-linux/4.4.7/../../../../include/c++/4.4.7/bits/stl_algobase.h' line='285' column='1' id='type-id-486'>
        <member-type access='public'>
          <typedef-decl name='VTK_TT' type-id='type-id-22' filepath='/tmp/legendre/spack-stage/spack-stage-R_crTC/VTK-6.1.0/Parallel/Core/vtkCommunicator.cxx' line='1342' column='1' id='type-id-239'/>
        </member-type>
      </class-decl>
      <class-decl name='__niter_base&lt;std::_Bit_type*, false&gt;' size-in-bits='8' is-struct='yes' visibility='default' filepath='/usr/lib/gcc/x86_64-redhat-linux/4.4.7/../../../../include/c++/4.4.7/bits/stl_algobase.h' line='267' column='1' id='type-id-487'/>
      <class-decl name='vector&lt;long long int, std::allocator&lt;long long int&gt; &gt;' size-in-bits='192' visibility='default' filepath='/usr/lib/gcc/x86_64-redhat-linux/4.4.7/../../../../include/c++/4.4.7/bits/stl_vector.h' line='171' column='1' id='type-id-277'>
        <base-class access='protected' layout-offset-in-bits='0' type-id='type-id-225'/>
        <member-function access='private'>
          <function-decl name='vector' filepath='/usr/lib/gcc/x86_64-redhat-linux/4.4.7/../../../../include/c++/4.4.7/bits/stl_vector.h' line='207' column='1' visibility='default' binding='global' size-in-bits='64'>
            <parameter type-id='type-id-387' is-artificial='yes'/>
            <return type-id='type-id-29'/>
          </function-decl>
        </member-function>
        <member-function access='private'>
          <function-decl name='vector' filepath='/usr/lib/gcc/x86_64-redhat-linux/4.4.7/../../../../include/c++/4.4.7/bits/stl_vector.h' line='215' column='1' visibility='default' binding='global' size-in-bits='64'>
            <parameter type-id='type-id-387' is-artificial='yes'/>
            <parameter type-id='type-id-248'/>
            <return type-id='type-id-29'/>
          </function-decl>
        </member-function>
        <member-function access='private'>
          <function-decl name='vector' filepath='/usr/lib/gcc/x86_64-redhat-linux/4.4.7/../../../../include/c++/4.4.7/bits/stl_vector.h' line='227' column='1' visibility='default' binding='global' size-in-bits='64'>
            <parameter type-id='type-id-387' is-artificial='yes'/>
            <parameter type-id='type-id-4'/>
            <parameter type-id='type-id-214'/>
            <parameter type-id='type-id-248'/>
            <return type-id='type-id-29'/>
          </function-decl>
        </member-function>
        <member-function access='private'>
          <function-decl name='vector' filepath='/usr/lib/gcc/x86_64-redhat-linux/4.4.7/../../../../include/c++/4.4.7/bits/stl_vector.h' line='241' column='1' visibility='default' binding='global' size-in-bits='64'>
            <parameter type-id='type-id-387' is-artificial='yes'/>
            <parameter type-id='type-id-279'/>
            <return type-id='type-id-29'/>
          </function-decl>
        </member-function>
        <member-function access='private' destructor='yes'>
          <function-decl name='~vector' filepath='/usr/lib/gcc/x86_64-redhat-linux/4.4.7/../../../../include/c++/4.4.7/bits/stl_vector.h' line='312' column='1' visibility='default' binding='global' size-in-bits='64'>
            <parameter type-id='type-id-387' is-artificial='yes'/>
            <parameter type-id='type-id-19' is-artificial='yes'/>
            <return type-id='type-id-29'/>
          </function-decl>
        </member-function>
      </class-decl>
      <class-decl name='__basic_file&lt;char&gt;' size-in-bits='128' visibility='default' filepath='/usr/lib/gcc/x86_64-redhat-linux/4.4.7/../../../../include/c++/4.4.7/x86_64-redhat-linux/bits/basic_file.h' line='53' column='1' id='type-id-232'>
        <member-type access='private'>
          <typedef-decl name='openmode' type-id='type-id-452' filepath='/usr/lib/gcc/x86_64-redhat-linux/4.4.7/../../../../include/c++/4.4.7/bits/ios_base.h' line='369' column='1' id='type-id-235'/>
        </member-type>
        <member-type access='private'>
          <typedef-decl name='seekdir' type-id='type-id-455' filepath='/usr/lib/gcc/x86_64-redhat-linux/4.4.7/../../../../include/c++/4.4.7/bits/ios_base.h' line='401' column='1' id='type-id-237'/>
        </member-type>
        <data-member access='private' layout-offset-in-bits='0'>
          <var-decl name='_M_cfile' type-id='type-id-354' visibility='default' filepath='/usr/lib/gcc/x86_64-redhat-linux/4.4.7/../../../../include/c++/4.4.7/x86_64-redhat-linux/bits/basic_file.h' line='55' column='1'/>
        </data-member>
        <data-member access='private' layout-offset-in-bits='64'>
          <var-decl name='_M_cfile_created' type-id='type-id-1' visibility='default' filepath='/usr/lib/gcc/x86_64-redhat-linux/4.4.7/../../../../include/c++/4.4.7/x86_64-redhat-linux/bits/basic_file.h' line='58' column='1'/>
        </data-member>
        <member-function access='private'>
          <function-decl name='__basic_file' filepath='/usr/lib/gcc/x86_64-redhat-linux/4.4.7/../../../../include/c++/4.4.7/x86_64-redhat-linux/bits/basic_file.h' line='61' column='1' visibility='default' binding='global' size-in-bits='64'>
            <parameter type-id='type-id-352' is-artificial='yes'/>
            <parameter type-id='type-id-356'/>
            <return type-id='type-id-29'/>
          </function-decl>
        </member-function>
        <member-function access='private' destructor='yes'>
          <function-decl name='~__basic_file' filepath='/usr/lib/gcc/x86_64-redhat-linux/4.4.7/../../../../include/c++/4.4.7/x86_64-redhat-linux/bits/basic_file.h' line='84' column='1' visibility='default' binding='global' size-in-bits='64'>
            <parameter type-id='type-id-352' is-artificial='yes'/>
            <parameter type-id='type-id-19' is-artificial='yes'/>
            <return type-id='type-id-29'/>
          </function-decl>
        </member-function>
      </class-decl>
      <class-decl name='ios_base' visibility='default' is-declaration-only='yes' id='type-id-380'>
        <member-type access='private'>
          <class-decl name='Init' size-in-bits='8' visibility='default' filepath='/usr/lib/gcc/x86_64-redhat-linux/4.4.7/../../../../include/c++/4.4.7/bits/ios_base.h' line='538' column='1' id='type-id-382'>
            <data-member access='private' static='yes'>
              <var-decl name='_S_refcount' type-id='type-id-31' visibility='default' filepath='/usr/lib/gcc/x86_64-redhat-linux/4.4.7/../../../../include/c++/4.4.7/bits/ios_base.h' line='545' column='1'/>
            </data-member>
            <data-member access='private' static='yes'>
              <var-decl name='_S_synced_with_stdio' type-id='type-id-1' visibility='default' filepath='/usr/lib/gcc/x86_64-redhat-linux/4.4.7/../../../../include/c++/4.4.7/bits/ios_base.h' line='546' column='1'/>
            </data-member>
            <member-function access='private' constructor='yes'>
              <function-decl name='Init' filepath='/usr/lib/gcc/x86_64-redhat-linux/4.4.7/../../../../include/c++/4.4.7/bits/ios_base.h' line='541' column='1' visibility='default' binding='global' size-in-bits='64'>
                <parameter type-id='type-id-383' is-artificial='yes'/>
                <return type-id='type-id-29'/>
              </function-decl>
            </member-function>
            <member-function access='private' destructor='yes'>
              <function-decl name='~Init' filepath='/usr/lib/gcc/x86_64-redhat-linux/4.4.7/../../../../include/c++/4.4.7/bits/ios_base.h' line='542' column='1' visibility='default' binding='global' size-in-bits='64'>
                <parameter type-id='type-id-383' is-artificial='yes'/>
                <parameter type-id='type-id-19' is-artificial='yes'/>
                <return type-id='type-id-29'/>
              </function-decl>
            </member-function>
          </class-decl>
        </member-type>
        <data-member access='private' static='yes'>
          <var-decl name='boolalpha' type-id='type-id-224' visibility='default' filepath='/usr/lib/gcc/x86_64-redhat-linux/4.4.7/../../../../include/c++/4.4.7/bits/ios_base.h' line='266' column='1'/>
        </data-member>
        <data-member access='private' static='yes'>
          <var-decl name='dec' type-id='type-id-224' visibility='default' filepath='/usr/lib/gcc/x86_64-redhat-linux/4.4.7/../../../../include/c++/4.4.7/bits/ios_base.h' line='269' column='1'/>
        </data-member>
        <data-member access='private' static='yes'>
          <var-decl name='fixed' type-id='type-id-224' visibility='default' filepath='/usr/lib/gcc/x86_64-redhat-linux/4.4.7/../../../../include/c++/4.4.7/bits/ios_base.h' line='272' column='1'/>
        </data-member>
        <data-member access='private' static='yes'>
          <var-decl name='hex' type-id='type-id-224' visibility='default' filepath='/usr/lib/gcc/x86_64-redhat-linux/4.4.7/../../../../include/c++/4.4.7/bits/ios_base.h' line='275' column='1'/>
        </data-member>
        <data-member access='private' static='yes'>
          <var-decl name='internal' type-id='type-id-224' visibility='default' filepath='/usr/lib/gcc/x86_64-redhat-linux/4.4.7/../../../../include/c++/4.4.7/bits/ios_base.h' line='280' column='1'/>
        </data-member>
        <data-member access='private' static='yes'>
          <var-decl name='left' type-id='type-id-224' visibility='default' filepath='/usr/lib/gcc/x86_64-redhat-linux/4.4.7/../../../../include/c++/4.4.7/bits/ios_base.h' line='284' column='1'/>
        </data-member>
        <data-member access='private' static='yes'>
          <var-decl name='oct' type-id='type-id-224' visibility='default' filepath='/usr/lib/gcc/x86_64-redhat-linux/4.4.7/../../../../include/c++/4.4.7/bits/ios_base.h' line='287' column='1'/>
        </data-member>
        <data-member access='private' static='yes'>
          <var-decl name='right' type-id='type-id-224' visibility='default' filepath='/usr/lib/gcc/x86_64-redhat-linux/4.4.7/../../../../include/c++/4.4.7/bits/ios_base.h' line='291' column='1'/>
        </data-member>
        <data-member access='private' static='yes'>
          <var-decl name='scientific' type-id='type-id-224' visibility='default' filepath='/usr/lib/gcc/x86_64-redhat-linux/4.4.7/../../../../include/c++/4.4.7/bits/ios_base.h' line='294' column='1'/>
        </data-member>
        <data-member access='private' static='yes'>
          <var-decl name='showbase' type-id='type-id-224' visibility='default' filepath='/usr/lib/gcc/x86_64-redhat-linux/4.4.7/../../../../include/c++/4.4.7/bits/ios_base.h' line='298' column='1'/>
        </data-member>
        <data-member access='private' static='yes'>
          <var-decl name='showpoint' type-id='type-id-224' visibility='default' filepath='/usr/lib/gcc/x86_64-redhat-linux/4.4.7/../../../../include/c++/4.4.7/bits/ios_base.h' line='302' column='1'/>
        </data-member>
        <data-member access='private' static='yes'>
          <var-decl name='showpos' type-id='type-id-224' visibility='default' filepath='/usr/lib/gcc/x86_64-redhat-linux/4.4.7/../../../../include/c++/4.4.7/bits/ios_base.h' line='305' column='1'/>
        </data-member>
        <data-member access='private' static='yes'>
          <var-decl name='skipws' type-id='type-id-224' visibility='default' filepath='/usr/lib/gcc/x86_64-redhat-linux/4.4.7/../../../../include/c++/4.4.7/bits/ios_base.h' line='308' column='1'/>
        </data-member>
        <data-member access='private' static='yes'>
          <var-decl name='unitbuf' type-id='type-id-224' visibility='default' filepath='/usr/lib/gcc/x86_64-redhat-linux/4.4.7/../../../../include/c++/4.4.7/bits/ios_base.h' line='311' column='1'/>
        </data-member>
        <data-member access='private' static='yes'>
          <var-decl name='uppercase' type-id='type-id-224' visibility='default' filepath='/usr/lib/gcc/x86_64-redhat-linux/4.4.7/../../../../include/c++/4.4.7/bits/ios_base.h' line='315' column='1'/>
        </data-member>
        <data-member access='private' static='yes'>
          <var-decl name='adjustfield' type-id='type-id-224' visibility='default' filepath='/usr/lib/gcc/x86_64-redhat-linux/4.4.7/../../../../include/c++/4.4.7/bits/ios_base.h' line='318' column='1'/>
        </data-member>
        <data-member access='private' static='yes'>
          <var-decl name='basefield' type-id='type-id-224' visibility='default' filepath='/usr/lib/gcc/x86_64-redhat-linux/4.4.7/../../../../include/c++/4.4.7/bits/ios_base.h' line='321' column='1'/>
        </data-member>
        <data-member access='private' static='yes'>
          <var-decl name='floatfield' type-id='type-id-224' visibility='default' filepath='/usr/lib/gcc/x86_64-redhat-linux/4.4.7/../../../../include/c++/4.4.7/bits/ios_base.h' line='324' column='1'/>
        </data-member>
        <data-member access='private' static='yes'>
          <var-decl name='badbit' type-id='type-id-257' visibility='default' filepath='/usr/lib/gcc/x86_64-redhat-linux/4.4.7/../../../../include/c++/4.4.7/bits/ios_base.h' line='342' column='1'/>
        </data-member>
        <data-member access='private' static='yes'>
          <var-decl name='eofbit' type-id='type-id-257' visibility='default' filepath='/usr/lib/gcc/x86_64-redhat-linux/4.4.7/../../../../include/c++/4.4.7/bits/ios_base.h' line='345' column='1'/>
        </data-member>
        <data-member access='private' static='yes'>
          <var-decl name='failbit' type-id='type-id-257' visibility='default' filepath='/usr/lib/gcc/x86_64-redhat-linux/4.4.7/../../../../include/c++/4.4.7/bits/ios_base.h' line='350' column='1'/>
        </data-member>
        <data-member access='private' static='yes'>
          <var-decl name='goodbit' type-id='type-id-257' visibility='default' filepath='/usr/lib/gcc/x86_64-redhat-linux/4.4.7/../../../../include/c++/4.4.7/bits/ios_base.h' line='353' column='1'/>
        </data-member>
        <data-member access='private' static='yes'>
          <var-decl name='ate' type-id='type-id-236' visibility='default' filepath='/usr/lib/gcc/x86_64-redhat-linux/4.4.7/../../../../include/c++/4.4.7/bits/ios_base.h' line='375' column='1'/>
        </data-member>
        <data-member access='private' static='yes'>
          <var-decl name='in' type-id='type-id-236' visibility='default' filepath='/usr/lib/gcc/x86_64-redhat-linux/4.4.7/../../../../include/c++/4.4.7/bits/ios_base.h' line='383' column='1'/>
        </data-member>
        <data-member access='private' static='yes'>
          <var-decl name='out' type-id='type-id-236' visibility='default' filepath='/usr/lib/gcc/x86_64-redhat-linux/4.4.7/../../../../include/c++/4.4.7/bits/ios_base.h' line='386' column='1'/>
        </data-member>
        <data-member access='private' static='yes'>
          <var-decl name='trunc' type-id='type-id-236' visibility='default' filepath='/usr/lib/gcc/x86_64-redhat-linux/4.4.7/../../../../include/c++/4.4.7/bits/ios_base.h' line='389' column='1'/>
        </data-member>
        <data-member access='private' static='yes'>
          <var-decl name='beg' type-id='type-id-238' visibility='default' filepath='/usr/lib/gcc/x86_64-redhat-linux/4.4.7/../../../../include/c++/4.4.7/bits/ios_base.h' line='404' column='1'/>
        </data-member>
        <data-member access='private' static='yes'>
          <var-decl name='cur' type-id='type-id-238' visibility='default' filepath='/usr/lib/gcc/x86_64-redhat-linux/4.4.7/../../../../include/c++/4.4.7/bits/ios_base.h' line='407' column='1'/>
        </data-member>
        <data-member access='private' static='yes'>
          <var-decl name='end' type-id='type-id-238' visibility='default' filepath='/usr/lib/gcc/x86_64-redhat-linux/4.4.7/../../../../include/c++/4.4.7/bits/ios_base.h' line='410' column='1'/>
        </data-member>
      </class-decl>
      <class-decl name='basic_ios&lt;char, std::char_traits&lt;char&gt; &gt;' is-struct='yes' visibility='default' is-declaration-only='yes' id='type-id-252'>
        <member-type access='public'>
          <typedef-decl name='iostate' type-id='type-id-449' filepath='/usr/lib/gcc/x86_64-redhat-linux/4.4.7/../../../../include/c++/4.4.7/bits/ios_base.h' line='338' column='1' id='type-id-256'/>
        </member-type>
        <member-function access='protected'>
          <function-decl name='basic_ios' filepath='/usr/lib/gcc/x86_64-redhat-linux/4.4.7/../../../../include/c++/4.4.7/bits/basic_ios.h' line='450' column='1' visibility='default' binding='global' size-in-bits='64'>
            <parameter type-id='type-id-363' is-artificial='yes'/>
            <return type-id='type-id-29'/>
          </function-decl>
        </member-function>
      </class-decl>
      <function-decl name='_Destroy&lt;long long int*&gt;' filepath='/usr/lib/gcc/x86_64-redhat-linux/4.4.7/../../../../include/c++/4.4.7/bits/stl_construct.h' line='119' column='1' visibility='default' binding='global' size-in-bits='64'>
        <parameter type-id='type-id-340'/>
        <parameter type-id='type-id-340'/>
        <return type-id='type-id-29'/>
      </function-decl>
      <function-decl name='_Destroy&lt;unsigned char*&gt;' filepath='/usr/lib/gcc/x86_64-redhat-linux/4.4.7/../../../../include/c++/4.4.7/bits/stl_construct.h' line='119' column='1' visibility='default' binding='global' size-in-bits='64'>
        <parameter type-id='type-id-89'/>
        <parameter type-id='type-id-89'/>
        <return type-id='type-id-29'/>
      </function-decl>
      <function-decl name='_Destroy&lt;unsigned char*, unsigned char&gt;' filepath='/usr/lib/gcc/x86_64-redhat-linux/4.4.7/../../../../include/c++/4.4.7/bits/stl_construct.h' line='146' column='1' visibility='default' binding='global' size-in-bits='64'>
        <parameter type-id='type-id-89'/>
        <parameter type-id='type-id-89'/>
        <parameter type-id='type-id-361'/>
        <return type-id='type-id-29'/>
      </function-decl>
      <function-decl name='__fill_n_a&lt;vtkCommunicator::ReduceVoidArray::VTK_TT*, long unsigned int, long long int&gt;' filepath='/usr/lib/gcc/x86_64-redhat-linux/4.4.7/../../../../include/c++/4.4.7/bits/stl_algobase.h' line='754' column='1' visibility='default' binding='global' size-in-bits='64'>
        <parameter type-id='type-id-357'/>
        <parameter type-id='type-id-4'/>
        <parameter type-id='type-id-214'/>
        <return type-id='type-id-357'/>
      </function-decl>
      <function-decl name='fill_n&lt;long long int*, long unsigned int, long long int&gt;' filepath='/usr/lib/gcc/x86_64-redhat-linux/4.4.7/../../../../include/c++/4.4.7/bits/stl_algobase.h' line='785' column='1' visibility='default' binding='global' size-in-bits='64'>
        <parameter type-id='type-id-340'/>
        <parameter type-id='type-id-4'/>
        <parameter type-id='type-id-214'/>
        <return type-id='type-id-340'/>
      </function-decl>
      <function-decl name='uninitialized_fill_n&lt;long long int*, long unsigned int, long long int&gt;' filepath='/usr/lib/gcc/x86_64-redhat-linux/4.4.7/../../../../include/c++/4.4.7/bits/stl_uninitialized.h' line='217' column='1' visibility='default' binding='global' size-in-bits='64'>
        <parameter type-id='type-id-340'/>
        <parameter type-id='type-id-4'/>
        <parameter type-id='type-id-214'/>
        <return type-id='type-id-29'/>
      </function-decl>
      <function-decl name='__uninitialized_fill_n_a&lt;long long int*, long unsigned int, long long int, long long int&gt;' filepath='/usr/lib/gcc/x86_64-redhat-linux/4.4.7/../../../../include/c++/4.4.7/bits/stl_uninitialized.h' line='315' column='1' visibility='default' binding='global' size-in-bits='64'>
        <parameter type-id='type-id-340'/>
        <parameter type-id='type-id-4'/>
        <parameter type-id='type-id-214'/>
        <parameter type-id='type-id-359'/>
        <return type-id='type-id-29'/>
      </function-decl>
      <function-decl name='__copy_move_backward_a&lt;false, vtkCommunicator::ReduceVoidArray::VTK_TT*, vtkCommunicator::ReduceVoidArray::VTK_TT*&gt;' filepath='/usr/lib/gcc/x86_64-redhat-linux/4.4.7/../../../../include/c++/4.4.7/bits/stl_algobase.h' line='582' column='1' visibility='default' binding='global' size-in-bits='64'>
        <parameter type-id='type-id-357'/>
        <parameter type-id='type-id-357'/>
        <parameter type-id='type-id-357'/>
        <return type-id='type-id-357'/>
      </function-decl>
      <function-decl name='__copy_move_backward_a2&lt;false, unsigned char*, unsigned char*&gt;' filepath='/usr/lib/gcc/x86_64-redhat-linux/4.4.7/../../../../include/c++/4.4.7/bits/stl_algobase.h' line='600' column='1' visibility='default' binding='global' size-in-bits='64'>
        <parameter type-id='type-id-89'/>
        <parameter type-id='type-id-89'/>
        <parameter type-id='type-id-89'/>
        <return type-id='type-id-89'/>
      </function-decl>
      <function-decl name='__copy_move_a&lt;false, vtkCommunicator::ReduceVoidArray::VTK_TT*, vtkCommunicator::ReduceVoidArray::VTK_TT*&gt;' filepath='/usr/lib/gcc/x86_64-redhat-linux/4.4.7/../../../../include/c++/4.4.7/bits/stl_algobase.h' line='386' column='1' visibility='default' binding='global' size-in-bits='64'>
        <parameter type-id='type-id-357'/>
        <parameter type-id='type-id-357'/>
        <parameter type-id='type-id-357'/>
        <return type-id='type-id-357'/>
      </function-decl>
      <function-decl name='__copy_move_a2&lt;false, unsigned char*, unsigned char*&gt;' filepath='/usr/lib/gcc/x86_64-redhat-linux/4.4.7/../../../../include/c++/4.4.7/bits/stl_algobase.h' line='431' column='1' visibility='default' binding='global' size-in-bits='64'>
        <parameter type-id='type-id-89'/>
        <parameter type-id='type-id-89'/>
        <parameter type-id='type-id-89'/>
        <return type-id='type-id-89'/>
      </function-decl>
      <function-decl name='copy&lt;unsigned char*, unsigned char*&gt;' filepath='/usr/lib/gcc/x86_64-redhat-linux/4.4.7/../../../../include/c++/4.4.7/bits/stl_algobase.h' line='458' column='1' visibility='default' binding='global' size-in-bits='64'>
        <parameter type-id='type-id-89'/>
        <parameter type-id='type-id-89'/>
        <parameter type-id='type-id-89'/>
        <return type-id='type-id-89'/>
      </function-decl>
      <function-decl name='uninitialized_copy&lt;unsigned char*, unsigned char*&gt;' filepath='/usr/lib/gcc/x86_64-redhat-linux/4.4.7/../../../../include/c++/4.4.7/bits/stl_uninitialized.h' line='106' column='1' visibility='default' binding='global' size-in-bits='64'>
        <parameter type-id='type-id-89'/>
        <parameter type-id='type-id-89'/>
        <parameter type-id='type-id-89'/>
        <return type-id='type-id-89'/>
      </function-decl>
      <function-decl name='__uninitialized_copy_a&lt;unsigned char*, unsigned char*, unsigned char&gt;' filepath='/usr/lib/gcc/x86_64-redhat-linux/4.4.7/../../../../include/c++/4.4.7/bits/stl_uninitialized.h' line='254' column='1' visibility='default' binding='global' size-in-bits='64'>
        <parameter type-id='type-id-89'/>
        <parameter type-id='type-id-89'/>
        <parameter type-id='type-id-89'/>
        <parameter type-id='type-id-361'/>
        <return type-id='type-id-89'/>
      </function-decl>
      <function-decl name='__copy_move_a&lt;false, const vtkCommunicator::ReduceVoidArray::VTK_TT*, vtkCommunicator::ReduceVoidArray::VTK_TT*&gt;' filepath='/usr/lib/gcc/x86_64-redhat-linux/4.4.7/../../../../include/c++/4.4.7/bits/stl_algobase.h' line='386' column='1' visibility='default' binding='global' size-in-bits='64'>
        <parameter type-id='type-id-242'/>
        <parameter type-id='type-id-242'/>
        <parameter type-id='type-id-357'/>
        <return type-id='type-id-357'/>
      </function-decl>
      <function-decl name='__copy_move_a2&lt;false, const vtkCommunicator::ReduceVoidArray::VTK_TT*, vtkCommunicator::ReduceVoidArray::VTK_TT*&gt;' filepath='/usr/lib/gcc/x86_64-redhat-linux/4.4.7/../../../../include/c++/4.4.7/bits/stl_algobase.h' line='431' column='1' visibility='default' binding='global' size-in-bits='64'>
        <parameter type-id='type-id-242'/>
        <parameter type-id='type-id-242'/>
        <parameter type-id='type-id-357'/>
        <return type-id='type-id-357'/>
      </function-decl>
      <function-decl name='__copy_move_a&lt;false, const vtkCommunicator::ReduceVoidArray::VTK_TT*, std::_Bit_type*&gt;' filepath='/usr/lib/gcc/x86_64-redhat-linux/4.4.7/../../../../include/c++/4.4.7/bits/stl_algobase.h' line='386' column='1' visibility='default' binding='global' size-in-bits='64'>
        <parameter type-id='type-id-242'/>
        <parameter type-id='type-id-242'/>
        <parameter type-id='type-id-343'/>
        <return type-id='type-id-343'/>
      </function-decl>
      <function-decl name='copy&lt;const vtkCommunicator::ReduceVoidArray::VTK_TT*, vtkCommunicator::ReduceVoidArray::VTK_TT*&gt;' mangled-name='_ZSt4copyIPKxPxET0_T_S4_S3_' filepath='/usr/lib/gcc/x86_64-redhat-linux/4.4.7/../../../../include/c++/4.4.7/bits/stl_algobase.h' line='458' column='1' visibility='default' binding='global' size-in-bits='64' elf-symbol-id='_ZSt4copyIPKxPxET0_T_S4_S3_'>
        <parameter type-id='type-id-242'/>
        <parameter type-id='type-id-242'/>
        <parameter type-id='type-id-357'/>
        <return type-id='type-id-357'/>
      </function-decl>
      <function-decl name='__fill_a&lt;vtkCommunicator::ReduceVoidArray::VTK_TT&gt;' filepath='/usr/lib/gcc/x86_64-redhat-linux/4.4.7/../../../../include/c++/4.4.7/bits/stl_algobase.h' line='709' column='1' visibility='default' binding='global' size-in-bits='64'>
        <parameter type-id='type-id-357'/>
        <parameter type-id='type-id-357'/>
        <parameter type-id='type-id-241'/>
        <return type-id='type-id-29'/>
      </function-decl>
      <function-decl name='__fill_n_a&lt;long unsigned int, vtkCommunicator::ReduceVoidArray::VTK_TT&gt;' filepath='/usr/lib/gcc/x86_64-redhat-linux/4.4.7/../../../../include/c++/4.4.7/bits/stl_algobase.h' line='765' column='1' visibility='default' binding='global' size-in-bits='64'>
        <parameter type-id='type-id-357'/>
        <parameter type-id='type-id-4'/>
        <parameter type-id='type-id-241'/>
        <return type-id='type-id-357'/>
      </function-decl>
      <function-decl name='fill_n&lt;unsigned char*, long unsigned int, unsigned char&gt;' filepath='/usr/lib/gcc/x86_64-redhat-linux/4.4.7/../../../../include/c++/4.4.7/bits/stl_algobase.h' line='785' column='1' visibility='default' binding='global' size-in-bits='64'>
        <parameter type-id='type-id-89'/>
        <parameter type-id='type-id-4'/>
        <parameter type-id='type-id-290'/>
        <return type-id='type-id-89'/>
      </function-decl>
      <function-decl name='uninitialized_fill_n&lt;unsigned char*, long unsigned int, unsigned char&gt;' filepath='/usr/lib/gcc/x86_64-redhat-linux/4.4.7/../../../../include/c++/4.4.7/bits/stl_uninitialized.h' line='217' column='1' visibility='default' binding='global' size-in-bits='64'>
        <parameter type-id='type-id-89'/>
        <parameter type-id='type-id-4'/>
        <parameter type-id='type-id-290'/>
        <return type-id='type-id-29'/>
      </function-decl>
      <function-decl name='max&lt;size_t&gt;' filepath='/usr/lib/gcc/x86_64-redhat-linux/4.4.7/../../../../include/c++/4.4.7/bits/stl_algobase.h' line='209' column='1' visibility='default' binding='global' size-in-bits='64'>
        <parameter type-id='type-id-222'/>
        <parameter type-id='type-id-222'/>
        <return type-id='type-id-222'/>
      </function-decl>
      <function-decl name='__uninitialized_move_a&lt;unsigned char*, unsigned char*, std::allocator&lt;unsigned char&gt; &gt;' filepath='/usr/lib/gcc/x86_64-redhat-linux/4.4.7/../../../../include/c++/4.4.7/bits/stl_uninitialized.h' line='261' column='1' visibility='default' binding='global' size-in-bits='64'>
        <parameter type-id='type-id-89'/>
        <parameter type-id='type-id-89'/>
        <parameter type-id='type-id-89'/>
        <parameter type-id='type-id-361'/>
        <return type-id='type-id-89'/>
      </function-decl>
      <function-decl name='copy_backward&lt;unsigned char*, unsigned char*&gt;' filepath='/usr/lib/gcc/x86_64-redhat-linux/4.4.7/../../../../include/c++/4.4.7/bits/stl_algobase.h' line='628' column='1' visibility='default' binding='global' size-in-bits='64'>
        <parameter type-id='type-id-89'/>
        <parameter type-id='type-id-89'/>
        <parameter type-id='type-id-89'/>
        <return type-id='type-id-89'/>
      </function-decl>
      <function-decl name='fill&lt;unsigned char*, unsigned char&gt;' filepath='/usr/lib/gcc/x86_64-redhat-linux/4.4.7/../../../../include/c++/4.4.7/bits/stl_algobase.h' line='730' column='1' visibility='default' binding='global' size-in-bits='64'>
        <parameter type-id='type-id-89'/>
        <parameter type-id='type-id-89'/>
        <parameter type-id='type-id-290'/>
        <return type-id='type-id-29'/>
      </function-decl>
      <function-decl name='__uninitialized_fill_n_a&lt;unsigned char*, long unsigned int, unsigned char, unsigned char&gt;' filepath='/usr/lib/gcc/x86_64-redhat-linux/4.4.7/../../../../include/c++/4.4.7/bits/stl_uninitialized.h' line='315' column='1' visibility='default' binding='global' size-in-bits='64'>
        <parameter type-id='type-id-89'/>
        <parameter type-id='type-id-4'/>
        <parameter type-id='type-id-290'/>
        <parameter type-id='type-id-361'/>
        <return type-id='type-id-29'/>
      </function-decl>
      <function-decl name='_Destroy&lt;long long int*, long long int&gt;' filepath='/usr/lib/gcc/x86_64-redhat-linux/4.4.7/../../../../include/c++/4.4.7/bits/stl_construct.h' line='146' column='1' visibility='default' binding='global' size-in-bits='64'>
        <parameter type-id='type-id-340'/>
        <parameter type-id='type-id-340'/>
        <parameter type-id='type-id-359'/>
        <return type-id='type-id-29'/>
      </function-decl>
      <function-decl name='operator|' filepath='/usr/lib/gcc/x86_64-redhat-linux/4.4.7/../../../../include/c++/4.4.7/bits/ios_base.h' line='166' column='1' visibility='default' binding='global' size-in-bits='64'>
        <parameter type-id='type-id-449'/>
        <parameter type-id='type-id-449'/>
        <return type-id='type-id-449'/>
      </function-decl>
      <class-decl name='ctype&lt;char&gt;' visibility='default' is-declaration-only='yes' id='type-id-269'>
        <member-type access='private'>
          <typedef-decl name='char_type' type-id='type-id-2' filepath='/usr/lib/gcc/x86_64-redhat-linux/4.4.7/../../../../include/c++/4.4.7/bits/locale_facets.h' line='679' column='1' id='type-id-488'/>
        </member-type>
      </class-decl>
      <function-decl name='__check_facet&lt;std::ctype&lt;char&gt; &gt;' filepath='/usr/lib/gcc/x86_64-redhat-linux/4.4.7/../../../../include/c++/4.4.7/bits/basic_ios.h' line='46' column='1' visibility='default' binding='global' size-in-bits='64'>
        <parameter type-id='type-id-272'/>
        <return type-id='type-id-271'/>
      </function-decl>
      <class-decl name='basic_ostream&lt;char, std::char_traits&lt;char&gt; &gt;' is-struct='yes' visibility='default' is-declaration-only='yes' id='type-id-365'>
        <member-function access='protected'>
          <function-decl name='basic_ostream' filepath='/usr/lib/gcc/x86_64-redhat-linux/4.4.7/../../../../include/c++/4.4.7/ostream' line='361' column='1' visibility='default' binding='global' size-in-bits='64'>
            <parameter type-id='type-id-369' is-artificial='yes'/>
            <parameter type-id='type-id-19' is-artificial='yes'/>
            <parameter type-id='type-id-489' is-artificial='yes'/>
            <return type-id='type-id-29'/>
          </function-decl>
        </member-function>
        <member-function access='public' destructor='yes' vtable-offset='-1'>
          <function-decl name='~basic_ostream' filepath='/usr/lib/gcc/x86_64-redhat-linux/4.4.7/../../../../include/c++/4.4.7/ostream' line='91' column='1' visibility='default' binding='global' size-in-bits='64'>
            <parameter type-id='type-id-369' is-artificial='yes'/>
            <parameter type-id='type-id-19' is-artificial='yes'/>
            <parameter type-id='type-id-489' is-artificial='yes'/>
            <return type-id='type-id-29'/>
          </function-decl>
        </member-function>
      </class-decl>
      <function-decl name='flush&lt;char, std::char_traits&lt;char&gt; &gt;' filepath='/usr/lib/gcc/x86_64-redhat-linux/4.4.7/../../../../include/c++/4.4.7/ostream' line='559' column='1' visibility='default' binding='global' size-in-bits='64'>
        <parameter type-id='type-id-366'/>
        <return type-id='type-id-366'/>
      </function-decl>
      <function-decl name='operator&lt;&lt; &lt;std::char_traits&lt;char&gt; &gt;' filepath='/usr/lib/gcc/x86_64-redhat-linux/4.4.7/../../../../include/c++/4.4.7/ostream' line='505' column='1' visibility='default' binding='global' size-in-bits='64'>
        <parameter type-id='type-id-366'/>
        <parameter type-id='type-id-102'/>
        <return type-id='type-id-366'/>
      </function-decl>
      <function-decl name='endl&lt;char, std::char_traits&lt;char&gt; &gt;' filepath='/usr/lib/gcc/x86_64-redhat-linux/4.4.7/../../../../include/c++/4.4.7/ostream' line='538' column='1' visibility='default' binding='global' size-in-bits='64'>
        <parameter type-id='type-id-366'/>
        <return type-id='type-id-366'/>
      </function-decl>
      <class-decl name='reverse_iterator&lt;__gnu_cxx::__normal_iterator&lt;char*, std::basic_string&lt;char, std::char_traits&lt;char&gt;, std::allocator&lt;char&gt; &gt; &gt; &gt;' visibility='default' is-declaration-only='yes' id='type-id-490'/>
      <class-decl name='reverse_iterator&lt;__gnu_cxx::__normal_iterator&lt;const char*, std::basic_string&lt;char, std::char_traits&lt;char&gt;, std::allocator&lt;char&gt; &gt; &gt; &gt;' visibility='default' is-declaration-only='yes' id='type-id-491'/>
      <class-decl name='reverse_iterator&lt;__gnu_cxx::__normal_iterator&lt;unsigned char*, std::vector&lt;unsigned char, std::allocator&lt;unsigned char&gt; &gt; &gt; &gt;' visibility='default' is-declaration-only='yes' id='type-id-492'/>
      <class-decl name='reverse_iterator&lt;__gnu_cxx::__normal_iterator&lt;const unsigned char*, std::vector&lt;unsigned char, std::allocator&lt;unsigned char&gt; &gt; &gt; &gt;' visibility='default' is-declaration-only='yes' id='type-id-493'/>
      <class-decl name='reverse_iterator&lt;__gnu_cxx::__normal_iterator&lt;long long int*, std::vector&lt;long long int, std::allocator&lt;long long int&gt; &gt; &gt; &gt;' visibility='default' is-declaration-only='yes' id='type-id-494'/>
      <class-decl name='reverse_iterator&lt;__gnu_cxx::__normal_iterator&lt;const long long int*, std::vector&lt;long long int, std::allocator&lt;long long int&gt; &gt; &gt; &gt;' visibility='default' is-declaration-only='yes' id='type-id-495'/>
    </namespace-decl>
    <namespace-decl name='__gnu_cxx'>
      <class-decl name='__normal_iterator&lt;const unsigned char*, std::vector&lt;unsigned char, std::allocator&lt;unsigned char&gt; &gt; &gt;' size-in-bits='64' visibility='default' filepath='/usr/lib/gcc/x86_64-redhat-linux/4.4.7/../../../../include/c++/4.4.7/bits/stl_iterator.h' line='669' column='1' id='type-id-496'>
        <data-member access='protected' layout-offset-in-bits='0'>
          <var-decl name='_M_current' type-id='type-id-86' visibility='default' filepath='/usr/lib/gcc/x86_64-redhat-linux/4.4.7/../../../../include/c++/4.4.7/bits/stl_iterator.h' line='671' column='1'/>
        </data-member>
        <member-function access='private'>
          <function-decl name='__normal_iterator' filepath='/usr/lib/gcc/x86_64-redhat-linux/4.4.7/../../../../include/c++/4.4.7/bits/stl_iterator.h' line='683' column='1' visibility='default' binding='global' size-in-bits='64'>
            <parameter type-id='type-id-497' is-artificial='yes'/>
            <return type-id='type-id-29'/>
          </function-decl>
        </member-function>
        <member-function access='private'>
          <function-decl name='__normal_iterator' filepath='/usr/lib/gcc/x86_64-redhat-linux/4.4.7/../../../../include/c++/4.4.7/bits/stl_iterator.h' line='686' column='1' visibility='default' binding='global' size-in-bits='64'>
            <parameter type-id='type-id-497' is-artificial='yes'/>
            <parameter type-id='type-id-498'/>
            <return type-id='type-id-29'/>
          </function-decl>
        </member-function>
      </class-decl>
      <class-decl name='new_allocator&lt;long long int&gt;' size-in-bits='8' visibility='default' filepath='/usr/lib/gcc/x86_64-redhat-linux/4.4.7/../../../../include/c++/4.4.7/ext/new_allocator.h' line='52' column='1' id='type-id-178'>
        <member-function access='private'>
          <function-decl name='new_allocator' filepath='/usr/lib/gcc/x86_64-redhat-linux/4.4.7/../../../../include/c++/4.4.7/ext/new_allocator.h' line='66' column='1' visibility='default' binding='global' size-in-bits='64'>
            <parameter type-id='type-id-179' is-artificial='yes'/>
            <return type-id='type-id-29'/>
          </function-decl>
        </member-function>
        <member-function access='private'>
          <function-decl name='new_allocator' filepath='/usr/lib/gcc/x86_64-redhat-linux/4.4.7/../../../../include/c++/4.4.7/ext/new_allocator.h' line='68' column='1' visibility='default' binding='global' size-in-bits='64'>
            <parameter type-id='type-id-179' is-artificial='yes'/>
            <parameter type-id='type-id-195'/>
            <return type-id='type-id-29'/>
          </function-decl>
        </member-function>
        <member-function access='private' destructor='yes'>
          <function-decl name='~new_allocator' filepath='/usr/lib/gcc/x86_64-redhat-linux/4.4.7/../../../../include/c++/4.4.7/ext/new_allocator.h' line='73' column='1' visibility='default' binding='global' size-in-bits='64'>
            <parameter type-id='type-id-179' is-artificial='yes'/>
            <parameter type-id='type-id-19' is-artificial='yes'/>
            <return type-id='type-id-29'/>
          </function-decl>
        </member-function>
      </class-decl>
      <class-decl name='new_allocator&lt;char&gt;' size-in-bits='8' visibility='default' filepath='/usr/lib/gcc/x86_64-redhat-linux/4.4.7/../../../../include/c++/4.4.7/ext/new_allocator.h' line='52' column='1' id='type-id-176'>
        <member-function access='private'>
          <function-decl name='new_allocator' filepath='/usr/lib/gcc/x86_64-redhat-linux/4.4.7/../../../../include/c++/4.4.7/ext/new_allocator.h' line='66' column='1' visibility='default' binding='global' size-in-bits='64'>
            <parameter type-id='type-id-177' is-artificial='yes'/>
            <return type-id='type-id-29'/>
          </function-decl>
        </member-function>
        <member-function access='private'>
          <function-decl name='new_allocator' filepath='/usr/lib/gcc/x86_64-redhat-linux/4.4.7/../../../../include/c++/4.4.7/ext/new_allocator.h' line='68' column='1' visibility='default' binding='global' size-in-bits='64'>
            <parameter type-id='type-id-177' is-artificial='yes'/>
            <parameter type-id='type-id-192'/>
            <return type-id='type-id-29'/>
          </function-decl>
        </member-function>
        <member-function access='private' destructor='yes'>
          <function-decl name='~new_allocator' filepath='/usr/lib/gcc/x86_64-redhat-linux/4.4.7/../../../../include/c++/4.4.7/ext/new_allocator.h' line='73' column='1' visibility='default' binding='global' size-in-bits='64'>
            <parameter type-id='type-id-177' is-artificial='yes'/>
            <parameter type-id='type-id-19' is-artificial='yes'/>
            <return type-id='type-id-29'/>
          </function-decl>
        </member-function>
      </class-decl>
      <class-decl name='__normal_iterator&lt;unsigned char*, std::vector&lt;unsigned char, std::allocator&lt;unsigned char&gt; &gt; &gt;' size-in-bits='64' visibility='default' filepath='/usr/lib/gcc/x86_64-redhat-linux/4.4.7/../../../../include/c++/4.4.7/bits/stl_iterator.h' line='669' column='1' id='type-id-173'>
        <data-member access='protected' layout-offset-in-bits='0'>
          <var-decl name='_M_current' type-id='type-id-89' visibility='default' filepath='/usr/lib/gcc/x86_64-redhat-linux/4.4.7/../../../../include/c++/4.4.7/bits/stl_iterator.h' line='671' column='1'/>
        </data-member>
        <member-function access='private'>
          <function-decl name='__normal_iterator' filepath='/usr/lib/gcc/x86_64-redhat-linux/4.4.7/../../../../include/c++/4.4.7/bits/stl_iterator.h' line='683' column='1' visibility='default' binding='global' size-in-bits='64'>
            <parameter type-id='type-id-175' is-artificial='yes'/>
            <return type-id='type-id-29'/>
          </function-decl>
        </member-function>
        <member-function access='private'>
          <function-decl name='__normal_iterator' filepath='/usr/lib/gcc/x86_64-redhat-linux/4.4.7/../../../../include/c++/4.4.7/bits/stl_iterator.h' line='686' column='1' visibility='default' binding='global' size-in-bits='64'>
            <parameter type-id='type-id-175' is-artificial='yes'/>
            <parameter type-id='type-id-395'/>
            <return type-id='type-id-29'/>
          </function-decl>
        </member-function>
      </class-decl>
      <class-decl name='new_allocator&lt;unsigned char&gt;' size-in-bits='8' visibility='default' filepath='/usr/lib/gcc/x86_64-redhat-linux/4.4.7/../../../../include/c++/4.4.7/ext/new_allocator.h' line='52' column='1' id='type-id-181'>
        <member-function access='private'>
          <function-decl name='new_allocator' filepath='/usr/lib/gcc/x86_64-redhat-linux/4.4.7/../../../../include/c++/4.4.7/ext/new_allocator.h' line='66' column='1' visibility='default' binding='global' size-in-bits='64'>
            <parameter type-id='type-id-182' is-artificial='yes'/>
            <return type-id='type-id-29'/>
          </function-decl>
        </member-function>
        <member-function access='private'>
          <function-decl name='new_allocator' filepath='/usr/lib/gcc/x86_64-redhat-linux/4.4.7/../../../../include/c++/4.4.7/ext/new_allocator.h' line='68' column='1' visibility='default' binding='global' size-in-bits='64'>
            <parameter type-id='type-id-182' is-artificial='yes'/>
            <parameter type-id='type-id-199'/>
            <return type-id='type-id-29'/>
          </function-decl>
        </member-function>
        <member-function access='private' destructor='yes'>
          <function-decl name='~new_allocator' filepath='/usr/lib/gcc/x86_64-redhat-linux/4.4.7/../../../../include/c++/4.4.7/ext/new_allocator.h' line='73' column='1' visibility='default' binding='global' size-in-bits='64'>
            <parameter type-id='type-id-182' is-artificial='yes'/>
            <parameter type-id='type-id-19' is-artificial='yes'/>
            <return type-id='type-id-29'/>
          </function-decl>
        </member-function>
      </class-decl>
      <function-decl name='operator-&lt;unsigned char*, std::vector&lt;unsigned char, std::allocator&lt;unsigned char&gt; &gt; &gt;' filepath='/usr/lib/gcc/x86_64-redhat-linux/4.4.7/../../../../include/c++/4.4.7/bits/stl_iterator.h' line='856' column='1' visibility='default' binding='global' size-in-bits='64'>
        <parameter type-id='type-id-188'/>
        <parameter type-id='type-id-188'/>
        <return type-id='type-id-49'/>
      </function-decl>
      <class-decl name='__normal_iterator&lt;char*, std::basic_string&lt;char, std::char_traits&lt;char&gt;, std::allocator&lt;char&gt; &gt; &gt;' visibility='default' is-declaration-only='yes' id='type-id-499'/>
      <class-decl name='__normal_iterator&lt;const char*, std::basic_string&lt;char, std::char_traits&lt;char&gt;, std::allocator&lt;char&gt; &gt; &gt;' visibility='default' is-declaration-only='yes' id='type-id-500'/>
      <class-decl name='__normal_iterator&lt;long long int*, std::vector&lt;long long int, std::allocator&lt;long long int&gt; &gt; &gt;' visibility='default' is-declaration-only='yes' id='type-id-501'/>
      <class-decl name='__normal_iterator&lt;const long long int*, std::vector&lt;long long int, std::allocator&lt;long long int&gt; &gt; &gt;' visibility='default' is-declaration-only='yes' id='type-id-502'/>
    </namespace-decl>
    <function-decl name='btowc' filepath='/usr/include/wchar.h' line='386' column='1' visibility='default' binding='global' size-in-bits='64'>
      <parameter type-id='type-id-19'/>
      <return type-id='type-id-96'/>
    </function-decl>
    <function-decl name='fgetwc' filepath='/usr/include/wchar.h' line='743' column='1' visibility='default' binding='global' size-in-bits='64'>
      <parameter type-id='type-id-172'/>
      <return type-id='type-id-96'/>
    </function-decl>
    <function-decl name='fgetws' filepath='/usr/include/wchar.h' line='772' column='1' visibility='default' binding='global' size-in-bits='64'>
      <parameter type-id='type-id-443'/>
      <parameter type-id='type-id-19'/>
      <parameter type-id='type-id-172'/>
      <return type-id='type-id-443'/>
    </function-decl>
    <function-decl name='fputwc' filepath='/usr/include/wchar.h' line='757' column='1' visibility='default' binding='global' size-in-bits='64'>
      <parameter type-id='type-id-30'/>
      <parameter type-id='type-id-172'/>
      <return type-id='type-id-96'/>
    </function-decl>
    <function-decl name='fputws' filepath='/usr/include/wchar.h' line='779' column='1' visibility='default' binding='global' size-in-bits='64'>
      <parameter type-id='type-id-328'/>
      <parameter type-id='type-id-172'/>
      <return type-id='type-id-19'/>
    </function-decl>
    <function-decl name='fwide' filepath='/usr/include/wchar.h' line='585' column='1' visibility='default' binding='global' size-in-bits='64'>
      <parameter type-id='type-id-172'/>
      <parameter type-id='type-id-19'/>
      <return type-id='type-id-19'/>
    </function-decl>
    <function-decl name='fwprintf' filepath='/usr/include/wchar.h' line='592' column='1' visibility='default' binding='global' size-in-bits='64'>
      <parameter type-id='type-id-172'/>
      <parameter type-id='type-id-328'/>
      <parameter is-variadic='yes'/>
      <return type-id='type-id-19'/>
    </function-decl>
    <function-decl name='fwscanf' filepath='/usr/include/wchar.h' line='633' column='1' visibility='default' binding='global' size-in-bits='64'>
      <parameter type-id='type-id-172'/>
      <parameter type-id='type-id-328'/>
      <parameter is-variadic='yes'/>
      <return type-id='type-id-19'/>
    </function-decl>
    <function-decl name='getwc' filepath='/usr/include/wchar.h' line='744' column='1' visibility='default' binding='global' size-in-bits='64'>
      <parameter type-id='type-id-172'/>
      <return type-id='type-id-96'/>
    </function-decl>
    <function-decl name='getwchar' filepath='/usr/include/wchar.h' line='750' column='1' visibility='default' binding='global' size-in-bits='64'>
      <return type-id='type-id-96'/>
    </function-decl>
    <function-decl name='mbrlen' filepath='/usr/include/wchar.h' line='397' column='1' visibility='default' binding='global' size-in-bits='64'>
      <parameter type-id='type-id-102'/>
      <parameter type-id='type-id-40'/>
      <parameter type-id='type-id-341'/>
      <return type-id='type-id-40'/>
    </function-decl>
    <function-decl name='mbrtowc' filepath='/usr/include/wchar.h' line='363' column='1' visibility='default' binding='global' size-in-bits='64'>
      <parameter type-id='type-id-443'/>
      <parameter type-id='type-id-102'/>
      <parameter type-id='type-id-40'/>
      <parameter type-id='type-id-341'/>
      <return type-id='type-id-40'/>
    </function-decl>
    <function-decl name='mbsinit' filepath='/usr/include/wchar.h' line='359' column='1' visibility='default' binding='global' size-in-bits='64'>
      <parameter type-id='type-id-218'/>
      <return type-id='type-id-19'/>
    </function-decl>
    <function-decl name='mbsrtowcs' filepath='/usr/include/wchar.h' line='406' column='1' visibility='default' binding='global' size-in-bits='64'>
      <parameter type-id='type-id-443'/>
      <parameter type-id='type-id-205'/>
      <parameter type-id='type-id-40'/>
      <parameter type-id='type-id-341'/>
      <return type-id='type-id-40'/>
    </function-decl>
    <function-decl name='putwc' filepath='/usr/include/wchar.h' line='758' column='1' visibility='default' binding='global' size-in-bits='64'>
      <parameter type-id='type-id-30'/>
      <parameter type-id='type-id-172'/>
      <return type-id='type-id-96'/>
    </function-decl>
    <function-decl name='putwchar' filepath='/usr/include/wchar.h' line='764' column='1' visibility='default' binding='global' size-in-bits='64'>
      <parameter type-id='type-id-30'/>
      <return type-id='type-id-96'/>
    </function-decl>
    <function-decl name='swprintf' filepath='/usr/include/wchar.h' line='602' column='1' visibility='default' binding='global' size-in-bits='64'>
      <parameter type-id='type-id-443'/>
      <parameter type-id='type-id-40'/>
      <parameter type-id='type-id-328'/>
      <parameter is-variadic='yes'/>
      <return type-id='type-id-19'/>
    </function-decl>
    <function-decl name='swscanf' filepath='/usr/include/wchar.h' line='643' column='1' visibility='default' binding='global' size-in-bits='64'>
      <parameter type-id='type-id-328'/>
      <parameter type-id='type-id-328'/>
      <parameter is-variadic='yes'/>
      <return type-id='type-id-19'/>
    </function-decl>
    <function-decl name='ungetwc' filepath='/usr/include/wchar.h' line='787' column='1' visibility='default' binding='global' size-in-bits='64'>
      <parameter type-id='type-id-96'/>
      <parameter type-id='type-id-172'/>
      <return type-id='type-id-96'/>
    </function-decl>
    <function-decl name='vfwprintf' filepath='/usr/include/wchar.h' line='610' column='1' visibility='default' binding='global' size-in-bits='64'>
      <parameter type-id='type-id-172'/>
      <parameter type-id='type-id-328'/>
      <parameter type-id='type-id-392'/>
      <return type-id='type-id-19'/>
    </function-decl>
    <function-decl name='vfwscanf' filepath='/usr/include/wchar.h' line='687' column='1' visibility='default' binding='global' size-in-bits='64'>
      <parameter type-id='type-id-172'/>
      <parameter type-id='type-id-328'/>
      <parameter type-id='type-id-392'/>
      <return type-id='type-id-19'/>
    </function-decl>
    <function-decl name='vswprintf' filepath='/usr/include/wchar.h' line='623' column='1' visibility='default' binding='global' size-in-bits='64'>
      <parameter type-id='type-id-443'/>
      <parameter type-id='type-id-40'/>
      <parameter type-id='type-id-328'/>
      <parameter type-id='type-id-392'/>
      <return type-id='type-id-19'/>
    </function-decl>
    <function-decl name='vswscanf' filepath='/usr/include/wchar.h' line='699' column='1' visibility='default' binding='global' size-in-bits='64'>
      <parameter type-id='type-id-328'/>
      <parameter type-id='type-id-328'/>
      <parameter type-id='type-id-392'/>
      <return type-id='type-id-19'/>
    </function-decl>
    <function-decl name='vwprintf' filepath='/usr/include/wchar.h' line='618' column='1' visibility='default' binding='global' size-in-bits='64'>
      <parameter type-id='type-id-328'/>
      <parameter type-id='type-id-392'/>
      <return type-id='type-id-19'/>
    </function-decl>
    <function-decl name='vwscanf' filepath='/usr/include/wchar.h' line='695' column='1' visibility='default' binding='global' size-in-bits='64'>
      <parameter type-id='type-id-328'/>
      <parameter type-id='type-id-392'/>
      <return type-id='type-id-19'/>
    </function-decl>
    <function-decl name='wcrtomb' filepath='/usr/include/wchar.h' line='368' column='1' visibility='default' binding='global' size-in-bits='64'>
      <parameter type-id='type-id-34'/>
      <parameter type-id='type-id-30'/>
      <parameter type-id='type-id-341'/>
      <return type-id='type-id-40'/>
    </function-decl>
    <function-decl name='wcscat' filepath='/usr/include/wchar.h' line='152' column='1' visibility='default' binding='global' size-in-bits='64'>
      <parameter type-id='type-id-443'/>
      <parameter type-id='type-id-328'/>
      <return type-id='type-id-443'/>
    </function-decl>
    <function-decl name='wcscmp' filepath='/usr/include/wchar.h' line='160' column='1' visibility='default' binding='global' size-in-bits='64'>
      <parameter type-id='type-id-328'/>
      <parameter type-id='type-id-328'/>
      <return type-id='type-id-19'/>
    </function-decl>
    <function-decl name='wcscoll' filepath='/usr/include/wchar.h' line='189' column='1' visibility='default' binding='global' size-in-bits='64'>
      <parameter type-id='type-id-328'/>
      <parameter type-id='type-id-328'/>
      <return type-id='type-id-19'/>
    </function-decl>
    <function-decl name='wcscpy' filepath='/usr/include/wchar.h' line='144' column='1' visibility='default' binding='global' size-in-bits='64'>
      <parameter type-id='type-id-443'/>
      <parameter type-id='type-id-328'/>
      <return type-id='type-id-443'/>
    </function-decl>
    <function-decl name='wcscspn' filepath='/usr/include/wchar.h' line='249' column='1' visibility='default' binding='global' size-in-bits='64'>
      <parameter type-id='type-id-328'/>
      <parameter type-id='type-id-328'/>
      <return type-id='type-id-40'/>
    </function-decl>
    <function-decl name='wcsftime' filepath='/usr/include/wchar.h' line='853' column='1' visibility='default' binding='global' size-in-bits='64'>
      <parameter type-id='type-id-443'/>
      <parameter type-id='type-id-40'/>
      <parameter type-id='type-id-328'/>
      <parameter type-id='type-id-288'/>
      <return type-id='type-id-40'/>
    </function-decl>
    <function-decl name='wcslen' filepath='/usr/include/wchar.h' line='284' column='1' visibility='default' binding='global' size-in-bits='64'>
      <parameter type-id='type-id-328'/>
      <return type-id='type-id-40'/>
    </function-decl>
    <function-decl name='wcsncat' filepath='/usr/include/wchar.h' line='155' column='1' visibility='default' binding='global' size-in-bits='64'>
      <parameter type-id='type-id-443'/>
      <parameter type-id='type-id-328'/>
      <parameter type-id='type-id-40'/>
      <return type-id='type-id-443'/>
    </function-decl>
    <function-decl name='wcsncmp' filepath='/usr/include/wchar.h' line='163' column='1' visibility='default' binding='global' size-in-bits='64'>
      <parameter type-id='type-id-328'/>
      <parameter type-id='type-id-328'/>
      <parameter type-id='type-id-40'/>
      <return type-id='type-id-19'/>
    </function-decl>
    <function-decl name='wcsncpy' filepath='/usr/include/wchar.h' line='147' column='1' visibility='default' binding='global' size-in-bits='64'>
      <parameter type-id='type-id-443'/>
      <parameter type-id='type-id-328'/>
      <parameter type-id='type-id-40'/>
      <return type-id='type-id-443'/>
    </function-decl>
    <function-decl name='wcsrtombs' filepath='/usr/include/wchar.h' line='412' column='1' visibility='default' binding='global' size-in-bits='64'>
      <parameter type-id='type-id-34'/>
      <parameter type-id='type-id-329'/>
      <parameter type-id='type-id-40'/>
      <parameter type-id='type-id-341'/>
      <return type-id='type-id-40'/>
    </function-decl>
    <function-decl name='wcsspn' filepath='/usr/include/wchar.h' line='253' column='1' visibility='default' binding='global' size-in-bits='64'>
      <parameter type-id='type-id-328'/>
      <parameter type-id='type-id-328'/>
      <return type-id='type-id-40'/>
    </function-decl>
    <function-decl name='wcstod' filepath='/usr/include/wchar.h' line='448' column='1' visibility='default' binding='global' size-in-bits='64'>
      <parameter type-id='type-id-328'/>
      <parameter type-id='type-id-444'/>
      <return type-id='type-id-15'/>
    </function-decl>
    <function-decl name='wcstof' filepath='/usr/include/wchar.h' line='455' column='1' visibility='default' binding='global' size-in-bits='64'>
      <parameter type-id='type-id-328'/>
      <parameter type-id='type-id-444'/>
      <return type-id='type-id-18'/>
    </function-decl>
    <function-decl name='wcstok' filepath='/usr/include/wchar.h' line='279' column='1' visibility='default' binding='global' size-in-bits='64'>
      <parameter type-id='type-id-443'/>
      <parameter type-id='type-id-328'/>
      <parameter type-id='type-id-444'/>
      <return type-id='type-id-443'/>
    </function-decl>
    <function-decl name='wcstol' filepath='/usr/include/wchar.h' line='466' column='1' visibility='default' binding='global' size-in-bits='64'>
      <parameter type-id='type-id-328'/>
      <parameter type-id='type-id-444'/>
      <parameter type-id='type-id-19'/>
      <return type-id='type-id-21'/>
    </function-decl>
    <function-decl name='wcstoul' filepath='/usr/include/wchar.h' line='471' column='1' visibility='default' binding='global' size-in-bits='64'>
      <parameter type-id='type-id-328'/>
      <parameter type-id='type-id-444'/>
      <parameter type-id='type-id-19'/>
      <return type-id='type-id-4'/>
    </function-decl>
    <function-decl name='wcsxfrm' filepath='/usr/include/wchar.h' line='193' column='1' visibility='default' binding='global' size-in-bits='64'>
      <parameter type-id='type-id-443'/>
      <parameter type-id='type-id-328'/>
      <parameter type-id='type-id-40'/>
      <return type-id='type-id-40'/>
    </function-decl>
    <function-decl name='wctob' filepath='/usr/include/wchar.h' line='392' column='1' visibility='default' binding='global' size-in-bits='64'>
      <parameter type-id='type-id-96'/>
      <return type-id='type-id-19'/>
    </function-decl>
    <function-decl name='wmemcmp' filepath='/usr/include/wchar.h' line='322' column='1' visibility='default' binding='global' size-in-bits='64'>
      <parameter type-id='type-id-328'/>
      <parameter type-id='type-id-328'/>
      <parameter type-id='type-id-40'/>
      <return type-id='type-id-19'/>
    </function-decl>
    <function-decl name='wmemcpy' filepath='/usr/include/wchar.h' line='327' column='1' visibility='default' binding='global' size-in-bits='64'>
      <parameter type-id='type-id-443'/>
      <parameter type-id='type-id-328'/>
      <parameter type-id='type-id-40'/>
      <return type-id='type-id-443'/>
    </function-decl>
    <function-decl name='wmemmove' filepath='/usr/include/wchar.h' line='332' column='1' visibility='default' binding='global' size-in-bits='64'>
      <parameter type-id='type-id-443'/>
      <parameter type-id='type-id-328'/>
      <parameter type-id='type-id-40'/>
      <return type-id='type-id-443'/>
    </function-decl>
    <function-decl name='wmemset' filepath='/usr/include/wchar.h' line='336' column='1' visibility='default' binding='global' size-in-bits='64'>
      <parameter type-id='type-id-443'/>
      <parameter type-id='type-id-30'/>
      <parameter type-id='type-id-40'/>
      <return type-id='type-id-443'/>
    </function-decl>
    <function-decl name='wprintf' filepath='/usr/include/wchar.h' line='599' column='1' visibility='default' binding='global' size-in-bits='64'>
      <parameter type-id='type-id-328'/>
      <parameter is-variadic='yes'/>
      <return type-id='type-id-19'/>
    </function-decl>
    <function-decl name='wscanf' filepath='/usr/include/wchar.h' line='640' column='1' visibility='default' binding='global' size-in-bits='64'>
      <parameter type-id='type-id-328'/>
      <parameter is-variadic='yes'/>
      <return type-id='type-id-19'/>
    </function-decl>
    <function-decl name='wcstold' filepath='/usr/include/wchar.h' line='457' column='1' visibility='default' binding='global' size-in-bits='64'>
      <parameter type-id='type-id-328'/>
      <parameter type-id='type-id-444'/>
      <return type-id='type-id-20'/>
    </function-decl>
    <function-decl name='wcstoll' filepath='/usr/include/wchar.h' line='481' column='1' visibility='default' binding='global' size-in-bits='64'>
      <parameter type-id='type-id-328'/>
      <parameter type-id='type-id-444'/>
      <parameter type-id='type-id-19'/>
      <return type-id='type-id-22'/>
    </function-decl>
    <function-decl name='wcstoull' filepath='/usr/include/wchar.h' line='488' column='1' visibility='default' binding='global' size-in-bits='64'>
      <parameter type-id='type-id-328'/>
      <parameter type-id='type-id-444'/>
      <parameter type-id='type-id-19'/>
      <return type-id='type-id-23'/>
    </function-decl>
    <function-decl name='setlocale' filepath='/usr/include/locale.h' line='125' column='1' visibility='default' binding='global' size-in-bits='64'>
      <parameter type-id='type-id-19'/>
      <parameter type-id='type-id-102'/>
      <return type-id='type-id-34'/>
    </function-decl>
    <function-decl name='localeconv' filepath='/usr/include/locale.h' line='128' column='1' visibility='default' binding='global' size-in-bits='64'>
      <return type-id='type-id-338'/>
    </function-decl>
    <function-decl name='iswctype' filepath='/usr/include/wctype.h' line='176' column='1' visibility='default' binding='global' size-in-bits='64'>
      <parameter type-id='type-id-96'/>
      <parameter type-id='type-id-104'/>
      <return type-id='type-id-19'/>
    </function-decl>
    <function-decl name='towctrans' filepath='/usr/include/wctype.h' line='222' column='1' visibility='default' binding='global' size-in-bits='64'>
      <parameter type-id='type-id-96'/>
      <parameter type-id='type-id-106'/>
      <return type-id='type-id-96'/>
    </function-decl>
    <function-decl name='wctrans' filepath='/usr/include/wctype.h' line='219' column='1' visibility='default' binding='global' size-in-bits='64'>
      <parameter type-id='type-id-102'/>
      <return type-id='type-id-106'/>
    </function-decl>
    <function-decl name='wctype' filepath='/usr/include/wctype.h' line='172' column='1' visibility='default' binding='global' size-in-bits='64'>
      <parameter type-id='type-id-102'/>
      <return type-id='type-id-104'/>
    </function-decl>
    <function-decl name='clearerr' filepath='/usr/include/stdio.h' line='821' column='1' visibility='default' binding='global' size-in-bits='64'>
      <parameter type-id='type-id-171'/>
      <return type-id='type-id-29'/>
    </function-decl>
    <function-decl name='fclose' filepath='/usr/include/stdio.h' line='236' column='1' visibility='default' binding='global' size-in-bits='64'>
      <parameter type-id='type-id-171'/>
      <return type-id='type-id-19'/>
    </function-decl>
    <function-decl name='feof' filepath='/usr/include/stdio.h' line='823' column='1' visibility='default' binding='global' size-in-bits='64'>
      <parameter type-id='type-id-171'/>
      <return type-id='type-id-19'/>
    </function-decl>
    <function-decl name='ferror' filepath='/usr/include/stdio.h' line='825' column='1' visibility='default' binding='global' size-in-bits='64'>
      <parameter type-id='type-id-171'/>
      <return type-id='type-id-19'/>
    </function-decl>
    <function-decl name='fflush' filepath='/usr/include/stdio.h' line='241' column='1' visibility='default' binding='global' size-in-bits='64'>
      <parameter type-id='type-id-171'/>
      <return type-id='type-id-19'/>
    </function-decl>
    <function-decl name='fgetc' filepath='/usr/include/stdio.h' line='535' column='1' visibility='default' binding='global' size-in-bits='64'>
      <parameter type-id='type-id-171'/>
      <return type-id='type-id-19'/>
    </function-decl>
    <function-decl name='fgets' filepath='/usr/include/stdio.h' line='626' column='1' visibility='default' binding='global' size-in-bits='64'>
      <parameter type-id='type-id-34'/>
      <parameter type-id='type-id-19'/>
      <parameter type-id='type-id-171'/>
      <return type-id='type-id-34'/>
    </function-decl>
    <function-decl name='fread' filepath='/usr/include/stdio.h' line='704' column='1' visibility='default' binding='global' size-in-bits='64'>
      <parameter type-id='type-id-14'/>
      <parameter type-id='type-id-40'/>
      <parameter type-id='type-id-40'/>
      <parameter type-id='type-id-171'/>
      <return type-id='type-id-40'/>
    </function-decl>
    <function-decl name='fseek' filepath='/usr/include/stdio.h' line='744' column='1' visibility='default' binding='global' size-in-bits='64'>
      <parameter type-id='type-id-171'/>
      <parameter type-id='type-id-21'/>
      <parameter type-id='type-id-19'/>
      <return type-id='type-id-19'/>
    </function-decl>
    <function-decl name='ftell' filepath='/usr/include/stdio.h' line='749' column='1' visibility='default' binding='global' size-in-bits='64'>
      <parameter type-id='type-id-171'/>
      <return type-id='type-id-21'/>
    </function-decl>
    <function-decl name='getc' filepath='/usr/include/stdio.h' line='536' column='1' visibility='default' binding='global' size-in-bits='64'>
      <parameter type-id='type-id-171'/>
      <return type-id='type-id-19'/>
    </function-decl>
    <function-decl name='getchar' filepath='/usr/include/bits/stdio.h' line='45' column='1' visibility='default' binding='global' size-in-bits='64'>
      <return type-id='type-id-19'/>
    </function-decl>
    <function-decl name='gets' filepath='/usr/include/stdio.h' line='634' column='1' visibility='default' binding='global' size-in-bits='64'>
      <parameter type-id='type-id-34'/>
      <return type-id='type-id-34'/>
    </function-decl>
    <function-decl name='perror' filepath='/usr/include/stdio.h' line='841' column='1' visibility='default' binding='global' size-in-bits='64'>
      <parameter type-id='type-id-102'/>
      <return type-id='type-id-29'/>
    </function-decl>
    <function-decl name='remove' filepath='/usr/include/stdio.h' line='177' column='1' visibility='default' binding='global' size-in-bits='64'>
      <parameter type-id='type-id-102'/>
      <return type-id='type-id-19'/>
    </function-decl>
    <function-decl name='rename' filepath='/usr/include/stdio.h' line='179' column='1' visibility='default' binding='global' size-in-bits='64'>
      <parameter type-id='type-id-102'/>
      <parameter type-id='type-id-102'/>
      <return type-id='type-id-19'/>
    </function-decl>
    <function-decl name='rewind' filepath='/usr/include/stdio.h' line='754' column='1' visibility='default' binding='global' size-in-bits='64'>
      <parameter type-id='type-id-171'/>
      <return type-id='type-id-29'/>
    </function-decl>
    <function-decl name='setbuf' filepath='/usr/include/stdio.h' line='331' column='1' visibility='default' binding='global' size-in-bits='64'>
      <parameter type-id='type-id-171'/>
      <parameter type-id='type-id-34'/>
      <return type-id='type-id-29'/>
    </function-decl>
    <function-decl name='setvbuf' filepath='/usr/include/stdio.h' line='335' column='1' visibility='default' binding='global' size-in-bits='64'>
      <parameter type-id='type-id-171'/>
      <parameter type-id='type-id-34'/>
      <parameter type-id='type-id-19'/>
      <parameter type-id='type-id-40'/>
      <return type-id='type-id-19'/>
    </function-decl>
    <function-decl name='tmpnam' filepath='/usr/include/stdio.h' line='208' column='1' visibility='default' binding='global' size-in-bits='64'>
      <parameter type-id='type-id-34'/>
      <return type-id='type-id-34'/>
    </function-decl>
    <function-decl name='ungetc' filepath='/usr/include/stdio.h' line='697' column='1' visibility='default' binding='global' size-in-bits='64'>
      <parameter type-id='type-id-19'/>
      <parameter type-id='type-id-171'/>
      <return type-id='type-id-19'/>
    </function-decl>
    <function-decl name='atexit' filepath='/usr/include/stdlib.h' line='518' column='1' visibility='default' binding='global' size-in-bits='64'>
      <parameter type-id='type-id-401'/>
      <return type-id='type-id-19'/>
    </function-decl>
    <function-decl name='atof' filepath='/usr/include/stdlib.h' line='279' column='1' visibility='default' binding='global' size-in-bits='64'>
      <parameter type-id='type-id-102'/>
      <return type-id='type-id-15'/>
    </function-decl>
    <function-decl name='atoi' filepath='/usr/include/stdlib.h' line='284' column='1' visibility='default' binding='global' size-in-bits='64'>
      <parameter type-id='type-id-102'/>
      <return type-id='type-id-19'/>
    </function-decl>
    <function-decl name='atol' filepath='/usr/include/stdlib.h' line='289' column='1' visibility='default' binding='global' size-in-bits='64'>
      <parameter type-id='type-id-102'/>
      <return type-id='type-id-21'/>
    </function-decl>
    <function-decl name='bsearch' filepath='/usr/include/stdlib.h' line='755' column='1' visibility='default' binding='global' size-in-bits='64'>
      <parameter type-id='type-id-14'/>
      <parameter type-id='type-id-14'/>
      <parameter type-id='type-id-40'/>
      <parameter type-id='type-id-40'/>
      <parameter type-id='type-id-111'/>
      <return type-id='type-id-14'/>
    </function-decl>
    <function-decl name='div' filepath='/usr/include/stdlib.h' line='785' column='1' visibility='default' binding='global' size-in-bits='64'>
      <parameter type-id='type-id-19'/>
      <parameter type-id='type-id-19'/>
      <return type-id='type-id-112'/>
    </function-decl>
    <function-decl name='getenv' filepath='/usr/include/stdlib.h' line='567' column='1' visibility='default' binding='global' size-in-bits='64'>
      <parameter type-id='type-id-102'/>
      <return type-id='type-id-34'/>
    </function-decl>
    <function-decl name='ldiv' filepath='/usr/include/stdlib.h' line='787' column='1' visibility='default' binding='global' size-in-bits='64'>
      <parameter type-id='type-id-21'/>
      <parameter type-id='type-id-21'/>
      <return type-id='type-id-113'/>
    </function-decl>
    <function-decl name='mblen' filepath='/usr/include/stdlib.h' line='860' column='1' visibility='default' binding='global' size-in-bits='64'>
      <parameter type-id='type-id-102'/>
      <parameter type-id='type-id-40'/>
      <return type-id='type-id-19'/>
    </function-decl>
    <function-decl name='mbstowcs' filepath='/usr/include/stdlib.h' line='871' column='1' visibility='default' binding='global' size-in-bits='64'>
      <parameter type-id='type-id-443'/>
      <parameter type-id='type-id-102'/>
      <parameter type-id='type-id-40'/>
      <return type-id='type-id-40'/>
    </function-decl>
    <function-decl name='mbtowc' filepath='/usr/include/stdlib.h' line='863' column='1' visibility='default' binding='global' size-in-bits='64'>
      <parameter type-id='type-id-443'/>
      <parameter type-id='type-id-102'/>
      <parameter type-id='type-id-40'/>
      <return type-id='type-id-19'/>
    </function-decl>
    <function-decl name='qsort' filepath='/usr/include/stdlib.h' line='761' column='1' visibility='default' binding='global' size-in-bits='64'>
      <parameter type-id='type-id-14'/>
      <parameter type-id='type-id-40'/>
      <parameter type-id='type-id-40'/>
      <parameter type-id='type-id-111'/>
      <return type-id='type-id-29'/>
    </function-decl>
    <function-decl name='rand' filepath='/usr/include/stdlib.h' line='380' column='1' visibility='default' binding='global' size-in-bits='64'>
      <return type-id='type-id-19'/>
    </function-decl>
    <function-decl name='srand' filepath='/usr/include/stdlib.h' line='382' column='1' visibility='default' binding='global' size-in-bits='64'>
      <parameter type-id='type-id-13'/>
      <return type-id='type-id-29'/>
    </function-decl>
    <function-decl name='strtod' filepath='/usr/include/stdlib.h' line='165' column='1' visibility='default' binding='global' size-in-bits='64'>
      <parameter type-id='type-id-102'/>
      <parameter type-id='type-id-186'/>
      <return type-id='type-id-15'/>
    </function-decl>
    <function-decl name='strtol' filepath='/usr/include/stdlib.h' line='184' column='1' visibility='default' binding='global' size-in-bits='64'>
      <parameter type-id='type-id-102'/>
      <parameter type-id='type-id-186'/>
      <parameter type-id='type-id-19'/>
      <return type-id='type-id-21'/>
    </function-decl>
    <function-decl name='strtoul' filepath='/usr/include/stdlib.h' line='188' column='1' visibility='default' binding='global' size-in-bits='64'>
      <parameter type-id='type-id-102'/>
      <parameter type-id='type-id-186'/>
      <parameter type-id='type-id-19'/>
      <return type-id='type-id-4'/>
    </function-decl>
    <function-decl name='system' filepath='/usr/include/stdlib.h' line='717' column='1' visibility='default' binding='global' size-in-bits='64'>
      <parameter type-id='type-id-102'/>
      <return type-id='type-id-19'/>
    </function-decl>
    <function-decl name='wcstombs' filepath='/usr/include/stdlib.h' line='874' column='1' visibility='default' binding='global' size-in-bits='64'>
      <parameter type-id='type-id-34'/>
      <parameter type-id='type-id-328'/>
      <parameter type-id='type-id-40'/>
      <return type-id='type-id-40'/>
    </function-decl>
    <function-decl name='wctomb' filepath='/usr/include/stdlib.h' line='867' column='1' visibility='default' binding='global' size-in-bits='64'>
      <parameter type-id='type-id-34'/>
      <parameter type-id='type-id-30'/>
      <return type-id='type-id-19'/>
    </function-decl>
    <function-decl name='lldiv' filepath='/usr/include/stdlib.h' line='793' column='1' visibility='default' binding='global' size-in-bits='64'>
      <parameter type-id='type-id-22'/>
      <parameter type-id='type-id-22'/>
      <return type-id='type-id-50'/>
    </function-decl>
    <function-decl name='atoll' filepath='/usr/include/stdlib.h' line='298' column='1' visibility='default' binding='global' size-in-bits='64'>
      <parameter type-id='type-id-102'/>
      <return type-id='type-id-22'/>
    </function-decl>
    <function-decl name='strtoll' filepath='/usr/include/stdlib.h' line='210' column='1' visibility='default' binding='global' size-in-bits='64'>
      <parameter type-id='type-id-102'/>
      <parameter type-id='type-id-186'/>
      <parameter type-id='type-id-19'/>
      <return type-id='type-id-22'/>
    </function-decl>
    <function-decl name='strtoull' filepath='/usr/include/stdlib.h' line='215' column='1' visibility='default' binding='global' size-in-bits='64'>
      <parameter type-id='type-id-102'/>
      <parameter type-id='type-id-186'/>
      <parameter type-id='type-id-19'/>
      <return type-id='type-id-23'/>
    </function-decl>
    <function-decl name='strtof' filepath='/usr/include/stdlib.h' line='173' column='1' visibility='default' binding='global' size-in-bits='64'>
      <parameter type-id='type-id-102'/>
      <parameter type-id='type-id-186'/>
      <return type-id='type-id-18'/>
    </function-decl>
    <function-decl name='strtold' filepath='/usr/include/stdlib.h' line='176' column='1' visibility='default' binding='global' size-in-bits='64'>
      <parameter type-id='type-id-102'/>
      <parameter type-id='type-id-186'/>
      <return type-id='type-id-20'/>
    </function-decl>
    <pointer-type-def type-id='type-id-496' size-in-bits='64' id='type-id-497'/>
    <qualified-type-def type-id='type-id-184' id='type-id-67'/>
    <qualified-type-def type-id='type-id-185' id='type-id-80'/>
    <namespace-decl name='__gnu_cxx'>
      <class-decl name='__normal_iterator&lt;const char*, std::vector&lt;char, std::allocator&lt;char&gt; &gt; &gt;' size-in-bits='64' visibility='default' filepath='/usr/lib/gcc/x86_64-redhat-linux/4.4.7/../../../../include/c++/4.4.7/bits/stl_iterator.h' line='669' column='1' id='type-id-483'>
        <data-member access='protected' layout-offset-in-bits='0'>
          <var-decl name='_M_current' type-id='type-id-102' visibility='default' filepath='/usr/lib/gcc/x86_64-redhat-linux/4.4.7/../../../../include/c++/4.4.7/bits/stl_iterator.h' line='671' column='1'/>
        </data-member>
        <member-function access='private'>
          <function-decl name='__normal_iterator' filepath='/usr/lib/gcc/x86_64-redhat-linux/4.4.7/../../../../include/c++/4.4.7/bits/stl_iterator.h' line='683' column='1' visibility='default' binding='global' size-in-bits='64'>
            <parameter type-id='type-id-503' is-artificial='yes'/>
            <return type-id='type-id-29'/>
          </function-decl>
        </member-function>
        <member-function access='private'>
          <function-decl name='__normal_iterator' filepath='/usr/lib/gcc/x86_64-redhat-linux/4.4.7/../../../../include/c++/4.4.7/bits/stl_iterator.h' line='686' column='1' visibility='default' binding='global' size-in-bits='64'>
            <parameter type-id='type-id-503' is-artificial='yes'/>
            <parameter type-id='type-id-504'/>
            <return type-id='type-id-29'/>
          </function-decl>
        </member-function>
      </class-decl>
    </namespace-decl>
    <namespace-decl name='__gnu_cxx'>
      <class-decl name='__normal_iterator&lt;const vtkMultiProcessController::vtkInternal::vtkRMICallback*, std::vector&lt;vtkMultiProcessController::vtkInternal::vtkRMICallback, std::allocator&lt;vtkMultiProcessController::vtkInternal::vtkRMICallback&gt; &gt; &gt;' size-in-bits='64' visibility='default' filepath='/usr/lib/gcc/x86_64-redhat-linux/4.4.7/../../../../include/c++/4.4.7/bits/stl_iterator.h' line='669' column='1' id='type-id-481'>
        <data-member access='protected' layout-offset-in-bits='0'>
          <var-decl name='_M_current' type-id='type-id-459' visibility='default' filepath='/usr/lib/gcc/x86_64-redhat-linux/4.4.7/../../../../include/c++/4.4.7/bits/stl_iterator.h' line='671' column='1'/>
        </data-member>
        <member-function access='private'>
          <function-decl name='__normal_iterator' filepath='/usr/lib/gcc/x86_64-redhat-linux/4.4.7/../../../../include/c++/4.4.7/bits/stl_iterator.h' line='683' column='1' visibility='default' binding='global' size-in-bits='64'>
            <parameter type-id='type-id-505' is-artificial='yes'/>
            <return type-id='type-id-29'/>
          </function-decl>
        </member-function>
        <member-function access='private'>
          <function-decl name='__normal_iterator' filepath='/usr/lib/gcc/x86_64-redhat-linux/4.4.7/../../../../include/c++/4.4.7/bits/stl_iterator.h' line='686' column='1' visibility='default' binding='global' size-in-bits='64'>
            <parameter type-id='type-id-505' is-artificial='yes'/>
            <parameter type-id='type-id-506'/>
            <return type-id='type-id-29'/>
          </function-decl>
        </member-function>
      </class-decl>
    </namespace-decl>
    <namespace-decl name='std'>
      <class-decl name='_Deque_iterator&lt;unsigned char, const unsigned char&amp;, const unsigned char*&gt;' size-in-bits='256' is-struct='yes' visibility='default' filepath='/usr/lib/gcc/x86_64-redhat-linux/4.4.7/../../../../include/c++/4.4.7/bits/stl_deque.h' line='95' column='1' id='type-id-482'>
        <data-member access='public' layout-offset-in-bits='0'>
          <var-decl name='_M_cur' type-id='type-id-89' visibility='default' filepath='/usr/lib/gcc/x86_64-redhat-linux/4.4.7/../../../../include/c++/4.4.7/bits/stl_deque.h' line='111' column='1'/>
        </data-member>
        <data-member access='public' layout-offset-in-bits='64'>
          <var-decl name='_M_first' type-id='type-id-89' visibility='default' filepath='/usr/lib/gcc/x86_64-redhat-linux/4.4.7/../../../../include/c++/4.4.7/bits/stl_deque.h' line='112' column='1'/>
        </data-member>
        <data-member access='public' layout-offset-in-bits='128'>
          <var-decl name='_M_last' type-id='type-id-89' visibility='default' filepath='/usr/lib/gcc/x86_64-redhat-linux/4.4.7/../../../../include/c++/4.4.7/bits/stl_deque.h' line='113' column='1'/>
        </data-member>
        <data-member access='public' layout-offset-in-bits='192'>
          <var-decl name='_M_node' type-id='type-id-468' visibility='default' filepath='/usr/lib/gcc/x86_64-redhat-linux/4.4.7/../../../../include/c++/4.4.7/bits/stl_deque.h' line='114' column='1'/>
        </data-member>
        <member-function access='public'>
          <function-decl name='_Deque_iterator' filepath='/usr/lib/gcc/x86_64-redhat-linux/4.4.7/../../../../include/c++/4.4.7/bits/stl_deque.h' line='116' column='1' visibility='default' binding='global' size-in-bits='64'>
            <parameter type-id='type-id-507' is-artificial='yes'/>
            <parameter type-id='type-id-89'/>
            <parameter type-id='type-id-468'/>
            <return type-id='type-id-29'/>
          </function-decl>
        </member-function>
        <member-function access='public'>
          <function-decl name='_Deque_iterator' filepath='/usr/lib/gcc/x86_64-redhat-linux/4.4.7/../../../../include/c++/4.4.7/bits/stl_deque.h' line='120' column='1' visibility='default' binding='global' size-in-bits='64'>
            <parameter type-id='type-id-507' is-artificial='yes'/>
            <return type-id='type-id-29'/>
          </function-decl>
        </member-function>
        <member-function access='public'>
          <function-decl name='_Deque_iterator' filepath='/usr/lib/gcc/x86_64-redhat-linux/4.4.7/../../../../include/c++/4.4.7/bits/stl_deque.h' line='123' column='1' visibility='default' binding='global' size-in-bits='64'>
            <parameter type-id='type-id-507' is-artificial='yes'/>
            <parameter type-id='type-id-508'/>
            <return type-id='type-id-29'/>
          </function-decl>
        </member-function>
      </class-decl>
    </namespace-decl>
    <namespace-decl name='std'>
      <class-decl name='_Deque_iterator&lt;unsigned char, unsigned char&amp;, unsigned char*&gt;' size-in-bits='256' is-struct='yes' visibility='default' filepath='/usr/lib/gcc/x86_64-redhat-linux/4.4.7/../../../../include/c++/4.4.7/bits/stl_deque.h' line='95' column='1' id='type-id-472'>
        <data-member access='public' layout-offset-in-bits='0'>
          <var-decl name='_M_cur' type-id='type-id-89' visibility='default' filepath='/usr/lib/gcc/x86_64-redhat-linux/4.4.7/../../../../include/c++/4.4.7/bits/stl_deque.h' line='111' column='1'/>
        </data-member>
        <data-member access='public' layout-offset-in-bits='64'>
          <var-decl name='_M_first' type-id='type-id-89' visibility='default' filepath='/usr/lib/gcc/x86_64-redhat-linux/4.4.7/../../../../include/c++/4.4.7/bits/stl_deque.h' line='112' column='1'/>
        </data-member>
        <data-member access='public' layout-offset-in-bits='128'>
          <var-decl name='_M_last' type-id='type-id-89' visibility='default' filepath='/usr/lib/gcc/x86_64-redhat-linux/4.4.7/../../../../include/c++/4.4.7/bits/stl_deque.h' line='113' column='1'/>
        </data-member>
        <data-member access='public' layout-offset-in-bits='192'>
          <var-decl name='_M_node' type-id='type-id-468' visibility='default' filepath='/usr/lib/gcc/x86_64-redhat-linux/4.4.7/../../../../include/c++/4.4.7/bits/stl_deque.h' line='114' column='1'/>
        </data-member>
        <member-function access='public'>
          <function-decl name='_Deque_iterator' filepath='/usr/lib/gcc/x86_64-redhat-linux/4.4.7/../../../../include/c++/4.4.7/bits/stl_deque.h' line='116' column='1' visibility='default' binding='global' size-in-bits='64'>
            <parameter type-id='type-id-509' is-artificial='yes'/>
            <parameter type-id='type-id-89'/>
            <parameter type-id='type-id-468'/>
            <return type-id='type-id-29'/>
          </function-decl>
        </member-function>
        <member-function access='public'>
          <function-decl name='_Deque_iterator' filepath='/usr/lib/gcc/x86_64-redhat-linux/4.4.7/../../../../include/c++/4.4.7/bits/stl_deque.h' line='120' column='1' visibility='default' binding='global' size-in-bits='64'>
            <parameter type-id='type-id-509' is-artificial='yes'/>
            <return type-id='type-id-29'/>
          </function-decl>
        </member-function>
        <member-function access='public'>
          <function-decl name='_Deque_iterator' filepath='/usr/lib/gcc/x86_64-redhat-linux/4.4.7/../../../../include/c++/4.4.7/bits/stl_deque.h' line='123' column='1' visibility='default' binding='global' size-in-bits='64'>
            <parameter type-id='type-id-509' is-artificial='yes'/>
            <parameter type-id='type-id-508'/>
            <return type-id='type-id-29'/>
          </function-decl>
        </member-function>
      </class-decl>
    </namespace-decl>
    <namespace-decl name='std'>
      <class-decl name='deque&lt;unsigned char, std::allocator&lt;unsigned char&gt; &gt;' size-in-bits='640' visibility='default' filepath='/usr/lib/gcc/x86_64-redhat-linux/4.4.7/../../../../include/c++/4.4.7/bits/stl_deque.h' line='639' column='1' id='type-id-57'>
        <base-class access='protected' layout-offset-in-bits='0' type-id='type-id-510'/>
        <member-function access='private'>
          <function-decl name='deque' filepath='/usr/lib/gcc/x86_64-redhat-linux/4.4.7/../../../../include/c++/4.4.7/bits/stl_deque.h' line='690' column='1' visibility='default' binding='global' size-in-bits='64'>
            <parameter type-id='type-id-511' is-artificial='yes'/>
            <return type-id='type-id-29'/>
          </function-decl>
        </member-function>
        <member-function access='private'>
          <function-decl name='deque' filepath='/usr/lib/gcc/x86_64-redhat-linux/4.4.7/../../../../include/c++/4.4.7/bits/stl_deque.h' line='698' column='1' visibility='default' binding='global' size-in-bits='64'>
            <parameter type-id='type-id-511' is-artificial='yes'/>
            <parameter type-id='type-id-251'/>
            <return type-id='type-id-29'/>
          </function-decl>
        </member-function>
        <member-function access='private'>
          <function-decl name='deque' filepath='/usr/lib/gcc/x86_64-redhat-linux/4.4.7/../../../../include/c++/4.4.7/bits/stl_deque.h' line='710' column='1' visibility='default' binding='global' size-in-bits='64'>
            <parameter type-id='type-id-511' is-artificial='yes'/>
            <parameter type-id='type-id-4'/>
            <parameter type-id='type-id-290'/>
            <parameter type-id='type-id-251'/>
            <return type-id='type-id-29'/>
          </function-decl>
        </member-function>
        <member-function access='private'>
          <function-decl name='deque' filepath='/usr/lib/gcc/x86_64-redhat-linux/4.4.7/../../../../include/c++/4.4.7/bits/stl_deque.h' line='722' column='1' visibility='default' binding='global' size-in-bits='64'>
            <parameter type-id='type-id-511' is-artificial='yes'/>
            <parameter type-id='type-id-512'/>
            <return type-id='type-id-29'/>
          </function-decl>
        </member-function>
        <member-function access='private' destructor='yes'>
          <function-decl name='~deque' filepath='/usr/lib/gcc/x86_64-redhat-linux/4.4.7/../../../../include/c++/4.4.7/bits/stl_deque.h' line='789' column='1' visibility='default' binding='global' size-in-bits='64'>
            <parameter type-id='type-id-511' is-artificial='yes'/>
            <parameter type-id='type-id-19' is-artificial='yes'/>
            <return type-id='type-id-29'/>
          </function-decl>
        </member-function>
        <member-function access='protected'>
          <function-decl name='_M_insert_dispatch&lt;std::_Deque_iterator&lt;unsigned char, unsigned char&amp;, unsigned char*&gt; &gt;' filepath='/usr/lib/gcc/x86_64-redhat-linux/4.4.7/../../../../include/c++/4.4.7/bits/stl_deque.h' line='1587' column='1' visibility='default' binding='global' size-in-bits='64'>
            <parameter type-id='type-id-511' is-artificial='yes'/>
            <parameter type-id='type-id-472'/>
            <parameter type-id='type-id-472'/>
            <parameter type-id='type-id-472'/>
            <parameter type-id='type-id-513'/>
            <return type-id='type-id-29'/>
          </function-decl>
        </member-function>
        <member-function access='protected'>
          <function-decl name='_M_insert_dispatch&lt;std::_Deque_iterator&lt;unsigned char, const unsigned char&amp;, const unsigned char*&gt; &gt;' filepath='/usr/lib/gcc/x86_64-redhat-linux/4.4.7/../../../../include/c++/4.4.7/bits/stl_deque.h' line='1587' column='1' visibility='default' binding='global' size-in-bits='64'>
            <parameter type-id='type-id-511' is-artificial='yes'/>
            <parameter type-id='type-id-472'/>
            <parameter type-id='type-id-482'/>
            <parameter type-id='type-id-482'/>
            <parameter type-id='type-id-513'/>
            <return type-id='type-id-29'/>
          </function-decl>
        </member-function>
        <member-function access='private'>
          <function-decl name='insert&lt;std::_Deque_iterator&lt;unsigned char, const unsigned char&amp;, const unsigned char*&gt; &gt;' filepath='/usr/lib/gcc/x86_64-redhat-linux/4.4.7/../../../../include/c++/4.4.7/bits/stl_deque.h' line='1345' column='1' visibility='default' binding='global' size-in-bits='64'>
            <parameter type-id='type-id-511' is-artificial='yes'/>
            <parameter type-id='type-id-472'/>
            <parameter type-id='type-id-482'/>
            <parameter type-id='type-id-482'/>
            <return type-id='type-id-29'/>
          </function-decl>
        </member-function>
        <member-function access='private'>
          <function-decl name='insert&lt;std::_Deque_iterator&lt;unsigned char, unsigned char&amp;, unsigned char*&gt; &gt;' filepath='/usr/lib/gcc/x86_64-redhat-linux/4.4.7/../../../../include/c++/4.4.7/bits/stl_deque.h' line='1345' column='1' visibility='default' binding='global' size-in-bits='64'>
            <parameter type-id='type-id-511' is-artificial='yes'/>
            <parameter type-id='type-id-472'/>
            <parameter type-id='type-id-472'/>
            <parameter type-id='type-id-472'/>
            <return type-id='type-id-29'/>
          </function-decl>
        </member-function>
        <member-function access='protected'>
          <function-decl name='_M_reallocate_map' mangled-name='_ZNSt5dequeIhSaIhEE17_M_reallocate_mapEmb' filepath='/usr/lib/gcc/x86_64-redhat-linux/4.4.7/../../../../include/c++/4.4.7/bits/deque.tcc' line='795' column='1' visibility='default' binding='global' size-in-bits='64' elf-symbol-id='_ZNSt5dequeIhSaIhEE17_M_reallocate_mapEmb'>
            <parameter type-id='type-id-514' name='this' is-artificial='yes'/>
            <parameter type-id='type-id-40' name='__nodes_to_add' filepath='/usr/lib/gcc/x86_64-redhat-linux/4.4.7/../../../../include/c++/4.4.7/bits/deque.tcc' line='796' column='1'/>
            <parameter type-id='type-id-1' name='__add_at_front' filepath='/usr/lib/gcc/x86_64-redhat-linux/4.4.7/../../../../include/c++/4.4.7/bits/deque.tcc' line='796' column='1'/>
            <return type-id='type-id-29'/>
          </function-decl>
        </member-function>
        <member-function access='protected'>
          <function-decl name='_M_reserve_map_at_back' mangled-name='_ZNSt5dequeIhSaIhEE22_M_reserve_map_at_backEm' filepath='/usr/lib/gcc/x86_64-redhat-linux/4.4.7/../../../../include/c++/4.4.7/bits/stl_deque.h' line='1715' column='1' declared-inline='yes' visibility='default' binding='global' size-in-bits='64' elf-symbol-id='_ZNSt5dequeIhSaIhEE22_M_reserve_map_at_backEm'>
            <parameter type-id='type-id-514' name='this' is-artificial='yes'/>
            <parameter type-id='type-id-40' name='__nodes_to_add' filepath='/usr/lib/gcc/x86_64-redhat-linux/4.4.7/../../../../include/c++/4.4.7/bits/stl_deque.h' line='1723' column='1'/>
            <return type-id='type-id-29'/>
          </function-decl>
        </member-function>
        <member-function access='protected'>
          <function-decl name='_M_new_elements_at_front' mangled-name='_ZNSt5dequeIhSaIhEE24_M_new_elements_at_frontEm' filepath='/usr/lib/gcc/x86_64-redhat-linux/4.4.7/../../../../include/c++/4.4.7/bits/deque.tcc' line='745' column='1' visibility='default' binding='global' size-in-bits='64' elf-symbol-id='_ZNSt5dequeIhSaIhEE24_M_new_elements_at_frontEm'>
            <parameter type-id='type-id-514' name='this' is-artificial='yes'/>
            <parameter type-id='type-id-40' name='__nodes_to_add' filepath='/usr/lib/gcc/x86_64-redhat-linux/4.4.7/../../../../include/c++/4.4.7/bits/stl_deque.h' line='1723' column='1'/>
            <return type-id='type-id-29'/>
          </function-decl>
        </member-function>
        <member-function access='protected'>
          <function-decl name='_M_new_elements_at_back' mangled-name='_ZNSt5dequeIhSaIhEE23_M_new_elements_at_backEm' filepath='/usr/lib/gcc/x86_64-redhat-linux/4.4.7/../../../../include/c++/4.4.7/bits/deque.tcc' line='770' column='1' visibility='default' binding='global' size-in-bits='64' elf-symbol-id='_ZNSt5dequeIhSaIhEE23_M_new_elements_at_backEm'>
            <parameter type-id='type-id-514' name='this' is-artificial='yes'/>
            <parameter type-id='type-id-40' name='__nodes_to_add' filepath='/usr/lib/gcc/x86_64-redhat-linux/4.4.7/../../../../include/c++/4.4.7/bits/stl_deque.h' line='1723' column='1'/>
            <return type-id='type-id-29'/>
          </function-decl>
        </member-function>
        <member-function access='protected'>
          <function-decl name='_M_reserve_elements_at_front' mangled-name='_ZNSt5dequeIhSaIhEE28_M_reserve_elements_at_frontEm' filepath='/usr/lib/gcc/x86_64-redhat-linux/4.4.7/../../../../include/c++/4.4.7/bits/stl_deque.h' line='1679' column='1' declared-inline='yes' visibility='default' binding='global' size-in-bits='64' elf-symbol-id='_ZNSt5dequeIhSaIhEE28_M_reserve_elements_at_frontEm'>
            <parameter type-id='type-id-514' name='this' is-artificial='yes'/>
            <parameter type-id='type-id-40' name='__n' filepath='/usr/lib/gcc/x86_64-redhat-linux/4.4.7/../../../../include/c++/4.4.7/bits/stl_deque.h' line='1679' column='1'/>
            <return type-id='type-id-472'/>
          </function-decl>
        </member-function>
        <member-function access='protected'>
          <function-decl name='_M_insert_aux&lt;std::_Deque_iterator&lt;unsigned char, unsigned char&amp;, unsigned char*&gt; &gt;' mangled-name='_ZNSt5dequeIhSaIhEE13_M_insert_auxISt15_Deque_iteratorIhRhPhEEEvS6_T_S7_m' filepath='/usr/lib/gcc/x86_64-redhat-linux/4.4.7/../../../../include/c++/4.4.7/bits/deque.tcc' line='635' column='1' visibility='default' binding='global' size-in-bits='64' elf-symbol-id='_ZNSt5dequeIhSaIhEE13_M_insert_auxISt15_Deque_iteratorIhRhPhEEEvS6_T_S7_m'>
            <parameter type-id='type-id-514' name='this' is-artificial='yes'/>
            <parameter type-id='type-id-472' name='__pos' filepath='/usr/lib/gcc/x86_64-redhat-linux/4.4.7/../../../../include/c++/4.4.7/bits/deque.tcc' line='636' column='1'/>
            <parameter type-id='type-id-472' name='__first' filepath='/usr/lib/gcc/x86_64-redhat-linux/4.4.7/../../../../include/c++/4.4.7/bits/deque.tcc' line='637' column='1'/>
            <parameter type-id='type-id-472' name='__last' filepath='/usr/lib/gcc/x86_64-redhat-linux/4.4.7/../../../../include/c++/4.4.7/bits/deque.tcc' line='637' column='1'/>
            <parameter type-id='type-id-40' name='__n' filepath='/usr/lib/gcc/x86_64-redhat-linux/4.4.7/../../../../include/c++/4.4.7/bits/deque.tcc' line='638' column='1'/>
            <return type-id='type-id-29'/>
          </function-decl>
        </member-function>
        <member-function access='protected'>
          <function-decl name='_M_range_insert_aux&lt;std::_Deque_iterator&lt;unsigned char, unsigned char&amp;, unsigned char*&gt; &gt;' mangled-name='_ZNSt5dequeIhSaIhEE19_M_range_insert_auxISt15_Deque_iteratorIhRhPhEEEvS6_T_S7_St20forward_iterator_tag' filepath='/usr/lib/gcc/x86_64-redhat-linux/4.4.7/../../../../include/c++/4.4.7/bits/deque.tcc' line='462' column='1' visibility='default' binding='global' size-in-bits='64' elf-symbol-id='_ZNSt5dequeIhSaIhEE19_M_range_insert_auxISt15_Deque_iteratorIhRhPhEEEvS6_T_S7_St20forward_iterator_tag'>
            <parameter type-id='type-id-514' name='this' is-artificial='yes'/>
            <parameter type-id='type-id-472' name='__pos' filepath='/usr/lib/gcc/x86_64-redhat-linux/4.4.7/../../../../include/c++/4.4.7/bits/deque.tcc' line='463' column='1'/>
            <parameter type-id='type-id-472' name='__first' filepath='/usr/lib/gcc/x86_64-redhat-linux/4.4.7/../../../../include/c++/4.4.7/bits/deque.tcc' line='464' column='1'/>
            <parameter type-id='type-id-472' name='__last' filepath='/usr/lib/gcc/x86_64-redhat-linux/4.4.7/../../../../include/c++/4.4.7/bits/deque.tcc' line='464' column='1'/>
            <parameter type-id='type-id-515'/>
            <return type-id='type-id-29'/>
          </function-decl>
        </member-function>
        <member-function access='protected'>
          <function-decl name='_M_insert_aux' mangled-name='_ZNSt5dequeIhSaIhEE13_M_insert_auxESt15_Deque_iteratorIhRhPhEmRKh' filepath='/usr/lib/gcc/x86_64-redhat-linux/4.4.7/../../../../include/c++/4.4.7/bits/deque.tcc' line='549' column='1' visibility='default' binding='global' size-in-bits='64' elf-symbol-id='_ZNSt5dequeIhSaIhEE13_M_insert_auxESt15_Deque_iteratorIhRhPhEmRKh'>
            <parameter type-id='type-id-514' name='this' is-artificial='yes'/>
            <parameter type-id='type-id-472' name='__pos' filepath='/usr/lib/gcc/x86_64-redhat-linux/4.4.7/../../../../include/c++/4.4.7/bits/deque.tcc' line='235' column='1'/>
            <parameter type-id='type-id-40' name='__n' filepath='/usr/lib/gcc/x86_64-redhat-linux/4.4.7/../../../../include/c++/4.4.7/bits/deque.tcc' line='235' column='1'/>
            <parameter type-id='type-id-291' name='__x' filepath='/usr/lib/gcc/x86_64-redhat-linux/4.4.7/../../../../include/c++/4.4.7/bits/deque.tcc' line='235' column='1'/>
            <return type-id='type-id-29'/>
          </function-decl>
        </member-function>
        <member-function access='protected'>
          <function-decl name='_M_insert_aux&lt;std::_Deque_iterator&lt;unsigned char, const unsigned char&amp;, const unsigned char*&gt; &gt;' mangled-name='_ZNSt5dequeIhSaIhEE13_M_insert_auxISt15_Deque_iteratorIhRKhPS4_EEEvS3_IhRhPhET_SB_m' filepath='/usr/lib/gcc/x86_64-redhat-linux/4.4.7/../../../../include/c++/4.4.7/bits/deque.tcc' line='635' column='1' visibility='default' binding='global' size-in-bits='64' elf-symbol-id='_ZNSt5dequeIhSaIhEE13_M_insert_auxISt15_Deque_iteratorIhRKhPS4_EEEvS3_IhRhPhET_SB_m'>
            <parameter type-id='type-id-514' name='this' is-artificial='yes'/>
            <parameter type-id='type-id-472' name='__pos' filepath='/usr/lib/gcc/x86_64-redhat-linux/4.4.7/../../../../include/c++/4.4.7/bits/deque.tcc' line='636' column='1'/>
            <parameter type-id='type-id-482' name='__first' filepath='/usr/lib/gcc/x86_64-redhat-linux/4.4.7/../../../../include/c++/4.4.7/bits/deque.tcc' line='637' column='1'/>
            <parameter type-id='type-id-482' name='__last' filepath='/usr/lib/gcc/x86_64-redhat-linux/4.4.7/../../../../include/c++/4.4.7/bits/deque.tcc' line='637' column='1'/>
            <parameter type-id='type-id-40' name='__n' filepath='/usr/lib/gcc/x86_64-redhat-linux/4.4.7/../../../../include/c++/4.4.7/bits/deque.tcc' line='638' column='1'/>
            <return type-id='type-id-29'/>
          </function-decl>
        </member-function>
        <member-function access='protected'>
          <function-decl name='_M_range_insert_aux&lt;std::_Deque_iterator&lt;unsigned char, const unsigned char&amp;, const unsigned char*&gt; &gt;' mangled-name='_ZNSt5dequeIhSaIhEE19_M_range_insert_auxISt15_Deque_iteratorIhRKhPS4_EEEvS3_IhRhPhET_SB_St20forward_iterator_tag' filepath='/usr/lib/gcc/x86_64-redhat-linux/4.4.7/../../../../include/c++/4.4.7/bits/deque.tcc' line='462' column='1' visibility='default' binding='global' size-in-bits='64' elf-symbol-id='_ZNSt5dequeIhSaIhEE19_M_range_insert_auxISt15_Deque_iteratorIhRKhPS4_EEEvS3_IhRhPhET_SB_St20forward_iterator_tag'>
            <parameter type-id='type-id-514' name='this' is-artificial='yes'/>
            <parameter type-id='type-id-472' name='__pos' filepath='/usr/lib/gcc/x86_64-redhat-linux/4.4.7/../../../../include/c++/4.4.7/bits/deque.tcc' line='463' column='1'/>
            <parameter type-id='type-id-482' name='__first' filepath='/usr/lib/gcc/x86_64-redhat-linux/4.4.7/../../../../include/c++/4.4.7/bits/deque.tcc' line='464' column='1'/>
            <parameter type-id='type-id-482' name='__last' filepath='/usr/lib/gcc/x86_64-redhat-linux/4.4.7/../../../../include/c++/4.4.7/bits/deque.tcc' line='464' column='1'/>
            <parameter type-id='type-id-515'/>
            <return type-id='type-id-29'/>
          </function-decl>
        </member-function>
        <member-function access='private'>
          <function-decl name='operator=' mangled-name='_ZNSt5dequeIhSaIhEEaSERKS1_' filepath='/usr/lib/gcc/x86_64-redhat-linux/4.4.7/../../../../include/c++/4.4.7/bits/deque.tcc' line='64' column='1' visibility='default' binding='global' size-in-bits='64' elf-symbol-id='_ZNSt5dequeIhSaIhEEaSERKS1_'>
            <parameter type-id='type-id-514' name='this' is-artificial='yes'/>
            <parameter type-id='type-id-516' name='__x' filepath='/usr/lib/gcc/x86_64-redhat-linux/4.4.7/../../../../include/c++/4.4.7/bits/deque.tcc' line='65' column='1'/>
            <return type-id='type-id-517'/>
          </function-decl>
        </member-function>
      </class-decl>
    </namespace-decl>
    <class-decl name='vtkAbstractArray' is-struct='yes' visibility='default' is-declaration-only='yes' id='type-id-402'/>
    <class-decl name='vtkCharArray' visibility='default' is-declaration-only='yes' id='type-id-406'/>
    <class-decl name='vtkDataArray' visibility='default' is-declaration-only='yes' id='type-id-408'/>
    <class-decl name='vtkDataObject' visibility='default' is-declaration-only='yes' id='type-id-300'/>
    <class-decl name='vtkDataSet' visibility='default' is-declaration-only='yes' id='type-id-413'/>
    <class-decl name='vtkDataWriter' visibility='default' is-declaration-only='yes' id='type-id-415'/>
    <class-decl name='vtkGarbageCollector' is-struct='yes' visibility='default' is-declaration-only='yes' id='type-id-418'/>
    <class-decl name='vtkGenericDataObjectReader' visibility='default' is-declaration-only='yes' id='type-id-420'/>
    <class-decl name='vtkGenericDataObjectWriter' visibility='default' is-declaration-only='yes' id='type-id-422'/>
    <class-decl name='vtkImageData' visibility='default' is-declaration-only='yes' id='type-id-424'/>
    <class-decl name='vtkMultiBlockDataSet' is-struct='yes' visibility='default' is-declaration-only='yes' id='type-id-426'/>
    <class-decl name='vtkObject' visibility='default' is-declaration-only='yes' id='type-id-119'/>
    <class-decl name='vtkRectilinearGrid' visibility='default' is-declaration-only='yes' id='type-id-429'/>
    <class-decl name='vtkStructuredGrid' visibility='default' is-declaration-only='yes' id='type-id-437'/>
    <reference-type-def kind='lvalue' type-id='type-id-211' size-in-bits='64' id='type-id-474'/>
    <pointer-type-def type-id='type-id-518' size-in-bits='64' id='type-id-479'/>
    <qualified-type-def type-id='type-id-276' id='type-id-82'/>
    <qualified-type-def type-id='type-id-284' id='type-id-87'/>
    <reference-type-def kind='lvalue' type-id='type-id-519' size-in-bits='64' id='type-id-498'/>
    <pointer-type-def type-id='type-id-520' size-in-bits='64' id='type-id-459'/>
    <qualified-type-def type-id='type-id-307' const='yes' id='type-id-64'/>
    <qualified-type-def type-id='type-id-331' id='type-id-79'/>
    <qualified-type-def type-id='type-id-332' id='type-id-69'/>
    <qualified-type-def type-id='type-id-333' id='type-id-77'/>
    <function-type size-in-bits='64' id='type-id-335'>
      <parameter type-id='type-id-14'/>
      <parameter type-id='type-id-14'/>
      <return type-id='type-id-19'/>
    </function-type>
    <function-type size-in-bits='64' id='type-id-367'>
      <parameter type-id='type-id-366'/>
      <return type-id='type-id-366'/>
    </function-type>
    <function-type size-in-bits='64' id='type-id-400'>
      <return type-id='type-id-29'/>
    </function-type>
    <qualified-type-def type-id='type-id-336' id='type-id-76'/>
    <qualified-type-def type-id='type-id-337' id='type-id-73'/>
    <array-type-def dimensions='1' type-id='type-id-40' size-in-bits='256' id='type-id-451'>
      <subrange length='4' type-id='type-id-4' id='type-id-11'/>
    </array-type-def>
    <qualified-type-def type-id='type-id-385' id='type-id-71'/>
    <qualified-type-def type-id='type-id-389' id='type-id-65'/>
    <qualified-type-def type-id='type-id-393' id='type-id-70'/>
    <pointer-type-def type-id='type-id-394' size-in-bits='64' id='type-id-467'/>
    <qualified-type-def type-id='type-id-396' id='type-id-62'/>
    <pointer-type-def type-id='type-id-89' size-in-bits='64' id='type-id-468'/>
    <qualified-type-def type-id='type-id-397' id='type-id-63'/>
    <qualified-type-def type-id='type-id-398' id='type-id-81'/>
    <pointer-type-def type-id='type-id-14' size-in-bits='64' id='type-id-489'/>
    <pointer-type-def type-id='type-id-521' size-in-bits='64' id='type-id-460'/>
    <qualified-type-def type-id='type-id-59' const='yes' id='type-id-61'/>
    <qualified-type-def type-id='type-id-439' id='type-id-75'/>
    <qualified-type-def type-id='type-id-440' id='type-id-74'/>
    <qualified-type-def type-id='type-id-441' id='type-id-68'/>
    <qualified-type-def type-id='type-id-442' id='type-id-78'/>
    <reference-type-def kind='lvalue' type-id='type-id-522' size-in-bits='64' id='type-id-477'/>
    <pointer-type-def type-id='type-id-522' size-in-bits='64' id='type-id-465'/>
    <pointer-type-def type-id='type-id-523' size-in-bits='64' id='type-id-466'/>
    <reference-type-def kind='lvalue' type-id='type-id-524' size-in-bits='64' id='type-id-475'/>
    <pointer-type-def type-id='type-id-524' size-in-bits='64' id='type-id-461'/>
    <pointer-type-def type-id='type-id-525' size-in-bits='64' id='type-id-462'/>
    <reference-type-def kind='lvalue' type-id='type-id-526' size-in-bits='64' id='type-id-476'/>
    <pointer-type-def type-id='type-id-526' size-in-bits='64' id='type-id-463'/>
    <pointer-type-def type-id='type-id-527' size-in-bits='64' id='type-id-464'/>
    <pointer-type-def type-id='type-id-483' size-in-bits='64' id='type-id-503'/>
    <pointer-type-def type-id='type-id-481' size-in-bits='64' id='type-id-505'/>
    <namespace-decl name='std'>
      <class-decl name='_Deque_base&lt;unsigned char, std::allocator&lt;unsigned char&gt; &gt;' size-in-bits='640' visibility='default' filepath='/usr/lib/gcc/x86_64-redhat-linux/4.4.7/../../../../include/c++/4.4.7/bits/stl_deque.h' line='362' column='1' id='type-id-510'>
        <member-type access='protected'>
          <enum-decl name='__anonymous_enum__' is-anonymous='yes' filepath='/usr/lib/gcc/x86_64-redhat-linux/4.4.7/../../../../include/c++/4.4.7/bits/stl_deque.h' line='465' column='1' id='type-id-528'>
            <underlying-type type-id='type-id-25'/>
            <enumerator name='_S_initial_map_size' value='8'/>
          </enum-decl>
        </member-type>
        <member-type access='protected'>
          <class-decl name='_Deque_impl' size-in-bits='640' is-struct='yes' visibility='default' filepath='/usr/lib/gcc/x86_64-redhat-linux/4.4.7/../../../../include/c++/4.4.7/bits/stl_deque.h' line='412' column='1' id='type-id-529'>
            <base-class access='public' layout-offset-in-bits='0' type-id='type-id-249'/>
            <data-member access='public' layout-offset-in-bits='0'>
              <var-decl name='_M_map' type-id='type-id-468' visibility='default' filepath='/usr/lib/gcc/x86_64-redhat-linux/4.4.7/../../../../include/c++/4.4.7/bits/stl_deque.h' line='413' column='1'/>
            </data-member>
            <data-member access='public' layout-offset-in-bits='64'>
              <var-decl name='_M_map_size' type-id='type-id-40' visibility='default' filepath='/usr/lib/gcc/x86_64-redhat-linux/4.4.7/../../../../include/c++/4.4.7/bits/stl_deque.h' line='414' column='1'/>
            </data-member>
            <data-member access='public' layout-offset-in-bits='128'>
              <var-decl name='_M_start' type-id='type-id-472' visibility='default' filepath='/usr/lib/gcc/x86_64-redhat-linux/4.4.7/../../../../include/c++/4.4.7/bits/stl_deque.h' line='415' column='1'/>
            </data-member>
            <data-member access='public' layout-offset-in-bits='384'>
              <var-decl name='_M_finish' type-id='type-id-472' visibility='default' filepath='/usr/lib/gcc/x86_64-redhat-linux/4.4.7/../../../../include/c++/4.4.7/bits/stl_deque.h' line='416' column='1'/>
            </data-member>
            <member-function access='public' constructor='yes'>
              <function-decl name='_Deque_impl' filepath='/usr/lib/gcc/x86_64-redhat-linux/4.4.7/../../../../include/c++/4.4.7/bits/stl_deque.h' line='418' column='1' visibility='default' binding='global' size-in-bits='64'>
                <parameter type-id='type-id-530' is-artificial='yes'/>
                <return type-id='type-id-29'/>
              </function-decl>
            </member-function>
            <member-function access='public' constructor='yes'>
              <function-decl name='_Deque_impl' filepath='/usr/lib/gcc/x86_64-redhat-linux/4.4.7/../../../../include/c++/4.4.7/bits/stl_deque.h' line='423' column='1' visibility='default' binding='global' size-in-bits='64'>
                <parameter type-id='type-id-530' is-artificial='yes'/>
                <parameter type-id='type-id-251'/>
                <return type-id='type-id-29'/>
              </function-decl>
            </member-function>
          </class-decl>
        </member-type>
        <data-member access='protected' layout-offset-in-bits='0'>
          <var-decl name='_M_impl' type-id='type-id-529' visibility='default' filepath='/usr/lib/gcc/x86_64-redhat-linux/4.4.7/../../../../include/c++/4.4.7/bits/stl_deque.h' line='467' column='1'/>
        </data-member>
        <member-function access='private'>
          <function-decl name='_Deque_base' filepath='/usr/lib/gcc/x86_64-redhat-linux/4.4.7/../../../../include/c++/4.4.7/bits/stl_deque.h' line='373' column='1' visibility='default' binding='global' size-in-bits='64'>
            <parameter type-id='type-id-531' is-artificial='yes'/>
            <return type-id='type-id-29'/>
          </function-decl>
        </member-function>
        <member-function access='private'>
          <function-decl name='_Deque_base' filepath='/usr/lib/gcc/x86_64-redhat-linux/4.4.7/../../../../include/c++/4.4.7/bits/stl_deque.h' line='377' column='1' visibility='default' binding='global' size-in-bits='64'>
            <parameter type-id='type-id-531' is-artificial='yes'/>
            <parameter type-id='type-id-251'/>
            <parameter type-id='type-id-4'/>
            <return type-id='type-id-29'/>
          </function-decl>
        </member-function>
        <member-function access='private'>
          <function-decl name='_Deque_base' filepath='/usr/lib/gcc/x86_64-redhat-linux/4.4.7/../../../../include/c++/4.4.7/bits/stl_deque.h' line='381' column='1' visibility='default' binding='global' size-in-bits='64'>
            <parameter type-id='type-id-531' is-artificial='yes'/>
            <parameter type-id='type-id-251'/>
            <return type-id='type-id-29'/>
          </function-decl>
        </member-function>
        <member-function access='private' destructor='yes'>
          <function-decl name='~_Deque_base' filepath='/usr/lib/gcc/x86_64-redhat-linux/4.4.7/../../../../include/c++/4.4.7/bits/stl_deque.h' line='471' column='1' visibility='default' binding='global' size-in-bits='64'>
            <parameter type-id='type-id-531' is-artificial='yes'/>
            <parameter type-id='type-id-19' is-artificial='yes'/>
            <return type-id='type-id-29'/>
          </function-decl>
        </member-function>
        <member-function access='protected'>
          <function-decl name='_M_initialize_map' mangled-name='_ZNSt11_Deque_baseIhSaIhEE17_M_initialize_mapEm' filepath='/usr/lib/gcc/x86_64-redhat-linux/4.4.7/../../../../include/c++/4.4.7/bits/stl_deque.h' line='492' column='1' visibility='default' binding='global' size-in-bits='64' elf-symbol-id='_ZNSt11_Deque_baseIhSaIhEE17_M_initialize_mapEm'>
            <parameter type-id='type-id-532' name='this' is-artificial='yes'/>
            <parameter type-id='type-id-40' name='__num_elements' filepath='/usr/lib/gcc/x86_64-redhat-linux/4.4.7/../../../../include/c++/4.4.7/bits/stl_deque.h' line='493' column='1'/>
            <return type-id='type-id-29'/>
          </function-decl>
        </member-function>
      </class-decl>
    </namespace-decl>
    <namespace-decl name='std'>
      <class-decl name='__false_type' size-in-bits='8' is-struct='yes' visibility='default' filepath='/usr/lib/gcc/x86_64-redhat-linux/4.4.7/../../../../include/c++/4.4.7/bits/cpp_type_traits.h' line='79' column='1' id='type-id-513'/>
    </namespace-decl>
    <namespace-decl name='std'>
      <class-decl name='forward_iterator_tag' size-in-bits='8' is-struct='yes' visibility='default' filepath='/usr/lib/gcc/x86_64-redhat-linux/4.4.7/../../../../include/c++/4.4.7/bits/stl_iterator_base_types.h' line='83' column='1' id='type-id-515'>
        <base-class access='public' layout-offset-in-bits='0' type-id='type-id-533'/>
      </class-decl>
    </namespace-decl>
    <class-decl name='vtkMultiProcessController' size-in-bits='896' is-struct='yes' visibility='default' filepath='/tmp/legendre/spack-stage/spack-stage-R_crTC/VTK-6.1.0/Parallel/Core/vtkMultiProcessController.h' line='63' column='1' id='type-id-534'>
      <member-type access='private'>
        <class-decl name='vtkInternal' size-in-bits='960' visibility='default' filepath='/tmp/legendre/spack-stage/spack-stage-R_crTC/VTK-6.1.0/Parallel/Core/vtkMultiProcessController.cxx' line='45' column='1' id='type-id-535'>
          <member-type access='private'>
            <class-decl name='vtkRMICallback' size-in-bits='192' visibility='default' filepath='/tmp/legendre/spack-stage/spack-stage-R_crTC/VTK-6.1.0/Parallel/Core/vtkMultiProcessController.cxx' line='51' column='1' id='type-id-521'>
              <data-member access='private' layout-offset-in-bits='0'>
                <var-decl name='Id' type-id='type-id-4' visibility='default' filepath='/tmp/legendre/spack-stage/spack-stage-R_crTC/VTK-6.1.0/Parallel/Core/vtkMultiProcessController.cxx' line='53' column='1'/>
              </data-member>
              <data-member access='private' layout-offset-in-bits='64'>
                <var-decl name='Function' type-id='type-id-536' visibility='default' filepath='/tmp/legendre/spack-stage/spack-stage-R_crTC/VTK-6.1.0/Parallel/Core/vtkMultiProcessController.cxx' line='54' column='1'/>
              </data-member>
              <data-member access='private' layout-offset-in-bits='128'>
                <var-decl name='LocalArgument' type-id='type-id-14' visibility='default' filepath='/tmp/legendre/spack-stage/spack-stage-R_crTC/VTK-6.1.0/Parallel/Core/vtkMultiProcessController.cxx' line='55' column='1'/>
              </data-member>
            </class-decl>
          </member-type>
        </class-decl>
      </member-type>
    </class-decl>
    <reference-type-def kind='lvalue' type-id='type-id-537' size-in-bits='64' id='type-id-504'/>
    <qualified-type-def type-id='type-id-342' const='yes' id='type-id-518'/>
    <reference-type-def kind='lvalue' type-id='type-id-538' size-in-bits='64' id='type-id-508'/>
    <reference-type-def kind='lvalue' type-id='type-id-539' size-in-bits='64' id='type-id-512'/>
    <qualified-type-def type-id='type-id-512' id='type-id-516'/>
    <qualified-type-def type-id='type-id-86' const='yes' id='type-id-519'/>
    <qualified-type-def type-id='type-id-521' const='yes' id='type-id-520'/>
    <reference-type-def kind='lvalue' type-id='type-id-540' size-in-bits='64' id='type-id-506'/>
    <pointer-type-def type-id='type-id-482' size-in-bits='64' id='type-id-507'/>
    <pointer-type-def type-id='type-id-472' size-in-bits='64' id='type-id-509'/>
    <reference-type-def kind='lvalue' type-id='type-id-57' size-in-bits='64' id='type-id-517'/>
    <pointer-type-def type-id='type-id-57' size-in-bits='64' id='type-id-511'/>
    <qualified-type-def type-id='type-id-511' const='yes' id='type-id-514'/>
    <pointer-type-def type-id='type-id-541' size-in-bits='64' id='type-id-523'/>
    <qualified-type-def type-id='type-id-523' const='yes' id='type-id-522'/>
    <pointer-type-def type-id='type-id-542' size-in-bits='64' id='type-id-525'/>
    <qualified-type-def type-id='type-id-525' const='yes' id='type-id-524'/>
    <pointer-type-def type-id='type-id-543' size-in-bits='64' id='type-id-527'/>
    <qualified-type-def type-id='type-id-527' const='yes' id='type-id-526'/>
    <namespace-decl name='std'>
      <class-decl name='input_iterator_tag' size-in-bits='8' is-struct='yes' visibility='default' filepath='/usr/lib/gcc/x86_64-redhat-linux/4.4.7/../../../../include/c++/4.4.7/bits/stl_iterator_base_types.h' line='79' column='1' id='type-id-533'/>
    </namespace-decl>
    <namespace-decl name='vtksys'>
      <class-decl name='_Hashtable_node&lt;std::pair&lt;const int, std::vector&lt;vtkMultiProcessController::vtkInternal::vtkRMICallback, std::allocator&lt;vtkMultiProcessController::vtkInternal::vtkRMICallback&gt; &gt; &gt; &gt;' is-struct='yes' visibility='default' is-declaration-only='yes' id='type-id-541'/>
    </namespace-decl>
    <namespace-decl name='vtksys'>
      <class-decl name='_Hashtable_node&lt;std::pair&lt;const int, void (*)(vtkMultiProcessController*, void*)&gt; &gt;' is-struct='yes' visibility='default' is-declaration-only='yes' id='type-id-542'/>
    </namespace-decl>
    <namespace-decl name='vtksys'>
      <class-decl name='_Hashtable_node&lt;std::pair&lt;const int, void*&gt; &gt;' is-struct='yes' visibility='default' is-declaration-only='yes' id='type-id-543'/>
    </namespace-decl>
    <qualified-type-def type-id='type-id-102' const='yes' id='type-id-537'/>
    <qualified-type-def type-id='type-id-472' const='yes' id='type-id-538'/>
    <qualified-type-def type-id='type-id-57' const='yes' id='type-id-539'/>
    <qualified-type-def type-id='type-id-459' const='yes' id='type-id-540'/>
    <pointer-type-def type-id='type-id-510' size-in-bits='64' id='type-id-531'/>
    <qualified-type-def type-id='type-id-531' const='yes' id='type-id-532'/>
    <pointer-type-def type-id='type-id-529' size-in-bits='64' id='type-id-530'/>
    <typedef-decl name='vtkRMIFunctionType' type-id='type-id-544' filepath='/tmp/legendre/spack-stage/spack-stage-R_crTC/VTK-6.1.0/Parallel/Core/vtkMultiProcessController.h' line='58' column='1' id='type-id-536'/>
    <pointer-type-def type-id='type-id-545' size-in-bits='64' id='type-id-544'/>
  </abi-instr>
  <abi-instr address-size='64' path='/tmp/legendre/spack-stage/spack-stage-R_crTC/VTK-6.1.0/Parallel/Core/vtkDummyCommunicator.cxx' comp-dir-path='/tmp/legendre/spack-stage/spack-stage-R_crTC/VTK-6.1.0/spack-build/Parallel/Core' language='LANG_C_plus_plus'>
    <class-decl name='vtkDummyCommunicator' size-in-bits='576' visibility='default' filepath='/tmp/legendre/spack-stage/spack-stage-R_crTC/VTK-6.1.0/Parallel/Core/vtkDummyCommunicator.h' line='32' column='1' id='type-id-546'>
      <base-class access='public' layout-offset-in-bits='0' type-id='type-id-118'/>
      <member-function access='protected' constructor='yes'>
        <function-decl name='vtkDummyCommunicator' mangled-name='_ZN20vtkDummyCommunicatorC1Ev' filepath='/tmp/legendre/spack-stage/spack-stage-R_crTC/VTK-6.1.0/Parallel/Core/vtkDummyCommunicator.cxx' line='22' column='1' visibility='default' binding='global' size-in-bits='64' elf-symbol-id='_ZN20vtkDummyCommunicatorC1Ev'>
          <parameter type-id='type-id-547' is-artificial='yes'/>
          <return type-id='type-id-29'/>
        </function-decl>
      </member-function>
      <member-function access='private' constructor='yes'>
        <function-decl name='vtkDummyCommunicator' filepath='/tmp/legendre/spack-stage/spack-stage-R_crTC/VTK-6.1.0/Parallel/Core/vtkDummyCommunicator.h' line='55' column='1' visibility='default' binding='global' size-in-bits='64'>
          <parameter type-id='type-id-547' is-artificial='yes'/>
          <parameter type-id='type-id-548'/>
          <return type-id='type-id-29'/>
        </function-decl>
      </member-function>
      <member-function access='private' static='yes'>
        <function-decl name='New' mangled-name='_ZN20vtkDummyCommunicator3NewEv' filepath='/tmp/legendre/spack-stage/spack-stage-R_crTC/VTK-6.1.0/Parallel/Core/vtkDummyCommunicator.cxx' line='19' column='1' visibility='default' binding='global' size-in-bits='64' elf-symbol-id='_ZN20vtkDummyCommunicator3NewEv'>
          <return type-id='type-id-547'/>
        </function-decl>
      </member-function>
      <member-function access='protected' destructor='yes' vtable-offset='-1'>
        <function-decl name='~vtkDummyCommunicator' mangled-name='_ZN20vtkDummyCommunicatorD1Ev' filepath='/tmp/legendre/spack-stage/spack-stage-R_crTC/VTK-6.1.0/Parallel/Core/vtkDummyCommunicator.cxx' line='27' column='1' visibility='default' binding='global' size-in-bits='64' elf-symbol-id='_ZN20vtkDummyCommunicatorD1Ev'>
          <parameter type-id='type-id-547' is-artificial='yes'/>
          <parameter type-id='type-id-19' is-artificial='yes'/>
          <return type-id='type-id-29'/>
        </function-decl>
      </member-function>
      <member-function access='private' vtable-offset='0'>
        <function-decl name='GetClassNameInternal' mangled-name='_ZNK20vtkDummyCommunicator20GetClassNameInternalEv' filepath='/tmp/legendre/spack-stage/spack-stage-R_crTC/VTK-6.1.0/Parallel/Core/vtkDummyCommunicator.h' line='34' column='1' visibility='default' binding='global' size-in-bits='64'>
          <parameter type-id='type-id-549' is-artificial='yes'/>
          <return type-id='type-id-102'/>
        </function-decl>
      </member-function>
      <member-function access='private' vtable-offset='1'>
        <function-decl name='IsA' mangled-name='_ZN20vtkDummyCommunicator3IsAEPKc' filepath='/tmp/legendre/spack-stage/spack-stage-R_crTC/VTK-6.1.0/Parallel/Core/vtkDummyCommunicator.h' line='34' column='1' visibility='default' binding='global' size-in-bits='64'>
          <parameter type-id='type-id-547' is-artificial='yes'/>
          <parameter type-id='type-id-102'/>
          <return type-id='type-id-19'/>
        </function-decl>
      </member-function>
      <member-function access='private' vtable-offset='4'>
        <function-decl name='PrintSelf' mangled-name='_ZN20vtkDummyCommunicator9PrintSelfERSo9vtkIndent' filepath='/tmp/legendre/spack-stage/spack-stage-R_crTC/VTK-6.1.0/Parallel/Core/vtkDummyCommunicator.cxx' line='31' column='1' visibility='default' binding='global' size-in-bits='64' elf-symbol-id='_ZN20vtkDummyCommunicator9PrintSelfERSo9vtkIndent'>
          <parameter type-id='type-id-547' is-artificial='yes'/>
          <parameter type-id='type-id-133'/>
          <parameter type-id='type-id-51'/>
          <return type-id='type-id-29'/>
        </function-decl>
      </member-function>
      <member-function access='protected' vtable-offset='15'>
        <function-decl name='NewInstanceInternal' mangled-name='_ZNK20vtkDummyCommunicator19NewInstanceInternalEv' filepath='/tmp/legendre/spack-stage/spack-stage-R_crTC/VTK-6.1.0/Parallel/Core/vtkDummyCommunicator.h' line='34' column='1' visibility='default' binding='global' size-in-bits='64'>
          <parameter type-id='type-id-549' is-artificial='yes'/>
          <return type-id='type-id-134'/>
        </function-decl>
      </member-function>
      <member-function access='private' vtable-offset='23'>
        <function-decl name='SendVoidArray' mangled-name='_ZN20vtkDummyCommunicator13SendVoidArrayEPKvxiii' filepath='/tmp/legendre/spack-stage/spack-stage-R_crTC/VTK-6.1.0/Parallel/Core/vtkDummyCommunicator.h' line='41' column='1' visibility='default' binding='global' size-in-bits='64'>
          <parameter type-id='type-id-547' is-artificial='yes'/>
          <parameter type-id='type-id-14'/>
          <parameter type-id='type-id-124'/>
          <parameter type-id='type-id-19'/>
          <parameter type-id='type-id-19'/>
          <parameter type-id='type-id-19'/>
          <return type-id='type-id-19'/>
        </function-decl>
      </member-function>
      <member-function access='private' vtable-offset='24'>
        <function-decl name='ReceiveVoidArray' mangled-name='_ZN20vtkDummyCommunicator16ReceiveVoidArrayEPvxiii' filepath='/tmp/legendre/spack-stage/spack-stage-R_crTC/VTK-6.1.0/Parallel/Core/vtkDummyCommunicator.h' line='45' column='1' visibility='default' binding='global' size-in-bits='64'>
          <parameter type-id='type-id-547' is-artificial='yes'/>
          <parameter type-id='type-id-14'/>
          <parameter type-id='type-id-124'/>
          <parameter type-id='type-id-19'/>
          <parameter type-id='type-id-19'/>
          <parameter type-id='type-id-19'/>
          <return type-id='type-id-19'/>
        </function-decl>
      </member-function>
    </class-decl>
    <qualified-type-def type-id='type-id-546' const='yes' id='type-id-550'/>
    <reference-type-def kind='lvalue' type-id='type-id-550' size-in-bits='64' id='type-id-548'/>
    <pointer-type-def type-id='type-id-550' size-in-bits='64' id='type-id-549'/>
    <pointer-type-def type-id='type-id-546' size-in-bits='64' id='type-id-547'/>
  </abi-instr>
  <abi-instr address-size='64' path='/tmp/legendre/spack-stage/spack-stage-R_crTC/VTK-6.1.0/Parallel/Core/vtkDummyController.cxx' comp-dir-path='/tmp/legendre/spack-stage/spack-stage-R_crTC/VTK-6.1.0/spack-build/Parallel/Core' language='LANG_C_plus_plus'>
    <class-decl name='vtkMultiProcessController' size-in-bits='896' is-struct='yes' visibility='default' filepath='/tmp/legendre/spack-stage/spack-stage-R_crTC/VTK-6.1.0/Parallel/Core/vtkMultiProcessController.h' line='63' column='1' id='type-id-534'>
      <base-class access='public' layout-offset-in-bits='0' type-id='type-id-119'/>
      <member-type access='public'>
        <enum-decl name='Errors' filepath='/tmp/legendre/spack-stage/spack-stage-R_crTC/VTK-6.1.0/Parallel/Core/vtkMultiProcessController.h' line='296' column='1' id='type-id-551'>
          <underlying-type type-id='type-id-25'/>
          <enumerator name='RMI_NO_ERROR' value='0'/>
          <enumerator name='RMI_TAG_ERROR' value='1'/>
          <enumerator name='RMI_ARG_ERROR' value='2'/>
        </enum-decl>
      </member-type>
      <member-type access='public'>
        <enum-decl name='Consts' filepath='/tmp/legendre/spack-stage/spack-stage-R_crTC/VTK-6.1.0/Parallel/Core/vtkMultiProcessController.h' line='303' column='1' id='type-id-552'>
          <underlying-type type-id='type-id-25'/>
          <enumerator name='ANY_SOURCE' value='-1'/>
          <enumerator name='INVALID_SOURCE' value='-2'/>
        </enum-decl>
      </member-type>
      <member-type access='public'>
        <enum-decl name='Tags' filepath='/tmp/legendre/spack-stage/spack-stage-R_crTC/VTK-6.1.0/Parallel/Core/vtkMultiProcessController.h' line='309' column='1' id='type-id-553'>
          <underlying-type type-id='type-id-25'/>
          <enumerator name='RMI_TAG' value='1'/>
          <enumerator name='RMI_ARG_TAG' value='2'/>
          <enumerator name='BREAK_RMI_TAG' value='3'/>
          <enumerator name='XML_WRITER_DATA_INFO' value='4'/>
        </enum-decl>
      </member-type>
      <member-type access='private'>
        <class-decl name='vtkInternal' size-in-bits='960' visibility='default' filepath='/tmp/legendre/spack-stage/spack-stage-R_crTC/VTK-6.1.0/Parallel/Core/vtkMultiProcessController.cxx' line='45' column='1' id='type-id-535'>
          <member-type access='private'>
            <class-decl name='vtkRMICallback' size-in-bits='192' visibility='default' filepath='/tmp/legendre/spack-stage/spack-stage-R_crTC/VTK-6.1.0/Parallel/Core/vtkMultiProcessController.cxx' line='51' column='1' id='type-id-521'>
              <data-member access='private' layout-offset-in-bits='0'>
                <var-decl name='Id' type-id='type-id-4' visibility='default' filepath='/tmp/legendre/spack-stage/spack-stage-R_crTC/VTK-6.1.0/Parallel/Core/vtkMultiProcessController.cxx' line='53' column='1'/>
              </data-member>
              <data-member access='private' layout-offset-in-bits='64'>
                <var-decl name='Function' type-id='type-id-536' visibility='default' filepath='/tmp/legendre/spack-stage/spack-stage-R_crTC/VTK-6.1.0/Parallel/Core/vtkMultiProcessController.cxx' line='54' column='1'/>
              </data-member>
              <data-member access='private' layout-offset-in-bits='128'>
                <var-decl name='LocalArgument' type-id='type-id-14' visibility='default' filepath='/tmp/legendre/spack-stage/spack-stage-R_crTC/VTK-6.1.0/Parallel/Core/vtkMultiProcessController.cxx' line='55' column='1'/>
              </data-member>
            </class-decl>
          </member-type>
          <member-type access='private'>
            <typedef-decl name='RMICallbackMap' type-id='type-id-555' filepath='/tmp/legendre/spack-stage/spack-stage-R_crTC/VTK-6.1.0/Parallel/Core/vtkMultiProcessController.cxx' line='61' column='1' id='type-id-554'/>
          </member-type>
          <data-member access='private' layout-offset-in-bits='0'>
            <var-decl name='MultipleMethod' type-id='type-id-556' visibility='default' filepath='/tmp/legendre/spack-stage/spack-stage-R_crTC/VTK-6.1.0/Parallel/Core/vtkMultiProcessController.cxx' line='47' column='1'/>
          </data-member>
          <data-member access='private' layout-offset-in-bits='320'>
            <var-decl name='MultipleData' type-id='type-id-557' visibility='default' filepath='/tmp/legendre/spack-stage/spack-stage-R_crTC/VTK-6.1.0/Parallel/Core/vtkMultiProcessController.cxx' line='48' column='1'/>
          </data-member>
          <data-member access='private' layout-offset-in-bits='640'>
            <var-decl name='RMICallbacks' type-id='type-id-554' visibility='default' filepath='/tmp/legendre/spack-stage/spack-stage-R_crTC/VTK-6.1.0/Parallel/Core/vtkMultiProcessController.cxx' line='62' column='1'/>
          </data-member>
        </class-decl>
      </member-type>
      <data-member access='protected' layout-offset-in-bits='384'>
        <var-decl name='SingleMethod' type-id='type-id-558' visibility='default' filepath='/tmp/legendre/spack-stage/spack-stage-R_crTC/VTK-6.1.0/Parallel/Core/vtkMultiProcessController.h' line='981' column='1'/>
      </data-member>
      <data-member access='protected' layout-offset-in-bits='448'>
        <var-decl name='SingleData' type-id='type-id-14' visibility='default' filepath='/tmp/legendre/spack-stage/spack-stage-R_crTC/VTK-6.1.0/Parallel/Core/vtkMultiProcessController.h' line='982' column='1'/>
      </data-member>
      <data-member access='protected' layout-offset-in-bits='512'>
        <var-decl name='BreakFlag' type-id='type-id-19' visibility='default' filepath='/tmp/legendre/spack-stage/spack-stage-R_crTC/VTK-6.1.0/Parallel/Core/vtkMultiProcessController.h' line='988' column='1'/>
      </data-member>
      <data-member access='protected' layout-offset-in-bits='544'>
        <var-decl name='ForceDeepCopy' type-id='type-id-19' visibility='default' filepath='/tmp/legendre/spack-stage/spack-stage-R_crTC/VTK-6.1.0/Parallel/Core/vtkMultiProcessController.h' line='998' column='1'/>
      </data-member>
      <data-member access='protected' layout-offset-in-bits='576'>
        <var-decl name='OutputWindow' type-id='type-id-559' visibility='default' filepath='/tmp/legendre/spack-stage/spack-stage-R_crTC/VTK-6.1.0/Parallel/Core/vtkMultiProcessController.h' line='1000' column='1'/>
      </data-member>
      <data-member access='protected' layout-offset-in-bits='640'>
        <var-decl name='Communicator' type-id='type-id-125' visibility='default' filepath='/tmp/legendre/spack-stage/spack-stage-R_crTC/VTK-6.1.0/Parallel/Core/vtkMultiProcessController.h' line='1005' column='1'/>
      </data-member>
      <data-member access='protected' layout-offset-in-bits='704'>
        <var-decl name='RMICommunicator' type-id='type-id-125' visibility='default' filepath='/tmp/legendre/spack-stage/spack-stage-R_crTC/VTK-6.1.0/Parallel/Core/vtkMultiProcessController.h' line='1014' column='1'/>
      </data-member>
      <data-member access='private' layout-offset-in-bits='768'>
        <var-decl name='RMICount' type-id='type-id-4' visibility='default' filepath='/tmp/legendre/spack-stage/spack-stage-R_crTC/VTK-6.1.0/Parallel/Core/vtkMultiProcessController.h' line='1020' column='1'/>
      </data-member>
      <data-member access='private' layout-offset-in-bits='832'>
        <var-decl name='Internal' type-id='type-id-560' visibility='default' filepath='/tmp/legendre/spack-stage/spack-stage-R_crTC/VTK-6.1.0/Parallel/Core/vtkMultiProcessController.h' line='1024' column='1'/>
      </data-member>
      <member-function access='protected' constructor='yes'>
        <function-decl name='vtkMultiProcessController' mangled-name='_ZN25vtkMultiProcessControllerC2Ev' filepath='/tmp/legendre/spack-stage/spack-stage-R_crTC/VTK-6.1.0/Parallel/Core/vtkMultiProcessController.cxx' line='88' column='1' visibility='default' binding='global' size-in-bits='64' elf-symbol-id='_ZN25vtkMultiProcessControllerC2Ev'>
          <parameter type-id='type-id-561' is-artificial='yes'/>
          <return type-id='type-id-29'/>
        </function-decl>
      </member-function>
      <member-function access='private' constructor='yes'>
        <function-decl name='vtkMultiProcessController' filepath='/tmp/legendre/spack-stage/spack-stage-R_crTC/VTK-6.1.0/Parallel/Core/vtkMultiProcessController.h' line='1017' column='1' visibility='default' binding='global' size-in-bits='64'>
          <parameter type-id='type-id-561' is-artificial='yes'/>
          <parameter type-id='type-id-562'/>
          <return type-id='type-id-29'/>
        </function-decl>
      </member-function>
      <member-function access='public'>
        <function-decl name='SetSingleMethod' mangled-name='_ZN25vtkMultiProcessController15SetSingleMethodEPFvPS_PvES1_' filepath='/tmp/legendre/spack-stage/spack-stage-R_crTC/VTK-6.1.0/Parallel/Core/vtkMultiProcessController.cxx' line='213' column='1' visibility='default' binding='global' size-in-bits='64' elf-symbol-id='_ZN25vtkMultiProcessController15SetSingleMethodEPFvPS_PvES1_'>
          <parameter type-id='type-id-563' name='this' is-artificial='yes'/>
          <parameter type-id='type-id-558' name='f' filepath='/tmp/legendre/spack-stage/spack-stage-R_crTC/VTK-6.1.0/Parallel/Core/vtkMultiProcessController.cxx' line='213' column='1'/>
          <parameter type-id='type-id-14' name='data' filepath='/tmp/legendre/spack-stage/spack-stage-R_crTC/VTK-6.1.0/Parallel/Core/vtkMultiProcessController.cxx' line='214' column='1'/>
          <return type-id='type-id-29'/>
        </function-decl>
      </member-function>
      <member-function access='public'>
        <function-decl name='SetSingleProcessObject' mangled-name='_ZN25vtkMultiProcessController22SetSingleProcessObjectEP10vtkProcess' filepath='/tmp/legendre/spack-stage/spack-stage-R_crTC/VTK-6.1.0/Parallel/Core/vtkMultiProcessController.cxx' line='221' column='1' visibility='default' binding='global' size-in-bits='64' elf-symbol-id='_ZN25vtkMultiProcessController22SetSingleProcessObjectEP10vtkProcess'>
          <parameter type-id='type-id-563' name='this' is-artificial='yes'/>
          <parameter type-id='type-id-564' name='p' filepath='/tmp/legendre/spack-stage/spack-stage-R_crTC/VTK-6.1.0/Parallel/Core/vtkMultiProcessController.cxx' line='221' column='1'/>
          <return type-id='type-id-29'/>
        </function-decl>
      </member-function>
      <member-function access='public' static='yes'>
        <function-decl name='GetGlobalController' mangled-name='_ZN25vtkMultiProcessController19GetGlobalControllerEv' filepath='/tmp/legendre/spack-stage/spack-stage-R_crTC/VTK-6.1.0/Parallel/Core/vtkMultiProcessController.cxx' line='658' column='1' visibility='default' binding='global' size-in-bits='64' elf-symbol-id='_ZN25vtkMultiProcessController19GetGlobalControllerEv'>
          <return type-id='type-id-561'/>
        </function-decl>
      </member-function>
      <member-function access='public'>
        <function-decl name='GetLocalProcessId' mangled-name='_ZN25vtkMultiProcessController17GetLocalProcessIdEv' filepath='/tmp/legendre/spack-stage/spack-stage-R_crTC/VTK-6.1.0/Parallel/Core/vtkMultiProcessController.cxx' line='199' column='1' visibility='default' binding='global' size-in-bits='64' elf-symbol-id='_ZN25vtkMultiProcessController17GetLocalProcessIdEv'>
          <parameter type-id='type-id-561' is-artificial='yes'/>
          <return type-id='type-id-19'/>
        </function-decl>
      </member-function>
      <member-function access='public'>
        <function-decl name='GetNumberOfProcesses' mangled-name='_ZN25vtkMultiProcessController20GetNumberOfProcessesEv' filepath='/tmp/legendre/spack-stage/spack-stage-R_crTC/VTK-6.1.0/Parallel/Core/vtkMultiProcessController.cxx' line='185' column='1' visibility='default' binding='global' size-in-bits='64' elf-symbol-id='_ZN25vtkMultiProcessController20GetNumberOfProcessesEv'>
          <parameter type-id='type-id-561' is-artificial='yes'/>
          <return type-id='type-id-19'/>
        </function-decl>
      </member-function>
      <member-function access='public'>
        <function-decl name='TriggerRMIOnAllChildren' mangled-name='_ZN25vtkMultiProcessController23TriggerRMIOnAllChildrenEPvii' filepath='/tmp/legendre/spack-stage/spack-stage-R_crTC/VTK-6.1.0/Parallel/Core/vtkMultiProcessController.cxx' line='427' column='1' visibility='default' binding='global' size-in-bits='64' elf-symbol-id='_ZN25vtkMultiProcessController23TriggerRMIOnAllChildrenEPvii'>
          <parameter type-id='type-id-563' name='this' is-artificial='yes'/>
          <parameter type-id='type-id-14' name='arg' filepath='/tmp/legendre/spack-stage/spack-stage-R_crTC/VTK-6.1.0/Parallel/Core/vtkMultiProcessController.cxx' line='428' column='1'/>
          <parameter type-id='type-id-19' name='argLength' filepath='/tmp/legendre/spack-stage/spack-stage-R_crTC/VTK-6.1.0/Parallel/Core/vtkMultiProcessController.cxx' line='428' column='1'/>
          <parameter type-id='type-id-19' name='rmiTag' filepath='/tmp/legendre/spack-stage/spack-stage-R_crTC/VTK-6.1.0/Parallel/Core/vtkMultiProcessController.cxx' line='428' column='1'/>
          <return type-id='type-id-29'/>
        </function-decl>
      </member-function>
      <member-function access='public'>
        <function-decl name='SetNumberOfProcesses' mangled-name='_ZN25vtkMultiProcessController20SetNumberOfProcessesEi' filepath='/tmp/legendre/spack-stage/spack-stage-R_crTC/VTK-6.1.0/Parallel/Core/vtkMultiProcessController.cxx' line='172' column='1' visibility='default' binding='global' size-in-bits='64' elf-symbol-id='_ZN25vtkMultiProcessController20SetNumberOfProcessesEi'>
          <parameter type-id='type-id-561' is-artificial='yes'/>
          <parameter type-id='type-id-19'/>
          <return type-id='type-id-29'/>
        </function-decl>
      </member-function>
      <member-function access='public'>
        <function-decl name='SetGlobalController' mangled-name='_ZN25vtkMultiProcessController19SetGlobalControllerEPS_' filepath='/tmp/legendre/spack-stage/spack-stage-R_crTC/VTK-6.1.0/Parallel/Core/vtkMultiProcessController.cxx' line='675' column='1' visibility='default' binding='global' size-in-bits='64' elf-symbol-id='_ZN25vtkMultiProcessController19SetGlobalControllerEPS_'>
          <parameter type-id='type-id-561' is-artificial='yes'/>
          <return type-id='type-id-29'/>
        </function-decl>
      </member-function>
      <member-function access='public'>
        <function-decl name='SetMultipleMethod' mangled-name='_ZN25vtkMultiProcessController17SetMultipleMethodEiPFvPS_PvES1_' filepath='/tmp/legendre/spack-stage/spack-stage-R_crTC/VTK-6.1.0/Parallel/Core/vtkMultiProcessController.cxx' line='231' column='1' visibility='default' binding='global' size-in-bits='64' elf-symbol-id='_ZN25vtkMultiProcessController17SetMultipleMethodEiPFvPS_PvES1_'>
          <parameter type-id='type-id-563' name='this' is-artificial='yes'/>
          <parameter type-id='type-id-19' name='index' filepath='/tmp/legendre/spack-stage/spack-stage-R_crTC/VTK-6.1.0/Parallel/Core/vtkMultiProcessController.cxx' line='231' column='1'/>
          <parameter type-id='type-id-558' name='f' filepath='/tmp/legendre/spack-stage/spack-stage-R_crTC/VTK-6.1.0/Parallel/Core/vtkMultiProcessController.cxx' line='232' column='1'/>
          <parameter type-id='type-id-14' name='data' filepath='/tmp/legendre/spack-stage/spack-stage-R_crTC/VTK-6.1.0/Parallel/Core/vtkMultiProcessController.cxx' line='232' column='1'/>
          <return type-id='type-id-29'/>
        </function-decl>
      </member-function>
      <member-function access='protected'>
        <function-decl name='GetMultipleMethod' mangled-name='_ZN25vtkMultiProcessController17GetMultipleMethodEiRPFvPS_PvERS1_' filepath='/tmp/legendre/spack-stage/spack-stage-R_crTC/VTK-6.1.0/Parallel/Core/vtkMultiProcessController.cxx' line='248' column='1' visibility='default' binding='global' size-in-bits='64' elf-symbol-id='_ZN25vtkMultiProcessController17GetMultipleMethodEiRPFvPS_PvERS1_'>
          <parameter type-id='type-id-563' name='this' is-artificial='yes'/>
          <parameter type-id='type-id-19' name='index' filepath='/tmp/legendre/spack-stage/spack-stage-R_crTC/VTK-6.1.0/Parallel/Core/vtkMultiProcessController.cxx' line='248' column='1'/>
          <parameter type-id='type-id-565' name='func' filepath='/tmp/legendre/spack-stage/spack-stage-R_crTC/VTK-6.1.0/Parallel/Core/vtkMultiProcessController.cxx' line='249' column='1'/>
          <parameter type-id='type-id-566' name='data' filepath='/tmp/legendre/spack-stage/spack-stage-R_crTC/VTK-6.1.0/Parallel/Core/vtkMultiProcessController.cxx' line='250' column='1'/>
          <return type-id='type-id-29'/>
        </function-decl>
      </member-function>
      <member-function access='protected'>
        <function-decl name='ProcessRMI' mangled-name='_ZN25vtkMultiProcessController10ProcessRMIEiPvii' filepath='/tmp/legendre/spack-stage/spack-stage-R_crTC/VTK-6.1.0/Parallel/Core/vtkMultiProcessController.cxx' line='618' column='1' visibility='default' binding='global' size-in-bits='64' elf-symbol-id='_ZN25vtkMultiProcessController10ProcessRMIEiPvii'>
          <parameter type-id='type-id-563' name='this' is-artificial='yes'/>
          <parameter type-id='type-id-19' name='remoteProcessId' filepath='/tmp/legendre/spack-stage/spack-stage-R_crTC/VTK-6.1.0/Parallel/Core/vtkMultiProcessController.cxx' line='618' column='1'/>
          <parameter type-id='type-id-14' name='arg' filepath='/tmp/legendre/spack-stage/spack-stage-R_crTC/VTK-6.1.0/Parallel/Core/vtkMultiProcessController.cxx' line='619' column='1'/>
          <parameter type-id='type-id-19' name='argLength' filepath='/tmp/legendre/spack-stage/spack-stage-R_crTC/VTK-6.1.0/Parallel/Core/vtkMultiProcessController.cxx' line='619' column='1'/>
          <parameter type-id='type-id-19' name='rmiTag' filepath='/tmp/legendre/spack-stage/spack-stage-R_crTC/VTK-6.1.0/Parallel/Core/vtkMultiProcessController.cxx' line='620' column='1'/>
          <return type-id='type-id-29'/>
        </function-decl>
      </member-function>
      <member-function access='public'>
        <function-decl name='TriggerRMI' mangled-name='_ZN25vtkMultiProcessController10TriggerRMIEiPvii' filepath='/tmp/legendre/spack-stage/spack-stage-R_crTC/VTK-6.1.0/Parallel/Core/vtkMultiProcessController.cxx' line='445' column='1' visibility='default' binding='global' size-in-bits='64' elf-symbol-id='_ZN25vtkMultiProcessController10TriggerRMIEiPvii'>
          <parameter type-id='type-id-563' name='this' is-artificial='yes'/>
          <parameter type-id='type-id-19' name='remoteProcessId' filepath='/tmp/legendre/spack-stage/spack-stage-R_crTC/VTK-6.1.0/Parallel/Core/vtkMultiProcessController.cxx' line='618' column='1'/>
          <parameter type-id='type-id-14' name='arg' filepath='/tmp/legendre/spack-stage/spack-stage-R_crTC/VTK-6.1.0/Parallel/Core/vtkMultiProcessController.cxx' line='619' column='1'/>
          <parameter type-id='type-id-19' name='argLength' filepath='/tmp/legendre/spack-stage/spack-stage-R_crTC/VTK-6.1.0/Parallel/Core/vtkMultiProcessController.cxx' line='619' column='1'/>
          <parameter type-id='type-id-19' name='rmiTag' filepath='/tmp/legendre/spack-stage/spack-stage-R_crTC/VTK-6.1.0/Parallel/Core/vtkMultiProcessController.cxx' line='620' column='1'/>
          <return type-id='type-id-29'/>
        </function-decl>
      </member-function>
      <member-function access='public'>
        <function-decl name='TriggerBreakRMIs' mangled-name='_ZN25vtkMultiProcessController16TriggerBreakRMIsEv' filepath='/tmp/legendre/spack-stage/spack-stage-R_crTC/VTK-6.1.0/Parallel/Core/vtkMultiProcessController.cxx' line='506' column='1' visibility='default' binding='global' size-in-bits='64' elf-symbol-id='_ZN25vtkMultiProcessController16TriggerBreakRMIsEv'>
          <parameter type-id='type-id-561' is-artificial='yes'/>
          <return type-id='type-id-29'/>
        </function-decl>
      </member-function>
      <member-function access='public'>
        <function-decl name='ProcessRMIs' mangled-name='_ZN25vtkMultiProcessController11ProcessRMIsEii' filepath='/tmp/legendre/spack-stage/spack-stage-R_crTC/VTK-6.1.0/Parallel/Core/vtkMultiProcessController.cxx' line='530' column='1' visibility='default' binding='global' size-in-bits='64' elf-symbol-id='_ZN25vtkMultiProcessController11ProcessRMIsEii'>
          <parameter type-id='type-id-563' name='this' is-artificial='yes'/>
          <parameter type-id='type-id-19' name='reportErrors' filepath='/tmp/legendre/spack-stage/spack-stage-R_crTC/VTK-6.1.0/Parallel/Core/vtkMultiProcessController.cxx' line='530' column='1'/>
          <parameter type-id='type-id-19' name='dont_loop' filepath='/tmp/legendre/spack-stage/spack-stage-R_crTC/VTK-6.1.0/Parallel/Core/vtkMultiProcessController.cxx' line='530' column='1'/>
          <return type-id='type-id-19'/>
        </function-decl>
      </member-function>
      <member-function access='public'>
        <function-decl name='ProcessRMIs' mangled-name='_ZN25vtkMultiProcessController11ProcessRMIsEv' filepath='/tmp/legendre/spack-stage/spack-stage-R_crTC/VTK-6.1.0/Parallel/Core/vtkMultiProcessController.cxx' line='524' column='1' visibility='default' binding='global' size-in-bits='64' elf-symbol-id='_ZN25vtkMultiProcessController11ProcessRMIsEv'>
          <parameter type-id='type-id-561' is-artificial='yes'/>
          <return type-id='type-id-19'/>
        </function-decl>
      </member-function>
      <member-function access='protected' destructor='yes' vtable-offset='-1'>
        <function-decl name='~vtkMultiProcessController' mangled-name='_ZN25vtkMultiProcessControllerD1Ev' filepath='/tmp/legendre/spack-stage/spack-stage-R_crTC/VTK-6.1.0/Parallel/Core/vtkMultiProcessController.cxx' line='112' column='1' visibility='default' binding='global' size-in-bits='64' elf-symbol-id='_ZN25vtkMultiProcessControllerD1Ev'>
          <parameter type-id='type-id-561' is-artificial='yes'/>
          <parameter type-id='type-id-19'/>
          <return type-id='type-id-29'/>
        </function-decl>
      </member-function>
      <member-function access='private' vtable-offset='0'>
        <function-decl name='GetClassNameInternal' mangled-name='_ZNK25vtkMultiProcessController20GetClassNameInternalEv' filepath='/tmp/legendre/spack-stage/spack-stage-R_crTC/VTK-6.1.0/Parallel/Core/vtkMultiProcessController.h' line='65' column='1' visibility='default' binding='global' size-in-bits='64'>
          <parameter type-id='type-id-567' is-artificial='yes'/>
          <return type-id='type-id-102'/>
        </function-decl>
      </member-function>
      <member-function access='public' vtable-offset='1'>
        <function-decl name='IsA' mangled-name='_ZN25vtkMultiProcessController3IsAEPKc' filepath='/tmp/legendre/spack-stage/spack-stage-R_crTC/VTK-6.1.0/Parallel/Core/vtkMultiProcessController.h' line='65' column='1' visibility='default' binding='global' size-in-bits='64'>
          <parameter type-id='type-id-561' is-artificial='yes'/>
          <parameter type-id='type-id-102'/>
          <return type-id='type-id-19'/>
        </function-decl>
      </member-function>
      <member-function access='public' vtable-offset='4'>
        <function-decl name='PrintSelf' mangled-name='_ZN25vtkMultiProcessController9PrintSelfERSo9vtkIndent' filepath='/tmp/legendre/spack-stage/spack-stage-R_crTC/VTK-6.1.0/Parallel/Core/vtkMultiProcessController.cxx' line='130' column='1' visibility='default' binding='global' size-in-bits='64' elf-symbol-id='_ZN25vtkMultiProcessController9PrintSelfERSo9vtkIndent'>
          <parameter type-id='type-id-561' is-artificial='yes'/>
          <parameter type-id='type-id-133'/>
          <parameter type-id='type-id-51'/>
          <return type-id='type-id-29'/>
        </function-decl>
      </member-function>
      <member-function access='protected' vtable-offset='15'>
        <function-decl name='NewInstanceInternal' mangled-name='_ZNK25vtkMultiProcessController19NewInstanceInternalEv' filepath='/tmp/legendre/spack-stage/spack-stage-R_crTC/VTK-6.1.0/Parallel/Core/vtkMultiProcessController.h' line='65' column='1' visibility='default' binding='global' size-in-bits='64'>
          <parameter type-id='type-id-567' is-artificial='yes'/>
          <return type-id='type-id-134'/>
        </function-decl>
      </member-function>
      <member-function access='public' vtable-offset='20'>
        <function-decl name='Initialize' mangled-name='_ZN25vtkMultiProcessController10InitializeEPiPPPc' filepath='/tmp/legendre/spack-stage/spack-stage-R_crTC/VTK-6.1.0/Parallel/Core/vtkMultiProcessController.h' line='72' column='1' visibility='default' binding='global' size-in-bits='64'>
          <parameter type-id='type-id-561' is-artificial='yes'/>
          <parameter type-id='type-id-90'/>
          <parameter type-id='type-id-568'/>
          <return type-id='type-id-29'/>
        </function-decl>
      </member-function>
      <member-function access='public' vtable-offset='21'>
        <function-decl name='Initialize' mangled-name='_ZN25vtkMultiProcessController10InitializeEPiPPPci' filepath='/tmp/legendre/spack-stage/spack-stage-R_crTC/VTK-6.1.0/Parallel/Core/vtkMultiProcessController.h' line='78' column='1' visibility='default' binding='global' size-in-bits='64'>
          <parameter type-id='type-id-561' is-artificial='yes'/>
          <parameter type-id='type-id-90'/>
          <parameter type-id='type-id-568'/>
          <parameter type-id='type-id-19'/>
          <return type-id='type-id-29'/>
        </function-decl>
      </member-function>
      <member-function access='public' vtable-offset='22'>
        <function-decl name='Finalize' mangled-name='_ZN25vtkMultiProcessController8FinalizeEv' filepath='/tmp/legendre/spack-stage/spack-stage-R_crTC/VTK-6.1.0/Parallel/Core/vtkMultiProcessController.h' line='85' column='1' visibility='default' binding='global' size-in-bits='64'>
          <parameter type-id='type-id-561' is-artificial='yes'/>
          <return type-id='type-id-29'/>
        </function-decl>
      </member-function>
      <member-function access='public' vtable-offset='23'>
        <function-decl name='Finalize' mangled-name='_ZN25vtkMultiProcessController8FinalizeEi' filepath='/tmp/legendre/spack-stage/spack-stage-R_crTC/VTK-6.1.0/Parallel/Core/vtkMultiProcessController.h' line='91' column='1' visibility='default' binding='global' size-in-bits='64'>
          <parameter type-id='type-id-561' is-artificial='yes'/>
          <parameter type-id='type-id-19'/>
          <return type-id='type-id-29'/>
        </function-decl>
      </member-function>
      <member-function access='public' vtable-offset='24'>
        <function-decl name='SingleMethodExecute' mangled-name='_ZN25vtkMultiProcessController19SingleMethodExecuteEv' filepath='/tmp/legendre/spack-stage/spack-stage-R_crTC/VTK-6.1.0/Parallel/Core/vtkMultiProcessController.h' line='119' column='1' visibility='default' binding='global' size-in-bits='64'>
          <parameter type-id='type-id-561' is-artificial='yes'/>
          <return type-id='type-id-29'/>
        </function-decl>
      </member-function>
      <member-function access='public' vtable-offset='25'>
        <function-decl name='MultipleMethodExecute' mangled-name='_ZN25vtkMultiProcessController21MultipleMethodExecuteEv' filepath='/tmp/legendre/spack-stage/spack-stage-R_crTC/VTK-6.1.0/Parallel/Core/vtkMultiProcessController.h' line='134' column='1' visibility='default' binding='global' size-in-bits='64'>
          <parameter type-id='type-id-561' is-artificial='yes'/>
          <return type-id='type-id-29'/>
        </function-decl>
      </member-function>
      <member-function access='public' vtable-offset='26'>
        <function-decl name='CreateOutputWindow' mangled-name='_ZN25vtkMultiProcessController18CreateOutputWindowEv' filepath='/tmp/legendre/spack-stage/spack-stage-R_crTC/VTK-6.1.0/Parallel/Core/vtkMultiProcessController.h' line='151' column='1' visibility='default' binding='global' size-in-bits='64'>
          <parameter type-id='type-id-561' is-artificial='yes'/>
          <return type-id='type-id-29'/>
        </function-decl>
      </member-function>
      <member-function access='public' vtable-offset='27'>
        <function-decl name='CreateSubController' mangled-name='_ZN25vtkMultiProcessController19CreateSubControllerEP15vtkProcessGroup' filepath='/tmp/legendre/spack-stage/spack-stage-R_crTC/VTK-6.1.0/Parallel/Core/vtkMultiProcessController.cxx' line='266' column='1' visibility='default' binding='global' size-in-bits='64' elf-symbol-id='_ZN25vtkMultiProcessController19CreateSubControllerEP15vtkProcessGroup'>
          <parameter type-id='type-id-561' is-artificial='yes'/>
          <parameter type-id='type-id-569'/>
          <return type-id='type-id-561'/>
        </function-decl>
      </member-function>
      <member-function access='public' vtable-offset='28'>
        <function-decl name='PartitionController' mangled-name='_ZN25vtkMultiProcessController19PartitionControllerEii' filepath='/tmp/legendre/spack-stage/spack-stage-R_crTC/VTK-6.1.0/Parallel/Core/vtkMultiProcessController.cxx' line='298' column='1' visibility='default' binding='global' size-in-bits='64' elf-symbol-id='_ZN25vtkMultiProcessController19PartitionControllerEii'>
          <parameter type-id='type-id-561' is-artificial='yes'/>
          <parameter type-id='type-id-19'/>
          <parameter type-id='type-id-19'/>
          <return type-id='type-id-561'/>
        </function-decl>
      </member-function>
      <member-function access='public' vtable-offset='29'>
        <function-decl name='AddRMI' mangled-name='_ZN25vtkMultiProcessController6AddRMIEPFvPvS0_iiES0_i' filepath='/tmp/legendre/spack-stage/spack-stage-R_crTC/VTK-6.1.0/Parallel/Core/vtkMultiProcessController.cxx' line='418' column='1' visibility='default' binding='global' size-in-bits='64' elf-symbol-id='_ZN25vtkMultiProcessController6AddRMIEPFvPvS0_iiES0_i'>
          <parameter type-id='type-id-561' is-artificial='yes'/>
          <parameter type-id='type-id-536'/>
          <parameter type-id='type-id-14'/>
          <parameter type-id='type-id-19'/>
          <return type-id='type-id-4'/>
        </function-decl>
      </member-function>
      <member-function access='public' vtable-offset='30'>
        <function-decl name='RemoveFirstRMI' mangled-name='_ZN25vtkMultiProcessController14RemoveFirstRMIEi' filepath='/tmp/legendre/spack-stage/spack-stage-R_crTC/VTK-6.1.0/Parallel/Core/vtkMultiProcessController.cxx' line='396' column='1' visibility='default' binding='global' size-in-bits='64' elf-symbol-id='_ZN25vtkMultiProcessController14RemoveFirstRMIEi'>
          <parameter type-id='type-id-561' is-artificial='yes'/>
          <parameter type-id='type-id-19'/>
          <return type-id='type-id-19'/>
        </function-decl>
      </member-function>
      <member-function access='public' vtable-offset='31'>
        <function-decl name='RemoveRMI' mangled-name='_ZN25vtkMultiProcessController9RemoveRMIEm' filepath='/tmp/legendre/spack-stage/spack-stage-R_crTC/VTK-6.1.0/Parallel/Core/vtkMultiProcessController.cxx' line='412' column='1' visibility='default' binding='global' size-in-bits='64' elf-symbol-id='_ZN25vtkMultiProcessController9RemoveRMIEm'>
          <parameter type-id='type-id-561' is-artificial='yes'/>
          <parameter type-id='type-id-4'/>
          <return type-id='type-id-19'/>
        </function-decl>
      </member-function>
      <member-function access='public' vtable-offset='32'>
        <function-decl name='RemoveRMI' mangled-name='_ZN25vtkMultiProcessController9RemoveRMIEPFvPvS0_iiES0_i' filepath='/tmp/legendre/spack-stage/spack-stage-R_crTC/VTK-6.1.0/Parallel/Core/vtkMultiProcessController.h' line='204' column='1' visibility='default' binding='global' size-in-bits='64'>
          <parameter type-id='type-id-561' is-artificial='yes'/>
          <parameter type-id='type-id-536'/>
          <parameter type-id='type-id-14'/>
          <parameter type-id='type-id-19'/>
          <return type-id='type-id-29'/>
        </function-decl>
      </member-function>
      <member-function access='public' vtable-offset='33'>
        <function-decl name='AddRMICallback' mangled-name='_ZN25vtkMultiProcessController14AddRMICallbackEPFvPvS0_iiES0_i' filepath='/tmp/legendre/spack-stage/spack-stage-R_crTC/VTK-6.1.0/Parallel/Core/vtkMultiProcessController.cxx' line='352' column='1' visibility='default' binding='global' size-in-bits='64' elf-symbol-id='_ZN25vtkMultiProcessController14AddRMICallbackEPFvPvS0_iiES0_i'>
          <parameter type-id='type-id-561' is-artificial='yes'/>
          <parameter type-id='type-id-536'/>
          <parameter type-id='type-id-14'/>
          <parameter type-id='type-id-19'/>
          <return type-id='type-id-4'/>
        </function-decl>
      </member-function>
      <member-function access='public' vtable-offset='34'>
        <function-decl name='RemoveAllRMICallbacks' mangled-name='_ZN25vtkMultiProcessController21RemoveAllRMICallbacksEi' filepath='/tmp/legendre/spack-stage/spack-stage-R_crTC/VTK-6.1.0/Parallel/Core/vtkMultiProcessController.cxx' line='364' column='1' visibility='default' binding='global' size-in-bits='64' elf-symbol-id='_ZN25vtkMultiProcessController21RemoveAllRMICallbacksEi'>
          <parameter type-id='type-id-561' is-artificial='yes'/>
          <parameter type-id='type-id-19'/>
          <return type-id='type-id-29'/>
        </function-decl>
      </member-function>
      <member-function access='public' vtable-offset='35'>
        <function-decl name='RemoveRMICallback' mangled-name='_ZN25vtkMultiProcessController17RemoveRMICallbackEm' filepath='/tmp/legendre/spack-stage/spack-stage-R_crTC/VTK-6.1.0/Parallel/Core/vtkMultiProcessController.cxx' line='375' column='1' visibility='default' binding='global' size-in-bits='64' elf-symbol-id='_ZN25vtkMultiProcessController17RemoveRMICallbackEm'>
          <parameter type-id='type-id-561' is-artificial='yes'/>
          <parameter type-id='type-id-4'/>
          <return type-id='type-id-1'/>
        </function-decl>
      </member-function>
      <member-function access='public' vtable-offset='36'>
        <function-decl name='SetBreakFlag' mangled-name='_ZN25vtkMultiProcessController12SetBreakFlagEi' filepath='/tmp/legendre/spack-stage/spack-stage-R_crTC/VTK-6.1.0/Parallel/Core/vtkMultiProcessController.h' line='280' column='1' visibility='default' binding='global' size-in-bits='64'>
          <parameter type-id='type-id-561' is-artificial='yes'/>
          <parameter type-id='type-id-19'/>
          <return type-id='type-id-29'/>
        </function-decl>
      </member-function>
      <member-function access='public' vtable-offset='37'>
        <function-decl name='GetBreakFlag' mangled-name='_ZN25vtkMultiProcessController12GetBreakFlagEv' filepath='/tmp/legendre/spack-stage/spack-stage-R_crTC/VTK-6.1.0/Parallel/Core/vtkMultiProcessController.h' line='281' column='1' visibility='default' binding='global' size-in-bits='64'>
          <parameter type-id='type-id-561' is-artificial='yes'/>
          <return type-id='type-id-19'/>
        </function-decl>
      </member-function>
      <member-function access='public' vtable-offset='38'>
        <function-decl name='GetCommunicator' mangled-name='_ZN25vtkMultiProcessController15GetCommunicatorEv' filepath='/tmp/legendre/spack-stage/spack-stage-R_crTC/VTK-6.1.0/Parallel/Core/vtkMultiProcessController.h' line='286' column='1' visibility='default' binding='global' size-in-bits='64'>
          <parameter type-id='type-id-561' is-artificial='yes'/>
          <return type-id='type-id-125'/>
        </function-decl>
      </member-function>
      <member-function access='protected' vtable-offset='39'>
        <function-decl name='TriggerRMIInternal' mangled-name='_ZN25vtkMultiProcessController18TriggerRMIInternalEiPviib' filepath='/tmp/legendre/spack-stage/spack-stage-R_crTC/VTK-6.1.0/Parallel/Core/vtkMultiProcessController.cxx' line='460' column='1' visibility='default' binding='global' size-in-bits='64' elf-symbol-id='_ZN25vtkMultiProcessController18TriggerRMIInternalEiPviib'>
          <parameter type-id='type-id-561' is-artificial='yes'/>
          <parameter type-id='type-id-19'/>
          <parameter type-id='type-id-14'/>
          <parameter type-id='type-id-19'/>
          <parameter type-id='type-id-19'/>
          <parameter type-id='type-id-1'/>
          <return type-id='type-id-29'/>
        </function-decl>
      </member-function>
      <member-function access='protected' vtable-offset='40'>
        <function-decl name='GetLocalController' mangled-name='_ZN25vtkMultiProcessController18GetLocalControllerEv' filepath='/tmp/legendre/spack-stage/spack-stage-R_crTC/VTK-6.1.0/Parallel/Core/vtkMultiProcessController.cxx' line='669' column='1' visibility='default' binding='global' size-in-bits='64' elf-symbol-id='_ZN25vtkMultiProcessController18GetLocalControllerEv'>
          <parameter type-id='type-id-561' is-artificial='yes'/>
          <return type-id='type-id-561'/>
        </function-decl>
      </member-function>
    </class-decl>
    <typedef-decl name='vtkRMIFunctionType' type-id='type-id-544' filepath='/tmp/legendre/spack-stage/spack-stage-R_crTC/VTK-6.1.0/Parallel/Core/vtkMultiProcessController.h' line='58' column='1' id='type-id-536'/>
    <class-decl name='vtkDummyController' size-in-bits='896' visibility='default' filepath='/tmp/legendre/spack-stage/spack-stage-R_crTC/VTK-6.1.0/Parallel/Core/vtkDummyController.h' line='30' column='1' id='type-id-570'>
      <base-class access='public' layout-offset-in-bits='0' type-id='type-id-534'/>
      <member-function access='protected' constructor='yes'>
        <function-decl name='vtkDummyController' mangled-name='_ZN18vtkDummyControllerC2Ev' filepath='/tmp/legendre/spack-stage/spack-stage-R_crTC/VTK-6.1.0/Parallel/Core/vtkDummyController.cxx' line='25' column='1' visibility='default' binding='global' size-in-bits='64' elf-symbol-id='_ZN18vtkDummyControllerC2Ev'>
          <parameter type-id='type-id-571' is-artificial='yes'/>
          <return type-id='type-id-29'/>
        </function-decl>
      </member-function>
      <member-function access='private' constructor='yes'>
        <function-decl name='vtkDummyController' filepath='/tmp/legendre/spack-stage/spack-stage-R_crTC/VTK-6.1.0/Parallel/Core/vtkDummyController.h' line='72' column='1' visibility='default' binding='global' size-in-bits='64'>
          <parameter type-id='type-id-571' is-artificial='yes'/>
          <parameter type-id='type-id-572'/>
          <return type-id='type-id-29'/>
        </function-decl>
      </member-function>
      <member-function access='private' static='yes'>
        <function-decl name='New' mangled-name='_ZN18vtkDummyController3NewEv' filepath='/tmp/legendre/spack-stage/spack-stage-R_crTC/VTK-6.1.0/Parallel/Core/vtkDummyController.cxx' line='19' column='1' visibility='default' binding='global' size-in-bits='64' elf-symbol-id='_ZN18vtkDummyController3NewEv'>
          <return type-id='type-id-571'/>
        </function-decl>
      </member-function>
      <member-function access='protected' destructor='yes' vtable-offset='-1'>
        <function-decl name='~vtkDummyController' mangled-name='_ZN18vtkDummyControllerD1Ev' filepath='/tmp/legendre/spack-stage/spack-stage-R_crTC/VTK-6.1.0/Parallel/Core/vtkDummyController.cxx' line='31' column='1' visibility='default' binding='global' size-in-bits='64' elf-symbol-id='_ZN18vtkDummyControllerD1Ev'>
          <parameter type-id='type-id-571' is-artificial='yes'/>
          <parameter type-id='type-id-19'/>
          <return type-id='type-id-29'/>
        </function-decl>
      </member-function>
      <member-function access='private' vtable-offset='0'>
        <function-decl name='GetClassNameInternal' mangled-name='_ZNK18vtkDummyController20GetClassNameInternalEv' filepath='/tmp/legendre/spack-stage/spack-stage-R_crTC/VTK-6.1.0/Parallel/Core/vtkDummyController.h' line='33' column='1' visibility='default' binding='global' size-in-bits='64'>
          <parameter type-id='type-id-573' is-artificial='yes'/>
          <return type-id='type-id-102'/>
        </function-decl>
      </member-function>
      <member-function access='private' vtable-offset='1'>
        <function-decl name='IsA' mangled-name='_ZN18vtkDummyController3IsAEPKc' filepath='/tmp/legendre/spack-stage/spack-stage-R_crTC/VTK-6.1.0/Parallel/Core/vtkDummyController.h' line='33' column='1' visibility='default' binding='global' size-in-bits='64'>
          <parameter type-id='type-id-571' is-artificial='yes'/>
          <parameter type-id='type-id-102'/>
          <return type-id='type-id-19'/>
        </function-decl>
      </member-function>
      <member-function access='private' vtable-offset='4'>
        <function-decl name='PrintSelf' mangled-name='_ZN18vtkDummyController9PrintSelfERSo9vtkIndent' filepath='/tmp/legendre/spack-stage/spack-stage-R_crTC/VTK-6.1.0/Parallel/Core/vtkDummyController.cxx' line='37' column='1' visibility='default' binding='global' size-in-bits='64' elf-symbol-id='_ZN18vtkDummyController9PrintSelfERSo9vtkIndent'>
          <parameter type-id='type-id-571' is-artificial='yes'/>
          <parameter type-id='type-id-133'/>
          <parameter type-id='type-id-51'/>
          <return type-id='type-id-29'/>
        </function-decl>
      </member-function>
      <member-function access='protected' vtable-offset='15'>
        <function-decl name='NewInstanceInternal' mangled-name='_ZNK18vtkDummyController19NewInstanceInternalEv' filepath='/tmp/legendre/spack-stage/spack-stage-R_crTC/VTK-6.1.0/Parallel/Core/vtkDummyController.h' line='33' column='1' visibility='default' binding='global' size-in-bits='64'>
          <parameter type-id='type-id-573' is-artificial='yes'/>
          <return type-id='type-id-134'/>
        </function-decl>
      </member-function>
      <member-function access='private' vtable-offset='20'>
        <function-decl name='Initialize' mangled-name='_ZN18vtkDummyController10InitializeEPiPPPc' filepath='/tmp/legendre/spack-stage/spack-stage-R_crTC/VTK-6.1.0/Parallel/Core/vtkDummyController.h' line='39' column='1' visibility='default' binding='global' size-in-bits='64'>
          <parameter type-id='type-id-571' is-artificial='yes'/>
          <parameter type-id='type-id-90'/>
          <parameter type-id='type-id-568'/>
          <return type-id='type-id-29'/>
        </function-decl>
      </member-function>
      <member-function access='private' vtable-offset='21'>
        <function-decl name='Initialize' mangled-name='_ZN18vtkDummyController10InitializeEPiPPPci' filepath='/tmp/legendre/spack-stage/spack-stage-R_crTC/VTK-6.1.0/Parallel/Core/vtkDummyController.h' line='38' column='1' visibility='default' binding='global' size-in-bits='64'>
          <parameter type-id='type-id-571' is-artificial='yes'/>
          <parameter type-id='type-id-90'/>
          <parameter type-id='type-id-568'/>
          <parameter type-id='type-id-19'/>
          <return type-id='type-id-29'/>
        </function-decl>
      </member-function>
      <member-function access='private' vtable-offset='22'>
        <function-decl name='Finalize' mangled-name='_ZN18vtkDummyController8FinalizeEv' filepath='/tmp/legendre/spack-stage/spack-stage-R_crTC/VTK-6.1.0/Parallel/Core/vtkDummyController.h' line='40' column='1' visibility='default' binding='global' size-in-bits='64'>
          <parameter type-id='type-id-571' is-artificial='yes'/>
          <return type-id='type-id-29'/>
        </function-decl>
      </member-function>
      <member-function access='private' vtable-offset='23'>
        <function-decl name='Finalize' mangled-name='_ZN18vtkDummyController8FinalizeEi' filepath='/tmp/legendre/spack-stage/spack-stage-R_crTC/VTK-6.1.0/Parallel/Core/vtkDummyController.h' line='41' column='1' visibility='default' binding='global' size-in-bits='64'>
          <parameter type-id='type-id-571' is-artificial='yes'/>
          <parameter type-id='type-id-19'/>
          <return type-id='type-id-29'/>
        </function-decl>
      </member-function>
      <member-function access='private' vtable-offset='24'>
        <function-decl name='SingleMethodExecute' mangled-name='_ZN18vtkDummyController19SingleMethodExecuteEv' filepath='/tmp/legendre/spack-stage/spack-stage-R_crTC/VTK-6.1.0/Parallel/Core/vtkDummyController.cxx' line='46' column='1' visibility='default' binding='global' size-in-bits='64' elf-symbol-id='_ZN18vtkDummyController19SingleMethodExecuteEv'>
          <parameter type-id='type-id-571' is-artificial='yes'/>
          <return type-id='type-id-29'/>
        </function-decl>
      </member-function>
      <member-function access='private' vtable-offset='25'>
        <function-decl name='MultipleMethodExecute' mangled-name='_ZN18vtkDummyController21MultipleMethodExecuteEv' filepath='/tmp/legendre/spack-stage/spack-stage-R_crTC/VTK-6.1.0/Parallel/Core/vtkDummyController.cxx' line='63' column='1' visibility='default' binding='global' size-in-bits='64' elf-symbol-id='_ZN18vtkDummyController21MultipleMethodExecuteEv'>
          <parameter type-id='type-id-571' is-artificial='yes'/>
          <return type-id='type-id-29'/>
        </function-decl>
      </member-function>
      <member-function access='private' vtable-offset='26'>
        <function-decl name='CreateOutputWindow' mangled-name='_ZN18vtkDummyController18CreateOutputWindowEv' filepath='/tmp/legendre/spack-stage/spack-stage-R_crTC/VTK-6.1.0/Parallel/Core/vtkDummyController.h' line='57' column='1' visibility='default' binding='global' size-in-bits='64'>
          <parameter type-id='type-id-571' is-artificial='yes'/>
          <return type-id='type-id-29'/>
        </function-decl>
      </member-function>
      <member-function access='private' vtable-offset='38'>
        <function-decl name='GetCommunicator' mangled-name='_ZN18vtkDummyController15GetCommunicatorEv' filepath='/tmp/legendre/spack-stage/spack-stage-R_crTC/VTK-6.1.0/Parallel/Core/vtkDummyController.h' line='62' column='1' visibility='default' binding='global' size-in-bits='64'>
          <parameter type-id='type-id-571' is-artificial='yes'/>
          <return type-id='type-id-125'/>
        </function-decl>
      </member-function>
      <member-function access='private' vtable-offset='41'>
        <function-decl name='GetRMICommunicator' mangled-name='_ZN18vtkDummyController18GetRMICommunicatorEv' filepath='/tmp/legendre/spack-stage/spack-stage-R_crTC/VTK-6.1.0/Parallel/Core/vtkDummyController.h' line='63' column='1' visibility='default' binding='global' size-in-bits='64'>
          <parameter type-id='type-id-571' is-artificial='yes'/>
          <return type-id='type-id-125'/>
        </function-decl>
      </member-function>
      <member-function access='private' vtable-offset='42'>
        <function-decl name='SetCommunicator' mangled-name='_ZN18vtkDummyController15SetCommunicatorEP15vtkCommunicator' filepath='/tmp/legendre/spack-stage/spack-stage-R_crTC/VTK-6.1.0/Parallel/Core/vtkDummyController.cxx' line='21' column='1' visibility='default' binding='global' size-in-bits='64' elf-symbol-id='_ZN18vtkDummyController15SetCommunicatorEP15vtkCommunicator'>
          <parameter type-id='type-id-571' is-artificial='yes'/>
          <parameter type-id='type-id-125'/>
          <return type-id='type-id-29'/>
        </function-decl>
      </member-function>
      <member-function access='private' vtable-offset='43'>
        <function-decl name='SetRMICommunicator' mangled-name='_ZN18vtkDummyController18SetRMICommunicatorEP15vtkCommunicator' filepath='/tmp/legendre/spack-stage/spack-stage-R_crTC/VTK-6.1.0/Parallel/Core/vtkDummyController.cxx' line='22' column='1' visibility='default' binding='global' size-in-bits='64' elf-symbol-id='_ZN18vtkDummyController18SetRMICommunicatorEP15vtkCommunicator'>
          <parameter type-id='type-id-571' is-artificial='yes'/>
          <parameter type-id='type-id-125'/>
          <return type-id='type-id-29'/>
        </function-decl>
      </member-function>
    </class-decl>
    <pointer-type-def type-id='type-id-186' size-in-bits='64' id='type-id-568'/>
    <qualified-type-def type-id='type-id-570' const='yes' id='type-id-574'/>
    <reference-type-def kind='lvalue' type-id='type-id-574' size-in-bits='64' id='type-id-572'/>
    <pointer-type-def type-id='type-id-574' size-in-bits='64' id='type-id-573'/>
    <pointer-type-def type-id='type-id-545' size-in-bits='64' id='type-id-544'/>
    <pointer-type-def type-id='type-id-570' size-in-bits='64' id='type-id-571'/>
    <qualified-type-def type-id='type-id-571' const='yes' id='type-id-575'/>
    <pointer-type-def type-id='type-id-534' size-in-bits='64' id='type-id-561'/>
    <namespace-decl name='vtksys'>
      <class-decl name='hash_map&lt;int, std::vector&lt;vtkMultiProcessController::vtkInternal::vtkRMICallback, std::allocator&lt;vtkMultiProcessController::vtkInternal::vtkRMICallback&gt; &gt;, vtksys::hash&lt;int&gt;, std::equal_to&lt;int&gt;, std::allocator&lt;char&gt; &gt;' size-in-bits='320' visibility='default' filepath='/tmp/legendre/spack-stage/spack-stage-R_crTC/VTK-6.1.0/spack-build/Utilities/KWSys/vtksys/hash_map.hxx' line='82' column='1' id='type-id-555'>
        <data-member access='private' layout-offset-in-bits='0'>
          <var-decl name='_M_ht' type-id='type-id-576' visibility='default' filepath='/tmp/legendre/spack-stage/spack-stage-R_crTC/VTK-6.1.0/spack-build/Utilities/KWSys/vtksys/hash_map.hxx' line='86' column='1'/>
        </data-member>
        <member-function access='private'>
          <function-decl name='hash_map' filepath='/tmp/legendre/spack-stage/spack-stage-R_crTC/VTK-6.1.0/spack-build/Utilities/KWSys/vtksys/hash_map.hxx' line='113' column='1' visibility='default' binding='global' size-in-bits='64'>
            <parameter type-id='type-id-577' is-artificial='yes'/>
            <return type-id='type-id-29'/>
          </function-decl>
        </member-function>
        <member-function access='private'>
          <function-decl name='hash_map' filepath='/tmp/legendre/spack-stage/spack-stage-R_crTC/VTK-6.1.0/spack-build/Utilities/KWSys/vtksys/hash_map.hxx' line='114' column='1' visibility='default' binding='global' size-in-bits='64'>
            <parameter type-id='type-id-577' is-artificial='yes'/>
            <parameter type-id='type-id-4'/>
            <return type-id='type-id-29'/>
          </function-decl>
        </member-function>
        <member-function access='private'>
          <function-decl name='hash_map' filepath='/tmp/legendre/spack-stage/spack-stage-R_crTC/VTK-6.1.0/spack-build/Utilities/KWSys/vtksys/hash_map.hxx' line='116' column='1' visibility='default' binding='global' size-in-bits='64'>
            <parameter type-id='type-id-577' is-artificial='yes'/>
            <parameter type-id='type-id-4'/>
            <parameter type-id='type-id-578'/>
            <return type-id='type-id-29'/>
          </function-decl>
        </member-function>
        <member-function access='private'>
          <function-decl name='hash_map' filepath='/tmp/legendre/spack-stage/spack-stage-R_crTC/VTK-6.1.0/spack-build/Utilities/KWSys/vtksys/hash_map.hxx' line='118' column='1' visibility='default' binding='global' size-in-bits='64'>
            <parameter type-id='type-id-577' is-artificial='yes'/>
            <parameter type-id='type-id-4'/>
            <parameter type-id='type-id-578'/>
            <parameter type-id='type-id-579'/>
            <parameter type-id='type-id-580'/>
            <return type-id='type-id-29'/>
          </function-decl>
        </member-function>
      </class-decl>
    </namespace-decl>
    <namespace-decl name='vtksys'>
      <class-decl name='hash_map&lt;int, void (*)(vtkMultiProcessController*, void*), vtksys::hash&lt;int&gt;, std::equal_to&lt;int&gt;, std::allocator&lt;char&gt; &gt;' size-in-bits='320' visibility='default' filepath='/tmp/legendre/spack-stage/spack-stage-R_crTC/VTK-6.1.0/spack-build/Utilities/KWSys/vtksys/hash_map.hxx' line='82' column='1' id='type-id-556'>
        <data-member access='private' layout-offset-in-bits='0'>
          <var-decl name='_M_ht' type-id='type-id-581' visibility='default' filepath='/tmp/legendre/spack-stage/spack-stage-R_crTC/VTK-6.1.0/spack-build/Utilities/KWSys/vtksys/hash_map.hxx' line='86' column='1'/>
        </data-member>
        <member-function access='private'>
          <function-decl name='hash_map' filepath='/tmp/legendre/spack-stage/spack-stage-R_crTC/VTK-6.1.0/spack-build/Utilities/KWSys/vtksys/hash_map.hxx' line='113' column='1' visibility='default' binding='global' size-in-bits='64'>
            <parameter type-id='type-id-582' is-artificial='yes'/>
            <return type-id='type-id-29'/>
          </function-decl>
        </member-function>
        <member-function access='private'>
          <function-decl name='hash_map' filepath='/tmp/legendre/spack-stage/spack-stage-R_crTC/VTK-6.1.0/spack-build/Utilities/KWSys/vtksys/hash_map.hxx' line='114' column='1' visibility='default' binding='global' size-in-bits='64'>
            <parameter type-id='type-id-582' is-artificial='yes'/>
            <parameter type-id='type-id-4'/>
            <return type-id='type-id-29'/>
          </function-decl>
        </member-function>
        <member-function access='private'>
          <function-decl name='hash_map' filepath='/tmp/legendre/spack-stage/spack-stage-R_crTC/VTK-6.1.0/spack-build/Utilities/KWSys/vtksys/hash_map.hxx' line='116' column='1' visibility='default' binding='global' size-in-bits='64'>
            <parameter type-id='type-id-582' is-artificial='yes'/>
            <parameter type-id='type-id-4'/>
            <parameter type-id='type-id-578'/>
            <return type-id='type-id-29'/>
          </function-decl>
        </member-function>
        <member-function access='private'>
          <function-decl name='hash_map' filepath='/tmp/legendre/spack-stage/spack-stage-R_crTC/VTK-6.1.0/spack-build/Utilities/KWSys/vtksys/hash_map.hxx' line='118' column='1' visibility='default' binding='global' size-in-bits='64'>
            <parameter type-id='type-id-582' is-artificial='yes'/>
            <parameter type-id='type-id-4'/>
            <parameter type-id='type-id-578'/>
            <parameter type-id='type-id-579'/>
            <parameter type-id='type-id-583'/>
            <return type-id='type-id-29'/>
          </function-decl>
        </member-function>
      </class-decl>
    </namespace-decl>
    <namespace-decl name='vtksys'>
      <class-decl name='hash_map&lt;int, void*, vtksys::hash&lt;int&gt;, std::equal_to&lt;int&gt;, std::allocator&lt;char&gt; &gt;' size-in-bits='320' visibility='default' filepath='/tmp/legendre/spack-stage/spack-stage-R_crTC/VTK-6.1.0/spack-build/Utilities/KWSys/vtksys/hash_map.hxx' line='82' column='1' id='type-id-557'>
        <data-member access='private' layout-offset-in-bits='0'>
          <var-decl name='_M_ht' type-id='type-id-584' visibility='default' filepath='/tmp/legendre/spack-stage/spack-stage-R_crTC/VTK-6.1.0/spack-build/Utilities/KWSys/vtksys/hash_map.hxx' line='86' column='1'/>
        </data-member>
        <member-function access='private'>
          <function-decl name='hash_map' filepath='/tmp/legendre/spack-stage/spack-stage-R_crTC/VTK-6.1.0/spack-build/Utilities/KWSys/vtksys/hash_map.hxx' line='113' column='1' visibility='default' binding='global' size-in-bits='64'>
            <parameter type-id='type-id-585' is-artificial='yes'/>
            <return type-id='type-id-29'/>
          </function-decl>
        </member-function>
        <member-function access='private'>
          <function-decl name='hash_map' filepath='/tmp/legendre/spack-stage/spack-stage-R_crTC/VTK-6.1.0/spack-build/Utilities/KWSys/vtksys/hash_map.hxx' line='114' column='1' visibility='default' binding='global' size-in-bits='64'>
            <parameter type-id='type-id-585' is-artificial='yes'/>
            <parameter type-id='type-id-4'/>
            <return type-id='type-id-29'/>
          </function-decl>
        </member-function>
        <member-function access='private'>
          <function-decl name='hash_map' filepath='/tmp/legendre/spack-stage/spack-stage-R_crTC/VTK-6.1.0/spack-build/Utilities/KWSys/vtksys/hash_map.hxx' line='116' column='1' visibility='default' binding='global' size-in-bits='64'>
            <parameter type-id='type-id-585' is-artificial='yes'/>
            <parameter type-id='type-id-4'/>
            <parameter type-id='type-id-578'/>
            <return type-id='type-id-29'/>
          </function-decl>
        </member-function>
        <member-function access='private'>
          <function-decl name='hash_map' filepath='/tmp/legendre/spack-stage/spack-stage-R_crTC/VTK-6.1.0/spack-build/Utilities/KWSys/vtksys/hash_map.hxx' line='118' column='1' visibility='default' binding='global' size-in-bits='64'>
            <parameter type-id='type-id-585' is-artificial='yes'/>
            <parameter type-id='type-id-4'/>
            <parameter type-id='type-id-578'/>
            <parameter type-id='type-id-579'/>
            <parameter type-id='type-id-586'/>
            <return type-id='type-id-29'/>
          </function-decl>
        </member-function>
      </class-decl>
    </namespace-decl>
    <reference-type-def kind='lvalue' type-id='type-id-587' size-in-bits='64' id='type-id-562'/>
    <pointer-type-def type-id='type-id-587' size-in-bits='64' id='type-id-567'/>
    <function-type size-in-bits='64' id='type-id-545'>
      <parameter type-id='type-id-14'/>
      <parameter type-id='type-id-14'/>
      <parameter type-id='type-id-19'/>
      <parameter type-id='type-id-19'/>
      <return type-id='type-id-29'/>
    </function-type>
    <typedef-decl name='vtkProcessFunctionType' type-id='type-id-588' filepath='/tmp/legendre/spack-stage/spack-stage-R_crTC/VTK-6.1.0/Parallel/Core/vtkMultiProcessController.h' line='53' column='1' id='type-id-558'/>
    <qualified-type-def type-id='type-id-589' id='type-id-566'/>
    <qualified-type-def type-id='type-id-561' const='yes' id='type-id-563'/>
    <pointer-type-def type-id='type-id-535' size-in-bits='64' id='type-id-560'/>
    <pointer-type-def type-id='type-id-590' size-in-bits='64' id='type-id-559'/>
    <pointer-type-def type-id='type-id-591' size-in-bits='64' id='type-id-564'/>
    <qualified-type-def type-id='type-id-592' id='type-id-565'/>
    <pointer-type-def type-id='type-id-593' size-in-bits='64' id='type-id-569'/>
    <class-decl name='vtkOutputWindow' visibility='default' is-declaration-only='yes' id='type-id-590'/>
    <class-decl name='vtkProcess' size-in-bits='512' visibility='default' filepath='/tmp/legendre/spack-stage/spack-stage-R_crTC/VTK-6.1.0/Parallel/Core/vtkProcess.h' line='44' column='1' id='type-id-591'>
      <base-class access='public' layout-offset-in-bits='0' type-id='type-id-119'/>
      <data-member access='protected' layout-offset-in-bits='384'>
        <var-decl name='Controller' type-id='type-id-561' visibility='default' filepath='/tmp/legendre/spack-stage/spack-stage-R_crTC/VTK-6.1.0/Parallel/Core/vtkProcess.h' line='71' column='1'/>
      </data-member>
      <data-member access='protected' layout-offset-in-bits='448'>
        <var-decl name='ReturnValue' type-id='type-id-19' visibility='default' filepath='/tmp/legendre/spack-stage/spack-stage-R_crTC/VTK-6.1.0/Parallel/Core/vtkProcess.h' line='72' column='1'/>
      </data-member>
      <member-function access='protected' constructor='yes'>
        <function-decl name='vtkProcess' mangled-name='_ZN10vtkProcessC1Ev' filepath='/tmp/legendre/spack-stage/spack-stage-R_crTC/VTK-6.1.0/Parallel/Core/vtkProcess.cxx' line='20' column='1' visibility='default' binding='global' size-in-bits='64' elf-symbol-id='_ZN10vtkProcessC1Ev'>
          <parameter type-id='type-id-564' is-artificial='yes'/>
          <return type-id='type-id-29'/>
        </function-decl>
      </member-function>
      <member-function access='private' constructor='yes'>
        <function-decl name='vtkProcess' filepath='/tmp/legendre/spack-stage/spack-stage-R_crTC/VTK-6.1.0/Parallel/Core/vtkProcess.h' line='75' column='1' visibility='default' binding='global' size-in-bits='64'>
          <parameter type-id='type-id-564' is-artificial='yes'/>
          <parameter type-id='type-id-594'/>
          <return type-id='type-id-29'/>
        </function-decl>
      </member-function>
      <member-function access='private'>
        <function-decl name='GetController' mangled-name='_ZN10vtkProcess13GetControllerEv' filepath='/tmp/legendre/spack-stage/spack-stage-R_crTC/VTK-6.1.0/Parallel/Core/vtkProcess.cxx' line='27' column='1' visibility='default' binding='global' size-in-bits='64' elf-symbol-id='_ZN10vtkProcess13GetControllerEv'>
          <parameter type-id='type-id-595' name='this' is-artificial='yes'/>
          <return type-id='type-id-561'/>
        </function-decl>
      </member-function>
      <member-function access='private'>
        <function-decl name='SetController' mangled-name='_ZN10vtkProcess13SetControllerEP25vtkMultiProcessController' filepath='/tmp/legendre/spack-stage/spack-stage-R_crTC/VTK-6.1.0/Parallel/Core/vtkProcess.cxx' line='33' column='1' visibility='default' binding='global' size-in-bits='64' elf-symbol-id='_ZN10vtkProcess13SetControllerEP25vtkMultiProcessController'>
          <parameter type-id='type-id-595' name='this' is-artificial='yes'/>
          <parameter type-id='type-id-561' name='aController' filepath='/tmp/legendre/spack-stage/spack-stage-R_crTC/VTK-6.1.0/Parallel/Core/vtkProcess.cxx' line='33' column='1'/>
          <return type-id='type-id-29'/>
        </function-decl>
      </member-function>
      <member-function access='private'>
        <function-decl name='GetReturnValue' mangled-name='_ZN10vtkProcess14GetReturnValueEv' filepath='/tmp/legendre/spack-stage/spack-stage-R_crTC/VTK-6.1.0/Parallel/Core/vtkProcess.cxx' line='39' column='1' visibility='default' binding='global' size-in-bits='64' elf-symbol-id='_ZN10vtkProcess14GetReturnValueEv'>
          <parameter type-id='type-id-595' name='this' is-artificial='yes'/>
          <return type-id='type-id-19'/>
        </function-decl>
      </member-function>
      <member-function access='private' vtable-offset='0'>
        <function-decl name='GetClassNameInternal' mangled-name='_ZNK10vtkProcess20GetClassNameInternalEv' filepath='/tmp/legendre/spack-stage/spack-stage-R_crTC/VTK-6.1.0/Parallel/Core/vtkProcess.h' line='46' column='1' visibility='default' binding='global' size-in-bits='64'>
          <parameter type-id='type-id-596' is-artificial='yes'/>
          <return type-id='type-id-102'/>
        </function-decl>
      </member-function>
      <member-function access='private' vtable-offset='1'>
        <function-decl name='IsA' mangled-name='_ZN10vtkProcess3IsAEPKc' filepath='/tmp/legendre/spack-stage/spack-stage-R_crTC/VTK-6.1.0/Parallel/Core/vtkProcess.h' line='46' column='1' visibility='default' binding='global' size-in-bits='64'>
          <parameter type-id='type-id-564' is-artificial='yes'/>
          <parameter type-id='type-id-102'/>
          <return type-id='type-id-19'/>
        </function-decl>
      </member-function>
      <member-function access='private' vtable-offset='4'>
        <function-decl name='PrintSelf' mangled-name='_ZN10vtkProcess9PrintSelfERSo9vtkIndent' filepath='/tmp/legendre/spack-stage/spack-stage-R_crTC/VTK-6.1.0/Parallel/Core/vtkProcess.cxx' line='45' column='1' visibility='default' binding='global' size-in-bits='64' elf-symbol-id='_ZN10vtkProcess9PrintSelfERSo9vtkIndent'>
          <parameter type-id='type-id-564' is-artificial='yes'/>
          <parameter type-id='type-id-133'/>
          <parameter type-id='type-id-51'/>
          <return type-id='type-id-29'/>
        </function-decl>
      </member-function>
      <member-function access='protected' vtable-offset='15'>
        <function-decl name='NewInstanceInternal' mangled-name='_ZNK10vtkProcess19NewInstanceInternalEv' filepath='/tmp/legendre/spack-stage/spack-stage-R_crTC/VTK-6.1.0/Parallel/Core/vtkProcess.h' line='46' column='1' visibility='default' binding='global' size-in-bits='64'>
          <parameter type-id='type-id-596' is-artificial='yes'/>
          <return type-id='type-id-134'/>
        </function-decl>
      </member-function>
      <member-function access='private' vtable-offset='20'>
        <function-decl name='Execute' mangled-name='_ZN10vtkProcess7ExecuteEv' filepath='/tmp/legendre/spack-stage/spack-stage-R_crTC/VTK-6.1.0/Parallel/Core/vtkProcess.h' line='52' column='1' visibility='default' binding='global' size-in-bits='64'>
          <parameter type-id='type-id-564' is-artificial='yes'/>
          <return type-id='type-id-29'/>
        </function-decl>
      </member-function>
    </class-decl>
    <class-decl name='vtkProcessGroup' size-in-bits='576' visibility='default' filepath='/tmp/legendre/spack-stage/spack-stage-R_crTC/VTK-6.1.0/Parallel/Core/vtkProcessGroup.h' line='52' column='1' id='type-id-593'>
      <base-class access='public' layout-offset-in-bits='0' type-id='type-id-119'/>
      <data-member access='protected' layout-offset-in-bits='384'>
        <var-decl name='ProcessIds' type-id='type-id-90' visibility='default' filepath='/tmp/legendre/spack-stage/spack-stage-R_crTC/VTK-6.1.0/Parallel/Core/vtkProcessGroup.h' line='124' column='1'/>
      </data-member>
      <data-member access='protected' layout-offset-in-bits='448'>
        <var-decl name='NumberOfProcessIds' type-id='type-id-19' visibility='default' filepath='/tmp/legendre/spack-stage/spack-stage-R_crTC/VTK-6.1.0/Parallel/Core/vtkProcessGroup.h' line='125' column='1'/>
      </data-member>
      <data-member access='protected' layout-offset-in-bits='512'>
        <var-decl name='Communicator' type-id='type-id-125' visibility='default' filepath='/tmp/legendre/spack-stage/spack-stage-R_crTC/VTK-6.1.0/Parallel/Core/vtkProcessGroup.h' line='127' column='1'/>
      </data-member>
      <member-function access='protected' constructor='yes'>
        <function-decl name='vtkProcessGroup' mangled-name='_ZN15vtkProcessGroupC1Ev' filepath='/tmp/legendre/spack-stage/spack-stage-R_crTC/VTK-6.1.0/Parallel/Core/vtkProcessGroup.cxx' line='34' column='1' visibility='default' binding='global' size-in-bits='64' elf-symbol-id='_ZN15vtkProcessGroupC1Ev'>
          <parameter type-id='type-id-569' is-artificial='yes'/>
          <return type-id='type-id-29'/>
        </function-decl>
      </member-function>
      <member-function access='private' constructor='yes'>
        <function-decl name='vtkProcessGroup' filepath='/tmp/legendre/spack-stage/spack-stage-R_crTC/VTK-6.1.0/Parallel/Core/vtkProcessGroup.h' line='130' column='1' visibility='default' binding='global' size-in-bits='64'>
          <parameter type-id='type-id-569' is-artificial='yes'/>
          <parameter type-id='type-id-597'/>
          <return type-id='type-id-29'/>
        </function-decl>
      </member-function>
      <member-function access='private'>
        <function-decl name='FindProcessId' mangled-name='_ZN15vtkProcessGroup13FindProcessIdEi' filepath='/tmp/legendre/spack-stage/spack-stage-R_crTC/VTK-6.1.0/Parallel/Core/vtkProcessGroup.cxx' line='118' column='1' visibility='default' binding='global' size-in-bits='64' elf-symbol-id='_ZN15vtkProcessGroup13FindProcessIdEi'>
          <parameter type-id='type-id-598' name='this' is-artificial='yes'/>
          <parameter type-id='type-id-19' name='processId' filepath='/tmp/legendre/spack-stage/spack-stage-R_crTC/VTK-6.1.0/Parallel/Core/vtkProcessGroup.cxx' line='118' column='1'/>
          <return type-id='type-id-19'/>
        </function-decl>
      </member-function>
      <member-function access='private'>
        <function-decl name='GetLocalProcessId' mangled-name='_ZN15vtkProcessGroup17GetLocalProcessIdEv' filepath='/tmp/legendre/spack-stage/spack-stage-R_crTC/VTK-6.1.0/Parallel/Core/vtkProcessGroup.cxx' line='105' column='1' visibility='default' binding='global' size-in-bits='64' elf-symbol-id='_ZN15vtkProcessGroup17GetLocalProcessIdEv'>
          <parameter type-id='type-id-569' is-artificial='yes'/>
          <return type-id='type-id-19'/>
        </function-decl>
      </member-function>
      <member-function access='private'>
        <function-decl name='AddProcessId' mangled-name='_ZN15vtkProcessGroup12AddProcessIdEi' filepath='/tmp/legendre/spack-stage/spack-stage-R_crTC/VTK-6.1.0/Parallel/Core/vtkProcessGroup.cxx' line='128' column='1' visibility='default' binding='global' size-in-bits='64' elf-symbol-id='_ZN15vtkProcessGroup12AddProcessIdEi'>
          <parameter type-id='type-id-598' name='this' is-artificial='yes'/>
          <parameter type-id='type-id-19' name='processId' filepath='/tmp/legendre/spack-stage/spack-stage-R_crTC/VTK-6.1.0/Parallel/Core/vtkProcessGroup.cxx' line='118' column='1'/>
          <return type-id='type-id-19'/>
        </function-decl>
      </member-function>
      <member-function access='private'>
        <function-decl name='RemoveProcessId' mangled-name='_ZN15vtkProcessGroup15RemoveProcessIdEi' filepath='/tmp/legendre/spack-stage/spack-stage-R_crTC/VTK-6.1.0/Parallel/Core/vtkProcessGroup.cxx' line='141' column='1' visibility='default' binding='global' size-in-bits='64' elf-symbol-id='_ZN15vtkProcessGroup15RemoveProcessIdEi'>
          <parameter type-id='type-id-598' name='this' is-artificial='yes'/>
          <parameter type-id='type-id-19' name='processId' filepath='/tmp/legendre/spack-stage/spack-stage-R_crTC/VTK-6.1.0/Parallel/Core/vtkProcessGroup.cxx' line='118' column='1'/>
          <return type-id='type-id-19'/>
        </function-decl>
      </member-function>
      <member-function access='private'>
        <function-decl name='RemoveAllProcessIds' mangled-name='_ZN15vtkProcessGroup19RemoveAllProcessIdsEv' filepath='/tmp/legendre/spack-stage/spack-stage-R_crTC/VTK-6.1.0/Parallel/Core/vtkProcessGroup.cxx' line='156' column='1' visibility='default' binding='global' size-in-bits='64' elf-symbol-id='_ZN15vtkProcessGroup19RemoveAllProcessIdsEv'>
          <parameter type-id='type-id-598' name='this' is-artificial='yes'/>
          <return type-id='type-id-29'/>
        </function-decl>
      </member-function>
      <member-function access='private'>
        <function-decl name='SetCommunicator' mangled-name='_ZN15vtkProcessGroup15SetCommunicatorEP15vtkCommunicator' filepath='/tmp/legendre/spack-stage/spack-stage-R_crTC/VTK-6.1.0/Parallel/Core/vtkProcessGroup.cxx' line='78' column='1' visibility='default' binding='global' size-in-bits='64' elf-symbol-id='_ZN15vtkProcessGroup15SetCommunicatorEP15vtkCommunicator'>
          <parameter type-id='type-id-598' name='this' is-artificial='yes'/>
          <parameter type-id='type-id-125' name='communicator' filepath='/tmp/legendre/spack-stage/spack-stage-R_crTC/VTK-6.1.0/Parallel/Core/vtkProcessGroup.cxx' line='78' column='1'/>
          <return type-id='type-id-29'/>
        </function-decl>
      </member-function>
      <member-function access='private'>
        <function-decl name='Copy' mangled-name='_ZN15vtkProcessGroup4CopyEPS_' filepath='/tmp/legendre/spack-stage/spack-stage-R_crTC/VTK-6.1.0/Parallel/Core/vtkProcessGroup.cxx' line='166' column='1' visibility='default' binding='global' size-in-bits='64' elf-symbol-id='_ZN15vtkProcessGroup4CopyEPS_'>
          <parameter type-id='type-id-598' name='this' is-artificial='yes'/>
          <parameter type-id='type-id-569' name='group' filepath='/tmp/legendre/spack-stage/spack-stage-R_crTC/VTK-6.1.0/Parallel/Core/vtkProcessGroup.cxx' line='166' column='1'/>
          <return type-id='type-id-29'/>
