<abi-corpus version='2.0' path='data/test-read-dwarf/test11-pr18828.so'>
  <elf-needed>
    <dependency name='build/debug/mongo/db/libserver_parameters.so'/>
    <dependency name='build/debug/mongo/libbase.so'/>
    <dependency name='build/debug/mongo/platform/libplatform.so'/>
    <dependency name='build/debug/mongo/util/concurrency/libsynchronization.so'/>
    <dependency name='build/debug/mongo/util/libdebugger.so'/>
    <dependency name='build/debug/mongo/util/libfoundation.so'/>
    <dependency name='build/debug/mongo/util/libquick_exit.so'/>
    <dependency name='build/debug/mongo/util/options_parser/liboptions_parser.so'/>
    <dependency name='build/debug/third_party/boost-1.56.0/libboost_chrono.so'/>
    <dependency name='build/debug/third_party/boost-1.56.0/libboost_filesystem.so'/>
    <dependency name='build/debug/third_party/boost-1.56.0/libboost_program_options.so'/>
    <dependency name='build/debug/third_party/boost-1.56.0/libboost_system.so'/>
    <dependency name='build/debug/third_party/boost-1.56.0/libboost_thread.so'/>
    <dependency name='build/debug/third_party/gperftools-2.2/libtcmalloc_minimal.so'/>
    <dependency name='build/debug/third_party/libshim_allocator.so'/>
    <dependency name='build/debug/third_party/libshim_boost.so'/>
    <dependency name='build/debug/third_party/libshim_pcrecpp.so'/>
    <dependency name='build/debug/third_party/libshim_tz.so'/>
    <dependency name='build/debug/third_party/libshim_yaml.so'/>
    <dependency name='build/debug/third_party/murmurhash3/libmurmurhash3.so'/>
    <dependency name='build/debug/third_party/pcre-8.37/libpcrecpp.so'/>
    <dependency name='build/debug/third_party/yaml-cpp-0.5.1/libyaml.so'/>
    <dependency name='libssl.so.1.0.0'/>
    <dependency name='libcrypto.so.1.0.0'/>
    <dependency name='librt.so.1'/>
    <dependency name='libdl.so.2'/>
    <dependency name='libstdc++.so.6'/>
    <dependency name='libm.so.6'/>
    <dependency name='libgcc_s.so.1'/>
    <dependency name='libpthread.so.0'/>
    <dependency name='libc.so.6'/>
  </elf-needed>
  <elf-function-symbols>
    <elf-symbol name='_ZN10mongoutils3str6streamC1Ev' type='func-type' binding='weak-binding' visibility='default-visibility' alias='_ZN10mongoutils3str6streamC2Ev' is-defined='yes'/>
    <elf-symbol name='_ZN10mongoutils3str6streamC2Ev' type='func-type' binding='weak-binding' visibility='default-visibility' is-defined='yes'/>
    <elf-symbol name='_ZN10mongoutils3str6streamD1Ev' type='func-type' binding='weak-binding' visibility='default-visibility' alias='_ZN10mongoutils3str6streamD2Ev' is-defined='yes'/>
    <elf-symbol name='_ZN10mongoutils3str6streamD2Ev' type='func-type' binding='weak-binding' visibility='default-visibility' is-defined='yes'/>
    <elf-symbol name='_ZN10mongoutils3str6streamlsIA42_cEERS1_RKT_' type='func-type' binding='weak-binding' visibility='default-visibility' is-defined='yes'/>
    <elf-symbol name='_ZN10mongoutils3str6streamlsIA50_cEERS1_RKT_' type='func-type' binding='weak-binding' visibility='default-visibility' is-defined='yes'/>
    <elf-symbol name='_ZN10mongoutils3str6streamlsIiEERS1_RKT_' type='func-type' binding='weak-binding' visibility='default-visibility' is-defined='yes'/>
    <elf-symbol name='_ZN5boost13intrusive_ptrIN5mongo12SharedBuffer6HolderEEC1Ev' type='func-type' binding='weak-binding' visibility='default-visibility' is-defined='yes'/>
    <elf-symbol name='_ZN5boost13intrusive_ptrIN5mongo12SharedBuffer6HolderEEC2Ev' type='func-type' binding='weak-binding' visibility='default-visibility' alias='_ZN5boost13intrusive_ptrIN5mongo12SharedBuffer6HolderEEC1Ev' is-defined='yes'/>
    <elf-symbol name='_ZN5boost13intrusive_ptrIN5mongo12SharedBuffer6HolderEED1Ev' type='func-type' binding='weak-binding' visibility='default-visibility' is-defined='yes'/>
    <elf-symbol name='_ZN5boost13intrusive_ptrIN5mongo12SharedBuffer6HolderEED2Ev' type='func-type' binding='weak-binding' visibility='default-visibility' alias='_ZN5boost13intrusive_ptrIN5mongo12SharedBuffer6HolderEED1Ev' is-defined='yes'/>
    <elf-symbol name='_ZN5mongo10AtomicWordIjE16fetchAndSubtractEj' type='func-type' binding='weak-binding' visibility='default-visibility' is-defined='yes'/>
    <elf-symbol name='_ZN5mongo10AtomicWordIjE16subtractAndFetchEj' type='func-type' binding='weak-binding' visibility='default-visibility' is-defined='yes'/>
    <elf-symbol name='_ZN5mongo10StringDataC1EPKc' type='func-type' binding='weak-binding' visibility='default-visibility' is-defined='yes'/>
    <elf-symbol name='_ZN5mongo10StringDataC1ERKSs' type='func-type' binding='weak-binding' visibility='default-visibility' is-defined='yes'/>
    <elf-symbol name='_ZN5mongo10StringDataC1Ev' type='func-type' binding='weak-binding' visibility='default-visibility' is-defined='yes'/>
    <elf-symbol name='_ZN5mongo10StringDataC2EPKc' type='func-type' binding='weak-binding' visibility='default-visibility' alias='_ZN5mongo10StringDataC1EPKc' is-defined='yes'/>
    <elf-symbol name='_ZN5mongo10StringDataC2ERKSs' type='func-type' binding='weak-binding' visibility='default-visibility' alias='_ZN5mongo10StringDataC1ERKSs' is-defined='yes'/>
    <elf-symbol name='_ZN5mongo10StringDataC2Ev' type='func-type' binding='weak-binding' visibility='default-visibility' alias='_ZN5mongo10StringDataC1Ev' is-defined='yes'/>
    <elf-symbol name='_ZN5mongo11DBException10addContextERKSs' type='func-type' binding='weak-binding' visibility='default-visibility' is-defined='yes'/>
    <elf-symbol name='_ZN5mongo11DBExceptionC1ERKSsi' type='func-type' binding='weak-binding' visibility='default-visibility' is-defined='yes'/>
    <elf-symbol name='_ZN5mongo11DBExceptionC2ERKSsi' type='func-type' binding='weak-binding' visibility='default-visibility' alias='_ZN5mongo11DBExceptionC1ERKSsi' is-defined='yes'/>
    <elf-symbol name='_ZN5mongo11DBExceptionD0Ev' type='func-type' binding='weak-binding' visibility='default-visibility' is-defined='yes'/>
    <elf-symbol name='_ZN5mongo11DBExceptionD1Ev' type='func-type' binding='weak-binding' visibility='default-visibility' is-defined='yes'/>
    <elf-symbol name='_ZN5mongo11DBExceptionD2Ev' type='func-type' binding='weak-binding' visibility='default-visibility' alias='_ZN5mongo11DBExceptionD1Ev' is-defined='yes'/>
    <elf-symbol name='_ZN5mongo11_BufBuilderINS_16TrivialAllocatorEE12reserveBytesEi' type='func-type' binding='weak-binding' visibility='default-visibility' is-defined='yes'/>
    <elf-symbol name='_ZN5mongo11_BufBuilderINS_16TrivialAllocatorEE13appendNumImplIcEEvT_' type='func-type' binding='weak-binding' visibility='default-visibility' is-defined='yes'/>
    <elf-symbol name='_ZN5mongo11_BufBuilderINS_16TrivialAllocatorEE13appendNumImplIiEEvT_' type='func-type' binding='weak-binding' visibility='default-visibility' is-defined='yes'/>
    <elf-symbol name='_ZN5mongo11_BufBuilderINS_16TrivialAllocatorEE15grow_reallocateEi' type='func-type' binding='weak-binding' visibility='default-visibility' is-defined='yes'/>
    <elf-symbol name='_ZN5mongo11_BufBuilderINS_16TrivialAllocatorEE18claimReservedBytesEi' type='func-type' binding='weak-binding' visibility='default-visibility' is-defined='yes'/>
    <elf-symbol name='_ZN5mongo11_BufBuilderINS_16TrivialAllocatorEE3bufEv' type='func-type' binding='weak-binding' visibility='default-visibility' is-defined='yes'/>
    <elf-symbol name='_ZN5mongo11_BufBuilderINS_16TrivialAllocatorEE4growEi' type='func-type' binding='weak-binding' visibility='default-visibility' is-defined='yes'/>
    <elf-symbol name='_ZN5mongo11_BufBuilderINS_16TrivialAllocatorEE4killEv' type='func-type' binding='weak-binding' visibility='default-visibility' is-defined='yes'/>
    <elf-symbol name='_ZN5mongo11_BufBuilderINS_16TrivialAllocatorEE4skipEi' type='func-type' binding='weak-binding' visibility='default-visibility' is-defined='yes'/>
    <elf-symbol name='_ZN5mongo11_BufBuilderINS_16TrivialAllocatorEE9appendBufEPKvm' type='func-type' binding='weak-binding' visibility='default-visibility' is-defined='yes'/>
    <elf-symbol name='_ZN5mongo11_BufBuilderINS_16TrivialAllocatorEE9appendNumEc' type='func-type' binding='weak-binding' visibility='default-visibility' is-defined='yes'/>
    <elf-symbol name='_ZN5mongo11_BufBuilderINS_16TrivialAllocatorEE9appendNumEi' type='func-type' binding='weak-binding' visibility='default-visibility' is-defined='yes'/>
    <elf-symbol name='_ZN5mongo11_BufBuilderINS_16TrivialAllocatorEE9appendStrENS_10StringDataEb' type='func-type' binding='weak-binding' visibility='default-visibility' is-defined='yes'/>
    <elf-symbol name='_ZN5mongo11_BufBuilderINS_16TrivialAllocatorEEC1Ei' type='func-type' binding='weak-binding' visibility='default-visibility' is-defined='yes'/>
    <elf-symbol name='_ZN5mongo11_BufBuilderINS_16TrivialAllocatorEEC2Ei' type='func-type' binding='weak-binding' visibility='default-visibility' alias='_ZN5mongo11_BufBuilderINS_16TrivialAllocatorEEC1Ei' is-defined='yes'/>
    <elf-symbol name='_ZN5mongo11_BufBuilderINS_16TrivialAllocatorEED1Ev' type='func-type' binding='weak-binding' visibility='default-visibility' is-defined='yes'/>
    <elf-symbol name='_ZN5mongo11_BufBuilderINS_16TrivialAllocatorEED2Ev' type='func-type' binding='weak-binding' visibility='default-visibility' alias='_ZN5mongo11_BufBuilderINS_16TrivialAllocatorEED1Ev' is-defined='yes'/>
    <elf-symbol name='_ZN5mongo12LittleEndianIcEC1Ec' type='func-type' binding='weak-binding' visibility='default-visibility' is-defined='yes'/>
    <elf-symbol name='_ZN5mongo12LittleEndianIcEC2Ec' type='func-type' binding='weak-binding' visibility='default-visibility' alias='_ZN5mongo12LittleEndianIcEC1Ec' is-defined='yes'/>
    <elf-symbol name='_ZN5mongo12LittleEndianIiEC1Ei' type='func-type' binding='weak-binding' visibility='default-visibility' is-defined='yes'/>
    <elf-symbol name='_ZN5mongo12LittleEndianIiEC2Ei' type='func-type' binding='weak-binding' visibility='default-visibility' alias='_ZN5mongo12LittleEndianIiEC1Ei' is-defined='yes'/>
    <elf-symbol name='_ZN5mongo12SharedBufferC1Ev' type='func-type' binding='weak-binding' visibility='default-visibility' is-defined='yes'/>
    <elf-symbol name='_ZN5mongo12SharedBufferC2Ev' type='func-type' binding='weak-binding' visibility='default-visibility' alias='_ZN5mongo12SharedBufferC1Ev' is-defined='yes'/>
    <elf-symbol name='_ZN5mongo12SharedBufferD1Ev' type='func-type' binding='weak-binding' visibility='default-visibility' alias='_ZN5mongo12SharedBufferD2Ev' is-defined='yes'/>
    <elf-symbol name='_ZN5mongo12SharedBufferD2Ev' type='func-type' binding='weak-binding' visibility='default-visibility' is-defined='yes'/>
    <elf-symbol name='_ZN5mongo13ConstDataViewC1EPKc' type='func-type' binding='weak-binding' visibility='default-visibility' is-defined='yes'/>
    <elf-symbol name='_ZN5mongo13ConstDataViewC2EPKc' type='func-type' binding='weak-binding' visibility='default-visibility' alias='_ZN5mongo13ConstDataViewC1EPKc' is-defined='yes'/>
    <elf-symbol name='_ZN5mongo13ExceptionInfoC1ERKSsi' type='func-type' binding='weak-binding' visibility='default-visibility' is-defined='yes'/>
    <elf-symbol name='_ZN5mongo13ExceptionInfoC2ERKSsi' type='func-type' binding='weak-binding' visibility='default-visibility' alias='_ZN5mongo13ExceptionInfoC1ERKSsi' is-defined='yes'/>
    <elf-symbol name='_ZN5mongo13ExceptionInfoD1Ev' type='func-type' binding='weak-binding' visibility='default-visibility' alias='_ZN5mongo13ExceptionInfoD2Ev' is-defined='yes'/>
    <elf-symbol name='_ZN5mongo13ExceptionInfoD2Ev' type='func-type' binding='weak-binding' visibility='default-visibility' is-defined='yes'/>
    <elf-symbol name='_ZN5mongo14BSONObjBuilder11appendArrayENS_10StringDataERKNS_7BSONObjE' type='func-type' binding='weak-binding' visibility='default-visibility' is-defined='yes'/>
    <elf-symbol name='_ZN5mongo14BSONObjBuilder4doneEv' type='func-type' binding='weak-binding' visibility='default-visibility' is-defined='yes'/>
    <elf-symbol name='_ZN5mongo14BSONObjBuilder5_doneEv' type='func-type' binding='weak-binding' visibility='default-visibility' is-defined='yes'/>
    <elf-symbol name='_ZN5mongo14BSONObjBuilder6appendENS_10StringDataEPKci' type='func-type' binding='weak-binding' visibility='default-visibility' is-defined='yes'/>
    <elf-symbol name='_ZN5mongo14BSONObjBuilder6appendENS_10StringDataERKSs' type='func-type' binding='weak-binding' visibility='default-visibility' is-defined='yes'/>
    <elf-symbol name='_ZN5mongo14BSONObjBuilder6appendENS_10StringDataEi' type='func-type' binding='weak-binding' visibility='default-visibility' is-defined='yes'/>
    <elf-symbol name='_ZN5mongo14BSONObjBuilder6appendISsEERS0_NS_10StringDataERKSt6vectorIT_SaIS5_EE' type='func-type' binding='weak-binding' visibility='default-visibility' is-defined='yes'/>
    <elf-symbol name='_ZN5mongo14BSONObjBuilder6numStrEi' type='func-type' binding='weak-binding' visibility='default-visibility' is-defined='yes'/>
    <elf-symbol name='_ZN5mongo14BSONObjBuilderC1Ei' type='func-type' binding='weak-binding' visibility='default-visibility' is-defined='yes'/>
    <elf-symbol name='_ZN5mongo14BSONObjBuilderC2Ei' type='func-type' binding='weak-binding' visibility='default-visibility' alias='_ZN5mongo14BSONObjBuilderC1Ei' is-defined='yes'/>
    <elf-symbol name='_ZN5mongo14BSONObjBuilderD1Ev' type='func-type' binding='weak-binding' visibility='default-visibility' is-defined='yes'/>
    <elf-symbol name='_ZN5mongo14BSONObjBuilderD2Ev' type='func-type' binding='weak-binding' visibility='default-visibility' alias='_ZN5mongo14BSONObjBuilderD1Ev' is-defined='yes'/>
    <elf-symbol name='_ZN5mongo14addSASLOptionsEPNS_17optionenvironment13OptionSectionE' type='func-type' binding='global-binding' visibility='default-visibility' is-defined='yes'/>
    <elf-symbol name='_ZN5mongo15BSONSizeTracker3gotEi' type='func-type' binding='weak-binding' visibility='default-visibility' is-defined='yes'/>
    <elf-symbol name='_ZN5mongo15tagLittleEndianIcEENS_12LittleEndianIT_EES2_' type='func-type' binding='weak-binding' visibility='default-visibility' is-defined='yes'/>
    <elf-symbol name='_ZN5mongo15tagLittleEndianIiEENS_12LittleEndianIT_EES2_' type='func-type' binding='weak-binding' visibility='default-visibility' is-defined='yes'/>
    <elf-symbol name='_ZN5mongo16SASLGlobalParamsC1Ev' type='func-type' binding='global-binding' visibility='default-visibility' is-defined='yes'/>
    <elf-symbol name='_ZN5mongo16SASLGlobalParamsC2Ev' type='func-type' binding='global-binding' visibility='default-visibility' alias='_ZN5mongo16SASLGlobalParamsC1Ev' is-defined='yes'/>
    <elf-symbol name='_ZN5mongo16SASLGlobalParamsD1Ev' type='func-type' binding='weak-binding' visibility='default-visibility' alias='_ZN5mongo16SASLGlobalParamsD2Ev' is-defined='yes'/>
    <elf-symbol name='_ZN5mongo16SASLGlobalParamsD2Ev' type='func-type' binding='weak-binding' visibility='default-visibility' is-defined='yes'/>
    <elf-symbol name='_ZN5mongo16TrivialAllocator4FreeEPv' type='func-type' binding='weak-binding' visibility='default-visibility' is-defined='yes'/>
    <elf-symbol name='_ZN5mongo16TrivialAllocator6MallocEm' type='func-type' binding='weak-binding' visibility='default-visibility' is-defined='yes'/>
    <elf-symbol name='_ZN5mongo16TrivialAllocator7ReallocEPvm' type='func-type' binding='weak-binding' visibility='default-visibility' is-defined='yes'/>
    <elf-symbol name='_ZN5mongo16storeSASLOptionsERKNS_17optionenvironment11EnvironmentE' type='func-type' binding='global-binding' visibility='default-visibility' is-defined='yes'/>
    <elf-symbol name='_ZN5mongo17StringBuilderImplINS_16TrivialAllocatorEE5SBNUMIiEERS2_T_iPKc' type='func-type' binding='weak-binding' visibility='default-visibility' is-defined='yes'/>
    <elf-symbol name='_ZN5mongo17StringBuilderImplINS_16TrivialAllocatorEE6appendENS_10StringDataE' type='func-type' binding='weak-binding' visibility='default-visibility' is-defined='yes'/>
    <elf-symbol name='_ZN5mongo17StringBuilderImplINS_16TrivialAllocatorEEC1Ev' type='func-type' binding='weak-binding' visibility='default-visibility' is-defined='yes'/>
    <elf-symbol name='_ZN5mongo17StringBuilderImplINS_16TrivialAllocatorEEC2Ev' type='func-type' binding='weak-binding' visibility='default-visibility' alias='_ZN5mongo17StringBuilderImplINS_16TrivialAllocatorEEC1Ev' is-defined='yes'/>
    <elf-symbol name='_ZN5mongo17StringBuilderImplINS_16TrivialAllocatorEED1Ev' type='func-type' binding='weak-binding' visibility='default-visibility' alias='_ZN5mongo17StringBuilderImplINS_16TrivialAllocatorEED2Ev' is-defined='yes'/>
    <elf-symbol name='_ZN5mongo17StringBuilderImplINS_16TrivialAllocatorEED2Ev' type='func-type' binding='weak-binding' visibility='default-visibility' is-defined='yes'/>
    <elf-symbol name='_ZN5mongo17StringBuilderImplINS_16TrivialAllocatorEElsENS_10StringDataE' type='func-type' binding='weak-binding' visibility='default-visibility' is-defined='yes'/>
    <elf-symbol name='_ZN5mongo17StringBuilderImplINS_16TrivialAllocatorEElsEPKc' type='func-type' binding='weak-binding' visibility='default-visibility' is-defined='yes'/>
    <elf-symbol name='_ZN5mongo17StringBuilderImplINS_16TrivialAllocatorEElsEi' type='func-type' binding='weak-binding' visibility='default-visibility' is-defined='yes'/>
    <elf-symbol name='_ZN5mongo17optionenvironment13OptionSectionC1ERKSs' type='func-type' binding='weak-binding' visibility='default-visibility' is-defined='yes'/>
    <elf-symbol name='_ZN5mongo17optionenvironment13OptionSectionC2ERKSs' type='func-type' binding='weak-binding' visibility='default-visibility' alias='_ZN5mongo17optionenvironment13OptionSectionC1ERKSs' is-defined='yes'/>
    <elf-symbol name='_ZN5mongo17optionenvironment13OptionSectionD1Ev' type='func-type' binding='weak-binding' visibility='default-visibility' alias='_ZN5mongo17optionenvironment13OptionSectionD2Ev' is-defined='yes'/>
    <elf-symbol name='_ZN5mongo17optionenvironment13OptionSectionD2Ev' type='func-type' binding='weak-binding' visibility='default-visibility' is-defined='yes'/>
    <elf-symbol name='_ZN5mongo17optionenvironment17OptionDescriptionD1Ev' type='func-type' binding='weak-binding' visibility='default-visibility' alias='_ZN5mongo17optionenvironment17OptionDescriptionD2Ev' is-defined='yes'/>
    <elf-symbol name='_ZN5mongo17optionenvironment17OptionDescriptionD2Ev' type='func-type' binding='weak-binding' visibility='default-visibility' is-defined='yes'/>
    <elf-symbol name='_ZN5mongo17optionenvironment5ValueD1Ev' type='func-type' binding='weak-binding' visibility='default-visibility' alias='_ZN5mongo17optionenvironment5ValueD2Ev' is-defined='yes'/>
    <elf-symbol name='_ZN5mongo17optionenvironment5ValueD2Ev' type='func-type' binding='weak-binding' visibility='default-visibility' is-defined='yes'/>
    <elf-symbol name='_ZN5mongo18AssertionExceptionC1ERKSsi' type='func-type' binding='weak-binding' visibility='default-visibility' is-defined='yes'/>
    <elf-symbol name='_ZN5mongo18AssertionExceptionC2ERKSsi' type='func-type' binding='weak-binding' visibility='default-visibility' alias='_ZN5mongo18AssertionExceptionC1ERKSsi' is-defined='yes'/>
    <elf-symbol name='_ZN5mongo18AssertionExceptionD0Ev' type='func-type' binding='weak-binding' visibility='default-visibility' is-defined='yes'/>
    <elf-symbol name='_ZN5mongo18AssertionExceptionD1Ev' type='func-type' binding='weak-binding' visibility='default-visibility' is-defined='yes'/>
    <elf-symbol name='_ZN5mongo18AssertionExceptionD2Ev' type='func-type' binding='weak-binding' visibility='default-visibility' alias='_ZN5mongo18AssertionExceptionD1Ev' is-defined='yes'/>
    <elf-symbol name='_ZN5mongo21MsgAssertionExceptionC1EiRKSs' type='func-type' binding='weak-binding' visibility='default-visibility' is-defined='yes'/>
    <elf-symbol name='_ZN5mongo21MsgAssertionExceptionC2EiRKSs' type='func-type' binding='weak-binding' visibility='default-visibility' alias='_ZN5mongo21MsgAssertionExceptionC1EiRKSs' is-defined='yes'/>
    <elf-symbol name='_ZN5mongo21MsgAssertionExceptionD0Ev' type='func-type' binding='weak-binding' visibility='default-visibility' is-defined='yes'/>
    <elf-symbol name='_ZN5mongo21MsgAssertionExceptionD1Ev' type='func-type' binding='weak-binding' visibility='default-visibility' alias='_ZN5mongo21MsgAssertionExceptionD2Ev' is-defined='yes'/>
    <elf-symbol name='_ZN5mongo21MsgAssertionExceptionD2Ev' type='func-type' binding='weak-binding' visibility='default-visibility' is-defined='yes'/>
    <elf-symbol name='_ZN5mongo21intrusive_ptr_releaseEPNS_12SharedBuffer6HolderE' type='func-type' binding='weak-binding' visibility='default-visibility' is-defined='yes'/>
    <elf-symbol name='_ZN5mongo23ExportedServerParameterISsE3setERKNS_11BSONElementE' type='func-type' binding='weak-binding' visibility='default-visibility' is-defined='yes'/>
    <elf-symbol name='_ZN5mongo23ExportedServerParameterISsE3setERKSs' type='func-type' binding='weak-binding' visibility='default-visibility' is-defined='yes'/>
    <elf-symbol name='_ZN5mongo23ExportedServerParameterISsE6appendEPNS_16OperationContextERNS_14BSONObjBuilderERKSs' type='func-type' binding='weak-binding' visibility='default-visibility' is-defined='yes'/>
    <elf-symbol name='_ZN5mongo23ExportedServerParameterISsE8validateERKSs' type='func-type' binding='weak-binding' visibility='default-visibility' is-defined='yes'/>
    <elf-symbol name='_ZN5mongo23ExportedServerParameterISsEC1EPNS_18ServerParameterSetERKSsPSsbb' type='func-type' binding='weak-binding' visibility='default-visibility' is-defined='yes'/>
    <elf-symbol name='_ZN5mongo23ExportedServerParameterISsEC2EPNS_18ServerParameterSetERKSsPSsbb' type='func-type' binding='weak-binding' visibility='default-visibility' alias='_ZN5mongo23ExportedServerParameterISsEC1EPNS_18ServerParameterSetERKSsPSsbb' is-defined='yes'/>
    <elf-symbol name='_ZN5mongo23ExportedServerParameterISsED0Ev' type='func-type' binding='weak-binding' visibility='default-visibility' is-defined='yes'/>
    <elf-symbol name='_ZN5mongo23ExportedServerParameterISsED1Ev' type='func-type' binding='weak-binding' visibility='default-visibility' is-defined='yes'/>
    <elf-symbol name='_ZN5mongo23ExportedServerParameterISsED2Ev' type='func-type' binding='weak-binding' visibility='default-visibility' alias='_ZN5mongo23ExportedServerParameterISsED1Ev' is-defined='yes'/>
    <elf-symbol name='_ZN5mongo23ExportedServerParameterISt6vectorISsSaISsEEE3setERKNS_11BSONElementE' type='func-type' binding='weak-binding' visibility='default-visibility' is-defined='yes'/>
    <elf-symbol name='_ZN5mongo23ExportedServerParameterISt6vectorISsSaISsEEE3setERKS3_' type='func-type' binding='weak-binding' visibility='default-visibility' is-defined='yes'/>
    <elf-symbol name='_ZN5mongo23ExportedServerParameterISt6vectorISsSaISsEEE6appendEPNS_16OperationContextERNS_14BSONObjBuilderERKSs' type='func-type' binding='weak-binding' visibility='default-visibility' is-defined='yes'/>
    <elf-symbol name='_ZN5mongo23ExportedServerParameterISt6vectorISsSaISsEEE8validateERKS3_' type='func-type' binding='weak-binding' visibility='default-visibility' is-defined='yes'/>
    <elf-symbol name='_ZN5mongo23ExportedServerParameterISt6vectorISsSaISsEEEC1EPNS_18ServerParameterSetERKSsPS3_bb' type='func-type' binding='weak-binding' visibility='default-visibility' is-defined='yes'/>
    <elf-symbol name='_ZN5mongo23ExportedServerParameterISt6vectorISsSaISsEEEC2EPNS_18ServerParameterSetERKSsPS3_bb' type='func-type' binding='weak-binding' visibility='default-visibility' alias='_ZN5mongo23ExportedServerParameterISt6vectorISsSaISsEEEC1EPNS_18ServerParameterSetERKSsPS3_bb' is-defined='yes'/>
    <elf-symbol name='_ZN5mongo23ExportedServerParameterISt6vectorISsSaISsEEED0Ev' type='func-type' binding='weak-binding' visibility='default-visibility' is-defined='yes'/>
    <elf-symbol name='_ZN5mongo23ExportedServerParameterISt6vectorISsSaISsEEED1Ev' type='func-type' binding='weak-binding' visibility='default-visibility' is-defined='yes'/>
    <elf-symbol name='_ZN5mongo23ExportedServerParameterISt6vectorISsSaISsEEED2Ev' type='func-type' binding='weak-binding' visibility='default-visibility' alias='_ZN5mongo23ExportedServerParameterISt6vectorISsSaISsEEED1Ev' is-defined='yes'/>
    <elf-symbol name='_ZN5mongo23ExportedServerParameterIiE3setERKNS_11BSONElementE' type='func-type' binding='weak-binding' visibility='default-visibility' is-defined='yes'/>
    <elf-symbol name='_ZN5mongo23ExportedServerParameterIiE3setERKi' type='func-type' binding='weak-binding' visibility='default-visibility' is-defined='yes'/>
    <elf-symbol name='_ZN5mongo23ExportedServerParameterIiE6appendEPNS_16OperationContextERNS_14BSONObjBuilderERKSs' type='func-type' binding='weak-binding' visibility='default-visibility' is-defined='yes'/>
    <elf-symbol name='_ZN5mongo23ExportedServerParameterIiE8validateERKi' type='func-type' binding='weak-binding' visibility='default-visibility' is-defined='yes'/>
    <elf-symbol name='_ZN5mongo23ExportedServerParameterIiEC1EPNS_18ServerParameterSetERKSsPibb' type='func-type' binding='weak-binding' visibility='default-visibility' is-defined='yes'/>
    <elf-symbol name='_ZN5mongo23ExportedServerParameterIiEC2EPNS_18ServerParameterSetERKSsPibb' type='func-type' binding='weak-binding' visibility='default-visibility' alias='_ZN5mongo23ExportedServerParameterIiEC1EPNS_18ServerParameterSetERKSsPibb' is-defined='yes'/>
    <elf-symbol name='_ZN5mongo23ExportedServerParameterIiED0Ev' type='func-type' binding='weak-binding' visibility='default-visibility' is-defined='yes'/>
    <elf-symbol name='_ZN5mongo23ExportedServerParameterIiED1Ev' type='func-type' binding='weak-binding' visibility='default-visibility' is-defined='yes'/>
    <elf-symbol name='_ZN5mongo23ExportedServerParameterIiED2Ev' type='func-type' binding='weak-binding' visibility='default-visibility' alias='_ZN5mongo23ExportedServerParameterIiED1Ev' is-defined='yes'/>
    <elf-symbol name='_ZN5mongo25BSONObjBuilderValueStreamD1Ev' type='func-type' binding='weak-binding' visibility='default-visibility' alias='_ZN5mongo25BSONObjBuilderValueStreamD2Ev' is-defined='yes'/>
    <elf-symbol name='_ZN5mongo25BSONObjBuilderValueStreamD2Ev' type='func-type' binding='weak-binding' visibility='default-visibility' is-defined='yes'/>
    <elf-symbol name='_ZN5mongo36ExportedScramIterationCountParameter8validateERKi' type='func-type' binding='weak-binding' visibility='default-visibility' is-defined='yes'/>
    <elf-symbol name='_ZN5mongo36ExportedScramIterationCountParameterC1Ev' type='func-type' binding='weak-binding' visibility='default-visibility' is-defined='yes'/>
    <elf-symbol name='_ZN5mongo36ExportedScramIterationCountParameterC2Ev' type='func-type' binding='weak-binding' visibility='default-visibility' alias='_ZN5mongo36ExportedScramIterationCountParameterC1Ev' is-defined='yes'/>
    <elf-symbol name='_ZN5mongo36ExportedScramIterationCountParameterD0Ev' type='func-type' binding='weak-binding' visibility='default-visibility' is-defined='yes'/>
    <elf-symbol name='_ZN5mongo36ExportedScramIterationCountParameterD1Ev' type='func-type' binding='weak-binding' visibility='default-visibility' is-defined='yes'/>
    <elf-symbol name='_ZN5mongo36ExportedScramIterationCountParameterD2Ev' type='func-type' binding='weak-binding' visibility='default-visibility' alias='_ZN5mongo36ExportedScramIterationCountParameterD1Ev' is-defined='yes'/>
    <elf-symbol name='_ZN5mongo43_mongoInitializerFunction_SASLOptions_StoreEPNS_18InitializerContextE' type='func-type' binding='global-binding' visibility='default-visibility' is-defined='yes'/>
    <elf-symbol name='_ZN5mongo46_mongoInitializerFunction_SASLOptions_RegisterEPNS_18InitializerContextE' type='func-type' binding='global-binding' visibility='default-visibility' is-defined='yes'/>
    <elf-symbol name='_ZN5mongo6Status2OKEv' type='func-type' binding='weak-binding' visibility='default-visibility' is-defined='yes'/>
    <elf-symbol name='_ZN5mongo6Status5unrefEPNS0_9ErrorInfoE' type='func-type' binding='weak-binding' visibility='default-visibility' is-defined='yes'/>
    <elf-symbol name='_ZN5mongo6Status9ErrorInfoD1Ev' type='func-type' binding='weak-binding' visibility='default-visibility' alias='_ZN5mongo6Status9ErrorInfoD2Ev' is-defined='yes'/>
    <elf-symbol name='_ZN5mongo6Status9ErrorInfoD2Ev' type='func-type' binding='weak-binding' visibility='default-visibility' is-defined='yes'/>
    <elf-symbol name='_ZN5mongo6StatusC1EOS0_' type='func-type' binding='weak-binding' visibility='default-visibility' is-defined='yes'/>
    <elf-symbol name='_ZN5mongo6StatusC1Ev' type='func-type' binding='weak-binding' visibility='default-visibility' is-defined='yes'/>
    <elf-symbol name='_ZN5mongo6StatusC2EOS0_' type='func-type' binding='weak-binding' visibility='default-visibility' alias='_ZN5mongo6StatusC1EOS0_' is-defined='yes'/>
    <elf-symbol name='_ZN5mongo6StatusC2Ev' type='func-type' binding='weak-binding' visibility='default-visibility' alias='_ZN5mongo6StatusC1Ev' is-defined='yes'/>
    <elf-symbol name='_ZN5mongo6StatusD1Ev' type='func-type' binding='weak-binding' visibility='default-visibility' is-defined='yes'/>
    <elf-symbol name='_ZN5mongo6StatusD2Ev' type='func-type' binding='weak-binding' visibility='default-visibility' alias='_ZN5mongo6StatusD1Ev' is-defined='yes'/>
    <elf-symbol name='_ZN5mongo6endian14littleToNativeIiEET_S2_' type='func-type' binding='weak-binding' visibility='default-visibility' is-defined='yes'/>
    <elf-symbol name='_ZN5mongo6endian14nativeToLittleIcEET_S2_' type='func-type' binding='weak-binding' visibility='default-visibility' is-defined='yes'/>
    <elf-symbol name='_ZN5mongo6endian14nativeToLittleIiEET_S2_' type='func-type' binding='weak-binding' visibility='default-visibility' is-defined='yes'/>
    <elf-symbol name='_ZN5mongo6endian18ByteOrderConverterIaE14nativeToLittleEa' type='func-type' binding='weak-binding' visibility='default-visibility' is-defined='yes'/>
    <elf-symbol name='_ZN5mongo6endian18ByteOrderConverterIiE14littleToNativeEi' type='func-type' binding='weak-binding' visibility='default-visibility' is-defined='yes'/>
    <elf-symbol name='_ZN5mongo6endian18ByteOrderConverterIiE14nativeToLittleEi' type='func-type' binding='weak-binding' visibility='default-visibility' is-defined='yes'/>
    <elf-symbol name='_ZN5mongo6logger10LogManager15getGlobalDomainEv' type='func-type' binding='weak-binding' visibility='default-visibility' is-defined='yes'/>
    <elf-symbol name='_ZN5mongo6logger11LogSeverity3LogEv' type='func-type' binding='weak-binding' visibility='default-visibility' is-defined='yes'/>
    <elf-symbol name='_ZN5mongo6logger11LogSeverityC1Ei' type='func-type' binding='weak-binding' visibility='default-visibility' is-defined='yes'/>
    <elf-symbol name='_ZN5mongo6logger11LogSeverityC2Ei' type='func-type' binding='weak-binding' visibility='default-visibility' alias='_ZN5mongo6logger11LogSeverityC1Ei' is-defined='yes'/>
    <elf-symbol name='_ZN5mongo6logger12LogComponentC1ENS1_5ValueE' type='func-type' binding='weak-binding' visibility='default-visibility' is-defined='yes'/>
    <elf-symbol name='_ZN5mongo6logger12LogComponentC2ENS1_5ValueE' type='func-type' binding='weak-binding' visibility='default-visibility' alias='_ZN5mongo6logger12LogComponentC1ENS1_5ValueE' is-defined='yes'/>
    <elf-symbol name='_ZN5mongo6logger15globalLogDomainEv' type='func-type' binding='weak-binding' visibility='default-visibility' is-defined='yes'/>
    <elf-symbol name='_ZN5mongo6logger16LogstreamBuilder6streamEv' type='func-type' binding='weak-binding' visibility='default-visibility' is-defined='yes'/>
    <elf-symbol name='_ZN5mongo6logger16LogstreamBuilderlsEPKc' type='func-type' binding='weak-binding' visibility='default-visibility' is-defined='yes'/>
    <elf-symbol name='_ZN5mongo6logger16LogstreamBuilderlsERKSs' type='func-type' binding='weak-binding' visibility='default-visibility' is-defined='yes'/>
    <elf-symbol name='_ZN5mongo7BSONObj4initEPKc' type='func-type' binding='weak-binding' visibility='default-visibility' is-defined='yes'/>
    <elf-symbol name='_ZN5mongo7BSONObjC1EPKc' type='func-type' binding='weak-binding' visibility='default-visibility' is-defined='yes'/>
    <elf-symbol name='_ZN5mongo7BSONObjC2EPKc' type='func-type' binding='weak-binding' visibility='default-visibility' alias='_ZN5mongo7BSONObjC1EPKc' is-defined='yes'/>
    <elf-symbol name='_ZN5mongo7BSONObjD1Ev' type='func-type' binding='weak-binding' visibility='default-visibility' alias='_ZN5mongo7BSONObjD2Ev' is-defined='yes'/>
    <elf-symbol name='_ZN5mongo7BSONObjD2Ev' type='func-type' binding='weak-binding' visibility='default-visibility' is-defined='yes'/>
    <elf-symbol name='_ZN5mongo8DataType10unsafeLoadINS_12LittleEndianIiEEEEvPT_PKcPm' type='func-type' binding='weak-binding' visibility='default-visibility' is-defined='yes'/>
    <elf-symbol name='_ZN5mongo8DataType10unsafeLoadIiEEvPT_PKcPm' type='func-type' binding='weak-binding' visibility='default-visibility' is-defined='yes'/>
    <elf-symbol name='_ZN5mongo8DataType11unsafeStoreINS_12LittleEndianIcEEEEvRKT_PcPm' type='func-type' binding='weak-binding' visibility='default-visibility' is-defined='yes'/>
    <elf-symbol name='_ZN5mongo8DataType11unsafeStoreINS_12LittleEndianIiEEEEvRKT_PcPm' type='func-type' binding='weak-binding' visibility='default-visibility' is-defined='yes'/>
    <elf-symbol name='_ZN5mongo8DataType11unsafeStoreIcEEvRKT_PcPm' type='func-type' binding='weak-binding' visibility='default-visibility' is-defined='yes'/>
    <elf-symbol name='_ZN5mongo8DataType11unsafeStoreIiEEvRKT_PcPm' type='func-type' binding='weak-binding' visibility='default-visibility' is-defined='yes'/>
    <elf-symbol name='_ZN5mongo8DataType16defaultConstructINS_12LittleEndianIiEEEET_v' type='func-type' binding='weak-binding' visibility='default-visibility' is-defined='yes'/>
    <elf-symbol name='_ZN5mongo8DataType16defaultConstructIiEET_v' type='func-type' binding='weak-binding' visibility='default-visibility' is-defined='yes'/>
    <elf-symbol name='_ZN5mongo8DataType7HandlerINS_12LittleEndianIcEEvE11unsafeStoreERKS3_PcPm' type='func-type' binding='weak-binding' visibility='default-visibility' is-defined='yes'/>
    <elf-symbol name='_ZN5mongo8DataType7HandlerINS_12LittleEndianIiEEvE10unsafeLoadEPS3_PKcPm' type='func-type' binding='weak-binding' visibility='default-visibility' is-defined='yes'/>
    <elf-symbol name='_ZN5mongo8DataType7HandlerINS_12LittleEndianIiEEvE11unsafeStoreERKS3_PcPm' type='func-type' binding='weak-binding' visibility='default-visibility' is-defined='yes'/>
    <elf-symbol name='_ZN5mongo8DataType7HandlerINS_12LittleEndianIiEEvE16defaultConstructEv' type='func-type' binding='weak-binding' visibility='default-visibility' is-defined='yes'/>
    <elf-symbol name='_ZN5mongo8DataType7HandlerIcvE11unsafeStoreERKcPcPm' type='func-type' binding='weak-binding' visibility='default-visibility' is-defined='yes'/>
    <elf-symbol name='_ZN5mongo8DataType7HandlerIivE10unsafeLoadEPiPKcPm' type='func-type' binding='weak-binding' visibility='default-visibility' is-defined='yes'/>
    <elf-symbol name='_ZN5mongo8DataType7HandlerIivE11unsafeStoreERKiPcPm' type='func-type' binding='weak-binding' visibility='default-visibility' is-defined='yes'/>
    <elf-symbol name='_ZN5mongo8DataType7HandlerIivE16defaultConstructEv' type='func-type' binding='weak-binding' visibility='default-visibility' is-defined='yes'/>
    <elf-symbol name='_ZN5mongo8DataView5writeINS_12LittleEndianIcEEEERS0_RKT_m' type='func-type' binding='weak-binding' visibility='default-visibility' is-defined='yes'/>
    <elf-symbol name='_ZN5mongo8DataView5writeINS_12LittleEndianIiEEEERS0_RKT_m' type='func-type' binding='weak-binding' visibility='default-visibility' is-defined='yes'/>
    <elf-symbol name='_ZN5mongo8DataViewC1EPc' type='func-type' binding='weak-binding' visibility='default-visibility' is-defined='yes'/>
    <elf-symbol name='_ZN5mongo8DataViewC2EPc' type='func-type' binding='weak-binding' visibility='default-visibility' alias='_ZN5mongo8DataViewC1EPc' is-defined='yes'/>
    <elf-symbol name='_ZN9__gnu_cxx13new_allocatorISsE10deallocateEPSsm' type='func-type' binding='weak-binding' visibility='default-visibility' is-defined='yes'/>
    <elf-symbol name='_ZN9__gnu_cxx13new_allocatorISsE7destroyISsEEvPT_' type='func-type' binding='weak-binding' visibility='default-visibility' is-defined='yes'/>
    <elf-symbol name='_ZN9__gnu_cxx13new_allocatorISsE8allocateEmPKv' type='func-type' binding='weak-binding' visibility='default-visibility' is-defined='yes'/>
    <elf-symbol name='_ZN9__gnu_cxx13new_allocatorISsE9constructISsISsEEEvPT_DpOT0_' type='func-type' binding='weak-binding' visibility='default-visibility' alias='_ZN9__gnu_cxx13new_allocatorISsE9constructISsJSsEEEvPT_DpOT0_' is-defined='yes'/>
    <elf-symbol name='_ZN9__gnu_cxx13new_allocatorISsE9constructISsJSsEEEvPT_DpOT0_' type='func-type' binding='weak-binding' visibility='default-visibility' is-defined='yes'/>
    <elf-symbol name='_ZN9__gnu_cxx13new_allocatorISsEC1ERKS1_' type='func-type' binding='weak-binding' visibility='default-visibility' is-defined='yes'/>
    <elf-symbol name='_ZN9__gnu_cxx13new_allocatorISsEC1Ev' type='func-type' binding='weak-binding' visibility='default-visibility' is-defined='yes'/>
    <elf-symbol name='_ZN9__gnu_cxx13new_allocatorISsEC2ERKS1_' type='func-type' binding='weak-binding' visibility='default-visibility' alias='_ZN9__gnu_cxx13new_allocatorISsEC1ERKS1_' is-defined='yes'/>
    <elf-symbol name='_ZN9__gnu_cxx13new_allocatorISsEC2Ev' type='func-type' binding='weak-binding' visibility='default-visibility' alias='_ZN9__gnu_cxx13new_allocatorISsEC1Ev' is-defined='yes'/>
    <elf-symbol name='_ZN9__gnu_cxx13new_allocatorISsED1Ev' type='func-type' binding='weak-binding' visibility='default-visibility' is-defined='yes'/>
    <elf-symbol name='_ZN9__gnu_cxx13new_allocatorISsED2Ev' type='func-type' binding='weak-binding' visibility='default-visibility' alias='_ZN9__gnu_cxx13new_allocatorISsED1Ev' is-defined='yes'/>
    <elf-symbol name='_ZN9__gnu_cxx13new_allocatorISt10_List_nodeIN5mongo17optionenvironment13OptionSectionEEE10deallocateEPS5_m' type='func-type' binding='weak-binding' visibility='default-visibility' is-defined='yes'/>
    <elf-symbol name='_ZN9__gnu_cxx13new_allocatorISt10_List_nodeIN5mongo17optionenvironment13OptionSectionEEE7destroyIS5_EEvPT_' type='func-type' binding='weak-binding' visibility='default-visibility' is-defined='yes'/>
    <elf-symbol name='_ZN9__gnu_cxx13new_allocatorISt10_List_nodeIN5mongo17optionenvironment13OptionSectionEEEC1Ev' type='func-type' binding='weak-binding' visibility='default-visibility' is-defined='yes'/>
    <elf-symbol name='_ZN9__gnu_cxx13new_allocatorISt10_List_nodeIN5mongo17optionenvironment13OptionSectionEEEC2Ev' type='func-type' binding='weak-binding' visibility='default-visibility' alias='_ZN9__gnu_cxx13new_allocatorISt10_List_nodeIN5mongo17optionenvironment13OptionSectionEEEC1Ev' is-defined='yes'/>
    <elf-symbol name='_ZN9__gnu_cxx13new_allocatorISt10_List_nodeIN5mongo17optionenvironment13OptionSectionEEED1Ev' type='func-type' binding='weak-binding' visibility='default-visibility' is-defined='yes'/>
    <elf-symbol name='_ZN9__gnu_cxx13new_allocatorISt10_List_nodeIN5mongo17optionenvironment13OptionSectionEEED2Ev' type='func-type' binding='weak-binding' visibility='default-visibility' alias='_ZN9__gnu_cxx13new_allocatorISt10_List_nodeIN5mongo17optionenvironment13OptionSectionEEED1Ev' is-defined='yes'/>
    <elf-symbol name='_ZN9__gnu_cxx13new_allocatorISt10_List_nodeIN5mongo17optionenvironment17OptionDescriptionEEE10deallocateEPS5_m' type='func-type' binding='weak-binding' visibility='default-visibility' is-defined='yes'/>
    <elf-symbol name='_ZN9__gnu_cxx13new_allocatorISt10_List_nodeIN5mongo17optionenvironment17OptionDescriptionEEE7destroyIS5_EEvPT_' type='func-type' binding='weak-binding' visibility='default-visibility' is-defined='yes'/>
    <elf-symbol name='_ZN9__gnu_cxx13new_allocatorISt10_List_nodeIN5mongo17optionenvironment17OptionDescriptionEEEC1Ev' type='func-type' binding='weak-binding' visibility='default-visibility' is-defined='yes'/>
    <elf-symbol name='_ZN9__gnu_cxx13new_allocatorISt10_List_nodeIN5mongo17optionenvironment17OptionDescriptionEEEC2Ev' type='func-type' binding='weak-binding' visibility='default-visibility' alias='_ZN9__gnu_cxx13new_allocatorISt10_List_nodeIN5mongo17optionenvironment17OptionDescriptionEEEC1Ev' is-defined='yes'/>
    <elf-symbol name='_ZN9__gnu_cxx13new_allocatorISt10_List_nodeIN5mongo17optionenvironment17OptionDescriptionEEED1Ev' type='func-type' binding='weak-binding' visibility='default-visibility' is-defined='yes'/>
    <elf-symbol name='_ZN9__gnu_cxx13new_allocatorISt10_List_nodeIN5mongo17optionenvironment17OptionDescriptionEEED2Ev' type='func-type' binding='weak-binding' visibility='default-visibility' alias='_ZN9__gnu_cxx13new_allocatorISt10_List_nodeIN5mongo17optionenvironment17OptionDescriptionEEED1Ev' is-defined='yes'/>
    <elf-symbol name='_ZN9__gnu_cxx13new_allocatorISt10shared_ptrIN5mongo17optionenvironment10ConstraintEEE10deallocateEPS5_m' type='func-type' binding='weak-binding' visibility='default-visibility' is-defined='yes'/>
    <elf-symbol name='_ZN9__gnu_cxx13new_allocatorISt10shared_ptrIN5mongo17optionenvironment10ConstraintEEED1Ev' type='func-type' binding='weak-binding' visibility='default-visibility' is-defined='yes'/>
    <elf-symbol name='_ZN9__gnu_cxx13new_allocatorISt10shared_ptrIN5mongo17optionenvironment10ConstraintEEED2Ev' type='func-type' binding='weak-binding' visibility='default-visibility' alias='_ZN9__gnu_cxx13new_allocatorISt10shared_ptrIN5mongo17optionenvironment10ConstraintEEED1Ev' is-defined='yes'/>
    <elf-symbol name='_ZN9__gnu_cxx13new_allocatorISt13_Rb_tree_nodeISt4pairIKSsSsEEE10deallocateEPS5_m' type='func-type' binding='weak-binding' visibility='default-visibility' is-defined='yes'/>
    <elf-symbol name='_ZN9__gnu_cxx13new_allocatorISt13_Rb_tree_nodeISt4pairIKSsSsEEE7destroyIS4_EEvPT_' type='func-type' binding='weak-binding' visibility='default-visibility' is-defined='yes'/>
    <elf-symbol name='_ZN9__gnu_cxx13new_allocatorISt13_Rb_tree_nodeISt4pairIKSsSsEEEC1Ev' type='func-type' binding='weak-binding' visibility='default-visibility' is-defined='yes'/>
    <elf-symbol name='_ZN9__gnu_cxx13new_allocatorISt13_Rb_tree_nodeISt4pairIKSsSsEEEC2Ev' type='func-type' binding='weak-binding' visibility='default-visibility' alias='_ZN9__gnu_cxx13new_allocatorISt13_Rb_tree_nodeISt4pairIKSsSsEEEC1Ev' is-defined='yes'/>
    <elf-symbol name='_ZN9__gnu_cxx13new_allocatorISt13_Rb_tree_nodeISt4pairIKSsSsEEED1Ev' type='func-type' binding='weak-binding' visibility='default-visibility' is-defined='yes'/>
    <elf-symbol name='_ZN9__gnu_cxx13new_allocatorISt13_Rb_tree_nodeISt4pairIKSsSsEEED2Ev' type='func-type' binding='weak-binding' visibility='default-visibility' alias='_ZN9__gnu_cxx13new_allocatorISt13_Rb_tree_nodeISt4pairIKSsSsEEED1Ev' is-defined='yes'/>
    <elf-symbol name='_ZN9__gnu_cxx14__alloc_traitsISaISsEE15_S_always_equalEv' type='func-type' binding='weak-binding' visibility='default-visibility' is-defined='yes'/>
    <elf-symbol name='_ZN9__gnu_cxx14__alloc_traitsISaISsEE27_S_propagate_on_copy_assignEv' type='func-type' binding='weak-binding' visibility='default-visibility' is-defined='yes'/>
    <elf-symbol name='_ZN9__gnu_cxx16__aligned_bufferISt4pairIKSsSsEE6_M_ptrEv' type='func-type' binding='weak-binding' visibility='default-visibility' is-defined='yes'/>
    <elf-symbol name='_ZN9__gnu_cxx16__aligned_bufferISt4pairIKSsSsEE7_M_addrEv' type='func-type' binding='weak-binding' visibility='default-visibility' is-defined='yes'/>
    <elf-symbol name='_ZN9__gnu_cxx17__normal_iteratorIPKSsSt6vectorISsSaISsEEEC1ERKS2_' type='func-type' binding='weak-binding' visibility='default-visibility' is-defined='yes'/>
    <elf-symbol name='_ZN9__gnu_cxx17__normal_iteratorIPKSsSt6vectorISsSaISsEEEC2ERKS2_' type='func-type' binding='weak-binding' visibility='default-visibility' alias='_ZN9__gnu_cxx17__normal_iteratorIPKSsSt6vectorISsSaISsEEEC1ERKS2_' is-defined='yes'/>
    <elf-symbol name='_ZN9__gnu_cxx17__normal_iteratorIPKSsSt6vectorISsSaISsEEEppEv' type='func-type' binding='weak-binding' visibility='default-visibility' is-defined='yes'/>
    <elf-symbol name='_ZN9__gnu_cxx17__normal_iteratorIPSsSt6vectorISsSaISsEEEC1ERKS1_' type='func-type' binding='weak-binding' visibility='default-visibility' is-defined='yes'/>
    <elf-symbol name='_ZN9__gnu_cxx17__normal_iteratorIPSsSt6vectorISsSaISsEEEC2ERKS1_' type='func-type' binding='weak-binding' visibility='default-visibility' alias='_ZN9__gnu_cxx17__normal_iteratorIPSsSt6vectorISsSaISsEEEC1ERKS1_' is-defined='yes'/>
    <elf-symbol name='_ZN9__gnu_cxx17__normal_iteratorIPSsSt6vectorISsSaISsEEEppEv' type='func-type' binding='weak-binding' visibility='default-visibility' is-defined='yes'/>
    <elf-symbol name='_ZN9__gnu_cxxneIPKSsSt6vectorISsSaISsEEEEbRKNS_17__normal_iteratorIT_T0_EESB_' type='func-type' binding='weak-binding' visibility='default-visibility' is-defined='yes'/>
    <elf-symbol name='_ZN9__gnu_cxxneIPSsSt6vectorISsSaISsEEEEbRKNS_17__normal_iteratorIT_T0_EESA_' type='func-type' binding='weak-binding' visibility='default-visibility' is-defined='yes'/>
    <elf-symbol name='_ZNK10mongoutils3str6streamcvSsEv' type='func-type' binding='weak-binding' visibility='default-visibility' is-defined='yes'/>
    <elf-symbol name='_ZNK5mongo10StringData4sizeEv' type='func-type' binding='weak-binding' visibility='default-visibility' is-defined='yes'/>
    <elf-symbol name='_ZNK5mongo10StringData6copyToEPcb' type='func-type' binding='weak-binding' visibility='default-visibility' is-defined='yes'/>
    <elf-symbol name='_ZNK5mongo11DBException12appendPrefixERSt18basic_stringstreamIcSt11char_traitsIcESaIcEE' type='func-type' binding='weak-binding' visibility='default-visibility' is-defined='yes'/>
    <elf-symbol name='_ZNK5mongo11DBException4whatEv' type='func-type' binding='weak-binding' visibility='default-visibility' is-defined='yes'/>
    <elf-symbol name='_ZNK5mongo11DBException7getCodeEv' type='func-type' binding='weak-binding' visibility='default-visibility' is-defined='yes'/>
    <elf-symbol name='_ZNK5mongo11_BufBuilderINS_16TrivialAllocatorEE3lenEv' type='func-type' binding='weak-binding' visibility='default-visibility' is-defined='yes'/>
    <elf-symbol name='_ZNK5mongo11_BufBuilderINS_16TrivialAllocatorEE7getSizeEv' type='func-type' binding='weak-binding' visibility='default-visibility' is-defined='yes'/>
    <elf-symbol name='_ZNK5mongo12LittleEndianIiEcviEv' type='func-type' binding='weak-binding' visibility='default-visibility' is-defined='yes'/>
    <elf-symbol name='_ZNK5mongo13ConstDataView4readINS_12LittleEndianIiEEEERKS0_PT_m' type='func-type' binding='weak-binding' visibility='default-visibility' is-defined='yes'/>
    <elf-symbol name='_ZNK5mongo13ConstDataView4readINS_12LittleEndianIiEEEET_m' type='func-type' binding='weak-binding' visibility='default-visibility' is-defined='yes'/>
    <elf-symbol name='_ZNK5mongo13ConstDataView4viewEm' type='func-type' binding='weak-binding' visibility='default-visibility' is-defined='yes'/>
    <elf-symbol name='_ZNK5mongo17StringBuilderImplINS_16TrivialAllocatorEE3strEv' type='func-type' binding='weak-binding' visibility='default-visibility' is-defined='yes'/>
    <elf-symbol name='_ZNK5mongo17optionenvironment5Value2asISsEET_v' type='func-type' binding='weak-binding' visibility='default-visibility' is-defined='yes'/>
    <elf-symbol name='_ZNK5mongo17optionenvironment5Value2asISt3mapISsSsSt4lessISsESaISt4pairIKSsSsEEEEET_v' type='func-type' binding='weak-binding' visibility='default-visibility' is-defined='yes'/>
    <elf-symbol name='_ZNK5mongo17optionenvironment5Value2asISt6vectorISsSaISsEEEET_v' type='func-type' binding='weak-binding' visibility='default-visibility' is-defined='yes'/>
    <elf-symbol name='_ZNK5mongo17optionenvironment5Value2asIiEET_v' type='func-type' binding='weak-binding' visibility='default-visibility' is-defined='yes'/>
    <elf-symbol name='_ZNK5mongo18AssertionException15isUserAssertionEv' type='func-type' binding='weak-binding' visibility='default-visibility' is-defined='yes'/>
    <elf-symbol name='_ZNK5mongo18AssertionException6severeEv' type='func-type' binding='weak-binding' visibility='default-visibility' is-defined='yes'/>
    <elf-symbol name='_ZNK5mongo23ExportedServerParameterISsE3getEv' type='func-type' binding='weak-binding' visibility='default-visibility' is-defined='yes'/>
    <elf-symbol name='_ZNK5mongo23ExportedServerParameterISt6vectorISsSaISsEEE3getEv' type='func-type' binding='weak-binding' visibility='default-visibility' is-defined='yes'/>
    <elf-symbol name='_ZNK5mongo23ExportedServerParameterIiE3getEv' type='func-type' binding='weak-binding' visibility='default-visibility' is-defined='yes'/>
    <elf-symbol name='_ZNK5mongo6Status4codeEv' type='func-type' binding='weak-binding' visibility='default-visibility' is-defined='yes'/>
    <elf-symbol name='_ZNK5mongo6Status4isOKEv' type='func-type' binding='weak-binding' visibility='default-visibility' is-defined='yes'/>
    <elf-symbol name='_ZNK5mongo7BSONObj7isValidEv' type='func-type' binding='weak-binding' visibility='default-visibility' is-defined='yes'/>
    <elf-symbol name='_ZNK5mongo7BSONObj7objdataEv' type='func-type' binding='weak-binding' visibility='default-visibility' is-defined='yes'/>
    <elf-symbol name='_ZNK5mongo7BSONObj7objsizeEv' type='func-type' binding='weak-binding' visibility='default-visibility' is-defined='yes'/>
    <elf-symbol name='_ZNK5mongo8DataView4viewEm' type='func-type' binding='weak-binding' visibility='default-visibility' is-defined='yes'/>
    <elf-symbol name='_ZNK9__gnu_cxx13new_allocatorISsE8max_sizeEv' type='func-type' binding='weak-binding' visibility='default-visibility' is-defined='yes'/>
    <elf-symbol name='_ZNK9__gnu_cxx17__normal_iteratorIPKSsSt6vectorISsSaISsEEE4baseEv' type='func-type' binding='weak-binding' visibility='default-visibility' is-defined='yes'/>
    <elf-symbol name='_ZNK9__gnu_cxx17__normal_iteratorIPKSsSt6vectorISsSaISsEEEdeEv' type='func-type' binding='weak-binding' visibility='default-visibility' is-defined='yes'/>
    <elf-symbol name='_ZNK9__gnu_cxx17__normal_iteratorIPSsSt6vectorISsSaISsEEE4baseEv' type='func-type' binding='weak-binding' visibility='default-visibility' is-defined='yes'/>
    <elf-symbol name='_ZNK9__gnu_cxx17__normal_iteratorIPSsSt6vectorISsSaISsEEEdeEv' type='func-type' binding='weak-binding' visibility='default-visibility' is-defined='yes'/>
    <elf-symbol name='_ZNKSt10unique_ptrISt19basic_ostringstreamIcSt11char_traitsIcESaIcEESt14default_deleteIS4_EE3getEv' type='func-type' binding='weak-binding' visibility='default-visibility' is-defined='yes'/>
    <elf-symbol name='_ZNKSt10unique_ptrISt19basic_ostringstreamIcSt11char_traitsIcESaIcEESt14default_deleteIS4_EEcvbEv' type='func-type' binding='weak-binding' visibility='default-visibility' is-defined='yes'/>
    <elf-symbol name='_ZNKSt10unique_ptrISt19basic_ostringstreamIcSt11char_traitsIcESaIcEESt14default_deleteIS4_EEdeEv' type='func-type' binding='weak-binding' visibility='default-visibility' is-defined='yes'/>
    <elf-symbol name='_ZNKSt12_Vector_baseISsSaISsEE13get_allocatorEv' type='func-type' binding='weak-binding' visibility='default-visibility' is-defined='yes'/>
    <elf-symbol name='_ZNKSt12_Vector_baseISsSaISsEE19_M_get_Tp_allocatorEv' type='func-type' binding='weak-binding' visibility='default-visibility' is-defined='yes'/>
    <elf-symbol name='_ZNKSt13move_iteratorIPSsE4baseEv' type='func-type' binding='weak-binding' visibility='default-visibility' is-defined='yes'/>
    <elf-symbol name='_ZNKSt13move_iteratorIPSsEdeEv' type='func-type' binding='weak-binding' visibility='default-visibility' is-defined='yes'/>
    <elf-symbol name='_ZNKSt14default_deleteIN5mongo14BSONObjBuilderEEclEPS1_' type='func-type' binding='weak-binding' visibility='default-visibility' is-defined='yes'/>
    <elf-symbol name='_ZNKSt17_Rb_tree_iteratorISt4pairIKSsSsEEneERKS3_' type='func-type' binding='weak-binding' visibility='default-visibility' is-defined='yes'/>
    <elf-symbol name='_ZNKSt17_Rb_tree_iteratorISt4pairIKSsSsEEptEv' type='func-type' binding='weak-binding' visibility='default-visibility' is-defined='yes'/>
    <elf-symbol name='_ZNKSt6vectorISsSaISsEE12_M_check_lenEmPKc' type='func-type' binding='weak-binding' visibility='default-visibility' is-defined='yes'/>
    <elf-symbol name='_ZNKSt6vectorISsSaISsEE3endEv' type='func-type' binding='weak-binding' visibility='default-visibility' is-defined='yes'/>
    <elf-symbol name='_ZNKSt6vectorISsSaISsEE4sizeEv' type='func-type' binding='weak-binding' visibility='default-visibility' is-defined='yes'/>
    <elf-symbol name='_ZNKSt6vectorISsSaISsEE5beginEv' type='func-type' binding='weak-binding' visibility='default-visibility' is-defined='yes'/>
    <elf-symbol name='_ZNKSt6vectorISsSaISsEE8capacityEv' type='func-type' binding='weak-binding' visibility='default-visibility' is-defined='yes'/>
    <elf-symbol name='_ZNKSt6vectorISsSaISsEE8max_sizeEv' type='func-type' binding='weak-binding' visibility='default-visibility' is-defined='yes'/>
    <elf-symbol name='_ZNKSt6vectorISsSaISsEEixEm' type='func-type' binding='weak-binding' visibility='default-visibility' is-defined='yes'/>
    <elf-symbol name='_ZNKSt9_Any_data9_M_accessEv' type='func-type' binding='weak-binding' visibility='default-visibility' is-defined='yes'/>
    <elf-symbol name='_ZNKSt9_Any_data9_M_accessIPFN5mongo6StatusEPNS1_18InitializerContextEEEERKT_v' type='func-type' binding='weak-binding' visibility='default-visibility' is-defined='yes'/>
    <elf-symbol name='_ZNSaISsEC1ERKS_' type='func-type' binding='weak-binding' visibility='default-visibility' is-defined='yes'/>
    <elf-symbol name='_ZNSaISsEC1Ev' type='func-type' binding='weak-binding' visibility='default-visibility' is-defined='yes'/>
    <elf-symbol name='_ZNSaISsEC2ERKS_' type='func-type' binding='weak-binding' visibility='default-visibility' alias='_ZNSaISsEC1ERKS_' is-defined='yes'/>
    <elf-symbol name='_ZNSaISsEC2Ev' type='func-type' binding='weak-binding' visibility='default-visibility' alias='_ZNSaISsEC1Ev' is-defined='yes'/>
    <elf-symbol name='_ZNSaISsED1Ev' type='func-type' binding='weak-binding' visibility='default-visibility' is-defined='yes'/>
    <elf-symbol name='_ZNSaISsED2Ev' type='func-type' binding='weak-binding' visibility='default-visibility' alias='_ZNSaISsED1Ev' is-defined='yes'/>
    <elf-symbol name='_ZNSaISt10_List_nodeIN5mongo17optionenvironment13OptionSectionEEEC1Ev' type='func-type' binding='weak-binding' visibility='default-visibility' is-defined='yes'/>
    <elf-symbol name='_ZNSaISt10_List_nodeIN5mongo17optionenvironment13OptionSectionEEEC2Ev' type='func-type' binding='weak-binding' visibility='default-visibility' alias='_ZNSaISt10_List_nodeIN5mongo17optionenvironment13OptionSectionEEEC1Ev' is-defined='yes'/>
    <elf-symbol name='_ZNSaISt10_List_nodeIN5mongo17optionenvironment13OptionSectionEEED1Ev' type='func-type' binding='weak-binding' visibility='default-visibility' is-defined='yes'/>
    <elf-symbol name='_ZNSaISt10_List_nodeIN5mongo17optionenvironment13OptionSectionEEED2Ev' type='func-type' binding='weak-binding' visibility='default-visibility' alias='_ZNSaISt10_List_nodeIN5mongo17optionenvironment13OptionSectionEEED1Ev' is-defined='yes'/>
    <elf-symbol name='_ZNSaISt10_List_nodeIN5mongo17optionenvironment17OptionDescriptionEEEC1Ev' type='func-type' binding='weak-binding' visibility='default-visibility' is-defined='yes'/>
    <elf-symbol name='_ZNSaISt10_List_nodeIN5mongo17optionenvironment17OptionDescriptionEEEC2Ev' type='func-type' binding='weak-binding' visibility='default-visibility' alias='_ZNSaISt10_List_nodeIN5mongo17optionenvironment17OptionDescriptionEEEC1Ev' is-defined='yes'/>
    <elf-symbol name='_ZNSaISt10_List_nodeIN5mongo17optionenvironment17OptionDescriptionEEED1Ev' type='func-type' binding='weak-binding' visibility='default-visibility' is-defined='yes'/>
    <elf-symbol name='_ZNSaISt10_List_nodeIN5mongo17optionenvironment17OptionDescriptionEEED2Ev' type='func-type' binding='weak-binding' visibility='default-visibility' alias='_ZNSaISt10_List_nodeIN5mongo17optionenvironment17OptionDescriptionEEED1Ev' is-defined='yes'/>
    <elf-symbol name='_ZNSaISt10shared_ptrIN5mongo17optionenvironment10ConstraintEEED1Ev' type='func-type' binding='weak-binding' visibility='default-visibility' is-defined='yes'/>
    <elf-symbol name='_ZNSaISt10shared_ptrIN5mongo17optionenvironment10ConstraintEEED2Ev' type='func-type' binding='weak-binding' visibility='default-visibility' alias='_ZNSaISt10shared_ptrIN5mongo17optionenvironment10ConstraintEEED1Ev' is-defined='yes'/>
    <elf-symbol name='_ZNSaISt13_Rb_tree_nodeISt4pairIKSsSsEEEC1Ev' type='func-type' binding='weak-binding' visibility='default-visibility' is-defined='yes'/>
    <elf-symbol name='_ZNSaISt13_Rb_tree_nodeISt4pairIKSsSsEEEC2Ev' type='func-type' binding='weak-binding' visibility='default-visibility' alias='_ZNSaISt13_Rb_tree_nodeISt4pairIKSsSsEEEC1Ev' is-defined='yes'/>
    <elf-symbol name='_ZNSaISt13_Rb_tree_nodeISt4pairIKSsSsEEED1Ev' type='func-type' binding='weak-binding' visibility='default-visibility' is-defined='yes'/>
    <elf-symbol name='_ZNSaISt13_Rb_tree_nodeISt4pairIKSsSsEEED2Ev' type='func-type' binding='weak-binding' visibility='default-visibility' alias='_ZNSaISt13_Rb_tree_nodeISt4pairIKSsSsEEED1Ev' is-defined='yes'/>
    <elf-symbol name='_ZNSt10_Head_baseILm0EPN5mongo14BSONObjBuilderELb0EE7_M_headERS3_' type='func-type' binding='weak-binding' visibility='default-visibility' is-defined='yes'/>
    <elf-symbol name='_ZNSt10_Head_baseILm0EPSt19basic_ostringstreamIcSt11char_traitsIcESaIcEELb0EE7_M_headERKS6_' type='func-type' binding='weak-binding' visibility='default-visibility' is-defined='yes'/>
    <elf-symbol name='_ZNSt10_Head_baseILm1ESt14default_deleteIN5mongo14BSONObjBuilderEELb1EE7_M_headERS4_' type='func-type' binding='weak-binding' visibility='default-visibility' is-defined='yes'/>
    <elf-symbol name='_ZNSt10_Iter_baseIN9__gnu_cxx17__normal_iteratorIPKSsSt6vectorISsSaISsEEEELb0EE7_S_baseES7_' type='func-type' binding='weak-binding' visibility='default-visibility' is-defined='yes'/>
    <elf-symbol name='_ZNSt10_Iter_baseIN9__gnu_cxx17__normal_iteratorIPKSsSt6vectorISsSaISsEEEELb1EE7_S_baseES7_' type='func-type' binding='weak-binding' visibility='default-visibility' is-defined='yes'/>
    <elf-symbol name='_ZNSt10_Iter_baseIN9__gnu_cxx17__normal_iteratorIPSsSt6vectorISsSaISsEEEELb1EE7_S_baseES6_' type='func-type' binding='weak-binding' visibility='default-visibility' is-defined='yes'/>
    <elf-symbol name='_ZNSt10_Iter_baseIPSsLb0EE7_S_baseES0_' type='func-type' binding='weak-binding' visibility='default-visibility' is-defined='yes'/>
    <elf-symbol name='_ZNSt10_List_baseIN5mongo17optionenvironment13OptionSectionESaIS2_EE10_List_implC1Ev' type='func-type' binding='weak-binding' visibility='default-visibility' is-defined='yes'/>
    <elf-symbol name='_ZNSt10_List_baseIN5mongo17optionenvironment13OptionSectionESaIS2_EE10_List_implC2Ev' type='func-type' binding='weak-binding' visibility='default-visibility' alias='_ZNSt10_List_baseIN5mongo17optionenvironment13OptionSectionESaIS2_EE10_List_implC1Ev' is-defined='yes'/>
    <elf-symbol name='_ZNSt10_List_baseIN5mongo17optionenvironment13OptionSectionESaIS2_EE10_List_implD1Ev' type='func-type' binding='weak-binding' visibility='default-visibility' alias='_ZNSt10_List_baseIN5mongo17optionenvironment13OptionSectionESaIS2_EE10_List_implD2Ev' is-defined='yes'/>
    <elf-symbol name='_ZNSt10_List_baseIN5mongo17optionenvironment13OptionSectionESaIS2_EE10_List_implD2Ev' type='func-type' binding='weak-binding' visibility='default-visibility' is-defined='yes'/>
    <elf-symbol name='_ZNSt10_List_baseIN5mongo17optionenvironment13OptionSectionESaIS2_EE11_M_put_nodeEPSt10_List_nodeIS2_E' type='func-type' binding='weak-binding' visibility='default-visibility' is-defined='yes'/>
    <elf-symbol name='_ZNSt10_List_baseIN5mongo17optionenvironment13OptionSectionESaIS2_EE21_M_get_Node_allocatorEv' type='func-type' binding='weak-binding' visibility='default-visibility' is-defined='yes'/>
    <elf-symbol name='_ZNSt10_List_baseIN5mongo17optionenvironment13OptionSectionESaIS2_EE7_M_initEv' type='func-type' binding='weak-binding' visibility='default-visibility' is-defined='yes'/>
    <elf-symbol name='_ZNSt10_List_baseIN5mongo17optionenvironment13OptionSectionESaIS2_EE8_M_clearEv' type='func-type' binding='weak-binding' visibility='default-visibility' is-defined='yes'/>
    <elf-symbol name='_ZNSt10_List_baseIN5mongo17optionenvironment13OptionSectionESaIS2_EEC1Ev' type='func-type' binding='weak-binding' visibility='default-visibility' is-defined='yes'/>
    <elf-symbol name='_ZNSt10_List_baseIN5mongo17optionenvironment13OptionSectionESaIS2_EEC2Ev' type='func-type' binding='weak-binding' visibility='default-visibility' alias='_ZNSt10_List_baseIN5mongo17optionenvironment13OptionSectionESaIS2_EEC1Ev' is-defined='yes'/>
    <elf-symbol name='_ZNSt10_List_baseIN5mongo17optionenvironment13OptionSectionESaIS2_EED1Ev' type='func-type' binding='weak-binding' visibility='default-visibility' is-defined='yes'/>
    <elf-symbol name='_ZNSt10_List_baseIN5mongo17optionenvironment13OptionSectionESaIS2_EED2Ev' type='func-type' binding='weak-binding' visibility='default-visibility' alias='_ZNSt10_List_baseIN5mongo17optionenvironment13OptionSectionESaIS2_EED1Ev' is-defined='yes'/>
    <elf-symbol name='_ZNSt10_List_baseIN5mongo17optionenvironment17OptionDescriptionESaIS2_EE10_List_implC1Ev' type='func-type' binding='weak-binding' visibility='default-visibility' is-defined='yes'/>
    <elf-symbol name='_ZNSt10_List_baseIN5mongo17optionenvironment17OptionDescriptionESaIS2_EE10_List_implC2Ev' type='func-type' binding='weak-binding' visibility='default-visibility' alias='_ZNSt10_List_baseIN5mongo17optionenvironment17OptionDescriptionESaIS2_EE10_List_implC1Ev' is-defined='yes'/>
    <elf-symbol name='_ZNSt10_List_baseIN5mongo17optionenvironment17OptionDescriptionESaIS2_EE10_List_implD1Ev' type='func-type' binding='weak-binding' visibility='default-visibility' alias='_ZNSt10_List_baseIN5mongo17optionenvironment17OptionDescriptionESaIS2_EE10_List_implD2Ev' is-defined='yes'/>
    <elf-symbol name='_ZNSt10_List_baseIN5mongo17optionenvironment17OptionDescriptionESaIS2_EE10_List_implD2Ev' type='func-type' binding='weak-binding' visibility='default-visibility' is-defined='yes'/>
    <elf-symbol name='_ZNSt10_List_baseIN5mongo17optionenvironment17OptionDescriptionESaIS2_EE11_M_put_nodeEPSt10_List_nodeIS2_E' type='func-type' binding='weak-binding' visibility='default-visibility' is-defined='yes'/>
    <elf-symbol name='_ZNSt10_List_baseIN5mongo17optionenvironment17OptionDescriptionESaIS2_EE21_M_get_Node_allocatorEv' type='func-type' binding='weak-binding' visibility='default-visibility' is-defined='yes'/>
    <elf-symbol name='_ZNSt10_List_baseIN5mongo17optionenvironment17OptionDescriptionESaIS2_EE7_M_initEv' type='func-type' binding='weak-binding' visibility='default-visibility' is-defined='yes'/>
    <elf-symbol name='_ZNSt10_List_baseIN5mongo17optionenvironment17OptionDescriptionESaIS2_EE8_M_clearEv' type='func-type' binding='weak-binding' visibility='default-visibility' is-defined='yes'/>
    <elf-symbol name='_ZNSt10_List_baseIN5mongo17optionenvironment17OptionDescriptionESaIS2_EEC1Ev' type='func-type' binding='weak-binding' visibility='default-visibility' is-defined='yes'/>
    <elf-symbol name='_ZNSt10_List_baseIN5mongo17optionenvironment17OptionDescriptionESaIS2_EEC2Ev' type='func-type' binding='weak-binding' visibility='default-visibility' alias='_ZNSt10_List_baseIN5mongo17optionenvironment17OptionDescriptionESaIS2_EEC1Ev' is-defined='yes'/>
    <elf-symbol name='_ZNSt10_List_baseIN5mongo17optionenvironment17OptionDescriptionESaIS2_EED1Ev' type='func-type' binding='weak-binding' visibility='default-visibility' is-defined='yes'/>
    <elf-symbol name='_ZNSt10_List_baseIN5mongo17optionenvironment17OptionDescriptionESaIS2_EED2Ev' type='func-type' binding='weak-binding' visibility='default-visibility' alias='_ZNSt10_List_baseIN5mongo17optionenvironment17OptionDescriptionESaIS2_EED1Ev' is-defined='yes'/>
    <elf-symbol name='_ZNSt10_List_nodeIN5mongo17optionenvironment13OptionSectionEED1Ev' type='func-type' binding='weak-binding' visibility='default-visibility' alias='_ZNSt10_List_nodeIN5mongo17optionenvironment13OptionSectionEED2Ev' is-defined='yes'/>
    <elf-symbol name='_ZNSt10_List_nodeIN5mongo17optionenvironment13OptionSectionEED2Ev' type='func-type' binding='weak-binding' visibility='default-visibility' is-defined='yes'/>
    <elf-symbol name='_ZNSt10_List_nodeIN5mongo17optionenvironment17OptionDescriptionEED1Ev' type='func-type' binding='weak-binding' visibility='default-visibility' alias='_ZNSt10_List_nodeIN5mongo17optionenvironment17OptionDescriptionEED2Ev' is-defined='yes'/>
    <elf-symbol name='_ZNSt10_List_nodeIN5mongo17optionenvironment17OptionDescriptionEED2Ev' type='func-type' binding='weak-binding' visibility='default-visibility' is-defined='yes'/>
    <elf-symbol name='_ZNSt10shared_ptrIN5mongo17optionenvironment10ConstraintEED1Ev' type='func-type' binding='weak-binding' visibility='default-visibility' alias='_ZNSt10shared_ptrIN5mongo17optionenvironment10ConstraintEED2Ev' is-defined='yes'/>
    <elf-symbol name='_ZNSt10shared_ptrIN5mongo17optionenvironment10ConstraintEED2Ev' type='func-type' binding='weak-binding' visibility='default-visibility' is-defined='yes'/>
    <elf-symbol name='_ZNSt10unique_ptrIN5mongo14BSONObjBuilderESt14default_deleteIS1_EE11get_deleterEv' type='func-type' binding='weak-binding' visibility='default-visibility' is-defined='yes'/>
    <elf-symbol name='_ZNSt10unique_ptrIN5mongo14BSONObjBuilderESt14default_deleteIS1_EED1Ev' type='func-type' binding='weak-binding' visibility='default-visibility' is-defined='yes'/>
    <elf-symbol name='_ZNSt10unique_ptrIN5mongo14BSONObjBuilderESt14default_deleteIS1_EED2Ev' type='func-type' binding='weak-binding' visibility='default-visibility' alias='_ZNSt10unique_ptrIN5mongo14BSONObjBuilderESt14default_deleteIS1_EED1Ev' is-defined='yes'/>
    <elf-symbol name='_ZNSt11_Tuple_implILm0EIPN5mongo14BSONObjBuilderESt14default_deleteIS1_EEE7_M_headERS5_' type='func-type' binding='weak-binding' visibility='default-visibility' alias='_ZNSt11_Tuple_implILm0EJPN5mongo14BSONObjBuilderESt14default_deleteIS1_EEE7_M_headERS5_' is-defined='yes'/>
    <elf-symbol name='_ZNSt11_Tuple_implILm0EIPSt19basic_ostringstreamIcSt11char_traitsIcESaIcEESt14default_deleteIS4_EEE7_M_headERKS8_' type='func-type' binding='weak-binding' visibility='default-visibility' alias='_ZNSt11_Tuple_implILm0EJPSt19basic_ostringstreamIcSt11char_traitsIcESaIcEESt14default_deleteIS4_EEE7_M_headERKS8_' is-defined='yes'/>
    <elf-symbol name='_ZNSt11_Tuple_implILm0EJPN5mongo14BSONObjBuilderESt14default_deleteIS1_EEE7_M_headERS5_' type='func-type' binding='weak-binding' visibility='default-visibility' is-defined='yes'/>
    <elf-symbol name='_ZNSt11_Tuple_implILm0EJPSt19basic_ostringstreamIcSt11char_traitsIcESaIcEESt14default_deleteIS4_EEE7_M_headERKS8_' type='func-type' binding='weak-binding' visibility='default-visibility' is-defined='yes'/>
    <elf-symbol name='_ZNSt11_Tuple_implILm1EISt14default_deleteIN5mongo14BSONObjBuilderEEEE7_M_headERS4_' type='func-type' binding='weak-binding' visibility='default-visibility' alias='_ZNSt11_Tuple_implILm1EJSt14default_deleteIN5mongo14BSONObjBuilderEEEE7_M_headERS4_' is-defined='yes'/>
    <elf-symbol name='_ZNSt11_Tuple_implILm1EJSt14default_deleteIN5mongo14BSONObjBuilderEEEE7_M_headERS4_' type='func-type' binding='weak-binding' visibility='default-visibility' is-defined='yes'/>
    <elf-symbol name='_ZNSt11__copy_moveILb0ELb0ESt26random_access_iterator_tagE8__copy_mIPKSsPSsEET0_T_S7_S6_' type='func-type' binding='weak-binding' visibility='default-visibility' is-defined='yes'/>
    <elf-symbol name='_ZNSt11__copy_moveILb0ELb0ESt26random_access_iterator_tagE8__copy_mIPSsS3_EET0_T_S5_S4_' type='func-type' binding='weak-binding' visibility='default-visibility' is-defined='yes'/>
    <elf-symbol name='_ZNSt12_Destroy_auxILb0EE9__destroyIN9__gnu_cxx17__normal_iteratorIPSsSt6vectorISsSaISsEEEEEEvT_S9_' type='func-type' binding='weak-binding' visibility='default-visibility' is-defined='yes'/>
    <elf-symbol name='_ZNSt12_Destroy_auxILb0EE9__destroyIPSsEEvT_S3_' type='func-type' binding='weak-binding' visibility='default-visibility' is-defined='yes'/>
    <elf-symbol name='_ZNSt12_Destroy_auxILb0EE9__destroyIPSt10shared_ptrIN5mongo17optionenvironment10ConstraintEEEEvT_S8_' type='func-type' binding='weak-binding' visibility='default-visibility' is-defined='yes'/>
    <elf-symbol name='_ZNSt12_Vector_baseISsSaISsEE11_M_allocateEm' type='func-type' binding='weak-binding' visibility='default-visibility' is-defined='yes'/>
    <elf-symbol name='_ZNSt12_Vector_baseISsSaISsEE12_Vector_impl12_M_swap_dataERS2_' type='func-type' binding='weak-binding' visibility='default-visibility' is-defined='yes'/>
    <elf-symbol name='_ZNSt12_Vector_baseISsSaISsEE12_Vector_implC1ERKS0_' type='func-type' binding='weak-binding' visibility='default-visibility' is-defined='yes'/>
    <elf-symbol name='_ZNSt12_Vector_baseISsSaISsEE12_Vector_implC1Ev' type='func-type' binding='weak-binding' visibility='default-visibility' is-defined='yes'/>
    <elf-symbol name='_ZNSt12_Vector_baseISsSaISsEE12_Vector_implC2ERKS0_' type='func-type' binding='weak-binding' visibility='default-visibility' alias='_ZNSt12_Vector_baseISsSaISsEE12_Vector_implC1ERKS0_' is-defined='yes'/>
    <elf-symbol name='_ZNSt12_Vector_baseISsSaISsEE12_Vector_implC2Ev' type='func-type' binding='weak-binding' visibility='default-visibility' alias='_ZNSt12_Vector_baseISsSaISsEE12_Vector_implC1Ev' is-defined='yes'/>
    <elf-symbol name='_ZNSt12_Vector_baseISsSaISsEE12_Vector_implD1Ev' type='func-type' binding='weak-binding' visibility='default-visibility' alias='_ZNSt12_Vector_baseISsSaISsEE12_Vector_implD2Ev' is-defined='yes'/>
    <elf-symbol name='_ZNSt12_Vector_baseISsSaISsEE12_Vector_implD2Ev' type='func-type' binding='weak-binding' visibility='default-visibility' is-defined='yes'/>
    <elf-symbol name='_ZNSt12_Vector_baseISsSaISsEE13_M_deallocateEPSsm' type='func-type' binding='weak-binding' visibility='default-visibility' is-defined='yes'/>
    <elf-symbol name='_ZNSt12_Vector_baseISsSaISsEE19_M_get_Tp_allocatorEv' type='func-type' binding='weak-binding' visibility='default-visibility' is-defined='yes'/>
    <elf-symbol name='_ZNSt12_Vector_baseISsSaISsEEC1ERKS0_' type='func-type' binding='weak-binding' visibility='default-visibility' is-defined='yes'/>
    <elf-symbol name='_ZNSt12_Vector_baseISsSaISsEEC1Ev' type='func-type' binding='weak-binding' visibility='default-visibility' is-defined='yes'/>
    <elf-symbol name='_ZNSt12_Vector_baseISsSaISsEEC2ERKS0_' type='func-type' binding='weak-binding' visibility='default-visibility' alias='_ZNSt12_Vector_baseISsSaISsEEC1ERKS0_' is-defined='yes'/>
    <elf-symbol name='_ZNSt12_Vector_baseISsSaISsEEC2Ev' type='func-type' binding='weak-binding' visibility='default-visibility' alias='_ZNSt12_Vector_baseISsSaISsEEC1Ev' is-defined='yes'/>
    <elf-symbol name='_ZNSt12_Vector_baseISsSaISsEED1Ev' type='func-type' binding='weak-binding' visibility='default-visibility' is-defined='yes'/>
    <elf-symbol name='_ZNSt12_Vector_baseISsSaISsEED2Ev' type='func-type' binding='weak-binding' visibility='default-visibility' alias='_ZNSt12_Vector_baseISsSaISsEED1Ev' is-defined='yes'/>
    <elf-symbol name='_ZNSt12_Vector_baseISt10shared_ptrIN5mongo17optionenvironment10ConstraintEESaIS4_EE12_Vector_implD1Ev' type='func-type' binding='weak-binding' visibility='default-visibility' alias='_ZNSt12_Vector_baseISt10shared_ptrIN5mongo17optionenvironment10ConstraintEESaIS4_EE12_Vector_implD2Ev' is-defined='yes'/>
    <elf-symbol name='_ZNSt12_Vector_baseISt10shared_ptrIN5mongo17optionenvironment10ConstraintEESaIS4_EE12_Vector_implD2Ev' type='func-type' binding='weak-binding' visibility='default-visibility' is-defined='yes'/>
    <elf-symbol name='_ZNSt12_Vector_baseISt10shared_ptrIN5mongo17optionenvironment10ConstraintEESaIS4_EE13_M_deallocateEPS4_m' type='func-type' binding='weak-binding' visibility='default-visibility' is-defined='yes'/>
    <elf-symbol name='_ZNSt12_Vector_baseISt10shared_ptrIN5mongo17optionenvironment10ConstraintEESaIS4_EE19_M_get_Tp_allocatorEv' type='func-type' binding='weak-binding' visibility='default-visibility' is-defined='yes'/>
    <elf-symbol name='_ZNSt12_Vector_baseISt10shared_ptrIN5mongo17optionenvironment10ConstraintEESaIS4_EED1Ev' type='func-type' binding='weak-binding' visibility='default-visibility' is-defined='yes'/>
    <elf-symbol name='_ZNSt12_Vector_baseISt10shared_ptrIN5mongo17optionenvironment10ConstraintEESaIS4_EED2Ev' type='func-type' binding='weak-binding' visibility='default-visibility' alias='_ZNSt12_Vector_baseISt10shared_ptrIN5mongo17optionenvironment10ConstraintEESaIS4_EED1Ev' is-defined='yes'/>
    <elf-symbol name='_ZNSt12__shared_ptrIN5mongo17optionenvironment10ConstraintELN9__gnu_cxx12_Lock_policyE2EED1Ev' type='func-type' binding='weak-binding' visibility='default-visibility' is-defined='yes'/>
    <elf-symbol name='_ZNSt12__shared_ptrIN5mongo17optionenvironment10ConstraintELN9__gnu_cxx12_Lock_policyE2EED2Ev' type='func-type' binding='weak-binding' visibility='default-visibility' alias='_ZNSt12__shared_ptrIN5mongo17optionenvironment10ConstraintELN9__gnu_cxx12_Lock_policyE2EED1Ev' is-defined='yes'/>
    <elf-symbol name='_ZNSt13_Rb_tree_nodeISt4pairIKSsSsEE9_M_valptrEv' type='func-type' binding='weak-binding' visibility='default-visibility' is-defined='yes'/>
    <elf-symbol name='_ZNSt13move_iteratorIPSsEC1ES0_' type='func-type' binding='weak-binding' visibility='default-visibility' is-defined='yes'/>
    <elf-symbol name='_ZNSt13move_iteratorIPSsEC2ES0_' type='func-type' binding='weak-binding' visibility='default-visibility' alias='_ZNSt13move_iteratorIPSsEC1ES0_' is-defined='yes'/>
    <elf-symbol name='_ZNSt13move_iteratorIPSsEppEv' type='func-type' binding='weak-binding' visibility='default-visibility' is-defined='yes'/>
    <elf-symbol name='_ZNSt14_Function_base13_Base_managerIPFN5mongo6StatusEPNS1_18InitializerContextEEE10_M_destroyERSt9_Any_dataSt17integral_constantIbLb1EE' type='func-type' binding='weak-binding' visibility='default-visibility' is-defined='yes'/>
    <elf-symbol name='_ZNSt14_Function_base13_Base_managerIPFN5mongo6StatusEPNS1_18InitializerContextEEE10_M_managerERSt9_Any_dataRKS8_St18_Manager_operation' type='func-type' binding='weak-binding' visibility='default-visibility' is-defined='yes'/>
    <elf-symbol name='_ZNSt14_Function_base13_Base_managerIPFN5mongo6StatusEPNS1_18InitializerContextEEE14_M_get_pointerERKSt9_Any_data' type='func-type' binding='weak-binding' visibility='default-visibility' is-defined='yes'/>
    <elf-symbol name='_ZNSt14_Function_base13_Base_managerIPFN5mongo6StatusEPNS1_18InitializerContextEEE15_M_init_functorERSt9_Any_dataOS6_' type='func-type' binding='weak-binding' visibility='default-visibility' is-defined='yes'/>
    <elf-symbol name='_ZNSt14_Function_base13_Base_managerIPFN5mongo6StatusEPNS1_18InitializerContextEEE15_M_init_functorERSt9_Any_dataOS6_St17integral_constantIbLb1EE' type='func-type' binding='weak-binding' visibility='default-visibility' is-defined='yes'/>
    <elf-symbol name='_ZNSt14_Function_base13_Base_managerIPFN5mongo6StatusEPNS1_18InitializerContextEEE21_M_not_empty_functionIS5_EEbRKPT_' type='func-type' binding='weak-binding' visibility='default-visibility' is-defined='yes'/>
    <elf-symbol name='_ZNSt14_Function_base13_Base_managerIPFN5mongo6StatusEPNS1_18InitializerContextEEE8_M_cloneERSt9_Any_dataRKS8_St17integral_constantIbLb1EE' type='func-type' binding='weak-binding' visibility='default-visibility' is-defined='yes'/>
    <elf-symbol name='_ZNSt14_Function_baseC1Ev' type='func-type' binding='weak-binding' visibility='default-visibility' is-defined='yes'/>
    <elf-symbol name='_ZNSt14_Function_baseC2Ev' type='func-type' binding='weak-binding' visibility='default-visibility' alias='_ZNSt14_Function_baseC1Ev' is-defined='yes'/>
    <elf-symbol name='_ZNSt14_Function_baseD1Ev' type='func-type' binding='weak-binding' visibility='default-visibility' is-defined='yes'/>
    <elf-symbol name='_ZNSt14_Function_baseD2Ev' type='func-type' binding='weak-binding' visibility='default-visibility' alias='_ZNSt14_Function_baseD1Ev' is-defined='yes'/>
    <elf-symbol name='_ZNSt14__shared_countILN9__gnu_cxx12_Lock_policyE2EED1Ev' type='func-type' binding='weak-binding' visibility='default-visibility' is-defined='yes'/>
    <elf-symbol name='_ZNSt14__shared_countILN9__gnu_cxx12_Lock_policyE2EED2Ev' type='func-type' binding='weak-binding' visibility='default-visibility' alias='_ZNSt14__shared_countILN9__gnu_cxx12_Lock_policyE2EED1Ev' is-defined='yes'/>
    <elf-symbol name='_ZNSt14unary_functionIPN5mongo18InitializerContextENS0_6StatusEEC1Ev' type='func-type' binding='weak-binding' visibility='default-visibility' alias='_ZNSt14unary_functionIPN5mongo18InitializerContextENS0_6StatusEEC2Ev' is-defined='yes'/>
    <elf-symbol name='_ZNSt14unary_functionIPN5mongo18InitializerContextENS0_6StatusEEC2Ev' type='func-type' binding='weak-binding' visibility='default-visibility' is-defined='yes'/>
    <elf-symbol name='_ZNSt16_Sp_counted_baseILN9__gnu_cxx12_Lock_policyE2EE10_M_releaseEv' type='func-type' binding='weak-binding' visibility='default-visibility' is-defined='yes'/>
    <elf-symbol name='_ZNSt16allocator_traitsISaISsEE10_S_destroyISsEENSt9enable_ifIXsrSt6__and_IINS1_16__destroy_helperIT_E4typeEEE5valueEvE4typeERS0_PS6_' type='func-type' binding='weak-binding' visibility='default-visibility' alias='_ZNSt16allocator_traitsISaISsEE10_S_destroyISsEENSt9enable_ifIXsrSt6__and_IJNS1_16__destroy_helperIT_E4typeEEE5valueEvE4typeERS0_PS6_' is-defined='yes'/>
    <elf-symbol name='_ZNSt16allocator_traitsISaISsEE10_S_destroyISsEENSt9enable_ifIXsrSt6__and_IJNS1_16__destroy_helperIT_E4typeEEE5valueEvE4typeERS0_PS6_' type='func-type' binding='weak-binding' visibility='default-visibility' is-defined='yes'/>
    <elf-symbol name='_ZNSt16allocator_traitsISaISsEE10deallocateERS0_PSsm' type='func-type' binding='weak-binding' visibility='default-visibility' is-defined='yes'/>
    <elf-symbol name='_ZNSt16allocator_traitsISaISsEE11_S_max_sizeIKS0_vEEmRT_i' type='func-type' binding='weak-binding' visibility='default-visibility' is-defined='yes'/>
    <elf-symbol name='_ZNSt16allocator_traitsISaISsEE12_S_constructISsISsEEENSt9enable_ifIXsrSt6__and_IINS1_18__construct_helperIT_IDpT0_EE4typeEEE5valueEvE4typeERS0_PS6_DpOS7_' type='func-type' binding='weak-binding' visibility='default-visibility' alias='_ZNSt16allocator_traitsISaISsEE12_S_constructISsJSsEEENSt9enable_ifIXsrSt6__and_IJNS1_18__construct_helperIT_JDpT0_EE4typeEEE5valueEvE4typeERS0_PS6_DpOS7_' is-defined='yes'/>
    <elf-symbol name='_ZNSt16allocator_traitsISaISsEE12_S_constructISsJSsEEENSt9enable_ifIXsrSt6__and_IJNS1_18__construct_helperIT_JDpT0_EE4typeEEE5valueEvE4typeERS0_PS6_DpOS7_' type='func-type' binding='weak-binding' visibility='default-visibility' is-defined='yes'/>
    <elf-symbol name='_ZNSt16allocator_traitsISaISsEE7destroyISsEEvRS0_PT_' type='func-type' binding='weak-binding' visibility='default-visibility' is-defined='yes'/>
    <elf-symbol name='_ZNSt16allocator_traitsISaISsEE8allocateERS0_m' type='func-type' binding='weak-binding' visibility='default-visibility' is-defined='yes'/>
    <elf-symbol name='_ZNSt16allocator_traitsISaISsEE8max_sizeERKS0_' type='func-type' binding='weak-binding' visibility='default-visibility' is-defined='yes'/>
    <elf-symbol name='_ZNSt16allocator_traitsISaISsEE9constructISsISsEEEDTcl12_S_constructfp_fp0_spcl7forwardIT0_Efp1_EEERS0_PT_DpOS3_' type='func-type' binding='weak-binding' visibility='default-visibility' alias='_ZNSt16allocator_traitsISaISsEE9constructISsJSsEEEDTcl12_S_constructfp_fp0_spcl7forwardIT0_Efp1_EEERS0_PT_DpOS3_' is-defined='yes'/>
    <elf-symbol name='_ZNSt16allocator_traitsISaISsEE9constructISsJSsEEEDTcl12_S_constructfp_fp0_spcl7forwardIT0_Efp1_EEERS0_PT_DpOS3_' type='func-type' binding='weak-binding' visibility='default-visibility' is-defined='yes'/>
    <elf-symbol name='_ZNSt16allocator_traitsISaISt10shared_ptrIN5mongo17optionenvironment10ConstraintEEEE10deallocateERS5_PS4_m' type='func-type' binding='weak-binding' visibility='default-visibility' is-defined='yes'/>
    <elf-symbol name='_ZNSt16allocator_traitsISaISt13_Rb_tree_nodeISt4pairIKSsSsEEEE10_S_destroyIS3_EENSt9enable_ifIXsrSt6__and_IINS6_16__destroy_helperIT_E4typeEEE5valueEvE4typeERS5_PSB_' type='func-type' binding='weak-binding' visibility='default-visibility' alias='_ZNSt16allocator_traitsISaISt13_Rb_tree_nodeISt4pairIKSsSsEEEE10_S_destroyIS3_EENSt9enable_ifIXsrSt6__and_IJNS6_16__destroy_helperIT_E4typeEEE5valueEvE4typeERS5_PSB_' is-defined='yes'/>
    <elf-symbol name='_ZNSt16allocator_traitsISaISt13_Rb_tree_nodeISt4pairIKSsSsEEEE10_S_destroyIS3_EENSt9enable_ifIXsrSt6__and_IJNS6_16__destroy_helperIT_E4typeEEE5valueEvE4typeERS5_PSB_' type='func-type' binding='weak-binding' visibility='default-visibility' is-defined='yes'/>
    <elf-symbol name='_ZNSt16allocator_traitsISaISt13_Rb_tree_nodeISt4pairIKSsSsEEEE10deallocateERS5_PS4_m' type='func-type' binding='weak-binding' visibility='default-visibility' is-defined='yes'/>
    <elf-symbol name='_ZNSt16allocator_traitsISaISt13_Rb_tree_nodeISt4pairIKSsSsEEEE7destroyIS3_EEvRS5_PT_' type='func-type' binding='weak-binding' visibility='default-visibility' is-defined='yes'/>
    <elf-symbol name='_ZNSt17_Function_handlerIFN5mongo6StatusEPNS0_18InitializerContextEEPS4_E9_M_invokeERKSt9_Any_dataS3_' type='func-type' binding='weak-binding' visibility='default-visibility' is-defined='yes'/>
    <elf-symbol name='_ZNSt17_Rb_tree_iteratorISt4pairIKSsSsEEC1EPSt13_Rb_tree_nodeIS2_E' type='func-type' binding='weak-binding' visibility='default-visibility' is-defined='yes'/>
    <elf-symbol name='_ZNSt17_Rb_tree_iteratorISt4pairIKSsSsEEC2EPSt13_Rb_tree_nodeIS2_E' type='func-type' binding='weak-binding' visibility='default-visibility' alias='_ZNSt17_Rb_tree_iteratorISt4pairIKSsSsEEC1EPSt13_Rb_tree_nodeIS2_E' is-defined='yes'/>
    <elf-symbol name='_ZNSt17_Rb_tree_iteratorISt4pairIKSsSsEEppEi' type='func-type' binding='weak-binding' visibility='default-visibility' is-defined='yes'/>
    <elf-symbol name='_ZNSt20__uninitialized_copyILb0EE13__uninit_copyIN9__gnu_cxx17__normal_iteratorIPKSsSt6vectorISsSaISsEEEEPSsEET0_T_SC_SB_' type='func-type' binding='weak-binding' visibility='default-visibility' is-defined='yes'/>
    <elf-symbol name='_ZNSt20__uninitialized_copyILb0EE13__uninit_copyIPSsS2_EET0_T_S4_S3_' type='func-type' binding='weak-binding' visibility='default-visibility' is-defined='yes'/>
    <elf-symbol name='_ZNSt20__uninitialized_copyILb0EE13__uninit_copyISt13move_iteratorIPSsES3_EET0_T_S6_S5_' type='func-type' binding='weak-binding' visibility='default-visibility' is-defined='yes'/>
    <elf-symbol name='_ZNSt31_Maybe_unary_or_binary_functionIN5mongo6StatusEIPNS0_18InitializerContextEEEC1Ev' type='func-type' binding='weak-binding' visibility='default-visibility' is-defined='yes'/>
    <elf-symbol name='_ZNSt31_Maybe_unary_or_binary_functionIN5mongo6StatusEIPNS0_18InitializerContextEEEC2Ev' type='func-type' binding='weak-binding' visibility='default-visibility' is-defined='yes'/>
    <elf-symbol name='_ZNSt31_Maybe_unary_or_binary_functionIN5mongo6StatusEJPNS0_18InitializerContextEEEC1Ev' type='func-type' binding='weak-binding' visibility='default-visibility' alias='_ZNSt31_Maybe_unary_or_binary_functionIN5mongo6StatusEJPNS0_18InitializerContextEEEC2Ev,_ZNSt31_Maybe_unary_or_binary_functionIN5mongo6StatusEIPNS0_18InitializerContextEEEC1Ev,_ZNSt31_Maybe_unary_or_binary_functionIN5mongo6StatusEIPNS0_18InitializerContextEEEC2Ev' is-defined='yes'/>
    <elf-symbol name='_ZNSt31_Maybe_unary_or_binary_functionIN5mongo6StatusEJPNS0_18InitializerContextEEEC2Ev' type='func-type' binding='weak-binding' visibility='default-visibility' is-defined='yes'/>
    <elf-symbol name='_ZNSt3mapISsSsSt4lessISsESaISt4pairIKSsSsEEE3endEv' type='func-type' binding='weak-binding' visibility='default-visibility' is-defined='yes'/>
    <elf-symbol name='_ZNSt3mapISsSsSt4lessISsESaISt4pairIKSsSsEEE5beginEv' type='func-type' binding='weak-binding' visibility='default-visibility' is-defined='yes'/>
    <elf-symbol name='_ZNSt3mapISsSsSt4lessISsESaISt4pairIKSsSsEEEC1Ev' type='func-type' binding='weak-binding' visibility='default-visibility' is-defined='yes'/>
    <elf-symbol name='_ZNSt3mapISsSsSt4lessISsESaISt4pairIKSsSsEEEC2Ev' type='func-type' binding='weak-binding' visibility='default-visibility' alias='_ZNSt3mapISsSsSt4lessISsESaISt4pairIKSsSsEEEC1Ev' is-defined='yes'/>
    <elf-symbol name='_ZNSt3mapISsSsSt4lessISsESaISt4pairIKSsSsEEED1Ev' type='func-type' binding='weak-binding' visibility='default-visibility' alias='_ZNSt3mapISsSsSt4lessISsESaISt4pairIKSsSsEEED2Ev' is-defined='yes'/>
    <elf-symbol name='_ZNSt3mapISsSsSt4lessISsESaISt4pairIKSsSsEEED2Ev' type='func-type' binding='weak-binding' visibility='default-visibility' is-defined='yes'/>
    <elf-symbol name='_ZNSt4listIN5mongo17optionenvironment13OptionSectionESaIS2_EEC1Ev' type='func-type' binding='weak-binding' visibility='default-visibility' is-defined='yes'/>
    <elf-symbol name='_ZNSt4listIN5mongo17optionenvironment13OptionSectionESaIS2_EEC2Ev' type='func-type' binding='weak-binding' visibility='default-visibility' alias='_ZNSt4listIN5mongo17optionenvironment13OptionSectionESaIS2_EEC1Ev' is-defined='yes'/>
    <elf-symbol name='_ZNSt4listIN5mongo17optionenvironment13OptionSectionESaIS2_EED1Ev' type='func-type' binding='weak-binding' visibility='default-visibility' alias='_ZNSt4listIN5mongo17optionenvironment13OptionSectionESaIS2_EED2Ev' is-defined='yes'/>
    <elf-symbol name='_ZNSt4listIN5mongo17optionenvironment13OptionSectionESaIS2_EED2Ev' type='func-type' binding='weak-binding' visibility='default-visibility' is-defined='yes'/>
    <elf-symbol name='_ZNSt4listIN5mongo17optionenvironment17OptionDescriptionESaIS2_EEC1Ev' type='func-type' binding='weak-binding' visibility='default-visibility' is-defined='yes'/>
    <elf-symbol name='_ZNSt4listIN5mongo17optionenvironment17OptionDescriptionESaIS2_EEC2Ev' type='func-type' binding='weak-binding' visibility='default-visibility' alias='_ZNSt4listIN5mongo17optionenvironment17OptionDescriptionESaIS2_EEC1Ev' is-defined='yes'/>
    <elf-symbol name='_ZNSt4listIN5mongo17optionenvironment17OptionDescriptionESaIS2_EED1Ev' type='func-type' binding='weak-binding' visibility='default-visibility' is-defined='yes'/>
    <elf-symbol name='_ZNSt4listIN5mongo17optionenvironment17OptionDescriptionESaIS2_EED2Ev' type='func-type' binding='weak-binding' visibility='default-visibility' alias='_ZNSt4listIN5mongo17optionenvironment17OptionDescriptionESaIS2_EED1Ev' is-defined='yes'/>
    <elf-symbol name='_ZNSt4pairIKSsSsED1Ev' type='func-type' binding='weak-binding' visibility='default-visibility' is-defined='yes'/>
    <elf-symbol name='_ZNSt4pairIKSsSsED2Ev' type='func-type' binding='weak-binding' visibility='default-visibility' alias='_ZNSt4pairIKSsSsED1Ev' is-defined='yes'/>
    <elf-symbol name='_ZNSt6vectorISsSaISsEE12emplace_backIISsEEEvDpOT_' type='func-type' binding='weak-binding' visibility='default-visibility' alias='_ZNSt6vectorISsSaISsEE12emplace_backIJSsEEEvDpOT_' is-defined='yes'/>
    <elf-symbol name='_ZNSt6vectorISsSaISsEE12emplace_backIJSsEEEvDpOT_' type='func-type' binding='weak-binding' visibility='default-visibility' is-defined='yes'/>
    <elf-symbol name='_ZNSt6vectorISsSaISsEE14_M_move_assignEOS1_St17integral_constantIbLb1EE' type='func-type' binding='weak-binding' visibility='default-visibility' is-defined='yes'/>
    <elf-symbol name='_ZNSt6vectorISsSaISsEE15_M_erase_at_endEPSs' type='func-type' binding='weak-binding' visibility='default-visibility' is-defined='yes'/>
    <elf-symbol name='_ZNSt6vectorISsSaISsEE19_M_emplace_back_auxIISsEEEvDpOT_' type='func-type' binding='weak-binding' visibility='default-visibility' alias='_ZNSt6vectorISsSaISsEE19_M_emplace_back_auxIJSsEEEvDpOT_' is-defined='yes'/>
    <elf-symbol name='_ZNSt6vectorISsSaISsEE19_M_emplace_back_auxIJSsEEEvDpOT_' type='func-type' binding='weak-binding' visibility='default-visibility' is-defined='yes'/>
    <elf-symbol name='_ZNSt6vectorISsSaISsEE20_M_allocate_and_copyIN9__gnu_cxx17__normal_iteratorIPKSsS1_EEEEPSsmT_S9_' type='func-type' binding='weak-binding' visibility='default-visibility' is-defined='yes'/>
    <elf-symbol name='_ZNSt6vectorISsSaISsEE3endEv' type='func-type' binding='weak-binding' visibility='default-visibility' is-defined='yes'/>
    <elf-symbol name='_ZNSt6vectorISsSaISsEE5beginEv' type='func-type' binding='weak-binding' visibility='default-visibility' is-defined='yes'/>
    <elf-symbol name='_ZNSt6vectorISsSaISsEE5clearEv' type='func-type' binding='weak-binding' visibility='default-visibility' is-defined='yes'/>
    <elf-symbol name='_ZNSt6vectorISsSaISsEE9push_backEOSs' type='func-type' binding='weak-binding' visibility='default-visibility' is-defined='yes'/>
    <elf-symbol name='_ZNSt6vectorISsSaISsEEC1ERKS0_' type='func-type' binding='weak-binding' visibility='default-visibility' is-defined='yes'/>
    <elf-symbol name='_ZNSt6vectorISsSaISsEEC1Ev' type='func-type' binding='weak-binding' visibility='default-visibility' is-defined='yes'/>
    <elf-symbol name='_ZNSt6vectorISsSaISsEEC2ERKS0_' type='func-type' binding='weak-binding' visibility='default-visibility' alias='_ZNSt6vectorISsSaISsEEC1ERKS0_' is-defined='yes'/>
    <elf-symbol name='_ZNSt6vectorISsSaISsEEC2Ev' type='func-type' binding='weak-binding' visibility='default-visibility' alias='_ZNSt6vectorISsSaISsEEC1Ev' is-defined='yes'/>
    <elf-symbol name='_ZNSt6vectorISsSaISsEED1Ev' type='func-type' binding='weak-binding' visibility='default-visibility' is-defined='yes'/>
    <elf-symbol name='_ZNSt6vectorISsSaISsEED2Ev' type='func-type' binding='weak-binding' visibility='default-visibility' alias='_ZNSt6vectorISsSaISsEED1Ev' is-defined='yes'/>
    <elf-symbol name='_ZNSt6vectorISsSaISsEEaSEOS1_' type='func-type' binding='weak-binding' visibility='default-visibility' is-defined='yes'/>
    <elf-symbol name='_ZNSt6vectorISsSaISsEEaSERKS1_' type='func-type' binding='weak-binding' visibility='default-visibility' is-defined='yes'/>
    <elf-symbol name='_ZNSt6vectorISt10shared_ptrIN5mongo17optionenvironment10ConstraintEESaIS4_EED1Ev' type='func-type' binding='weak-binding' visibility='default-visibility' is-defined='yes'/>
    <elf-symbol name='_ZNSt6vectorISt10shared_ptrIN5mongo17optionenvironment10ConstraintEESaIS4_EED2Ev' type='func-type' binding='weak-binding' visibility='default-visibility' alias='_ZNSt6vectorISt10shared_ptrIN5mongo17optionenvironment10ConstraintEESaIS4_EED1Ev' is-defined='yes'/>
    <elf-symbol name='_ZNSt8_Rb_treeISsSt4pairIKSsSsESt10_Select1stIS2_ESt4lessISsESaIS2_EE11_M_put_nodeEPSt13_Rb_tree_nodeIS2_E' type='func-type' binding='weak-binding' visibility='default-visibility' is-defined='yes'/>
    <elf-symbol name='_ZNSt8_Rb_treeISsSt4pairIKSsSsESt10_Select1stIS2_ESt4lessISsESaIS2_EE13_Rb_tree_implIS6_Lb1EE13_M_initializeEv' type='func-type' binding='weak-binding' visibility='default-visibility' is-defined='yes'/>
    <elf-symbol name='_ZNSt8_Rb_treeISsSt4pairIKSsSsESt10_Select1stIS2_ESt4lessISsESaIS2_EE13_Rb_tree_implIS6_Lb1EEC1Ev' type='func-type' binding='weak-binding' visibility='default-visibility' is-defined='yes'/>
    <elf-symbol name='_ZNSt8_Rb_treeISsSt4pairIKSsSsESt10_Select1stIS2_ESt4lessISsESaIS2_EE13_Rb_tree_implIS6_Lb1EEC2Ev' type='func-type' binding='weak-binding' visibility='default-visibility' alias='_ZNSt8_Rb_treeISsSt4pairIKSsSsESt10_Select1stIS2_ESt4lessISsESaIS2_EE13_Rb_tree_implIS6_Lb1EEC1Ev' is-defined='yes'/>
    <elf-symbol name='_ZNSt8_Rb_treeISsSt4pairIKSsSsESt10_Select1stIS2_ESt4lessISsESaIS2_EE13_Rb_tree_implIS6_Lb1EED1Ev' type='func-type' binding='weak-binding' visibility='default-visibility' alias='_ZNSt8_Rb_treeISsSt4pairIKSsSsESt10_Select1stIS2_ESt4lessISsESaIS2_EE13_Rb_tree_implIS6_Lb1EED2Ev' is-defined='yes'/>
    <elf-symbol name='_ZNSt8_Rb_treeISsSt4pairIKSsSsESt10_Select1stIS2_ESt4lessISsESaIS2_EE13_Rb_tree_implIS6_Lb1EED2Ev' type='func-type' binding='weak-binding' visibility='default-visibility' is-defined='yes'/>
    <elf-symbol name='_ZNSt8_Rb_treeISsSt4pairIKSsSsESt10_Select1stIS2_ESt4lessISsESaIS2_EE15_M_destroy_nodeEPSt13_Rb_tree_nodeIS2_E' type='func-type' binding='weak-binding' visibility='default-visibility' is-defined='yes'/>
    <elf-symbol name='_ZNSt8_Rb_treeISsSt4pairIKSsSsESt10_Select1stIS2_ESt4lessISsESaIS2_EE21_M_get_Node_allocatorEv' type='func-type' binding='weak-binding' visibility='default-visibility' is-defined='yes'/>
    <elf-symbol name='_ZNSt8_Rb_treeISsSt4pairIKSsSsESt10_Select1stIS2_ESt4lessISsESaIS2_EE3endEv' type='func-type' binding='weak-binding' visibility='default-visibility' is-defined='yes'/>
    <elf-symbol name='_ZNSt8_Rb_treeISsSt4pairIKSsSsESt10_Select1stIS2_ESt4lessISsESaIS2_EE5beginEv' type='func-type' binding='weak-binding' visibility='default-visibility' is-defined='yes'/>
    <elf-symbol name='_ZNSt8_Rb_treeISsSt4pairIKSsSsESt10_Select1stIS2_ESt4lessISsESaIS2_EE7_S_leftEPSt18_Rb_tree_node_base' type='func-type' binding='weak-binding' visibility='default-visibility' is-defined='yes'/>
    <elf-symbol name='_ZNSt8_Rb_treeISsSt4pairIKSsSsESt10_Select1stIS2_ESt4lessISsESaIS2_EE8_M_beginEv' type='func-type' binding='weak-binding' visibility='default-visibility' is-defined='yes'/>
    <elf-symbol name='_ZNSt8_Rb_treeISsSt4pairIKSsSsESt10_Select1stIS2_ESt4lessISsESaIS2_EE8_M_eraseEPSt13_Rb_tree_nodeIS2_E' type='func-type' binding='weak-binding' visibility='default-visibility' is-defined='yes'/>
    <elf-symbol name='_ZNSt8_Rb_treeISsSt4pairIKSsSsESt10_Select1stIS2_ESt4lessISsESaIS2_EE8_S_rightEPSt18_Rb_tree_node_base' type='func-type' binding='weak-binding' visibility='default-visibility' is-defined='yes'/>
    <elf-symbol name='_ZNSt8_Rb_treeISsSt4pairIKSsSsESt10_Select1stIS2_ESt4lessISsESaIS2_EEC1Ev' type='func-type' binding='weak-binding' visibility='default-visibility' is-defined='yes'/>
    <elf-symbol name='_ZNSt8_Rb_treeISsSt4pairIKSsSsESt10_Select1stIS2_ESt4lessISsESaIS2_EEC2Ev' type='func-type' binding='weak-binding' visibility='default-visibility' alias='_ZNSt8_Rb_treeISsSt4pairIKSsSsESt10_Select1stIS2_ESt4lessISsESaIS2_EEC1Ev' is-defined='yes'/>
    <elf-symbol name='_ZNSt8_Rb_treeISsSt4pairIKSsSsESt10_Select1stIS2_ESt4lessISsESaIS2_EED1Ev' type='func-type' binding='weak-binding' visibility='default-visibility' is-defined='yes'/>
    <elf-symbol name='_ZNSt8_Rb_treeISsSt4pairIKSsSsESt10_Select1stIS2_ESt4lessISsESaIS2_EED2Ev' type='func-type' binding='weak-binding' visibility='default-visibility' alias='_ZNSt8_Rb_treeISsSt4pairIKSsSsESt10_Select1stIS2_ESt4lessISsESaIS2_EED1Ev' is-defined='yes'/>
    <elf-symbol name='_ZNSt8functionIFN5mongo6StatusEPNS0_18InitializerContextEEEC1IPS4_vEET_' type='func-type' binding='weak-binding' visibility='default-visibility' is-defined='yes'/>
    <elf-symbol name='_ZNSt8functionIFN5mongo6StatusEPNS0_18InitializerContextEEEC2IPS4_vEET_' type='func-type' binding='weak-binding' visibility='default-visibility' alias='_ZNSt8functionIFN5mongo6StatusEPNS0_18InitializerContextEEEC1IPS4_vEET_' is-defined='yes'/>
    <elf-symbol name='_ZNSt8functionIFN5mongo6StatusEPNS0_18InitializerContextEEED1Ev' type='func-type' binding='weak-binding' visibility='default-visibility' is-defined='yes'/>
    <elf-symbol name='_ZNSt8functionIFN5mongo6StatusEPNS0_18InitializerContextEEED2Ev' type='func-type' binding='weak-binding' visibility='default-visibility' alias='_ZNSt8functionIFN5mongo6StatusEPNS0_18InitializerContextEEED1Ev' is-defined='yes'/>
    <elf-symbol name='_ZNSt9_Any_data9_M_accessEv' type='func-type' binding='weak-binding' visibility='default-visibility' is-defined='yes'/>
    <elf-symbol name='_ZNSt9_Any_data9_M_accessIPFN5mongo6StatusEPNS1_18InitializerContextEEEERT_v' type='func-type' binding='weak-binding' visibility='default-visibility' is-defined='yes'/>
    <elf-symbol name='_ZNSt9_Any_data9_M_accessIPKSt9type_infoEERT_v' type='func-type' binding='weak-binding' visibility='default-visibility' is-defined='yes'/>
    <elf-symbol name='_ZNSt9_Any_data9_M_accessIPPFN5mongo6StatusEPNS1_18InitializerContextEEEERT_v' type='func-type' binding='weak-binding' visibility='default-visibility' is-defined='yes'/>
    <elf-symbol name='_ZNSt9exceptionC1Ev' type='func-type' binding='weak-binding' visibility='default-visibility' is-defined='yes'/>
    <elf-symbol name='_ZNSt9exceptionC2Ev' type='func-type' binding='weak-binding' visibility='default-visibility' alias='_ZNSt9exceptionC1Ev' is-defined='yes'/>
    <elf-symbol name='_ZSt10_ConstructISsIRKSsEEvPT_DpOT0_' type='func-type' binding='weak-binding' visibility='default-visibility' alias='_ZSt10_ConstructISsJRKSsEEvPT_DpOT0_' is-defined='yes'/>
    <elf-symbol name='_ZSt10_ConstructISsIRSsEEvPT_DpOT0_' type='func-type' binding='weak-binding' visibility='default-visibility' alias='_ZSt10_ConstructISsJRSsEEvPT_DpOT0_' is-defined='yes'/>
    <elf-symbol name='_ZSt10_ConstructISsISsEEvPT_DpOT0_' type='func-type' binding='weak-binding' visibility='default-visibility' alias='_ZSt10_ConstructISsJSsEEvPT_DpOT0_' is-defined='yes'/>
    <elf-symbol name='_ZSt10_ConstructISsJRKSsEEvPT_DpOT0_' type='func-type' binding='weak-binding' visibility='default-visibility' is-defined='yes'/>
    <elf-symbol name='_ZSt10_ConstructISsJRSsEEvPT_DpOT0_' type='func-type' binding='weak-binding' visibility='default-visibility' is-defined='yes'/>
    <elf-symbol name='_ZSt10_ConstructISsJSsEEvPT_DpOT0_' type='func-type' binding='weak-binding' visibility='default-visibility' is-defined='yes'/>
    <elf-symbol name='_ZSt11__addressofIKPFN5mongo6StatusEPNS0_18InitializerContextEEEPT_RS7_' type='func-type' binding='weak-binding' visibility='default-visibility' is-defined='yes'/>
    <elf-symbol name='_ZSt11__addressofISsEPT_RS0_' type='func-type' binding='weak-binding' visibility='default-visibility' is-defined='yes'/>
    <elf-symbol name='_ZSt11__addressofISt10shared_ptrIN5mongo17optionenvironment10ConstraintEEEPT_RS5_' type='func-type' binding='weak-binding' visibility='default-visibility' is-defined='yes'/>
    <elf-symbol name='_ZSt12__get_helperILm0EPN5mongo14BSONObjBuilderEISt14default_deleteIS1_EEENSt9__add_refIT0_E4typeERSt11_Tuple_implIXT_EIS6_DpT1_EE' type='func-type' binding='weak-binding' visibility='default-visibility' alias='_ZSt12__get_helperILm0EPN5mongo14BSONObjBuilderEJSt14default_deleteIS1_EEENSt9__add_refIT0_E4typeERSt11_Tuple_implIXT_EJS6_DpT1_EE' is-defined='yes'/>
    <elf-symbol name='_ZSt12__get_helperILm0EPN5mongo14BSONObjBuilderEJSt14default_deleteIS1_EEENSt9__add_refIT0_E4typeERSt11_Tuple_implIXT_EJS6_DpT1_EE' type='func-type' binding='weak-binding' visibility='default-visibility' is-defined='yes'/>
    <elf-symbol name='_ZSt12__get_helperILm0EPSt19basic_ostringstreamIcSt11char_traitsIcESaIcEEISt14default_deleteIS4_EEENSt11__add_c_refIT0_E4typeERKSt11_Tuple_implIXT_EIS9_DpT1_EE' type='func-type' binding='weak-binding' visibility='default-visibility' alias='_ZSt12__get_helperILm0EPSt19basic_ostringstreamIcSt11char_traitsIcESaIcEEJSt14default_deleteIS4_EEENSt11__add_c_refIT0_E4typeERKSt11_Tuple_implIXT_EJS9_DpT1_EE' is-defined='yes'/>
    <elf-symbol name='_ZSt12__get_helperILm0EPSt19basic_ostringstreamIcSt11char_traitsIcESaIcEEJSt14default_deleteIS4_EEENSt11__add_c_refIT0_E4typeERKSt11_Tuple_implIXT_EJS9_DpT1_EE' type='func-type' binding='weak-binding' visibility='default-visibility' is-defined='yes'/>
    <elf-symbol name='_ZSt12__get_helperILm1ESt14default_deleteIN5mongo14BSONObjBuilderEEIEENSt9__add_refIT0_E4typeERSt11_Tuple_implIXT_EIS5_DpT1_EE' type='func-type' binding='weak-binding' visibility='default-visibility' alias='_ZSt12__get_helperILm1ESt14default_deleteIN5mongo14BSONObjBuilderEEJEENSt9__add_refIT0_E4typeERSt11_Tuple_implIXT_EJS5_DpT1_EE' is-defined='yes'/>
    <elf-symbol name='_ZSt12__get_helperILm1ESt14default_deleteIN5mongo14BSONObjBuilderEEJEENSt9__add_refIT0_E4typeERSt11_Tuple_implIXT_EJS5_DpT1_EE' type='func-type' binding='weak-binding' visibility='default-visibility' is-defined='yes'/>
    <elf-symbol name='_ZSt12__miter_baseIN9__gnu_cxx17__normal_iteratorIPKSsSt6vectorISsSaISsEEEEENSt11_Miter_baseIT_E13iterator_typeES9_' type='func-type' binding='weak-binding' visibility='default-visibility' is-defined='yes'/>
    <elf-symbol name='_ZSt12__miter_baseIPSsENSt11_Miter_baseIT_E13iterator_typeES2_' type='func-type' binding='weak-binding' visibility='default-visibility' is-defined='yes'/>
    <elf-symbol name='_ZSt12__niter_baseIN9__gnu_cxx17__normal_iteratorIPKSsSt6vectorISsSaISsEEEEENSt11_Niter_baseIT_E13iterator_typeES9_' type='func-type' binding='weak-binding' visibility='default-visibility' is-defined='yes'/>
    <elf-symbol name='_ZSt12__niter_baseIN9__gnu_cxx17__normal_iteratorIPSsSt6vectorISsSaISsEEEEENSt11_Niter_baseIT_E13iterator_typeES8_' type='func-type' binding='weak-binding' visibility='default-visibility' is-defined='yes'/>
    <elf-symbol name='_ZSt12__niter_baseIPSsENSt11_Niter_baseIT_E13iterator_typeES2_' type='func-type' binding='weak-binding' visibility='default-visibility' is-defined='yes'/>
    <elf-symbol name='_ZSt13__copy_move_aILb0EPKSsPSsET1_T0_S4_S3_' type='func-type' binding='weak-binding' visibility='default-visibility' is-defined='yes'/>
    <elf-symbol name='_ZSt13__copy_move_aILb0EPSsS0_ET1_T0_S2_S1_' type='func-type' binding='weak-binding' visibility='default-visibility' is-defined='yes'/>
    <elf-symbol name='_ZSt14__copy_move_a2ILb0EN9__gnu_cxx17__normal_iteratorIPKSsSt6vectorISsSaISsEEEENS1_IPSsS6_EEET1_T0_SB_SA_' type='func-type' binding='weak-binding' visibility='default-visibility' is-defined='yes'/>
    <elf-symbol name='_ZSt14__copy_move_a2ILb0EPSsS0_ET1_T0_S2_S1_' type='func-type' binding='weak-binding' visibility='default-visibility' is-defined='yes'/>
    <elf-symbol name='_ZSt15__alloc_on_copyISaISsEEvRT_RKS1_' type='func-type' binding='weak-binding' visibility='default-visibility' is-defined='yes'/>
    <elf-symbol name='_ZSt15__alloc_on_moveISaISsEEvRT_S2_' type='func-type' binding='weak-binding' visibility='default-visibility' is-defined='yes'/>
    <elf-symbol name='_ZSt18__do_alloc_on_copyISaISsEEvRT_RKS1_St17integral_constantIbLb0EE' type='func-type' binding='weak-binding' visibility='default-visibility' is-defined='yes'/>
    <elf-symbol name='_ZSt18__do_alloc_on_moveISaISsEEvRT_S2_St17integral_constantIbLb1EE' type='func-type' binding='weak-binding' visibility='default-visibility' is-defined='yes'/>
    <elf-symbol name='_ZSt18uninitialized_copyIN9__gnu_cxx17__normal_iteratorIPKSsSt6vectorISsSaISsEEEEPSsET0_T_SA_S9_' type='func-type' binding='weak-binding' visibility='default-visibility' is-defined='yes'/>
    <elf-symbol name='_ZSt18uninitialized_copyIPSsS0_ET0_T_S2_S1_' type='func-type' binding='weak-binding' visibility='default-visibility' is-defined='yes'/>
    <elf-symbol name='_ZSt18uninitialized_copyISt13move_iteratorIPSsES1_ET0_T_S4_S3_' type='func-type' binding='weak-binding' visibility='default-visibility' is-defined='yes'/>
    <elf-symbol name='_ZSt22__uninitialized_copy_aIN9__gnu_cxx17__normal_iteratorIPKSsSt6vectorISsSaISsEEEEPSsSsET0_T_SA_S9_RSaIT1_E' type='func-type' binding='weak-binding' visibility='default-visibility' is-defined='yes'/>
    <elf-symbol name='_ZSt22__uninitialized_copy_aIPSsS0_SsET0_T_S2_S1_RSaIT1_E' type='func-type' binding='weak-binding' visibility='default-visibility' is-defined='yes'/>
    <elf-symbol name='_ZSt22__uninitialized_copy_aISt13move_iteratorIPSsES1_SsET0_T_S4_S3_RSaIT1_E' type='func-type' binding='weak-binding' visibility='default-visibility' is-defined='yes'/>
    <elf-symbol name='_ZSt32__make_move_if_noexcept_iteratorIPSsSt13move_iteratorIS0_EET0_T_' type='func-type' binding='weak-binding' visibility='default-visibility' is-defined='yes'/>
    <elf-symbol name='_ZSt34__uninitialized_move_if_noexcept_aIPSsS0_SaISsEET0_T_S3_S2_RT1_' type='func-type' binding='weak-binding' visibility='default-visibility' is-defined='yes'/>
    <elf-symbol name='_ZSt3getILm0EIPN5mongo14BSONObjBuilderESt14default_deleteIS1_EEENSt9__add_refINSt13tuple_elementIXT_ESt5tupleIIDpT0_EEE4typeEE4typeERSA_' type='func-type' binding='weak-binding' visibility='default-visibility' alias='_ZSt3getILm0EJPN5mongo14BSONObjBuilderESt14default_deleteIS1_EEENSt9__add_refINSt13tuple_elementIXT_ESt5tupleIJDpT0_EEE4typeEE4typeERSA_' is-defined='yes'/>
    <elf-symbol name='_ZSt3getILm0EIPSt19basic_ostringstreamIcSt11char_traitsIcESaIcEESt14default_deleteIS4_EEENSt11__add_c_refINSt13tuple_elementIXT_ESt5tupleIIDpT0_EEE4typeEE4typeERKSD_' type='func-type' binding='weak-binding' visibility='default-visibility' alias='_ZSt3getILm0EJPSt19basic_ostringstreamIcSt11char_traitsIcESaIcEESt14default_deleteIS4_EEENSt11__add_c_refINSt13tuple_elementIXT_ESt5tupleIJDpT0_EEE4typeEE4typeERKSD_' is-defined='yes'/>
    <elf-symbol name='_ZSt3getILm0EJPN5mongo14BSONObjBuilderESt14default_deleteIS1_EEENSt9__add_refINSt13tuple_elementIXT_ESt5tupleIJDpT0_EEE4typeEE4typeERSA_' type='func-type' binding='weak-binding' visibility='default-visibility' is-defined='yes'/>
    <elf-symbol name='_ZSt3getILm0EJPSt19basic_ostringstreamIcSt11char_traitsIcESaIcEESt14default_deleteIS4_EEENSt11__add_c_refINSt13tuple_elementIXT_ESt5tupleIJDpT0_EEE4typeEE4typeERKSD_' type='func-type' binding='weak-binding' visibility='default-visibility' is-defined='yes'/>
    <elf-symbol name='_ZSt3getILm1EIPN5mongo14BSONObjBuilderESt14default_deleteIS1_EEENSt9__add_refINSt13tuple_elementIXT_ESt5tupleIIDpT0_EEE4typeEE4typeERSA_' type='func-type' binding='weak-binding' visibility='default-visibility' alias='_ZSt3getILm1EJPN5mongo14BSONObjBuilderESt14default_deleteIS1_EEENSt9__add_refINSt13tuple_elementIXT_ESt5tupleIJDpT0_EEE4typeEE4typeERSA_' is-defined='yes'/>
    <elf-symbol name='_ZSt3getILm1EJPN5mongo14BSONObjBuilderESt14default_deleteIS1_EEENSt9__add_refINSt13tuple_elementIXT_ESt5tupleIJDpT0_EEE4typeEE4typeERSA_' type='func-type' binding='weak-binding' visibility='default-visibility' is-defined='yes'/>
    <elf-symbol name='_ZSt3maxImERKT_S2_S2_' type='func-type' binding='weak-binding' visibility='default-visibility' is-defined='yes'/>
    <elf-symbol name='_ZSt4copyIN9__gnu_cxx17__normal_iteratorIPKSsSt6vectorISsSaISsEEEENS1_IPSsS6_EEET0_T_SB_SA_' type='func-type' binding='weak-binding' visibility='default-visibility' is-defined='yes'/>
    <elf-symbol name='_ZSt4copyIPSsS0_ET0_T_S2_S1_' type='func-type' binding='weak-binding' visibility='default-visibility' is-defined='yes'/>
    <elf-symbol name='_ZSt4moveIRPFN5mongo6StatusEPNS0_18InitializerContextEEEONSt16remove_referenceIT_E4typeEOS8_' type='func-type' binding='weak-binding' visibility='default-visibility' is-defined='yes'/>
    <elf-symbol name='_ZSt4moveIRPSsEONSt16remove_referenceIT_E4typeEOS3_' type='func-type' binding='weak-binding' visibility='default-visibility' is-defined='yes'/>
    <elf-symbol name='_ZSt4moveIRSaISsEEONSt16remove_referenceIT_E4typeEOS3_' type='func-type' binding='weak-binding' visibility='default-visibility' is-defined='yes'/>
    <elf-symbol name='_ZSt4moveIRSsEONSt16remove_referenceIT_E4typeEOS2_' type='func-type' binding='weak-binding' visibility='default-visibility' is-defined='yes'/>
    <elf-symbol name='_ZSt4moveIRSt6vectorISsSaISsEEEONSt16remove_referenceIT_E4typeEOS5_' type='func-type' binding='weak-binding' visibility='default-visibility' is-defined='yes'/>
    <elf-symbol name='_ZSt4swapIPSsEvRT_S2_' type='func-type' binding='weak-binding' visibility='default-visibility' is-defined='yes'/>
    <elf-symbol name='_ZSt7forwardIPN5mongo18InitializerContextEEOT_RNSt16remove_referenceIS3_E4typeE' type='func-type' binding='weak-binding' visibility='default-visibility' is-defined='yes'/>
    <elf-symbol name='_ZSt7forwardIRKSsEOT_RNSt16remove_referenceIS2_E4typeE' type='func-type' binding='weak-binding' visibility='default-visibility' is-defined='yes'/>
    <elf-symbol name='_ZSt7forwardIRSsEOT_RNSt16remove_referenceIS1_E4typeE' type='func-type' binding='weak-binding' visibility='default-visibility' is-defined='yes'/>
    <elf-symbol name='_ZSt7forwardISsEOT_RNSt16remove_referenceIS0_E4typeE' type='func-type' binding='weak-binding' visibility='default-visibility' is-defined='yes'/>
    <elf-symbol name='_ZSt8_DestroyIN9__gnu_cxx17__normal_iteratorIPSsSt6vectorISsSaISsEEEEEvT_S7_' type='func-type' binding='weak-binding' visibility='default-visibility' is-defined='yes'/>
    <elf-symbol name='_ZSt8_DestroyIN9__gnu_cxx17__normal_iteratorIPSsSt6vectorISsSaISsEEEESsEvT_S7_RSaIT0_E' type='func-type' binding='weak-binding' visibility='default-visibility' is-defined='yes'/>
    <elf-symbol name='_ZSt8_DestroyIPSsEvT_S1_' type='func-type' binding='weak-binding' visibility='default-visibility' is-defined='yes'/>
    <elf-symbol name='_ZSt8_DestroyIPSsSsEvT_S1_RSaIT0_E' type='func-type' binding='weak-binding' visibility='default-visibility' is-defined='yes'/>
    <elf-symbol name='_ZSt8_DestroyIPSt10shared_ptrIN5mongo17optionenvironment10ConstraintEEEvT_S6_' type='func-type' binding='weak-binding' visibility='default-visibility' is-defined='yes'/>
    <elf-symbol name='_ZSt8_DestroyIPSt10shared_ptrIN5mongo17optionenvironment10ConstraintEES4_EvT_S6_RSaIT0_E' type='func-type' binding='weak-binding' visibility='default-visibility' is-defined='yes'/>
    <elf-symbol name='_ZSt8_DestroyISsEvPT_' type='func-type' binding='weak-binding' visibility='default-visibility' is-defined='yes'/>
    <elf-symbol name='_ZSt8_DestroyISt10shared_ptrIN5mongo17optionenvironment10ConstraintEEEvPT_' type='func-type' binding='weak-binding' visibility='default-visibility' is-defined='yes'/>
    <elf-symbol name='_ZSteqIPSsEbRKSt13move_iteratorIT_ES5_' type='func-type' binding='weak-binding' visibility='default-visibility' is-defined='yes'/>
    <elf-symbol name='_ZSteqIcSt11char_traitsIcESaIcEEbRKSbIT_T0_T1_EPKS3_' type='func-type' binding='weak-binding' visibility='default-visibility' is-defined='yes'/>
    <elf-symbol name='_ZStneIPSsEbRKSt13move_iteratorIT_ES5_' type='func-type' binding='weak-binding' visibility='default-visibility' is-defined='yes'/>
    <elf-symbol name='_ZStneISsEbRKSaIT_ES3_' type='func-type' binding='weak-binding' visibility='default-visibility' is-defined='yes'/>
    <elf-symbol name='_ZStorSt13_Ios_OpenmodeS_' type='func-type' binding='weak-binding' visibility='default-visibility' is-defined='yes'/>
    <elf-symbol name='_ZStplIcSt11char_traitsIcESaIcEESbIT_T0_T1_ERKS6_OS6_' type='func-type' binding='weak-binding' visibility='default-visibility' is-defined='yes'/>
    <elf-symbol name='_ZdlPvS_' type='func-type' binding='weak-binding' visibility='default-visibility' is-defined='yes'/>
    <elf-symbol name='_ZnwmPv' type='func-type' binding='weak-binding' visibility='default-visibility' is-defined='yes'/>
    <elf-symbol name='_fini' type='func-type' binding='global-binding' visibility='default-visibility' is-defined='yes'/>
    <elf-symbol name='_init' type='func-type' binding='global-binding' visibility='default-visibility' is-defined='yes'/>
  </elf-function-symbols>
  <elf-variable-symbols>
    <elf-symbol name='_ZN5mongo16saslGlobalParamsE' size='56' type='object-type' binding='global-binding' visibility='default-visibility' is-defined='yes'/>
    <elf-symbol name='_ZN5mongo19SASLHostNameSettingE' size='32' type='object-type' binding='global-binding' visibility='default-visibility' is-defined='yes'/>
    <elf-symbol name='_ZN5mongo20SASLAuthdPathSettingE' size='32' type='object-type' binding='global-binding' visibility='default-visibility' is-defined='yes'/>
    <elf-symbol name='_ZN5mongo22SASLServiceNameSettingE' size='32' type='object-type' binding='global-binding' visibility='default-visibility' is-defined='yes'/>
    <elf-symbol name='_ZN5mongo24scramIterationCountParamE' size='32' type='object-type' binding='global-binding' visibility='default-visibility' is-defined='yes'/>
    <elf-symbol name='_ZN5mongo35SASLAuthenticationMechanismsSettingE' size='32' type='object-type' binding='global-binding' visibility='default-visibility' is-defined='yes'/>
    <elf-symbol name='_ZTIFN5mongo6StatusEPNS_18InitializerContextEE' size='16' type='object-type' binding='weak-binding' visibility='default-visibility' is-defined='yes'/>
    <elf-symbol name='_ZTIN5mongo18AssertionExceptionE' size='24' type='object-type' binding='weak-binding' visibility='default-visibility' is-defined='yes'/>
    <elf-symbol name='_ZTIN5mongo23ExportedServerParameterISsEE' size='24' type='object-type' binding='weak-binding' visibility='default-visibility' is-defined='yes'/>
    <elf-symbol name='_ZTIN5mongo23ExportedServerParameterISt6vectorISsSaISsEEEE' size='24' type='object-type' binding='weak-binding' visibility='default-visibility' is-defined='yes'/>
    <elf-symbol name='_ZTIN5mongo23ExportedServerParameterIiEE' size='24' type='object-type' binding='weak-binding' visibility='default-visibility' is-defined='yes'/>
    <elf-symbol name='_ZTIN5mongo36ExportedScramIterationCountParameterE' size='24' type='object-type' binding='weak-binding' visibility='default-visibility' is-defined='yes'/>
    <elf-symbol name='_ZTIPFN5mongo6StatusEPNS_18InitializerContextEE' size='32' type='object-type' binding='weak-binding' visibility='default-visibility' is-defined='yes'/>
    <elf-symbol name='_ZTSFN5mongo6StatusEPNS_18InitializerContextEE' size='43' type='object-type' binding='weak-binding' visibility='default-visibility' is-defined='yes'/>
    <elf-symbol name='_ZTSN5mongo18AssertionExceptionE' size='29' type='object-type' binding='weak-binding' visibility='default-visibility' is-defined='yes'/>
    <elf-symbol name='_ZTSN5mongo23ExportedServerParameterISsEE' size='38' type='object-type' binding='weak-binding' visibility='default-visibility' is-defined='yes'/>
    <elf-symbol name='_ZTSN5mongo23ExportedServerParameterISt6vectorISsSaISsEEEE' size='55' type='object-type' binding='weak-binding' visibility='default-visibility' is-defined='yes'/>
    <elf-symbol name='_ZTSN5mongo23ExportedServerParameterIiEE' size='37' type='object-type' binding='weak-binding' visibility='default-visibility' is-defined='yes'/>
    <elf-symbol name='_ZTSN5mongo36ExportedScramIterationCountParameterE' size='47' type='object-type' binding='weak-binding' visibility='default-visibility' is-defined='yes'/>
    <elf-symbol name='_ZTSPFN5mongo6StatusEPNS_18InitializerContextEE' size='44' type='object-type' binding='weak-binding' visibility='default-visibility' is-defined='yes'/>
    <elf-symbol name='_ZTVN5mongo18AssertionExceptionE' size='88' type='object-type' binding='weak-binding' visibility='default-visibility' is-defined='yes'/>
    <elf-symbol name='_ZTVN5mongo23ExportedServerParameterISsEE' size='80' type='object-type' binding='weak-binding' visibility='default-visibility' is-defined='yes'/>
    <elf-symbol name='_ZTVN5mongo23ExportedServerParameterISt6vectorISsSaISsEEEE' size='80' type='object-type' binding='weak-binding' visibility='default-visibility' is-defined='yes'/>
    <elf-symbol name='_ZTVN5mongo23ExportedServerParameterIiEE' size='80' type='object-type' binding='weak-binding' visibility='default-visibility' is-defined='yes'/>
    <elf-symbol name='_ZTVN5mongo36ExportedScramIterationCountParameterE' size='80' type='object-type' binding='weak-binding' visibility='default-visibility' is-defined='yes'/>
  </elf-variable-symbols>
  <abi-instr address-size='64' path='src/mongo/db/auth/sasl_options.cpp' comp-dir-path='/home/andrew/Documents/10gen/dev/src/mongodb' language='LANG_C_plus_plus'>
    <type-decl name='bool' size-in-bits='8' id='type-id-1'/>
    <array-type-def dimensions='1' type-id='type-id-1' size-in-bits='112' id='type-id-2'>
      <subrange length='14' type-id='type-id-3' id='type-id-4'/>
    </array-type-def>
    <type-decl name='char' size-in-bits='8' id='type-id-5'/>
    <array-type-def dimensions='1' type-id='type-id-5' size-in-bits='96' id='type-id-6'>
      <subrange length='12' type-id='type-id-3' id='type-id-7'/>
    </array-type-def>
    <array-type-def dimensions='1' type-id='type-id-5' size-in-bits='112' id='type-id-8'>
      <subrange length='14' type-id='type-id-3' id='type-id-4'/>
    </array-type-def>
    <array-type-def dimensions='1' type-id='type-id-5' size-in-bits='128' id='type-id-9'>
      <subrange length='16' type-id='type-id-3' id='type-id-10'/>
    </array-type-def>
    <array-type-def dimensions='1' type-id='type-id-5' size-in-bits='8' id='type-id-11'>
      <subrange length='1' type-id='type-id-3' id='type-id-12'/>
    </array-type-def>
    <array-type-def dimensions='1' type-id='type-id-5' size-in-bits='160' id='type-id-13'>
      <subrange length='20' type-id='type-id-3' id='type-id-14'/>
    </array-type-def>
    <array-type-def dimensions='1' type-id='type-id-5' size-in-bits='336' id='type-id-15'>
      <subrange length='42' type-id='type-id-3' id='type-id-16'/>
    </array-type-def>
    <array-type-def dimensions='1' type-id='type-id-5' size-in-bits='32' id='type-id-17'>
      <subrange length='4' type-id='type-id-3' id='type-id-18'/>
    </array-type-def>
    <array-type-def dimensions='1' type-id='type-id-5' size-in-bits='400' id='type-id-19'>
      <subrange length='50' type-id='type-id-3' id='type-id-20'/>
    </array-type-def>
    <class-decl name='typedef __va_list_tag __va_list_tag' size-in-bits='192' is-struct='yes' visibility='default' id='type-id-21'>
      <data-member access='public' layout-offset-in-bits='0'>
        <var-decl name='gp_offset' type-id='type-id-22' visibility='default'/>
      </data-member>
      <data-member access='public' layout-offset-in-bits='32'>
        <var-decl name='fp_offset' type-id='type-id-22' visibility='default'/>
      </data-member>
      <data-member access='public' layout-offset-in-bits='64'>
        <var-decl name='overflow_arg_area' type-id='type-id-23' visibility='default'/>
      </data-member>
      <data-member access='public' layout-offset-in-bits='128'>
        <var-decl name='reg_save_area' type-id='type-id-23' visibility='default'/>
      </data-member>
    </class-decl>
    <class-decl name='__anonymous_struct__5' size-in-bits='128' is-struct='yes' is-anonymous='yes' visibility='default' id='type-id-24'>
      <data-member access='public' layout-offset-in-bits='0'>
        <var-decl name='__pfn' type-id='type-id-25' visibility='default' filepath='/usr/include/c++/4.9/functional' line='1761' column='1'/>
      </data-member>
      <data-member access='public' layout-offset-in-bits='64'>
        <var-decl name='__delta' type-id='type-id-26' visibility='default' filepath='/usr/include/c++/4.9/functional' line='1761' column='1'/>
      </data-member>
    </class-decl>
    <type-decl name='double' size-in-bits='64' id='type-id-27'/>
    <type-decl name='float' size-in-bits='32' id='type-id-28'/>
    <type-decl name='int' size-in-bits='32' id='type-id-29'/>
    <array-type-def dimensions='1' type-id='type-id-29' size-in-bits='320' id='type-id-30'>
      <subrange length='10' type-id='type-id-3' id='type-id-31'/>
    </array-type-def>
    <type-decl name='long double' size-in-bits='128' id='type-id-32'/>
    <type-decl name='long int' size-in-bits='64' id='type-id-26'/>
    <type-decl name='long long int' size-in-bits='64' id='type-id-33'/>
    <type-decl name='long long unsigned int' size-in-bits='64' id='type-id-34'/>
    <type-decl name='short int' size-in-bits='16' id='type-id-35'/>
    <type-decl name='signed char' size-in-bits='8' id='type-id-36'/>
    <type-decl name='sizetype' size-in-bits='64' id='type-id-3'/>
    <array-type-def dimensions='1' type-id='type-id-37' size-in-bits='6400' id='type-id-38'>
      <subrange length='100' type-id='type-id-3' id='type-id-39'/>
    </array-type-def>
    <type-decl name='unnamed-enum-underlying-type-32' is-anonymous='yes' size-in-bits='32' alignment-in-bits='32' id='type-id-40'/>
    <type-decl name='unsigned char' size-in-bits='8' id='type-id-41'/>
    <array-type-def dimensions='1' type-id='type-id-41' size-in-bits='832' id='type-id-42'>
      <subrange length='104' type-id='type-id-3' id='type-id-43'/>
    </array-type-def>
    <array-type-def dimensions='1' type-id='type-id-41' size-in-bits='96' id='type-id-44'>
      <subrange length='12' type-id='type-id-3' id='type-id-7'/>
    </array-type-def>
    <array-type-def dimensions='1' type-id='type-id-41' size-in-bits='128' id='type-id-45'>
      <subrange length='16' type-id='type-id-3' id='type-id-10'/>
    </array-type-def>
    <array-type-def dimensions='1' type-id='type-id-41' size-in-bits='24' id='type-id-46'>
      <subrange length='3' type-id='type-id-3' id='type-id-47'/>
    </array-type-def>
    <array-type-def dimensions='1' type-id='type-id-41' size-in-bits='40' id='type-id-48'>
      <subrange length='5' type-id='type-id-3' id='type-id-49'/>
    </array-type-def>
    <type-decl name='unsigned int' size-in-bits='32' id='type-id-22'/>
    <type-decl name='unsigned long int' size-in-bits='64' id='type-id-50'/>
    <array-type-def dimensions='1' type-id='type-id-50' size-in-bits='39936' id='type-id-51'>
      <subrange length='624' type-id='type-id-3' id='type-id-52'/>
    </array-type-def>
    <array-type-def dimensions='1' type-id='type-id-50' size-in-bits='infinite' id='type-id-53'>
      <subrange length='infinite' id='type-id-54'/>
    </array-type-def>
    <type-decl name='unsigned short int' size-in-bits='16' id='type-id-55'/>
    <type-decl name='variadic parameter type' id='type-id-56'/>
    <type-decl name='void' id='type-id-57'/>
    <type-decl name='wchar_t' size-in-bits='32' id='type-id-58'/>
    <typedef-decl name='lldiv_t' type-id='type-id-59' filepath='/usr/include/stdlib.h' line='121' column='1' id='type-id-60'/>
    <class-decl name='__anonymous_struct__' size-in-bits='128' is-struct='yes' is-anonymous='yes' naming-typedef-id='type-id-60' visibility='default' filepath='/usr/include/stdlib.h' line='118' column='1' id='type-id-59'>
      <data-member access='public' layout-offset-in-bits='0'>
        <var-decl name='quot' type-id='type-id-33' visibility='default' filepath='/usr/include/stdlib.h' line='119' column='1'/>
      </data-member>
      <data-member access='public' layout-offset-in-bits='64'>
        <var-decl name='rem' type-id='type-id-33' visibility='default' filepath='/usr/include/stdlib.h' line='120' column='1'/>
      </data-member>
    </class-decl>
    <typedef-decl name='_Atomic_word' type-id='type-id-29' filepath='/usr/include/x86_64-linux-gnu/c++/4.9/bits/atomic_word.h' line='32' column='1' id='type-id-61'/>
    <typedef-decl name='time_t' type-id='type-id-62' filepath='/usr/include/time.h' line='75' column='1' id='type-id-63'/>
    <typedef-decl name='__time_t' type-id='type-id-26' filepath='/usr/include/x86_64-linux-gnu/bits/types.h' line='139' column='1' id='type-id-62'/>
    <typedef-decl name='int64_t' type-id='type-id-26' filepath='/usr/include/stdint.h' line='40' column='1' id='type-id-64'/>
    <typedef-decl name='size_t' type-id='type-id-50' filepath='/usr/lib/gcc/x86_64-linux-gnu/4.9/include/stddef.h' line='212' column='1' id='type-id-65'/>
    <typedef-decl name='uint64_t' type-id='type-id-50' filepath='/usr/include/stdint.h' line='55' column='1' id='type-id-66'/>
    <typedef-decl name='uint32_t' type-id='type-id-22' filepath='/usr/include/stdint.h' line='51' column='1' id='type-id-67'/>
    <typedef-decl name='int32_t' type-id='type-id-29' filepath='/usr/include/stdint.h' line='38' column='1' id='type-id-68'/>
    <typedef-decl name='wint_t' type-id='type-id-22' filepath='/usr/lib/gcc/x86_64-linux-gnu/4.9/include/stddef.h' line='353' column='1' id='type-id-69'/>
    <typedef-decl name='__FILE' type-id='type-id-70' filepath='/usr/include/stdio.h' line='64' column='1' id='type-id-71'/>
    <class-decl name='_IO_FILE' size-in-bits='1728' is-struct='yes' visibility='default' filepath='/usr/include/libio.h' line='245' column='1' id='type-id-70'>
      <data-member access='public' layout-offset-in-bits='0'>
        <var-decl name='_flags' type-id='type-id-29' visibility='default' filepath='/usr/include/libio.h' line='246' column='1'/>
      </data-member>
      <data-member access='public' layout-offset-in-bits='64'>
        <var-decl name='_IO_read_ptr' type-id='type-id-72' visibility='default' filepath='/usr/include/libio.h' line='251' column='1'/>
      </data-member>
      <data-member access='public' layout-offset-in-bits='128'>
        <var-decl name='_IO_read_end' type-id='type-id-72' visibility='default' filepath='/usr/include/libio.h' line='252' column='1'/>
      </data-member>
      <data-member access='public' layout-offset-in-bits='192'>
        <var-decl name='_IO_read_base' type-id='type-id-72' visibility='default' filepath='/usr/include/libio.h' line='253' column='1'/>
      </data-member>
      <data-member access='public' layout-offset-in-bits='256'>
        <var-decl name='_IO_write_base' type-id='type-id-72' visibility='default' filepath='/usr/include/libio.h' line='254' column='1'/>
      </data-member>
      <data-member access='public' layout-offset-in-bits='320'>
        <var-decl name='_IO_write_ptr' type-id='type-id-72' visibility='default' filepath='/usr/include/libio.h' line='255' column='1'/>
      </data-member>
      <data-member access='public' layout-offset-in-bits='384'>
        <var-decl name='_IO_write_end' type-id='type-id-72' visibility='default' filepath='/usr/include/libio.h' line='256' column='1'/>
      </data-member>
      <data-member access='public' layout-offset-in-bits='448'>
        <var-decl name='_IO_buf_base' type-id='type-id-72' visibility='default' filepath='/usr/include/libio.h' line='257' column='1'/>
      </data-member>
      <data-member access='public' layout-offset-in-bits='512'>
        <var-decl name='_IO_buf_end' type-id='type-id-72' visibility='default' filepath='/usr/include/libio.h' line='258' column='1'/>
      </data-member>
      <data-member access='public' layout-offset-in-bits='576'>
        <var-decl name='_IO_save_base' type-id='type-id-72' visibility='default' filepath='/usr/include/libio.h' line='260' column='1'/>
      </data-member>
      <data-member access='public' layout-offset-in-bits='640'>
        <var-decl name='_IO_backup_base' type-id='type-id-72' visibility='default' filepath='/usr/include/libio.h' line='261' column='1'/>
      </data-member>
      <data-member access='public' layout-offset-in-bits='704'>
        <var-decl name='_IO_save_end' type-id='type-id-72' visibility='default' filepath='/usr/include/libio.h' line='262' column='1'/>
      </data-member>
      <data-member access='public' layout-offset-in-bits='768'>
        <var-decl name='_markers' type-id='type-id-73' visibility='default' filepath='/usr/include/libio.h' line='264' column='1'/>
      </data-member>
      <data-member access='public' layout-offset-in-bits='832'>
        <var-decl name='_chain' type-id='type-id-74' visibility='default' filepath='/usr/include/libio.h' line='266' column='1'/>
      </data-member>
      <data-member access='public' layout-offset-in-bits='896'>
        <var-decl name='_fileno' type-id='type-id-29' visibility='default' filepath='/usr/include/libio.h' line='268' column='1'/>
      </data-member>
      <data-member access='public' layout-offset-in-bits='928'>
        <var-decl name='_flags2' type-id='type-id-29' visibility='default' filepath='/usr/include/libio.h' line='272' column='1'/>
      </data-member>
      <data-member access='public' layout-offset-in-bits='960'>
        <var-decl name='_old_offset' type-id='type-id-75' visibility='default' filepath='/usr/include/libio.h' line='274' column='1'/>
      </data-member>
      <data-member access='public' layout-offset-in-bits='1024'>
        <var-decl name='_cur_column' type-id='type-id-55' visibility='default' filepath='/usr/include/libio.h' line='278' column='1'/>
      </data-member>
      <data-member access='public' layout-offset-in-bits='1040'>
        <var-decl name='_vtable_offset' type-id='type-id-36' visibility='default' filepath='/usr/include/libio.h' line='279' column='1'/>
      </data-member>
      <data-member access='public' layout-offset-in-bits='1048'>
        <var-decl name='_shortbuf' type-id='type-id-11' visibility='default' filepath='/usr/include/libio.h' line='280' column='1'/>
      </data-member>
      <data-member access='public' layout-offset-in-bits='1088'>
        <var-decl name='_lock' type-id='type-id-76' visibility='default' filepath='/usr/include/libio.h' line='284' column='1'/>
      </data-member>
      <data-member access='public' layout-offset-in-bits='1152'>
        <var-decl name='_offset' type-id='type-id-77' visibility='default' filepath='/usr/include/libio.h' line='293' column='1'/>
      </data-member>
      <data-member access='public' layout-offset-in-bits='1216'>
        <var-decl name='__pad1' type-id='type-id-23' visibility='default' filepath='/usr/include/libio.h' line='302' column='1'/>
      </data-member>
      <data-member access='public' layout-offset-in-bits='1280'>
        <var-decl name='__pad2' type-id='type-id-23' visibility='default' filepath='/usr/include/libio.h' line='303' column='1'/>
      </data-member>
      <data-member access='public' layout-offset-in-bits='1344'>
        <var-decl name='__pad3' type-id='type-id-23' visibility='default' filepath='/usr/include/libio.h' line='304' column='1'/>
      </data-member>
      <data-member access='public' layout-offset-in-bits='1408'>
        <var-decl name='__pad4' type-id='type-id-23' visibility='default' filepath='/usr/include/libio.h' line='305' column='1'/>
      </data-member>
      <data-member access='public' layout-offset-in-bits='1472'>
        <var-decl name='__pad5' type-id='type-id-65' visibility='default' filepath='/usr/include/libio.h' line='306' column='1'/>
      </data-member>
      <data-member access='public' layout-offset-in-bits='1536'>
        <var-decl name='_mode' type-id='type-id-29' visibility='default' filepath='/usr/include/libio.h' line='308' column='1'/>
      </data-member>
      <data-member access='public' layout-offset-in-bits='1568'>
        <var-decl name='_unused2' type-id='type-id-13' visibility='default' filepath='/usr/include/libio.h' line='310' column='1'/>
      </data-member>
    </class-decl>
    <class-decl name='_IO_marker' size-in-bits='192' is-struct='yes' visibility='default' filepath='/usr/include/libio.h' line='160' column='1' id='type-id-78'>
      <data-member access='public' layout-offset-in-bits='0'>
        <var-decl name='_next' type-id='type-id-73' visibility='default' filepath='/usr/include/libio.h' line='161' column='1'/>
      </data-member>
      <data-member access='public' layout-offset-in-bits='64'>
        <var-decl name='_sbuf' type-id='type-id-74' visibility='default' filepath='/usr/include/libio.h' line='162' column='1'/>
      </data-member>
      <data-member access='public' layout-offset-in-bits='128'>
        <var-decl name='_pos' type-id='type-id-29' visibility='default' filepath='/usr/include/libio.h' line='166' column='1'/>
      </data-member>
    </class-decl>
    <typedef-decl name='__off_t' type-id='type-id-26' filepath='/usr/include/x86_64-linux-gnu/bits/types.h' line='131' column='1' id='type-id-75'/>
    <typedef-decl name='_IO_lock_t' type-id='type-id-57' filepath='/usr/include/libio.h' line='154' column='1' id='type-id-79'/>
    <typedef-decl name='__off64_t' type-id='type-id-26' filepath='/usr/include/x86_64-linux-gnu/bits/types.h' line='132' column='1' id='type-id-77'/>
    <typedef-decl name='mbstate_t' type-id='type-id-80' filepath='/usr/include/wchar.h' line='106' column='1' id='type-id-81'/>
    <typedef-decl name='__mbstate_t' type-id='type-id-82' filepath='/usr/include/wchar.h' line='94' column='1' id='type-id-80'/>
    <class-decl name='__anonymous_struct__1' size-in-bits='64' is-struct='yes' is-anonymous='yes' naming-typedef-id='type-id-80' visibility='default' filepath='/usr/include/wchar.h' line='83' column='1' id='type-id-82'>
      <member-type access='public'>
        <union-decl name='__anonymous_union__' size-in-bits='32' is-anonymous='yes' visibility='default' filepath='/usr/include/wchar.h' line='86' column='1' id='type-id-83'>
          <data-member access='public'>
            <var-decl name='__wch' type-id='type-id-22' visibility='default' filepath='/usr/include/wchar.h' line='88' column='1'/>
          </data-member>
          <data-member access='public'>
            <var-decl name='__wchb' type-id='type-id-17' visibility='default' filepath='/usr/include/wchar.h' line='92' column='1'/>
          </data-member>
        </union-decl>
      </member-type>
      <data-member access='public' layout-offset-in-bits='0'>
        <var-decl name='__count' type-id='type-id-29' visibility='default' filepath='/usr/include/wchar.h' line='84' column='1'/>
      </data-member>
      <data-member access='public' layout-offset-in-bits='32'>
        <var-decl name='__value' type-id='type-id-83' visibility='default' filepath='/usr/include/wchar.h' line='93' column='1'/>
      </data-member>
    </class-decl>
    <class-decl name='tm' size-in-bits='448' is-struct='yes' visibility='default' filepath='/usr/include/time.h' line='133' column='1' id='type-id-84'>
      <data-member access='public' layout-offset-in-bits='0'>
        <var-decl name='tm_sec' type-id='type-id-29' visibility='default' filepath='/usr/include/time.h' line='135' column='1'/>
      </data-member>
      <data-member access='public' layout-offset-in-bits='32'>
        <var-decl name='tm_min' type-id='type-id-29' visibility='default' filepath='/usr/include/time.h' line='136' column='1'/>
      </data-member>
      <data-member access='public' layout-offset-in-bits='64'>
        <var-decl name='tm_hour' type-id='type-id-29' visibility='default' filepath='/usr/include/time.h' line='137' column='1'/>
      </data-member>
      <data-member access='public' layout-offset-in-bits='96'>
        <var-decl name='tm_mday' type-id='type-id-29' visibility='default' filepath='/usr/include/time.h' line='138' column='1'/>
      </data-member>
      <data-member access='public' layout-offset-in-bits='128'>
        <var-decl name='tm_mon' type-id='type-id-29' visibility='default' filepath='/usr/include/time.h' line='139' column='1'/>
      </data-member>
      <data-member access='public' layout-offset-in-bits='160'>
        <var-decl name='tm_year' type-id='type-id-29' visibility='default' filepath='/usr/include/time.h' line='140' column='1'/>
      </data-member>
      <data-member access='public' layout-offset-in-bits='192'>
        <var-decl name='tm_wday' type-id='type-id-29' visibility='default' filepath='/usr/include/time.h' line='141' column='1'/>
      </data-member>
      <data-member access='public' layout-offset-in-bits='224'>
        <var-decl name='tm_yday' type-id='type-id-29' visibility='default' filepath='/usr/include/time.h' line='142' column='1'/>
      </data-member>
      <data-member access='public' layout-offset-in-bits='256'>
        <var-decl name='tm_isdst' type-id='type-id-29' visibility='default' filepath='/usr/include/time.h' line='143' column='1'/>
      </data-member>
      <data-member access='public' layout-offset-in-bits='320'>
        <var-decl name='tm_gmtoff' type-id='type-id-26' visibility='default' filepath='/usr/include/time.h' line='146' column='1'/>
      </data-member>
      <data-member access='public' layout-offset-in-bits='384'>
        <var-decl name='tm_zone' type-id='type-id-85' visibility='default' filepath='/usr/include/time.h' line='147' column='1'/>
      </data-member>
    </class-decl>
    <class-decl name='lconv' size-in-bits='768' is-struct='yes' visibility='default' filepath='/usr/include/locale.h' line='53' column='1' id='type-id-86'>
      <data-member access='public' layout-offset-in-bits='0'>
        <var-decl name='decimal_point' type-id='type-id-72' visibility='default' filepath='/usr/include/locale.h' line='57' column='1'/>
      </data-member>
      <data-member access='public' layout-offset-in-bits='64'>
        <var-decl name='thousands_sep' type-id='type-id-72' visibility='default' filepath='/usr/include/locale.h' line='58' column='1'/>
      </data-member>
      <data-member access='public' layout-offset-in-bits='128'>
        <var-decl name='grouping' type-id='type-id-72' visibility='default' filepath='/usr/include/locale.h' line='64' column='1'/>
      </data-member>
      <data-member access='public' layout-offset-in-bits='192'>
        <var-decl name='int_curr_symbol' type-id='type-id-72' visibility='default' filepath='/usr/include/locale.h' line='70' column='1'/>
      </data-member>
      <data-member access='public' layout-offset-in-bits='256'>
        <var-decl name='currency_symbol' type-id='type-id-72' visibility='default' filepath='/usr/include/locale.h' line='71' column='1'/>
      </data-member>
      <data-member access='public' layout-offset-in-bits='320'>
        <var-decl name='mon_decimal_point' type-id='type-id-72' visibility='default' filepath='/usr/include/locale.h' line='72' column='1'/>
      </data-member>
      <data-member access='public' layout-offset-in-bits='384'>
        <var-decl name='mon_thousands_sep' type-id='type-id-72' visibility='default' filepath='/usr/include/locale.h' line='73' column='1'/>
      </data-member>
      <data-member access='public' layout-offset-in-bits='448'>
        <var-decl name='mon_grouping' type-id='type-id-72' visibility='default' filepath='/usr/include/locale.h' line='74' column='1'/>
      </data-member>
      <data-member access='public' layout-offset-in-bits='512'>
        <var-decl name='positive_sign' type-id='type-id-72' visibility='default' filepath='/usr/include/locale.h' line='75' column='1'/>
      </data-member>
      <data-member access='public' layout-offset-in-bits='576'>
        <var-decl name='negative_sign' type-id='type-id-72' visibility='default' filepath='/usr/include/locale.h' line='76' column='1'/>
      </data-member>
      <data-member access='public' layout-offset-in-bits='640'>
        <var-decl name='int_frac_digits' type-id='type-id-5' visibility='default' filepath='/usr/include/locale.h' line='77' column='1'/>
      </data-member>
      <data-member access='public' layout-offset-in-bits='648'>
        <var-decl name='frac_digits' type-id='type-id-5' visibility='default' filepath='/usr/include/locale.h' line='78' column='1'/>
      </data-member>
      <data-member access='public' layout-offset-in-bits='656'>
        <var-decl name='p_cs_precedes' type-id='type-id-5' visibility='default' filepath='/usr/include/locale.h' line='80' column='1'/>
      </data-member>
      <data-member access='public' layout-offset-in-bits='664'>
        <var-decl name='p_sep_by_space' type-id='type-id-5' visibility='default' filepath='/usr/include/locale.h' line='82' column='1'/>
      </data-member>
      <data-member access='public' layout-offset-in-bits='672'>
        <var-decl name='n_cs_precedes' type-id='type-id-5' visibility='default' filepath='/usr/include/locale.h' line='84' column='1'/>
      </data-member>
      <data-member access='public' layout-offset-in-bits='680'>
        <var-decl name='n_sep_by_space' type-id='type-id-5' visibility='default' filepath='/usr/include/locale.h' line='86' column='1'/>
      </data-member>
      <data-member access='public' layout-offset-in-bits='688'>
        <var-decl name='p_sign_posn' type-id='type-id-5' visibility='default' filepath='/usr/include/locale.h' line='93' column='1'/>
      </data-member>
      <data-member access='public' layout-offset-in-bits='696'>
        <var-decl name='n_sign_posn' type-id='type-id-5' visibility='default' filepath='/usr/include/locale.h' line='94' column='1'/>
      </data-member>
      <data-member access='public' layout-offset-in-bits='704'>
        <var-decl name='int_p_cs_precedes' type-id='type-id-5' visibility='default' filepath='/usr/include/locale.h' line='97' column='1'/>
      </data-member>
      <data-member access='public' layout-offset-in-bits='712'>
        <var-decl name='int_p_sep_by_space' type-id='type-id-5' visibility='default' filepath='/usr/include/locale.h' line='99' column='1'/>
      </data-member>
      <data-member access='public' layout-offset-in-bits='720'>
        <var-decl name='int_n_cs_precedes' type-id='type-id-5' visibility='default' filepath='/usr/include/locale.h' line='101' column='1'/>
      </data-member>
      <data-member access='public' layout-offset-in-bits='728'>
        <var-decl name='int_n_sep_by_space' type-id='type-id-5' visibility='default' filepath='/usr/include/locale.h' line='103' column='1'/>
      </data-member>
      <data-member access='public' layout-offset-in-bits='736'>
        <var-decl name='int_p_sign_posn' type-id='type-id-5' visibility='default' filepath='/usr/include/locale.h' line='110' column='1'/>
      </data-member>
      <data-member access='public' layout-offset-in-bits='744'>
        <var-decl name='int_n_sign_posn' type-id='type-id-5' visibility='default' filepath='/usr/include/locale.h' line='111' column='1'/>
      </data-member>
    </class-decl>
    <typedef-decl name='__compar_fn_t' type-id='type-id-87' filepath='/usr/include/stdlib.h' line='741' column='1' id='type-id-88'/>
    <typedef-decl name='div_t' type-id='type-id-89' filepath='/usr/include/stdlib.h' line='101' column='1' id='type-id-90'/>
    <class-decl name='__anonymous_struct__2' size-in-bits='64' is-struct='yes' is-anonymous='yes' naming-typedef-id='type-id-90' visibility='default' filepath='/usr/include/stdlib.h' line='98' column='1' id='type-id-89'>
      <data-member access='public' layout-offset-in-bits='0'>
        <var-decl name='quot' type-id='type-id-29' visibility='default' filepath='/usr/include/stdlib.h' line='99' column='1'/>
      </data-member>
      <data-member access='public' layout-offset-in-bits='32'>
        <var-decl name='rem' type-id='type-id-29' visibility='default' filepath='/usr/include/stdlib.h' line='100' column='1'/>
      </data-member>
    </class-decl>
    <typedef-decl name='ldiv_t' type-id='type-id-91' filepath='/usr/include/stdlib.h' line='109' column='1' id='type-id-92'/>
    <class-decl name='__anonymous_struct__3' size-in-bits='128' is-struct='yes' is-anonymous='yes' naming-typedef-id='type-id-92' visibility='default' filepath='/usr/include/stdlib.h' line='106' column='1' id='type-id-91'>
      <data-member access='public' layout-offset-in-bits='0'>
        <var-decl name='quot' type-id='type-id-26' visibility='default' filepath='/usr/include/stdlib.h' line='107' column='1'/>
      </data-member>
      <data-member access='public' layout-offset-in-bits='64'>
        <var-decl name='rem' type-id='type-id-26' visibility='default' filepath='/usr/include/stdlib.h' line='108' column='1'/>
      </data-member>
    </class-decl>
    <typedef-decl name='FILE' type-id='type-id-70' filepath='/usr/include/stdio.h' line='48' column='1' id='type-id-93'/>
    <typedef-decl name='fpos_t' type-id='type-id-94' filepath='/usr/include/stdio.h' line='110' column='1' id='type-id-95'/>
    <typedef-decl name='_G_fpos_t' type-id='type-id-96' filepath='/usr/include/_G_config.h' line='25' column='1' id='type-id-94'/>
    <class-decl name='__anonymous_struct__4' size-in-bits='128' is-struct='yes' is-anonymous='yes' naming-typedef-id='type-id-94' visibility='default' filepath='/usr/include/_G_config.h' line='22' column='1' id='type-id-96'>
      <data-member access='public' layout-offset-in-bits='0'>
        <var-decl name='__pos' type-id='type-id-75' visibility='default' filepath='/usr/include/_G_config.h' line='23' column='1'/>
      </data-member>
      <data-member access='public' layout-offset-in-bits='64'>
        <var-decl name='__state' type-id='type-id-80' visibility='default' filepath='/usr/include/_G_config.h' line='24' column='1'/>
      </data-member>
    </class-decl>
    <typedef-decl name='wctype_t' type-id='type-id-50' filepath='/usr/include/wctype.h' line='52' column='1' id='type-id-97'/>
    <typedef-decl name='wctrans_t' type-id='type-id-98' filepath='/usr/include/wctype.h' line='186' column='1' id='type-id-99'/>
    <typedef-decl name='__int32_t' type-id='type-id-29' filepath='/usr/include/x86_64-linux-gnu/bits/types.h' line='40' column='1' id='type-id-100'/>
    <typedef-decl name='clock_t' type-id='type-id-101' filepath='/usr/include/time.h' line='59' column='1' id='type-id-102'/>
    <typedef-decl name='__clock_t' type-id='type-id-26' filepath='/usr/include/x86_64-linux-gnu/bits/types.h' line='135' column='1' id='type-id-101'/>
    <typedef-decl name='int8_t' type-id='type-id-36' filepath='/usr/include/stdint.h' line='36' column='1' id='type-id-103'/>
    <typedef-decl name='intmax_t' type-id='type-id-26' filepath='/usr/include/stdint.h' line='134' column='1' id='type-id-104'/>
    <pointer-type-def type-id='type-id-93' size-in-bits='64' id='type-id-105'/>
    <pointer-type-def type-id='type-id-70' size-in-bits='64' id='type-id-74'/>
    <pointer-type-def type-id='type-id-79' size-in-bits='64' id='type-id-76'/>
    <pointer-type-def type-id='type-id-78' size-in-bits='64' id='type-id-73'/>
    <pointer-type-def type-id='type-id-71' size-in-bits='64' id='type-id-106'/>
    <pointer-type-def type-id='type-id-107' size-in-bits='64' id='type-id-108'/>
    <pointer-type-def type-id='type-id-109' size-in-bits='64' id='type-id-110'/>
    <pointer-type-def type-id='type-id-111' size-in-bits='64' id='type-id-112'/>
    <qualified-type-def type-id='type-id-112' const='yes' id='type-id-113'/>
    <reference-type-def kind='lvalue' type-id='type-id-114' size-in-bits='64' id='type-id-115'/>
    <reference-type-def kind='lvalue' type-id='type-id-116' size-in-bits='64' id='type-id-117'/>
    <reference-type-def kind='lvalue' type-id='type-id-118' size-in-bits='64' id='type-id-119'/>
    <reference-type-def kind='lvalue' type-id='type-id-120' size-in-bits='64' id='type-id-121'/>
    <reference-type-def kind='lvalue' type-id='type-id-122' size-in-bits='64' id='type-id-123'/>
    <reference-type-def kind='lvalue' type-id='type-id-124' size-in-bits='64' id='type-id-125'/>
    <reference-type-def kind='lvalue' type-id='type-id-126' size-in-bits='64' id='type-id-127'/>
    <reference-type-def kind='lvalue' type-id='type-id-128' size-in-bits='64' id='type-id-129'/>
    <pointer-type-def type-id='type-id-128' size-in-bits='64' id='type-id-130'/>
    <reference-type-def kind='lvalue' type-id='type-id-131' size-in-bits='64' id='type-id-132'/>
    <pointer-type-def type-id='type-id-131' size-in-bits='64' id='type-id-133'/>
    <reference-type-def kind='lvalue' type-id='type-id-134' size-in-bits='64' id='type-id-135'/>
    <pointer-type-def type-id='type-id-134' size-in-bits='64' id='type-id-136'/>
    <qualified-type-def type-id='type-id-136' const='yes' id='type-id-137'/>
    <reference-type-def kind='lvalue' type-id='type-id-138' size-in-bits='64' id='type-id-139'/>
    <pointer-type-def type-id='type-id-138' size-in-bits='64' id='type-id-140'/>
    <qualified-type-def type-id='type-id-140' const='yes' id='type-id-141'/>
    <pointer-type-def type-id='type-id-142' size-in-bits='64' id='type-id-143'/>
    <pointer-type-def type-id='type-id-144' size-in-bits='64' id='type-id-145'/>
    <pointer-type-def type-id='type-id-146' size-in-bits='64' id='type-id-147'/>
    <pointer-type-def type-id='type-id-148' size-in-bits='64' id='type-id-149'/>
    <pointer-type-def type-id='type-id-150' size-in-bits='64' id='type-id-151'/>
    <pointer-type-def type-id='type-id-152' size-in-bits='64' id='type-id-153'/>
    <pointer-type-def type-id='type-id-154' size-in-bits='64' id='type-id-155'/>
    <pointer-type-def type-id='type-id-156' size-in-bits='64' id='type-id-157'/>
    <pointer-type-def type-id='type-id-158' size-in-bits='64' id='type-id-159'/>
    <pointer-type-def type-id='type-id-160' size-in-bits='64' id='type-id-161'/>
    <pointer-type-def type-id='type-id-162' size-in-bits='64' id='type-id-163'/>
    <qualified-type-def type-id='type-id-163' const='yes' id='type-id-164'/>
    <pointer-type-def type-id='type-id-165' size-in-bits='64' id='type-id-166'/>
    <qualified-type-def type-id='type-id-166' const='yes' id='type-id-167'/>
    <pointer-type-def type-id='type-id-168' size-in-bits='64' id='type-id-169'/>
    <pointer-type-def type-id='type-id-170' size-in-bits='64' id='type-id-171'/>
    <pointer-type-def type-id='type-id-172' size-in-bits='64' id='type-id-173'/>
    <pointer-type-def type-id='type-id-174' size-in-bits='64' id='type-id-175'/>
    <qualified-type-def type-id='type-id-175' const='yes' id='type-id-176'/>
    <pointer-type-def type-id='type-id-177' size-in-bits='64' id='type-id-178'/>
    <pointer-type-def type-id='type-id-179' size-in-bits='64' id='type-id-180'/>
    <qualified-type-def type-id='type-id-180' const='yes' id='type-id-181'/>
    <pointer-type-def type-id='type-id-182' size-in-bits='64' id='type-id-183'/>
    <pointer-type-def type-id='type-id-184' size-in-bits='64' id='type-id-185'/>
    <pointer-type-def type-id='type-id-186' size-in-bits='64' id='type-id-187'/>
    <pointer-type-def type-id='type-id-188' size-in-bits='64' id='type-id-189'/>
    <pointer-type-def type-id='type-id-190' size-in-bits='64' id='type-id-191'/>
    <qualified-type-def type-id='type-id-191' const='yes' id='type-id-192'/>
    <pointer-type-def type-id='type-id-193' size-in-bits='64' id='type-id-194'/>
    <reference-type-def kind='lvalue' type-id='type-id-1' size-in-bits='64' id='type-id-195'/>
    <pointer-type-def type-id='type-id-1' size-in-bits='64' id='type-id-196'/>
    <reference-type-def kind='lvalue' type-id='type-id-197' size-in-bits='64' id='type-id-198'/>
    <reference-type-def kind='rvalue' type-id='type-id-197' size-in-bits='64' id='type-id-199'/>
    <pointer-type-def type-id='type-id-197' size-in-bits='64' id='type-id-200'/>
    <pointer-type-def type-id='type-id-201' size-in-bits='64' id='type-id-202'/>
    <reference-type-def kind='lvalue' type-id='type-id-203' size-in-bits='64' id='type-id-204'/>
    <reference-type-def kind='rvalue' type-id='type-id-203' size-in-bits='64' id='type-id-205'/>
    <pointer-type-def type-id='type-id-203' size-in-bits='64' id='type-id-206'/>
    <reference-type-def kind='lvalue' type-id='type-id-207' size-in-bits='64' id='type-id-208'/>
    <pointer-type-def type-id='type-id-207' size-in-bits='64' id='type-id-209'/>
    <reference-type-def kind='lvalue' type-id='type-id-210' size-in-bits='64' id='type-id-211'/>
    <pointer-type-def type-id='type-id-210' size-in-bits='64' id='type-id-212'/>
    <reference-type-def kind='lvalue' type-id='type-id-213' size-in-bits='64' id='type-id-214'/>
    <pointer-type-def type-id='type-id-213' size-in-bits='64' id='type-id-215'/>
    <pointer-type-def type-id='type-id-216' size-in-bits='64' id='type-id-217'/>
    <reference-type-def kind='lvalue' type-id='type-id-218' size-in-bits='64' id='type-id-219'/>
    <pointer-type-def type-id='type-id-218' size-in-bits='64' id='type-id-220'/>
    <reference-type-def kind='lvalue' type-id='type-id-221' size-in-bits='64' id='type-id-222'/>
    <pointer-type-def type-id='type-id-221' size-in-bits='64' id='type-id-223'/>
    <reference-type-def kind='lvalue' type-id='type-id-5' size-in-bits='64' id='type-id-224'/>
    <pointer-type-def type-id='type-id-5' size-in-bits='64' id='type-id-72'/>
    <qualified-type-def type-id='type-id-72' const='yes' id='type-id-225'/>
    <reference-type-def kind='lvalue' type-id='type-id-225' size-in-bits='64' id='type-id-226'/>
    <pointer-type-def type-id='type-id-72' size-in-bits='64' id='type-id-227'/>
    <qualified-type-def type-id='type-id-228' id='type-id-229'/>
    <reference-type-def kind='lvalue' type-id='type-id-15' size-in-bits='64' id='type-id-228'/>
    <qualified-type-def type-id='type-id-230' id='type-id-231'/>
    <reference-type-def kind='lvalue' type-id='type-id-19' size-in-bits='64' id='type-id-230'/>
    <pointer-type-def type-id='type-id-232' size-in-bits='64' id='type-id-233'/>
    <pointer-type-def type-id='type-id-234' size-in-bits='64' id='type-id-235'/>
    <qualified-type-def type-id='type-id-235' const='yes' id='type-id-236'/>
    <qualified-type-def type-id='type-id-237' id='type-id-238'/>
    <reference-type-def kind='lvalue' type-id='type-id-236' size-in-bits='64' id='type-id-237'/>
    <pointer-type-def type-id='type-id-236' size-in-bits='64' id='type-id-239'/>
    <qualified-type-def type-id='type-id-240' id='type-id-241'/>
    <reference-type-def kind='lvalue' type-id='type-id-235' size-in-bits='64' id='type-id-240'/>
    <qualified-type-def type-id='type-id-242' id='type-id-243'/>
    <reference-type-def kind='rvalue' type-id='type-id-235' size-in-bits='64' id='type-id-242'/>
    <pointer-type-def type-id='type-id-235' size-in-bits='64' id='type-id-244'/>
    <reference-type-def kind='lvalue' type-id='type-id-244' size-in-bits='64' id='type-id-245'/>
    <qualified-type-def type-id='type-id-107' const='yes' id='type-id-246'/>
    <pointer-type-def type-id='type-id-246' size-in-bits='64' id='type-id-247'/>
    <qualified-type-def type-id='type-id-109' const='yes' id='type-id-248'/>
    <pointer-type-def type-id='type-id-248' size-in-bits='64' id='type-id-249'/>
    <qualified-type-def type-id='type-id-111' const='yes' id='type-id-250'/>
    <pointer-type-def type-id='type-id-250' size-in-bits='64' id='type-id-251'/>
    <qualified-type-def type-id='type-id-114' const='yes' id='type-id-252'/>
    <reference-type-def kind='lvalue' type-id='type-id-252' size-in-bits='64' id='type-id-253'/>
    <qualified-type-def type-id='type-id-116' const='yes' id='type-id-254'/>
    <reference-type-def kind='lvalue' type-id='type-id-254' size-in-bits='64' id='type-id-255'/>
    <qualified-type-def type-id='type-id-118' const='yes' id='type-id-256'/>
    <reference-type-def kind='lvalue' type-id='type-id-256' size-in-bits='64' id='type-id-257'/>
    <qualified-type-def type-id='type-id-120' const='yes' id='type-id-258'/>
    <reference-type-def kind='lvalue' type-id='type-id-258' size-in-bits='64' id='type-id-259'/>
    <qualified-type-def type-id='type-id-122' const='yes' id='type-id-260'/>
    <reference-type-def kind='lvalue' type-id='type-id-260' size-in-bits='64' id='type-id-261'/>
    <qualified-type-def type-id='type-id-124' const='yes' id='type-id-262'/>
    <reference-type-def kind='lvalue' type-id='type-id-262' size-in-bits='64' id='type-id-263'/>
    <qualified-type-def type-id='type-id-126' const='yes' id='type-id-264'/>
    <reference-type-def kind='lvalue' type-id='type-id-264' size-in-bits='64' id='type-id-265'/>
    <qualified-type-def type-id='type-id-128' const='yes' id='type-id-266'/>
    <pointer-type-def type-id='type-id-266' size-in-bits='64' id='type-id-267'/>
    <qualified-type-def type-id='type-id-131' const='yes' id='type-id-268'/>
    <pointer-type-def type-id='type-id-268' size-in-bits='64' id='type-id-269'/>
    <qualified-type-def type-id='type-id-134' const='yes' id='type-id-270'/>
    <qualified-type-def type-id='type-id-271' id='type-id-272'/>
    <reference-type-def kind='lvalue' type-id='type-id-270' size-in-bits='64' id='type-id-271'/>
    <pointer-type-def type-id='type-id-270' size-in-bits='64' id='type-id-273'/>
    <qualified-type-def type-id='type-id-273' const='yes' id='type-id-274'/>
    <qualified-type-def type-id='type-id-138' const='yes' id='type-id-275'/>
    <qualified-type-def type-id='type-id-276' id='type-id-277'/>
    <reference-type-def kind='lvalue' type-id='type-id-275' size-in-bits='64' id='type-id-276'/>
    <pointer-type-def type-id='type-id-275' size-in-bits='64' id='type-id-278'/>
    <qualified-type-def type-id='type-id-278' const='yes' id='type-id-279'/>
    <qualified-type-def type-id='type-id-142' const='yes' id='type-id-280'/>
    <reference-type-def kind='lvalue' type-id='type-id-280' size-in-bits='64' id='type-id-281'/>
    <pointer-type-def type-id='type-id-280' size-in-bits='64' id='type-id-282'/>
    <qualified-type-def type-id='type-id-144' const='yes' id='type-id-283'/>
    <reference-type-def kind='lvalue' type-id='type-id-283' size-in-bits='64' id='type-id-284'/>
    <pointer-type-def type-id='type-id-283' size-in-bits='64' id='type-id-285'/>
    <qualified-type-def type-id='type-id-146' const='yes' id='type-id-286'/>
    <reference-type-def kind='lvalue' type-id='type-id-286' size-in-bits='64' id='type-id-287'/>
    <pointer-type-def type-id='type-id-286' size-in-bits='64' id='type-id-288'/>
    <qualified-type-def type-id='type-id-148' const='yes' id='type-id-289'/>
    <reference-type-def kind='lvalue' type-id='type-id-289' size-in-bits='64' id='type-id-290'/>
    <pointer-type-def type-id='type-id-289' size-in-bits='64' id='type-id-291'/>
    <qualified-type-def type-id='type-id-150' const='yes' id='type-id-292'/>
    <reference-type-def kind='lvalue' type-id='type-id-292' size-in-bits='64' id='type-id-293'/>
    <pointer-type-def type-id='type-id-292' size-in-bits='64' id='type-id-294'/>
    <qualified-type-def type-id='type-id-152' const='yes' id='type-id-295'/>
    <reference-type-def kind='lvalue' type-id='type-id-295' size-in-bits='64' id='type-id-296'/>
    <pointer-type-def type-id='type-id-295' size-in-bits='64' id='type-id-297'/>
    <qualified-type-def type-id='type-id-154' const='yes' id='type-id-298'/>
    <reference-type-def kind='lvalue' type-id='type-id-298' size-in-bits='64' id='type-id-299'/>
    <pointer-type-def type-id='type-id-298' size-in-bits='64' id='type-id-300'/>
    <qualified-type-def type-id='type-id-156' const='yes' id='type-id-301'/>
    <reference-type-def kind='lvalue' type-id='type-id-301' size-in-bits='64' id='type-id-302'/>
    <pointer-type-def type-id='type-id-301' size-in-bits='64' id='type-id-303'/>
    <qualified-type-def type-id='type-id-158' const='yes' id='type-id-304'/>
    <reference-type-def kind='lvalue' type-id='type-id-304' size-in-bits='64' id='type-id-305'/>
    <pointer-type-def type-id='type-id-304' size-in-bits='64' id='type-id-306'/>
    <qualified-type-def type-id='type-id-160' const='yes' id='type-id-307'/>
    <reference-type-def kind='lvalue' type-id='type-id-307' size-in-bits='64' id='type-id-308'/>
    <pointer-type-def type-id='type-id-307' size-in-bits='64' id='type-id-309'/>
    <qualified-type-def type-id='type-id-162' const='yes' id='type-id-310'/>
    <reference-type-def kind='lvalue' type-id='type-id-310' size-in-bits='64' id='type-id-311'/>
    <pointer-type-def type-id='type-id-310' size-in-bits='64' id='type-id-312'/>
    <qualified-type-def type-id='type-id-165' const='yes' id='type-id-313'/>
    <reference-type-def kind='lvalue' type-id='type-id-313' size-in-bits='64' id='type-id-314'/>
    <pointer-type-def type-id='type-id-313' size-in-bits='64' id='type-id-315'/>
    <qualified-type-def type-id='type-id-168' const='yes' id='type-id-316'/>
    <reference-type-def kind='lvalue' type-id='type-id-316' size-in-bits='64' id='type-id-317'/>
    <pointer-type-def type-id='type-id-316' size-in-bits='64' id='type-id-318'/>
    <qualified-type-def type-id='type-id-170' const='yes' id='type-id-319'/>
    <reference-type-def kind='lvalue' type-id='type-id-319' size-in-bits='64' id='type-id-320'/>
    <pointer-type-def type-id='type-id-319' size-in-bits='64' id='type-id-321'/>
    <qualified-type-def type-id='type-id-172' const='yes' id='type-id-322'/>
    <reference-type-def kind='lvalue' type-id='type-id-322' size-in-bits='64' id='type-id-323'/>
    <pointer-type-def type-id='type-id-322' size-in-bits='64' id='type-id-324'/>
    <qualified-type-def type-id='type-id-174' const='yes' id='type-id-325'/>
    <reference-type-def kind='lvalue' type-id='type-id-325' size-in-bits='64' id='type-id-326'/>
    <pointer-type-def type-id='type-id-325' size-in-bits='64' id='type-id-327'/>
    <qualified-type-def type-id='type-id-177' const='yes' id='type-id-328'/>
    <reference-type-def kind='lvalue' type-id='type-id-328' size-in-bits='64' id='type-id-329'/>
    <pointer-type-def type-id='type-id-328' size-in-bits='64' id='type-id-330'/>
    <qualified-type-def type-id='type-id-179' const='yes' id='type-id-331'/>
    <reference-type-def kind='lvalue' type-id='type-id-331' size-in-bits='64' id='type-id-332'/>
    <pointer-type-def type-id='type-id-331' size-in-bits='64' id='type-id-333'/>
    <qualified-type-def type-id='type-id-333' const='yes' id='type-id-334'/>
    <qualified-type-def type-id='type-id-182' const='yes' id='type-id-335'/>
    <reference-type-def kind='lvalue' type-id='type-id-335' size-in-bits='64' id='type-id-336'/>
    <pointer-type-def type-id='type-id-335' size-in-bits='64' id='type-id-337'/>
    <qualified-type-def type-id='type-id-184' const='yes' id='type-id-338'/>
    <reference-type-def kind='lvalue' type-id='type-id-338' size-in-bits='64' id='type-id-339'/>
    <pointer-type-def type-id='type-id-338' size-in-bits='64' id='type-id-340'/>
    <qualified-type-def type-id='type-id-186' const='yes' id='type-id-341'/>
    <reference-type-def kind='lvalue' type-id='type-id-341' size-in-bits='64' id='type-id-342'/>
    <pointer-type-def type-id='type-id-341' size-in-bits='64' id='type-id-343'/>
    <qualified-type-def type-id='type-id-188' const='yes' id='type-id-344'/>
    <reference-type-def kind='lvalue' type-id='type-id-344' size-in-bits='64' id='type-id-345'/>
    <pointer-type-def type-id='type-id-344' size-in-bits='64' id='type-id-346'/>
    <qualified-type-def type-id='type-id-190' const='yes' id='type-id-347'/>
    <reference-type-def kind='lvalue' type-id='type-id-347' size-in-bits='64' id='type-id-348'/>
    <pointer-type-def type-id='type-id-347' size-in-bits='64' id='type-id-349'/>
    <qualified-type-def type-id='type-id-100' const='yes' id='type-id-350'/>
    <pointer-type-def type-id='type-id-350' size-in-bits='64' id='type-id-98'/>
    <qualified-type-def type-id='type-id-1' const='yes' id='type-id-351'/>
    <reference-type-def kind='lvalue' type-id='type-id-351' size-in-bits='64' id='type-id-352'/>
    <pointer-type-def type-id='type-id-351' size-in-bits='64' id='type-id-353'/>
    <qualified-type-def type-id='type-id-197' const='yes' id='type-id-354'/>
    <reference-type-def kind='lvalue' type-id='type-id-354' size-in-bits='64' id='type-id-355'/>
    <pointer-type-def type-id='type-id-354' size-in-bits='64' id='type-id-356'/>
    <qualified-type-def type-id='type-id-201' const='yes' id='type-id-357'/>
    <pointer-type-def type-id='type-id-357' size-in-bits='64' id='type-id-358'/>
    <qualified-type-def type-id='type-id-203' const='yes' id='type-id-359'/>
    <reference-type-def kind='lvalue' type-id='type-id-359' size-in-bits='64' id='type-id-360'/>
    <pointer-type-def type-id='type-id-359' size-in-bits='64' id='type-id-361'/>
    <qualified-type-def type-id='type-id-362' const='yes' id='type-id-363'/>
    <reference-type-def kind='lvalue' type-id='type-id-363' size-in-bits='64' id='type-id-364'/>
    <pointer-type-def type-id='type-id-363' size-in-bits='64' id='type-id-365'/>
    <qualified-type-def type-id='type-id-207' const='yes' id='type-id-366'/>
    <reference-type-def kind='lvalue' type-id='type-id-366' size-in-bits='64' id='type-id-367'/>
    <pointer-type-def type-id='type-id-366' size-in-bits='64' id='type-id-368'/>
    <qualified-type-def type-id='type-id-213' const='yes' id='type-id-369'/>
    <pointer-type-def type-id='type-id-369' size-in-bits='64' id='type-id-370'/>
    <qualified-type-def type-id='type-id-216' const='yes' id='type-id-371'/>
    <pointer-type-def type-id='type-id-371' size-in-bits='64' id='type-id-372'/>
    <qualified-type-def type-id='type-id-218' const='yes' id='type-id-373'/>
    <reference-type-def kind='lvalue' type-id='type-id-373' size-in-bits='64' id='type-id-374'/>
    <pointer-type-def type-id='type-id-373' size-in-bits='64' id='type-id-375'/>
    <qualified-type-def type-id='type-id-221' const='yes' id='type-id-376'/>
    <reference-type-def kind='lvalue' type-id='type-id-376' size-in-bits='64' id='type-id-377'/>
    <pointer-type-def type-id='type-id-376' size-in-bits='64' id='type-id-378'/>
    <qualified-type-def type-id='type-id-5' const='yes' id='type-id-379'/>
    <qualified-type-def type-id='type-id-380' id='type-id-381'/>
    <reference-type-def kind='lvalue' type-id='type-id-379' size-in-bits='64' id='type-id-380'/>
    <pointer-type-def type-id='type-id-379' size-in-bits='64' id='type-id-85'/>
    <qualified-type-def type-id='type-id-85' const='yes' id='type-id-382'/>
    <reference-type-def kind='lvalue' type-id='type-id-382' size-in-bits='64' id='type-id-383'/>
    <reference-type-def kind='lvalue' type-id='type-id-85' size-in-bits='64' id='type-id-384'/>
    <pointer-type-def type-id='type-id-85' size-in-bits='64' id='type-id-385'/>
    <qualified-type-def type-id='type-id-95' const='yes' id='type-id-386'/>
    <pointer-type-def type-id='type-id-386' size-in-bits='64' id='type-id-387'/>
    <qualified-type-def type-id='type-id-29' const='yes' id='type-id-388'/>
    <qualified-type-def type-id='type-id-389' id='type-id-390'/>
    <reference-type-def kind='lvalue' type-id='type-id-388' size-in-bits='64' id='type-id-389'/>
    <qualified-type-def type-id='type-id-104' const='yes' id='type-id-391'/>
    <qualified-type-def type-id='type-id-26' const='yes' id='type-id-392'/>
    <qualified-type-def type-id='type-id-33' const='yes' id='type-id-393'/>
    <qualified-type-def type-id='type-id-34' const='yes' id='type-id-394'/>
    <qualified-type-def type-id='type-id-81' const='yes' id='type-id-395'/>
    <pointer-type-def type-id='type-id-395' size-in-bits='64' id='type-id-396'/>
    <qualified-type-def type-id='type-id-397' const='yes' id='type-id-398'/>
    <pointer-type-def type-id='type-id-398' size-in-bits='64' id='type-id-399'/>
    <qualified-type-def type-id='type-id-400' const='yes' id='type-id-401'/>
    <pointer-type-def type-id='type-id-401' size-in-bits='64' id='type-id-402'/>
    <qualified-type-def type-id='type-id-403' const='yes' id='type-id-404'/>
    <reference-type-def kind='lvalue' type-id='type-id-404' size-in-bits='64' id='type-id-405'/>
    <qualified-type-def type-id='type-id-406' const='yes' id='type-id-407'/>
    <reference-type-def kind='lvalue' type-id='type-id-407' size-in-bits='64' id='type-id-408'/>
    <qualified-type-def type-id='type-id-409' const='yes' id='type-id-410'/>
    <reference-type-def kind='lvalue' type-id='type-id-410' size-in-bits='64' id='type-id-411'/>
    <qualified-type-def type-id='type-id-412' const='yes' id='type-id-413'/>
    <reference-type-def kind='lvalue' type-id='type-id-413' size-in-bits='64' id='type-id-414'/>
    <qualified-type-def type-id='type-id-415' const='yes' id='type-id-416'/>
    <reference-type-def kind='lvalue' type-id='type-id-416' size-in-bits='64' id='type-id-417'/>
    <pointer-type-def type-id='type-id-416' size-in-bits='64' id='type-id-418'/>
    <qualified-type-def type-id='type-id-419' const='yes' id='type-id-420'/>
    <qualified-type-def type-id='type-id-421' id='type-id-422'/>
    <reference-type-def kind='lvalue' type-id='type-id-420' size-in-bits='64' id='type-id-421'/>
    <pointer-type-def type-id='type-id-420' size-in-bits='64' id='type-id-423'/>
    <qualified-type-def type-id='type-id-423' const='yes' id='type-id-424'/>
    <qualified-type-def type-id='type-id-425' const='yes' id='type-id-426'/>
    <reference-type-def kind='lvalue' type-id='type-id-426' size-in-bits='64' id='type-id-427'/>
    <qualified-type-def type-id='type-id-428' const='yes' id='type-id-429'/>
    <reference-type-def kind='lvalue' type-id='type-id-429' size-in-bits='64' id='type-id-430'/>
    <pointer-type-def type-id='type-id-429' size-in-bits='64' id='type-id-431'/>
    <qualified-type-def type-id='type-id-432' const='yes' id='type-id-433'/>
    <reference-type-def kind='lvalue' type-id='type-id-433' size-in-bits='64' id='type-id-434'/>
    <pointer-type-def type-id='type-id-433' size-in-bits='64' id='type-id-435'/>
    <qualified-type-def type-id='type-id-436' const='yes' id='type-id-437'/>
    <reference-type-def kind='lvalue' type-id='type-id-437' size-in-bits='64' id='type-id-438'/>
    <qualified-type-def type-id='type-id-439' const='yes' id='type-id-440'/>
    <reference-type-def kind='lvalue' type-id='type-id-440' size-in-bits='64' id='type-id-441'/>
    <qualified-type-def type-id='type-id-442' const='yes' id='type-id-443'/>
    <reference-type-def kind='lvalue' type-id='type-id-443' size-in-bits='64' id='type-id-444'/>
    <pointer-type-def type-id='type-id-443' size-in-bits='64' id='type-id-445'/>
    <qualified-type-def type-id='type-id-446' const='yes' id='type-id-447'/>
    <reference-type-def kind='lvalue' type-id='type-id-447' size-in-bits='64' id='type-id-448'/>
    <qualified-type-def type-id='type-id-449' const='yes' id='type-id-450'/>
    <reference-type-def kind='lvalue' type-id='type-id-450' size-in-bits='64' id='type-id-451'/>
    <pointer-type-def type-id='type-id-450' size-in-bits='64' id='type-id-452'/>
    <qualified-type-def type-id='type-id-453' const='yes' id='type-id-454'/>
    <reference-type-def kind='lvalue' type-id='type-id-454' size-in-bits='64' id='type-id-455'/>
    <pointer-type-def type-id='type-id-454' size-in-bits='64' id='type-id-456'/>
    <qualified-type-def type-id='type-id-456' const='yes' id='type-id-457'/>
    <qualified-type-def type-id='type-id-458' const='yes' id='type-id-459'/>
    <pointer-type-def type-id='type-id-459' size-in-bits='64' id='type-id-460'/>
    <qualified-type-def type-id='type-id-461' const='yes' id='type-id-462'/>
    <pointer-type-def type-id='type-id-462' size-in-bits='64' id='type-id-463'/>
    <qualified-type-def type-id='type-id-463' const='yes' id='type-id-464'/>
    <qualified-type-def type-id='type-id-465' const='yes' id='type-id-466'/>
    <reference-type-def kind='lvalue' type-id='type-id-466' size-in-bits='64' id='type-id-467'/>
    <qualified-type-def type-id='type-id-468' const='yes' id='type-id-469'/>
    <pointer-type-def type-id='type-id-469' size-in-bits='64' id='type-id-470'/>
    <qualified-type-def type-id='type-id-471' const='yes' id='type-id-472'/>
    <reference-type-def kind='lvalue' type-id='type-id-472' size-in-bits='64' id='type-id-473'/>
    <pointer-type-def type-id='type-id-472' size-in-bits='64' id='type-id-474'/>
    <qualified-type-def type-id='type-id-475' const='yes' id='type-id-476'/>
    <qualified-type-def type-id='type-id-477' const='yes' id='type-id-478'/>
    <reference-type-def kind='lvalue' type-id='type-id-478' size-in-bits='64' id='type-id-479'/>
    <pointer-type-def type-id='type-id-478' size-in-bits='64' id='type-id-480'/>
    <qualified-type-def type-id='type-id-481' const='yes' id='type-id-482'/>
    <pointer-type-def type-id='type-id-482' size-in-bits='64' id='type-id-483'/>
    <qualified-type-def type-id='type-id-484' const='yes' id='type-id-485'/>
    <pointer-type-def type-id='type-id-485' size-in-bits='64' id='type-id-486'/>
    <qualified-type-def type-id='type-id-487' const='yes' id='type-id-488'/>
    <pointer-type-def type-id='type-id-488' size-in-bits='64' id='type-id-489'/>
    <qualified-type-def type-id='type-id-490' const='yes' id='type-id-491'/>
    <reference-type-def kind='lvalue' type-id='type-id-491' size-in-bits='64' id='type-id-492'/>
    <pointer-type-def type-id='type-id-491' size-in-bits='64' id='type-id-493'/>
    <qualified-type-def type-id='type-id-494' const='yes' id='type-id-495'/>
    <reference-type-def kind='lvalue' type-id='type-id-495' size-in-bits='64' id='type-id-496'/>
    <qualified-type-def type-id='type-id-497' const='yes' id='type-id-498'/>
    <reference-type-def kind='lvalue' type-id='type-id-498' size-in-bits='64' id='type-id-499'/>
    <qualified-type-def type-id='type-id-500' const='yes' id='type-id-501'/>
    <qualified-type-def type-id='type-id-502' id='type-id-503'/>
    <reference-type-def kind='lvalue' type-id='type-id-501' size-in-bits='64' id='type-id-502'/>
    <qualified-type-def type-id='type-id-504' const='yes' id='type-id-505'/>
    <qualified-type-def type-id='type-id-506' id='type-id-507'/>
    <reference-type-def kind='lvalue' type-id='type-id-505' size-in-bits='64' id='type-id-506'/>
    <pointer-type-def type-id='type-id-505' size-in-bits='64' id='type-id-508'/>
    <qualified-type-def type-id='type-id-509' const='yes' id='type-id-510'/>
    <qualified-type-def type-id='type-id-511' id='type-id-512'/>
    <reference-type-def kind='lvalue' type-id='type-id-510' size-in-bits='64' id='type-id-511'/>
    <pointer-type-def type-id='type-id-510' size-in-bits='64' id='type-id-513'/>
    <qualified-type-def type-id='type-id-513' const='yes' id='type-id-514'/>
    <qualified-type-def type-id='type-id-515' const='yes' id='type-id-516'/>
    <reference-type-def kind='lvalue' type-id='type-id-516' size-in-bits='64' id='type-id-517'/>
    <qualified-type-def type-id='type-id-518' const='yes' id='type-id-519'/>
    <reference-type-def kind='lvalue' type-id='type-id-519' size-in-bits='64' id='type-id-520'/>
    <qualified-type-def type-id='type-id-521' const='yes' id='type-id-522'/>
    <reference-type-def kind='lvalue' type-id='type-id-522' size-in-bits='64' id='type-id-523'/>
    <qualified-type-def type-id='type-id-524' const='yes' id='type-id-525'/>
    <reference-type-def kind='lvalue' type-id='type-id-525' size-in-bits='64' id='type-id-526'/>
    <pointer-type-def type-id='type-id-525' size-in-bits='64' id='type-id-527'/>
    <qualified-type-def type-id='type-id-528' const='yes' id='type-id-529'/>
    <reference-type-def kind='lvalue' type-id='type-id-529' size-in-bits='64' id='type-id-530'/>
    <pointer-type-def type-id='type-id-529' size-in-bits='64' id='type-id-531'/>
    <qualified-type-def type-id='type-id-532' const='yes' id='type-id-533'/>
    <pointer-type-def type-id='type-id-533' size-in-bits='64' id='type-id-534'/>
    <qualified-type-def type-id='type-id-535' const='yes' id='type-id-536'/>
    <reference-type-def kind='lvalue' type-id='type-id-536' size-in-bits='64' id='type-id-537'/>
    <qualified-type-def type-id='type-id-538' const='yes' id='type-id-539'/>
    <reference-type-def kind='lvalue' type-id='type-id-539' size-in-bits='64' id='type-id-540'/>
    <pointer-type-def type-id='type-id-539' size-in-bits='64' id='type-id-541'/>
    <qualified-type-def type-id='type-id-542' const='yes' id='type-id-543'/>
    <pointer-type-def type-id='type-id-543' size-in-bits='64' id='type-id-544'/>
    <qualified-type-def type-id='type-id-545' const='yes' id='type-id-546'/>
    <reference-type-def kind='lvalue' type-id='type-id-546' size-in-bits='64' id='type-id-547'/>
    <pointer-type-def type-id='type-id-546' size-in-bits='64' id='type-id-548'/>
    <qualified-type-def type-id='type-id-548' const='yes' id='type-id-549'/>
    <qualified-type-def type-id='type-id-550' const='yes' id='type-id-551'/>
    <reference-type-def kind='lvalue' type-id='type-id-551' size-in-bits='64' id='type-id-552'/>
    <pointer-type-def type-id='type-id-551' size-in-bits='64' id='type-id-553'/>
    <qualified-type-def type-id='type-id-553' const='yes' id='type-id-554'/>
    <qualified-type-def type-id='type-id-555' const='yes' id='type-id-556'/>
    <reference-type-def kind='lvalue' type-id='type-id-556' size-in-bits='64' id='type-id-557'/>
    <pointer-type-def type-id='type-id-556' size-in-bits='64' id='type-id-558'/>
    <qualified-type-def type-id='type-id-558' const='yes' id='type-id-559'/>
    <qualified-type-def type-id='type-id-560' const='yes' id='type-id-561'/>
    <reference-type-def kind='lvalue' type-id='type-id-561' size-in-bits='64' id='type-id-562'/>
    <pointer-type-def type-id='type-id-561' size-in-bits='64' id='type-id-563'/>
    <qualified-type-def type-id='type-id-564' const='yes' id='type-id-565'/>
    <reference-type-def kind='lvalue' type-id='type-id-565' size-in-bits='64' id='type-id-566'/>
    <qualified-type-def type-id='type-id-567' const='yes' id='type-id-568'/>
    <reference-type-def kind='lvalue' type-id='type-id-568' size-in-bits='64' id='type-id-569'/>
    <pointer-type-def type-id='type-id-568' size-in-bits='64' id='type-id-570'/>
    <qualified-type-def type-id='type-id-570' const='yes' id='type-id-571'/>
    <qualified-type-def type-id='type-id-572' const='yes' id='type-id-573'/>
    <reference-type-def kind='lvalue' type-id='type-id-573' size-in-bits='64' id='type-id-574'/>
    <pointer-type-def type-id='type-id-573' size-in-bits='64' id='type-id-575'/>
    <qualified-type-def type-id='type-id-576' const='yes' id='type-id-577'/>
    <reference-type-def kind='lvalue' type-id='type-id-577' size-in-bits='64' id='type-id-578'/>
    <pointer-type-def type-id='type-id-577' size-in-bits='64' id='type-id-579'/>
    <qualified-type-def type-id='type-id-580' const='yes' id='type-id-581'/>
    <pointer-type-def type-id='type-id-581' size-in-bits='64' id='type-id-582'/>
    <qualified-type-def type-id='type-id-583' const='yes' id='type-id-584'/>
    <reference-type-def kind='lvalue' type-id='type-id-584' size-in-bits='64' id='type-id-585'/>
    <pointer-type-def type-id='type-id-584' size-in-bits='64' id='type-id-586'/>
    <qualified-type-def type-id='type-id-587' const='yes' id='type-id-588'/>
    <reference-type-def kind='lvalue' type-id='type-id-588' size-in-bits='64' id='type-id-589'/>
    <pointer-type-def type-id='type-id-588' size-in-bits='64' id='type-id-590'/>
    <qualified-type-def type-id='type-id-591' const='yes' id='type-id-592'/>
    <reference-type-def kind='lvalue' type-id='type-id-592' size-in-bits='64' id='type-id-593'/>
    <qualified-type-def type-id='type-id-594' const='yes' id='type-id-595'/>
    <reference-type-def kind='lvalue' type-id='type-id-595' size-in-bits='64' id='type-id-596'/>
    <qualified-type-def type-id='type-id-597' const='yes' id='type-id-598'/>
    <pointer-type-def type-id='type-id-598' size-in-bits='64' id='type-id-599'/>
    <qualified-type-def type-id='type-id-600' const='yes' id='type-id-601'/>
    <pointer-type-def type-id='type-id-601' size-in-bits='64' id='type-id-602'/>
    <qualified-type-def type-id='type-id-603' const='yes' id='type-id-604'/>
    <qualified-type-def type-id='type-id-605' id='type-id-606'/>
    <reference-type-def kind='lvalue' type-id='type-id-604' size-in-bits='64' id='type-id-605'/>
    <pointer-type-def type-id='type-id-604' size-in-bits='64' id='type-id-607'/>
    <qualified-type-def type-id='type-id-608' const='yes' id='type-id-609'/>
    <reference-type-def kind='lvalue' type-id='type-id-609' size-in-bits='64' id='type-id-610'/>
    <qualified-type-def type-id='type-id-611' const='yes' id='type-id-612'/>
    <reference-type-def kind='lvalue' type-id='type-id-612' size-in-bits='64' id='type-id-613'/>
    <pointer-type-def type-id='type-id-612' size-in-bits='64' id='type-id-614'/>
    <qualified-type-def type-id='type-id-615' const='yes' id='type-id-616'/>
    <reference-type-def kind='lvalue' type-id='type-id-616' size-in-bits='64' id='type-id-617'/>
    <pointer-type-def type-id='type-id-616' size-in-bits='64' id='type-id-618'/>
    <qualified-type-def type-id='type-id-619' const='yes' id='type-id-620'/>
    <reference-type-def kind='lvalue' type-id='type-id-620' size-in-bits='64' id='type-id-621'/>
    <pointer-type-def type-id='type-id-620' size-in-bits='64' id='type-id-622'/>
    <qualified-type-def type-id='type-id-622' const='yes' id='type-id-623'/>
    <qualified-type-def type-id='type-id-624' const='yes' id='type-id-625'/>
    <pointer-type-def type-id='type-id-625' size-in-bits='64' id='type-id-626'/>
    <qualified-type-def type-id='type-id-626' const='yes' id='type-id-627'/>
    <qualified-type-def type-id='type-id-628' const='yes' id='type-id-629'/>
    <pointer-type-def type-id='type-id-629' size-in-bits='64' id='type-id-630'/>
    <qualified-type-def type-id='type-id-631' const='yes' id='type-id-632'/>
    <pointer-type-def type-id='type-id-632' size-in-bits='64' id='type-id-633'/>
    <qualified-type-def type-id='type-id-634' const='yes' id='type-id-635'/>
    <pointer-type-def type-id='type-id-635' size-in-bits='64' id='type-id-636'/>
    <qualified-type-def type-id='type-id-637' const='yes' id='type-id-638'/>
    <pointer-type-def type-id='type-id-638' size-in-bits='64' id='type-id-639'/>
    <qualified-type-def type-id='type-id-640' const='yes' id='type-id-641'/>
    <pointer-type-def type-id='type-id-641' size-in-bits='64' id='type-id-642'/>
    <qualified-type-def type-id='type-id-643' const='yes' id='type-id-644'/>
    <pointer-type-def type-id='type-id-644' size-in-bits='64' id='type-id-645'/>
    <qualified-type-def type-id='type-id-646' const='yes' id='type-id-647'/>
    <pointer-type-def type-id='type-id-647' size-in-bits='64' id='type-id-648'/>
    <qualified-type-def type-id='type-id-649' const='yes' id='type-id-650'/>
    <pointer-type-def type-id='type-id-650' size-in-bits='64' id='type-id-651'/>
    <qualified-type-def type-id='type-id-652' const='yes' id='type-id-653'/>
    <pointer-type-def type-id='type-id-653' size-in-bits='64' id='type-id-654'/>
    <qualified-type-def type-id='type-id-655' const='yes' id='type-id-656'/>
    <pointer-type-def type-id='type-id-656' size-in-bits='64' id='type-id-657'/>
    <qualified-type-def type-id='type-id-658' const='yes' id='type-id-659'/>
    <pointer-type-def type-id='type-id-659' size-in-bits='64' id='type-id-660'/>
    <qualified-type-def type-id='type-id-661' const='yes' id='type-id-662'/>
    <pointer-type-def type-id='type-id-662' size-in-bits='64' id='type-id-663'/>
    <qualified-type-def type-id='type-id-664' const='yes' id='type-id-665'/>
    <pointer-type-def type-id='type-id-665' size-in-bits='64' id='type-id-666'/>
    <qualified-type-def type-id='type-id-667' const='yes' id='type-id-668'/>
    <pointer-type-def type-id='type-id-668' size-in-bits='64' id='type-id-669'/>
    <qualified-type-def type-id='type-id-670' const='yes' id='type-id-671'/>
    <pointer-type-def type-id='type-id-671' size-in-bits='64' id='type-id-672'/>
    <qualified-type-def type-id='type-id-673' const='yes' id='type-id-674'/>
    <pointer-type-def type-id='type-id-674' size-in-bits='64' id='type-id-675'/>
    <qualified-type-def type-id='type-id-676' const='yes' id='type-id-677'/>
    <pointer-type-def type-id='type-id-677' size-in-bits='64' id='type-id-678'/>
    <qualified-type-def type-id='type-id-679' const='yes' id='type-id-680'/>
    <pointer-type-def type-id='type-id-680' size-in-bits='64' id='type-id-681'/>
    <qualified-type-def type-id='type-id-682' const='yes' id='type-id-683'/>
    <pointer-type-def type-id='type-id-683' size-in-bits='64' id='type-id-684'/>
    <qualified-type-def type-id='type-id-685' const='yes' id='type-id-686'/>
    <pointer-type-def type-id='type-id-686' size-in-bits='64' id='type-id-687'/>
    <qualified-type-def type-id='type-id-35' const='yes' id='type-id-688'/>
    <qualified-type-def type-id='type-id-36' const='yes' id='type-id-689'/>
    <qualified-type-def type-id='type-id-65' const='yes' id='type-id-690'/>
    <qualified-type-def type-id='type-id-691' const='yes' id='type-id-692'/>
    <qualified-type-def type-id='type-id-693' id='type-id-694'/>
    <reference-type-def kind='lvalue' type-id='type-id-692' size-in-bits='64' id='type-id-693'/>
    <pointer-type-def type-id='type-id-692' size-in-bits='64' id='type-id-695'/>
    <qualified-type-def type-id='type-id-695' const='yes' id='type-id-696'/>
    <qualified-type-def type-id='type-id-697' const='yes' id='type-id-698'/>
    <pointer-type-def type-id='type-id-698' size-in-bits='64' id='type-id-699'/>
    <qualified-type-def type-id='type-id-700' const='yes' id='type-id-701'/>
    <reference-type-def kind='lvalue' type-id='type-id-701' size-in-bits='64' id='type-id-702'/>
    <pointer-type-def type-id='type-id-701' size-in-bits='64' id='type-id-703'/>
    <qualified-type-def type-id='type-id-704' const='yes' id='type-id-705'/>
    <reference-type-def kind='lvalue' type-id='type-id-705' size-in-bits='64' id='type-id-706'/>
    <pointer-type-def type-id='type-id-705' size-in-bits='64' id='type-id-707'/>
    <qualified-type-def type-id='type-id-708' const='yes' id='type-id-709'/>
    <reference-type-def kind='lvalue' type-id='type-id-709' size-in-bits='64' id='type-id-710'/>
    <pointer-type-def type-id='type-id-709' size-in-bits='64' id='type-id-711'/>
    <qualified-type-def type-id='type-id-712' const='yes' id='type-id-713'/>
    <pointer-type-def type-id='type-id-713' size-in-bits='64' id='type-id-714'/>
    <qualified-type-def type-id='type-id-715' const='yes' id='type-id-716'/>
    <reference-type-def kind='lvalue' type-id='type-id-716' size-in-bits='64' id='type-id-717'/>
    <qualified-type-def type-id='type-id-718' const='yes' id='type-id-719'/>
    <reference-type-def kind='lvalue' type-id='type-id-719' size-in-bits='64' id='type-id-720'/>
    <qualified-type-def type-id='type-id-721' const='yes' id='type-id-722'/>
    <pointer-type-def type-id='type-id-722' size-in-bits='64' id='type-id-723'/>
    <qualified-type-def type-id='type-id-724' const='yes' id='type-id-725'/>
    <reference-type-def kind='lvalue' type-id='type-id-725' size-in-bits='64' id='type-id-726'/>
    <pointer-type-def type-id='type-id-725' size-in-bits='64' id='type-id-727'/>
    <qualified-type-def type-id='type-id-728' const='yes' id='type-id-729'/>
    <reference-type-def kind='lvalue' type-id='type-id-729' size-in-bits='64' id='type-id-730'/>
    <qualified-type-def type-id='type-id-731' const='yes' id='type-id-732'/>
    <reference-type-def kind='lvalue' type-id='type-id-732' size-in-bits='64' id='type-id-733'/>
    <qualified-type-def type-id='type-id-734' const='yes' id='type-id-735'/>
    <reference-type-def kind='lvalue' type-id='type-id-735' size-in-bits='64' id='type-id-736'/>
    <qualified-type-def type-id='type-id-737' const='yes' id='type-id-738'/>
    <reference-type-def kind='lvalue' type-id='type-id-738' size-in-bits='64' id='type-id-739'/>
    <qualified-type-def type-id='type-id-740' const='yes' id='type-id-741'/>
    <reference-type-def kind='lvalue' type-id='type-id-741' size-in-bits='64' id='type-id-742'/>
    <qualified-type-def type-id='type-id-743' const='yes' id='type-id-744'/>
    <qualified-type-def type-id='type-id-745' id='type-id-746'/>
    <reference-type-def kind='lvalue' type-id='type-id-744' size-in-bits='64' id='type-id-745'/>
    <qualified-type-def type-id='type-id-747' const='yes' id='type-id-748'/>
    <reference-type-def kind='lvalue' type-id='type-id-748' size-in-bits='64' id='type-id-749'/>
    <qualified-type-def type-id='type-id-750' const='yes' id='type-id-751'/>
    <reference-type-def kind='lvalue' type-id='type-id-751' size-in-bits='64' id='type-id-752'/>
    <qualified-type-def type-id='type-id-753' const='yes' id='type-id-754'/>
    <reference-type-def kind='lvalue' type-id='type-id-754' size-in-bits='64' id='type-id-755'/>
    <qualified-type-def type-id='type-id-756' const='yes' id='type-id-757'/>
    <reference-type-def kind='lvalue' type-id='type-id-757' size-in-bits='64' id='type-id-758'/>
    <qualified-type-def type-id='type-id-759' const='yes' id='type-id-760'/>
    <pointer-type-def type-id='type-id-760' size-in-bits='64' id='type-id-761'/>
    <qualified-type-def type-id='type-id-762' const='yes' id='type-id-763'/>
    <reference-type-def kind='lvalue' type-id='type-id-763' size-in-bits='64' id='type-id-764'/>
    <qualified-type-def type-id='type-id-765' const='yes' id='type-id-766'/>
    <pointer-type-def type-id='type-id-766' size-in-bits='64' id='type-id-767'/>
    <qualified-type-def type-id='type-id-768' const='yes' id='type-id-769'/>
    <reference-type-def kind='lvalue' type-id='type-id-769' size-in-bits='64' id='type-id-770'/>
    <qualified-type-def type-id='type-id-771' const='yes' id='type-id-772'/>
    <reference-type-def kind='lvalue' type-id='type-id-772' size-in-bits='64' id='type-id-773'/>
    <pointer-type-def type-id='type-id-772' size-in-bits='64' id='type-id-774'/>
    <qualified-type-def type-id='type-id-775' const='yes' id='type-id-776'/>
    <reference-type-def kind='lvalue' type-id='type-id-776' size-in-bits='64' id='type-id-777'/>
    <pointer-type-def type-id='type-id-776' size-in-bits='64' id='type-id-778'/>
    <qualified-type-def type-id='type-id-779' const='yes' id='type-id-780'/>
    <reference-type-def kind='lvalue' type-id='type-id-780' size-in-bits='64' id='type-id-781'/>
    <pointer-type-def type-id='type-id-780' size-in-bits='64' id='type-id-782'/>
    <qualified-type-def type-id='type-id-783' const='yes' id='type-id-784'/>
    <reference-type-def kind='lvalue' type-id='type-id-784' size-in-bits='64' id='type-id-785'/>
    <qualified-type-def type-id='type-id-786' const='yes' id='type-id-787'/>
    <reference-type-def kind='lvalue' type-id='type-id-787' size-in-bits='64' id='type-id-788'/>
    <qualified-type-def type-id='type-id-789' const='yes' id='type-id-790'/>
    <reference-type-def kind='lvalue' type-id='type-id-790' size-in-bits='64' id='type-id-791'/>
    <qualified-type-def type-id='type-id-792' const='yes' id='type-id-793'/>
    <reference-type-def kind='lvalue' type-id='type-id-793' size-in-bits='64' id='type-id-794'/>
    <qualified-type-def type-id='type-id-795' const='yes' id='type-id-796'/>
    <reference-type-def kind='lvalue' type-id='type-id-796' size-in-bits='64' id='type-id-797'/>
    <pointer-type-def type-id='type-id-796' size-in-bits='64' id='type-id-798'/>
    <qualified-type-def type-id='type-id-799' const='yes' id='type-id-800'/>
    <reference-type-def kind='lvalue' type-id='type-id-800' size-in-bits='64' id='type-id-801'/>
    <qualified-type-def type-id='type-id-802' const='yes' id='type-id-803'/>
    <reference-type-def kind='lvalue' type-id='type-id-803' size-in-bits='64' id='type-id-804'/>
    <qualified-type-def type-id='type-id-805' const='yes' id='type-id-806'/>
    <reference-type-def kind='lvalue' type-id='type-id-806' size-in-bits='64' id='type-id-807'/>
    <qualified-type-def type-id='type-id-808' const='yes' id='type-id-809'/>
    <reference-type-def kind='lvalue' type-id='type-id-809' size-in-bits='64' id='type-id-810'/>
    <qualified-type-def type-id='type-id-811' const='yes' id='type-id-812'/>
    <reference-type-def kind='lvalue' type-id='type-id-812' size-in-bits='64' id='type-id-813'/>
    <pointer-type-def type-id='type-id-812' size-in-bits='64' id='type-id-814'/>
    <qualified-type-def type-id='type-id-815' const='yes' id='type-id-816'/>
    <reference-type-def kind='lvalue' type-id='type-id-816' size-in-bits='64' id='type-id-817'/>
    <qualified-type-def type-id='type-id-818' const='yes' id='type-id-819'/>
    <reference-type-def kind='lvalue' type-id='type-id-819' size-in-bits='64' id='type-id-820'/>
    <qualified-type-def type-id='type-id-821' const='yes' id='type-id-822'/>
    <reference-type-def kind='lvalue' type-id='type-id-822' size-in-bits='64' id='type-id-823'/>
    <qualified-type-def type-id='type-id-824' const='yes' id='type-id-825'/>
    <reference-type-def kind='lvalue' type-id='type-id-825' size-in-bits='64' id='type-id-826'/>
    <qualified-type-def type-id='type-id-827' const='yes' id='type-id-828'/>
    <reference-type-def kind='lvalue' type-id='type-id-828' size-in-bits='64' id='type-id-829'/>
    <pointer-type-def type-id='type-id-828' size-in-bits='64' id='type-id-830'/>
    <qualified-type-def type-id='type-id-831' const='yes' id='type-id-832'/>
    <reference-type-def kind='lvalue' type-id='type-id-832' size-in-bits='64' id='type-id-833'/>
    <qualified-type-def type-id='type-id-834' const='yes' id='type-id-835'/>
    <reference-type-def kind='lvalue' type-id='type-id-835' size-in-bits='64' id='type-id-836'/>
    <qualified-type-def type-id='type-id-837' const='yes' id='type-id-838'/>
    <reference-type-def kind='lvalue' type-id='type-id-838' size-in-bits='64' id='type-id-839'/>
    <qualified-type-def type-id='type-id-840' const='yes' id='type-id-841'/>
    <reference-type-def kind='lvalue' type-id='type-id-841' size-in-bits='64' id='type-id-842'/>
    <qualified-type-def type-id='type-id-843' const='yes' id='type-id-844'/>
    <pointer-type-def type-id='type-id-844' size-in-bits='64' id='type-id-845'/>
    <qualified-type-def type-id='type-id-846' const='yes' id='type-id-847'/>
    <reference-type-def kind='lvalue' type-id='type-id-847' size-in-bits='64' id='type-id-848'/>
    <qualified-type-def type-id='type-id-849' const='yes' id='type-id-850'/>
    <reference-type-def kind='lvalue' type-id='type-id-850' size-in-bits='64' id='type-id-851'/>
    <qualified-type-def type-id='type-id-852' const='yes' id='type-id-853'/>
    <pointer-type-def type-id='type-id-853' size-in-bits='64' id='type-id-854'/>
    <qualified-type-def type-id='type-id-854' const='yes' id='type-id-855'/>
    <qualified-type-def type-id='type-id-856' const='yes' id='type-id-857'/>
    <qualified-type-def type-id='type-id-858' id='type-id-859'/>
    <reference-type-def kind='lvalue' type-id='type-id-857' size-in-bits='64' id='type-id-858'/>
    <qualified-type-def type-id='type-id-860' const='yes' id='type-id-861'/>
    <reference-type-def kind='lvalue' type-id='type-id-861' size-in-bits='64' id='type-id-862'/>
    <pointer-type-def type-id='type-id-861' size-in-bits='64' id='type-id-863'/>
    <qualified-type-def type-id='type-id-864' const='yes' id='type-id-865'/>
    <reference-type-def kind='lvalue' type-id='type-id-865' size-in-bits='64' id='type-id-866'/>
    <pointer-type-def type-id='type-id-865' size-in-bits='64' id='type-id-867'/>
    <qualified-type-def type-id='type-id-868' const='yes' id='type-id-869'/>
    <reference-type-def kind='lvalue' type-id='type-id-869' size-in-bits='64' id='type-id-870'/>
    <pointer-type-def type-id='type-id-869' size-in-bits='64' id='type-id-871'/>
    <qualified-type-def type-id='type-id-872' const='yes' id='type-id-873'/>
    <reference-type-def kind='lvalue' type-id='type-id-873' size-in-bits='64' id='type-id-874'/>
    <pointer-type-def type-id='type-id-873' size-in-bits='64' id='type-id-875'/>
    <qualified-type-def type-id='type-id-876' const='yes' id='type-id-877'/>
    <pointer-type-def type-id='type-id-877' size-in-bits='64' id='type-id-878'/>
    <qualified-type-def type-id='type-id-879' const='yes' id='type-id-880'/>
    <reference-type-def kind='lvalue' type-id='type-id-880' size-in-bits='64' id='type-id-881'/>
    <pointer-type-def type-id='type-id-880' size-in-bits='64' id='type-id-882'/>
    <qualified-type-def type-id='type-id-883' const='yes' id='type-id-884'/>
    <reference-type-def kind='lvalue' type-id='type-id-884' size-in-bits='64' id='type-id-885'/>
    <qualified-type-def type-id='type-id-886' const='yes' id='type-id-887'/>
    <reference-type-def kind='lvalue' type-id='type-id-887' size-in-bits='64' id='type-id-888'/>
    <qualified-type-def type-id='type-id-889' const='yes' id='type-id-890'/>
    <qualified-type-def type-id='type-id-891' id='type-id-892'/>
    <reference-type-def kind='lvalue' type-id='type-id-890' size-in-bits='64' id='type-id-891'/>
    <qualified-type-def type-id='type-id-893' const='yes' id='type-id-894'/>
    <reference-type-def kind='lvalue' type-id='type-id-894' size-in-bits='64' id='type-id-895'/>
    <qualified-type-def type-id='type-id-896' const='yes' id='type-id-897'/>
    <reference-type-def kind='lvalue' type-id='type-id-897' size-in-bits='64' id='type-id-898'/>
    <qualified-type-def type-id='type-id-899' const='yes' id='type-id-900'/>
    <reference-type-def kind='lvalue' type-id='type-id-900' size-in-bits='64' id='type-id-901'/>
    <qualified-type-def type-id='type-id-902' const='yes' id='type-id-903'/>
    <reference-type-def kind='lvalue' type-id='type-id-903' size-in-bits='64' id='type-id-904'/>
    <qualified-type-def type-id='type-id-905' const='yes' id='type-id-906'/>
    <reference-type-def kind='lvalue' type-id='type-id-906' size-in-bits='64' id='type-id-907'/>
    <qualified-type-def type-id='type-id-908' const='yes' id='type-id-909'/>
    <reference-type-def kind='lvalue' type-id='type-id-909' size-in-bits='64' id='type-id-910'/>
    <qualified-type-def type-id='type-id-911' const='yes' id='type-id-912'/>
    <reference-type-def kind='lvalue' type-id='type-id-912' size-in-bits='64' id='type-id-913'/>
    <qualified-type-def type-id='type-id-914' const='yes' id='type-id-915'/>
    <reference-type-def kind='lvalue' type-id='type-id-915' size-in-bits='64' id='type-id-916'/>
    <qualified-type-def type-id='type-id-917' const='yes' id='type-id-918'/>
    <reference-type-def kind='lvalue' type-id='type-id-918' size-in-bits='64' id='type-id-919'/>
    <qualified-type-def type-id='type-id-920' const='yes' id='type-id-921'/>
    <pointer-type-def type-id='type-id-921' size-in-bits='64' id='type-id-922'/>
    <qualified-type-def type-id='type-id-923' const='yes' id='type-id-924'/>
    <reference-type-def kind='lvalue' type-id='type-id-924' size-in-bits='64' id='type-id-925'/>
    <qualified-type-def type-id='type-id-926' const='yes' id='type-id-927'/>
    <reference-type-def kind='lvalue' type-id='type-id-927' size-in-bits='64' id='type-id-928'/>
    <qualified-type-def type-id='type-id-929' const='yes' id='type-id-930'/>
    <pointer-type-def type-id='type-id-930' size-in-bits='64' id='type-id-931'/>
    <qualified-type-def type-id='type-id-932' const='yes' id='type-id-933'/>
    <reference-type-def kind='lvalue' type-id='type-id-933' size-in-bits='64' id='type-id-934'/>
    <qualified-type-def type-id='type-id-935' const='yes' id='type-id-936'/>
    <reference-type-def kind='lvalue' type-id='type-id-936' size-in-bits='64' id='type-id-937'/>
    <qualified-type-def type-id='type-id-938' const='yes' id='type-id-939'/>
    <pointer-type-def type-id='type-id-939' size-in-bits='64' id='type-id-940'/>
    <qualified-type-def type-id='type-id-941' const='yes' id='type-id-942'/>
    <reference-type-def kind='lvalue' type-id='type-id-942' size-in-bits='64' id='type-id-943'/>
    <qualified-type-def type-id='type-id-944' const='yes' id='type-id-945'/>
    <reference-type-def kind='lvalue' type-id='type-id-945' size-in-bits='64' id='type-id-946'/>
    <qualified-type-def type-id='type-id-947' const='yes' id='type-id-948'/>
    <pointer-type-def type-id='type-id-948' size-in-bits='64' id='type-id-949'/>
    <qualified-type-def type-id='type-id-950' const='yes' id='type-id-951'/>
    <reference-type-def kind='lvalue' type-id='type-id-951' size-in-bits='64' id='type-id-952'/>
    <qualified-type-def type-id='type-id-953' const='yes' id='type-id-954'/>
    <reference-type-def kind='lvalue' type-id='type-id-954' size-in-bits='64' id='type-id-955'/>
    <qualified-type-def type-id='type-id-956' const='yes' id='type-id-957'/>
    <pointer-type-def type-id='type-id-957' size-in-bits='64' id='type-id-958'/>
    <qualified-type-def type-id='type-id-959' const='yes' id='type-id-960'/>
    <reference-type-def kind='lvalue' type-id='type-id-960' size-in-bits='64' id='type-id-961'/>
    <qualified-type-def type-id='type-id-962' const='yes' id='type-id-963'/>
    <reference-type-def kind='lvalue' type-id='type-id-963' size-in-bits='64' id='type-id-964'/>
    <qualified-type-def type-id='type-id-965' const='yes' id='type-id-966'/>
    <pointer-type-def type-id='type-id-966' size-in-bits='64' id='type-id-967'/>
    <qualified-type-def type-id='type-id-967' const='yes' id='type-id-968'/>
    <qualified-type-def type-id='type-id-969' const='yes' id='type-id-970'/>
    <reference-type-def kind='lvalue' type-id='type-id-970' size-in-bits='64' id='type-id-971'/>
    <qualified-type-def type-id='type-id-972' const='yes' id='type-id-973'/>
    <reference-type-def kind='lvalue' type-id='type-id-973' size-in-bits='64' id='type-id-974'/>
    <qualified-type-def type-id='type-id-975' const='yes' id='type-id-976'/>
    <pointer-type-def type-id='type-id-976' size-in-bits='64' id='type-id-977'/>
    <qualified-type-def type-id='type-id-978' const='yes' id='type-id-979'/>
    <reference-type-def kind='lvalue' type-id='type-id-979' size-in-bits='64' id='type-id-980'/>
    <qualified-type-def type-id='type-id-981' const='yes' id='type-id-982'/>
    <reference-type-def kind='lvalue' type-id='type-id-982' size-in-bits='64' id='type-id-983'/>
    <qualified-type-def type-id='type-id-984' const='yes' id='type-id-985'/>
    <reference-type-def kind='lvalue' type-id='type-id-985' size-in-bits='64' id='type-id-986'/>
    <pointer-type-def type-id='type-id-985' size-in-bits='64' id='type-id-987'/>
    <qualified-type-def type-id='type-id-988' const='yes' id='type-id-989'/>
    <reference-type-def kind='lvalue' type-id='type-id-989' size-in-bits='64' id='type-id-990'/>
    <qualified-type-def type-id='type-id-991' const='yes' id='type-id-992'/>
    <pointer-type-def type-id='type-id-992' size-in-bits='64' id='type-id-993'/>
    <qualified-type-def type-id='type-id-994' const='yes' id='type-id-995'/>
    <reference-type-def kind='lvalue' type-id='type-id-995' size-in-bits='64' id='type-id-996'/>
    <qualified-type-def type-id='type-id-997' const='yes' id='type-id-998'/>
    <pointer-type-def type-id='type-id-998' size-in-bits='64' id='type-id-999'/>
    <qualified-type-def type-id='type-id-1000' const='yes' id='type-id-1001'/>
    <pointer-type-def type-id='type-id-1001' size-in-bits='64' id='type-id-1002'/>
    <qualified-type-def type-id='type-id-1003' const='yes' id='type-id-1004'/>
    <reference-type-def kind='lvalue' type-id='type-id-1004' size-in-bits='64' id='type-id-1005'/>
    <pointer-type-def type-id='type-id-1004' size-in-bits='64' id='type-id-1006'/>
    <qualified-type-def type-id='type-id-1007' const='yes' id='type-id-1008'/>
    <pointer-type-def type-id='type-id-1008' size-in-bits='64' id='type-id-1009'/>
    <qualified-type-def type-id='type-id-1010' const='yes' id='type-id-1011'/>
    <reference-type-def kind='lvalue' type-id='type-id-1011' size-in-bits='64' id='type-id-1012'/>
    <pointer-type-def type-id='type-id-1011' size-in-bits='64' id='type-id-1013'/>
    <qualified-type-def type-id='type-id-1014' const='yes' id='type-id-1015'/>
    <reference-type-def kind='lvalue' type-id='type-id-1015' size-in-bits='64' id='type-id-1016'/>
    <qualified-type-def type-id='type-id-1017' const='yes' id='type-id-1018'/>
    <pointer-type-def type-id='type-id-1018' size-in-bits='64' id='type-id-1019'/>
    <qualified-type-def type-id='type-id-1020' const='yes' id='type-id-1021'/>
    <reference-type-def kind='lvalue' type-id='type-id-1021' size-in-bits='64' id='type-id-1022'/>
    <qualified-type-def type-id='type-id-1023' const='yes' id='type-id-1024'/>
    <reference-type-def kind='lvalue' type-id='type-id-1024' size-in-bits='64' id='type-id-1025'/>
    <qualified-type-def type-id='type-id-1026' const='yes' id='type-id-1027'/>
    <reference-type-def kind='lvalue' type-id='type-id-1027' size-in-bits='64' id='type-id-1028'/>
    <qualified-type-def type-id='type-id-1029' const='yes' id='type-id-1030'/>
    <reference-type-def kind='lvalue' type-id='type-id-1030' size-in-bits='64' id='type-id-1031'/>
    <qualified-type-def type-id='type-id-1032' const='yes' id='type-id-1033'/>
    <reference-type-def kind='lvalue' type-id='type-id-1033' size-in-bits='64' id='type-id-1034'/>
    <qualified-type-def type-id='type-id-1035' const='yes' id='type-id-1036'/>
    <reference-type-def kind='lvalue' type-id='type-id-1036' size-in-bits='64' id='type-id-1037'/>
    <qualified-type-def type-id='type-id-1038' const='yes' id='type-id-1039'/>
    <pointer-type-def type-id='type-id-1039' size-in-bits='64' id='type-id-1040'/>
    <qualified-type-def type-id='type-id-1041' const='yes' id='type-id-1042'/>
    <reference-type-def kind='lvalue' type-id='type-id-1042' size-in-bits='64' id='type-id-1043'/>
    <qualified-type-def type-id='type-id-1044' const='yes' id='type-id-1045'/>
    <reference-type-def kind='lvalue' type-id='type-id-1045' size-in-bits='64' id='type-id-1046'/>
    <qualified-type-def type-id='type-id-1047' const='yes' id='type-id-1048'/>
    <reference-type-def kind='lvalue' type-id='type-id-1048' size-in-bits='64' id='type-id-1049'/>
    <pointer-type-def type-id='type-id-1048' size-in-bits='64' id='type-id-1050'/>
    <qualified-type-def type-id='type-id-1051' const='yes' id='type-id-1052'/>
    <reference-type-def kind='lvalue' type-id='type-id-1052' size-in-bits='64' id='type-id-1053'/>
    <pointer-type-def type-id='type-id-1052' size-in-bits='64' id='type-id-1054'/>
    <qualified-type-def type-id='type-id-1055' const='yes' id='type-id-1056'/>
    <pointer-type-def type-id='type-id-1056' size-in-bits='64' id='type-id-1057'/>
    <qualified-type-def type-id='type-id-1058' const='yes' id='type-id-1059'/>
    <reference-type-def kind='lvalue' type-id='type-id-1059' size-in-bits='64' id='type-id-1060'/>
    <qualified-type-def type-id='type-id-1061' const='yes' id='type-id-1062'/>
    <reference-type-def kind='lvalue' type-id='type-id-1062' size-in-bits='64' id='type-id-1063'/>
    <pointer-type-def type-id='type-id-1062' size-in-bits='64' id='type-id-1064'/>
    <qualified-type-def type-id='type-id-1065' const='yes' id='type-id-1066'/>
    <reference-type-def kind='lvalue' type-id='type-id-1066' size-in-bits='64' id='type-id-1067'/>
    <pointer-type-def type-id='type-id-1066' size-in-bits='64' id='type-id-1068'/>
    <qualified-type-def type-id='type-id-1069' const='yes' id='type-id-1070'/>
    <reference-type-def kind='lvalue' type-id='type-id-1070' size-in-bits='64' id='type-id-1071'/>
    <qualified-type-def type-id='type-id-1072' const='yes' id='type-id-1073'/>
    <reference-type-def kind='lvalue' type-id='type-id-1073' size-in-bits='64' id='type-id-1074'/>
    <qualified-type-def type-id='type-id-1075' const='yes' id='type-id-1076'/>
    <reference-type-def kind='lvalue' type-id='type-id-1076' size-in-bits='64' id='type-id-1077'/>
    <qualified-type-def type-id='type-id-1078' const='yes' id='type-id-1079'/>
    <reference-type-def kind='lvalue' type-id='type-id-1079' size-in-bits='64' id='type-id-1080'/>
    <qualified-type-def type-id='type-id-1081' const='yes' id='type-id-1082'/>
    <reference-type-def kind='lvalue' type-id='type-id-1082' size-in-bits='64' id='type-id-1083'/>
    <qualified-type-def type-id='type-id-1084' const='yes' id='type-id-1085'/>
    <reference-type-def kind='lvalue' type-id='type-id-1085' size-in-bits='64' id='type-id-1086'/>
    <qualified-type-def type-id='type-id-1087' const='yes' id='type-id-1088'/>
    <reference-type-def kind='lvalue' type-id='type-id-1088' size-in-bits='64' id='type-id-1089'/>
    <qualified-type-def type-id='type-id-1090' const='yes' id='type-id-1091'/>
    <reference-type-def kind='lvalue' type-id='type-id-1091' size-in-bits='64' id='type-id-1092'/>
    <qualified-type-def type-id='type-id-1093' const='yes' id='type-id-1094'/>
    <reference-type-def kind='lvalue' type-id='type-id-1094' size-in-bits='64' id='type-id-1095'/>
    <qualified-type-def type-id='type-id-1096' const='yes' id='type-id-1097'/>
    <reference-type-def kind='lvalue' type-id='type-id-1097' size-in-bits='64' id='type-id-1098'/>
    <qualified-type-def type-id='type-id-1099' const='yes' id='type-id-1100'/>
    <reference-type-def kind='lvalue' type-id='type-id-1100' size-in-bits='64' id='type-id-1101'/>
    <qualified-type-def type-id='type-id-1102' const='yes' id='type-id-1103'/>
    <reference-type-def kind='lvalue' type-id='type-id-1103' size-in-bits='64' id='type-id-1104'/>
    <qualified-type-def type-id='type-id-1105' const='yes' id='type-id-1106'/>
    <reference-type-def kind='lvalue' type-id='type-id-1106' size-in-bits='64' id='type-id-1107'/>
    <qualified-type-def type-id='type-id-1108' const='yes' id='type-id-1109'/>
    <reference-type-def kind='lvalue' type-id='type-id-1109' size-in-bits='64' id='type-id-1110'/>
    <qualified-type-def type-id='type-id-1111' const='yes' id='type-id-1112'/>
    <reference-type-def kind='lvalue' type-id='type-id-1112' size-in-bits='64' id='type-id-1113'/>
    <qualified-type-def type-id='type-id-1114' const='yes' id='type-id-1115'/>
    <reference-type-def kind='lvalue' type-id='type-id-1115' size-in-bits='64' id='type-id-1116'/>
    <qualified-type-def type-id='type-id-1117' const='yes' id='type-id-1118'/>
    <reference-type-def kind='lvalue' type-id='type-id-1118' size-in-bits='64' id='type-id-1119'/>
    <qualified-type-def type-id='type-id-1120' const='yes' id='type-id-1121'/>
    <reference-type-def kind='lvalue' type-id='type-id-1121' size-in-bits='64' id='type-id-1122'/>
    <qualified-type-def type-id='type-id-1123' const='yes' id='type-id-1124'/>
    <reference-type-def kind='lvalue' type-id='type-id-1124' size-in-bits='64' id='type-id-1125'/>
    <qualified-type-def type-id='type-id-1126' const='yes' id='type-id-1127'/>
    <qualified-type-def type-id='type-id-1128' id='type-id-1129'/>
    <reference-type-def kind='lvalue' type-id='type-id-1127' size-in-bits='64' id='type-id-1128'/>
    <qualified-type-def type-id='type-id-1130' const='yes' id='type-id-1131'/>
    <reference-type-def kind='lvalue' type-id='type-id-1131' size-in-bits='64' id='type-id-1132'/>
    <qualified-type-def type-id='type-id-1133' const='yes' id='type-id-1134'/>
    <reference-type-def kind='lvalue' type-id='type-id-1134' size-in-bits='64' id='type-id-1135'/>
    <qualified-type-def type-id='type-id-1136' const='yes' id='type-id-1137'/>
    <reference-type-def kind='lvalue' type-id='type-id-1137' size-in-bits='64' id='type-id-1138'/>
    <qualified-type-def type-id='type-id-1139' const='yes' id='type-id-1140'/>
    <reference-type-def kind='lvalue' type-id='type-id-1140' size-in-bits='64' id='type-id-1141'/>
    <qualified-type-def type-id='type-id-1142' const='yes' id='type-id-1143'/>
    <reference-type-def kind='lvalue' type-id='type-id-1143' size-in-bits='64' id='type-id-1144'/>
    <qualified-type-def type-id='type-id-1145' const='yes' id='type-id-1146'/>
    <reference-type-def kind='lvalue' type-id='type-id-1146' size-in-bits='64' id='type-id-1147'/>
    <qualified-type-def type-id='type-id-37' const='yes' id='type-id-1148'/>
    <qualified-type-def type-id='type-id-1149' id='type-id-1150'/>
    <reference-type-def kind='lvalue' type-id='type-id-1148' size-in-bits='64' id='type-id-1149'/>
    <pointer-type-def type-id='type-id-1148' size-in-bits='64' id='type-id-1151'/>
    <qualified-type-def type-id='type-id-1151' const='yes' id='type-id-1152'/>
    <reference-type-def kind='lvalue' type-id='type-id-1152' size-in-bits='64' id='type-id-1153'/>
    <qualified-type-def type-id='type-id-1154' const='yes' id='type-id-1155'/>
    <pointer-type-def type-id='type-id-1155' size-in-bits='64' id='type-id-1156'/>
    <qualified-type-def type-id='type-id-1157' const='yes' id='type-id-1158'/>
    <qualified-type-def type-id='type-id-1159' const='yes' id='type-id-1160'/>
    <reference-type-def kind='lvalue' type-id='type-id-1160' size-in-bits='64' id='type-id-1161'/>
    <qualified-type-def type-id='type-id-1162' const='yes' id='type-id-1163'/>
    <reference-type-def kind='lvalue' type-id='type-id-1163' size-in-bits='64' id='type-id-1164'/>
    <pointer-type-def type-id='type-id-1163' size-in-bits='64' id='type-id-1165'/>
    <qualified-type-def type-id='type-id-1166' const='yes' id='type-id-1167'/>
    <reference-type-def kind='lvalue' type-id='type-id-1167' size-in-bits='64' id='type-id-1168'/>
    <qualified-type-def type-id='type-id-1169' const='yes' id='type-id-1170'/>
    <reference-type-def kind='lvalue' type-id='type-id-1170' size-in-bits='64' id='type-id-1171'/>
    <pointer-type-def type-id='type-id-1170' size-in-bits='64' id='type-id-1172'/>
    <qualified-type-def type-id='type-id-1173' const='yes' id='type-id-1174'/>
    <reference-type-def kind='lvalue' type-id='type-id-1174' size-in-bits='64' id='type-id-1175'/>
    <qualified-type-def type-id='type-id-1176' const='yes' id='type-id-1177'/>
    <reference-type-def kind='lvalue' type-id='type-id-1177' size-in-bits='64' id='type-id-1178'/>
    <pointer-type-def type-id='type-id-1177' size-in-bits='64' id='type-id-1179'/>
    <qualified-type-def type-id='type-id-1180' const='yes' id='type-id-1181'/>
    <reference-type-def kind='lvalue' type-id='type-id-1181' size-in-bits='64' id='type-id-1182'/>
    <qualified-type-def type-id='type-id-1183' const='yes' id='type-id-1184'/>
    <pointer-type-def type-id='type-id-1184' size-in-bits='64' id='type-id-1185'/>
    <qualified-type-def type-id='type-id-1186' const='yes' id='type-id-1187'/>
    <reference-type-def kind='lvalue' type-id='type-id-1187' size-in-bits='64' id='type-id-1188'/>
    <qualified-type-def type-id='type-id-1189' const='yes' id='type-id-1190'/>
    <reference-type-def kind='lvalue' type-id='type-id-1190' size-in-bits='64' id='type-id-1191'/>
    <pointer-type-def type-id='type-id-1190' size-in-bits='64' id='type-id-1192'/>
    <qualified-type-def type-id='type-id-1192' const='yes' id='type-id-1193'/>
    <qualified-type-def type-id='type-id-1194' const='yes' id='type-id-1195'/>
    <reference-type-def kind='lvalue' type-id='type-id-1195' size-in-bits='64' id='type-id-1196'/>
    <pointer-type-def type-id='type-id-1195' size-in-bits='64' id='type-id-1197'/>
    <qualified-type-def type-id='type-id-1198' const='yes' id='type-id-1199'/>
    <reference-type-def kind='lvalue' type-id='type-id-1199' size-in-bits='64' id='type-id-1200'/>
    <pointer-type-def type-id='type-id-1199' size-in-bits='64' id='type-id-1201'/>
    <qualified-type-def type-id='type-id-1202' const='yes' id='type-id-1203'/>
    <reference-type-def kind='lvalue' type-id='type-id-1203' size-in-bits='64' id='type-id-1204'/>
    <pointer-type-def type-id='type-id-1203' size-in-bits='64' id='type-id-1205'/>
    <qualified-type-def type-id='type-id-1206' const='yes' id='type-id-1207'/>
    <reference-type-def kind='lvalue' type-id='type-id-1207' size-in-bits='64' id='type-id-1208'/>
    <pointer-type-def type-id='type-id-1207' size-in-bits='64' id='type-id-1209'/>
    <qualified-type-def type-id='type-id-1210' const='yes' id='type-id-1211'/>
    <pointer-type-def type-id='type-id-1211' size-in-bits='64' id='type-id-1212'/>
    <qualified-type-def type-id='type-id-1213' const='yes' id='type-id-1214'/>
    <pointer-type-def type-id='type-id-1214' size-in-bits='64' id='type-id-1215'/>
    <qualified-type-def type-id='type-id-1216' const='yes' id='type-id-1217'/>
    <pointer-type-def type-id='type-id-1217' size-in-bits='64' id='type-id-1218'/>
    <qualified-type-def type-id='type-id-1219' const='yes' id='type-id-1220'/>
    <pointer-type-def type-id='type-id-1220' size-in-bits='64' id='type-id-1221'/>
    <qualified-type-def type-id='type-id-1222' const='yes' id='type-id-1223'/>
    <pointer-type-def type-id='type-id-1223' size-in-bits='64' id='type-id-1224'/>
    <qualified-type-def type-id='type-id-1225' const='yes' id='type-id-1226'/>
    <pointer-type-def type-id='type-id-1226' size-in-bits='64' id='type-id-1227'/>
    <qualified-type-def type-id='type-id-1228' const='yes' id='type-id-1229'/>
    <pointer-type-def type-id='type-id-1229' size-in-bits='64' id='type-id-1230'/>
    <qualified-type-def type-id='type-id-1231' const='yes' id='type-id-1232'/>
    <pointer-type-def type-id='type-id-1232' size-in-bits='64' id='type-id-1233'/>
    <qualified-type-def type-id='type-id-1234' const='yes' id='type-id-1235'/>
    <pointer-type-def type-id='type-id-1235' size-in-bits='64' id='type-id-1236'/>
    <qualified-type-def type-id='type-id-1237' const='yes' id='type-id-1238'/>
    <pointer-type-def type-id='type-id-1238' size-in-bits='64' id='type-id-1239'/>
    <qualified-type-def type-id='type-id-1240' const='yes' id='type-id-1241'/>
    <pointer-type-def type-id='type-id-1241' size-in-bits='64' id='type-id-1242'/>
    <qualified-type-def type-id='type-id-1243' const='yes' id='type-id-1244'/>
    <pointer-type-def type-id='type-id-1244' size-in-bits='64' id='type-id-1245'/>
    <qualified-type-def type-id='type-id-1246' const='yes' id='type-id-1247'/>
    <qualified-type-def type-id='type-id-1248' const='yes' id='type-id-1249'/>
    <qualified-type-def type-id='type-id-1250' const='yes' id='type-id-1251'/>
    <qualified-type-def type-id='type-id-1252' const='yes' id='type-id-1253'/>
    <qualified-type-def type-id='type-id-1254' const='yes' id='type-id-1255'/>
    <reference-type-def kind='lvalue' type-id='type-id-1255' size-in-bits='64' id='type-id-1256'/>
    <pointer-type-def type-id='type-id-1255' size-in-bits='64' id='type-id-1257'/>
    <qualified-type-def type-id='type-id-1258' const='yes' id='type-id-1259'/>
    <reference-type-def kind='lvalue' type-id='type-id-1259' size-in-bits='64' id='type-id-1260'/>
    <pointer-type-def type-id='type-id-1259' size-in-bits='64' id='type-id-1261'/>
    <qualified-type-def type-id='type-id-1262' const='yes' id='type-id-1263'/>
    <reference-type-def kind='lvalue' type-id='type-id-1263' size-in-bits='64' id='type-id-1264'/>
    <qualified-type-def type-id='type-id-1265' const='yes' id='type-id-1266'/>
    <reference-type-def kind='lvalue' type-id='type-id-1266' size-in-bits='64' id='type-id-1267'/>
    <qualified-type-def type-id='type-id-1268' const='yes' id='type-id-1269'/>
    <reference-type-def kind='lvalue' type-id='type-id-1269' size-in-bits='64' id='type-id-1270'/>
    <pointer-type-def type-id='type-id-1269' size-in-bits='64' id='type-id-1271'/>
    <qualified-type-def type-id='type-id-1272' const='yes' id='type-id-1273'/>
    <reference-type-def kind='lvalue' type-id='type-id-1273' size-in-bits='64' id='type-id-1274'/>
    <qualified-type-def type-id='type-id-1275' const='yes' id='type-id-1276'/>
    <reference-type-def kind='lvalue' type-id='type-id-1276' size-in-bits='64' id='type-id-1277'/>
    <qualified-type-def type-id='type-id-1278' const='yes' id='type-id-1279'/>
    <reference-type-def kind='lvalue' type-id='type-id-1279' size-in-bits='64' id='type-id-1280'/>
    <pointer-type-def type-id='type-id-1279' size-in-bits='64' id='type-id-1281'/>
    <qualified-type-def type-id='type-id-1282' const='yes' id='type-id-1283'/>
    <reference-type-def kind='lvalue' type-id='type-id-1283' size-in-bits='64' id='type-id-1284'/>
    <qualified-type-def type-id='type-id-1285' const='yes' id='type-id-1286'/>
    <reference-type-def kind='lvalue' type-id='type-id-1286' size-in-bits='64' id='type-id-1287'/>
    <qualified-type-def type-id='type-id-1288' const='yes' id='type-id-1289'/>
    <reference-type-def kind='lvalue' type-id='type-id-1289' size-in-bits='64' id='type-id-1290'/>
    <qualified-type-def type-id='type-id-1291' const='yes' id='type-id-1292'/>
    <reference-type-def kind='lvalue' type-id='type-id-1292' size-in-bits='64' id='type-id-1293'/>
    <qualified-type-def type-id='type-id-1294' const='yes' id='type-id-1295'/>
    <reference-type-def kind='lvalue' type-id='type-id-1295' size-in-bits='64' id='type-id-1296'/>
    <pointer-type-def type-id='type-id-1295' size-in-bits='64' id='type-id-1297'/>
    <qualified-type-def type-id='type-id-1298' const='yes' id='type-id-1299'/>
    <reference-type-def kind='lvalue' type-id='type-id-1299' size-in-bits='64' id='type-id-1300'/>
    <qualified-type-def type-id='type-id-1301' const='yes' id='type-id-1302'/>
    <reference-type-def kind='lvalue' type-id='type-id-1302' size-in-bits='64' id='type-id-1303'/>
    <qualified-type-def type-id='type-id-1304' const='yes' id='type-id-1305'/>
    <reference-type-def kind='lvalue' type-id='type-id-1305' size-in-bits='64' id='type-id-1306'/>
    <qualified-type-def type-id='type-id-1307' const='yes' id='type-id-1308'/>
    <reference-type-def kind='lvalue' type-id='type-id-1308' size-in-bits='64' id='type-id-1309'/>
    <qualified-type-def type-id='type-id-1310' const='yes' id='type-id-1311'/>
    <reference-type-def kind='lvalue' type-id='type-id-1311' size-in-bits='64' id='type-id-1312'/>
    <pointer-type-def type-id='type-id-1311' size-in-bits='64' id='type-id-1313'/>
    <qualified-type-def type-id='type-id-1314' const='yes' id='type-id-1315'/>
    <reference-type-def kind='lvalue' type-id='type-id-1315' size-in-bits='64' id='type-id-1316'/>
    <qualified-type-def type-id='type-id-1317' const='yes' id='type-id-1318'/>
    <reference-type-def kind='lvalue' type-id='type-id-1318' size-in-bits='64' id='type-id-1319'/>
    <qualified-type-def type-id='type-id-1320' const='yes' id='type-id-1321'/>
    <reference-type-def kind='lvalue' type-id='type-id-1321' size-in-bits='64' id='type-id-1322'/>
    <qualified-type-def type-id='type-id-1323' const='yes' id='type-id-1324'/>
    <reference-type-def kind='lvalue' type-id='type-id-1324' size-in-bits='64' id='type-id-1325'/>
    <qualified-type-def type-id='type-id-1326' const='yes' id='type-id-1327'/>
    <qualified-type-def type-id='type-id-1328' const='yes' id='type-id-1329'/>
    <qualified-type-def type-id='type-id-1330' id='type-id-1331'/>
    <reference-type-def kind='lvalue' type-id='type-id-1329' size-in-bits='64' id='type-id-1330'/>
    <pointer-type-def type-id='type-id-1329' size-in-bits='64' id='type-id-1332'/>
    <qualified-type-def type-id='type-id-1332' const='yes' id='type-id-1333'/>
    <qualified-type-def type-id='type-id-1334' const='yes' id='type-id-1335'/>
    <reference-type-def kind='lvalue' type-id='type-id-1335' size-in-bits='64' id='type-id-1336'/>
    <qualified-type-def type-id='type-id-1337' const='yes' id='type-id-1338'/>
    <reference-type-def kind='lvalue' type-id='type-id-1338' size-in-bits='64' id='type-id-1339'/>
    <pointer-type-def type-id='type-id-1338' size-in-bits='64' id='type-id-1340'/>
    <qualified-type-def type-id='type-id-1341' const='yes' id='type-id-1342'/>
    <reference-type-def kind='lvalue' type-id='type-id-1342' size-in-bits='64' id='type-id-1343'/>
    <pointer-type-def type-id='type-id-1342' size-in-bits='64' id='type-id-1344'/>
    <qualified-type-def type-id='type-id-1345' const='yes' id='type-id-1346'/>
    <reference-type-def kind='lvalue' type-id='type-id-1346' size-in-bits='64' id='type-id-1347'/>
    <pointer-type-def type-id='type-id-1346' size-in-bits='64' id='type-id-1348'/>
    <qualified-type-def type-id='type-id-1349' const='yes' id='type-id-1350'/>
    <reference-type-def kind='lvalue' type-id='type-id-1350' size-in-bits='64' id='type-id-1351'/>
    <pointer-type-def type-id='type-id-1350' size-in-bits='64' id='type-id-1352'/>
    <qualified-type-def type-id='type-id-1353' const='yes' id='type-id-1354'/>
    <reference-type-def kind='lvalue' type-id='type-id-1354' size-in-bits='64' id='type-id-1355'/>
    <qualified-type-def type-id='type-id-1356' const='yes' id='type-id-1357'/>
    <reference-type-def kind='lvalue' type-id='type-id-1357' size-in-bits='64' id='type-id-1358'/>
    <pointer-type-def type-id='type-id-1357' size-in-bits='64' id='type-id-1359'/>
    <qualified-type-def type-id='type-id-1360' const='yes' id='type-id-1361'/>
    <reference-type-def kind='lvalue' type-id='type-id-1361' size-in-bits='64' id='type-id-1362'/>
    <pointer-type-def type-id='type-id-1361' size-in-bits='64' id='type-id-1363'/>
    <qualified-type-def type-id='type-id-1364' const='yes' id='type-id-1365'/>
    <reference-type-def kind='lvalue' type-id='type-id-1365' size-in-bits='64' id='type-id-1366'/>
    <pointer-type-def type-id='type-id-1365' size-in-bits='64' id='type-id-1367'/>
    <qualified-type-def type-id='type-id-1368' const='yes' id='type-id-1369'/>
    <reference-type-def kind='lvalue' type-id='type-id-1369' size-in-bits='64' id='type-id-1370'/>
    <qualified-type-def type-id='type-id-1371' const='yes' id='type-id-1372'/>
    <reference-type-def kind='lvalue' type-id='type-id-1372' size-in-bits='64' id='type-id-1373'/>
    <qualified-type-def type-id='type-id-1374' const='yes' id='type-id-1375'/>
    <reference-type-def kind='lvalue' type-id='type-id-1375' size-in-bits='64' id='type-id-1376'/>
    <qualified-type-def type-id='type-id-1377' const='yes' id='type-id-1378'/>
    <reference-type-def kind='lvalue' type-id='type-id-1378' size-in-bits='64' id='type-id-1379'/>
    <pointer-type-def type-id='type-id-1378' size-in-bits='64' id='type-id-1380'/>
    <qualified-type-def type-id='type-id-1381' const='yes' id='type-id-1382'/>
    <qualified-type-def type-id='type-id-1383' const='yes' id='type-id-1384'/>
    <qualified-type-def type-id='type-id-1385' id='type-id-1386'/>
    <reference-type-def kind='lvalue' type-id='type-id-1384' size-in-bits='64' id='type-id-1385'/>
    <qualified-type-def type-id='type-id-1387' const='yes' id='type-id-1388'/>
    <reference-type-def kind='lvalue' type-id='type-id-1388' size-in-bits='64' id='type-id-1389'/>
    <qualified-type-def type-id='type-id-1390' const='yes' id='type-id-1391'/>
    <qualified-type-def type-id='type-id-1392' id='type-id-1393'/>
    <reference-type-def kind='lvalue' type-id='type-id-1391' size-in-bits='64' id='type-id-1392'/>
    <qualified-type-def type-id='type-id-1394' const='yes' id='type-id-1395'/>
    <reference-type-def kind='lvalue' type-id='type-id-1395' size-in-bits='64' id='type-id-1396'/>
    <qualified-type-def type-id='type-id-1397' const='yes' id='type-id-1398'/>
    <reference-type-def kind='lvalue' type-id='type-id-1398' size-in-bits='64' id='type-id-1399'/>
    <pointer-type-def type-id='type-id-1398' size-in-bits='64' id='type-id-1400'/>
    <reference-type-def kind='lvalue' type-id='type-id-1400' size-in-bits='64' id='type-id-1401'/>
    <qualified-type-def type-id='type-id-1402' const='yes' id='type-id-1403'/>
    <reference-type-def kind='lvalue' type-id='type-id-1403' size-in-bits='64' id='type-id-1404'/>
    <pointer-type-def type-id='type-id-1403' size-in-bits='64' id='type-id-1405'/>
    <qualified-type-def type-id='type-id-1406' const='yes' id='type-id-1407'/>
    <reference-type-def kind='lvalue' type-id='type-id-1407' size-in-bits='64' id='type-id-1408'/>
    <qualified-type-def type-id='type-id-1409' const='yes' id='type-id-1410'/>
    <reference-type-def kind='lvalue' type-id='type-id-1410' size-in-bits='64' id='type-id-1411'/>
    <pointer-type-def type-id='type-id-1410' size-in-bits='64' id='type-id-1412'/>
    <qualified-type-def type-id='type-id-1412' const='yes' id='type-id-1413'/>
    <qualified-type-def type-id='type-id-1414' const='yes' id='type-id-1415'/>
    <reference-type-def kind='lvalue' type-id='type-id-1415' size-in-bits='64' id='type-id-1416'/>
    <qualified-type-def type-id='type-id-1417' const='yes' id='type-id-1418'/>
    <reference-type-def kind='lvalue' type-id='type-id-1418' size-in-bits='64' id='type-id-1419'/>
    <pointer-type-def type-id='type-id-1418' size-in-bits='64' id='type-id-1420'/>
    <qualified-type-def type-id='type-id-1421' const='yes' id='type-id-1422'/>
    <reference-type-def kind='lvalue' type-id='type-id-1422' size-in-bits='64' id='type-id-1423'/>
    <qualified-type-def type-id='type-id-1424' const='yes' id='type-id-1425'/>
    <reference-type-def kind='lvalue' type-id='type-id-1425' size-in-bits='64' id='type-id-1426'/>
    <qualified-type-def type-id='type-id-1427' const='yes' id='type-id-1428'/>
    <reference-type-def kind='lvalue' type-id='type-id-1428' size-in-bits='64' id='type-id-1429'/>
    <qualified-type-def type-id='type-id-1430' const='yes' id='type-id-1431'/>
    <reference-type-def kind='lvalue' type-id='type-id-1431' size-in-bits='64' id='type-id-1432'/>
    <qualified-type-def type-id='type-id-1433' const='yes' id='type-id-1434'/>
    <reference-type-def kind='lvalue' type-id='type-id-1434' size-in-bits='64' id='type-id-1435'/>
    <qualified-type-def type-id='type-id-1436' const='yes' id='type-id-1437'/>
    <reference-type-def kind='lvalue' type-id='type-id-1437' size-in-bits='64' id='type-id-1438'/>
    <qualified-type-def type-id='type-id-1439' const='yes' id='type-id-1440'/>
    <reference-type-def kind='lvalue' type-id='type-id-1440' size-in-bits='64' id='type-id-1441'/>
    <pointer-type-def type-id='type-id-1440' size-in-bits='64' id='type-id-1442'/>
    <qualified-type-def type-id='type-id-1443' const='yes' id='type-id-1444'/>
    <reference-type-def kind='lvalue' type-id='type-id-1444' size-in-bits='64' id='type-id-1445'/>
    <qualified-type-def type-id='type-id-1446' const='yes' id='type-id-1447'/>
    <reference-type-def kind='lvalue' type-id='type-id-1447' size-in-bits='64' id='type-id-1448'/>
    <pointer-type-def type-id='type-id-1447' size-in-bits='64' id='type-id-1449'/>
    <qualified-type-def type-id='type-id-1450' const='yes' id='type-id-1451'/>
    <reference-type-def kind='lvalue' type-id='type-id-1451' size-in-bits='64' id='type-id-1452'/>
    <qualified-type-def type-id='type-id-1453' const='yes' id='type-id-1454'/>
    <reference-type-def kind='lvalue' type-id='type-id-1454' size-in-bits='64' id='type-id-1455'/>
    <qualified-type-def type-id='type-id-1456' const='yes' id='type-id-1457'/>
    <reference-type-def kind='lvalue' type-id='type-id-1457' size-in-bits='64' id='type-id-1458'/>
    <pointer-type-def type-id='type-id-1457' size-in-bits='64' id='type-id-1459'/>
    <qualified-type-def type-id='type-id-1460' const='yes' id='type-id-1461'/>
    <reference-type-def kind='lvalue' type-id='type-id-1461' size-in-bits='64' id='type-id-1462'/>
    <qualified-type-def type-id='type-id-1463' const='yes' id='type-id-1464'/>
    <reference-type-def kind='lvalue' type-id='type-id-1464' size-in-bits='64' id='type-id-1465'/>
    <qualified-type-def type-id='type-id-1466' const='yes' id='type-id-1467'/>
    <reference-type-def kind='lvalue' type-id='type-id-1467' size-in-bits='64' id='type-id-1468'/>
    <pointer-type-def type-id='type-id-1467' size-in-bits='64' id='type-id-1469'/>
    <qualified-type-def type-id='type-id-1470' const='yes' id='type-id-1471'/>
    <reference-type-def kind='lvalue' type-id='type-id-1471' size-in-bits='64' id='type-id-1472'/>
    <qualified-type-def type-id='type-id-1473' const='yes' id='type-id-1474'/>
    <reference-type-def kind='lvalue' type-id='type-id-1474' size-in-bits='64' id='type-id-1475'/>
    <qualified-type-def type-id='type-id-1476' const='yes' id='type-id-1477'/>
    <reference-type-def kind='lvalue' type-id='type-id-1477' size-in-bits='64' id='type-id-1478'/>
    <pointer-type-def type-id='type-id-1477' size-in-bits='64' id='type-id-1479'/>
    <qualified-type-def type-id='type-id-1480' const='yes' id='type-id-1481'/>
    <reference-type-def kind='lvalue' type-id='type-id-1481' size-in-bits='64' id='type-id-1482'/>
    <qualified-type-def type-id='type-id-1483' const='yes' id='type-id-1484'/>
    <reference-type-def kind='lvalue' type-id='type-id-1484' size-in-bits='64' id='type-id-1485'/>
    <qualified-type-def type-id='type-id-1486' const='yes' id='type-id-1487'/>
    <reference-type-def kind='lvalue' type-id='type-id-1487' size-in-bits='64' id='type-id-1488'/>
    <pointer-type-def type-id='type-id-1487' size-in-bits='64' id='type-id-1489'/>
    <qualified-type-def type-id='type-id-1490' const='yes' id='type-id-1491'/>
    <reference-type-def kind='lvalue' type-id='type-id-1491' size-in-bits='64' id='type-id-1492'/>
    <qualified-type-def type-id='type-id-1493' const='yes' id='type-id-1494'/>
    <reference-type-def kind='lvalue' type-id='type-id-1494' size-in-bits='64' id='type-id-1495'/>
    <qualified-type-def type-id='type-id-1496' const='yes' id='type-id-1497'/>
    <qualified-type-def type-id='type-id-1498' id='type-id-1499'/>
    <reference-type-def kind='lvalue' type-id='type-id-1497' size-in-bits='64' id='type-id-1498'/>
    <pointer-type-def type-id='type-id-1497' size-in-bits='64' id='type-id-1500'/>
    <qualified-type-def type-id='type-id-1500' const='yes' id='type-id-1501'/>
    <qualified-type-def type-id='type-id-1502' const='yes' id='type-id-1503'/>
    <reference-type-def kind='lvalue' type-id='type-id-1503' size-in-bits='64' id='type-id-1504'/>
    <qualified-type-def type-id='type-id-1505' const='yes' id='type-id-1506'/>
    <qualified-type-def type-id='type-id-1507' const='yes' id='type-id-1508'/>
    <reference-type-def kind='lvalue' type-id='type-id-1508' size-in-bits='64' id='type-id-1509'/>
    <qualified-type-def type-id='type-id-1510' const='yes' id='type-id-1511'/>
    <reference-type-def kind='lvalue' type-id='type-id-1511' size-in-bits='64' id='type-id-1512'/>
    <pointer-type-def type-id='type-id-1511' size-in-bits='64' id='type-id-1513'/>
    <qualified-type-def type-id='type-id-1514' const='yes' id='type-id-1515'/>
    <reference-type-def kind='lvalue' type-id='type-id-1515' size-in-bits='64' id='type-id-1516'/>
    <qualified-type-def type-id='type-id-1517' const='yes' id='type-id-1518'/>
    <reference-type-def kind='lvalue' type-id='type-id-1518' size-in-bits='64' id='type-id-1519'/>
    <qualified-type-def type-id='type-id-1520' const='yes' id='type-id-1521'/>
    <reference-type-def kind='lvalue' type-id='type-id-1521' size-in-bits='64' id='type-id-1522'/>
    <qualified-type-def type-id='type-id-63' const='yes' id='type-id-1523'/>
    <pointer-type-def type-id='type-id-1523' size-in-bits='64' id='type-id-1524'/>
    <qualified-type-def type-id='type-id-84' const='yes' id='type-id-1525'/>
    <pointer-type-def type-id='type-id-1525' size-in-bits='64' id='type-id-1526'/>
    <qualified-type-def type-id='type-id-41' const='yes' id='type-id-1527'/>
    <qualified-type-def type-id='type-id-22' const='yes' id='type-id-1528'/>
    <reference-type-def kind='lvalue' type-id='type-id-1528' size-in-bits='64' id='type-id-1529'/>
    <qualified-type-def type-id='type-id-50' const='yes' id='type-id-1530'/>
    <qualified-type-def type-id='type-id-1531' id='type-id-1532'/>
    <reference-type-def kind='lvalue' type-id='type-id-1530' size-in-bits='64' id='type-id-1531'/>
    <pointer-type-def type-id='type-id-1530' size-in-bits='64' id='type-id-1533'/>
    <qualified-type-def type-id='type-id-55' const='yes' id='type-id-1534'/>
    <qualified-type-def type-id='type-id-1535' const='yes' id='type-id-1536'/>
    <pointer-type-def type-id='type-id-1536' size-in-bits='64' id='type-id-1537'/>
    <qualified-type-def type-id='type-id-58' const='yes' id='type-id-1538'/>
    <pointer-type-def type-id='type-id-1538' size-in-bits='64' id='type-id-1539'/>
    <pointer-type-def type-id='type-id-1539' size-in-bits='64' id='type-id-1540'/>
    <reference-type-def kind='lvalue' type-id='type-id-27' size-in-bits='64' id='type-id-1541'/>
    <pointer-type-def type-id='type-id-27' size-in-bits='64' id='type-id-1542'/>
    <pointer-type-def type-id='type-id-95' size-in-bits='64' id='type-id-1543'/>
    <pointer-type-def type-id='type-id-1544' size-in-bits='64' id='type-id-87'/>
    <reference-type-def kind='lvalue' type-id='type-id-29' size-in-bits='64' id='type-id-1545'/>
    <pointer-type-def type-id='type-id-29' size-in-bits='64' id='type-id-1546'/>
    <pointer-type-def type-id='type-id-86' size-in-bits='64' id='type-id-1547'/>
    <pointer-type-def type-id='type-id-26' size-in-bits='64' id='type-id-1548'/>
    <reference-type-def kind='lvalue' type-id='type-id-33' size-in-bits='64' id='type-id-1549'/>
    <pointer-type-def type-id='type-id-34' size-in-bits='64' id='type-id-1550'/>
    <pointer-type-def type-id='type-id-81' size-in-bits='64' id='type-id-1551'/>
    <pointer-type-def type-id='type-id-397' size-in-bits='64' id='type-id-1552'/>
    <pointer-type-def type-id='type-id-400' size-in-bits='64' id='type-id-1553'/>
    <qualified-type-def type-id='type-id-1553' const='yes' id='type-id-1554'/>
    <pointer-type-def type-id='type-id-1555' size-in-bits='64' id='type-id-1556'/>
    <pointer-type-def type-id='type-id-403' size-in-bits='64' id='type-id-1557'/>
    <pointer-type-def type-id='type-id-406' size-in-bits='64' id='type-id-1558'/>
    <pointer-type-def type-id='type-id-409' size-in-bits='64' id='type-id-1559'/>
    <pointer-type-def type-id='type-id-412' size-in-bits='64' id='type-id-1560'/>
    <reference-type-def kind='lvalue' type-id='type-id-415' size-in-bits='64' id='type-id-1561'/>
    <pointer-type-def type-id='type-id-415' size-in-bits='64' id='type-id-1562'/>
    <reference-type-def kind='lvalue' type-id='type-id-1563' size-in-bits='64' id='type-id-1564'/>
    <reference-type-def kind='lvalue' type-id='type-id-1565' size-in-bits='64' id='type-id-1566'/>
    <reference-type-def kind='lvalue' type-id='type-id-419' size-in-bits='64' id='type-id-1567'/>
    <reference-type-def kind='rvalue' type-id='type-id-419' size-in-bits='64' id='type-id-1568'/>
    <pointer-type-def type-id='type-id-419' size-in-bits='64' id='type-id-1569'/>
    <reference-type-def kind='lvalue' type-id='type-id-428' size-in-bits='64' id='type-id-1570'/>
    <pointer-type-def type-id='type-id-428' size-in-bits='64' id='type-id-1571'/>
    <qualified-type-def type-id='type-id-1571' const='yes' id='type-id-1572'/>
    <reference-type-def kind='lvalue' type-id='type-id-1572' size-in-bits='64' id='type-id-1573'/>
    <reference-type-def kind='lvalue' type-id='type-id-1571' size-in-bits='64' id='type-id-1574'/>
    <reference-type-def kind='lvalue' type-id='type-id-432' size-in-bits='64' id='type-id-1575'/>
    <pointer-type-def type-id='type-id-432' size-in-bits='64' id='type-id-1576'/>
    <reference-type-def kind='lvalue' type-id='type-id-436' size-in-bits='64' id='type-id-1577'/>
    <pointer-type-def type-id='type-id-436' size-in-bits='64' id='type-id-1578'/>
    <pointer-type-def type-id='type-id-439' size-in-bits='64' id='type-id-1579'/>
    <pointer-type-def type-id='type-id-442' size-in-bits='64' id='type-id-1580'/>
    <qualified-type-def type-id='type-id-1580' const='yes' id='type-id-1581'/>
    <pointer-type-def type-id='type-id-446' size-in-bits='64' id='type-id-1582'/>
    <qualified-type-def type-id='type-id-1583' id='type-id-1584'/>
    <reference-type-def kind='lvalue' type-id='type-id-1585' size-in-bits='64' id='type-id-1583'/>
    <reference-type-def kind='lvalue' type-id='type-id-449' size-in-bits='64' id='type-id-1586'/>
    <pointer-type-def type-id='type-id-449' size-in-bits='64' id='type-id-1587'/>
    <pointer-type-def type-id='type-id-453' size-in-bits='64' id='type-id-1588'/>
    <pointer-type-def type-id='type-id-458' size-in-bits='64' id='type-id-1589'/>
    <reference-type-def kind='lvalue' type-id='type-id-461' size-in-bits='64' id='type-id-1590'/>
    <pointer-type-def type-id='type-id-461' size-in-bits='64' id='type-id-1591'/>
    <qualified-type-def type-id='type-id-1591' const='yes' id='type-id-1592'/>
    <reference-type-def kind='lvalue' type-id='type-id-468' size-in-bits='64' id='type-id-1593'/>
    <pointer-type-def type-id='type-id-468' size-in-bits='64' id='type-id-1594'/>
    <reference-type-def kind='lvalue' type-id='type-id-471' size-in-bits='64' id='type-id-1595'/>
    <pointer-type-def type-id='type-id-471' size-in-bits='64' id='type-id-1596'/>
    <pointer-type-def type-id='type-id-477' size-in-bits='64' id='type-id-1597'/>
    <pointer-type-def type-id='type-id-1598' size-in-bits='64' id='type-id-1599'/>
    <pointer-type-def type-id='type-id-481' size-in-bits='64' id='type-id-1600'/>
    <pointer-type-def type-id='type-id-484' size-in-bits='64' id='type-id-1601'/>
    <pointer-type-def type-id='type-id-487' size-in-bits='64' id='type-id-1602'/>
    <reference-type-def kind='lvalue' type-id='type-id-490' size-in-bits='64' id='type-id-1603'/>
    <pointer-type-def type-id='type-id-490' size-in-bits='64' id='type-id-1604'/>
    <reference-type-def kind='rvalue' type-id='type-id-1604' size-in-bits='64' id='type-id-1605'/>
    <pointer-type-def type-id='type-id-1606' size-in-bits='64' id='type-id-1607'/>
    <pointer-type-def type-id='type-id-500' size-in-bits='64' id='type-id-1608'/>
    <pointer-type-def type-id='type-id-504' size-in-bits='64' id='type-id-1609'/>
    <pointer-type-def type-id='type-id-509' size-in-bits='64' id='type-id-1610'/>
    <pointer-type-def type-id='type-id-1611' size-in-bits='64' id='type-id-1612'/>
    <reference-type-def kind='lvalue' type-id='type-id-524' size-in-bits='64' id='type-id-1613'/>
    <pointer-type-def type-id='type-id-524' size-in-bits='64' id='type-id-1614'/>
    <pointer-type-def type-id='type-id-1615' size-in-bits='64' id='type-id-1616'/>
    <pointer-type-def type-id='type-id-528' size-in-bits='64' id='type-id-1617'/>
    <pointer-type-def type-id='type-id-1618' size-in-bits='64' id='type-id-1619'/>
    <reference-type-def kind='lvalue' type-id='type-id-1620' size-in-bits='64' id='type-id-1621'/>
    <pointer-type-def type-id='type-id-1622' size-in-bits='64' id='type-id-1623'/>
    <pointer-type-def type-id='type-id-532' size-in-bits='64' id='type-id-1624'/>
    <reference-type-def kind='lvalue' type-id='type-id-538' size-in-bits='64' id='type-id-1625'/>
    <reference-type-def kind='rvalue' type-id='type-id-538' size-in-bits='64' id='type-id-1626'/>
    <pointer-type-def type-id='type-id-538' size-in-bits='64' id='type-id-1627'/>
    <reference-type-def kind='lvalue' type-id='type-id-542' size-in-bits='64' id='type-id-1628'/>
    <pointer-type-def type-id='type-id-542' size-in-bits='64' id='type-id-1629'/>
    <reference-type-def kind='lvalue' type-id='type-id-545' size-in-bits='64' id='type-id-1630'/>
    <reference-type-def kind='rvalue' type-id='type-id-545' size-in-bits='64' id='type-id-1631'/>
    <pointer-type-def type-id='type-id-545' size-in-bits='64' id='type-id-1632'/>
    <pointer-type-def type-id='type-id-1633' size-in-bits='64' id='type-id-1634'/>
    <reference-type-def kind='lvalue' type-id='type-id-1635' size-in-bits='64' id='type-id-1636'/>
    <reference-type-def kind='lvalue' type-id='type-id-550' size-in-bits='64' id='type-id-1637'/>
    <pointer-type-def type-id='type-id-550' size-in-bits='64' id='type-id-1638'/>
    <qualified-type-def type-id='type-id-1638' const='yes' id='type-id-1639'/>
    <pointer-type-def type-id='type-id-555' size-in-bits='64' id='type-id-1640'/>
    <pointer-type-def type-id='type-id-560' size-in-bits='64' id='type-id-1641'/>
    <pointer-type-def type-id='type-id-1642' size-in-bits='64' id='type-id-1643'/>
    <qualified-type-def type-id='type-id-1643' const='yes' id='type-id-1644'/>
    <reference-type-def kind='lvalue' type-id='type-id-567' size-in-bits='64' id='type-id-1645'/>
    <pointer-type-def type-id='type-id-567' size-in-bits='64' id='type-id-1646'/>
    <qualified-type-def type-id='type-id-1646' const='yes' id='type-id-1647'/>
    <pointer-type-def type-id='type-id-1648' size-in-bits='64' id='type-id-1649'/>
    <qualified-type-def type-id='type-id-1649' const='yes' id='type-id-1650'/>
    <reference-type-def kind='lvalue' type-id='type-id-1650' size-in-bits='64' id='type-id-1651'/>
    <pointer-type-def type-id='type-id-1650' size-in-bits='64' id='type-id-1652'/>
    <reference-type-def kind='lvalue' type-id='type-id-1649' size-in-bits='64' id='type-id-1653'/>
    <pointer-type-def type-id='type-id-1649' size-in-bits='64' id='type-id-1654'/>
    <reference-type-def kind='lvalue' type-id='type-id-572' size-in-bits='64' id='type-id-1655'/>
    <pointer-type-def type-id='type-id-572' size-in-bits='64' id='type-id-1656'/>
    <pointer-type-def type-id='type-id-576' size-in-bits='64' id='type-id-1657'/>
    <pointer-type-def type-id='type-id-580' size-in-bits='64' id='type-id-1658'/>
    <reference-type-def kind='lvalue' type-id='type-id-583' size-in-bits='64' id='type-id-1659'/>
    <pointer-type-def type-id='type-id-583' size-in-bits='64' id='type-id-1660'/>
    <reference-type-def kind='lvalue' type-id='type-id-587' size-in-bits='64' id='type-id-1661'/>
    <pointer-type-def type-id='type-id-587' size-in-bits='64' id='type-id-1662'/>
    <qualified-type-def type-id='type-id-1662' const='yes' id='type-id-1663'/>
    <reference-type-def kind='lvalue' type-id='type-id-1663' size-in-bits='64' id='type-id-1664'/>
    <reference-type-def kind='lvalue' type-id='type-id-594' size-in-bits='64' id='type-id-1665'/>
    <pointer-type-def type-id='type-id-594' size-in-bits='64' id='type-id-1666'/>
    <qualified-type-def type-id='type-id-1666' const='yes' id='type-id-1667'/>
    <pointer-type-def type-id='type-id-597' size-in-bits='64' id='type-id-1668'/>
    <reference-type-def kind='lvalue' type-id='type-id-1669' size-in-bits='64' id='type-id-1670'/>
    <reference-type-def kind='rvalue' type-id='type-id-1669' size-in-bits='64' id='type-id-1671'/>
    <pointer-type-def type-id='type-id-1669' size-in-bits='64' id='type-id-1672'/>
    <qualified-type-def type-id='type-id-1672' const='yes' id='type-id-1673'/>
    <pointer-type-def type-id='type-id-600' size-in-bits='64' id='type-id-1674'/>
    <pointer-type-def type-id='type-id-1675' size-in-bits='64' id='type-id-1676'/>
    <pointer-type-def type-id='type-id-1677' size-in-bits='64' id='type-id-1678'/>
    <reference-type-def kind='lvalue' type-id='type-id-1679' size-in-bits='64' id='type-id-1680'/>
    <pointer-type-def type-id='type-id-1679' size-in-bits='64' id='type-id-1681'/>
    <qualified-type-def type-id='type-id-1681' const='yes' id='type-id-1682'/>
    <reference-type-def kind='lvalue' type-id='type-id-1682' size-in-bits='64' id='type-id-1683'/>
    <pointer-type-def type-id='type-id-1682' size-in-bits='64' id='type-id-1684'/>
    <reference-type-def kind='lvalue' type-id='type-id-1681' size-in-bits='64' id='type-id-1685'/>
    <pointer-type-def type-id='type-id-1681' size-in-bits='64' id='type-id-1686'/>
    <pointer-type-def type-id='type-id-603' size-in-bits='64' id='type-id-1687'/>
    <pointer-type-def type-id='type-id-1688' size-in-bits='64' id='type-id-1689'/>
    <qualified-type-def type-id='type-id-1689' const='yes' id='type-id-1690'/>
    <reference-type-def kind='lvalue' type-id='type-id-1690' size-in-bits='64' id='type-id-1691'/>
    <pointer-type-def type-id='type-id-1690' size-in-bits='64' id='type-id-1692'/>
    <reference-type-def kind='lvalue' type-id='type-id-1689' size-in-bits='64' id='type-id-1693'/>
    <pointer-type-def type-id='type-id-1689' size-in-bits='64' id='type-id-1694'/>
    <reference-type-def kind='lvalue' type-id='type-id-611' size-in-bits='64' id='type-id-1695'/>
    <pointer-type-def type-id='type-id-611' size-in-bits='64' id='type-id-1696'/>
    <reference-type-def kind='lvalue' type-id='type-id-615' size-in-bits='64' id='type-id-1697'/>
    <pointer-type-def type-id='type-id-615' size-in-bits='64' id='type-id-1698'/>
    <pointer-type-def type-id='type-id-1699' size-in-bits='64' id='type-id-1700'/>
    <pointer-type-def type-id='type-id-1701' size-in-bits='64' id='type-id-1702'/>
    <pointer-type-def type-id='type-id-619' size-in-bits='64' id='type-id-1703'/>
    <reference-type-def kind='lvalue' type-id='type-id-624' size-in-bits='64' id='type-id-1704'/>
    <pointer-type-def type-id='type-id-624' size-in-bits='64' id='type-id-1705'/>
    <qualified-type-def type-id='type-id-1705' const='yes' id='type-id-1706'/>
    <reference-type-def kind='lvalue' type-id='type-id-65' size-in-bits='64' id='type-id-1707'/>
    <pointer-type-def type-id='type-id-65' size-in-bits='64' id='type-id-1708'/>
    <qualified-type-def type-id='type-id-1709' id='type-id-1710'/>
    <reference-type-def kind='lvalue' type-id='type-id-691' size-in-bits='64' id='type-id-1709'/>
    <pointer-type-def type-id='type-id-691' size-in-bits='64' id='type-id-1711'/>
    <qualified-type-def type-id='type-id-1711' const='yes' id='type-id-1712'/>
    <pointer-type-def type-id='type-id-697' size-in-bits='64' id='type-id-1713'/>
    <reference-type-def kind='lvalue' type-id='type-id-1714' size-in-bits='64' id='type-id-1715'/>
    <pointer-type-def type-id='type-id-700' size-in-bits='64' id='type-id-1716'/>
    <reference-type-def kind='lvalue' type-id='type-id-1717' size-in-bits='64' id='type-id-1718'/>
    <pointer-type-def type-id='type-id-704' size-in-bits='64' id='type-id-1719'/>
    <reference-type-def kind='lvalue' type-id='type-id-708' size-in-bits='64' id='type-id-1720'/>
    <pointer-type-def type-id='type-id-708' size-in-bits='64' id='type-id-1721'/>
    <pointer-type-def type-id='type-id-1722' size-in-bits='64' id='type-id-1723'/>
    <reference-type-def kind='rvalue' type-id='type-id-712' size-in-bits='64' id='type-id-1724'/>
    <pointer-type-def type-id='type-id-712' size-in-bits='64' id='type-id-1725'/>
    <reference-type-def kind='lvalue' type-id='type-id-715' size-in-bits='64' id='type-id-1726'/>
    <reference-type-def kind='rvalue' type-id='type-id-715' size-in-bits='64' id='type-id-1727'/>
    <pointer-type-def type-id='type-id-1728' size-in-bits='64' id='type-id-1729'/>
    <pointer-type-def type-id='type-id-721' size-in-bits='64' id='type-id-1730'/>
    <reference-type-def kind='lvalue' type-id='type-id-724' size-in-bits='64' id='type-id-1731'/>
    <reference-type-def kind='rvalue' type-id='type-id-724' size-in-bits='64' id='type-id-1732'/>
    <pointer-type-def type-id='type-id-724' size-in-bits='64' id='type-id-1733'/>
    <pointer-type-def type-id='type-id-1734' size-in-bits='64' id='type-id-1735'/>
    <reference-type-def kind='lvalue' type-id='type-id-1736' size-in-bits='64' id='type-id-1737'/>
    <pointer-type-def type-id='type-id-1738' size-in-bits='64' id='type-id-1739'/>
    <pointer-type-def type-id='type-id-1740' size-in-bits='64' id='type-id-1741'/>
    <qualified-type-def type-id='type-id-1742' id='type-id-1743'/>
    <reference-type-def kind='lvalue' type-id='type-id-740' size-in-bits='64' id='type-id-1742'/>
    <reference-type-def kind='rvalue' type-id='type-id-740' size-in-bits='64' id='type-id-1744'/>
    <pointer-type-def type-id='type-id-740' size-in-bits='64' id='type-id-1745'/>
    <reference-type-def kind='lvalue' type-id='type-id-743' size-in-bits='64' id='type-id-1746'/>
    <reference-type-def kind='rvalue' type-id='type-id-743' size-in-bits='64' id='type-id-1747'/>
    <pointer-type-def type-id='type-id-743' size-in-bits='64' id='type-id-1748'/>
    <reference-type-def kind='lvalue' type-id='type-id-747' size-in-bits='64' id='type-id-1749'/>
    <reference-type-def kind='rvalue' type-id='type-id-747' size-in-bits='64' id='type-id-1750'/>
    <pointer-type-def type-id='type-id-747' size-in-bits='64' id='type-id-1751'/>
    <qualified-type-def type-id='type-id-1752' id='type-id-1753'/>
    <reference-type-def kind='lvalue' type-id='type-id-750' size-in-bits='64' id='type-id-1752'/>
    <reference-type-def kind='rvalue' type-id='type-id-750' size-in-bits='64' id='type-id-1754'/>
    <pointer-type-def type-id='type-id-750' size-in-bits='64' id='type-id-1755'/>
    <reference-type-def kind='lvalue' type-id='type-id-753' size-in-bits='64' id='type-id-1756'/>
    <reference-type-def kind='rvalue' type-id='type-id-753' size-in-bits='64' id='type-id-1757'/>
    <pointer-type-def type-id='type-id-753' size-in-bits='64' id='type-id-1758'/>
    <reference-type-def kind='lvalue' type-id='type-id-756' size-in-bits='64' id='type-id-1759'/>
    <reference-type-def kind='rvalue' type-id='type-id-756' size-in-bits='64' id='type-id-1760'/>
    <pointer-type-def type-id='type-id-756' size-in-bits='64' id='type-id-1761'/>
    <reference-type-def kind='rvalue' type-id='type-id-759' size-in-bits='64' id='type-id-1762'/>
    <pointer-type-def type-id='type-id-759' size-in-bits='64' id='type-id-1763'/>
    <qualified-type-def type-id='type-id-1763' const='yes' id='type-id-1764'/>
    <pointer-type-def type-id='type-id-1765' size-in-bits='64' id='type-id-1766'/>
    <reference-type-def kind='lvalue' type-id='type-id-762' size-in-bits='64' id='type-id-1767'/>
    <reference-type-def kind='rvalue' type-id='type-id-762' size-in-bits='64' id='type-id-1768'/>
    <reference-type-def kind='rvalue' type-id='type-id-765' size-in-bits='64' id='type-id-1769'/>
    <pointer-type-def type-id='type-id-765' size-in-bits='64' id='type-id-1770'/>
    <qualified-type-def type-id='type-id-1770' const='yes' id='type-id-1771'/>
    <pointer-type-def type-id='type-id-1772' size-in-bits='64' id='type-id-1773'/>
    <reference-type-def kind='lvalue' type-id='type-id-768' size-in-bits='64' id='type-id-1774'/>
    <reference-type-def kind='rvalue' type-id='type-id-768' size-in-bits='64' id='type-id-1775'/>
    <reference-type-def kind='lvalue' type-id='type-id-771' size-in-bits='64' id='type-id-1776'/>
    <pointer-type-def type-id='type-id-771' size-in-bits='64' id='type-id-1777'/>
    <reference-type-def kind='lvalue' type-id='type-id-775' size-in-bits='64' id='type-id-1778'/>
    <pointer-type-def type-id='type-id-775' size-in-bits='64' id='type-id-1779'/>
    <reference-type-def kind='lvalue' type-id='type-id-779' size-in-bits='64' id='type-id-1780'/>
    <reference-type-def kind='rvalue' type-id='type-id-779' size-in-bits='64' id='type-id-1781'/>
    <pointer-type-def type-id='type-id-779' size-in-bits='64' id='type-id-1782'/>
    <reference-type-def kind='lvalue' type-id='type-id-1783' size-in-bits='64' id='type-id-1784'/>
    <reference-type-def kind='lvalue' type-id='type-id-783' size-in-bits='64' id='type-id-1785'/>
    <reference-type-def kind='rvalue' type-id='type-id-783' size-in-bits='64' id='type-id-1786'/>
    <pointer-type-def type-id='type-id-1787' size-in-bits='64' id='type-id-1788'/>
    <reference-type-def kind='lvalue' type-id='type-id-795' size-in-bits='64' id='type-id-1789'/>
    <reference-type-def kind='rvalue' type-id='type-id-795' size-in-bits='64' id='type-id-1790'/>
    <pointer-type-def type-id='type-id-795' size-in-bits='64' id='type-id-1791'/>
    <reference-type-def kind='lvalue' type-id='type-id-1792' size-in-bits='64' id='type-id-1793'/>
    <reference-type-def kind='lvalue' type-id='type-id-799' size-in-bits='64' id='type-id-1794'/>
    <reference-type-def kind='rvalue' type-id='type-id-799' size-in-bits='64' id='type-id-1795'/>
    <pointer-type-def type-id='type-id-1796' size-in-bits='64' id='type-id-1797'/>
    <reference-type-def kind='lvalue' type-id='type-id-811' size-in-bits='64' id='type-id-1798'/>
    <reference-type-def kind='rvalue' type-id='type-id-811' size-in-bits='64' id='type-id-1799'/>
    <pointer-type-def type-id='type-id-811' size-in-bits='64' id='type-id-1800'/>
    <reference-type-def kind='lvalue' type-id='type-id-1801' size-in-bits='64' id='type-id-1802'/>
    <reference-type-def kind='lvalue' type-id='type-id-815' size-in-bits='64' id='type-id-1803'/>
    <reference-type-def kind='rvalue' type-id='type-id-815' size-in-bits='64' id='type-id-1804'/>
    <pointer-type-def type-id='type-id-1805' size-in-bits='64' id='type-id-1806'/>
    <reference-type-def kind='lvalue' type-id='type-id-827' size-in-bits='64' id='type-id-1807'/>
    <reference-type-def kind='rvalue' type-id='type-id-827' size-in-bits='64' id='type-id-1808'/>
    <pointer-type-def type-id='type-id-827' size-in-bits='64' id='type-id-1809'/>
    <qualified-type-def type-id='type-id-1809' const='yes' id='type-id-1810'/>
    <reference-type-def kind='lvalue' type-id='type-id-1811' size-in-bits='64' id='type-id-1812'/>
    <reference-type-def kind='lvalue' type-id='type-id-831' size-in-bits='64' id='type-id-1813'/>
    <reference-type-def kind='rvalue' type-id='type-id-831' size-in-bits='64' id='type-id-1814'/>
    <pointer-type-def type-id='type-id-1815' size-in-bits='64' id='type-id-1816'/>
    <pointer-type-def type-id='type-id-843' size-in-bits='64' id='type-id-1817'/>
    <reference-type-def kind='lvalue' type-id='type-id-846' size-in-bits='64' id='type-id-1818'/>
    <pointer-type-def type-id='type-id-852' size-in-bits='64' id='type-id-1819'/>
    <qualified-type-def type-id='type-id-1819' const='yes' id='type-id-1820'/>
    <reference-type-def kind='lvalue' type-id='type-id-856' size-in-bits='64' id='type-id-1821'/>
    <reference-type-def kind='lvalue' type-id='type-id-860' size-in-bits='64' id='type-id-1822'/>
    <pointer-type-def type-id='type-id-860' size-in-bits='64' id='type-id-1823'/>
    <reference-type-def kind='lvalue' type-id='type-id-864' size-in-bits='64' id='type-id-1824'/>
    <pointer-type-def type-id='type-id-864' size-in-bits='64' id='type-id-1825'/>
    <reference-type-def kind='lvalue' type-id='type-id-868' size-in-bits='64' id='type-id-1826'/>
    <pointer-type-def type-id='type-id-868' size-in-bits='64' id='type-id-1827'/>
    <reference-type-def kind='lvalue' type-id='type-id-872' size-in-bits='64' id='type-id-1828'/>
    <pointer-type-def type-id='type-id-872' size-in-bits='64' id='type-id-1829'/>
    <qualified-type-def type-id='type-id-1829' const='yes' id='type-id-1830'/>
    <pointer-type-def type-id='type-id-876' size-in-bits='64' id='type-id-1831'/>
    <qualified-type-def type-id='type-id-1831' const='yes' id='type-id-1832'/>
    <reference-type-def kind='lvalue' type-id='type-id-1832' size-in-bits='64' id='type-id-1833'/>
    <reference-type-def kind='lvalue' type-id='type-id-879' size-in-bits='64' id='type-id-1834'/>
    <pointer-type-def type-id='type-id-879' size-in-bits='64' id='type-id-1835'/>
    <qualified-type-def type-id='type-id-1835' const='yes' id='type-id-1836'/>
    <qualified-type-def type-id='type-id-1837' id='type-id-1838'/>
    <reference-type-def kind='lvalue' type-id='type-id-883' size-in-bits='64' id='type-id-1837'/>
    <reference-type-def kind='rvalue' type-id='type-id-883' size-in-bits='64' id='type-id-1839'/>
    <pointer-type-def type-id='type-id-883' size-in-bits='64' id='type-id-1840'/>
    <reference-type-def kind='lvalue' type-id='type-id-886' size-in-bits='64' id='type-id-1841'/>
    <reference-type-def kind='lvalue' type-id='type-id-889' size-in-bits='64' id='type-id-1842'/>
    <reference-type-def kind='rvalue' type-id='type-id-889' size-in-bits='64' id='type-id-1843'/>
    <pointer-type-def type-id='type-id-889' size-in-bits='64' id='type-id-1844'/>
    <reference-type-def kind='lvalue' type-id='type-id-893' size-in-bits='64' id='type-id-1845'/>
    <reference-type-def kind='lvalue' type-id='type-id-896' size-in-bits='64' id='type-id-1846'/>
    <reference-type-def kind='rvalue' type-id='type-id-896' size-in-bits='64' id='type-id-1847'/>
    <pointer-type-def type-id='type-id-896' size-in-bits='64' id='type-id-1848'/>
    <reference-type-def kind='lvalue' type-id='type-id-899' size-in-bits='64' id='type-id-1849'/>
    <qualified-type-def type-id='type-id-1850' id='type-id-1851'/>
    <reference-type-def kind='lvalue' type-id='type-id-902' size-in-bits='64' id='type-id-1850'/>
    <reference-type-def kind='rvalue' type-id='type-id-902' size-in-bits='64' id='type-id-1852'/>
    <pointer-type-def type-id='type-id-902' size-in-bits='64' id='type-id-1853'/>
    <reference-type-def kind='lvalue' type-id='type-id-905' size-in-bits='64' id='type-id-1854'/>
    <reference-type-def kind='lvalue' type-id='type-id-908' size-in-bits='64' id='type-id-1855'/>
    <reference-type-def kind='rvalue' type-id='type-id-908' size-in-bits='64' id='type-id-1856'/>
    <pointer-type-def type-id='type-id-908' size-in-bits='64' id='type-id-1857'/>
    <reference-type-def kind='lvalue' type-id='type-id-911' size-in-bits='64' id='type-id-1858'/>
    <reference-type-def kind='lvalue' type-id='type-id-914' size-in-bits='64' id='type-id-1859'/>
    <reference-type-def kind='rvalue' type-id='type-id-914' size-in-bits='64' id='type-id-1860'/>
    <pointer-type-def type-id='type-id-914' size-in-bits='64' id='type-id-1861'/>
    <reference-type-def kind='lvalue' type-id='type-id-917' size-in-bits='64' id='type-id-1862'/>
    <reference-type-def kind='lvalue' type-id='type-id-1863' size-in-bits='64' id='type-id-1864'/>
    <pointer-type-def type-id='type-id-1863' size-in-bits='64' id='type-id-1865'/>
    <pointer-type-def type-id='type-id-1866' size-in-bits='64' id='type-id-1867'/>
    <reference-type-def kind='rvalue' type-id='type-id-920' size-in-bits='64' id='type-id-1868'/>
    <pointer-type-def type-id='type-id-920' size-in-bits='64' id='type-id-1869'/>
    <reference-type-def kind='lvalue' type-id='type-id-923' size-in-bits='64' id='type-id-1870'/>
    <reference-type-def kind='rvalue' type-id='type-id-923' size-in-bits='64' id='type-id-1871'/>
    <reference-type-def kind='lvalue' type-id='type-id-1872' size-in-bits='64' id='type-id-1873'/>
    <pointer-type-def type-id='type-id-1872' size-in-bits='64' id='type-id-1874'/>
    <reference-type-def kind='rvalue' type-id='type-id-929' size-in-bits='64' id='type-id-1875'/>
    <pointer-type-def type-id='type-id-929' size-in-bits='64' id='type-id-1876'/>
    <reference-type-def kind='lvalue' type-id='type-id-932' size-in-bits='64' id='type-id-1877'/>
    <reference-type-def kind='rvalue' type-id='type-id-932' size-in-bits='64' id='type-id-1878'/>
    <reference-type-def kind='lvalue' type-id='type-id-1879' size-in-bits='64' id='type-id-1880'/>
    <pointer-type-def type-id='type-id-1879' size-in-bits='64' id='type-id-1881'/>
    <reference-type-def kind='rvalue' type-id='type-id-938' size-in-bits='64' id='type-id-1882'/>
    <pointer-type-def type-id='type-id-938' size-in-bits='64' id='type-id-1883'/>
    <reference-type-def kind='lvalue' type-id='type-id-941' size-in-bits='64' id='type-id-1884'/>
    <reference-type-def kind='rvalue' type-id='type-id-941' size-in-bits='64' id='type-id-1885'/>
    <reference-type-def kind='lvalue' type-id='type-id-1886' size-in-bits='64' id='type-id-1887'/>
    <pointer-type-def type-id='type-id-1886' size-in-bits='64' id='type-id-1888'/>
    <reference-type-def kind='rvalue' type-id='type-id-947' size-in-bits='64' id='type-id-1889'/>
    <pointer-type-def type-id='type-id-947' size-in-bits='64' id='type-id-1890'/>
    <reference-type-def kind='lvalue' type-id='type-id-950' size-in-bits='64' id='type-id-1891'/>
    <reference-type-def kind='rvalue' type-id='type-id-950' size-in-bits='64' id='type-id-1892'/>
    <reference-type-def kind='lvalue' type-id='type-id-1893' size-in-bits='64' id='type-id-1894'/>
    <pointer-type-def type-id='type-id-1893' size-in-bits='64' id='type-id-1895'/>
    <reference-type-def kind='rvalue' type-id='type-id-956' size-in-bits='64' id='type-id-1896'/>
    <pointer-type-def type-id='type-id-956' size-in-bits='64' id='type-id-1897'/>
    <reference-type-def kind='lvalue' type-id='type-id-959' size-in-bits='64' id='type-id-1898'/>
    <reference-type-def kind='rvalue' type-id='type-id-959' size-in-bits='64' id='type-id-1899'/>
    <reference-type-def kind='lvalue' type-id='type-id-1900' size-in-bits='64' id='type-id-1901'/>
    <pointer-type-def type-id='type-id-1900' size-in-bits='64' id='type-id-1902'/>
    <reference-type-def kind='rvalue' type-id='type-id-965' size-in-bits='64' id='type-id-1903'/>
    <pointer-type-def type-id='type-id-965' size-in-bits='64' id='type-id-1904'/>
    <qualified-type-def type-id='type-id-1904' const='yes' id='type-id-1905'/>
    <reference-type-def kind='lvalue' type-id='type-id-969' size-in-bits='64' id='type-id-1906'/>
    <reference-type-def kind='rvalue' type-id='type-id-969' size-in-bits='64' id='type-id-1907'/>
    <qualified-type-def type-id='type-id-1908' id='type-id-1909'/>
    <reference-type-def kind='lvalue' type-id='type-id-1910' size-in-bits='64' id='type-id-1908'/>
    <pointer-type-def type-id='type-id-1910' size-in-bits='64' id='type-id-1911'/>
    <qualified-type-def type-id='type-id-1911' const='yes' id='type-id-1912'/>
    <reference-type-def kind='rvalue' type-id='type-id-975' size-in-bits='64' id='type-id-1913'/>
    <pointer-type-def type-id='type-id-975' size-in-bits='64' id='type-id-1914'/>
    <qualified-type-def type-id='type-id-1914' const='yes' id='type-id-1915'/>
    <reference-type-def kind='lvalue' type-id='type-id-978' size-in-bits='64' id='type-id-1916'/>
    <reference-type-def kind='rvalue' type-id='type-id-978' size-in-bits='64' id='type-id-1917'/>
    <reference-type-def kind='lvalue' type-id='type-id-1918' size-in-bits='64' id='type-id-1919'/>
    <pointer-type-def type-id='type-id-1918' size-in-bits='64' id='type-id-1920'/>
    <reference-type-def kind='lvalue' type-id='type-id-984' size-in-bits='64' id='type-id-1921'/>
    <pointer-type-def type-id='type-id-984' size-in-bits='64' id='type-id-1922'/>
    <qualified-type-def type-id='type-id-1922' const='yes' id='type-id-1923'/>
    <reference-type-def kind='lvalue' type-id='type-id-1924' size-in-bits='64' id='type-id-1925'/>
    <reference-type-def kind='lvalue' type-id='type-id-997' size-in-bits='64' id='type-id-1926'/>
    <pointer-type-def type-id='type-id-997' size-in-bits='64' id='type-id-1927'/>
    <pointer-type-def type-id='type-id-1000' size-in-bits='64' id='type-id-1928'/>
    <reference-type-def kind='lvalue' type-id='type-id-1003' size-in-bits='64' id='type-id-1929'/>
    <pointer-type-def type-id='type-id-1003' size-in-bits='64' id='type-id-1930'/>
    <pointer-type-def type-id='type-id-1931' size-in-bits='64' id='type-id-1932'/>
    <pointer-type-def type-id='type-id-1007' size-in-bits='64' id='type-id-1933'/>
    <reference-type-def kind='rvalue' type-id='type-id-1010' size-in-bits='64' id='type-id-1934'/>
    <pointer-type-def type-id='type-id-1010' size-in-bits='64' id='type-id-1935'/>
    <pointer-type-def type-id='type-id-1936' size-in-bits='64' id='type-id-1937'/>
    <reference-type-def kind='lvalue' type-id='type-id-1014' size-in-bits='64' id='type-id-1938'/>
    <pointer-type-def type-id='type-id-1939' size-in-bits='64' id='type-id-1940'/>
    <pointer-type-def type-id='type-id-1941' size-in-bits='64' id='type-id-1942'/>
    <reference-type-def kind='lvalue' type-id='type-id-1017' size-in-bits='64' id='type-id-1943'/>
    <pointer-type-def type-id='type-id-1017' size-in-bits='64' id='type-id-1944'/>
    <pointer-type-def type-id='type-id-1945' size-in-bits='64' id='type-id-1946'/>
    <reference-type-def kind='lvalue' type-id='type-id-1020' size-in-bits='64' id='type-id-1947'/>
    <pointer-type-def type-id='type-id-1020' size-in-bits='64' id='type-id-1948'/>
    <reference-type-def kind='lvalue' type-id='type-id-1023' size-in-bits='64' id='type-id-1949'/>
    <pointer-type-def type-id='type-id-1023' size-in-bits='64' id='type-id-1950'/>
    <reference-type-def kind='lvalue' type-id='type-id-1026' size-in-bits='64' id='type-id-1951'/>
    <pointer-type-def type-id='type-id-1026' size-in-bits='64' id='type-id-1952'/>
    <reference-type-def kind='lvalue' type-id='type-id-1029' size-in-bits='64' id='type-id-1953'/>
    <pointer-type-def type-id='type-id-1029' size-in-bits='64' id='type-id-1954'/>
    <reference-type-def kind='lvalue' type-id='type-id-1032' size-in-bits='64' id='type-id-1955'/>
    <pointer-type-def type-id='type-id-1032' size-in-bits='64' id='type-id-1956'/>
    <pointer-type-def type-id='type-id-1957' size-in-bits='64' id='type-id-1958'/>
    <reference-type-def kind='lvalue' type-id='type-id-1959' size-in-bits='64' id='type-id-1960'/>
    <reference-type-def kind='lvalue' type-id='type-id-1961' size-in-bits='64' id='type-id-1962'/>
    <pointer-type-def type-id='type-id-1961' size-in-bits='64' id='type-id-1963'/>
    <pointer-type-def type-id='type-id-1038' size-in-bits='64' id='type-id-1964'/>
    <reference-type-def kind='rvalue' type-id='type-id-1041' size-in-bits='64' id='type-id-1965'/>
    <reference-type-def kind='lvalue' type-id='type-id-1044' size-in-bits='64' id='type-id-1966'/>
    <reference-type-def kind='lvalue' type-id='type-id-1047' size-in-bits='64' id='type-id-1967'/>
    <pointer-type-def type-id='type-id-1051' size-in-bits='64' id='type-id-1968'/>
    <pointer-type-def type-id='type-id-1055' size-in-bits='64' id='type-id-1969'/>
    <reference-type-def kind='lvalue' type-id='type-id-1058' size-in-bits='64' id='type-id-1970'/>
    <reference-type-def kind='lvalue' type-id='type-id-1971' size-in-bits='64' id='type-id-1972'/>
    <reference-type-def kind='lvalue' type-id='type-id-1973' size-in-bits='64' id='type-id-1974'/>
    <reference-type-def kind='lvalue' type-id='type-id-1975' size-in-bits='64' id='type-id-1976'/>
    <reference-type-def kind='lvalue' type-id='type-id-1977' size-in-bits='64' id='type-id-1978'/>
    <reference-type-def kind='lvalue' type-id='type-id-1979' size-in-bits='64' id='type-id-1980'/>
    <reference-type-def kind='lvalue' type-id='type-id-1981' size-in-bits='64' id='type-id-1982'/>
    <reference-type-def kind='lvalue' type-id='type-id-1983' size-in-bits='64' id='type-id-1984'/>
    <reference-type-def kind='lvalue' type-id='type-id-1985' size-in-bits='64' id='type-id-1986'/>
    <reference-type-def kind='lvalue' type-id='type-id-1987' size-in-bits='64' id='type-id-1988'/>
    <reference-type-def kind='lvalue' type-id='type-id-1989' size-in-bits='64' id='type-id-1990'/>
    <reference-type-def kind='lvalue' type-id='type-id-1991' size-in-bits='64' id='type-id-1992'/>
    <reference-type-def kind='lvalue' type-id='type-id-1061' size-in-bits='64' id='type-id-1993'/>
    <pointer-type-def type-id='type-id-1061' size-in-bits='64' id='type-id-1994'/>
    <reference-type-def kind='lvalue' type-id='type-id-1065' size-in-bits='64' id='type-id-1995'/>
    <reference-type-def kind='rvalue' type-id='type-id-1065' size-in-bits='64' id='type-id-1996'/>
    <pointer-type-def type-id='type-id-1065' size-in-bits='64' id='type-id-1997'/>
    <pointer-type-def type-id='type-id-1998' size-in-bits='64' id='type-id-1999'/>
    <pointer-type-def type-id='type-id-1075' size-in-bits='64' id='type-id-2000'/>
    <reference-type-def kind='lvalue' type-id='type-id-1078' size-in-bits='64' id='type-id-2001'/>
    <pointer-type-def type-id='type-id-1078' size-in-bits='64' id='type-id-2002'/>
    <reference-type-def kind='lvalue' type-id='type-id-1081' size-in-bits='64' id='type-id-2003'/>
    <pointer-type-def type-id='type-id-1081' size-in-bits='64' id='type-id-2004'/>
    <pointer-type-def type-id='type-id-1084' size-in-bits='64' id='type-id-2005'/>
    <pointer-type-def type-id='type-id-1087' size-in-bits='64' id='type-id-2006'/>
    <reference-type-def kind='lvalue' type-id='type-id-1090' size-in-bits='64' id='type-id-2007'/>
    <pointer-type-def type-id='type-id-1090' size-in-bits='64' id='type-id-2008'/>
    <reference-type-def kind='lvalue' type-id='type-id-1093' size-in-bits='64' id='type-id-2009'/>
    <pointer-type-def type-id='type-id-1093' size-in-bits='64' id='type-id-2010'/>
    <reference-type-def kind='lvalue' type-id='type-id-1096' size-in-bits='64' id='type-id-2011'/>
    <pointer-type-def type-id='type-id-1096' size-in-bits='64' id='type-id-2012'/>
    <pointer-type-def type-id='type-id-1099' size-in-bits='64' id='type-id-2013'/>
    <pointer-type-def type-id='type-id-1102' size-in-bits='64' id='type-id-2014'/>
    <pointer-type-def type-id='type-id-1105' size-in-bits='64' id='type-id-2015'/>
    <pointer-type-def type-id='type-id-1108' size-in-bits='64' id='type-id-2016'/>
    <pointer-type-def type-id='type-id-1111' size-in-bits='64' id='type-id-2017'/>
    <pointer-type-def type-id='type-id-1114' size-in-bits='64' id='type-id-2018'/>
    <pointer-type-def type-id='type-id-1117' size-in-bits='64' id='type-id-2019'/>
    <qualified-type-def type-id='type-id-2020' id='type-id-2021'/>
    <reference-type-def kind='lvalue' type-id='type-id-1120' size-in-bits='64' id='type-id-2020'/>
    <pointer-type-def type-id='type-id-1120' size-in-bits='64' id='type-id-2022'/>
    <reference-type-def kind='lvalue' type-id='type-id-1123' size-in-bits='64' id='type-id-2023'/>
    <pointer-type-def type-id='type-id-1123' size-in-bits='64' id='type-id-2024'/>
    <qualified-type-def type-id='type-id-2025' id='type-id-2026'/>
    <reference-type-def kind='lvalue' type-id='type-id-1126' size-in-bits='64' id='type-id-2025'/>
    <pointer-type-def type-id='type-id-1126' size-in-bits='64' id='type-id-2027'/>
    <reference-type-def kind='lvalue' type-id='type-id-1130' size-in-bits='64' id='type-id-2028'/>
    <pointer-type-def type-id='type-id-1130' size-in-bits='64' id='type-id-2029'/>
    <pointer-type-def type-id='type-id-1133' size-in-bits='64' id='type-id-2030'/>
    <reference-type-def kind='lvalue' type-id='type-id-1136' size-in-bits='64' id='type-id-2031'/>
    <pointer-type-def type-id='type-id-1136' size-in-bits='64' id='type-id-2032'/>
    <reference-type-def kind='lvalue' type-id='type-id-1139' size-in-bits='64' id='type-id-2033'/>
    <pointer-type-def type-id='type-id-1139' size-in-bits='64' id='type-id-2034'/>
    <qualified-type-def type-id='type-id-2035' id='type-id-2036'/>
    <reference-type-def kind='lvalue' type-id='type-id-1142' size-in-bits='64' id='type-id-2035'/>
    <pointer-type-def type-id='type-id-1142' size-in-bits='64' id='type-id-2037'/>
    <pointer-type-def type-id='type-id-2038' size-in-bits='64' id='type-id-2039'/>
    <pointer-type-def type-id='type-id-2040' size-in-bits='64' id='type-id-2041'/>
    <pointer-type-def type-id='type-id-2042' size-in-bits='64' id='type-id-2043'/>
    <pointer-type-def type-id='type-id-2044' size-in-bits='64' id='type-id-2045'/>
    <pointer-type-def type-id='type-id-2046' size-in-bits='64' id='type-id-2047'/>
    <pointer-type-def type-id='type-id-2048' size-in-bits='64' id='type-id-2049'/>
    <pointer-type-def type-id='type-id-2050' size-in-bits='64' id='type-id-2051'/>
    <pointer-type-def type-id='type-id-2052' size-in-bits='64' id='type-id-2053'/>
    <pointer-type-def type-id='type-id-2054' size-in-bits='64' id='type-id-2055'/>
    <pointer-type-def type-id='type-id-2056' size-in-bits='64' id='type-id-2057'/>
    <pointer-type-def type-id='type-id-2058' size-in-bits='64' id='type-id-2059'/>
    <reference-type-def kind='lvalue' type-id='type-id-1145' size-in-bits='64' id='type-id-2060'/>
    <pointer-type-def type-id='type-id-1145' size-in-bits='64' id='type-id-2061'/>
    <reference-type-def kind='lvalue' type-id='type-id-2062' size-in-bits='64' id='type-id-2063'/>
    <pointer-type-def type-id='type-id-2062' size-in-bits='64' id='type-id-2064'/>
    <qualified-type-def type-id='type-id-2064' const='yes' id='type-id-2065'/>
    <reference-type-def kind='lvalue' type-id='type-id-2065' size-in-bits='64' id='type-id-2066'/>
    <reference-type-def kind='lvalue' type-id='type-id-2064' size-in-bits='64' id='type-id-2067'/>
    <qualified-type-def type-id='type-id-2068' id='type-id-2069'/>
    <reference-type-def kind='lvalue' type-id='type-id-37' size-in-bits='64' id='type-id-2068'/>
    <qualified-type-def type-id='type-id-2070' id='type-id-2071'/>
    <reference-type-def kind='rvalue' type-id='type-id-37' size-in-bits='64' id='type-id-2070'/>
    <pointer-type-def type-id='type-id-37' size-in-bits='64' id='type-id-2072'/>
    <qualified-type-def type-id='type-id-2072' const='yes' id='type-id-2073'/>
    <reference-type-def kind='lvalue' type-id='type-id-2073' size-in-bits='64' id='type-id-2074'/>
    <qualified-type-def type-id='type-id-2075' id='type-id-2076'/>
    <reference-type-def kind='lvalue' type-id='type-id-2072' size-in-bits='64' id='type-id-2075'/>
    <pointer-type-def type-id='type-id-2077' size-in-bits='64' id='type-id-2078'/>
    <reference-type-def kind='lvalue' type-id='type-id-1154' size-in-bits='64' id='type-id-2079'/>
    <pointer-type-def type-id='type-id-1154' size-in-bits='64' id='type-id-2080'/>
    <reference-type-def kind='lvalue' type-id='type-id-1162' size-in-bits='64' id='type-id-2081'/>
    <pointer-type-def type-id='type-id-1162' size-in-bits='64' id='type-id-2082'/>
    <reference-type-def kind='lvalue' type-id='type-id-1169' size-in-bits='64' id='type-id-2083'/>
    <pointer-type-def type-id='type-id-1169' size-in-bits='64' id='type-id-2084'/>
    <reference-type-def kind='lvalue' type-id='type-id-1176' size-in-bits='64' id='type-id-2085'/>
    <pointer-type-def type-id='type-id-1176' size-in-bits='64' id='type-id-2086'/>
    <reference-type-def kind='lvalue' type-id='type-id-1183' size-in-bits='64' id='type-id-2087'/>
    <pointer-type-def type-id='type-id-1183' size-in-bits='64' id='type-id-2088'/>
    <reference-type-def kind='lvalue' type-id='type-id-1189' size-in-bits='64' id='type-id-2089'/>
    <pointer-type-def type-id='type-id-1189' size-in-bits='64' id='type-id-2090'/>
    <reference-type-def kind='lvalue' type-id='type-id-1194' size-in-bits='64' id='type-id-2091'/>
    <pointer-type-def type-id='type-id-1194' size-in-bits='64' id='type-id-2092'/>
    <reference-type-def kind='lvalue' type-id='type-id-1198' size-in-bits='64' id='type-id-2093'/>
    <pointer-type-def type-id='type-id-2094' size-in-bits='64' id='type-id-2095'/>
    <reference-type-def kind='lvalue' type-id='type-id-1202' size-in-bits='64' id='type-id-2096'/>
    <reference-type-def kind='rvalue' type-id='type-id-1202' size-in-bits='64' id='type-id-2097'/>
    <pointer-type-def type-id='type-id-1202' size-in-bits='64' id='type-id-2098'/>
    <reference-type-def kind='lvalue' type-id='type-id-1206' size-in-bits='64' id='type-id-2099'/>
    <pointer-type-def type-id='type-id-1210' size-in-bits='64' id='type-id-2100'/>
    <pointer-type-def type-id='type-id-1213' size-in-bits='64' id='type-id-2101'/>
    <pointer-type-def type-id='type-id-1216' size-in-bits='64' id='type-id-2102'/>
    <pointer-type-def type-id='type-id-1219' size-in-bits='64' id='type-id-2103'/>
    <reference-type-def kind='lvalue' type-id='type-id-2104' size-in-bits='64' id='type-id-2105'/>
    <pointer-type-def type-id='type-id-2106' size-in-bits='64' id='type-id-2107'/>
    <pointer-type-def type-id='type-id-2108' size-in-bits='64' id='type-id-2109'/>
    <reference-type-def kind='lvalue' type-id='type-id-2110' size-in-bits='64' id='type-id-2111'/>
    <reference-type-def kind='lvalue' type-id='type-id-1258' size-in-bits='64' id='type-id-2112'/>
    <reference-type-def kind='rvalue' type-id='type-id-1258' size-in-bits='64' id='type-id-2113'/>
    <pointer-type-def type-id='type-id-1258' size-in-bits='64' id='type-id-2114'/>
    <reference-type-def kind='rvalue' type-id='type-id-1265' size-in-bits='64' id='type-id-2115'/>
    <reference-type-def kind='lvalue' type-id='type-id-1268' size-in-bits='64' id='type-id-2116'/>
    <reference-type-def kind='rvalue' type-id='type-id-1268' size-in-bits='64' id='type-id-2117'/>
    <pointer-type-def type-id='type-id-1268' size-in-bits='64' id='type-id-2118'/>
    <reference-type-def kind='rvalue' type-id='type-id-1275' size-in-bits='64' id='type-id-2119'/>
    <reference-type-def kind='lvalue' type-id='type-id-1278' size-in-bits='64' id='type-id-2120'/>
    <reference-type-def kind='rvalue' type-id='type-id-1278' size-in-bits='64' id='type-id-2121'/>
    <pointer-type-def type-id='type-id-1278' size-in-bits='64' id='type-id-2122'/>
    <reference-type-def kind='rvalue' type-id='type-id-1285' size-in-bits='64' id='type-id-2123'/>
    <reference-type-def kind='lvalue' type-id='type-id-1288' size-in-bits='64' id='type-id-2124'/>
    <reference-type-def kind='lvalue' type-id='type-id-1294' size-in-bits='64' id='type-id-2125'/>
    <reference-type-def kind='rvalue' type-id='type-id-1294' size-in-bits='64' id='type-id-2126'/>
    <pointer-type-def type-id='type-id-1294' size-in-bits='64' id='type-id-2127'/>
    <reference-type-def kind='rvalue' type-id='type-id-1301' size-in-bits='64' id='type-id-2128'/>
    <reference-type-def kind='lvalue' type-id='type-id-1304' size-in-bits='64' id='type-id-2129'/>
    <reference-type-def kind='lvalue' type-id='type-id-1310' size-in-bits='64' id='type-id-2130'/>
    <reference-type-def kind='rvalue' type-id='type-id-1310' size-in-bits='64' id='type-id-2131'/>
    <pointer-type-def type-id='type-id-1310' size-in-bits='64' id='type-id-2132'/>
    <qualified-type-def type-id='type-id-2132' const='yes' id='type-id-2133'/>
    <reference-type-def kind='rvalue' type-id='type-id-1317' size-in-bits='64' id='type-id-2134'/>
    <reference-type-def kind='lvalue' type-id='type-id-1320' size-in-bits='64' id='type-id-2135'/>
    <pointer-type-def type-id='type-id-2136' size-in-bits='64' id='type-id-2137'/>
    <reference-type-def kind='lvalue' type-id='type-id-1328' size-in-bits='64' id='type-id-2138'/>
    <pointer-type-def type-id='type-id-1328' size-in-bits='64' id='type-id-2139'/>
    <qualified-type-def type-id='type-id-2139' const='yes' id='type-id-2140'/>
    <reference-type-def kind='rvalue' type-id='type-id-2141' size-in-bits='64' id='type-id-2142'/>
    <reference-type-def kind='lvalue' type-id='type-id-2143' size-in-bits='64' id='type-id-2144'/>
    <pointer-type-def type-id='type-id-2145' size-in-bits='64' id='type-id-2146'/>
    <reference-type-def kind='lvalue' type-id='type-id-1334' size-in-bits='64' id='type-id-2147'/>
    <reference-type-def kind='rvalue' type-id='type-id-1334' size-in-bits='64' id='type-id-2148'/>
    <pointer-type-def type-id='type-id-1334' size-in-bits='64' id='type-id-2149'/>
    <reference-type-def kind='lvalue' type-id='type-id-1337' size-in-bits='64' id='type-id-2150'/>
    <pointer-type-def type-id='type-id-1337' size-in-bits='64' id='type-id-2151'/>
    <reference-type-def kind='lvalue' type-id='type-id-1341' size-in-bits='64' id='type-id-2152'/>
    <reference-type-def kind='rvalue' type-id='type-id-1341' size-in-bits='64' id='type-id-2153'/>
    <pointer-type-def type-id='type-id-1341' size-in-bits='64' id='type-id-2154'/>
    <reference-type-def kind='lvalue' type-id='type-id-1345' size-in-bits='64' id='type-id-2155'/>
    <reference-type-def kind='rvalue' type-id='type-id-1345' size-in-bits='64' id='type-id-2156'/>
    <pointer-type-def type-id='type-id-1345' size-in-bits='64' id='type-id-2157'/>
    <reference-type-def kind='lvalue' type-id='type-id-1349' size-in-bits='64' id='type-id-2158'/>
    <reference-type-def kind='rvalue' type-id='type-id-1349' size-in-bits='64' id='type-id-2159'/>
    <pointer-type-def type-id='type-id-1349' size-in-bits='64' id='type-id-2160'/>
    <reference-type-def kind='lvalue' type-id='type-id-1353' size-in-bits='64' id='type-id-2161'/>
    <reference-type-def kind='rvalue' type-id='type-id-1353' size-in-bits='64' id='type-id-2162'/>
    <pointer-type-def type-id='type-id-1353' size-in-bits='64' id='type-id-2163'/>
    <qualified-type-def type-id='type-id-2164' id='type-id-2165'/>
    <reference-type-def kind='lvalue' type-id='type-id-2166' size-in-bits='64' id='type-id-2164'/>
    <qualified-type-def type-id='type-id-2167' id='type-id-2168'/>
    <reference-type-def kind='lvalue' type-id='type-id-2169' size-in-bits='64' id='type-id-2167'/>
    <reference-type-def kind='rvalue' type-id='type-id-2170' size-in-bits='64' id='type-id-2171'/>
    <reference-type-def kind='rvalue' type-id='type-id-2172' size-in-bits='64' id='type-id-2173'/>
    <qualified-type-def type-id='type-id-2174' id='type-id-2175'/>
    <reference-type-def kind='lvalue' type-id='type-id-2176' size-in-bits='64' id='type-id-2174'/>
    <qualified-type-def type-id='type-id-2177' id='type-id-2178'/>
    <reference-type-def kind='lvalue' type-id='type-id-2179' size-in-bits='64' id='type-id-2177'/>
    <reference-type-def kind='rvalue' type-id='type-id-2179' size-in-bits='64' id='type-id-2180'/>
    <reference-type-def kind='rvalue' type-id='type-id-2181' size-in-bits='64' id='type-id-2182'/>
    <reference-type-def kind='rvalue' type-id='type-id-2183' size-in-bits='64' id='type-id-2184'/>
    <reference-type-def kind='rvalue' type-id='type-id-2185' size-in-bits='64' id='type-id-2186'/>
    <reference-type-def kind='rvalue' type-id='type-id-2187' size-in-bits='64' id='type-id-2188'/>
    <reference-type-def kind='lvalue' type-id='type-id-1356' size-in-bits='64' id='type-id-2189'/>
    <pointer-type-def type-id='type-id-1356' size-in-bits='64' id='type-id-2190'/>
    <reference-type-def kind='lvalue' type-id='type-id-1360' size-in-bits='64' id='type-id-2191'/>
    <pointer-type-def type-id='type-id-1360' size-in-bits='64' id='type-id-2192'/>
    <reference-type-def kind='lvalue' type-id='type-id-1364' size-in-bits='64' id='type-id-2193'/>
    <reference-type-def kind='rvalue' type-id='type-id-1364' size-in-bits='64' id='type-id-2194'/>
    <pointer-type-def type-id='type-id-1364' size-in-bits='64' id='type-id-2195'/>
    <reference-type-def kind='rvalue' type-id='type-id-1374' size-in-bits='64' id='type-id-2196'/>
    <qualified-type-def type-id='type-id-2197' id='type-id-2198'/>
    <reference-type-def kind='lvalue' type-id='type-id-1377' size-in-bits='64' id='type-id-2197'/>
    <reference-type-def kind='rvalue' type-id='type-id-1377' size-in-bits='64' id='type-id-2199'/>
    <pointer-type-def type-id='type-id-1377' size-in-bits='64' id='type-id-2200'/>
    <reference-type-def kind='lvalue' type-id='type-id-1383' size-in-bits='64' id='type-id-2201'/>
    <pointer-type-def type-id='type-id-1383' size-in-bits='64' id='type-id-2202'/>
    <reference-type-def kind='lvalue' type-id='type-id-2203' size-in-bits='64' id='type-id-2204'/>
    <qualified-type-def type-id='type-id-2205' id='type-id-2206'/>
    <reference-type-def kind='lvalue' type-id='type-id-1387' size-in-bits='64' id='type-id-2205'/>
    <reference-type-def kind='rvalue' type-id='type-id-1387' size-in-bits='64' id='type-id-2207'/>
    <pointer-type-def type-id='type-id-1387' size-in-bits='64' id='type-id-2208'/>
    <reference-type-def kind='lvalue' type-id='type-id-1390' size-in-bits='64' id='type-id-2209'/>
    <reference-type-def kind='rvalue' type-id='type-id-1390' size-in-bits='64' id='type-id-2210'/>
    <pointer-type-def type-id='type-id-1390' size-in-bits='64' id='type-id-2211'/>
    <reference-type-def kind='lvalue' type-id='type-id-1394' size-in-bits='64' id='type-id-2212'/>
    <reference-type-def kind='rvalue' type-id='type-id-1394' size-in-bits='64' id='type-id-2213'/>
    <pointer-type-def type-id='type-id-1394' size-in-bits='64' id='type-id-2214'/>
    <reference-type-def kind='lvalue' type-id='type-id-1402' size-in-bits='64' id='type-id-2215'/>
    <reference-type-def kind='rvalue' type-id='type-id-1402' size-in-bits='64' id='type-id-2216'/>
    <pointer-type-def type-id='type-id-1402' size-in-bits='64' id='type-id-2217'/>
    <qualified-type-def type-id='type-id-2217' const='yes' id='type-id-2218'/>
    <reference-type-def kind='lvalue' type-id='type-id-1406' size-in-bits='64' id='type-id-2219'/>
    <reference-type-def kind='lvalue' type-id='type-id-1409' size-in-bits='64' id='type-id-2220'/>
    <reference-type-def kind='rvalue' type-id='type-id-1409' size-in-bits='64' id='type-id-2221'/>
    <pointer-type-def type-id='type-id-1409' size-in-bits='64' id='type-id-2222'/>
    <reference-type-def kind='lvalue' type-id='type-id-1414' size-in-bits='64' id='type-id-2223'/>
    <reference-type-def kind='lvalue' type-id='type-id-1417' size-in-bits='64' id='type-id-2224'/>
    <reference-type-def kind='rvalue' type-id='type-id-1417' size-in-bits='64' id='type-id-2225'/>
    <pointer-type-def type-id='type-id-1417' size-in-bits='64' id='type-id-2226'/>
    <reference-type-def kind='rvalue' type-id='type-id-1430' size-in-bits='64' id='type-id-2227'/>
    <reference-type-def kind='lvalue' type-id='type-id-1433' size-in-bits='64' id='type-id-2228'/>
    <reference-type-def kind='lvalue' type-id='type-id-1439' size-in-bits='64' id='type-id-2229'/>
    <reference-type-def kind='rvalue' type-id='type-id-1439' size-in-bits='64' id='type-id-2230'/>
    <pointer-type-def type-id='type-id-1439' size-in-bits='64' id='type-id-2231'/>
    <reference-type-def kind='lvalue' type-id='type-id-1446' size-in-bits='64' id='type-id-2232'/>
    <reference-type-def kind='rvalue' type-id='type-id-1446' size-in-bits='64' id='type-id-2233'/>
    <pointer-type-def type-id='type-id-1446' size-in-bits='64' id='type-id-2234'/>
    <reference-type-def kind='rvalue' type-id='type-id-1453' size-in-bits='64' id='type-id-2235'/>
    <reference-type-def kind='lvalue' type-id='type-id-1456' size-in-bits='64' id='type-id-2236'/>
    <reference-type-def kind='rvalue' type-id='type-id-1456' size-in-bits='64' id='type-id-2237'/>
    <pointer-type-def type-id='type-id-1456' size-in-bits='64' id='type-id-2238'/>
    <reference-type-def kind='rvalue' type-id='type-id-1463' size-in-bits='64' id='type-id-2239'/>
    <reference-type-def kind='lvalue' type-id='type-id-2240' size-in-bits='64' id='type-id-2241'/>
    <reference-type-def kind='lvalue' type-id='type-id-1466' size-in-bits='64' id='type-id-2242'/>
    <reference-type-def kind='rvalue' type-id='type-id-1466' size-in-bits='64' id='type-id-2243'/>
    <pointer-type-def type-id='type-id-1466' size-in-bits='64' id='type-id-2244'/>
    <reference-type-def kind='rvalue' type-id='type-id-1473' size-in-bits='64' id='type-id-2245'/>
    <reference-type-def kind='lvalue' type-id='type-id-1476' size-in-bits='64' id='type-id-2246'/>
    <reference-type-def kind='rvalue' type-id='type-id-1476' size-in-bits='64' id='type-id-2247'/>
    <pointer-type-def type-id='type-id-1476' size-in-bits='64' id='type-id-2248'/>
    <reference-type-def kind='rvalue' type-id='type-id-1483' size-in-bits='64' id='type-id-2249'/>
    <reference-type-def kind='lvalue' type-id='type-id-1486' size-in-bits='64' id='type-id-2250'/>
    <reference-type-def kind='rvalue' type-id='type-id-1486' size-in-bits='64' id='type-id-2251'/>
    <pointer-type-def type-id='type-id-1486' size-in-bits='64' id='type-id-2252'/>
    <reference-type-def kind='rvalue' type-id='type-id-1493' size-in-bits='64' id='type-id-2253'/>
    <pointer-type-def type-id='type-id-2254' size-in-bits='64' id='type-id-2255'/>
    <qualified-type-def type-id='type-id-2256' id='type-id-2257'/>
    <reference-type-def kind='lvalue' type-id='type-id-1496' size-in-bits='64' id='type-id-2256'/>
    <qualified-type-def type-id='type-id-2258' id='type-id-2259'/>
    <reference-type-def kind='rvalue' type-id='type-id-1496' size-in-bits='64' id='type-id-2258'/>
    <pointer-type-def type-id='type-id-1496' size-in-bits='64' id='type-id-2260'/>
    <qualified-type-def type-id='type-id-2260' const='yes' id='type-id-2261'/>
    <qualified-type-def type-id='type-id-2262' id='type-id-2263'/>
    <reference-type-def kind='rvalue' type-id='type-id-1507' size-in-bits='64' id='type-id-2262'/>
    <reference-type-def kind='lvalue' type-id='type-id-1510' size-in-bits='64' id='type-id-2264'/>
    <reference-type-def kind='rvalue' type-id='type-id-1510' size-in-bits='64' id='type-id-2265'/>
    <pointer-type-def type-id='type-id-1510' size-in-bits='64' id='type-id-2266'/>
    <reference-type-def kind='rvalue' type-id='type-id-1517' size-in-bits='64' id='type-id-2267'/>
    <pointer-type-def type-id='type-id-63' size-in-bits='64' id='type-id-2268'/>
    <pointer-type-def type-id='type-id-84' size-in-bits='64' id='type-id-2269'/>
    <pointer-type-def type-id='type-id-21' size-in-bits='64' id='type-id-2270'/>
    <pointer-type-def type-id='type-id-67' size-in-bits='64' id='type-id-2271'/>
    <reference-type-def kind='lvalue' type-id='type-id-44' size-in-bits='64' id='type-id-2272'/>
    <reference-type-def kind='lvalue' type-id='type-id-22' size-in-bits='64' id='type-id-2273'/>
    <pointer-type-def type-id='type-id-22' size-in-bits='64' id='type-id-2274'/>
    <reference-type-def kind='lvalue' type-id='type-id-50' size-in-bits='64' id='type-id-2275'/>
    <pointer-type-def type-id='type-id-50' size-in-bits='64' id='type-id-2276'/>
    <pointer-type-def type-id='type-id-2277' size-in-bits='64' id='type-id-2278'/>
    <pointer-type-def type-id='type-id-2279' size-in-bits='64' id='type-id-25'/>
    <pointer-type-def type-id='type-id-57' size-in-bits='64' id='type-id-23'/>
    <qualified-type-def type-id='type-id-984' volatile='yes' id='type-id-1535'/>
    <pointer-type-def type-id='type-id-1535' size-in-bits='64' id='type-id-2280'/>
    <qualified-type-def type-id='type-id-1145' volatile='yes' id='type-id-2281'/>
    <pointer-type-def type-id='type-id-2281' size-in-bits='64' id='type-id-2282'/>
    <pointer-type-def type-id='type-id-58' size-in-bits='64' id='type-id-2283'/>
    <pointer-type-def type-id='type-id-2283' size-in-bits='64' id='type-id-2284'/>
    <namespace-decl name='std'>
      <enum-decl name='_Ios_Openmode' filepath='/usr/include/c++/4.9/bits/ios_base.h' line='103' column='1' id='type-id-2285'>
        <underlying-type type-id='type-id-40'/>
        <enumerator name='_S_app' value='1'/>
        <enumerator name='_S_ate' value='2'/>
        <enumerator name='_S_bin' value='4'/>
        <enumerator name='_S_in' value='8'/>
        <enumerator name='_S_out' value='16'/>
        <enumerator name='_S_trunc' value='32'/>
        <enumerator name='_S_ios_openmode_end' value='65536'/>
      </enum-decl>
      <class-decl name='basic_string&lt;char, std::char_traits&lt;char&gt;, std::allocator&lt;char&gt; &gt;' size-in-bits='64' visibility='default' filepath='/usr/include/c++/4.9/bits/basic_string.h' line='112' column='1' id='type-id-37'>
        <member-type access='private'>
          <class-decl name='_Alloc_hider' size-in-bits='64' is-struct='yes' visibility='default' filepath='/usr/include/c++/4.9/bits/basic_string.h' line='272' column='1' id='type-id-2077'>
            <base-class access='public' layout-offset-in-bits='0' type-id='type-id-1084'/>
            <data-member access='public' layout-offset-in-bits='0'>
              <var-decl name='_M_p' type-id='type-id-72' visibility='default' filepath='/usr/include/c++/4.9/bits/basic_string.h' line='277' column='1'/>
            </data-member>
            <member-function access='public' constructor='yes'>
              <function-decl name='_Alloc_hider' filepath='/usr/include/c++/4.9/bits/basic_string.h' line='274' column='1' visibility='default' binding='global' size-in-bits='64'>
                <parameter type-id='type-id-2078' is-artificial='yes'/>
                <parameter type-id='type-id-72'/>
                <parameter type-id='type-id-1086'/>
                <return type-id='type-id-57'/>
              </function-decl>
            </member-function>
          </class-decl>
        </member-type>
        <member-type access='public'>
          <typedef-decl name='size_type' type-id='type-id-2286' filepath='/usr/include/c++/4.9/bits/basic_string.h' line='121' column='1' id='type-id-1157'/>
        </member-type>
        <member-type access='public'>
          <typedef-decl name='allocator_type' type-id='type-id-1084' filepath='/usr/include/c++/4.9/bits/basic_string.h' line='120' column='1' id='type-id-2287'/>
        </member-type>
        <member-type access='public'>
          <typedef-decl name='reference' type-id='type-id-2289' filepath='/usr/include/c++/4.9/bits/basic_string.h' line='123' column='1' id='type-id-2288'/>
        </member-type>
        <member-type access='public'>
          <typedef-decl name='const_reference' type-id='type-id-2291' filepath='/usr/include/c++/4.9/bits/basic_string.h' line='124' column='1' id='type-id-2290'/>
        </member-type>
        <member-type access='public'>
          <typedef-decl name='iterator' type-id='type-id-131' filepath='/usr/include/c++/4.9/bits/basic_string.h' line='127' column='1' id='type-id-2292'/>
        </member-type>
        <member-type access='public'>
          <typedef-decl name='const_iterator' type-id='type-id-128' filepath='/usr/include/c++/4.9/bits/basic_string.h' line='129' column='1' id='type-id-2293'/>
        </member-type>
        <member-type access='public'>
          <typedef-decl name='const_reverse_iterator' type-id='type-id-2295' filepath='/usr/include/c++/4.9/bits/basic_string.h' line='130' column='1' id='type-id-2294'/>
        </member-type>
        <member-type access='public'>
          <typedef-decl name='reverse_iterator' type-id='type-id-2297' filepath='/usr/include/c++/4.9/bits/basic_string.h' line='131' column='1' id='type-id-2296'/>
        </member-type>
        <member-type access='private'>
          <class-decl name='_Rep_base' size-in-bits='192' is-struct='yes' visibility='default' filepath='/usr/include/c++/4.9/bits/basic_string.h' line='148' column='1' id='type-id-2298'>
            <data-member access='public' layout-offset-in-bits='0'>
              <var-decl name='_M_length' type-id='type-id-1157' visibility='default' filepath='/usr/include/c++/4.9/bits/basic_string.h' line='150' column='1'/>
            </data-member>
            <data-member access='public' layout-offset-in-bits='64'>
              <var-decl name='_M_capacity' type-id='type-id-1157' visibility='default' filepath='/usr/include/c++/4.9/bits/basic_string.h' line='151' column='1'/>
            </data-member>
            <data-member access='public' layout-offset-in-bits='128'>
              <var-decl name='_M_refcount' type-id='type-id-61' visibility='default' filepath='/usr/include/c++/4.9/bits/basic_string.h' line='152' column='1'/>
            </data-member>
          </class-decl>
        </member-type>
        <member-type access='private'>
          <class-decl name='_Rep' size-in-bits='192' is-struct='yes' visibility='default' filepath='/usr/include/c++/4.9/bits/basic_string.h' line='155' column='1' id='type-id-1154'>
            <base-class access='public' layout-offset-in-bits='0' type-id='type-id-2298'/>
            <data-member access='public' static='yes'>
              <var-decl name='_S_max_size' type-id='type-id-1158' visibility='default' filepath='/usr/include/c++/4.9/bits/basic_string.tcc' line='50' column='1'/>
            </data-member>
            <data-member access='public' static='yes'>
              <var-decl name='_S_terminal' type-id='type-id-379' visibility='default' filepath='/usr/include/c++/4.9/bits/basic_string.tcc' line='55' column='1'/>
            </data-member>
            <data-member access='public' static='yes'>
              <var-decl name='_S_empty_rep_storage' type-id='type-id-53' visibility='default' filepath='/usr/include/c++/4.9/bits/basic_string.tcc' line='66' column='1'/>
            </data-member>
          </class-decl>
        </member-type>
        <data-member access='public' static='yes'>
          <var-decl name='npos' type-id='type-id-1158' visibility='default' filepath='/usr/include/c++/4.9/bits/basic_string.h' line='285' column='1'/>
        </data-member>
        <data-member access='private' layout-offset-in-bits='0'>
          <var-decl name='_M_dataplus' type-id='type-id-2077' visibility='default' filepath='/usr/include/c++/4.9/bits/basic_string.h' line='289' column='1'/>
        </data-member>
        <member-function access='public'>
          <function-decl name='basic_string' filepath='/usr/include/c++/4.9/bits/basic_string.h' line='442' column='1' visibility='default' binding='global' size-in-bits='64'>
            <parameter type-id='type-id-2072' is-artificial='yes'/>
            <return type-id='type-id-57'/>
          </function-decl>
        </member-function>
        <member-function access='public'>
          <function-decl name='basic_string' filepath='/usr/include/c++/4.9/bits/basic_string.h' line='453' column='1' visibility='default' binding='global' size-in-bits='64'>
            <parameter type-id='type-id-2072' is-artificial='yes'/>
            <parameter type-id='type-id-1086'/>
            <return type-id='type-id-57'/>
          </function-decl>
        </member-function>
        <member-function access='public'>
          <function-decl name='basic_string' filepath='/usr/include/c++/4.9/bits/basic_string.h' line='460' column='1' visibility='default' binding='global' size-in-bits='64'>
            <parameter type-id='type-id-2072' is-artificial='yes'/>
            <parameter type-id='type-id-1149'/>
            <return type-id='type-id-57'/>
          </function-decl>
        </member-function>
        <member-function access='public'>
          <function-decl name='basic_string' filepath='/usr/include/c++/4.9/bits/basic_string.h' line='467' column='1' visibility='default' binding='global' size-in-bits='64'>
            <parameter type-id='type-id-2072' is-artificial='yes'/>
            <parameter type-id='type-id-1149'/>
            <parameter type-id='type-id-1157'/>
            <parameter type-id='type-id-1157'/>
            <return type-id='type-id-57'/>
          </function-decl>
        </member-function>
        <member-function access='public'>
          <function-decl name='basic_string' filepath='/usr/include/c++/4.9/bits/basic_string.h' line='476' column='1' visibility='default' binding='global' size-in-bits='64'>
            <parameter type-id='type-id-2072' is-artificial='yes'/>
            <parameter type-id='type-id-1149'/>
            <parameter type-id='type-id-1157'/>
            <parameter type-id='type-id-1157'/>
            <parameter type-id='type-id-1086'/>
            <return type-id='type-id-57'/>
          </function-decl>
        </member-function>
        <member-function access='public'>
          <function-decl name='basic_string' filepath='/usr/include/c++/4.9/bits/basic_string.h' line='488' column='1' visibility='default' binding='global' size-in-bits='64'>
            <parameter type-id='type-id-2072' is-artificial='yes'/>
            <parameter type-id='type-id-85'/>
            <parameter type-id='type-id-1157'/>
            <parameter type-id='type-id-1086'/>
            <return type-id='type-id-57'/>
          </function-decl>
        </member-function>
        <member-function access='public'>
          <function-decl name='basic_string' filepath='/usr/include/c++/4.9/bits/basic_string.h' line='495' column='1' visibility='default' binding='global' size-in-bits='64'>
            <parameter type-id='type-id-2072' is-artificial='yes'/>
            <parameter type-id='type-id-85'/>
            <parameter type-id='type-id-1086'/>
            <return type-id='type-id-57'/>
          </function-decl>
        </member-function>
        <member-function access='public'>
          <function-decl name='basic_string' filepath='/usr/include/c++/4.9/bits/basic_string.h' line='502' column='1' visibility='default' binding='global' size-in-bits='64'>
            <parameter type-id='type-id-2072' is-artificial='yes'/>
            <parameter type-id='type-id-1157'/>
            <parameter type-id='type-id-5'/>
            <parameter type-id='type-id-1086'/>
            <return type-id='type-id-57'/>
          </function-decl>
        </member-function>
        <member-function access='public'>
          <function-decl name='basic_string' filepath='/usr/include/c++/4.9/bits/basic_string.h' line='512' column='1' visibility='default' binding='global' size-in-bits='64'>
            <parameter type-id='type-id-2072' is-artificial='yes'/>
            <parameter type-id='type-id-2070'/>
            <return type-id='type-id-57'/>
          </function-decl>
        </member-function>
        <member-function access='public'>
          <function-decl name='basic_string' filepath='/usr/include/c++/4.9/bits/basic_string.h' line='530' column='1' visibility='default' binding='global' size-in-bits='64'>
            <parameter type-id='type-id-2072' is-artificial='yes'/>
            <parameter type-id='type-id-1213'/>
            <parameter type-id='type-id-1086'/>
            <return type-id='type-id-57'/>
          </function-decl>
        </member-function>
        <member-function access='public' destructor='yes'>
          <function-decl name='~basic_string' filepath='/usr/include/c++/4.9/bits/basic_string.h' line='546' column='1' visibility='default' binding='global' size-in-bits='64'>
            <parameter type-id='type-id-2072' is-artificial='yes'/>
            <parameter type-id='type-id-29' is-artificial='yes'/>
            <return type-id='type-id-57'/>
          </function-decl>
        </member-function>
      </class-decl>
      <class-decl name='allocator&lt;char&gt;' size-in-bits='8' visibility='default' filepath='/usr/include/c++/4.9/bits/allocator.h' line='92' column='1' id='type-id-1084'>
        <base-class access='public' layout-offset-in-bits='0' type-id='type-id-148'/>
        <member-type access='public'>
          <typedef-decl name='size_type' type-id='type-id-1381' filepath='/usr/include/c++/4.9/bits/allocator.h' line='95' column='1' id='type-id-2286'/>
        </member-type>
        <member-type access='public'>
          <typedef-decl name='reference' type-id='type-id-224' filepath='/usr/include/c++/4.9/bits/allocator.h' line='99' column='1' id='type-id-2289'/>
        </member-type>
        <member-type access='public'>
          <typedef-decl name='const_reference' type-id='type-id-380' filepath='/usr/include/c++/4.9/bits/allocator.h' line='100' column='1' id='type-id-2291'/>
        </member-type>
        <member-function access='public'>
          <function-decl name='allocator' filepath='/usr/include/c++/4.9/bits/allocator.h' line='113' column='1' visibility='default' binding='global' size-in-bits='64'>
            <parameter type-id='type-id-2005' is-artificial='yes'/>
            <return type-id='type-id-57'/>
          </function-decl>
        </member-function>
        <member-function access='public'>
          <function-decl name='allocator' filepath='/usr/include/c++/4.9/bits/allocator.h' line='115' column='1' visibility='default' binding='global' size-in-bits='64'>
            <parameter type-id='type-id-2005' is-artificial='yes'/>
            <parameter type-id='type-id-1086'/>
            <return type-id='type-id-57'/>
          </function-decl>
        </member-function>
        <member-function access='public' destructor='yes'>
          <function-decl name='~allocator' filepath='/usr/include/c++/4.9/bits/allocator.h' line='121' column='1' visibility='default' binding='global' size-in-bits='64'>
            <parameter type-id='type-id-2005' is-artificial='yes'/>
            <parameter type-id='type-id-29' is-artificial='yes'/>
            <return type-id='type-id-57'/>
          </function-decl>
        </member-function>
      </class-decl>
      <class-decl name='iterator_traits&lt;const std::basic_string&lt;char, std::char_traits&lt;char&gt;, std::allocator&lt;char&gt; &gt;*&gt;' size-in-bits='8' is-struct='yes' visibility='default' filepath='/usr/include/c++/4.9/bits/stl_iterator_base_types.h' line='186' column='1' id='type-id-2299'>
        <member-type access='public'>
          <typedef-decl name='difference_type' type-id='type-id-2301' filepath='/usr/include/c++/4.9/bits/stl_iterator_base_types.h' line='190' column='1' id='type-id-2300'/>
        </member-type>
        <member-type access='public'>
          <typedef-decl name='pointer' type-id='type-id-1151' filepath='/usr/include/c++/4.9/bits/stl_iterator_base_types.h' line='191' column='1' id='type-id-2302'/>
        </member-type>
        <member-type access='public'>
          <typedef-decl name='reference' type-id='type-id-1149' filepath='/usr/include/c++/4.9/bits/stl_iterator_base_types.h' line='192' column='1' id='type-id-2303'/>
        </member-type>
      </class-decl>
      <typedef-decl name='ptrdiff_t' type-id='type-id-26' filepath='/usr/include/x86_64-linux-gnu/c++/4.9/bits/c++config.h' line='189' column='1' id='type-id-2301'/>
      <class-decl name='iterator_traits&lt;std::basic_string&lt;char, std::char_traits&lt;char&gt;, std::allocator&lt;char&gt; &gt;*&gt;' size-in-bits='8' is-struct='yes' visibility='default' filepath='/usr/include/c++/4.9/bits/stl_iterator_base_types.h' line='175' column='1' id='type-id-2304'>
        <member-type access='public'>
          <typedef-decl name='value_type' type-id='type-id-37' filepath='/usr/include/c++/4.9/bits/stl_iterator_base_types.h' line='178' column='1' id='type-id-2305'/>
        </member-type>
        <member-type access='public'>
          <typedef-decl name='difference_type' type-id='type-id-2301' filepath='/usr/include/c++/4.9/bits/stl_iterator_base_types.h' line='179' column='1' id='type-id-2306'/>
        </member-type>
        <member-type access='public'>
          <typedef-decl name='pointer' type-id='type-id-2072' filepath='/usr/include/c++/4.9/bits/stl_iterator_base_types.h' line='180' column='1' id='type-id-2307'/>
        </member-type>
        <member-type access='public'>
          <typedef-decl name='reference' type-id='type-id-2068' filepath='/usr/include/c++/4.9/bits/stl_iterator_base_types.h' line='181' column='1' id='type-id-2308'/>
        </member-type>
      </class-decl>
      <typedef-decl name='size_t' type-id='type-id-50' filepath='/usr/include/x86_64-linux-gnu/c++/4.9/bits/c++config.h' line='188' column='1' id='type-id-1381'/>
      <class-decl name='iterator_traits&lt;char*&gt;' size-in-bits='8' is-struct='yes' visibility='default' filepath='/usr/include/c++/4.9/bits/stl_iterator_base_types.h' line='175' column='1' id='type-id-2309'>
        <member-type access='public'>
          <typedef-decl name='difference_type' type-id='type-id-2301' filepath='/usr/include/c++/4.9/bits/stl_iterator_base_types.h' line='179' column='1' id='type-id-2310'/>
        </member-type>
        <member-type access='public'>
          <typedef-decl name='pointer' type-id='type-id-72' filepath='/usr/include/c++/4.9/bits/stl_iterator_base_types.h' line='180' column='1' id='type-id-2311'/>
        </member-type>
        <member-type access='public'>
          <typedef-decl name='reference' type-id='type-id-224' filepath='/usr/include/c++/4.9/bits/stl_iterator_base_types.h' line='181' column='1' id='type-id-2312'/>
        </member-type>
      </class-decl>
      <class-decl name='iterator_traits&lt;char const*&gt;' size-in-bits='8' is-struct='yes' visibility='default' filepath='/usr/include/c++/4.9/bits/stl_iterator_base_types.h' line='186' column='1' id='type-id-2313'>
        <member-type access='public'>
          <typedef-decl name='difference_type' type-id='type-id-2301' filepath='/usr/include/c++/4.9/bits/stl_iterator_base_types.h' line='190' column='1' id='type-id-2314'/>
        </member-type>
        <member-type access='public'>
          <typedef-decl name='pointer' type-id='type-id-85' filepath='/usr/include/c++/4.9/bits/stl_iterator_base_types.h' line='191' column='1' id='type-id-2315'/>
        </member-type>
        <member-type access='public'>
          <typedef-decl name='reference' type-id='type-id-380' filepath='/usr/include/c++/4.9/bits/stl_iterator_base_types.h' line='192' column='1' id='type-id-2316'/>
        </member-type>
      </class-decl>
      <class-decl name='initializer_list&lt;char&gt;' size-in-bits='128' visibility='default' filepath='/usr/include/c++/4.9/initializer_list' line='47' column='1' id='type-id-1213'>
        <member-type access='public'>
          <typedef-decl name='iterator' type-id='type-id-85' filepath='/usr/include/c++/4.9/initializer_list' line='54' column='1' id='type-id-2317'/>
        </member-type>
        <member-type access='public'>
          <typedef-decl name='size_type' type-id='type-id-1381' filepath='/usr/include/c++/4.9/initializer_list' line='53' column='1' id='type-id-2318'/>
        </member-type>
        <member-type access='public'>
          <typedef-decl name='const_iterator' type-id='type-id-85' filepath='/usr/include/c++/4.9/initializer_list' line='55' column='1' id='type-id-2319'/>
        </member-type>
        <data-member access='private' layout-offset-in-bits='0'>
          <var-decl name='_M_array' type-id='type-id-2317' visibility='default' filepath='/usr/include/c++/4.9/initializer_list' line='58' column='1'/>
        </data-member>
        <data-member access='private' layout-offset-in-bits='64'>
          <var-decl name='_M_len' type-id='type-id-2318' visibility='default' filepath='/usr/include/c++/4.9/initializer_list' line='59' column='1'/>
        </data-member>
        <member-function access='private'>
          <function-decl name='initializer_list' filepath='/usr/include/c++/4.9/initializer_list' line='62' column='1' visibility='default' binding='global' size-in-bits='64'>
            <parameter type-id='type-id-2101' is-artificial='yes'/>
            <parameter type-id='type-id-2319'/>
            <parameter type-id='type-id-2318'/>
            <return type-id='type-id-57'/>
          </function-decl>
        </member-function>
        <member-function access='public'>
          <function-decl name='initializer_list' filepath='/usr/include/c++/4.9/initializer_list' line='66' column='1' visibility='default' binding='global' size-in-bits='64'>
            <parameter type-id='type-id-2101' is-artificial='yes'/>
            <return type-id='type-id-57'/>
          </function-decl>
        </member-function>
      </class-decl>
      <class-decl name='remove_reference&lt;const std::basic_string&lt;char, std::char_traits&lt;char&gt;, std::allocator&lt;char&gt; &gt;&amp;&gt;' size-in-bits='8' is-struct='yes' visibility='default' filepath='/usr/include/c++/4.9/type_traits' line='1504' column='1' id='type-id-2320'>
        <member-type access='public'>
          <typedef-decl name='type' type-id='type-id-1148' filepath='/usr/include/c++/4.9/type_traits' line='1505' column='1' id='type-id-2166'/>
        </member-type>
      </class-decl>
      <class-decl name='remove_reference&lt;std::basic_string&lt;char, std::char_traits&lt;char&gt;, std::allocator&lt;char&gt; &gt;&amp;&gt;' size-in-bits='8' is-struct='yes' visibility='default' filepath='/usr/include/c++/4.9/type_traits' line='1504' column='1' id='type-id-2321'>
        <member-type access='public'>
          <typedef-decl name='type' type-id='type-id-37' filepath='/usr/include/c++/4.9/type_traits' line='1505' column='1' id='type-id-2179'/>
        </member-type>
      </class-decl>
      <class-decl name='__add_ref&lt;mongo::BSONObjBuilder*&gt;' size-in-bits='8' is-struct='yes' visibility='default' filepath='/usr/include/c++/4.9/tuple' line='62' column='1' id='type-id-2322'>
        <member-type access='public'>
          <typedef-decl name='type' type-id='type-id-1574' filepath='/usr/include/c++/4.9/tuple' line='63' column='1' id='type-id-2323'/>
        </member-type>
      </class-decl>
      <class-decl name='vector&lt;mongo::logger::Appender&lt;mongo::logger::MessageEventEphemeral&gt;*, std::allocator&lt;mongo::logger::Appender&lt;mongo::logger::MessageEventEphemeral&gt;*&gt; &gt;' size-in-bits='192' visibility='default' filepath='/usr/include/c++/4.9/bits/stl_vector.h' line='214' column='1' id='type-id-1466'>
        <base-class access='protected' layout-offset-in-bits='0' type-id='type-id-938'/>
        <member-type access='public'>
          <typedef-decl name='value_type' type-id='type-id-1649' filepath='/usr/include/c++/4.9/bits/stl_vector.h' line='226' column='1' id='type-id-1473'/>
        </member-type>
        <member-type access='public'>
          <typedef-decl name='pointer' type-id='type-id-2325' filepath='/usr/include/c++/4.9/bits/stl_vector.h' line='227' column='1' id='type-id-2324'/>
        </member-type>
        <member-type access='public'>
          <typedef-decl name='reference' type-id='type-id-2327' filepath='/usr/include/c++/4.9/bits/stl_vector.h' line='229' column='1' id='type-id-2326'/>
        </member-type>
        <member-type access='public'>
          <typedef-decl name='const_reference' type-id='type-id-2329' filepath='/usr/include/c++/4.9/bits/stl_vector.h' line='230' column='1' id='type-id-2328'/>
        </member-type>
        <member-type access='public'>
          <typedef-decl name='iterator' type-id='type-id-2331' filepath='/usr/include/c++/4.9/bits/stl_vector.h' line='231' column='1' id='type-id-2330'/>
        </member-type>
        <member-type access='public'>
          <typedef-decl name='const_iterator' type-id='type-id-2333' filepath='/usr/include/c++/4.9/bits/stl_vector.h' line='233' column='1' id='type-id-2332'/>
        </member-type>
        <member-type access='public'>
          <typedef-decl name='const_reverse_iterator' type-id='type-id-2335' filepath='/usr/include/c++/4.9/bits/stl_vector.h' line='234' column='1' id='type-id-2334'/>
        </member-type>
        <member-type access='public'>
          <typedef-decl name='reverse_iterator' type-id='type-id-2337' filepath='/usr/include/c++/4.9/bits/stl_vector.h' line='235' column='1' id='type-id-2336'/>
        </member-type>
        <member-type access='public'>
          <typedef-decl name='size_type' type-id='type-id-1381' filepath='/usr/include/c++/4.9/bits/stl_vector.h' line='236' column='1' id='type-id-2338'/>
        </member-type>
        <member-type access='public'>
          <typedef-decl name='allocator_type' type-id='type-id-1090' filepath='/usr/include/c++/4.9/bits/stl_vector.h' line='238' column='1' id='type-id-1470'/>
        </member-type>
        <member-function access='public'>
          <function-decl name='vector' filepath='/usr/include/c++/4.9/bits/stl_vector.h' line='253' column='1' visibility='default' binding='global' size-in-bits='64'>
            <parameter type-id='type-id-2244' is-artificial='yes'/>
            <return type-id='type-id-57'/>
          </function-decl>
        </member-function>
        <member-function access='public'>
          <function-decl name='vector' filepath='/usr/include/c++/4.9/bits/stl_vector.h' line='264' column='1' visibility='default' binding='global' size-in-bits='64'>
            <parameter type-id='type-id-2244' is-artificial='yes'/>
            <parameter type-id='type-id-1472'/>
            <return type-id='type-id-57'/>
          </function-decl>
        </member-function>
        <member-function access='public'>
          <function-decl name='vector' filepath='/usr/include/c++/4.9/bits/stl_vector.h' line='277' column='1' visibility='default' binding='global' size-in-bits='64'>
            <parameter type-id='type-id-2244' is-artificial='yes'/>
            <parameter type-id='type-id-2338'/>
            <parameter type-id='type-id-1472'/>
            <return type-id='type-id-57'/>
          </function-decl>
        </member-function>
        <member-function access='public'>
          <function-decl name='vector' filepath='/usr/include/c++/4.9/bits/stl_vector.h' line='289' column='1' visibility='default' binding='global' size-in-bits='64'>
            <parameter type-id='type-id-2244' is-artificial='yes'/>
            <parameter type-id='type-id-2338'/>
            <parameter type-id='type-id-1475'/>
            <parameter type-id='type-id-1472'/>
            <return type-id='type-id-57'/>
          </function-decl>
        </member-function>
        <member-function access='public'>
          <function-decl name='vector' filepath='/usr/include/c++/4.9/bits/stl_vector.h' line='318' column='1' visibility='default' binding='global' size-in-bits='64'>
            <parameter type-id='type-id-2244' is-artificial='yes'/>
            <parameter type-id='type-id-1468'/>
            <return type-id='type-id-57'/>
          </function-decl>
        </member-function>
        <member-function access='public'>
          <function-decl name='vector' filepath='/usr/include/c++/4.9/bits/stl_vector.h' line='335' column='1' visibility='default' binding='global' size-in-bits='64'>
            <parameter type-id='type-id-2244' is-artificial='yes'/>
            <parameter type-id='type-id-2243'/>
            <return type-id='type-id-57'/>
          </function-decl>
        </member-function>
        <member-function access='public'>
          <function-decl name='vector' filepath='/usr/include/c++/4.9/bits/stl_vector.h' line='339' column='1' visibility='default' binding='global' size-in-bits='64'>
            <parameter type-id='type-id-2244' is-artificial='yes'/>
            <parameter type-id='type-id-1468'/>
            <parameter type-id='type-id-1472'/>
            <return type-id='type-id-57'/>
          </function-decl>
        </member-function>
        <member-function access='public'>
          <function-decl name='vector' filepath='/usr/include/c++/4.9/bits/stl_vector.h' line='348' column='1' visibility='default' binding='global' size-in-bits='64'>
            <parameter type-id='type-id-2244' is-artificial='yes'/>
            <parameter type-id='type-id-2243'/>
            <parameter type-id='type-id-1472'/>
            <return type-id='type-id-57'/>
          </function-decl>
        </member-function>
        <member-function access='public'>
          <function-decl name='vector' filepath='/usr/include/c++/4.9/bits/stl_vector.h' line='373' column='1' visibility='default' binding='global' size-in-bits='64'>
            <parameter type-id='type-id-2244' is-artificial='yes'/>
            <parameter type-id='type-id-2339'/>
            <parameter type-id='type-id-1472'/>
            <return type-id='type-id-57'/>
          </function-decl>
        </member-function>
        <member-function access='public' destructor='yes'>
          <function-decl name='~vector' filepath='/usr/include/c++/4.9/bits/stl_vector.h' line='423' column='1' visibility='default' binding='global' size-in-bits='64'>
            <parameter type-id='type-id-2244' is-artificial='yes'/>
            <parameter type-id='type-id-29' is-artificial='yes'/>
            <return type-id='type-id-57'/>
          </function-decl>
        </member-function>
      </class-decl>
      <class-decl name='_Vector_base&lt;mongo::logger::Appender&lt;mongo::logger::MessageEventEphemeral&gt;*, std::allocator&lt;mongo::logger::Appender&lt;mongo::logger::MessageEventEphemeral&gt;*&gt; &gt;' size-in-bits='192' is-struct='yes' visibility='default' filepath='/usr/include/c++/4.9/bits/stl_vector.h' line='72' column='1' id='type-id-938'>
        <member-type access='public'>
          <class-decl name='_Vector_impl' size-in-bits='192' is-struct='yes' visibility='default' filepath='/usr/include/c++/4.9/bits/stl_vector.h' line='79' column='1' id='type-id-1886'>
            <base-class access='public' layout-offset-in-bits='0' type-id='type-id-1090'/>
            <data-member access='public' layout-offset-in-bits='0'>
              <var-decl name='_M_start' type-id='type-id-2325' visibility='default' filepath='/usr/include/c++/4.9/bits/stl_vector.h' line='82' column='1'/>
            </data-member>
            <data-member access='public' layout-offset-in-bits='64'>
              <var-decl name='_M_finish' type-id='type-id-2325' visibility='default' filepath='/usr/include/c++/4.9/bits/stl_vector.h' line='83' column='1'/>
            </data-member>
            <data-member access='public' layout-offset-in-bits='128'>
              <var-decl name='_M_end_of_storage' type-id='type-id-2325' visibility='default' filepath='/usr/include/c++/4.9/bits/stl_vector.h' line='84' column='1'/>
            </data-member>
            <member-function access='public' constructor='yes'>
              <function-decl name='_Vector_impl' filepath='/usr/include/c++/4.9/bits/stl_vector.h' line='86' column='1' visibility='default' binding='global' size-in-bits='64'>
                <parameter type-id='type-id-1888' is-artificial='yes'/>
                <return type-id='type-id-57'/>
              </function-decl>
            </member-function>
            <member-function access='public' constructor='yes'>
              <function-decl name='_Vector_impl' filepath='/usr/include/c++/4.9/bits/stl_vector.h' line='90' column='1' visibility='default' binding='global' size-in-bits='64'>
                <parameter type-id='type-id-1888' is-artificial='yes'/>
                <parameter type-id='type-id-943'/>
                <return type-id='type-id-57'/>
              </function-decl>
            </member-function>
            <member-function access='public' constructor='yes'>
              <function-decl name='_Vector_impl' filepath='/usr/include/c++/4.9/bits/stl_vector.h' line='95' column='1' visibility='default' binding='global' size-in-bits='64'>
                <parameter type-id='type-id-1888' is-artificial='yes'/>
                <parameter type-id='type-id-1885'/>
                <return type-id='type-id-57'/>
              </function-decl>
            </member-function>
          </class-decl>
        </member-type>
        <member-type access='public'>
          <typedef-decl name='pointer' type-id='type-id-2340' filepath='/usr/include/c++/4.9/bits/stl_vector.h' line='77' column='1' id='type-id-2325'/>
        </member-type>
        <member-type access='public'>
          <typedef-decl name='_Tp_alloc_type' type-id='type-id-2341' filepath='/usr/include/c++/4.9/bits/stl_vector.h' line='75' column='1' id='type-id-941'/>
        </member-type>
        <member-type access='public'>
          <typedef-decl name='allocator_type' type-id='type-id-1090' filepath='/usr/include/c++/4.9/bits/stl_vector.h' line='110' column='1' id='type-id-944'/>
        </member-type>
        <data-member access='public' layout-offset-in-bits='0'>
          <var-decl name='_M_impl' type-id='type-id-1886' visibility='default' filepath='/usr/include/c++/4.9/bits/stl_vector.h' line='164' column='1'/>
        </data-member>
        <member-function access='public'>
          <function-decl name='_Vector_base' filepath='/usr/include/c++/4.9/bits/stl_vector.h' line='124' column='1' visibility='default' binding='global' size-in-bits='64'>
            <parameter type-id='type-id-1883' is-artificial='yes'/>
            <return type-id='type-id-57'/>
          </function-decl>
        </member-function>
        <member-function access='public'>
          <function-decl name='_Vector_base' filepath='/usr/include/c++/4.9/bits/stl_vector.h' line='127' column='1' visibility='default' binding='global' size-in-bits='64'>
            <parameter type-id='type-id-1883' is-artificial='yes'/>
            <parameter type-id='type-id-946'/>
            <return type-id='type-id-57'/>
          </function-decl>
        </member-function>
        <member-function access='public'>
          <function-decl name='_Vector_base' filepath='/usr/include/c++/4.9/bits/stl_vector.h' line='130' column='1' visibility='default' binding='global' size-in-bits='64'>
            <parameter type-id='type-id-1883' is-artificial='yes'/>
            <parameter type-id='type-id-1381'/>
            <return type-id='type-id-57'/>
          </function-decl>
        </member-function>
        <member-function access='public'>
          <function-decl name='_Vector_base' filepath='/usr/include/c++/4.9/bits/stl_vector.h' line='134' column='1' visibility='default' binding='global' size-in-bits='64'>
            <parameter type-id='type-id-1883' is-artificial='yes'/>
            <parameter type-id='type-id-1381'/>
            <parameter type-id='type-id-946'/>
            <return type-id='type-id-57'/>
          </function-decl>
        </member-function>
        <member-function access='public'>
          <function-decl name='_Vector_base' filepath='/usr/include/c++/4.9/bits/stl_vector.h' line='139' column='1' visibility='default' binding='global' size-in-bits='64'>
            <parameter type-id='type-id-1883' is-artificial='yes'/>
            <parameter type-id='type-id-1885'/>
            <return type-id='type-id-57'/>
          </function-decl>
        </member-function>
        <member-function access='public'>
          <function-decl name='_Vector_base' filepath='/usr/include/c++/4.9/bits/stl_vector.h' line='142' column='1' visibility='default' binding='global' size-in-bits='64'>
            <parameter type-id='type-id-1883' is-artificial='yes'/>
            <parameter type-id='type-id-1882'/>
            <return type-id='type-id-57'/>
          </function-decl>
        </member-function>
        <member-function access='public'>
          <function-decl name='_Vector_base' filepath='/usr/include/c++/4.9/bits/stl_vector.h' line='146' column='1' visibility='default' binding='global' size-in-bits='64'>
            <parameter type-id='type-id-1883' is-artificial='yes'/>
            <parameter type-id='type-id-1882'/>
            <parameter type-id='type-id-946'/>
            <return type-id='type-id-57'/>
          </function-decl>
        </member-function>
        <member-function access='public' destructor='yes'>
          <function-decl name='~_Vector_base' filepath='/usr/include/c++/4.9/bits/stl_vector.h' line='159' column='1' visibility='default' binding='global' size-in-bits='64'>
            <parameter type-id='type-id-1883' is-artificial='yes'/>
            <parameter type-id='type-id-29' is-artificial='yes'/>
            <return type-id='type-id-57'/>
          </function-decl>
        </member-function>
      </class-decl>
      <class-decl name='allocator&lt;mongo::logger::Appender&lt;mongo::logger::MessageEventEphemeral&gt;*&gt;' size-in-bits='8' visibility='default' filepath='/usr/include/c++/4.9/bits/allocator.h' line='92' column='1' id='type-id-1090'>
        <base-class access='public' layout-offset-in-bits='0' type-id='type-id-152'/>
        <member-type access='public'>
          <typedef-decl name='size_type' type-id='type-id-1381' filepath='/usr/include/c++/4.9/bits/allocator.h' line='95' column='1' id='type-id-2342'/>
        </member-type>
        <member-type access='public'>
          <typedef-decl name='pointer' type-id='type-id-1654' filepath='/usr/include/c++/4.9/bits/allocator.h' line='97' column='1' id='type-id-2343'/>
        </member-type>
        <member-type access='public'>
          <typedef-decl name='value_type' type-id='type-id-1649' filepath='/usr/include/c++/4.9/bits/allocator.h' line='101' column='1' id='type-id-2344'/>
        </member-type>
        <member-type access='public'>
          <class-decl name='rebind&lt;mongo::logger::Appender&lt;mongo::logger::MessageEventEphemeral&gt;*&gt;' size-in-bits='8' is-struct='yes' visibility='default' filepath='/usr/include/c++/4.9/bits/allocator.h' line='104' column='1' id='type-id-2345'>
            <member-type access='public'>
              <typedef-decl name='other' type-id='type-id-1090' filepath='/usr/include/c++/4.9/bits/allocator.h' line='105' column='1' id='type-id-2346'/>
            </member-type>
          </class-decl>
        </member-type>
        <member-function access='public'>
          <function-decl name='allocator' filepath='/usr/include/c++/4.9/bits/allocator.h' line='113' column='1' visibility='default' binding='global' size-in-bits='64'>
            <parameter type-id='type-id-2008' is-artificial='yes'/>
            <return type-id='type-id-57'/>
          </function-decl>
        </member-function>
        <member-function access='public'>
          <function-decl name='allocator' filepath='/usr/include/c++/4.9/bits/allocator.h' line='115' column='1' visibility='default' binding='global' size-in-bits='64'>
            <parameter type-id='type-id-2008' is-artificial='yes'/>
            <parameter type-id='type-id-1092'/>
            <return type-id='type-id-57'/>
          </function-decl>
        </member-function>
        <member-function access='public' destructor='yes'>
          <function-decl name='~allocator' filepath='/usr/include/c++/4.9/bits/allocator.h' line='121' column='1' visibility='default' binding='global' size-in-bits='64'>
            <parameter type-id='type-id-2008' is-artificial='yes'/>
            <parameter type-id='type-id-29' is-artificial='yes'/>
            <return type-id='type-id-57'/>
          </function-decl>
        </member-function>
      </class-decl>
      <class-decl name='allocator_traits&lt;std::allocator&lt;mongo::logger::Appender&lt;mongo::logger::MessageEventEphemeral&gt;*&gt; &gt;' size-in-bits='8' is-struct='yes' visibility='default' filepath='/usr/include/c++/4.9/bits/alloc_traits.h' line='80' column='1' id='type-id-2347'>
        <member-type access='public'>
          <typedef-decl name='value_type' type-id='type-id-2344' filepath='/usr/include/c++/4.9/bits/alloc_traits.h' line='85' column='1' id='type-id-2042'/>
        </member-type>
        <member-type access='private'>
          <typedef-decl name='__pointer' type-id='type-id-2343' filepath='/usr/include/c++/4.9/bits/alloc_traits.h' line='95' column='1' id='type-id-2348'/>
        </member-type>
        <member-type access='public'>
          <typedef-decl name='pointer' type-id='type-id-2348' filepath='/usr/include/c++/4.9/bits/alloc_traits.h' line='102' column='1' id='type-id-2349'/>
        </member-type>
        <member-type access='private'>
          <typedef-decl name='__const_void_pointer' type-id='type-id-2351' filepath='/usr/include/c++/4.9/bits/alloc_traits.h' line='126' column='1' id='type-id-2350'/>
        </member-type>
        <member-type access='public'>
          <typedef-decl name='const_void_pointer' type-id='type-id-2350' filepath='/usr/include/c++/4.9/bits/alloc_traits.h' line='135' column='1' id='type-id-2352'/>
        </member-type>
        <member-type access='private'>
          <typedef-decl name='__size_type' type-id='type-id-2342' filepath='/usr/include/c++/4.9/bits/alloc_traits.h' line='148' column='1' id='type-id-2353'/>
        </member-type>
        <member-type access='public'>
          <typedef-decl name='size_type' type-id='type-id-2353' filepath='/usr/include/c++/4.9/bits/alloc_traits.h' line='157' column='1' id='type-id-2354'/>
        </member-type>
        <member-type access='public'>
          <typedef-decl name='rebind_alloc' type-id='type-id-2356' filepath='/usr/include/c++/4.9/bits/alloc_traits.h' line='197' column='1' id='type-id-2355'/>
        </member-type>
      </class-decl>
      <class-decl name='pointer_traits&lt;mongo::logger::Appender&lt;mongo::logger::MessageEventEphemeral&gt;**&gt;' size-in-bits='8' is-struct='yes' visibility='default' filepath='/usr/include/c++/4.9/bits/ptr_traits.h' line='150' column='1' id='type-id-2357'>
        <member-type access='public'>
          <typedef-decl name='pointer' type-id='type-id-1654' filepath='/usr/include/c++/4.9/bits/ptr_traits.h' line='153' column='1' id='type-id-2358'/>
        </member-type>
        <member-type access='public'>
          <typedef-decl name='difference_type' type-id='type-id-2301' filepath='/usr/include/c++/4.9/bits/ptr_traits.h' line='157' column='1' id='type-id-2359'/>
        </member-type>
        <member-type access='public'>
          <typedef-decl name='rebind' type-id='type-id-23' filepath='/usr/include/c++/4.9/bits/ptr_traits.h' line='160' column='1' id='type-id-2351'/>
        </member-type>
      </class-decl>
      <class-decl name='__ptrtr_not_void&lt;mongo::logger::Appender&lt;mongo::logger::MessageEventEphemeral&gt;*, mongo::logger::Appender&lt;mongo::logger::MessageEventEphemeral&gt;*&gt;' size-in-bits='8' is-struct='yes' visibility='default' filepath='/usr/include/c++/4.9/bits/ptr_traits.h' line='105' column='1' id='type-id-2360'>
        <member-type access='public'>
          <typedef-decl name='__type' type-id='type-id-1649' filepath='/usr/include/c++/4.9/bits/ptr_traits.h' line='107' column='1' id='type-id-1975'/>
        </member-type>
      </class-decl>
      <class-decl name='make_unsigned&lt;long int&gt;' size-in-bits='8' is-struct='yes' visibility='default' filepath='/usr/include/c++/4.9/type_traits' line='1666' column='1' id='type-id-2361'>
        <member-type access='public'>
          <typedef-decl name='type' type-id='type-id-2363' filepath='/usr/include/c++/4.9/type_traits' line='1667' column='1' id='type-id-2362'/>
        </member-type>
      </class-decl>
      <class-decl name='__make_unsigned_selector&lt;long int, true, false&gt;' size-in-bits='8' visibility='default' filepath='/usr/include/c++/4.9/type_traits' line='1634' column='1' id='type-id-2364'>
        <member-type access='public'>
          <typedef-decl name='__type' type-id='type-id-2365' filepath='/usr/include/c++/4.9/type_traits' line='1641' column='1' id='type-id-2363'/>
        </member-type>
      </class-decl>
      <class-decl name='__match_cv_qualifiers&lt;long int, long unsigned int, false, false&gt;' size-in-bits='8' visibility='default' filepath='/usr/include/c++/4.9/type_traits' line='1578' column='1' id='type-id-2366'>
        <member-type access='public'>
          <typedef-decl name='__type' type-id='type-id-2367' filepath='/usr/include/c++/4.9/type_traits' line='1583' column='1' id='type-id-2365'/>
        </member-type>
      </class-decl>
      <class-decl name='__cv_selector&lt;long unsigned int, false, false&gt;' size-in-bits='8' is-struct='yes' visibility='default' filepath='/usr/include/c++/4.9/type_traits' line='1560' column='1' id='type-id-2368'>
        <member-type access='public'>
          <typedef-decl name='__type' type-id='type-id-50' filepath='/usr/include/c++/4.9/type_traits' line='1561' column='1' id='type-id-2367'/>
        </member-type>
      </class-decl>
      <typedef-decl name='false_type' type-id='type-id-1222' filepath='/usr/include/c++/4.9/type_traits' line='90' column='1' id='type-id-2369'/>
      <class-decl name='integral_constant&lt;bool, false&gt;' size-in-bits='8' is-struct='yes' visibility='default' filepath='/usr/include/c++/4.9/type_traits' line='69' column='1' id='type-id-1222'>
        <member-type access='public'>
          <typedef-decl name='value_type' type-id='type-id-1' filepath='/usr/include/c++/4.9/type_traits' line='72' column='1' id='type-id-2370'/>
        </member-type>
        <data-member access='public' static='yes'>
          <var-decl name='value' type-id='type-id-351' mangled-name='_ZNSt17integral_constantIbLb0EE5valueE' visibility='default' filepath='/usr/include/c++/4.9/type_traits' line='71' column='1'/>
        </data-member>
      </class-decl>
      <class-decl name='__alloctr_rebind&lt;std::allocator&lt;mongo::logger::Appender&lt;mongo::logger::MessageEventEphemeral&gt;*&gt;, mongo::logger::Appender&lt;mongo::logger::MessageEventEphemeral&gt;*, true&gt;' size-in-bits='8' is-struct='yes' visibility='default' filepath='/usr/include/c++/4.9/bits/alloc_traits.h' line='63' column='1' id='type-id-2371'>
        <member-type access='public'>
          <typedef-decl name='__type' type-id='type-id-2346' filepath='/usr/include/c++/4.9/bits/alloc_traits.h' line='65' column='1' id='type-id-2356'/>
        </member-type>
      </class-decl>
      <typedef-decl name='true_type' type-id='type-id-1225' filepath='/usr/include/c++/4.9/type_traits' line='87' column='1' id='type-id-2372'/>
      <class-decl name='integral_constant&lt;bool, true&gt;' size-in-bits='8' is-struct='yes' visibility='default' filepath='/usr/include/c++/4.9/type_traits' line='69' column='1' id='type-id-1225'>
        <member-type access='public'>
          <typedef-decl name='value_type' type-id='type-id-1' filepath='/usr/include/c++/4.9/type_traits' line='72' column='1' id='type-id-2373'/>
        </member-type>
        <data-member access='public' static='yes'>
          <var-decl name='value' type-id='type-id-351' mangled-name='_ZNSt17integral_constantIbLb1EE5valueE' visibility='default' filepath='/usr/include/c++/4.9/type_traits' line='71' column='1'/>
        </data-member>
      </class-decl>
      <typedef-decl name='string' type-id='type-id-37' filepath='/usr/include/c++/4.9/bits/stringfwd.h' line='62' column='1' id='type-id-1383'/>
      <class-decl name='atomic&lt;unsigned int&gt;' size-in-bits='32' is-struct='yes' visibility='default' filepath='/usr/include/c++/4.9/atomic' line='617' column='1' id='type-id-1145'>
        <base-class access='public' layout-offset-in-bits='0' type-id='type-id-984'/>
        <member-type access='public'>
          <typedef-decl name='__integral_type' type-id='type-id-22' filepath='/usr/include/c++/4.9/atomic' line='619' column='1' id='type-id-2374'/>
        </member-type>
        <member-function access='public'>
          <function-decl name='atomic' filepath='/usr/include/c++/4.9/atomic' line='622' column='1' visibility='default' binding='global' size-in-bits='64'>
            <parameter type-id='type-id-2061' is-artificial='yes'/>
            <return type-id='type-id-57'/>
          </function-decl>
        </member-function>
        <member-function access='public' destructor='yes'>
          <function-decl name='~atomic' filepath='/usr/include/c++/4.9/atomic' line='623' column='1' visibility='default' binding='global' size-in-bits='64'>
            <parameter type-id='type-id-2061' is-artificial='yes'/>
            <parameter type-id='type-id-29' is-artificial='yes'/>
            <return type-id='type-id-57'/>
          </function-decl>
        </member-function>
        <member-function access='public'>
          <function-decl name='atomic' filepath='/usr/include/c++/4.9/atomic' line='624' column='1' visibility='default' binding='global' size-in-bits='64'>
            <parameter type-id='type-id-2061' is-artificial='yes'/>
            <parameter type-id='type-id-1147'/>
            <return type-id='type-id-57'/>
          </function-decl>
        </member-function>
        <member-function access='public'>
          <function-decl name='atomic' filepath='/usr/include/c++/4.9/atomic' line='628' column='1' visibility='default' binding='global' size-in-bits='64'>
            <parameter type-id='type-id-2061' is-artificial='yes'/>
            <parameter type-id='type-id-2374'/>
            <return type-id='type-id-57'/>
          </function-decl>
        </member-function>
      </class-decl>
      <class-decl name='__atomic_base&lt;unsigned int&gt;' size-in-bits='32' is-struct='yes' visibility='default' filepath='/usr/include/c++/4.9/bits/atomic_base.h' line='353' column='1' id='type-id-984'>
        <member-type access='private'>
          <typedef-decl name='__int_type' type-id='type-id-22' filepath='/usr/include/c++/4.9/bits/atomic_base.h' line='356' column='1' id='type-id-1924'/>
        </member-type>
        <data-member access='private' layout-offset-in-bits='0'>
          <var-decl name='_M_i' type-id='type-id-1924' visibility='default' filepath='/usr/include/c++/4.9/bits/atomic_base.h' line='358' column='1'/>
        </data-member>
        <member-function access='public'>
          <function-decl name='__atomic_base' filepath='/usr/include/c++/4.9/bits/atomic_base.h' line='361' column='1' visibility='default' binding='global' size-in-bits='64'>
            <parameter type-id='type-id-1922' is-artificial='yes'/>
            <return type-id='type-id-57'/>
          </function-decl>
        </member-function>
        <member-function access='public' destructor='yes'>
          <function-decl name='~__atomic_base' filepath='/usr/include/c++/4.9/bits/atomic_base.h' line='362' column='1' visibility='default' binding='global' size-in-bits='64'>
            <parameter type-id='type-id-1922' is-artificial='yes'/>
            <parameter type-id='type-id-29' is-artificial='yes'/>
            <return type-id='type-id-57'/>
          </function-decl>
        </member-function>
        <member-function access='public'>
          <function-decl name='__atomic_base' filepath='/usr/include/c++/4.9/bits/atomic_base.h' line='363' column='1' visibility='default' binding='global' size-in-bits='64'>
            <parameter type-id='type-id-1922' is-artificial='yes'/>
            <parameter type-id='type-id-986'/>
            <return type-id='type-id-57'/>
          </function-decl>
        </member-function>
        <member-function access='public'>
          <function-decl name='__atomic_base' filepath='/usr/include/c++/4.9/bits/atomic_base.h' line='368' column='1' visibility='default' binding='global' size-in-bits='64'>
            <parameter type-id='type-id-1922' is-artificial='yes'/>
            <parameter type-id='type-id-1924'/>
            <return type-id='type-id-57'/>
          </function-decl>
        </member-function>
      </class-decl>
      <typedef-decl name='memory_order' type-id='type-id-2375' filepath='/usr/include/c++/4.9/bits/atomic_base.h' line='64' column='1' id='type-id-2376'/>
      <enum-decl name='memory_order' filepath='/usr/include/c++/4.9/bits/atomic_base.h' line='56' column='1' id='type-id-2375'>
        <underlying-type type-id='type-id-40'/>
        <enumerator name='memory_order_relaxed' value='0'/>
        <enumerator name='memory_order_consume' value='1'/>
        <enumerator name='memory_order_acquire' value='2'/>
        <enumerator name='memory_order_release' value='3'/>
        <enumerator name='memory_order_acq_rel' value='4'/>
        <enumerator name='memory_order_seq_cst' value='5'/>
      </enum-decl>
      <class-decl name='list&lt;mongo::optionenvironment::OptionSection, std::allocator&lt;mongo::optionenvironment::OptionSection&gt; &gt;' size-in-bits='128' visibility='default' filepath='/usr/include/c++/4.9/bits/stl_list.h' line='447' column='1' id='type-id-1268'>
        <base-class access='protected' layout-offset-in-bits='0' type-id='type-id-765'/>
        <member-type access='public'>
          <typedef-decl name='value_type' type-id='type-id-615' filepath='/usr/include/c++/4.9/bits/stl_list.h' line='459' column='1' id='type-id-1275'/>
        </member-type>
        <member-type access='public'>
          <typedef-decl name='reference' type-id='type-id-2378' filepath='/usr/include/c++/4.9/bits/stl_list.h' line='462' column='1' id='type-id-2377'/>
        </member-type>
        <member-type access='public'>
          <typedef-decl name='const_reference' type-id='type-id-2380' filepath='/usr/include/c++/4.9/bits/stl_list.h' line='463' column='1' id='type-id-2379'/>
        </member-type>
        <member-type access='public'>
          <typedef-decl name='iterator' type-id='type-id-2382' filepath='/usr/include/c++/4.9/bits/stl_list.h' line='464' column='1' id='type-id-2381'/>
        </member-type>
        <member-type access='public'>
          <typedef-decl name='const_iterator' type-id='type-id-2384' filepath='/usr/include/c++/4.9/bits/stl_list.h' line='465' column='1' id='type-id-2383'/>
        </member-type>
        <member-type access='public'>
          <typedef-decl name='const_reverse_iterator' type-id='type-id-2386' filepath='/usr/include/c++/4.9/bits/stl_list.h' line='466' column='1' id='type-id-2385'/>
        </member-type>
        <member-type access='public'>
          <typedef-decl name='reverse_iterator' type-id='type-id-2388' filepath='/usr/include/c++/4.9/bits/stl_list.h' line='467' column='1' id='type-id-2387'/>
        </member-type>
        <member-type access='public'>
          <typedef-decl name='size_type' type-id='type-id-1381' filepath='/usr/include/c++/4.9/bits/stl_list.h' line='468' column='1' id='type-id-2389'/>
        </member-type>
        <member-type access='public'>
          <typedef-decl name='allocator_type' type-id='type-id-1102' filepath='/usr/include/c++/4.9/bits/stl_list.h' line='470' column='1' id='type-id-1272'/>
        </member-type>
        <member-function access='public'>
          <function-decl name='list' filepath='/usr/include/c++/4.9/bits/stl_list.h' line='533' column='1' visibility='default' binding='global' size-in-bits='64'>
            <parameter type-id='type-id-2118' is-artificial='yes'/>
            <return type-id='type-id-57'/>
          </function-decl>
        </member-function>
        <member-function access='public'>
          <function-decl name='list' filepath='/usr/include/c++/4.9/bits/stl_list.h' line='544' column='1' visibility='default' binding='global' size-in-bits='64'>
            <parameter type-id='type-id-2118' is-artificial='yes'/>
            <parameter type-id='type-id-1274'/>
            <return type-id='type-id-57'/>
          </function-decl>
        </member-function>
        <member-function access='public'>
          <function-decl name='list' filepath='/usr/include/c++/4.9/bits/stl_list.h' line='556' column='1' visibility='default' binding='global' size-in-bits='64'>
            <parameter type-id='type-id-2118' is-artificial='yes'/>
            <parameter type-id='type-id-2389'/>
            <return type-id='type-id-57'/>
          </function-decl>
        </member-function>
        <member-function access='public'>
          <function-decl name='list' filepath='/usr/include/c++/4.9/bits/stl_list.h' line='568' column='1' visibility='default' binding='global' size-in-bits='64'>
            <parameter type-id='type-id-2118' is-artificial='yes'/>
            <parameter type-id='type-id-2389'/>
            <parameter type-id='type-id-1277'/>
            <parameter type-id='type-id-1274'/>
            <return type-id='type-id-57'/>
          </function-decl>
        </member-function>
        <member-function access='public'>
          <function-decl name='list' filepath='/usr/include/c++/4.9/bits/stl_list.h' line='595' column='1' visibility='default' binding='global' size-in-bits='64'>
            <parameter type-id='type-id-2118' is-artificial='yes'/>
            <parameter type-id='type-id-1270'/>
            <return type-id='type-id-57'/>
          </function-decl>
        </member-function>
        <member-function access='public'>
          <function-decl name='list' filepath='/usr/include/c++/4.9/bits/stl_list.h' line='607' column='1' visibility='default' binding='global' size-in-bits='64'>
            <parameter type-id='type-id-2118' is-artificial='yes'/>
            <parameter type-id='type-id-2117'/>
            <return type-id='type-id-57'/>
          </function-decl>
        </member-function>
        <member-function access='public'>
          <function-decl name='list' filepath='/usr/include/c++/4.9/bits/stl_list.h' line='618' column='1' visibility='default' binding='global' size-in-bits='64'>
            <parameter type-id='type-id-2118' is-artificial='yes'/>
            <parameter type-id='type-id-2390'/>
            <parameter type-id='type-id-1274'/>
            <return type-id='type-id-57'/>
          </function-decl>
        </member-function>
        <member-function access='public'>
          <function-decl name='list' mangled-name='_ZNSt4listIN5mongo17optionenvironment13OptionSectionESaIS2_EEC2Ev' filepath='/usr/include/c++/4.9/bits/stl_list.h' line='533' column='1' visibility='default' binding='global' size-in-bits='64' elf-symbol-id='_ZNSt4listIN5mongo17optionenvironment13OptionSectionESaIS2_EEC2Ev'>
            <parameter type-id='type-id-2118' is-artificial='yes'/>
            <return type-id='type-id-57'/>
          </function-decl>
        </member-function>
      </class-decl>
      <class-decl name='_List_base&lt;mongo::optionenvironment::OptionSection, std::allocator&lt;mongo::optionenvironment::OptionSection&gt; &gt;' size-in-bits='128' visibility='default' filepath='/usr/include/c++/4.9/bits/stl_list.h' line='298' column='1' id='type-id-765'>
        <member-type access='protected'>
          <class-decl name='_List_impl' size-in-bits='128' is-struct='yes' visibility='default' filepath='/usr/include/c++/4.9/bits/stl_list.h' line='319' column='1' id='type-id-1772'>
            <base-class access='public' layout-offset-in-bits='0' type-id='type-id-1108'/>
            <data-member access='public' layout-offset-in-bits='0'>
              <var-decl name='_M_node' type-id='type-id-1961' visibility='default' filepath='/usr/include/c++/4.9/bits/stl_list.h' line='322' column='1'/>
            </data-member>
            <member-function access='public' constructor='yes'>
              <function-decl name='_List_impl' filepath='/usr/include/c++/4.9/bits/stl_list.h' line='324' column='1' visibility='default' binding='global' size-in-bits='64'>
                <parameter type-id='type-id-1773' is-artificial='yes'/>
                <return type-id='type-id-57'/>
              </function-decl>
            </member-function>
            <member-function access='public' constructor='yes'>
              <function-decl name='_List_impl' filepath='/usr/include/c++/4.9/bits/stl_list.h' line='328' column='1' visibility='default' binding='global' size-in-bits='64'>
                <parameter type-id='type-id-1773' is-artificial='yes'/>
                <parameter type-id='type-id-770'/>
                <return type-id='type-id-57'/>
              </function-decl>
            </member-function>
            <member-function access='public' constructor='yes'>
              <function-decl name='_List_impl' filepath='/usr/include/c++/4.9/bits/stl_list.h' line='333' column='1' visibility='default' binding='global' size-in-bits='64'>
                <parameter type-id='type-id-1773' is-artificial='yes'/>
                <parameter type-id='type-id-1775'/>
                <return type-id='type-id-57'/>
              </function-decl>
            </member-function>
            <member-function access='public' constructor='yes'>
              <function-decl name='_List_impl' mangled-name='_ZNSt10_List_baseIN5mongo17optionenvironment13OptionSectionESaIS2_EE10_List_implC2Ev' filepath='/usr/include/c++/4.9/bits/stl_list.h' line='324' column='1' visibility='default' binding='global' size-in-bits='64' elf-symbol-id='_ZNSt10_List_baseIN5mongo17optionenvironment13OptionSectionESaIS2_EE10_List_implC2Ev'>
                <parameter type-id='type-id-1773' is-artificial='yes'/>
                <return type-id='type-id-57'/>
              </function-decl>
            </member-function>
          </class-decl>
        </member-type>
        <member-type access='protected'>
          <typedef-decl name='_Node_alloc_type' type-id='type-id-2391' filepath='/usr/include/c++/4.9/bits/stl_list.h' line='315' column='1' id='type-id-768'/>
        </member-type>
        <member-type access='protected'>
          <typedef-decl name='_Tp_alloc_type' type-id='type-id-2393' filepath='/usr/include/c++/4.9/bits/stl_list.h' line='317' column='1' id='type-id-2392'/>
        </member-type>
        <member-type access='public'>
          <typedef-decl name='allocator_type' type-id='type-id-1102' filepath='/usr/include/c++/4.9/bits/stl_list.h' line='350' column='1' id='type-id-2394'/>
        </member-type>
        <data-member access='protected' layout-offset-in-bits='0'>
          <var-decl name='_M_impl' type-id='type-id-1772' visibility='default' filepath='/usr/include/c++/4.9/bits/stl_list.h' line='339' column='1'/>
        </data-member>
        <member-function access='public'>
          <function-decl name='_List_base' filepath='/usr/include/c++/4.9/bits/stl_list.h' line='368' column='1' visibility='default' binding='global' size-in-bits='64'>
            <parameter type-id='type-id-1770' is-artificial='yes'/>
            <return type-id='type-id-57'/>
          </function-decl>
        </member-function>
        <member-function access='public'>
          <function-decl name='_List_base' filepath='/usr/include/c++/4.9/bits/stl_list.h' line='372' column='1' visibility='default' binding='global' size-in-bits='64'>
            <parameter type-id='type-id-1770' is-artificial='yes'/>
            <parameter type-id='type-id-770'/>
            <return type-id='type-id-57'/>
          </function-decl>
        </member-function>
        <member-function access='public'>
          <function-decl name='_List_base' filepath='/usr/include/c++/4.9/bits/stl_list.h' line='377' column='1' visibility='default' binding='global' size-in-bits='64'>
            <parameter type-id='type-id-1770' is-artificial='yes'/>
            <parameter type-id='type-id-1769'/>
            <return type-id='type-id-57'/>
          </function-decl>
        </member-function>
        <member-function access='public' destructor='yes'>
          <function-decl name='~_List_base' filepath='/usr/include/c++/4.9/bits/stl_list.h' line='386' column='1' visibility='default' binding='global' size-in-bits='64'>
            <parameter type-id='type-id-1770' is-artificial='yes'/>
            <parameter type-id='type-id-29' is-artificial='yes'/>
            <return type-id='type-id-57'/>
          </function-decl>
        </member-function>
        <member-function access='public' destructor='yes'>
          <function-decl name='~_List_base' mangled-name='_ZNSt10_List_baseIN5mongo17optionenvironment13OptionSectionESaIS2_EED2Ev' filepath='/usr/include/c++/4.9/bits/stl_list.h' line='386' column='1' visibility='default' binding='global' size-in-bits='64' elf-symbol-id='_ZNSt10_List_baseIN5mongo17optionenvironment13OptionSectionESaIS2_EED2Ev'>
            <parameter type-id='type-id-1770' is-artificial='yes'/>
            <parameter type-id='type-id-29' is-artificial='yes'/>
            <return type-id='type-id-57'/>
          </function-decl>
        </member-function>
        <member-function access='public'>
          <function-decl name='_List_base' mangled-name='_ZNSt10_List_baseIN5mongo17optionenvironment13OptionSectionESaIS2_EEC2Ev' filepath='/usr/include/c++/4.9/bits/stl_list.h' line='368' column='1' visibility='default' binding='global' size-in-bits='64' elf-symbol-id='_ZNSt10_List_baseIN5mongo17optionenvironment13OptionSectionESaIS2_EEC2Ev'>
            <parameter type-id='type-id-1770' is-artificial='yes'/>
            <return type-id='type-id-57'/>
          </function-decl>
        </member-function>
        <member-function access='public'>
          <function-decl name='_M_clear' mangled-name='_ZNSt10_List_baseIN5mongo17optionenvironment13OptionSectionESaIS2_EE8_M_clearEv' filepath='/usr/include/c++/4.9/bits/list.tcc' line='65' column='1' visibility='default' binding='global' size-in-bits='64' elf-symbol-id='_ZNSt10_List_baseIN5mongo17optionenvironment13OptionSectionESaIS2_EE8_M_clearEv'>
            <parameter type-id='type-id-1770' is-artificial='yes'/>
            <return type-id='type-id-57'/>
          </function-decl>
        </member-function>
        <member-function access='public'>
          <function-decl name='_M_init' mangled-name='_ZNSt10_List_baseIN5mongo17optionenvironment13OptionSectionESaIS2_EE7_M_initEv' filepath='/usr/include/c++/4.9/bits/stl_list.h' line='393' column='1' visibility='default' binding='global' size-in-bits='64' elf-symbol-id='_ZNSt10_List_baseIN5mongo17optionenvironment13OptionSectionESaIS2_EE7_M_initEv'>
            <parameter type-id='type-id-1770' is-artificial='yes'/>
            <return type-id='type-id-57'/>
          </function-decl>
        </member-function>
        <member-function access='public'>
          <function-decl name='_M_get_Node_allocator' mangled-name='_ZNSt10_List_baseIN5mongo17optionenvironment13OptionSectionESaIS2_EE21_M_get_Node_allocatorEv' filepath='/usr/include/c++/4.9/bits/stl_list.h' line='353' column='1' visibility='default' binding='global' size-in-bits='64' elf-symbol-id='_ZNSt10_List_baseIN5mongo17optionenvironment13OptionSectionESaIS2_EE21_M_get_Node_allocatorEv'>
            <parameter type-id='type-id-1771' name='this' is-artificial='yes'/>
            <return type-id='type-id-1774'/>
          </function-decl>
        </member-function>
        <member-function access='protected'>
          <function-decl name='_M_put_node' mangled-name='_ZNSt10_List_baseIN5mongo17optionenvironment13OptionSectionESaIS2_EE11_M_put_nodeEPSt10_List_nodeIS2_E' filepath='/usr/include/c++/4.9/bits/stl_list.h' line='346' column='1' visibility='default' binding='global' size-in-bits='64' elf-symbol-id='_ZNSt10_List_baseIN5mongo17optionenvironment13OptionSectionESaIS2_EE11_M_put_nodeEPSt10_List_nodeIS2_E'>
            <parameter type-id='type-id-1771' name='this' is-artificial='yes'/>
            <parameter type-id='type-id-1779' name='__p' filepath='/usr/include/c++/4.9/bits/stl_list.h' line='346' column='1'/>
            <return type-id='type-id-57'/>
          </function-decl>
        </member-function>
      </class-decl>
      <class-decl name='allocator&lt;std::_List_node&lt;mongo::optionenvironment::OptionSection&gt; &gt;' size-in-bits='8' visibility='default' filepath='/usr/include/c++/4.9/bits/allocator.h' line='92' column='1' id='type-id-1108'>
        <base-class access='public' layout-offset-in-bits='0' type-id='type-id-165'/>
        <member-function access='public'>
          <function-decl name='allocator' filepath='/usr/include/c++/4.9/bits/allocator.h' line='113' column='1' visibility='default' binding='global' size-in-bits='64'>
            <parameter type-id='type-id-2016' is-artificial='yes'/>
            <return type-id='type-id-57'/>
          </function-decl>
        </member-function>
        <member-function access='public'>
          <function-decl name='allocator' filepath='/usr/include/c++/4.9/bits/allocator.h' line='115' column='1' visibility='default' binding='global' size-in-bits='64'>
            <parameter type-id='type-id-2016' is-artificial='yes'/>
            <parameter type-id='type-id-1110'/>
            <return type-id='type-id-57'/>
          </function-decl>
        </member-function>
        <member-function access='public' destructor='yes'>
          <function-decl name='~allocator' filepath='/usr/include/c++/4.9/bits/allocator.h' line='121' column='1' visibility='default' binding='global' size-in-bits='64'>
            <parameter type-id='type-id-2016' is-artificial='yes'/>
            <parameter type-id='type-id-29' is-artificial='yes'/>
            <return type-id='type-id-57'/>
          </function-decl>
        </member-function>
        <member-function access='public' destructor='yes'>
          <function-decl name='~allocator' mangled-name='_ZNSaISt10_List_nodeIN5mongo17optionenvironment13OptionSectionEEED2Ev' filepath='/usr/include/c++/4.9/bits/allocator.h' line='121' column='1' visibility='default' binding='global' size-in-bits='64' elf-symbol-id='_ZNSaISt10_List_nodeIN5mongo17optionenvironment13OptionSectionEEED2Ev'>
            <parameter type-id='type-id-2016' is-artificial='yes'/>
            <parameter type-id='type-id-29' is-artificial='yes'/>
            <return type-id='type-id-57'/>
          </function-decl>
        </member-function>
        <member-function access='public'>
          <function-decl name='allocator' mangled-name='_ZNSaISt10_List_nodeIN5mongo17optionenvironment13OptionSectionEEEC2Ev' filepath='/usr/include/c++/4.9/bits/allocator.h' line='113' column='1' visibility='default' binding='global' size-in-bits='64' elf-symbol-id='_ZNSaISt10_List_nodeIN5mongo17optionenvironment13OptionSectionEEEC2Ev'>
            <parameter type-id='type-id-2016' is-artificial='yes'/>
            <return type-id='type-id-57'/>
          </function-decl>
        </member-function>
      </class-decl>
      <class-decl name='_List_node&lt;mongo::optionenvironment::OptionSection&gt;' size-in-bits='448' is-struct='yes' visibility='default' filepath='/usr/include/c++/4.9/bits/stl_list.h' line='106' column='1' id='type-id-775'>
        <base-class access='public' layout-offset-in-bits='0' type-id='type-id-1961'/>
        <data-member access='public' layout-offset-in-bits='128'>
          <var-decl name='_M_data' type-id='type-id-615' visibility='default' filepath='/usr/include/c++/4.9/bits/stl_list.h' line='109' column='1'/>
        </data-member>
      </class-decl>
      <class-decl name='allocator&lt;mongo::optionenvironment::OptionSection&gt;' size-in-bits='8' visibility='default' filepath='/usr/include/c++/4.9/bits/allocator.h' line='92' column='1' id='type-id-1102'>
        <base-class access='public' layout-offset-in-bits='0' type-id='type-id-160'/>
        <member-type access='public'>
          <typedef-decl name='reference' type-id='type-id-1697' filepath='/usr/include/c++/4.9/bits/allocator.h' line='99' column='1' id='type-id-2378'/>
        </member-type>
        <member-type access='public'>
          <typedef-decl name='const_reference' type-id='type-id-617' filepath='/usr/include/c++/4.9/bits/allocator.h' line='100' column='1' id='type-id-2380'/>
        </member-type>
        <member-type access='public'>
          <class-decl name='rebind&lt;std::_List_node&lt;mongo::optionenvironment::OptionSection&gt; &gt;' size-in-bits='8' is-struct='yes' visibility='default' filepath='/usr/include/c++/4.9/bits/allocator.h' line='104' column='1' id='type-id-2395'>
            <member-type access='public'>
              <typedef-decl name='other' type-id='type-id-1108' filepath='/usr/include/c++/4.9/bits/allocator.h' line='105' column='1' id='type-id-2391'/>
            </member-type>
          </class-decl>
        </member-type>
        <member-type access='public'>
          <class-decl name='rebind&lt;mongo::optionenvironment::OptionSection&gt;' size-in-bits='8' is-struct='yes' visibility='default' filepath='/usr/include/c++/4.9/bits/allocator.h' line='104' column='1' id='type-id-2396'>
            <member-type access='public'>
              <typedef-decl name='other' type-id='type-id-1102' filepath='/usr/include/c++/4.9/bits/allocator.h' line='105' column='1' id='type-id-2393'/>
            </member-type>
          </class-decl>
        </member-type>
        <member-function access='public'>
          <function-decl name='allocator' filepath='/usr/include/c++/4.9/bits/allocator.h' line='113' column='1' visibility='default' binding='global' size-in-bits='64'>
            <parameter type-id='type-id-2014' is-artificial='yes'/>
            <return type-id='type-id-57'/>
          </function-decl>
        </member-function>
        <member-function access='public'>
          <function-decl name='allocator' filepath='/usr/include/c++/4.9/bits/allocator.h' line='115' column='1' visibility='default' binding='global' size-in-bits='64'>
            <parameter type-id='type-id-2014' is-artificial='yes'/>
            <parameter type-id='type-id-1104'/>
            <return type-id='type-id-57'/>
          </function-decl>
        </member-function>
        <member-function access='public' destructor='yes'>
          <function-decl name='~allocator' filepath='/usr/include/c++/4.9/bits/allocator.h' line='121' column='1' visibility='default' binding='global' size-in-bits='64'>
            <parameter type-id='type-id-2014' is-artificial='yes'/>
            <parameter type-id='type-id-29' is-artificial='yes'/>
            <return type-id='type-id-57'/>
          </function-decl>
        </member-function>
      </class-decl>
      <class-decl name='list&lt;mongo::optionenvironment::OptionDescription, std::allocator&lt;mongo::optionenvironment::OptionDescription&gt; &gt;' size-in-bits='128' visibility='default' filepath='/usr/include/c++/4.9/bits/stl_list.h' line='447' column='1' id='type-id-1258'>
        <base-class access='protected' layout-offset-in-bits='0' type-id='type-id-759'/>
        <member-type access='public'>
          <typedef-decl name='value_type' type-id='type-id-611' filepath='/usr/include/c++/4.9/bits/stl_list.h' line='459' column='1' id='type-id-1265'/>
        </member-type>
        <member-type access='public'>
          <typedef-decl name='reference' type-id='type-id-2398' filepath='/usr/include/c++/4.9/bits/stl_list.h' line='462' column='1' id='type-id-2397'/>
        </member-type>
        <member-type access='public'>
          <typedef-decl name='const_reference' type-id='type-id-2400' filepath='/usr/include/c++/4.9/bits/stl_list.h' line='463' column='1' id='type-id-2399'/>
        </member-type>
        <member-type access='public'>
          <typedef-decl name='iterator' type-id='type-id-2402' filepath='/usr/include/c++/4.9/bits/stl_list.h' line='464' column='1' id='type-id-2401'/>
        </member-type>
        <member-type access='public'>
          <typedef-decl name='const_iterator' type-id='type-id-2404' filepath='/usr/include/c++/4.9/bits/stl_list.h' line='465' column='1' id='type-id-2403'/>
        </member-type>
        <member-type access='public'>
          <typedef-decl name='const_reverse_iterator' type-id='type-id-2406' filepath='/usr/include/c++/4.9/bits/stl_list.h' line='466' column='1' id='type-id-2405'/>
        </member-type>
        <member-type access='public'>
          <typedef-decl name='reverse_iterator' type-id='type-id-2408' filepath='/usr/include/c++/4.9/bits/stl_list.h' line='467' column='1' id='type-id-2407'/>
        </member-type>
        <member-type access='public'>
          <typedef-decl name='size_type' type-id='type-id-1381' filepath='/usr/include/c++/4.9/bits/stl_list.h' line='468' column='1' id='type-id-2409'/>
        </member-type>
        <member-type access='public'>
          <typedef-decl name='allocator_type' type-id='type-id-1099' filepath='/usr/include/c++/4.9/bits/stl_list.h' line='470' column='1' id='type-id-1262'/>
        </member-type>
        <member-function access='public'>
          <function-decl name='list' filepath='/usr/include/c++/4.9/bits/stl_list.h' line='533' column='1' visibility='default' binding='global' size-in-bits='64'>
            <parameter type-id='type-id-2114' is-artificial='yes'/>
            <return type-id='type-id-57'/>
          </function-decl>
        </member-function>
        <member-function access='public'>
          <function-decl name='list' filepath='/usr/include/c++/4.9/bits/stl_list.h' line='544' column='1' visibility='default' binding='global' size-in-bits='64'>
            <parameter type-id='type-id-2114' is-artificial='yes'/>
            <parameter type-id='type-id-1264'/>
            <return type-id='type-id-57'/>
          </function-decl>
        </member-function>
        <member-function access='public'>
          <function-decl name='list' filepath='/usr/include/c++/4.9/bits/stl_list.h' line='556' column='1' visibility='default' binding='global' size-in-bits='64'>
            <parameter type-id='type-id-2114' is-artificial='yes'/>
            <parameter type-id='type-id-2409'/>
            <return type-id='type-id-57'/>
          </function-decl>
        </member-function>
        <member-function access='public'>
          <function-decl name='list' filepath='/usr/include/c++/4.9/bits/stl_list.h' line='568' column='1' visibility='default' binding='global' size-in-bits='64'>
            <parameter type-id='type-id-2114' is-artificial='yes'/>
            <parameter type-id='type-id-2409'/>
            <parameter type-id='type-id-1267'/>
            <parameter type-id='type-id-1264'/>
            <return type-id='type-id-57'/>
          </function-decl>
        </member-function>
        <member-function access='public'>
          <function-decl name='list' filepath='/usr/include/c++/4.9/bits/stl_list.h' line='595' column='1' visibility='default' binding='global' size-in-bits='64'>
            <parameter type-id='type-id-2114' is-artificial='yes'/>
            <parameter type-id='type-id-1260'/>
            <return type-id='type-id-57'/>
          </function-decl>
        </member-function>
        <member-function access='public'>
          <function-decl name='list' filepath='/usr/include/c++/4.9/bits/stl_list.h' line='607' column='1' visibility='default' binding='global' size-in-bits='64'>
            <parameter type-id='type-id-2114' is-artificial='yes'/>
            <parameter type-id='type-id-2113'/>
            <return type-id='type-id-57'/>
          </function-decl>
        </member-function>
        <member-function access='public'>
          <function-decl name='list' filepath='/usr/include/c++/4.9/bits/stl_list.h' line='618' column='1' visibility='default' binding='global' size-in-bits='64'>
            <parameter type-id='type-id-2114' is-artificial='yes'/>
            <parameter type-id='type-id-2410'/>
            <parameter type-id='type-id-1264'/>
            <return type-id='type-id-57'/>
          </function-decl>
        </member-function>
        <member-function access='public'>
          <function-decl name='list' mangled-name='_ZNSt4listIN5mongo17optionenvironment17OptionDescriptionESaIS2_EEC2Ev' filepath='/usr/include/c++/4.9/bits/stl_list.h' line='533' column='1' visibility='default' binding='global' size-in-bits='64' elf-symbol-id='_ZNSt4listIN5mongo17optionenvironment17OptionDescriptionESaIS2_EEC2Ev'>
            <parameter type-id='type-id-2114' is-artificial='yes'/>
            <return type-id='type-id-57'/>
          </function-decl>
        </member-function>
      </class-decl>
      <class-decl name='_List_base&lt;mongo::optionenvironment::OptionDescription, std::allocator&lt;mongo::optionenvironment::OptionDescription&gt; &gt;' size-in-bits='128' visibility='default' filepath='/usr/include/c++/4.9/bits/stl_list.h' line='298' column='1' id='type-id-759'>
        <member-type access='protected'>
          <class-decl name='_List_impl' size-in-bits='128' is-struct='yes' visibility='default' filepath='/usr/include/c++/4.9/bits/stl_list.h' line='319' column='1' id='type-id-1765'>
            <base-class access='public' layout-offset-in-bits='0' type-id='type-id-1105'/>
            <data-member access='public' layout-offset-in-bits='0'>
              <var-decl name='_M_node' type-id='type-id-1961' visibility='default' filepath='/usr/include/c++/4.9/bits/stl_list.h' line='322' column='1'/>
            </data-member>
            <member-function access='public' constructor='yes'>
              <function-decl name='_List_impl' filepath='/usr/include/c++/4.9/bits/stl_list.h' line='324' column='1' visibility='default' binding='global' size-in-bits='64'>
                <parameter type-id='type-id-1766' is-artificial='yes'/>
                <return type-id='type-id-57'/>
              </function-decl>
            </member-function>
            <member-function access='public' constructor='yes'>
              <function-decl name='_List_impl' filepath='/usr/include/c++/4.9/bits/stl_list.h' line='328' column='1' visibility='default' binding='global' size-in-bits='64'>
                <parameter type-id='type-id-1766' is-artificial='yes'/>
                <parameter type-id='type-id-764'/>
                <return type-id='type-id-57'/>
              </function-decl>
            </member-function>
            <member-function access='public' constructor='yes'>
              <function-decl name='_List_impl' filepath='/usr/include/c++/4.9/bits/stl_list.h' line='333' column='1' visibility='default' binding='global' size-in-bits='64'>
                <parameter type-id='type-id-1766' is-artificial='yes'/>
                <parameter type-id='type-id-1768'/>
                <return type-id='type-id-57'/>
              </function-decl>
            </member-function>
            <member-function access='public' constructor='yes'>
              <function-decl name='_List_impl' mangled-name='_ZNSt10_List_baseIN5mongo17optionenvironment17OptionDescriptionESaIS2_EE10_List_implC2Ev' filepath='/usr/include/c++/4.9/bits/stl_list.h' line='324' column='1' visibility='default' binding='global' size-in-bits='64' elf-symbol-id='_ZNSt10_List_baseIN5mongo17optionenvironment17OptionDescriptionESaIS2_EE10_List_implC2Ev'>
                <parameter type-id='type-id-1766' is-artificial='yes'/>
                <return type-id='type-id-57'/>
              </function-decl>
            </member-function>
          </class-decl>
        </member-type>
        <member-type access='protected'>
          <typedef-decl name='_Node_alloc_type' type-id='type-id-2411' filepath='/usr/include/c++/4.9/bits/stl_list.h' line='315' column='1' id='type-id-762'/>
        </member-type>
        <member-type access='protected'>
          <typedef-decl name='_Tp_alloc_type' type-id='type-id-2413' filepath='/usr/include/c++/4.9/bits/stl_list.h' line='317' column='1' id='type-id-2412'/>
        </member-type>
        <member-type access='public'>
          <typedef-decl name='allocator_type' type-id='type-id-1099' filepath='/usr/include/c++/4.9/bits/stl_list.h' line='350' column='1' id='type-id-2414'/>
        </member-type>
        <data-member access='protected' layout-offset-in-bits='0'>
          <var-decl name='_M_impl' type-id='type-id-1765' visibility='default' filepath='/usr/include/c++/4.9/bits/stl_list.h' line='339' column='1'/>
        </data-member>
        <member-function access='public'>
          <function-decl name='_List_base' filepath='/usr/include/c++/4.9/bits/stl_list.h' line='368' column='1' visibility='default' binding='global' size-in-bits='64'>
            <parameter type-id='type-id-1763' is-artificial='yes'/>
            <return type-id='type-id-57'/>
          </function-decl>
        </member-function>
        <member-function access='public'>
          <function-decl name='_List_base' filepath='/usr/include/c++/4.9/bits/stl_list.h' line='372' column='1' visibility='default' binding='global' size-in-bits='64'>
            <parameter type-id='type-id-1763' is-artificial='yes'/>
            <parameter type-id='type-id-764'/>
            <return type-id='type-id-57'/>
          </function-decl>
        </member-function>
        <member-function access='public'>
          <function-decl name='_List_base' filepath='/usr/include/c++/4.9/bits/stl_list.h' line='377' column='1' visibility='default' binding='global' size-in-bits='64'>
            <parameter type-id='type-id-1763' is-artificial='yes'/>
            <parameter type-id='type-id-1762'/>
            <return type-id='type-id-57'/>
          </function-decl>
        </member-function>
        <member-function access='public' destructor='yes'>
          <function-decl name='~_List_base' filepath='/usr/include/c++/4.9/bits/stl_list.h' line='386' column='1' visibility='default' binding='global' size-in-bits='64'>
            <parameter type-id='type-id-1763' is-artificial='yes'/>
            <parameter type-id='type-id-29' is-artificial='yes'/>
            <return type-id='type-id-57'/>
          </function-decl>
        </member-function>
        <member-function access='public' destructor='yes'>
          <function-decl name='~_List_base' mangled-name='_ZNSt10_List_baseIN5mongo17optionenvironment17OptionDescriptionESaIS2_EED2Ev' filepath='/usr/include/c++/4.9/bits/stl_list.h' line='386' column='1' visibility='default' binding='global' size-in-bits='64' elf-symbol-id='_ZNSt10_List_baseIN5mongo17optionenvironment17OptionDescriptionESaIS2_EED2Ev'>
            <parameter type-id='type-id-1763' is-artificial='yes'/>
            <parameter type-id='type-id-29' is-artificial='yes'/>
            <return type-id='type-id-57'/>
          </function-decl>
        </member-function>
        <member-function access='public'>
          <function-decl name='_List_base' mangled-name='_ZNSt10_List_baseIN5mongo17optionenvironment17OptionDescriptionESaIS2_EEC2Ev' filepath='/usr/include/c++/4.9/bits/stl_list.h' line='368' column='1' visibility='default' binding='global' size-in-bits='64' elf-symbol-id='_ZNSt10_List_baseIN5mongo17optionenvironment17OptionDescriptionESaIS2_EEC2Ev'>
            <parameter type-id='type-id-1763' is-artificial='yes'/>
            <return type-id='type-id-57'/>
          </function-decl>
        </member-function>
        <member-function access='public'>
          <function-decl name='_M_clear' mangled-name='_ZNSt10_List_baseIN5mongo17optionenvironment17OptionDescriptionESaIS2_EE8_M_clearEv' filepath='/usr/include/c++/4.9/bits/list.tcc' line='65' column='1' visibility='default' binding='global' size-in-bits='64' elf-symbol-id='_ZNSt10_List_baseIN5mongo17optionenvironment17OptionDescriptionESaIS2_EE8_M_clearEv'>
            <parameter type-id='type-id-1763' is-artificial='yes'/>
            <return type-id='type-id-57'/>
          </function-decl>
        </member-function>
        <member-function access='public'>
          <function-decl name='_M_init' mangled-name='_ZNSt10_List_baseIN5mongo17optionenvironment17OptionDescriptionESaIS2_EE7_M_initEv' filepath='/usr/include/c++/4.9/bits/stl_list.h' line='393' column='1' visibility='default' binding='global' size-in-bits='64' elf-symbol-id='_ZNSt10_List_baseIN5mongo17optionenvironment17OptionDescriptionESaIS2_EE7_M_initEv'>
            <parameter type-id='type-id-1763' is-artificial='yes'/>
            <return type-id='type-id-57'/>
          </function-decl>
        </member-function>
        <member-function access='public'>
          <function-decl name='_M_get_Node_allocator' mangled-name='_ZNSt10_List_baseIN5mongo17optionenvironment17OptionDescriptionESaIS2_EE21_M_get_Node_allocatorEv' filepath='/usr/include/c++/4.9/bits/stl_list.h' line='353' column='1' visibility='default' binding='global' size-in-bits='64' elf-symbol-id='_ZNSt10_List_baseIN5mongo17optionenvironment17OptionDescriptionESaIS2_EE21_M_get_Node_allocatorEv'>
            <parameter type-id='type-id-1764' name='this' is-artificial='yes'/>
            <return type-id='type-id-1767'/>
          </function-decl>
        </member-function>
        <member-function access='protected'>
          <function-decl name='_M_put_node' mangled-name='_ZNSt10_List_baseIN5mongo17optionenvironment17OptionDescriptionESaIS2_EE11_M_put_nodeEPSt10_List_nodeIS2_E' filepath='/usr/include/c++/4.9/bits/stl_list.h' line='346' column='1' visibility='default' binding='global' size-in-bits='64' elf-symbol-id='_ZNSt10_List_baseIN5mongo17optionenvironment17OptionDescriptionESaIS2_EE11_M_put_nodeEPSt10_List_nodeIS2_E'>
            <parameter type-id='type-id-1764' name='this' is-artificial='yes'/>
            <parameter type-id='type-id-1777' name='__p' filepath='/usr/include/c++/4.9/bits/stl_list.h' line='346' column='1'/>
            <return type-id='type-id-57'/>
          </function-decl>
        </member-function>
      </class-decl>
      <class-decl name='allocator&lt;std::_List_node&lt;mongo::optionenvironment::OptionDescription&gt; &gt;' size-in-bits='8' visibility='default' filepath='/usr/include/c++/4.9/bits/allocator.h' line='92' column='1' id='type-id-1105'>
        <base-class access='public' layout-offset-in-bits='0' type-id='type-id-162'/>
        <member-function access='public'>
          <function-decl name='allocator' filepath='/usr/include/c++/4.9/bits/allocator.h' line='113' column='1' visibility='default' binding='global' size-in-bits='64'>
            <parameter type-id='type-id-2015' is-artificial='yes'/>
            <return type-id='type-id-57'/>
          </function-decl>
        </member-function>
        <member-function access='public'>
          <function-decl name='allocator' filepath='/usr/include/c++/4.9/bits/allocator.h' line='115' column='1' visibility='default' binding='global' size-in-bits='64'>
            <parameter type-id='type-id-2015' is-artificial='yes'/>
            <parameter type-id='type-id-1107'/>
            <return type-id='type-id-57'/>
          </function-decl>
        </member-function>
        <member-function access='public' destructor='yes'>
          <function-decl name='~allocator' filepath='/usr/include/c++/4.9/bits/allocator.h' line='121' column='1' visibility='default' binding='global' size-in-bits='64'>
            <parameter type-id='type-id-2015' is-artificial='yes'/>
            <parameter type-id='type-id-29' is-artificial='yes'/>
            <return type-id='type-id-57'/>
          </function-decl>
        </member-function>
        <member-function access='public' destructor='yes'>
          <function-decl name='~allocator' mangled-name='_ZNSaISt10_List_nodeIN5mongo17optionenvironment17OptionDescriptionEEED2Ev' filepath='/usr/include/c++/4.9/bits/allocator.h' line='121' column='1' visibility='default' binding='global' size-in-bits='64' elf-symbol-id='_ZNSaISt10_List_nodeIN5mongo17optionenvironment17OptionDescriptionEEED2Ev'>
            <parameter type-id='type-id-2015' is-artificial='yes'/>
            <parameter type-id='type-id-29' is-artificial='yes'/>
            <return type-id='type-id-57'/>
          </function-decl>
        </member-function>
        <member-function access='public'>
          <function-decl name='allocator' mangled-name='_ZNSaISt10_List_nodeIN5mongo17optionenvironment17OptionDescriptionEEEC2Ev' filepath='/usr/include/c++/4.9/bits/allocator.h' line='113' column='1' visibility='default' binding='global' size-in-bits='64' elf-symbol-id='_ZNSaISt10_List_nodeIN5mongo17optionenvironment17OptionDescriptionEEEC2Ev'>
            <parameter type-id='type-id-2015' is-artificial='yes'/>
            <return type-id='type-id-57'/>
          </function-decl>
        </member-function>
      </class-decl>
      <class-decl name='_List_node&lt;mongo::optionenvironment::OptionDescription&gt;' size-in-bits='2496' is-struct='yes' visibility='default' filepath='/usr/include/c++/4.9/bits/stl_list.h' line='106' column='1' id='type-id-771'>
        <base-class access='public' layout-offset-in-bits='0' type-id='type-id-1961'/>
        <data-member access='public' layout-offset-in-bits='128'>
          <var-decl name='_M_data' type-id='type-id-611' visibility='default' filepath='/usr/include/c++/4.9/bits/stl_list.h' line='109' column='1'/>
        </data-member>
      </class-decl>
      <class-decl name='vector&lt;std::basic_string&lt;char, std::char_traits&lt;char&gt;, std::allocator&lt;char&gt; &gt;, std::allocator&lt;std::basic_string&lt;char, std::char_traits&lt;char&gt;, std::allocator&lt;char&gt; &gt; &gt; &gt;' size-in-bits='192' visibility='default' filepath='/usr/include/c++/4.9/bits/stl_vector.h' line='214' column='1' id='type-id-1496'>
        <base-class access='protected' layout-offset-in-bits='0' type-id='type-id-965'/>
        <member-type access='public'>
          <typedef-decl name='value_type' type-id='type-id-37' filepath='/usr/include/c++/4.9/bits/stl_vector.h' line='226' column='1' id='type-id-1507'/>
        </member-type>
        <member-type access='public'>
          <typedef-decl name='pointer' type-id='type-id-2416' filepath='/usr/include/c++/4.9/bits/stl_vector.h' line='227' column='1' id='type-id-2415'/>
        </member-type>
        <member-type access='public'>
          <typedef-decl name='reference' type-id='type-id-2418' filepath='/usr/include/c++/4.9/bits/stl_vector.h' line='229' column='1' id='type-id-2417'/>
        </member-type>
        <member-type access='public'>
          <typedef-decl name='const_reference' type-id='type-id-2420' filepath='/usr/include/c++/4.9/bits/stl_vector.h' line='230' column='1' id='type-id-2419'/>
        </member-type>
        <member-type access='public'>
          <typedef-decl name='iterator' type-id='type-id-138' filepath='/usr/include/c++/4.9/bits/stl_vector.h' line='231' column='1' id='type-id-2421'/>
        </member-type>
        <member-type access='public'>
          <typedef-decl name='const_iterator' type-id='type-id-134' filepath='/usr/include/c++/4.9/bits/stl_vector.h' line='233' column='1' id='type-id-2422'/>
        </member-type>
        <member-type access='public'>
          <typedef-decl name='const_reverse_iterator' type-id='type-id-2424' filepath='/usr/include/c++/4.9/bits/stl_vector.h' line='234' column='1' id='type-id-2423'/>
        </member-type>
        <member-type access='public'>
          <typedef-decl name='reverse_iterator' type-id='type-id-2426' filepath='/usr/include/c++/4.9/bits/stl_vector.h' line='235' column='1' id='type-id-2425'/>
        </member-type>
        <member-type access='public'>
          <typedef-decl name='size_type' type-id='type-id-1381' filepath='/usr/include/c++/4.9/bits/stl_vector.h' line='236' column='1' id='type-id-1505'/>
        </member-type>
        <member-type access='public'>
          <typedef-decl name='allocator_type' type-id='type-id-1126' filepath='/usr/include/c++/4.9/bits/stl_vector.h' line='238' column='1' id='type-id-1502'/>
        </member-type>
        <member-function access='public'>
          <function-decl name='vector' filepath='/usr/include/c++/4.9/bits/stl_vector.h' line='253' column='1' visibility='default' binding='global' size-in-bits='64'>
            <parameter type-id='type-id-2260' is-artificial='yes'/>
            <return type-id='type-id-57'/>
          </function-decl>
        </member-function>
        <member-function access='public'>
          <function-decl name='vector' filepath='/usr/include/c++/4.9/bits/stl_vector.h' line='264' column='1' visibility='default' binding='global' size-in-bits='64'>
            <parameter type-id='type-id-2260' is-artificial='yes'/>
            <parameter type-id='type-id-1504'/>
            <return type-id='type-id-57'/>
          </function-decl>
        </member-function>
        <member-function access='public'>
          <function-decl name='vector' filepath='/usr/include/c++/4.9/bits/stl_vector.h' line='277' column='1' visibility='default' binding='global' size-in-bits='64'>
            <parameter type-id='type-id-2260' is-artificial='yes'/>
            <parameter type-id='type-id-1505'/>
            <parameter type-id='type-id-1504'/>
            <return type-id='type-id-57'/>
          </function-decl>
        </member-function>
        <member-function access='public'>
          <function-decl name='vector' filepath='/usr/include/c++/4.9/bits/stl_vector.h' line='289' column='1' visibility='default' binding='global' size-in-bits='64'>
            <parameter type-id='type-id-2260' is-artificial='yes'/>
            <parameter type-id='type-id-1505'/>
            <parameter type-id='type-id-1509'/>
            <parameter type-id='type-id-1504'/>
            <return type-id='type-id-57'/>
          </function-decl>
        </member-function>
        <member-function access='public'>
          <function-decl name='vector' filepath='/usr/include/c++/4.9/bits/stl_vector.h' line='318' column='1' visibility='default' binding='global' size-in-bits='64'>
            <parameter type-id='type-id-2260' is-artificial='yes'/>
            <parameter type-id='type-id-1498'/>
            <return type-id='type-id-57'/>
          </function-decl>
        </member-function>
        <member-function access='public'>
          <function-decl name='vector' filepath='/usr/include/c++/4.9/bits/stl_vector.h' line='335' column='1' visibility='default' binding='global' size-in-bits='64'>
            <parameter type-id='type-id-2260' is-artificial='yes'/>
            <parameter type-id='type-id-2258'/>
            <return type-id='type-id-57'/>
          </function-decl>
        </member-function>
        <member-function access='public'>
          <function-decl name='vector' filepath='/usr/include/c++/4.9/bits/stl_vector.h' line='339' column='1' visibility='default' binding='global' size-in-bits='64'>
            <parameter type-id='type-id-2260' is-artificial='yes'/>
            <parameter type-id='type-id-1498'/>
            <parameter type-id='type-id-1504'/>
            <return type-id='type-id-57'/>
          </function-decl>
        </member-function>
        <member-function access='public'>
          <function-decl name='vector' filepath='/usr/include/c++/4.9/bits/stl_vector.h' line='348' column='1' visibility='default' binding='global' size-in-bits='64'>
            <parameter type-id='type-id-2260' is-artificial='yes'/>
            <parameter type-id='type-id-2258'/>
            <parameter type-id='type-id-1504'/>
            <return type-id='type-id-57'/>
          </function-decl>
        </member-function>
        <member-function access='public'>
          <function-decl name='vector' filepath='/usr/include/c++/4.9/bits/stl_vector.h' line='373' column='1' visibility='default' binding='global' size-in-bits='64'>
            <parameter type-id='type-id-2260' is-artificial='yes'/>
            <parameter type-id='type-id-1216'/>
            <parameter type-id='type-id-1504'/>
            <return type-id='type-id-57'/>
          </function-decl>
        </member-function>
        <member-function access='public' destructor='yes'>
          <function-decl name='~vector' filepath='/usr/include/c++/4.9/bits/stl_vector.h' line='423' column='1' visibility='default' binding='global' size-in-bits='64'>
            <parameter type-id='type-id-2260' is-artificial='yes'/>
            <parameter type-id='type-id-29' is-artificial='yes'/>
            <return type-id='type-id-57'/>
          </function-decl>
        </member-function>
        <member-function access='public'>
          <function-decl name='vector' mangled-name='_ZNSt6vectorISsSaISsEEC2Ev' filepath='/usr/include/c++/4.9/bits/stl_vector.h' line='253' column='1' visibility='default' binding='global' size-in-bits='64' elf-symbol-id='_ZNSt6vectorISsSaISsEEC2Ev'>
            <parameter type-id='type-id-2260' is-artificial='yes'/>
            <return type-id='type-id-57'/>
          </function-decl>
        </member-function>
        <member-function access='public' destructor='yes'>
          <function-decl name='~vector' mangled-name='_ZNSt6vectorISsSaISsEED2Ev' filepath='/usr/include/c++/4.9/bits/stl_vector.h' line='423' column='1' visibility='default' binding='global' size-in-bits='64' elf-symbol-id='_ZNSt6vectorISsSaISsEED2Ev'>
            <parameter type-id='type-id-2260' is-artificial='yes'/>
            <parameter type-id='type-id-29' is-artificial='yes'/>
            <return type-id='type-id-57'/>
          </function-decl>
        </member-function>
        <member-function access='public'>
          <function-decl name='push_back' mangled-name='_ZNSt6vectorISsSaISsEE9push_backEOSs' filepath='/usr/include/c++/4.9/bits/stl_vector.h' line='931' column='1' visibility='default' binding='global' size-in-bits='64' elf-symbol-id='_ZNSt6vectorISsSaISsEE9push_backEOSs'>
            <parameter type-id='type-id-2261' name='this' is-artificial='yes'/>
            <parameter type-id='type-id-2263' name='__x' filepath='/usr/include/c++/4.9/bits/stl_vector.h' line='931' column='1'/>
            <return type-id='type-id-57'/>
          </function-decl>
        </member-function>
        <member-function access='public'>
          <function-decl name='operator=' mangled-name='_ZNSt6vectorISsSaISsEEaSEOS1_' filepath='/usr/include/c++/4.9/bits/stl_vector.h' line='448' column='1' visibility='default' binding='global' size-in-bits='64' elf-symbol-id='_ZNSt6vectorISsSaISsEEaSEOS1_'>
            <parameter type-id='type-id-2261' name='this' is-artificial='yes'/>
            <parameter type-id='type-id-2259' name='__x' filepath='/usr/include/c++/4.9/bits/stl_vector.h' line='448' column='1'/>
            <return type-id='type-id-2256'/>
          </function-decl>
        </member-function>
        <member-function access='public' const='yes'>
          <function-decl name='size' mangled-name='_ZNKSt6vectorISsSaISsEE4sizeEv' filepath='/usr/include/c++/4.9/bits/stl_vector.h' line='654' column='1' visibility='default' binding='global' size-in-bits='64' elf-symbol-id='_ZNKSt6vectorISsSaISsEE4sizeEv'>
            <parameter type-id='type-id-1501' name='this' is-artificial='yes'/>
            <return type-id='type-id-1505'/>
          </function-decl>
        </member-function>
        <member-function access='public' const='yes'>
          <function-decl name='begin' mangled-name='_ZNKSt6vectorISsSaISsEE5beginEv' filepath='/usr/include/c++/4.9/bits/stl_vector.h' line='556' column='1' visibility='default' binding='global' size-in-bits='64' elf-symbol-id='_ZNKSt6vectorISsSaISsEE5beginEv'>
            <parameter type-id='type-id-1501' name='this' is-artificial='yes'/>
            <return type-id='type-id-2422'/>
          </function-decl>
        </member-function>
        <member-function access='public' const='yes'>
          <function-decl name='end' mangled-name='_ZNKSt6vectorISsSaISsEE3endEv' filepath='/usr/include/c++/4.9/bits/stl_vector.h' line='574' column='1' visibility='default' binding='global' size-in-bits='64' elf-symbol-id='_ZNKSt6vectorISsSaISsEE3endEv'>
            <parameter type-id='type-id-1501' name='this' is-artificial='yes'/>
            <return type-id='type-id-2422'/>
          </function-decl>
        </member-function>
        <member-function access='public'>
          <function-decl name='emplace_back&lt;std::basic_string&lt;char, std::char_traits&lt;char&gt;, std::allocator&lt;char&gt; &gt; &gt;' mangled-name='_ZNSt6vectorISsSaISsEE12emplace_backIISsEEEvDpOT_' filepath='/usr/include/c++/4.9/bits/vector.tcc' line='91' column='1' visibility='default' binding='global' size-in-bits='64' elf-symbol-id='_ZNSt6vectorISsSaISsEE12emplace_backIISsEEEvDpOT_'>
            <parameter type-id='type-id-2260' is-artificial='yes'/>
            <parameter type-id='type-id-29' is-artificial='yes'/>
            <return type-id='type-id-57'/>
          </function-decl>
        </member-function>
        <member-function access='private'>
          <function-decl name='_M_move_assign' mangled-name='_ZNSt6vectorISsSaISsEE14_M_move_assignEOS1_St17integral_constantIbLb1EE' filepath='/usr/include/c++/4.9/bits/stl_vector.h' line='1454' column='1' visibility='default' binding='global' size-in-bits='64' elf-symbol-id='_ZNSt6vectorISsSaISsEE14_M_move_assignEOS1_St17integral_constantIbLb1EE'>
            <parameter type-id='type-id-2261' name='this' is-artificial='yes'/>
            <parameter type-id='type-id-2259' name='__x' filepath='/usr/include/c++/4.9/bits/stl_vector.h' line='1454' column='1'/>
            <parameter type-id='type-id-2372'/>
            <return type-id='type-id-57'/>
          </function-decl>
        </member-function>
        <member-function access='protected'>
          <function-decl name='_M_emplace_back_aux&lt;std::basic_string&lt;char, std::char_traits&lt;char&gt;, std::allocator&lt;char&gt; &gt; &gt;' mangled-name='_ZNSt6vectorISsSaISsEE19_M_emplace_back_auxIISsEEEvDpOT_' filepath='/usr/include/c++/4.9/bits/vector.tcc' line='407' column='1' visibility='default' binding='global' size-in-bits='64' elf-symbol-id='_ZNSt6vectorISsSaISsEE19_M_emplace_back_auxIISsEEEvDpOT_'>
            <parameter type-id='type-id-2260' is-artificial='yes'/>
            <parameter type-id='type-id-29' is-artificial='yes'/>
            <return type-id='type-id-57'/>
          </function-decl>
        </member-function>
        <member-function access='public'>
          <function-decl name='vector' mangled-name='_ZNSt6vectorISsSaISsEEC2ERKS0_' filepath='/usr/include/c++/4.9/bits/stl_vector.h' line='264' column='1' visibility='default' binding='global' size-in-bits='64' elf-symbol-id='_ZNSt6vectorISsSaISsEEC2ERKS0_'>
            <parameter type-id='type-id-2260' is-artificial='yes'/>
            <parameter type-id='type-id-1504'/>
            <return type-id='type-id-57'/>
          </function-decl>
        </member-function>
        <member-function access='protected' const='yes'>
          <function-decl name='_M_check_len' mangled-name='_ZNKSt6vectorISsSaISsEE12_M_check_lenEmPKc' filepath='/usr/include/c++/4.9/bits/stl_vector.h' line='1422' column='1' visibility='default' binding='global' size-in-bits='64' elf-symbol-id='_ZNKSt6vectorISsSaISsEE12_M_check_lenEmPKc'>
            <parameter type-id='type-id-1501' name='this' is-artificial='yes'/>
            <parameter type-id='type-id-1505' name='__n' filepath='/usr/include/c++/4.9/bits/stl_vector.h' line='1422' column='1'/>
            <parameter type-id='type-id-85' name='__s' filepath='/usr/include/c++/4.9/bits/stl_vector.h' line='1422' column='1'/>
            <return type-id='type-id-1505'/>
          </function-decl>
        </member-function>
        <member-function access='public' const='yes'>
          <function-decl name='max_size' mangled-name='_ZNKSt6vectorISsSaISsEE8max_sizeEv' filepath='/usr/include/c++/4.9/bits/stl_vector.h' line='659' column='1' visibility='default' binding='global' size-in-bits='64' elf-symbol-id='_ZNKSt6vectorISsSaISsEE8max_sizeEv'>
            <parameter type-id='type-id-1501' name='this' is-artificial='yes'/>
            <return type-id='type-id-1505'/>
          </function-decl>
        </member-function>
        <member-function access='public'>
          <function-decl name='operator=' mangled-name='_ZNSt6vectorISsSaISsEEaSERKS1_' filepath='/usr/include/c++/4.9/bits/vector.tcc' line='167' column='1' visibility='default' binding='global' size-in-bits='64' elf-symbol-id='_ZNSt6vectorISsSaISsEEaSERKS1_'>
            <parameter type-id='type-id-2261' name='this' is-artificial='yes'/>
            <parameter type-id='type-id-1499' name='__x' filepath='/usr/include/c++/4.9/bits/vector.tcc' line='168' column='1'/>
            <return type-id='type-id-2256'/>
          </function-decl>
        </member-function>
        <member-function access='public' const='yes'>
          <function-decl name='operator[]' mangled-name='_ZNKSt6vectorISsSaISsEEixEm' filepath='/usr/include/c++/4.9/bits/stl_vector.h' line='794' column='1' visibility='default' binding='global' size-in-bits='64' elf-symbol-id='_ZNKSt6vectorISsSaISsEEixEm'>
            <parameter type-id='type-id-1501' name='this' is-artificial='yes'/>
            <parameter type-id='type-id-1505' name='__n' filepath='/usr/include/c++/4.9/bits/stl_vector.h' line='794' column='1'/>
            <return type-id='type-id-2419'/>
          </function-decl>
        </member-function>
        <member-function access='public'>
          <function-decl name='clear' mangled-name='_ZNSt6vectorISsSaISsEE5clearEv' filepath='/usr/include/c++/4.9/bits/stl_vector.h' line='1211' column='1' visibility='default' binding='global' size-in-bits='64' elf-symbol-id='_ZNSt6vectorISsSaISsEE5clearEv'>
            <parameter type-id='type-id-2260' is-artificial='yes'/>
            <parameter type-id='type-id-29' is-artificial='yes'/>
            <return type-id='type-id-57'/>
          </function-decl>
        </member-function>
        <member-function access='public' const='yes'>
          <function-decl name='capacity' mangled-name='_ZNKSt6vectorISsSaISsEE8capacityEv' filepath='/usr/include/c++/4.9/bits/stl_vector.h' line='734' column='1' visibility='default' binding='global' size-in-bits='64' elf-symbol-id='_ZNKSt6vectorISsSaISsEE8capacityEv'>
            <parameter type-id='type-id-1501' name='this' is-artificial='yes'/>
            <return type-id='type-id-1505'/>
          </function-decl>
        </member-function>
        <member-function access='protected'>
          <function-decl name='_M_allocate_and_copy&lt;__gnu_cxx::__normal_iterator&lt;const std::basic_string&lt;char&gt;*, std::vector&lt;std::basic_string&lt;char&gt; &gt; &gt; &gt;' mangled-name='_ZNSt6vectorISsSaISsEE20_M_allocate_and_copyIN9__gnu_cxx17__normal_iteratorIPKSsS1_EEEEPSsmT_S9_' filepath='/usr/include/c++/4.9/bits/stl_vector.h' line='1221' column='1' visibility='default' binding='global' size-in-bits='64' elf-symbol-id='_ZNSt6vectorISsSaISsEE20_M_allocate_and_copyIN9__gnu_cxx17__normal_iteratorIPKSsS1_EEEEPSsmT_S9_'>
            <parameter type-id='type-id-2261' name='this' is-artificial='yes'/>
            <parameter type-id='type-id-1505' name='__n' filepath='/usr/include/c++/4.9/bits/stl_vector.h' line='1221' column='1'/>
            <parameter type-id='type-id-134' name='__first' filepath='/usr/include/c++/4.9/bits/stl_vector.h' line='1222' column='1'/>
            <parameter type-id='type-id-134' name='__last' filepath='/usr/include/c++/4.9/bits/stl_vector.h' line='1222' column='1'/>
            <return type-id='type-id-2415'/>
          </function-decl>
        </member-function>
        <member-function access='public'>
          <function-decl name='begin' mangled-name='_ZNSt6vectorISsSaISsEE5beginEv' filepath='/usr/include/c++/4.9/bits/stl_vector.h' line='547' column='1' visibility='default' binding='global' size-in-bits='64' elf-symbol-id='_ZNSt6vectorISsSaISsEE5beginEv'>
            <parameter type-id='type-id-2261' name='this' is-artificial='yes'/>
            <return type-id='type-id-2421'/>
          </function-decl>
        </member-function>
        <member-function access='public'>
          <function-decl name='end' mangled-name='_ZNSt6vectorISsSaISsEE3endEv' filepath='/usr/include/c++/4.9/bits/stl_vector.h' line='565' column='1' visibility='default' binding='global' size-in-bits='64' elf-symbol-id='_ZNSt6vectorISsSaISsEE3endEv'>
            <parameter type-id='type-id-2261' name='this' is-artificial='yes'/>
            <return type-id='type-id-2421'/>
          </function-decl>
        </member-function>
        <member-function access='protected'>
          <function-decl name='_M_erase_at_end' mangled-name='_ZNSt6vectorISsSaISsEE15_M_erase_at_endEPSs' filepath='/usr/include/c++/4.9/bits/stl_vector.h' line='1436' column='1' visibility='default' binding='global' size-in-bits='64' elf-symbol-id='_ZNSt6vectorISsSaISsEE15_M_erase_at_endEPSs'>
            <parameter type-id='type-id-2261' name='this' is-artificial='yes'/>
            <parameter type-id='type-id-2415' name='__pos' filepath='/usr/include/c++/4.9/bits/stl_vector.h' line='1436' column='1'/>
            <return type-id='type-id-57'/>
          </function-decl>
        </member-function>
      </class-decl>
      <class-decl name='_Vector_base&lt;std::basic_string&lt;char, std::char_traits&lt;char&gt;, std::allocator&lt;char&gt; &gt;, std::allocator&lt;std::basic_string&lt;char, std::char_traits&lt;char&gt;, std::allocator&lt;char&gt; &gt; &gt; &gt;' size-in-bits='192' is-struct='yes' visibility='default' filepath='/usr/include/c++/4.9/bits/stl_vector.h' line='72' column='1' id='type-id-965'>
        <member-type access='public'>
          <class-decl name='_Vector_impl' size-in-bits='192' is-struct='yes' visibility='default' filepath='/usr/include/c++/4.9/bits/stl_vector.h' line='79' column='1' id='type-id-1910'>
            <base-class access='public' layout-offset-in-bits='0' type-id='type-id-1126'/>
            <data-member access='public' layout-offset-in-bits='0'>
              <var-decl name='_M_start' type-id='type-id-2416' visibility='default' filepath='/usr/include/c++/4.9/bits/stl_vector.h' line='82' column='1'/>
            </data-member>
            <data-member access='public' layout-offset-in-bits='64'>
              <var-decl name='_M_finish' type-id='type-id-2416' visibility='default' filepath='/usr/include/c++/4.9/bits/stl_vector.h' line='83' column='1'/>
            </data-member>
            <data-member access='public' layout-offset-in-bits='128'>
              <var-decl name='_M_end_of_storage' type-id='type-id-2416' visibility='default' filepath='/usr/include/c++/4.9/bits/stl_vector.h' line='84' column='1'/>
            </data-member>
            <member-function access='public' constructor='yes'>
              <function-decl name='_Vector_impl' filepath='/usr/include/c++/4.9/bits/stl_vector.h' line='86' column='1' visibility='default' binding='global' size-in-bits='64'>
                <parameter type-id='type-id-1911' is-artificial='yes'/>
                <return type-id='type-id-57'/>
              </function-decl>
            </member-function>
            <member-function access='public' constructor='yes'>
              <function-decl name='_Vector_impl' filepath='/usr/include/c++/4.9/bits/stl_vector.h' line='90' column='1' visibility='default' binding='global' size-in-bits='64'>
                <parameter type-id='type-id-1911' is-artificial='yes'/>
                <parameter type-id='type-id-971'/>
                <return type-id='type-id-57'/>
              </function-decl>
            </member-function>
            <member-function access='public' constructor='yes'>
              <function-decl name='_Vector_impl' filepath='/usr/include/c++/4.9/bits/stl_vector.h' line='95' column='1' visibility='default' binding='global' size-in-bits='64'>
                <parameter type-id='type-id-1911' is-artificial='yes'/>
                <parameter type-id='type-id-1907'/>
                <return type-id='type-id-57'/>
              </function-decl>
            </member-function>
            <member-function access='public' constructor='yes'>
              <function-decl name='_Vector_impl' mangled-name='_ZNSt12_Vector_baseISsSaISsEE12_Vector_implC2Ev' filepath='/usr/include/c++/4.9/bits/stl_vector.h' line='86' column='1' visibility='default' binding='global' size-in-bits='64' elf-symbol-id='_ZNSt12_Vector_baseISsSaISsEE12_Vector_implC2Ev'>
                <parameter type-id='type-id-1911' is-artificial='yes'/>
                <return type-id='type-id-57'/>
              </function-decl>
            </member-function>
            <member-function access='public' constructor='yes'>
              <function-decl name='_Vector_impl' mangled-name='_ZNSt12_Vector_baseISsSaISsEE12_Vector_implC2ERKS0_' filepath='/usr/include/c++/4.9/bits/stl_vector.h' line='90' column='1' visibility='default' binding='global' size-in-bits='64' elf-symbol-id='_ZNSt12_Vector_baseISsSaISsEE12_Vector_implC2ERKS0_'>
                <parameter type-id='type-id-1911' is-artificial='yes'/>
                <parameter type-id='type-id-971'/>
                <return type-id='type-id-57'/>
              </function-decl>
            </member-function>
            <member-function access='public'>
              <function-decl name='_M_swap_data' mangled-name='_ZNSt12_Vector_baseISsSaISsEE12_Vector_impl12_M_swap_dataERS2_' filepath='/usr/include/c++/4.9/bits/stl_vector.h' line='101' column='1' visibility='default' binding='global' size-in-bits='64' elf-symbol-id='_ZNSt12_Vector_baseISsSaISsEE12_Vector_impl12_M_swap_dataERS2_'>
                <parameter type-id='type-id-1912' name='this' is-artificial='yes'/>
                <parameter type-id='type-id-1909' name='__x' filepath='/usr/include/c++/4.9/bits/stl_vector.h' line='101' column='1'/>
                <return type-id='type-id-57'/>
              </function-decl>
            </member-function>
          </class-decl>
        </member-type>
        <member-type access='public'>
          <typedef-decl name='pointer' type-id='type-id-2427' filepath='/usr/include/c++/4.9/bits/stl_vector.h' line='77' column='1' id='type-id-2416'/>
        </member-type>
        <member-type access='public'>
          <typedef-decl name='_Tp_alloc_type' type-id='type-id-2428' filepath='/usr/include/c++/4.9/bits/stl_vector.h' line='75' column='1' id='type-id-969'/>
        </member-type>
        <member-type access='public'>
          <typedef-decl name='allocator_type' type-id='type-id-1126' filepath='/usr/include/c++/4.9/bits/stl_vector.h' line='110' column='1' id='type-id-972'/>
        </member-type>
        <data-member access='public' layout-offset-in-bits='0'>
          <var-decl name='_M_impl' type-id='type-id-1910' visibility='default' filepath='/usr/include/c++/4.9/bits/stl_vector.h' line='164' column='1'/>
        </data-member>
        <member-function access='public'>
          <function-decl name='_Vector_base' filepath='/usr/include/c++/4.9/bits/stl_vector.h' line='124' column='1' visibility='default' binding='global' size-in-bits='64'>
            <parameter type-id='type-id-1904' is-artificial='yes'/>
            <return type-id='type-id-57'/>
          </function-decl>
        </member-function>
        <member-function access='public'>
          <function-decl name='_Vector_base' filepath='/usr/include/c++/4.9/bits/stl_vector.h' line='127' column='1' visibility='default' binding='global' size-in-bits='64'>
            <parameter type-id='type-id-1904' is-artificial='yes'/>
            <parameter type-id='type-id-974'/>
            <return type-id='type-id-57'/>
          </function-decl>
        </member-function>
        <member-function access='public'>
          <function-decl name='_Vector_base' filepath='/usr/include/c++/4.9/bits/stl_vector.h' line='130' column='1' visibility='default' binding='global' size-in-bits='64'>
            <parameter type-id='type-id-1904' is-artificial='yes'/>
            <parameter type-id='type-id-1381'/>
            <return type-id='type-id-57'/>
          </function-decl>
        </member-function>
        <member-function access='public'>
          <function-decl name='_Vector_base' filepath='/usr/include/c++/4.9/bits/stl_vector.h' line='134' column='1' visibility='default' binding='global' size-in-bits='64'>
            <parameter type-id='type-id-1904' is-artificial='yes'/>
            <parameter type-id='type-id-1381'/>
            <parameter type-id='type-id-974'/>
            <return type-id='type-id-57'/>
          </function-decl>
        </member-function>
        <member-function access='public'>
          <function-decl name='_Vector_base' filepath='/usr/include/c++/4.9/bits/stl_vector.h' line='139' column='1' visibility='default' binding='global' size-in-bits='64'>
            <parameter type-id='type-id-1904' is-artificial='yes'/>
            <parameter type-id='type-id-1907'/>
            <return type-id='type-id-57'/>
          </function-decl>
        </member-function>
        <member-function access='public'>
          <function-decl name='_Vector_base' filepath='/usr/include/c++/4.9/bits/stl_vector.h' line='142' column='1' visibility='default' binding='global' size-in-bits='64'>
            <parameter type-id='type-id-1904' is-artificial='yes'/>
            <parameter type-id='type-id-1903'/>
            <return type-id='type-id-57'/>
          </function-decl>
        </member-function>
        <member-function access='public'>
          <function-decl name='_Vector_base' filepath='/usr/include/c++/4.9/bits/stl_vector.h' line='146' column='1' visibility='default' binding='global' size-in-bits='64'>
            <parameter type-id='type-id-1904' is-artificial='yes'/>
            <parameter type-id='type-id-1903'/>
            <parameter type-id='type-id-974'/>
            <return type-id='type-id-57'/>
          </function-decl>
        </member-function>
        <member-function access='public' destructor='yes'>
          <function-decl name='~_Vector_base' filepath='/usr/include/c++/4.9/bits/stl_vector.h' line='159' column='1' visibility='default' binding='global' size-in-bits='64'>
            <parameter type-id='type-id-1904' is-artificial='yes'/>
            <parameter type-id='type-id-29' is-artificial='yes'/>
            <return type-id='type-id-57'/>
          </function-decl>
        </member-function>
        <member-function access='public'>
          <function-decl name='_Vector_base' mangled-name='_ZNSt12_Vector_baseISsSaISsEEC2Ev' filepath='/usr/include/c++/4.9/bits/stl_vector.h' line='124' column='1' visibility='default' binding='global' size-in-bits='64' elf-symbol-id='_ZNSt12_Vector_baseISsSaISsEEC2Ev'>
            <parameter type-id='type-id-1904' is-artificial='yes'/>
            <return type-id='type-id-57'/>
          </function-decl>
        </member-function>
        <member-function access='public' destructor='yes'>
          <function-decl name='~_Vector_base' mangled-name='_ZNSt12_Vector_baseISsSaISsEED2Ev' filepath='/usr/include/c++/4.9/bits/stl_vector.h' line='159' column='1' visibility='default' binding='global' size-in-bits='64' elf-symbol-id='_ZNSt12_Vector_baseISsSaISsEED2Ev'>
            <parameter type-id='type-id-1904' is-artificial='yes'/>
            <parameter type-id='type-id-29' is-artificial='yes'/>
            <return type-id='type-id-57'/>
          </function-decl>
        </member-function>
        <member-function access='public'>
          <function-decl name='_M_get_Tp_allocator' mangled-name='_ZNSt12_Vector_baseISsSaISsEE19_M_get_Tp_allocatorEv' filepath='/usr/include/c++/4.9/bits/stl_vector.h' line='113' column='1' visibility='default' binding='global' size-in-bits='64' elf-symbol-id='_ZNSt12_Vector_baseISsSaISsEE19_M_get_Tp_allocatorEv'>
            <parameter type-id='type-id-1905' name='this' is-artificial='yes'/>
            <return type-id='type-id-1906'/>
          </function-decl>
        </member-function>
        <member-function access='public' const='yes'>
          <function-decl name='_M_get_Tp_allocator' mangled-name='_ZNKSt12_Vector_baseISsSaISsEE19_M_get_Tp_allocatorEv' filepath='/usr/include/c++/4.9/bits/stl_vector.h' line='117' column='1' visibility='default' binding='global' size-in-bits='64' elf-symbol-id='_ZNKSt12_Vector_baseISsSaISsEE19_M_get_Tp_allocatorEv'>
            <parameter type-id='type-id-968' name='this' is-artificial='yes'/>
            <return type-id='type-id-971'/>
          </function-decl>
        </member-function>
        <member-function access='public'>
          <function-decl name='_M_deallocate' mangled-name='_ZNSt12_Vector_baseISsSaISsEE13_M_deallocateEPSsm' filepath='/usr/include/c++/4.9/bits/stl_vector.h' line='174' column='1' visibility='default' binding='global' size-in-bits='64' elf-symbol-id='_ZNSt12_Vector_baseISsSaISsEE13_M_deallocateEPSsm'>
            <parameter type-id='type-id-1905' name='this' is-artificial='yes'/>
            <parameter type-id='type-id-2416' name='__p' filepath='/usr/include/c++/4.9/bits/stl_vector.h' line='174' column='1'/>
            <parameter type-id='type-id-1381' name='__n' filepath='/usr/include/c++/4.9/bits/stl_vector.h' line='174' column='1'/>
            <return type-id='type-id-57'/>
          </function-decl>
        </member-function>
        <member-function access='public' const='yes'>
          <function-decl name='get_allocator' mangled-name='_ZNKSt12_Vector_baseISsSaISsEE13get_allocatorEv' filepath='/usr/include/c++/4.9/bits/stl_vector.h' line='121' column='1' visibility='default' binding='global' size-in-bits='64' elf-symbol-id='_ZNKSt12_Vector_baseISsSaISsEE13get_allocatorEv'>
            <parameter type-id='type-id-968' name='this' is-artificial='yes'/>
            <return type-id='type-id-972'/>
          </function-decl>
        </member-function>
        <member-function access='public'>
          <function-decl name='_M_allocate' mangled-name='_ZNSt12_Vector_baseISsSaISsEE11_M_allocateEm' filepath='/usr/include/c++/4.9/bits/stl_vector.h' line='167' column='1' visibility='default' binding='global' size-in-bits='64' elf-symbol-id='_ZNSt12_Vector_baseISsSaISsEE11_M_allocateEm'>
            <parameter type-id='type-id-1905' name='this' is-artificial='yes'/>
            <parameter type-id='type-id-1381' name='__n' filepath='/usr/include/c++/4.9/bits/stl_vector.h' line='167' column='1'/>
            <return type-id='type-id-2416'/>
          </function-decl>
        </member-function>
        <member-function access='public'>
          <function-decl name='_Vector_base' mangled-name='_ZNSt12_Vector_baseISsSaISsEEC2ERKS0_' filepath='/usr/include/c++/4.9/bits/stl_vector.h' line='127' column='1' visibility='default' binding='global' size-in-bits='64' elf-symbol-id='_ZNSt12_Vector_baseISsSaISsEEC2ERKS0_'>
            <parameter type-id='type-id-1904' is-artificial='yes'/>
            <parameter type-id='type-id-974'/>
            <return type-id='type-id-57'/>
          </function-decl>
        </member-function>
      </class-decl>
      <class-decl name='allocator&lt;std::basic_string&lt;char, std::char_traits&lt;char&gt;, std::allocator&lt;char&gt; &gt; &gt;' size-in-bits='8' visibility='default' filepath='/usr/include/c++/4.9/bits/allocator.h' line='92' column='1' id='type-id-1126'>
        <base-class access='public' layout-offset-in-bits='0' type-id='type-id-179'/>
        <member-type access='public'>
          <typedef-decl name='size_type' type-id='type-id-1381' filepath='/usr/include/c++/4.9/bits/allocator.h' line='95' column='1' id='type-id-2429'/>
        </member-type>
        <member-type access='public'>
          <typedef-decl name='pointer' type-id='type-id-2072' filepath='/usr/include/c++/4.9/bits/allocator.h' line='97' column='1' id='type-id-2430'/>
        </member-type>
        <member-type access='public'>
          <typedef-decl name='value_type' type-id='type-id-37' filepath='/usr/include/c++/4.9/bits/allocator.h' line='101' column='1' id='type-id-2431'/>
        </member-type>
        <member-type access='public'>
          <class-decl name='rebind&lt;std::basic_string&lt;char, std::char_traits&lt;char&gt;, std::allocator&lt;char&gt; &gt; &gt;' size-in-bits='8' is-struct='yes' visibility='default' filepath='/usr/include/c++/4.9/bits/allocator.h' line='104' column='1' id='type-id-2432'>
            <member-type access='public'>
              <typedef-decl name='other' type-id='type-id-1126' filepath='/usr/include/c++/4.9/bits/allocator.h' line='105' column='1' id='type-id-2433'/>
            </member-type>
          </class-decl>
        </member-type>
        <member-type access='public'>
          <class-decl name='rebind&lt;std::_Rb_tree_node&lt;std::basic_string&lt;char, std::char_traits&lt;char&gt;, std::allocator&lt;char&gt; &gt; &gt; &gt;' size-in-bits='8' is-struct='yes' visibility='default' filepath='/usr/include/c++/4.9/bits/allocator.h' line='104' column='1' id='type-id-2434'>
            <member-type access='public'>
              <typedef-decl name='other' type-id='type-id-1111' filepath='/usr/include/c++/4.9/bits/allocator.h' line='105' column='1' id='type-id-2435'/>
            </member-type>
          </class-decl>
        </member-type>
        <member-function access='public'>
          <function-decl name='allocator' filepath='/usr/include/c++/4.9/bits/allocator.h' line='113' column='1' visibility='default' binding='global' size-in-bits='64'>
            <parameter type-id='type-id-2027' is-artificial='yes'/>
            <return type-id='type-id-57'/>
          </function-decl>
        </member-function>
        <member-function access='public'>
          <function-decl name='allocator' filepath='/usr/include/c++/4.9/bits/allocator.h' line='115' column='1' visibility='default' binding='global' size-in-bits='64'>
            <parameter type-id='type-id-2027' is-artificial='yes'/>
            <parameter type-id='type-id-1128'/>
            <return type-id='type-id-57'/>
          </function-decl>
        </member-function>
        <member-function access='public' destructor='yes'>
          <function-decl name='~allocator' filepath='/usr/include/c++/4.9/bits/allocator.h' line='121' column='1' visibility='default' binding='global' size-in-bits='64'>
            <parameter type-id='type-id-2027' is-artificial='yes'/>
            <parameter type-id='type-id-29' is-artificial='yes'/>
            <return type-id='type-id-57'/>
          </function-decl>
        </member-function>
        <member-function access='public' destructor='yes'>
          <function-decl name='~allocator' mangled-name='_ZNSaISsED2Ev' filepath='/usr/include/c++/4.9/bits/allocator.h' line='121' column='1' visibility='default' binding='global' size-in-bits='64' elf-symbol-id='_ZNSaISsED2Ev'>
            <parameter type-id='type-id-2027' is-artificial='yes'/>
            <parameter type-id='type-id-29' is-artificial='yes'/>
            <return type-id='type-id-57'/>
          </function-decl>
        </member-function>
        <member-function access='public'>
          <function-decl name='allocator' mangled-name='_ZNSaISsEC2ERKS_' filepath='/usr/include/c++/4.9/bits/allocator.h' line='115' column='1' visibility='default' binding='global' size-in-bits='64' elf-symbol-id='_ZNSaISsEC2ERKS_'>
            <parameter type-id='type-id-2027' is-artificial='yes'/>
            <parameter type-id='type-id-1128'/>
            <return type-id='type-id-57'/>
          </function-decl>
        </member-function>
        <member-function access='public'>
          <function-decl name='allocator' mangled-name='_ZNSaISsEC2Ev' filepath='/usr/include/c++/4.9/bits/allocator.h' line='113' column='1' visibility='default' binding='global' size-in-bits='64' elf-symbol-id='_ZNSaISsEC2Ev'>
            <parameter type-id='type-id-2027' is-artificial='yes'/>
            <return type-id='type-id-57'/>
          </function-decl>
        </member-function>
      </class-decl>
      <class-decl name='allocator&lt;std::_Rb_tree_node&lt;std::basic_string&lt;char, std::char_traits&lt;char&gt;, std::allocator&lt;char&gt; &gt; &gt; &gt;' size-in-bits='8' visibility='default' filepath='/usr/include/c++/4.9/bits/allocator.h' line='92' column='1' id='type-id-1111'>
        <base-class access='public' layout-offset-in-bits='0' type-id='type-id-168'/>
        <member-function access='public'>
          <function-decl name='allocator' filepath='/usr/include/c++/4.9/bits/allocator.h' line='113' column='1' visibility='default' binding='global' size-in-bits='64'>
            <parameter type-id='type-id-2017' is-artificial='yes'/>
            <return type-id='type-id-57'/>
          </function-decl>
        </member-function>
        <member-function access='public'>
          <function-decl name='allocator' filepath='/usr/include/c++/4.9/bits/allocator.h' line='115' column='1' visibility='default' binding='global' size-in-bits='64'>
            <parameter type-id='type-id-2017' is-artificial='yes'/>
            <parameter type-id='type-id-1113'/>
            <return type-id='type-id-57'/>
          </function-decl>
        </member-function>
        <member-function access='public' destructor='yes'>
          <function-decl name='~allocator' filepath='/usr/include/c++/4.9/bits/allocator.h' line='121' column='1' visibility='default' binding='global' size-in-bits='64'>
            <parameter type-id='type-id-2017' is-artificial='yes'/>
            <parameter type-id='type-id-29' is-artificial='yes'/>
            <return type-id='type-id-57'/>
          </function-decl>
        </member-function>
      </class-decl>
      <class-decl name='allocator_traits&lt;std::allocator&lt;std::basic_string&lt;char, std::char_traits&lt;char&gt;, std::allocator&lt;char&gt; &gt; &gt; &gt;' size-in-bits='8' is-struct='yes' visibility='default' filepath='/usr/include/c++/4.9/bits/alloc_traits.h' line='80' column='1' id='type-id-2436'>
        <member-type access='public'>
          <typedef-decl name='value_type' type-id='type-id-2431' filepath='/usr/include/c++/4.9/bits/alloc_traits.h' line='85' column='1' id='type-id-2050'/>
        </member-type>
        <member-type access='private'>
          <typedef-decl name='__pointer' type-id='type-id-2430' filepath='/usr/include/c++/4.9/bits/alloc_traits.h' line='95' column='1' id='type-id-2437'/>
        </member-type>
        <member-type access='public'>
          <typedef-decl name='pointer' type-id='type-id-2437' filepath='/usr/include/c++/4.9/bits/alloc_traits.h' line='102' column='1' id='type-id-2438'/>
        </member-type>
        <member-type access='private'>
          <typedef-decl name='__const_void_pointer' type-id='type-id-2440' filepath='/usr/include/c++/4.9/bits/alloc_traits.h' line='126' column='1' id='type-id-2439'/>
        </member-type>
        <member-type access='public'>
          <typedef-decl name='const_void_pointer' type-id='type-id-2439' filepath='/usr/include/c++/4.9/bits/alloc_traits.h' line='135' column='1' id='type-id-2441'/>
        </member-type>
        <member-type access='private'>
          <typedef-decl name='__size_type' type-id='type-id-2429' filepath='/usr/include/c++/4.9/bits/alloc_traits.h' line='148' column='1' id='type-id-2442'/>
        </member-type>
        <member-type access='public'>
          <typedef-decl name='size_type' type-id='type-id-2442' filepath='/usr/include/c++/4.9/bits/alloc_traits.h' line='157' column='1' id='type-id-2443'/>
        </member-type>
        <member-type access='public'>
          <typedef-decl name='rebind_alloc' type-id='type-id-2445' filepath='/usr/include/c++/4.9/bits/alloc_traits.h' line='197' column='1' id='type-id-2444'/>
        </member-type>
        <member-function access='public' static='yes'>
          <function-decl name='construct&lt;std::basic_string&lt;char&gt;, std::basic_string&lt;char, std::char_traits&lt;char&gt;, std::allocator&lt;char&gt; &gt; &gt;' mangled-name='_ZNSt16allocator_traitsISaISsEE9constructISsISsEEEDTcl12_S_constructfp_fp0_spcl7forwardIT0_Efp1_EEERS0_PT_DpOS3_' filepath='/usr/include/c++/4.9/bits/alloc_traits.h' line='397' column='1' visibility='default' binding='global' size-in-bits='64' elf-symbol-id='_ZNSt16allocator_traitsISaISsEE9constructISsISsEEEDTcl12_S_constructfp_fp0_spcl7forwardIT0_Efp1_EEERS0_PT_DpOS3_'>
            <parameter type-id='type-id-2026' name='__a' filepath='/usr/include/c++/4.9/bits/alloc_traits.h' line='397' column='1'/>
            <parameter type-id='type-id-2072' name='__p' filepath='/usr/include/c++/4.9/bits/alloc_traits.h' line='397' column='1'/>
            <return type-id='type-id-57'/>
          </function-decl>
        </member-function>
        <member-function access='public' static='yes'>
          <function-decl name='deallocate' mangled-name='_ZNSt16allocator_traitsISaISsEE10deallocateERS0_PSsm' filepath='/usr/include/c++/4.9/bits/alloc_traits.h' line='382' column='1' visibility='default' binding='global' size-in-bits='64' elf-symbol-id='_ZNSt16allocator_traitsISaISsEE10deallocateERS0_PSsm'>
            <parameter type-id='type-id-2026' name='__a' filepath='/usr/include/c++/4.9/bits/alloc_traits.h' line='382' column='1'/>
            <parameter type-id='type-id-2438' name='__p' filepath='/usr/include/c++/4.9/bits/alloc_traits.h' line='382' column='1'/>
            <parameter type-id='type-id-2443' name='__n' filepath='/usr/include/c++/4.9/bits/alloc_traits.h' line='382' column='1'/>
            <return type-id='type-id-57'/>
          </function-decl>
        </member-function>
        <member-function access='private' static='yes'>
          <function-decl name='_S_construct&lt;std::basic_string&lt;char&gt;, std::basic_string&lt;char, std::char_traits&lt;char&gt;, std::allocator&lt;char&gt; &gt; &gt;' mangled-name='_ZNSt16allocator_traitsISaISsEE12_S_constructISsISsEEENSt9enable_ifIXsrSt6__and_IINS1_18__construct_helperIT_IDpT0_EE4typeEEE5valueEvE4typeERS0_PS6_DpOS7_' filepath='/usr/include/c++/4.9/bits/alloc_traits.h' line='252' column='1' visibility='default' binding='global' size-in-bits='64' elf-symbol-id='_ZNSt16allocator_traitsISaISsEE12_S_constructISsISsEEENSt9enable_ifIXsrSt6__and_IINS1_18__construct_helperIT_IDpT0_EE4typeEEE5valueEvE4typeERS0_PS6_DpOS7_'>
            <parameter type-id='type-id-2026' name='__a' filepath='/usr/include/c++/4.9/bits/alloc_traits.h' line='397' column='1'/>
            <parameter type-id='type-id-2072' name='__p' filepath='/usr/include/c++/4.9/bits/alloc_traits.h' line='397' column='1'/>
            <return type-id='type-id-57'/>
          </function-decl>
        </member-function>
        <member-function access='public' static='yes'>
          <function-decl name='destroy&lt;std::basic_string&lt;char&gt; &gt;' mangled-name='_ZNSt16allocator_traitsISaISsEE7destroyISsEEvRS0_PT_' filepath='/usr/include/c++/4.9/bits/alloc_traits.h' line='410' column='1' visibility='default' binding='global' size-in-bits='64' elf-symbol-id='_ZNSt16allocator_traitsISaISsEE7destroyISsEEvRS0_PT_'>
            <parameter type-id='type-id-2026' name='__a' filepath='/usr/include/c++/4.9/bits/alloc_traits.h' line='397' column='1'/>
            <parameter type-id='type-id-2072' name='__p' filepath='/usr/include/c++/4.9/bits/alloc_traits.h' line='397' column='1'/>
            <return type-id='type-id-57'/>
          </function-decl>
        </member-function>
        <member-function access='public' static='yes'>
          <function-decl name='allocate' mangled-name='_ZNSt16allocator_traitsISaISsEE8allocateERS0_m' filepath='/usr/include/c++/4.9/bits/alloc_traits.h' line='356' column='1' visibility='default' binding='global' size-in-bits='64' elf-symbol-id='_ZNSt16allocator_traitsISaISsEE8allocateERS0_m'>
            <parameter type-id='type-id-2026' name='__a' filepath='/usr/include/c++/4.9/bits/alloc_traits.h' line='356' column='1'/>
            <parameter type-id='type-id-2443' name='__n' filepath='/usr/include/c++/4.9/bits/alloc_traits.h' line='356' column='1'/>
            <return type-id='type-id-2438'/>
          </function-decl>
        </member-function>
        <member-function access='private' static='yes'>
          <function-decl name='_S_destroy&lt;std::basic_string&lt;char&gt; &gt;' mangled-name='_ZNSt16allocator_traitsISaISsEE10_S_destroyISsEENSt9enable_ifIXsrSt6__and_IINS1_16__destroy_helperIT_E4typeEEE5valueEvE4typeERS0_PS6_' filepath='/usr/include/c++/4.9/bits/alloc_traits.h' line='281' column='1' visibility='default' binding='global' size-in-bits='64' elf-symbol-id='_ZNSt16allocator_traitsISaISsEE10_S_destroyISsEENSt9enable_ifIXsrSt6__and_IINS1_16__destroy_helperIT_E4typeEEE5valueEvE4typeERS0_PS6_'>
            <parameter type-id='type-id-2026' name='__a' filepath='/usr/include/c++/4.9/bits/alloc_traits.h' line='397' column='1'/>
            <parameter type-id='type-id-2072' name='__p' filepath='/usr/include/c++/4.9/bits/alloc_traits.h' line='397' column='1'/>
            <return type-id='type-id-57'/>
          </function-decl>
        </member-function>
        <member-function access='public' static='yes'>
          <function-decl name='max_size' mangled-name='_ZNSt16allocator_traitsISaISsEE8max_sizeERKS0_' filepath='/usr/include/c++/4.9/bits/alloc_traits.h' line='421' column='1' visibility='default' binding='global' size-in-bits='64' elf-symbol-id='_ZNSt16allocator_traitsISaISsEE8max_sizeERKS0_'>
            <parameter type-id='type-id-1129' name='__a' filepath='/usr/include/c++/4.9/bits/alloc_traits.h' line='421' column='1'/>
            <return type-id='type-id-2443'/>
          </function-decl>
        </member-function>
        <member-function access='private' static='yes'>
          <function-decl name='_S_max_size&lt;const std::allocator&lt;std::basic_string&lt;char&gt; &gt;, void&gt;' mangled-name='_ZNSt16allocator_traitsISaISsEE11_S_max_sizeIKS0_vEEmRT_i' filepath='/usr/include/c++/4.9/bits/alloc_traits.h' line='308' column='1' visibility='default' binding='global' size-in-bits='64' elf-symbol-id='_ZNSt16allocator_traitsISaISsEE11_S_max_sizeIKS0_vEEmRT_i'>
            <parameter type-id='type-id-1129' name='__a' filepath='/usr/include/c++/4.9/bits/alloc_traits.h' line='308' column='1'/>
            <parameter type-id='type-id-29'/>
            <return type-id='type-id-2443'/>
          </function-decl>
        </member-function>
      </class-decl>
      <class-decl name='pointer_traits&lt;std::basic_string&lt;char, std::char_traits&lt;char&gt;, std::allocator&lt;char&gt; &gt;*&gt;' size-in-bits='8' is-struct='yes' visibility='default' filepath='/usr/include/c++/4.9/bits/ptr_traits.h' line='150' column='1' id='type-id-2446'>
        <member-type access='public'>
          <typedef-decl name='pointer' type-id='type-id-2072' filepath='/usr/include/c++/4.9/bits/ptr_traits.h' line='153' column='1' id='type-id-2447'/>
        </member-type>
        <member-type access='public'>
          <typedef-decl name='difference_type' type-id='type-id-2301' filepath='/usr/include/c++/4.9/bits/ptr_traits.h' line='157' column='1' id='type-id-2448'/>
        </member-type>
        <member-type access='public'>
          <typedef-decl name='rebind' type-id='type-id-23' filepath='/usr/include/c++/4.9/bits/ptr_traits.h' line='160' column='1' id='type-id-2440'/>
        </member-type>
      </class-decl>
      <class-decl name='__ptrtr_not_void&lt;std::basic_string&lt;char, std::char_traits&lt;char&gt;, std::allocator&lt;char&gt; &gt;, std::basic_string&lt;char, std::char_traits&lt;char&gt;, std::allocator&lt;char&gt; &gt; &gt;' size-in-bits='8' is-struct='yes' visibility='default' filepath='/usr/include/c++/4.9/bits/ptr_traits.h' line='105' column='1' id='type-id-2449'>
        <member-type access='public'>
          <typedef-decl name='__type' type-id='type-id-37' filepath='/usr/include/c++/4.9/bits/ptr_traits.h' line='107' column='1' id='type-id-1983'/>
        </member-type>
      </class-decl>
      <class-decl name='__alloctr_rebind&lt;std::allocator&lt;std::basic_string&lt;char, std::char_traits&lt;char&gt;, std::allocator&lt;char&gt; &gt; &gt;, std::basic_string&lt;char, std::char_traits&lt;char&gt;, std::allocator&lt;char&gt; &gt;, true&gt;' size-in-bits='8' is-struct='yes' visibility='default' filepath='/usr/include/c++/4.9/bits/alloc_traits.h' line='63' column='1' id='type-id-2450'>
        <member-type access='public'>
          <typedef-decl name='__type' type-id='type-id-2433' filepath='/usr/include/c++/4.9/bits/alloc_traits.h' line='65' column='1' id='type-id-2445'/>
        </member-type>
      </class-decl>
      <class-decl name='__alloctr_rebind&lt;std::allocator&lt;std::basic_string&lt;char, std::char_traits&lt;char&gt;, std::allocator&lt;char&gt; &gt; &gt;, std::_Rb_tree_node&lt;std::basic_string&lt;char, std::char_traits&lt;char&gt;, std::allocator&lt;char&gt; &gt; &gt;, true&gt;' size-in-bits='8' is-struct='yes' visibility='default' filepath='/usr/include/c++/4.9/bits/alloc_traits.h' line='63' column='1' id='type-id-2451'>
        <member-type access='public'>
          <typedef-decl name='__type' type-id='type-id-2435' filepath='/usr/include/c++/4.9/bits/alloc_traits.h' line='65' column='1' id='type-id-2452'/>
        </member-type>
      </class-decl>
      <class-decl name='initializer_list&lt;std::basic_string&lt;char, std::char_traits&lt;char&gt;, std::allocator&lt;char&gt; &gt; &gt;' size-in-bits='128' visibility='default' filepath='/usr/include/c++/4.9/initializer_list' line='47' column='1' id='type-id-1216'>
        <member-type access='public'>
          <typedef-decl name='iterator' type-id='type-id-1151' filepath='/usr/include/c++/4.9/initializer_list' line='54' column='1' id='type-id-2453'/>
        </member-type>
        <member-type access='public'>
          <typedef-decl name='size_type' type-id='type-id-1381' filepath='/usr/include/c++/4.9/initializer_list' line='53' column='1' id='type-id-2454'/>
        </member-type>
        <member-type access='public'>
          <typedef-decl name='const_iterator' type-id='type-id-1151' filepath='/usr/include/c++/4.9/initializer_list' line='55' column='1' id='type-id-2455'/>
        </member-type>
        <data-member access='private' layout-offset-in-bits='0'>
          <var-decl name='_M_array' type-id='type-id-2453' visibility='default' filepath='/usr/include/c++/4.9/initializer_list' line='58' column='1'/>
        </data-member>
        <data-member access='private' layout-offset-in-bits='64'>
          <var-decl name='_M_len' type-id='type-id-2454' visibility='default' filepath='/usr/include/c++/4.9/initializer_list' line='59' column='1'/>
        </data-member>
        <member-function access='private'>
          <function-decl name='initializer_list' filepath='/usr/include/c++/4.9/initializer_list' line='62' column='1' visibility='default' binding='global' size-in-bits='64'>
            <parameter type-id='type-id-2102' is-artificial='yes'/>
            <parameter type-id='type-id-2455'/>
            <parameter type-id='type-id-2454'/>
            <return type-id='type-id-57'/>
          </function-decl>
        </member-function>
        <member-function access='public'>
          <function-decl name='initializer_list' filepath='/usr/include/c++/4.9/initializer_list' line='66' column='1' visibility='default' binding='global' size-in-bits='64'>
            <parameter type-id='type-id-2102' is-artificial='yes'/>
            <return type-id='type-id-57'/>
          </function-decl>
        </member-function>
      </class-decl>
      <class-decl name='map&lt;std::basic_string&lt;char, std::char_traits&lt;char&gt;, std::allocator&lt;char&gt; &gt;, std::basic_string&lt;char, std::char_traits&lt;char&gt;, std::allocator&lt;char&gt; &gt;, std::less&lt;std::basic_string&lt;char, std::char_traits&lt;char&gt;, std::allocator&lt;char&gt; &gt; &gt;, std::allocator&lt;std::pair&lt;const std::basic_string&lt;char, std::char_traits&lt;char&gt;, std::allocator&lt;char&gt; &gt;, std::basic_string&lt;char, std::char_traits&lt;char&gt;, std::allocator&lt;char&gt; &gt; &gt; &gt; &gt;' size-in-bits='384' visibility='default' filepath='/usr/include/c++/4.9/bits/stl_map.h' line='96' column='1' id='type-id-1310'>
        <member-type access='private'>
          <typedef-decl name='_Rep_type' type-id='type-id-827' filepath='/usr/include/c++/4.9/bits/stl_map.h' line='135' column='1' id='type-id-2456'/>
        </member-type>
        <member-type access='public'>
          <typedef-decl name='key_type' type-id='type-id-37' filepath='/usr/include/c++/4.9/bits/stl_map.h' line='99' column='1' id='type-id-1317'/>
        </member-type>
        <member-type access='public'>
          <typedef-decl name='mapped_type' type-id='type-id-37' filepath='/usr/include/c++/4.9/bits/stl_map.h' line='100' column='1' id='type-id-1320'/>
        </member-type>
        <member-type access='public'>
          <typedef-decl name='value_type' type-id='type-id-1349' filepath='/usr/include/c++/4.9/bits/stl_map.h' line='101' column='1' id='type-id-1323'/>
        </member-type>
        <member-type access='public'>
          <typedef-decl name='key_compare' type-id='type-id-1254' filepath='/usr/include/c++/4.9/bits/stl_map.h' line='102' column='1' id='type-id-2457'/>
        </member-type>
        <member-type access='public'>
          <typedef-decl name='allocator_type' type-id='type-id-1139' filepath='/usr/include/c++/4.9/bits/stl_map.h' line='103' column='1' id='type-id-1314'/>
        </member-type>
        <member-type access='public'>
          <typedef-decl name='iterator' type-id='type-id-2459' filepath='/usr/include/c++/4.9/bits/stl_map.h' line='149' column='1' id='type-id-2458'/>
        </member-type>
        <member-type access='public'>
          <typedef-decl name='const_iterator' type-id='type-id-2461' filepath='/usr/include/c++/4.9/bits/stl_map.h' line='150' column='1' id='type-id-2460'/>
        </member-type>
        <member-type access='public'>
          <typedef-decl name='size_type' type-id='type-id-2463' filepath='/usr/include/c++/4.9/bits/stl_map.h' line='151' column='1' id='type-id-2462'/>
        </member-type>
        <member-type access='public'>
          <typedef-decl name='reverse_iterator' type-id='type-id-2465' filepath='/usr/include/c++/4.9/bits/stl_map.h' line='153' column='1' id='type-id-2464'/>
        </member-type>
        <member-type access='public'>
          <typedef-decl name='const_reverse_iterator' type-id='type-id-2467' filepath='/usr/include/c++/4.9/bits/stl_map.h' line='154' column='1' id='type-id-2466'/>
        </member-type>
        <member-type access='private'>
          <class-decl name='value_compare' visibility='default' is-declaration-only='yes' id='type-id-2468'/>
        </member-type>
        <data-member access='private' layout-offset-in-bits='0'>
          <var-decl name='_M_t' type-id='type-id-2456' visibility='default' filepath='/usr/include/c++/4.9/bits/stl_map.h' line='138' column='1'/>
        </data-member>
        <member-function access='public'>
          <function-decl name='map' filepath='/usr/include/c++/4.9/bits/stl_map.h' line='162' column='1' visibility='default' binding='global' size-in-bits='64'>
            <parameter type-id='type-id-2132' is-artificial='yes'/>
            <return type-id='type-id-57'/>
          </function-decl>
        </member-function>
        <member-function access='public'>
          <function-decl name='map' filepath='/usr/include/c++/4.9/bits/stl_map.h' line='171' column='1' visibility='default' binding='global' size-in-bits='64'>
            <parameter type-id='type-id-2132' is-artificial='yes'/>
            <parameter type-id='type-id-1256'/>
            <parameter type-id='type-id-1316'/>
            <return type-id='type-id-57'/>
          </function-decl>
        </member-function>
        <member-function access='public'>
          <function-decl name='map' filepath='/usr/include/c++/4.9/bits/stl_map.h' line='182' column='1' visibility='default' binding='global' size-in-bits='64'>
            <parameter type-id='type-id-2132' is-artificial='yes'/>
            <parameter type-id='type-id-1312'/>
            <return type-id='type-id-57'/>
          </function-decl>
        </member-function>
        <member-function access='public'>
          <function-decl name='map' filepath='/usr/include/c++/4.9/bits/stl_map.h' line='193' column='1' visibility='default' binding='global' size-in-bits='64'>
            <parameter type-id='type-id-2132' is-artificial='yes'/>
            <parameter type-id='type-id-2131'/>
            <return type-id='type-id-57'/>
          </function-decl>
        </member-function>
        <member-function access='public'>
          <function-decl name='map' filepath='/usr/include/c++/4.9/bits/stl_map.h' line='208' column='1' visibility='default' binding='global' size-in-bits='64'>
            <parameter type-id='type-id-2132' is-artificial='yes'/>
            <parameter type-id='type-id-1219'/>
            <parameter type-id='type-id-1256'/>
            <parameter type-id='type-id-1316'/>
            <return type-id='type-id-57'/>
          </function-decl>
        </member-function>
        <member-function access='public'>
          <function-decl name='map' filepath='/usr/include/c++/4.9/bits/stl_map.h' line='216' column='1' visibility='default' binding='global' size-in-bits='64'>
            <parameter type-id='type-id-2132' is-artificial='yes'/>
            <parameter type-id='type-id-1316'/>
            <return type-id='type-id-57'/>
          </function-decl>
        </member-function>
        <member-function access='public'>
          <function-decl name='map' filepath='/usr/include/c++/4.9/bits/stl_map.h' line='220' column='1' visibility='default' binding='global' size-in-bits='64'>
            <parameter type-id='type-id-2132' is-artificial='yes'/>
            <parameter type-id='type-id-1312'/>
            <parameter type-id='type-id-1316'/>
            <return type-id='type-id-57'/>
          </function-decl>
        </member-function>
        <member-function access='public'>
          <function-decl name='map' filepath='/usr/include/c++/4.9/bits/stl_map.h' line='224' column='1' visibility='default' binding='global' size-in-bits='64'>
            <parameter type-id='type-id-2132' is-artificial='yes'/>
            <parameter type-id='type-id-2131'/>
            <parameter type-id='type-id-1316'/>
            <return type-id='type-id-57'/>
          </function-decl>
        </member-function>
        <member-function access='public'>
          <function-decl name='map' filepath='/usr/include/c++/4.9/bits/stl_map.h' line='230' column='1' visibility='default' binding='global' size-in-bits='64'>
            <parameter type-id='type-id-2132' is-artificial='yes'/>
            <parameter type-id='type-id-1219'/>
            <parameter type-id='type-id-1316'/>
            <return type-id='type-id-57'/>
          </function-decl>
        </member-function>
        <member-function access='public'>
          <function-decl name='map' mangled-name='_ZNSt3mapISsSsSt4lessISsESaISt4pairIKSsSsEEEC2Ev' filepath='/usr/include/c++/4.9/bits/stl_map.h' line='162' column='1' visibility='default' binding='global' size-in-bits='64' elf-symbol-id='_ZNSt3mapISsSsSt4lessISsESaISt4pairIKSsSsEEEC2Ev'>
            <parameter type-id='type-id-2132' is-artificial='yes'/>
            <return type-id='type-id-57'/>
          </function-decl>
        </member-function>
        <member-function access='public'>
          <function-decl name='begin' mangled-name='_ZNSt3mapISsSsSt4lessISsESaISt4pairIKSsSsEEE5beginEv' filepath='/usr/include/c++/4.9/bits/stl_map.h' line='355' column='1' visibility='default' binding='global' size-in-bits='64' elf-symbol-id='_ZNSt3mapISsSsSt4lessISsESaISt4pairIKSsSsEEE5beginEv'>
            <parameter type-id='type-id-2133' name='this' is-artificial='yes'/>
            <return type-id='type-id-2458'/>
          </function-decl>
        </member-function>
        <member-function access='public'>
          <function-decl name='end' mangled-name='_ZNSt3mapISsSsSt4lessISsESaISt4pairIKSsSsEEE3endEv' filepath='/usr/include/c++/4.9/bits/stl_map.h' line='373' column='1' visibility='default' binding='global' size-in-bits='64' elf-symbol-id='_ZNSt3mapISsSsSt4lessISsESaISt4pairIKSsSsEEE3endEv'>
            <parameter type-id='type-id-2133' name='this' is-artificial='yes'/>
            <return type-id='type-id-2458'/>
          </function-decl>
        </member-function>
      </class-decl>
      <class-decl name='_Rb_tree&lt;std::basic_string&lt;char, std::char_traits&lt;char&gt;, std::allocator&lt;char&gt; &gt;, std::pair&lt;const std::basic_string&lt;char, std::char_traits&lt;char&gt;, std::allocator&lt;char&gt; &gt;, std::basic_string&lt;char, std::char_traits&lt;char&gt;, std::allocator&lt;char&gt; &gt; &gt;, std::_Select1st&lt;std::pair&lt;const std::basic_string&lt;char, std::char_traits&lt;char&gt;, std::allocator&lt;char&gt; &gt;, std::basic_string&lt;char, std::char_traits&lt;char&gt;, std::allocator&lt;char&gt; &gt; &gt; &gt;, std::less&lt;std::basic_string&lt;char, std::char_traits&lt;char&gt;, std::allocator&lt;char&gt; &gt; &gt;, std::allocator&lt;std::pair&lt;const std::basic_string&lt;char, std::char_traits&lt;char&gt;, std::allocator&lt;char&gt; &gt;, std::basic_string&lt;char, std::char_traits&lt;char&gt;, std::allocator&lt;char&gt; &gt; &gt; &gt; &gt;' size-in-bits='384' visibility='default' filepath='/usr/include/c++/4.9/bits/stl_tree.h' line='346' column='1' id='type-id-827'>
        <member-type access='protected'>
          <class-decl name='_Rb_tree_impl&lt;std::less&lt;std::basic_string&lt;char, std::char_traits&lt;char&gt;, std::allocator&lt;char&gt; &gt; &gt;, true&gt;' size-in-bits='384' is-struct='yes' visibility='default' filepath='/usr/include/c++/4.9/bits/stl_tree.h' line='455' column='1' id='type-id-1815'>
            <base-class access='public' layout-offset-in-bits='0' type-id='type-id-1120'/>
            <data-member access='public' layout-offset-in-bits='0'>
              <var-decl name='_M_key_compare' type-id='type-id-1254' visibility='default' filepath='/usr/include/c++/4.9/bits/stl_tree.h' line='457' column='1'/>
            </data-member>
            <data-member access='public' layout-offset-in-bits='64'>
              <var-decl name='_M_header' type-id='type-id-876' visibility='default' filepath='/usr/include/c++/4.9/bits/stl_tree.h' line='458' column='1'/>
            </data-member>
            <data-member access='public' layout-offset-in-bits='320'>
              <var-decl name='_M_node_count' type-id='type-id-2463' visibility='default' filepath='/usr/include/c++/4.9/bits/stl_tree.h' line='459' column='1'/>
            </data-member>
            <member-function access='public'>
              <function-decl name='_Rb_tree_impl' filepath='/usr/include/c++/4.9/bits/stl_tree.h' line='461' column='1' visibility='default' binding='global' size-in-bits='64'>
                <parameter type-id='type-id-1816' is-artificial='yes'/>
                <return type-id='type-id-57'/>
              </function-decl>
            </member-function>
            <member-function access='public'>
              <function-decl name='_Rb_tree_impl' filepath='/usr/include/c++/4.9/bits/stl_tree.h' line='466' column='1' visibility='default' binding='global' size-in-bits='64'>
                <parameter type-id='type-id-1816' is-artificial='yes'/>
                <parameter type-id='type-id-1256'/>
                <parameter type-id='type-id-833'/>
                <return type-id='type-id-57'/>
              </function-decl>
            </member-function>
            <member-function access='public'>
              <function-decl name='_Rb_tree_impl' filepath='/usr/include/c++/4.9/bits/stl_tree.h' line='472' column='1' visibility='default' binding='global' size-in-bits='64'>
                <parameter type-id='type-id-1816' is-artificial='yes'/>
                <parameter type-id='type-id-1256'/>
                <parameter type-id='type-id-1814'/>
                <return type-id='type-id-57'/>
              </function-decl>
            </member-function>
            <member-function access='public'>
              <function-decl name='_Rb_tree_impl' mangled-name='_ZNSt8_Rb_treeISsSt4pairIKSsSsESt10_Select1stIS2_ESt4lessISsESaIS2_EE13_Rb_tree_implIS6_Lb1EEC2Ev' filepath='/usr/include/c++/4.9/bits/stl_tree.h' line='461' column='1' visibility='default' binding='global' size-in-bits='64' elf-symbol-id='_ZNSt8_Rb_treeISsSt4pairIKSsSsESt10_Select1stIS2_ESt4lessISsESaIS2_EE13_Rb_tree_implIS6_Lb1EEC2Ev'>
                <parameter type-id='type-id-1816' is-artificial='yes'/>
                <return type-id='type-id-57'/>
              </function-decl>
            </member-function>
            <member-function access='private'>
              <function-decl name='_M_initialize' mangled-name='_ZNSt8_Rb_treeISsSt4pairIKSsSsESt10_Select1stIS2_ESt4lessISsESaIS2_EE13_Rb_tree_implIS6_Lb1EE13_M_initializeEv' filepath='/usr/include/c++/4.9/bits/stl_tree.h' line='480' column='1' visibility='default' binding='global' size-in-bits='64' elf-symbol-id='_ZNSt8_Rb_treeISsSt4pairIKSsSsESt10_Select1stIS2_ESt4lessISsESaIS2_EE13_Rb_tree_implIS6_Lb1EE13_M_initializeEv'>
                <parameter type-id='type-id-1816' is-artificial='yes'/>
                <return type-id='type-id-57'/>
              </function-decl>
            </member-function>
          </class-decl>
        </member-type>
        <member-type access='public'>
          <typedef-decl name='size_type' type-id='type-id-1381' filepath='/usr/include/c++/4.9/bits/stl_tree.h' line='366' column='1' id='type-id-2463'/>
        </member-type>
        <member-type access='private'>
          <typedef-decl name='_Node_allocator' type-id='type-id-2469' filepath='/usr/include/c++/4.9/bits/stl_tree.h' line='349' column='1' id='type-id-831'/>
        </member-type>
        <member-type access='protected'>
          <typedef-decl name='_Base_ptr' type-id='type-id-1831' filepath='/usr/include/c++/4.9/bits/stl_tree.h' line='354' column='1' id='type-id-1811'/>
        </member-type>
        <member-type access='protected'>
          <typedef-decl name='_Const_Base_ptr' type-id='type-id-878' filepath='/usr/include/c++/4.9/bits/stl_tree.h' line='355' column='1' id='type-id-2470'/>
        </member-type>
        <member-type access='public'>
          <typedef-decl name='key_type' type-id='type-id-37' filepath='/usr/include/c++/4.9/bits/stl_tree.h' line='358' column='1' id='type-id-837'/>
        </member-type>
        <member-type access='public'>
          <typedef-decl name='value_type' type-id='type-id-1349' filepath='/usr/include/c++/4.9/bits/stl_tree.h' line='359' column='1' id='type-id-840'/>
        </member-type>
        <member-type access='public'>
          <typedef-decl name='const_reference' type-id='type-id-842' filepath='/usr/include/c++/4.9/bits/stl_tree.h' line='363' column='1' id='type-id-2471'/>
        </member-type>
        <member-type access='public'>
          <typedef-decl name='_Link_type' type-id='type-id-1829' filepath='/usr/include/c++/4.9/bits/stl_tree.h' line='364' column='1' id='type-id-2472'/>
        </member-type>
        <member-type access='public'>
          <typedef-decl name='_Const_Link_type' type-id='type-id-875' filepath='/usr/include/c++/4.9/bits/stl_tree.h' line='365' column='1' id='type-id-2473'/>
        </member-type>
        <member-type access='public'>
          <typedef-decl name='allocator_type' type-id='type-id-1139' filepath='/usr/include/c++/4.9/bits/stl_tree.h' line='368' column='1' id='type-id-834'/>
        </member-type>
        <member-type access='public'>
          <typedef-decl name='iterator' type-id='type-id-852' filepath='/usr/include/c++/4.9/bits/stl_tree.h' line='584' column='1' id='type-id-2459'/>
        </member-type>
        <member-type access='public'>
          <typedef-decl name='const_iterator' type-id='type-id-843' filepath='/usr/include/c++/4.9/bits/stl_tree.h' line='585' column='1' id='type-id-2461'/>
        </member-type>
        <member-type access='public'>
          <typedef-decl name='reverse_iterator' type-id='type-id-2474' filepath='/usr/include/c++/4.9/bits/stl_tree.h' line='587' column='1' id='type-id-2465'/>
        </member-type>
        <member-type access='public'>
          <typedef-decl name='const_reverse_iterator' type-id='type-id-2475' filepath='/usr/include/c++/4.9/bits/stl_tree.h' line='588' column='1' id='type-id-2467'/>
        </member-type>
        <data-member access='protected' layout-offset-in-bits='0'>
          <var-decl name='_M_impl' type-id='type-id-1815' visibility='default' filepath='/usr/include/c++/4.9/bits/stl_tree.h' line='489' column='1'/>
        </data-member>
        <member-function access='public'>
          <function-decl name='_Rb_tree' filepath='/usr/include/c++/4.9/bits/stl_tree.h' line='664' column='1' visibility='default' binding='global' size-in-bits='64'>
            <parameter type-id='type-id-1809' is-artificial='yes'/>
            <return type-id='type-id-57'/>
          </function-decl>
        </member-function>
        <member-function access='public'>
          <function-decl name='_Rb_tree' filepath='/usr/include/c++/4.9/bits/stl_tree.h' line='666' column='1' visibility='default' binding='global' size-in-bits='64'>
            <parameter type-id='type-id-1809' is-artificial='yes'/>
            <parameter type-id='type-id-1256'/>
            <parameter type-id='type-id-836'/>
            <return type-id='type-id-57'/>
          </function-decl>
        </member-function>
        <member-function access='public'>
          <function-decl name='_Rb_tree' filepath='/usr/include/c++/4.9/bits/stl_tree.h' line='670' column='1' visibility='default' binding='global' size-in-bits='64'>
            <parameter type-id='type-id-1809' is-artificial='yes'/>
            <parameter type-id='type-id-829'/>
            <return type-id='type-id-57'/>
          </function-decl>
        </member-function>
        <member-function access='public'>
          <function-decl name='_Rb_tree' filepath='/usr/include/c++/4.9/bits/stl_tree.h' line='684' column='1' visibility='default' binding='global' size-in-bits='64'>
            <parameter type-id='type-id-1809' is-artificial='yes'/>
            <parameter type-id='type-id-836'/>
            <return type-id='type-id-57'/>
          </function-decl>
        </member-function>
        <member-function access='public'>
          <function-decl name='_Rb_tree' filepath='/usr/include/c++/4.9/bits/stl_tree.h' line='688' column='1' visibility='default' binding='global' size-in-bits='64'>
            <parameter type-id='type-id-1809' is-artificial='yes'/>
            <parameter type-id='type-id-829'/>
            <parameter type-id='type-id-836'/>
            <return type-id='type-id-57'/>
          </function-decl>
        </member-function>
        <member-function access='public'>
          <function-decl name='_Rb_tree' filepath='/usr/include/c++/4.9/bits/stl_tree.h' line='700' column='1' visibility='default' binding='global' size-in-bits='64'>
            <parameter type-id='type-id-1809' is-artificial='yes'/>
            <parameter type-id='type-id-1808'/>
            <return type-id='type-id-57'/>
          </function-decl>
        </member-function>
        <member-function access='public'>
          <function-decl name='_Rb_tree' filepath='/usr/include/c++/4.9/bits/stl_tree.h' line='707' column='1' visibility='default' binding='global' size-in-bits='64'>
            <parameter type-id='type-id-1809' is-artificial='yes'/>
            <parameter type-id='type-id-1808'/>
            <parameter type-id='type-id-836'/>
            <return type-id='type-id-57'/>
          </function-decl>
        </member-function>
        <member-function access='public'>
          <function-decl name='_Rb_tree' filepath='/usr/include/c++/4.9/bits/stl_tree.h' line='1025' column='1' visibility='default' binding='global' size-in-bits='64'>
            <parameter type-id='type-id-1809' is-artificial='yes'/>
            <parameter type-id='type-id-1808'/>
            <parameter type-id='type-id-1814'/>
            <return type-id='type-id-57'/>
          </function-decl>
        </member-function>
        <member-function access='public' destructor='yes'>
          <function-decl name='~_Rb_tree' filepath='/usr/include/c++/4.9/bits/stl_tree.h' line='714' column='1' visibility='default' binding='global' size-in-bits='64'>
            <parameter type-id='type-id-1809' is-artificial='yes'/>
            <parameter type-id='type-id-29' is-artificial='yes'/>
            <return type-id='type-id-57'/>
          </function-decl>
        </member-function>
        <member-function access='public' destructor='yes'>
          <function-decl name='~_Rb_tree' mangled-name='_ZNSt8_Rb_treeISsSt4pairIKSsSsESt10_Select1stIS2_ESt4lessISsESaIS2_EED2Ev' filepath='/usr/include/c++/4.9/bits/stl_tree.h' line='714' column='1' visibility='default' binding='global' size-in-bits='64' elf-symbol-id='_ZNSt8_Rb_treeISsSt4pairIKSsSsESt10_Select1stIS2_ESt4lessISsESaIS2_EED2Ev'>
            <parameter type-id='type-id-1809' is-artificial='yes'/>
            <parameter type-id='type-id-29' is-artificial='yes'/>
            <return type-id='type-id-57'/>
          </function-decl>
        </member-function>
        <member-function access='public'>
          <function-decl name='_Rb_tree' mangled-name='_ZNSt8_Rb_treeISsSt4pairIKSsSsESt10_Select1stIS2_ESt4lessISsESaIS2_EEC2Ev' filepath='/usr/include/c++/4.9/bits/stl_tree.h' line='664' column='1' visibility='default' binding='global' size-in-bits='64' elf-symbol-id='_ZNSt8_Rb_treeISsSt4pairIKSsSsESt10_Select1stIS2_ESt4lessISsESaIS2_EEC2Ev'>
            <parameter type-id='type-id-1809' is-artificial='yes'/>
            <return type-id='type-id-57'/>
          </function-decl>
        </member-function>
        <member-function access='private'>
          <function-decl name='_M_erase' mangled-name='_ZNSt8_Rb_treeISsSt4pairIKSsSsESt10_Select1stIS2_ESt4lessISsESaIS2_EE8_M_eraseEPSt13_Rb_tree_nodeIS2_E' filepath='/usr/include/c++/4.9/bits/stl_tree.h' line='1239' column='1' visibility='default' binding='global' size-in-bits='64' elf-symbol-id='_ZNSt8_Rb_treeISsSt4pairIKSsSsESt10_Select1stIS2_ESt4lessISsESaIS2_EE8_M_eraseEPSt13_Rb_tree_nodeIS2_E'>
            <parameter type-id='type-id-1810' name='this' is-artificial='yes'/>
            <parameter type-id='type-id-2472' name='__x' filepath='/usr/include/c++/4.9/bits/stl_tree.h' line='1240' column='1'/>
            <return type-id='type-id-57'/>
          </function-decl>
        </member-function>
        <member-function access='protected'>
          <function-decl name='_M_begin' mangled-name='_ZNSt8_Rb_treeISsSt4pairIKSsSsESt10_Select1stIS2_ESt4lessISsESaIS2_EE8_M_beginEv' filepath='/usr/include/c++/4.9/bits/stl_tree.h' line='517' column='1' visibility='default' binding='global' size-in-bits='64' elf-symbol-id='_ZNSt8_Rb_treeISsSt4pairIKSsSsESt10_Select1stIS2_ESt4lessISsESaIS2_EE8_M_beginEv'>
            <parameter type-id='type-id-1810' name='this' is-artificial='yes'/>
            <return type-id='type-id-2472'/>
          </function-decl>
        </member-function>
        <member-function access='public'>
          <function-decl name='begin' mangled-name='_ZNSt8_Rb_treeISsSt4pairIKSsSsESt10_Select1stIS2_ESt4lessISsESaIS2_EE5beginEv' filepath='/usr/include/c++/4.9/bits/stl_tree.h' line='726' column='1' visibility='default' binding='global' size-in-bits='64' elf-symbol-id='_ZNSt8_Rb_treeISsSt4pairIKSsSsESt10_Select1stIS2_ESt4lessISsESaIS2_EE5beginEv'>
            <parameter type-id='type-id-1810' name='this' is-artificial='yes'/>
            <return type-id='type-id-2459'/>
          </function-decl>
        </member-function>
        <member-function access='public'>
          <function-decl name='end' mangled-name='_ZNSt8_Rb_treeISsSt4pairIKSsSsESt10_Select1stIS2_ESt4lessISsESaIS2_EE3endEv' filepath='/usr/include/c++/4.9/bits/stl_tree.h' line='740' column='1' visibility='default' binding='global' size-in-bits='64' elf-symbol-id='_ZNSt8_Rb_treeISsSt4pairIKSsSsESt10_Select1stIS2_ESt4lessISsESaIS2_EE3endEv'>
            <parameter type-id='type-id-1810' name='this' is-artificial='yes'/>
            <return type-id='type-id-2459'/>
          </function-decl>
        </member-function>
        <member-function access='protected' static='yes'>
          <function-decl name='_S_right' mangled-name='_ZNSt8_Rb_treeISsSt4pairIKSsSsESt10_Select1stIS2_ESt4lessISsESaIS2_EE8_S_rightEPSt18_Rb_tree_node_base' filepath='/usr/include/c++/4.9/bits/stl_tree.h' line='552' column='1' visibility='default' binding='global' size-in-bits='64' elf-symbol-id='_ZNSt8_Rb_treeISsSt4pairIKSsSsESt10_Select1stIS2_ESt4lessISsESaIS2_EE8_S_rightEPSt18_Rb_tree_node_base'>
            <parameter type-id='type-id-1811'/>
            <return type-id='type-id-2472'/>
          </function-decl>
        </member-function>
        <member-function access='protected' static='yes'>
          <function-decl name='_S_left' mangled-name='_ZNSt8_Rb_treeISsSt4pairIKSsSsESt10_Select1stIS2_ESt4lessISsESaIS2_EE7_S_leftEPSt18_Rb_tree_node_base' filepath='/usr/include/c++/4.9/bits/stl_tree.h' line='544' column='1' visibility='default' binding='global' size-in-bits='64' elf-symbol-id='_ZNSt8_Rb_treeISsSt4pairIKSsSsESt10_Select1stIS2_ESt4lessISsESaIS2_EE7_S_leftEPSt18_Rb_tree_node_base'>
            <parameter type-id='type-id-1811'/>
            <return type-id='type-id-2472'/>
          </function-decl>
        </member-function>
        <member-function access='protected'>
          <function-decl name='_M_destroy_node' mangled-name='_ZNSt8_Rb_treeISsSt4pairIKSsSsESt10_Select1stIS2_ESt4lessISsESaIS2_EE15_M_destroy_nodeEPSt13_Rb_tree_nodeIS2_E' filepath='/usr/include/c++/4.9/bits/stl_tree.h' line='434' column='1' visibility='default' binding='global' size-in-bits='64' elf-symbol-id='_ZNSt8_Rb_treeISsSt4pairIKSsSsESt10_Select1stIS2_ESt4lessISsESaIS2_EE15_M_destroy_nodeEPSt13_Rb_tree_nodeIS2_E'>
            <parameter type-id='type-id-1810' name='this' is-artificial='yes'/>
            <parameter type-id='type-id-2472' name='__x' filepath='/usr/include/c++/4.9/bits/stl_tree.h' line='1240' column='1'/>
            <return type-id='type-id-57'/>
          </function-decl>
        </member-function>
        <member-function access='public'>
          <function-decl name='_M_get_Node_allocator' mangled-name='_ZNSt8_Rb_treeISsSt4pairIKSsSsESt10_Select1stIS2_ESt4lessISsESaIS2_EE21_M_get_Node_allocatorEv' filepath='/usr/include/c++/4.9/bits/stl_tree.h' line='371' column='1' visibility='default' binding='global' size-in-bits='64' elf-symbol-id='_ZNSt8_Rb_treeISsSt4pairIKSsSsESt10_Select1stIS2_ESt4lessISsESaIS2_EE21_M_get_Node_allocatorEv'>
            <parameter type-id='type-id-1810' name='this' is-artificial='yes'/>
            <return type-id='type-id-1813'/>
          </function-decl>
        </member-function>
        <member-function access='protected'>
          <function-decl name='_M_put_node' mangled-name='_ZNSt8_Rb_treeISsSt4pairIKSsSsESt10_Select1stIS2_ESt4lessISsESaIS2_EE11_M_put_nodeEPSt13_Rb_tree_nodeIS2_E' filepath='/usr/include/c++/4.9/bits/stl_tree.h' line='388' column='1' visibility='default' binding='global' size-in-bits='64' elf-symbol-id='_ZNSt8_Rb_treeISsSt4pairIKSsSsESt10_Select1stIS2_ESt4lessISsESaIS2_EE11_M_put_nodeEPSt13_Rb_tree_nodeIS2_E'>
            <parameter type-id='type-id-1810' name='this' is-artificial='yes'/>
            <parameter type-id='type-id-2472' name='__x' filepath='/usr/include/c++/4.9/bits/stl_tree.h' line='1240' column='1'/>
            <return type-id='type-id-57'/>
          </function-decl>
        </member-function>
      </class-decl>
      <class-decl name='allocator&lt;std::_Rb_tree_node&lt;std::pair&lt;const std::basic_string&lt;char, std::char_traits&lt;char&gt;, std::allocator&lt;char&gt; &gt;, std::basic_string&lt;char, std::char_traits&lt;char&gt;, std::allocator&lt;char&gt; &gt; &gt; &gt; &gt;' size-in-bits='8' visibility='default' filepath='/usr/include/c++/4.9/bits/allocator.h' line='92' column='1' id='type-id-1120'>
        <base-class access='public' layout-offset-in-bits='0' type-id='type-id-174'/>
        <member-type access='public'>
          <typedef-decl name='size_type' type-id='type-id-1381' filepath='/usr/include/c++/4.9/bits/allocator.h' line='95' column='1' id='type-id-2476'/>
        </member-type>
        <member-type access='public'>
          <typedef-decl name='pointer' type-id='type-id-1829' filepath='/usr/include/c++/4.9/bits/allocator.h' line='97' column='1' id='type-id-2477'/>
        </member-type>
        <member-type access='public'>
          <typedef-decl name='value_type' type-id='type-id-872' filepath='/usr/include/c++/4.9/bits/allocator.h' line='101' column='1' id='type-id-2478'/>
        </member-type>
        <member-function access='public'>
          <function-decl name='allocator' filepath='/usr/include/c++/4.9/bits/allocator.h' line='113' column='1' visibility='default' binding='global' size-in-bits='64'>
            <parameter type-id='type-id-2022' is-artificial='yes'/>
            <return type-id='type-id-57'/>
          </function-decl>
        </member-function>
        <member-function access='public'>
          <function-decl name='allocator' filepath='/usr/include/c++/4.9/bits/allocator.h' line='115' column='1' visibility='default' binding='global' size-in-bits='64'>
            <parameter type-id='type-id-2022' is-artificial='yes'/>
            <parameter type-id='type-id-1122'/>
            <return type-id='type-id-57'/>
          </function-decl>
        </member-function>
        <member-function access='public' destructor='yes'>
          <function-decl name='~allocator' filepath='/usr/include/c++/4.9/bits/allocator.h' line='121' column='1' visibility='default' binding='global' size-in-bits='64'>
            <parameter type-id='type-id-2022' is-artificial='yes'/>
            <parameter type-id='type-id-29' is-artificial='yes'/>
            <return type-id='type-id-57'/>
          </function-decl>
        </member-function>
        <member-function access='public' destructor='yes'>
          <function-decl name='~allocator' mangled-name='_ZNSaISt13_Rb_tree_nodeISt4pairIKSsSsEEED2Ev' filepath='/usr/include/c++/4.9/bits/allocator.h' line='121' column='1' visibility='default' binding='global' size-in-bits='64' elf-symbol-id='_ZNSaISt13_Rb_tree_nodeISt4pairIKSsSsEEED2Ev'>
            <parameter type-id='type-id-2022' is-artificial='yes'/>
            <parameter type-id='type-id-29' is-artificial='yes'/>
            <return type-id='type-id-57'/>
          </function-decl>
        </member-function>
        <member-function access='public'>
          <function-decl name='allocator' mangled-name='_ZNSaISt13_Rb_tree_nodeISt4pairIKSsSsEEEC2Ev' filepath='/usr/include/c++/4.9/bits/allocator.h' line='113' column='1' visibility='default' binding='global' size-in-bits='64' elf-symbol-id='_ZNSaISt13_Rb_tree_nodeISt4pairIKSsSsEEEC2Ev'>
            <parameter type-id='type-id-2022' is-artificial='yes'/>
            <return type-id='type-id-57'/>
          </function-decl>
        </member-function>
      </class-decl>
      <class-decl name='_Rb_tree_node&lt;std::pair&lt;const std::basic_string&lt;char, std::char_traits&lt;char&gt;, std::allocator&lt;char&gt; &gt;, std::basic_string&lt;char, std::char_traits&lt;char&gt;, std::allocator&lt;char&gt; &gt; &gt; &gt;' size-in-bits='384' is-struct='yes' visibility='default' filepath='/usr/include/c++/4.9/bits/stl_tree.h' line='132' column='1' id='type-id-872'>
        <base-class access='public' layout-offset-in-bits='0' type-id='type-id-876'/>
        <data-member access='public' layout-offset-in-bits='256'>
          <var-decl name='_M_storage' type-id='type-id-111' visibility='default' filepath='/usr/include/c++/4.9/bits/stl_tree.h' line='147' column='1'/>
        </data-member>
        <member-function access='public'>
          <function-decl name='_M_valptr' mangled-name='_ZNSt13_Rb_tree_nodeISt4pairIKSsSsEE9_M_valptrEv' filepath='/usr/include/c++/4.9/bits/stl_tree.h' line='150' column='1' visibility='default' binding='global' size-in-bits='64' elf-symbol-id='_ZNSt13_Rb_tree_nodeISt4pairIKSsSsEE9_M_valptrEv'>
            <parameter type-id='type-id-1830' name='this' is-artificial='yes'/>
            <return type-id='type-id-2160'/>
          </function-decl>
        </member-function>
      </class-decl>
      <class-decl name='_Rb_tree_node_base' size-in-bits='256' is-struct='yes' visibility='default' filepath='/usr/include/c++/4.9/bits/stl_tree.h' line='92' column='1' id='type-id-876'>
        <member-type access='public'>
          <typedef-decl name='_Base_ptr' type-id='type-id-1831' filepath='/usr/include/c++/4.9/bits/stl_tree.h' line='94' column='1' id='type-id-2479'/>
        </member-type>
        <member-type access='public'>
          <typedef-decl name='_Const_Base_ptr' type-id='type-id-878' filepath='/usr/include/c++/4.9/bits/stl_tree.h' line='95' column='1' id='type-id-2480'/>
        </member-type>
        <data-member access='public' layout-offset-in-bits='0'>
          <var-decl name='_M_color' type-id='type-id-2481' visibility='default' filepath='/usr/include/c++/4.9/bits/stl_tree.h' line='97' column='1'/>
        </data-member>
        <data-member access='public' layout-offset-in-bits='64'>
          <var-decl name='_M_parent' type-id='type-id-2479' visibility='default' filepath='/usr/include/c++/4.9/bits/stl_tree.h' line='98' column='1'/>
        </data-member>
        <data-member access='public' layout-offset-in-bits='128'>
          <var-decl name='_M_left' type-id='type-id-2479' visibility='default' filepath='/usr/include/c++/4.9/bits/stl_tree.h' line='99' column='1'/>
        </data-member>
        <data-member access='public' layout-offset-in-bits='192'>
          <var-decl name='_M_right' type-id='type-id-2479' visibility='default' filepath='/usr/include/c++/4.9/bits/stl_tree.h' line='100' column='1'/>
        </data-member>
      </class-decl>
      <enum-decl name='_Rb_tree_color' filepath='/usr/include/c++/4.9/bits/stl_tree.h' line='90' column='1' id='type-id-2481'>
        <underlying-type type-id='type-id-40'/>
        <enumerator name='_S_red' value='0'/>
        <enumerator name='_S_black' value='1'/>
      </enum-decl>
      <class-decl name='aligned_storage&lt;16ul, 8ul&gt;' size-in-bits='8' is-struct='yes' visibility='default' filepath='/usr/include/c++/4.9/type_traits' line='1881' column='1' id='type-id-2482'>
        <member-type access='public'>
          <union-decl name='type' size-in-bits='128' visibility='default' filepath='/usr/include/c++/4.9/type_traits' line='1883' column='1' id='type-id-2483'>
            <member-type access='public'>
              <class-decl name='__anonymous_struct__' size-in-bits='64' is-struct='yes' is-anonymous='yes' visibility='default' filepath='/usr/include/c++/4.9/type_traits' line='1886' column='1' id='type-id-2484'/>
            </member-type>
            <data-member access='public'>
              <var-decl name='__data' type-id='type-id-45' visibility='default' filepath='/usr/include/c++/4.9/type_traits' line='1885' column='1'/>
            </data-member>
            <data-member access='public'>
              <var-decl name='__align' type-id='type-id-2484' visibility='default' filepath='/usr/include/c++/4.9/type_traits' line='1886' column='1'/>
            </data-member>
          </union-decl>
        </member-type>
      </class-decl>
      <class-decl name='pair&lt;const std::basic_string&lt;char, std::char_traits&lt;char&gt;, std::allocator&lt;char&gt; &gt;, std::basic_string&lt;char, std::char_traits&lt;char&gt;, std::allocator&lt;char&gt; &gt; &gt;' size-in-bits='128' is-struct='yes' visibility='default' filepath='/usr/include/c++/4.9/bits/stl_pair.h' line='96' column='1' id='type-id-1349'>
        <member-type access='public'>
          <typedef-decl name='first_type' type-id='type-id-1148' filepath='/usr/include/c++/4.9/bits/stl_pair.h' line='98' column='1' id='type-id-2485'/>
        </member-type>
        <data-member access='public' layout-offset-in-bits='0'>
          <var-decl name='first' type-id='type-id-1148' visibility='default' filepath='/usr/include/c++/4.9/bits/stl_pair.h' line='101' column='1'/>
        </data-member>
        <data-member access='public' layout-offset-in-bits='64'>
          <var-decl name='second' type-id='type-id-37' visibility='default' filepath='/usr/include/c++/4.9/bits/stl_pair.h' line='102' column='1'/>
        </data-member>
        <member-function access='public'>
          <function-decl name='pair' filepath='/usr/include/c++/4.9/bits/stl_pair.h' line='108' column='1' visibility='default' binding='global' size-in-bits='64'>
            <parameter type-id='type-id-2160' is-artificial='yes'/>
            <return type-id='type-id-57'/>
          </function-decl>
        </member-function>
        <member-function access='public'>
          <function-decl name='pair' filepath='/usr/include/c++/4.9/bits/stl_pair.h' line='112' column='1' visibility='default' binding='global' size-in-bits='64'>
            <parameter type-id='type-id-2160' is-artificial='yes'/>
            <parameter type-id='type-id-1149'/>
            <parameter type-id='type-id-1149'/>
            <return type-id='type-id-57'/>
          </function-decl>
        </member-function>
        <member-function access='public'>
          <function-decl name='pair' filepath='/usr/include/c++/4.9/bits/stl_pair.h' line='127' column='1' visibility='default' binding='global' size-in-bits='64'>
            <parameter type-id='type-id-2160' is-artificial='yes'/>
            <parameter type-id='type-id-1351'/>
            <return type-id='type-id-57'/>
          </function-decl>
        </member-function>
        <member-function access='public'>
          <function-decl name='pair' filepath='/usr/include/c++/4.9/bits/stl_pair.h' line='128' column='1' visibility='default' binding='global' size-in-bits='64'>
            <parameter type-id='type-id-2160' is-artificial='yes'/>
            <parameter type-id='type-id-2159'/>
            <return type-id='type-id-57'/>
          </function-decl>
        </member-function>
      </class-decl>
      <class-decl name='less&lt;std::basic_string&lt;char, std::char_traits&lt;char&gt;, std::allocator&lt;char&gt; &gt; &gt;' size-in-bits='8' is-struct='yes' visibility='default' filepath='/usr/include/c++/4.9/bits/stl_function.h' line='367' column='1' id='type-id-1254'>
        <base-class access='public' layout-offset-in-bits='0' type-id='type-id-2486'/>
      </class-decl>
      <class-decl name='binary_function&lt;std::basic_string&lt;char, std::char_traits&lt;char&gt;, std::allocator&lt;char&gt; &gt;, std::basic_string&lt;char, std::char_traits&lt;char&gt;, std::allocator&lt;char&gt; &gt;, bool&gt;' size-in-bits='8' is-struct='yes' visibility='default' filepath='/usr/include/c++/4.9/bits/stl_function.h' line='118' column='1' id='type-id-2486'/>
      <class-decl name='allocator_traits&lt;std::allocator&lt;std::pair&lt;const std::basic_string&lt;char, std::char_traits&lt;char&gt;, std::allocator&lt;char&gt; &gt;, std::basic_string&lt;char, std::char_traits&lt;char&gt;, std::allocator&lt;char&gt; &gt; &gt; &gt; &gt;' size-in-bits='8' is-struct='yes' visibility='default' filepath='/usr/include/c++/4.9/bits/alloc_traits.h' line='80' column='1' id='type-id-2487'>
        <member-type access='public'>
          <typedef-decl name='value_type' type-id='type-id-2488' filepath='/usr/include/c++/4.9/bits/alloc_traits.h' line='85' column='1' id='type-id-2056'/>
        </member-type>
        <member-type access='private'>
          <typedef-decl name='__pointer' type-id='type-id-2490' filepath='/usr/include/c++/4.9/bits/alloc_traits.h' line='95' column='1' id='type-id-2489'/>
        </member-type>
        <member-type access='public'>
          <typedef-decl name='pointer' type-id='type-id-2489' filepath='/usr/include/c++/4.9/bits/alloc_traits.h' line='102' column='1' id='type-id-2491'/>
        </member-type>
        <member-type access='private'>
          <typedef-decl name='__const_void_pointer' type-id='type-id-2493' filepath='/usr/include/c++/4.9/bits/alloc_traits.h' line='126' column='1' id='type-id-2492'/>
        </member-type>
        <member-type access='public'>
          <typedef-decl name='const_void_pointer' type-id='type-id-2492' filepath='/usr/include/c++/4.9/bits/alloc_traits.h' line='135' column='1' id='type-id-2494'/>
        </member-type>
        <member-type access='private'>
          <typedef-decl name='__size_type' type-id='type-id-2496' filepath='/usr/include/c++/4.9/bits/alloc_traits.h' line='148' column='1' id='type-id-2495'/>
        </member-type>
        <member-type access='public'>
          <typedef-decl name='size_type' type-id='type-id-2495' filepath='/usr/include/c++/4.9/bits/alloc_traits.h' line='157' column='1' id='type-id-2497'/>
        </member-type>
        <member-type access='public'>
          <typedef-decl name='rebind_alloc' type-id='type-id-2499' filepath='/usr/include/c++/4.9/bits/alloc_traits.h' line='197' column='1' id='type-id-2498'/>
        </member-type>
      </class-decl>
      <class-decl name='allocator&lt;std::pair&lt;const std::basic_string&lt;char, std::char_traits&lt;char&gt;, std::allocator&lt;char&gt; &gt;, std::basic_string&lt;char, std::char_traits&lt;char&gt;, std::allocator&lt;char&gt; &gt; &gt; &gt;' size-in-bits='8' visibility='default' filepath='/usr/include/c++/4.9/bits/allocator.h' line='92' column='1' id='type-id-1139'>
        <base-class access='public' layout-offset-in-bits='0' type-id='type-id-188'/>
        <member-type access='public'>
          <typedef-decl name='size_type' type-id='type-id-1381' filepath='/usr/include/c++/4.9/bits/allocator.h' line='95' column='1' id='type-id-2496'/>
        </member-type>
        <member-type access='public'>
          <typedef-decl name='pointer' type-id='type-id-2160' filepath='/usr/include/c++/4.9/bits/allocator.h' line='97' column='1' id='type-id-2490'/>
        </member-type>
        <member-type access='public'>
          <typedef-decl name='value_type' type-id='type-id-1349' filepath='/usr/include/c++/4.9/bits/allocator.h' line='101' column='1' id='type-id-2488'/>
        </member-type>
        <member-type access='public'>
          <class-decl name='rebind&lt;std::_Rb_tree_node&lt;std::pair&lt;const std::basic_string&lt;char, std::char_traits&lt;char&gt;, std::allocator&lt;char&gt; &gt;, std::basic_string&lt;char, std::char_traits&lt;char&gt;, std::allocator&lt;char&gt; &gt; &gt; &gt; &gt;' size-in-bits='8' is-struct='yes' visibility='default' filepath='/usr/include/c++/4.9/bits/allocator.h' line='104' column='1' id='type-id-2500'>
            <member-type access='public'>
              <typedef-decl name='other' type-id='type-id-1120' filepath='/usr/include/c++/4.9/bits/allocator.h' line='105' column='1' id='type-id-2501'/>
            </member-type>
          </class-decl>
        </member-type>
        <member-function access='public'>
          <function-decl name='allocator' filepath='/usr/include/c++/4.9/bits/allocator.h' line='113' column='1' visibility='default' binding='global' size-in-bits='64'>
            <parameter type-id='type-id-2034' is-artificial='yes'/>
            <return type-id='type-id-57'/>
          </function-decl>
        </member-function>
        <member-function access='public'>
          <function-decl name='allocator' filepath='/usr/include/c++/4.9/bits/allocator.h' line='115' column='1' visibility='default' binding='global' size-in-bits='64'>
            <parameter type-id='type-id-2034' is-artificial='yes'/>
            <parameter type-id='type-id-1141'/>
            <return type-id='type-id-57'/>
          </function-decl>
        </member-function>
        <member-function access='public' destructor='yes'>
          <function-decl name='~allocator' filepath='/usr/include/c++/4.9/bits/allocator.h' line='121' column='1' visibility='default' binding='global' size-in-bits='64'>
            <parameter type-id='type-id-2034' is-artificial='yes'/>
            <parameter type-id='type-id-29' is-artificial='yes'/>
            <return type-id='type-id-57'/>
          </function-decl>
        </member-function>
      </class-decl>
      <class-decl name='pointer_traits&lt;std::pair&lt;const std::basic_string&lt;char, std::char_traits&lt;char&gt;, std::allocator&lt;char&gt; &gt;, std::basic_string&lt;char, std::char_traits&lt;char&gt;, std::allocator&lt;char&gt; &gt; &gt;*&gt;' size-in-bits='8' is-struct='yes' visibility='default' filepath='/usr/include/c++/4.9/bits/ptr_traits.h' line='150' column='1' id='type-id-2502'>
        <member-type access='public'>
          <typedef-decl name='pointer' type-id='type-id-2160' filepath='/usr/include/c++/4.9/bits/ptr_traits.h' line='153' column='1' id='type-id-2503'/>
        </member-type>
        <member-type access='public'>
          <typedef-decl name='difference_type' type-id='type-id-2301' filepath='/usr/include/c++/4.9/bits/ptr_traits.h' line='157' column='1' id='type-id-2504'/>
        </member-type>
        <member-type access='public'>
          <typedef-decl name='rebind' type-id='type-id-23' filepath='/usr/include/c++/4.9/bits/ptr_traits.h' line='160' column='1' id='type-id-2493'/>
        </member-type>
      </class-decl>
      <class-decl name='__ptrtr_not_void&lt;std::pair&lt;const std::basic_string&lt;char, std::char_traits&lt;char&gt;, std::allocator&lt;char&gt; &gt;, std::basic_string&lt;char, std::char_traits&lt;char&gt;, std::allocator&lt;char&gt; &gt; &gt;, std::pair&lt;const std::basic_string&lt;char, std::char_traits&lt;char&gt;, std::allocator&lt;char&gt; &gt;, std::basic_string&lt;char, std::char_traits&lt;char&gt;, std::allocator&lt;char&gt; &gt; &gt; &gt;' size-in-bits='8' is-struct='yes' visibility='default' filepath='/usr/include/c++/4.9/bits/ptr_traits.h' line='105' column='1' id='type-id-2505'>
        <member-type access='public'>
          <typedef-decl name='__type' type-id='type-id-1349' filepath='/usr/include/c++/4.9/bits/ptr_traits.h' line='107' column='1' id='type-id-1989'/>
        </member-type>
      </class-decl>
      <class-decl name='__alloctr_rebind&lt;std::allocator&lt;std::pair&lt;const std::basic_string&lt;char, std::char_traits&lt;char&gt;, std::allocator&lt;char&gt; &gt;, std::basic_string&lt;char, std::char_traits&lt;char&gt;, std::allocator&lt;char&gt; &gt; &gt; &gt;, std::_Rb_tree_node&lt;std::pair&lt;const std::basic_string&lt;char, std::char_traits&lt;char&gt;, std::allocator&lt;char&gt; &gt;, std::basic_string&lt;char, std::char_traits&lt;char&gt;, std::allocator&lt;char&gt; &gt; &gt; &gt;, true&gt;' size-in-bits='8' is-struct='yes' visibility='default' filepath='/usr/include/c++/4.9/bits/alloc_traits.h' line='63' column='1' id='type-id-2506'>
        <member-type access='public'>
          <typedef-decl name='__type' type-id='type-id-2501' filepath='/usr/include/c++/4.9/bits/alloc_traits.h' line='65' column='1' id='type-id-2499'/>
        </member-type>
      </class-decl>
      <class-decl name='_Rb_tree_iterator&lt;std::pair&lt;const std::basic_string&lt;char, std::char_traits&lt;char&gt;, std::allocator&lt;char&gt; &gt;, std::basic_string&lt;char, std::char_traits&lt;char&gt;, std::allocator&lt;char&gt; &gt; &gt; &gt;' size-in-bits='64' is-struct='yes' visibility='default' filepath='/usr/include/c++/4.9/bits/stl_tree.h' line='172' column='1' id='type-id-852'>
        <member-type access='public'>
          <typedef-decl name='_Base_ptr' type-id='type-id-2479' filepath='/usr/include/c++/4.9/bits/stl_tree.h' line='182' column='1' id='type-id-2507'/>
        </member-type>
        <member-type access='public'>
          <typedef-decl name='reference' type-id='type-id-2158' filepath='/usr/include/c++/4.9/bits/stl_tree.h' line='175' column='1' id='type-id-2508'/>
        </member-type>
        <member-type access='public'>
          <typedef-decl name='pointer' type-id='type-id-2160' filepath='/usr/include/c++/4.9/bits/stl_tree.h' line='176' column='1' id='type-id-2509'/>
        </member-type>
        <member-type access='public'>
          <typedef-decl name='_Self' type-id='type-id-852' filepath='/usr/include/c++/4.9/bits/stl_tree.h' line='181' column='1' id='type-id-856'/>
        </member-type>
        <member-type access='public'>
          <typedef-decl name='_Link_type' type-id='type-id-1829' filepath='/usr/include/c++/4.9/bits/stl_tree.h' line='183' column='1' id='type-id-2510'/>
        </member-type>
        <data-member access='public' layout-offset-in-bits='0'>
          <var-decl name='_M_node' type-id='type-id-2507' visibility='default' filepath='/usr/include/c++/4.9/bits/stl_tree.h' line='238' column='1'/>
        </data-member>
        <member-function access='public'>
          <function-decl name='_Rb_tree_iterator' filepath='/usr/include/c++/4.9/bits/stl_tree.h' line='185' column='1' visibility='default' binding='global' size-in-bits='64'>
            <parameter type-id='type-id-1819' is-artificial='yes'/>
            <return type-id='type-id-57'/>
          </function-decl>
        </member-function>
        <member-function access='public'>
          <function-decl name='_Rb_tree_iterator' filepath='/usr/include/c++/4.9/bits/stl_tree.h' line='189' column='1' visibility='default' binding='global' size-in-bits='64'>
            <parameter type-id='type-id-1819' is-artificial='yes'/>
            <parameter type-id='type-id-2510'/>
            <return type-id='type-id-57'/>
          </function-decl>
        </member-function>
        <member-function access='public' const='yes'>
          <function-decl name='operator!=' mangled-name='_ZNKSt17_Rb_tree_iteratorISt4pairIKSsSsEEneERKS3_' filepath='/usr/include/c++/4.9/bits/stl_tree.h' line='235' column='1' visibility='default' binding='global' size-in-bits='64' elf-symbol-id='_ZNKSt17_Rb_tree_iteratorISt4pairIKSsSsEEneERKS3_'>
            <parameter type-id='type-id-855' name='this' is-artificial='yes'/>
            <parameter type-id='type-id-859' name='__x' filepath='/usr/include/c++/4.9/bits/stl_tree.h' line='235' column='1'/>
            <return type-id='type-id-1'/>
          </function-decl>
        </member-function>
        <member-function access='public'>
          <function-decl name='operator++' mangled-name='_ZNSt17_Rb_tree_iteratorISt4pairIKSsSsEEppEi' filepath='/usr/include/c++/4.9/bits/stl_tree.h' line='208' column='1' visibility='default' binding='global' size-in-bits='64' elf-symbol-id='_ZNSt17_Rb_tree_iteratorISt4pairIKSsSsEEppEi'>
            <parameter type-id='type-id-1820' name='this' is-artificial='yes'/>
            <parameter type-id='type-id-29'/>
            <return type-id='type-id-856'/>
          </function-decl>
        </member-function>
        <member-function access='public' const='yes'>
          <function-decl name='operator-&gt;' mangled-name='_ZNKSt17_Rb_tree_iteratorISt4pairIKSsSsEEptEv' filepath='/usr/include/c++/4.9/bits/stl_tree.h' line='197' column='1' visibility='default' binding='global' size-in-bits='64' elf-symbol-id='_ZNKSt17_Rb_tree_iteratorISt4pairIKSsSsEEptEv'>
            <parameter type-id='type-id-855' name='this' is-artificial='yes'/>
            <return type-id='type-id-2509'/>
          </function-decl>
        </member-function>
        <member-function access='public'>
          <function-decl name='_Rb_tree_iterator' mangled-name='_ZNSt17_Rb_tree_iteratorISt4pairIKSsSsEEC2EPSt13_Rb_tree_nodeIS2_E' filepath='/usr/include/c++/4.9/bits/stl_tree.h' line='189' column='1' visibility='default' binding='global' size-in-bits='64' elf-symbol-id='_ZNSt17_Rb_tree_iteratorISt4pairIKSsSsEEC2EPSt13_Rb_tree_nodeIS2_E'>
            <parameter type-id='type-id-1819' is-artificial='yes'/>
            <parameter type-id='type-id-2510'/>
            <return type-id='type-id-57'/>
          </function-decl>
        </member-function>
      </class-decl>
      <class-decl name='_Rb_tree_const_iterator&lt;std::pair&lt;const std::basic_string&lt;char, std::char_traits&lt;char&gt;, std::allocator&lt;char&gt; &gt;, std::basic_string&lt;char, std::char_traits&lt;char&gt;, std::allocator&lt;char&gt; &gt; &gt; &gt;' size-in-bits='64' is-struct='yes' visibility='default' filepath='/usr/include/c++/4.9/bits/stl_tree.h' line='242' column='1' id='type-id-843'>
        <member-type access='public'>
          <typedef-decl name='_Base_ptr' type-id='type-id-2480' filepath='/usr/include/c++/4.9/bits/stl_tree.h' line='254' column='1' id='type-id-2511'/>
        </member-type>
        <member-type access='public'>
          <typedef-decl name='reference' type-id='type-id-1351' filepath='/usr/include/c++/4.9/bits/stl_tree.h' line='245' column='1' id='type-id-2512'/>
        </member-type>
        <member-type access='public'>
          <typedef-decl name='pointer' type-id='type-id-1352' filepath='/usr/include/c++/4.9/bits/stl_tree.h' line='246' column='1' id='type-id-2513'/>
        </member-type>
        <member-type access='public'>
          <typedef-decl name='iterator' type-id='type-id-852' filepath='/usr/include/c++/4.9/bits/stl_tree.h' line='248' column='1' id='type-id-849'/>
        </member-type>
        <member-type access='public'>
          <typedef-decl name='_Self' type-id='type-id-843' filepath='/usr/include/c++/4.9/bits/stl_tree.h' line='253' column='1' id='type-id-846'/>
        </member-type>
        <member-type access='public'>
          <typedef-decl name='_Link_type' type-id='type-id-875' filepath='/usr/include/c++/4.9/bits/stl_tree.h' line='255' column='1' id='type-id-2514'/>
        </member-type>
        <data-member access='public' layout-offset-in-bits='0'>
          <var-decl name='_M_node' type-id='type-id-2511' visibility='default' filepath='/usr/include/c++/4.9/bits/stl_tree.h' line='318' column='1'/>
        </data-member>
        <member-function access='public'>
          <function-decl name='_Rb_tree_const_iterator' filepath='/usr/include/c++/4.9/bits/stl_tree.h' line='257' column='1' visibility='default' binding='global' size-in-bits='64'>
            <parameter type-id='type-id-1817' is-artificial='yes'/>
            <return type-id='type-id-57'/>
          </function-decl>
        </member-function>
        <member-function access='public'>
          <function-decl name='_Rb_tree_const_iterator' filepath='/usr/include/c++/4.9/bits/stl_tree.h' line='261' column='1' visibility='default' binding='global' size-in-bits='64'>
            <parameter type-id='type-id-1817' is-artificial='yes'/>
            <parameter type-id='type-id-2514'/>
            <return type-id='type-id-57'/>
          </function-decl>
        </member-function>
        <member-function access='public'>
          <function-decl name='_Rb_tree_const_iterator' filepath='/usr/include/c++/4.9/bits/stl_tree.h' line='264' column='1' visibility='default' binding='global' size-in-bits='64'>
            <parameter type-id='type-id-1817' is-artificial='yes'/>
            <parameter type-id='type-id-851'/>
            <return type-id='type-id-57'/>
          </function-decl>
        </member-function>
      </class-decl>
      <class-decl name='pair&lt;std::_Rb_tree_node_base*, std::_Rb_tree_node_base*&gt;' size-in-bits='128' is-struct='yes' visibility='default' filepath='/usr/include/c++/4.9/bits/stl_pair.h' line='96' column='1' id='type-id-1353'>
        <data-member access='public' layout-offset-in-bits='0'>
          <var-decl name='first' type-id='type-id-1831' visibility='default' filepath='/usr/include/c++/4.9/bits/stl_pair.h' line='101' column='1'/>
        </data-member>
        <data-member access='public' layout-offset-in-bits='64'>
          <var-decl name='second' type-id='type-id-1831' visibility='default' filepath='/usr/include/c++/4.9/bits/stl_pair.h' line='102' column='1'/>
        </data-member>
        <member-function access='public'>
          <function-decl name='pair' filepath='/usr/include/c++/4.9/bits/stl_pair.h' line='108' column='1' visibility='default' binding='global' size-in-bits='64'>
            <parameter type-id='type-id-2163' is-artificial='yes'/>
            <return type-id='type-id-57'/>
          </function-decl>
        </member-function>
        <member-function access='public'>
          <function-decl name='pair' filepath='/usr/include/c++/4.9/bits/stl_pair.h' line='112' column='1' visibility='default' binding='global' size-in-bits='64'>
            <parameter type-id='type-id-2163' is-artificial='yes'/>
            <parameter type-id='type-id-1833'/>
            <parameter type-id='type-id-1833'/>
            <return type-id='type-id-57'/>
          </function-decl>
        </member-function>
        <member-function access='public'>
          <function-decl name='pair' filepath='/usr/include/c++/4.9/bits/stl_pair.h' line='127' column='1' visibility='default' binding='global' size-in-bits='64'>
            <parameter type-id='type-id-2163' is-artificial='yes'/>
            <parameter type-id='type-id-1355'/>
            <return type-id='type-id-57'/>
          </function-decl>
        </member-function>
        <member-function access='public'>
          <function-decl name='pair' filepath='/usr/include/c++/4.9/bits/stl_pair.h' line='128' column='1' visibility='default' binding='global' size-in-bits='64'>
            <parameter type-id='type-id-2163' is-artificial='yes'/>
            <parameter type-id='type-id-2162'/>
            <return type-id='type-id-57'/>
          </function-decl>
        </member-function>
      </class-decl>
      <class-decl name='initializer_list&lt;std::pair&lt;const std::basic_string&lt;char, std::char_traits&lt;char&gt;, std::allocator&lt;char&gt; &gt;, std::basic_string&lt;char, std::char_traits&lt;char&gt;, std::allocator&lt;char&gt; &gt; &gt; &gt;' size-in-bits='128' visibility='default' filepath='/usr/include/c++/4.9/initializer_list' line='47' column='1' id='type-id-1219'>
        <member-type access='public'>
          <typedef-decl name='iterator' type-id='type-id-1352' filepath='/usr/include/c++/4.9/initializer_list' line='54' column='1' id='type-id-2515'/>
        </member-type>
        <member-type access='public'>
          <typedef-decl name='size_type' type-id='type-id-1381' filepath='/usr/include/c++/4.9/initializer_list' line='53' column='1' id='type-id-2516'/>
        </member-type>
        <member-type access='public'>
          <typedef-decl name='const_iterator' type-id='type-id-1352' filepath='/usr/include/c++/4.9/initializer_list' line='55' column='1' id='type-id-2517'/>
        </member-type>
        <data-member access='private' layout-offset-in-bits='0'>
          <var-decl name='_M_array' type-id='type-id-2515' visibility='default' filepath='/usr/include/c++/4.9/initializer_list' line='58' column='1'/>
        </data-member>
        <data-member access='private' layout-offset-in-bits='64'>
          <var-decl name='_M_len' type-id='type-id-2516' visibility='default' filepath='/usr/include/c++/4.9/initializer_list' line='59' column='1'/>
        </data-member>
        <member-function access='private'>
          <function-decl name='initializer_list' filepath='/usr/include/c++/4.9/initializer_list' line='62' column='1' visibility='default' binding='global' size-in-bits='64'>
            <parameter type-id='type-id-2103' is-artificial='yes'/>
            <parameter type-id='type-id-2517'/>
            <parameter type-id='type-id-2516'/>
            <return type-id='type-id-57'/>
          </function-decl>
        </member-function>
        <member-function access='public'>
          <function-decl name='initializer_list' filepath='/usr/include/c++/4.9/initializer_list' line='66' column='1' visibility='default' binding='global' size-in-bits='64'>
            <parameter type-id='type-id-2103' is-artificial='yes'/>
            <return type-id='type-id-57'/>
          </function-decl>
        </member-function>
      </class-decl>
      <class-decl name='vector&lt;std::shared_ptr&lt;mongo::optionenvironment::Constraint&gt;, std::allocator&lt;std::shared_ptr&lt;mongo::optionenvironment::Constraint&gt; &gt; &gt;' size-in-bits='192' visibility='default' filepath='/usr/include/c++/4.9/bits/stl_vector.h' line='214' column='1' id='type-id-1510'>
        <base-class access='protected' layout-offset-in-bits='0' type-id='type-id-975'/>
        <member-type access='public'>
          <typedef-decl name='value_type' type-id='type-id-1377' filepath='/usr/include/c++/4.9/bits/stl_vector.h' line='226' column='1' id='type-id-1517'/>
        </member-type>
        <member-type access='public'>
