{
 "array_types" : [],
 "builtin_types" : [],
 "elf_functions" : [],
 "elf_objects" : [],
 "enum_types" : [],
 "function_types" : [],
 "functions" :
 [
  {
   "function_name" : "android::nn::unvalidatedConvert",
   "linker_set_key" : "_ZN7android2nn18unvalidatedConvertERKNS_8hardware14neuralnetworks4V1_112CapabilitiesE",
   "parameters" :
   [
    {
     "referenced_type" : "_ZTIRKN7android8hardware14neuralnetworks4V1_112CapabilitiesE"
    }
   ],
   "return_type" : "_ZTIN7android4base8expectedINS_2nn12CapabilitiesENS2_12GeneralErrorEEE",
   "source_file" : "hardware/interfaces/neuralnetworks/1.1/utils/include/nnapi/hal/1.1/Conversions.h"
  },
  {
   "function_name" : "android::nn::unvalidatedConvert",
   "linker_set_key" : "_ZN7android2nn18unvalidatedConvertERKNS_8hardware14neuralnetworks4V1_113OperationTypeE",
   "parameters" :
   [
    {
     "referenced_type" : "_ZTIRKN7android8hardware14neuralnetworks4V1_113OperationTypeE"
    }
   ],
   "return_type" : "_ZTIN7android4base8expectedINS_2nn13OperationTypeENS2_12GeneralErrorEEE",
   "source_file" : "hardware/interfaces/neuralnetworks/1.1/utils/include/nnapi/hal/1.1/Conversions.h"
  },
  {
   "function_name" : "android::nn::unvalidatedConvert",
   "linker_set_key" : "_ZN7android2nn18unvalidatedConvertERKNS_8hardware14neuralnetworks4V1_119ExecutionPreferenceE",
   "parameters" :
   [
    {
     "referenced_type" : "_ZTIRKN7android8hardware14neuralnetworks4V1_119ExecutionPreferenceE"
    }
   ],
   "return_type" : "_ZTIN7android4base8expectedINS_2nn19ExecutionPreferenceENS2_12GeneralErrorEEE",
   "source_file" : "hardware/interfaces/neuralnetworks/1.1/utils/include/nnapi/hal/1.1/Conversions.h"
  },
  {
   "function_name" : "android::nn::unvalidatedConvert",
   "linker_set_key" : "_ZN7android2nn18unvalidatedConvertERKNS_8hardware14neuralnetworks4V1_15ModelE",
   "parameters" :
   [
    {
     "referenced_type" : "_ZTIRKN7android8hardware14neuralnetworks4V1_15ModelE"
    }
   ],
   "return_type" : "_ZTIN7android4base8expectedINS_2nn5ModelENS2_12GeneralErrorEEE",
   "source_file" : "hardware/interfaces/neuralnetworks/1.1/utils/include/nnapi/hal/1.1/Conversions.h"
  },
  {
   "function_name" : "android::nn::unvalidatedConvert",
   "linker_set_key" : "_ZN7android2nn18unvalidatedConvertERKNS_8hardware14neuralnetworks4V1_19OperationE",
   "parameters" :
   [
    {
     "referenced_type" : "_ZTIRKN7android8hardware14neuralnetworks4V1_19OperationE"
    }
   ],
   "return_type" : "_ZTIN7android4base8expectedINS_2nn9OperationENS2_12GeneralErrorEEE",
   "source_file" : "hardware/interfaces/neuralnetworks/1.1/utils/include/nnapi/hal/1.1/Conversions.h"
  },
  {
   "function_name" : "android::nn::convert",
   "linker_set_key" : "_ZN7android2nn7convertERKNS_8hardware14neuralnetworks4V1_112CapabilitiesE",
   "parameters" :
   [
    {
     "referenced_type" : "_ZTIRKN7android8hardware14neuralnetworks4V1_112CapabilitiesE"
    }
   ],
   "return_type" : "_ZTIN7android4base8expectedINS_2nn12CapabilitiesENS2_12GeneralErrorEEE",
   "source_file" : "hardware/interfaces/neuralnetworks/1.1/utils/include/nnapi/hal/1.1/Conversions.h"
  },
  {
   "function_name" : "android::nn::convert",
   "linker_set_key" : "_ZN7android2nn7convertERKNS_8hardware14neuralnetworks4V1_119ExecutionPreferenceE",
   "parameters" :
   [
    {
     "referenced_type" : "_ZTIRKN7android8hardware14neuralnetworks4V1_119ExecutionPreferenceE"
    }
   ],
   "return_type" : "_ZTIN7android4base8expectedINS_2nn19ExecutionPreferenceENS2_12GeneralErrorEEE",
   "source_file" : "hardware/interfaces/neuralnetworks/1.1/utils/include/nnapi/hal/1.1/Conversions.h"
  },
  {
   "function_name" : "android::nn::convert",
   "linker_set_key" : "_ZN7android2nn7convertERKNS_8hardware14neuralnetworks4V1_15ModelE",
   "parameters" :
   [
    {
     "referenced_type" : "_ZTIRKN7android8hardware14neuralnetworks4V1_15ModelE"
    }
   ],
   "return_type" : "_ZTIN7android4base8expectedINS_2nn5ModelENS2_12GeneralErrorEEE",
   "source_file" : "hardware/interfaces/neuralnetworks/1.1/utils/include/nnapi/hal/1.1/Conversions.h"
  },
  {
   "function_name" : "android::hardware::neuralnetworks::V1_1::utils::compliantVersion",
   "linker_set_key" : "_ZN7android8hardware14neuralnetworks4V1_15utils16compliantVersionINS_2nn12CapabilitiesEEENS_4base8expectedIvNS5_12GeneralErrorEEERKT_",
   "parameters" :
   [
    {
     "referenced_type" : "_ZTIRKN7android2nn12CapabilitiesE"
    }
   ],
   "return_type" : "_ZTIN7android4base8expectedIvNS_2nn12GeneralErrorEEE",
   "source_file" : "hardware/interfaces/neuralnetworks/1.1/utils/include/nnapi/hal/1.1/Utils.h",
   "template_args" : [ "_ZTIN7android2nn12CapabilitiesE" ]
  },
  {
   "function_name" : "android::hardware::neuralnetworks::V1_1::utils::compliantVersion",
   "linker_set_key" : "_ZN7android8hardware14neuralnetworks4V1_15utils16compliantVersionINS_2nn19ExecutionPreferenceEEENS_4base8expectedIvNS5_12GeneralErrorEEERKT_",
   "parameters" :
   [
    {
     "referenced_type" : "_ZTIRKN7android2nn19ExecutionPreferenceE"
    }
   ],
   "return_type" : "_ZTIN7android4base8expectedIvNS_2nn12GeneralErrorEEE",
   "source_file" : "hardware/interfaces/neuralnetworks/1.1/utils/include/nnapi/hal/1.1/Utils.h",
   "template_args" : [ "_ZTIN7android2nn19ExecutionPreferenceE" ]
  },
  {
   "function_name" : "android::hardware::neuralnetworks::V1_1::utils::compliantVersion",
   "linker_set_key" : "_ZN7android8hardware14neuralnetworks4V1_15utils16compliantVersionINS_2nn5ModelEEENS_4base8expectedIvNS5_12GeneralErrorEEERKT_",
   "parameters" :
   [
    {
     "referenced_type" : "_ZTIRKN7android2nn5ModelE"
    }
   ],
   "return_type" : "_ZTIN7android4base8expectedIvNS_2nn12GeneralErrorEEE",
   "source_file" : "hardware/interfaces/neuralnetworks/1.1/utils/include/nnapi/hal/1.1/Utils.h",
   "template_args" : [ "_ZTIN7android2nn5ModelE" ]
  },
  {
   "function_name" : "android::hardware::neuralnetworks::V1_1::utils::unvalidatedConvert",
   "linker_set_key" : "_ZN7android8hardware14neuralnetworks4V1_15utils18unvalidatedConvertERKNS_2nn12CapabilitiesE",
   "parameters" :
   [
    {
     "referenced_type" : "_ZTIRKN7android2nn12CapabilitiesE"
    }
   ],
   "return_type" : "_ZTIN7android4base8expectedINS_8hardware14neuralnetworks4V1_112CapabilitiesENS_2nn12GeneralErrorEEE",
   "source_file" : "hardware/interfaces/neuralnetworks/1.1/utils/include/nnapi/hal/1.1/Conversions.h"
  },
  {
   "function_name" : "android::hardware::neuralnetworks::V1_1::utils::unvalidatedConvert",
   "linker_set_key" : "_ZN7android8hardware14neuralnetworks4V1_15utils18unvalidatedConvertERKNS_2nn13OperationTypeE",
   "parameters" :
   [
    {
     "referenced_type" : "_ZTIRKN7android2nn13OperationTypeE"
    }
   ],
   "return_type" : "_ZTIN7android4base8expectedINS_8hardware14neuralnetworks4V1_113OperationTypeENS_2nn12GeneralErrorEEE",
   "source_file" : "hardware/interfaces/neuralnetworks/1.1/utils/include/nnapi/hal/1.1/Conversions.h"
  },
  {
   "function_name" : "android::hardware::neuralnetworks::V1_1::utils::unvalidatedConvert",
   "linker_set_key" : "_ZN7android8hardware14neuralnetworks4V1_15utils18unvalidatedConvertERKNS_2nn19ExecutionPreferenceE",
   "parameters" :
   [
    {
     "referenced_type" : "_ZTIRKN7android2nn19ExecutionPreferenceE"
    }
   ],
   "return_type" : "_ZTIN7android4base8expectedINS_8hardware14neuralnetworks4V1_119ExecutionPreferenceENS_2nn12GeneralErrorEEE",
   "source_file" : "hardware/interfaces/neuralnetworks/1.1/utils/include/nnapi/hal/1.1/Conversions.h"
  },
  {
   "function_name" : "android::hardware::neuralnetworks::V1_1::utils::unvalidatedConvert",
   "linker_set_key" : "_ZN7android8hardware14neuralnetworks4V1_15utils18unvalidatedConvertERKNS_2nn5ModelE",
   "parameters" :
   [
    {
     "referenced_type" : "_ZTIRKN7android2nn5ModelE"
    }
   ],
   "return_type" : "_ZTIN7android4base8expectedINS_8hardware14neuralnetworks4V1_15ModelENS_2nn12GeneralErrorEEE",
   "source_file" : "hardware/interfaces/neuralnetworks/1.1/utils/include/nnapi/hal/1.1/Conversions.h"
  },
  {
   "function_name" : "android::hardware::neuralnetworks::V1_1::utils::unvalidatedConvert",
   "linker_set_key" : "_ZN7android8hardware14neuralnetworks4V1_15utils18unvalidatedConvertERKNS_2nn9OperationE",
   "parameters" :
   [
    {
     "referenced_type" : "_ZTIRKN7android2nn9OperationE"
    }
   ],
   "return_type" : "_ZTIN7android4base8expectedINS_8hardware14neuralnetworks4V1_19OperationENS_2nn12GeneralErrorEEE",
   "source_file" : "hardware/interfaces/neuralnetworks/1.1/utils/include/nnapi/hal/1.1/Conversions.h"
  },
  {
   "function_name" : "android::hardware::neuralnetworks::V1_1::utils::convert",
   "linker_set_key" : "_ZN7android8hardware14neuralnetworks4V1_15utils7convertERKNS_2nn11ErrorStatusE",
   "parameters" :
   [
    {
     "referenced_type" : "_ZTIRKN7android2nn11ErrorStatusE"
    }
   ],
   "return_type" : "_ZTIN7android4base8expectedINS_8hardware14neuralnetworks4V1_011ErrorStatusENS_2nn12GeneralErrorEEE",
   "source_file" : "hardware/interfaces/neuralnetworks/1.1/utils/include/nnapi/hal/1.1/Conversions.h"
  },
  {
   "function_name" : "android::hardware::neuralnetworks::V1_1::utils::convert",
   "linker_set_key" : "_ZN7android8hardware14neuralnetworks4V1_15utils7convertERKNS_2nn12CapabilitiesE",
   "parameters" :
   [
    {
     "referenced_type" : "_ZTIRKN7android2nn12CapabilitiesE"
    }
   ],
   "return_type" : "_ZTIN7android4base8expectedINS_8hardware14neuralnetworks4V1_112CapabilitiesENS_2nn12GeneralErrorEEE",
   "source_file" : "hardware/interfaces/neuralnetworks/1.1/utils/include/nnapi/hal/1.1/Conversions.h"
  },
  {
   "function_name" : "android::hardware::neuralnetworks::V1_1::utils::convert",
   "linker_set_key" : "_ZN7android8hardware14neuralnetworks4V1_15utils7convertERKNS_2nn12DeviceStatusE",
   "parameters" :
   [
    {
     "referenced_type" : "_ZTIRKN7android2nn12DeviceStatusE"
    }
   ],
   "return_type" : "_ZTIN7android4base8expectedINS_8hardware14neuralnetworks4V1_012DeviceStatusENS_2nn12GeneralErrorEEE",
   "source_file" : "hardware/interfaces/neuralnetworks/1.1/utils/include/nnapi/hal/1.1/Conversions.h"
  },
  {
   "function_name" : "android::hardware::neuralnetworks::V1_1::utils::convert",
   "linker_set_key" : "_ZN7android8hardware14neuralnetworks4V1_15utils7convertERKNS_2nn19ExecutionPreferenceE",
   "parameters" :
   [
    {
     "referenced_type" : "_ZTIRKN7android2nn19ExecutionPreferenceE"
    }
   ],
   "return_type" : "_ZTIN7android4base8expectedINS_8hardware14neuralnetworks4V1_119ExecutionPreferenceENS_2nn12GeneralErrorEEE",
   "source_file" : "hardware/interfaces/neuralnetworks/1.1/utils/include/nnapi/hal/1.1/Conversions.h"
  },
  {
   "function_name" : "android::hardware::neuralnetworks::V1_1::utils::convert",
   "linker_set_key" : "_ZN7android8hardware14neuralnetworks4V1_15utils7convertERKNS_2nn5ModelE",
   "parameters" :
   [
    {
     "referenced_type" : "_ZTIRKN7android2nn5ModelE"
    }
   ],
   "return_type" : "_ZTIN7android4base8expectedINS_8hardware14neuralnetworks4V1_15ModelENS_2nn12GeneralErrorEEE",
   "source_file" : "hardware/interfaces/neuralnetworks/1.1/utils/include/nnapi/hal/1.1/Conversions.h"
  },
  {
   "function_name" : "android::hardware::neuralnetworks::V1_1::utils::convert",
   "linker_set_key" : "_ZN7android8hardware14neuralnetworks4V1_15utils7convertERKNS_2nn7RequestE",
   "parameters" :
   [
    {
     "referenced_type" : "_ZTIRKN7android2nn7RequestE"
    }
   ],
   "return_type" : "_ZTIN7android4base8expectedINS_8hardware14neuralnetworks4V1_07RequestENS_2nn12GeneralErrorEEE",
   "source_file" : "hardware/interfaces/neuralnetworks/1.1/utils/include/nnapi/hal/1.1/Conversions.h"
  },
  {
   "function_name" : "android::hardware::neuralnetworks::utils::makeGeneralFailure",
   "linker_set_key" : "_ZN7android8hardware14neuralnetworks5utils18makeGeneralFailureINS_2nn7VersionEEENS_4base8expectedIT_NS4_12GeneralErrorEEENS7_IS8_NSt3__112basic_stringIcNSB_11char_traitsIcEENSB_9allocatorIcEEEEEENS4_11ErrorStatusE",
   "parameters" :
   [
    {
     "referenced_type" : "_ZTIN7android4base8expectedINS_2nn7VersionENSt3__112basic_stringIcNS4_11char_traitsIcEENS4_9allocatorIcEEEEEE"
    },
    {
     "default_arg" : true,
     "referenced_type" : "_ZTIN7android2nn11ErrorStatusE"
    }
   ],
   "return_type" : "_ZTIN7android4base8expectedINS_2nn7VersionENS2_12GeneralErrorEEE",
   "source_file" : "hardware/interfaces/neuralnetworks/utils/common/include/nnapi/hal/HandleError.h",
   "template_args" : [ "_ZTIN7android2nn7VersionE" ]
  }
 ],
 "global_vars" :
 [
  {
   "linker_set_key" : "_ZN7android8hardware14neuralnetworks4V1_15utilsL27kDefaultExecutionPreferenceE",
   "name" : "android::hardware::neuralnetworks::V1_1::utils::kDefaultExecutionPreference",
   "referenced_type" : "_ZTIKN7android8hardware14neuralnetworks4V1_119ExecutionPreferenceE",
   "source_file" : "hardware/interfaces/neuralnetworks/1.1/utils/include/nnapi/hal/1.1/Utils.h"
  },
  {
   "linker_set_key" : "_ZN7android8hardware14neuralnetworks4V1_15utilsL8kVersionE",
   "name" : "android::hardware::neuralnetworks::V1_1::utils::kVersion",
   "referenced_type" : "_ZTIKN7android2nn7VersionE",
   "source_file" : "hardware/interfaces/neuralnetworks/1.1/utils/include/nnapi/hal/1.1/Utils.h"
  }
 ],
 "lvalue_reference_types" :
 [
  {
   "alignment" : 4,
   "linker_set_key" : "_ZTIRKN7android2nn11ErrorStatusE",
   "name" : "const android::nn::ErrorStatus &",
   "referenced_type" : "_ZTIKN7android2nn11ErrorStatusE",
   "self_type" : "_ZTIRKN7android2nn11ErrorStatusE",
   "size" : 4,
   "source_file" : "hardware/interfaces/neuralnetworks/1.1/utils/include/nnapi/hal/1.1/Conversions.h"
  },
  {
   "alignment" : 4,
   "linker_set_key" : "_ZTIRKN7android2nn12CapabilitiesE",
   "name" : "const android::nn::Capabilities &",
   "referenced_type" : "_ZTIKN7android2nn12CapabilitiesE",
   "self_type" : "_ZTIRKN7android2nn12CapabilitiesE",
   "size" : 4,
   "source_file" : "hardware/interfaces/neuralnetworks/1.1/utils/include/nnapi/hal/1.1/Conversions.h"
  },
  {
   "alignment" : 4,
   "linker_set_key" : "_ZTIRKN7android2nn12DeviceStatusE",
   "name" : "const android::nn::DeviceStatus &",
   "referenced_type" : "_ZTIKN7android2nn12DeviceStatusE",
   "self_type" : "_ZTIRKN7android2nn12DeviceStatusE",
   "size" : 4,
   "source_file" : "hardware/interfaces/neuralnetworks/1.1/utils/include/nnapi/hal/1.1/Conversions.h"
  },
  {
   "alignment" : 4,
   "linker_set_key" : "_ZTIRKN7android2nn13OperationTypeE",
   "name" : "const android::nn::OperationType &",
   "referenced_type" : "_ZTIKN7android2nn13OperationTypeE",
   "self_type" : "_ZTIRKN7android2nn13OperationTypeE",
   "size" : 4,
   "source_file" : "hardware/interfaces/neuralnetworks/1.1/utils/include/nnapi/hal/1.1/Conversions.h"
  },
  {
   "alignment" : 4,
   "linker_set_key" : "_ZTIRKN7android2nn19ExecutionPreferenceE",
   "name" : "const android::nn::ExecutionPreference &",
   "referenced_type" : "_ZTIKN7android2nn19ExecutionPreferenceE",
   "self_type" : "_ZTIRKN7android2nn19ExecutionPreferenceE",
   "size" : 4,
   "source_file" : "hardware/interfaces/neuralnetworks/1.1/utils/include/nnapi/hal/1.1/Conversions.h"
  },
  {
   "alignment" : 4,
   "linker_set_key" : "_ZTIRKN7android2nn5ModelE",
   "name" : "const android::nn::Model &",
   "referenced_type" : "_ZTIKN7android2nn5ModelE",
   "self_type" : "_ZTIRKN7android2nn5ModelE",
   "size" : 4,
   "source_file" : "hardware/interfaces/neuralnetworks/1.1/utils/include/nnapi/hal/1.1/Conversions.h"
  },
  {
   "alignment" : 4,
   "linker_set_key" : "_ZTIRKN7android2nn7RequestE",
   "name" : "const android::nn::Request &",
   "referenced_type" : "_ZTIKN7android2nn7RequestE",
   "self_type" : "_ZTIRKN7android2nn7RequestE",
   "size" : 4,
   "source_file" : "hardware/interfaces/neuralnetworks/1.1/utils/include/nnapi/hal/1.1/Conversions.h"
  },
  {
   "alignment" : 4,
   "linker_set_key" : "_ZTIRKN7android2nn9OperationE",
   "name" : "const android::nn::Operation &",
   "referenced_type" : "_ZTIKN7android2nn9OperationE",
   "self_type" : "_ZTIRKN7android2nn9OperationE",
   "size" : 4,
   "source_file" : "hardware/interfaces/neuralnetworks/1.1/utils/include/nnapi/hal/1.1/Conversions.h"
  },
  {
   "alignment" : 4,
   "linker_set_key" : "_ZTIRKN7android8hardware14neuralnetworks4V1_112CapabilitiesE",
   "name" : "const android::hardware::neuralnetworks::V1_1::Capabilities &",
   "referenced_type" : "_ZTIKN7android8hardware14neuralnetworks4V1_112CapabilitiesE",
   "self_type" : "_ZTIRKN7android8hardware14neuralnetworks4V1_112CapabilitiesE",
   "size" : 4,
   "source_file" : "hardware/interfaces/neuralnetworks/1.1/utils/include/nnapi/hal/1.1/Conversions.h"
  },
  {
   "alignment" : 4,
   "linker_set_key" : "_ZTIRKN7android8hardware14neuralnetworks4V1_113OperationTypeE",
   "name" : "const android::hardware::neuralnetworks::V1_1::OperationType &",
   "referenced_type" : "_ZTIKN7android8hardware14neuralnetworks4V1_113OperationTypeE",
   "self_type" : "_ZTIRKN7android8hardware14neuralnetworks4V1_113OperationTypeE",
   "size" : 4,
   "source_file" : "hardware/interfaces/neuralnetworks/1.1/utils/include/nnapi/hal/1.1/Conversions.h"
  },
  {
   "alignment" : 4,
   "linker_set_key" : "_ZTIRKN7android8hardware14neuralnetworks4V1_119ExecutionPreferenceE",
   "name" : "const android::hardware::neuralnetworks::V1_1::ExecutionPreference &",
   "referenced_type" : "_ZTIKN7android8hardware14neuralnetworks4V1_119ExecutionPreferenceE",
   "self_type" : "_ZTIRKN7android8hardware14neuralnetworks4V1_119ExecutionPreferenceE",
   "size" : 4,
   "source_file" : "hardware/interfaces/neuralnetworks/1.1/utils/include/nnapi/hal/1.1/Conversions.h"
  },
  {
   "alignment" : 4,
   "linker_set_key" : "_ZTIRKN7android8hardware14neuralnetworks4V1_15ModelE",
   "name" : "const android::hardware::neuralnetworks::V1_1::Model &",
   "referenced_type" : "_ZTIKN7android8hardware14neuralnetworks4V1_15ModelE",
   "self_type" : "_ZTIRKN7android8hardware14neuralnetworks4V1_15ModelE",
   "size" : 4,
   "source_file" : "hardware/interfaces/neuralnetworks/1.1/utils/include/nnapi/hal/1.1/Conversions.h"
  },
  {
   "alignment" : 4,
   "linker_set_key" : "_ZTIRKN7android8hardware14neuralnetworks4V1_19OperationE",
   "name" : "const android::hardware::neuralnetworks::V1_1::Operation &",
   "referenced_type" : "_ZTIKN7android8hardware14neuralnetworks4V1_19OperationE",
   "self_type" : "_ZTIRKN7android8hardware14neuralnetworks4V1_19OperationE",
   "size" : 4,
   "source_file" : "hardware/interfaces/neuralnetworks/1.1/utils/include/nnapi/hal/1.1/Conversions.h"
  }
 ],
 "pointer_types" : [],
 "qualified_types" :
 [
  {
   "alignment" : 4,
   "is_const" : true,
   "linker_set_key" : "_ZTIKN7android2nn11ErrorStatusE",
   "name" : "const android::nn::ErrorStatus",
   "referenced_type" : "_ZTIN7android2nn11ErrorStatusE",
   "self_type" : "_ZTIKN7android2nn11ErrorStatusE",
   "size" : 4,
   "source_file" : "hardware/interfaces/neuralnetworks/1.1/utils/include/nnapi/hal/1.1/Conversions.h"
  },
  {
   "alignment" : 4,
   "is_const" : true,
   "linker_set_key" : "_ZTIKN7android2nn12CapabilitiesE",
   "name" : "const android::nn::Capabilities",
   "referenced_type" : "_ZTIN7android2nn12CapabilitiesE",
   "self_type" : "_ZTIKN7android2nn12CapabilitiesE",
   "size" : 44,
   "source_file" : "hardware/interfaces/neuralnetworks/1.1/utils/include/nnapi/hal/1.1/Conversions.h"
  },
  {
   "alignment" : 4,
   "is_const" : true,
   "linker_set_key" : "_ZTIKN7android2nn12DeviceStatusE",
   "name" : "const android::nn::DeviceStatus",
   "referenced_type" : "_ZTIN7android2nn12DeviceStatusE",
   "self_type" : "_ZTIKN7android2nn12DeviceStatusE",
   "size" : 4,
   "source_file" : "hardware/interfaces/neuralnetworks/1.1/utils/include/nnapi/hal/1.1/Conversions.h"
  },
  {
   "alignment" : 4,
   "is_const" : true,
   "linker_set_key" : "_ZTIKN7android2nn13OperationTypeE",
   "name" : "const android::nn::OperationType",
   "referenced_type" : "_ZTIN7android2nn13OperationTypeE",
   "self_type" : "_ZTIKN7android2nn13OperationTypeE",
   "size" : 4,
   "source_file" : "hardware/interfaces/neuralnetworks/1.1/utils/include/nnapi/hal/1.1/Conversions.h"
  },
  {
   "alignment" : 4,
   "is_const" : true,
   "linker_set_key" : "_ZTIKN7android2nn19ExecutionPreferenceE",
   "name" : "const android::nn::ExecutionPreference",
   "referenced_type" : "_ZTIN7android2nn19ExecutionPreferenceE",
   "self_type" : "_ZTIKN7android2nn19ExecutionPreferenceE",
   "size" : 4,
   "source_file" : "hardware/interfaces/neuralnetworks/1.1/utils/include/nnapi/hal/1.1/Conversions.h"
  },
  {
   "alignment" : 4,
   "is_const" : true,
   "linker_set_key" : "_ZTIKN7android2nn5ModelE",
   "name" : "const android::nn::Model",
   "referenced_type" : "_ZTIN7android2nn5ModelE",
   "self_type" : "_ZTIKN7android2nn5ModelE",
   "size" : 100,
   "source_file" : "hardware/interfaces/neuralnetworks/1.1/utils/include/nnapi/hal/1.1/Conversions.h"
  },
  {
   "alignment" : 4,
   "is_const" : true,
   "linker_set_key" : "_ZTIKN7android2nn7RequestE",
   "name" : "const android::nn::Request",
   "referenced_type" : "_ZTIN7android2nn7RequestE",
   "self_type" : "_ZTIKN7android2nn7RequestE",
   "size" : 36,
   "source_file" : "hardware/interfaces/neuralnetworks/1.1/utils/include/nnapi/hal/1.1/Conversions.h"
  },
  {
   "alignment" : 4,
   "is_const" : true,
   "linker_set_key" : "_ZTIKN7android2nn7VersionE",
   "name" : "const android::nn::Version",
   "referenced_type" : "_ZTIN7android2nn7VersionE",
   "self_type" : "_ZTIKN7android2nn7VersionE",
   "size" : 4,
   "source_file" : "hardware/interfaces/neuralnetworks/1.1/utils/include/nnapi/hal/1.1/Utils.h"
  },
  {
   "alignment" : 4,
   "is_const" : true,
   "linker_set_key" : "_ZTIKN7android2nn9OperationE",
   "name" : "const android::nn::Operation",
   "referenced_type" : "_ZTIN7android2nn9OperationE",
   "self_type" : "_ZTIKN7android2nn9OperationE",
   "size" : 28,
   "source_file" : "hardware/interfaces/neuralnetworks/1.1/utils/include/nnapi/hal/1.1/Conversions.h"
  },
  {
   "alignment" : 4,
   "is_const" : true,
   "linker_set_key" : "_ZTIKN7android8hardware14neuralnetworks4V1_112CapabilitiesE",
   "name" : "const android::hardware::neuralnetworks::V1_1::Capabilities",
   "referenced_type" : "_ZTIN7android8hardware14neuralnetworks4V1_112CapabilitiesE",
   "self_type" : "_ZTIKN7android8hardware14neuralnetworks4V1_112CapabilitiesE",
   "size" : 24,
   "source_file" : "hardware/interfaces/neuralnetworks/1.1/utils/include/nnapi/hal/1.1/Conversions.h"
  },
  {
   "alignment" : 4,
   "is_const" : true,
   "linker_set_key" : "_ZTIKN7android8hardware14neuralnetworks4V1_113OperationTypeE",
   "name" : "const android::hardware::neuralnetworks::V1_1::OperationType",
   "referenced_type" : "_ZTIN7android8hardware14neuralnetworks4V1_113OperationTypeE",
   "self_type" : "_ZTIKN7android8hardware14neuralnetworks4V1_113OperationTypeE",
   "size" : 4,
   "source_file" : "hardware/interfaces/neuralnetworks/1.1/utils/include/nnapi/hal/1.1/Conversions.h"
  },
  {
   "alignment" : 4,
   "is_const" : true,
   "linker_set_key" : "_ZTIKN7android8hardware14neuralnetworks4V1_119ExecutionPreferenceE",
   "name" : "const android::hardware::neuralnetworks::V1_1::ExecutionPreference",
   "referenced_type" : "_ZTIN7android8hardware14neuralnetworks4V1_119ExecutionPreferenceE",
   "self_type" : "_ZTIKN7android8hardware14neuralnetworks4V1_119ExecutionPreferenceE",
   "size" : 4,
   "source_file" : "hardware/interfaces/neuralnetworks/1.1/utils/include/nnapi/hal/1.1/Conversions.h"
  },
  {
   "alignment" : 8,
   "is_const" : true,
   "linker_set_key" : "_ZTIKN7android8hardware14neuralnetworks4V1_15ModelE",
   "name" : "const android::hardware::neuralnetworks::V1_1::Model",
   "referenced_type" : "_ZTIN7android8hardware14neuralnetworks4V1_15ModelE",
   "self_type" : "_ZTIKN7android8hardware14neuralnetworks4V1_15ModelE",
   "size" : 104,
   "source_file" : "hardware/interfaces/neuralnetworks/1.1/utils/include/nnapi/hal/1.1/Conversions.h"
  },
  {
   "alignment" : 8,
   "is_const" : true,
   "linker_set_key" : "_ZTIKN7android8hardware14neuralnetworks4V1_19OperationE",
   "name" : "const android::hardware::neuralnetworks::V1_1::Operation",
   "referenced_type" : "_ZTIN7android8hardware14neuralnetworks4V1_19OperationE",
   "self_type" : "_ZTIKN7android8hardware14neuralnetworks4V1_19OperationE",
   "size" : 40,
   "source_file" : "hardware/interfaces/neuralnetworks/1.1/utils/include/nnapi/hal/1.1/Conversions.h"
  }
 ],
 "record_types" :
 [
  {
   "alignment" : 4,
   "fields" :
   [
    {
     "field_name" : "input",
     "referenced_type" : "_ZTINSt3__110unique_ptrIN7android8hardware14neuralnetworks5utils17RelocationTrackerINS4_14RelocationInfoIPKvEEEENS_14default_deleteISA_EEEE"
    },
    {
     "field_name" : "output",
     "field_offset" : 32,
     "referenced_type" : "_ZTINSt3__110unique_ptrIN7android8hardware14neuralnetworks5utils17RelocationTrackerINS4_14RelocationInfoIPvEEEENS_14default_deleteIS9_EEEE"
    }
   ],
   "linker_set_key" : "_ZTIN7android8hardware14neuralnetworks5utils17RequestRelocationE",
   "name" : "android::hardware::neuralnetworks::utils::RequestRelocation",
   "referenced_type" : "_ZTIN7android8hardware14neuralnetworks5utils17RequestRelocationE",
   "self_type" : "_ZTIN7android8hardware14neuralnetworks5utils17RequestRelocationE",
   "size" : 8,
   "source_file" : "hardware/interfaces/neuralnetworks/utils/common/include/nnapi/hal/CommonUtils.h"
  }
 ],
 "rvalue_reference_types" : []
}
