{
 "array_types" :
 [
  {
   "alignment" : 4,
   "linker_set_key" : "_ZTIA10_i",
   "name" : "int [10]",
   "referenced_type" : "_ZTIi",
   "self_type" : "_ZTIA10_i",
   "size" : 40,
   "source_file" : "out/soong/.intermediates/bionic/libc/libc/android_vendor.32_arm_armv8-a_shared/gen/include/bits/pthread_types.h"
  },
  {
   "alignment" : 1,
   "linker_set_key" : "_ZTIA11_c",
   "name" : "char [11]",
   "referenced_type" : "_ZTIc",
   "self_type" : "_ZTIA11_c",
   "size" : 11,
   "source_file" : "external/libcxx/include/string"
  },
  {
   "alignment" : 1,
   "linker_set_key" : "_ZTIA120_c",
   "name" : "char [120]",
   "referenced_type" : "_ZTIc",
   "self_type" : "_ZTIA120_c",
   "size" : 120,
   "source_file" : "out/soong/.intermediates/bionic/libc/libc/android_vendor.32_arm_armv8-a_shared/gen/include/sys/ucontext.h"
  },
  {
   "alignment" : 4,
   "linker_set_key" : "_ZTIA128_m",
   "name" : "unsigned long [128]",
   "referenced_type" : "_ZTIm",
   "self_type" : "_ZTIA128_m",
   "size" : 512,
   "source_file" : "out/soong/.intermediates/bionic/libc/libc/android_vendor.32_arm_armv8-a_shared/gen/include/sys/ucontext.h"
  },
  {
   "alignment" : 4,
   "linker_set_key" : "_ZTIA13_i",
   "name" : "int [13]",
   "referenced_type" : "_ZTIi",
   "self_type" : "_ZTIA13_i",
   "size" : 52,
   "source_file" : "bionic/libc/kernel/uapi/asm-generic/siginfo.h"
  },
  {
   "alignment" : 1,
   "linker_set_key" : "_ZTIA16_h",
   "name" : "unsigned char [16]",
   "referenced_type" : "_ZTIh",
   "self_type" : "_ZTIA16_h",
   "size" : 16,
   "source_file" : "external/libcxx/include/type_traits"
  },
  {
   "alignment" : 4,
   "linker_set_key" : "_ZTIA16_j",
   "name" : "unsigned int [16]",
   "referenced_type" : "_ZTIj",
   "self_type" : "_ZTIA16_j",
   "size" : 64,
   "source_file" : "external/llvm/include/llvm/Support/SHA1.h"
  },
  {
   "alignment" : 4,
   "linker_set_key" : "_ZTIA18_m",
   "name" : "unsigned long [18]",
   "referenced_type" : "_ZTIm",
   "self_type" : "_ZTIA18_m",
   "size" : 72,
   "source_file" : "out/soong/.intermediates/bionic/libc/libc/android_vendor.32_arm_armv8-a_shared/gen/include/sys/user.h"
  },
  {
   "alignment" : 1,
   "linker_set_key" : "_ZTIA1_c",
   "name" : "char [1]",
   "referenced_type" : "_ZTIc",
   "self_type" : "_ZTIA1_c",
   "size" : 1,
   "source_file" : "external/llvm/include/llvm/Support/AlignOf.h"
  },
  {
   "alignment" : 4,
   "linker_set_key" : "_ZTIA1_i",
   "name" : "int [1]",
   "referenced_type" : "_ZTIi",
   "self_type" : "_ZTIA1_i",
   "size" : 4,
   "source_file" : "out/soong/.intermediates/bionic/libc/libc/android_vendor.32_arm_armv8-a_shared/gen/include/bits/pthread_types.h"
  },
  {
   "alignment" : 1,
   "linker_set_key" : "_ZTIA256_h",
   "name" : "unsigned char [256]",
   "referenced_type" : "_ZTIh",
   "self_type" : "_ZTIA256_h",
   "size" : 256,
   "source_file" : "external/llvm/include/llvm/Support/MathExtras.h"
  },
  {
   "alignment" : 1,
   "linker_set_key" : "_ZTIA2_c",
   "name" : "char [2]",
   "referenced_type" : "_ZTIc",
   "self_type" : "_ZTIA2_c",
   "size" : 2,
   "source_file" : "external/libcxx/include/type_traits"
  },
  {
   "alignment" : 4,
   "linker_set_key" : "_ZTIA2_i",
   "name" : "int [2]",
   "referenced_type" : "_ZTIi",
   "self_type" : "_ZTIA2_i",
   "size" : 8,
   "source_file" : "bionic/libc/kernel/uapi/asm-generic/posix_types.h"
  },
  {
   "alignment" : 4,
   "linker_set_key" : "_ZTIA2_m",
   "name" : "unsigned long [2]",
   "referenced_type" : "_ZTIm",
   "self_type" : "_ZTIA2_m",
   "size" : 8,
   "source_file" : "out/soong/.intermediates/bionic/libc/libc/android_vendor.32_arm_armv8-a_shared/gen/include/bits/signal_types.h"
  },
  {
   "alignment" : 4,
   "linker_set_key" : "_ZTIA2_w",
   "name" : "wchar_t [2]",
   "referenced_type" : "_ZTIw",
   "self_type" : "_ZTIA2_w",
   "size" : 8,
   "source_file" : "external/libcxx/include/string"
  },
  {
   "alignment" : 1,
   "linker_set_key" : "_ZTIA32_c",
   "name" : "char [32]",
   "referenced_type" : "_ZTIc",
   "self_type" : "_ZTIA32_c",
   "size" : 32,
   "source_file" : "out/soong/.intermediates/bionic/libc/libc/android_vendor.32_arm_armv8-a_shared/gen/include/sys/user.h"
  },
  {
   "alignment" : 4,
   "linker_set_key" : "_ZTIA32_i",
   "name" : "int [32]",
   "referenced_type" : "_ZTIi",
   "self_type" : "_ZTIA32_i",
   "size" : 128,
   "source_file" : "bionic/libc/kernel/uapi/asm-generic/siginfo.h"
  },
  {
   "alignment" : 4,
   "linker_set_key" : "_ZTIA32_m",
   "name" : "unsigned long [32]",
   "referenced_type" : "_ZTIm",
   "self_type" : "_ZTIA32_m",
   "size" : 128,
   "source_file" : "bionic/libc/kernel/uapi/linux/posix_types.h"
  },
  {
   "alignment" : 8,
   "linker_set_key" : "_ZTIA32_y",
   "name" : "unsigned long long [32]",
   "referenced_type" : "_ZTIy",
   "self_type" : "_ZTIA32_y",
   "size" : 256,
   "source_file" : "out/soong/.intermediates/bionic/libc/libc/android_vendor.32_arm_armv8-a_shared/gen/include/sys/user.h"
  },
  {
   "alignment" : 4,
   "linker_set_key" : "_ZTIA3_N4llvm21AlignedCharArrayUnionIPvcccccccccEE",
   "name" : "llvm::AlignedCharArrayUnion<void *, char, char, char, char, char, char, char, char, char> [3]",
   "referenced_type" : "_ZTIN4llvm21AlignedCharArrayUnionIPvcccccccccEE",
   "self_type" : "_ZTIA3_N4llvm21AlignedCharArrayUnionIPvcccccccccEE",
   "size" : 12,
   "source_file" : "external/llvm/include/llvm/ADT/SmallVector.h"
  },
  {
   "alignment" : 4,
   "linker_set_key" : "_ZTIA3_j",
   "name" : "unsigned int [3]",
   "referenced_type" : "_ZTIj",
   "self_type" : "_ZTIA3_j",
   "size" : 12,
   "source_file" : "external/libcxx/include/string"
  },
  {
   "alignment" : 1,
   "linker_set_key" : "_ZTIA4_c",
   "name" : "char [4]",
   "referenced_type" : "_ZTIc",
   "self_type" : "_ZTIA4_c",
   "size" : 4,
   "source_file" : "bionic/libc/kernel/uapi/asm-generic/siginfo.h"
  },
  {
   "alignment" : 8,
   "linker_set_key" : "_ZTIA4_d",
   "name" : "double [4]",
   "referenced_type" : "_ZTId",
   "self_type" : "_ZTIA4_d",
   "size" : 32,
   "source_file" : "external/libcxx/include/type_traits"
  },
  {
   "alignment" : 1,
   "linker_set_key" : "_ZTIA4_h",
   "name" : "unsigned char [4]",
   "referenced_type" : "_ZTIh",
   "self_type" : "_ZTIA4_h",
   "size" : 4,
   "source_file" : "out/soong/.intermediates/bionic/libc/libc/android_vendor.32_arm_armv8-a_shared/gen/include/bits/mbstate_t.h"
  },
  {
   "alignment" : 4,
   "linker_set_key" : "_ZTIA5_j",
   "name" : "unsigned int [5]",
   "referenced_type" : "_ZTIj",
   "self_type" : "_ZTIA5_j",
   "size" : 20,
   "source_file" : "external/llvm/include/llvm/Support/SHA1.h"
  },
  {
   "alignment" : 1,
   "linker_set_key" : "_ZTIA64_c",
   "name" : "char [64]",
   "referenced_type" : "_ZTIc",
   "self_type" : "_ZTIA64_c",
   "size" : 64,
   "source_file" : "external/llvm/include/llvm/ADT/Hashing.h"
  },
  {
   "alignment" : 4,
   "linker_set_key" : "_ZTIA65_PKc",
   "name" : "const char *[65]",
   "referenced_type" : "_ZTIPKc",
   "self_type" : "_ZTIA65_PKc",
   "size" : 260,
   "source_file" : "out/soong/.intermediates/bionic/libc/libc/android_vendor.32_arm_armv8-a_shared/gen/include/signal.h"
  },
  {
   "alignment" : 4,
   "linker_set_key" : "_ZTIA8_N11user_fpregs6fp_regE",
   "name" : "user_fpregs::fp_reg [8]",
   "referenced_type" : "_ZTIN11user_fpregs6fp_regE",
   "self_type" : "_ZTIA8_N11user_fpregs6fp_regE",
   "size" : 96,
   "source_file" : "out/soong/.intermediates/bionic/libc/libc/android_vendor.32_arm_armv8-a_shared/gen/include/sys/user.h"
  },
  {
   "alignment" : 1,
   "linker_set_key" : "_ZTIA8_c",
   "name" : "char [8]",
   "referenced_type" : "_ZTIc",
   "self_type" : "_ZTIA8_c",
   "size" : 8,
   "source_file" : "external/libcxx/include/functional"
  },
  {
   "alignment" : 1,
   "linker_set_key" : "_ZTIA8_h",
   "name" : "unsigned char [8]",
   "referenced_type" : "_ZTIh",
   "self_type" : "_ZTIA8_h",
   "size" : 8,
   "source_file" : "out/soong/.intermediates/bionic/libc/libc/android_vendor.32_arm_armv8-a_shared/gen/include/sys/user.h"
  },
  {
   "alignment" : 4,
   "linker_set_key" : "_ZTIA8_i",
   "name" : "int [8]",
   "referenced_type" : "_ZTIi",
   "self_type" : "_ZTIA8_i",
   "size" : 32,
   "source_file" : "out/soong/.intermediates/bionic/libc/libc/android_vendor.32_arm_armv8-a_shared/gen/include/bits/pthread_types.h"
  },
  {
   "linker_set_key" : "_ZTIA_Pc",
   "name" : "char *[]",
   "referenced_type" : "_ZTIPc",
   "self_type" : "_ZTIA_Pc",
   "source_file" : "out/soong/.intermediates/bionic/libc/libc/android_vendor.32_arm_armv8-a_shared/gen/include/time.h"
  }
 ],
 "builtin_types" :
 [
  {
   "alignment" : 4,
   "is_integral" : true,
   "is_unsigned" : true,
   "linker_set_key" : "_ZTIDi",
   "name" : "char32_t",
   "referenced_type" : "_ZTIDi",
   "self_type" : "_ZTIDi",
   "size" : 4
  },
  {
   "alignment" : 4,
   "linker_set_key" : "_ZTIDn",
   "name" : "nullptr_t",
   "referenced_type" : "_ZTIDn",
   "self_type" : "_ZTIDn",
   "size" : 4
  },
  {
   "alignment" : 2,
   "is_integral" : true,
   "is_unsigned" : true,
   "linker_set_key" : "_ZTIDs",
   "name" : "char16_t",
   "referenced_type" : "_ZTIDs",
   "self_type" : "_ZTIDs",
   "size" : 2
  },
  {
   "alignment" : 1,
   "is_integral" : true,
   "linker_set_key" : "_ZTIa",
   "name" : "signed char",
   "referenced_type" : "_ZTIa",
   "self_type" : "_ZTIa",
   "size" : 1
  },
  {
   "alignment" : 1,
   "is_integral" : true,
   "is_unsigned" : true,
   "linker_set_key" : "_ZTIb",
   "name" : "bool",
   "referenced_type" : "_ZTIb",
   "self_type" : "_ZTIb",
   "size" : 1
  },
  {
   "alignment" : 1,
   "is_integral" : true,
   "is_unsigned" : true,
   "linker_set_key" : "_ZTIc",
   "name" : "char",
   "referenced_type" : "_ZTIc",
   "self_type" : "_ZTIc",
   "size" : 1
  },
  {
   "alignment" : 8,
   "linker_set_key" : "_ZTId",
   "name" : "double",
   "referenced_type" : "_ZTId",
   "self_type" : "_ZTId",
   "size" : 8
  },
  {
   "alignment" : 8,
   "linker_set_key" : "_ZTIe",
   "name" : "long double",
   "referenced_type" : "_ZTIe",
   "self_type" : "_ZTIe",
   "size" : 8
  },
  {
   "alignment" : 4,
   "linker_set_key" : "_ZTIf",
   "name" : "float",
   "referenced_type" : "_ZTIf",
   "self_type" : "_ZTIf",
   "size" : 4
  },
  {
   "alignment" : 1,
   "is_integral" : true,
   "is_unsigned" : true,
   "linker_set_key" : "_ZTIh",
   "name" : "unsigned char",
   "referenced_type" : "_ZTIh",
   "self_type" : "_ZTIh",
   "size" : 1
  },
  {
   "alignment" : 4,
   "is_integral" : true,
   "linker_set_key" : "_ZTIi",
   "name" : "int",
   "referenced_type" : "_ZTIi",
   "self_type" : "_ZTIi",
   "size" : 4
  },
  {
   "alignment" : 4,
   "is_integral" : true,
   "is_unsigned" : true,
   "linker_set_key" : "_ZTIj",
   "name" : "unsigned int",
   "referenced_type" : "_ZTIj",
   "self_type" : "_ZTIj",
   "size" : 4
  },
  {
   "alignment" : 4,
   "is_integral" : true,
   "linker_set_key" : "_ZTIl",
   "name" : "long",
   "referenced_type" : "_ZTIl",
   "self_type" : "_ZTIl",
   "size" : 4
  },
  {
   "alignment" : 4,
   "is_integral" : true,
   "is_unsigned" : true,
   "linker_set_key" : "_ZTIm",
   "name" : "unsigned long",
   "referenced_type" : "_ZTIm",
   "self_type" : "_ZTIm",
   "size" : 4
  },
  {
   "alignment" : 2,
   "is_integral" : true,
   "linker_set_key" : "_ZTIs",
   "name" : "short",
   "referenced_type" : "_ZTIs",
   "self_type" : "_ZTIs",
   "size" : 2
  },
  {
   "alignment" : 2,
   "is_integral" : true,
   "is_unsigned" : true,
   "linker_set_key" : "_ZTIt",
   "name" : "unsigned short",
   "referenced_type" : "_ZTIt",
   "self_type" : "_ZTIt",
   "size" : 2
  },
  {
   "linker_set_key" : "_ZTIv",
   "name" : "void",
   "referenced_type" : "_ZTIv",
   "self_type" : "_ZTIv"
  },
  {
   "alignment" : 4,
   "is_integral" : true,
   "is_unsigned" : true,
   "linker_set_key" : "_ZTIw",
   "name" : "wchar_t",
   "referenced_type" : "_ZTIw",
   "self_type" : "_ZTIw",
   "size" : 4
  },
  {
   "alignment" : 8,
   "is_integral" : true,
   "linker_set_key" : "_ZTIx",
   "name" : "long long",
   "referenced_type" : "_ZTIx",
   "self_type" : "_ZTIx",
   "size" : 8
  },
  {
   "alignment" : 8,
   "is_integral" : true,
   "is_unsigned" : true,
   "linker_set_key" : "_ZTIy",
   "name" : "unsigned long long",
   "referenced_type" : "_ZTIy",
   "self_type" : "_ZTIy",
   "size" : 8
  }
 ],
 "elf_functions" : [],
 "elf_objects" : [],
 "enum_types" :
 [
  {
   "alignment" : 4,
   "enum_fields" :
   [
    {
     "enum_field_value" : 0,
     "name" : "M_HEAP_TAGGING_LEVEL_NONE"
    },
    {
     "enum_field_value" : 1,
     "name" : "M_HEAP_TAGGING_LEVEL_TBI"
    },
    {
     "enum_field_value" : 2,
     "name" : "M_HEAP_TAGGING_LEVEL_ASYNC"
    },
    {
     "enum_field_value" : 3,
     "name" : "M_HEAP_TAGGING_LEVEL_SYNC"
    }
   ],
   "linker_set_key" : "_ZTI16HeapTaggingLevel",
   "name" : "HeapTaggingLevel",
   "referenced_type" : "_ZTI16HeapTaggingLevel",
   "self_type" : "_ZTI16HeapTaggingLevel",
   "size" : 4,
   "source_file" : "out/soong/.intermediates/bionic/libc/libc/android_vendor.32_arm_armv8-a_shared/gen/include/malloc.h",
   "underlying_type" : "_ZTIj"
  },
  {
   "alignment" : 4,
   "enum_fields" :
   [
    {
     "enum_field_value" : 0,
     "name" : "REG_R0"
    },
    {
     "enum_field_value" : 1,
     "name" : "REG_R1"
    },
    {
     "enum_field_value" : 2,
     "name" : "REG_R2"
    },
    {
     "enum_field_value" : 3,
     "name" : "REG_R3"
    },
    {
     "enum_field_value" : 4,
     "name" : "REG_R4"
    },
    {
     "enum_field_value" : 5,
     "name" : "REG_R5"
    },
    {
     "enum_field_value" : 6,
     "name" : "REG_R6"
    },
    {
     "enum_field_value" : 7,
     "name" : "REG_R7"
    },
    {
     "enum_field_value" : 8,
     "name" : "REG_R8"
    },
    {
     "enum_field_value" : 9,
     "name" : "REG_R9"
    },
    {
     "enum_field_value" : 10,
     "name" : "REG_R10"
    },
    {
     "enum_field_value" : 11,
     "name" : "REG_R11"
    },
    {
     "enum_field_value" : 12,
     "name" : "REG_R12"
    },
    {
     "enum_field_value" : 13,
     "name" : "REG_R13"
    },
    {
     "enum_field_value" : 14,
     "name" : "REG_R14"
    },
    {
     "enum_field_value" : 15,
     "name" : "REG_R15"
    }
   ],
   "linker_set_key" : "_ZTI7$REG_R0",
   "name" : "(anonymous enum at out/soong/.intermediates/bionic/libc/libc/android_vendor.32_arm_armv8-a_shared/gen/include/sys/ucontext.h:41:1)",
   "referenced_type" : "_ZTI7$REG_R0",
   "self_type" : "_ZTI7$REG_R0",
   "size" : 4,
   "source_file" : "out/soong/.intermediates/bionic/libc/libc/android_vendor.32_arm_armv8-a_shared/gen/include/sys/ucontext.h",
   "underlying_type" : "_ZTIj"
  },
  {
   "alignment" : 4,
   "enum_fields" :
   [
    {
     "enum_field_value" : 0,
     "name" : "llvm::ZB_Undefined"
    },
    {
     "enum_field_value" : 1,
     "name" : "llvm::ZB_Max"
    },
    {
     "enum_field_value" : 2,
     "name" : "llvm::ZB_Width"
    }
   ],
   "linker_set_key" : "_ZTIN4llvm12ZeroBehaviorE",
   "name" : "llvm::ZeroBehavior",
   "referenced_type" : "_ZTIN4llvm12ZeroBehaviorE",
   "self_type" : "_ZTIN4llvm12ZeroBehaviorE",
   "size" : 4,
   "source_file" : "external/llvm/include/llvm/Support/MathExtras.h",
   "underlying_type" : "_ZTIj"
  },
  {
   "alignment" : 4,
   "enum_fields" :
   [
    {
     "enum_field_value" : 2,
     "name" : "llvm::PointerLikeTypeTraits<llvm::StringMapEntryBase *>::NumLowBitsAvailable"
    }
   ],
   "linker_set_key" : "_ZTIN4llvm21PointerLikeTypeTraitsIPNS_18StringMapEntryBaseEE20$NumLowBitsAvailableE",
   "name" : "llvm::PointerLikeTypeTraits<StringMapEntryBase *>::(anonymous enum at external/llvm/include/llvm/Support/PointerLikeTypeTraits.h:45:3)",
   "referenced_type" : "_ZTIN4llvm21PointerLikeTypeTraitsIPNS_18StringMapEntryBaseEE20$NumLowBitsAvailableE",
   "self_type" : "_ZTIN4llvm21PointerLikeTypeTraitsIPNS_18StringMapEntryBaseEE20$NumLowBitsAvailableE",
   "size" : 4,
   "source_file" : "external/llvm/include/llvm/Support/PointerLikeTypeTraits.h",
   "underlying_type" : "_ZTIj"
  },
  {
   "alignment" : 4,
   "enum_fields" :
   [
    {
     "enum_field_value" : 2,
     "name" : "llvm::PointerLikeTypeTraits<void *>::NumLowBitsAvailable"
    }
   ],
   "linker_set_key" : "_ZTIN4llvm21PointerLikeTypeTraitsIPvE20$NumLowBitsAvailableE",
   "name" : "llvm::PointerLikeTypeTraits<void *>::(anonymous enum at external/llvm/include/llvm/Support/PointerLikeTypeTraits.h:62:3)",
   "referenced_type" : "_ZTIN4llvm21PointerLikeTypeTraitsIPvE20$NumLowBitsAvailableE",
   "self_type" : "_ZTIN4llvm21PointerLikeTypeTraitsIPvE20$NumLowBitsAvailableE",
   "size" : 4,
   "source_file" : "external/llvm/include/llvm/Support/PointerLikeTypeTraits.h",
   "underlying_type" : "_ZTIj"
  },
  {
   "alignment" : 4,
   "enum_fields" :
   [
    {
     "enum_field_value" : 0,
     "name" : "llvm::PointerLikeTypeTraits<unsigned int>::NumLowBitsAvailable"
    }
   ],
   "linker_set_key" : "_ZTIN4llvm21PointerLikeTypeTraitsIjE20$NumLowBitsAvailableE",
   "name" : "llvm::PointerLikeTypeTraits<uintptr_t>::(anonymous enum at external/llvm/include/llvm/Support/PointerLikeTypeTraits.h:89:3)",
   "referenced_type" : "_ZTIN4llvm21PointerLikeTypeTraitsIjE20$NumLowBitsAvailableE",
   "self_type" : "_ZTIN4llvm21PointerLikeTypeTraitsIjE20$NumLowBitsAvailableE",
   "size" : 4,
   "source_file" : "external/llvm/include/llvm/Support/PointerLikeTypeTraits.h",
   "underlying_type" : "_ZTIj"
  },
  {
   "alignment" : 4,
   "enum_fields" :
   [
    {
     "enum_field_value" : 16777216,
     "name" : "llvm::sys::Memory::MF_READ"
    },
    {
     "enum_field_value" : 33554432,
     "name" : "llvm::sys::Memory::MF_WRITE"
    },
    {
     "enum_field_value" : 67108864,
     "name" : "llvm::sys::Memory::MF_EXEC"
    }
   ],
   "linker_set_key" : "_ZTIN4llvm3sys6Memory15ProtectionFlagsE",
   "name" : "llvm::sys::Memory::ProtectionFlags",
   "referenced_type" : "_ZTIN4llvm3sys6Memory15ProtectionFlagsE",
   "self_type" : "_ZTIN4llvm3sys6Memory15ProtectionFlagsE",
   "size" : 4,
   "source_file" : "external/llvm/include/llvm/Support/Memory.h",
   "underlying_type" : "_ZTIj"
  },
  {
   "access" : "private",
   "alignment" : 4,
   "enum_fields" :
   [
    {
     "enum_field_value" : 20,
     "name" : "llvm::SHA1::HASH_LENGTH"
    }
   ],
   "linker_set_key" : "_ZTIN4llvm4SHA112$HASH_LENGTHE",
   "name" : "llvm::SHA1::(anonymous enum at external/llvm/include/llvm/Support/SHA1.h:60:3)",
   "referenced_type" : "_ZTIN4llvm4SHA112$HASH_LENGTHE",
   "self_type" : "_ZTIN4llvm4SHA112$HASH_LENGTHE",
   "size" : 4,
   "source_file" : "external/llvm/include/llvm/Support/SHA1.h",
   "underlying_type" : "_ZTIj"
  },
  {
   "access" : "private",
   "alignment" : 4,
   "enum_fields" :
   [
    {
     "enum_field_value" : 64,
     "name" : "llvm::SHA1::BLOCK_LENGTH"
    }
   ],
   "linker_set_key" : "_ZTIN4llvm4SHA113$BLOCK_LENGTHE",
   "name" : "llvm::SHA1::(anonymous enum at external/llvm/include/llvm/Support/SHA1.h:59:3)",
   "referenced_type" : "_ZTIN4llvm4SHA113$BLOCK_LENGTHE",
   "self_type" : "_ZTIN4llvm4SHA113$BLOCK_LENGTHE",
   "size" : 4,
   "source_file" : "external/llvm/include/llvm/Support/SHA1.h",
   "underlying_type" : "_ZTIj"
  },
  {
   "alignment" : 4,
   "enum_fields" :
   [
    {
     "enum_field_value" : 0,
     "name" : "llvm::AlignOf<llvm::StringMapEntryBase>::Alignment_LessEqual_2Bytes"
    }
   ],
   "linker_set_key" : "_ZTIN4llvm7AlignOfINS_18StringMapEntryBaseEE27$Alignment_LessEqual_2BytesE",
   "name" : "llvm::AlignOf<StringMapEntryBase>::(anonymous enum at external/llvm/include/llvm/Support/AlignOf.h:91:3)",
   "referenced_type" : "_ZTIN4llvm7AlignOfINS_18StringMapEntryBaseEE27$Alignment_LessEqual_2BytesE",
   "self_type" : "_ZTIN4llvm7AlignOfINS_18StringMapEntryBaseEE27$Alignment_LessEqual_2BytesE",
   "size" : 4,
   "source_file" : "external/llvm/include/llvm/Support/AlignOf.h",
   "underlying_type" : "_ZTIj"
  },
  {
   "alignment" : 4,
   "enum_fields" :
   [
    {
     "enum_field_value" : 1,
     "name" : "llvm::AlignOf<llvm::StringMapEntryBase>::Alignment_LessEqual_4Bytes"
    }
   ],
   "linker_set_key" : "_ZTIN4llvm7AlignOfINS_18StringMapEntryBaseEE27$Alignment_LessEqual_4BytesE",
   "name" : "llvm::AlignOf<StringMapEntryBase>::(anonymous enum at external/llvm/include/llvm/Support/AlignOf.h:92:3)",
   "referenced_type" : "_ZTIN4llvm7AlignOfINS_18StringMapEntryBaseEE27$Alignment_LessEqual_4BytesE",
   "self_type" : "_ZTIN4llvm7AlignOfINS_18StringMapEntryBaseEE27$Alignment_LessEqual_4BytesE",
   "size" : 4,
   "source_file" : "external/llvm/include/llvm/Support/AlignOf.h",
   "underlying_type" : "_ZTIj"
  },
  {
   "alignment" : 4,
   "enum_fields" :
   [
    {
     "enum_field_value" : 1,
     "name" : "llvm::AlignOf<llvm::StringMapEntryBase>::Alignment_LessEqual_8Bytes"
    }
   ],
   "linker_set_key" : "_ZTIN4llvm7AlignOfINS_18StringMapEntryBaseEE27$Alignment_LessEqual_8BytesE",
   "name" : "llvm::AlignOf<StringMapEntryBase>::(anonymous enum at external/llvm/include/llvm/Support/AlignOf.h:93:3)",
   "referenced_type" : "_ZTIN4llvm7AlignOfINS_18StringMapEntryBaseEE27$Alignment_LessEqual_8BytesE",
   "self_type" : "_ZTIN4llvm7AlignOfINS_18StringMapEntryBaseEE27$Alignment_LessEqual_8BytesE",
   "size" : 4,
   "source_file" : "external/llvm/include/llvm/Support/AlignOf.h",
   "underlying_type" : "_ZTIj"
  },
  {
   "alignment" : 4,
   "enum_fields" :
   [
    {
     "enum_field_value" : 1,
     "name" : "llvm::AlignOf<llvm::StringMapEntryBase>::Alignment_LessEqual_16Bytes"
    }
   ],
   "linker_set_key" : "_ZTIN4llvm7AlignOfINS_18StringMapEntryBaseEE28$Alignment_LessEqual_16BytesE",
   "name" : "llvm::AlignOf<StringMapEntryBase>::(anonymous enum at external/llvm/include/llvm/Support/AlignOf.h:94:3)",
   "referenced_type" : "_ZTIN4llvm7AlignOfINS_18StringMapEntryBaseEE28$Alignment_LessEqual_16BytesE",
   "self_type" : "_ZTIN4llvm7AlignOfINS_18StringMapEntryBaseEE28$Alignment_LessEqual_16BytesE",
   "size" : 4,
   "source_file" : "external/llvm/include/llvm/Support/AlignOf.h",
   "underlying_type" : "_ZTIj"
  },
  {
   "alignment" : 4,
   "enum_fields" :
   [
    {
     "enum_field_value" : 1,
     "name" : "llvm::AlignOf<llvm::StringMapEntryBase>::Alignment_GreaterEqual_2Bytes"
    }
   ],
   "linker_set_key" : "_ZTIN4llvm7AlignOfINS_18StringMapEntryBaseEE30$Alignment_GreaterEqual_2BytesE",
   "name" : "llvm::AlignOf<StringMapEntryBase>::(anonymous enum at external/llvm/include/llvm/Support/AlignOf.h:86:3)",
   "referenced_type" : "_ZTIN4llvm7AlignOfINS_18StringMapEntryBaseEE30$Alignment_GreaterEqual_2BytesE",
   "self_type" : "_ZTIN4llvm7AlignOfINS_18StringMapEntryBaseEE30$Alignment_GreaterEqual_2BytesE",
   "size" : 4,
   "source_file" : "external/llvm/include/llvm/Support/AlignOf.h",
   "underlying_type" : "_ZTIj"
  },
  {
   "alignment" : 4,
   "enum_fields" :
   [
    {
     "enum_field_value" : 1,
     "name" : "llvm::AlignOf<llvm::StringMapEntryBase>::Alignment_GreaterEqual_4Bytes"
    }
   ],
   "linker_set_key" : "_ZTIN4llvm7AlignOfINS_18StringMapEntryBaseEE30$Alignment_GreaterEqual_4BytesE",
   "name" : "llvm::AlignOf<StringMapEntryBase>::(anonymous enum at external/llvm/include/llvm/Support/AlignOf.h:87:3)",
   "referenced_type" : "_ZTIN4llvm7AlignOfINS_18StringMapEntryBaseEE30$Alignment_GreaterEqual_4BytesE",
   "self_type" : "_ZTIN4llvm7AlignOfINS_18StringMapEntryBaseEE30$Alignment_GreaterEqual_4BytesE",
   "size" : 4,
   "source_file" : "external/llvm/include/llvm/Support/AlignOf.h",
   "underlying_type" : "_ZTIj"
  },
  {
   "alignment" : 4,
   "enum_fields" :
   [
    {
     "enum_field_value" : 0,
     "name" : "llvm::AlignOf<llvm::StringMapEntryBase>::Alignment_GreaterEqual_8Bytes"
    }
   ],
   "linker_set_key" : "_ZTIN4llvm7AlignOfINS_18StringMapEntryBaseEE30$Alignment_GreaterEqual_8BytesE",
   "name" : "llvm::AlignOf<StringMapEntryBase>::(anonymous enum at external/llvm/include/llvm/Support/AlignOf.h:88:3)",
   "referenced_type" : "_ZTIN4llvm7AlignOfINS_18StringMapEntryBaseEE30$Alignment_GreaterEqual_8BytesE",
   "self_type" : "_ZTIN4llvm7AlignOfINS_18StringMapEntryBaseEE30$Alignment_GreaterEqual_8BytesE",
   "size" : 4,
   "source_file" : "external/llvm/include/llvm/Support/AlignOf.h",
   "underlying_type" : "_ZTIj"
  },
  {
   "alignment" : 4,
   "enum_fields" :
   [
    {
     "enum_field_value" : 0,
     "name" : "llvm::AlignOf<llvm::StringMapEntryBase>::Alignment_GreaterEqual_16Bytes"
    }
   ],
   "linker_set_key" : "_ZTIN4llvm7AlignOfINS_18StringMapEntryBaseEE31$Alignment_GreaterEqual_16BytesE",
   "name" : "llvm::AlignOf<StringMapEntryBase>::(anonymous enum at external/llvm/include/llvm/Support/AlignOf.h:89:3)",
   "referenced_type" : "_ZTIN4llvm7AlignOfINS_18StringMapEntryBaseEE31$Alignment_GreaterEqual_16BytesE",
   "self_type" : "_ZTIN4llvm7AlignOfINS_18StringMapEntryBaseEE31$Alignment_GreaterEqual_16BytesE",
   "size" : 4,
   "source_file" : "external/llvm/include/llvm/Support/AlignOf.h",
   "underlying_type" : "_ZTIj"
  },
  {
   "alignment" : 4,
   "enum_fields" :
   [
    {
     "enum_field_value" : 0,
     "name" : "llvm::AlignOf<llvm::detail::AlignerImpl<std::__1::pair<void *, unsigned int>, char, char, char, char, char, char, char, char, char>>::Alignment_LessEqual_2Bytes"
    }
   ],
   "linker_set_key" : "_ZTIN4llvm7AlignOfINS_6detail11AlignerImplINSt3__14pairIPvjEEcccccccccEEE27$Alignment_LessEqual_2BytesE",
   "name" : "llvm::AlignOf<AlignerImpl<pair<void *, unsigned int>, char, char, char, char, char, char, char, char, char>>::(anonymous enum at external/llvm/include/llvm/Support/AlignOf.h:91:3)",
   "referenced_type" : "_ZTIN4llvm7AlignOfINS_6detail11AlignerImplINSt3__14pairIPvjEEcccccccccEEE27$Alignment_LessEqual_2BytesE",
   "self_type" : "_ZTIN4llvm7AlignOfINS_6detail11AlignerImplINSt3__14pairIPvjEEcccccccccEEE27$Alignment_LessEqual_2BytesE",
   "size" : 4,
   "source_file" : "external/llvm/include/llvm/Support/AlignOf.h",
   "underlying_type" : "_ZTIj"
  },
  {
   "alignment" : 4,
   "enum_fields" :
   [
    {
     "enum_field_value" : 1,
     "name" : "llvm::AlignOf<llvm::detail::AlignerImpl<std::__1::pair<void *, unsigned int>, char, char, char, char, char, char, char, char, char>>::Alignment_LessEqual_4Bytes"
    }
   ],
   "linker_set_key" : "_ZTIN4llvm7AlignOfINS_6detail11AlignerImplINSt3__14pairIPvjEEcccccccccEEE27$Alignment_LessEqual_4BytesE",
   "name" : "llvm::AlignOf<AlignerImpl<pair<void *, unsigned int>, char, char, char, char, char, char, char, char, char>>::(anonymous enum at external/llvm/include/llvm/Support/AlignOf.h:92:3)",
   "referenced_type" : "_ZTIN4llvm7AlignOfINS_6detail11AlignerImplINSt3__14pairIPvjEEcccccccccEEE27$Alignment_LessEqual_4BytesE",
   "self_type" : "_ZTIN4llvm7AlignOfINS_6detail11AlignerImplINSt3__14pairIPvjEEcccccccccEEE27$Alignment_LessEqual_4BytesE",
   "size" : 4,
   "source_file" : "external/llvm/include/llvm/Support/AlignOf.h",
   "underlying_type" : "_ZTIj"
  },
  {
   "alignment" : 4,
   "enum_fields" :
   [
    {
     "enum_field_value" : 1,
     "name" : "llvm::AlignOf<llvm::detail::AlignerImpl<std::__1::pair<void *, unsigned int>, char, char, char, char, char, char, char, char, char>>::Alignment_LessEqual_8Bytes"
    }
   ],
   "linker_set_key" : "_ZTIN4llvm7AlignOfINS_6detail11AlignerImplINSt3__14pairIPvjEEcccccccccEEE27$Alignment_LessEqual_8BytesE",
   "name" : "llvm::AlignOf<AlignerImpl<pair<void *, unsigned int>, char, char, char, char, char, char, char, char, char>>::(anonymous enum at external/llvm/include/llvm/Support/AlignOf.h:93:3)",
   "referenced_type" : "_ZTIN4llvm7AlignOfINS_6detail11AlignerImplINSt3__14pairIPvjEEcccccccccEEE27$Alignment_LessEqual_8BytesE",
   "self_type" : "_ZTIN4llvm7AlignOfINS_6detail11AlignerImplINSt3__14pairIPvjEEcccccccccEEE27$Alignment_LessEqual_8BytesE",
   "size" : 4,
   "source_file" : "external/llvm/include/llvm/Support/AlignOf.h",
   "underlying_type" : "_ZTIj"
  },
  {
   "alignment" : 4,
   "enum_fields" :
   [
    {
     "enum_field_value" : 1,
     "name" : "llvm::AlignOf<llvm::detail::AlignerImpl<std::__1::pair<void *, unsigned int>, char, char, char, char, char, char, char, char, char>>::Alignment_LessEqual_16Bytes"
    }
   ],
   "linker_set_key" : "_ZTIN4llvm7AlignOfINS_6detail11AlignerImplINSt3__14pairIPvjEEcccccccccEEE28$Alignment_LessEqual_16BytesE",
   "name" : "llvm::AlignOf<AlignerImpl<pair<void *, unsigned int>, char, char, char, char, char, char, char, char, char>>::(anonymous enum at external/llvm/include/llvm/Support/AlignOf.h:94:3)",
   "referenced_type" : "_ZTIN4llvm7AlignOfINS_6detail11AlignerImplINSt3__14pairIPvjEEcccccccccEEE28$Alignment_LessEqual_16BytesE",
   "self_type" : "_ZTIN4llvm7AlignOfINS_6detail11AlignerImplINSt3__14pairIPvjEEcccccccccEEE28$Alignment_LessEqual_16BytesE",
   "size" : 4,
   "source_file" : "external/llvm/include/llvm/Support/AlignOf.h",
   "underlying_type" : "_ZTIj"
  },
  {
   "alignment" : 4,
   "enum_fields" :
   [
    {
     "enum_field_value" : 1,
     "name" : "llvm::AlignOf<llvm::detail::AlignerImpl<std::__1::pair<void *, unsigned int>, char, char, char, char, char, char, char, char, char>>::Alignment_GreaterEqual_2Bytes"
    }
   ],
   "linker_set_key" : "_ZTIN4llvm7AlignOfINS_6detail11AlignerImplINSt3__14pairIPvjEEcccccccccEEE30$Alignment_GreaterEqual_2BytesE",
   "name" : "llvm::AlignOf<AlignerImpl<pair<void *, unsigned int>, char, char, char, char, char, char, char, char, char>>::(anonymous enum at external/llvm/include/llvm/Support/AlignOf.h:86:3)",
   "referenced_type" : "_ZTIN4llvm7AlignOfINS_6detail11AlignerImplINSt3__14pairIPvjEEcccccccccEEE30$Alignment_GreaterEqual_2BytesE",
   "self_type" : "_ZTIN4llvm7AlignOfINS_6detail11AlignerImplINSt3__14pairIPvjEEcccccccccEEE30$Alignment_GreaterEqual_2BytesE",
   "size" : 4,
   "source_file" : "external/llvm/include/llvm/Support/AlignOf.h",
   "underlying_type" : "_ZTIj"
  },
  {
   "alignment" : 4,
   "enum_fields" :
   [
    {
     "enum_field_value" : 1,
     "name" : "llvm::AlignOf<llvm::detail::AlignerImpl<std::__1::pair<void *, unsigned int>, char, char, char, char, char, char, char, char, char>>::Alignment_GreaterEqual_4Bytes"
    }
   ],
   "linker_set_key" : "_ZTIN4llvm7AlignOfINS_6detail11AlignerImplINSt3__14pairIPvjEEcccccccccEEE30$Alignment_GreaterEqual_4BytesE",
   "name" : "llvm::AlignOf<AlignerImpl<pair<void *, unsigned int>, char, char, char, char, char, char, char, char, char>>::(anonymous enum at external/llvm/include/llvm/Support/AlignOf.h:87:3)",
   "referenced_type" : "_ZTIN4llvm7AlignOfINS_6detail11AlignerImplINSt3__14pairIPvjEEcccccccccEEE30$Alignment_GreaterEqual_4BytesE",
   "self_type" : "_ZTIN4llvm7AlignOfINS_6detail11AlignerImplINSt3__14pairIPvjEEcccccccccEEE30$Alignment_GreaterEqual_4BytesE",
   "size" : 4,
   "source_file" : "external/llvm/include/llvm/Support/AlignOf.h",
   "underlying_type" : "_ZTIj"
  },
  {
   "alignment" : 4,
   "enum_fields" :
   [
    {
     "enum_field_value" : 0,
     "name" : "llvm::AlignOf<llvm::detail::AlignerImpl<std::__1::pair<void *, unsigned int>, char, char, char, char, char, char, char, char, char>>::Alignment_GreaterEqual_8Bytes"
    }
   ],
   "linker_set_key" : "_ZTIN4llvm7AlignOfINS_6detail11AlignerImplINSt3__14pairIPvjEEcccccccccEEE30$Alignment_GreaterEqual_8BytesE",
   "name" : "llvm::AlignOf<AlignerImpl<pair<void *, unsigned int>, char, char, char, char, char, char, char, char, char>>::(anonymous enum at external/llvm/include/llvm/Support/AlignOf.h:88:3)",
   "referenced_type" : "_ZTIN4llvm7AlignOfINS_6detail11AlignerImplINSt3__14pairIPvjEEcccccccccEEE30$Alignment_GreaterEqual_8BytesE",
   "self_type" : "_ZTIN4llvm7AlignOfINS_6detail11AlignerImplINSt3__14pairIPvjEEcccccccccEEE30$Alignment_GreaterEqual_8BytesE",
   "size" : 4,
   "source_file" : "external/llvm/include/llvm/Support/AlignOf.h",
   "underlying_type" : "_ZTIj"
  },
  {
   "alignment" : 4,
   "enum_fields" :
   [
    {
     "enum_field_value" : 0,
     "name" : "llvm::AlignOf<llvm::detail::AlignerImpl<std::__1::pair<void *, unsigned int>, char, char, char, char, char, char, char, char, char>>::Alignment_GreaterEqual_16Bytes"
    }
   ],
   "linker_set_key" : "_ZTIN4llvm7AlignOfINS_6detail11AlignerImplINSt3__14pairIPvjEEcccccccccEEE31$Alignment_GreaterEqual_16BytesE",
   "name" : "llvm::AlignOf<AlignerImpl<pair<void *, unsigned int>, char, char, char, char, char, char, char, char, char>>::(anonymous enum at external/llvm/include/llvm/Support/AlignOf.h:89:3)",
   "referenced_type" : "_ZTIN4llvm7AlignOfINS_6detail11AlignerImplINSt3__14pairIPvjEEcccccccccEEE31$Alignment_GreaterEqual_16BytesE",
   "self_type" : "_ZTIN4llvm7AlignOfINS_6detail11AlignerImplINSt3__14pairIPvjEEcccccccccEEE31$Alignment_GreaterEqual_16BytesE",
   "size" : 4,
   "source_file" : "external/llvm/include/llvm/Support/AlignOf.h",
   "underlying_type" : "_ZTIj"
  },
  {
   "alignment" : 4,
   "enum_fields" :
   [
    {
     "enum_field_value" : 0,
     "name" : "llvm::AlignOf<llvm::detail::AlignerImpl<void *, char, char, char, char, char, char, char, char, char>>::Alignment_LessEqual_2Bytes"
    }
   ],
   "linker_set_key" : "_ZTIN4llvm7AlignOfINS_6detail11AlignerImplIPvcccccccccEEE27$Alignment_LessEqual_2BytesE",
   "name" : "llvm::AlignOf<AlignerImpl<void *, char, char, char, char, char, char, char, char, char>>::(anonymous enum at external/llvm/include/llvm/Support/AlignOf.h:91:3)",
   "referenced_type" : "_ZTIN4llvm7AlignOfINS_6detail11AlignerImplIPvcccccccccEEE27$Alignment_LessEqual_2BytesE",
   "self_type" : "_ZTIN4llvm7AlignOfINS_6detail11AlignerImplIPvcccccccccEEE27$Alignment_LessEqual_2BytesE",
   "size" : 4,
   "source_file" : "external/llvm/include/llvm/Support/AlignOf.h",
   "underlying_type" : "_ZTIj"
  },
  {
   "alignment" : 4,
   "enum_fields" :
   [
    {
     "enum_field_value" : 1,
     "name" : "llvm::AlignOf<llvm::detail::AlignerImpl<void *, char, char, char, char, char, char, char, char, char>>::Alignment_LessEqual_4Bytes"
    }
   ],
   "linker_set_key" : "_ZTIN4llvm7AlignOfINS_6detail11AlignerImplIPvcccccccccEEE27$Alignment_LessEqual_4BytesE",
   "name" : "llvm::AlignOf<AlignerImpl<void *, char, char, char, char, char, char, char, char, char>>::(anonymous enum at external/llvm/include/llvm/Support/AlignOf.h:92:3)",
   "referenced_type" : "_ZTIN4llvm7AlignOfINS_6detail11AlignerImplIPvcccccccccEEE27$Alignment_LessEqual_4BytesE",
   "self_type" : "_ZTIN4llvm7AlignOfINS_6detail11AlignerImplIPvcccccccccEEE27$Alignment_LessEqual_4BytesE",
   "size" : 4,
   "source_file" : "external/llvm/include/llvm/Support/AlignOf.h",
   "underlying_type" : "_ZTIj"
  },
  {
   "alignment" : 4,
   "enum_fields" :
   [
    {
     "enum_field_value" : 1,
     "name" : "llvm::AlignOf<llvm::detail::AlignerImpl<void *, char, char, char, char, char, char, char, char, char>>::Alignment_LessEqual_8Bytes"
    }
   ],
   "linker_set_key" : "_ZTIN4llvm7AlignOfINS_6detail11AlignerImplIPvcccccccccEEE27$Alignment_LessEqual_8BytesE",
   "name" : "llvm::AlignOf<AlignerImpl<void *, char, char, char, char, char, char, char, char, char>>::(anonymous enum at external/llvm/include/llvm/Support/AlignOf.h:93:3)",
   "referenced_type" : "_ZTIN4llvm7AlignOfINS_6detail11AlignerImplIPvcccccccccEEE27$Alignment_LessEqual_8BytesE",
   "self_type" : "_ZTIN4llvm7AlignOfINS_6detail11AlignerImplIPvcccccccccEEE27$Alignment_LessEqual_8BytesE",
   "size" : 4,
   "source_file" : "external/llvm/include/llvm/Support/AlignOf.h",
   "underlying_type" : "_ZTIj"
  },
  {
   "alignment" : 4,
   "enum_fields" :
   [
    {
     "enum_field_value" : 1,
     "name" : "llvm::AlignOf<llvm::detail::AlignerImpl<void *, char, char, char, char, char, char, char, char, char>>::Alignment_LessEqual_16Bytes"
    }
   ],
   "linker_set_key" : "_ZTIN4llvm7AlignOfINS_6detail11AlignerImplIPvcccccccccEEE28$Alignment_LessEqual_16BytesE",
   "name" : "llvm::AlignOf<AlignerImpl<void *, char, char, char, char, char, char, char, char, char>>::(anonymous enum at external/llvm/include/llvm/Support/AlignOf.h:94:3)",
   "referenced_type" : "_ZTIN4llvm7AlignOfINS_6detail11AlignerImplIPvcccccccccEEE28$Alignment_LessEqual_16BytesE",
   "self_type" : "_ZTIN4llvm7AlignOfINS_6detail11AlignerImplIPvcccccccccEEE28$Alignment_LessEqual_16BytesE",
   "size" : 4,
   "source_file" : "external/llvm/include/llvm/Support/AlignOf.h",
   "underlying_type" : "_ZTIj"
  },
  {
   "alignment" : 4,
   "enum_fields" :
   [
    {
     "enum_field_value" : 1,
     "name" : "llvm::AlignOf<llvm::detail::AlignerImpl<void *, char, char, char, char, char, char, char, char, char>>::Alignment_GreaterEqual_2Bytes"
    }
   ],
   "linker_set_key" : "_ZTIN4llvm7AlignOfINS_6detail11AlignerImplIPvcccccccccEEE30$Alignment_GreaterEqual_2BytesE",
   "name" : "llvm::AlignOf<AlignerImpl<void *, char, char, char, char, char, char, char, char, char>>::(anonymous enum at external/llvm/include/llvm/Support/AlignOf.h:86:3)",
   "referenced_type" : "_ZTIN4llvm7AlignOfINS_6detail11AlignerImplIPvcccccccccEEE30$Alignment_GreaterEqual_2BytesE",
   "self_type" : "_ZTIN4llvm7AlignOfINS_6detail11AlignerImplIPvcccccccccEEE30$Alignment_GreaterEqual_2BytesE",
   "size" : 4,
   "source_file" : "external/llvm/include/llvm/Support/AlignOf.h",
   "underlying_type" : "_ZTIj"
  },
  {
   "alignment" : 4,
   "enum_fields" :
   [
    {
     "enum_field_value" : 1,
     "name" : "llvm::AlignOf<llvm::detail::AlignerImpl<void *, char, char, char, char, char, char, char, char, char>>::Alignment_GreaterEqual_4Bytes"
    }
   ],
   "linker_set_key" : "_ZTIN4llvm7AlignOfINS_6detail11AlignerImplIPvcccccccccEEE30$Alignment_GreaterEqual_4BytesE",
   "name" : "llvm::AlignOf<AlignerImpl<void *, char, char, char, char, char, char, char, char, char>>::(anonymous enum at external/llvm/include/llvm/Support/AlignOf.h:87:3)",
   "referenced_type" : "_ZTIN4llvm7AlignOfINS_6detail11AlignerImplIPvcccccccccEEE30$Alignment_GreaterEqual_4BytesE",
   "self_type" : "_ZTIN4llvm7AlignOfINS_6detail11AlignerImplIPvcccccccccEEE30$Alignment_GreaterEqual_4BytesE",
   "size" : 4,
   "source_file" : "external/llvm/include/llvm/Support/AlignOf.h",
   "underlying_type" : "_ZTIj"
  },
  {
   "alignment" : 4,
   "enum_fields" :
   [
    {
     "enum_field_value" : 0,
     "name" : "llvm::AlignOf<llvm::detail::AlignerImpl<void *, char, char, char, char, char, char, char, char, char>>::Alignment_GreaterEqual_8Bytes"
    }
   ],
   "linker_set_key" : "_ZTIN4llvm7AlignOfINS_6detail11AlignerImplIPvcccccccccEEE30$Alignment_GreaterEqual_8BytesE",
   "name" : "llvm::AlignOf<AlignerImpl<void *, char, char, char, char, char, char, char, char, char>>::(anonymous enum at external/llvm/include/llvm/Support/AlignOf.h:88:3)",
   "referenced_type" : "_ZTIN4llvm7AlignOfINS_6detail11AlignerImplIPvcccccccccEEE30$Alignment_GreaterEqual_8BytesE",
   "self_type" : "_ZTIN4llvm7AlignOfINS_6detail11AlignerImplIPvcccccccccEEE30$Alignment_GreaterEqual_8BytesE",
   "size" : 4,
   "source_file" : "external/llvm/include/llvm/Support/AlignOf.h",
   "underlying_type" : "_ZTIj"
  },
  {
   "alignment" : 4,
   "enum_fields" :
   [
    {
     "enum_field_value" : 0,
     "name" : "llvm::AlignOf<llvm::detail::AlignerImpl<void *, char, char, char, char, char, char, char, char, char>>::Alignment_GreaterEqual_16Bytes"
    }
   ],
   "linker_set_key" : "_ZTIN4llvm7AlignOfINS_6detail11AlignerImplIPvcccccccccEEE31$Alignment_GreaterEqual_16BytesE",
   "name" : "llvm::AlignOf<AlignerImpl<void *, char, char, char, char, char, char, char, char, char>>::(anonymous enum at external/llvm/include/llvm/Support/AlignOf.h:89:3)",
   "referenced_type" : "_ZTIN4llvm7AlignOfINS_6detail11AlignerImplIPvcccccccccEEE31$Alignment_GreaterEqual_16BytesE",
   "self_type" : "_ZTIN4llvm7AlignOfINS_6detail11AlignerImplIPvcccccccccEEE31$Alignment_GreaterEqual_16BytesE",
   "size" : 4,
   "source_file" : "external/llvm/include/llvm/Support/AlignOf.h",
   "underlying_type" : "_ZTIj"
  },
  {
   "alignment" : 4,
   "enum_fields" :
   [
    {
     "enum_field_value" : 0,
     "name" : "llvm::NoneType::None"
    }
   ],
   "linker_set_key" : "_ZTIN4llvm8NoneTypeE",
   "name" : "llvm::NoneType",
   "referenced_type" : "_ZTIN4llvm8NoneTypeE",
   "self_type" : "_ZTIN4llvm8NoneTypeE",
   "size" : 4,
   "source_file" : "external/llvm/include/llvm/ADT/None.h",
   "underlying_type" : "_ZTIi"
  },
  {
   "access" : "private",
   "alignment" : 4,
   "enum_fields" :
   [
    {
     "enum_field_value" : 11,
     "name" : "std::__1::basic_string<char, std::__1::char_traits<char>, std::__1::allocator<char>>::__min_cap"
    }
   ],
   "linker_set_key" : "_ZTINSt3__112basic_stringIcNS_11char_traitsIcEENS_9allocatorIcEEE10$__min_capE",
   "name" : "std::basic_string<char>::(anonymous enum at external/libcxx/include/string:751:5)",
   "referenced_type" : "_ZTINSt3__112basic_stringIcNS_11char_traitsIcEENS_9allocatorIcEEE10$__min_capE",
   "self_type" : "_ZTINSt3__112basic_stringIcNS_11char_traitsIcEENS_9allocatorIcEEE10$__min_capE",
   "size" : 4,
   "source_file" : "external/libcxx/include/string",
   "underlying_type" : "_ZTIj"
  },
  {
   "access" : "private",
   "alignment" : 4,
   "enum_fields" :
   [
    {
     "enum_field_value" : 3,
     "name" : "std::__1::basic_string<char, std::__1::char_traits<char>, std::__1::allocator<char>>::__n_words"
    }
   ],
   "linker_set_key" : "_ZTINSt3__112basic_stringIcNS_11char_traitsIcEENS_9allocatorIcEEE10$__n_wordsE",
   "name" : "std::basic_string<char>::(anonymous enum at external/libcxx/include/string:768:5)",
   "referenced_type" : "_ZTINSt3__112basic_stringIcNS_11char_traitsIcEENS_9allocatorIcEEE10$__n_wordsE",
   "self_type" : "_ZTINSt3__112basic_stringIcNS_11char_traitsIcEENS_9allocatorIcEEE10$__n_wordsE",
   "size" : 4,
   "source_file" : "external/libcxx/include/string",
   "underlying_type" : "_ZTIj"
  },
  {
   "access" : "private",
   "alignment" : 4,
   "enum_fields" :
   [
    {
     "enum_field_value" : 16,
     "name" : "std::__1::basic_string<char, std::__1::char_traits<char>, std::__1::allocator<char>>::__alignment"
    }
   ],
   "linker_set_key" : "_ZTINSt3__112basic_stringIcNS_11char_traitsIcEENS_9allocatorIcEEE12$__alignmentE",
   "name" : "std::basic_string<char>::(anonymous enum at external/libcxx/include/string:1535:5)",
   "referenced_type" : "_ZTINSt3__112basic_stringIcNS_11char_traitsIcEENS_9allocatorIcEEE12$__alignmentE",
   "self_type" : "_ZTINSt3__112basic_stringIcNS_11char_traitsIcEENS_9allocatorIcEEE12$__alignmentE",
   "size" : 4,
   "source_file" : "external/libcxx/include/string",
   "underlying_type" : "_ZTIj"
  },
  {
   "access" : "private",
   "alignment" : 4,
   "enum_fields" :
   [
    {
     "enum_field_value" : 2,
     "name" : "std::__1::basic_string<wchar_t, std::__1::char_traits<wchar_t>, std::__1::allocator<wchar_t>>::__min_cap"
    }
   ],
   "linker_set_key" : "_ZTINSt3__112basic_stringIwNS_11char_traitsIwEENS_9allocatorIwEEE10$__min_capE",
   "name" : "std::basic_string<wchar_t>::(anonymous enum at external/libcxx/include/string:751:5)",
   "referenced_type" : "_ZTINSt3__112basic_stringIwNS_11char_traitsIwEENS_9allocatorIwEEE10$__min_capE",
   "self_type" : "_ZTINSt3__112basic_stringIwNS_11char_traitsIwEENS_9allocatorIwEEE10$__min_capE",
   "size" : 4,
   "source_file" : "external/libcxx/include/string",
   "underlying_type" : "_ZTIj"
  },
  {
   "access" : "private",
   "alignment" : 4,
   "enum_fields" :
   [
    {
     "enum_field_value" : 3,
     "name" : "std::__1::basic_string<wchar_t, std::__1::char_traits<wchar_t>, std::__1::allocator<wchar_t>>::__n_words"
    }
   ],
   "linker_set_key" : "_ZTINSt3__112basic_stringIwNS_11char_traitsIwEENS_9allocatorIwEEE10$__n_wordsE",
   "name" : "std::basic_string<wchar_t>::(anonymous enum at external/libcxx/include/string:768:5)",
   "referenced_type" : "_ZTINSt3__112basic_stringIwNS_11char_traitsIwEENS_9allocatorIwEEE10$__n_wordsE",
   "self_type" : "_ZTINSt3__112basic_stringIwNS_11char_traitsIwEENS_9allocatorIwEEE10$__n_wordsE",
   "size" : 4,
   "source_file" : "external/libcxx/include/string",
   "underlying_type" : "_ZTIj"
  },
  {
   "access" : "private",
   "alignment" : 4,
   "enum_fields" :
   [
    {
     "enum_field_value" : 16,
     "name" : "std::__1::basic_string<wchar_t, std::__1::char_traits<wchar_t>, std::__1::allocator<wchar_t>>::__alignment"
    }
   ],
   "linker_set_key" : "_ZTINSt3__112basic_stringIwNS_11char_traitsIwEENS_9allocatorIwEEE12$__alignmentE",
   "name" : "std::basic_string<wchar_t>::(anonymous enum at external/libcxx/include/string:1535:5)",
   "referenced_type" : "_ZTINSt3__112basic_stringIwNS_11char_traitsIwEENS_9allocatorIwEEE12$__alignmentE",
   "self_type" : "_ZTINSt3__112basic_stringIwNS_11char_traitsIwEENS_9allocatorIwEEE12$__alignmentE",
   "size" : 4,
   "source_file" : "external/libcxx/include/string",
   "underlying_type" : "_ZTIj"
  },
  {
   "alignment" : 4,
   "enum_fields" :
   [
    {
     "enum_field_value" : 0,
     "name" : "std::__1::memory_order_relaxed"
    },
    {
     "enum_field_value" : 1,
     "name" : "std::__1::memory_order_consume"
    },
    {
     "enum_field_value" : 2,
     "name" : "std::__1::memory_order_acquire"
    },
    {
     "enum_field_value" : 3,
     "name" : "std::__1::memory_order_release"
    },
    {
     "enum_field_value" : 4,
     "name" : "std::__1::memory_order_acq_rel"
    },
    {
     "enum_field_value" : 5,
     "name" : "std::__1::memory_order_seq_cst"
    }
   ],
   "linker_set_key" : "_ZTINSt3__112memory_orderE",
   "name" : "std::memory_order",
   "referenced_type" : "_ZTINSt3__112memory_orderE",
   "self_type" : "_ZTINSt3__112memory_orderE",
   "size" : 4,
   "source_file" : "external/libcxx/include/atomic",
   "underlying_type" : "_ZTIj"
  },
  {
   "alignment" : 4,
   "enum_fields" :
   [
    {
     "enum_field_value" : 0,
     "name" : "std::__1::pointer_safety::relaxed"
    },
    {
     "enum_field_value" : 1,
     "name" : "std::__1::pointer_safety::preferred"
    },
    {
     "enum_field_value" : 2,
     "name" : "std::__1::pointer_safety::strict"
    }
   ],
   "linker_set_key" : "_ZTINSt3__114pointer_safety4__lxE",
   "name" : "std::pointer_safety::__lx",
   "referenced_type" : "_ZTINSt3__114pointer_safety4__lxE",
   "self_type" : "_ZTINSt3__114pointer_safety4__lxE",
   "size" : 4,
   "source_file" : "external/libcxx/include/memory",
   "underlying_type" : "_ZTIj"
  },
  {
   "alignment" : 4,
   "enum_fields" :
   [
    {
     "enum_field_value" : -1,
     "name" : "std::__1::round_indeterminate"
    },
    {
     "enum_field_value" : 0,
     "name" : "std::__1::round_toward_zero"
    },
    {
     "enum_field_value" : 1,
     "name" : "std::__1::round_to_nearest"
    },
    {
     "enum_field_value" : 2,
     "name" : "std::__1::round_toward_infinity"
    },
    {
     "enum_field_value" : 3,
     "name" : "std::__1::round_toward_neg_infinity"
    }
   ],
   "linker_set_key" : "_ZTINSt3__117float_round_styleE",
   "name" : "std::float_round_style",
   "referenced_type" : "_ZTINSt3__117float_round_styleE",
   "self_type" : "_ZTINSt3__117float_round_styleE",
   "size" : 4,
   "source_file" : "external/libcxx/include/limits",
   "underlying_type" : "_ZTIi"
  },
  {
   "alignment" : 4,
   "enum_fields" :
   [
    {
     "enum_field_value" : -1,
     "name" : "std::__1::denorm_indeterminate"
    },
    {
     "enum_field_value" : 0,
     "name" : "std::__1::denorm_absent"
    },
    {
     "enum_field_value" : 1,
     "name" : "std::__1::denorm_present"
    }
   ],
   "linker_set_key" : "_ZTINSt3__118float_denorm_styleE",
   "name" : "std::float_denorm_style",
   "referenced_type" : "_ZTINSt3__118float_denorm_styleE",
   "self_type" : "_ZTINSt3__118float_denorm_styleE",
   "size" : 4,
   "source_file" : "external/libcxx/include/limits",
   "underlying_type" : "_ZTIi"
  },
  {
   "alignment" : 4,
   "enum_fields" :
   [
    {
     "enum_field_value" : 97,
     "name" : "std::__1::errc::address_family_not_supported"
    },
    {
     "enum_field_value" : 98,
     "name" : "std::__1::errc::address_in_use"
    },
    {
     "enum_field_value" : 99,
     "name" : "std::__1::errc::address_not_available"
    },
    {
     "enum_field_value" : 106,
     "name" : "std::__1::errc::already_connected"
    },
    {
     "enum_field_value" : 7,
     "name" : "std::__1::errc::argument_list_too_long"
    },
    {
     "enum_field_value" : 33,
     "name" : "std::__1::errc::argument_out_of_domain"
    },
    {
     "enum_field_value" : 14,
     "name" : "std::__1::errc::bad_address"
    },
    {
     "enum_field_value" : 9,
     "name" : "std::__1::errc::bad_file_descriptor"
    },
    {
     "enum_field_value" : 74,
     "name" : "std::__1::errc::bad_message"
    },
    {
     "enum_field_value" : 32,
     "name" : "std::__1::errc::broken_pipe"
    },
    {
     "enum_field_value" : 103,
     "name" : "std::__1::errc::connection_aborted"
    },
    {
     "enum_field_value" : 114,
     "name" : "std::__1::errc::connection_already_in_progress"
    },
    {
     "enum_field_value" : 111,
     "name" : "std::__1::errc::connection_refused"
    },
    {
     "enum_field_value" : 104,
     "name" : "std::__1::errc::connection_reset"
    },
    {
     "enum_field_value" : 18,
     "name" : "std::__1::errc::cross_device_link"
    },
    {
     "enum_field_value" : 89,
     "name" : "std::__1::errc::destination_address_required"
    },
    {
     "enum_field_value" : 16,
     "name" : "std::__1::errc::device_or_resource_busy"
    },
    {
     "enum_field_value" : 39,
     "name" : "std::__1::errc::directory_not_empty"
    },
    {
     "enum_field_value" : 8,
     "name" : "std::__1::errc::executable_format_error"
    },
    {
     "enum_field_value" : 17,
     "name" : "std::__1::errc::file_exists"
    },
    {
     "enum_field_value" : 27,
     "name" : "std::__1::errc::file_too_large"
    },
    {
     "enum_field_value" : 36,
     "name" : "std::__1::errc::filename_too_long"
    },
    {
     "enum_field_value" : 38,
     "name" : "std::__1::errc::function_not_supported"
    },
    {
     "enum_field_value" : 113,
     "name" : "std::__1::errc::host_unreachable"
    },
    {
     "enum_field_value" : 43,
     "name" : "std::__1::errc::identifier_removed"
    },
    {
     "enum_field_value" : 84,
     "name" : "std::__1::errc::illegal_byte_sequence"
    },
    {
     "enum_field_value" : 25,
     "name" : "std::__1::errc::inappropriate_io_control_operation"
    },
    {
     "enum_field_value" : 4,
     "name" : "std::__1::errc::interrupted"
    },
    {
     "enum_field_value" : 22,
     "name" : "std::__1::errc::invalid_argument"
    },
    {
     "enum_field_value" : 29,
     "name" : "std::__1::errc::invalid_seek"
    },
    {
     "enum_field_value" : 5,
     "name" : "std::__1::errc::io_error"
    },
    {
     "enum_field_value" : 21,
     "name" : "std::__1::errc::is_a_directory"
    },
    {
     "enum_field_value" : 90,
     "name" : "std::__1::errc::message_size"
    },
    {
     "enum_field_value" : 100,
     "name" : "std::__1::errc::network_down"
    },
    {
     "enum_field_value" : 102,
     "name" : "std::__1::errc::network_reset"
    },
    {
     "enum_field_value" : 101,
     "name" : "std::__1::errc::network_unreachable"
    },
    {
     "enum_field_value" : 105,
     "name" : "std::__1::errc::no_buffer_space"
    },
    {
     "enum_field_value" : 10,
     "name" : "std::__1::errc::no_child_process"
    },
    {
     "enum_field_value" : 67,
     "name" : "std::__1::errc::no_link"
    },
    {
     "enum_field_value" : 37,
     "name" : "std::__1::errc::no_lock_available"
    },
    {
     "enum_field_value" : 61,
     "name" : "std::__1::errc::no_message_available"
    },
    {
     "enum_field_value" : 42,
     "name" : "std::__1::errc::no_message"
    },
    {
     "enum_field_value" : 92,
     "name" : "std::__1::errc::no_protocol_option"
    },
    {
     "enum_field_value" : 28,
     "name" : "std::__1::errc::no_space_on_device"
    },
    {
     "enum_field_value" : 63,
     "name" : "std::__1::errc::no_stream_resources"
    },
    {
     "enum_field_value" : 6,
     "name" : "std::__1::errc::no_such_device_or_address"
    },
    {
     "enum_field_value" : 19,
     "name" : "std::__1::errc::no_such_device"
    },
    {
     "enum_field_value" : 2,
     "name" : "std::__1::errc::no_such_file_or_directory"
    },
    {
     "enum_field_value" : 3,
     "name" : "std::__1::errc::no_such_process"
    },
    {
     "enum_field_value" : 20,
     "name" : "std::__1::errc::not_a_directory"
    },
    {
     "enum_field_value" : 88,
     "name" : "std::__1::errc::not_a_socket"
    },
    {
     "enum_field_value" : 60,
     "name" : "std::__1::errc::not_a_stream"
    },
    {
     "enum_field_value" : 107,
     "name" : "std::__1::errc::not_connected"
    },
    {
     "enum_field_value" : 12,
     "name" : "std::__1::errc::not_enough_memory"
    },
    {
     "enum_field_value" : 95,
     "name" : "std::__1::errc::not_supported"
    },
    {
     "enum_field_value" : 125,
     "name" : "std::__1::errc::operation_canceled"
    },
    {
     "enum_field_value" : 115,
     "name" : "std::__1::errc::operation_in_progress"
    },
    {
     "enum_field_value" : 1,
     "name" : "std::__1::errc::operation_not_permitted"
    },
    {
     "enum_field_value" : 95,
     "name" : "std::__1::errc::operation_not_supported"
    },
    {
     "enum_field_value" : 11,
     "name" : "std::__1::errc::operation_would_block"
    },
    {
     "enum_field_value" : 130,
     "name" : "std::__1::errc::owner_dead"
    },
    {
     "enum_field_value" : 13,
     "name" : "std::__1::errc::permission_denied"
    },
    {
     "enum_field_value" : 71,
     "name" : "std::__1::errc::protocol_error"
    },
    {
     "enum_field_value" : 93,
     "name" : "std::__1::errc::protocol_not_supported"
    },
    {
     "enum_field_value" : 30,
     "name" : "std::__1::errc::read_only_file_system"
    },
    {
     "enum_field_value" : 35,
     "name" : "std::__1::errc::resource_deadlock_would_occur"
    },
    {
     "enum_field_value" : 11,
     "name" : "std::__1::errc::resource_unavailable_try_again"
    },
    {
     "enum_field_value" : 34,
     "name" : "std::__1::errc::result_out_of_range"
    },
    {
     "enum_field_value" : 131,
     "name" : "std::__1::errc::state_not_recoverable"
    },
    {
     "enum_field_value" : 62,
     "name" : "std::__1::errc::stream_timeout"
    },
    {
     "enum_field_value" : 26,
     "name" : "std::__1::errc::text_file_busy"
    },
    {
     "enum_field_value" : 110,
     "name" : "std::__1::errc::timed_out"
    },
    {
     "enum_field_value" : 23,
     "name" : "std::__1::errc::too_many_files_open_in_system"
    },
    {
     "enum_field_value" : 24,
     "name" : "std::__1::errc::too_many_files_open"
    },
    {
     "enum_field_value" : 31,
     "name" : "std::__1::errc::too_many_links"
    },
    {
     "enum_field_value" : 40,
     "name" : "std::__1::errc::too_many_symbolic_link_levels"
    },
    {
     "enum_field_value" : 75,
     "name" : "std::__1::errc::value_too_large"
    },
    {
     "enum_field_value" : 91,
     "name" : "std::__1::errc::wrong_protocol_type"
    }
   ],
   "linker_set_key" : "_ZTINSt3__14errcE",
   "name" : "std::errc",
   "referenced_type" : "_ZTINSt3__14errcE",
   "self_type" : "_ZTINSt3__14errcE",
   "size" : 4,
   "source_file" : "external/libcxx/include/__errc",
   "underlying_type" : "_ZTIi"
  },
  {
   "alignment" : 4,
   "linker_set_key" : "_ZTISt11align_val_t",
   "name" : "std::align_val_t",
   "referenced_type" : "_ZTISt11align_val_t",
   "self_type" : "_ZTISt11align_val_t",
   "size" : 4,
   "source_file" : "external/libcxx/include/new",
   "underlying_type" : "_ZTIj"
  }
 ],
 "function_types" :
 [
  {
   "alignment" : 4,
   "linker_set_key" : "_ZTIFPvPKvE",
   "name" : "void *(const void *)",
   "parameters" :
   [
    {
     "referenced_type" : "_ZTIPKv"
    }
   ],
   "referenced_type" : "_ZTIFPvPKvE",
   "return_type" : "_ZTIPv",
   "self_type" : "_ZTIFPvPKvE",
   "source_file" : "external/libcxx/include/functional"
  },
  {
   "alignment" : 4,
   "linker_set_key" : "_ZTIFPvS_jPKvE",
   "name" : "void *(void *, unsigned int, const void *)",
   "parameters" :
   [
    {
     "referenced_type" : "_ZTIPv"
    },
    {
     "referenced_type" : "_ZTIj"
    },
    {
     "referenced_type" : "_ZTIPKv"
    }
   ],
   "referenced_type" : "_ZTIFPvS_jPKvE",
   "return_type" : "_ZTIPv",
   "self_type" : "_ZTIFPvS_jPKvE",
   "source_file" : "out/soong/.intermediates/bionic/libc/libc/android_vendor.32_arm_armv8-a_shared/gen/include/malloc.h"
  },
  {
   "alignment" : 4,
   "linker_set_key" : "_ZTIFPvjPKvE",
   "name" : "void *(unsigned int, const void *)",
   "parameters" :
   [
    {
     "referenced_type" : "_ZTIj"
    },
    {
     "referenced_type" : "_ZTIPKv"
    }
   ],
   "referenced_type" : "_ZTIFPvjPKvE",
   "return_type" : "_ZTIPv",
   "self_type" : "_ZTIFPvjPKvE",
   "source_file" : "out/soong/.intermediates/bionic/libc/libc/android_vendor.32_arm_armv8-a_shared/gen/include/malloc.h"
  },
  {
   "alignment" : 4,
   "linker_set_key" : "_ZTIFPvjjPKvE",
   "name" : "void *(unsigned int, unsigned int, const void *)",
   "parameters" :
   [
    {
     "referenced_type" : "_ZTIj"
    },
    {
     "referenced_type" : "_ZTIj"
    },
    {
     "referenced_type" : "_ZTIPKv"
    }
   ],
   "referenced_type" : "_ZTIFPvjjPKvE",
   "return_type" : "_ZTIPv",
   "self_type" : "_ZTIFPvjjPKvE",
   "source_file" : "out/soong/.intermediates/bionic/libc/libc/android_vendor.32_arm_armv8-a_shared/gen/include/malloc.h"
  },
  {
   "alignment" : 4,
   "linker_set_key" : "_ZTIFv6sigvalE",
   "name" : "void (sigval)",
   "parameters" :
   [
    {
     "referenced_type" : "_ZTI6sigval"
    }
   ],
   "referenced_type" : "_ZTIFv6sigvalE",
   "return_type" : "_ZTIv",
   "self_type" : "_ZTIFv6sigvalE",
   "source_file" : "bionic/libc/kernel/uapi/asm-generic/siginfo.h"
  },
  {
   "alignment" : 4,
   "linker_set_key" : "_ZTIFvPvE",
   "name" : "void (void *)",
   "parameters" :
   [
    {
     "referenced_type" : "_ZTIPv"
    }
   ],
   "referenced_type" : "_ZTIFvPvE",
   "return_type" : "_ZTIv",
   "self_type" : "_ZTIFvPvE",
   "source_file" : "external/libcxx/include/functional"
  },
  {
   "alignment" : 4,
   "linker_set_key" : "_ZTIFvPvPKvE",
   "name" : "void (void *, const void *)",
   "parameters" :
   [
    {
     "referenced_type" : "_ZTIPv"
    },
    {
     "referenced_type" : "_ZTIPKv"
    }
   ],
   "referenced_type" : "_ZTIFvPvPKvE",
   "return_type" : "_ZTIv",
   "self_type" : "_ZTIFvPvPKvE",
   "source_file" : "out/soong/.intermediates/bionic/libc/libc/android_vendor.32_arm_armv8-a_shared/gen/include/malloc.h"
  },
  {
   "alignment" : 4,
   "linker_set_key" : "_ZTIFvRKNSt3__119__libcpp_debug_infoEE",
   "name" : "void (const std::__1::__libcpp_debug_info &)",
   "parameters" :
   [
    {
     "referenced_type" : "_ZTIRKNSt3__119__libcpp_debug_infoE"
    }
   ],
   "referenced_type" : "_ZTIFvRKNSt3__119__libcpp_debug_infoEE",
   "return_type" : "_ZTIv",
   "self_type" : "_ZTIFvRKNSt3__119__libcpp_debug_infoEE",
   "source_file" : "external/libcxx/include/__debug"
  },
  {
   "alignment" : 4,
   "linker_set_key" : "_ZTIFviE",
   "name" : "void (int)",
   "parameters" :
   [
    {
     "referenced_type" : "_ZTIi"
    }
   ],
   "referenced_type" : "_ZTIFviE",
   "return_type" : "_ZTIv",
   "self_type" : "_ZTIFviE",
   "source_file" : "bionic/libc/kernel/uapi/asm-arm/asm/signal.h"
  },
  {
   "alignment" : 4,
   "linker_set_key" : "_ZTIFviP7siginfoPvE",
   "name" : "void (int, siginfo *, void *)",
   "parameters" :
   [
    {
     "referenced_type" : "_ZTIi"
    },
    {
     "referenced_type" : "_ZTIP7siginfo"
    },
    {
     "referenced_type" : "_ZTIPv"
    }
   ],
   "referenced_type" : "_ZTIFviP7siginfoPvE",
   "return_type" : "_ZTIv",
   "self_type" : "_ZTIFviP7siginfoPvE",
   "source_file" : "bionic/libc/kernel/uapi/asm-arm/asm/signal.h"
  },
  {
   "alignment" : 4,
   "linker_set_key" : "_ZTIFvvE",
   "name" : "void ()",
   "referenced_type" : "_ZTIFvvE",
   "return_type" : "_ZTIv",
   "self_type" : "_ZTIFvvE",
   "source_file" : "bionic/libc/kernel/uapi/asm-arm/asm/signal.h"
  }
 ],
 "functions" :
 [
  {
   "function_name" : "nexttoward",
   "linker_set_key" : "_Z10nexttowardee",
   "parameters" :
   [
    {
     "referenced_type" : "_ZTIe"
    },
    {
     "referenced_type" : "_ZTIe"
    }
   ],
   "return_type" : "_ZTIe",
   "source_file" : "external/libcxx/include/math.h"
  },
  {
   "function_name" : "nexttoward",
   "linker_set_key" : "_Z10nexttowardfe",
   "parameters" :
   [
    {
     "referenced_type" : "_ZTIf"
    },
    {
     "referenced_type" : "_ZTIe"
    }
   ],
   "return_type" : "_ZTIf",
   "source_file" : "external/libcxx/include/math.h"
  },
  {
   "function_name" : "__libcpp_isinf",
   "linker_set_key" : "_Z14__libcpp_isinfIdEbT_",
   "parameters" :
   [
    {
     "referenced_type" : "_ZTId"
    }
   ],
   "return_type" : "_ZTIb",
   "source_file" : "external/libcxx/include/math.h",
   "template_args" : [ "_ZTId" ]
  },
  {
   "function_name" : "__libcpp_isinf",
   "linker_set_key" : "_Z14__libcpp_isinfIeEbT_",
   "parameters" :
   [
    {
     "referenced_type" : "_ZTIe"
    }
   ],
   "return_type" : "_ZTIb",
   "source_file" : "external/libcxx/include/math.h",
   "template_args" : [ "_ZTIe" ]
  },
  {
   "function_name" : "__libcpp_isinf",
   "linker_set_key" : "_Z14__libcpp_isinfIfEbT_",
   "parameters" :
   [
    {
     "referenced_type" : "_ZTIf"
    }
   ],
   "return_type" : "_ZTIb",
   "source_file" : "external/libcxx/include/math.h",
   "template_args" : [ "_ZTIf" ]
  },
  {
   "function_name" : "__libcpp_isnan",
   "linker_set_key" : "_Z14__libcpp_isnanIdEbT_",
   "parameters" :
   [
    {
     "referenced_type" : "_ZTId"
    }
   ],
   "return_type" : "_ZTIb",
   "source_file" : "external/libcxx/include/math.h",
   "template_args" : [ "_ZTId" ]
  },
  {
   "function_name" : "__libcpp_isnan",
   "linker_set_key" : "_Z14__libcpp_isnanIeEbT_",
   "parameters" :
   [
    {
     "referenced_type" : "_ZTIe"
    }
   ],
   "return_type" : "_ZTIb",
   "source_file" : "external/libcxx/include/math.h",
   "template_args" : [ "_ZTIe" ]
  },
  {
   "function_name" : "__libcpp_isnan",
   "linker_set_key" : "_Z14__libcpp_isnanIfEbT_",
   "parameters" :
   [
    {
     "referenced_type" : "_ZTIf"
    }
   ],
   "return_type" : "_ZTIb",
   "source_file" : "external/libcxx/include/math.h",
   "template_args" : [ "_ZTIf" ]
  },
  {
   "function_name" : "__bionic_memchr",
   "linker_set_key" : "_Z15__bionic_memchrPKvU17pass_object_size1ij",
   "parameters" :
   [
    {
     "referenced_type" : "_ZTIKPKv"
    },
    {
     "referenced_type" : "_ZTIi"
    },
    {
     "referenced_type" : "_ZTIj"
    }
   ],
   "return_type" : "_ZTIPv",
   "source_file" : "out/soong/.intermediates/bionic/libc/libc/android_vendor.32_arm_armv8-a_shared/gen/include/string.h"
  },
  {
   "function_name" : "__bionic_strchr",
   "linker_set_key" : "_Z15__bionic_strchrPKcU17pass_object_size1i",
   "parameters" :
   [
    {
     "referenced_type" : "_ZTIKPKc"
    },
    {
     "referenced_type" : "_ZTIi"
    }
   ],
   "return_type" : "_ZTIPc",
   "source_file" : "out/soong/.intermediates/bionic/libc/libc/android_vendor.32_arm_armv8-a_shared/gen/include/string.h"
  },
  {
   "function_name" : "__bionic_strstr",
   "linker_set_key" : "_Z15__bionic_strstrPKcS0_",
   "parameters" :
   [
    {
     "referenced_type" : "_ZTIPKc"
    },
    {
     "referenced_type" : "_ZTIPKc"
    }
   ],
   "return_type" : "_ZTIPc",
   "source_file" : "out/soong/.intermediates/bionic/libc/libc/android_vendor.32_arm_armv8-a_shared/gen/include/string.h"
  },
  {
   "function_name" : "__libcpp_memchr",
   "linker_set_key" : "_Z15__libcpp_memchrPKvij",
   "parameters" :
   [
    {
     "referenced_type" : "_ZTIPKv"
    },
    {
     "referenced_type" : "_ZTIi"
    },
    {
     "referenced_type" : "_ZTIj"
    }
   ],
   "return_type" : "_ZTIPv",
   "source_file" : "external/libcxx/include/string.h"
  },
  {
   "function_name" : "__libcpp_strchr",
   "linker_set_key" : "_Z15__libcpp_strchrPKci",
   "parameters" :
   [
    {
     "referenced_type" : "_ZTIPKc"
    },
    {
     "referenced_type" : "_ZTIi"
    }
   ],
   "return_type" : "_ZTIPc",
   "source_file" : "external/libcxx/include/string.h"
  },
  {
   "function_name" : "__libcpp_strstr",
   "linker_set_key" : "_Z15__libcpp_strstrPKcS0_",
   "parameters" :
   [
    {
     "referenced_type" : "_ZTIPKc"
    },
    {
     "referenced_type" : "_ZTIPKc"
    }
   ],
   "return_type" : "_ZTIPc",
   "source_file" : "external/libcxx/include/string.h"
  },
  {
   "function_name" : "__libcpp_wcschr",
   "linker_set_key" : "_Z15__libcpp_wcschrPKww",
   "parameters" :
   [
    {
     "referenced_type" : "_ZTIPKw"
    },
    {
     "referenced_type" : "_ZTIw"
    }
   ],
   "return_type" : "_ZTIPw",
   "source_file" : "external/libcxx/include/wchar.h"
  },
  {
   "function_name" : "__libcpp_wcsstr",
   "linker_set_key" : "_Z15__libcpp_wcsstrPKwS0_",
   "parameters" :
   [
    {
     "referenced_type" : "_ZTIPKw"
    },
    {
     "referenced_type" : "_ZTIPKw"
    }
   ],
   "return_type" : "_ZTIPw",
   "source_file" : "external/libcxx/include/wchar.h"
  },
  {
   "function_name" : "__bionic_strpbrk",
   "linker_set_key" : "_Z16__bionic_strpbrkPKcS0_",
   "parameters" :
   [
    {
     "referenced_type" : "_ZTIPKc"
    },
    {
     "referenced_type" : "_ZTIPKc"
    }
   ],
   "return_type" : "_ZTIPc",
   "source_file" : "out/soong/.intermediates/bionic/libc/libc/android_vendor.32_arm_armv8-a_shared/gen/include/string.h"
  },
  {
   "function_name" : "__bionic_strrchr",
   "linker_set_key" : "_Z16__bionic_strrchrPKcU17pass_object_size1i",
   "parameters" :
   [
    {
     "referenced_type" : "_ZTIKPKc"
    },
    {
     "referenced_type" : "_ZTIi"
    }
   ],
   "return_type" : "_ZTIPc",
   "source_file" : "out/soong/.intermediates/bionic/libc/libc/android_vendor.32_arm_armv8-a_shared/gen/include/string.h"
  },
  {
   "function_name" : "__libcpp_strpbrk",
   "linker_set_key" : "_Z16__libcpp_strpbrkPKcS0_",
   "parameters" :
   [
    {
     "referenced_type" : "_ZTIPKc"
    },
    {
     "referenced_type" : "_ZTIPKc"
    }
   ],
   "return_type" : "_ZTIPc",
   "source_file" : "external/libcxx/include/string.h"
  },
  {
   "function_name" : "__libcpp_strrchr",
   "linker_set_key" : "_Z16__libcpp_strrchrPKci",
   "parameters" :
   [
    {
     "referenced_type" : "_ZTIPKc"
    },
    {
     "referenced_type" : "_ZTIi"
    }
   ],
   "return_type" : "_ZTIPc",
   "source_file" : "external/libcxx/include/string.h"
  },
  {
   "function_name" : "__libcpp_wcspbrk",
   "linker_set_key" : "_Z16__libcpp_wcspbrkPKwS0_",
   "parameters" :
   [
    {
     "referenced_type" : "_ZTIPKw"
    },
    {
     "referenced_type" : "_ZTIPKw"
    }
   ],
   "return_type" : "_ZTIPw",
   "source_file" : "external/libcxx/include/wchar.h"
  },
  {
   "function_name" : "__libcpp_wcsrchr",
   "linker_set_key" : "_Z16__libcpp_wcsrchrPKww",
   "parameters" :
   [
    {
     "referenced_type" : "_ZTIPKw"
    },
    {
     "referenced_type" : "_ZTIw"
    }
   ],
   "return_type" : "_ZTIPw",
   "source_file" : "external/libcxx/include/wchar.h"
  },
  {
   "function_name" : "__libcpp_wmemchr",
   "linker_set_key" : "_Z16__libcpp_wmemchrPKwwj",
   "parameters" :
   [
    {
     "referenced_type" : "_ZTIPKw"
    },
    {
     "referenced_type" : "_ZTIw"
    },
    {
     "referenced_type" : "_ZTIj"
    }
   ],
   "return_type" : "_ZTIPw",
   "source_file" : "external/libcxx/include/wchar.h"
  },
  {
   "function_name" : "abs",
   "linker_set_key" : "_Z3absd",
   "parameters" :
   [
    {
     "referenced_type" : "_ZTId"
    }
   ],
   "return_type" : "_ZTId",
   "source_file" : "external/libcxx/include/math.h"
  },
  {
   "function_name" : "abs",
   "linker_set_key" : "_Z3abse",
   "parameters" :
   [
    {
     "referenced_type" : "_ZTIe"
    }
   ],
   "return_type" : "_ZTIe",
   "source_file" : "external/libcxx/include/math.h"
  },
  {
   "function_name" : "abs",
   "linker_set_key" : "_Z3absf",
   "parameters" :
   [
    {
     "referenced_type" : "_ZTIf"
    }
   ],
   "return_type" : "_ZTIf",
   "source_file" : "external/libcxx/include/math.h"
  },
  {
   "function_name" : "abs",
   "linker_set_key" : "_Z3absl",
   "parameters" :
   [
    {
     "referenced_type" : "_ZTIl"
    }
   ],
   "return_type" : "_ZTIl",
   "source_file" : "external/libcxx/include/stdlib.h"
  },
  {
   "function_name" : "abs",
   "linker_set_key" : "_Z3absx",
   "parameters" :
   [
    {
     "referenced_type" : "_ZTIx"
    }
   ],
   "return_type" : "_ZTIx",
   "source_file" : "external/libcxx/include/stdlib.h"
  },
  {
   "function_name" : "cos",
   "linker_set_key" : "_Z3cose",
   "parameters" :
   [
    {
     "referenced_type" : "_ZTIe"
    }
   ],
   "return_type" : "_ZTIe",
   "source_file" : "external/libcxx/include/math.h"
  },
  {
   "function_name" : "cos",
   "linker_set_key" : "_Z3cosf",
   "parameters" :
   [
    {
     "referenced_type" : "_ZTIf"
    }
   ],
   "return_type" : "_ZTIf",
   "source_file" : "external/libcxx/include/math.h"
  },
  {
   "function_name" : "div",
   "linker_set_key" : "_Z3divll",
   "parameters" :
   [
    {
     "referenced_type" : "_ZTIl"
    },
    {
     "referenced_type" : "_ZTIl"
    }
   ],
   "return_type" : "_ZTI6ldiv_t",
   "source_file" : "external/libcxx/include/stdlib.h"
  },
  {
   "function_name" : "div",
   "linker_set_key" : "_Z3divxx",
   "parameters" :
   [
    {
     "referenced_type" : "_ZTIx"
    },
    {
     "referenced_type" : "_ZTIx"
    }
   ],
   "return_type" : "_ZTI7lldiv_t",
   "source_file" : "external/libcxx/include/stdlib.h"
  },
  {
   "function_name" : "erf",
   "linker_set_key" : "_Z3erfe",
   "parameters" :
   [
    {
     "referenced_type" : "_ZTIe"
    }
   ],
   "return_type" : "_ZTIe",
   "source_file" : "external/libcxx/include/math.h"
  },
  {
   "function_name" : "erf",
   "linker_set_key" : "_Z3erff",
   "parameters" :
   [
    {
     "referenced_type" : "_ZTIf"
    }
   ],
   "return_type" : "_ZTIf",
   "source_file" : "external/libcxx/include/math.h"
  },
  {
   "function_name" : "exp",
   "linker_set_key" : "_Z3expe",
   "parameters" :
   [
    {
     "referenced_type" : "_ZTIe"
    }
   ],
   "return_type" : "_ZTIe",
   "source_file" : "external/libcxx/include/math.h"
  },
  {
   "function_name" : "exp",
   "linker_set_key" : "_Z3expf",
   "parameters" :
   [
    {
     "referenced_type" : "_ZTIf"
    }
   ],
   "return_type" : "_ZTIf",
   "source_file" : "external/libcxx/include/math.h"
  },
  {
   "function_name" : "fma",
   "linker_set_key" : "_Z3fmaeee",
   "parameters" :
   [
    {
     "referenced_type" : "_ZTIe"
    },
    {
     "referenced_type" : "_ZTIe"
    },
    {
     "referenced_type" : "_ZTIe"
    }
   ],
   "return_type" : "_ZTIe",
   "source_file" : "external/libcxx/include/math.h"
  },
  {
   "function_name" : "fma",
   "linker_set_key" : "_Z3fmafff",
   "parameters" :
   [
    {
     "referenced_type" : "_ZTIf"
    },
    {
     "referenced_type" : "_ZTIf"
    },
    {
     "referenced_type" : "_ZTIf"
    }
   ],
   "return_type" : "_ZTIf",
   "source_file" : "external/libcxx/include/math.h"
  },
  {
   "function_name" : "log",
   "linker_set_key" : "_Z3loge",
   "parameters" :
   [
    {
     "referenced_type" : "_ZTIe"
    }
   ],
   "return_type" : "_ZTIe",
   "source_file" : "external/libcxx/include/math.h"
  },
  {
   "function_name" : "log",
   "linker_set_key" : "_Z3logf",
   "parameters" :
   [
    {
     "referenced_type" : "_ZTIf"
    }
   ],
   "return_type" : "_ZTIf",
   "source_file" : "external/libcxx/include/math.h"
  },
  {
   "function_name" : "pow",
   "linker_set_key" : "_Z3powee",
   "parameters" :
   [
    {
     "referenced_type" : "_ZTIe"
    },
    {
     "referenced_type" : "_ZTIe"
    }
   ],
   "return_type" : "_ZTIe",
   "source_file" : "external/libcxx/include/math.h"
  },
  {
   "function_name" : "pow",
   "linker_set_key" : "_Z3powff",
   "parameters" :
   [
    {
     "referenced_type" : "_ZTIf"
    },
    {
     "referenced_type" : "_ZTIf"
    }
   ],
   "return_type" : "_ZTIf",
   "source_file" : "external/libcxx/include/math.h"
  },
  {
   "function_name" : "sin",
   "linker_set_key" : "_Z3sine",
   "parameters" :
   [
    {
     "referenced_type" : "_ZTIe"
    }
   ],
   "return_type" : "_ZTIe",
   "source_file" : "external/libcxx/include/math.h"
  },
  {
   "function_name" : "sin",
   "linker_set_key" : "_Z3sinf",
   "parameters" :
   [
    {
     "referenced_type" : "_ZTIf"
    }
   ],
   "return_type" : "_ZTIf",
   "source_file" : "external/libcxx/include/math.h"
  },
  {
   "function_name" : "tan",
   "linker_set_key" : "_Z3tane",
   "parameters" :
   [
    {
     "referenced_type" : "_ZTIe"
    }
   ],
   "return_type" : "_ZTIe",
   "source_file" : "external/libcxx/include/math.h"
  },
  {
   "function_name" : "tan",
   "linker_set_key" : "_Z3tanf",
   "parameters" :
   [
    {
     "referenced_type" : "_ZTIf"
    }
   ],
   "return_type" : "_ZTIf",
   "source_file" : "external/libcxx/include/math.h"
  },
  {
   "function_name" : "acos",
   "linker_set_key" : "_Z4acose",
   "parameters" :
   [
    {
     "referenced_type" : "_ZTIe"
    }
   ],
   "return_type" : "_ZTIe",
   "source_file" : "external/libcxx/include/math.h"
  },
  {
   "function_name" : "acos",
   "linker_set_key" : "_Z4acosf",
   "parameters" :
   [
    {
     "referenced_type" : "_ZTIf"
    }
   ],
   "return_type" : "_ZTIf",
   "source_file" : "external/libcxx/include/math.h"
  },
  {
   "function_name" : "asin",
   "linker_set_key" : "_Z4asine",
   "parameters" :
   [
    {
     "referenced_type" : "_ZTIe"
    }
   ],
   "return_type" : "_ZTIe",
   "source_file" : "external/libcxx/include/math.h"
  },
  {
   "function_name" : "asin",
   "linker_set_key" : "_Z4asinf",
   "parameters" :
   [
    {
     "referenced_type" : "_ZTIf"
    }
   ],
   "return_type" : "_ZTIf",
   "source_file" : "external/libcxx/include/math.h"
  },
  {
   "function_name" : "atan",
   "linker_set_key" : "_Z4atane",
   "parameters" :
   [
    {
     "referenced_type" : "_ZTIe"
    }
   ],
   "return_type" : "_ZTIe",
   "source_file" : "external/libcxx/include/math.h"
  },
  {
   "function_name" : "atan",
   "linker_set_key" : "_Z4atanf",
   "parameters" :
   [
    {
     "referenced_type" : "_ZTIf"
    }
   ],
   "return_type" : "_ZTIf",
   "source_file" : "external/libcxx/include/math.h"
  },
  {
   "function_name" : "cbrt",
   "linker_set_key" : "_Z4cbrte",
   "parameters" :
   [
    {
     "referenced_type" : "_ZTIe"
    }
   ],
   "return_type" : "_ZTIe",
   "source_file" : "external/libcxx/include/math.h"
  },
  {
   "function_name" : "cbrt",
   "linker_set_key" : "_Z4cbrtf",
   "parameters" :
   [
    {
     "referenced_type" : "_ZTIf"
    }
   ],
   "return_type" : "_ZTIf",
   "source_file" : "external/libcxx/include/math.h"
  },
  {
   "function_name" : "ceil",
   "linker_set_key" : "_Z4ceile",
   "parameters" :
   [
    {
     "referenced_type" : "_ZTIe"
    }
   ],
   "return_type" : "_ZTIe",
   "source_file" : "external/libcxx/include/math.h"
  },
  {
   "function_name" : "ceil",
   "linker_set_key" : "_Z4ceilf",
   "parameters" :
   [
    {
     "referenced_type" : "_ZTIf"
    }
   ],
   "return_type" : "_ZTIf",
   "source_file" : "external/libcxx/include/math.h"
  },
  {
   "function_name" : "cosh",
   "linker_set_key" : "_Z4coshe",
   "parameters" :
   [
    {
     "referenced_type" : "_ZTIe"
    }
   ],
   "return_type" : "_ZTIe",
   "source_file" : "external/libcxx/include/math.h"
  },
  {
   "function_name" : "cosh",
   "linker_set_key" : "_Z4coshf",
   "parameters" :
   [
    {
     "referenced_type" : "_ZTIf"
    }
   ],
   "return_type" : "_ZTIf",
   "source_file" : "external/libcxx/include/math.h"
  },
  {
   "function_name" : "erfc",
   "linker_set_key" : "_Z4erfce",
   "parameters" :
   [
    {
     "referenced_type" : "_ZTIe"
    }
   ],
   "return_type" : "_ZTIe",
   "source_file" : "external/libcxx/include/math.h"
  },
  {
   "function_name" : "erfc",
   "linker_set_key" : "_Z4erfcf",
   "parameters" :
   [
    {
     "referenced_type" : "_ZTIf"
    }
   ],
   "return_type" : "_ZTIf",
   "source_file" : "external/libcxx/include/math.h"
  },
  {
   "function_name" : "exp2",
   "linker_set_key" : "_Z4exp2e",
   "parameters" :
   [
    {
     "referenced_type" : "_ZTIe"
    }
   ],
   "return_type" : "_ZTIe",
   "source_file" : "external/libcxx/include/math.h"
  },
  {
   "function_name" : "exp2",
   "linker_set_key" : "_Z4exp2f",
   "parameters" :
   [
    {
     "referenced_type" : "_ZTIf"
    }
   ],
   "return_type" : "_ZTIf",
   "source_file" : "external/libcxx/include/math.h"
  },
  {
   "function_name" : "fabs",
   "linker_set_key" : "_Z4fabse",
   "parameters" :
   [
    {
     "referenced_type" : "_ZTIe"
    }
   ],
   "return_type" : "_ZTIe",
   "source_file" : "external/libcxx/include/math.h"
  },
  {
   "function_name" : "fabs",
   "linker_set_key" : "_Z4fabsf",
   "parameters" :
   [
    {
     "referenced_type" : "_ZTIf"
    }
   ],
   "return_type" : "_ZTIf",
   "source_file" : "external/libcxx/include/math.h"
  },
  {
   "function_name" : "fdim",
   "linker_set_key" : "_Z4fdimee",
   "parameters" :
   [
    {
     "referenced_type" : "_ZTIe"
    },
    {
     "referenced_type" : "_ZTIe"
    }
   ],
   "return_type" : "_ZTIe",
   "source_file" : "external/libcxx/include/math.h"
  },
  {
   "function_name" : "fdim",
   "linker_set_key" : "_Z4fdimff",
   "parameters" :
   [
    {
     "referenced_type" : "_ZTIf"
    },
    {
     "referenced_type" : "_ZTIf"
    }
   ],
   "return_type" : "_ZTIf",
   "source_file" : "external/libcxx/include/math.h"
  },
  {
   "function_name" : "fmax",
   "linker_set_key" : "_Z4fmaxee",
   "parameters" :
   [
    {
     "referenced_type" : "_ZTIe"
    },
    {
     "referenced_type" : "_ZTIe"
    }
   ],
   "return_type" : "_ZTIe",
   "source_file" : "external/libcxx/include/math.h"
  },
  {
   "function_name" : "fmax",
   "linker_set_key" : "_Z4fmaxff",
   "parameters" :
   [
    {
     "referenced_type" : "_ZTIf"
    },
    {
     "referenced_type" : "_ZTIf"
    }
   ],
   "return_type" : "_ZTIf",
   "source_file" : "external/libcxx/include/math.h"
  },
  {
   "function_name" : "fmin",
   "linker_set_key" : "_Z4fminee",
   "parameters" :
   [
    {
     "referenced_type" : "_ZTIe"
    },
    {
     "referenced_type" : "_ZTIe"
    }
   ],
   "return_type" : "_ZTIe",
   "source_file" : "external/libcxx/include/math.h"
  },
  {
   "function_name" : "fmin",
   "linker_set_key" : "_Z4fminff",
   "parameters" :
   [
    {
     "referenced_type" : "_ZTIf"
    },
    {
     "referenced_type" : "_ZTIf"
    }
   ],
   "return_type" : "_ZTIf",
   "source_file" : "external/libcxx/include/math.h"
  },
  {
   "function_name" : "fmod",
   "linker_set_key" : "_Z4fmodee",
   "parameters" :
   [
    {
     "referenced_type" : "_ZTIe"
    },
    {
     "referenced_type" : "_ZTIe"
    }
   ],
   "return_type" : "_ZTIe",
   "source_file" : "external/libcxx/include/math.h"
  },
  {
   "function_name" : "fmod",
   "linker_set_key" : "_Z4fmodff",
   "parameters" :
   [
    {
     "referenced_type" : "_ZTIf"
    },
    {
     "referenced_type" : "_ZTIf"
    }
   ],
   "return_type" : "_ZTIf",
   "source_file" : "external/libcxx/include/math.h"
  },
  {
   "function_name" : "log2",
   "linker_set_key" : "_Z4log2e",
   "parameters" :
   [
    {
     "referenced_type" : "_ZTIe"
    }
   ],
   "return_type" : "_ZTIe",
   "source_file" : "external/libcxx/include/math.h"
  },
  {
   "function_name" : "log2",
   "linker_set_key" : "_Z4log2f",
   "parameters" :
   [
    {
     "referenced_type" : "_ZTIf"
    }
   ],
   "return_type" : "_ZTIf",
   "source_file" : "external/libcxx/include/math.h"
  },
  {
   "function_name" : "logb",
   "linker_set_key" : "_Z4logbe",
   "parameters" :
   [
    {
     "referenced_type" : "_ZTIe"
    }
   ],
   "return_type" : "_ZTIe",
   "source_file" : "external/libcxx/include/math.h"
  },
  {
   "function_name" : "logb",
   "linker_set_key" : "_Z4logbf",
   "parameters" :
   [
    {
     "referenced_type" : "_ZTIf"
    }
   ],
   "return_type" : "_ZTIf",
   "source_file" : "external/libcxx/include/math.h"
  },
  {
   "function_name" : "modf",
   "linker_set_key" : "_Z4modfePe",
   "parameters" :
   [
    {
     "referenced_type" : "_ZTIe"
    },
    {
     "referenced_type" : "_ZTIPe"
    }
   ],
   "return_type" : "_ZTIe",
   "source_file" : "external/libcxx/include/math.h"
  },
  {
   "function_name" : "modf",
   "linker_set_key" : "_Z4modffPf",
   "parameters" :
   [
    {
     "referenced_type" : "_ZTIf"
    },
    {
     "referenced_type" : "_ZTIPf"
    }
   ],
   "return_type" : "_ZTIf",
   "source_file" : "external/libcxx/include/math.h"
  },
  {
   "function_name" : "rint",
   "linker_set_key" : "_Z4rinte",
   "parameters" :
   [
    {
     "referenced_type" : "_ZTIe"
    }
   ],
   "return_type" : "_ZTIe",
   "source_file" : "external/libcxx/include/math.h"
  },
  {
   "function_name" : "rint",
   "linker_set_key" : "_Z4rintf",
   "parameters" :
   [
    {
     "referenced_type" : "_ZTIf"
    }
   ],
   "return_type" : "_ZTIf",
   "source_file" : "external/libcxx/include/math.h"
  },
  {
   "function_name" : "sinh",
   "linker_set_key" : "_Z4sinhe",
   "parameters" :
   [
    {
     "referenced_type" : "_ZTIe"
    }
   ],
   "return_type" : "_ZTIe",
   "source_file" : "external/libcxx/include/math.h"
  },
  {
   "function_name" : "sinh",
   "linker_set_key" : "_Z4sinhf",
   "parameters" :
   [
    {
     "referenced_type" : "_ZTIf"
    }
   ],
   "return_type" : "_ZTIf",
   "source_file" : "external/libcxx/include/math.h"
  },
  {
   "function_name" : "sqrt",
   "linker_set_key" : "_Z4sqrte",
   "parameters" :
   [
    {
     "referenced_type" : "_ZTIe"
    }
   ],
   "return_type" : "_ZTIe",
   "source_file" : "external/libcxx/include/math.h"
  },
  {
   "function_name" : "sqrt",
   "linker_set_key" : "_Z4sqrtf",
   "parameters" :
   [
    {
     "referenced_type" : "_ZTIf"
    }
   ],
   "return_type" : "_ZTIf",
   "source_file" : "external/libcxx/include/math.h"
  },
  {
   "function_name" : "tanh",
   "linker_set_key" : "_Z4tanhe",
   "parameters" :
   [
    {
     "referenced_type" : "_ZTIe"
    }
   ],
   "return_type" : "_ZTIe",
   "source_file" : "external/libcxx/include/math.h"
  },
  {
   "function_name" : "tanh",
   "linker_set_key" : "_Z4tanhf",
   "parameters" :
   [
    {
     "referenced_type" : "_ZTIf"
    }
   ],
   "return_type" : "_ZTIf",
   "source_file" : "external/libcxx/include/math.h"
  },
  {
   "function_name" : "acosh",
   "linker_set_key" : "_Z5acoshe",
   "parameters" :
   [
    {
     "referenced_type" : "_ZTIe"
    }
   ],
   "return_type" : "_ZTIe",
   "source_file" : "external/libcxx/include/math.h"
  },
  {
   "function_name" : "acosh",
   "linker_set_key" : "_Z5acoshf",
   "parameters" :
   [
    {
     "referenced_type" : "_ZTIf"
    }
   ],
   "return_type" : "_ZTIf",
   "source_file" : "external/libcxx/include/math.h"
  },
  {
   "function_name" : "asinh",
   "linker_set_key" : "_Z5asinhe",
   "parameters" :
   [
    {
     "referenced_type" : "_ZTIe"
    }
   ],
   "return_type" : "_ZTIe",
   "source_file" : "external/libcxx/include/math.h"
  },
  {
   "function_name" : "asinh",
   "linker_set_key" : "_Z5asinhf",
   "parameters" :
   [
    {
     "referenced_type" : "_ZTIf"
    }
   ],
   "return_type" : "_ZTIf",
   "source_file" : "external/libcxx/include/math.h"
  },
  {
   "function_name" : "atan2",
   "linker_set_key" : "_Z5atan2ee",
   "parameters" :
   [
    {
     "referenced_type" : "_ZTIe"
    },
    {
     "referenced_type" : "_ZTIe"
    }
   ],
   "return_type" : "_ZTIe",
   "source_file" : "external/libcxx/include/math.h"
  },
  {
   "function_name" : "atan2",
   "linker_set_key" : "_Z5atan2ff",
   "parameters" :
   [
    {
     "referenced_type" : "_ZTIf"
    },
    {
     "referenced_type" : "_ZTIf"
    }
   ],
   "return_type" : "_ZTIf",
   "source_file" : "external/libcxx/include/math.h"
  },
  {
   "function_name" : "atanh",
   "linker_set_key" : "_Z5atanhe",
   "parameters" :
   [
    {
     "referenced_type" : "_ZTIe"
    }
   ],
   "return_type" : "_ZTIe",
   "source_file" : "external/libcxx/include/math.h"
  },
  {
   "function_name" : "atanh",
   "linker_set_key" : "_Z5atanhf",
   "parameters" :
   [
    {
     "referenced_type" : "_ZTIf"
    }
   ],
   "return_type" : "_ZTIf",
   "source_file" : "external/libcxx/include/math.h"
  },
  {
   "function_name" : "expm1",
   "linker_set_key" : "_Z5expm1e",
   "parameters" :
   [
    {
     "referenced_type" : "_ZTIe"
    }
   ],
   "return_type" : "_ZTIe",
   "source_file" : "external/libcxx/include/math.h"
  },
  {
   "function_name" : "expm1",
   "linker_set_key" : "_Z5expm1f",
   "parameters" :
   [
    {
     "referenced_type" : "_ZTIf"
    }
   ],
   "return_type" : "_ZTIf",
   "source_file" : "external/libcxx/include/math.h"
  },
  {
   "function_name" : "floor",
   "linker_set_key" : "_Z5floore",
   "parameters" :
   [
    {
     "referenced_type" : "_ZTIe"
    }
   ],
   "return_type" : "_ZTIe",
   "source_file" : "external/libcxx/include/math.h"
  },
  {
   "function_name" : "floor",
   "linker_set_key" : "_Z5floorf",
   "parameters" :
   [
    {
     "referenced_type" : "_ZTIf"
    }
   ],
   "return_type" : "_ZTIf",
   "source_file" : "external/libcxx/include/math.h"
  },
  {
   "function_name" : "frexp",
   "linker_set_key" : "_Z5frexpePi",
   "parameters" :
   [
    {
     "referenced_type" : "_ZTIe"
    },
    {
     "referenced_type" : "_ZTIPi"
    }
   ],
   "return_type" : "_ZTIe",
   "source_file" : "external/libcxx/include/math.h"
  },
  {
   "function_name" : "frexp",
   "linker_set_key" : "_Z5frexpfPi",
   "parameters" :
   [
    {
     "referenced_type" : "_ZTIf"
    },
    {
     "referenced_type" : "_ZTIPi"
    }
   ],
   "return_type" : "_ZTIf",
   "source_file" : "external/libcxx/include/math.h"
  },
  {
   "function_name" : "hypot",
   "linker_set_key" : "_Z5hypotee",
   "parameters" :
   [
    {
     "referenced_type" : "_ZTIe"
    },
    {
     "referenced_type" : "_ZTIe"
    }
   ],
   "return_type" : "_ZTIe",
   "source_file" : "external/libcxx/include/math.h"
  },
  {
   "function_name" : "hypot",
   "linker_set_key" : "_Z5hypotff",
   "parameters" :
   [
    {
     "referenced_type" : "_ZTIf"
    },
    {
     "referenced_type" : "_ZTIf"
    }
   ],
   "return_type" : "_ZTIf",
   "source_file" : "external/libcxx/include/math.h"
  },
  {
   "function_name" : "ilogb",
   "linker_set_key" : "_Z5ilogbe",
   "parameters" :
   [
    {
     "referenced_type" : "_ZTIe"
    }
   ],
   "return_type" : "_ZTIi",
   "source_file" : "external/libcxx/include/math.h"
  },
  {
   "function_name" : "ilogb",
   "linker_set_key" : "_Z5ilogbf",
   "parameters" :
   [
    {
     "referenced_type" : "_ZTIf"
    }
   ],
   "return_type" : "_ZTIi",
   "source_file" : "external/libcxx/include/math.h"
  },
  {
   "function_name" : "isinf",
   "linker_set_key" : "_Z5isinfUa9enable_ifIXLb1EEEd",
   "parameters" :
   [
    {
     "referenced_type" : "_ZTId"
    }
   ],
   "return_type" : "_ZTIb",
   "source_file" : "external/libcxx/include/math.h"
  },
  {
   "function_name" : "isinf",
   "linker_set_key" : "_Z5isinfe",
   "parameters" :
   [
    {
     "referenced_type" : "_ZTIe"
    }
   ],
   "return_type" : "_ZTIb",
   "source_file" : "external/libcxx/include/math.h"
  },
  {
   "function_name" : "isinf",
   "linker_set_key" : "_Z5isinff",
   "parameters" :
   [
    {
     "referenced_type" : "_ZTIf"
    }
   ],
   "return_type" : "_ZTIb",
   "source_file" : "external/libcxx/include/math.h"
  },
  {
   "function_name" : "isnan",
   "linker_set_key" : "_Z5isnanUa9enable_ifIXLb1EEEd",
   "parameters" :
   [
    {
     "referenced_type" : "_ZTId"
    }
   ],
   "return_type" : "_ZTIb",
   "source_file" : "external/libcxx/include/math.h"
  },
  {
   "function_name" : "isnan",
   "linker_set_key" : "_Z5isnane",
   "parameters" :
   [
    {
     "referenced_type" : "_ZTIe"
    }
   ],
   "return_type" : "_ZTIb",
   "source_file" : "external/libcxx/include/math.h"
  },
  {
   "function_name" : "isnan",
   "linker_set_key" : "_Z5isnanf",
   "parameters" :
   [
    {
     "referenced_type" : "_ZTIf"
    }
   ],
   "return_type" : "_ZTIb",
   "source_file" : "external/libcxx/include/math.h"
  },
  {
   "function_name" : "ldexp",
   "linker_set_key" : "_Z5ldexpei",
   "parameters" :
   [
    {
     "referenced_type" : "_ZTIe"
    },
    {
     "referenced_type" : "_ZTIi"
    }
   ],
   "return_type" : "_ZTIe",
   "source_file" : "external/libcxx/include/math.h"
  },
  {
   "function_name" : "ldexp",
   "linker_set_key" : "_Z5ldexpfi",
   "parameters" :
   [
    {
     "referenced_type" : "_ZTIf"
    },
    {
     "referenced_type" : "_ZTIi"
    }
   ],
   "return_type" : "_ZTIf",
   "source_file" : "external/libcxx/include/math.h"
  },
  {
   "function_name" : "log10",
   "linker_set_key" : "_Z5log10e",
   "parameters" :
   [
    {
     "referenced_type" : "_ZTIe"
    }
   ],
   "return_type" : "_ZTIe",
   "source_file" : "external/libcxx/include/math.h"
  },
  {
   "function_name" : "log10",
   "linker_set_key" : "_Z5log10f",
   "parameters" :
   [
    {
     "referenced_type" : "_ZTIf"
    }
   ],
   "return_type" : "_ZTIf",
   "source_file" : "external/libcxx/include/math.h"
  },
  {
   "function_name" : "log1p",
   "linker_set_key" : "_Z5log1pe",
   "parameters" :
   [
    {
     "referenced_type" : "_ZTIe"
    }
   ],
   "return_type" : "_ZTIe",
   "source_file" : "external/libcxx/include/math.h"
  },
  {
   "function_name" : "log1p",
   "linker_set_key" : "_Z5log1pf",
   "parameters" :
   [
    {
     "referenced_type" : "_ZTIf"
    }
   ],
   "return_type" : "_ZTIf",
   "source_file" : "external/libcxx/include/math.h"
  },
  {
   "function_name" : "lrint",
   "linker_set_key" : "_Z5lrinte",
   "parameters" :
   [
    {
     "referenced_type" : "_ZTIe"
    }
   ],
   "return_type" : "_ZTIl",
   "source_file" : "external/libcxx/include/math.h"
  },
  {
   "function_name" : "lrint",
   "linker_set_key" : "_Z5lrintf",
   "parameters" :
   [
    {
     "referenced_type" : "_ZTIf"
    }
   ],
   "return_type" : "_ZTIl",
   "source_file" : "external/libcxx/include/math.h"
  },
  {
   "function_name" : "round",
   "linker_set_key" : "_Z5rounde",
   "parameters" :
   [
    {
     "referenced_type" : "_ZTIe"
    }
   ],
   "return_type" : "_ZTIe",
   "source_file" : "external/libcxx/include/math.h"
  },
  {
   "function_name" : "round",
   "linker_set_key" : "_Z5roundf",
   "parameters" :
   [
    {
     "referenced_type" : "_ZTIf"
    }
   ],
   "return_type" : "_ZTIf",
   "source_file" : "external/libcxx/include/math.h"
  },
  {
   "function_name" : "trunc",
   "linker_set_key" : "_Z5trunce",
   "parameters" :
   [
    {
     "referenced_type" : "_ZTIe"
    }
   ],
   "return_type" : "_ZTIe",
   "source_file" : "external/libcxx/include/math.h"
  },
  {
   "function_name" : "trunc",
   "linker_set_key" : "_Z5truncf",
   "parameters" :
   [
    {
     "referenced_type" : "_ZTIf"
    }
   ],
   "return_type" : "_ZTIf",
   "source_file" : "external/libcxx/include/math.h"
  },
  {
   "function_name" : "lgamma",
   "linker_set_key" : "_Z6lgammae",
   "parameters" :
   [
    {
     "referenced_type" : "_ZTIe"
    }
   ],
   "return_type" : "_ZTIe",
   "source_file" : "external/libcxx/include/math.h"
  },
  {
   "function_name" : "lgamma",
   "linker_set_key" : "_Z6lgammaf",
   "parameters" :
   [
    {
     "referenced_type" : "_ZTIf"
    }
   ],
   "return_type" : "_ZTIf",
   "source_file" : "external/libcxx/include/math.h"
  },
  {
   "function_name" : "llrint",
   "linker_set_key" : "_Z6llrinte",
   "parameters" :
   [
    {
     "referenced_type" : "_ZTIe"
    }
   ],
   "return_type" : "_ZTIx",
   "source_file" : "external/libcxx/include/math.h"
  },
  {
   "function_name" : "llrint",
   "linker_set_key" : "_Z6llrintf",
   "parameters" :
   [
    {
     "referenced_type" : "_ZTIf"
    }
   ],
   "return_type" : "_ZTIx",
   "source_file" : "external/libcxx/include/math.h"
  },
  {
   "function_name" : "lround",
   "linker_set_key" : "_Z6lrounde",
   "parameters" :
   [
    {
     "referenced_type" : "_ZTIe"
    }
   ],
   "return_type" : "_ZTIl",
   "source_file" : "external/libcxx/include/math.h"
  },
  {
   "function_name" : "lround",
   "linker_set_key" : "_Z6lroundf",
   "parameters" :
   [
    {
     "referenced_type" : "_ZTIf"
    }
   ],
   "return_type" : "_ZTIl",
   "source_file" : "external/libcxx/include/math.h"
  },
  {
   "function_name" : "memchr",
   "linker_set_key" : "_Z6memchrUa9enable_ifIXLb1EEEPKvij",
   "parameters" :
   [
    {
     "referenced_type" : "_ZTIPKv"
    },
    {
     "referenced_type" : "_ZTIi"
    },
    {
     "referenced_type" : "_ZTIj"
    }
   ],
   "return_type" : "_ZTIPKv",
   "source_file" : "external/libcxx/include/string.h"
  },
  {
   "function_name" : "memchr",
   "linker_set_key" : "_Z6memchrUa9enable_ifIXLb1EEEPvij",
   "parameters" :
   [
    {
     "referenced_type" : "_ZTIPv"
    },
    {
     "referenced_type" : "_ZTIi"
    },
    {
     "referenced_type" : "_ZTIj"
    }
   ],
   "return_type" : "_ZTIPv",
   "source_file" : "external/libcxx/include/string.h"
  },
  {
   "function_name" : "memchr",
   "linker_set_key" : "_Z6memchrUa9enable_ifIXLb1EEXLb1EEEPKvU17pass_object_size1ij",
   "parameters" :
   [
    {
     "referenced_type" : "_ZTIKPKv"
    },
    {
     "referenced_type" : "_ZTIi"
    },
    {
     "referenced_type" : "_ZTIj"
    }
   ],
   "return_type" : "_ZTIPKv",
   "source_file" : "out/soong/.intermediates/bionic/libc/libc/android_vendor.32_arm_armv8-a_shared/gen/include/string.h"
  },
  {
   "function_name" : "memchr",
   "linker_set_key" : "_Z6memchrUa9enable_ifIXLb1EEXLb1EEEPvU17pass_object_size1ij",
   "parameters" :
   [
    {
     "referenced_type" : "_ZTIKPv"
    },
    {
     "referenced_type" : "_ZTIi"
    },
    {
     "referenced_type" : "_ZTIj"
    }
   ],
   "return_type" : "_ZTIPv",
   "source_file" : "out/soong/.intermediates/bionic/libc/libc/android_vendor.32_arm_armv8-a_shared/gen/include/string.h"
  },
  {
   "function_name" : "remquo",
   "linker_set_key" : "_Z6remquoeePi",
   "parameters" :
   [
    {
     "referenced_type" : "_ZTIe"
    },
    {
     "referenced_type" : "_ZTIe"
    },
    {
     "referenced_type" : "_ZTIPi"
    }
   ],
   "return_type" : "_ZTIe",
   "source_file" : "external/libcxx/include/math.h"
  },
  {
   "function_name" : "remquo",
   "linker_set_key" : "_Z6remquoffPi",
   "parameters" :
   [
    {
     "referenced_type" : "_ZTIf"
    },
    {
     "referenced_type" : "_ZTIf"
    },
    {
     "referenced_type" : "_ZTIPi"
    }
   ],
   "return_type" : "_ZTIf",
   "source_file" : "external/libcxx/include/math.h"
  },
  {
   "function_name" : "scalbn",
   "linker_set_key" : "_Z6scalbnei",
   "parameters" :
   [
    {
     "referenced_type" : "_ZTIe"
    },
    {
     "referenced_type" : "_ZTIi"
    }
   ],
   "return_type" : "_ZTIe",
   "source_file" : "external/libcxx/include/math.h"
  },
  {
   "function_name" : "scalbn",
   "linker_set_key" : "_Z6scalbnfi",
   "parameters" :
   [
    {
     "referenced_type" : "_ZTIf"
    },
    {
     "referenced_type" : "_ZTIi"
    }
   ],
   "return_type" : "_ZTIf",
   "source_file" : "external/libcxx/include/math.h"
  },
  {
   "function_name" : "strchr",
   "linker_set_key" : "_Z6strchrUa9enable_ifIXLb1EEEPKci",
   "parameters" :
   [
    {
     "referenced_type" : "_ZTIPKc"
    },
    {
     "referenced_type" : "_ZTIi"
    }
   ],
   "return_type" : "_ZTIPKc",
   "source_file" : "external/libcxx/include/string.h"
  },
  {
   "function_name" : "strchr",
   "linker_set_key" : "_Z6strchrUa9enable_ifIXLb1EEEPci",
   "parameters" :
   [
    {
     "referenced_type" : "_ZTIPc"
    },
    {
     "referenced_type" : "_ZTIi"
    }
   ],
   "return_type" : "_ZTIPc",
   "source_file" : "external/libcxx/include/string.h"
  },
  {
   "function_name" : "strchr",
   "linker_set_key" : "_Z6strchrUa9enable_ifIXLb1EEXLb1EEEPKcU17pass_object_size1i",
   "parameters" :
   [
    {
     "referenced_type" : "_ZTIKPKc"
    },
    {
     "referenced_type" : "_ZTIi"
    }
   ],
   "return_type" : "_ZTIPKc",
   "source_file" : "out/soong/.intermediates/bionic/libc/libc/android_vendor.32_arm_armv8-a_shared/gen/include/string.h"
  },
  {
   "function_name" : "strchr",
   "linker_set_key" : "_Z6strchrUa9enable_ifIXLb1EEXLb1EEEPcU17pass_object_size1i",
   "parameters" :
   [
    {
     "referenced_type" : "_ZTIKPc"
    },
    {
     "referenced_type" : "_ZTIi"
    }
   ],
   "return_type" : "_ZTIPc",
   "source_file" : "out/soong/.intermediates/bionic/libc/libc/android_vendor.32_arm_armv8-a_shared/gen/include/string.h"
  },
  {
   "function_name" : "strstr",
   "linker_set_key" : "_Z6strstrUa9enable_ifIXLb1EEEPKcS0_",
   "parameters" :
   [
    {
     "referenced_type" : "_ZTIPKc"
    },
    {
     "referenced_type" : "_ZTIPKc"
    }
   ],
   "return_type" : "_ZTIPKc",
   "source_file" : "external/libcxx/include/string.h"
  },
  {
   "function_name" : "strstr",
   "linker_set_key" : "_Z6strstrUa9enable_ifIXLb1EEEPcPKc",
   "parameters" :
   [
    {
     "referenced_type" : "_ZTIPc"
    },
    {
     "referenced_type" : "_ZTIPKc"
    }
   ],
   "return_type" : "_ZTIPc",
   "source_file" : "external/libcxx/include/string.h"
  },
  {
   "function_name" : "strstr",
   "linker_set_key" : "_Z6strstrUa9enable_ifIXLb1EEXLb1EEEPKcS0_",
   "parameters" :
   [
    {
     "referenced_type" : "_ZTIPKc"
    },
    {
     "referenced_type" : "_ZTIPKc"
    }
   ],
   "return_type" : "_ZTIPKc",
   "source_file" : "out/soong/.intermediates/bionic/libc/libc/android_vendor.32_arm_armv8-a_shared/gen/include/string.h"
  },
  {
   "function_name" : "strstr",
   "linker_set_key" : "_Z6strstrUa9enable_ifIXLb1EEXLb1EEEPcPKc",
   "parameters" :
   [
    {
     "referenced_type" : "_ZTIPc"
    },
    {
     "referenced_type" : "_ZTIPKc"
    }
   ],
   "return_type" : "_ZTIPc",
   "source_file" : "out/soong/.intermediates/bionic/libc/libc/android_vendor.32_arm_armv8-a_shared/gen/include/string.h"
  },
  {
   "function_name" : "tgamma",
   "linker_set_key" : "_Z6tgammae",
   "parameters" :
   [
    {
     "referenced_type" : "_ZTIe"
    }
   ],
   "return_type" : "_ZTIe",
   "source_file" : "external/libcxx/include/math.h"
  },
  {
   "function_name" : "tgamma",
   "linker_set_key" : "_Z6tgammaf",
   "parameters" :
   [
    {
     "referenced_type" : "_ZTIf"
    }
   ],
   "return_type" : "_ZTIf",
   "source_file" : "external/libcxx/include/math.h"
  },
  {
   "function_name" : "wcschr",
   "linker_set_key" : "_Z6wcschrUa9enable_ifIXLb1EEEPKww",
   "parameters" :
   [
    {
     "referenced_type" : "_ZTIPKw"
    },
    {
     "referenced_type" : "_ZTIw"
    }
   ],
   "return_type" : "_ZTIPKw",
   "source_file" : "external/libcxx/include/wchar.h"
  },
  {
   "function_name" : "wcschr",
   "linker_set_key" : "_Z6wcschrUa9enable_ifIXLb1EEEPww",
   "parameters" :
   [
    {
     "referenced_type" : "_ZTIPw"
    },
    {
     "referenced_type" : "_ZTIw"
    }
   ],
   "return_type" : "_ZTIPw",
   "source_file" : "external/libcxx/include/wchar.h"
  },
  {
   "function_name" : "wcsstr",
   "linker_set_key" : "_Z6wcsstrUa9enable_ifIXLb1EEEPKwS0_",
   "parameters" :
   [
    {
     "referenced_type" : "_ZTIPKw"
    },
    {
     "referenced_type" : "_ZTIPKw"
    }
   ],
   "return_type" : "_ZTIPKw",
   "source_file" : "external/libcxx/include/wchar.h"
  },
  {
   "function_name" : "wcsstr",
   "linker_set_key" : "_Z6wcsstrUa9enable_ifIXLb1EEEPwPKw",
   "parameters" :
   [
    {
     "referenced_type" : "_ZTIPw"
    },
    {
     "referenced_type" : "_ZTIPKw"
    }
   ],
   "return_type" : "_ZTIPw",
   "source_file" : "external/libcxx/include/wchar.h"
  },
  {
   "function_name" : "llround",
   "linker_set_key" : "_Z7llrounde",
   "parameters" :
   [
    {
     "referenced_type" : "_ZTIe"
    }
   ],
   "return_type" : "_ZTIx",
   "source_file" : "external/libcxx/include/math.h"
  },
  {
   "function_name" : "llround",
   "linker_set_key" : "_Z7llroundf",
   "parameters" :
   [
    {
     "referenced_type" : "_ZTIf"
    }
   ],
   "return_type" : "_ZTIx",
   "source_file" : "external/libcxx/include/math.h"
  },
  {
   "function_name" : "scalbln",
   "linker_set_key" : "_Z7scalblnel",
   "parameters" :
   [
    {
     "referenced_type" : "_ZTIe"
    },
    {
     "referenced_type" : "_ZTIl"
    }
   ],
   "return_type" : "_ZTIe",
   "source_file" : "external/libcxx/include/math.h"
  },
  {
   "function_name" : "scalbln",
   "linker_set_key" : "_Z7scalblnfl",
   "parameters" :
   [
    {
     "referenced_type" : "_ZTIf"
    },
    {
     "referenced_type" : "_ZTIl"
    }
   ],
   "return_type" : "_ZTIf",
   "source_file" : "external/libcxx/include/math.h"
  },
  {
   "function_name" : "strpbrk",
   "linker_set_key" : "_Z7strpbrkUa9enable_ifIXLb1EEEPKcS0_",
   "parameters" :
   [
    {
     "referenced_type" : "_ZTIPKc"
    },
    {
     "referenced_type" : "_ZTIPKc"
    }
   ],
   "return_type" : "_ZTIPKc",
   "source_file" : "external/libcxx/include/string.h"
  },
  {
   "function_name" : "strpbrk",
   "linker_set_key" : "_Z7strpbrkUa9enable_ifIXLb1EEEPcPKc",
   "parameters" :
   [
    {
     "referenced_type" : "_ZTIPc"
    },
    {
     "referenced_type" : "_ZTIPKc"
    }
   ],
   "return_type" : "_ZTIPc",
   "source_file" : "external/libcxx/include/string.h"
  },
  {
   "function_name" : "strpbrk",
   "linker_set_key" : "_Z7strpbrkUa9enable_ifIXLb1EEXLb1EEEPKcS0_",
   "parameters" :
   [
    {
     "referenced_type" : "_ZTIPKc"
    },
    {
     "referenced_type" : "_ZTIPKc"
    }
   ],
   "return_type" : "_ZTIPKc",
   "source_file" : "out/soong/.intermediates/bionic/libc/libc/android_vendor.32_arm_armv8-a_shared/gen/include/string.h"
  },
  {
   "function_name" : "strpbrk",
   "linker_set_key" : "_Z7strpbrkUa9enable_ifIXLb1EEXLb1EEEPcPKc",
   "parameters" :
   [
    {
     "referenced_type" : "_ZTIPc"
    },
    {
     "referenced_type" : "_ZTIPKc"
    }
   ],
   "return_type" : "_ZTIPc",
   "source_file" : "out/soong/.intermediates/bionic/libc/libc/android_vendor.32_arm_armv8-a_shared/gen/include/string.h"
  },
  {
   "function_name" : "strrchr",
   "linker_set_key" : "_Z7strrchrUa9enable_ifIXLb1EEEPKci",
   "parameters" :
   [
    {
     "referenced_type" : "_ZTIPKc"
    },
    {
     "referenced_type" : "_ZTIi"
    }
   ],
   "return_type" : "_ZTIPKc",
   "source_file" : "external/libcxx/include/string.h"
  },
  {
   "function_name" : "strrchr",
   "linker_set_key" : "_Z7strrchrUa9enable_ifIXLb1EEEPci",
   "parameters" :
   [
    {
     "referenced_type" : "_ZTIPc"
    },
    {
     "referenced_type" : "_ZTIi"
    }
   ],
   "return_type" : "_ZTIPc",
   "source_file" : "external/libcxx/include/string.h"
  },
  {
   "function_name" : "strrchr",
   "linker_set_key" : "_Z7strrchrUa9enable_ifIXLb1EEXLb1EEEPKcU17pass_object_size1i",
   "parameters" :
   [
    {
     "referenced_type" : "_ZTIKPKc"
    },
    {
     "referenced_type" : "_ZTIi"
    }
   ],
   "return_type" : "_ZTIPKc",
   "source_file" : "out/soong/.intermediates/bionic/libc/libc/android_vendor.32_arm_armv8-a_shared/gen/include/string.h"
  },
  {
   "function_name" : "strrchr",
   "linker_set_key" : "_Z7strrchrUa9enable_ifIXLb1EEXLb1EEEPcU17pass_object_size1i",
   "parameters" :
   [
    {
     "referenced_type" : "_ZTIKPc"
    },
    {
     "referenced_type" : "_ZTIi"
    }
   ],
   "return_type" : "_ZTIPc",
   "source_file" : "out/soong/.intermediates/bionic/libc/libc/android_vendor.32_arm_armv8-a_shared/gen/include/string.h"
  },
  {
   "function_name" : "wcspbrk",
   "linker_set_key" : "_Z7wcspbrkUa9enable_ifIXLb1EEEPKwS0_",
   "parameters" :
   [
    {
     "referenced_type" : "_ZTIPKw"
    },
    {
     "referenced_type" : "_ZTIPKw"
    }
   ],
   "return_type" : "_ZTIPKw",
   "source_file" : "external/libcxx/include/wchar.h"
  },
  {
   "function_name" : "wcspbrk",
   "linker_set_key" : "_Z7wcspbrkUa9enable_ifIXLb1EEEPwPKw",
   "parameters" :
   [
    {
     "referenced_type" : "_ZTIPw"
    },
    {
     "referenced_type" : "_ZTIPKw"
    }
   ],
   "return_type" : "_ZTIPw",
   "source_file" : "external/libcxx/include/wchar.h"
  },
  {
   "function_name" : "wcsrchr",
   "linker_set_key" : "_Z7wcsrchrUa9enable_ifIXLb1EEEPKww",
   "parameters" :
   [
    {
     "referenced_type" : "_ZTIPKw"
    },
    {
     "referenced_type" : "_ZTIw"
    }
   ],
   "return_type" : "_ZTIPKw",
   "source_file" : "external/libcxx/include/wchar.h"
  },
  {
   "function_name" : "wcsrchr",
   "linker_set_key" : "_Z7wcsrchrUa9enable_ifIXLb1EEEPww",
   "parameters" :
   [
    {
     "referenced_type" : "_ZTIPw"
    },
    {
     "referenced_type" : "_ZTIw"
    }
   ],
   "return_type" : "_ZTIPw",
   "source_file" : "external/libcxx/include/wchar.h"
  },
  {
   "function_name" : "wmemchr",
   "linker_set_key" : "_Z7wmemchrUa9enable_ifIXLb1EEEPKwwj",
   "parameters" :
   [
    {
     "referenced_type" : "_ZTIPKw"
    },
    {
     "referenced_type" : "_ZTIw"
    },
    {
     "referenced_type" : "_ZTIj"
    }
   ],
   "return_type" : "_ZTIPKw",
   "source_file" : "external/libcxx/include/wchar.h"
  },
  {
   "function_name" : "wmemchr",
   "linker_set_key" : "_Z7wmemchrUa9enable_ifIXLb1EEEPwwj",
   "parameters" :
   [
    {
     "referenced_type" : "_ZTIPw"
    },
    {
     "referenced_type" : "_ZTIw"
    },
    {
     "referenced_type" : "_ZTIj"
    }
   ],
   "return_type" : "_ZTIPw",
   "source_file" : "external/libcxx/include/wchar.h"
  },
  {
   "function_name" : "copysign",
   "linker_set_key" : "_Z8copysignee",
   "parameters" :
   [
    {
     "referenced_type" : "_ZTIe"
    },
    {
     "referenced_type" : "_ZTIe"
    }
   ],
   "return_type" : "_ZTIe",
   "source_file" : "external/libcxx/include/math.h"
  },
  {
   "function_name" : "copysign",
   "linker_set_key" : "_Z8copysignff",
   "parameters" :
   [
    {
     "referenced_type" : "_ZTIf"
    },
    {
     "referenced_type" : "_ZTIf"
    }
   ],
   "return_type" : "_ZTIf",
   "source_file" : "external/libcxx/include/math.h"
  },
  {
   "function_name" : "nearbyint",
   "linker_set_key" : "_Z9nearbyinte",
   "parameters" :
   [
    {
     "referenced_type" : "_ZTIe"
    }
   ],
   "return_type" : "_ZTIe",
   "source_file" : "external/libcxx/include/math.h"
  },
  {
   "function_name" : "nearbyint",
   "linker_set_key" : "_Z9nearbyintf",
   "parameters" :
   [
    {
     "referenced_type" : "_ZTIf"
    }
   ],
   "return_type" : "_ZTIf",
   "source_file" : "external/libcxx/include/math.h"
  },
  {
   "function_name" : "nextafter",
   "linker_set_key" : "_Z9nextafteree",
   "parameters" :
   [
    {
     "referenced_type" : "_ZTIe"
    },
    {
     "referenced_type" : "_ZTIe"
    }
   ],
   "return_type" : "_ZTIe",
   "source_file" : "external/libcxx/include/math.h"
  },
  {
   "function_name" : "nextafter",
   "linker_set_key" : "_Z9nextafterff",
   "parameters" :
   [
    {
     "referenced_type" : "_ZTIf"
    },
    {
     "referenced_type" : "_ZTIf"
    }
   ],
   "return_type" : "_ZTIf",
   "source_file" : "external/libcxx/include/math.h"
  },
  {
   "function_name" : "remainder",
   "linker_set_key" : "_Z9remainderee",
   "parameters" :
   [
    {
     "referenced_type" : "_ZTIe"
    },
    {
     "referenced_type" : "_ZTIe"
    }
   ],
   "return_type" : "_ZTIe",
   "source_file" : "external/libcxx/include/math.h"
  },
  {
   "function_name" : "remainder",
   "linker_set_key" : "_Z9remainderff",
   "parameters" :
   [
    {
     "referenced_type" : "_ZTIf"
    },
    {
     "referenced_type" : "_ZTIf"
    }
   ],
   "return_type" : "_ZTIf",
   "source_file" : "external/libcxx/include/math.h"
  },
  {
   "function_name" : "llvm::hash_value",
   "linker_set_key" : "_ZN4llvm10hash_valueERKNS_9hash_codeE",
   "parameters" :
   [
    {
     "referenced_type" : "_ZTIRKN4llvm9hash_codeE"
    }
   ],
   "return_type" : "_ZTIj",
   "source_file" : "external/llvm/include/llvm/ADT/Hashing.h"
  },
  {
   "function_name" : "llvm::make_range",
   "linker_set_key" : "_ZN4llvm10make_rangeIPKhEENS_14iterator_rangeIT_EES4_S4_",
   "parameters" :
   [
    {
     "referenced_type" : "_ZTIPKh"
    },
    {
     "referenced_type" : "_ZTIPKh"
    }
   ],
   "return_type" : "_ZTIN4llvm14iterator_rangeIPKhEE",
   "source_file" : "external/llvm/include/llvm/ADT/iterator_range.h",
   "template_args" : [ "_ZTIPKh" ]
  },
  {
   "function_name" : "llvm::BitsToFloat",
   "linker_set_key" : "_ZN4llvm11BitsToFloatEj",
   "parameters" :
   [
    {
     "referenced_type" : "_ZTIj"
    }
   ],
   "return_type" : "_ZTIf",
   "source_file" : "external/llvm/include/llvm/Support/MathExtras.h"
  },
  {
   "function_name" : "llvm::ByteSwap_16",
   "linker_set_key" : "_ZN4llvm11ByteSwap_16Et",
   "parameters" :
   [
    {
     "referenced_type" : "_ZTIt"
    }
   ],
   "return_type" : "_ZTIt",
   "source_file" : "external/llvm/include/llvm/Support/MathExtras.h"
  },
  {
   "function_name" : "llvm::ByteSwap_32",
   "linker_set_key" : "_ZN4llvm11ByteSwap_32Ej",
   "parameters" :
   [
    {
     "referenced_type" : "_ZTIj"
    }
   ],
   "return_type" : "_ZTIj",
   "source_file" : "external/llvm/include/llvm/Support/MathExtras.h"
  },
  {
   "function_name" : "llvm::ByteSwap_64",
   "linker_set_key" : "_ZN4llvm11ByteSwap_64Ey",
   "parameters" :
   [
    {
     "referenced_type" : "_ZTIy"
    }
   ],
   "return_type" : "_ZTIy",
   "source_file" : "external/llvm/include/llvm/Support/MathExtras.h"
  },
  {
   "function_name" : "llvm::FloatToBits",
   "linker_set_key" : "_ZN4llvm11FloatToBitsEf",
   "parameters" :
   [
    {
     "referenced_type" : "_ZTIf"
    }
   ],
   "return_type" : "_ZTIj",
   "source_file" : "external/llvm/include/llvm/Support/MathExtras.h"
  },
  {
   "function_name" : "llvm::BitsToDouble",
   "linker_set_key" : "_ZN4llvm12BitsToDoubleEy",
   "parameters" :
   [
    {
     "referenced_type" : "_ZTIy"
    }
   ],
   "return_type" : "_ZTId",
   "source_file" : "external/llvm/include/llvm/Support/MathExtras.h"
  },
  {
   "function_name" : "llvm::DoubleToBits",
   "linker_set_key" : "_ZN4llvm12DoubleToBitsEd",
   "parameters" :
   [
    {
     "referenced_type" : "_ZTId"
    }
   ],
   "return_type" : "_ZTIy",
   "source_file" : "external/llvm/include/llvm/Support/MathExtras.h"
  },
  {
   "function_name" : "llvm::Log2_32_Ceil",
   "linker_set_key" : "_ZN4llvm12Log2_32_CeilEj",
   "parameters" :
   [
    {
     "referenced_type" : "_ZTIj"
    }
   ],
   "return_type" : "_ZTIj",
   "source_file" : "external/llvm/include/llvm/Support/MathExtras.h"
  },
  {
   "function_name" : "llvm::Log2_64_Ceil",
   "linker_set_key" : "_ZN4llvm12Log2_64_CeilEy",
   "parameters" :
   [
    {
     "referenced_type" : "_ZTIy"
    }
   ],
   "return_type" : "_ZTIj",
   "source_file" : "external/llvm/include/llvm/Support/MathExtras.h"
  },
  {
   "function_name" : "llvm::NextPowerOf2",
   "linker_set_key" : "_ZN4llvm12NextPowerOf2Ey",
   "parameters" :
   [
    {
     "referenced_type" : "_ZTIy"
    }
   ],
   "return_type" : "_ZTIy",
   "source_file" : "external/llvm/include/llvm/Support/MathExtras.h"
  },
  {
   "function_name" : "llvm::SignExtend32",
   "linker_set_key" : "_ZN4llvm12SignExtend32Ejj",
   "parameters" :
   [
    {
     "referenced_type" : "_ZTIj"
    },
    {
     "referenced_type" : "_ZTIj"
    }
   ],
   "return_type" : "_ZTIi",
   "source_file" : "external/llvm/include/llvm/Support/MathExtras.h"
  },
  {
   "function_name" : "llvm::SignExtend64",
   "linker_set_key" : "_ZN4llvm12SignExtend64Eyj",
   "parameters" :
   [
    {
     "referenced_type" : "_ZTIy"
    },
    {
     "referenced_type" : "_ZTIj"
    }
   ],
   "return_type" : "_ZTIx",
   "source_file" : "external/llvm/include/llvm/Support/MathExtras.h"
  },
  {
   "function_name" : "llvm::PowerOf2Floor",
   "linker_set_key" : "_ZN4llvm13PowerOf2FloorEy",
   "parameters" :
   [
    {
     "referenced_type" : "_ZTIy"
    }
   ],
   "return_type" : "_ZTIy",
   "source_file" : "external/llvm/include/llvm/Support/MathExtras.h"
  },
  {
   "function_name" : "llvm::StringMapImpl::getTombstoneVal",
   "linker_set_key" : "_ZN4llvm13StringMapImpl15getTombstoneValEv",
   "return_type" : "_ZTIPN4llvm18StringMapEntryBaseE",
   "source_file" : "external/llvm/include/llvm/ADT/StringMap.h"
  },
  {
   "function_name" : "llvm::StringMapImpl::swap",
   "linker_set_key" : "_ZN4llvm13StringMapImpl4swapERS0_",
   "parameters" :
   [
    {
     "is_this_ptr" : true,
     "referenced_type" : "_ZTIPN4llvm13StringMapImplE"
    },
    {
     "referenced_type" : "_ZTIRN4llvm13StringMapImplE"
    }
   ],
   "return_type" : "_ZTIv",
   "source_file" : "external/llvm/include/llvm/ADT/StringMap.h"
  },
  {
   "access" : "protected",
   "function_name" : "llvm::StringMapImpl::StringMapImpl",
   "linker_set_key" : "_ZN4llvm13StringMapImplC1EOS0_",
   "parameters" :
   [
    {
     "is_this_ptr" : true,
     "referenced_type" : "_ZTIPN4llvm13StringMapImplE"
    },
    {
     "referenced_type" : "_ZTION4llvm13StringMapImplE"
    }
   ],
   "return_type" : "_ZTIv",
   "source_file" : "external/llvm/include/llvm/ADT/StringMap.h"
  },
  {
   "access" : "protected",
   "function_name" : "llvm::StringMapImpl::StringMapImpl",
   "linker_set_key" : "_ZN4llvm13StringMapImplC1Ej",
   "parameters" :
   [
    {
     "is_this_ptr" : true,
     "referenced_type" : "_ZTIPN4llvm13StringMapImplE"
    },
    {
     "referenced_type" : "_ZTIj"
    }
   ],
   "return_type" : "_ZTIv",
   "source_file" : "external/llvm/include/llvm/ADT/StringMap.h"
  },
  {
   "access" : "protected",
   "function_name" : "llvm::StringMapImpl::StringMapImpl",
   "linker_set_key" : "_ZN4llvm13StringMapImplC2EOS0_",
   "parameters" :
   [
    {
     "is_this_ptr" : true,
     "referenced_type" : "_ZTIPN4llvm13StringMapImplE"
    },
    {
     "referenced_type" : "_ZTION4llvm13StringMapImplE"
    }
   ],
   "return_type" : "_ZTIv",
   "source_file" : "external/llvm/include/llvm/ADT/StringMap.h"
  },
  {
   "access" : "protected",
   "function_name" : "llvm::StringMapImpl::StringMapImpl",
   "linker_set_key" : "_ZN4llvm13StringMapImplC2Ej",
   "parameters" :
   [
    {
     "is_this_ptr" : true,
     "referenced_type" : "_ZTIPN4llvm13StringMapImplE"
    },
    {
     "referenced_type" : "_ZTIj"
    }
   ],
   "return_type" : "_ZTIv",
   "source_file" : "external/llvm/include/llvm/ADT/StringMap.h"
  },
  {
   "function_name" : "llvm::isPowerOf2_32",
   "linker_set_key" : "_ZN4llvm13isPowerOf2_32Ej",
   "parameters" :
   [
    {
     "referenced_type" : "_ZTIj"
    }
   ],
   "return_type" : "_ZTIb",
   "source_file" : "external/llvm/include/llvm/Support/MathExtras.h"
  },
  {
   "function_name" : "llvm::isPowerOf2_64",
   "linker_set_key" : "_ZN4llvm13isPowerOf2_64Ey",
   "parameters" :
   [
    {
     "referenced_type" : "_ZTIy"
    }
   ],
   "return_type" : "_ZTIb",
   "source_file" : "external/llvm/include/llvm/Support/MathExtras.h"
  },
  {
   "function_name" : "llvm::iterator_range<const unsigned char *>::iterator_range",
   "linker_set_key" : "_ZN4llvm14iterator_rangeIPKhEC1ES2_S2_",
   "parameters" :
   [
    {
     "is_this_ptr" : true,
     "referenced_type" : "_ZTIPN4llvm14iterator_rangeIPKhEE"
    },
    {
     "referenced_type" : "_ZTIPKh"
    },
    {
     "referenced_type" : "_ZTIPKh"
    }
   ],
   "return_type" : "_ZTIv",
   "source_file" : "external/llvm/include/llvm/ADT/iterator_range.h"
  },
  {
   "function_name" : "llvm::iterator_range<const unsigned char *>::iterator_range",
   "linker_set_key" : "_ZN4llvm14iterator_rangeIPKhEC2ES2_S2_",
   "parameters" :
   [
    {
     "is_this_ptr" : true,
     "referenced_type" : "_ZTIPN4llvm14iterator_rangeIPKhEE"
    },
    {
     "referenced_type" : "_ZTIPKh"
    },
    {
     "referenced_type" : "_ZTIPKh"
    }
   ],
   "return_type" : "_ZTIv",
   "source_file" : "external/llvm/include/llvm/ADT/iterator_range.h"
  },
  {
   "function_name" : "llvm::MallocAllocator::Deallocate",
   "linker_set_key" : "_ZN4llvm15MallocAllocator10DeallocateEPKvj",
   "parameters" :
   [
    {
     "is_this_ptr" : true,
     "referenced_type" : "_ZTIPN4llvm15MallocAllocatorE"
    },
    {
     "referenced_type" : "_ZTIPKv"
    },
    {
     "referenced_type" : "_ZTIj"
    }
   ],
   "return_type" : "_ZTIv",
   "source_file" : "external/llvm/include/llvm/Support/Allocator.h"
  },
  {
   "function_name" : "llvm::MallocAllocator::Reset",
   "linker_set_key" : "_ZN4llvm15MallocAllocator5ResetEv",
   "parameters" :
   [
    {
     "is_this_ptr" : true,
     "referenced_type" : "_ZTIPN4llvm15MallocAllocatorE"
    }
   ],
   "return_type" : "_ZTIv",
   "source_file" : "external/llvm/include/llvm/Support/Allocator.h"
  },
  {
   "function_name" : "llvm::MallocAllocator::Allocate",
   "linker_set_key" : "_ZN4llvm15MallocAllocator8AllocateEjj",
   "parameters" :
   [
    {
     "is_this_ptr" : true,
     "referenced_type" : "_ZTIPN4llvm15MallocAllocatorE"
    },
    {
     "referenced_type" : "_ZTIj"
    },
    {
     "referenced_type" : "_ZTIj"
    }
   ],
   "return_type" : "_ZTIPv",
   "source_file" : "external/llvm/include/llvm/Support/Allocator.h"
  },
  {
   "access" : "protected",
   "function_name" : "llvm::SmallVectorBase::SmallVectorBase",
   "linker_set_key" : "_ZN4llvm15SmallVectorBaseC1EPvj",
   "parameters" :
   [
    {
     "is_this_ptr" : true,
     "referenced_type" : "_ZTIPN4llvm15SmallVectorBaseE"
    },
    {
     "referenced_type" : "_ZTIPv"
    },
    {
     "referenced_type" : "_ZTIj"
    }
   ],
   "return_type" : "_ZTIv",
   "source_file" : "external/llvm/include/llvm/ADT/SmallVector.h"
  },
  {
   "access" : "protected",
   "function_name" : "llvm::SmallVectorBase::SmallVectorBase",
   "linker_set_key" : "_ZN4llvm15SmallVectorBaseC2EPvj",
   "parameters" :
   [
    {
     "is_this_ptr" : true,
     "referenced_type" : "_ZTIPN4llvm15SmallVectorBaseE"
    },
    {
     "referenced_type" : "_ZTIPv"
    },
    {
     "referenced_type" : "_ZTIj"
    }
   ],
   "return_type" : "_ZTIv",
   "source_file" : "external/llvm/include/llvm/ADT/SmallVector.h"
  },
  {
   "function_name" : "llvm::isShiftedMask_32",
   "linker_set_key" : "_ZN4llvm16isShiftedMask_32Ej",
   "parameters" :
   [
    {
     "referenced_type" : "_ZTIj"
    }
   ],
   "return_type" : "_ZTIb",
   "source_file" : "external/llvm/include/llvm/Support/MathExtras.h"
  },
  {
   "function_name" : "llvm::isShiftedMask_64",
   "linker_set_key" : "_ZN4llvm16isShiftedMask_64Ey",
   "parameters" :
   [
    {
     "referenced_type" : "_ZTIy"
    }
   ],
   "return_type" : "_ZTIb",
   "source_file" : "external/llvm/include/llvm/Support/MathExtras.h"
  },
  {
   "function_name" : "llvm::OffsetToAlignment",
   "linker_set_key" : "_ZN4llvm17OffsetToAlignmentEyy",
   "parameters" :
   [
    {
     "referenced_type" : "_ZTIy"
    },
    {
     "referenced_type" : "_ZTIy"
    }
   ],
   "return_type" : "_ZTIy",
   "source_file" : "external/llvm/include/llvm/Support/MathExtras.h"
  },
  {
   "function_name" : "llvm::countLeadingZeros",
   "linker_set_key" : "_ZN4llvm17countLeadingZerosIjEEjT_NS_12ZeroBehaviorE",
   "parameters" :
   [
    {
     "referenced_type" : "_ZTIj"
    },
    {
     "default_arg" : true,
     "referenced_type" : "_ZTIN4llvm12ZeroBehaviorE"
    }
   ],
   "return_type" : "_ZTIj",
   "source_file" : "external/llvm/include/llvm/Support/MathExtras.h",
   "template_args" : [ "_ZTIj" ]
  },
  {
   "function_name" : "llvm::countLeadingZeros",
   "linker_set_key" : "_ZN4llvm17countLeadingZerosIyEEjT_NS_12ZeroBehaviorE",
   "parameters" :
   [
    {
     "referenced_type" : "_ZTIy"
    },
    {
     "default_arg" : true,
     "referenced_type" : "_ZTIN4llvm12ZeroBehaviorE"
    }
   ],
   "return_type" : "_ZTIj",
   "source_file" : "external/llvm/include/llvm/Support/MathExtras.h",
   "template_args" : [ "_ZTIy" ]
  },
  {
   "function_name" : "llvm::StringMapEntryBase::StringMapEntryBase",
   "linker_set_key" : "_ZN4llvm18StringMapEntryBaseC1Ej",
   "parameters" :
   [
    {
     "is_this_ptr" : true,
     "referenced_type" : "_ZTIPN4llvm18StringMapEntryBaseE"
    },
    {
     "referenced_type" : "_ZTIj"
    }
   ],
   "return_type" : "_ZTIv",
   "source_file" : "external/llvm/include/llvm/ADT/StringMap.h"
  },
  {
   "function_name" : "llvm::StringMapEntryBase::StringMapEntryBase",
   "linker_set_key" : "_ZN4llvm18StringMapEntryBaseC2Ej",
   "parameters" :
   [
    {
     "is_this_ptr" : true,
     "referenced_type" : "_ZTIPN4llvm18StringMapEntryBaseE"
    },
    {
     "referenced_type" : "_ZTIj"
    }
   ],
   "return_type" : "_ZTIv",
   "source_file" : "external/llvm/include/llvm/ADT/StringMap.h"
  },
  {
   "function_name" : "llvm::alignmentAdjustment",
   "linker_set_key" : "_ZN4llvm19alignmentAdjustmentEPKvj",
   "parameters" :
   [
    {
     "referenced_type" : "_ZTIPKv"
    },
    {
     "referenced_type" : "_ZTIj"
    }
   ],
   "return_type" : "_ZTIj",
   "source_file" : "external/llvm/include/llvm/Support/MathExtras.h"
  },
  {
   "function_name" : "llvm::PointerLikeTypeTraits<void *>::getAsVoidPointer",
   "linker_set_key" : "_ZN4llvm21PointerLikeTypeTraitsIPvE16getAsVoidPointerES1_",
   "parameters" :
   [
    {
     "referenced_type" : "_ZTIPv"
    }
   ],
   "return_type" : "_ZTIPv",
   "source_file" : "external/llvm/include/llvm/Support/PointerLikeTypeTraits.h"
  },
  {
   "function_name" : "llvm::PointerLikeTypeTraits<void *>::getFromVoidPointer",
   "linker_set_key" : "_ZN4llvm21PointerLikeTypeTraitsIPvE18getFromVoidPointerES1_",
   "parameters" :
   [
    {
     "referenced_type" : "_ZTIPv"
    }
   ],
   "return_type" : "_ZTIPv",
   "source_file" : "external/llvm/include/llvm/Support/PointerLikeTypeTraits.h"
  },
  {
   "function_name" : "llvm::PointerLikeTypeTraits<unsigned int>::getAsVoidPointer",
   "linker_set_key" : "_ZN4llvm21PointerLikeTypeTraitsIjE16getAsVoidPointerEj",
   "parameters" :
   [
    {
     "referenced_type" : "_ZTIj"
    }
   ],
   "return_type" : "_ZTIPv",
   "source_file" : "external/llvm/include/llvm/Support/PointerLikeTypeTraits.h"
  },
  {
   "function_name" : "llvm::PointerLikeTypeTraits<unsigned int>::getFromVoidPointer",
   "linker_set_key" : "_ZN4llvm21PointerLikeTypeTraitsIjE18getFromVoidPointerEPv",
   "parameters" :
   [
    {
     "referenced_type" : "_ZTIPv"
    }
   ],
   "return_type" : "_ZTIj",
   "source_file" : "external/llvm/include/llvm/Support/PointerLikeTypeTraits.h"
  },
  {
   "function_name" : "llvm::GreatestCommonDivisor64",
   "linker_set_key" : "_ZN4llvm23GreatestCommonDivisor64Eyy",
   "parameters" :
   [
    {
     "referenced_type" : "_ZTIy"
    },
    {
     "referenced_type" : "_ZTIy"
    }
   ],
   "return_type" : "_ZTIy",
   "source_file" : "external/llvm/include/llvm/Support/MathExtras.h"
  },
  {
   "function_name" : "llvm::sys::MemoryBlock::MemoryBlock",
   "linker_set_key" : "_ZN4llvm3sys11MemoryBlockC1EPvj",
   "parameters" :
   [
    {
     "is_this_ptr" : true,
     "referenced_type" : "_ZTIPN4llvm3sys11MemoryBlockE"
    },
    {
     "referenced_type" : "_ZTIPv"
    },
    {
     "referenced_type" : "_ZTIj"
    }
   ],
   "return_type" : "_ZTIv",
   "source_file" : "external/llvm/include/llvm/Support/Memory.h"
  },
  {
   "function_name" : "llvm::sys::MemoryBlock::MemoryBlock",
   "linker_set_key" : "_ZN4llvm3sys11MemoryBlockC1Ev",
   "parameters" :
   [
    {
     "is_this_ptr" : true,
     "referenced_type" : "_ZTIPN4llvm3sys11MemoryBlockE"
    }
   ],
   "return_type" : "_ZTIv",
   "source_file" : "external/llvm/include/llvm/Support/Memory.h"
  },
  {
   "function_name" : "llvm::sys::MemoryBlock::MemoryBlock",
   "linker_set_key" : "_ZN4llvm3sys11MemoryBlockC2EPvj",
   "parameters" :
   [
    {
     "is_this_ptr" : true,
     "referenced_type" : "_ZTIPN4llvm3sys11MemoryBlockE"
    },
    {
     "referenced_type" : "_ZTIPv"
    },
    {
     "referenced_type" : "_ZTIj"
    }
   ],
   "return_type" : "_ZTIv",
   "source_file" : "external/llvm/include/llvm/Support/Memory.h"
  },
  {
   "function_name" : "llvm::sys::MemoryBlock::MemoryBlock",
   "linker_set_key" : "_ZN4llvm3sys11MemoryBlockC2Ev",
   "parameters" :
   [
    {
     "is_this_ptr" : true,
     "referenced_type" : "_ZTIPN4llvm3sys11MemoryBlockE"
    }
   ],
   "return_type" : "_ZTIv",
   "source_file" : "external/llvm/include/llvm/Support/Memory.h"
  },
  {
   "function_name" : "llvm::sys::swapByteOrder",
   "linker_set_key" : "_ZN4llvm3sys13swapByteOrderIjEEvRT_",
   "parameters" :
   [
    {
     "referenced_type" : "_ZTIRj"
    }
   ],
   "return_type" : "_ZTIv",
   "source_file" : "external/llvm/include/llvm/Support/SwapByteOrder.h",
   "template_args" : [ "_ZTIj" ]
  },
  {
   "function_name" : "llvm::sys::swapByteOrder",
   "linker_set_key" : "_ZN4llvm3sys13swapByteOrderIyEEvRT_",
   "parameters" :
   [
    {
     "referenced_type" : "_ZTIRy"
    }
   ],
   "return_type" : "_ZTIv",
   "source_file" : "external/llvm/include/llvm/Support/SwapByteOrder.h",
   "template_args" : [ "_ZTIy" ]
  },
  {
   "function_name" : "llvm::sys::getSwappedBytes",
   "linker_set_key" : "_ZN4llvm3sys15getSwappedBytesEa",
   "parameters" :
   [
    {
     "referenced_type" : "_ZTIa"
    }
   ],
   "return_type" : "_ZTIa",
   "source_file" : "external/llvm/include/llvm/Support/SwapByteOrder.h"
  },
  {
   "function_name" : "llvm::sys::getSwappedBytes",
   "linker_set_key" : "_ZN4llvm3sys15getSwappedBytesEc",
   "parameters" :
   [
    {
     "referenced_type" : "_ZTIc"
    }
   ],
   "return_type" : "_ZTIc",
   "source_file" : "external/llvm/include/llvm/Support/SwapByteOrder.h"
  },
  {
   "function_name" : "llvm::sys::getSwappedBytes",
   "linker_set_key" : "_ZN4llvm3sys15getSwappedBytesEd",
   "parameters" :
   [
    {
     "referenced_type" : "_ZTId"
    }
   ],
   "return_type" : "_ZTId",
   "source_file" : "external/llvm/include/llvm/Support/SwapByteOrder.h"
  },
  {
   "function_name" : "llvm::sys::getSwappedBytes",
   "linker_set_key" : "_ZN4llvm3sys15getSwappedBytesEf",
   "parameters" :
   [
    {
     "referenced_type" : "_ZTIf"
    }
   ],
   "return_type" : "_ZTIf",
   "source_file" : "external/llvm/include/llvm/Support/SwapByteOrder.h"
  },
  {
   "function_name" : "llvm::sys::getSwappedBytes",
   "linker_set_key" : "_ZN4llvm3sys15getSwappedBytesEh",
   "parameters" :
   [
    {
     "referenced_type" : "_ZTIh"
    }
   ],
   "return_type" : "_ZTIh",
   "source_file" : "external/llvm/include/llvm/Support/SwapByteOrder.h"
  },
  {
   "function_name" : "llvm::sys::getSwappedBytes",
   "linker_set_key" : "_ZN4llvm3sys15getSwappedBytesEi",
   "parameters" :
   [
    {
     "referenced_type" : "_ZTIi"
    }
   ],
   "return_type" : "_ZTIi",
   "source_file" : "external/llvm/include/llvm/Support/SwapByteOrder.h"
  },
  {
   "function_name" : "llvm::sys::getSwappedBytes",
   "linker_set_key" : "_ZN4llvm3sys15getSwappedBytesEj",
   "parameters" :
   [
    {
     "referenced_type" : "_ZTIj"
    }
   ],
   "return_type" : "_ZTIj",
   "source_file" : "external/llvm/include/llvm/Support/SwapByteOrder.h"
  },
  {
   "function_name" : "llvm::sys::getSwappedBytes",
   "linker_set_key" : "_ZN4llvm3sys15getSwappedBytesEl",
   "parameters" :
   [
    {
     "referenced_type" : "_ZTIl"
    }
   ],
   "return_type" : "_ZTIl",
   "source_file" : "external/llvm/include/llvm/Support/SwapByteOrder.h"
  },
  {
   "function_name" : "llvm::sys::getSwappedBytes",
   "linker_set_key" : "_ZN4llvm3sys15getSwappedBytesEm",
   "parameters" :
   [
    {
     "referenced_type" : "_ZTIm"
    }
   ],
   "return_type" : "_ZTIm",
   "source_file" : "external/llvm/include/llvm/Support/SwapByteOrder.h"
  },
  {
   "function_name" : "llvm::sys::getSwappedBytes",
   "linker_set_key" : "_ZN4llvm3sys15getSwappedBytesEs",
   "parameters" :
   [
    {
     "referenced_type" : "_ZTIs"
    }
   ],
   "return_type" : "_ZTIs",
   "source_file" : "external/llvm/include/llvm/Support/SwapByteOrder.h"
  },
  {
   "function_name" : "llvm::sys::getSwappedBytes",
   "linker_set_key" : "_ZN4llvm3sys15getSwappedBytesEt",
   "parameters" :
   [
    {
     "referenced_type" : "_ZTIt"
    }
   ],
   "return_type" : "_ZTIt",
   "source_file" : "external/llvm/include/llvm/Support/SwapByteOrder.h"
  },
  {
   "function_name" : "llvm::sys::getSwappedBytes",
   "linker_set_key" : "_ZN4llvm3sys15getSwappedBytesEx",
   "parameters" :
   [
    {
     "referenced_type" : "_ZTIx"
    }
   ],
   "return_type" : "_ZTIx",
   "source_file" : "external/llvm/include/llvm/Support/SwapByteOrder.h"
  },
  {
   "function_name" : "llvm::sys::getSwappedBytes",
   "linker_set_key" : "_ZN4llvm3sys15getSwappedBytesEy",
   "parameters" :
   [
    {
     "referenced_type" : "_ZTIy"
    }
   ],
   "return_type" : "_ZTIy",
   "source_file" : "external/llvm/include/llvm/Support/SwapByteOrder.h"
  },
  {
   "function_name" : "llvm::sys::SwapByteOrder_16",
   "linker_set_key" : "_ZN4llvm3sys16SwapByteOrder_16Et",
   "parameters" :
   [
    {
     "referenced_type" : "_ZTIt"
    }
   ],
   "return_type" : "_ZTIt",
   "source_file" : "external/llvm/include/llvm/Support/SwapByteOrder.h"
  },
  {
   "function_name" : "llvm::sys::SwapByteOrder_32",
   "linker_set_key" : "_ZN4llvm3sys16SwapByteOrder_32Ej",
   "parameters" :
   [
    {
     "referenced_type" : "_ZTIj"
    }
   ],
   "return_type" : "_ZTIj",
   "source_file" : "external/llvm/include/llvm/Support/SwapByteOrder.h"
  },
  {
   "function_name" : "llvm::sys::SwapByteOrder_64",
   "linker_set_key" : "_ZN4llvm3sys16SwapByteOrder_64Ey",
   "parameters" :
   [
    {
     "referenced_type" : "_ZTIy"
    }
   ],
   "return_type" : "_ZTIy",
   "source_file" : "external/llvm/include/llvm/Support/SwapByteOrder.h"
  },
  {
   "function_name" : "llvm::sys::OwningMemoryBlock::OwningMemoryBlock",
   "linker_set_key" : "_ZN4llvm3sys17OwningMemoryBlockC1ENS0_11MemoryBlockE",
   "parameters" :
   [
    {
     "is_this_ptr" : true,
     "referenced_type" : "_ZTIPN4llvm3sys17OwningMemoryBlockE"
    },
    {
     "referenced_type" : "_ZTIN4llvm3sys11MemoryBlockE"
    }
   ],
   "return_type" : "_ZTIv",
   "source_file" : "external/llvm/include/llvm/Support/Memory.h"
  },
  {
   "function_name" : "llvm::sys::OwningMemoryBlock::OwningMemoryBlock",
   "linker_set_key" : "_ZN4llvm3sys17OwningMemoryBlockC1EOS1_",
   "parameters" :
   [
    {
     "is_this_ptr" : true,
     "referenced_type" : "_ZTIPN4llvm3sys17OwningMemoryBlockE"
    },
    {
     "referenced_type" : "_ZTION4llvm3sys17OwningMemoryBlockE"
    }
   ],
   "return_type" : "_ZTIv",
   "source_file" : "external/llvm/include/llvm/Support/Memory.h"
  },
  {
   "function_name" : "llvm::sys::OwningMemoryBlock::OwningMemoryBlock",
   "linker_set_key" : "_ZN4llvm3sys17OwningMemoryBlockC1Ev",
   "parameters" :
   [
    {
     "is_this_ptr" : true,
     "referenced_type" : "_ZTIPN4llvm3sys17OwningMemoryBlockE"
    }
   ],
   "return_type" : "_ZTIv",
   "source_file" : "external/llvm/include/llvm/Support/Memory.h"
  },
  {
   "function_name" : "llvm::sys::OwningMemoryBlock::OwningMemoryBlock",
   "linker_set_key" : "_ZN4llvm3sys17OwningMemoryBlockC2ENS0_11MemoryBlockE",
   "parameters" :
   [
    {
     "is_this_ptr" : true,
     "referenced_type" : "_ZTIPN4llvm3sys17OwningMemoryBlockE"
    },
    {
     "referenced_type" : "_ZTIN4llvm3sys11MemoryBlockE"
    }
   ],
   "return_type" : "_ZTIv",
   "source_file" : "external/llvm/include/llvm/Support/Memory.h"
  },
  {
   "function_name" : "llvm::sys::OwningMemoryBlock::OwningMemoryBlock",
   "linker_set_key" : "_ZN4llvm3sys17OwningMemoryBlockC2EOS1_",
   "parameters" :
   [
    {
     "is_this_ptr" : true,
     "referenced_type" : "_ZTIPN4llvm3sys17OwningMemoryBlockE"
    },
    {
     "referenced_type" : "_ZTION4llvm3sys17OwningMemoryBlockE"
    }
   ],
   "return_type" : "_ZTIv",
   "source_file" : "external/llvm/include/llvm/Support/Memory.h"
  },
  {
   "function_name" : "llvm::sys::OwningMemoryBlock::OwningMemoryBlock",
   "linker_set_key" : "_ZN4llvm3sys17OwningMemoryBlockC2Ev",
   "parameters" :
   [
    {
     "is_this_ptr" : true,
     "referenced_type" : "_ZTIPN4llvm3sys17OwningMemoryBlockE"
    }
   ],
   "return_type" : "_ZTIv",
   "source_file" : "external/llvm/include/llvm/Support/Memory.h"
  },
  {
   "function_name" : "llvm::sys::OwningMemoryBlock::~OwningMemoryBlock",
   "linker_set_key" : "_ZN4llvm3sys17OwningMemoryBlockD1Ev",
   "parameters" :
   [
    {
     "is_this_ptr" : true,
     "referenced_type" : "_ZTIPN4llvm3sys17OwningMemoryBlockE"
    }
   ],
   "return_type" : "_ZTIv",
   "source_file" : "external/llvm/include/llvm/Support/Memory.h"
  },
  {
   "function_name" : "llvm::sys::OwningMemoryBlock::~OwningMemoryBlock",
   "linker_set_key" : "_ZN4llvm3sys17OwningMemoryBlockD2Ev",
   "parameters" :
   [
    {
     "is_this_ptr" : true,
     "referenced_type" : "_ZTIPN4llvm3sys17OwningMemoryBlockE"
    }
   ],
   "return_type" : "_ZTIv",
   "source_file" : "external/llvm/include/llvm/Support/Memory.h"
  },
  {
   "function_name" : "llvm::sys::OwningMemoryBlock::operator=",
   "linker_set_key" : "_ZN4llvm3sys17OwningMemoryBlockaSEOS1_",
   "parameters" :
   [
    {
     "is_this_ptr" : true,
     "referenced_type" : "_ZTIPN4llvm3sys17OwningMemoryBlockE"
    },
    {
     "referenced_type" : "_ZTION4llvm3sys17OwningMemoryBlockE"
    }
   ],
   "return_type" : "_ZTIRN4llvm3sys17OwningMemoryBlockE",
   "source_file" : "external/llvm/include/llvm/Support/Memory.h"
  },
  {
   "function_name" : "llvm::Log2",
   "linker_set_key" : "_ZN4llvm4Log2Ed",
   "parameters" :
   [
    {
     "referenced_type" : "_ZTId"
    }
   ],
   "return_type" : "_ZTId",
   "source_file" : "external/llvm/include/llvm/Support/MathExtras.h"
  },
  {
   "access" : "private",
   "function_name" : "llvm::SHA1::addUncounted",
   "linker_set_key" : "_ZN4llvm4SHA112addUncountedEh",
   "parameters" :
   [
    {
     "is_this_ptr" : true,
     "referenced_type" : "_ZTIPN4llvm4SHA1E"
    },
    {
     "referenced_type" : "_ZTIh"
    }
   ],
   "return_type" : "_ZTIv",
   "source_file" : "external/llvm/include/llvm/Support/SHA1.h"
  },
  {
   "access" : "private",
   "function_name" : "llvm::SHA1::pad",
   "linker_set_key" : "_ZN4llvm4SHA13padEv",
   "parameters" :
   [
    {
     "is_this_ptr" : true,
     "referenced_type" : "_ZTIPN4llvm4SHA1E"
    }
   ],
   "return_type" : "_ZTIv",
   "source_file" : "external/llvm/include/llvm/Support/SHA1.h"
  },
  {
   "function_name" : "llvm::SHA1::init",
   "linker_set_key" : "_ZN4llvm4SHA14initEv",
   "parameters" :
   [
    {
     "is_this_ptr" : true,
     "referenced_type" : "_ZTIPN4llvm4SHA1E"
    }
   ],
   "return_type" : "_ZTIv",
   "source_file" : "external/llvm/include/llvm/Support/SHA1.h"
  },
  {
   "function_name" : "llvm::SHA1::final",
   "linker_set_key" : "_ZN4llvm4SHA15finalEv",
   "parameters" :
   [
    {
     "is_this_ptr" : true,
     "referenced_type" : "_ZTIPN4llvm4SHA1E"
    }
   ],
   "return_type" : "_ZTIN4llvm9StringRefE",
   "source_file" : "external/llvm/include/llvm/Support/SHA1.h"
  },
  {
   "function_name" : "llvm::SHA1::result",
   "linker_set_key" : "_ZN4llvm4SHA16resultEv",
   "parameters" :
   [
    {
     "is_this_ptr" : true,
     "referenced_type" : "_ZTIPN4llvm4SHA1E"
    }
   ],
   "return_type" : "_ZTIN4llvm9StringRefE",
   "source_file" : "external/llvm/include/llvm/Support/SHA1.h"
  },
  {
   "function_name" : "llvm::SHA1::update",
   "linker_set_key" : "_ZN4llvm4SHA16updateENS_8ArrayRefIhEE",
   "parameters" :
   [
    {
     "is_this_ptr" : true,
     "referenced_type" : "_ZTIPN4llvm4SHA1E"
    },
    {
     "referenced_type" : "_ZTIN4llvm8ArrayRefIhEE"
    }
   ],
   "return_type" : "_ZTIv",
   "source_file" : "external/llvm/include/llvm/Support/SHA1.h"
  },
  {
   "function_name" : "llvm::SHA1::update",
   "linker_set_key" : "_ZN4llvm4SHA16updateENS_9StringRefE",
   "parameters" :
   [
    {
     "is_this_ptr" : true,
     "referenced_type" : "_ZTIPN4llvm4SHA1E"
    },
    {
     "referenced_type" : "_ZTIN4llvm9StringRefE"
    }
   ],
   "return_type" : "_ZTIv",
   "source_file" : "external/llvm/include/llvm/Support/SHA1.h"
  },
  {
   "access" : "private",
   "function_name" : "llvm::SHA1::hashBlock",
   "linker_set_key" : "_ZN4llvm4SHA19hashBlockEv",
   "parameters" :
   [
    {
     "is_this_ptr" : true,
     "referenced_type" : "_ZTIPN4llvm4SHA1E"
    }
   ],
   "return_type" : "_ZTIv",
   "source_file" : "external/llvm/include/llvm/Support/SHA1.h"
  },
  {
   "access" : "private",
   "function_name" : "llvm::SHA1::writebyte",
   "linker_set_key" : "_ZN4llvm4SHA19writebyteEh",
   "parameters" :
   [
    {
     "is_this_ptr" : true,
     "referenced_type" : "_ZTIPN4llvm4SHA1E"
    },
    {
     "referenced_type" : "_ZTIh"
    }
   ],
   "return_type" : "_ZTIv",
   "source_file" : "external/llvm/include/llvm/Support/SHA1.h"
  },
  {
   "function_name" : "llvm::SHA1::SHA1",
   "linker_set_key" : "_ZN4llvm4SHA1C1Ev",
   "parameters" :
   [
    {
     "is_this_ptr" : true,
     "referenced_type" : "_ZTIPN4llvm4SHA1E"
    }
   ],
   "return_type" : "_ZTIv",
   "source_file" : "external/llvm/include/llvm/Support/SHA1.h"
  },
  {
   "function_name" : "llvm::SHA1::SHA1",
   "linker_set_key" : "_ZN4llvm4SHA1C2Ev",
   "parameters" :
   [
    {
     "is_this_ptr" : true,
     "referenced_type" : "_ZTIPN4llvm4SHA1E"
    }
   ],
   "return_type" : "_ZTIv",
   "source_file" : "external/llvm/include/llvm/Support/SHA1.h"
  },
  {
   "function_name" : "llvm::Hi_32",
   "linker_set_key" : "_ZN4llvm5Hi_32Ey",
   "parameters" :
   [
    {
     "referenced_type" : "_ZTIy"
    }
   ],
   "return_type" : "_ZTIj",
   "source_file" : "external/llvm/include/llvm/Support/MathExtras.h"
  },
  {
   "function_name" : "llvm::Lo_32",
   "linker_set_key" : "_ZN4llvm5Lo_32Ey",
   "parameters" :
   [
    {
     "referenced_type" : "_ZTIy"
    }
   ],
   "return_type" : "_ZTIj",
   "source_file" : "external/llvm/include/llvm/Support/MathExtras.h"
  },
  {
   "function_name" : "llvm::isInt",
   "linker_set_key" : "_ZN4llvm5isIntILj16EEEbx",
   "parameters" :
   [
    {
     "referenced_type" : "_ZTIx"
    }
   ],
   "return_type" : "_ZTIb",
   "source_file" : "external/llvm/include/llvm/Support/MathExtras.h"
  },
  {
   "function_name" : "llvm::isInt",
   "linker_set_key" : "_ZN4llvm5isIntILj32EEEbx",
   "parameters" :
   [
    {
     "referenced_type" : "_ZTIx"
    }
   ],
   "return_type" : "_ZTIb",
   "source_file" : "external/llvm/include/llvm/Support/MathExtras.h"
  },
  {
   "function_name" : "llvm::isInt",
   "linker_set_key" : "_ZN4llvm5isIntILj8EEEbx",
   "parameters" :
   [
    {
     "referenced_type" : "_ZTIx"
    }
   ],
   "return_type" : "_ZTIb",
   "source_file" : "external/llvm/include/llvm/Support/MathExtras.h"
  },
  {
   "function_name" : "llvm::detail::LeadingZerosCounter<unsigned int, 4>::count",
   "linker_set_key" : "_ZN4llvm6detail19LeadingZerosCounterIjLj4EE5countEjNS_12ZeroBehaviorE",
   "parameters" :
   [
    {
     "referenced_type" : "_ZTIj"
    },
    {
     "referenced_type" : "_ZTIN4llvm12ZeroBehaviorE"
    }
   ],
   "return_type" : "_ZTIj",
   "source_file" : "external/llvm/include/llvm/Support/MathExtras.h"
  },
  {
   "function_name" : "llvm::detail::LeadingZerosCounter<unsigned long long, 8>::count",
   "linker_set_key" : "_ZN4llvm6detail19LeadingZerosCounterIyLj8EE5countEyNS_12ZeroBehaviorE",
   "parameters" :
   [
    {
     "referenced_type" : "_ZTIy"
    },
    {
     "referenced_type" : "_ZTIN4llvm12ZeroBehaviorE"
    }
   ],
   "return_type" : "_ZTIj",
   "source_file" : "external/llvm/include/llvm/Support/MathExtras.h"
  },
  {
   "function_name" : "llvm::isIntN",
   "linker_set_key" : "_ZN4llvm6isIntNEjx",
   "parameters" :
   [
    {
     "referenced_type" : "_ZTIj"
    },
    {
     "referenced_type" : "_ZTIx"
    }
   ],
   "return_type" : "_ZTIb",
   "source_file" : "external/llvm/include/llvm/Support/MathExtras.h"
  },
  {
   "function_name" : "llvm::isUInt",
   "linker_set_key" : "_ZN4llvm6isUIntILj16EEEby",
   "parameters" :
   [
    {
     "referenced_type" : "_ZTIy"
    }
   ],
   "return_type" : "_ZTIb",
   "source_file" : "external/llvm/include/llvm/Support/MathExtras.h"
  },
  {
   "function_name" : "llvm::isUInt",
   "linker_set_key" : "_ZN4llvm6isUIntILj32EEEby",
   "parameters" :
   [
    {
     "referenced_type" : "_ZTIy"
    }
   ],
   "return_type" : "_ZTIb",
   "source_file" : "external/llvm/include/llvm/Support/MathExtras.h"
  },
  {
   "function_name" : "llvm::isUInt",
   "linker_set_key" : "_ZN4llvm6isUIntILj8EEEby",
   "parameters" :
   [
    {
     "referenced_type" : "_ZTIy"
    }
   ],
   "return_type" : "_ZTIb",
   "source_file" : "external/llvm/include/llvm/Support/MathExtras.h"
  },
  {
   "function_name" : "llvm::Log2_32",
   "linker_set_key" : "_ZN4llvm7Log2_32Ej",
   "parameters" :
   [
    {
     "referenced_type" : "_ZTIj"
    }
   ],
   "return_type" : "_ZTIj",
   "source_file" : "external/llvm/include/llvm/Support/MathExtras.h"
  },
  {
   "function_name" : "llvm::Log2_64",
   "linker_set_key" : "_ZN4llvm7Log2_64Ey",
   "parameters" :
   [
    {
     "referenced_type" : "_ZTIy"
    }
   ],
   "return_type" : "_ZTIj",
   "source_file" : "external/llvm/include/llvm/Support/MathExtras.h"
  },
  {
   "function_name" : "llvm::Make_64",
   "linker_set_key" : "_ZN4llvm7Make_64Ejj",
   "parameters" :
   [
    {
     "referenced_type" : "_ZTIj"
    },
    {
     "referenced_type" : "_ZTIj"
    }
   ],
   "return_type" : "_ZTIy",
   "source_file" : "external/llvm/include/llvm/Support/MathExtras.h"
  },
  {
   "function_name" : "llvm::alignTo",
   "linker_set_key" : "_ZN4llvm7alignToEyyy",
   "parameters" :
   [
    {
     "referenced_type" : "_ZTIy"
    },
    {
     "referenced_type" : "_ZTIy"
    },
    {
     "default_arg" : true,
     "referenced_type" : "_ZTIy"
    }
   ],
   "return_type" : "_ZTIy",
   "source_file" : "external/llvm/include/llvm/Support/MathExtras.h"
  },
  {
   "function_name" : "llvm::hashing::detail::hash_short",
   "linker_set_key" : "_ZN4llvm7hashing6detail10hash_shortEPKcjy",
   "parameters" :
   [
    {
     "referenced_type" : "_ZTIPKc"
    },
    {
     "referenced_type" : "_ZTIj"
    },
    {
     "referenced_type" : "_ZTIy"
    }
   ],
   "return_type" : "_ZTIy",
   "source_file" : "external/llvm/include/llvm/ADT/Hashing.h"
  },
  {
   "function_name" : "llvm::hashing::detail::hash_state::mix_32_bytes",
   "linker_set_key" : "_ZN4llvm7hashing6detail10hash_state12mix_32_bytesEPKcRyS5_",
   "parameters" :
   [
    {
     "referenced_type" : "_ZTIPKc"
    },
    {
     "referenced_type" : "_ZTIRy"
    },
    {
     "referenced_type" : "_ZTIRy"
    }
   ],
   "return_type" : "_ZTIv",
   "source_file" : "external/llvm/include/llvm/ADT/Hashing.h"
  },
  {
   "function_name" : "llvm::hashing::detail::hash_state::mix",
   "linker_set_key" : "_ZN4llvm7hashing6detail10hash_state3mixEPKc",
   "parameters" :
   [
    {
     "is_this_ptr" : true,
     "referenced_type" : "_ZTIPN4llvm7hashing6detail10hash_stateE"
    },
    {
     "referenced_type" : "_ZTIPKc"
    }
   ],
   "return_type" : "_ZTIv",
   "source_file" : "external/llvm/include/llvm/ADT/Hashing.h"
  },
  {
   "function_name" : "llvm::hashing::detail::hash_state::create",
   "linker_set_key" : "_ZN4llvm7hashing6detail10hash_state6createEPKcy",
   "parameters" :
   [
    {
     "referenced_type" : "_ZTIPKc"
    },
    {
     "referenced_type" : "_ZTIy"
    }
   ],
   "return_type" : "_ZTIN4llvm7hashing6detail10hash_stateE",
   "source_file" : "external/llvm/include/llvm/ADT/Hashing.h"
  },
  {
   "function_name" : "llvm::hashing::detail::hash_state::finalize",
   "linker_set_key" : "_ZN4llvm7hashing6detail10hash_state8finalizeEj",
   "parameters" :
   [
    {
     "is_this_ptr" : true,
     "referenced_type" : "_ZTIPN4llvm7hashing6detail10hash_stateE"
    },
    {
     "referenced_type" : "_ZTIj"
    }
   ],
   "return_type" : "_ZTIy",
   "source_file" : "external/llvm/include/llvm/ADT/Hashing.h"
  },
  {
   "function_name" : "llvm::hashing::detail::hash_16_bytes",
   "linker_set_key" : "_ZN4llvm7hashing6detail13hash_16_bytesEyy",
   "parameters" :
   [
    {
     "referenced_type" : "_ZTIy"
    },
    {
     "referenced_type" : "_ZTIy"
    }
   ],
   "return_type" : "_ZTIy",
   "source_file" : "external/llvm/include/llvm/ADT/Hashing.h"
  },
  {
   "function_name" : "llvm::hashing::detail::hash_1to3_bytes",
   "linker_set_key" : "_ZN4llvm7hashing6detail15hash_1to3_bytesEPKcjy",
   "parameters" :
   [
    {
     "referenced_type" : "_ZTIPKc"
    },
    {
     "referenced_type" : "_ZTIj"
    },
    {
     "referenced_type" : "_ZTIy"
    }
   ],
   "return_type" : "_ZTIy",
   "source_file" : "external/llvm/include/llvm/ADT/Hashing.h"
  },
  {
   "function_name" : "llvm::hashing::detail::hash_4to8_bytes",
   "linker_set_key" : "_ZN4llvm7hashing6detail15hash_4to8_bytesEPKcjy",
   "parameters" :
   [
    {
     "referenced_type" : "_ZTIPKc"
    },
    {
     "referenced_type" : "_ZTIj"
    },
    {
     "referenced_type" : "_ZTIy"
    }
   ],
   "return_type" : "_ZTIy",
   "source_file" : "external/llvm/include/llvm/ADT/Hashing.h"
  },
  {
   "function_name" : "llvm::hashing::detail::hash_9to16_bytes",
   "linker_set_key" : "_ZN4llvm7hashing6detail16hash_9to16_bytesEPKcjy",
   "parameters" :
   [
    {
     "referenced_type" : "_ZTIPKc"
    },
    {
     "referenced_type" : "_ZTIj"
    },
    {
     "referenced_type" : "_ZTIy"
    }
   ],
   "return_type" : "_ZTIy",
   "source_file" : "external/llvm/include/llvm/ADT/Hashing.h"
  },
  {
   "function_name" : "llvm::hashing::detail::hash_17to32_bytes",
   "linker_set_key" : "_ZN4llvm7hashing6detail17hash_17to32_bytesEPKcjy",
   "parameters" :
   [
    {
     "referenced_type" : "_ZTIPKc"
    },
    {
     "referenced_type" : "_ZTIj"
    },
    {
     "referenced_type" : "_ZTIy"
    }
   ],
   "return_type" : "_ZTIy",
   "source_file" : "external/llvm/include/llvm/ADT/Hashing.h"
  },
  {
   "function_name" : "llvm::hashing::detail::hash_33to64_bytes",
   "linker_set_key" : "_ZN4llvm7hashing6detail17hash_33to64_bytesEPKcjy",
   "parameters" :
   [
    {
     "referenced_type" : "_ZTIPKc"
    },
    {
     "referenced_type" : "_ZTIj"
    },
    {
     "referenced_type" : "_ZTIy"
    }
   ],
   "return_type" : "_ZTIy",
   "source_file" : "external/llvm/include/llvm/ADT/Hashing.h"
  },
  {
   "function_name" : "llvm::hashing::detail::get_execution_seed",
   "linker_set_key" : "_ZN4llvm7hashing6detail18get_execution_seedEv",
   "return_type" : "_ZTIj",
   "source_file" : "external/llvm/include/llvm/ADT/Hashing.h"
  },
  {
   "function_name" : "llvm::hashing::detail::hash_integer_value",
   "linker_set_key" : "_ZN4llvm7hashing6detail18hash_integer_valueEy",
   "parameters" :
   [
    {
     "referenced_type" : "_ZTIy"
    }
   ],
   "return_type" : "_ZTIN4llvm9hash_codeE",
   "source_file" : "external/llvm/include/llvm/ADT/Hashing.h"
  },
  {
   "function_name" : "llvm::hashing::detail::hash_combine_recursive_helper::combine",
   "linker_set_key" : "_ZN4llvm7hashing6detail29hash_combine_recursive_helper7combineEjPcS3_",
   "parameters" :
   [
    {
     "is_this_ptr" : true,
     "referenced_type" : "_ZTIPN4llvm7hashing6detail29hash_combine_recursive_helperE"
    },
    {
     "referenced_type" : "_ZTIj"
    },
    {
     "referenced_type" : "_ZTIPc"
    },
    {
     "referenced_type" : "_ZTIPc"
    }
   ],
   "return_type" : "_ZTIN4llvm9hash_codeE",
   "source_file" : "external/llvm/include/llvm/ADT/Hashing.h"
  },
  {
   "function_name" : "llvm::hashing::detail::hash_combine_recursive_helper::hash_combine_recursive_helper",
   "linker_set_key" : "_ZN4llvm7hashing6detail29hash_combine_recursive_helperC1Ev",
   "parameters" :
   [
    {
     "is_this_ptr" : true,
     "referenced_type" : "_ZTIPN4llvm7hashing6detail29hash_combine_recursive_helperE"
    }
   ],
   "return_type" : "_ZTIv",
   "source_file" : "external/llvm/include/llvm/ADT/Hashing.h"
  },
  {
   "function_name" : "llvm::hashing::detail::hash_combine_recursive_helper::hash_combine_recursive_helper",
   "linker_set_key" : "_ZN4llvm7hashing6detail29hash_combine_recursive_helperC2Ev",
   "parameters" :
   [
    {
     "is_this_ptr" : true,
     "referenced_type" : "_ZTIPN4llvm7hashing6detail29hash_combine_recursive_helperE"
    }
   ],
   "return_type" : "_ZTIv",
   "source_file" : "external/llvm/include/llvm/ADT/Hashing.h"
  },
  {
   "function_name" : "llvm::hashing::detail::rotate",
   "linker_set_key" : "_ZN4llvm7hashing6detail6rotateEyj",
   "parameters" :
   [
    {
     "referenced_type" : "_ZTIy"
    },
    {
     "referenced_type" : "_ZTIj"
    }
   ],
   "return_type" : "_ZTIy",
   "source_file" : "external/llvm/include/llvm/ADT/Hashing.h"
  },
  {
   "function_name" : "llvm::hashing::detail::fetch32",
   "linker_set_key" : "_ZN4llvm7hashing6detail7fetch32EPKc",
   "parameters" :
   [
    {
     "referenced_type" : "_ZTIPKc"
    }
   ],
   "return_type" : "_ZTIj",
   "source_file" : "external/llvm/include/llvm/ADT/Hashing.h"
  },
  {
   "function_name" : "llvm::hashing::detail::fetch64",
   "linker_set_key" : "_ZN4llvm7hashing6detail7fetch64EPKc",
   "parameters" :
   [
    {
     "referenced_type" : "_ZTIPKc"
    }
   ],
   "return_type" : "_ZTIy",
   "source_file" : "external/llvm/include/llvm/ADT/Hashing.h"
  },
  {
   "function_name" : "llvm::hashing::detail::shift_mix",
   "linker_set_key" : "_ZN4llvm7hashing6detail9shift_mixEy",
   "parameters" :
   [
    {
     "referenced_type" : "_ZTIy"
    }
   ],
   "return_type" : "_ZTIy",
   "source_file" : "external/llvm/include/llvm/ADT/Hashing.h"
  },
  {
   "function_name" : "llvm::isUIntN",
   "linker_set_key" : "_ZN4llvm7isUIntNEjy",
   "parameters" :
   [
    {
     "referenced_type" : "_ZTIj"
    },
    {
     "referenced_type" : "_ZTIy"
    }
   ],
   "return_type" : "_ZTIb",
   "source_file" : "external/llvm/include/llvm/Support/MathExtras.h"
  },
  {
   "function_name" : "llvm::maxIntN",
   "linker_set_key" : "_ZN4llvm7maxIntNEx",
   "parameters" :
   [
    {
     "referenced_type" : "_ZTIx"
    }
   ],
   "return_type" : "_ZTIx",
   "source_file" : "external/llvm/include/llvm/Support/MathExtras.h"
  },
  {
   "function_name" : "llvm::minIntN",
   "linker_set_key" : "_ZN4llvm7minIntNEx",
   "parameters" :
   [
    {
     "referenced_type" : "_ZTIx"
    }
   ],
   "return_type" : "_ZTIx",
   "source_file" : "external/llvm/include/llvm/Support/MathExtras.h"
  },
  {
   "function_name" : "llvm::ArrayRef<unsigned char>::ArrayRef",
   "linker_set_key" : "_ZN4llvm8ArrayRefIhEC1EPKhj",
   "parameters" :
   [
    {
     "is_this_ptr" : true,
     "referenced_type" : "_ZTIPN4llvm8ArrayRefIhEE"
    },
    {
     "referenced_type" : "_ZTIPKh"
    },
    {
     "referenced_type" : "_ZTIj"
    }
   ],
   "return_type" : "_ZTIv",
   "source_file" : "external/llvm/include/llvm/ADT/ArrayRef.h"
  },
  {
   "function_name" : "llvm::ArrayRef<unsigned char>::ArrayRef",
   "linker_set_key" : "_ZN4llvm8ArrayRefIhEC2EPKhj",
   "parameters" :
   [
    {
     "is_this_ptr" : true,
     "referenced_type" : "_ZTIPN4llvm8ArrayRefIhEE"
    },
    {
     "referenced_type" : "_ZTIPKh"
    },
    {
     "referenced_type" : "_ZTIj"
    }
   ],
   "return_type" : "_ZTIv",
   "source_file" : "external/llvm/include/llvm/ADT/ArrayRef.h"
  },
  {
   "function_name" : "llvm::MinAlign",
   "linker_set_key" : "_ZN4llvm8MinAlignEyy",
   "parameters" :
   [
    {
     "referenced_type" : "_ZTIy"
    },
    {
     "referenced_type" : "_ZTIy"
    }
   ],
   "return_type" : "_ZTIy",
   "source_file" : "external/llvm/include/llvm/Support/MathExtras.h"
  },
  {
   "function_name" : "llvm::maxUIntN",
   "linker_set_key" : "_ZN4llvm8maxUIntNEy",
   "parameters" :
   [
    {
     "referenced_type" : "_ZTIy"
    }
   ],
   "return_type" : "_ZTIy",
   "source_file" : "external/llvm/include/llvm/Support/MathExtras.h"
  },
  {
   "access" : "private",
   "function_name" : "llvm::StringRef::compareMemory",
   "linker_set_key" : "_ZN4llvm9StringRef13compareMemoryEPKcS2_j",
   "parameters" :
   [
    {
     "referenced_type" : "_ZTIPKc"
    },
    {
     "referenced_type" : "_ZTIPKc"
    },
    {
     "referenced_type" : "_ZTIj"
    }
   ],
   "return_type" : "_ZTIi",
   "source_file" : "external/llvm/include/llvm/ADT/StringRef.h"
  },
  {
   "function_name" : "llvm::StringRef::StringRef",
   "linker_set_key" : "_ZN4llvm9StringRefC1EPKc",
   "parameters" :
   [
    {
     "is_this_ptr" : true,
     "referenced_type" : "_ZTIPN4llvm9StringRefE"
    },
    {
     "referenced_type" : "_ZTIPKc"
    }
   ],
   "return_type" : "_ZTIv",
   "source_file" : "external/llvm/include/llvm/ADT/StringRef.h"
  },
  {
   "function_name" : "llvm::StringRef::StringRef",
   "linker_set_key" : "_ZN4llvm9StringRefC1EPKcj",
   "parameters" :
   [
    {
     "is_this_ptr" : true,
     "referenced_type" : "_ZTIPN4llvm9StringRefE"
    },
    {
     "referenced_type" : "_ZTIPKc"
    },
    {
     "referenced_type" : "_ZTIj"
    }
   ],
   "return_type" : "_ZTIv",
   "source_file" : "external/llvm/include/llvm/ADT/StringRef.h"
  },
  {
   "function_name" : "llvm::StringRef::StringRef",
   "linker_set_key" : "_ZN4llvm9StringRefC1ERKNSt3__112basic_stringIcNS1_11char_traitsIcEENS1_9allocatorIcEEEE",
   "parameters" :
   [
    {
     "is_this_ptr" : true,
     "referenced_type" : "_ZTIPN4llvm9StringRefE"
    },
    {
     "referenced_type" : "_ZTIRKNSt3__112basic_stringIcNS_11char_traitsIcEENS_9allocatorIcEEEE"
    }
   ],
   "return_type" : "_ZTIv",
   "source_file" : "external/llvm/include/llvm/ADT/StringRef.h"
  },
  {
   "function_name" : "llvm::StringRef::StringRef",
   "linker_set_key" : "_ZN4llvm9StringRefC1Ev",
   "parameters" :
   [
    {
     "is_this_ptr" : true,
     "referenced_type" : "_ZTIPN4llvm9StringRefE"
    }
   ],
   "return_type" : "_ZTIv",
   "source_file" : "external/llvm/include/llvm/ADT/StringRef.h"
  },
  {
   "function_name" : "llvm::StringRef::StringRef",
   "linker_set_key" : "_ZN4llvm9StringRefC2EPKc",
   "parameters" :
   [
    {
     "is_this_ptr" : true,
     "referenced_type" : "_ZTIPN4llvm9StringRefE"
    },
    {
     "referenced_type" : "_ZTIPKc"
    }
   ],
   "return_type" : "_ZTIv",
   "source_file" : "external/llvm/include/llvm/ADT/StringRef.h"
  },
  {
   "function_name" : "llvm::StringRef::StringRef",
   "linker_set_key" : "_ZN4llvm9StringRefC2EPKcj",
   "parameters" :
   [
    {
     "is_this_ptr" : true,
     "referenced_type" : "_ZTIPN4llvm9StringRefE"
    },
    {
     "referenced_type" : "_ZTIPKc"
    },
    {
     "referenced_type" : "_ZTIj"
    }
   ],
   "return_type" : "_ZTIv",
   "source_file" : "external/llvm/include/llvm/ADT/StringRef.h"
  },
  {
   "function_name" : "llvm::StringRef::StringRef",
   "linker_set_key" : "_ZN4llvm9StringRefC2ERKNSt3__112basic_stringIcNS1_11char_traitsIcEENS1_9allocatorIcEEEE",
   "parameters" :
   [
    {
     "is_this_ptr" : true,
     "referenced_type" : "_ZTIPN4llvm9StringRefE"
    },
    {
     "referenced_type" : "_ZTIRKNSt3__112basic_stringIcNS_11char_traitsIcEENS_9allocatorIcEEEE"
    }
   ],
   "return_type" : "_ZTIv",
   "source_file" : "external/llvm/include/llvm/ADT/StringRef.h"
  },
  {
   "function_name" : "llvm::StringRef::StringRef",
   "linker_set_key" : "_ZN4llvm9StringRefC2Ev",
   "parameters" :
   [
    {
     "is_this_ptr" : true,
     "referenced_type" : "_ZTIPN4llvm9StringRefE"
    }
   ],
   "return_type" : "_ZTIv",
   "source_file" : "external/llvm/include/llvm/ADT/StringRef.h"
  },
  {
   "function_name" : "llvm::alignAddr",
   "linker_set_key" : "_ZN4llvm9alignAddrEPKvj",
   "parameters" :
   [
    {
     "referenced_type" : "_ZTIPKv"
    },
    {
     "referenced_type" : "_ZTIj"
    }
   ],
   "return_type" : "_ZTIj",
   "source_file" : "external/llvm/include/llvm/Support/MathExtras.h"
  },
  {
   "function_name" : "llvm::alignDown",
   "linker_set_key" : "_ZN4llvm9alignDownEyyy",
   "parameters" :
   [
    {
     "referenced_type" : "_ZTIy"
    },
    {
     "referenced_type" : "_ZTIy"
    },
    {
     "default_arg" : true,
     "referenced_type" : "_ZTIy"
    }
   ],
   "return_type" : "_ZTIy",
   "source_file" : "external/llvm/include/llvm/Support/MathExtras.h"
  },
  {
   "function_name" : "llvm::hash_code::hash_code",
   "linker_set_key" : "_ZN4llvm9hash_codeC1Ej",
   "parameters" :
   [
    {
     "is_this_ptr" : true,
     "referenced_type" : "_ZTIPN4llvm9hash_codeE"
    },
    {
     "referenced_type" : "_ZTIj"
    }
   ],
   "return_type" : "_ZTIv",
   "source_file" : "external/llvm/include/llvm/ADT/Hashing.h"
  },
  {
   "function_name" : "llvm::hash_code::hash_code",
   "linker_set_key" : "_ZN4llvm9hash_codeC1Ev",
   "parameters" :
   [
    {
     "is_this_ptr" : true,
     "referenced_type" : "_ZTIPN4llvm9hash_codeE"
    }
   ],
   "return_type" : "_ZTIv",
   "source_file" : "external/llvm/include/llvm/ADT/Hashing.h"
  },
  {
   "function_name" : "llvm::hash_code::hash_code",
   "linker_set_key" : "_ZN4llvm9hash_codeC2Ej",
   "parameters" :
   [
    {
     "is_this_ptr" : true,
     "referenced_type" : "_ZTIPN4llvm9hash_codeE"
    },
    {
     "referenced_type" : "_ZTIj"
    }
   ],
   "return_type" : "_ZTIv",
   "source_file" : "external/llvm/include/llvm/ADT/Hashing.h"
  },
  {
   "function_name" : "llvm::hash_code::hash_code",
   "linker_set_key" : "_ZN4llvm9hash_codeC2Ev",
   "parameters" :
   [
    {
     "is_this_ptr" : true,
     "referenced_type" : "_ZTIPN4llvm9hash_codeE"
    }
   ],
   "return_type" : "_ZTIv",
   "source_file" : "external/llvm/include/llvm/ADT/Hashing.h"
  },
  {
   "function_name" : "llvm::isMask_32",
   "linker_set_key" : "_ZN4llvm9isMask_32Ej",
   "parameters" :
   [
    {
     "referenced_type" : "_ZTIj"
    }
   ],
   "return_type" : "_ZTIb",
   "source_file" : "external/llvm/include/llvm/Support/MathExtras.h"
  },
  {
   "function_name" : "llvm::isMask_64",
   "linker_set_key" : "_ZN4llvm9isMask_64Ey",
   "parameters" :
   [
    {
     "referenced_type" : "_ZTIy"
    }
   ],
   "return_type" : "_ZTIb",
   "source_file" : "external/llvm/include/llvm/Support/MathExtras.h"
  },
  {
   "function_name" : "llvm::operator==",
   "linker_set_key" : "_ZN4llvmeqENS_9StringRefES0_",
   "parameters" :
   [
    {
     "referenced_type" : "_ZTIN4llvm9StringRefE"
    },
    {
     "referenced_type" : "_ZTIN4llvm9StringRefE"
    }
   ],
   "return_type" : "_ZTIb",
   "source_file" : "external/llvm/include/llvm/ADT/StringRef.h"
  },
  {
   "function_name" : "llvm::operator==",
   "linker_set_key" : "_ZN4llvmeqERKNS_9hash_codeES2_",
   "parameters" :
   [
    {
     "referenced_type" : "_ZTIRKN4llvm9hash_codeE"
    },
    {
     "referenced_type" : "_ZTIRKN4llvm9hash_codeE"
    }
   ],
   "return_type" : "_ZTIb",
   "source_file" : "external/llvm/include/llvm/ADT/Hashing.h"
  },
  {
   "function_name" : "llvm::operator>=",
   "linker_set_key" : "_ZN4llvmgeENS_9StringRefES0_",
   "parameters" :
   [
    {
     "referenced_type" : "_ZTIN4llvm9StringRefE"
    },
    {
     "referenced_type" : "_ZTIN4llvm9StringRefE"
    }
   ],
   "return_type" : "_ZTIb",
   "source_file" : "external/llvm/include/llvm/ADT/StringRef.h"
  },
  {
   "function_name" : "llvm::operator>",
   "linker_set_key" : "_ZN4llvmgtENS_9StringRefES0_",
   "parameters" :
   [
    {
     "referenced_type" : "_ZTIN4llvm9StringRefE"
    },
    {
     "referenced_type" : "_ZTIN4llvm9StringRefE"
    }
   ],
   "return_type" : "_ZTIb",
   "source_file" : "external/llvm/include/llvm/ADT/StringRef.h"
  },
  {
   "function_name" : "llvm::operator<=",
   "linker_set_key" : "_ZN4llvmleENS_9StringRefES0_",
   "parameters" :
   [
    {
     "referenced_type" : "_ZTIN4llvm9StringRefE"
    },
    {
     "referenced_type" : "_ZTIN4llvm9StringRefE"
    }
   ],
   "return_type" : "_ZTIb",
   "source_file" : "external/llvm/include/llvm/ADT/StringRef.h"
  },
  {
   "function_name" : "llvm::operator<",
   "linker_set_key" : "_ZN4llvmltENS_9StringRefES0_",
   "parameters" :
   [
    {
     "referenced_type" : "_ZTIN4llvm9StringRefE"
    },
    {
     "referenced_type" : "_ZTIN4llvm9StringRefE"
    }
   ],
   "return_type" : "_ZTIb",
   "source_file" : "external/llvm/include/llvm/ADT/StringRef.h"
  },
  {
   "function_name" : "llvm::operator!=",
   "linker_set_key" : "_ZN4llvmneENS_9StringRefES0_",
   "parameters" :
   [
    {
     "referenced_type" : "_ZTIN4llvm9StringRefE"
    },
    {
     "referenced_type" : "_ZTIN4llvm9StringRefE"
    }
   ],
   "return_type" : "_ZTIb",
   "source_file" : "external/llvm/include/llvm/ADT/StringRef.h"
  },
  {
   "function_name" : "llvm::operator!=",
   "linker_set_key" : "_ZN4llvmneERKNS_9hash_codeES2_",
   "parameters" :
   [
    {
     "referenced_type" : "_ZTIRKN4llvm9hash_codeE"
    },
    {
     "referenced_type" : "_ZTIRKN4llvm9hash_codeE"
    }
   ],
   "return_type" : "_ZTIb",
   "source_file" : "external/llvm/include/llvm/ADT/Hashing.h"
  },
  {
   "function_name" : "llvm::operator+=",
   "linker_set_key" : "_ZN4llvmpLERNSt3__112basic_stringIcNS0_11char_traitsIcEENS0_9allocatorIcEEEENS_9StringRefE",
   "parameters" :
   [
    {
     "referenced_type" : "_ZTIRNSt3__112basic_stringIcNS_11char_traitsIcEENS_9allocatorIcEEEE"
    },
    {
     "referenced_type" : "_ZTIN4llvm9StringRefE"
    }
   ],
   "return_type" : "_ZTIRNSt3__112basic_stringIcNS_11char_traitsIcEENS_9allocatorIcEEEE",
   "source_file" : "external/llvm/include/llvm/ADT/StringRef.h"
  },
  {
   "function_name" : "llvm::StringMapImpl::getNumItems",
   "linker_set_key" : "_ZNK4llvm13StringMapImpl11getNumItemsEv",
   "parameters" :
   [
    {
     "is_this_ptr" : true,
     "referenced_type" : "_ZTIPKN4llvm13StringMapImplE"
    }
   ],
   "return_type" : "_ZTIj",
   "source_file" : "external/llvm/include/llvm/ADT/StringMap.h"
  },
  {
   "function_name" : "llvm::StringMapImpl::getNumBuckets",
   "linker_set_key" : "_ZNK4llvm13StringMapImpl13getNumBucketsEv",
   "parameters" :
   [
    {
     "is_this_ptr" : true,
     "referenced_type" : "_ZTIPKN4llvm13StringMapImplE"
    }
   ],
   "return_type" : "_ZTIj",
   "source_file" : "external/llvm/include/llvm/ADT/StringMap.h"
  },
  {
   "function_name" : "llvm::StringMapImpl::size",
   "linker_set_key" : "_ZNK4llvm13StringMapImpl4sizeEv",
   "parameters" :
   [
    {
     "is_this_ptr" : true,
     "referenced_type" : "_ZTIPKN4llvm13StringMapImplE"
    }
   ],
   "return_type" : "_ZTIj",
   "source_file" : "external/llvm/include/llvm/ADT/StringMap.h"
  },
  {
   "function_name" : "llvm::StringMapImpl::empty",
   "linker_set_key" : "_ZNK4llvm13StringMapImpl5emptyEv",
   "parameters" :
   [
    {
     "is_this_ptr" : true,
     "referenced_type" : "_ZTIPKN4llvm13StringMapImplE"
    }
   ],
   "return_type" : "_ZTIb",
   "source_file" : "external/llvm/include/llvm/ADT/StringMap.h"
  },
  {
   "function_name" : "llvm::MallocAllocator::PrintStats",
   "linker_set_key" : "_ZNK4llvm15MallocAllocator10PrintStatsEv",
   "parameters" :
   [
    {
     "is_this_ptr" : true,
     "referenced_type" : "_ZTIPKN4llvm15MallocAllocatorE"
    }
   ],
   "return_type" : "_ZTIv",
   "source_file" : "external/llvm/include/llvm/Support/Allocator.h"
  },
  {
   "function_name" : "llvm::SmallVectorBase::size_in_bytes",
   "linker_set_key" : "_ZNK4llvm15SmallVectorBase13size_in_bytesEv",
   "parameters" :
   [
    {
     "is_this_ptr" : true,
     "referenced_type" : "_ZTIPKN4llvm15SmallVectorBaseE"
    }
   ],
   "return_type" : "_ZTIj",
   "source_file" : "external/llvm/include/llvm/ADT/SmallVector.h"
  },
  {
   "function_name" : "llvm::SmallVectorBase::capacity_in_bytes",
   "linker_set_key" : "_ZNK4llvm15SmallVectorBase17capacity_in_bytesEv",
   "parameters" :
   [
    {
     "is_this_ptr" : true,
     "referenced_type" : "_ZTIPKN4llvm15SmallVectorBaseE"
    }
   ],
   "return_type" : "_ZTIj",
   "source_file" : "external/llvm/include/llvm/ADT/SmallVector.h"
  },
  {
   "function_name" : "llvm::SmallVectorBase::empty",
   "linker_set_key" : "_ZNK4llvm15SmallVectorBase5emptyEv",
   "parameters" :
   [
    {
     "is_this_ptr" : true,
     "referenced_type" : "_ZTIPKN4llvm15SmallVectorBaseE"
    }
   ],
   "return_type" : "_ZTIb",
   "source_file" : "external/llvm/include/llvm/ADT/SmallVector.h"
  },
  {
   "function_name" : "llvm::StringMapEntryBase::getKeyLength",
   "linker_set_key" : "_ZNK4llvm18StringMapEntryBase12getKeyLengthEv",
   "parameters" :
   [
    {
     "is_this_ptr" : true,
     "referenced_type" : "_ZTIPKN4llvm18StringMapEntryBaseE"
    }
   ],
   "return_type" : "_ZTIj",
   "source_file" : "external/llvm/include/llvm/ADT/StringMap.h"
  },
  {
   "function_name" : "llvm::sys::MemoryBlock::base",
   "linker_set_key" : "_ZNK4llvm3sys11MemoryBlock4baseEv",
   "parameters" :
   [
    {
     "is_this_ptr" : true,
     "referenced_type" : "_ZTIPKN4llvm3sys11MemoryBlockE"
    }
   ],
   "return_type" : "_ZTIPv",
   "source_file" : "external/llvm/include/llvm/Support/Memory.h"
  },
  {
   "function_name" : "llvm::sys::MemoryBlock::size",
   "linker_set_key" : "_ZNK4llvm3sys11MemoryBlock4sizeEv",
   "parameters" :
   [
    {
     "is_this_ptr" : true,
     "referenced_type" : "_ZTIPKN4llvm3sys11MemoryBlockE"
    }
   ],
   "return_type" : "_ZTIj",
   "source_file" : "external/llvm/include/llvm/Support/Memory.h"
  },
  {
   "function_name" : "llvm::sys::OwningMemoryBlock::getMemoryBlock",
   "linker_set_key" : "_ZNK4llvm3sys17OwningMemoryBlock14getMemoryBlockEv",
   "parameters" :
   [
    {
     "is_this_ptr" : true,
     "referenced_type" : "_ZTIPKN4llvm3sys17OwningMemoryBlockE"
    }
   ],
   "return_type" : "_ZTIN4llvm3sys11MemoryBlockE",
   "source_file" : "external/llvm/include/llvm/Support/Memory.h"
  },
  {
   "function_name" : "llvm::sys::OwningMemoryBlock::base",
   "linker_set_key" : "_ZNK4llvm3sys17OwningMemoryBlock4baseEv",
   "parameters" :
   [
    {
     "is_this_ptr" : true,
     "referenced_type" : "_ZTIPKN4llvm3sys17OwningMemoryBlockE"
    }
   ],
   "return_type" : "_ZTIPv",
   "source_file" : "external/llvm/include/llvm/Support/Memory.h"
  },
  {
   "function_name" : "llvm::sys::OwningMemoryBlock::size",
   "linker_set_key" : "_ZNK4llvm3sys17OwningMemoryBlock4sizeEv",
   "parameters" :
   [
    {
     "is_this_ptr" : true,
     "referenced_type" : "_ZTIPKN4llvm3sys17OwningMemoryBlockE"
    }
   ],
   "return_type" : "_ZTIj",
   "source_file" : "external/llvm/include/llvm/Support/Memory.h"
  },
  {
   "function_name" : "llvm::ArrayRef<unsigned char>::end",
   "linker_set_key" : "_ZNK4llvm8ArrayRefIhE3endEv",
   "parameters" :
   [
    {
     "is_this_ptr" : true,
     "referenced_type" : "_ZTIPKN4llvm8ArrayRefIhEE"
    }
   ],
   "return_type" : "_ZTIPKh",
   "source_file" : "external/llvm/include/llvm/ADT/ArrayRef.h"
  },
  {
   "function_name" : "llvm::ArrayRef<unsigned char>::begin",
   "linker_set_key" : "_ZNK4llvm8ArrayRefIhE5beginEv",
   "parameters" :
   [
    {
     "is_this_ptr" : true,
     "referenced_type" : "_ZTIPKN4llvm8ArrayRefIhEE"
    }
   ],
   "return_type" : "_ZTIPKh",
   "source_file" : "external/llvm/include/llvm/ADT/ArrayRef.h"
  },
  {
   "function_name" : "llvm::StringRef::drop_front",
   "linker_set_key" : "_ZNK4llvm9StringRef10drop_frontEj",
   "parameters" :
   [
    {
     "is_this_ptr" : true,
     "referenced_type" : "_ZTIPKN4llvm9StringRefE"
    },
    {
     "default_arg" : true,
     "referenced_type" : "_ZTIj"
    }
   ],
   "return_type" : "_ZTIN4llvm9StringRefE",
   "source_file" : "external/llvm/include/llvm/ADT/StringRef.h"
  },
  {
   "function_name" : "llvm::StringRef::startswith",
   "linker_set_key" : "_ZNK4llvm9StringRef10startswithES0_",
   "parameters" :
   [
    {
     "is_this_ptr" : true,
     "referenced_type" : "_ZTIPKN4llvm9StringRefE"
    },
    {
     "referenced_type" : "_ZTIN4llvm9StringRefE"
    }
   ],
   "return_type" : "_ZTIb",
   "source_file" : "external/llvm/include/llvm/ADT/StringRef.h"
  },
  {
   "function_name" : "llvm::StringRef::bytes_begin",
   "linker_set_key" : "_ZNK4llvm9StringRef11bytes_beginEv",
   "parameters" :
   [
    {
     "is_this_ptr" : true,
     "referenced_type" : "_ZTIPKN4llvm9StringRefE"
    }
   ],
   "return_type" : "_ZTIPKh",
   "source_file" : "external/llvm/include/llvm/ADT/StringRef.h"
  },
  {
   "function_name" : "llvm::StringRef::equals_lower",
   "linker_set_key" : "_ZNK4llvm9StringRef12equals_lowerES0_",
   "parameters" :
   [
    {
     "is_this_ptr" : true,
     "referenced_type" : "_ZTIPKN4llvm9StringRefE"
    },
    {
     "referenced_type" : "_ZTIN4llvm9StringRefE"
    }
   ],
   "return_type" : "_ZTIb",
   "source_file" : "external/llvm/include/llvm/ADT/StringRef.h"
  },
  {
   "function_name" : "llvm::StringRef::find_last_of",
   "linker_set_key" : "_ZNK4llvm9StringRef12find_last_ofEcj",
   "parameters" :
   [
    {
     "is_this_ptr" : true,
     "referenced_type" : "_ZTIPKN4llvm9StringRefE"
    },
    {
     "referenced_type" : "_ZTIc"
    },
    {
     "default_arg" : true,
     "referenced_type" : "_ZTIj"
    }
   ],
   "return_type" : "_ZTIj",
   "source_file" : "external/llvm/include/llvm/ADT/StringRef.h"
  },
  {
   "function_name" : "llvm::StringRef::find_first_of",
   "linker_set_key" : "_ZNK4llvm9StringRef13find_first_ofEcj",
   "parameters" :
   [
    {
     "is_this_ptr" : true,
     "referenced_type" : "_ZTIPKN4llvm9StringRefE"
    },
    {
     "referenced_type" : "_ZTIc"
    },
    {
     "default_arg" : true,
     "referenced_type" : "_ZTIj"
    }
   ],
   "return_type" : "_ZTIj",
   "source_file" : "external/llvm/include/llvm/ADT/StringRef.h"
  },
  {
   "function_name" : "llvm::StringRef::end",
   "linker_set_key" : "_ZNK4llvm9StringRef3endEv",
   "parameters" :
   [
    {
     "is_this_ptr" : true,
     "referenced_type" : "_ZTIPKN4llvm9StringRefE"
    }
   ],
   "return_type" : "_ZTIPKc",
   "source_file" : "external/llvm/include/llvm/ADT/StringRef.h"
  },
  {
   "function_name" : "llvm::StringRef::str",
   "linker_set_key" : "_ZNK4llvm9StringRef3strEv",
   "parameters" :
   [
    {
     "is_this_ptr" : true,
     "referenced_type" : "_ZTIPKN4llvm9StringRefE"
    }
   ],
   "return_type" : "_ZTINSt3__112basic_stringIcNS_11char_traitsIcEENS_9allocatorIcEEEE",
   "source_file" : "external/llvm/include/llvm/ADT/StringRef.h"
  },
  {
   "function_name" : "llvm::StringRef::back",
   "linker_set_key" : "_ZNK4llvm9StringRef4backEv",
   "parameters" :
   [
    {
     "is_this_ptr" : true,
     "referenced_type" : "_ZTIPKN4llvm9StringRefE"
    }
   ],
   "return_type" : "_ZTIc",
   "source_file" : "external/llvm/include/llvm/ADT/StringRef.h"
  },
  {
   "function_name" : "llvm::StringRef::data",
   "linker_set_key" : "_ZNK4llvm9StringRef4dataEv",
   "parameters" :
   [
    {
     "is_this_ptr" : true,
     "referenced_type" : "_ZTIPKN4llvm9StringRefE"
    }
   ],
   "return_type" : "_ZTIPKc",
   "source_file" : "external/llvm/include/llvm/ADT/StringRef.h"
  },
  {
   "function_name" : "llvm::StringRef::find",
   "linker_set_key" : "_ZNK4llvm9StringRef4findEcj",
   "parameters" :
   [
    {
     "is_this_ptr" : true,
     "referenced_type" : "_ZTIPKN4llvm9StringRefE"
    },
    {
     "referenced_type" : "_ZTIc"
    },
    {
     "default_arg" : true,
     "referenced_type" : "_ZTIj"
    }
   ],
   "return_type" : "_ZTIj",
   "source_file" : "external/llvm/include/llvm/ADT/StringRef.h"
  },
  {
   "function_name" : "llvm::StringRef::size",
   "linker_set_key" : "_ZNK4llvm9StringRef4sizeEv",
   "parameters" :
   [
    {
     "is_this_ptr" : true,
     "referenced_type" : "_ZTIPKN4llvm9StringRefE"
    }
   ],
   "return_type" : "_ZTIj",
   "source_file" : "external/llvm/include/llvm/ADT/StringRef.h"
  },
  {
   "function_name" : "llvm::StringRef::trim",
   "linker_set_key" : "_ZNK4llvm9StringRef4trimES0_",
   "parameters" :
   [
    {
     "is_this_ptr" : true,
     "referenced_type" : "_ZTIPKN4llvm9StringRefE"
    },
    {
     "default_arg" : true,
     "referenced_type" : "_ZTIN4llvm9StringRefE"
    }
   ],
   "return_type" : "_ZTIN4llvm9StringRefE",
   "source_file" : "external/llvm/include/llvm/ADT/StringRef.h"
  },
  {
   "function_name" : "llvm::StringRef::trim",
   "linker_set_key" : "_ZNK4llvm9StringRef4trimEc",
   "parameters" :
   [
    {
     "is_this_ptr" : true,
     "referenced_type" : "_ZTIPKN4llvm9StringRefE"
    },
    {
     "referenced_type" : "_ZTIc"
    }
   ],
   "return_type" : "_ZTIN4llvm9StringRefE",
   "source_file" : "external/llvm/include/llvm/ADT/StringRef.h"
  },
  {
   "function_name" : "llvm::StringRef::begin",
   "linker_set_key" : "_ZNK4llvm9StringRef5beginEv",
   "parameters" :
   [
    {
     "is_this_ptr" : true,
     "referenced_type" : "_ZTIPKN4llvm9StringRefE"
    }
   ],
   "return_type" : "_ZTIPKc",
   "source_file" : "external/llvm/include/llvm/ADT/StringRef.h"
  },
  {
   "function_name" : "llvm::StringRef::bytes",
   "linker_set_key" : "_ZNK4llvm9StringRef5bytesEv",
   "parameters" :
   [
    {
     "is_this_ptr" : true,
     "referenced_type" : "_ZTIPKN4llvm9StringRefE"
    }
   ],
   "return_type" : "_ZTIN4llvm14iterator_rangeIPKhEE",
   "source_file" : "external/llvm/include/llvm/ADT/StringRef.h"
  },
  {
   "function_name" : "llvm::StringRef::count",
   "linker_set_key" : "_ZNK4llvm9StringRef5countEc",
   "parameters" :
   [
    {
     "is_this_ptr" : true,
     "referenced_type" : "_ZTIPKN4llvm9StringRefE"
    },
    {
     "referenced_type" : "_ZTIc"
    }
   ],
   "return_type" : "_ZTIj",
   "source_file" : "external/llvm/include/llvm/ADT/StringRef.h"
  },
  {
   "function_name" : "llvm::StringRef::empty",
   "linker_set_key" : "_ZNK4llvm9StringRef5emptyEv",
   "parameters" :
   [
    {
     "is_this_ptr" : true,
     "referenced_type" : "_ZTIPKN4llvm9StringRefE"
    }
   ],
   "return_type" : "_ZTIb",
   "source_file" : "external/llvm/include/llvm/ADT/StringRef.h"
  },
  {
   "function_name" : "llvm::StringRef::front",
   "linker_set_key" : "_ZNK4llvm9StringRef5frontEv",
   "parameters" :
   [
    {
     "is_this_ptr" : true,
     "referenced_type" : "_ZTIPKN4llvm9StringRefE"
    }
   ],
   "return_type" : "_ZTIc",
   "source_file" : "external/llvm/include/llvm/ADT/StringRef.h"
  },
  {
   "function_name" : "llvm::StringRef::ltrim",
   "linker_set_key" : "_ZNK4llvm9StringRef5ltrimES0_",
   "parameters" :
   [
    {
     "is_this_ptr" : true,
     "referenced_type" : "_ZTIPKN4llvm9StringRefE"
    },
    {
     "default_arg" : true,
     "referenced_type" : "_ZTIN4llvm9StringRefE"
    }
   ],
   "return_type" : "_ZTIN4llvm9StringRefE",
   "source_file" : "external/llvm/include/llvm/ADT/StringRef.h"
  },
  {
   "function_name" : "llvm::StringRef::ltrim",
   "linker_set_key" : "_ZNK4llvm9StringRef5ltrimEc",
   "parameters" :
   [
    {
     "is_this_ptr" : true,
     "referenced_type" : "_ZTIPKN4llvm9StringRefE"
    },
    {
     "referenced_type" : "_ZTIc"
    }
   ],
   "return_type" : "_ZTIN4llvm9StringRefE",
   "source_file" : "external/llvm/include/llvm/ADT/StringRef.h"
  },
  {
   "function_name" : "llvm::StringRef::rfind",
   "linker_set_key" : "_ZNK4llvm9StringRef5rfindEcj",
   "parameters" :
   [
    {
     "is_this_ptr" : true,
     "referenced_type" : "_ZTIPKN4llvm9StringRefE"
    },
    {
     "referenced_type" : "_ZTIc"
    },
    {
     "default_arg" : true,
     "referenced_type" : "_ZTIj"
    }
   ],
   "return_type" : "_ZTIj",
   "source_file" : "external/llvm/include/llvm/ADT/StringRef.h"
  },
  {
   "function_name" : "llvm::StringRef::rtrim",
   "linker_set_key" : "_ZNK4llvm9StringRef5rtrimES0_",
   "parameters" :
   [
    {
     "is_this_ptr" : true,
     "referenced_type" : "_ZTIPKN4llvm9StringRefE"
    },
    {
     "default_arg" : true,
     "referenced_type" : "_ZTIN4llvm9StringRefE"
    }
   ],
   "return_type" : "_ZTIN4llvm9StringRefE",
   "source_file" : "external/llvm/include/llvm/ADT/StringRef.h"
  },
  {
   "function_name" : "llvm::StringRef::rtrim",
   "linker_set_key" : "_ZNK4llvm9StringRef5rtrimEc",
   "parameters" :
   [
    {
     "is_this_ptr" : true,
     "referenced_type" : "_ZTIPKN4llvm9StringRefE"
    },
    {
     "referenced_type" : "_ZTIc"
    }
   ],
   "return_type" : "_ZTIN4llvm9StringRefE",
   "source_file" : "external/llvm/include/llvm/ADT/StringRef.h"
  },
  {
   "function_name" : "llvm::StringRef::slice",
   "linker_set_key" : "_ZNK4llvm9StringRef5sliceEjj",
   "parameters" :
   [
    {
     "is_this_ptr" : true,
     "referenced_type" : "_ZTIPKN4llvm9StringRefE"
    },
    {
     "referenced_type" : "_ZTIj"
    },
    {
     "referenced_type" : "_ZTIj"
    }
   ],
   "return_type" : "_ZTIN4llvm9StringRefE",
   "source_file" : "external/llvm/include/llvm/ADT/StringRef.h"
  },
  {
   "function_name" : "llvm::StringRef::split",
   "linker_set_key" : "_ZNK4llvm9StringRef5splitES0_",
   "parameters" :
   [
    {
     "is_this_ptr" : true,
     "referenced_type" : "_ZTIPKN4llvm9StringRefE"
    },
    {
     "referenced_type" : "_ZTIN4llvm9StringRefE"
    }
   ],
   "return_type" : "_ZTINSt3__14pairIN4llvm9StringRefES2_EE",
   "source_file" : "external/llvm/include/llvm/ADT/StringRef.h"
  },
  {
   "function_name" : "llvm::StringRef::split",
   "linker_set_key" : "_ZNK4llvm9StringRef5splitEc",
   "parameters" :
   [
    {
     "is_this_ptr" : true,
     "referenced_type" : "_ZTIPKN4llvm9StringRefE"
    },
    {
     "referenced_type" : "_ZTIc"
    }
   ],
   "return_type" : "_ZTINSt3__14pairIN4llvm9StringRefES2_EE",
   "source_file" : "external/llvm/include/llvm/ADT/StringRef.h"
  },
  {
   "function_name" : "llvm::StringRef::equals",
   "linker_set_key" : "_ZNK4llvm9StringRef6equalsES0_",
   "parameters" :
   [
    {
     "is_this_ptr" : true,
     "referenced_type" : "_ZTIPKN4llvm9StringRefE"
    },
    {
     "referenced_type" : "_ZTIN4llvm9StringRefE"
    }
   ],
   "return_type" : "_ZTIb",
   "source_file" : "external/llvm/include/llvm/ADT/StringRef.h"
  },
  {
   "function_name" : "llvm::StringRef::rsplit",
   "linker_set_key" : "_ZNK4llvm9StringRef6rsplitEc",
   "parameters" :
   [
    {
     "is_this_ptr" : true,
     "referenced_type" : "_ZTIPKN4llvm9StringRefE"
    },
    {
     "referenced_type" : "_ZTIc"
    }
   ],
   "return_type" : "_ZTINSt3__14pairIN4llvm9StringRefES2_EE",
   "source_file" : "external/llvm/include/llvm/ADT/StringRef.h"
  },
  {
   "function_name" : "llvm::StringRef::substr",
   "linker_set_key" : "_ZNK4llvm9StringRef6substrEjj",
   "parameters" :
   [
    {
     "is_this_ptr" : true,
     "referenced_type" : "_ZTIPKN4llvm9StringRefE"
    },
    {
     "referenced_type" : "_ZTIj"
    },
    {
     "default_arg" : true,
     "referenced_type" : "_ZTIj"
    }
   ],
   "return_type" : "_ZTIN4llvm9StringRefE",
   "source_file" : "external/llvm/include/llvm/ADT/StringRef.h"
  },
  {
   "function_name" : "llvm::StringRef::compare",
   "linker_set_key" : "_ZNK4llvm9StringRef7compareES0_",
   "parameters" :
   [
    {
     "is_this_ptr" : true,
     "referenced_type" : "_ZTIPKN4llvm9StringRefE"
    },
    {
     "referenced_type" : "_ZTIN4llvm9StringRefE"
    }
   ],
   "return_type" : "_ZTIi",
   "source_file" : "external/llvm/include/llvm/ADT/StringRef.h"
  },
  {
   "function_name" : "llvm::StringRef::endswith",
   "linker_set_key" : "_ZNK4llvm9StringRef8endswithES0_",
   "parameters" :
   [
    {
     "is_this_ptr" : true,
     "referenced_type" : "_ZTIPKN4llvm9StringRefE"
    },
    {
     "referenced_type" : "_ZTIN4llvm9StringRefE"
    }
   ],
   "return_type" : "_ZTIb",
   "source_file" : "external/llvm/include/llvm/ADT/StringRef.h"
  },
  {
   "function_name" : "llvm::StringRef::bytes_end",
   "linker_set_key" : "_ZNK4llvm9StringRef9bytes_endEv",
   "parameters" :
   [
    {
     "is_this_ptr" : true,
     "referenced_type" : "_ZTIPKN4llvm9StringRefE"
    }
   ],
   "return_type" : "_ZTIPKh",
   "source_file" : "external/llvm/include/llvm/ADT/StringRef.h"
  },
  {
   "function_name" : "llvm::StringRef::drop_back",
   "linker_set_key" : "_ZNK4llvm9StringRef9drop_backEj",
   "parameters" :
   [
    {
     "is_this_ptr" : true,
     "referenced_type" : "_ZTIPKN4llvm9StringRefE"
    },
    {
     "default_arg" : true,
     "referenced_type" : "_ZTIj"
    }
   ],
   "return_type" : "_ZTIN4llvm9StringRefE",
   "source_file" : "external/llvm/include/llvm/ADT/StringRef.h"
  },
  {
   "function_name" : "llvm::StringRef::operator basic_string",
   "linker_set_key" : "_ZNK4llvm9StringRefcvNSt3__112basic_stringIcNS1_11char_traitsIcEENS1_9allocatorIcEEEEEv",
   "parameters" :
   [
    {
     "is_this_ptr" : true,
     "referenced_type" : "_ZTIPKN4llvm9StringRefE"
    }
   ],
   "return_type" : "_ZTINSt3__112basic_stringIcNS_11char_traitsIcEENS_9allocatorIcEEEE",
   "source_file" : "external/llvm/include/llvm/ADT/StringRef.h"
  },
  {
   "function_name" : "llvm::StringRef::operator[]",
   "linker_set_key" : "_ZNK4llvm9StringRefixEj",
   "parameters" :
   [
    {
     "is_this_ptr" : true,
     "referenced_type" : "_ZTIPKN4llvm9StringRefE"
    },
    {
     "referenced_type" : "_ZTIj"
    }
   ],
   "return_type" : "_ZTIc",
   "source_file" : "external/llvm/include/llvm/ADT/StringRef.h"
  },
  {
   "function_name" : "llvm::hash_code::operator unsigned int",
   "linker_set_key" : "_ZNK4llvm9hash_codecvjEv",
   "parameters" :
   [
    {
     "is_this_ptr" : true,
     "referenced_type" : "_ZTIPKN4llvm9hash_codeE"
    }
   ],
   "return_type" : "_ZTIj",
   "source_file" : "external/llvm/include/llvm/ADT/Hashing.h"
  },
  {
   "function_name" : "std::exception_ptr::operator bool",
   "linker_set_key" : "_ZNKSt13exception_ptrcvbEv",
   "parameters" :
   [
    {
     "is_this_ptr" : true,
     "referenced_type" : "_ZTIPKSt13exception_ptr"
    }
   ],
   "return_type" : "_ZTIb",
   "source_file" : "external/libcxx/include/exception"
  },
  {
   "function_name" : "std::nested_exception::nested_ptr",
   "linker_set_key" : "_ZNKSt16nested_exception10nested_ptrEv",
   "parameters" :
   [
    {
     "is_this_ptr" : true,
     "referenced_type" : "_ZTIPKSt16nested_exception"
    }
   ],
   "return_type" : "_ZTISt13exception_ptr",
   "source_file" : "external/libcxx/include/exception"
  },
  {
   "function_name" : "std::__1::error_code::default_error_condition",
   "linker_set_key" : "_ZNKSt3__110error_code23default_error_conditionEv",
   "parameters" :
   [
    {
     "is_this_ptr" : true,
     "referenced_type" : "_ZTIPKNSt3__110error_codeE"
    }
   ],
   "return_type" : "_ZTINSt3__115error_conditionE",
   "source_file" : "external/libcxx/include/system_error"
  },
  {
   "function_name" : "std::__1::error_code::value",
   "linker_set_key" : "_ZNKSt3__110error_code5valueEv",
   "parameters" :
   [
    {
     "is_this_ptr" : true,
     "referenced_type" : "_ZTIPKNSt3__110error_codeE"
    }
   ],
   "return_type" : "_ZTIi",
   "source_file" : "external/libcxx/include/system_error"
  },
  {
   "function_name" : "std::__1::error_code::category",
   "linker_set_key" : "_ZNKSt3__110error_code8categoryEv",
   "parameters" :
   [
    {
     "is_this_ptr" : true,
     "referenced_type" : "_ZTIPKNSt3__110error_codeE"
    }
   ],
   "return_type" : "_ZTIRKNSt3__114error_categoryE",
   "source_file" : "external/libcxx/include/system_error"
  },
  {
   "function_name" : "std::__1::error_code::operator bool",
   "linker_set_key" : "_ZNKSt3__110error_codecvbEv",
   "parameters" :
   [
    {
     "is_this_ptr" : true,
     "referenced_type" : "_ZTIPKNSt3__110error_codeE"
    }
   ],
   "return_type" : "_ZTIb",
   "source_file" : "external/libcxx/include/system_error"
  },
  {
   "access" : "private",
   "function_name" : "std::__1::basic_string<char, std::__1::char_traits<char>, std::__1::allocator<char>>::__get_pointer",
   "linker_set_key" : "_ZNKSt3__112basic_stringIcNS_11char_traitsIcEENS_9allocatorIcEEE13__get_pointerEv",
   "parameters" :
   [
    {
     "is_this_ptr" : true,
     "referenced_type" : "_ZTIPKNSt3__112basic_stringIcNS_11char_traitsIcEENS_9allocatorIcEEEE"
    }
   ],
   "return_type" : "_ZTIPKc",
   "source_file" : "external/libcxx/include/string"
  },
  {
   "access" : "private",
   "function_name" : "std::__1::basic_string<char, std::__1::char_traits<char>, std::__1::allocator<char>>::__get_long_cap",
   "linker_set_key" : "_ZNKSt3__112basic_stringIcNS_11char_traitsIcEENS_9allocatorIcEEE14__get_long_capEv",
   "parameters" :
   [
    {
     "is_this_ptr" : true,
     "referenced_type" : "_ZTIPKNSt3__112basic_stringIcNS_11char_traitsIcEENS_9allocatorIcEEEE"
    }
   ],
   "return_type" : "_ZTIj",
   "source_file" : "external/libcxx/include/string"
  },
  {
   "access" : "private",
   "function_name" : "std::__1::basic_string<char, std::__1::char_traits<char>, std::__1::allocator<char>>::__get_long_size",
   "linker_set_key" : "_ZNKSt3__112basic_stringIcNS_11char_traitsIcEENS_9allocatorIcEEE15__get_long_sizeEv",
   "parameters" :
   [
    {
     "is_this_ptr" : true,
     "referenced_type" : "_ZTIPKNSt3__112basic_stringIcNS_11char_traitsIcEENS_9allocatorIcEEEE"
    }
   ],
   "return_type" : "_ZTIj",
   "source_file" : "external/libcxx/include/string"
  },
  {
   "access" : "private",
   "function_name" : "std::__1::basic_string<char, std::__1::char_traits<char>, std::__1::allocator<char>>::__get_short_size",
   "linker_set_key" : "_ZNKSt3__112basic_stringIcNS_11char_traitsIcEENS_9allocatorIcEEE16__get_short_sizeEv",
   "parameters" :
   [
    {
     "is_this_ptr" : true,
     "referenced_type" : "_ZTIPKNSt3__112basic_stringIcNS_11char_traitsIcEENS_9allocatorIcEEEE"
    }
   ],
   "return_type" : "_ZTIj",
   "source_file" : "external/libcxx/include/string"
  },
  {
   "access" : "private",
   "function_name" : "std::__1::basic_string<char, std::__1::char_traits<char>, std::__1::allocator<char>>::__get_long_pointer",
   "linker_set_key" : "_ZNKSt3__112basic_stringIcNS_11char_traitsIcEENS_9allocatorIcEEE18__get_long_pointerEv",
   "parameters" :
   [
    {
     "is_this_ptr" : true,
     "referenced_type" : "_ZTIPKNSt3__112basic_stringIcNS_11char_traitsIcEENS_9allocatorIcEEEE"
    }
   ],
   "return_type" : "_ZTIPKc",
   "source_file" : "external/libcxx/include/string"
  },
  {
   "access" : "private",
   "function_name" : "std::__1::basic_string<char, std::__1::char_traits<char>, std::__1::allocator<char>>::__get_short_pointer",
   "linker_set_key" : "_ZNKSt3__112basic_stringIcNS_11char_traitsIcEENS_9allocatorIcEEE19__get_short_pointerEv",
   "parameters" :
   [
    {
     "is_this_ptr" : true,
     "referenced_type" : "_ZTIPKNSt3__112basic_stringIcNS_11char_traitsIcEENS_9allocatorIcEEEE"
    }
   ],
   "return_type" : "_ZTIPKc",
   "source_file" : "external/libcxx/include/string"
  },
  {
   "function_name" : "std::__1::basic_string<char, std::__1::char_traits<char>, std::__1::allocator<char>>::data",
   "linker_set_key" : "_ZNKSt3__112basic_stringIcNS_11char_traitsIcEENS_9allocatorIcEEE4dataEv",
   "parameters" :
   [
    {
     "is_this_ptr" : true,
     "referenced_type" : "_ZTIPKNSt3__112basic_stringIcNS_11char_traitsIcEENS_9allocatorIcEEEE"
    }
   ],
   "return_type" : "_ZTIPKc",
   "source_file" : "external/libcxx/include/string"
  },
  {
   "function_name" : "std::__1::basic_string<char, std::__1::char_traits<char>, std::__1::allocator<char>>::size",
   "linker_set_key" : "_ZNKSt3__112basic_stringIcNS_11char_traitsIcEENS_9allocatorIcEEE4sizeEv",
   "parameters" :
   [
    {
     "is_this_ptr" : true,
     "referenced_type" : "_ZTIPKNSt3__112basic_stringIcNS_11char_traitsIcEENS_9allocatorIcEEEE"
    }
   ],
   "return_type" : "_ZTIj",
   "source_file" : "external/libcxx/include/string"
  },
  {
   "function_name" : "std::__1::basic_string<char, std::__1::char_traits<char>, std::__1::allocator<char>>::length",
   "linker_set_key" : "_ZNKSt3__112basic_stringIcNS_11char_traitsIcEENS_9allocatorIcEEE6lengthEv",
   "parameters" :
   [
    {
     "is_this_ptr" : true,
     "referenced_type" : "_ZTIPKNSt3__112basic_stringIcNS_11char_traitsIcEENS_9allocatorIcEEEE"
    }
   ],
   "return_type" : "_ZTIj",
   "source_file" : "external/libcxx/include/string"
  },
  {
   "access" : "private",
   "function_name" : "std::__1::basic_string<char, std::__1::char_traits<char>, std::__1::allocator<char>>::__alloc",
   "linker_set_key" : "_ZNKSt3__112basic_stringIcNS_11char_traitsIcEENS_9allocatorIcEEE7__allocEv",
   "parameters" :
   [
    {
     "is_this_ptr" : true,
     "referenced_type" : "_ZTIPKNSt3__112basic_stringIcNS_11char_traitsIcEENS_9allocatorIcEEEE"
    }
   ],
   "return_type" : "_ZTIRKNSt3__19allocatorIcEE",
   "source_file" : "external/libcxx/include/string"
  },
  {
   "function_name" : "std::__1::basic_string<char, std::__1::char_traits<char>, std::__1::allocator<char>>::max_size",
   "linker_set_key" : "_ZNKSt3__112basic_stringIcNS_11char_traitsIcEENS_9allocatorIcEEE8max_sizeEv",
   "parameters" :
   [
    {
     "is_this_ptr" : true,
     "referenced_type" : "_ZTIPKNSt3__112basic_stringIcNS_11char_traitsIcEENS_9allocatorIcEEEE"
    }
   ],
   "return_type" : "_ZTIj",
   "source_file" : "external/libcxx/include/string"
  },
  {
   "function_name" : "std::__1::basic_string<char, std::__1::char_traits<char>, std::__1::allocator<char>>::__is_long",
   "linker_set_key" : "_ZNKSt3__112basic_stringIcNS_11char_traitsIcEENS_9allocatorIcEEE9__is_longEv",
   "parameters" :
   [
    {
     "is_this_ptr" : true,
     "referenced_type" : "_ZTIPKNSt3__112basic_stringIcNS_11char_traitsIcEENS_9allocatorIcEEEE"
    }
   ],
   "return_type" : "_ZTIb",
   "source_file" : "external/libcxx/include/string"
  },
  {
   "function_name" : "std::__1::system_error::code",
   "linker_set_key" : "_ZNKSt3__112system_error4codeEv",
   "parameters" :
   [
    {
     "is_this_ptr" : true,
     "referenced_type" : "_ZTIPKNSt3__112system_errorE"
    }
   ],
   "return_type" : "_ZTIRKNSt3__110error_codeE",
   "source_file" : "external/libcxx/include/system_error"
  },
  {
   "function_name" : "std::__1::__scalar_hash<std::__1::_PairT, 2>::operator()",
   "linker_set_key" : "_ZNKSt3__113__scalar_hashINS_6_PairTELj2EEclES1_",
   "parameters" :
   [
    {
     "is_this_ptr" : true,
     "referenced_type" : "_ZTIPKNSt3__113__scalar_hashINS_6_PairTELj2EEE"
    },
    {
     "referenced_type" : "_ZTINSt3__16_PairTE"
    }
   ],
   "return_type" : "_ZTIj",
   "source_file" : "external/libcxx/include/utility"
  },
  {
   "function_name" : "std::__1::__scalar_hash<double, 2>::operator()",
   "linker_set_key" : "_ZNKSt3__113__scalar_hashIdLj2EEclEd",
   "parameters" :
   [
    {
     "is_this_ptr" : true,
     "referenced_type" : "_ZTIPKNSt3__113__scalar_hashIdLj2EEE"
    },
    {
     "referenced_type" : "_ZTId"
    }
   ],
   "return_type" : "_ZTIj",
   "source_file" : "external/libcxx/include/utility"
  },
  {
   "function_name" : "std::__1::__scalar_hash<long double, 2>::operator()",
   "linker_set_key" : "_ZNKSt3__113__scalar_hashIeLj2EEclEe",
   "parameters" :
   [
    {
     "is_this_ptr" : true,
     "referenced_type" : "_ZTIPKNSt3__113__scalar_hashIeLj2EEE"
    },
    {
     "referenced_type" : "_ZTIe"
    }
   ],
   "return_type" : "_ZTIj",
   "source_file" : "external/libcxx/include/utility"
  },
  {
   "function_name" : "std::__1::__scalar_hash<float, 1>::operator()",
   "linker_set_key" : "_ZNKSt3__113__scalar_hashIfLj1EEclEf",
   "parameters" :
   [
    {
     "is_this_ptr" : true,
     "referenced_type" : "_ZTIPKNSt3__113__scalar_hashIfLj1EEE"
    },
    {
     "referenced_type" : "_ZTIf"
    }
   ],
   "return_type" : "_ZTIj",
   "source_file" : "external/libcxx/include/utility"
  },
  {
   "function_name" : "std::__1::__shared_count::use_count",
   "linker_set_key" : "_ZNKSt3__114__shared_count9use_countEv",
   "parameters" :
   [
    {
     "is_this_ptr" : true,
     "referenced_type" : "_ZTIPKNSt3__114__shared_countE"
    }
   ],
   "return_type" : "_ZTIl",
   "source_file" : "external/libcxx/include/memory"
  },
  {
   "function_name" : "std::__1::error_category::operator==",
   "linker_set_key" : "_ZNKSt3__114error_categoryeqERKS0_",
   "parameters" :
   [
    {
     "is_this_ptr" : true,
     "referenced_type" : "_ZTIPKNSt3__114error_categoryE"
    },
    {
     "referenced_type" : "_ZTIRKNSt3__114error_categoryE"
    }
   ],
   "return_type" : "_ZTIb",
   "source_file" : "external/libcxx/include/system_error"
  },
  {
   "function_name" : "std::__1::error_category::operator<",
   "linker_set_key" : "_ZNKSt3__114error_categoryltERKS0_",
   "parameters" :
   [
    {
     "is_this_ptr" : true,
     "referenced_type" : "_ZTIPKNSt3__114error_categoryE"
    },
    {
     "referenced_type" : "_ZTIRKNSt3__114error_categoryE"
    }
   ],
   "return_type" : "_ZTIb",
   "source_file" : "external/libcxx/include/system_error"
  },
  {
   "function_name" : "std::__1::error_category::operator!=",
   "linker_set_key" : "_ZNKSt3__114error_categoryneERKS0_",
   "parameters" :
   [
    {
     "is_this_ptr" : true,
     "referenced_type" : "_ZTIPKNSt3__114error_categoryE"
    },
    {
     "referenced_type" : "_ZTIRKNSt3__114error_categoryE"
    }
   ],
   "return_type" : "_ZTIb",
   "source_file" : "external/libcxx/include/system_error"
  },
  {
   "function_name" : "std::__1::pointer_safety::operator int",
   "linker_set_key" : "_ZNKSt3__114pointer_safetycviEv",
   "parameters" :
   [
    {
     "is_this_ptr" : true,
     "referenced_type" : "_ZTIPKNSt3__114pointer_safetyE"
    }
   ],
   "return_type" : "_ZTIi",
   "source_file" : "external/libcxx/include/memory"
  },
  {
   "function_name" : "std::__1::error_condition::value",
   "linker_set_key" : "_ZNKSt3__115error_condition5valueEv",
   "parameters" :
   [
    {
     "is_this_ptr" : true,
     "referenced_type" : "_ZTIPKNSt3__115error_conditionE"
    }
   ],
   "return_type" : "_ZTIi",
   "source_file" : "external/libcxx/include/system_error"
  },
  {
   "function_name" : "std::__1::error_condition::category",
   "linker_set_key" : "_ZNKSt3__115error_condition8categoryEv",
   "parameters" :
   [
    {
     "is_this_ptr" : true,
     "referenced_type" : "_ZTIPKNSt3__115error_conditionE"
    }
   ],
   "return_type" : "_ZTIRKNSt3__114error_categoryE",
   "source_file" : "external/libcxx/include/system_error"
  },
  {
   "function_name" : "std::__1::error_condition::operator bool",
   "linker_set_key" : "_ZNKSt3__115error_conditioncvbEv",
   "parameters" :
   [
    {
     "is_this_ptr" : true,
     "referenced_type" : "_ZTIPKNSt3__115error_conditionE"
    }
   ],
   "return_type" : "_ZTIb",
   "source_file" : "external/libcxx/include/system_error"
  },
  {
   "function_name" : "std::__1::__compressed_pair<std::__1::basic_string<char, std::__1::char_traits<char>, std::__1::allocator<char>>::__rep, std::__1::allocator<char>>::first",
   "linker_set_key" : "_ZNKSt3__117__compressed_pairINS_12basic_stringIcNS_11char_traitsIcEENS_9allocatorIcEEE5__repES5_E5firstEv",
   "parameters" :
   [
    {
     "is_this_ptr" : true,
     "referenced_type" : "_ZTIPKNSt3__117__compressed_pairINS_12basic_stringIcNS_11char_traitsIcEENS_9allocatorIcEEE5__repES5_EE"
    }
   ],
   "return_type" : "_ZTIRKNSt3__112basic_stringIcNS_11char_traitsIcEENS_9allocatorIcEEE5__repE",
   "source_file" : "external/libcxx/include/memory"
  },
  {
   "function_name" : "std::__1::__compressed_pair<std::__1::basic_string<char, std::__1::char_traits<char>, std::__1::allocator<char>>::__rep, std::__1::allocator<char>>::second",
   "linker_set_key" : "_ZNKSt3__117__compressed_pairINS_12basic_stringIcNS_11char_traitsIcEENS_9allocatorIcEEE5__repES5_E6secondEv",
   "parameters" :
   [
    {
     "is_this_ptr" : true,
     "referenced_type" : "_ZTIPKNSt3__117__compressed_pairINS_12basic_stringIcNS_11char_traitsIcEENS_9allocatorIcEEE5__repES5_EE"
    }
   ],
   "return_type" : "_ZTIRKNSt3__19allocatorIcEE",
   "source_file" : "external/libcxx/include/memory"
  },
  {
   "function_name" : "std::__1::__libcpp_refstring::c_str",
   "linker_set_key" : "_ZNKSt3__118__libcpp_refstring5c_strEv",
   "parameters" :
   [
    {
     "is_this_ptr" : true,
     "referenced_type" : "_ZTIPKNSt3__118__libcpp_refstringE"
    }
   ],
   "return_type" : "_ZTIPKc",
   "source_file" : "external/libcxx/include/stdexcept"
  },
  {
   "function_name" : "std::__1::__shared_weak_count::use_count",
   "linker_set_key" : "_ZNKSt3__119__shared_weak_count9use_countEv",
   "parameters" :
   [
    {
     "is_this_ptr" : true,
     "referenced_type" : "_ZTIPKNSt3__119__shared_weak_countE"
    }
   ],
   "return_type" : "_ZTIl",
   "source_file" : "external/libcxx/include/memory"
  },
  {
   "function_name" : "std::__1::__compressed_pair_elem<std::__1::basic_string<char, std::__1::char_traits<char>, std::__1::allocator<char>>::__rep, 0, false>::__get",
   "linker_set_key" : "_ZNKSt3__122__compressed_pair_elemINS_12basic_stringIcNS_11char_traitsIcEENS_9allocatorIcEEE5__repELi0ELb0EE5__getEv",
   "parameters" :
   [
    {
     "is_this_ptr" : true,
     "referenced_type" : "_ZTIPKNSt3__122__compressed_pair_elemINS_12basic_stringIcNS_11char_traitsIcEENS_9allocatorIcEEE5__repELi0ELb0EEE"
    }
   ],
   "return_type" : "_ZTIRKNSt3__112basic_stringIcNS_11char_traitsIcEENS_9allocatorIcEEE5__repE",
   "source_file" : "external/libcxx/include/memory"
  },
  {
   "function_name" : "std::__1::__compressed_pair_elem<std::__1::allocator<char>, 1, true>::__get",
   "linker_set_key" : "_ZNKSt3__122__compressed_pair_elemINS_9allocatorIcEELi1ELb1EE5__getEv",
   "parameters" :
   [
    {
     "is_this_ptr" : true,
     "referenced_type" : "_ZTIPKNSt3__122__compressed_pair_elemINS_9allocatorIcEELi1ELb1EEE"
    }
   ],
   "return_type" : "_ZTIRKNSt3__19allocatorIcEE",
   "source_file" : "external/libcxx/include/memory"
  },
  {
   "function_name" : "std::__1::hash<char32_t>::operator()",
   "linker_set_key" : "_ZNKSt3__14hashIDiEclEDi",
   "parameters" :
   [
    {
     "is_this_ptr" : true,
     "referenced_type" : "_ZTIPKNSt3__14hashIDiEE"
    },
    {
     "referenced_type" : "_ZTIDi"
    }
   ],
   "return_type" : "_ZTIj",
   "source_file" : "external/libcxx/include/utility"
  },
  {
   "function_name" : "std::__1::hash<char16_t>::operator()",
   "linker_set_key" : "_ZNKSt3__14hashIDsEclEDs",
   "parameters" :
   [
    {
     "is_this_ptr" : true,
     "referenced_type" : "_ZTIPKNSt3__14hashIDsEE"
    },
    {
     "referenced_type" : "_ZTIDs"
    }
   ],
   "return_type" : "_ZTIj",
   "source_file" : "external/libcxx/include/utility"
  },
  {
   "function_name" : "std::__1::hash<std::__1::error_code>::operator()",
   "linker_set_key" : "_ZNKSt3__14hashINS_10error_codeEEclERKS1_",
   "parameters" :
   [
    {
     "is_this_ptr" : true,
     "referenced_type" : "_ZTIPKNSt3__14hashINS_10error_codeEEE"
    },
    {
     "referenced_type" : "_ZTIRKNSt3__110error_codeE"
    }
   ],
   "return_type" : "_ZTIj",
   "source_file" : "external/libcxx/include/system_error"
  },
  {
   "function_name" : "std::__1::hash<std::__1::error_condition>::operator()",
   "linker_set_key" : "_ZNKSt3__14hashINS_15error_conditionEEclERKS1_",
   "parameters" :
   [
    {
     "is_this_ptr" : true,
     "referenced_type" : "_ZTIPKNSt3__14hashINS_15error_conditionEEE"
    },
    {
     "referenced_type" : "_ZTIRKNSt3__115error_conditionE"
    }
   ],
   "return_type" : "_ZTIj",
   "source_file" : "external/libcxx/include/system_error"
  },
  {
   "function_name" : "std::__1::hash<signed char>::operator()",
   "linker_set_key" : "_ZNKSt3__14hashIaEclEa",
   "parameters" :
   [
    {
     "is_this_ptr" : true,
     "referenced_type" : "_ZTIPKNSt3__14hashIaEE"
    },
    {
     "referenced_type" : "_ZTIa"
    }
   ],
   "return_type" : "_ZTIj",
   "source_file" : "external/libcxx/include/utility"
  },
  {
   "function_name" : "std::__1::hash<bool>::operator()",
   "linker_set_key" : "_ZNKSt3__14hashIbEclEb",
   "parameters" :
   [
    {
     "is_this_ptr" : true,
     "referenced_type" : "_ZTIPKNSt3__14hashIbEE"
    },
    {
     "referenced_type" : "_ZTIb"
    }
   ],
   "return_type" : "_ZTIj",
   "source_file" : "external/libcxx/include/utility"
  },
  {
   "function_name" : "std::__1::hash<char>::operator()",
   "linker_set_key" : "_ZNKSt3__14hashIcEclEc",
   "parameters" :
   [
    {
     "is_this_ptr" : true,
     "referenced_type" : "_ZTIPKNSt3__14hashIcEE"
    },
    {
     "referenced_type" : "_ZTIc"
    }
   ],
   "return_type" : "_ZTIj",
   "source_file" : "external/libcxx/include/utility"
  },
  {
   "function_name" : "std::__1::hash<double>::operator()",
   "linker_set_key" : "_ZNKSt3__14hashIdEclEd",
   "parameters" :
   [
    {
     "is_this_ptr" : true,
     "referenced_type" : "_ZTIPKNSt3__14hashIdEE"
    },
    {
     "referenced_type" : "_ZTId"
    }
   ],
   "return_type" : "_ZTIj",
   "source_file" : "external/libcxx/include/utility"
  },
  {
   "function_name" : "std::__1::hash<long double>::operator()",
   "linker_set_key" : "_ZNKSt3__14hashIeEclEe",
   "parameters" :
   [
    {
     "is_this_ptr" : true,
     "referenced_type" : "_ZTIPKNSt3__14hashIeEE"
    },
    {
     "referenced_type" : "_ZTIe"
    }
   ],
   "return_type" : "_ZTIj",
   "source_file" : "external/libcxx/include/utility"
  },
  {
   "function_name" : "std::__1::hash<float>::operator()",
   "linker_set_key" : "_ZNKSt3__14hashIfEclEf",
   "parameters" :
   [
    {
     "is_this_ptr" : true,
     "referenced_type" : "_ZTIPKNSt3__14hashIfEE"
    },
    {
     "referenced_type" : "_ZTIf"
    }
   ],
   "return_type" : "_ZTIj",
   "source_file" : "external/libcxx/include/utility"
  },
  {
   "function_name" : "std::__1::hash<unsigned char>::operator()",
   "linker_set_key" : "_ZNKSt3__14hashIhEclEh",
   "parameters" :
   [
    {
     "is_this_ptr" : true,
     "referenced_type" : "_ZTIPKNSt3__14hashIhEE"
    },
    {
     "referenced_type" : "_ZTIh"
    }
   ],
   "return_type" : "_ZTIj",
   "source_file" : "external/libcxx/include/utility"
  },
  {
   "function_name" : "std::__1::hash<int>::operator()",
   "linker_set_key" : "_ZNKSt3__14hashIiEclEi",
   "parameters" :
   [
    {
     "is_this_ptr" : true,
     "referenced_type" : "_ZTIPKNSt3__14hashIiEE"
    },
    {
     "referenced_type" : "_ZTIi"
    }
   ],
   "return_type" : "_ZTIj",
   "source_file" : "external/libcxx/include/utility"
  },
  {
   "function_name" : "std::__1::hash<unsigned int>::operator()",
   "linker_set_key" : "_ZNKSt3__14hashIjEclEj",
   "parameters" :
   [
    {
     "is_this_ptr" : true,
     "referenced_type" : "_ZTIPKNSt3__14hashIjEE"
    },
    {
     "referenced_type" : "_ZTIj"
    }
   ],
   "return_type" : "_ZTIj",
   "source_file" : "external/libcxx/include/utility"
  },
  {
   "function_name" : "std::__1::hash<long>::operator()",
   "linker_set_key" : "_ZNKSt3__14hashIlEclEl",
   "parameters" :
   [
    {
     "is_this_ptr" : true,
     "referenced_type" : "_ZTIPKNSt3__14hashIlEE"
    },
    {
     "referenced_type" : "_ZTIl"
    }
   ],
   "return_type" : "_ZTIj",
   "source_file" : "external/libcxx/include/utility"
  },
  {
   "function_name" : "std::__1::hash<unsigned long>::operator()",
   "linker_set_key" : "_ZNKSt3__14hashImEclEm",
   "parameters" :
   [
    {
     "is_this_ptr" : true,
     "referenced_type" : "_ZTIPKNSt3__14hashImEE"
    },
    {
     "referenced_type" : "_ZTIm"
    }
   ],
   "return_type" : "_ZTIj",
   "source_file" : "external/libcxx/include/utility"
  },
  {
   "function_name" : "std::__1::hash<short>::operator()",
   "linker_set_key" : "_ZNKSt3__14hashIsEclEs",
   "parameters" :
   [
    {
     "is_this_ptr" : true,
     "referenced_type" : "_ZTIPKNSt3__14hashIsEE"
    },
    {
     "referenced_type" : "_ZTIs"
    }
   ],
   "return_type" : "_ZTIj",
   "source_file" : "external/libcxx/include/utility"
  },
  {
   "function_name" : "std::__1::hash<unsigned short>::operator()",
   "linker_set_key" : "_ZNKSt3__14hashItEclEt",
   "parameters" :
   [
    {
     "is_this_ptr" : true,
     "referenced_type" : "_ZTIPKNSt3__14hashItEE"
    },
    {
     "referenced_type" : "_ZTIt"
    }
   ],
   "return_type" : "_ZTIj",
   "source_file" : "external/libcxx/include/utility"
  },
  {
   "function_name" : "std::__1::hash<wchar_t>::operator()",
   "linker_set_key" : "_ZNKSt3__14hashIwEclEw",
   "parameters" :
   [
    {
     "is_this_ptr" : true,
     "referenced_type" : "_ZTIPKNSt3__14hashIwEE"
    },
    {
     "referenced_type" : "_ZTIw"
    }
   ],
   "return_type" : "_ZTIj",
   "source_file" : "external/libcxx/include/utility"
  },
  {
   "function_name" : "std::__1::__less<unsigned int, unsigned int>::operator()",
   "linker_set_key" : "_ZNKSt3__16__lessIjjEclERKjS3_",
   "parameters" :
   [
    {
     "is_this_ptr" : true,
     "referenced_type" : "_ZTIPKNSt3__16__lessIjjEE"
    },
    {
     "referenced_type" : "_ZTIRKj"
    },
    {
     "referenced_type" : "_ZTIRKj"
    }
   ],
   "return_type" : "_ZTIb",
   "source_file" : "external/libcxx/include/algorithm"
  },
  {
   "function_name" : "std::__1::allocator<char>::max_size",
   "linker_set_key" : "_ZNKSt3__19allocatorIcE8max_sizeEv",
   "parameters" :
   [
    {
     "is_this_ptr" : true,
     "referenced_type" : "_ZTIPKNSt3__19allocatorIcEE"
    }
   ],
   "return_type" : "_ZTIj",
   "source_file" : "external/libcxx/include/memory"
  },
  {
   "function_name" : "std::type_info::name",
   "linker_set_key" : "_ZNKSt9type_info4nameEv",
   "parameters" :
   [
    {
     "is_this_ptr" : true,
     "referenced_type" : "_ZTIPKSt9type_info"
    }
   ],
   "return_type" : "_ZTIPKc",
   "source_file" : "external/libcxx/include/typeinfo"
  },
  {
   "function_name" : "std::type_info::before",
   "linker_set_key" : "_ZNKSt9type_info6beforeERKS_",
   "parameters" :
   [
    {
     "is_this_ptr" : true,
     "referenced_type" : "_ZTIPKSt9type_info"
    },
    {
     "referenced_type" : "_ZTIRKSt9type_info"
    }
   ],
   "return_type" : "_ZTIb",
   "source_file" : "external/libcxx/include/typeinfo"
  },
  {
   "function_name" : "std::type_info::hash_code",
   "linker_set_key" : "_ZNKSt9type_info9hash_codeEv",
   "parameters" :
   [
    {
     "is_this_ptr" : true,
     "referenced_type" : "_ZTIPKSt9type_info"
    }
   ],
   "return_type" : "_ZTIj",
   "source_file" : "external/libcxx/include/typeinfo"
  },
  {
   "function_name" : "std::type_info::operator==",
   "linker_set_key" : "_ZNKSt9type_infoeqERKS_",
   "parameters" :
   [
    {
     "is_this_ptr" : true,
     "referenced_type" : "_ZTIPKSt9type_info"
    },
    {
     "referenced_type" : "_ZTIRKSt9type_info"
    }
   ],
   "return_type" : "_ZTIb",
   "source_file" : "external/libcxx/include/typeinfo"
  },
  {
   "function_name" : "std::type_info::operator!=",
   "linker_set_key" : "_ZNKSt9type_infoneERKS_",
   "parameters" :
   [
    {
     "is_this_ptr" : true,
     "referenced_type" : "_ZTIPKSt9type_info"
    },
    {
     "referenced_type" : "_ZTIRKSt9type_info"
    }
   ],
   "return_type" : "_ZTIb",
   "source_file" : "external/libcxx/include/typeinfo"
  },
  {
   "function_name" : "std::range_error::range_error",
   "linker_set_key" : "_ZNSt11range_errorC1EPKc",
   "parameters" :
   [
    {
     "is_this_ptr" : true,
     "referenced_type" : "_ZTIPSt11range_error"
    },
    {
     "referenced_type" : "_ZTIPKc"
    }
   ],
   "return_type" : "_ZTIv",
   "source_file" : "external/libcxx/include/stdexcept"
  },
  {
   "function_name" : "std::range_error::range_error",
   "linker_set_key" : "_ZNSt11range_errorC1ERKNSt3__112basic_stringIcNS0_11char_traitsIcEENS0_9allocatorIcEEEE",
   "parameters" :
   [
    {
     "is_this_ptr" : true,
     "referenced_type" : "_ZTIPSt11range_error"
    },
    {
     "referenced_type" : "_ZTIRKNSt3__112basic_stringIcNS_11char_traitsIcEENS_9allocatorIcEEEE"
    }
   ],
   "return_type" : "_ZTIv",
   "source_file" : "external/libcxx/include/stdexcept"
  },
  {
   "function_name" : "std::range_error::range_error",
   "linker_set_key" : "_ZNSt11range_errorC2EPKc",
   "parameters" :
   [
    {
     "is_this_ptr" : true,
     "referenced_type" : "_ZTIPSt11range_error"
    },
    {
     "referenced_type" : "_ZTIPKc"
    }
   ],
   "return_type" : "_ZTIv",
   "source_file" : "external/libcxx/include/stdexcept"
  },
  {
   "function_name" : "std::range_error::range_error",
   "linker_set_key" : "_ZNSt11range_errorC2ERKNSt3__112basic_stringIcNS0_11char_traitsIcEENS0_9allocatorIcEEEE",
   "parameters" :
   [
    {
     "is_this_ptr" : true,
     "referenced_type" : "_ZTIPSt11range_error"
    },
    {
     "referenced_type" : "_ZTIRKNSt3__112basic_stringIcNS_11char_traitsIcEENS_9allocatorIcEEEE"
    }
   ],
   "return_type" : "_ZTIv",
   "source_file" : "external/libcxx/include/stdexcept"
  },
  {
   "function_name" : "std::domain_error::domain_error",
   "linker_set_key" : "_ZNSt12domain_errorC1EPKc",
   "parameters" :
   [
    {
     "is_this_ptr" : true,
     "referenced_type" : "_ZTIPSt12domain_error"
    },
    {
     "referenced_type" : "_ZTIPKc"
    }
   ],
   "return_type" : "_ZTIv",
   "source_file" : "external/libcxx/include/stdexcept"
  },
  {
   "function_name" : "std::domain_error::domain_error",
   "linker_set_key" : "_ZNSt12domain_errorC1ERKNSt3__112basic_stringIcNS0_11char_traitsIcEENS0_9allocatorIcEEEE",
   "parameters" :
   [
    {
     "is_this_ptr" : true,
     "referenced_type" : "_ZTIPSt12domain_error"
    },
    {
     "referenced_type" : "_ZTIRKNSt3__112basic_stringIcNS_11char_traitsIcEENS_9allocatorIcEEEE"
    }
   ],
   "return_type" : "_ZTIv",
   "source_file" : "external/libcxx/include/stdexcept"
  },
  {
   "function_name" : "std::domain_error::domain_error",
   "linker_set_key" : "_ZNSt12domain_errorC2EPKc",
   "parameters" :
   [
    {
     "is_this_ptr" : true,
     "referenced_type" : "_ZTIPSt12domain_error"
    },
    {
     "referenced_type" : "_ZTIPKc"
    }
   ],
   "return_type" : "_ZTIv",
   "source_file" : "external/libcxx/include/stdexcept"
  },
  {
   "function_name" : "std::domain_error::domain_error",
   "linker_set_key" : "_ZNSt12domain_errorC2ERKNSt3__112basic_stringIcNS0_11char_traitsIcEENS0_9allocatorIcEEEE",
   "parameters" :
   [
    {
     "is_this_ptr" : true,
     "referenced_type" : "_ZTIPSt12domain_error"
    },
    {
     "referenced_type" : "_ZTIRKNSt3__112basic_stringIcNS_11char_traitsIcEENS_9allocatorIcEEEE"
    }
   ],
   "return_type" : "_ZTIv",
   "source_file" : "external/libcxx/include/stdexcept"
  },
  {
   "function_name" : "std::length_error::length_error",
   "linker_set_key" : "_ZNSt12length_errorC1EPKc",
   "parameters" :
   [
    {
     "is_this_ptr" : true,
     "referenced_type" : "_ZTIPSt12length_error"
    },
    {
     "referenced_type" : "_ZTIPKc"
    }
   ],
   "return_type" : "_ZTIv",
   "source_file" : "external/libcxx/include/stdexcept"
  },
  {
   "function_name" : "std::length_error::length_error",
   "linker_set_key" : "_ZNSt12length_errorC1ERKNSt3__112basic_stringIcNS0_11char_traitsIcEENS0_9allocatorIcEEEE",
   "parameters" :
   [
    {
     "is_this_ptr" : true,
     "referenced_type" : "_ZTIPSt12length_error"
    },
    {
     "referenced_type" : "_ZTIRKNSt3__112basic_stringIcNS_11char_traitsIcEENS_9allocatorIcEEEE"
    }
   ],
   "return_type" : "_ZTIv",
   "source_file" : "external/libcxx/include/stdexcept"
  },
  {
   "function_name" : "std::length_error::length_error",
   "linker_set_key" : "_ZNSt12length_errorC2EPKc",
   "parameters" :
   [
    {
     "is_this_ptr" : true,
     "referenced_type" : "_ZTIPSt12length_error"
    },
    {
     "referenced_type" : "_ZTIPKc"
    }
   ],
   "return_type" : "_ZTIv",
   "source_file" : "external/libcxx/include/stdexcept"
  },
  {
   "function_name" : "std::length_error::length_error",
   "linker_set_key" : "_ZNSt12length_errorC2ERKNSt3__112basic_stringIcNS0_11char_traitsIcEENS0_9allocatorIcEEEE",
   "parameters" :
   [
    {
     "is_this_ptr" : true,
     "referenced_type" : "_ZTIPSt12length_error"
    },
    {
     "referenced_type" : "_ZTIRKNSt3__112basic_stringIcNS_11char_traitsIcEENS_9allocatorIcEEEE"
    }
   ],
   "return_type" : "_ZTIv",
   "source_file" : "external/libcxx/include/stdexcept"
  },
  {
   "function_name" : "std::out_of_range::out_of_range",
   "linker_set_key" : "_ZNSt12out_of_rangeC1EPKc",
   "parameters" :
   [
    {
     "is_this_ptr" : true,
     "referenced_type" : "_ZTIPSt12out_of_range"
    },
    {
     "referenced_type" : "_ZTIPKc"
    }
   ],
   "return_type" : "_ZTIv",
   "source_file" : "external/libcxx/include/stdexcept"
  },
  {
   "function_name" : "std::out_of_range::out_of_range",
   "linker_set_key" : "_ZNSt12out_of_rangeC1ERKNSt3__112basic_stringIcNS0_11char_traitsIcEENS0_9allocatorIcEEEE",
   "parameters" :
   [
    {
     "is_this_ptr" : true,
     "referenced_type" : "_ZTIPSt12out_of_range"
    },
    {
     "referenced_type" : "_ZTIRKNSt3__112basic_stringIcNS_11char_traitsIcEENS_9allocatorIcEEEE"
    }
   ],
   "return_type" : "_ZTIv",
   "source_file" : "external/libcxx/include/stdexcept"
  },
  {
   "function_name" : "std::out_of_range::out_of_range",
   "linker_set_key" : "_ZNSt12out_of_rangeC2EPKc",
   "parameters" :
   [
    {
     "is_this_ptr" : true,
     "referenced_type" : "_ZTIPSt12out_of_range"
    },
    {
     "referenced_type" : "_ZTIPKc"
    }
   ],
   "return_type" : "_ZTIv",
   "source_file" : "external/libcxx/include/stdexcept"
  },
  {
   "function_name" : "std::out_of_range::out_of_range",
   "linker_set_key" : "_ZNSt12out_of_rangeC2ERKNSt3__112basic_stringIcNS0_11char_traitsIcEENS0_9allocatorIcEEEE",
   "parameters" :
   [
    {
     "is_this_ptr" : true,
     "referenced_type" : "_ZTIPSt12out_of_range"
    },
    {
     "referenced_type" : "_ZTIRKNSt3__112basic_stringIcNS_11char_traitsIcEENS_9allocatorIcEEEE"
    }
   ],
   "return_type" : "_ZTIv",
   "source_file" : "external/libcxx/include/stdexcept"
  },
  {
   "function_name" : "std::bad_exception::bad_exception",
   "linker_set_key" : "_ZNSt13bad_exceptionC1Ev",
   "parameters" :
   [
    {
     "is_this_ptr" : true,
     "referenced_type" : "_ZTIPSt13bad_exception"
    }
   ],
   "return_type" : "_ZTIv",
   "source_file" : "external/libcxx/include/exception"
  },
  {
   "function_name" : "std::bad_exception::bad_exception",
   "linker_set_key" : "_ZNSt13bad_exceptionC2Ev",
   "parameters" :
   [
    {
     "is_this_ptr" : true,
     "referenced_type" : "_ZTIPSt13bad_exception"
    }
   ],
   "return_type" : "_ZTIv",
   "source_file" : "external/libcxx/include/exception"
  },
  {
   "function_name" : "std::exception_ptr::exception_ptr",
   "linker_set_key" : "_ZNSt13exception_ptrC1EDn",
   "parameters" :
   [
    {
     "is_this_ptr" : true,
     "referenced_type" : "_ZTIPSt13exception_ptr"
    },
    {
     "referenced_type" : "_ZTIDn"
    }
   ],
   "return_type" : "_ZTIv",
   "source_file" : "external/libcxx/include/exception"
  },
  {
   "function_name" : "std::exception_ptr::exception_ptr",
   "linker_set_key" : "_ZNSt13exception_ptrC1Ev",
   "parameters" :
   [
    {
     "is_this_ptr" : true,
     "referenced_type" : "_ZTIPSt13exception_ptr"
    }
   ],
   "return_type" : "_ZTIv",
   "source_file" : "external/libcxx/include/exception"
  },
  {
   "function_name" : "std::exception_ptr::exception_ptr",
   "linker_set_key" : "_ZNSt13exception_ptrC2EDn",
   "parameters" :
   [
    {
     "is_this_ptr" : true,
     "referenced_type" : "_ZTIPSt13exception_ptr"
    },
    {
     "referenced_type" : "_ZTIDn"
    }
   ],
   "return_type" : "_ZTIv",
   "source_file" : "external/libcxx/include/exception"
  },
  {
   "function_name" : "std::exception_ptr::exception_ptr",
   "linker_set_key" : "_ZNSt13exception_ptrC2Ev",
   "parameters" :
   [
    {
     "is_this_ptr" : true,
     "referenced_type" : "_ZTIPSt13exception_ptr"
    }
   ],
   "return_type" : "_ZTIv",
   "source_file" : "external/libcxx/include/exception"
  },
  {
   "function_name" : "std::overflow_error::overflow_error",
   "linker_set_key" : "_ZNSt14overflow_errorC1EPKc",
   "parameters" :
   [
    {
     "is_this_ptr" : true,
     "referenced_type" : "_ZTIPSt14overflow_error"
    },
    {
     "referenced_type" : "_ZTIPKc"
    }
   ],
   "return_type" : "_ZTIv",
   "source_file" : "external/libcxx/include/stdexcept"
  },
  {
   "function_name" : "std::overflow_error::overflow_error",
   "linker_set_key" : "_ZNSt14overflow_errorC1ERKNSt3__112basic_stringIcNS0_11char_traitsIcEENS0_9allocatorIcEEEE",
   "parameters" :
   [
    {
     "is_this_ptr" : true,
     "referenced_type" : "_ZTIPSt14overflow_error"
    },
    {
     "referenced_type" : "_ZTIRKNSt3__112basic_stringIcNS_11char_traitsIcEENS_9allocatorIcEEEE"
    }
   ],
   "return_type" : "_ZTIv",
   "source_file" : "external/libcxx/include/stdexcept"
  },
  {
   "function_name" : "std::overflow_error::overflow_error",
   "linker_set_key" : "_ZNSt14overflow_errorC2EPKc",
   "parameters" :
   [
    {
     "is_this_ptr" : true,
     "referenced_type" : "_ZTIPSt14overflow_error"
    },
    {
     "referenced_type" : "_ZTIPKc"
    }
   ],
   "return_type" : "_ZTIv",
   "source_file" : "external/libcxx/include/stdexcept"
  },
  {
   "function_name" : "std::overflow_error::overflow_error",
   "linker_set_key" : "_ZNSt14overflow_errorC2ERKNSt3__112basic_stringIcNS0_11char_traitsIcEENS0_9allocatorIcEEEE",
   "parameters" :
   [
    {
     "is_this_ptr" : true,
     "referenced_type" : "_ZTIPSt14overflow_error"
    },
    {
     "referenced_type" : "_ZTIRKNSt3__112basic_stringIcNS_11char_traitsIcEENS_9allocatorIcEEEE"
    }
   ],
   "return_type" : "_ZTIv",
   "source_file" : "external/libcxx/include/stdexcept"
  },
  {
   "function_name" : "std::underflow_error::underflow_error",
   "linker_set_key" : "_ZNSt15underflow_errorC1EPKc",
   "parameters" :
   [
    {
     "is_this_ptr" : true,
     "referenced_type" : "_ZTIPSt15underflow_error"
    },
    {
     "referenced_type" : "_ZTIPKc"
    }
   ],
   "return_type" : "_ZTIv",
   "source_file" : "external/libcxx/include/stdexcept"
  },
  {
   "function_name" : "std::underflow_error::underflow_error",
   "linker_set_key" : "_ZNSt15underflow_errorC1ERKNSt3__112basic_stringIcNS0_11char_traitsIcEENS0_9allocatorIcEEEE",
   "parameters" :
   [
    {
     "is_this_ptr" : true,
     "referenced_type" : "_ZTIPSt15underflow_error"
    },
    {
     "referenced_type" : "_ZTIRKNSt3__112basic_stringIcNS_11char_traitsIcEENS_9allocatorIcEEEE"
    }
   ],
   "return_type" : "_ZTIv",
   "source_file" : "external/libcxx/include/stdexcept"
  },
  {
   "function_name" : "std::underflow_error::underflow_error",
   "linker_set_key" : "_ZNSt15underflow_errorC2EPKc",
   "parameters" :
   [
    {
     "is_this_ptr" : true,
     "referenced_type" : "_ZTIPSt15underflow_error"
    },
    {
     "referenced_type" : "_ZTIPKc"
    }
   ],
   "return_type" : "_ZTIv",
   "source_file" : "external/libcxx/include/stdexcept"
  },
  {
   "function_name" : "std::underflow_error::underflow_error",
   "linker_set_key" : "_ZNSt15underflow_errorC2ERKNSt3__112basic_stringIcNS0_11char_traitsIcEENS0_9allocatorIcEEEE",
   "parameters" :
   [
    {
     "is_this_ptr" : true,
     "referenced_type" : "_ZTIPSt15underflow_error"
    },
    {
     "referenced_type" : "_ZTIRKNSt3__112basic_stringIcNS_11char_traitsIcEENS_9allocatorIcEEEE"
    }
   ],
   "return_type" : "_ZTIv",
   "source_file" : "external/libcxx/include/stdexcept"
  },
  {
   "function_name" : "std::invalid_argument::invalid_argument",
   "linker_set_key" : "_ZNSt16invalid_argumentC1EPKc",
   "parameters" :
   [
    {
     "is_this_ptr" : true,
     "referenced_type" : "_ZTIPSt16invalid_argument"
    },
    {
     "referenced_type" : "_ZTIPKc"
    }
   ],
   "return_type" : "_ZTIv",
   "source_file" : "external/libcxx/include/stdexcept"
  },
  {
   "function_name" : "std::invalid_argument::invalid_argument",
   "linker_set_key" : "_ZNSt16invalid_argumentC1ERKNSt3__112basic_stringIcNS0_11char_traitsIcEENS0_9allocatorIcEEEE",
   "parameters" :
   [
    {
     "is_this_ptr" : true,
     "referenced_type" : "_ZTIPSt16invalid_argument"
    },
    {
     "referenced_type" : "_ZTIRKNSt3__112basic_stringIcNS_11char_traitsIcEENS_9allocatorIcEEEE"
    }
   ],
   "return_type" : "_ZTIv",
   "source_file" : "external/libcxx/include/stdexcept"
  },
  {
   "function_name" : "std::invalid_argument::invalid_argument",
   "linker_set_key" : "_ZNSt16invalid_argumentC2EPKc",
   "parameters" :
   [
    {
     "is_this_ptr" : true,
     "referenced_type" : "_ZTIPSt16invalid_argument"
    },
    {
     "referenced_type" : "_ZTIPKc"
    }
   ],
   "return_type" : "_ZTIv",
   "source_file" : "external/libcxx/include/stdexcept"
  },
  {
   "function_name" : "std::invalid_argument::invalid_argument",
   "linker_set_key" : "_ZNSt16invalid_argumentC2ERKNSt3__112basic_stringIcNS0_11char_traitsIcEENS0_9allocatorIcEEEE",
   "parameters" :
   [
    {
     "is_this_ptr" : true,
     "referenced_type" : "_ZTIPSt16invalid_argument"
    },
    {
     "referenced_type" : "_ZTIRKNSt3__112basic_stringIcNS_11char_traitsIcEENS_9allocatorIcEEEE"
    }
   ],
   "return_type" : "_ZTIv",
   "source_file" : "external/libcxx/include/stdexcept"
  },
  {
   "function_name" : "std::__1::__algo_gcd",
   "linker_set_key" : "_ZNSt3__110__algo_gcdIiEET_S1_S1_",
   "parameters" :
   [
    {
     "referenced_type" : "_ZTIi"
    },
    {
     "referenced_type" : "_ZTIi"
    }
   ],
   "return_type" : "_ZTIi",
   "source_file" : "external/libcxx/include/algorithm",
   "template_args" : [ "_ZTIi" ]
  },
  {
   "function_name" : "std::__1::__function::__policy::__create_empty",
   "linker_set_key" : "_ZNSt3__110__function8__policy14__create_emptyEv",
   "return_type" : "_ZTIPKNSt3__110__function8__policyE",
   "source_file" : "external/libcxx/include/functional"
  },
  {
   "function_name" : "std::__1::__loadword",
   "linker_set_key" : "_ZNSt3__110__loadwordIjEET_PKv",
   "parameters" :
   [
    {
     "referenced_type" : "_ZTIPKv"
    }
   ],
   "return_type" : "_ZTIj",
   "source_file" : "external/libcxx/include/utility",
   "template_args" : [ "_ZTIj" ]
  },
  {
   "function_name" : "std::__1::__popcount",
   "linker_set_key" : "_ZNSt3__110__popcountEj",
   "parameters" :
   [
    {
     "referenced_type" : "_ZTIj"
    }
   ],
   "return_type" : "_ZTIi",
   "source_file" : "external/libcxx/include/bit"
  },
  {
   "function_name" : "std::__1::__popcount",
   "linker_set_key" : "_ZNSt3__110__popcountEm",
   "parameters" :
   [
    {
     "referenced_type" : "_ZTIm"
    }
   ],
   "return_type" : "_ZTIi",
   "source_file" : "external/libcxx/include/bit"
  },
  {
   "function_name" : "std::__1::__popcount",
   "linker_set_key" : "_ZNSt3__110__popcountEy",
   "parameters" :
   [
    {
     "referenced_type" : "_ZTIy"
    }
   ],
   "return_type" : "_ZTIi",
   "source_file" : "external/libcxx/include/bit"
  },
  {
   "function_name" : "std::__1::error_code::clear",
   "linker_set_key" : "_ZNSt3__110error_code5clearEv",
   "parameters" :
   [
    {
     "is_this_ptr" : true,
     "referenced_type" : "_ZTIPNSt3__110error_codeE"
    }
   ],
   "return_type" : "_ZTIv",
   "source_file" : "external/libcxx/include/system_error"
  },
  {
   "function_name" : "std::__1::error_code::assign",
   "linker_set_key" : "_ZNSt3__110error_code6assignEiRKNS_14error_categoryE",
   "parameters" :
   [
    {
     "is_this_ptr" : true,
     "referenced_type" : "_ZTIPNSt3__110error_codeE"
    },
    {
     "referenced_type" : "_ZTIi"
    },
    {
     "referenced_type" : "_ZTIRKNSt3__114error_categoryE"
    }
   ],
   "return_type" : "_ZTIv",
   "source_file" : "external/libcxx/include/system_error"
  },
  {
   "function_name" : "std::__1::error_code::error_code",
   "linker_set_key" : "_ZNSt3__110error_codeC1EiRKNS_14error_categoryE",
   "parameters" :
   [
    {
     "is_this_ptr" : true,
     "referenced_type" : "_ZTIPNSt3__110error_codeE"
    },
    {
     "referenced_type" : "_ZTIi"
    },
    {
     "referenced_type" : "_ZTIRKNSt3__114error_categoryE"
    }
   ],
   "return_type" : "_ZTIv",
   "source_file" : "external/libcxx/include/system_error"
  },
  {
   "function_name" : "std::__1::error_code::error_code",
   "linker_set_key" : "_ZNSt3__110error_codeC1Ev",
   "parameters" :
   [
    {
     "is_this_ptr" : true,
     "referenced_type" : "_ZTIPNSt3__110error_codeE"
    }
   ],
   "return_type" : "_ZTIv",
   "source_file" : "external/libcxx/include/system_error"
  },
  {
   "function_name" : "std::__1::error_code::error_code",
   "linker_set_key" : "_ZNSt3__110error_codeC2EiRKNS_14error_categoryE",
   "parameters" :
   [
    {
     "is_this_ptr" : true,
     "referenced_type" : "_ZTIPNSt3__110error_codeE"
    },
    {
     "referenced_type" : "_ZTIi"
    },
    {
     "referenced_type" : "_ZTIRKNSt3__114error_categoryE"
    }
   ],
   "return_type" : "_ZTIv",
   "source_file" : "external/libcxx/include/system_error"
  },
  {
   "function_name" : "std::__1::error_code::error_code",
   "linker_set_key" : "_ZNSt3__110error_codeC2Ev",
   "parameters" :
   [
    {
     "is_this_ptr" : true,
     "referenced_type" : "_ZTIPNSt3__110error_codeE"
    }
   ],
   "return_type" : "_ZTIv",
   "source_file" : "external/libcxx/include/system_error"
  },
  {
   "function_name" : "std::__1::atomic_flag::test_and_set",
   "linker_set_key" : "_ZNSt3__111atomic_flag12test_and_setENS_12memory_orderE",
   "parameters" :
   [
    {
     "is_this_ptr" : true,
     "referenced_type" : "_ZTIPNSt3__111atomic_flagE"
    },
    {
     "default_arg" : true,
     "referenced_type" : "_ZTINSt3__112memory_orderE"
    }
   ],
   "return_type" : "_ZTIb",
   "source_file" : "external/libcxx/include/atomic"
  },
  {
   "function_name" : "std::__1::atomic_flag::clear",
   "linker_set_key" : "_ZNSt3__111atomic_flag5clearENS_12memory_orderE",
   "parameters" :
   [
    {
     "is_this_ptr" : true,
     "referenced_type" : "_ZTIPNSt3__111atomic_flagE"
    },
    {
     "default_arg" : true,
     "referenced_type" : "_ZTINSt3__112memory_orderE"
    }
   ],
   "return_type" : "_ZTIv",
   "source_file" : "external/libcxx/include/atomic"
  },
  {
   "function_name" : "std::__1::atomic_flag::atomic_flag",
   "linker_set_key" : "_ZNSt3__111atomic_flagC1Eb",
   "parameters" :
   [
    {
     "is_this_ptr" : true,
     "referenced_type" : "_ZTIPNSt3__111atomic_flagE"
    },
    {
     "referenced_type" : "_ZTIb"
    }
   ],
   "return_type" : "_ZTIv",
   "source_file" : "external/libcxx/include/atomic"
  },
  {
   "function_name" : "std::__1::atomic_flag::atomic_flag",
   "linker_set_key" : "_ZNSt3__111atomic_flagC1Ev",
   "parameters" :
   [
    {
     "is_this_ptr" : true,
     "referenced_type" : "_ZTIPNSt3__111atomic_flagE"
    }
   ],
   "return_type" : "_ZTIv",
   "source_file" : "external/libcxx/include/atomic"
  },
  {
   "function_name" : "std::__1::atomic_flag::atomic_flag",
   "linker_set_key" : "_ZNSt3__111atomic_flagC2Eb",
   "parameters" :
   [
    {
     "is_this_ptr" : true,
     "referenced_type" : "_ZTIPNSt3__111atomic_flagE"
    },
    {
     "referenced_type" : "_ZTIb"
    }
   ],
   "return_type" : "_ZTIv",
   "source_file" : "external/libcxx/include/atomic"
  },
  {
   "function_name" : "std::__1::atomic_flag::atomic_flag",
   "linker_set_key" : "_ZNSt3__111atomic_flagC2Ev",
   "parameters" :
   [
    {
     "is_this_ptr" : true,
     "referenced_type" : "_ZTIPNSt3__111atomic_flagE"
    }
   ],
   "return_type" : "_ZTIv",
   "source_file" : "external/libcxx/include/atomic"
  },
  {
   "function_name" : "std::__1::char_traits<char32_t>::eq_int_type",
   "linker_set_key" : "_ZNSt3__111char_traitsIDiE11eq_int_typeEjj",
   "parameters" :
   [
    {
     "referenced_type" : "_ZTIj"
    },
    {
     "referenced_type" : "_ZTIj"
    }
   ],
   "return_type" : "_ZTIb",
   "source_file" : "external/libcxx/include/__string"
  },
  {
   "function_name" : "std::__1::char_traits<char32_t>::to_int_type",
   "linker_set_key" : "_ZNSt3__111char_traitsIDiE11to_int_typeEDi",
   "parameters" :
   [
    {
     "referenced_type" : "_ZTIDi"
    }
   ],
   "return_type" : "_ZTIj",
   "source_file" : "external/libcxx/include/__string"
  },
  {
   "function_name" : "std::__1::char_traits<char32_t>::to_char_type",
   "linker_set_key" : "_ZNSt3__111char_traitsIDiE12to_char_typeEj",
   "parameters" :
   [
    {
     "referenced_type" : "_ZTIj"
    }
   ],
   "return_type" : "_ZTIDi",
   "source_file" : "external/libcxx/include/__string"
  },
  {
   "function_name" : "std::__1::char_traits<char32_t>::eq",
   "linker_set_key" : "_ZNSt3__111char_traitsIDiE2eqEDiDi",
   "parameters" :
   [
    {
     "referenced_type" : "_ZTIDi"
    },
    {
     "referenced_type" : "_ZTIDi"
    }
   ],
   "return_type" : "_ZTIb",
   "source_file" : "external/libcxx/include/__string"
  },
  {
   "function_name" : "std::__1::char_traits<char32_t>::lt",
   "linker_set_key" : "_ZNSt3__111char_traitsIDiE2ltEDiDi",
   "parameters" :
   [
    {
     "referenced_type" : "_ZTIDi"
    },
    {
     "referenced_type" : "_ZTIDi"
    }
   ],
   "return_type" : "_ZTIb",
   "source_file" : "external/libcxx/include/__string"
  },
  {
   "function_name" : "std::__1::char_traits<char32_t>::eof",
   "linker_set_key" : "_ZNSt3__111char_traitsIDiE3eofEv",
   "return_type" : "_ZTIj",
   "source_file" : "external/libcxx/include/__string"
  },
  {
   "function_name" : "std::__1::char_traits<char32_t>::copy",
   "linker_set_key" : "_ZNSt3__111char_traitsIDiE4copyEPDiPKDij",
   "parameters" :
   [
    {
     "referenced_type" : "_ZTIPDi"
    },
    {
     "referenced_type" : "_ZTIPKDi"
    },
    {
     "referenced_type" : "_ZTIj"
    }
   ],
   "return_type" : "_ZTIPDi",
   "source_file" : "external/libcxx/include/__string"
  },
  {
   "function_name" : "std::__1::char_traits<char32_t>::find",
   "linker_set_key" : "_ZNSt3__111char_traitsIDiE4findEPKDijRS2_",
   "parameters" :
   [
    {
     "referenced_type" : "_ZTIPKDi"
    },
    {
     "referenced_type" : "_ZTIj"
    },
    {
     "referenced_type" : "_ZTIRKDi"
    }
   ],
   "return_type" : "_ZTIPKDi",
   "source_file" : "external/libcxx/include/__string"
  },
  {
   "function_name" : "std::__1::char_traits<char32_t>::move",
   "linker_set_key" : "_ZNSt3__111char_traitsIDiE4moveEPDiPKDij",
   "parameters" :
   [
    {
     "referenced_type" : "_ZTIPDi"
    },
    {
     "referenced_type" : "_ZTIPKDi"
    },
    {
     "referenced_type" : "_ZTIj"
    }
   ],
   "return_type" : "_ZTIPDi",
   "source_file" : "external/libcxx/include/__string"
  },
  {
   "function_name" : "std::__1::char_traits<char32_t>::assign",
   "linker_set_key" : "_ZNSt3__111char_traitsIDiE6assignEPDijDi",
   "parameters" :
   [
    {
     "referenced_type" : "_ZTIPDi"
    },
    {
     "referenced_type" : "_ZTIj"
    },
    {
     "referenced_type" : "_ZTIDi"
    }
   ],
   "return_type" : "_ZTIPDi",
   "source_file" : "external/libcxx/include/__string"
  },
  {
   "function_name" : "std::__1::char_traits<char32_t>::assign",
   "linker_set_key" : "_ZNSt3__111char_traitsIDiE6assignERDiRKDi",
   "parameters" :
   [
    {
     "referenced_type" : "_ZTIRDi"
    },
    {
     "referenced_type" : "_ZTIRKDi"
    }
   ],
   "return_type" : "_ZTIv",
   "source_file" : "external/libcxx/include/__string"
  },
  {
   "function_name" : "std::__1::char_traits<char32_t>::length",
   "linker_set_key" : "_ZNSt3__111char_traitsIDiE6lengthEPKDi",
   "parameters" :
   [
    {
     "referenced_type" : "_ZTIPKDi"
    }
   ],
   "return_type" : "_ZTIj",
   "source_file" : "external/libcxx/include/__string"
  },
  {
   "function_name" : "std::__1::char_traits<char32_t>::compare",
   "linker_set_key" : "_ZNSt3__111char_traitsIDiE7compareEPKDiS3_j",
   "parameters" :
   [
    {
     "referenced_type" : "_ZTIPKDi"
    },
    {
     "referenced_type" : "_ZTIPKDi"
    },
    {
     "referenced_type" : "_ZTIj"
    }
   ],
   "return_type" : "_ZTIi",
   "source_file" : "external/libcxx/include/__string"
  },
  {
   "function_name" : "std::__1::char_traits<char32_t>::not_eof",
   "linker_set_key" : "_ZNSt3__111char_traitsIDiE7not_eofEj",
   "parameters" :
   [
    {
     "referenced_type" : "_ZTIj"
    }
   ],
   "return_type" : "_ZTIj",
   "source_file" : "external/libcxx/include/__string"
  },
  {
   "function_name" : "std::__1::char_traits<char16_t>::eq_int_type",
   "linker_set_key" : "_ZNSt3__111char_traitsIDsE11eq_int_typeEtt",
   "parameters" :
   [
    {
     "referenced_type" : "_ZTIt"
    },
    {
     "referenced_type" : "_ZTIt"
    }
   ],
   "return_type" : "_ZTIb",
   "source_file" : "external/libcxx/include/__string"
  },
  {
   "function_name" : "std::__1::char_traits<char16_t>::to_int_type",
   "linker_set_key" : "_ZNSt3__111char_traitsIDsE11to_int_typeEDs",
   "parameters" :
   [
    {
     "referenced_type" : "_ZTIDs"
    }
   ],
   "return_type" : "_ZTIt",
   "source_file" : "external/libcxx/include/__string"
  },
  {
   "function_name" : "std::__1::char_traits<char16_t>::to_char_type",
   "linker_set_key" : "_ZNSt3__111char_traitsIDsE12to_char_typeEt",
   "parameters" :
   [
    {
     "referenced_type" : "_ZTIt"
    }
   ],
   "return_type" : "_ZTIDs",
   "source_file" : "external/libcxx/include/__string"
  },
  {
   "function_name" : "std::__1::char_traits<char16_t>::eq",
   "linker_set_key" : "_ZNSt3__111char_traitsIDsE2eqEDsDs",
   "parameters" :
   [
    {
     "referenced_type" : "_ZTIDs"
    },
    {
     "referenced_type" : "_ZTIDs"
    }
   ],
   "return_type" : "_ZTIb",
   "source_file" : "external/libcxx/include/__string"
  },
  {
   "function_name" : "std::__1::char_traits<char16_t>::lt",
   "linker_set_key" : "_ZNSt3__111char_traitsIDsE2ltEDsDs",
   "parameters" :
   [
    {
     "referenced_type" : "_ZTIDs"
    },
    {
     "referenced_type" : "_ZTIDs"
    }
   ],
   "return_type" : "_ZTIb",
   "source_file" : "external/libcxx/include/__string"
  },
  {
   "function_name" : "std::__1::char_traits<char16_t>::eof",
   "linker_set_key" : "_ZNSt3__111char_traitsIDsE3eofEv",
   "return_type" : "_ZTIt",
   "source_file" : "external/libcxx/include/__string"
  },
  {
   "function_name" : "std::__1::char_traits<char16_t>::copy",
   "linker_set_key" : "_ZNSt3__111char_traitsIDsE4copyEPDsPKDsj",
   "parameters" :
   [
    {
     "referenced_type" : "_ZTIPDs"
    },
    {
     "referenced_type" : "_ZTIPKDs"
    },
    {
     "referenced_type" : "_ZTIj"
    }
   ],
   "return_type" : "_ZTIPDs",
   "source_file" : "external/libcxx/include/__string"
  },
  {
   "function_name" : "std::__1::char_traits<char16_t>::find",
   "linker_set_key" : "_ZNSt3__111char_traitsIDsE4findEPKDsjRS2_",
   "parameters" :
   [
    {
     "referenced_type" : "_ZTIPKDs"
    },
    {
     "referenced_type" : "_ZTIj"
    },
    {
     "referenced_type" : "_ZTIRKDs"
    }
   ],
   "return_type" : "_ZTIPKDs",
   "source_file" : "external/libcxx/include/__string"
  },
  {
   "function_name" : "std::__1::char_traits<char16_t>::move",
   "linker_set_key" : "_ZNSt3__111char_traitsIDsE4moveEPDsPKDsj",
   "parameters" :
   [
    {
     "referenced_type" : "_ZTIPDs"
    },
    {
     "referenced_type" : "_ZTIPKDs"
    },
    {
     "referenced_type" : "_ZTIj"
    }
   ],
   "return_type" : "_ZTIPDs",
   "source_file" : "external/libcxx/include/__string"
  },
  {
   "function_name" : "std::__1::char_traits<char16_t>::assign",
   "linker_set_key" : "_ZNSt3__111char_traitsIDsE6assignEPDsjDs",
   "parameters" :
   [
    {
     "referenced_type" : "_ZTIPDs"
    },
    {
     "referenced_type" : "_ZTIj"
    },
    {
     "referenced_type" : "_ZTIDs"
    }
   ],
   "return_type" : "_ZTIPDs",
   "source_file" : "external/libcxx/include/__string"
  },
  {
   "function_name" : "std::__1::char_traits<char16_t>::assign",
   "linker_set_key" : "_ZNSt3__111char_traitsIDsE6assignERDsRKDs",
   "parameters" :
   [
    {
     "referenced_type" : "_ZTIRDs"
    },
    {
     "referenced_type" : "_ZTIRKDs"
    }
   ],
   "return_type" : "_ZTIv",
   "source_file" : "external/libcxx/include/__string"
  },
  {
   "function_name" : "std::__1::char_traits<char16_t>::length",
   "linker_set_key" : "_ZNSt3__111char_traitsIDsE6lengthEPKDs",
   "parameters" :
   [
    {
     "referenced_type" : "_ZTIPKDs"
    }
   ],
   "return_type" : "_ZTIj",
   "source_file" : "external/libcxx/include/__string"
  },
  {
   "function_name" : "std::__1::char_traits<char16_t>::compare",
   "linker_set_key" : "_ZNSt3__111char_traitsIDsE7compareEPKDsS3_j",
   "parameters" :
   [
    {
     "referenced_type" : "_ZTIPKDs"
    },
    {
     "referenced_type" : "_ZTIPKDs"
    },
    {
     "referenced_type" : "_ZTIj"
    }
   ],
   "return_type" : "_ZTIi",
   "source_file" : "external/libcxx/include/__string"
  },
  {
   "function_name" : "std::__1::char_traits<char16_t>::not_eof",
   "linker_set_key" : "_ZNSt3__111char_traitsIDsE7not_eofEt",
   "parameters" :
   [
    {
     "referenced_type" : "_ZTIt"
    }
   ],
   "return_type" : "_ZTIt",
   "source_file" : "external/libcxx/include/__string"
  },
  {
   "function_name" : "std::__1::char_traits<char>::eq_int_type",
   "linker_set_key" : "_ZNSt3__111char_traitsIcE11eq_int_typeEii",
   "parameters" :
   [
    {
     "referenced_type" : "_ZTIi"
    },
    {
     "referenced_type" : "_ZTIi"
    }
   ],
   "return_type" : "_ZTIb",
   "source_file" : "external/libcxx/include/__string"
  },
  {
   "function_name" : "std::__1::char_traits<char>::to_int_type",
   "linker_set_key" : "_ZNSt3__111char_traitsIcE11to_int_typeEc",
   "parameters" :
   [
    {
     "referenced_type" : "_ZTIc"
    }
   ],
   "return_type" : "_ZTIi",
   "source_file" : "external/libcxx/include/__string"
  },
  {
   "function_name" : "std::__1::char_traits<char>::to_char_type",
   "linker_set_key" : "_ZNSt3__111char_traitsIcE12to_char_typeEi",
   "parameters" :
   [
    {
     "referenced_type" : "_ZTIi"
    }
   ],
   "return_type" : "_ZTIc",
   "source_file" : "external/libcxx/include/__string"
  },
  {
   "function_name" : "std::__1::char_traits<char>::eq",
   "linker_set_key" : "_ZNSt3__111char_traitsIcE2eqEcc",
   "parameters" :
   [
    {
     "referenced_type" : "_ZTIc"
    },
    {
     "referenced_type" : "_ZTIc"
    }
   ],
   "return_type" : "_ZTIb",
   "source_file" : "external/libcxx/include/__string"
  },
  {
   "function_name" : "std::__1::char_traits<char>::lt",
   "linker_set_key" : "_ZNSt3__111char_traitsIcE2ltEcc",
   "parameters" :
   [
    {
     "referenced_type" : "_ZTIc"
    },
    {
     "referenced_type" : "_ZTIc"
    }
   ],
   "return_type" : "_ZTIb",
   "source_file" : "external/libcxx/include/__string"
  },
  {
   "function_name" : "std::__1::char_traits<char>::eof",
   "linker_set_key" : "_ZNSt3__111char_traitsIcE3eofEv",
   "return_type" : "_ZTIi",
   "source_file" : "external/libcxx/include/__string"
  },
  {
   "function_name" : "std::__1::char_traits<char>::copy",
   "linker_set_key" : "_ZNSt3__111char_traitsIcE4copyEPcPKcj",
   "parameters" :
   [
    {
     "referenced_type" : "_ZTIPc"
    },
    {
     "referenced_type" : "_ZTIPKc"
    },
    {
     "referenced_type" : "_ZTIj"
    }
   ],
   "return_type" : "_ZTIPc",
   "source_file" : "external/libcxx/include/__string"
  },
  {
   "function_name" : "std::__1::char_traits<char>::find",
   "linker_set_key" : "_ZNSt3__111char_traitsIcE4findEPKcjRS2_",
   "parameters" :
   [
    {
     "referenced_type" : "_ZTIPKc"
    },
    {
     "referenced_type" : "_ZTIj"
    },
    {
     "referenced_type" : "_ZTIRKc"
    }
   ],
   "return_type" : "_ZTIPKc",
   "source_file" : "external/libcxx/include/__string"
  },
  {
   "function_name" : "std::__1::char_traits<char>::move",
   "linker_set_key" : "_ZNSt3__111char_traitsIcE4moveEPcPKcj",
   "parameters" :
   [
    {
     "referenced_type" : "_ZTIPc"
    },
    {
     "referenced_type" : "_ZTIPKc"
    },
    {
     "referenced_type" : "_ZTIj"
    }
   ],
   "return_type" : "_ZTIPc",
   "source_file" : "external/libcxx/include/__string"
  },
  {
   "function_name" : "std::__1::char_traits<char>::assign",
   "linker_set_key" : "_ZNSt3__111char_traitsIcE6assignEPcjc",
   "parameters" :
   [
    {
     "referenced_type" : "_ZTIPc"
    },
    {
     "referenced_type" : "_ZTIj"
    },
    {
     "referenced_type" : "_ZTIc"
    }
   ],
   "return_type" : "_ZTIPc",
   "source_file" : "external/libcxx/include/__string"
  },
  {
   "function_name" : "std::__1::char_traits<char>::assign",
   "linker_set_key" : "_ZNSt3__111char_traitsIcE6assignERcRKc",
   "parameters" :
   [
    {
     "referenced_type" : "_ZTIRc"
    },
    {
     "referenced_type" : "_ZTIRKc"
    }
   ],
   "return_type" : "_ZTIv",
   "source_file" : "external/libcxx/include/__string"
  },
  {
   "function_name" : "std::__1::char_traits<char>::length",
   "linker_set_key" : "_ZNSt3__111char_traitsIcE6lengthEPKc",
   "parameters" :
   [
    {
     "referenced_type" : "_ZTIPKc"
    }
   ],
   "return_type" : "_ZTIj",
   "source_file" : "external/libcxx/include/__string"
  },
  {
   "function_name" : "std::__1::char_traits<char>::compare",
   "linker_set_key" : "_ZNSt3__111char_traitsIcE7compareEPKcS3_j",
   "parameters" :
   [
    {
     "referenced_type" : "_ZTIPKc"
    },
    {
     "referenced_type" : "_ZTIPKc"
    },
    {
     "referenced_type" : "_ZTIj"
    }
   ],
   "return_type" : "_ZTIi",
   "source_file" : "external/libcxx/include/__string"
  },
  {
   "function_name" : "std::__1::char_traits<char>::not_eof",
   "linker_set_key" : "_ZNSt3__111char_traitsIcE7not_eofEi",
   "parameters" :
   [
    {
     "referenced_type" : "_ZTIi"
    }
   ],
   "return_type" : "_ZTIi",
   "source_file" : "external/libcxx/include/__string"
  },
  {
   "function_name" : "std::__1::char_traits<wchar_t>::eq_int_type",
   "linker_set_key" : "_ZNSt3__111char_traitsIwE11eq_int_typeEjj",
   "parameters" :
   [
    {
     "referenced_type" : "_ZTIj"
    },
    {
     "referenced_type" : "_ZTIj"
    }
   ],
   "return_type" : "_ZTIb",
   "source_file" : "external/libcxx/include/__string"
  },
  {
   "function_name" : "std::__1::char_traits<wchar_t>::to_int_type",
   "linker_set_key" : "_ZNSt3__111char_traitsIwE11to_int_typeEw",
   "parameters" :
   [
    {
     "referenced_type" : "_ZTIw"
    }
   ],
   "return_type" : "_ZTIj",
   "source_file" : "external/libcxx/include/__string"
  },
  {
   "function_name" : "std::__1::char_traits<wchar_t>::to_char_type",
   "linker_set_key" : "_ZNSt3__111char_traitsIwE12to_char_typeEj",
   "parameters" :
   [
    {
     "referenced_type" : "_ZTIj"
    }
   ],
   "return_type" : "_ZTIw",
   "source_file" : "external/libcxx/include/__string"
  },
  {
   "function_name" : "std::__1::char_traits<wchar_t>::eq",
   "linker_set_key" : "_ZNSt3__111char_traitsIwE2eqEww",
   "parameters" :
   [
    {
     "referenced_type" : "_ZTIw"
    },
    {
     "referenced_type" : "_ZTIw"
    }
   ],
   "return_type" : "_ZTIb",
   "source_file" : "external/libcxx/include/__string"
  },
  {
   "function_name" : "std::__1::char_traits<wchar_t>::lt",
   "linker_set_key" : "_ZNSt3__111char_traitsIwE2ltEww",
   "parameters" :
   [
    {
     "referenced_type" : "_ZTIw"
    },
    {
     "referenced_type" : "_ZTIw"
    }
   ],
   "return_type" : "_ZTIb",
   "source_file" : "external/libcxx/include/__string"
  },
  {
   "function_name" : "std::__1::char_traits<wchar_t>::eof",
   "linker_set_key" : "_ZNSt3__111char_traitsIwE3eofEv",
   "return_type" : "_ZTIj",
   "source_file" : "external/libcxx/include/__string"
  },
  {
   "function_name" : "std::__1::char_traits<wchar_t>::copy",
   "linker_set_key" : "_ZNSt3__111char_traitsIwE4copyEPwPKwj",
   "parameters" :
   [
    {
     "referenced_type" : "_ZTIPw"
    },
    {
     "referenced_type" : "_ZTIPKw"
    },
    {
     "referenced_type" : "_ZTIj"
    }
   ],
   "return_type" : "_ZTIPw",
   "source_file" : "external/libcxx/include/__string"
  },
  {
   "function_name" : "std::__1::char_traits<wchar_t>::find",
   "linker_set_key" : "_ZNSt3__111char_traitsIwE4findEPKwjRS2_",
   "parameters" :
   [
    {
     "referenced_type" : "_ZTIPKw"
    },
    {
     "referenced_type" : "_ZTIj"
    },
    {
     "referenced_type" : "_ZTIRKw"
    }
   ],
   "return_type" : "_ZTIPKw",
   "source_file" : "external/libcxx/include/__string"
  },
  {
   "function_name" : "std::__1::char_traits<wchar_t>::move",
   "linker_set_key" : "_ZNSt3__111char_traitsIwE4moveEPwPKwj",
   "parameters" :
   [
    {
     "referenced_type" : "_ZTIPw"
    },
    {
     "referenced_type" : "_ZTIPKw"
    },
    {
     "referenced_type" : "_ZTIj"
    }
   ],
   "return_type" : "_ZTIPw",
   "source_file" : "external/libcxx/include/__string"
  },
  {
   "function_name" : "std::__1::char_traits<wchar_t>::assign",
   "linker_set_key" : "_ZNSt3__111char_traitsIwE6assignEPwjw",
   "parameters" :
   [
    {
     "referenced_type" : "_ZTIPw"
    },
    {
     "referenced_type" : "_ZTIj"
    },
    {
     "referenced_type" : "_ZTIw"
    }
   ],
   "return_type" : "_ZTIPw",
   "source_file" : "external/libcxx/include/__string"
  },
  {
   "function_name" : "std::__1::char_traits<wchar_t>::assign",
   "linker_set_key" : "_ZNSt3__111char_traitsIwE6assignERwRKw",
   "parameters" :
   [
    {
     "referenced_type" : "_ZTIRw"
    },
    {
     "referenced_type" : "_ZTIRKw"
    }
   ],
   "return_type" : "_ZTIv",
   "source_file" : "external/libcxx/include/__string"
  },
  {
   "function_name" : "std::__1::char_traits<wchar_t>::length",
   "linker_set_key" : "_ZNSt3__111char_traitsIwE6lengthEPKw",
   "parameters" :
   [
    {
     "referenced_type" : "_ZTIPKw"
    }
   ],
   "return_type" : "_ZTIj",
   "source_file" : "external/libcxx/include/__string"
  },
  {
   "function_name" : "std::__1::char_traits<wchar_t>::compare",
   "linker_set_key" : "_ZNSt3__111char_traitsIwE7compareEPKwS3_j",
   "parameters" :
   [
    {
     "referenced_type" : "_ZTIPKw"
    },
    {
     "referenced_type" : "_ZTIPKw"
    },
    {
     "referenced_type" : "_ZTIj"
    }
   ],
   "return_type" : "_ZTIi",
   "source_file" : "external/libcxx/include/__string"
  },
  {
   "function_name" : "std::__1::char_traits<wchar_t>::not_eof",
   "linker_set_key" : "_ZNSt3__111char_traitsIwE7not_eofEj",
   "parameters" :
   [
    {
     "referenced_type" : "_ZTIj"
    }
   ],
   "return_type" : "_ZTIj",
   "source_file" : "external/libcxx/include/__string"
  },
  {
   "function_name" : "std::__1::swap_ranges",
   "linker_set_key" : "_ZNSt3__111swap_rangesIPcS1_EET0_T_S3_S2_",
   "parameters" :
   [
    {
     "referenced_type" : "_ZTIPc"
    },
    {
     "referenced_type" : "_ZTIPc"
    },
    {
     "referenced_type" : "_ZTIPc"
    }
   ],
   "return_type" : "_ZTIPc",
   "source_file" : "external/libcxx/include/utility",
   "template_args" : [ "_ZTIPc", "_ZTIPc" ]
  },
  {
   "access" : "private",
   "function_name" : "std::__1::__destruct_n::__set",
   "linker_set_key" : "_ZNSt3__112__destruct_n5__setEjNS_17integral_constantIbLb0EEE",
   "parameters" :
   [
    {
     "is_this_ptr" : true,
     "referenced_type" : "_ZTIPNSt3__112__destruct_nE"
    },
    {
     "referenced_type" : "_ZTIj"
    },
    {
     "referenced_type" : "_ZTINSt3__117integral_constantIbLb0EEE"
    }
   ],
   "return_type" : "_ZTIv",
   "source_file" : "external/libcxx/include/memory"
  },
  {
   "access" : "private",
   "function_name" : "std::__1::__destruct_n::__set",
   "linker_set_key" : "_ZNSt3__112__destruct_n5__setEjNS_17integral_constantIbLb1EEE",
   "parameters" :
   [
    {
     "is_this_ptr" : true,
     "referenced_type" : "_ZTIPNSt3__112__destruct_nE"
    },
    {
     "referenced_type" : "_ZTIj"
    },
    {
     "referenced_type" : "_ZTINSt3__117integral_constantIbLb1EEE"
    }
   ],
   "return_type" : "_ZTIv",
   "source_file" : "external/libcxx/include/memory"
  },
  {
   "access" : "private",
   "function_name" : "std::__1::__destruct_n::__incr",
   "linker_set_key" : "_ZNSt3__112__destruct_n6__incrENS_17integral_constantIbLb0EEE",
   "parameters" :
   [
    {
     "is_this_ptr" : true,
     "referenced_type" : "_ZTIPNSt3__112__destruct_nE"
    },
    {
     "referenced_type" : "_ZTINSt3__117integral_constantIbLb0EEE"
    }
   ],
   "return_type" : "_ZTIv",
   "source_file" : "external/libcxx/include/memory"
  },
  {
   "access" : "private",
   "function_name" : "std::__1::__destruct_n::__incr",
   "linker_set_key" : "_ZNSt3__112__destruct_n6__incrENS_17integral_constantIbLb1EEE",
   "parameters" :
   [
    {
     "is_this_ptr" : true,
     "referenced_type" : "_ZTIPNSt3__112__destruct_nE"
    },
    {
     "referenced_type" : "_ZTINSt3__117integral_constantIbLb1EEE"
    }
   ],
   "return_type" : "_ZTIv",
   "source_file" : "external/libcxx/include/memory"
  },
  {
   "function_name" : "std::__1::__destruct_n::__destruct_n",
   "linker_set_key" : "_ZNSt3__112__destruct_nC1Ej",
   "parameters" :
   [
    {
     "is_this_ptr" : true,
     "referenced_type" : "_ZTIPNSt3__112__destruct_nE"
    },
    {
     "referenced_type" : "_ZTIj"
    }
   ],
   "return_type" : "_ZTIv",
   "source_file" : "external/libcxx/include/memory"
  },
  {
   "function_name" : "std::__1::__destruct_n::__destruct_n",
   "linker_set_key" : "_ZNSt3__112__destruct_nC2Ej",
   "parameters" :
   [
    {
     "is_this_ptr" : true,
     "referenced_type" : "_ZTIPNSt3__112__destruct_nE"
    },
    {
     "referenced_type" : "_ZTIj"
    }
   ],
   "return_type" : "_ZTIv",
   "source_file" : "external/libcxx/include/memory"
  },
  {
   "function_name" : "std::__1::__rotate_gcd",
   "linker_set_key" : "_ZNSt3__112__rotate_gcdIPcEET_S2_S2_S2_",
   "parameters" :
   [
    {
     "referenced_type" : "_ZTIPc"
    },
    {
     "referenced_type" : "_ZTIPc"
    },
    {
     "referenced_type" : "_ZTIPc"
    }
   ],
   "return_type" : "_ZTIPc",
   "source_file" : "external/libcxx/include/algorithm",
   "template_args" : [ "_ZTIPc" ]
  },
  {
   "function_name" : "std::__1::__rs_default::max",
   "linker_set_key" : "_ZNSt3__112__rs_default3maxEv",
   "return_type" : "_ZTIj",
   "source_file" : "external/libcxx/include/algorithm"
  },
  {
   "function_name" : "std::__1::__rs_default::min",
   "linker_set_key" : "_ZNSt3__112__rs_default3minEv",
   "return_type" : "_ZTIj",
   "source_file" : "external/libcxx/include/algorithm"
  },
  {
   "access" : "private",
   "function_name" : "std::__1::basic_string<char, std::__1::char_traits<char>, std::__1::allocator<char>>::__align_it",
   "linker_set_key" : "_ZNSt3__112basic_stringIcNS_11char_traitsIcEENS_9allocatorIcEEE10__align_itILj16EEEjj",
   "parameters" :
   [
    {
     "referenced_type" : "_ZTIj"
    }
   ],
   "return_type" : "_ZTIj",
   "source_file" : "external/libcxx/include/string"
  },
  {
   "access" : "private",
   "function_name" : "std::__1::basic_string<char, std::__1::char_traits<char>, std::__1::allocator<char>>::__recommend",
   "linker_set_key" : "_ZNSt3__112basic_stringIcNS_11char_traitsIcEENS_9allocatorIcEEE11__recommendEj",
   "parameters" :
   [
    {
     "referenced_type" : "_ZTIj"
    }
   ],
   "return_type" : "_ZTIj",
   "source_file" : "external/libcxx/include/string"
  },
  {
   "access" : "private",
   "function_name" : "std::__1::basic_string<char, std::__1::char_traits<char>, std::__1::allocator<char>>::__set_long_cap",
   "linker_set_key" : "_ZNSt3__112basic_stringIcNS_11char_traitsIcEENS_9allocatorIcEEE14__set_long_capEj",
   "parameters" :
   [
    {
     "is_this_ptr" : true,
     "referenced_type" : "_ZTIPNSt3__112basic_stringIcNS_11char_traitsIcEENS_9allocatorIcEEEE"
    },
    {
     "referenced_type" : "_ZTIj"
    }
   ],
   "return_type" : "_ZTIv",
   "source_file" : "external/libcxx/include/string"
  },
  {
   "access" : "private",
   "function_name" : "std::__1::basic_string<char, std::__1::char_traits<char>, std::__1::allocator<char>>::__set_long_size",
   "linker_set_key" : "_ZNSt3__112basic_stringIcNS_11char_traitsIcEENS_9allocatorIcEEE15__set_long_sizeEj",
   "parameters" :
   [
    {
     "is_this_ptr" : true,
     "referenced_type" : "_ZTIPNSt3__112basic_stringIcNS_11char_traitsIcEENS_9allocatorIcEEEE"
    },
    {
     "referenced_type" : "_ZTIj"
    }
   ],
   "return_type" : "_ZTIv",
   "source_file" : "external/libcxx/include/string"
  },
  {
   "access" : "private",
   "function_name" : "std::__1::basic_string<char, std::__1::char_traits<char>, std::__1::allocator<char>>::__set_short_size",
   "linker_set_key" : "_ZNSt3__112basic_stringIcNS_11char_traitsIcEENS_9allocatorIcEEE16__set_short_sizeEj",
   "parameters" :
   [
    {
     "is_this_ptr" : true,
     "referenced_type" : "_ZTIPNSt3__112basic_stringIcNS_11char_traitsIcEENS_9allocatorIcEEEE"
    },
    {
     "referenced_type" : "_ZTIj"
    }
   ],
   "return_type" : "_ZTIv",
   "source_file" : "external/libcxx/include/string"
  },
  {
   "access" : "private",
   "function_name" : "std::__1::basic_string<char, std::__1::char_traits<char>, std::__1::allocator<char>>::__get_long_pointer",
   "linker_set_key" : "_ZNSt3__112basic_stringIcNS_11char_traitsIcEENS_9allocatorIcEEE18__get_long_pointerEv",
   "parameters" :
   [
    {
     "is_this_ptr" : true,
     "referenced_type" : "_ZTIPNSt3__112basic_stringIcNS_11char_traitsIcEENS_9allocatorIcEEEE"
    }
   ],
   "return_type" : "_ZTIPc",
   "source_file" : "external/libcxx/include/string"
  },
  {
   "access" : "private",
   "function_name" : "std::__1::basic_string<char, std::__1::char_traits<char>, std::__1::allocator<char>>::__set_long_pointer",
   "linker_set_key" : "_ZNSt3__112basic_stringIcNS_11char_traitsIcEENS_9allocatorIcEEE18__set_long_pointerEPc",
   "parameters" :
   [
    {
     "is_this_ptr" : true,
     "referenced_type" : "_ZTIPNSt3__112basic_stringIcNS_11char_traitsIcEENS_9allocatorIcEEEE"
    },
    {
     "referenced_type" : "_ZTIPc"
    }
   ],
   "return_type" : "_ZTIv",
   "source_file" : "external/libcxx/include/string"
  },
  {
   "access" : "private",
   "function_name" : "std::__1::basic_string<char, std::__1::char_traits<char>, std::__1::allocator<char>>::__get_short_pointer",
   "linker_set_key" : "_ZNSt3__112basic_stringIcNS_11char_traitsIcEENS_9allocatorIcEEE19__get_short_pointerEv",
   "parameters" :
   [
    {
     "is_this_ptr" : true,
     "referenced_type" : "_ZTIPNSt3__112basic_stringIcNS_11char_traitsIcEENS_9allocatorIcEEEE"
    }
   ],
   "return_type" : "_ZTIPc",
   "source_file" : "external/libcxx/include/string"
  },
  {
   "access" : "private",
   "function_name" : "std::__1::basic_string<char, std::__1::char_traits<char>, std::__1::allocator<char>>::__init",
   "linker_set_key" : "_ZNSt3__112basic_stringIcNS_11char_traitsIcEENS_9allocatorIcEEE6__initEPKcj",
   "parameters" :
   [
    {
     "is_this_ptr" : true,
     "referenced_type" : "_ZTIPNSt3__112basic_stringIcNS_11char_traitsIcEENS_9allocatorIcEEEE"
    },
    {
     "referenced_type" : "_ZTIPKc"
    },
    {
     "referenced_type" : "_ZTIj"
    }
   ],
   "return_type" : "_ZTIv",
   "source_file" : "external/libcxx/include/string"
  },
  {
   "access" : "private",
   "function_name" : "std::__1::basic_string<char, std::__1::char_traits<char>, std::__1::allocator<char>>::__zero",
   "linker_set_key" : "_ZNSt3__112basic_stringIcNS_11char_traitsIcEENS_9allocatorIcEEE6__zeroEv",
   "parameters" :
   [
    {
     "is_this_ptr" : true,
     "referenced_type" : "_ZTIPNSt3__112basic_stringIcNS_11char_traitsIcEENS_9allocatorIcEEEE"
    }
   ],
   "return_type" : "_ZTIv",
   "source_file" : "external/libcxx/include/string"
  },
  {
   "access" : "private",
   "function_name" : "std::__1::basic_string<char, std::__1::char_traits<char>, std::__1::allocator<char>>::__alloc",
   "linker_set_key" : "_ZNSt3__112basic_stringIcNS_11char_traitsIcEENS_9allocatorIcEEE7__allocEv",
   "parameters" :
   [
    {
     "is_this_ptr" : true,
     "referenced_type" : "_ZTIPNSt3__112basic_stringIcNS_11char_traitsIcEENS_9allocatorIcEEEE"
    }
   ],
   "return_type" : "_ZTIRNSt3__19allocatorIcEE",
   "source_file" : "external/libcxx/include/string"
  },
  {
   "function_name" : "std::__1::basic_string<char, std::__1::char_traits<char>, std::__1::allocator<char>>::basic_string",
   "linker_set_key" : "_ZNSt3__112basic_stringIcNS_11char_traitsIcEENS_9allocatorIcEEEC1EOS5_",
   "parameters" :
   [
    {
     "is_this_ptr" : true,
     "referenced_type" : "_ZTIPNSt3__112basic_stringIcNS_11char_traitsIcEENS_9allocatorIcEEEE"
    },
    {
     "referenced_type" : "_ZTIONSt3__112basic_stringIcNS_11char_traitsIcEENS_9allocatorIcEEEE"
    }
   ],
   "return_type" : "_ZTIv",
   "source_file" : "external/libcxx/include/string"
  },
  {
   "function_name" : "std::__1::basic_string<char, std::__1::char_traits<char>, std::__1::allocator<char>>::basic_string",
   "linker_set_key" : "_ZNSt3__112basic_stringIcNS_11char_traitsIcEENS_9allocatorIcEEEC1EPKcj",
   "parameters" :
   [
    {
     "is_this_ptr" : true,
     "referenced_type" : "_ZTIPNSt3__112basic_stringIcNS_11char_traitsIcEENS_9allocatorIcEEEE"
    },
    {
     "referenced_type" : "_ZTIPKc"
    },
    {
     "referenced_type" : "_ZTIj"
    }
   ],
   "return_type" : "_ZTIv",
   "source_file" : "external/libcxx/include/string"
  },
  {
   "function_name" : "std::__1::basic_string<char, std::__1::char_traits<char>, std::__1::allocator<char>>::basic_string",
   "linker_set_key" : "_ZNSt3__112basic_stringIcNS_11char_traitsIcEENS_9allocatorIcEEEC1Ev",
   "parameters" :
   [
    {
     "is_this_ptr" : true,
     "referenced_type" : "_ZTIPNSt3__112basic_stringIcNS_11char_traitsIcEENS_9allocatorIcEEEE"
    }
   ],
   "return_type" : "_ZTIv",
   "source_file" : "external/libcxx/include/string"
  },
  {
   "function_name" : "std::__1::basic_string<char, std::__1::char_traits<char>, std::__1::allocator<char>>::basic_string",
   "linker_set_key" : "_ZNSt3__112basic_stringIcNS_11char_traitsIcEENS_9allocatorIcEEEC2EOS5_",
   "parameters" :
   [
    {
     "is_this_ptr" : true,
     "referenced_type" : "_ZTIPNSt3__112basic_stringIcNS_11char_traitsIcEENS_9allocatorIcEEEE"
    },
    {
     "referenced_type" : "_ZTIONSt3__112basic_stringIcNS_11char_traitsIcEENS_9allocatorIcEEEE"
    }
   ],
   "return_type" : "_ZTIv",
   "source_file" : "external/libcxx/include/string"
  },
  {
   "function_name" : "std::__1::basic_string<char, std::__1::char_traits<char>, std::__1::allocator<char>>::basic_string",
   "linker_set_key" : "_ZNSt3__112basic_stringIcNS_11char_traitsIcEENS_9allocatorIcEEEC2EPKcj",
   "parameters" :
   [
    {
     "is_this_ptr" : true,
     "referenced_type" : "_ZTIPNSt3__112basic_stringIcNS_11char_traitsIcEENS_9allocatorIcEEEE"
    },
    {
     "referenced_type" : "_ZTIPKc"
    },
    {
     "referenced_type" : "_ZTIj"
    }
   ],
   "return_type" : "_ZTIv",
   "source_file" : "external/libcxx/include/string"
  },
  {
   "function_name" : "std::__1::basic_string<char, std::__1::char_traits<char>, std::__1::allocator<char>>::basic_string",
   "linker_set_key" : "_ZNSt3__112basic_stringIcNS_11char_traitsIcEENS_9allocatorIcEEEC2Ev",
   "parameters" :
   [
    {
     "is_this_ptr" : true,
     "referenced_type" : "_ZTIPNSt3__112basic_stringIcNS_11char_traitsIcEENS_9allocatorIcEEEE"
    }
   ],
   "return_type" : "_ZTIv",
   "source_file" : "external/libcxx/include/string"
  },
  {
   "function_name" : "std::__1::basic_string<char, std::__1::char_traits<char>, std::__1::allocator<char>>::~basic_string",
   "linker_set_key" : "_ZNSt3__112basic_stringIcNS_11char_traitsIcEENS_9allocatorIcEEED1Ev",
   "parameters" :
   [
    {
     "is_this_ptr" : true,
     "referenced_type" : "_ZTIPNSt3__112basic_stringIcNS_11char_traitsIcEENS_9allocatorIcEEEE"
    }
   ],
   "return_type" : "_ZTIv",
   "source_file" : "external/libcxx/include/string"
  },
  {
   "function_name" : "std::__1::basic_string<char, std::__1::char_traits<char>, std::__1::allocator<char>>::~basic_string",
   "linker_set_key" : "_ZNSt3__112basic_stringIcNS_11char_traitsIcEENS_9allocatorIcEEED2Ev",
   "parameters" :
   [
    {
     "is_this_ptr" : true,
     "referenced_type" : "_ZTIPNSt3__112basic_stringIcNS_11char_traitsIcEENS_9allocatorIcEEEE"
    }
   ],
   "return_type" : "_ZTIv",
   "source_file" : "external/libcxx/include/string"
  },
  {
   "function_name" : "std::__1::__rotate_left",
   "linker_set_key" : "_ZNSt3__113__rotate_leftIPcEET_S2_S2_",
   "parameters" :
   [
    {
     "referenced_type" : "_ZTIPc"
    },
    {
     "referenced_type" : "_ZTIPc"
    }
   ],
   "return_type" : "_ZTIPc",
   "source_file" : "external/libcxx/include/algorithm",
   "template_args" : [ "_ZTIPc" ]
  },
  {
   "function_name" : "std::__1::__unwrap_iter",
   "linker_set_key" : "_ZNSt3__113__unwrap_iterIPcEET_S2_",
   "parameters" :
   [
    {
     "referenced_type" : "_ZTIPc"
    }
   ],
   "return_type" : "_ZTIPc",
   "source_file" : "external/libcxx/include/algorithm",
   "template_args" : [ "_ZTIPc" ]
  },
  {
   "function_name" : "std::__1::move_backward",
   "linker_set_key" : "_ZNSt3__113move_backwardIPcS1_EET0_T_S3_S2_",
   "parameters" :
   [
    {
     "referenced_type" : "_ZTIPc"
    },
    {
     "referenced_type" : "_ZTIPc"
    },
    {
     "referenced_type" : "_ZTIPc"
    }
   ],
   "return_type" : "_ZTIPc",
   "source_file" : "external/libcxx/include/algorithm",
   "template_args" : [ "_ZTIPc", "_ZTIPc" ]
  },
  {
   "function_name" : "std::__1::__hash_combine",
   "linker_set_key" : "_ZNSt3__114__hash_combineEjj",
   "parameters" :
   [
    {
     "referenced_type" : "_ZTIj"
    },
    {
     "referenced_type" : "_ZTIj"
    }
   ],
   "return_type" : "_ZTIj",
   "source_file" : "external/libcxx/include/utility"
  },
  {
   "function_name" : "std::__1::__rotate_right",
   "linker_set_key" : "_ZNSt3__114__rotate_rightIPcEET_S2_S2_",
   "parameters" :
   [
    {
     "referenced_type" : "_ZTIPc"
    },
    {
     "referenced_type" : "_ZTIPc"
    }
   ],
   "return_type" : "_ZTIPc",
   "source_file" : "external/libcxx/include/algorithm",
   "template_args" : [ "_ZTIPc" ]
  },
  {
   "function_name" : "std::__1::__shared_count::__add_shared",
   "linker_set_key" : "_ZNSt3__114__shared_count12__add_sharedEv",
   "parameters" :
   [
    {
     "is_this_ptr" : true,
     "referenced_type" : "_ZTIPNSt3__114__shared_countE"
    }
   ],
   "return_type" : "_ZTIv",
   "source_file" : "external/libcxx/include/memory"
  },
  {
   "function_name" : "std::__1::__shared_count::__release_shared",
   "linker_set_key" : "_ZNSt3__114__shared_count16__release_sharedEv",
   "parameters" :
   [
    {
     "is_this_ptr" : true,
     "referenced_type" : "_ZTIPNSt3__114__shared_countE"
    }
   ],
   "return_type" : "_ZTIb",
   "source_file" : "external/libcxx/include/memory"
  },
  {
   "function_name" : "std::__1::__shared_count::__shared_count",
   "linker_set_key" : "_ZNSt3__114__shared_countC2El",
   "parameters" :
   [
    {
     "is_this_ptr" : true,
     "referenced_type" : "_ZTIPNSt3__114__shared_countE"
    },
    {
     "default_arg" : true,
     "referenced_type" : "_ZTIl"
    }
   ],
   "return_type" : "_ZTIv",
   "source_file" : "external/libcxx/include/memory"
  },
  {
   "function_name" : "std::__1::error_category::error_category",
   "linker_set_key" : "_ZNSt3__114error_categoryC2Ev",
   "parameters" :
   [
    {
     "is_this_ptr" : true,
     "referenced_type" : "_ZTIPNSt3__114error_categoryE"
    }
   ],
   "return_type" : "_ZTIv",
   "source_file" : "external/libcxx/include/system_error"
  },
  {
   "function_name" : "std::__1::numeric_limits<int>::max",
   "linker_set_key" : "_ZNSt3__114numeric_limitsIiE3maxEv",
   "return_type" : "_ZTIi",
   "source_file" : "external/libcxx/include/limits"
  },
  {
   "function_name" : "std::__1::numeric_limits<unsigned int>::max",
   "linker_set_key" : "_ZNSt3__114numeric_limitsIjE3maxEv",
   "return_type" : "_ZTIj",
   "source_file" : "external/libcxx/include/limits"
  },
  {
   "function_name" : "std::__1::pointer_safety::pointer_safety",
   "linker_set_key" : "_ZNSt3__114pointer_safetyC1ENS0_4__lxE",
   "parameters" :
   [
    {
     "is_this_ptr" : true,
     "referenced_type" : "_ZTIPNSt3__114pointer_safetyE"
    },
    {
     "referenced_type" : "_ZTINSt3__114pointer_safety4__lxE"
    }
   ],
   "return_type" : "_ZTIv",
   "source_file" : "external/libcxx/include/memory"
  },
  {
   "function_name" : "std::__1::pointer_safety::pointer_safety",
   "linker_set_key" : "_ZNSt3__114pointer_safetyC1Ev",
   "parameters" :
   [
    {
     "is_this_ptr" : true,
     "referenced_type" : "_ZTIPNSt3__114pointer_safetyE"
    }
   ],
   "return_type" : "_ZTIv",
   "source_file" : "external/libcxx/include/memory"
  },
  {
   "function_name" : "std::__1::pointer_safety::pointer_safety",
   "linker_set_key" : "_ZNSt3__114pointer_safetyC2ENS0_4__lxE",
   "parameters" :
   [
    {
     "is_this_ptr" : true,
     "referenced_type" : "_ZTIPNSt3__114pointer_safetyE"
    },
    {
     "referenced_type" : "_ZTINSt3__114pointer_safety4__lxE"
    }
   ],
   "return_type" : "_ZTIv",
   "source_file" : "external/libcxx/include/memory"
  },
  {
   "function_name" : "std::__1::pointer_safety::pointer_safety",
   "linker_set_key" : "_ZNSt3__114pointer_safetyC2Ev",
   "parameters" :
   [
    {
     "is_this_ptr" : true,
     "referenced_type" : "_ZTIPNSt3__114pointer_safetyE"
    }
   ],
   "return_type" : "_ZTIv",
   "source_file" : "external/libcxx/include/memory"
  },
  {
   "function_name" : "std::__1::pointer_traits<const char *>::pointer_to",
   "linker_set_key" : "_ZNSt3__114pointer_traitsIPKcE10pointer_toERS1_",
   "parameters" :
   [
    {
     "referenced_type" : "_ZTIRKc"
    }
   ],
   "return_type" : "_ZTIPKc",
   "source_file" : "external/libcxx/include/memory"
  },
  {
   "function_name" : "std::__1::pointer_traits<char *>::pointer_to",
   "linker_set_key" : "_ZNSt3__114pointer_traitsIPcE10pointer_toERc",
   "parameters" :
   [
    {
     "referenced_type" : "_ZTIRc"
    }
   ],
   "return_type" : "_ZTIPc",
   "source_file" : "external/libcxx/include/memory"
  },
  {
   "function_name" : "std::__1::__move_backward",
   "linker_set_key" : "_ZNSt3__115__move_backwardIccEENS_9enable_ifIXaasr7is_sameINS_12remove_constIT_E4typeET0_EE5valuesr28is_trivially_copy_assignableIS6_EE5valueEPS6_E4typeEPS3_SA_S7_",
   "parameters" :
   [
    {
     "referenced_type" : "_ZTIPc"
    },
    {
     "referenced_type" : "_ZTIPc"
    },
    {
     "referenced_type" : "_ZTIPc"
    }
   ],
   "return_type" : "_ZTIPc",
   "source_file" : "external/libcxx/include/algorithm",
   "template_args" : [ "_ZTIc", "_ZTIc" ]
  },
  {
   "function_name" : "std::__1::error_condition::clear",
   "linker_set_key" : "_ZNSt3__115error_condition5clearEv",
   "parameters" :
   [
    {
     "is_this_ptr" : true,
     "referenced_type" : "_ZTIPNSt3__115error_conditionE"
    }
   ],
   "return_type" : "_ZTIv",
   "source_file" : "external/libcxx/include/system_error"
  },
  {
   "function_name" : "std::__1::error_condition::assign",
   "linker_set_key" : "_ZNSt3__115error_condition6assignEiRKNS_14error_categoryE",
   "parameters" :
   [
    {
     "is_this_ptr" : true,
     "referenced_type" : "_ZTIPNSt3__115error_conditionE"
    },
    {
     "referenced_type" : "_ZTIi"
    },
    {
     "referenced_type" : "_ZTIRKNSt3__114error_categoryE"
    }
   ],
   "return_type" : "_ZTIv",
   "source_file" : "external/libcxx/include/system_error"
  },
  {
   "function_name" : "std::__1::error_condition::error_condition",
   "linker_set_key" : "_ZNSt3__115error_conditionC1EiRKNS_14error_categoryE",
   "parameters" :
   [
    {
     "is_this_ptr" : true,
     "referenced_type" : "_ZTIPNSt3__115error_conditionE"
    },
    {
     "referenced_type" : "_ZTIi"
    },
    {
     "referenced_type" : "_ZTIRKNSt3__114error_categoryE"
    }
   ],
   "return_type" : "_ZTIv",
   "source_file" : "external/libcxx/include/system_error"
  },
  {
   "function_name" : "std::__1::error_condition::error_condition",
   "linker_set_key" : "_ZNSt3__115error_conditionC1Ev",
   "parameters" :
   [
    {
     "is_this_ptr" : true,
     "referenced_type" : "_ZTIPNSt3__115error_conditionE"
    }
   ],
   "return_type" : "_ZTIv",
   "source_file" : "external/libcxx/include/system_error"
  },
  {
   "function_name" : "std::__1::error_condition::error_condition",
   "linker_set_key" : "_ZNSt3__115error_conditionC2EiRKNS_14error_categoryE",
   "parameters" :
   [
    {
     "is_this_ptr" : true,
     "referenced_type" : "_ZTIPNSt3__115error_conditionE"
    },
    {
     "referenced_type" : "_ZTIi"
    },
    {
     "referenced_type" : "_ZTIRKNSt3__114error_categoryE"
    }
   ],
   "return_type" : "_ZTIv",
   "source_file" : "external/libcxx/include/system_error"
  },
  {
   "function_name" : "std::__1::error_condition::error_condition",
   "linker_set_key" : "_ZNSt3__115error_conditionC2Ev",
   "parameters" :
   [
    {
     "is_this_ptr" : true,
     "referenced_type" : "_ZTIPNSt3__115error_conditionE"
    }
   ],
   "return_type" : "_ZTIv",
   "source_file" : "external/libcxx/include/system_error"
  },
  {
   "function_name" : "std::__1::make_error_code",
   "linker_set_key" : "_ZNSt3__115make_error_codeENS_4errcE",
   "parameters" :
   [
    {
     "referenced_type" : "_ZTINSt3__14errcE"
    }
   ],
   "return_type" : "_ZTINSt3__110error_codeE",
   "source_file" : "external/libcxx/include/system_error"
  },
  {
   "function_name" : "std::__1::__rotate_forward",
   "linker_set_key" : "_ZNSt3__116__rotate_forwardIPcEET_S2_S2_S2_",
   "parameters" :
   [
    {
     "referenced_type" : "_ZTIPc"
    },
    {
     "referenced_type" : "_ZTIPc"
    },
    {
     "referenced_type" : "_ZTIPc"
    }
   ],
   "return_type" : "_ZTIPc",
   "source_file" : "external/libcxx/include/algorithm",
   "template_args" : [ "_ZTIPc" ]
  },
  {
   "function_name" : "std::__1::__throw_bad_cast",
   "linker_set_key" : "_ZNSt3__116__throw_bad_castEv",
   "return_type" : "_ZTIv",
   "source_file" : "external/libcxx/include/typeinfo"
  },
  {
   "function_name" : "std::__1::__to_raw_pointer",
   "linker_set_key" : "_ZNSt3__116__to_raw_pointerIKcEEPT_S3_",
   "parameters" :
   [
    {
     "referenced_type" : "_ZTIPKc"
    }
   ],
   "return_type" : "_ZTIPKc",
   "source_file" : "external/libcxx/include/memory",
   "template_args" : [ "_ZTIKc" ]
  },
  {
   "function_name" : "std::__1::__to_raw_pointer",
   "linker_set_key" : "_ZNSt3__116__to_raw_pointerIcEEPT_S2_",
   "parameters" :
   [
    {
     "referenced_type" : "_ZTIPc"
    }
   ],
   "return_type" : "_ZTIPc",
   "source_file" : "external/libcxx/include/memory",
   "template_args" : [ "_ZTIc" ]
  },
  {
   "access" : "private",
   "function_name" : "std::__1::allocator_traits<std::__1::allocator<char>>::__max_size",
   "linker_set_key" : "_ZNSt3__116allocator_traitsINS_9allocatorIcEEE10__max_sizeENS_17integral_constantIbLb1EEERKS2_",
   "parameters" :
   [
    {
     "referenced_type" : "_ZTINSt3__117integral_constantIbLb1EEE"
    },
    {
     "referenced_type" : "_ZTIRKNSt3__19allocatorIcEE"
    }
   ],
   "return_type" : "_ZTIj",
   "source_file" : "external/libcxx/include/memory"
  },
  {
   "function_name" : "std::__1::allocator_traits<std::__1::allocator<char>>::deallocate",
   "linker_set_key" : "_ZNSt3__116allocator_traitsINS_9allocatorIcEEE10deallocateERS2_Pcj",
   "parameters" :
   [
    {
     "referenced_type" : "_ZTIRNSt3__19allocatorIcEE"
    },
    {
     "referenced_type" : "_ZTIPc"
    },
    {
     "referenced_type" : "_ZTIj"
    }
   ],
   "return_type" : "_ZTIv",
   "source_file" : "external/libcxx/include/memory"
  },
  {
   "function_name" : "std::__1::allocator_traits<std::__1::allocator<char>>::allocate",
   "linker_set_key" : "_ZNSt3__116allocator_traitsINS_9allocatorIcEEE8allocateERS2_j",
   "parameters" :
   [
    {
     "referenced_type" : "_ZTIRNSt3__19allocatorIcEE"
    },
    {
     "referenced_type" : "_ZTIj"
    }
   ],
   "return_type" : "_ZTIPc",
   "source_file" : "external/libcxx/include/memory"
  },
  {
   "function_name" : "std::__1::allocator_traits<std::__1::allocator<char>>::max_size",
   "linker_set_key" : "_ZNSt3__116allocator_traitsINS_9allocatorIcEEE8max_sizeERKS2_",
   "parameters" :
   [
    {
     "referenced_type" : "_ZTIRKNSt3__19allocatorIcEE"
    }
   ],
   "return_type" : "_ZTIj",
   "source_file" : "external/libcxx/include/memory"
  },
  {
   "access" : "private",
   "function_name" : "std::__1::_DeallocateCaller::__do_deallocate_handle_size",
   "linker_set_key" : "_ZNSt3__117_DeallocateCaller27__do_deallocate_handle_sizeEPvj",
   "parameters" :
   [
    {
     "referenced_type" : "_ZTIPv"
    },
    {
     "referenced_type" : "_ZTIj"
    }
   ],
   "return_type" : "_ZTIv",
   "source_file" : "external/libcxx/include/new"
  },
  {
   "function_name" : "std::__1::_DeallocateCaller::__do_deallocate_handle_align",
   "linker_set_key" : "_ZNSt3__117_DeallocateCaller28__do_deallocate_handle_alignEPvj",
   "parameters" :
   [
    {
     "referenced_type" : "_ZTIPv"
    },
    {
     "referenced_type" : "_ZTIj"
    }
   ],
   "return_type" : "_ZTIv",
   "source_file" : "external/libcxx/include/new"
  },
  {
   "function_name" : "std::__1::_DeallocateCaller::__do_deallocate_handle_size_align",
   "linker_set_key" : "_ZNSt3__117_DeallocateCaller33__do_deallocate_handle_size_alignEPvjj",
   "parameters" :
   [
    {
     "referenced_type" : "_ZTIPv"
    },
    {
     "referenced_type" : "_ZTIj"
    },
    {
     "referenced_type" : "_ZTIj"
    }
   ],
   "return_type" : "_ZTIv",
   "source_file" : "external/libcxx/include/new"
  },
  {
   "access" : "private",
   "function_name" : "std::__1::_DeallocateCaller::__do_call",
   "linker_set_key" : "_ZNSt3__117_DeallocateCaller9__do_callEPv",
   "parameters" :
   [
    {
     "referenced_type" : "_ZTIPv"
    }
   ],
   "return_type" : "_ZTIv",
   "source_file" : "external/libcxx/include/new"
  },
  {
   "function_name" : "std::__1::__compressed_pair<std::__1::basic_string<char, std::__1::char_traits<char>, std::__1::allocator<char>>::__rep, std::__1::allocator<char>>::first",
   "linker_set_key" : "_ZNSt3__117__compressed_pairINS_12basic_stringIcNS_11char_traitsIcEENS_9allocatorIcEEE5__repES5_E5firstEv",
   "parameters" :
   [
    {
     "is_this_ptr" : true,
     "referenced_type" : "_ZTIPNSt3__117__compressed_pairINS_12basic_stringIcNS_11char_traitsIcEENS_9allocatorIcEEE5__repES5_EE"
    }
   ],
   "return_type" : "_ZTIRNSt3__112basic_stringIcNS_11char_traitsIcEENS_9allocatorIcEEE5__repE",
   "source_file" : "external/libcxx/include/memory"
  },
  {
   "function_name" : "std::__1::__compressed_pair<std::__1::basic_string<char, std::__1::char_traits<char>, std::__1::allocator<char>>::__rep, std::__1::allocator<char>>::second",
   "linker_set_key" : "_ZNSt3__117__compressed_pairINS_12basic_stringIcNS_11char_traitsIcEENS_9allocatorIcEEE5__repES5_E6secondEv",
   "parameters" :
   [
    {
     "is_this_ptr" : true,
     "referenced_type" : "_ZTIPNSt3__117__compressed_pairINS_12basic_stringIcNS_11char_traitsIcEENS_9allocatorIcEEE5__repES5_EE"
    }
   ],
   "return_type" : "_ZTIRNSt3__19allocatorIcEE",
   "source_file" : "external/libcxx/include/memory"
  },
  {
   "function_name" : "std::__1::__compressed_pair<std::__1::basic_string<char, std::__1::char_traits<char>, std::__1::allocator<char>>::__rep, std::__1::allocator<char>>::__compressed_pair",
   "linker_set_key" : "_ZNSt3__117__compressed_pairINS_12basic_stringIcNS_11char_traitsIcEENS_9allocatorIcEEE5__repES5_EC1ILb1EvEEv",
   "parameters" :
   [
    {
     "is_this_ptr" : true,
     "referenced_type" : "_ZTIPNSt3__117__compressed_pairINS_12basic_stringIcNS_11char_traitsIcEENS_9allocatorIcEEE5__repES5_EE"
    }
   ],
   "return_type" : "_ZTIv",
   "source_file" : "external/libcxx/include/memory",
   "template_args" : [ "_ZTIv" ]
  },
  {
   "function_name" : "std::__1::__compressed_pair<std::__1::basic_string<char, std::__1::char_traits<char>, std::__1::allocator<char>>::__rep, std::__1::allocator<char>>::__compressed_pair",
   "linker_set_key" : "_ZNSt3__117__compressed_pairINS_12basic_stringIcNS_11char_traitsIcEENS_9allocatorIcEEE5__repES5_EC2ILb1EvEEv",
   "parameters" :
   [
    {
     "is_this_ptr" : true,
     "referenced_type" : "_ZTIPNSt3__117__compressed_pairINS_12basic_stringIcNS_11char_traitsIcEENS_9allocatorIcEEE5__repES5_EE"
    }
   ],
   "return_type" : "_ZTIv",
   "source_file" : "external/libcxx/include/memory",
   "template_args" : [ "_ZTIv" ]
  },
  {
   "function_name" : "std::__1::__libcpp_allocate",
   "linker_set_key" : "_ZNSt3__117__libcpp_allocateEjj",
   "parameters" :
   [
    {
     "referenced_type" : "_ZTIj"
    },
    {
     "referenced_type" : "_ZTIj"
    }
   ],
   "return_type" : "_ZTIPv",
   "source_file" : "external/libcxx/include/new"
  },
  {
   "function_name" : "std::__1::atomic_flag_clear",
   "linker_set_key" : "_ZNSt3__117atomic_flag_clearEPNS_11atomic_flagE",
   "parameters" :
   [
    {
     "referenced_type" : "_ZTIPNSt3__111atomic_flagE"
    }
   ],
   "return_type" : "_ZTIv",
   "source_file" : "external/libcxx/include/atomic"
  },
  {
   "function_name" : "std::__1::atomic_flag_clear",
   "linker_set_key" : "_ZNSt3__117atomic_flag_clearEPVNS_11atomic_flagE",
   "parameters" :
   [
    {
     "referenced_type" : "_ZTIPVNSt3__111atomic_flagE"
    }
   ],
   "return_type" : "_ZTIv",
   "source_file" : "external/libcxx/include/atomic"
  },
  {
   "function_name" : "std::__1::basic_string_view<char, std::__1::char_traits<char>>::basic_string_view",
   "linker_set_key" : "_ZNSt3__117basic_string_viewIcNS_11char_traitsIcEEEC1ERKS3_",
   "parameters" :
   [
    {
     "is_this_ptr" : true,
     "referenced_type" : "_ZTIPNSt3__117basic_string_viewIcNS_11char_traitsIcEEEE"
    },
    {
     "referenced_type" : "_ZTIRKNSt3__117basic_string_viewIcNS_11char_traitsIcEEEE"
    }
   ],
   "return_type" : "_ZTIv",
   "source_file" : "external/libcxx/include/string_view"
  },
  {
   "function_name" : "std::__1::basic_string_view<char, std::__1::char_traits<char>>::basic_string_view",
   "linker_set_key" : "_ZNSt3__117basic_string_viewIcNS_11char_traitsIcEEEC2ERKS3_",
   "parameters" :
   [
    {
     "is_this_ptr" : true,
     "referenced_type" : "_ZTIPNSt3__117basic_string_viewIcNS_11char_traitsIcEEEE"
    },
    {
     "referenced_type" : "_ZTIRKNSt3__117basic_string_viewIcNS_11char_traitsIcEEEE"
    }
   ],
   "return_type" : "_ZTIv",
   "source_file" : "external/libcxx/include/string_view"
  },
  {
   "function_name" : "std::__1::basic_string_view<char, std::__1::char_traits<char>>::operator=",
   "linker_set_key" : "_ZNSt3__117basic_string_viewIcNS_11char_traitsIcEEEaSERKS3_",
   "parameters" :
   [
    {
     "is_this_ptr" : true,
     "referenced_type" : "_ZTIPNSt3__117basic_string_viewIcNS_11char_traitsIcEEEE"
    },
    {
     "referenced_type" : "_ZTIRKNSt3__117basic_string_viewIcNS_11char_traitsIcEEEE"
    }
   ],
   "return_type" : "_ZTIRNSt3__117basic_string_viewIcNS_11char_traitsIcEEEE",
   "source_file" : "external/libcxx/include/string_view"
  },
  {
   "function_name" : "std::__1::get_pointer_safety",
   "linker_set_key" : "_ZNSt3__118get_pointer_safetyEv",
   "return_type" : "_ZTINSt3__114pointer_safetyE",
   "source_file" : "external/libcxx/include/memory"
  },
  {
   "function_name" : "std::__1::__libcpp_deallocate",
   "linker_set_key" : "_ZNSt3__119__libcpp_deallocateEPvjj",
   "parameters" :
   [
    {
     "referenced_type" : "_ZTIPv"
    },
    {
     "referenced_type" : "_ZTIj"
    },
    {
     "referenced_type" : "_ZTIj"
    }
   ],
   "return_type" : "_ZTIv",
   "source_file" : "external/libcxx/include/new"
  },
  {
   "function_name" : "std::__1::__libcpp_debug_info::__libcpp_debug_info",
   "linker_set_key" : "_ZNSt3__119__libcpp_debug_infoC1EPKciS2_S2_",
   "parameters" :
   [
    {
     "is_this_ptr" : true,
     "referenced_type" : "_ZTIPNSt3__119__libcpp_debug_infoE"
    },
    {
     "referenced_type" : "_ZTIPKc"
    },
    {
     "referenced_type" : "_ZTIi"
    },
    {
     "referenced_type" : "_ZTIPKc"
    },
    {
     "referenced_type" : "_ZTIPKc"
    }
   ],
   "return_type" : "_ZTIv",
   "source_file" : "external/libcxx/include/__debug"
  },
  {
   "function_name" : "std::__1::__libcpp_debug_info::__libcpp_debug_info",
   "linker_set_key" : "_ZNSt3__119__libcpp_debug_infoC1Ev",
   "parameters" :
   [
    {
     "is_this_ptr" : true,
     "referenced_type" : "_ZTIPNSt3__119__libcpp_debug_infoE"
    }
   ],
   "return_type" : "_ZTIv",
   "source_file" : "external/libcxx/include/__debug"
  },
  {
   "function_name" : "std::__1::__libcpp_debug_info::__libcpp_debug_info",
   "linker_set_key" : "_ZNSt3__119__libcpp_debug_infoC2EPKciS2_S2_",
   "parameters" :
   [
    {
     "is_this_ptr" : true,
     "referenced_type" : "_ZTIPNSt3__119__libcpp_debug_infoE"
    },
    {
     "referenced_type" : "_ZTIPKc"
    },
    {
     "referenced_type" : "_ZTIi"
    },
    {
     "referenced_type" : "_ZTIPKc"
    },
    {
     "referenced_type" : "_ZTIPKc"
    }
   ],
   "return_type" : "_ZTIv",
   "source_file" : "external/libcxx/include/__debug"
  },
  {
   "function_name" : "std::__1::__libcpp_debug_info::__libcpp_debug_info",
   "linker_set_key" : "_ZNSt3__119__libcpp_debug_infoC2Ev",
   "parameters" :
   [
    {
     "is_this_ptr" : true,
     "referenced_type" : "_ZTIPNSt3__119__libcpp_debug_infoE"
    }
   ],
   "return_type" : "_ZTIv",
   "source_file" : "external/libcxx/include/__debug"
  },
  {
   "function_name" : "std::__1::__shared_weak_count::__add_weak",
   "linker_set_key" : "_ZNSt3__119__shared_weak_count10__add_weakEv",
   "parameters" :
   [
    {
     "is_this_ptr" : true,
     "referenced_type" : "_ZTIPNSt3__119__shared_weak_countE"
    }
   ],
   "return_type" : "_ZTIv",
   "source_file" : "external/libcxx/include/memory"
  },
  {
   "function_name" : "std::__1::__shared_weak_count::__add_shared",
   "linker_set_key" : "_ZNSt3__119__shared_weak_count12__add_sharedEv",
   "parameters" :
   [
    {
     "is_this_ptr" : true,
     "referenced_type" : "_ZTIPNSt3__119__shared_weak_countE"
    }
   ],
   "return_type" : "_ZTIv",
   "source_file" : "external/libcxx/include/memory"
  },
  {
   "function_name" : "std::__1::__shared_weak_count::__release_shared",
   "linker_set_key" : "_ZNSt3__119__shared_weak_count16__release_sharedEv",
   "parameters" :
   [
    {
     "is_this_ptr" : true,
     "referenced_type" : "_ZTIPNSt3__119__shared_weak_countE"
    }
   ],
   "return_type" : "_ZTIv",
   "source_file" : "external/libcxx/include/memory"
  },
  {
   "function_name" : "std::__1::__shared_weak_count::__shared_weak_count",
   "linker_set_key" : "_ZNSt3__119__shared_weak_countC2El",
   "parameters" :
   [
    {
     "is_this_ptr" : true,
     "referenced_type" : "_ZTIPNSt3__119__shared_weak_countE"
    },
    {
     "default_arg" : true,
     "referenced_type" : "_ZTIl"
    }
   ],
   "return_type" : "_ZTIv",
   "source_file" : "external/libcxx/include/memory"
  },
  {
   "function_name" : "std::__1::__throw_logic_error",
   "linker_set_key" : "_ZNSt3__119__throw_logic_errorEPKc",
   "parameters" :
   [
    {
     "referenced_type" : "_ZTIPKc"
    }
   ],
   "return_type" : "_ZTIv",
   "source_file" : "external/libcxx/include/stdexcept"
  },
  {
   "function_name" : "std::__1::__throw_range_error",
   "linker_set_key" : "_ZNSt3__119__throw_range_errorEPKc",
   "parameters" :
   [
    {
     "referenced_type" : "_ZTIPKc"
    }
   ],
   "return_type" : "_ZTIv",
   "source_file" : "external/libcxx/include/stdexcept"
  },
  {
   "function_name" : "std::__1::atomic_signal_fence",
   "linker_set_key" : "_ZNSt3__119atomic_signal_fenceENS_12memory_orderE",
   "parameters" :
   [
    {
     "referenced_type" : "_ZTINSt3__112memory_orderE"
    }
   ],
   "return_type" : "_ZTIv",
   "source_file" : "external/libcxx/include/atomic"
  },
  {
   "function_name" : "std::__1::atomic_thread_fence",
   "linker_set_key" : "_ZNSt3__119atomic_thread_fenceENS_12memory_orderE",
   "parameters" :
   [
    {
     "referenced_type" : "_ZTINSt3__112memory_orderE"
    }
   ],
   "return_type" : "_ZTIv",
   "source_file" : "external/libcxx/include/atomic"
  },
  {
   "function_name" : "std::__1::__throw_bad_weak_ptr",
   "linker_set_key" : "_ZNSt3__120__throw_bad_weak_ptrEv",
   "return_type" : "_ZTIv",
   "source_file" : "external/libcxx/include/memory"
  },
  {
   "function_name" : "std::__1::__throw_domain_error",
   "linker_set_key" : "_ZNSt3__120__throw_domain_errorEPKc",
   "parameters" :
   [
    {
     "referenced_type" : "_ZTIPKc"
    }
   ],
   "return_type" : "_ZTIv",
   "source_file" : "external/libcxx/include/stdexcept"
  },
  {
   "function_name" : "std::__1::__throw_length_error",
   "linker_set_key" : "_ZNSt3__120__throw_length_errorEPKc",
   "parameters" :
   [
    {
     "referenced_type" : "_ZTIPKc"
    }
   ],
   "return_type" : "_ZTIv",
   "source_file" : "external/libcxx/include/stdexcept"
  },
  {
   "function_name" : "std::__1::__throw_out_of_range",
   "linker_set_key" : "_ZNSt3__120__throw_out_of_rangeEPKc",
   "parameters" :
   [
    {
     "referenced_type" : "_ZTIPKc"
    }
   ],
   "return_type" : "_ZTIv",
   "source_file" : "external/libcxx/include/stdexcept"
  },
  {
   "function_name" : "std::__1::make_error_condition",
   "linker_set_key" : "_ZNSt3__120make_error_conditionENS_4errcE",
   "parameters" :
   [
    {
     "referenced_type" : "_ZTINSt3__14errcE"
    }
   ],
   "return_type" : "_ZTINSt3__115error_conditionE",
   "source_file" : "external/libcxx/include/system_error"
  },
  {
   "function_name" : "std::__1::__convert_to_integral",
   "linker_set_key" : "_ZNSt3__121__convert_to_integralEi",
   "parameters" :
   [
    {
     "referenced_type" : "_ZTIi"
    }
   ],
   "return_type" : "_ZTIi",
   "source_file" : "external/libcxx/include/type_traits"
  },
  {
   "function_name" : "std::__1::__convert_to_integral",
   "linker_set_key" : "_ZNSt3__121__convert_to_integralEj",
   "parameters" :
   [
    {
     "referenced_type" : "_ZTIj"
    }
   ],
   "return_type" : "_ZTIj",
   "source_file" : "external/libcxx/include/type_traits"
  },
  {
   "function_name" : "std::__1::__convert_to_integral",
   "linker_set_key" : "_ZNSt3__121__convert_to_integralEl",
   "parameters" :
   [
    {
     "referenced_type" : "_ZTIl"
    }
   ],
   "return_type" : "_ZTIl",
   "source_file" : "external/libcxx/include/type_traits"
  },
  {
   "function_name" : "std::__1::__convert_to_integral",
   "linker_set_key" : "_ZNSt3__121__convert_to_integralEm",
   "parameters" :
   [
    {
     "referenced_type" : "_ZTIm"
    }
   ],
   "return_type" : "_ZTIm",
   "source_file" : "external/libcxx/include/type_traits"
  },
  {
   "function_name" : "std::__1::__convert_to_integral",
   "linker_set_key" : "_ZNSt3__121__convert_to_integralEx",
   "parameters" :
   [
    {
     "referenced_type" : "_ZTIx"
    }
   ],
   "return_type" : "_ZTIx",
   "source_file" : "external/libcxx/include/type_traits"
  },
  {
   "function_name" : "std::__1::__convert_to_integral",
   "linker_set_key" : "_ZNSt3__121__convert_to_integralEy",
   "parameters" :
   [
    {
     "referenced_type" : "_ZTIy"
    }
   ],
   "return_type" : "_ZTIy",
   "source_file" : "external/libcxx/include/type_traits"
  },
  {
   "function_name" : "std::__1::__libcpp_relaxed_load",
   "linker_set_key" : "_ZNSt3__121__libcpp_relaxed_loadIlEET_PKS1_",
   "parameters" :
   [
    {
     "referenced_type" : "_ZTIPKl"
    }
   ],
   "return_type" : "_ZTIl",
   "source_file" : "external/libcxx/include/memory",
   "template_args" : [ "_ZTIl" ]
  },
  {
   "function_name" : "std::__1::__murmur2_or_cityhash<unsigned int, 32>::operator()",
   "linker_set_key" : "_ZNSt3__121__murmur2_or_cityhashIjLj32EEclEPKvj",
   "parameters" :
   [
    {
     "is_this_ptr" : true,
     "referenced_type" : "_ZTIPNSt3__121__murmur2_or_cityhashIjLj32EEE"
    },
    {
     "referenced_type" : "_ZTIPKv"
    },
    {
     "referenced_type" : "_ZTIj"
    }
   ],
   "return_type" : "_ZTIj",
   "source_file" : "external/libcxx/include/utility"
  },
  {
   "function_name" : "std::__1::__compressed_pair_elem<std::__1::basic_string<char, std::__1::char_traits<char>, std::__1::allocator<char>>::__rep, 0, false>::__get",
   "linker_set_key" : "_ZNSt3__122__compressed_pair_elemINS_12basic_stringIcNS_11char_traitsIcEENS_9allocatorIcEEE5__repELi0ELb0EE5__getEv",
   "parameters" :
   [
    {
     "is_this_ptr" : true,
     "referenced_type" : "_ZTIPNSt3__122__compressed_pair_elemINS_12basic_stringIcNS_11char_traitsIcEENS_9allocatorIcEEE5__repELi0ELb0EEE"
    }
   ],
   "return_type" : "_ZTIRNSt3__112basic_stringIcNS_11char_traitsIcEENS_9allocatorIcEEE5__repE",
   "source_file" : "external/libcxx/include/memory"
  },
  {
   "function_name" : "std::__1::__compressed_pair_elem<std::__1::basic_string<char, std::__1::char_traits<char>, std::__1::allocator<char>>::__rep, 0, false>::__compressed_pair_elem",
   "linker_set_key" : "_ZNSt3__122__compressed_pair_elemINS_12basic_stringIcNS_11char_traitsIcEENS_9allocatorIcEEE5__repELi0ELb0EEC1Ev",
   "parameters" :
   [
    {
     "is_this_ptr" : true,
     "referenced_type" : "_ZTIPNSt3__122__compressed_pair_elemINS_12basic_stringIcNS_11char_traitsIcEENS_9allocatorIcEEE5__repELi0ELb0EEE"
    }
   ],
   "return_type" : "_ZTIv",
   "source_file" : "external/libcxx/include/memory"
  },
  {
   "function_name" : "std::__1::__compressed_pair_elem<std::__1::basic_string<char, std::__1::char_traits<char>, std::__1::allocator<char>>::__rep, 0, false>::__compressed_pair_elem",
   "linker_set_key" : "_ZNSt3__122__compressed_pair_elemINS_12basic_stringIcNS_11char_traitsIcEENS_9allocatorIcEEE5__repELi0ELb0EEC2Ev",
   "parameters" :
   [
    {
     "is_this_ptr" : true,
     "referenced_type" : "_ZTIPNSt3__122__compressed_pair_elemINS_12basic_stringIcNS_11char_traitsIcEENS_9allocatorIcEEE5__repELi0ELb0EEE"
    }
   ],
   "return_type" : "_ZTIv",
   "source_file" : "external/libcxx/include/memory"
  },
  {
   "function_name" : "std::__1::__compressed_pair_elem<std::__1::allocator<char>, 1, true>::__get",
   "linker_set_key" : "_ZNSt3__122__compressed_pair_elemINS_9allocatorIcEELi1ELb1EE5__getEv",
   "parameters" :
   [
    {
     "is_this_ptr" : true,
     "referenced_type" : "_ZTIPNSt3__122__compressed_pair_elemINS_9allocatorIcEELi1ELb1EEE"
    }
   ],
   "return_type" : "_ZTIRNSt3__19allocatorIcEE",
   "source_file" : "external/libcxx/include/memory"
  },
  {
   "function_name" : "std::__1::__compressed_pair_elem<std::__1::allocator<char>, 1, true>::__compressed_pair_elem",
   "linker_set_key" : "_ZNSt3__122__compressed_pair_elemINS_9allocatorIcEELi1ELb1EEC1Ev",
   "parameters" :
   [
    {
     "is_this_ptr" : true,
     "referenced_type" : "_ZTIPNSt3__122__compressed_pair_elemINS_9allocatorIcEELi1ELb1EEE"
    }
   ],
   "return_type" : "_ZTIv",
   "source_file" : "external/libcxx/include/memory"
  },
  {
   "function_name" : "std::__1::__compressed_pair_elem<std::__1::allocator<char>, 1, true>::__compressed_pair_elem",
   "linker_set_key" : "_ZNSt3__122__compressed_pair_elemINS_9allocatorIcEELi1ELb1EEC2Ev",
   "parameters" :
   [
    {
     "is_this_ptr" : true,
     "referenced_type" : "_ZTIPNSt3__122__compressed_pair_elemINS_9allocatorIcEELi1ELb1EEE"
    }
   ],
   "return_type" : "_ZTIv",
   "source_file" : "external/libcxx/include/memory"
  },
  {
   "function_name" : "std::__1::__compressed_pair_elem<std::__1::allocator<unsigned char>, 1, true>::__compressed_pair_elem",
   "linker_set_key" : "_ZNSt3__122__compressed_pair_elemINS_9allocatorIhEELi1ELb1EEC1Ev",
   "parameters" :
   [
    {
     "is_this_ptr" : true,
     "referenced_type" : "_ZTIPNSt3__122__compressed_pair_elemINS_9allocatorIhEELi1ELb1EEE"
    }
   ],
   "return_type" : "_ZTIv",
   "source_file" : "external/libcxx/include/memory"
  },
  {
   "function_name" : "std::__1::__compressed_pair_elem<std::__1::allocator<unsigned char>, 1, true>::__compressed_pair_elem",
   "linker_set_key" : "_ZNSt3__122__compressed_pair_elemINS_9allocatorIhEELi1ELb1EEC2Ev",
   "parameters" :
   [
    {
     "is_this_ptr" : true,
     "referenced_type" : "_ZTIPNSt3__122__compressed_pair_elemINS_9allocatorIhEELi1ELb1EEE"
    }
   ],
   "return_type" : "_ZTIv",
   "source_file" : "external/libcxx/include/memory"
  },
  {
   "function_name" : "std::__1::__compressed_pair_elem<std::__1::allocator<wchar_t>, 1, true>::__compressed_pair_elem",
   "linker_set_key" : "_ZNSt3__122__compressed_pair_elemINS_9allocatorIwEELi1ELb1EEC1Ev",
   "parameters" :
   [
    {
     "is_this_ptr" : true,
     "referenced_type" : "_ZTIPNSt3__122__compressed_pair_elemINS_9allocatorIwEELi1ELb1EEE"
    }
   ],
   "return_type" : "_ZTIv",
   "source_file" : "external/libcxx/include/memory"
  },
  {
   "function_name" : "std::__1::__compressed_pair_elem<std::__1::allocator<wchar_t>, 1, true>::__compressed_pair_elem",
   "linker_set_key" : "_ZNSt3__122__compressed_pair_elemINS_9allocatorIwEELi1ELb1EEC2Ev",
   "parameters" :
   [
    {
     "is_this_ptr" : true,
     "referenced_type" : "_ZTIPNSt3__122__compressed_pair_elemINS_9allocatorIwEELi1ELb1EEE"
    }
   ],
   "return_type" : "_ZTIv",
   "source_file" : "external/libcxx/include/memory"
  },
  {
   "function_name" : "std::__1::__throw_overflow_error",
   "linker_set_key" : "_ZNSt3__122__throw_overflow_errorEPKc",
   "parameters" :
   [
    {
     "referenced_type" : "_ZTIPKc"
    }
   ],
   "return_type" : "_ZTIv",
   "source_file" : "external/libcxx/include/stdexcept"
  },
  {
   "access" : "protected",
   "function_name" : "std::__1::__libcpp_numeric_limits<bool, true>::denorm_min",
   "linker_set_key" : "_ZNSt3__123__libcpp_numeric_limitsIbLb1EE10denorm_minEv",
   "return_type" : "_ZTIb",
   "source_file" : "external/libcxx/include/limits"
  },
  {
   "access" : "protected",
   "function_name" : "std::__1::__libcpp_numeric_limits<bool, true>::round_error",
   "linker_set_key" : "_ZNSt3__123__libcpp_numeric_limitsIbLb1EE11round_errorEv",
   "return_type" : "_ZTIb",
   "source_file" : "external/libcxx/include/limits"
  },
  {
   "access" : "protected",
   "function_name" : "std::__1::__libcpp_numeric_limits<bool, true>::signaling_NaN",
   "linker_set_key" : "_ZNSt3__123__libcpp_numeric_limitsIbLb1EE13signaling_NaNEv",
   "return_type" : "_ZTIb",
   "source_file" : "external/libcxx/include/limits"
  },
  {
   "access" : "protected",
   "function_name" : "std::__1::__libcpp_numeric_limits<bool, true>::max",
   "linker_set_key" : "_ZNSt3__123__libcpp_numeric_limitsIbLb1EE3maxEv",
   "return_type" : "_ZTIb",
   "source_file" : "external/libcxx/include/limits"
  },
  {
   "access" : "protected",
   "function_name" : "std::__1::__libcpp_numeric_limits<bool, true>::min",
   "linker_set_key" : "_ZNSt3__123__libcpp_numeric_limitsIbLb1EE3minEv",
   "return_type" : "_ZTIb",
   "source_file" : "external/libcxx/include/limits"
  },
  {
   "access" : "protected",
   "function_name" : "std::__1::__libcpp_numeric_limits<bool, true>::lowest",
   "linker_set_key" : "_ZNSt3__123__libcpp_numeric_limitsIbLb1EE6lowestEv",
   "return_type" : "_ZTIb",
   "source_file" : "external/libcxx/include/limits"
  },
  {
   "access" : "protected",
   "function_name" : "std::__1::__libcpp_numeric_limits<bool, true>::epsilon",
   "linker_set_key" : "_ZNSt3__123__libcpp_numeric_limitsIbLb1EE7epsilonEv",
   "return_type" : "_ZTIb",
   "source_file" : "external/libcxx/include/limits"
  },
  {
   "access" : "protected",
   "function_name" : "std::__1::__libcpp_numeric_limits<bool, true>::infinity",
   "linker_set_key" : "_ZNSt3__123__libcpp_numeric_limitsIbLb1EE8infinityEv",
   "return_type" : "_ZTIb",
   "source_file" : "external/libcxx/include/limits"
  },
  {
   "access" : "protected",
   "function_name" : "std::__1::__libcpp_numeric_limits<bool, true>::quiet_NaN",
   "linker_set_key" : "_ZNSt3__123__libcpp_numeric_limitsIbLb1EE9quiet_NaNEv",
   "return_type" : "_ZTIb",
   "source_file" : "external/libcxx/include/limits"
  },
  {
   "access" : "protected",
   "function_name" : "std::__1::__libcpp_numeric_limits<double, true>::denorm_min",
   "linker_set_key" : "_ZNSt3__123__libcpp_numeric_limitsIdLb1EE10denorm_minEv",
   "return_type" : "_ZTId",
   "source_file" : "external/libcxx/include/limits"
  },
  {
   "access" : "protected",
   "function_name" : "std::__1::__libcpp_numeric_limits<double, true>::round_error",
   "linker_set_key" : "_ZNSt3__123__libcpp_numeric_limitsIdLb1EE11round_errorEv",
   "return_type" : "_ZTId",
   "source_file" : "external/libcxx/include/limits"
  },
  {
   "access" : "protected",
   "function_name" : "std::__1::__libcpp_numeric_limits<double, true>::signaling_NaN",
   "linker_set_key" : "_ZNSt3__123__libcpp_numeric_limitsIdLb1EE13signaling_NaNEv",
   "return_type" : "_ZTId",
   "source_file" : "external/libcxx/include/limits"
  },
  {
   "access" : "protected",
   "function_name" : "std::__1::__libcpp_numeric_limits<double, true>::max",
   "linker_set_key" : "_ZNSt3__123__libcpp_numeric_limitsIdLb1EE3maxEv",
   "return_type" : "_ZTId",
   "source_file" : "external/libcxx/include/limits"
  },
  {
   "access" : "protected",
   "function_name" : "std::__1::__libcpp_numeric_limits<double, true>::min",
   "linker_set_key" : "_ZNSt3__123__libcpp_numeric_limitsIdLb1EE3minEv",
   "return_type" : "_ZTId",
   "source_file" : "external/libcxx/include/limits"
  },
  {
   "access" : "protected",
   "function_name" : "std::__1::__libcpp_numeric_limits<double, true>::lowest",
   "linker_set_key" : "_ZNSt3__123__libcpp_numeric_limitsIdLb1EE6lowestEv",
   "return_type" : "_ZTId",
   "source_file" : "external/libcxx/include/limits"
  },
  {
   "access" : "protected",
   "function_name" : "std::__1::__libcpp_numeric_limits<double, true>::epsilon",
   "linker_set_key" : "_ZNSt3__123__libcpp_numeric_limitsIdLb1EE7epsilonEv",
   "return_type" : "_ZTId",
   "source_file" : "external/libcxx/include/limits"
  },
  {
   "access" : "protected",
   "function_name" : "std::__1::__libcpp_numeric_limits<double, true>::infinity",
   "linker_set_key" : "_ZNSt3__123__libcpp_numeric_limitsIdLb1EE8infinityEv",
   "return_type" : "_ZTId",
   "source_file" : "external/libcxx/include/limits"
  },
  {
   "access" : "protected",
   "function_name" : "std::__1::__libcpp_numeric_limits<double, true>::quiet_NaN",
   "linker_set_key" : "_ZNSt3__123__libcpp_numeric_limitsIdLb1EE9quiet_NaNEv",
   "return_type" : "_ZTId",
   "source_file" : "external/libcxx/include/limits"
  },
  {
   "access" : "protected",
   "function_name" : "std::__1::__libcpp_numeric_limits<long double, true>::denorm_min",
   "linker_set_key" : "_ZNSt3__123__libcpp_numeric_limitsIeLb1EE10denorm_minEv",
   "return_type" : "_ZTIe",
   "source_file" : "external/libcxx/include/limits"
  },
  {
   "access" : "protected",
   "function_name" : "std::__1::__libcpp_numeric_limits<long double, true>::round_error",
   "linker_set_key" : "_ZNSt3__123__libcpp_numeric_limitsIeLb1EE11round_errorEv",
   "return_type" : "_ZTIe",
   "source_file" : "external/libcxx/include/limits"
  },
  {
   "access" : "protected",
   "function_name" : "std::__1::__libcpp_numeric_limits<long double, true>::signaling_NaN",
   "linker_set_key" : "_ZNSt3__123__libcpp_numeric_limitsIeLb1EE13signaling_NaNEv",
   "return_type" : "_ZTIe",
   "source_file" : "external/libcxx/include/limits"
  },
  {
   "access" : "protected",
   "function_name" : "std::__1::__libcpp_numeric_limits<long double, true>::max",
   "linker_set_key" : "_ZNSt3__123__libcpp_numeric_limitsIeLb1EE3maxEv",
   "return_type" : "_ZTIe",
   "source_file" : "external/libcxx/include/limits"
  },
  {
   "access" : "protected",
   "function_name" : "std::__1::__libcpp_numeric_limits<long double, true>::min",
   "linker_set_key" : "_ZNSt3__123__libcpp_numeric_limitsIeLb1EE3minEv",
   "return_type" : "_ZTIe",
   "source_file" : "external/libcxx/include/limits"
  },
  {
   "access" : "protected",
   "function_name" : "std::__1::__libcpp_numeric_limits<long double, true>::lowest",
   "linker_set_key" : "_ZNSt3__123__libcpp_numeric_limitsIeLb1EE6lowestEv",
   "return_type" : "_ZTIe",
   "source_file" : "external/libcxx/include/limits"
  },
  {
   "access" : "protected",
   "function_name" : "std::__1::__libcpp_numeric_limits<long double, true>::epsilon",
   "linker_set_key" : "_ZNSt3__123__libcpp_numeric_limitsIeLb1EE7epsilonEv",
   "return_type" : "_ZTIe",
   "source_file" : "external/libcxx/include/limits"
  },
  {
   "access" : "protected",
   "function_name" : "std::__1::__libcpp_numeric_limits<long double, true>::infinity",
   "linker_set_key" : "_ZNSt3__123__libcpp_numeric_limitsIeLb1EE8infinityEv",
   "return_type" : "_ZTIe",
   "source_file" : "external/libcxx/include/limits"
  },
  {
   "access" : "protected",
   "function_name" : "std::__1::__libcpp_numeric_limits<long double, true>::quiet_NaN",
   "linker_set_key" : "_ZNSt3__123__libcpp_numeric_limitsIeLb1EE9quiet_NaNEv",
   "return_type" : "_ZTIe",
   "source_file" : "external/libcxx/include/limits"
  },
  {
   "access" : "protected",
   "function_name" : "std::__1::__libcpp_numeric_limits<float, true>::denorm_min",
   "linker_set_key" : "_ZNSt3__123__libcpp_numeric_limitsIfLb1EE10denorm_minEv",
   "return_type" : "_ZTIf",
   "source_file" : "external/libcxx/include/limits"
  },
  {
   "access" : "protected",
   "function_name" : "std::__1::__libcpp_numeric_limits<float, true>::round_error",
   "linker_set_key" : "_ZNSt3__123__libcpp_numeric_limitsIfLb1EE11round_errorEv",
   "return_type" : "_ZTIf",
   "source_file" : "external/libcxx/include/limits"
  },
  {
   "access" : "protected",
   "function_name" : "std::__1::__libcpp_numeric_limits<float, true>::signaling_NaN",
   "linker_set_key" : "_ZNSt3__123__libcpp_numeric_limitsIfLb1EE13signaling_NaNEv",
   "return_type" : "_ZTIf",
   "source_file" : "external/libcxx/include/limits"
  },
  {
   "access" : "protected",
   "function_name" : "std::__1::__libcpp_numeric_limits<float, true>::max",
   "linker_set_key" : "_ZNSt3__123__libcpp_numeric_limitsIfLb1EE3maxEv",
   "return_type" : "_ZTIf",
   "source_file" : "external/libcxx/include/limits"
  },
  {
   "access" : "protected",
   "function_name" : "std::__1::__libcpp_numeric_limits<float, true>::min",
   "linker_set_key" : "_ZNSt3__123__libcpp_numeric_limitsIfLb1EE3minEv",
   "return_type" : "_ZTIf",
   "source_file" : "external/libcxx/include/limits"
  },
  {
   "access" : "protected",
   "function_name" : "std::__1::__libcpp_numeric_limits<float, true>::lowest",
   "linker_set_key" : "_ZNSt3__123__libcpp_numeric_limitsIfLb1EE6lowestEv",
   "return_type" : "_ZTIf",
   "source_file" : "external/libcxx/include/limits"
  },
  {
   "access" : "protected",
   "function_name" : "std::__1::__libcpp_numeric_limits<float, true>::epsilon",
   "linker_set_key" : "_ZNSt3__123__libcpp_numeric_limitsIfLb1EE7epsilonEv",
   "return_type" : "_ZTIf",
   "source_file" : "external/libcxx/include/limits"
  },
  {
   "access" : "protected",
   "function_name" : "std::__1::__libcpp_numeric_limits<float, true>::infinity",
   "linker_set_key" : "_ZNSt3__123__libcpp_numeric_limitsIfLb1EE8infinityEv",
   "return_type" : "_ZTIf",
   "source_file" : "external/libcxx/include/limits"
  },
  {
   "access" : "protected",
   "function_name" : "std::__1::__libcpp_numeric_limits<float, true>::quiet_NaN",
   "linker_set_key" : "_ZNSt3__123__libcpp_numeric_limitsIfLb1EE9quiet_NaNEv",
   "return_type" : "_ZTIf",
   "source_file" : "external/libcxx/include/limits"
  },
  {
   "access" : "protected",
   "function_name" : "std::__1::__libcpp_numeric_limits<int, true>::max",
   "linker_set_key" : "_ZNSt3__123__libcpp_numeric_limitsIiLb1EE3maxEv",
   "return_type" : "_ZTIi",
   "source_file" : "external/libcxx/include/limits"
  },
  {
   "access" : "protected",
   "function_name" : "std::__1::__libcpp_numeric_limits<unsigned int, true>::max",
   "linker_set_key" : "_ZNSt3__123__libcpp_numeric_limitsIjLb1EE3maxEv",
   "return_type" : "_ZTIj",
   "source_file" : "external/libcxx/include/limits"
  },
  {
   "function_name" : "std::__1::__throw_underflow_error",
   "linker_set_key" : "_ZNSt3__123__throw_underflow_errorEPKc",
   "parameters" :
   [
    {
     "referenced_type" : "_ZTIPKc"
    }
   ],
   "return_type" : "_ZTIv",
   "source_file" : "external/libcxx/include/stdexcept"
  },
  {
   "function_name" : "std::__1::__is_overaligned_for_new",
   "linker_set_key" : "_ZNSt3__124__is_overaligned_for_newEj",
   "parameters" :
   [
    {
     "referenced_type" : "_ZTIj"
    }
   ],
   "return_type" : "_ZTIb",
   "source_file" : "external/libcxx/include/new"
  },
  {
   "function_name" : "std::__1::__throw_invalid_argument",
   "linker_set_key" : "_ZNSt3__124__throw_invalid_argumentEPKc",
   "parameters" :
   [
    {
     "referenced_type" : "_ZTIPKc"
    }
   ],
   "return_type" : "_ZTIv",
   "source_file" : "external/libcxx/include/stdexcept"
  },
  {
   "function_name" : "std::__1::atomic_flag_test_and_set",
   "linker_set_key" : "_ZNSt3__124atomic_flag_test_and_setEPNS_11atomic_flagE",
   "parameters" :
   [
    {
     "referenced_type" : "_ZTIPNSt3__111atomic_flagE"
    }
   ],
   "return_type" : "_ZTIb",
   "source_file" : "external/libcxx/include/atomic"
  },
  {
   "function_name" : "std::__1::atomic_flag_test_and_set",
   "linker_set_key" : "_ZNSt3__124atomic_flag_test_and_setEPVNS_11atomic_flagE",
   "parameters" :
   [
    {
     "referenced_type" : "_ZTIPVNSt3__111atomic_flagE"
    }
   ],
   "return_type" : "_ZTIb",
   "source_file" : "external/libcxx/include/atomic"
  },
  {
   "function_name" : "std::__1::__throw_bad_function_call",
   "linker_set_key" : "_ZNSt3__125__throw_bad_function_callEv",
   "return_type" : "_ZTIv",
   "source_file" : "external/libcxx/include/functional"
  },
  {
   "function_name" : "std::__1::atomic_flag_clear_explicit",
   "linker_set_key" : "_ZNSt3__126atomic_flag_clear_explicitEPNS_11atomic_flagENS_12memory_orderE",
   "parameters" :
   [
    {
     "referenced_type" : "_ZTIPNSt3__111atomic_flagE"
    },
    {
     "referenced_type" : "_ZTINSt3__112memory_orderE"
    }
   ],
   "return_type" : "_ZTIv",
   "source_file" : "external/libcxx/include/atomic"
  },
  {
   "function_name" : "std::__1::atomic_flag_clear_explicit",
   "linker_set_key" : "_ZNSt3__126atomic_flag_clear_explicitEPVNS_11atomic_flagENS_12memory_orderE",
   "parameters" :
   [
    {
     "referenced_type" : "_ZTIPVNSt3__111atomic_flagE"
    },
    {
     "referenced_type" : "_ZTINSt3__112memory_orderE"
    }
   ],
   "return_type" : "_ZTIv",
   "source_file" : "external/libcxx/include/atomic"
  },
  {
   "function_name" : "std::__1::__libcpp_deallocate_unsized",
   "linker_set_key" : "_ZNSt3__127__libcpp_deallocate_unsizedEPvj",
   "parameters" :
   [
    {
     "referenced_type" : "_ZTIPv"
    },
    {
     "referenced_type" : "_ZTIj"
    }
   ],
   "return_type" : "_ZTIv",
   "source_file" : "external/libcxx/include/new"
  },
  {
   "function_name" : "std::__1::__check_tuple_constructor_fail::__enable_assign",
   "linker_set_key" : "_ZNSt3__130__check_tuple_constructor_fail15__enable_assignIJNS_4pairIPvjEEEEEbv",
   "return_type" : "_ZTIb",
   "source_file" : "external/libcxx/include/__tuple"
  },
  {
   "function_name" : "std::__1::__check_tuple_constructor_fail::__enable_assign",
   "linker_set_key" : "_ZNSt3__130__check_tuple_constructor_fail15__enable_assignIJRKNS_4pairIPvjEEEEEbv",
   "return_type" : "_ZTIb",
   "source_file" : "external/libcxx/include/__tuple"
  },
  {
   "function_name" : "std::__1::__check_tuple_constructor_fail::__enable_explicit",
   "linker_set_key" : "_ZNSt3__130__check_tuple_constructor_fail17__enable_explicitIJNS_4pairIPvjEEEEEbv",
   "return_type" : "_ZTIb",
   "source_file" : "external/libcxx/include/__tuple"
  },
  {
   "function_name" : "std::__1::__check_tuple_constructor_fail::__enable_explicit",
   "linker_set_key" : "_ZNSt3__130__check_tuple_constructor_fail17__enable_explicitIJRKNS_4pairIPvjEEEEEbv",
   "return_type" : "_ZTIb",
   "source_file" : "external/libcxx/include/__tuple"
  },
  {
   "function_name" : "std::__1::__check_tuple_constructor_fail::__enable_implicit",
   "linker_set_key" : "_ZNSt3__130__check_tuple_constructor_fail17__enable_implicitIJNS_4pairIN4llvm9StringRefES4_EEEEEbv",
   "return_type" : "_ZTIb",
   "source_file" : "external/libcxx/include/__tuple"
  },
  {
   "function_name" : "std::__1::__check_tuple_constructor_fail::__enable_implicit",
   "linker_set_key" : "_ZNSt3__130__check_tuple_constructor_fail17__enable_implicitIJNS_4pairIPvjEEEEEbv",
   "return_type" : "_ZTIb",
   "source_file" : "external/libcxx/include/__tuple"
  },
  {
   "function_name" : "std::__1::__check_tuple_constructor_fail::__enable_implicit",
   "linker_set_key" : "_ZNSt3__130__check_tuple_constructor_fail17__enable_implicitIJRKNS_4pairIPvjEEEEEbv",
   "return_type" : "_ZTIb",
   "source_file" : "external/libcxx/include/__tuple"
  },
  {
   "function_name" : "std::__1::atomic_flag_test_and_set_explicit",
   "linker_set_key" : "_ZNSt3__133atomic_flag_test_and_set_explicitEPNS_11atomic_flagENS_12memory_orderE",
   "parameters" :
   [
    {
     "referenced_type" : "_ZTIPNSt3__111atomic_flagE"
    },
    {
     "referenced_type" : "_ZTINSt3__112memory_orderE"
    }
   ],
   "return_type" : "_ZTIb",
   "source_file" : "external/libcxx/include/atomic"
  },
  {
   "function_name" : "std::__1::atomic_flag_test_and_set_explicit",
   "linker_set_key" : "_ZNSt3__133atomic_flag_test_and_set_explicitEPVNS_11atomic_flagENS_12memory_orderE",
   "parameters" :
   [
    {
     "referenced_type" : "_ZTIPVNSt3__111atomic_flagE"
    },
    {
     "referenced_type" : "_ZTINSt3__112memory_orderE"
    }
   ],
   "return_type" : "_ZTIb",
   "source_file" : "external/libcxx/include/atomic"
  },
  {
   "function_name" : "std::__1::__libcpp_atomic_refcount_decrement",
   "linker_set_key" : "_ZNSt3__134__libcpp_atomic_refcount_decrementIlEET_RS1_",
   "parameters" :
   [
    {
     "referenced_type" : "_ZTIRl"
    }
   ],
   "return_type" : "_ZTIl",
   "source_file" : "external/libcxx/include/memory",
   "template_args" : [ "_ZTIl" ]
  },
  {
   "function_name" : "std::__1::__libcpp_atomic_refcount_increment",
   "linker_set_key" : "_ZNSt3__134__libcpp_atomic_refcount_incrementIlEET_RS1_",
   "parameters" :
   [
    {
     "referenced_type" : "_ZTIRl"
    }
   ],
   "return_type" : "_ZTIl",
   "source_file" : "external/libcxx/include/memory",
   "template_args" : [ "_ZTIl" ]
  },
  {
   "function_name" : "std::__1::max",
   "linker_set_key" : "_ZNSt3__13maxIjEERKT_S3_S3_",
   "parameters" :
   [
    {
     "referenced_type" : "_ZTIRKj"
    },
    {
     "referenced_type" : "_ZTIRKj"
    }
   ],
   "return_type" : "_ZTIRKj",
   "source_file" : "external/libcxx/include/algorithm",
   "template_args" : [ "_ZTIj" ]
  },
  {
   "function_name" : "std::__1::max",
   "linker_set_key" : "_ZNSt3__13maxIjNS_6__lessIjjEEEERKT_S5_S5_T0_",
   "parameters" :
   [
    {
     "referenced_type" : "_ZTIRKj"
    },
    {
     "referenced_type" : "_ZTIRKj"
    },
    {
     "referenced_type" : "_ZTINSt3__16__lessIjjEE"
    }
   ],
   "return_type" : "_ZTIRKj",
   "source_file" : "external/libcxx/include/algorithm",
   "template_args" : [ "_ZTIj", "_ZTINSt3__16__lessIjjEE" ]
  },
  {
   "function_name" : "std::__1::min",
   "linker_set_key" : "_ZNSt3__13minIjEERKT_S3_S3_",
   "parameters" :
   [
    {
     "referenced_type" : "_ZTIRKj"
    },
    {
     "referenced_type" : "_ZTIRKj"
    }
   ],
   "return_type" : "_ZTIRKj",
   "source_file" : "external/libcxx/include/algorithm",
   "template_args" : [ "_ZTIj" ]
  },
  {
   "function_name" : "std::__1::min",
   "linker_set_key" : "_ZNSt3__13minIjNS_6__lessIjjEEEERKT_S5_S5_T0_",
   "parameters" :
   [
    {
     "referenced_type" : "_ZTIRKj"
    },
    {
     "referenced_type" : "_ZTIRKj"
    },
    {
     "referenced_type" : "_ZTINSt3__16__lessIjjEE"
    }
   ],
   "return_type" : "_ZTIRKj",
   "source_file" : "external/libcxx/include/algorithm",
   "template_args" : [ "_ZTIj", "_ZTINSt3__16__lessIjjEE" ]
  },
  {
   "function_name" : "std::__1::move",
   "linker_set_key" : "_ZNSt3__14moveIPcS1_EET0_T_S3_S2_",
   "parameters" :
   [
    {
     "referenced_type" : "_ZTIPc"
    },
    {
     "referenced_type" : "_ZTIPc"
    },
    {
     "referenced_type" : "_ZTIPc"
    }
   ],
   "return_type" : "_ZTIPc",
   "source_file" : "external/libcxx/include/algorithm",
   "template_args" : [ "_ZTIPc", "_ZTIPc" ]
  },
  {
   "function_name" : "std::__1::move",
   "linker_set_key" : "_ZNSt3__14moveIRNS_17__compressed_pairINS_12basic_stringIcNS_11char_traitsIcEENS_9allocatorIcEEE5__repES6_EEEEONS_16remove_referenceIT_E4typeEOSC_",
   "parameters" :
   [
    {
     "referenced_type" : "_ZTIRNSt3__117__compressed_pairINS_12basic_stringIcNS_11char_traitsIcEENS_9allocatorIcEEE5__repES5_EE"
    }
   ],
   "return_type" : "_ZTIONSt3__117__compressed_pairINS_12basic_stringIcNS_11char_traitsIcEENS_9allocatorIcEEE5__repES5_EE",
   "source_file" : "external/libcxx/include/type_traits",
   "template_args" :
   [
    "_ZTIRNSt3__117__compressed_pairINS_12basic_stringIcNS_11char_traitsIcEENS_9allocatorIcEEE5__repES5_EE"
   ]
  },
  {
   "function_name" : "std::__1::move",
   "linker_set_key" : "_ZNSt3__14moveIRPKhEEONS_16remove_referenceIT_E4typeEOS5_",
   "parameters" :
   [
    {
     "referenced_type" : "_ZTIRPKh"
    }
   ],
   "return_type" : "_ZTIOPKh",
   "source_file" : "external/libcxx/include/type_traits",
   "template_args" : [ "_ZTIRPKh" ]
  },
  {
   "function_name" : "std::__1::move",
   "linker_set_key" : "_ZNSt3__14moveIRPPN4llvm18StringMapEntryBaseEEEONS_16remove_referenceIT_E4typeEOS7_",
   "parameters" :
   [
    {
     "referenced_type" : "_ZTIRPPN4llvm18StringMapEntryBaseE"
    }
   ],
   "return_type" : "_ZTIOPPN4llvm18StringMapEntryBaseE",
   "source_file" : "external/libcxx/include/type_traits",
   "template_args" : [ "_ZTIRPPN4llvm18StringMapEntryBaseE" ]
  },
  {
   "function_name" : "std::__1::move",
   "linker_set_key" : "_ZNSt3__14moveIRcEEONS_16remove_referenceIT_E4typeEOS3_",
   "parameters" :
   [
    {
     "referenced_type" : "_ZTIRc"
    }
   ],
   "return_type" : "_ZTIOc",
   "source_file" : "external/libcxx/include/type_traits",
   "template_args" : [ "_ZTIRc" ]
  },
  {
   "function_name" : "std::__1::move",
   "linker_set_key" : "_ZNSt3__14moveIRjEEONS_16remove_referenceIT_E4typeEOS3_",
   "parameters" :
   [
    {
     "referenced_type" : "_ZTIRj"
    }
   ],
   "return_type" : "_ZTIOj",
   "source_file" : "external/libcxx/include/type_traits",
   "template_args" : [ "_ZTIRj" ]
  },
  {
   "function_name" : "std::__1::move",
   "linker_set_key" : "_ZNSt3__14moveIRyEEONS_16remove_referenceIT_E4typeEOS3_",
   "parameters" :
   [
    {
     "referenced_type" : "_ZTIRy"
    }
   ],
   "return_type" : "_ZTIOy",
   "source_file" : "external/libcxx/include/type_traits",
   "template_args" : [ "_ZTIRy" ]
  },
  {
   "function_name" : "std::__1::next",
   "linker_set_key" : "_ZNSt3__14nextIPcEENS_9enable_ifIXsr19__is_input_iteratorIT_EE5valueES3_E4typeES3_NS_15iterator_traitsIS3_E15difference_typeE",
   "parameters" :
   [
    {
     "referenced_type" : "_ZTIPc"
    },
    {
     "default_arg" : true,
     "referenced_type" : "_ZTIi"
    }
   ],
   "return_type" : "_ZTIPc",
   "source_file" : "external/libcxx/include/iterator",
   "template_args" : [ "_ZTIPc" ]
  },
  {
   "function_name" : "std::__1::pair<llvm::StringRef, llvm::StringRef>::_CheckArgs::__enable_explicit",
   "linker_set_key" : "_ZNSt3__14pairIN4llvm9StringRefES2_E10_CheckArgs17__enable_explicitIRKS2_S2_EEbv",
   "return_type" : "_ZTIb",
   "source_file" : "external/libcxx/include/utility",
   "template_args" : [ "_ZTIRKN4llvm9StringRefE", "_ZTIN4llvm9StringRefE" ]
  },
  {
   "function_name" : "std::__1::pair<llvm::StringRef, llvm::StringRef>::_CheckArgs::__enable_explicit",
   "linker_set_key" : "_ZNSt3__14pairIN4llvm9StringRefES2_E10_CheckArgs17__enable_explicitIRKS2_S7_EEbv",
   "return_type" : "_ZTIb",
   "source_file" : "external/libcxx/include/utility",
   "template_args" : [ "_ZTIRKN4llvm9StringRefE", "_ZTIRKN4llvm9StringRefE" ]
  },
  {
   "function_name" : "std::__1::pair<llvm::StringRef, llvm::StringRef>::_CheckArgs::__enable_explicit",
   "linker_set_key" : "_ZNSt3__14pairIN4llvm9StringRefES2_E10_CheckArgs17__enable_explicitIS2_S2_EEbv",
   "return_type" : "_ZTIb",
   "source_file" : "external/libcxx/include/utility",
   "template_args" : [ "_ZTIN4llvm9StringRefE", "_ZTIN4llvm9StringRefE" ]
  },
  {
   "function_name" : "std::__1::pair<llvm::StringRef, llvm::StringRef>::_CheckArgs::__enable_implicit",
   "linker_set_key" : "_ZNSt3__14pairIN4llvm9StringRefES2_E10_CheckArgs17__enable_implicitIRKS2_S2_EEbv",
   "return_type" : "_ZTIb",
   "source_file" : "external/libcxx/include/utility",
   "template_args" : [ "_ZTIRKN4llvm9StringRefE", "_ZTIN4llvm9StringRefE" ]
  },
  {
   "function_name" : "std::__1::pair<llvm::StringRef, llvm::StringRef>::_CheckArgs::__enable_implicit",
   "linker_set_key" : "_ZNSt3__14pairIN4llvm9StringRefES2_E10_CheckArgs17__enable_implicitIRKS2_S7_EEbv",
   "return_type" : "_ZTIb",
   "source_file" : "external/libcxx/include/utility",
   "template_args" : [ "_ZTIRKN4llvm9StringRefE", "_ZTIRKN4llvm9StringRefE" ]
  },
  {
   "function_name" : "std::__1::pair<llvm::StringRef, llvm::StringRef>::_CheckArgs::__enable_implicit",
   "linker_set_key" : "_ZNSt3__14pairIN4llvm9StringRefES2_E10_CheckArgs17__enable_implicitIS2_S2_EEbv",
   "return_type" : "_ZTIb",
   "source_file" : "external/libcxx/include/utility",
   "template_args" : [ "_ZTIN4llvm9StringRefE", "_ZTIN4llvm9StringRefE" ]
  },
  {
   "function_name" : "std::__1::pair<llvm::StringRef, llvm::StringRef>::pair",
   "linker_set_key" : "_ZNSt3__14pairIN4llvm9StringRefES2_EC1EOS3_",
   "parameters" :
   [
    {
     "is_this_ptr" : true,
     "referenced_type" : "_ZTIPNSt3__14pairIN4llvm9StringRefES2_EE"
    },
    {
     "referenced_type" : "_ZTIONSt3__14pairIN4llvm9StringRefES2_EE"
    }
   ],
   "return_type" : "_ZTIv",
   "source_file" : "external/libcxx/include/utility"
  },
  {
   "function_name" : "std::__1::pair<llvm::StringRef, llvm::StringRef>::pair",
   "linker_set_key" : "_ZNSt3__14pairIN4llvm9StringRefES2_EC1ERKS3_",
   "parameters" :
   [
    {
     "is_this_ptr" : true,
     "referenced_type" : "_ZTIPNSt3__14pairIN4llvm9StringRefES2_EE"
    },
    {
     "referenced_type" : "_ZTIRKNSt3__14pairIN4llvm9StringRefES2_EE"
    }
   ],
   "return_type" : "_ZTIv",
   "source_file" : "external/libcxx/include/utility"
  },
  {
   "function_name" : "std::__1::pair<llvm::StringRef, llvm::StringRef>::pair",
   "linker_set_key" : "_ZNSt3__14pairIN4llvm9StringRefES2_EC1IRKS2_S2_Lb0EEEOT_OT0_",
   "parameters" :
   [
    {
     "is_this_ptr" : true,
     "referenced_type" : "_ZTIPNSt3__14pairIN4llvm9StringRefES2_EE"
    },
    {
     "referenced_type" : "_ZTIRKN4llvm9StringRefE"
    },
    {
     "referenced_type" : "_ZTION4llvm9StringRefE"
    }
   ],
   "return_type" : "_ZTIv",
   "source_file" : "external/libcxx/include/utility",
   "template_args" : [ "_ZTIRKN4llvm9StringRefE", "_ZTIN4llvm9StringRefE" ]
  },
  {
   "function_name" : "std::__1::pair<llvm::StringRef, llvm::StringRef>::pair",
   "linker_set_key" : "_ZNSt3__14pairIN4llvm9StringRefES2_EC1IS2_S2_Lb0EEEOT_OT0_",
   "parameters" :
   [
    {
     "is_this_ptr" : true,
     "referenced_type" : "_ZTIPNSt3__14pairIN4llvm9StringRefES2_EE"
    },
    {
     "referenced_type" : "_ZTION4llvm9StringRefE"
    },
    {
     "referenced_type" : "_ZTION4llvm9StringRefE"
    }
   ],
   "return_type" : "_ZTIv",
   "source_file" : "external/libcxx/include/utility",
   "template_args" : [ "_ZTIN4llvm9StringRefE", "_ZTIN4llvm9StringRefE" ]
  },
  {
   "function_name" : "std::__1::pair<llvm::StringRef, llvm::StringRef>::pair",
   "linker_set_key" : "_ZNSt3__14pairIN4llvm9StringRefES2_EC2EOS3_",
   "parameters" :
   [
    {
     "is_this_ptr" : true,
     "referenced_type" : "_ZTIPNSt3__14pairIN4llvm9StringRefES2_EE"
    },
    {
     "referenced_type" : "_ZTIONSt3__14pairIN4llvm9StringRefES2_EE"
    }
   ],
   "return_type" : "_ZTIv",
   "source_file" : "external/libcxx/include/utility"
  },
  {
   "function_name" : "std::__1::pair<llvm::StringRef, llvm::StringRef>::pair",
   "linker_set_key" : "_ZNSt3__14pairIN4llvm9StringRefES2_EC2ERKS3_",
   "parameters" :
   [
    {
     "is_this_ptr" : true,
     "referenced_type" : "_ZTIPNSt3__14pairIN4llvm9StringRefES2_EE"
    },
    {
     "referenced_type" : "_ZTIRKNSt3__14pairIN4llvm9StringRefES2_EE"
    }
   ],
   "return_type" : "_ZTIv",
   "source_file" : "external/libcxx/include/utility"
  },
  {
   "function_name" : "std::__1::pair<llvm::StringRef, llvm::StringRef>::pair",
   "linker_set_key" : "_ZNSt3__14pairIN4llvm9StringRefES2_EC2IRKS2_S2_Lb0EEEOT_OT0_",
   "parameters" :
   [
    {
     "is_this_ptr" : true,
     "referenced_type" : "_ZTIPNSt3__14pairIN4llvm9StringRefES2_EE"
    },
    {
     "referenced_type" : "_ZTIRKN4llvm9StringRefE"
    },
    {
     "referenced_type" : "_ZTION4llvm9StringRefE"
    }
   ],
   "return_type" : "_ZTIv",
   "source_file" : "external/libcxx/include/utility",
   "template_args" : [ "_ZTIRKN4llvm9StringRefE", "_ZTIN4llvm9StringRefE" ]
  },
  {
   "function_name" : "std::__1::pair<llvm::StringRef, llvm::StringRef>::pair",
   "linker_set_key" : "_ZNSt3__14pairIN4llvm9StringRefES2_EC2IS2_S2_Lb0EEEOT_OT0_",
   "parameters" :
   [
    {
     "is_this_ptr" : true,
     "referenced_type" : "_ZTIPNSt3__14pairIN4llvm9StringRefES2_EE"
    },
    {
     "referenced_type" : "_ZTION4llvm9StringRefE"
    },
    {
     "referenced_type" : "_ZTION4llvm9StringRefE"
    }
   ],
   "return_type" : "_ZTIv",
   "source_file" : "external/libcxx/include/utility",
   "template_args" : [ "_ZTIN4llvm9StringRefE", "_ZTIN4llvm9StringRefE" ]
  },
  {
   "function_name" : "std::__1::pair<void *, unsigned int>::_CheckArgs::__enable_explicit",
   "linker_set_key" : "_ZNSt3__14pairIPvjE10_CheckArgs17__enable_explicitIRKS1_RKjEEbv",
   "return_type" : "_ZTIb",
   "source_file" : "external/libcxx/include/utility",
   "template_args" : [ "_ZTIRKPv", "_ZTIRKj" ]
  },
  {
   "function_name" : "std::__1::pair<void *, unsigned int>::_CheckArgs::__enable_explicit",
   "linker_set_key" : "_ZNSt3__14pairIPvjE10_CheckArgs17__enable_explicitIS1_jEEbv",
   "return_type" : "_ZTIb",
   "source_file" : "external/libcxx/include/utility",
   "template_args" : [ "_ZTIPv", "_ZTIj" ]
  },
  {
   "function_name" : "std::__1::pair<void *, unsigned int>::_CheckArgs::__enable_implicit",
   "linker_set_key" : "_ZNSt3__14pairIPvjE10_CheckArgs17__enable_implicitIRKS1_RKjEEbv",
   "return_type" : "_ZTIb",
   "source_file" : "external/libcxx/include/utility",
   "template_args" : [ "_ZTIRKPv", "_ZTIRKj" ]
  },
  {
   "function_name" : "std::__1::pair<void *, unsigned int>::_CheckArgs::__enable_implicit",
   "linker_set_key" : "_ZNSt3__14pairIPvjE10_CheckArgs17__enable_implicitIS1_jEEbv",
   "return_type" : "_ZTIb",
   "source_file" : "external/libcxx/include/utility",
   "template_args" : [ "_ZTIPv", "_ZTIj" ]
  },
  {
   "function_name" : "std::__1::pair<void *, unsigned int>::pair",
   "linker_set_key" : "_ZNSt3__14pairIPvjEC1EOS2_",
   "parameters" :
   [
    {
     "is_this_ptr" : true,
     "referenced_type" : "_ZTIPNSt3__14pairIPvjEE"
    },
    {
     "referenced_type" : "_ZTIONSt3__14pairIPvjEE"
    }
   ],
   "return_type" : "_ZTIv",
   "source_file" : "external/libcxx/include/utility"
  },
  {
   "function_name" : "std::__1::pair<void *, unsigned int>::pair",
   "linker_set_key" : "_ZNSt3__14pairIPvjEC1ERKS2_",
   "parameters" :
   [
    {
     "is_this_ptr" : true,
     "referenced_type" : "_ZTIPNSt3__14pairIPvjEE"
    },
    {
     "referenced_type" : "_ZTIRKNSt3__14pairIPvjEE"
    }
   ],
   "return_type" : "_ZTIv",
   "source_file" : "external/libcxx/include/utility"
  },
  {
   "function_name" : "std::__1::pair<void *, unsigned int>::pair",
   "linker_set_key" : "_ZNSt3__14pairIPvjEC2EOS2_",
   "parameters" :
   [
    {
     "is_this_ptr" : true,
     "referenced_type" : "_ZTIPNSt3__14pairIPvjEE"
    },
    {
     "referenced_type" : "_ZTIONSt3__14pairIPvjEE"
    }
   ],
   "return_type" : "_ZTIv",
   "source_file" : "external/libcxx/include/utility"
  },
  {
   "function_name" : "std::__1::pair<void *, unsigned int>::pair",
   "linker_set_key" : "_ZNSt3__14pairIPvjEC2ERKS2_",
   "parameters" :
   [
    {
     "is_this_ptr" : true,
     "referenced_type" : "_ZTIPNSt3__14pairIPvjEE"
    },
    {
     "referenced_type" : "_ZTIRKNSt3__14pairIPvjEE"
    }
   ],
   "return_type" : "_ZTIv",
   "source_file" : "external/libcxx/include/utility"
  },
  {
   "function_name" : "std::__1::prev",
   "linker_set_key" : "_ZNSt3__14prevIPcEENS_9enable_ifIXsr27__is_bidirectional_iteratorIT_EE5valueES3_E4typeES3_NS_15iterator_traitsIS3_E15difference_typeE",
   "parameters" :
   [
    {
     "referenced_type" : "_ZTIPc"
    },
    {
     "default_arg" : true,
     "referenced_type" : "_ZTIi"
    }
   ],
   "return_type" : "_ZTIPc",
   "source_file" : "external/libcxx/include/iterator",
   "template_args" : [ "_ZTIPc" ]
  },
  {
   "function_name" : "std::__1::swap",
   "linker_set_key" : "_ZNSt3__14swapIPPN4llvm18StringMapEntryBaseEEENS_9enable_ifIXaasr21is_move_constructibleIT_EE5valuesr18is_move_assignableIS6_EE5valueEvE4typeERS6_S9_",
   "parameters" :
   [
    {
     "referenced_type" : "_ZTIRPPN4llvm18StringMapEntryBaseE"
    },
    {
     "referenced_type" : "_ZTIRPPN4llvm18StringMapEntryBaseE"
    }
   ],
   "return_type" : "_ZTIv",
   "source_file" : "external/libcxx/include/type_traits",
   "template_args" : [ "_ZTIPPN4llvm18StringMapEntryBaseE" ]
  },
  {
   "function_name" : "std::__1::swap",
   "linker_set_key" : "_ZNSt3__14swapIcEENS_9enable_ifIXaasr21is_move_constructibleIT_EE5valuesr18is_move_assignableIS2_EE5valueEvE4typeERS2_S5_",
   "parameters" :
   [
    {
     "referenced_type" : "_ZTIRc"
    },
    {
     "referenced_type" : "_ZTIRc"
    }
   ],
   "return_type" : "_ZTIv",
   "source_file" : "external/libcxx/include/type_traits",
   "template_args" : [ "_ZTIc" ]
  },
  {
   "function_name" : "std::__1::swap",
   "linker_set_key" : "_ZNSt3__14swapIjEENS_9enable_ifIXaasr21is_move_constructibleIT_EE5valuesr18is_move_assignableIS2_EE5valueEvE4typeERS2_S5_",
   "parameters" :
   [
    {
     "referenced_type" : "_ZTIRj"
    },
    {
     "referenced_type" : "_ZTIRj"
    }
   ],
   "return_type" : "_ZTIv",
   "source_file" : "external/libcxx/include/type_traits",
   "template_args" : [ "_ZTIj" ]
  },
  {
   "function_name" : "std::__1::swap",
   "linker_set_key" : "_ZNSt3__14swapIyEENS_9enable_ifIXaasr21is_move_constructibleIT_EE5valuesr18is_move_assignableIS2_EE5valueEvE4typeERS2_S5_",
   "parameters" :
   [
    {
     "referenced_type" : "_ZTIRy"
    },
    {
     "referenced_type" : "_ZTIRy"
    }
   ],
   "return_type" : "_ZTIv",
   "source_file" : "external/libcxx/include/type_traits",
   "template_args" : [ "_ZTIy" ]
  },
  {
   "function_name" : "std::__1::__clz",
   "linker_set_key" : "_ZNSt3__15__clzEj",
   "parameters" :
   [
    {
     "referenced_type" : "_ZTIj"
    }
   ],
   "return_type" : "_ZTIi",
   "source_file" : "external/libcxx/include/bit"
  },
  {
   "function_name" : "std::__1::__clz",
   "linker_set_key" : "_ZNSt3__15__clzEm",
   "parameters" :
   [
    {
     "referenced_type" : "_ZTIm"
    }
   ],
   "return_type" : "_ZTIi",
   "source_file" : "external/libcxx/include/bit"
  },
  {
   "function_name" : "std::__1::__clz",
   "linker_set_key" : "_ZNSt3__15__clzEy",
   "parameters" :
   [
    {
     "referenced_type" : "_ZTIy"
    }
   ],
   "return_type" : "_ZTIi",
   "source_file" : "external/libcxx/include/bit"
  },
  {
   "function_name" : "std::__1::__ctz",
   "linker_set_key" : "_ZNSt3__15__ctzEj",
   "parameters" :
   [
    {
     "referenced_type" : "_ZTIj"
    }
   ],
   "return_type" : "_ZTIi",
   "source_file" : "external/libcxx/include/bit"
  },
  {
   "function_name" : "std::__1::__ctz",
   "linker_set_key" : "_ZNSt3__15__ctzEm",
   "parameters" :
   [
    {
     "referenced_type" : "_ZTIm"
    }
   ],
   "return_type" : "_ZTIi",
   "source_file" : "external/libcxx/include/bit"
  },
  {
   "function_name" : "std::__1::__ctz",
   "linker_set_key" : "_ZNSt3__15__ctzEy",
   "parameters" :
   [
    {
     "referenced_type" : "_ZTIy"
    }
   ],
   "return_type" : "_ZTIi",
   "source_file" : "external/libcxx/include/bit"
  },
  {
   "function_name" : "std::__1::tuple<>::swap",
   "linker_set_key" : "_ZNSt3__15tupleIJEE4swapERS1_",
   "parameters" :
   [
    {
     "is_this_ptr" : true,
     "referenced_type" : "_ZTIPNSt3__15tupleIJEEE"
    },
    {
     "referenced_type" : "_ZTIRNSt3__15tupleIJEEE"
    }
   ],
   "return_type" : "_ZTIv",
   "source_file" : "external/libcxx/include/tuple"
  },
  {
   "function_name" : "std::__1::tuple<>::tuple",
   "linker_set_key" : "_ZNSt3__15tupleIJEEC1Ev",
   "parameters" :
   [
    {
     "is_this_ptr" : true,
     "referenced_type" : "_ZTIPNSt3__15tupleIJEEE"
    }
   ],
   "return_type" : "_ZTIv",
   "source_file" : "external/libcxx/include/tuple"
  },
  {
   "function_name" : "std::__1::tuple<>::tuple",
   "linker_set_key" : "_ZNSt3__15tupleIJEEC2Ev",
   "parameters" :
   [
    {
     "is_this_ptr" : true,
     "referenced_type" : "_ZTIPNSt3__15tupleIJEEE"
    }
   ],
   "return_type" : "_ZTIv",
   "source_file" : "external/libcxx/include/tuple"
  },
  {
   "function_name" : "std::__1::__move",
   "linker_set_key" : "_ZNSt3__16__moveIccEENS_9enable_ifIXaasr7is_sameINS_12remove_constIT_E4typeET0_EE5valuesr28is_trivially_copy_assignableIS6_EE5valueEPS6_E4typeEPS3_SA_S7_",
   "parameters" :
   [
    {
     "referenced_type" : "_ZTIPc"
    },
    {
     "referenced_type" : "_ZTIPc"
    },
    {
     "referenced_type" : "_ZTIPc"
    }
   ],
   "return_type" : "_ZTIPc",
   "source_file" : "external/libcxx/include/algorithm",
   "template_args" : [ "_ZTIc", "_ZTIc" ]
  },
  {
   "function_name" : "std::__1::rotate",
   "linker_set_key" : "_ZNSt3__16rotateIPcEET_S2_S2_S2_",
   "parameters" :
   [
    {
     "referenced_type" : "_ZTIPc"
    },
    {
     "referenced_type" : "_ZTIPc"
    },
    {
     "referenced_type" : "_ZTIPc"
    }
   ],
   "return_type" : "_ZTIPc",
   "source_file" : "external/libcxx/include/algorithm",
   "template_args" : [ "_ZTIPc" ]
  },
  {
   "function_name" : "std::__1::advance",
   "linker_set_key" : "_ZNSt3__17advanceIPcEEvRT_NS_15iterator_traitsIS2_E15difference_typeE",
   "parameters" :
   [
    {
     "referenced_type" : "_ZTIRPc"
    },
    {
     "referenced_type" : "_ZTIi"
    }
   ],
   "return_type" : "_ZTIv",
   "source_file" : "external/libcxx/include/iterator",
   "template_args" : [ "_ZTIPc" ]
  },
  {
   "function_name" : "std::__1::forward",
   "linker_set_key" : "_ZNSt3__17forwardIN4llvm9StringRefEEEOT_RNS_16remove_referenceIS3_E4typeE",
   "parameters" :
   [
    {
     "referenced_type" : "_ZTIRN4llvm9StringRefE"
    }
   ],
   "return_type" : "_ZTION4llvm9StringRefE",
   "source_file" : "external/libcxx/include/type_traits",
   "template_args" : [ "_ZTIN4llvm9StringRefE" ]
  },
  {
   "function_name" : "std::__1::forward",
   "linker_set_key" : "_ZNSt3__17forwardIRKN4llvm9StringRefEEEOT_RNS_16remove_referenceIS5_E4typeE",
   "parameters" :
   [
    {
     "referenced_type" : "_ZTIRKN4llvm9StringRefE"
    }
   ],
   "return_type" : "_ZTIRKN4llvm9StringRefE",
   "source_file" : "external/libcxx/include/type_traits",
   "template_args" : [ "_ZTIRKN4llvm9StringRefE" ]
  },
  {
   "function_name" : "std::__1::__rotate",
   "linker_set_key" : "_ZNSt3__18__rotateIPcEET_S2_S2_S2_NS_26random_access_iterator_tagE",
   "parameters" :
   [
    {
     "referenced_type" : "_ZTIPc"
    },
    {
     "referenced_type" : "_ZTIPc"
    },
    {
     "referenced_type" : "_ZTIPc"
    },
    {
     "referenced_type" : "_ZTINSt3__126random_access_iterator_tagE"
    }
   ],
   "return_type" : "_ZTIPc",
   "source_file" : "external/libcxx/include/algorithm",
   "template_args" : [ "_ZTIPc" ]
  },
  {
   "function_name" : "std::__1::__advance",
   "linker_set_key" : "_ZNSt3__19__advanceIPcEEvRT_NS_15iterator_traitsIS2_E15difference_typeENS_26random_access_iterator_tagE",
   "parameters" :
   [
    {
     "referenced_type" : "_ZTIRPc"
    },
    {
     "referenced_type" : "_ZTIi"
    },
    {
     "referenced_type" : "_ZTINSt3__126random_access_iterator_tagE"
    }
   ],
   "return_type" : "_ZTIv",
   "source_file" : "external/libcxx/include/iterator",
   "template_args" : [ "_ZTIPc" ]
  },
  {
   "function_name" : "std::__1::addressof",
   "linker_set_key" : "_ZNSt3__19addressofIKcEEPT_RS2_",
   "parameters" :
   [
    {
     "referenced_type" : "_ZTIRKc"
    }
   ],
   "return_type" : "_ZTIPKc",
   "source_file" : "external/libcxx/include/type_traits",
   "template_args" : [ "_ZTIKc" ]
  },
  {
   "function_name" : "std::__1::addressof",
   "linker_set_key" : "_ZNSt3__19addressofIcEEPT_RS1_",
   "parameters" :
   [
    {
     "referenced_type" : "_ZTIRc"
    }
   ],
   "return_type" : "_ZTIPc",
   "source_file" : "external/libcxx/include/type_traits",
   "template_args" : [ "_ZTIc" ]
  },
  {
   "function_name" : "std::__1::allocator<char>::deallocate",
   "linker_set_key" : "_ZNSt3__19allocatorIcE10deallocateEPcj",
   "parameters" :
   [
    {
     "is_this_ptr" : true,
     "referenced_type" : "_ZTIPNSt3__19allocatorIcEE"
    },
    {
     "referenced_type" : "_ZTIPc"
    },
    {
     "referenced_type" : "_ZTIj"
    }
   ],
   "return_type" : "_ZTIv",
   "source_file" : "external/libcxx/include/memory"
  },
  {
   "function_name" : "std::__1::allocator<char>::allocate",
   "linker_set_key" : "_ZNSt3__19allocatorIcE8allocateEjPKv",
   "parameters" :
   [
    {
     "is_this_ptr" : true,
     "referenced_type" : "_ZTIPNSt3__19allocatorIcEE"
    },
    {
     "referenced_type" : "_ZTIj"
    },
    {
     "default_arg" : true,
     "referenced_type" : "_ZTIPKv"
    }
   ],
   "return_type" : "_ZTIPc",
   "source_file" : "external/libcxx/include/memory"
  },
  {
   "function_name" : "std::__1::allocator<char>::allocator",
   "linker_set_key" : "_ZNSt3__19allocatorIcEC1Ev",
   "parameters" :
   [
    {
     "is_this_ptr" : true,
     "referenced_type" : "_ZTIPNSt3__19allocatorIcEE"
    }
   ],
   "return_type" : "_ZTIv",
   "source_file" : "external/libcxx/include/memory"
  },
  {
   "function_name" : "std::__1::allocator<char>::allocator",
   "linker_set_key" : "_ZNSt3__19allocatorIcEC2Ev",
   "parameters" :
   [
    {
     "is_this_ptr" : true,
     "referenced_type" : "_ZTIPNSt3__19allocatorIcEE"
    }
   ],
   "return_type" : "_ZTIv",
   "source_file" : "external/libcxx/include/memory"
  },
  {
   "function_name" : "std::__1::make_pair",
   "linker_set_key" : "_ZNSt3__19make_pairIN4llvm9StringRefES2_EENS_4pairINS_18__unwrap_ref_decayIT_E4typeENS4_IT0_E4typeEEEOS5_OS8_",
   "parameters" :
   [
    {
     "referenced_type" : "_ZTION4llvm9StringRefE"
    },
    {
     "referenced_type" : "_ZTION4llvm9StringRefE"
    }
   ],
   "return_type" : "_ZTINSt3__14pairIN4llvm9StringRefES2_EE",
   "source_file" : "external/libcxx/include/utility",
   "template_args" : [ "_ZTIN4llvm9StringRefE", "_ZTIN4llvm9StringRefE" ]
  },
  {
   "function_name" : "std::__1::make_pair",
   "linker_set_key" : "_ZNSt3__19make_pairIRKN4llvm9StringRefES2_EENS_4pairINS_18__unwrap_ref_decayIT_E4typeENS6_IT0_E4typeEEEOS7_OSA_",
   "parameters" :
   [
    {
     "referenced_type" : "_ZTIRKN4llvm9StringRefE"
    },
    {
     "referenced_type" : "_ZTION4llvm9StringRefE"
    }
   ],
   "return_type" : "_ZTINSt3__14pairIN4llvm9StringRefES2_EE",
   "source_file" : "external/libcxx/include/utility",
   "template_args" : [ "_ZTIRKN4llvm9StringRefE", "_ZTIN4llvm9StringRefE" ]
  },
  {
   "function_name" : "std::__1::tuple_cat",
   "linker_set_key" : "_ZNSt3__19tuple_catEv",
   "return_type" : "_ZTINSt3__15tupleIJEEE",
   "source_file" : "external/libcxx/include/tuple"
  },
  {
   "function_name" : "std::__1::operator==",
   "linker_set_key" : "_ZNSt3__1eqERKNS_10error_codeERKNS_15error_conditionE",
   "parameters" :
   [
    {
     "referenced_type" : "_ZTIRKNSt3__110error_codeE"
    },
    {
     "referenced_type" : "_ZTIRKNSt3__115error_conditionE"
    }
   ],
   "return_type" : "_ZTIb",
   "source_file" : "external/libcxx/include/system_error"
  },
  {
   "function_name" : "std::__1::operator==",
   "linker_set_key" : "_ZNSt3__1eqERKNS_10error_codeES2_",
   "parameters" :
   [
    {
     "referenced_type" : "_ZTIRKNSt3__110error_codeE"
    },
    {
     "referenced_type" : "_ZTIRKNSt3__110error_codeE"
    }
   ],
   "return_type" : "_ZTIb",
   "source_file" : "external/libcxx/include/system_error"
  },
  {
   "function_name" : "std::__1::operator==",
   "linker_set_key" : "_ZNSt3__1eqERKNS_14__bit_iteratorIT_XT0_EXT1_EEES5_",
   "parameters" :
   [
    {
     "referenced_type" : "_ZTIRKNSt3__114__bit_iteratorIT_XT0_EXT1_EEE"
    },
    {
     "referenced_type" : "_ZTIRKNSt3__114__bit_iteratorIT_XT0_EXT1_EEE"
    }
   ],
   "return_type" : "_ZTIb",
   "source_file" : "external/libcxx/include/__bit_reference"
  },
  {
   "function_name" : "std::__1::operator==",
   "linker_set_key" : "_ZNSt3__1eqERKNS_15error_conditionERKNS_10error_codeE",
   "parameters" :
   [
    {
     "referenced_type" : "_ZTIRKNSt3__115error_conditionE"
    },
    {
     "referenced_type" : "_ZTIRKNSt3__110error_codeE"
    }
   ],
   "return_type" : "_ZTIb",
   "source_file" : "external/libcxx/include/system_error"
  },
  {
   "function_name" : "std::__1::operator==",
   "linker_set_key" : "_ZNSt3__1eqERKNS_15error_conditionES2_",
   "parameters" :
   [
    {
     "referenced_type" : "_ZTIRKNSt3__115error_conditionE"
    },
    {
     "referenced_type" : "_ZTIRKNSt3__115error_conditionE"
    }
   ],
   "return_type" : "_ZTIb",
   "source_file" : "external/libcxx/include/system_error"
  },
  {
   "function_name" : "std::__1::operator==",
   "linker_set_key" : "_ZNSt3__1eqERKNS_24uniform_int_distribution10param_typeES3_",
   "parameters" :
   [
    {
     "referenced_type" : "_ZTIRKNSt3__124uniform_int_distribution10param_typeE"
    },
    {
     "referenced_type" : "_ZTIRKNSt3__124uniform_int_distribution10param_typeE"
    }
   ],
   "return_type" : "_ZTIb",
   "source_file" : "external/libcxx/include/algorithm"
  },
  {
   "function_name" : "std::__1::operator==",
   "linker_set_key" : "_ZNSt3__1eqERKNS_24uniform_int_distributionIT_EES5_",
   "parameters" :
   [
    {
     "referenced_type" : "_ZTIRKNSt3__124uniform_int_distributionIT_EE"
    },
    {
     "referenced_type" : "_ZTIRKNSt3__124uniform_int_distributionIT_EE"
    }
   ],
   "return_type" : "_ZTIb",
   "source_file" : "external/libcxx/include/algorithm"
  },
  {
   "function_name" : "std::__1::operator>=",
   "linker_set_key" : "_ZNSt3__1geERKNS_14__bit_iteratorIT_XT0_EXT1_EEES5_",
   "parameters" :
   [
    {
     "referenced_type" : "_ZTIRKNSt3__114__bit_iteratorIT_XT0_EXT1_EEE"
    },
    {
     "referenced_type" : "_ZTIRKNSt3__114__bit_iteratorIT_XT0_EXT1_EEE"
    }
   ],
   "return_type" : "_ZTIb",
   "source_file" : "external/libcxx/include/__bit_reference"
  },
  {
   "function_name" : "std::__1::operator>",
   "linker_set_key" : "_ZNSt3__1gtERKNS_14__bit_iteratorIT_XT0_EXT1_EEES5_",
   "parameters" :
   [
    {
     "referenced_type" : "_ZTIRKNSt3__114__bit_iteratorIT_XT0_EXT1_EEE"
    },
    {
     "referenced_type" : "_ZTIRKNSt3__114__bit_iteratorIT_XT0_EXT1_EEE"
    }
   ],
   "return_type" : "_ZTIb",
   "source_file" : "external/libcxx/include/__bit_reference"
  },
  {
   "function_name" : "std::__1::operator<=",
   "linker_set_key" : "_ZNSt3__1leERKNS_14__bit_iteratorIT_XT0_EXT1_EEES5_",
   "parameters" :
   [
    {
     "referenced_type" : "_ZTIRKNSt3__114__bit_iteratorIT_XT0_EXT1_EEE"
    },
    {
     "referenced_type" : "_ZTIRKNSt3__114__bit_iteratorIT_XT0_EXT1_EEE"
    }
   ],
   "return_type" : "_ZTIb",
   "source_file" : "external/libcxx/include/__bit_reference"
  },
  {
   "function_name" : "std::__1::operator<",
   "linker_set_key" : "_ZNSt3__1ltERKNS_10error_codeES2_",
   "parameters" :
   [
    {
     "referenced_type" : "_ZTIRKNSt3__110error_codeE"
    },
    {
     "referenced_type" : "_ZTIRKNSt3__110error_codeE"
    }
   ],
   "return_type" : "_ZTIb",
   "source_file" : "external/libcxx/include/system_error"
  },
  {
   "function_name" : "std::__1::operator<",
   "linker_set_key" : "_ZNSt3__1ltERKNS_14__bit_iteratorIT_XT0_EXT1_EEES5_",
   "parameters" :
   [
    {
     "referenced_type" : "_ZTIRKNSt3__114__bit_iteratorIT_XT0_EXT1_EEE"
    },
    {
     "referenced_type" : "_ZTIRKNSt3__114__bit_iteratorIT_XT0_EXT1_EEE"
    }
   ],
   "return_type" : "_ZTIb",
   "source_file" : "external/libcxx/include/__bit_reference"
  },
  {
   "function_name" : "std::__1::operator<",
   "linker_set_key" : "_ZNSt3__1ltERKNS_15error_conditionES2_",
   "parameters" :
   [
    {
     "referenced_type" : "_ZTIRKNSt3__115error_conditionE"
    },
    {
     "referenced_type" : "_ZTIRKNSt3__115error_conditionE"
    }
   ],
   "return_type" : "_ZTIb",
   "source_file" : "external/libcxx/include/system_error"
  },
  {
   "function_name" : "std::__1::operator-",
   "linker_set_key" : "_ZNSt3__1miERKNS_14__bit_iteratorIT_XT0_EXT1_EEES5_",
   "parameters" :
   [
    {
     "referenced_type" : "_ZTIRKNSt3__114__bit_iteratorIT_XT0_EXT1_EEE"
    },
    {
     "referenced_type" : "_ZTIRKNSt3__114__bit_iteratorIT_XT0_EXT1_EEE"
    }
   ],
   "return_type" : "_ZTINT_15difference_typeE",
   "source_file" : "external/libcxx/include/__bit_reference"
  },
  {
   "function_name" : "std::__1::operator!=",
   "linker_set_key" : "_ZNSt3__1neERKNS_10error_codeERKNS_15error_conditionE",
   "parameters" :
   [
    {
     "referenced_type" : "_ZTIRKNSt3__110error_codeE"
    },
    {
     "referenced_type" : "_ZTIRKNSt3__115error_conditionE"
    }
   ],
   "return_type" : "_ZTIb",
   "source_file" : "external/libcxx/include/system_error"
  },
  {
   "function_name" : "std::__1::operator!=",
   "linker_set_key" : "_ZNSt3__1neERKNS_10error_codeES2_",
   "parameters" :
   [
    {
     "referenced_type" : "_ZTIRKNSt3__110error_codeE"
    },
    {
     "referenced_type" : "_ZTIRKNSt3__110error_codeE"
    }
   ],
   "return_type" : "_ZTIb",
   "source_file" : "external/libcxx/include/system_error"
  },
  {
   "function_name" : "std::__1::operator!=",
   "linker_set_key" : "_ZNSt3__1neERKNS_14__bit_iteratorIT_XT0_EXT1_EEES5_",
   "parameters" :
   [
    {
     "referenced_type" : "_ZTIRKNSt3__114__bit_iteratorIT_XT0_EXT1_EEE"
    },
    {
     "referenced_type" : "_ZTIRKNSt3__114__bit_iteratorIT_XT0_EXT1_EEE"
    }
   ],
   "return_type" : "_ZTIb",
   "source_file" : "external/libcxx/include/__bit_reference"
  },
  {
   "function_name" : "std::__1::operator!=",
   "linker_set_key" : "_ZNSt3__1neERKNS_15error_conditionERKNS_10error_codeE",
   "parameters" :
   [
    {
     "referenced_type" : "_ZTIRKNSt3__115error_conditionE"
    },
    {
     "referenced_type" : "_ZTIRKNSt3__110error_codeE"
    }
   ],
   "return_type" : "_ZTIb",
   "source_file" : "external/libcxx/include/system_error"
  },
  {
   "function_name" : "std::__1::operator!=",
   "linker_set_key" : "_ZNSt3__1neERKNS_15error_conditionES2_",
   "parameters" :
   [
    {
     "referenced_type" : "_ZTIRKNSt3__115error_conditionE"
    },
    {
     "referenced_type" : "_ZTIRKNSt3__115error_conditionE"
    }
   ],
   "return_type" : "_ZTIb",
   "source_file" : "external/libcxx/include/system_error"
  },
  {
   "function_name" : "std::__1::operator!=",
   "linker_set_key" : "_ZNSt3__1neERKNS_24uniform_int_distribution10param_typeES3_",
   "parameters" :
   [
    {
     "referenced_type" : "_ZTIRKNSt3__124uniform_int_distribution10param_typeE"
    },
    {
     "referenced_type" : "_ZTIRKNSt3__124uniform_int_distribution10param_typeE"
    }
   ],
   "return_type" : "_ZTIb",
   "source_file" : "external/libcxx/include/algorithm"
  },
  {
   "function_name" : "std::__1::operator!=",
   "linker_set_key" : "_ZNSt3__1neERKNS_24uniform_int_distributionIT_EES5_",
   "parameters" :
   [
    {
     "referenced_type" : "_ZTIRKNSt3__124uniform_int_distributionIT_EE"
    },
    {
     "referenced_type" : "_ZTIRKNSt3__124uniform_int_distributionIT_EE"
    }
   ],
   "return_type" : "_ZTIb",
   "source_file" : "external/libcxx/include/algorithm"
  },
  {
   "function_name" : "std::__1::operator+",
   "linker_set_key" : "_ZNSt3__1plENT_15difference_typeERKNS_14__bit_iteratorIS0_XT0_EXT1_EEE",
   "parameters" :
   [
    {
     "referenced_type" : "_ZTINT_15difference_typeE"
    },
    {
     "referenced_type" : "_ZTIRKNSt3__114__bit_iteratorIT_XT0_EXT1_EEE"
    }
   ],
   "return_type" : "_ZTINSt3__114__bit_iteratorIT_XT0_EXT1_EEE",
   "source_file" : "external/libcxx/include/__bit_reference"
  },
  {
   "function_name" : "std::exception::exception",
   "linker_set_key" : "_ZNSt9exceptionC1Ev",
   "parameters" :
   [
    {
     "is_this_ptr" : true,
     "referenced_type" : "_ZTIPSt9exception"
    }
   ],
   "return_type" : "_ZTIv",
   "source_file" : "external/libcxx/include/exception"
  },
  {
   "function_name" : "std::exception::exception",
   "linker_set_key" : "_ZNSt9exceptionC2Ev",
   "parameters" :
   [
    {
     "is_this_ptr" : true,
     "referenced_type" : "_ZTIPSt9exception"
    }
   ],
   "return_type" : "_ZTIv",
   "source_file" : "external/libcxx/include/exception"
  },
  {
   "access" : "protected",
   "function_name" : "std::type_info::type_info",
   "linker_set_key" : "_ZNSt9type_infoC1EPKc",
   "parameters" :
   [
    {
     "is_this_ptr" : true,
     "referenced_type" : "_ZTIPSt9type_info"
    },
    {
     "referenced_type" : "_ZTIPKc"
    }
   ],
   "return_type" : "_ZTIv",
   "source_file" : "external/libcxx/include/typeinfo"
  },
  {
   "access" : "protected",
   "function_name" : "std::type_info::type_info",
   "linker_set_key" : "_ZNSt9type_infoC2EPKc",
   "parameters" :
   [
    {
     "is_this_ptr" : true,
     "referenced_type" : "_ZTIPSt9type_info"
    },
    {
     "referenced_type" : "_ZTIPKc"
    }
   ],
   "return_type" : "_ZTIv",
   "source_file" : "external/libcxx/include/typeinfo"
  },
  {
   "function_name" : "std::__1::atomic_flag::test_and_set",
   "linker_set_key" : "_ZNVSt3__111atomic_flag12test_and_setENS_12memory_orderE",
   "parameters" :
   [
    {
     "is_this_ptr" : true,
     "referenced_type" : "_ZTIPVNSt3__111atomic_flagE"
    },
    {
     "default_arg" : true,
     "referenced_type" : "_ZTINSt3__112memory_orderE"
    }
   ],
   "return_type" : "_ZTIb",
   "source_file" : "external/libcxx/include/atomic"
  },
  {
   "function_name" : "std::__1::atomic_flag::clear",
   "linker_set_key" : "_ZNVSt3__111atomic_flag5clearENS_12memory_orderE",
   "parameters" :
   [
    {
     "is_this_ptr" : true,
     "referenced_type" : "_ZTIPVNSt3__111atomic_flagE"
    },
    {
     "default_arg" : true,
     "referenced_type" : "_ZTINSt3__112memory_orderE"
    }
   ],
   "return_type" : "_ZTIv",
   "source_file" : "external/libcxx/include/atomic"
  },
  {
   "function_name" : "std::operator==",
   "linker_set_key" : "_ZSteqRKSt13exception_ptrS1_",
   "parameters" :
   [
    {
     "referenced_type" : "_ZTIRKSt13exception_ptr"
    },
    {
     "referenced_type" : "_ZTIRKSt13exception_ptr"
    }
   ],
   "return_type" : "_ZTIb",
   "source_file" : "external/libcxx/include/exception"
  },
  {
   "function_name" : "std::operator!=",
   "linker_set_key" : "_ZStneRKSt13exception_ptrS1_",
   "parameters" :
   [
    {
     "referenced_type" : "_ZTIRKSt13exception_ptr"
    },
    {
     "referenced_type" : "_ZTIRKSt13exception_ptr"
    }
   ],
   "return_type" : "_ZTIb",
   "source_file" : "external/libcxx/include/exception"
  },
  {
   "function_name" : "operator delete[]",
   "linker_set_key" : "_ZdaPvS_",
   "parameters" :
   [
    {
     "referenced_type" : "_ZTIPv"
    },
    {
     "referenced_type" : "_ZTIPv"
    }
   ],
   "return_type" : "_ZTIv",
   "source_file" : "external/libcxx/include/new"
  },
  {
   "function_name" : "operator delete",
   "linker_set_key" : "_ZdlPvS_",
   "parameters" :
   [
    {
     "referenced_type" : "_ZTIPv"
    },
    {
     "referenced_type" : "_ZTIPv"
    }
   ],
   "return_type" : "_ZTIv",
   "source_file" : "external/libcxx/include/new"
  },
  {
   "function_name" : "operator new[]",
   "linker_set_key" : "_ZnajPv",
   "parameters" :
   [
    {
     "referenced_type" : "_ZTIj"
    },
    {
     "referenced_type" : "_ZTIPv"
    }
   ],
   "return_type" : "_ZTIPv",
   "source_file" : "external/libcxx/include/new"
  },
  {
   "function_name" : "operator new",
   "linker_set_key" : "_ZnwjPv",
   "parameters" :
   [
    {
     "referenced_type" : "_ZTIj"
    },
    {
     "referenced_type" : "_ZTIPv"
    }
   ],
   "return_type" : "_ZTIPv",
   "source_file" : "external/libcxx/include/new"
  }
 ],
 "global_vars" :
 [
  {
   "linker_set_key" : "_ZN4llvm19is_integral_or_enum5valueE",
   "name" : "llvm::is_integral_or_enum::value",
   "referenced_type" : "_ZTIKb",
   "source_file" : "external/llvm/include/llvm/Support/type_traits.h"
  },
  {
   "linker_set_key" : "_ZN4llvm3sysL15IsBigEndianHostE",
   "name" : "llvm::sys::IsBigEndianHost",
   "referenced_type" : "_ZTIKb",
   "source_file" : "external/llvm/include/llvm/Support/Host.h"
  },
  {
   "linker_set_key" : "_ZN4llvm3sysL18IsLittleEndianHostE",
   "name" : "llvm::sys::IsLittleEndianHost",
   "referenced_type" : "_ZTIKb",
   "source_file" : "external/llvm/include/llvm/Support/Host.h"
  },
  {
   "linker_set_key" : "_ZN4llvm7AlignOf9AlignmentE",
   "name" : "llvm::AlignOf::Alignment",
   "referenced_type" : "_ZTIKj",
   "source_file" : "external/llvm/include/llvm/Support/AlignOf.h"
  },
  {
   "linker_set_key" : "_ZN4llvm7AlignOfINS_18StringMapEntryBaseEE9AlignmentE",
   "name" : "llvm::AlignOf<llvm::StringMapEntryBase>::Alignment",
   "referenced_type" : "_ZTIKj",
   "source_file" : "external/llvm/include/llvm/Support/AlignOf.h"
  },
  {
   "linker_set_key" : "_ZN4llvm7AlignOfINS_6detail11AlignerImplINSt3__14pairIPvjEEcccccccccEEE9AlignmentE",
   "name" : "llvm::AlignOf<llvm::detail::AlignerImpl<std::__1::pair<void *, unsigned int>, char, char, char, char, char, char, char, char, char>>::Alignment",
   "referenced_type" : "_ZTIKj",
   "source_file" : "external/llvm/include/llvm/Support/AlignOf.h"
  },
  {
   "linker_set_key" : "_ZN4llvm7AlignOfINS_6detail11AlignerImplIPvcccccccccEEE9AlignmentE",
   "name" : "llvm::AlignOf<llvm::detail::AlignerImpl<void *, char, char, char, char, char, char, char, char, char>>::Alignment",
   "referenced_type" : "_ZTIKj",
   "source_file" : "external/llvm/include/llvm/Support/AlignOf.h"
  },
  {
   "linker_set_key" : "_ZN4llvm7hashing6detail19fixed_seed_overrideE",
   "name" : "llvm::hashing::detail::fixed_seed_override",
   "referenced_type" : "_ZTIj",
   "source_file" : "external/llvm/include/llvm/ADT/Hashing.h"
  },
  {
   "linker_set_key" : "_ZN4llvm7hashing6detailL2k0E",
   "name" : "llvm::hashing::detail::k0",
   "referenced_type" : "_ZTIKy",
   "source_file" : "external/llvm/include/llvm/ADT/Hashing.h"
  },
  {
   "linker_set_key" : "_ZN4llvm7hashing6detailL2k1E",
   "name" : "llvm::hashing::detail::k1",
   "referenced_type" : "_ZTIKy",
   "source_file" : "external/llvm/include/llvm/ADT/Hashing.h"
  },
  {
   "linker_set_key" : "_ZN4llvm7hashing6detailL2k2E",
   "name" : "llvm::hashing::detail::k2",
   "referenced_type" : "_ZTIKy",
   "source_file" : "external/llvm/include/llvm/ADT/Hashing.h"
  },
  {
   "linker_set_key" : "_ZN4llvm7hashing6detailL2k3E",
   "name" : "llvm::hashing::detail::k3",
   "referenced_type" : "_ZTIKy",
   "source_file" : "external/llvm/include/llvm/ADT/Hashing.h"
  },
  {
   "linker_set_key" : "_ZN4llvm9StringRef4nposE",
   "name" : "llvm::StringRef::npos",
   "referenced_type" : "_ZTIKj",
   "source_file" : "external/llvm/include/llvm/ADT/StringRef.h"
  },
  {
   "linker_set_key" : "_ZN4llvm9huge_valfE",
   "name" : "llvm::huge_valf",
   "referenced_type" : "_ZTIKf",
   "source_file" : "external/llvm/include/llvm/Support/MathExtras.h"
  },
  {
   "linker_set_key" : "_ZN4llvm9isPodLike5valueE",
   "name" : "llvm::isPodLike::value",
   "referenced_type" : "_ZTIKb",
   "source_file" : "external/llvm/include/llvm/Support/type_traits.h"
  },
  {
   "linker_set_key" : "_ZN4llvm9isPodLikeINS_8ArrayRefIT_EEE5valueE",
   "name" : "llvm::isPodLike<ArrayRef<type-parameter-0-0>>::value",
   "referenced_type" : "_ZTIKb",
   "source_file" : "external/llvm/include/llvm/ADT/ArrayRef.h"
  },
  {
   "linker_set_key" : "_ZN4llvm9isPodLikeINS_9StringRefEE5valueE",
   "name" : "llvm::isPodLike<llvm::StringRef>::value",
   "referenced_type" : "_ZTIKb",
   "source_file" : "external/llvm/include/llvm/ADT/StringRef.h"
  },
  {
   "linker_set_key" : "_ZN4llvm9isPodLikeINSt3__14pairIPvjEEE5valueE",
   "name" : "llvm::isPodLike<std::__1::pair<void *, unsigned int>>::value",
   "referenced_type" : "_ZTIKb",
   "source_file" : "external/llvm/include/llvm/Support/type_traits.h"
  },
  {
   "linker_set_key" : "_ZN4llvm9isPodLikeINSt3__14pairIT_T0_EEE5valueE",
   "name" : "llvm::isPodLike<pair<type-parameter-0-0, type-parameter-0-1>>::value",
   "referenced_type" : "_ZTIKb",
   "source_file" : "external/llvm/include/llvm/Support/type_traits.h"
  },
  {
   "linker_set_key" : "_ZN4llvm9isPodLikeIPvE5valueE",
   "name" : "llvm::isPodLike<void *>::value",
   "referenced_type" : "_ZTIKb",
   "source_file" : "external/llvm/include/llvm/Support/type_traits.h"
  },
  {
   "linker_set_key" : "_ZN4llvm9isPodLikeIjE5valueE",
   "name" : "llvm::isPodLike<unsigned int>::value",
   "referenced_type" : "_ZTIKb",
   "source_file" : "external/llvm/include/llvm/Support/type_traits.h"
  },
  {
   "linker_set_key" : "_ZN4llvmL18BitReverseTable256E",
   "name" : "llvm::BitReverseTable256",
   "referenced_type" : "_ZTIA256_Kh",
   "source_file" : "external/llvm/include/llvm/Support/MathExtras.h"
  },
  {
   "linker_set_key" : "_ZN4llvmL4NoneE",
   "name" : "llvm::None",
   "referenced_type" : "_ZTIKN4llvm8NoneTypeE",
   "source_file" : "external/llvm/include/llvm/ADT/None.h"
  },
  {
   "linker_set_key" : "_ZNSt3__110__log2_imp5valueE",
   "name" : "std::__1::__log2_imp::value",
   "referenced_type" : "_ZTIKj",
   "source_file" : "external/libcxx/include/algorithm"
  },
  {
   "linker_set_key" : "_ZNSt3__110__log2_impILy0EXT_EE5valueE",
   "name" : "std::__1::__log2_imp<0, _Rp>::value",
   "referenced_type" : "_ZTIKj",
   "source_file" : "external/libcxx/include/algorithm"
  },
  {
   "linker_set_key" : "_ZNSt3__110__log2_impIXT_ELj0EE5valueE",
   "name" : "std::__1::__log2_imp<_Xp, 0>::value",
   "referenced_type" : "_ZTIKj",
   "source_file" : "external/libcxx/include/algorithm"
  },
  {
   "linker_set_key" : "_ZNSt3__111__bit_array15__bits_per_wordE",
   "name" : "std::__1::__bit_array::__bits_per_word",
   "referenced_type" : "_ZTIKj",
   "source_file" : "external/libcxx/include/__bit_reference"
  },
  {
   "linker_set_key" : "_ZNSt3__111__bit_array3_NpE",
   "name" : "std::__1::__bit_array::_Np",
   "referenced_type" : "_ZTIKj",
   "source_file" : "external/libcxx/include/__bit_reference"
  },
  {
   "linker_set_key" : "_ZNSt3__112_GLOBAL__N_16ignoreE",
   "name" : "std::__1::(anonymous namespace)::ignore",
   "referenced_type" : "_ZTIKNSt3__110__ignore_tIhEE",
   "source_file" : "external/libcxx/include/tuple"
  },
  {
   "linker_set_key" : "_ZNSt3__112__align_type5valueE",
   "name" : "std::__1::__align_type::value",
   "referenced_type" : "_ZTIKj",
   "source_file" : "external/libcxx/include/type_traits"
  },
  {
   "linker_set_key" : "_ZNSt3__112__align_typeINS_15__struct_doubleEE5valueE",
   "name" : "std::__1::__align_type<std::__1::__struct_double>::value",
   "referenced_type" : "_ZTIKj",
   "source_file" : "external/libcxx/include/type_traits"
  },
  {
   "linker_set_key" : "_ZNSt3__112__align_typeINS_16__struct_double4EE5valueE",
   "name" : "std::__1::__align_type<std::__1::__struct_double4>::value",
   "referenced_type" : "_ZTIKj",
   "source_file" : "external/libcxx/include/type_traits"
  },
  {
   "linker_set_key" : "_ZNSt3__112__align_typeIPiE5valueE",
   "name" : "std::__1::__align_type<int *>::value",
   "referenced_type" : "_ZTIKj",
   "source_file" : "external/libcxx/include/type_traits"
  },
  {
   "linker_set_key" : "_ZNSt3__112__align_typeIdE5valueE",
   "name" : "std::__1::__align_type<double>::value",
   "referenced_type" : "_ZTIKj",
   "source_file" : "external/libcxx/include/type_traits"
  },
  {
   "linker_set_key" : "_ZNSt3__112__align_typeIeE5valueE",
   "name" : "std::__1::__align_type<long double>::value",
   "referenced_type" : "_ZTIKj",
   "source_file" : "external/libcxx/include/type_traits"
  },
  {
   "linker_set_key" : "_ZNSt3__112__align_typeIhE5valueE",
   "name" : "std::__1::__align_type<unsigned char>::value",
   "referenced_type" : "_ZTIKj",
   "source_file" : "external/libcxx/include/type_traits"
  },
  {
   "linker_set_key" : "_ZNSt3__112__align_typeIjE5valueE",
   "name" : "std::__1::__align_type<unsigned int>::value",
   "referenced_type" : "_ZTIKj",
   "source_file" : "external/libcxx/include/type_traits"
  },
  {
   "linker_set_key" : "_ZNSt3__112__align_typeImE5valueE",
   "name" : "std::__1::__align_type<unsigned long>::value",
   "referenced_type" : "_ZTIKj",
   "source_file" : "external/libcxx/include/type_traits"
  },
  {
   "linker_set_key" : "_ZNSt3__112__align_typeItE5valueE",
   "name" : "std::__1::__align_type<unsigned short>::value",
   "referenced_type" : "_ZTIKj",
   "source_file" : "external/libcxx/include/type_traits"
  },
  {
   "linker_set_key" : "_ZNSt3__112__align_typeIyE5valueE",
   "name" : "std::__1::__align_type<unsigned long long>::value",
   "referenced_type" : "_ZTIKj",
   "source_file" : "external/libcxx/include/type_traits"
  },
  {
   "linker_set_key" : "_ZNSt3__112__has_rebind5valueE",
   "name" : "std::__1::__has_rebind::value",
   "referenced_type" : "_ZTIKb",
   "source_file" : "external/libcxx/include/memory"
  },
  {
   "linker_set_key" : "_ZNSt3__112__rs_default4_MaxE",
   "name" : "std::__1::__rs_default::_Max",
   "referenced_type" : "_ZTIKj",
   "source_file" : "external/libcxx/include/algorithm"
  },
  {
   "linker_set_key" : "_ZNSt3__112__rs_default4_MinE",
   "name" : "std::__1::__rs_default::_Min",
   "referenced_type" : "_ZTIKj",
   "source_file" : "external/libcxx/include/algorithm"
  },
  {
   "access" : "private",
   "linker_set_key" : "_ZNSt3__112__rs_default4__c_E",
   "name" : "std::__1::__rs_default::__c_",
   "referenced_type" : "_ZTIj",
   "source_file" : "external/libcxx/include/algorithm"
  },
  {
   "linker_set_key" : "_ZNSt3__112__static_maxIXT_EJEE5valueE",
   "name" : "std::__1::__static_max<_I0>::value",
   "referenced_type" : "_ZTIKj",
   "source_file" : "external/libcxx/include/type_traits"
  },
  {
   "linker_set_key" : "_ZNSt3__112__static_maxIXT_EJXT0_EXspT1_EEE5valueE",
   "name" : "std::__1::__static_max<_I0, _I1, _In...>::value",
   "referenced_type" : "_ZTIKj",
   "source_file" : "external/libcxx/include/type_traits"
  },
  {
   "access" : "private",
   "linker_set_key" : "_ZNSt3__112basic_stringIcNS_11char_traitsIcEENS_9allocatorIcEEE11__long_maskE",
   "name" : "std::__1::basic_string<char, std::__1::char_traits<char>, std::__1::allocator<char>>::__long_mask",
   "referenced_type" : "_ZTIKj",
   "source_file" : "external/libcxx/include/string"
  },
  {
   "access" : "private",
   "linker_set_key" : "_ZNSt3__112basic_stringIcNS_11char_traitsIcEENS_9allocatorIcEEE12__short_maskE",
   "name" : "std::__1::basic_string<char, std::__1::char_traits<char>, std::__1::allocator<char>>::__short_mask",
   "referenced_type" : "_ZTIKj",
   "source_file" : "external/libcxx/include/string"
  },
  {
   "linker_set_key" : "_ZNSt3__112basic_stringIcNS_11char_traitsIcEENS_9allocatorIcEEE4nposE",
   "name" : "std::__1::basic_string<char, std::__1::char_traits<char>, std::__1::allocator<char>>::npos",
   "referenced_type" : "_ZTIKj",
   "source_file" : "external/libcxx/include/string"
  },
  {
   "access" : "private",
   "linker_set_key" : "_ZNSt3__112basic_stringIwNS_11char_traitsIwEENS_9allocatorIwEEE11__long_maskE",
   "name" : "std::__1::basic_string<wchar_t, std::__1::char_traits<wchar_t>, std::__1::allocator<wchar_t>>::__long_mask",
   "referenced_type" : "_ZTIKj",
   "source_file" : "external/libcxx/include/string"
  },
  {
   "access" : "private",
   "linker_set_key" : "_ZNSt3__112basic_stringIwNS_11char_traitsIwEENS_9allocatorIwEEE12__short_maskE",
   "name" : "std::__1::basic_string<wchar_t, std::__1::char_traits<wchar_t>, std::__1::allocator<wchar_t>>::__short_mask",
   "referenced_type" : "_ZTIKj",
   "source_file" : "external/libcxx/include/string"
  },
  {
   "linker_set_key" : "_ZNSt3__112basic_stringIwNS_11char_traitsIwEENS_9allocatorIwEEE4nposE",
   "name" : "std::__1::basic_string<wchar_t, std::__1::char_traits<wchar_t>, std::__1::allocator<wchar_t>>::npos",
   "referenced_type" : "_ZTIKj",
   "source_file" : "external/libcxx/include/string"
  },
  {
   "linker_set_key" : "_ZNSt3__112placeholdersL2_1E",
   "name" : "std::__1::placeholders::_1",
   "referenced_type" : "_ZTIKNSt3__112placeholders4__phILi1EEE",
   "source_file" : "external/libcxx/include/functional"
  },
  {
   "linker_set_key" : "_ZNSt3__112placeholdersL2_2E",
   "name" : "std::__1::placeholders::_2",
   "referenced_type" : "_ZTIKNSt3__112placeholders4__phILi2EEE",
   "source_file" : "external/libcxx/include/functional"
  },
  {
   "linker_set_key" : "_ZNSt3__112placeholdersL2_3E",
   "name" : "std::__1::placeholders::_3",
   "referenced_type" : "_ZTIKNSt3__112placeholders4__phILi3EEE",
   "source_file" : "external/libcxx/include/functional"
  },
  {
   "linker_set_key" : "_ZNSt3__112placeholdersL2_4E",
   "name" : "std::__1::placeholders::_4",
   "referenced_type" : "_ZTIKNSt3__112placeholders4__phILi4EEE",
   "source_file" : "external/libcxx/include/functional"
  },
  {
   "linker_set_key" : "_ZNSt3__112placeholdersL2_5E",
   "name" : "std::__1::placeholders::_5",
   "referenced_type" : "_ZTIKNSt3__112placeholders4__phILi5EEE",
   "source_file" : "external/libcxx/include/functional"
  },
  {
   "linker_set_key" : "_ZNSt3__112placeholdersL2_6E",
   "name" : "std::__1::placeholders::_6",
   "referenced_type" : "_ZTIKNSt3__112placeholders4__phILi6EEE",
   "source_file" : "external/libcxx/include/functional"
  },
  {
   "linker_set_key" : "_ZNSt3__112placeholdersL2_7E",
   "name" : "std::__1::placeholders::_7",
   "referenced_type" : "_ZTIKNSt3__112placeholders4__phILi7EEE",
   "source_file" : "external/libcxx/include/functional"
  },
  {
   "linker_set_key" : "_ZNSt3__112placeholdersL2_8E",
   "name" : "std::__1::placeholders::_8",
   "referenced_type" : "_ZTIKNSt3__112placeholders4__phILi8EEE",
   "source_file" : "external/libcxx/include/functional"
  },
  {
   "linker_set_key" : "_ZNSt3__112placeholdersL2_9E",
   "name" : "std::__1::placeholders::_9",
   "referenced_type" : "_ZTIKNSt3__112placeholders4__phILi9EEE",
   "source_file" : "external/libcxx/include/functional"
  },
  {
   "linker_set_key" : "_ZNSt3__112placeholdersL3_10E",
   "name" : "std::__1::placeholders::_10",
   "referenced_type" : "_ZTIKNSt3__112placeholders4__phILi10EEE",
   "source_file" : "external/libcxx/include/functional"
  },
  {
   "linker_set_key" : "_ZNSt3__113__invokable_r5valueE",
   "name" : "std::__1::__invokable_r::value",
   "referenced_type" : "_ZTIKb",
   "source_file" : "external/libcxx/include/type_traits"
  },
  {
   "linker_set_key" : "_ZNSt3__113__promote_imp5valueE",
   "name" : "std::__1::__promote_imp::value",
   "referenced_type" : "_ZTIKb",
   "source_file" : "external/libcxx/include/type_traits"
  },
  {
   "linker_set_key" : "_ZNSt3__113__promote_impIT_T0_T1_Lb1EE5valueE",
   "name" : "std::__1::__promote_imp<type-parameter-0-0, type-parameter-0-1, type-parameter-0-2, true>::value",
   "referenced_type" : "_ZTIKb",
   "source_file" : "external/libcxx/include/type_traits"
  },
  {
   "linker_set_key" : "_ZNSt3__113__promote_impIT_T0_vLb1EE5valueE",
   "name" : "std::__1::__promote_imp<type-parameter-0-0, type-parameter-0-1, void, true>::value",
   "referenced_type" : "_ZTIKb",
   "source_file" : "external/libcxx/include/type_traits"
  },
  {
   "linker_set_key" : "_ZNSt3__113__promote_impIT_vvLb1EE5valueE",
   "name" : "std::__1::__promote_imp<type-parameter-0-0, void, void, true>::value",
   "referenced_type" : "_ZTIKb",
   "source_file" : "external/libcxx/include/type_traits"
  },
  {
   "linker_set_key" : "_ZNSt3__113aligned_union15alignment_valueE",
   "name" : "std::__1::aligned_union::alignment_value",
   "referenced_type" : "_ZTIKj",
   "source_file" : "external/libcxx/include/type_traits"
  },
  {
   "linker_set_key" : "_ZNSt3__113aligned_union5__lenE",
   "name" : "std::__1::aligned_union::__len",
   "referenced_type" : "_ZTIKj",
   "source_file" : "external/libcxx/include/type_traits"
  },
  {
   "access" : "private",
   "linker_set_key" : "_ZNSt3__114__bit_iterator15__bits_per_wordE",
   "name" : "std::__1::__bit_iterator::__bits_per_word",
   "referenced_type" : "_ZTIKj",
   "source_file" : "external/libcxx/include/__bit_reference"
  },
  {
   "linker_set_key" : "_ZNSt3__114__numeric_type5valueE",
   "name" : "std::__1::__numeric_type::value",
   "referenced_type" : "_ZTIKb",
   "source_file" : "external/libcxx/include/type_traits"
  },
  {
   "linker_set_key" : "_ZNSt3__114__numeric_typeIvE5valueE",
   "name" : "std::__1::__numeric_type<void>::value",
   "referenced_type" : "_ZTIKb",
   "source_file" : "external/libcxx/include/type_traits"
  },
  {
   "access" : "private",
   "linker_set_key" : "_ZNSt3__114__select_align5__maxE",
   "name" : "std::__1::__select_align::__max",
   "referenced_type" : "_ZTIKj",
   "source_file" : "external/libcxx/include/type_traits"
  },
  {
   "access" : "private",
   "linker_set_key" : "_ZNSt3__114__select_align5__minE",
   "name" : "std::__1::__select_align::__min",
   "referenced_type" : "_ZTIKj",
   "source_file" : "external/libcxx/include/type_traits"
  },
  {
   "linker_set_key" : "_ZNSt3__114__select_align5valueE",
   "name" : "std::__1::__select_align::value",
   "referenced_type" : "_ZTIKj",
   "source_file" : "external/libcxx/include/type_traits"
  },
  {
   "access" : "private",
   "linker_set_key" : "_ZNSt3__114__select_alignILj12ELj1ELj8EE5__maxE",
   "name" : "std::__1::__select_align<12, 1, 8>::__max",
   "referenced_type" : "_ZTIKj",
   "source_file" : "external/libcxx/include/type_traits"
  },
  {
   "access" : "private",
   "linker_set_key" : "_ZNSt3__114__select_alignILj12ELj1ELj8EE5__minE",
   "name" : "std::__1::__select_align<12, 1, 8>::__min",
   "referenced_type" : "_ZTIKj",
   "source_file" : "external/libcxx/include/type_traits"
  },
  {
   "linker_set_key" : "_ZNSt3__114__select_alignILj12ELj1ELj8EE5valueE",
   "name" : "std::__1::__select_align<12, 1, 8>::value",
   "referenced_type" : "_ZTIKj",
   "source_file" : "external/libcxx/include/type_traits"
  },
  {
   "access" : "private",
   "linker_set_key" : "_ZNSt3__114__select_alignILj12ELj2ELj8EE5__maxE",
   "name" : "std::__1::__select_align<12, 2, 8>::__max",
   "referenced_type" : "_ZTIKj",
   "source_file" : "external/libcxx/include/type_traits"
  },
  {
   "access" : "private",
   "linker_set_key" : "_ZNSt3__114__select_alignILj12ELj2ELj8EE5__minE",
   "name" : "std::__1::__select_align<12, 2, 8>::__min",
   "referenced_type" : "_ZTIKj",
   "source_file" : "external/libcxx/include/type_traits"
  },
  {
   "linker_set_key" : "_ZNSt3__114__select_alignILj12ELj2ELj8EE5valueE",
   "name" : "std::__1::__select_align<12, 2, 8>::value",
   "referenced_type" : "_ZTIKj",
   "source_file" : "external/libcxx/include/type_traits"
  },
  {
   "access" : "private",
   "linker_set_key" : "_ZNSt3__114__select_alignILj12ELj4ELj8EE5__maxE",
   "name" : "std::__1::__select_align<12, 4, 8>::__max",
   "referenced_type" : "_ZTIKj",
   "source_file" : "external/libcxx/include/type_traits"
  },
  {
   "access" : "private",
   "linker_set_key" : "_ZNSt3__114__select_alignILj12ELj4ELj8EE5__minE",
   "name" : "std::__1::__select_align<12, 4, 8>::__min",
   "referenced_type" : "_ZTIKj",
   "source_file" : "external/libcxx/include/type_traits"
  },
  {
   "linker_set_key" : "_ZNSt3__114__select_alignILj12ELj4ELj8EE5valueE",
   "name" : "std::__1::__select_align<12, 4, 8>::value",
   "referenced_type" : "_ZTIKj",
   "source_file" : "external/libcxx/include/type_traits"
  },
  {
   "access" : "private",
   "linker_set_key" : "_ZNSt3__114__select_alignILj12ELj8ELj4EE5__maxE",
   "name" : "std::__1::__select_align<12, 8, 4>::__max",
   "referenced_type" : "_ZTIKj",
   "source_file" : "external/libcxx/include/type_traits"
  },
  {
   "access" : "private",
   "linker_set_key" : "_ZNSt3__114__select_alignILj12ELj8ELj4EE5__minE",
   "name" : "std::__1::__select_align<12, 8, 4>::__min",
   "referenced_type" : "_ZTIKj",
   "source_file" : "external/libcxx/include/type_traits"
  },
  {
   "linker_set_key" : "_ZNSt3__114__select_alignILj12ELj8ELj4EE5valueE",
   "name" : "std::__1::__select_align<12, 8, 4>::value",
   "referenced_type" : "_ZTIKj",
   "source_file" : "external/libcxx/include/type_traits"
  },
  {
   "access" : "private",
   "linker_set_key" : "_ZNSt3__114__select_alignILj12ELj8ELj8EE5__maxE",
   "name" : "std::__1::__select_align<12, 8, 8>::__max",
   "referenced_type" : "_ZTIKj",
   "source_file" : "external/libcxx/include/type_traits"
  },
  {
   "access" : "private",
   "linker_set_key" : "_ZNSt3__114__select_alignILj12ELj8ELj8EE5__minE",
   "name" : "std::__1::__select_align<12, 8, 8>::__min",
   "referenced_type" : "_ZTIKj",
   "source_file" : "external/libcxx/include/type_traits"
  },
  {
   "linker_set_key" : "_ZNSt3__114__select_alignILj12ELj8ELj8EE5valueE",
   "name" : "std::__1::__select_align<12, 8, 8>::value",
   "referenced_type" : "_ZTIKj",
   "source_file" : "external/libcxx/include/type_traits"
  },
  {
   "access" : "private",
   "linker_set_key" : "_ZNSt3__114__select_alignILj16ELj1ELj8EE5__maxE",
   "name" : "std::__1::__select_align<16, 1, 8>::__max",
   "referenced_type" : "_ZTIKj",
   "source_file" : "external/libcxx/include/type_traits"
  },
  {
   "access" : "private",
   "linker_set_key" : "_ZNSt3__114__select_alignILj16ELj1ELj8EE5__minE",
   "name" : "std::__1::__select_align<16, 1, 8>::__min",
   "referenced_type" : "_ZTIKj",
   "source_file" : "external/libcxx/include/type_traits"
  },
  {
   "linker_set_key" : "_ZNSt3__114__select_alignILj16ELj1ELj8EE5valueE",
   "name" : "std::__1::__select_align<16, 1, 8>::value",
   "referenced_type" : "_ZTIKj",
   "source_file" : "external/libcxx/include/type_traits"
  },
  {
   "access" : "private",
   "linker_set_key" : "_ZNSt3__114__select_alignILj16ELj2ELj8EE5__maxE",
   "name" : "std::__1::__select_align<16, 2, 8>::__max",
   "referenced_type" : "_ZTIKj",
   "source_file" : "external/libcxx/include/type_traits"
  },
  {
   "access" : "private",
   "linker_set_key" : "_ZNSt3__114__select_alignILj16ELj2ELj8EE5__minE",
   "name" : "std::__1::__select_align<16, 2, 8>::__min",
   "referenced_type" : "_ZTIKj",
   "source_file" : "external/libcxx/include/type_traits"
  },
  {
   "linker_set_key" : "_ZNSt3__114__select_alignILj16ELj2ELj8EE5valueE",
   "name" : "std::__1::__select_align<16, 2, 8>::value",
   "referenced_type" : "_ZTIKj",
   "source_file" : "external/libcxx/include/type_traits"
  },
  {
   "access" : "private",
   "linker_set_key" : "_ZNSt3__114__select_alignILj16ELj4ELj8EE5__maxE",
   "name" : "std::__1::__select_align<16, 4, 8>::__max",
   "referenced_type" : "_ZTIKj",
   "source_file" : "external/libcxx/include/type_traits"
  },
  {
   "access" : "private",
   "linker_set_key" : "_ZNSt3__114__select_alignILj16ELj4ELj8EE5__minE",
   "name" : "std::__1::__select_align<16, 4, 8>::__min",
   "referenced_type" : "_ZTIKj",
   "source_file" : "external/libcxx/include/type_traits"
  },
  {
   "linker_set_key" : "_ZNSt3__114__select_alignILj16ELj4ELj8EE5valueE",
   "name" : "std::__1::__select_align<16, 4, 8>::value",
   "referenced_type" : "_ZTIKj",
   "source_file" : "external/libcxx/include/type_traits"
  },
  {
   "access" : "private",
   "linker_set_key" : "_ZNSt3__114__select_alignILj16ELj8ELj4EE5__maxE",
   "name" : "std::__1::__select_align<16, 8, 4>::__max",
   "referenced_type" : "_ZTIKj",
   "source_file" : "external/libcxx/include/type_traits"
  },
  {
   "access" : "private",
   "linker_set_key" : "_ZNSt3__114__select_alignILj16ELj8ELj4EE5__minE",
   "name" : "std::__1::__select_align<16, 8, 4>::__min",
   "referenced_type" : "_ZTIKj",
   "source_file" : "external/libcxx/include/type_traits"
  },
  {
   "linker_set_key" : "_ZNSt3__114__select_alignILj16ELj8ELj4EE5valueE",
   "name" : "std::__1::__select_align<16, 8, 4>::value",
   "referenced_type" : "_ZTIKj",
   "source_file" : "external/libcxx/include/type_traits"
  },
  {
   "access" : "private",
   "linker_set_key" : "_ZNSt3__114__select_alignILj16ELj8ELj8EE5__maxE",
   "name" : "std::__1::__select_align<16, 8, 8>::__max",
   "referenced_type" : "_ZTIKj",
   "source_file" : "external/libcxx/include/type_traits"
  },
  {
   "access" : "private",
   "linker_set_key" : "_ZNSt3__114__select_alignILj16ELj8ELj8EE5__minE",
   "name" : "std::__1::__select_align<16, 8, 8>::__min",
   "referenced_type" : "_ZTIKj",
   "source_file" : "external/libcxx/include/type_traits"
  },
  {
   "linker_set_key" : "_ZNSt3__114__select_alignILj16ELj8ELj8EE5valueE",
   "name" : "std::__1::__select_align<16, 8, 8>::value",
   "referenced_type" : "_ZTIKj",
   "source_file" : "external/libcxx/include/type_traits"
  },
  {
   "linker_set_key" : "_ZNSt3__114numeric_limits10has_denormE",
   "name" : "std::__1::numeric_limits::has_denorm",
   "referenced_type" : "_ZTIKNSt3__118float_denorm_styleE",
   "source_file" : "external/libcxx/include/limits"
  },
  {
   "linker_set_key" : "_ZNSt3__114numeric_limits10is_boundedE",
   "name" : "std::__1::numeric_limits::is_bounded",
   "referenced_type" : "_ZTIKb",
   "source_file" : "external/libcxx/include/limits"
  },
  {
   "linker_set_key" : "_ZNSt3__114numeric_limits10is_integerE",
   "name" : "std::__1::numeric_limits::is_integer",
   "referenced_type" : "_ZTIKb",
   "source_file" : "external/libcxx/include/limits"
  },
  {
   "linker_set_key" : "_ZNSt3__114numeric_limits11round_styleE",
   "name" : "std::__1::numeric_limits::round_style",
   "referenced_type" : "_ZTIKNSt3__117float_round_styleE",
   "source_file" : "external/libcxx/include/limits"
  },
  {
   "linker_set_key" : "_ZNSt3__114numeric_limits12has_infinityE",
   "name" : "std::__1::numeric_limits::has_infinity",
   "referenced_type" : "_ZTIKb",
   "source_file" : "external/libcxx/include/limits"
  },
  {
   "linker_set_key" : "_ZNSt3__114numeric_limits12max_digits10E",
   "name" : "std::__1::numeric_limits::max_digits10",
   "referenced_type" : "_ZTIKi",
   "source_file" : "external/libcxx/include/limits"
  },
  {
   "linker_set_key" : "_ZNSt3__114numeric_limits12max_exponentE",
   "name" : "std::__1::numeric_limits::max_exponent",
   "referenced_type" : "_ZTIKi",
   "source_file" : "external/libcxx/include/limits"
  },
  {
   "linker_set_key" : "_ZNSt3__114numeric_limits12min_exponentE",
   "name" : "std::__1::numeric_limits::min_exponent",
   "referenced_type" : "_ZTIKi",
   "source_file" : "external/libcxx/include/limits"
  },
  {
   "linker_set_key" : "_ZNSt3__114numeric_limits13has_quiet_NaNE",
   "name" : "std::__1::numeric_limits::has_quiet_NaN",
   "referenced_type" : "_ZTIKb",
   "source_file" : "external/libcxx/include/limits"
  },
  {
   "linker_set_key" : "_ZNSt3__114numeric_limits14is_specializedE",
   "name" : "std::__1::numeric_limits::is_specialized",
   "referenced_type" : "_ZTIKb",
   "source_file" : "external/libcxx/include/limits"
  },
  {
   "linker_set_key" : "_ZNSt3__114numeric_limits14max_exponent10E",
   "name" : "std::__1::numeric_limits::max_exponent10",
   "referenced_type" : "_ZTIKi",
   "source_file" : "external/libcxx/include/limits"
  },
  {
   "linker_set_key" : "_ZNSt3__114numeric_limits14min_exponent10E",
   "name" : "std::__1::numeric_limits::min_exponent10",
   "referenced_type" : "_ZTIKi",
   "source_file" : "external/libcxx/include/limits"
  },
  {
   "linker_set_key" : "_ZNSt3__114numeric_limits15has_denorm_lossE",
   "name" : "std::__1::numeric_limits::has_denorm_loss",
   "referenced_type" : "_ZTIKb",
   "source_file" : "external/libcxx/include/limits"
  },
  {
   "linker_set_key" : "_ZNSt3__114numeric_limits15tinyness_beforeE",
   "name" : "std::__1::numeric_limits::tinyness_before",
   "referenced_type" : "_ZTIKb",
   "source_file" : "external/libcxx/include/limits"
  },
  {
   "linker_set_key" : "_ZNSt3__114numeric_limits17has_signaling_NaNE",
   "name" : "std::__1::numeric_limits::has_signaling_NaN",
   "referenced_type" : "_ZTIKb",
   "source_file" : "external/libcxx/include/limits"
  },
  {
   "linker_set_key" : "_ZNSt3__114numeric_limits5radixE",
   "name" : "std::__1::numeric_limits::radix",
   "referenced_type" : "_ZTIKi",
   "source_file" : "external/libcxx/include/limits"
  },
  {
   "linker_set_key" : "_ZNSt3__114numeric_limits5trapsE",
   "name" : "std::__1::numeric_limits::traps",
   "referenced_type" : "_ZTIKb",
   "source_file" : "external/libcxx/include/limits"
  },
  {
   "linker_set_key" : "_ZNSt3__114numeric_limits6digitsE",
   "name" : "std::__1::numeric_limits::digits",
   "referenced_type" : "_ZTIKi",
   "source_file" : "external/libcxx/include/limits"
  },
  {
   "linker_set_key" : "_ZNSt3__114numeric_limits8digits10E",
   "name" : "std::__1::numeric_limits::digits10",
   "referenced_type" : "_ZTIKi",
   "source_file" : "external/libcxx/include/limits"
  },
  {
   "linker_set_key" : "_ZNSt3__114numeric_limits8is_exactE",
   "name" : "std::__1::numeric_limits::is_exact",
   "referenced_type" : "_ZTIKb",
   "source_file" : "external/libcxx/include/limits"
  },
  {
   "linker_set_key" : "_ZNSt3__114numeric_limits9is_iec559E",
   "name" : "std::__1::numeric_limits::is_iec559",
   "referenced_type" : "_ZTIKb",
   "source_file" : "external/libcxx/include/limits"
  },
  {
   "linker_set_key" : "_ZNSt3__114numeric_limits9is_moduloE",
   "name" : "std::__1::numeric_limits::is_modulo",
   "referenced_type" : "_ZTIKb",
   "source_file" : "external/libcxx/include/limits"
  },
  {
   "linker_set_key" : "_ZNSt3__114numeric_limits9is_signedE",
   "name" : "std::__1::numeric_limits::is_signed",
   "referenced_type" : "_ZTIKb",
   "source_file" : "external/libcxx/include/limits"
  },
  {
   "linker_set_key" : "_ZNSt3__114numeric_limitsIKT_E10has_denormE",
   "name" : "std::__1::numeric_limits<const type-parameter-0-0>::has_denorm",
   "referenced_type" : "_ZTIKNSt3__118float_denorm_styleE",
   "source_file" : "external/libcxx/include/limits"
  },
  {
   "linker_set_key" : "_ZNSt3__114numeric_limitsIKT_E10is_boundedE",
   "name" : "std::__1::numeric_limits<const type-parameter-0-0>::is_bounded",
   "referenced_type" : "_ZTIKb",
   "source_file" : "external/libcxx/include/limits"
  },
  {
   "linker_set_key" : "_ZNSt3__114numeric_limitsIKT_E10is_integerE",
   "name" : "std::__1::numeric_limits<const type-parameter-0-0>::is_integer",
   "referenced_type" : "_ZTIKb",
   "source_file" : "external/libcxx/include/limits"
  },
  {
   "linker_set_key" : "_ZNSt3__114numeric_limitsIKT_E11round_styleE",
   "name" : "std::__1::numeric_limits<const type-parameter-0-0>::round_style",
   "referenced_type" : "_ZTIKNSt3__117float_round_styleE",
   "source_file" : "external/libcxx/include/limits"
  },
  {
   "linker_set_key" : "_ZNSt3__114numeric_limitsIKT_E12has_infinityE",
   "name" : "std::__1::numeric_limits<const type-parameter-0-0>::has_infinity",
   "referenced_type" : "_ZTIKb",
   "source_file" : "external/libcxx/include/limits"
  },
  {
   "linker_set_key" : "_ZNSt3__114numeric_limitsIKT_E12max_digits10E",
   "name" : "std::__1::numeric_limits<const type-parameter-0-0>::max_digits10",
   "referenced_type" : "_ZTIKi",
   "source_file" : "external/libcxx/include/limits"
  },
  {
   "linker_set_key" : "_ZNSt3__114numeric_limitsIKT_E12max_exponentE",
   "name" : "std::__1::numeric_limits<const type-parameter-0-0>::max_exponent",
   "referenced_type" : "_ZTIKi",
   "source_file" : "external/libcxx/include/limits"
  },
  {
   "linker_set_key" : "_ZNSt3__114numeric_limitsIKT_E12min_exponentE",
   "name" : "std::__1::numeric_limits<const type-parameter-0-0>::min_exponent",
   "referenced_type" : "_ZTIKi",
   "source_file" : "external/libcxx/include/limits"
  },
  {
   "linker_set_key" : "_ZNSt3__114numeric_limitsIKT_E13has_quiet_NaNE",
   "name" : "std::__1::numeric_limits<const type-parameter-0-0>::has_quiet_NaN",
   "referenced_type" : "_ZTIKb",
   "source_file" : "external/libcxx/include/limits"
  },
  {
   "linker_set_key" : "_ZNSt3__114numeric_limitsIKT_E14is_specializedE",
   "name" : "std::__1::numeric_limits<const type-parameter-0-0>::is_specialized",
   "referenced_type" : "_ZTIKb",
   "source_file" : "external/libcxx/include/limits"
  },
  {
   "linker_set_key" : "_ZNSt3__114numeric_limitsIKT_E14max_exponent10E",
   "name" : "std::__1::numeric_limits<const type-parameter-0-0>::max_exponent10",
   "referenced_type" : "_ZTIKi",
   "source_file" : "external/libcxx/include/limits"
  },
  {
   "linker_set_key" : "_ZNSt3__114numeric_limitsIKT_E14min_exponent10E",
   "name" : "std::__1::numeric_limits<const type-parameter-0-0>::min_exponent10",
   "referenced_type" : "_ZTIKi",
   "source_file" : "external/libcxx/include/limits"
  },
  {
   "linker_set_key" : "_ZNSt3__114numeric_limitsIKT_E15has_denorm_lossE",
   "name" : "std::__1::numeric_limits<const type-parameter-0-0>::has_denorm_loss",
   "referenced_type" : "_ZTIKb",
   "source_file" : "external/libcxx/include/limits"
  },
  {
   "linker_set_key" : "_ZNSt3__114numeric_limitsIKT_E15tinyness_beforeE",
   "name" : "std::__1::numeric_limits<const type-parameter-0-0>::tinyness_before",
   "referenced_type" : "_ZTIKb",
   "source_file" : "external/libcxx/include/limits"
  },
  {
   "linker_set_key" : "_ZNSt3__114numeric_limitsIKT_E17has_signaling_NaNE",
   "name" : "std::__1::numeric_limits<const type-parameter-0-0>::has_signaling_NaN",
   "referenced_type" : "_ZTIKb",
   "source_file" : "external/libcxx/include/limits"
  },
  {
   "linker_set_key" : "_ZNSt3__114numeric_limitsIKT_E5radixE",
   "name" : "std::__1::numeric_limits<const type-parameter-0-0>::radix",
   "referenced_type" : "_ZTIKi",
   "source_file" : "external/libcxx/include/limits"
  },
  {
   "linker_set_key" : "_ZNSt3__114numeric_limitsIKT_E5trapsE",
   "name" : "std::__1::numeric_limits<const type-parameter-0-0>::traps",
   "referenced_type" : "_ZTIKb",
   "source_file" : "external/libcxx/include/limits"
  },
  {
   "linker_set_key" : "_ZNSt3__114numeric_limitsIKT_E6digitsE",
   "name" : "std::__1::numeric_limits<const type-parameter-0-0>::digits",
   "referenced_type" : "_ZTIKi",
   "source_file" : "external/libcxx/include/limits"
  },
  {
   "linker_set_key" : "_ZNSt3__114numeric_limitsIKT_E8digits10E",
   "name" : "std::__1::numeric_limits<const type-parameter-0-0>::digits10",
   "referenced_type" : "_ZTIKi",
   "source_file" : "external/libcxx/include/limits"
  },
  {
   "linker_set_key" : "_ZNSt3__114numeric_limitsIKT_E8is_exactE",
   "name" : "std::__1::numeric_limits<const type-parameter-0-0>::is_exact",
   "referenced_type" : "_ZTIKb",
   "source_file" : "external/libcxx/include/limits"
  },
  {
   "linker_set_key" : "_ZNSt3__114numeric_limitsIKT_E9is_iec559E",
   "name" : "std::__1::numeric_limits<const type-parameter-0-0>::is_iec559",
   "referenced_type" : "_ZTIKb",
   "source_file" : "external/libcxx/include/limits"
  },
  {
   "linker_set_key" : "_ZNSt3__114numeric_limitsIKT_E9is_moduloE",
   "name" : "std::__1::numeric_limits<const type-parameter-0-0>::is_modulo",
   "referenced_type" : "_ZTIKb",
   "source_file" : "external/libcxx/include/limits"
  },
  {
   "linker_set_key" : "_ZNSt3__114numeric_limitsIKT_E9is_signedE",
   "name" : "std::__1::numeric_limits<const type-parameter-0-0>::is_signed",
   "referenced_type" : "_ZTIKb",
   "source_file" : "external/libcxx/include/limits"
  },
  {
   "linker_set_key" : "_ZNSt3__114numeric_limitsIVKT_E10has_denormE",
   "name" : "std::__1::numeric_limits<const volatile type-parameter-0-0>::has_denorm",
   "referenced_type" : "_ZTIKNSt3__118float_denorm_styleE",
   "source_file" : "external/libcxx/include/limits"
  },
  {
   "linker_set_key" : "_ZNSt3__114numeric_limitsIVKT_E10is_boundedE",
   "name" : "std::__1::numeric_limits<const volatile type-parameter-0-0>::is_bounded",
   "referenced_type" : "_ZTIKb",
   "source_file" : "external/libcxx/include/limits"
  },
  {
   "linker_set_key" : "_ZNSt3__114numeric_limitsIVKT_E10is_integerE",
   "name" : "std::__1::numeric_limits<const volatile type-parameter-0-0>::is_integer",
   "referenced_type" : "_ZTIKb",
   "source_file" : "external/libcxx/include/limits"
  },
  {
   "linker_set_key" : "_ZNSt3__114numeric_limitsIVKT_E11round_styleE",
   "name" : "std::__1::numeric_limits<const volatile type-parameter-0-0>::round_style",
   "referenced_type" : "_ZTIKNSt3__117float_round_styleE",
   "source_file" : "external/libcxx/include/limits"
  },
  {
   "linker_set_key" : "_ZNSt3__114numeric_limitsIVKT_E12has_infinityE",
   "name" : "std::__1::numeric_limits<const volatile type-parameter-0-0>::has_infinity",
   "referenced_type" : "_ZTIKb",
   "source_file" : "external/libcxx/include/limits"
  },
  {
   "linker_set_key" : "_ZNSt3__114numeric_limitsIVKT_E12max_digits10E",
   "name" : "std::__1::numeric_limits<const volatile type-parameter-0-0>::max_digits10",
   "referenced_type" : "_ZTIKi",
   "source_file" : "external/libcxx/include/limits"
  },
  {
   "linker_set_key" : "_ZNSt3__114numeric_limitsIVKT_E12max_exponentE",
   "name" : "std::__1::numeric_limits<const volatile type-parameter-0-0>::max_exponent",
   "referenced_type" : "_ZTIKi",
   "source_file" : "external/libcxx/include/limits"
  },
  {
   "linker_set_key" : "_ZNSt3__114numeric_limitsIVKT_E12min_exponentE",
   "name" : "std::__1::numeric_limits<const volatile type-parameter-0-0>::min_exponent",
   "referenced_type" : "_ZTIKi",
   "source_file" : "external/libcxx/include/limits"
  },
  {
   "linker_set_key" : "_ZNSt3__114numeric_limitsIVKT_E13has_quiet_NaNE",
   "name" : "std::__1::numeric_limits<const volatile type-parameter-0-0>::has_quiet_NaN",
   "referenced_type" : "_ZTIKb",
   "source_file" : "external/libcxx/include/limits"
  },
  {
   "linker_set_key" : "_ZNSt3__114numeric_limitsIVKT_E14is_specializedE",
   "name" : "std::__1::numeric_limits<const volatile type-parameter-0-0>::is_specialized",
   "referenced_type" : "_ZTIKb",
   "source_file" : "external/libcxx/include/limits"
  },
  {
   "linker_set_key" : "_ZNSt3__114numeric_limitsIVKT_E14max_exponent10E",
   "name" : "std::__1::numeric_limits<const volatile type-parameter-0-0>::max_exponent10",
   "referenced_type" : "_ZTIKi",
   "source_file" : "external/libcxx/include/limits"
  },
  {
   "linker_set_key" : "_ZNSt3__114numeric_limitsIVKT_E14min_exponent10E",
   "name" : "std::__1::numeric_limits<const volatile type-parameter-0-0>::min_exponent10",
   "referenced_type" : "_ZTIKi",
   "source_file" : "external/libcxx/include/limits"
  },
  {
   "linker_set_key" : "_ZNSt3__114numeric_limitsIVKT_E15has_denorm_lossE",
   "name" : "std::__1::numeric_limits<const volatile type-parameter-0-0>::has_denorm_loss",
   "referenced_type" : "_ZTIKb",
   "source_file" : "external/libcxx/include/limits"
  },
  {
   "linker_set_key" : "_ZNSt3__114numeric_limitsIVKT_E15tinyness_beforeE",
   "name" : "std::__1::numeric_limits<const volatile type-parameter-0-0>::tinyness_before",
   "referenced_type" : "_ZTIKb",
   "source_file" : "external/libcxx/include/limits"
  },
  {
   "linker_set_key" : "_ZNSt3__114numeric_limitsIVKT_E17has_signaling_NaNE",
   "name" : "std::__1::numeric_limits<const volatile type-parameter-0-0>::has_signaling_NaN",
   "referenced_type" : "_ZTIKb",
   "source_file" : "external/libcxx/include/limits"
  },
  {
   "linker_set_key" : "_ZNSt3__114numeric_limitsIVKT_E5radixE",
   "name" : "std::__1::numeric_limits<const volatile type-parameter-0-0>::radix",
   "referenced_type" : "_ZTIKi",
   "source_file" : "external/libcxx/include/limits"
  },
  {
   "linker_set_key" : "_ZNSt3__114numeric_limitsIVKT_E5trapsE",
   "name" : "std::__1::numeric_limits<const volatile type-parameter-0-0>::traps",
   "referenced_type" : "_ZTIKb",
   "source_file" : "external/libcxx/include/limits"
  },
  {
   "linker_set_key" : "_ZNSt3__114numeric_limitsIVKT_E6digitsE",
   "name" : "std::__1::numeric_limits<const volatile type-parameter-0-0>::digits",
   "referenced_type" : "_ZTIKi",
   "source_file" : "external/libcxx/include/limits"
  },
  {
   "linker_set_key" : "_ZNSt3__114numeric_limitsIVKT_E8digits10E",
   "name" : "std::__1::numeric_limits<const volatile type-parameter-0-0>::digits10",
   "referenced_type" : "_ZTIKi",
   "source_file" : "external/libcxx/include/limits"
  },
  {
   "linker_set_key" : "_ZNSt3__114numeric_limitsIVKT_E8is_exactE",
   "name" : "std::__1::numeric_limits<const volatile type-parameter-0-0>::is_exact",
   "referenced_type" : "_ZTIKb",
   "source_file" : "external/libcxx/include/limits"
  },
  {
   "linker_set_key" : "_ZNSt3__114numeric_limitsIVKT_E9is_iec559E",
   "name" : "std::__1::numeric_limits<const volatile type-parameter-0-0>::is_iec559",
   "referenced_type" : "_ZTIKb",
   "source_file" : "external/libcxx/include/limits"
  },
  {
   "linker_set_key" : "_ZNSt3__114numeric_limitsIVKT_E9is_moduloE",
   "name" : "std::__1::numeric_limits<const volatile type-parameter-0-0>::is_modulo",
   "referenced_type" : "_ZTIKb",
   "source_file" : "external/libcxx/include/limits"
  },
  {
   "linker_set_key" : "_ZNSt3__114numeric_limitsIVKT_E9is_signedE",
   "name" : "std::__1::numeric_limits<const volatile type-parameter-0-0>::is_signed",
   "referenced_type" : "_ZTIKb",
   "source_file" : "external/libcxx/include/limits"
  },
  {
   "linker_set_key" : "_ZNSt3__114numeric_limitsIVT_E10has_denormE",
   "name" : "std::__1::numeric_limits<volatile type-parameter-0-0>::has_denorm",
   "referenced_type" : "_ZTIKNSt3__118float_denorm_styleE",
   "source_file" : "external/libcxx/include/limits"
  },
  {
   "linker_set_key" : "_ZNSt3__114numeric_limitsIVT_E10is_boundedE",
   "name" : "std::__1::numeric_limits<volatile type-parameter-0-0>::is_bounded",
   "referenced_type" : "_ZTIKb",
   "source_file" : "external/libcxx/include/limits"
  },
  {
   "linker_set_key" : "_ZNSt3__114numeric_limitsIVT_E10is_integerE",
   "name" : "std::__1::numeric_limits<volatile type-parameter-0-0>::is_integer",
   "referenced_type" : "_ZTIKb",
   "source_file" : "external/libcxx/include/limits"
  },
  {
   "linker_set_key" : "_ZNSt3__114numeric_limitsIVT_E11round_styleE",
   "name" : "std::__1::numeric_limits<volatile type-parameter-0-0>::round_style",
   "referenced_type" : "_ZTIKNSt3__117float_round_styleE",
   "source_file" : "external/libcxx/include/limits"
  },
  {
   "linker_set_key" : "_ZNSt3__114numeric_limitsIVT_E12has_infinityE",
   "name" : "std::__1::numeric_limits<volatile type-parameter-0-0>::has_infinity",
   "referenced_type" : "_ZTIKb",
   "source_file" : "external/libcxx/include/limits"
  },
  {
   "linker_set_key" : "_ZNSt3__114numeric_limitsIVT_E12max_digits10E",
   "name" : "std::__1::numeric_limits<volatile type-parameter-0-0>::max_digits10",
   "referenced_type" : "_ZTIKi",
   "source_file" : "external/libcxx/include/limits"
  },
  {
   "linker_set_key" : "_ZNSt3__114numeric_limitsIVT_E12max_exponentE",
   "name" : "std::__1::numeric_limits<volatile type-parameter-0-0>::max_exponent",
   "referenced_type" : "_ZTIKi",
   "source_file" : "external/libcxx/include/limits"
  },
  {
   "linker_set_key" : "_ZNSt3__114numeric_limitsIVT_E12min_exponentE",
   "name" : "std::__1::numeric_limits<volatile type-parameter-0-0>::min_exponent",
   "referenced_type" : "_ZTIKi",
   "source_file" : "external/libcxx/include/limits"
  },
  {
   "linker_set_key" : "_ZNSt3__114numeric_limitsIVT_E13has_quiet_NaNE",
   "name" : "std::__1::numeric_limits<volatile type-parameter-0-0>::has_quiet_NaN",
   "referenced_type" : "_ZTIKb",
   "source_file" : "external/libcxx/include/limits"
  },
  {
   "linker_set_key" : "_ZNSt3__114numeric_limitsIVT_E14is_specializedE",
   "name" : "std::__1::numeric_limits<volatile type-parameter-0-0>::is_specialized",
   "referenced_type" : "_ZTIKb",
   "source_file" : "external/libcxx/include/limits"
  },
  {
   "linker_set_key" : "_ZNSt3__114numeric_limitsIVT_E14max_exponent10E",
   "name" : "std::__1::numeric_limits<volatile type-parameter-0-0>::max_exponent10",
   "referenced_type" : "_ZTIKi",
   "source_file" : "external/libcxx/include/limits"
  },
  {
   "linker_set_key" : "_ZNSt3__114numeric_limitsIVT_E14min_exponent10E",
   "name" : "std::__1::numeric_limits<volatile type-parameter-0-0>::min_exponent10",
   "referenced_type" : "_ZTIKi",
   "source_file" : "external/libcxx/include/limits"
  },
  {
   "linker_set_key" : "_ZNSt3__114numeric_limitsIVT_E15has_denorm_lossE",
   "name" : "std::__1::numeric_limits<volatile type-parameter-0-0>::has_denorm_loss",
   "referenced_type" : "_ZTIKb",
   "source_file" : "external/libcxx/include/limits"
  },
  {
   "linker_set_key" : "_ZNSt3__114numeric_limitsIVT_E15tinyness_beforeE",
   "name" : "std::__1::numeric_limits<volatile type-parameter-0-0>::tinyness_before",
   "referenced_type" : "_ZTIKb",
   "source_file" : "external/libcxx/include/limits"
  },
  {
   "linker_set_key" : "_ZNSt3__114numeric_limitsIVT_E17has_signaling_NaNE",
   "name" : "std::__1::numeric_limits<volatile type-parameter-0-0>::has_signaling_NaN",
   "referenced_type" : "_ZTIKb",
   "source_file" : "external/libcxx/include/limits"
  },
  {
   "linker_set_key" : "_ZNSt3__114numeric_limitsIVT_E5radixE",
   "name" : "std::__1::numeric_limits<volatile type-parameter-0-0>::radix",
   "referenced_type" : "_ZTIKi",
   "source_file" : "external/libcxx/include/limits"
  },
  {
   "linker_set_key" : "_ZNSt3__114numeric_limitsIVT_E5trapsE",
   "name" : "std::__1::numeric_limits<volatile type-parameter-0-0>::traps",
   "referenced_type" : "_ZTIKb",
   "source_file" : "external/libcxx/include/limits"
  },
  {
   "linker_set_key" : "_ZNSt3__114numeric_limitsIVT_E6digitsE",
   "name" : "std::__1::numeric_limits<volatile type-parameter-0-0>::digits",
   "referenced_type" : "_ZTIKi",
   "source_file" : "external/libcxx/include/limits"
  },
  {
   "linker_set_key" : "_ZNSt3__114numeric_limitsIVT_E8digits10E",
   "name" : "std::__1::numeric_limits<volatile type-parameter-0-0>::digits10",
   "referenced_type" : "_ZTIKi",
   "source_file" : "external/libcxx/include/limits"
  },
  {
   "linker_set_key" : "_ZNSt3__114numeric_limitsIVT_E8is_exactE",
   "name" : "std::__1::numeric_limits<volatile type-parameter-0-0>::is_exact",
   "referenced_type" : "_ZTIKb",
   "source_file" : "external/libcxx/include/limits"
  },
  {
   "linker_set_key" : "_ZNSt3__114numeric_limitsIVT_E9is_iec559E",
   "name" : "std::__1::numeric_limits<volatile type-parameter-0-0>::is_iec559",
   "referenced_type" : "_ZTIKb",
   "source_file" : "external/libcxx/include/limits"
  },
  {
   "linker_set_key" : "_ZNSt3__114numeric_limitsIVT_E9is_moduloE",
   "name" : "std::__1::numeric_limits<volatile type-parameter-0-0>::is_modulo",
   "referenced_type" : "_ZTIKb",
   "source_file" : "external/libcxx/include/limits"
  },
  {
   "linker_set_key" : "_ZNSt3__114numeric_limitsIVT_E9is_signedE",
   "name" : "std::__1::numeric_limits<volatile type-parameter-0-0>::is_signed",
   "referenced_type" : "_ZTIKb",
   "source_file" : "external/libcxx/include/limits"
  },
  {
   "linker_set_key" : "_ZNSt3__114numeric_limitsIiE10has_denormE",
   "name" : "std::__1::numeric_limits<int>::has_denorm",
   "referenced_type" : "_ZTIKNSt3__118float_denorm_styleE",
   "source_file" : "external/libcxx/include/limits"
  },
  {
   "linker_set_key" : "_ZNSt3__114numeric_limitsIiE10is_boundedE",
   "name" : "std::__1::numeric_limits<int>::is_bounded",
   "referenced_type" : "_ZTIKb",
   "source_file" : "external/libcxx/include/limits"
  },
  {
   "linker_set_key" : "_ZNSt3__114numeric_limitsIiE10is_integerE",
   "name" : "std::__1::numeric_limits<int>::is_integer",
   "referenced_type" : "_ZTIKb",
   "source_file" : "external/libcxx/include/limits"
  },
  {
   "linker_set_key" : "_ZNSt3__114numeric_limitsIiE11round_styleE",
   "name" : "std::__1::numeric_limits<int>::round_style",
   "referenced_type" : "_ZTIKNSt3__117float_round_styleE",
   "source_file" : "external/libcxx/include/limits"
  },
  {
   "linker_set_key" : "_ZNSt3__114numeric_limitsIiE12has_infinityE",
   "name" : "std::__1::numeric_limits<int>::has_infinity",
   "referenced_type" : "_ZTIKb",
   "source_file" : "external/libcxx/include/limits"
  },
  {
   "linker_set_key" : "_ZNSt3__114numeric_limitsIiE12max_digits10E",
   "name" : "std::__1::numeric_limits<int>::max_digits10",
   "referenced_type" : "_ZTIKi",
   "source_file" : "external/libcxx/include/limits"
  },
  {
   "linker_set_key" : "_ZNSt3__114numeric_limitsIiE12max_exponentE",
   "name" : "std::__1::numeric_limits<int>::max_exponent",
   "referenced_type" : "_ZTIKi",
   "source_file" : "external/libcxx/include/limits"
  },
  {
   "linker_set_key" : "_ZNSt3__114numeric_limitsIiE12min_exponentE",
   "name" : "std::__1::numeric_limits<int>::min_exponent",
   "referenced_type" : "_ZTIKi",
   "source_file" : "external/libcxx/include/limits"
  },
  {
   "linker_set_key" : "_ZNSt3__114numeric_limitsIiE13has_quiet_NaNE",
   "name" : "std::__1::numeric_limits<int>::has_quiet_NaN",
   "referenced_type" : "_ZTIKb",
   "source_file" : "external/libcxx/include/limits"
  },
  {
   "linker_set_key" : "_ZNSt3__114numeric_limitsIiE14is_specializedE",
   "name" : "std::__1::numeric_limits<int>::is_specialized",
   "referenced_type" : "_ZTIKb",
   "source_file" : "external/libcxx/include/limits"
  },
  {
   "linker_set_key" : "_ZNSt3__114numeric_limitsIiE14max_exponent10E",
   "name" : "std::__1::numeric_limits<int>::max_exponent10",
   "referenced_type" : "_ZTIKi",
   "source_file" : "external/libcxx/include/limits"
  },
  {
   "linker_set_key" : "_ZNSt3__114numeric_limitsIiE14min_exponent10E",
   "name" : "std::__1::numeric_limits<int>::min_exponent10",
   "referenced_type" : "_ZTIKi",
   "source_file" : "external/libcxx/include/limits"
  },
  {
   "linker_set_key" : "_ZNSt3__114numeric_limitsIiE15has_denorm_lossE",
   "name" : "std::__1::numeric_limits<int>::has_denorm_loss",
   "referenced_type" : "_ZTIKb",
   "source_file" : "external/libcxx/include/limits"
  },
  {
   "linker_set_key" : "_ZNSt3__114numeric_limitsIiE15tinyness_beforeE",
   "name" : "std::__1::numeric_limits<int>::tinyness_before",
   "referenced_type" : "_ZTIKb",
   "source_file" : "external/libcxx/include/limits"
  },
  {
   "linker_set_key" : "_ZNSt3__114numeric_limitsIiE17has_signaling_NaNE",
   "name" : "std::__1::numeric_limits<int>::has_signaling_NaN",
   "referenced_type" : "_ZTIKb",
   "source_file" : "external/libcxx/include/limits"
  },
  {
   "linker_set_key" : "_ZNSt3__114numeric_limitsIiE5radixE",
   "name" : "std::__1::numeric_limits<int>::radix",
   "referenced_type" : "_ZTIKi",
   "source_file" : "external/libcxx/include/limits"
  },
  {
   "linker_set_key" : "_ZNSt3__114numeric_limitsIiE5trapsE",
   "name" : "std::__1::numeric_limits<int>::traps",
   "referenced_type" : "_ZTIKb",
   "source_file" : "external/libcxx/include/limits"
  },
  {
   "linker_set_key" : "_ZNSt3__114numeric_limitsIiE6digitsE",
   "name" : "std::__1::numeric_limits<int>::digits",
   "referenced_type" : "_ZTIKi",
   "source_file" : "external/libcxx/include/limits"
  },
  {
   "linker_set_key" : "_ZNSt3__114numeric_limitsIiE8digits10E",
   "name" : "std::__1::numeric_limits<int>::digits10",
   "referenced_type" : "_ZTIKi",
   "source_file" : "external/libcxx/include/limits"
  },
  {
   "linker_set_key" : "_ZNSt3__114numeric_limitsIiE8is_exactE",
   "name" : "std::__1::numeric_limits<int>::is_exact",
   "referenced_type" : "_ZTIKb",
   "source_file" : "external/libcxx/include/limits"
  },
  {
   "linker_set_key" : "_ZNSt3__114numeric_limitsIiE9is_iec559E",
   "name" : "std::__1::numeric_limits<int>::is_iec559",
   "referenced_type" : "_ZTIKb",
   "source_file" : "external/libcxx/include/limits"
  },
  {
   "linker_set_key" : "_ZNSt3__114numeric_limitsIiE9is_moduloE",
   "name" : "std::__1::numeric_limits<int>::is_modulo",
   "referenced_type" : "_ZTIKb",
   "source_file" : "external/libcxx/include/limits"
  },
  {
   "linker_set_key" : "_ZNSt3__114numeric_limitsIiE9is_signedE",
   "name" : "std::__1::numeric_limits<int>::is_signed",
   "referenced_type" : "_ZTIKb",
   "source_file" : "external/libcxx/include/limits"
  },
  {
   "linker_set_key" : "_ZNSt3__114numeric_limitsIjE10has_denormE",
   "name" : "std::__1::numeric_limits<unsigned int>::has_denorm",
   "referenced_type" : "_ZTIKNSt3__118float_denorm_styleE",
   "source_file" : "external/libcxx/include/limits"
  },
  {
   "linker_set_key" : "_ZNSt3__114numeric_limitsIjE10is_boundedE",
   "name" : "std::__1::numeric_limits<unsigned int>::is_bounded",
   "referenced_type" : "_ZTIKb",
   "source_file" : "external/libcxx/include/limits"
  },
  {
   "linker_set_key" : "_ZNSt3__114numeric_limitsIjE10is_integerE",
   "name" : "std::__1::numeric_limits<unsigned int>::is_integer",
   "referenced_type" : "_ZTIKb",
   "source_file" : "external/libcxx/include/limits"
  },
  {
   "linker_set_key" : "_ZNSt3__114numeric_limitsIjE11round_styleE",
   "name" : "std::__1::numeric_limits<unsigned int>::round_style",
   "referenced_type" : "_ZTIKNSt3__117float_round_styleE",
   "source_file" : "external/libcxx/include/limits"
  },
  {
   "linker_set_key" : "_ZNSt3__114numeric_limitsIjE12has_infinityE",
   "name" : "std::__1::numeric_limits<unsigned int>::has_infinity",
   "referenced_type" : "_ZTIKb",
   "source_file" : "external/libcxx/include/limits"
  },
  {
   "linker_set_key" : "_ZNSt3__114numeric_limitsIjE12max_digits10E",
   "name" : "std::__1::numeric_limits<unsigned int>::max_digits10",
   "referenced_type" : "_ZTIKi",
   "source_file" : "external/libcxx/include/limits"
  },
  {
   "linker_set_key" : "_ZNSt3__114numeric_limitsIjE12max_exponentE",
   "name" : "std::__1::numeric_limits<unsigned int>::max_exponent",
   "referenced_type" : "_ZTIKi",
   "source_file" : "external/libcxx/include/limits"
  },
  {
   "linker_set_key" : "_ZNSt3__114numeric_limitsIjE12min_exponentE",
   "name" : "std::__1::numeric_limits<unsigned int>::min_exponent",
   "referenced_type" : "_ZTIKi",
   "source_file" : "external/libcxx/include/limits"
  },
  {
   "linker_set_key" : "_ZNSt3__114numeric_limitsIjE13has_quiet_NaNE",
   "name" : "std::__1::numeric_limits<unsigned int>::has_quiet_NaN",
   "referenced_type" : "_ZTIKb",
   "source_file" : "external/libcxx/include/limits"
  },
  {
   "linker_set_key" : "_ZNSt3__114numeric_limitsIjE14is_specializedE",
   "name" : "std::__1::numeric_limits<unsigned int>::is_specialized",
   "referenced_type" : "_ZTIKb",
   "source_file" : "external/libcxx/include/limits"
  },
  {
   "linker_set_key" : "_ZNSt3__114numeric_limitsIjE14max_exponent10E",
   "name" : "std::__1::numeric_limits<unsigned int>::max_exponent10",
   "referenced_type" : "_ZTIKi",
   "source_file" : "external/libcxx/include/limits"
  },
  {
   "linker_set_key" : "_ZNSt3__114numeric_limitsIjE14min_exponent10E",
   "name" : "std::__1::numeric_limits<unsigned int>::min_exponent10",
   "referenced_type" : "_ZTIKi",
   "source_file" : "external/libcxx/include/limits"
  },
  {
   "linker_set_key" : "_ZNSt3__114numeric_limitsIjE15has_denorm_lossE",
   "name" : "std::__1::numeric_limits<unsigned int>::has_denorm_loss",
   "referenced_type" : "_ZTIKb",
   "source_file" : "external/libcxx/include/limits"
  },
  {
   "linker_set_key" : "_ZNSt3__114numeric_limitsIjE15tinyness_beforeE",
   "name" : "std::__1::numeric_limits<unsigned int>::tinyness_before",
   "referenced_type" : "_ZTIKb",
   "source_file" : "external/libcxx/include/limits"
  },
  {
   "linker_set_key" : "_ZNSt3__114numeric_limitsIjE17has_signaling_NaNE",
   "name" : "std::__1::numeric_limits<unsigned int>::has_signaling_NaN",
   "referenced_type" : "_ZTIKb",
   "source_file" : "external/libcxx/include/limits"
  },
  {
   "linker_set_key" : "_ZNSt3__114numeric_limitsIjE5radixE",
   "name" : "std::__1::numeric_limits<unsigned int>::radix",
   "referenced_type" : "_ZTIKi",
   "source_file" : "external/libcxx/include/limits"
  },
  {
   "linker_set_key" : "_ZNSt3__114numeric_limitsIjE5trapsE",
   "name" : "std::__1::numeric_limits<unsigned int>::traps",
   "referenced_type" : "_ZTIKb",
   "source_file" : "external/libcxx/include/limits"
  },
  {
   "linker_set_key" : "_ZNSt3__114numeric_limitsIjE6digitsE",
   "name" : "std::__1::numeric_limits<unsigned int>::digits",
   "referenced_type" : "_ZTIKi",
   "source_file" : "external/libcxx/include/limits"
  },
  {
   "linker_set_key" : "_ZNSt3__114numeric_limitsIjE8digits10E",
   "name" : "std::__1::numeric_limits<unsigned int>::digits10",
   "referenced_type" : "_ZTIKi",
   "source_file" : "external/libcxx/include/limits"
  },
  {
   "linker_set_key" : "_ZNSt3__114numeric_limitsIjE8is_exactE",
   "name" : "std::__1::numeric_limits<unsigned int>::is_exact",
   "referenced_type" : "_ZTIKb",
   "source_file" : "external/libcxx/include/limits"
  },
  {
   "linker_set_key" : "_ZNSt3__114numeric_limitsIjE9is_iec559E",
   "name" : "std::__1::numeric_limits<unsigned int>::is_iec559",
   "referenced_type" : "_ZTIKb",
   "source_file" : "external/libcxx/include/limits"
  },
  {
   "linker_set_key" : "_ZNSt3__114numeric_limitsIjE9is_moduloE",
   "name" : "std::__1::numeric_limits<unsigned int>::is_modulo",
   "referenced_type" : "_ZTIKb",
   "source_file" : "external/libcxx/include/limits"
  },
  {
   "linker_set_key" : "_ZNSt3__114numeric_limitsIjE9is_signedE",
   "name" : "std::__1::numeric_limits<unsigned int>::is_signed",
   "referenced_type" : "_ZTIKb",
   "source_file" : "external/libcxx/include/limits"
  },
  {
   "linker_set_key" : "_ZNSt3__114numeric_limitsIyE10has_denormE",
   "name" : "std::__1::numeric_limits<unsigned long long>::has_denorm",
   "referenced_type" : "_ZTIKNSt3__118float_denorm_styleE",
   "source_file" : "external/libcxx/include/limits"
  },
  {
   "linker_set_key" : "_ZNSt3__114numeric_limitsIyE10is_boundedE",
   "name" : "std::__1::numeric_limits<unsigned long long>::is_bounded",
   "referenced_type" : "_ZTIKb",
   "source_file" : "external/libcxx/include/limits"
  },
  {
   "linker_set_key" : "_ZNSt3__114numeric_limitsIyE10is_integerE",
   "name" : "std::__1::numeric_limits<unsigned long long>::is_integer",
   "referenced_type" : "_ZTIKb",
   "source_file" : "external/libcxx/include/limits"
  },
  {
   "linker_set_key" : "_ZNSt3__114numeric_limitsIyE11round_styleE",
   "name" : "std::__1::numeric_limits<unsigned long long>::round_style",
   "referenced_type" : "_ZTIKNSt3__117float_round_styleE",
   "source_file" : "external/libcxx/include/limits"
  },
  {
   "linker_set_key" : "_ZNSt3__114numeric_limitsIyE12has_infinityE",
   "name" : "std::__1::numeric_limits<unsigned long long>::has_infinity",
   "referenced_type" : "_ZTIKb",
   "source_file" : "external/libcxx/include/limits"
  },
  {
   "linker_set_key" : "_ZNSt3__114numeric_limitsIyE12max_digits10E",
   "name" : "std::__1::numeric_limits<unsigned long long>::max_digits10",
   "referenced_type" : "_ZTIKi",
   "source_file" : "external/libcxx/include/limits"
  },
  {
   "linker_set_key" : "_ZNSt3__114numeric_limitsIyE12max_exponentE",
   "name" : "std::__1::numeric_limits<unsigned long long>::max_exponent",
   "referenced_type" : "_ZTIKi",
   "source_file" : "external/libcxx/include/limits"
  },
  {
   "linker_set_key" : "_ZNSt3__114numeric_limitsIyE12min_exponentE",
   "name" : "std::__1::numeric_limits<unsigned long long>::min_exponent",
   "referenced_type" : "_ZTIKi",
   "source_file" : "external/libcxx/include/limits"
  },
  {
   "linker_set_key" : "_ZNSt3__114numeric_limitsIyE13has_quiet_NaNE",
   "name" : "std::__1::numeric_limits<unsigned long long>::has_quiet_NaN",
   "referenced_type" : "_ZTIKb",
   "source_file" : "external/libcxx/include/limits"
  },
  {
   "linker_set_key" : "_ZNSt3__114numeric_limitsIyE14is_specializedE",
   "name" : "std::__1::numeric_limits<unsigned long long>::is_specialized",
   "referenced_type" : "_ZTIKb",
   "source_file" : "external/libcxx/include/limits"
  },
  {
   "linker_set_key" : "_ZNSt3__114numeric_limitsIyE14max_exponent10E",
   "name" : "std::__1::numeric_limits<unsigned long long>::max_exponent10",
   "referenced_type" : "_ZTIKi",
   "source_file" : "external/libcxx/include/limits"
  },
  {
   "linker_set_key" : "_ZNSt3__114numeric_limitsIyE14min_exponent10E",
   "name" : "std::__1::numeric_limits<unsigned long long>::min_exponent10",
   "referenced_type" : "_ZTIKi",
   "source_file" : "external/libcxx/include/limits"
  },
  {
   "linker_set_key" : "_ZNSt3__114numeric_limitsIyE15has_denorm_lossE",
   "name" : "std::__1::numeric_limits<unsigned long long>::has_denorm_loss",
   "referenced_type" : "_ZTIKb",
   "source_file" : "external/libcxx/include/limits"
  },
  {
   "linker_set_key" : "_ZNSt3__114numeric_limitsIyE15tinyness_beforeE",
   "name" : "std::__1::numeric_limits<unsigned long long>::tinyness_before",
   "referenced_type" : "_ZTIKb",
   "source_file" : "external/libcxx/include/limits"
  },
  {
   "linker_set_key" : "_ZNSt3__114numeric_limitsIyE17has_signaling_NaNE",
   "name" : "std::__1::numeric_limits<unsigned long long>::has_signaling_NaN",
   "referenced_type" : "_ZTIKb",
   "source_file" : "external/libcxx/include/limits"
  },
  {
   "linker_set_key" : "_ZNSt3__114numeric_limitsIyE5radixE",
   "name" : "std::__1::numeric_limits<unsigned long long>::radix",
   "referenced_type" : "_ZTIKi",
   "source_file" : "external/libcxx/include/limits"
  },
  {
   "linker_set_key" : "_ZNSt3__114numeric_limitsIyE5trapsE",
   "name" : "std::__1::numeric_limits<unsigned long long>::traps",
   "referenced_type" : "_ZTIKb",
   "source_file" : "external/libcxx/include/limits"
  },
  {
   "linker_set_key" : "_ZNSt3__114numeric_limitsIyE6digitsE",
   "name" : "std::__1::numeric_limits<unsigned long long>::digits",
   "referenced_type" : "_ZTIKi",
   "source_file" : "external/libcxx/include/limits"
  },
  {
   "linker_set_key" : "_ZNSt3__114numeric_limitsIyE8digits10E",
   "name" : "std::__1::numeric_limits<unsigned long long>::digits10",
   "referenced_type" : "_ZTIKi",
   "source_file" : "external/libcxx/include/limits"
  },
  {
   "linker_set_key" : "_ZNSt3__114numeric_limitsIyE8is_exactE",
   "name" : "std::__1::numeric_limits<unsigned long long>::is_exact",
   "referenced_type" : "_ZTIKb",
   "source_file" : "external/libcxx/include/limits"
  },
  {
   "linker_set_key" : "_ZNSt3__114numeric_limitsIyE9is_iec559E",
   "name" : "std::__1::numeric_limits<unsigned long long>::is_iec559",
   "referenced_type" : "_ZTIKb",
   "source_file" : "external/libcxx/include/limits"
  },
  {
   "linker_set_key" : "_ZNSt3__114numeric_limitsIyE9is_moduloE",
   "name" : "std::__1::numeric_limits<unsigned long long>::is_modulo",
   "referenced_type" : "_ZTIKb",
   "source_file" : "external/libcxx/include/limits"
  },
  {
   "linker_set_key" : "_ZNSt3__114numeric_limitsIyE9is_signedE",
   "name" : "std::__1::numeric_limits<unsigned long long>::is_signed",
   "referenced_type" : "_ZTIKb",
   "source_file" : "external/libcxx/include/limits"
  },
  {
   "linker_set_key" : "_ZNSt3__117__has_result_type5valueE",
   "name" : "std::__1::__has_result_type::value",
   "referenced_type" : "_ZTIKb",
   "source_file" : "external/libcxx/include/__functional_base"
  },
  {
   "linker_set_key" : "_ZNSt3__117basic_string_view4nposE",
   "name" : "std::__1::basic_string_view::npos",
   "referenced_type" : "_ZTIKj",
   "source_file" : "external/libcxx/include/string_view"
  },
  {
   "linker_set_key" : "_ZNSt3__117basic_string_viewIcNS_11char_traitsIcEEE4nposE",
   "name" : "std::__1::basic_string_view<char, std::__1::char_traits<char>>::npos",
   "referenced_type" : "_ZTIKj",
   "source_file" : "external/libcxx/include/string_view"
  },
  {
   "linker_set_key" : "_ZNSt3__117integral_constantIbLb0EE5valueE",
   "name" : "std::__1::integral_constant<bool, false>::value",
   "referenced_type" : "_ZTIKb",
   "source_file" : "external/libcxx/include/type_traits"
  },
  {
   "linker_set_key" : "_ZNSt3__117integral_constantIbLb1EE5valueE",
   "name" : "std::__1::integral_constant<bool, true>::value",
   "referenced_type" : "_ZTIKb",
   "source_file" : "external/libcxx/include/type_traits"
  },
  {
   "linker_set_key" : "_ZNSt3__117integral_constantIiLi0EE5valueE",
   "name" : "std::__1::integral_constant<int, 0>::value",
   "referenced_type" : "_ZTIKi",
   "source_file" : "external/libcxx/include/type_traits"
  },
  {
   "linker_set_key" : "_ZNSt3__117integral_constantIiLi1EE5valueE",
   "name" : "std::__1::integral_constant<int, 1>::value",
   "referenced_type" : "_ZTIKi",
   "source_file" : "external/libcxx/include/type_traits"
  },
  {
   "linker_set_key" : "_ZNSt3__117integral_constantIiLi2EE5valueE",
   "name" : "std::__1::integral_constant<int, 2>::value",
   "referenced_type" : "_ZTIKi",
   "source_file" : "external/libcxx/include/type_traits"
  },
  {
   "linker_set_key" : "_ZNSt3__117integral_constantIjLj0EE5valueE",
   "name" : "std::__1::integral_constant<unsigned int, 0>::value",
   "referenced_type" : "_ZTIKj",
   "source_file" : "external/libcxx/include/type_traits"
  },
  {
   "linker_set_key" : "_ZNSt3__117integral_constantIjLj1EE5valueE",
   "name" : "std::__1::integral_constant<unsigned int, 1>::value",
   "referenced_type" : "_ZTIKj",
   "source_file" : "external/libcxx/include/type_traits"
  },
  {
   "linker_set_key" : "_ZNSt3__117integral_constantIjLj2EE5valueE",
   "name" : "std::__1::integral_constant<unsigned int, 2>::value",
   "referenced_type" : "_ZTIKj",
   "source_file" : "external/libcxx/include/type_traits"
  },
  {
   "linker_set_key" : "_ZNSt3__117integral_constantIjLj4EE5valueE",
   "name" : "std::__1::integral_constant<unsigned int, 4>::value",
   "referenced_type" : "_ZTIKj",
   "source_file" : "external/libcxx/include/type_traits"
  },
  {
   "linker_set_key" : "_ZNSt3__117integral_constantIjLj8EE5valueE",
   "name" : "std::__1::integral_constant<unsigned int, 8>::value",
   "referenced_type" : "_ZTIKj",
   "source_file" : "external/libcxx/include/type_traits"
  },
  {
   "linker_set_key" : "_ZNSt3__118__has_rebind_other5valueE",
   "name" : "std::__1::__has_rebind_other::value",
   "referenced_type" : "_ZTIKb",
   "source_file" : "external/libcxx/include/memory"
  },
  {
   "linker_set_key" : "_ZNSt3__118__has_rebind_otherIT_T0_Lb0EE5valueE",
   "name" : "std::__1::__has_rebind_other<type-parameter-0-0, type-parameter-0-1, false>::value",
   "referenced_type" : "_ZTIKb",
   "source_file" : "external/libcxx/include/memory"
  },
  {
   "linker_set_key" : "_ZNSt3__118__has_storage_type5valueE",
   "name" : "std::__1::__has_storage_type::value",
   "referenced_type" : "_ZTIKb",
   "source_file" : "external/libcxx/include/__bit_reference"
  },
  {
   "linker_set_key" : "_ZNSt3__118__has_storage_typeINS_6vectorIbT_EEE5valueE",
   "name" : "std::__1::__has_storage_type<vector<bool, type-parameter-0-0>>::value",
   "referenced_type" : "_ZTIKb",
   "source_file" : "external/libcxx/include/vector"
  },
  {
   "linker_set_key" : "_ZNSt3__120__has_allocator_type5valueE",
   "name" : "std::__1::__has_allocator_type::value",
   "referenced_type" : "_ZTIKb",
   "source_file" : "external/libcxx/include/__functional_base"
  },
  {
   "linker_set_key" : "_ZNSt3__120__libcpp_compute_minIiLi31ELb1EE5valueE",
   "name" : "std::__1::__libcpp_compute_min<int, 31, true>::value",
   "referenced_type" : "_ZTIKi",
   "source_file" : "external/libcxx/include/limits"
  },
  {
   "linker_set_key" : "_ZNSt3__120__libcpp_compute_minIjLi32ELb0EE5valueE",
   "name" : "std::__1::__libcpp_compute_min<unsigned int, 32, false>::value",
   "referenced_type" : "_ZTIKj",
   "source_file" : "external/libcxx/include/limits"
  },
  {
   "linker_set_key" : "_ZNSt3__120__libcpp_compute_minIyLi64ELb0EE5valueE",
   "name" : "std::__1::__libcpp_compute_min<unsigned long long, 64, false>::value",
   "referenced_type" : "_ZTIKy",
   "source_file" : "external/libcxx/include/limits"
  },
  {
   "linker_set_key" : "_ZNSt3__120__stable_sort_switch5valueE",
   "name" : "std::__1::__stable_sort_switch::value",
   "referenced_type" : "_ZTIKj",
   "source_file" : "external/libcxx/include/algorithm"
  },
  {
   "linker_set_key" : "_ZNSt3__121__uses_alloc_ctor_imp4__icE",
   "name" : "std::__1::__uses_alloc_ctor_imp::__ic",
   "referenced_type" : "_ZTIKb",
   "source_file" : "external/libcxx/include/__functional_base"
  },
  {
   "linker_set_key" : "_ZNSt3__121__uses_alloc_ctor_imp4__uaE",
   "name" : "std::__1::__uses_alloc_ctor_imp::__ua",
   "referenced_type" : "_ZTIKb",
   "source_file" : "external/libcxx/include/__functional_base"
  },
  {
   "linker_set_key" : "_ZNSt3__121__uses_alloc_ctor_imp5valueE",
   "name" : "std::__1::__uses_alloc_ctor_imp::value",
   "referenced_type" : "_ZTIKi",
   "source_file" : "external/libcxx/include/__functional_base"
  },
  {
   "linker_set_key" : "_ZNSt3__122__is_valid_bind_return5valueE",
   "name" : "std::__1::__is_valid_bind_return::value",
   "referenced_type" : "_ZTIKb",
   "source_file" : "external/libcxx/include/functional"
  },
  {
   "linker_set_key" : "_ZNSt3__122__is_valid_bind_returnIT_KNS_5tupleIJDpT0_EEET1_E5valueE",
   "name" : "std::__1::__is_valid_bind_return<type-parameter-0-0, const tuple<type-parameter-0-1...>, type-parameter-0-2>::value",
   "referenced_type" : "_ZTIKb",
   "source_file" : "external/libcxx/include/functional"
  },
  {
   "linker_set_key" : "_ZNSt3__122__is_valid_bind_returnIT_NS_5tupleIJDpT0_EEET1_E5valueE",
   "name" : "std::__1::__is_valid_bind_return<type-parameter-0-0, tuple<type-parameter-0-1...>, type-parameter-0-2>::value",
   "referenced_type" : "_ZTIKb",
   "source_file" : "external/libcxx/include/functional"
  },
  {
   "linker_set_key" : "_ZNSt3__123__has_iterator_category5valueE",
   "name" : "std::__1::__has_iterator_category::value",
   "referenced_type" : "_ZTIKb",
   "source_file" : "external/libcxx/include/iterator"
  },
  {
   "linker_set_key" : "_ZNSt3__123__has_iterator_categoryINS_15iterator_traitsIPPvEEE5valueE",
   "name" : "std::__1::__has_iterator_category<std::__1::iterator_traits<void **>>::value",
   "referenced_type" : "_ZTIKb",
   "source_file" : "external/libcxx/include/iterator"
  },
  {
   "linker_set_key" : "_ZNSt3__123__has_iterator_categoryINS_15iterator_traitsIPcEEE5valueE",
   "name" : "std::__1::__has_iterator_category<std::__1::iterator_traits<char *>>::value",
   "referenced_type" : "_ZTIKb",
   "source_file" : "external/libcxx/include/iterator"
  },
  {
   "linker_set_key" : "_ZNSt3__123__has_iterator_typedefs5valueE",
   "name" : "std::__1::__has_iterator_typedefs::value",
   "referenced_type" : "_ZTIKb",
   "source_file" : "external/libcxx/include/iterator"
  },
  {
   "linker_set_key" : "_ZNSt3__123__libcpp_debug_functionE",
   "name" : "std::__1::__libcpp_debug_function",
   "referenced_type" : "_ZTIPFvRKNSt3__119__libcpp_debug_infoEE",
   "source_file" : "external/libcxx/include/__debug"
  },
  {
   "access" : "protected",
   "linker_set_key" : "_ZNSt3__123__libcpp_numeric_limits10has_denormE",
   "name" : "std::__1::__libcpp_numeric_limits::has_denorm",
   "referenced_type" : "_ZTIKNSt3__118float_denorm_styleE",
   "source_file" : "external/libcxx/include/limits"
  },
  {
   "access" : "protected",
   "linker_set_key" : "_ZNSt3__123__libcpp_numeric_limits10is_boundedE",
   "name" : "std::__1::__libcpp_numeric_limits::is_bounded",
   "referenced_type" : "_ZTIKb",
   "source_file" : "external/libcxx/include/limits"
  },
  {
   "access" : "protected",
   "linker_set_key" : "_ZNSt3__123__libcpp_numeric_limits10is_integerE",
   "name" : "std::__1::__libcpp_numeric_limits::is_integer",
   "referenced_type" : "_ZTIKb",
   "source_file" : "external/libcxx/include/limits"
  },
  {
   "access" : "protected",
   "linker_set_key" : "_ZNSt3__123__libcpp_numeric_limits11round_styleE",
   "name" : "std::__1::__libcpp_numeric_limits::round_style",
   "referenced_type" : "_ZTIKNSt3__117float_round_styleE",
   "source_file" : "external/libcxx/include/limits"
  },
  {
   "access" : "protected",
   "linker_set_key" : "_ZNSt3__123__libcpp_numeric_limits12has_infinityE",
   "name" : "std::__1::__libcpp_numeric_limits::has_infinity",
   "referenced_type" : "_ZTIKb",
   "source_file" : "external/libcxx/include/limits"
  },
  {
   "access" : "protected",
   "linker_set_key" : "_ZNSt3__123__libcpp_numeric_limits12max_digits10E",
   "name" : "std::__1::__libcpp_numeric_limits::max_digits10",
   "referenced_type" : "_ZTIKi",
   "source_file" : "external/libcxx/include/limits"
  },
  {
   "access" : "protected",
   "linker_set_key" : "_ZNSt3__123__libcpp_numeric_limits12max_exponentE",
   "name" : "std::__1::__libcpp_numeric_limits::max_exponent",
   "referenced_type" : "_ZTIKi",
   "source_file" : "external/libcxx/include/limits"
  },
  {
   "access" : "protected",
   "linker_set_key" : "_ZNSt3__123__libcpp_numeric_limits12min_exponentE",
   "name" : "std::__1::__libcpp_numeric_limits::min_exponent",
   "referenced_type" : "_ZTIKi",
   "source_file" : "external/libcxx/include/limits"
  },
  {
   "access" : "protected",
   "linker_set_key" : "_ZNSt3__123__libcpp_numeric_limits13has_quiet_NaNE",
   "name" : "std::__1::__libcpp_numeric_limits::has_quiet_NaN",
   "referenced_type" : "_ZTIKb",
   "source_file" : "external/libcxx/include/limits"
  },
  {
   "access" : "protected",
   "linker_set_key" : "_ZNSt3__123__libcpp_numeric_limits14is_specializedE",
   "name" : "std::__1::__libcpp_numeric_limits::is_specialized",
   "referenced_type" : "_ZTIKb",
   "source_file" : "external/libcxx/include/limits"
  },
  {
   "access" : "protected",
   "linker_set_key" : "_ZNSt3__123__libcpp_numeric_limits14max_exponent10E",
   "name" : "std::__1::__libcpp_numeric_limits::max_exponent10",
   "referenced_type" : "_ZTIKi",
   "source_file" : "external/libcxx/include/limits"
  },
  {
   "access" : "protected",
   "linker_set_key" : "_ZNSt3__123__libcpp_numeric_limits14min_exponent10E",
   "name" : "std::__1::__libcpp_numeric_limits::min_exponent10",
   "referenced_type" : "_ZTIKi",
   "source_file" : "external/libcxx/include/limits"
  },
  {
   "access" : "protected",
   "linker_set_key" : "_ZNSt3__123__libcpp_numeric_limits15has_denorm_lossE",
   "name" : "std::__1::__libcpp_numeric_limits::has_denorm_loss",
   "referenced_type" : "_ZTIKb",
   "source_file" : "external/libcxx/include/limits"
  },
  {
   "access" : "protected",
   "linker_set_key" : "_ZNSt3__123__libcpp_numeric_limits15tinyness_beforeE",
   "name" : "std::__1::__libcpp_numeric_limits::tinyness_before",
   "referenced_type" : "_ZTIKb",
   "source_file" : "external/libcxx/include/limits"
  },
  {
   "access" : "protected",
   "linker_set_key" : "_ZNSt3__123__libcpp_numeric_limits17has_signaling_NaNE",
   "name" : "std::__1::__libcpp_numeric_limits::has_signaling_NaN",
   "referenced_type" : "_ZTIKb",
   "source_file" : "external/libcxx/include/limits"
  },
  {
   "access" : "protected",
   "linker_set_key" : "_ZNSt3__123__libcpp_numeric_limits5radixE",
   "name" : "std::__1::__libcpp_numeric_limits::radix",
   "referenced_type" : "_ZTIKi",
   "source_file" : "external/libcxx/include/limits"
  },
  {
   "access" : "protected",
   "linker_set_key" : "_ZNSt3__123__libcpp_numeric_limits5trapsE",
   "name" : "std::__1::__libcpp_numeric_limits::traps",
   "referenced_type" : "_ZTIKb",
   "source_file" : "external/libcxx/include/limits"
  },
  {
   "access" : "protected",
   "linker_set_key" : "_ZNSt3__123__libcpp_numeric_limits6digitsE",
   "name" : "std::__1::__libcpp_numeric_limits::digits",
   "referenced_type" : "_ZTIKi",
   "source_file" : "external/libcxx/include/limits"
  },
  {
   "access" : "protected",
   "linker_set_key" : "_ZNSt3__123__libcpp_numeric_limits8digits10E",
   "name" : "std::__1::__libcpp_numeric_limits::digits10",
   "referenced_type" : "_ZTIKi",
   "source_file" : "external/libcxx/include/limits"
  },
  {
   "access" : "protected",
   "linker_set_key" : "_ZNSt3__123__libcpp_numeric_limits8is_exactE",
   "name" : "std::__1::__libcpp_numeric_limits::is_exact",
   "referenced_type" : "_ZTIKb",
   "source_file" : "external/libcxx/include/limits"
  },
  {
   "access" : "protected",
   "linker_set_key" : "_ZNSt3__123__libcpp_numeric_limits9is_iec559E",
   "name" : "std::__1::__libcpp_numeric_limits::is_iec559",
   "referenced_type" : "_ZTIKb",
   "source_file" : "external/libcxx/include/limits"
  },
  {
   "access" : "protected",
   "linker_set_key" : "_ZNSt3__123__libcpp_numeric_limits9is_moduloE",
   "name" : "std::__1::__libcpp_numeric_limits::is_modulo",
   "referenced_type" : "_ZTIKb",
   "source_file" : "external/libcxx/include/limits"
  },
  {
   "access" : "protected",
   "linker_set_key" : "_ZNSt3__123__libcpp_numeric_limits9is_signedE",
   "name" : "std::__1::__libcpp_numeric_limits::is_signed",
   "referenced_type" : "_ZTIKb",
   "source_file" : "external/libcxx/include/limits"
  },
  {
   "access" : "protected",
   "linker_set_key" : "_ZNSt3__123__libcpp_numeric_limitsIT_Lb1EE10has_denormE",
   "name" : "std::__1::__libcpp_numeric_limits<type-parameter-0-0, true>::has_denorm",
   "referenced_type" : "_ZTIKNSt3__118float_denorm_styleE",
   "source_file" : "external/libcxx/include/limits"
  },
  {
   "access" : "protected",
   "linker_set_key" : "_ZNSt3__123__libcpp_numeric_limitsIT_Lb1EE10is_boundedE",
   "name" : "std::__1::__libcpp_numeric_limits<type-parameter-0-0, true>::is_bounded",
   "referenced_type" : "_ZTIKb",
   "source_file" : "external/libcxx/include/limits"
  },
  {
   "access" : "protected",
   "linker_set_key" : "_ZNSt3__123__libcpp_numeric_limitsIT_Lb1EE10is_integerE",
   "name" : "std::__1::__libcpp_numeric_limits<type-parameter-0-0, true>::is_integer",
   "referenced_type" : "_ZTIKb",
   "source_file" : "external/libcxx/include/limits"
  },
  {
   "access" : "protected",
   "linker_set_key" : "_ZNSt3__123__libcpp_numeric_limitsIT_Lb1EE11round_styleE",
   "name" : "std::__1::__libcpp_numeric_limits<type-parameter-0-0, true>::round_style",
   "referenced_type" : "_ZTIKNSt3__117float_round_styleE",
   "source_file" : "external/libcxx/include/limits"
  },
  {
   "access" : "protected",
   "linker_set_key" : "_ZNSt3__123__libcpp_numeric_limitsIT_Lb1EE12has_infinityE",
   "name" : "std::__1::__libcpp_numeric_limits<type-parameter-0-0, true>::has_infinity",
   "referenced_type" : "_ZTIKb",
   "source_file" : "external/libcxx/include/limits"
  },
  {
   "access" : "protected",
   "linker_set_key" : "_ZNSt3__123__libcpp_numeric_limitsIT_Lb1EE12max_digits10E",
   "name" : "std::__1::__libcpp_numeric_limits<type-parameter-0-0, true>::max_digits10",
   "referenced_type" : "_ZTIKi",
   "source_file" : "external/libcxx/include/limits"
  },
  {
   "access" : "protected",
   "linker_set_key" : "_ZNSt3__123__libcpp_numeric_limitsIT_Lb1EE12max_exponentE",
   "name" : "std::__1::__libcpp_numeric_limits<type-parameter-0-0, true>::max_exponent",
   "referenced_type" : "_ZTIKi",
   "source_file" : "external/libcxx/include/limits"
  },
  {
   "access" : "protected",
   "linker_set_key" : "_ZNSt3__123__libcpp_numeric_limitsIT_Lb1EE12min_exponentE",
   "name" : "std::__1::__libcpp_numeric_limits<type-parameter-0-0, true>::min_exponent",
   "referenced_type" : "_ZTIKi",
   "source_file" : "external/libcxx/include/limits"
  },
  {
   "access" : "protected",
   "linker_set_key" : "_ZNSt3__123__libcpp_numeric_limitsIT_Lb1EE13has_quiet_NaNE",
   "name" : "std::__1::__libcpp_numeric_limits<type-parameter-0-0, true>::has_quiet_NaN",
   "referenced_type" : "_ZTIKb",
   "source_file" : "external/libcxx/include/limits"
  },
  {
   "access" : "protected",
   "linker_set_key" : "_ZNSt3__123__libcpp_numeric_limitsIT_Lb1EE14is_specializedE",
   "name" : "std::__1::__libcpp_numeric_limits<type-parameter-0-0, true>::is_specialized",
   "referenced_type" : "_ZTIKb",
   "source_file" : "external/libcxx/include/limits"
  },
  {
   "access" : "protected",
   "linker_set_key" : "_ZNSt3__123__libcpp_numeric_limitsIT_Lb1EE14max_exponent10E",
   "name" : "std::__1::__libcpp_numeric_limits<type-parameter-0-0, true>::max_exponent10",
   "referenced_type" : "_ZTIKi",
   "source_file" : "external/libcxx/include/limits"
  },
  {
   "access" : "protected",
   "linker_set_key" : "_ZNSt3__123__libcpp_numeric_limitsIT_Lb1EE14min_exponent10E",
   "name" : "std::__1::__libcpp_numeric_limits<type-parameter-0-0, true>::min_exponent10",
   "referenced_type" : "_ZTIKi",
   "source_file" : "external/libcxx/include/limits"
  },
  {
   "access" : "protected",
   "linker_set_key" : "_ZNSt3__123__libcpp_numeric_limitsIT_Lb1EE15has_denorm_lossE",
   "name" : "std::__1::__libcpp_numeric_limits<type-parameter-0-0, true>::has_denorm_loss",
   "referenced_type" : "_ZTIKb",
   "source_file" : "external/libcxx/include/limits"
  },
  {
   "access" : "protected",
   "linker_set_key" : "_ZNSt3__123__libcpp_numeric_limitsIT_Lb1EE15tinyness_beforeE",
   "name" : "std::__1::__libcpp_numeric_limits<type-parameter-0-0, true>::tinyness_before",
   "referenced_type" : "_ZTIKb",
   "source_file" : "external/libcxx/include/limits"
  },
  {
   "access" : "protected",
   "linker_set_key" : "_ZNSt3__123__libcpp_numeric_limitsIT_Lb1EE17has_signaling_NaNE",
   "name" : "std::__1::__libcpp_numeric_limits<type-parameter-0-0, true>::has_signaling_NaN",
   "referenced_type" : "_ZTIKb",
   "source_file" : "external/libcxx/include/limits"
  },
  {
   "access" : "protected",
   "linker_set_key" : "_ZNSt3__123__libcpp_numeric_limitsIT_Lb1EE5radixE",
   "name" : "std::__1::__libcpp_numeric_limits<type-parameter-0-0, true>::radix",
   "referenced_type" : "_ZTIKi",
   "source_file" : "external/libcxx/include/limits"
  },
  {
   "access" : "protected",
   "linker_set_key" : "_ZNSt3__123__libcpp_numeric_limitsIT_Lb1EE5trapsE",
   "name" : "std::__1::__libcpp_numeric_limits<type-parameter-0-0, true>::traps",
   "referenced_type" : "_ZTIKb",
   "source_file" : "external/libcxx/include/limits"
  },
  {
   "access" : "protected",
   "linker_set_key" : "_ZNSt3__123__libcpp_numeric_limitsIT_Lb1EE6digitsE",
   "name" : "std::__1::__libcpp_numeric_limits<type-parameter-0-0, true>::digits",
   "referenced_type" : "_ZTIKi",
   "source_file" : "external/libcxx/include/limits"
  },
  {
   "access" : "protected",
   "linker_set_key" : "_ZNSt3__123__libcpp_numeric_limitsIT_Lb1EE8digits10E",
   "name" : "std::__1::__libcpp_numeric_limits<type-parameter-0-0, true>::digits10",
   "referenced_type" : "_ZTIKi",
   "source_file" : "external/libcxx/include/limits"
  },
  {
   "access" : "protected",
   "linker_set_key" : "_ZNSt3__123__libcpp_numeric_limitsIT_Lb1EE8is_exactE",
   "name" : "std::__1::__libcpp_numeric_limits<type-parameter-0-0, true>::is_exact",
   "referenced_type" : "_ZTIKb",
   "source_file" : "external/libcxx/include/limits"
  },
  {
   "access" : "protected",
   "linker_set_key" : "_ZNSt3__123__libcpp_numeric_limitsIT_Lb1EE9is_iec559E",
   "name" : "std::__1::__libcpp_numeric_limits<type-parameter-0-0, true>::is_iec559",
   "referenced_type" : "_ZTIKb",
   "source_file" : "external/libcxx/include/limits"
  },
  {
   "access" : "protected",
   "linker_set_key" : "_ZNSt3__123__libcpp_numeric_limitsIT_Lb1EE9is_moduloE",
   "name" : "std::__1::__libcpp_numeric_limits<type-parameter-0-0, true>::is_modulo",
   "referenced_type" : "_ZTIKb",
   "source_file" : "external/libcxx/include/limits"
  },
  {
   "access" : "protected",
   "linker_set_key" : "_ZNSt3__123__libcpp_numeric_limitsIT_Lb1EE9is_signedE",
   "name" : "std::__1::__libcpp_numeric_limits<type-parameter-0-0, true>::is_signed",
   "referenced_type" : "_ZTIKb",
   "source_file" : "external/libcxx/include/limits"
  },
  {
   "access" : "protected",
   "linker_set_key" : "_ZNSt3__123__libcpp_numeric_limitsIbLb1EE10has_denormE",
   "name" : "std::__1::__libcpp_numeric_limits<bool, true>::has_denorm",
   "referenced_type" : "_ZTIKNSt3__118float_denorm_styleE",
   "source_file" : "external/libcxx/include/limits"
  },
  {
   "access" : "protected",
   "linker_set_key" : "_ZNSt3__123__libcpp_numeric_limitsIbLb1EE10is_boundedE",
   "name" : "std::__1::__libcpp_numeric_limits<bool, true>::is_bounded",
   "referenced_type" : "_ZTIKb",
   "source_file" : "external/libcxx/include/limits"
  },
  {
   "access" : "protected",
   "linker_set_key" : "_ZNSt3__123__libcpp_numeric_limitsIbLb1EE10is_integerE",
   "name" : "std::__1::__libcpp_numeric_limits<bool, true>::is_integer",
   "referenced_type" : "_ZTIKb",
   "source_file" : "external/libcxx/include/limits"
  },
  {
   "access" : "protected",
   "linker_set_key" : "_ZNSt3__123__libcpp_numeric_limitsIbLb1EE11round_styleE",
   "name" : "std::__1::__libcpp_numeric_limits<bool, true>::round_style",
   "referenced_type" : "_ZTIKNSt3__117float_round_styleE",
   "source_file" : "external/libcxx/include/limits"
  },
  {
   "access" : "protected",
   "linker_set_key" : "_ZNSt3__123__libcpp_numeric_limitsIbLb1EE12has_infinityE",
   "name" : "std::__1::__libcpp_numeric_limits<bool, true>::has_infinity",
   "referenced_type" : "_ZTIKb",
   "source_file" : "external/libcxx/include/limits"
  },
  {
   "access" : "protected",
   "linker_set_key" : "_ZNSt3__123__libcpp_numeric_limitsIbLb1EE12max_digits10E",
   "name" : "std::__1::__libcpp_numeric_limits<bool, true>::max_digits10",
   "referenced_type" : "_ZTIKi",
   "source_file" : "external/libcxx/include/limits"
  },
  {
   "access" : "protected",
   "linker_set_key" : "_ZNSt3__123__libcpp_numeric_limitsIbLb1EE12max_exponentE",
   "name" : "std::__1::__libcpp_numeric_limits<bool, true>::max_exponent",
   "referenced_type" : "_ZTIKi",
   "source_file" : "external/libcxx/include/limits"
  },
  {
   "access" : "protected",
   "linker_set_key" : "_ZNSt3__123__libcpp_numeric_limitsIbLb1EE12min_exponentE",
   "name" : "std::__1::__libcpp_numeric_limits<bool, true>::min_exponent",
   "referenced_type" : "_ZTIKi",
   "source_file" : "external/libcxx/include/limits"
  },
  {
   "access" : "protected",
   "linker_set_key" : "_ZNSt3__123__libcpp_numeric_limitsIbLb1EE13has_quiet_NaNE",
   "name" : "std::__1::__libcpp_numeric_limits<bool, true>::has_quiet_NaN",
   "referenced_type" : "_ZTIKb",
   "source_file" : "external/libcxx/include/limits"
  },
  {
   "access" : "protected",
   "linker_set_key" : "_ZNSt3__123__libcpp_numeric_limitsIbLb1EE14is_specializedE",
   "name" : "std::__1::__libcpp_numeric_limits<bool, true>::is_specialized",
   "referenced_type" : "_ZTIKb",
   "source_file" : "external/libcxx/include/limits"
  },
  {
   "access" : "protected",
   "linker_set_key" : "_ZNSt3__123__libcpp_numeric_limitsIbLb1EE14max_exponent10E",
   "name" : "std::__1::__libcpp_numeric_limits<bool, true>::max_exponent10",
   "referenced_type" : "_ZTIKi",
   "source_file" : "external/libcxx/include/limits"
  },
  {
   "access" : "protected",
   "linker_set_key" : "_ZNSt3__123__libcpp_numeric_limitsIbLb1EE14min_exponent10E",
   "name" : "std::__1::__libcpp_numeric_limits<bool, true>::min_exponent10",
   "referenced_type" : "_ZTIKi",
   "source_file" : "external/libcxx/include/limits"
  },
  {
   "access" : "protected",
   "linker_set_key" : "_ZNSt3__123__libcpp_numeric_limitsIbLb1EE15has_denorm_lossE",
   "name" : "std::__1::__libcpp_numeric_limits<bool, true>::has_denorm_loss",
   "referenced_type" : "_ZTIKb",
   "source_file" : "external/libcxx/include/limits"
  },
  {
   "access" : "protected",
   "linker_set_key" : "_ZNSt3__123__libcpp_numeric_limitsIbLb1EE15tinyness_beforeE",
   "name" : "std::__1::__libcpp_numeric_limits<bool, true>::tinyness_before",
   "referenced_type" : "_ZTIKb",
   "source_file" : "external/libcxx/include/limits"
  },
  {
   "access" : "protected",
   "linker_set_key" : "_ZNSt3__123__libcpp_numeric_limitsIbLb1EE17has_signaling_NaNE",
   "name" : "std::__1::__libcpp_numeric_limits<bool, true>::has_signaling_NaN",
   "referenced_type" : "_ZTIKb",
   "source_file" : "external/libcxx/include/limits"
  },
  {
   "access" : "protected",
   "linker_set_key" : "_ZNSt3__123__libcpp_numeric_limitsIbLb1EE5__maxE",
   "name" : "std::__1::__libcpp_numeric_limits<bool, true>::__max",
   "referenced_type" : "_ZTIKb",
   "source_file" : "external/libcxx/include/limits"
  },
  {
   "access" : "protected",
   "linker_set_key" : "_ZNSt3__123__libcpp_numeric_limitsIbLb1EE5__minE",
   "name" : "std::__1::__libcpp_numeric_limits<bool, true>::__min",
   "referenced_type" : "_ZTIKb",
   "source_file" : "external/libcxx/include/limits"
  },
  {
   "access" : "protected",
   "linker_set_key" : "_ZNSt3__123__libcpp_numeric_limitsIbLb1EE5radixE",
   "name" : "std::__1::__libcpp_numeric_limits<bool, true>::radix",
   "referenced_type" : "_ZTIKi",
   "source_file" : "external/libcxx/include/limits"
  },
  {
   "access" : "protected",
   "linker_set_key" : "_ZNSt3__123__libcpp_numeric_limitsIbLb1EE5trapsE",
   "name" : "std::__1::__libcpp_numeric_limits<bool, true>::traps",
   "referenced_type" : "_ZTIKb",
   "source_file" : "external/libcxx/include/limits"
  },
  {
   "access" : "protected",
   "linker_set_key" : "_ZNSt3__123__libcpp_numeric_limitsIbLb1EE6digitsE",
   "name" : "std::__1::__libcpp_numeric_limits<bool, true>::digits",
   "referenced_type" : "_ZTIKi",
   "source_file" : "external/libcxx/include/limits"
  },
  {
   "access" : "protected",
   "linker_set_key" : "_ZNSt3__123__libcpp_numeric_limitsIbLb1EE8digits10E",
   "name" : "std::__1::__libcpp_numeric_limits<bool, true>::digits10",
   "referenced_type" : "_ZTIKi",
   "source_file" : "external/libcxx/include/limits"
  },
  {
   "access" : "protected",
   "linker_set_key" : "_ZNSt3__123__libcpp_numeric_limitsIbLb1EE8is_exactE",
   "name" : "std::__1::__libcpp_numeric_limits<bool, true>::is_exact",
   "referenced_type" : "_ZTIKb",
   "source_file" : "external/libcxx/include/limits"
  },
  {
   "access" : "protected",
   "linker_set_key" : "_ZNSt3__123__libcpp_numeric_limitsIbLb1EE9is_iec559E",
   "name" : "std::__1::__libcpp_numeric_limits<bool, true>::is_iec559",
   "referenced_type" : "_ZTIKb",
   "source_file" : "external/libcxx/include/limits"
  },
  {
   "access" : "protected",
   "linker_set_key" : "_ZNSt3__123__libcpp_numeric_limitsIbLb1EE9is_moduloE",
   "name" : "std::__1::__libcpp_numeric_limits<bool, true>::is_modulo",
   "referenced_type" : "_ZTIKb",
   "source_file" : "external/libcxx/include/limits"
  },
  {
   "access" : "protected",
   "linker_set_key" : "_ZNSt3__123__libcpp_numeric_limitsIbLb1EE9is_signedE",
   "name" : "std::__1::__libcpp_numeric_limits<bool, true>::is_signed",
   "referenced_type" : "_ZTIKb",
   "source_file" : "external/libcxx/include/limits"
  },
  {
   "access" : "protected",
   "linker_set_key" : "_ZNSt3__123__libcpp_numeric_limitsIdLb1EE10has_denormE",
   "name" : "std::__1::__libcpp_numeric_limits<double, true>::has_denorm",
   "referenced_type" : "_ZTIKNSt3__118float_denorm_styleE",
   "source_file" : "external/libcxx/include/limits"
  },
  {
   "access" : "protected",
   "linker_set_key" : "_ZNSt3__123__libcpp_numeric_limitsIdLb1EE10is_boundedE",
   "name" : "std::__1::__libcpp_numeric_limits<double, true>::is_bounded",
   "referenced_type" : "_ZTIKb",
   "source_file" : "external/libcxx/include/limits"
  },
  {
   "access" : "protected",
   "linker_set_key" : "_ZNSt3__123__libcpp_numeric_limitsIdLb1EE10is_integerE",
   "name" : "std::__1::__libcpp_numeric_limits<double, true>::is_integer",
   "referenced_type" : "_ZTIKb",
   "source_file" : "external/libcxx/include/limits"
  },
  {
   "access" : "protected",
   "linker_set_key" : "_ZNSt3__123__libcpp_numeric_limitsIdLb1EE11round_styleE",
   "name" : "std::__1::__libcpp_numeric_limits<double, true>::round_style",
   "referenced_type" : "_ZTIKNSt3__117float_round_styleE",
   "source_file" : "external/libcxx/include/limits"
  },
  {
   "access" : "protected",
   "linker_set_key" : "_ZNSt3__123__libcpp_numeric_limitsIdLb1EE12has_infinityE",
   "name" : "std::__1::__libcpp_numeric_limits<double, true>::has_infinity",
   "referenced_type" : "_ZTIKb",
   "source_file" : "external/libcxx/include/limits"
  },
  {
   "access" : "protected",
   "linker_set_key" : "_ZNSt3__123__libcpp_numeric_limitsIdLb1EE12max_digits10E",
   "name" : "std::__1::__libcpp_numeric_limits<double, true>::max_digits10",
   "referenced_type" : "_ZTIKi",
   "source_file" : "external/libcxx/include/limits"
  },
  {
   "access" : "protected",
   "linker_set_key" : "_ZNSt3__123__libcpp_numeric_limitsIdLb1EE12max_exponentE",
   "name" : "std::__1::__libcpp_numeric_limits<double, true>::max_exponent",
   "referenced_type" : "_ZTIKi",
   "source_file" : "external/libcxx/include/limits"
  },
  {
   "access" : "protected",
   "linker_set_key" : "_ZNSt3__123__libcpp_numeric_limitsIdLb1EE12min_exponentE",
   "name" : "std::__1::__libcpp_numeric_limits<double, true>::min_exponent",
   "referenced_type" : "_ZTIKi",
   "source_file" : "external/libcxx/include/limits"
  },
  {
   "access" : "protected",
   "linker_set_key" : "_ZNSt3__123__libcpp_numeric_limitsIdLb1EE13has_quiet_NaNE",
   "name" : "std::__1::__libcpp_numeric_limits<double, true>::has_quiet_NaN",
   "referenced_type" : "_ZTIKb",
   "source_file" : "external/libcxx/include/limits"
  },
  {
   "access" : "protected",
   "linker_set_key" : "_ZNSt3__123__libcpp_numeric_limitsIdLb1EE14is_specializedE",
   "name" : "std::__1::__libcpp_numeric_limits<double, true>::is_specialized",
   "referenced_type" : "_ZTIKb",
   "source_file" : "external/libcxx/include/limits"
  },
  {
   "access" : "protected",
   "linker_set_key" : "_ZNSt3__123__libcpp_numeric_limitsIdLb1EE14max_exponent10E",
   "name" : "std::__1::__libcpp_numeric_limits<double, true>::max_exponent10",
   "referenced_type" : "_ZTIKi",
   "source_file" : "external/libcxx/include/limits"
  },
  {
   "access" : "protected",
   "linker_set_key" : "_ZNSt3__123__libcpp_numeric_limitsIdLb1EE14min_exponent10E",
   "name" : "std::__1::__libcpp_numeric_limits<double, true>::min_exponent10",
   "referenced_type" : "_ZTIKi",
   "source_file" : "external/libcxx/include/limits"
  },
  {
   "access" : "protected",
   "linker_set_key" : "_ZNSt3__123__libcpp_numeric_limitsIdLb1EE15has_denorm_lossE",
   "name" : "std::__1::__libcpp_numeric_limits<double, true>::has_denorm_loss",
   "referenced_type" : "_ZTIKb",
   "source_file" : "external/libcxx/include/limits"
  },
  {
   "access" : "protected",
   "linker_set_key" : "_ZNSt3__123__libcpp_numeric_limitsIdLb1EE15tinyness_beforeE",
   "name" : "std::__1::__libcpp_numeric_limits<double, true>::tinyness_before",
   "referenced_type" : "_ZTIKb",
   "source_file" : "external/libcxx/include/limits"
  },
  {
   "access" : "protected",
   "linker_set_key" : "_ZNSt3__123__libcpp_numeric_limitsIdLb1EE17has_signaling_NaNE",
   "name" : "std::__1::__libcpp_numeric_limits<double, true>::has_signaling_NaN",
   "referenced_type" : "_ZTIKb",
   "source_file" : "external/libcxx/include/limits"
  },
  {
   "access" : "protected",
   "linker_set_key" : "_ZNSt3__123__libcpp_numeric_limitsIdLb1EE5radixE",
   "name" : "std::__1::__libcpp_numeric_limits<double, true>::radix",
   "referenced_type" : "_ZTIKi",
   "source_file" : "external/libcxx/include/limits"
  },
  {
   "access" : "protected",
   "linker_set_key" : "_ZNSt3__123__libcpp_numeric_limitsIdLb1EE5trapsE",
   "name" : "std::__1::__libcpp_numeric_limits<double, true>::traps",
   "referenced_type" : "_ZTIKb",
   "source_file" : "external/libcxx/include/limits"
  },
  {
   "access" : "protected",
   "linker_set_key" : "_ZNSt3__123__libcpp_numeric_limitsIdLb1EE6digitsE",
   "name" : "std::__1::__libcpp_numeric_limits<double, true>::digits",
   "referenced_type" : "_ZTIKi",
   "source_file" : "external/libcxx/include/limits"
  },
  {
   "access" : "protected",
   "linker_set_key" : "_ZNSt3__123__libcpp_numeric_limitsIdLb1EE8digits10E",
   "name" : "std::__1::__libcpp_numeric_limits<double, true>::digits10",
   "referenced_type" : "_ZTIKi",
   "source_file" : "external/libcxx/include/limits"
  },
  {
   "access" : "protected",
   "linker_set_key" : "_ZNSt3__123__libcpp_numeric_limitsIdLb1EE8is_exactE",
   "name" : "std::__1::__libcpp_numeric_limits<double, true>::is_exact",
   "referenced_type" : "_ZTIKb",
   "source_file" : "external/libcxx/include/limits"
  },
  {
   "access" : "protected",
   "linker_set_key" : "_ZNSt3__123__libcpp_numeric_limitsIdLb1EE9is_iec559E",
   "name" : "std::__1::__libcpp_numeric_limits<double, true>::is_iec559",
   "referenced_type" : "_ZTIKb",
   "source_file" : "external/libcxx/include/limits"
  },
  {
   "access" : "protected",
   "linker_set_key" : "_ZNSt3__123__libcpp_numeric_limitsIdLb1EE9is_moduloE",
   "name" : "std::__1::__libcpp_numeric_limits<double, true>::is_modulo",
   "referenced_type" : "_ZTIKb",
   "source_file" : "external/libcxx/include/limits"
  },
  {
   "access" : "protected",
   "linker_set_key" : "_ZNSt3__123__libcpp_numeric_limitsIdLb1EE9is_signedE",
   "name" : "std::__1::__libcpp_numeric_limits<double, true>::is_signed",
   "referenced_type" : "_ZTIKb",
   "source_file" : "external/libcxx/include/limits"
  },
  {
   "access" : "protected",
   "linker_set_key" : "_ZNSt3__123__libcpp_numeric_limitsIeLb1EE10has_denormE",
   "name" : "std::__1::__libcpp_numeric_limits<long double, true>::has_denorm",
   "referenced_type" : "_ZTIKNSt3__118float_denorm_styleE",
   "source_file" : "external/libcxx/include/limits"
  },
  {
   "access" : "protected",
   "linker_set_key" : "_ZNSt3__123__libcpp_numeric_limitsIeLb1EE10is_boundedE",
   "name" : "std::__1::__libcpp_numeric_limits<long double, true>::is_bounded",
   "referenced_type" : "_ZTIKb",
   "source_file" : "external/libcxx/include/limits"
  },
  {
   "access" : "protected",
   "linker_set_key" : "_ZNSt3__123__libcpp_numeric_limitsIeLb1EE10is_integerE",
   "name" : "std::__1::__libcpp_numeric_limits<long double, true>::is_integer",
   "referenced_type" : "_ZTIKb",
   "source_file" : "external/libcxx/include/limits"
  },
  {
   "access" : "protected",
   "linker_set_key" : "_ZNSt3__123__libcpp_numeric_limitsIeLb1EE11round_styleE",
   "name" : "std::__1::__libcpp_numeric_limits<long double, true>::round_style",
   "referenced_type" : "_ZTIKNSt3__117float_round_styleE",
   "source_file" : "external/libcxx/include/limits"
  },
  {
   "access" : "protected",
   "linker_set_key" : "_ZNSt3__123__libcpp_numeric_limitsIeLb1EE12has_infinityE",
   "name" : "std::__1::__libcpp_numeric_limits<long double, true>::has_infinity",
   "referenced_type" : "_ZTIKb",
   "source_file" : "external/libcxx/include/limits"
  },
  {
   "access" : "protected",
   "linker_set_key" : "_ZNSt3__123__libcpp_numeric_limitsIeLb1EE12max_digits10E",
   "name" : "std::__1::__libcpp_numeric_limits<long double, true>::max_digits10",
   "referenced_type" : "_ZTIKi",
   "source_file" : "external/libcxx/include/limits"
  },
  {
   "access" : "protected",
   "linker_set_key" : "_ZNSt3__123__libcpp_numeric_limitsIeLb1EE12max_exponentE",
   "name" : "std::__1::__libcpp_numeric_limits<long double, true>::max_exponent",
   "referenced_type" : "_ZTIKi",
   "source_file" : "external/libcxx/include/limits"
  },
  {
   "access" : "protected",
   "linker_set_key" : "_ZNSt3__123__libcpp_numeric_limitsIeLb1EE12min_exponentE",
   "name" : "std::__1::__libcpp_numeric_limits<long double, true>::min_exponent",
   "referenced_type" : "_ZTIKi",
   "source_file" : "external/libcxx/include/limits"
  },
  {
   "access" : "protected",
   "linker_set_key" : "_ZNSt3__123__libcpp_numeric_limitsIeLb1EE13has_quiet_NaNE",
   "name" : "std::__1::__libcpp_numeric_limits<long double, true>::has_quiet_NaN",
   "referenced_type" : "_ZTIKb",
   "source_file" : "external/libcxx/include/limits"
  },
  {
   "access" : "protected",
   "linker_set_key" : "_ZNSt3__123__libcpp_numeric_limitsIeLb1EE14is_specializedE",
   "name" : "std::__1::__libcpp_numeric_limits<long double, true>::is_specialized",
   "referenced_type" : "_ZTIKb",
   "source_file" : "external/libcxx/include/limits"
  },
  {
   "access" : "protected",
   "linker_set_key" : "_ZNSt3__123__libcpp_numeric_limitsIeLb1EE14max_exponent10E",
   "name" : "std::__1::__libcpp_numeric_limits<long double, true>::max_exponent10",
   "referenced_type" : "_ZTIKi",
   "source_file" : "external/libcxx/include/limits"
  },
  {
   "access" : "protected",
   "linker_set_key" : "_ZNSt3__123__libcpp_numeric_limitsIeLb1EE14min_exponent10E",
   "name" : "std::__1::__libcpp_numeric_limits<long double, true>::min_exponent10",
   "referenced_type" : "_ZTIKi",
   "source_file" : "external/libcxx/include/limits"
  },
  {
   "access" : "protected",
   "linker_set_key" : "_ZNSt3__123__libcpp_numeric_limitsIeLb1EE15has_denorm_lossE",
   "name" : "std::__1::__libcpp_numeric_limits<long double, true>::has_denorm_loss",
   "referenced_type" : "_ZTIKb",
   "source_file" : "external/libcxx/include/limits"
  },
  {
   "access" : "protected",
   "linker_set_key" : "_ZNSt3__123__libcpp_numeric_limitsIeLb1EE15tinyness_beforeE",
   "name" : "std::__1::__libcpp_numeric_limits<long double, true>::tinyness_before",
   "referenced_type" : "_ZTIKb",
   "source_file" : "external/libcxx/include/limits"
  },
  {
   "access" : "protected",
   "linker_set_key" : "_ZNSt3__123__libcpp_numeric_limitsIeLb1EE17has_signaling_NaNE",
   "name" : "std::__1::__libcpp_numeric_limits<long double, true>::has_signaling_NaN",
   "referenced_type" : "_ZTIKb",
   "source_file" : "external/libcxx/include/limits"
  },
  {
   "access" : "protected",
   "linker_set_key" : "_ZNSt3__123__libcpp_numeric_limitsIeLb1EE5radixE",
   "name" : "std::__1::__libcpp_numeric_limits<long double, true>::radix",
   "referenced_type" : "_ZTIKi",
   "source_file" : "external/libcxx/include/limits"
  },
  {
   "access" : "protected",
   "linker_set_key" : "_ZNSt3__123__libcpp_numeric_limitsIeLb1EE5trapsE",
   "name" : "std::__1::__libcpp_numeric_limits<long double, true>::traps",
   "referenced_type" : "_ZTIKb",
   "source_file" : "external/libcxx/include/limits"
  },
  {
   "access" : "protected",
   "linker_set_key" : "_ZNSt3__123__libcpp_numeric_limitsIeLb1EE6digitsE",
   "name" : "std::__1::__libcpp_numeric_limits<long double, true>::digits",
   "referenced_type" : "_ZTIKi",
   "source_file" : "external/libcxx/include/limits"
  },
  {
   "access" : "protected",
   "linker_set_key" : "_ZNSt3__123__libcpp_numeric_limitsIeLb1EE8digits10E",
   "name" : "std::__1::__libcpp_numeric_limits<long double, true>::digits10",
   "referenced_type" : "_ZTIKi",
   "source_file" : "external/libcxx/include/limits"
  },
  {
   "access" : "protected",
   "linker_set_key" : "_ZNSt3__123__libcpp_numeric_limitsIeLb1EE8is_exactE",
   "name" : "std::__1::__libcpp_numeric_limits<long double, true>::is_exact",
   "referenced_type" : "_ZTIKb",
   "source_file" : "external/libcxx/include/limits"
  },
  {
   "access" : "protected",
   "linker_set_key" : "_ZNSt3__123__libcpp_numeric_limitsIeLb1EE9is_iec559E",
   "name" : "std::__1::__libcpp_numeric_limits<long double, true>::is_iec559",
   "referenced_type" : "_ZTIKb",
   "source_file" : "external/libcxx/include/limits"
  },
  {
   "access" : "protected",
   "linker_set_key" : "_ZNSt3__123__libcpp_numeric_limitsIeLb1EE9is_moduloE",
   "name" : "std::__1::__libcpp_numeric_limits<long double, true>::is_modulo",
   "referenced_type" : "_ZTIKb",
   "source_file" : "external/libcxx/include/limits"
  },
  {
   "access" : "protected",
   "linker_set_key" : "_ZNSt3__123__libcpp_numeric_limitsIeLb1EE9is_signedE",
   "name" : "std::__1::__libcpp_numeric_limits<long double, true>::is_signed",
   "referenced_type" : "_ZTIKb",
   "source_file" : "external/libcxx/include/limits"
  },
  {
   "access" : "protected",
   "linker_set_key" : "_ZNSt3__123__libcpp_numeric_limitsIfLb1EE10has_denormE",
   "name" : "std::__1::__libcpp_numeric_limits<float, true>::has_denorm",
   "referenced_type" : "_ZTIKNSt3__118float_denorm_styleE",
   "source_file" : "external/libcxx/include/limits"
  },
  {
   "access" : "protected",
   "linker_set_key" : "_ZNSt3__123__libcpp_numeric_limitsIfLb1EE10is_boundedE",
   "name" : "std::__1::__libcpp_numeric_limits<float, true>::is_bounded",
   "referenced_type" : "_ZTIKb",
   "source_file" : "external/libcxx/include/limits"
  },
  {
   "access" : "protected",
   "linker_set_key" : "_ZNSt3__123__libcpp_numeric_limitsIfLb1EE10is_integerE",
   "name" : "std::__1::__libcpp_numeric_limits<float, true>::is_integer",
   "referenced_type" : "_ZTIKb",
   "source_file" : "external/libcxx/include/limits"
  },
  {
   "access" : "protected",
   "linker_set_key" : "_ZNSt3__123__libcpp_numeric_limitsIfLb1EE11round_styleE",
   "name" : "std::__1::__libcpp_numeric_limits<float, true>::round_style",
   "referenced_type" : "_ZTIKNSt3__117float_round_styleE",
   "source_file" : "external/libcxx/include/limits"
  },
  {
   "access" : "protected",
   "linker_set_key" : "_ZNSt3__123__libcpp_numeric_limitsIfLb1EE12has_infinityE",
   "name" : "std::__1::__libcpp_numeric_limits<float, true>::has_infinity",
   "referenced_type" : "_ZTIKb",
   "source_file" : "external/libcxx/include/limits"
  },
  {
   "access" : "protected",
   "linker_set_key" : "_ZNSt3__123__libcpp_numeric_limitsIfLb1EE12max_digits10E",
   "name" : "std::__1::__libcpp_numeric_limits<float, true>::max_digits10",
   "referenced_type" : "_ZTIKi",
   "source_file" : "external/libcxx/include/limits"
  },
  {
   "access" : "protected",
   "linker_set_key" : "_ZNSt3__123__libcpp_numeric_limitsIfLb1EE12max_exponentE",
   "name" : "std::__1::__libcpp_numeric_limits<float, true>::max_exponent",
   "referenced_type" : "_ZTIKi",
   "source_file" : "external/libcxx/include/limits"
  },
  {
   "access" : "protected",
   "linker_set_key" : "_ZNSt3__123__libcpp_numeric_limitsIfLb1EE12min_exponentE",
   "name" : "std::__1::__libcpp_numeric_limits<float, true>::min_exponent",
   "referenced_type" : "_ZTIKi",
   "source_file" : "external/libcxx/include/limits"
  },
  {
   "access" : "protected",
   "linker_set_key" : "_ZNSt3__123__libcpp_numeric_limitsIfLb1EE13has_quiet_NaNE",
   "name" : "std::__1::__libcpp_numeric_limits<float, true>::has_quiet_NaN",
   "referenced_type" : "_ZTIKb",
   "source_file" : "external/libcxx/include/limits"
  },
  {
   "access" : "protected",
   "linker_set_key" : "_ZNSt3__123__libcpp_numeric_limitsIfLb1EE14is_specializedE",
   "name" : "std::__1::__libcpp_numeric_limits<float, true>::is_specialized",
   "referenced_type" : "_ZTIKb",
   "source_file" : "external/libcxx/include/limits"
  },
  {
   "access" : "protected",
   "linker_set_key" : "_ZNSt3__123__libcpp_numeric_limitsIfLb1EE14max_exponent10E",
   "name" : "std::__1::__libcpp_numeric_limits<float, true>::max_exponent10",
   "referenced_type" : "_ZTIKi",
   "source_file" : "external/libcxx/include/limits"
  },
  {
   "access" : "protected",
   "linker_set_key" : "_ZNSt3__123__libcpp_numeric_limitsIfLb1EE14min_exponent10E",
   "name" : "std::__1::__libcpp_numeric_limits<float, true>::min_exponent10",
   "referenced_type" : "_ZTIKi",
   "source_file" : "external/libcxx/include/limits"
  },
  {
   "access" : "protected",
   "linker_set_key" : "_ZNSt3__123__libcpp_numeric_limitsIfLb1EE15has_denorm_lossE",
   "name" : "std::__1::__libcpp_numeric_limits<float, true>::has_denorm_loss",
   "referenced_type" : "_ZTIKb",
   "source_file" : "external/libcxx/include/limits"
  },
  {
   "access" : "protected",
   "linker_set_key" : "_ZNSt3__123__libcpp_numeric_limitsIfLb1EE15tinyness_beforeE",
   "name" : "std::__1::__libcpp_numeric_limits<float, true>::tinyness_before",
   "referenced_type" : "_ZTIKb",
   "source_file" : "external/libcxx/include/limits"
  },
  {
   "access" : "protected",
   "linker_set_key" : "_ZNSt3__123__libcpp_numeric_limitsIfLb1EE17has_signaling_NaNE",
   "name" : "std::__1::__libcpp_numeric_limits<float, true>::has_signaling_NaN",
   "referenced_type" : "_ZTIKb",
   "source_file" : "external/libcxx/include/limits"
  },
  {
   "access" : "protected",
   "linker_set_key" : "_ZNSt3__123__libcpp_numeric_limitsIfLb1EE5radixE",
   "name" : "std::__1::__libcpp_numeric_limits<float, true>::radix",
   "referenced_type" : "_ZTIKi",
   "source_file" : "external/libcxx/include/limits"
  },
  {
   "access" : "protected",
   "linker_set_key" : "_ZNSt3__123__libcpp_numeric_limitsIfLb1EE5trapsE",
   "name" : "std::__1::__libcpp_numeric_limits<float, true>::traps",
   "referenced_type" : "_ZTIKb",
   "source_file" : "external/libcxx/include/limits"
  },
  {
   "access" : "protected",
   "linker_set_key" : "_ZNSt3__123__libcpp_numeric_limitsIfLb1EE6digitsE",
   "name" : "std::__1::__libcpp_numeric_limits<float, true>::digits",
   "referenced_type" : "_ZTIKi",
   "source_file" : "external/libcxx/include/limits"
  },
  {
   "access" : "protected",
   "linker_set_key" : "_ZNSt3__123__libcpp_numeric_limitsIfLb1EE8digits10E",
   "name" : "std::__1::__libcpp_numeric_limits<float, true>::digits10",
   "referenced_type" : "_ZTIKi",
   "source_file" : "external/libcxx/include/limits"
  },
  {
   "access" : "protected",
   "linker_set_key" : "_ZNSt3__123__libcpp_numeric_limitsIfLb1EE8is_exactE",
   "name" : "std::__1::__libcpp_numeric_limits<float, true>::is_exact",
   "referenced_type" : "_ZTIKb",
   "source_file" : "external/libcxx/include/limits"
  },
  {
   "access" : "protected",
   "linker_set_key" : "_ZNSt3__123__libcpp_numeric_limitsIfLb1EE9is_iec559E",
   "name" : "std::__1::__libcpp_numeric_limits<float, true>::is_iec559",
   "referenced_type" : "_ZTIKb",
   "source_file" : "external/libcxx/include/limits"
  },
  {
   "access" : "protected",
   "linker_set_key" : "_ZNSt3__123__libcpp_numeric_limitsIfLb1EE9is_moduloE",
   "name" : "std::__1::__libcpp_numeric_limits<float, true>::is_modulo",
   "referenced_type" : "_ZTIKb",
   "source_file" : "external/libcxx/include/limits"
  },
  {
   "access" : "protected",
   "linker_set_key" : "_ZNSt3__123__libcpp_numeric_limitsIfLb1EE9is_signedE",
   "name" : "std::__1::__libcpp_numeric_limits<float, true>::is_signed",
   "referenced_type" : "_ZTIKb",
   "source_file" : "external/libcxx/include/limits"
  },
  {
   "access" : "protected",
   "linker_set_key" : "_ZNSt3__123__libcpp_numeric_limitsIiLb1EE10has_denormE",
   "name" : "std::__1::__libcpp_numeric_limits<int, true>::has_denorm",
   "referenced_type" : "_ZTIKNSt3__118float_denorm_styleE",
   "source_file" : "external/libcxx/include/limits"
  },
  {
   "access" : "protected",
   "linker_set_key" : "_ZNSt3__123__libcpp_numeric_limitsIiLb1EE10is_boundedE",
   "name" : "std::__1::__libcpp_numeric_limits<int, true>::is_bounded",
   "referenced_type" : "_ZTIKb",
   "source_file" : "external/libcxx/include/limits"
  },
  {
   "access" : "protected",
   "linker_set_key" : "_ZNSt3__123__libcpp_numeric_limitsIiLb1EE10is_integerE",
   "name" : "std::__1::__libcpp_numeric_limits<int, true>::is_integer",
   "referenced_type" : "_ZTIKb",
   "source_file" : "external/libcxx/include/limits"
  },
  {
   "access" : "protected",
   "linker_set_key" : "_ZNSt3__123__libcpp_numeric_limitsIiLb1EE11round_styleE",
   "name" : "std::__1::__libcpp_numeric_limits<int, true>::round_style",
   "referenced_type" : "_ZTIKNSt3__117float_round_styleE",
   "source_file" : "external/libcxx/include/limits"
  },
  {
   "access" : "protected",
   "linker_set_key" : "_ZNSt3__123__libcpp_numeric_limitsIiLb1EE12has_infinityE",
   "name" : "std::__1::__libcpp_numeric_limits<int, true>::has_infinity",
   "referenced_type" : "_ZTIKb",
   "source_file" : "external/libcxx/include/limits"
  },
  {
   "access" : "protected",
   "linker_set_key" : "_ZNSt3__123__libcpp_numeric_limitsIiLb1EE12max_digits10E",
   "name" : "std::__1::__libcpp_numeric_limits<int, true>::max_digits10",
   "referenced_type" : "_ZTIKi",
   "source_file" : "external/libcxx/include/limits"
  },
  {
   "access" : "protected",
   "linker_set_key" : "_ZNSt3__123__libcpp_numeric_limitsIiLb1EE12max_exponentE",
   "name" : "std::__1::__libcpp_numeric_limits<int, true>::max_exponent",
   "referenced_type" : "_ZTIKi",
   "source_file" : "external/libcxx/include/limits"
  },
  {
   "access" : "protected",
   "linker_set_key" : "_ZNSt3__123__libcpp_numeric_limitsIiLb1EE12min_exponentE",
   "name" : "std::__1::__libcpp_numeric_limits<int, true>::min_exponent",
   "referenced_type" : "_ZTIKi",
   "source_file" : "external/libcxx/include/limits"
  },
  {
   "access" : "protected",
   "linker_set_key" : "_ZNSt3__123__libcpp_numeric_limitsIiLb1EE13has_quiet_NaNE",
   "name" : "std::__1::__libcpp_numeric_limits<int, true>::has_quiet_NaN",
   "referenced_type" : "_ZTIKb",
   "source_file" : "external/libcxx/include/limits"
  },
  {
   "access" : "protected",
   "linker_set_key" : "_ZNSt3__123__libcpp_numeric_limitsIiLb1EE14is_specializedE",
   "name" : "std::__1::__libcpp_numeric_limits<int, true>::is_specialized",
   "referenced_type" : "_ZTIKb",
   "source_file" : "external/libcxx/include/limits"
  },
  {
   "access" : "protected",
   "linker_set_key" : "_ZNSt3__123__libcpp_numeric_limitsIiLb1EE14max_exponent10E",
   "name" : "std::__1::__libcpp_numeric_limits<int, true>::max_exponent10",
   "referenced_type" : "_ZTIKi",
   "source_file" : "external/libcxx/include/limits"
  },
  {
   "access" : "protected",
   "linker_set_key" : "_ZNSt3__123__libcpp_numeric_limitsIiLb1EE14min_exponent10E",
   "name" : "std::__1::__libcpp_numeric_limits<int, true>::min_exponent10",
   "referenced_type" : "_ZTIKi",
   "source_file" : "external/libcxx/include/limits"
  },
  {
   "access" : "protected",
   "linker_set_key" : "_ZNSt3__123__libcpp_numeric_limitsIiLb1EE15has_denorm_lossE",
   "name" : "std::__1::__libcpp_numeric_limits<int, true>::has_denorm_loss",
   "referenced_type" : "_ZTIKb",
   "source_file" : "external/libcxx/include/limits"
  },
  {
   "access" : "protected",
   "linker_set_key" : "_ZNSt3__123__libcpp_numeric_limitsIiLb1EE15tinyness_beforeE",
   "name" : "std::__1::__libcpp_numeric_limits<int, true>::tinyness_before",
   "referenced_type" : "_ZTIKb",
   "source_file" : "external/libcxx/include/limits"
  },
  {
   "access" : "protected",
   "linker_set_key" : "_ZNSt3__123__libcpp_numeric_limitsIiLb1EE17has_signaling_NaNE",
   "name" : "std::__1::__libcpp_numeric_limits<int, true>::has_signaling_NaN",
   "referenced_type" : "_ZTIKb",
   "source_file" : "external/libcxx/include/limits"
  },
  {
   "access" : "protected",
   "linker_set_key" : "_ZNSt3__123__libcpp_numeric_limitsIiLb1EE5__maxE",
   "name" : "std::__1::__libcpp_numeric_limits<int, true>::__max",
   "referenced_type" : "_ZTIKi",
   "source_file" : "external/libcxx/include/limits"
  },
  {
   "access" : "protected",
   "linker_set_key" : "_ZNSt3__123__libcpp_numeric_limitsIiLb1EE5__minE",
   "name" : "std::__1::__libcpp_numeric_limits<int, true>::__min",
   "referenced_type" : "_ZTIKi",
   "source_file" : "external/libcxx/include/limits"
  },
  {
   "access" : "protected",
   "linker_set_key" : "_ZNSt3__123__libcpp_numeric_limitsIiLb1EE5radixE",
   "name" : "std::__1::__libcpp_numeric_limits<int, true>::radix",
   "referenced_type" : "_ZTIKi",
   "source_file" : "external/libcxx/include/limits"
  },
  {
   "access" : "protected",
   "linker_set_key" : "_ZNSt3__123__libcpp_numeric_limitsIiLb1EE5trapsE",
   "name" : "std::__1::__libcpp_numeric_limits<int, true>::traps",
   "referenced_type" : "_ZTIKb",
   "source_file" : "external/libcxx/include/limits"
  },
  {
   "access" : "protected",
   "linker_set_key" : "_ZNSt3__123__libcpp_numeric_limitsIiLb1EE6digitsE",
   "name" : "std::__1::__libcpp_numeric_limits<int, true>::digits",
   "referenced_type" : "_ZTIKi",
   "source_file" : "external/libcxx/include/limits"
  },
  {
   "access" : "protected",
   "linker_set_key" : "_ZNSt3__123__libcpp_numeric_limitsIiLb1EE8digits10E",
   "name" : "std::__1::__libcpp_numeric_limits<int, true>::digits10",
   "referenced_type" : "_ZTIKi",
   "source_file" : "external/libcxx/include/limits"
  },
  {
   "access" : "protected",
   "linker_set_key" : "_ZNSt3__123__libcpp_numeric_limitsIiLb1EE8is_exactE",
   "name" : "std::__1::__libcpp_numeric_limits<int, true>::is_exact",
   "referenced_type" : "_ZTIKb",
   "source_file" : "external/libcxx/include/limits"
  },
  {
   "access" : "protected",
   "linker_set_key" : "_ZNSt3__123__libcpp_numeric_limitsIiLb1EE9is_iec559E",
   "name" : "std::__1::__libcpp_numeric_limits<int, true>::is_iec559",
   "referenced_type" : "_ZTIKb",
   "source_file" : "external/libcxx/include/limits"
  },
  {
   "access" : "protected",
   "linker_set_key" : "_ZNSt3__123__libcpp_numeric_limitsIiLb1EE9is_moduloE",
   "name" : "std::__1::__libcpp_numeric_limits<int, true>::is_modulo",
   "referenced_type" : "_ZTIKb",
   "source_file" : "external/libcxx/include/limits"
  },
  {
   "access" : "protected",
   "linker_set_key" : "_ZNSt3__123__libcpp_numeric_limitsIiLb1EE9is_signedE",
   "name" : "std::__1::__libcpp_numeric_limits<int, true>::is_signed",
   "referenced_type" : "_ZTIKb",
   "source_file" : "external/libcxx/include/limits"
  },
  {
   "access" : "protected",
   "linker_set_key" : "_ZNSt3__123__libcpp_numeric_limitsIjLb1EE10has_denormE",
   "name" : "std::__1::__libcpp_numeric_limits<unsigned int, true>::has_denorm",
   "referenced_type" : "_ZTIKNSt3__118float_denorm_styleE",
   "source_file" : "external/libcxx/include/limits"
  },
  {
   "access" : "protected",
   "linker_set_key" : "_ZNSt3__123__libcpp_numeric_limitsIjLb1EE10is_boundedE",
   "name" : "std::__1::__libcpp_numeric_limits<unsigned int, true>::is_bounded",
   "referenced_type" : "_ZTIKb",
   "source_file" : "external/libcxx/include/limits"
  },
  {
   "access" : "protected",
   "linker_set_key" : "_ZNSt3__123__libcpp_numeric_limitsIjLb1EE10is_integerE",
   "name" : "std::__1::__libcpp_numeric_limits<unsigned int, true>::is_integer",
   "referenced_type" : "_ZTIKb",
   "source_file" : "external/libcxx/include/limits"
  },
  {
   "access" : "protected",
   "linker_set_key" : "_ZNSt3__123__libcpp_numeric_limitsIjLb1EE11round_styleE",
   "name" : "std::__1::__libcpp_numeric_limits<unsigned int, true>::round_style",
   "referenced_type" : "_ZTIKNSt3__117float_round_styleE",
   "source_file" : "external/libcxx/include/limits"
  },
  {
   "access" : "protected",
   "linker_set_key" : "_ZNSt3__123__libcpp_numeric_limitsIjLb1EE12has_infinityE",
   "name" : "std::__1::__libcpp_numeric_limits<unsigned int, true>::has_infinity",
   "referenced_type" : "_ZTIKb",
   "source_file" : "external/libcxx/include/limits"
  },
  {
   "access" : "protected",
   "linker_set_key" : "_ZNSt3__123__libcpp_numeric_limitsIjLb1EE12max_digits10E",
   "name" : "std::__1::__libcpp_numeric_limits<unsigned int, true>::max_digits10",
   "referenced_type" : "_ZTIKi",
   "source_file" : "external/libcxx/include/limits"
  },
  {
   "access" : "protected",
   "linker_set_key" : "_ZNSt3__123__libcpp_numeric_limitsIjLb1EE12max_exponentE",
   "name" : "std::__1::__libcpp_numeric_limits<unsigned int, true>::max_exponent",
   "referenced_type" : "_ZTIKi",
   "source_file" : "external/libcxx/include/limits"
  },
  {
   "access" : "protected",
   "linker_set_key" : "_ZNSt3__123__libcpp_numeric_limitsIjLb1EE12min_exponentE",
   "name" : "std::__1::__libcpp_numeric_limits<unsigned int, true>::min_exponent",
   "referenced_type" : "_ZTIKi",
   "source_file" : "external/libcxx/include/limits"
  },
  {
   "access" : "protected",
   "linker_set_key" : "_ZNSt3__123__libcpp_numeric_limitsIjLb1EE13has_quiet_NaNE",
   "name" : "std::__1::__libcpp_numeric_limits<unsigned int, true>::has_quiet_NaN",
   "referenced_type" : "_ZTIKb",
   "source_file" : "external/libcxx/include/limits"
  },
  {
   "access" : "protected",
   "linker_set_key" : "_ZNSt3__123__libcpp_numeric_limitsIjLb1EE14is_specializedE",
   "name" : "std::__1::__libcpp_numeric_limits<unsigned int, true>::is_specialized",
   "referenced_type" : "_ZTIKb",
   "source_file" : "external/libcxx/include/limits"
  },
  {
   "access" : "protected",
   "linker_set_key" : "_ZNSt3__123__libcpp_numeric_limitsIjLb1EE14max_exponent10E",
   "name" : "std::__1::__libcpp_numeric_limits<unsigned int, true>::max_exponent10",
   "referenced_type" : "_ZTIKi",
   "source_file" : "external/libcxx/include/limits"
  },
  {
   "access" : "protected",
   "linker_set_key" : "_ZNSt3__123__libcpp_numeric_limitsIjLb1EE14min_exponent10E",
   "name" : "std::__1::__libcpp_numeric_limits<unsigned int, true>::min_exponent10",
   "referenced_type" : "_ZTIKi",
   "source_file" : "external/libcxx/include/limits"
  },
  {
   "access" : "protected",
   "linker_set_key" : "_ZNSt3__123__libcpp_numeric_limitsIjLb1EE15has_denorm_lossE",
   "name" : "std::__1::__libcpp_numeric_limits<unsigned int, true>::has_denorm_loss",
   "referenced_type" : "_ZTIKb",
   "source_file" : "external/libcxx/include/limits"
  },
  {
   "access" : "protected",
   "linker_set_key" : "_ZNSt3__123__libcpp_numeric_limitsIjLb1EE15tinyness_beforeE",
   "name" : "std::__1::__libcpp_numeric_limits<unsigned int, true>::tinyness_before",
   "referenced_type" : "_ZTIKb",
   "source_file" : "external/libcxx/include/limits"
  },
  {
   "access" : "protected",
   "linker_set_key" : "_ZNSt3__123__libcpp_numeric_limitsIjLb1EE17has_signaling_NaNE",
   "name" : "std::__1::__libcpp_numeric_limits<unsigned int, true>::has_signaling_NaN",
   "referenced_type" : "_ZTIKb",
   "source_file" : "external/libcxx/include/limits"
  },
  {
   "access" : "protected",
   "linker_set_key" : "_ZNSt3__123__libcpp_numeric_limitsIjLb1EE5__maxE",
   "name" : "std::__1::__libcpp_numeric_limits<unsigned int, true>::__max",
   "referenced_type" : "_ZTIKj",
   "source_file" : "external/libcxx/include/limits"
  },
  {
   "access" : "protected",
   "linker_set_key" : "_ZNSt3__123__libcpp_numeric_limitsIjLb1EE5__minE",
   "name" : "std::__1::__libcpp_numeric_limits<unsigned int, true>::__min",
   "referenced_type" : "_ZTIKj",
   "source_file" : "external/libcxx/include/limits"
  },
  {
   "access" : "protected",
   "linker_set_key" : "_ZNSt3__123__libcpp_numeric_limitsIjLb1EE5radixE",
   "name" : "std::__1::__libcpp_numeric_limits<unsigned int, true>::radix",
   "referenced_type" : "_ZTIKi",
   "source_file" : "external/libcxx/include/limits"
  },
  {
   "access" : "protected",
   "linker_set_key" : "_ZNSt3__123__libcpp_numeric_limitsIjLb1EE5trapsE",
   "name" : "std::__1::__libcpp_numeric_limits<unsigned int, true>::traps",
   "referenced_type" : "_ZTIKb",
   "source_file" : "external/libcxx/include/limits"
  },
  {
   "access" : "protected",
   "linker_set_key" : "_ZNSt3__123__libcpp_numeric_limitsIjLb1EE6digitsE",
   "name" : "std::__1::__libcpp_numeric_limits<unsigned int, true>::digits",
   "referenced_type" : "_ZTIKi",
   "source_file" : "external/libcxx/include/limits"
  },
  {
   "access" : "protected",
   "linker_set_key" : "_ZNSt3__123__libcpp_numeric_limitsIjLb1EE8digits10E",
   "name" : "std::__1::__libcpp_numeric_limits<unsigned int, true>::digits10",
   "referenced_type" : "_ZTIKi",
   "source_file" : "external/libcxx/include/limits"
  },
  {
   "access" : "protected",
   "linker_set_key" : "_ZNSt3__123__libcpp_numeric_limitsIjLb1EE8is_exactE",
   "name" : "std::__1::__libcpp_numeric_limits<unsigned int, true>::is_exact",
   "referenced_type" : "_ZTIKb",
   "source_file" : "external/libcxx/include/limits"
  },
  {
   "access" : "protected",
   "linker_set_key" : "_ZNSt3__123__libcpp_numeric_limitsIjLb1EE9is_iec559E",
   "name" : "std::__1::__libcpp_numeric_limits<unsigned int, true>::is_iec559",
   "referenced_type" : "_ZTIKb",
   "source_file" : "external/libcxx/include/limits"
  },
  {
   "access" : "protected",
   "linker_set_key" : "_ZNSt3__123__libcpp_numeric_limitsIjLb1EE9is_moduloE",
   "name" : "std::__1::__libcpp_numeric_limits<unsigned int, true>::is_modulo",
   "referenced_type" : "_ZTIKb",
   "source_file" : "external/libcxx/include/limits"
  },
  {
   "access" : "protected",
   "linker_set_key" : "_ZNSt3__123__libcpp_numeric_limitsIjLb1EE9is_signedE",
   "name" : "std::__1::__libcpp_numeric_limits<unsigned int, true>::is_signed",
   "referenced_type" : "_ZTIKb",
   "source_file" : "external/libcxx/include/limits"
  },
  {
   "access" : "protected",
   "linker_set_key" : "_ZNSt3__123__libcpp_numeric_limitsIyLb1EE10has_denormE",
   "name" : "std::__1::__libcpp_numeric_limits<unsigned long long, true>::has_denorm",
   "referenced_type" : "_ZTIKNSt3__118float_denorm_styleE",
   "source_file" : "external/libcxx/include/limits"
  },
  {
   "access" : "protected",
   "linker_set_key" : "_ZNSt3__123__libcpp_numeric_limitsIyLb1EE10is_boundedE",
   "name" : "std::__1::__libcpp_numeric_limits<unsigned long long, true>::is_bounded",
   "referenced_type" : "_ZTIKb",
   "source_file" : "external/libcxx/include/limits"
  },
  {
   "access" : "protected",
   "linker_set_key" : "_ZNSt3__123__libcpp_numeric_limitsIyLb1EE10is_integerE",
   "name" : "std::__1::__libcpp_numeric_limits<unsigned long long, true>::is_integer",
   "referenced_type" : "_ZTIKb",
   "source_file" : "external/libcxx/include/limits"
  },
  {
   "access" : "protected",
   "linker_set_key" : "_ZNSt3__123__libcpp_numeric_limitsIyLb1EE11round_styleE",
   "name" : "std::__1::__libcpp_numeric_limits<unsigned long long, true>::round_style",
   "referenced_type" : "_ZTIKNSt3__117float_round_styleE",
   "source_file" : "external/libcxx/include/limits"
  },
  {
   "access" : "protected",
   "linker_set_key" : "_ZNSt3__123__libcpp_numeric_limitsIyLb1EE12has_infinityE",
   "name" : "std::__1::__libcpp_numeric_limits<unsigned long long, true>::has_infinity",
   "referenced_type" : "_ZTIKb",
   "source_file" : "external/libcxx/include/limits"
  },
  {
   "access" : "protected",
   "linker_set_key" : "_ZNSt3__123__libcpp_numeric_limitsIyLb1EE12max_digits10E",
   "name" : "std::__1::__libcpp_numeric_limits<unsigned long long, true>::max_digits10",
   "referenced_type" : "_ZTIKi",
   "source_file" : "external/libcxx/include/limits"
  },
  {
   "access" : "protected",
   "linker_set_key" : "_ZNSt3__123__libcpp_numeric_limitsIyLb1EE12max_exponentE",
   "name" : "std::__1::__libcpp_numeric_limits<unsigned long long, true>::max_exponent",
   "referenced_type" : "_ZTIKi",
   "source_file" : "external/libcxx/include/limits"
  },
  {
   "access" : "protected",
   "linker_set_key" : "_ZNSt3__123__libcpp_numeric_limitsIyLb1EE12min_exponentE",
   "name" : "std::__1::__libcpp_numeric_limits<unsigned long long, true>::min_exponent",
   "referenced_type" : "_ZTIKi",
   "source_file" : "external/libcxx/include/limits"
  },
  {
   "access" : "protected",
   "linker_set_key" : "_ZNSt3__123__libcpp_numeric_limitsIyLb1EE13has_quiet_NaNE",
   "name" : "std::__1::__libcpp_numeric_limits<unsigned long long, true>::has_quiet_NaN",
   "referenced_type" : "_ZTIKb",
   "source_file" : "external/libcxx/include/limits"
  },
  {
   "access" : "protected",
   "linker_set_key" : "_ZNSt3__123__libcpp_numeric_limitsIyLb1EE14is_specializedE",
   "name" : "std::__1::__libcpp_numeric_limits<unsigned long long, true>::is_specialized",
   "referenced_type" : "_ZTIKb",
   "source_file" : "external/libcxx/include/limits"
  },
  {
   "access" : "protected",
   "linker_set_key" : "_ZNSt3__123__libcpp_numeric_limitsIyLb1EE14max_exponent10E",
   "name" : "std::__1::__libcpp_numeric_limits<unsigned long long, true>::max_exponent10",
   "referenced_type" : "_ZTIKi",
   "source_file" : "external/libcxx/include/limits"
  },
  {
   "access" : "protected",
   "linker_set_key" : "_ZNSt3__123__libcpp_numeric_limitsIyLb1EE14min_exponent10E",
   "name" : "std::__1::__libcpp_numeric_limits<unsigned long long, true>::min_exponent10",
   "referenced_type" : "_ZTIKi",
   "source_file" : "external/libcxx/include/limits"
  },
  {
   "access" : "protected",
   "linker_set_key" : "_ZNSt3__123__libcpp_numeric_limitsIyLb1EE15has_denorm_lossE",
   "name" : "std::__1::__libcpp_numeric_limits<unsigned long long, true>::has_denorm_loss",
   "referenced_type" : "_ZTIKb",
   "source_file" : "external/libcxx/include/limits"
  },
  {
   "access" : "protected",
   "linker_set_key" : "_ZNSt3__123__libcpp_numeric_limitsIyLb1EE15tinyness_beforeE",
   "name" : "std::__1::__libcpp_numeric_limits<unsigned long long, true>::tinyness_before",
   "referenced_type" : "_ZTIKb",
   "source_file" : "external/libcxx/include/limits"
  },
  {
   "access" : "protected",
   "linker_set_key" : "_ZNSt3__123__libcpp_numeric_limitsIyLb1EE17has_signaling_NaNE",
   "name" : "std::__1::__libcpp_numeric_limits<unsigned long long, true>::has_signaling_NaN",
   "referenced_type" : "_ZTIKb",
   "source_file" : "external/libcxx/include/limits"
  },
  {
   "access" : "protected",
   "linker_set_key" : "_ZNSt3__123__libcpp_numeric_limitsIyLb1EE5__maxE",
   "name" : "std::__1::__libcpp_numeric_limits<unsigned long long, true>::__max",
   "referenced_type" : "_ZTIKy",
   "source_file" : "external/libcxx/include/limits"
  },
  {
   "access" : "protected",
   "linker_set_key" : "_ZNSt3__123__libcpp_numeric_limitsIyLb1EE5__minE",
   "name" : "std::__1::__libcpp_numeric_limits<unsigned long long, true>::__min",
   "referenced_type" : "_ZTIKy",
   "source_file" : "external/libcxx/include/limits"
  },
  {
   "access" : "protected",
   "linker_set_key" : "_ZNSt3__123__libcpp_numeric_limitsIyLb1EE5radixE",
   "name" : "std::__1::__libcpp_numeric_limits<unsigned long long, true>::radix",
   "referenced_type" : "_ZTIKi",
   "source_file" : "external/libcxx/include/limits"
  },
  {
   "access" : "protected",
   "linker_set_key" : "_ZNSt3__123__libcpp_numeric_limitsIyLb1EE5trapsE",
   "name" : "std::__1::__libcpp_numeric_limits<unsigned long long, true>::traps",
   "referenced_type" : "_ZTIKb",
   "source_file" : "external/libcxx/include/limits"
  },
  {
   "access" : "protected",
   "linker_set_key" : "_ZNSt3__123__libcpp_numeric_limitsIyLb1EE6digitsE",
   "name" : "std::__1::__libcpp_numeric_limits<unsigned long long, true>::digits",
   "referenced_type" : "_ZTIKi",
   "source_file" : "external/libcxx/include/limits"
  },
  {
   "access" : "protected",
   "linker_set_key" : "_ZNSt3__123__libcpp_numeric_limitsIyLb1EE8digits10E",
   "name" : "std::__1::__libcpp_numeric_limits<unsigned long long, true>::digits10",
   "referenced_type" : "_ZTIKi",
   "source_file" : "external/libcxx/include/limits"
  },
  {
   "access" : "protected",
   "linker_set_key" : "_ZNSt3__123__libcpp_numeric_limitsIyLb1EE8is_exactE",
   "name" : "std::__1::__libcpp_numeric_limits<unsigned long long, true>::is_exact",
   "referenced_type" : "_ZTIKb",
   "source_file" : "external/libcxx/include/limits"
  },
  {
   "access" : "protected",
   "linker_set_key" : "_ZNSt3__123__libcpp_numeric_limitsIyLb1EE9is_iec559E",
   "name" : "std::__1::__libcpp_numeric_limits<unsigned long long, true>::is_iec559",
   "referenced_type" : "_ZTIKb",
   "source_file" : "external/libcxx/include/limits"
  },
  {
   "access" : "protected",
   "linker_set_key" : "_ZNSt3__123__libcpp_numeric_limitsIyLb1EE9is_moduloE",
   "name" : "std::__1::__libcpp_numeric_limits<unsigned long long, true>::is_modulo",
   "referenced_type" : "_ZTIKb",
   "source_file" : "external/libcxx/include/limits"
  },
  {
   "access" : "protected",
   "linker_set_key" : "_ZNSt3__123__libcpp_numeric_limitsIyLb1EE9is_signedE",
   "name" : "std::__1::__libcpp_numeric_limits<unsigned long long, true>::is_signed",
   "referenced_type" : "_ZTIKb",
   "source_file" : "external/libcxx/include/limits"
  },
  {
   "access" : "private",
   "linker_set_key" : "_ZNSt3__125__independent_bits_engine3__mE",
   "name" : "std::__1::__independent_bits_engine::__m",
   "referenced_type" : "_ZTIKj",
   "source_file" : "external/libcxx/include/algorithm"
  },
  {
   "access" : "private",
   "linker_set_key" : "_ZNSt3__125__independent_bits_engine4_EDtE",
   "name" : "std::__1::__independent_bits_engine::_EDt",
   "referenced_type" : "_ZTIKj",
   "source_file" : "external/libcxx/include/algorithm"
  },
  {
   "access" : "private",
   "linker_set_key" : "_ZNSt3__125__independent_bits_engine4_WDtE",
   "name" : "std::__1::__independent_bits_engine::_WDt",
   "referenced_type" : "_ZTIKj",
   "source_file" : "external/libcxx/include/algorithm"
  },
  {
   "linker_set_key" : "_ZNSt3__125__nothrow_invokable_r_imp5valueE",
   "name" : "std::__1::__nothrow_invokable_r_imp::value",
   "referenced_type" : "_ZTIKb",
   "source_file" : "external/libcxx/include/type_traits"
  },
  {
   "linker_set_key" : "_ZNSt3__125__nothrow_invokable_r_impILb1ELb0ET_T0_JDpT1_EE5valueE",
   "name" : "std::__1::__nothrow_invokable_r_imp<true, false, type-parameter-0-0, type-parameter-0-1, type-parameter-0-2...>::value",
   "referenced_type" : "_ZTIKb",
   "source_file" : "external/libcxx/include/type_traits"
  },
  {
   "linker_set_key" : "_ZNSt3__125__nothrow_invokable_r_impILb1ELb1ET_T0_JDpT1_EE5valueE",
   "name" : "std::__1::__nothrow_invokable_r_imp<true, true, type-parameter-0-0, type-parameter-0-1, type-parameter-0-2...>::value",
   "referenced_type" : "_ZTIKb",
   "source_file" : "external/libcxx/include/type_traits"
  },
  {
   "linker_set_key" : "_ZNSt3__126__is_destructor_wellformed5valueE",
   "name" : "std::__1::__is_destructor_wellformed::value",
   "referenced_type" : "_ZTIKb",
   "source_file" : "external/libcxx/include/type_traits"
  },
  {
   "linker_set_key" : "_ZNSt3__129__derives_from_unary_function5valueE",
   "name" : "std::__1::__derives_from_unary_function::value",
   "referenced_type" : "_ZTIKb",
   "source_file" : "external/libcxx/include/__functional_base"
  },
  {
   "linker_set_key" : "_ZNSt3__130__derives_from_binary_function5valueE",
   "name" : "std::__1::__derives_from_binary_function::value",
   "referenced_type" : "_ZTIKb",
   "source_file" : "external/libcxx/include/__functional_base"
  },
  {
   "linker_set_key" : "_ZNSt3__133__has_operator_addressof_free_imp5valueE",
   "name" : "std::__1::__has_operator_addressof_free_imp::value",
   "referenced_type" : "_ZTIKb",
   "source_file" : "external/libcxx/include/type_traits"
  },
  {
   "linker_set_key" : "_ZNSt3__135__has_operator_addressof_member_imp5valueE",
   "name" : "std::__1::__has_operator_addressof_member_imp::value",
   "referenced_type" : "_ZTIKb",
   "source_file" : "external/libcxx/include/type_traits"
  },
  {
   "access" : "private",
   "linker_set_key" : "_ZNSt3__15tuple36_EnableImplicitReducedArityExtensionE",
   "name" : "std::__1::tuple::_EnableImplicitReducedArityExtension",
   "referenced_type" : "_ZTIKb",
   "source_file" : "external/libcxx/include/tuple"
  },
  {
   "linker_set_key" : "_ZNSt3__16__log25valueE",
   "name" : "std::__1::__log2::value",
   "referenced_type" : "_ZTIKj",
   "source_file" : "external/libcxx/include/algorithm"
  },
  {
   "access" : "private",
   "linker_set_key" : "_ZNSt3__16vectorIbT_E15__bits_per_wordE",
   "name" : "std::__1::vector<bool, type-parameter-0-0>::__bits_per_word",
   "referenced_type" : "_ZTIKj",
   "source_file" : "external/libcxx/include/vector"
  },
  {
   "linker_set_key" : "_ZNSt3__18__detail16__swappable_with5valueE",
   "name" : "std::__1::__detail::__swappable_with::value",
   "referenced_type" : "_ZTIKb",
   "source_file" : "external/libcxx/include/type_traits"
  },
  {
   "linker_set_key" : "_ZNSt3__18__detail24__nothrow_swappable_with5valueE",
   "name" : "std::__1::__detail::__nothrow_swappable_with::value",
   "referenced_type" : "_ZTIKb",
   "source_file" : "external/libcxx/include/type_traits"
  },
  {
   "linker_set_key" : "_ZNSt3__18functionIFT_DpT0_EE10__callableITL0__Lb0EE5valueE",
   "name" : "std::__1::function<type-parameter-0-0 (type-parameter-0-1...)>::__callable<type-parameter-1-0, false>::value",
   "referenced_type" : "_ZTIKb",
   "source_file" : "external/libcxx/include/functional"
  },
  {
   "linker_set_key" : "_ZNSt3__18functionIFT_DpT0_EE10__callableITL0__Lb1EE5valueE",
   "name" : "std::__1::function<type-parameter-0-0 (type-parameter-0-1...)>::__callable<type-parameter-1-0, true>::value",
   "referenced_type" : "_ZTIKb",
   "source_file" : "external/libcxx/include/functional"
  },
  {
   "linker_set_key" : "_ZNSt3__1L13allocator_argE",
   "name" : "std::__1::allocator_arg",
   "referenced_type" : "_ZTIKNSt3__115allocator_arg_tE",
   "source_file" : "external/libcxx/include/__functional_base"
  },
  {
   "linker_set_key" : "_ZNSt3__1L19piecewise_constructE",
   "name" : "std::__1::piecewise_construct",
   "referenced_type" : "_ZTIKNSt3__121piecewise_construct_tE",
   "source_file" : "external/libcxx/include/utility"
  },
  {
   "linker_set_key" : "_ZSt7nothrow",
   "name" : "std::nothrow",
   "referenced_type" : "_ZTIKSt9nothrow_t",
   "source_file" : "external/libcxx/include/new"
  },
  {
   "linker_set_key" : "_ZZN4llvm7hashing6detail18get_execution_seedEvE4seed",
   "name" : "seed",
   "referenced_type" : "_ZTIj",
   "source_file" : "external/llvm/include/llvm/ADT/Hashing.h"
  },
  {
   "linker_set_key" : "_ZZNSt3__110__function8__policy14__create_emptyEvE9__policy_",
   "name" : "__policy_",
   "referenced_type" : "_ZTIKNSt3__110__function8__policyE",
   "source_file" : "external/libcxx/include/functional"
  },
  {
   "linker_set_key" : "_ZZNSt3__110__function8__policy15__choose_policyENS_17integral_constantIbLb0EEEE9__policy_",
   "name" : "__policy_",
   "referenced_type" : "_ZTIKNSt3__110__function8__policyE",
   "source_file" : "external/libcxx/include/functional"
  },
  {
   "linker_set_key" : "_ZZNSt3__110__function8__policy15__choose_policyENS_17integral_constantIbLb1EEEE9__policy_",
   "name" : "__policy_",
   "referenced_type" : "_ZTIKNSt3__110__function8__policyE",
   "source_file" : "external/libcxx/include/functional"
  },
  {
   "linker_set_key" : "_ZZNSt3__115__equal_alignedENS_14__bit_iteratorIT_XT0_EXLi0EEEES2_NS0_IS1_XT1_EXLi0EEEEE15__bits_per_word",
   "name" : "__bits_per_word",
   "referenced_type" : "_ZTIKi",
   "source_file" : "external/libcxx/include/__bit_reference"
  },
  {
   "linker_set_key" : "_ZZNSt3__116__copy_unalignedENS_14__bit_iteratorIT_XT0_EXLi0EEEES2_NS0_IS1_Lb0EXLi0EEEEE15__bits_per_word",
   "name" : "__bits_per_word",
   "referenced_type" : "_ZTIKi",
   "source_file" : "external/libcxx/include/__bit_reference"
  },
  {
   "linker_set_key" : "_ZZNSt3__116__find_bool_trueENS_14__bit_iteratorIT_XT0_EXLi0EEEENS1_9size_typeEE15__bits_per_word",
   "name" : "__bits_per_word",
   "referenced_type" : "_ZTIKi",
   "source_file" : "external/libcxx/include/__bit_reference"
  },
  {
   "linker_set_key" : "_ZZNSt3__117__equal_unalignedENS_14__bit_iteratorIT_XT0_EXLi0EEEES2_NS0_IS1_XT1_EXLi0EEEEE15__bits_per_word",
   "name" : "__bits_per_word",
   "referenced_type" : "_ZTIKi",
   "source_file" : "external/libcxx/include/__bit_reference"
  },
  {
   "linker_set_key" : "__free_hook",
   "name" : "__free_hook",
   "referenced_type" : "_ZTIVPFvPvPKvE",
   "source_file" : "out/soong/.intermediates/bionic/libc/libc/android_vendor.32_arm_armv8-a_shared/gen/include/malloc.h"
  },
  {
   "linker_set_key" : "__malloc_hook",
   "name" : "__malloc_hook",
   "referenced_type" : "_ZTIVPFPvjPKvE",
   "source_file" : "out/soong/.intermediates/bionic/libc/libc/android_vendor.32_arm_armv8-a_shared/gen/include/malloc.h"
  },
  {
   "linker_set_key" : "__memalign_hook",
   "name" : "__memalign_hook",
   "referenced_type" : "_ZTIVPFPvjjPKvE",
   "source_file" : "out/soong/.intermediates/bionic/libc/libc/android_vendor.32_arm_armv8-a_shared/gen/include/malloc.h"
  },
  {
   "linker_set_key" : "__realloc_hook",
   "name" : "__realloc_hook",
   "referenced_type" : "_ZTIVPFPvS_jPKvE",
   "source_file" : "out/soong/.intermediates/bionic/libc/libc/android_vendor.32_arm_armv8-a_shared/gen/include/malloc.h"
  },
  {
   "linker_set_key" : "_ctype_",
   "name" : "_ctype_",
   "referenced_type" : "_ZTIPKc",
   "source_file" : "out/soong/.intermediates/bionic/libc/libc/android_vendor.32_arm_armv8-a_shared/gen/include/bits/ctype_inlines.h"
  },
  {
   "linker_set_key" : "daylight",
   "name" : "daylight",
   "referenced_type" : "_ZTIi",
   "source_file" : "out/soong/.intermediates/bionic/libc/libc/android_vendor.32_arm_armv8-a_shared/gen/include/time.h"
  },
  {
   "linker_set_key" : "signgam",
   "name" : "signgam",
   "referenced_type" : "_ZTIi",
   "source_file" : "out/soong/.intermediates/bionic/libc/libc/android_vendor.32_arm_armv8-a_shared/gen/include/math.h"
  },
  {
   "linker_set_key" : "stderr",
   "name" : "stderr",
   "referenced_type" : "_ZTIP7__sFILE",
   "source_file" : "out/soong/.intermediates/bionic/libc/libc/android_vendor.32_arm_armv8-a_shared/gen/include/stdio.h"
  },
  {
   "linker_set_key" : "stdin",
   "name" : "stdin",
   "referenced_type" : "_ZTIP7__sFILE",
   "source_file" : "out/soong/.intermediates/bionic/libc/libc/android_vendor.32_arm_armv8-a_shared/gen/include/stdio.h"
  },
  {
   "linker_set_key" : "stdout",
   "name" : "stdout",
   "referenced_type" : "_ZTIP7__sFILE",
   "source_file" : "out/soong/.intermediates/bionic/libc/libc/android_vendor.32_arm_armv8-a_shared/gen/include/stdio.h"
  },
  {
   "linker_set_key" : "sys_siglist",
   "name" : "sys_siglist",
   "referenced_type" : "_ZTIA65_KPKc",
   "source_file" : "out/soong/.intermediates/bionic/libc/libc/android_vendor.32_arm_armv8-a_shared/gen/include/signal.h"
  },
  {
   "linker_set_key" : "sys_signame",
   "name" : "sys_signame",
   "referenced_type" : "_ZTIA65_KPKc",
   "source_file" : "out/soong/.intermediates/bionic/libc/libc/android_vendor.32_arm_armv8-a_shared/gen/include/signal.h"
  },
  {
   "linker_set_key" : "timezone",
   "name" : "timezone",
   "referenced_type" : "_ZTIl",
   "source_file" : "out/soong/.intermediates/bionic/libc/libc/android_vendor.32_arm_armv8-a_shared/gen/include/time.h"
  },
  {
   "linker_set_key" : "tzname",
   "name" : "tzname",
   "referenced_type" : "_ZTIA_Pc",
   "source_file" : "out/soong/.intermediates/bionic/libc/libc/android_vendor.32_arm_armv8-a_shared/gen/include/time.h"
  }
 ],
 "lvalue_reference_types" :
 [
  {
   "alignment" : 4,
   "linker_set_key" : "_ZTIRDi",
   "name" : "char32_t &",
   "referenced_type" : "_ZTIDi",
   "self_type" : "_ZTIRDi",
   "size" : 4,
   "source_file" : "external/libcxx/include/__string"
  },
  {
   "alignment" : 4,
   "linker_set_key" : "_ZTIRDs",
   "name" : "char16_t &",
   "referenced_type" : "_ZTIDs",
   "self_type" : "_ZTIRDs",
   "size" : 4,
   "source_file" : "external/libcxx/include/__string"
  },
  {
   "alignment" : 4,
   "linker_set_key" : "_ZTIRKDi",
   "name" : "const char32_t &",
   "referenced_type" : "_ZTIKDi",
   "self_type" : "_ZTIRKDi",
   "size" : 4,
   "source_file" : "external/libcxx/include/__string"
  },
  {
   "alignment" : 4,
   "linker_set_key" : "_ZTIRKDs",
   "name" : "const char16_t &",
   "referenced_type" : "_ZTIKDs",
   "self_type" : "_ZTIRKDs",
   "size" : 4,
   "source_file" : "external/libcxx/include/__string"
  },
  {
   "alignment" : 4,
   "linker_set_key" : "_ZTIRKN4llvm9StringRefE",
   "name" : "const llvm::StringRef &",
   "referenced_type" : "_ZTIKN4llvm9StringRefE",
   "self_type" : "_ZTIRKN4llvm9StringRefE",
   "size" : 4,
   "source_file" : "external/libcxx/include/utility"
  },
  {
   "alignment" : 4,
   "linker_set_key" : "_ZTIRKN4llvm9hash_codeE",
   "name" : "const llvm::hash_code &",
   "referenced_type" : "_ZTIKN4llvm9hash_codeE",
   "self_type" : "_ZTIRKN4llvm9hash_codeE",
   "size" : 4,
   "source_file" : "external/llvm/include/llvm/ADT/Hashing.h"
  },
  {
   "alignment" : 4,
   "linker_set_key" : "_ZTIRKNSt3__110error_codeE",
   "name" : "const std::error_code &",
   "referenced_type" : "_ZTIKNSt3__110error_codeE",
   "self_type" : "_ZTIRKNSt3__110error_codeE",
   "size" : 4,
   "source_file" : "external/libcxx/include/system_error"
  },
  {
   "alignment" : 4,
   "linker_set_key" : "_ZTIRKNSt3__112basic_stringIcNS_11char_traitsIcEENS_9allocatorIcEEE5__repE",
   "name" : "const std::basic_string<char>::__rep &",
   "referenced_type" : "_ZTIKNSt3__112basic_stringIcNS_11char_traitsIcEENS_9allocatorIcEEE5__repE",
   "self_type" : "_ZTIRKNSt3__112basic_stringIcNS_11char_traitsIcEENS_9allocatorIcEEE5__repE",
   "size" : 4,
   "source_file" : "external/libcxx/include/memory"
  },
  {
   "alignment" : 4,
   "linker_set_key" : "_ZTIRKNSt3__112basic_stringIcNS_11char_traitsIcEENS_9allocatorIcEEEE",
   "name" : "const std::basic_string<char, std::char_traits<char>, std::allocator<char>> &",
   "referenced_type" : "_ZTIKNSt3__112basic_stringIcNS_11char_traitsIcEENS_9allocatorIcEEEE",
   "self_type" : "_ZTIRKNSt3__112basic_stringIcNS_11char_traitsIcEENS_9allocatorIcEEEE",
   "size" : 4,
   "source_file" : "external/libcxx/include/stdexcept"
  },
  {
   "linker_set_key" : "_ZTIRKNSt3__114__bit_iteratorIT_XT0_EXT1_EEE",
   "name" : "const __bit_iterator<_Cp, _IsConst, > &",
   "referenced_type" : "_ZTIKNSt3__114__bit_iteratorIT_XT0_EXT1_EEE",
   "self_type" : "_ZTIRKNSt3__114__bit_iteratorIT_XT0_EXT1_EEE",
   "source_file" : "external/libcxx/include/__bit_reference"
  },
  {
   "alignment" : 4,
   "linker_set_key" : "_ZTIRKNSt3__114error_categoryE",
   "name" : "const std::error_category &",
   "referenced_type" : "_ZTIKNSt3__114error_categoryE",
   "self_type" : "_ZTIRKNSt3__114error_categoryE",
   "size" : 4,
   "source_file" : "external/libcxx/include/system_error"
  },
  {
   "alignment" : 4,
   "linker_set_key" : "_ZTIRKNSt3__115error_conditionE",
   "name" : "const std::error_condition &",
   "referenced_type" : "_ZTIKNSt3__115error_conditionE",
   "self_type" : "_ZTIRKNSt3__115error_conditionE",
   "size" : 4,
   "source_file" : "external/libcxx/include/system_error"
  },
  {
   "alignment" : 4,
   "linker_set_key" : "_ZTIRKNSt3__117basic_string_viewIcNS_11char_traitsIcEEEE",
   "name" : "const std::basic_string_view<char, std::char_traits<char>> &",
   "referenced_type" : "_ZTIKNSt3__117basic_string_viewIcNS_11char_traitsIcEEEE",
   "self_type" : "_ZTIRKNSt3__117basic_string_viewIcNS_11char_traitsIcEEEE",
   "size" : 4,
   "source_file" : "external/libcxx/include/string_view"
  },
  {
   "alignment" : 4,
   "linker_set_key" : "_ZTIRKNSt3__119__libcpp_debug_infoE",
   "name" : "const std::__libcpp_debug_info &",
   "referenced_type" : "_ZTIKNSt3__119__libcpp_debug_infoE",
   "self_type" : "_ZTIRKNSt3__119__libcpp_debug_infoE",
   "size" : 4,
   "source_file" : "external/libcxx/include/__debug"
  },
  {
   "alignment" : 4,
   "linker_set_key" : "_ZTIRKNSt3__122__compressed_pair_elemINS_12basic_stringIcNS_11char_traitsIcEENS_9allocatorIcEEE5__repELi0ELb0EEE",
   "name" : "const std::__compressed_pair_elem<std::basic_string<char>::__rep, 0, false> &",
   "referenced_type" : "_ZTIKNSt3__122__compressed_pair_elemINS_12basic_stringIcNS_11char_traitsIcEENS_9allocatorIcEEE5__repELi0ELb0EEE",
   "self_type" : "_ZTIRKNSt3__122__compressed_pair_elemINS_12basic_stringIcNS_11char_traitsIcEENS_9allocatorIcEEE5__repELi0ELb0EEE",
   "size" : 4,
   "source_file" : "external/libcxx/include/type_traits"
  },
  {
   "alignment" : 4,
   "linker_set_key" : "_ZTIRKNSt3__122__compressed_pair_elemINS_9allocatorIcEELi1ELb1EEE",
   "name" : "const std::__compressed_pair_elem<std::allocator<char>, 1, true> &",
   "referenced_type" : "_ZTIKNSt3__122__compressed_pair_elemINS_9allocatorIcEELi1ELb1EEE",
   "self_type" : "_ZTIRKNSt3__122__compressed_pair_elemINS_9allocatorIcEELi1ELb1EEE",
   "size" : 4,
   "source_file" : "external/libcxx/include/type_traits"
  },
  {
   "linker_set_key" : "_ZTIRKNSt3__124uniform_int_distribution10param_typeE",
   "name" : "const class std::__1::uniform_int_distribution::param_type &",
   "referenced_type" : "_ZTIKNSt3__124uniform_int_distribution10param_typeE",
   "self_type" : "_ZTIRKNSt3__124uniform_int_distribution10param_typeE",
   "source_file" : "external/libcxx/include/algorithm"
  },
  {
   "linker_set_key" : "_ZTIRKNSt3__124uniform_int_distributionIT_EE",
   "name" : "const uniform_int_distribution<_IntType> &",
   "referenced_type" : "_ZTIKNSt3__124uniform_int_distributionIT_EE",
   "self_type" : "_ZTIRKNSt3__124uniform_int_distributionIT_EE",
   "source_file" : "external/libcxx/include/algorithm"
  },
  {
   "alignment" : 4,
   "linker_set_key" : "_ZTIRKNSt3__14pairIN4llvm9StringRefES2_EE",
   "name" : "const std::pair<llvm::StringRef, llvm::StringRef> &",
   "referenced_type" : "_ZTIKNSt3__14pairIN4llvm9StringRefES2_EE",
   "self_type" : "_ZTIRKNSt3__14pairIN4llvm9StringRefES2_EE",
   "size" : 4,
   "source_file" : "external/libcxx/include/utility"
  },
  {
   "alignment" : 4,
   "linker_set_key" : "_ZTIRKNSt3__14pairIPvjEE",
   "name" : "const std::pair<void *, unsigned int> &",
   "referenced_type" : "_ZTIKNSt3__14pairIPvjEE",
   "self_type" : "_ZTIRKNSt3__14pairIPvjEE",
   "size" : 4,
   "source_file" : "external/libcxx/include/utility"
  },
  {
   "alignment" : 4,
   "linker_set_key" : "_ZTIRKNSt3__19allocatorIcEE",
   "name" : "const std::allocator<char> &",
   "referenced_type" : "_ZTIKNSt3__19allocatorIcEE",
   "self_type" : "_ZTIRKNSt3__19allocatorIcEE",
   "size" : 4,
   "source_file" : "external/libcxx/include/memory"
  },
  {
   "alignment" : 4,
   "linker_set_key" : "_ZTIRKPKc",
   "name" : "const char *const &",
   "referenced_type" : "_ZTIKPKc",
   "self_type" : "_ZTIRKPKc",
   "size" : 4,
   "source_file" : "external/libcxx/include/type_traits"
  },
  {
   "alignment" : 4,
   "linker_set_key" : "_ZTIRKPv",
   "name" : "void *const &",
   "referenced_type" : "_ZTIKPv",
   "self_type" : "_ZTIRKPv",
   "size" : 4,
   "source_file" : "external/libcxx/include/utility"
  },
  {
   "alignment" : 4,
   "linker_set_key" : "_ZTIRKSt13exception_ptr",
   "name" : "const std::exception_ptr &",
   "referenced_type" : "_ZTIKSt13exception_ptr",
   "self_type" : "_ZTIRKSt13exception_ptr",
   "size" : 4,
   "source_file" : "external/libcxx/include/exception"
  },
  {
   "alignment" : 4,
   "linker_set_key" : "_ZTIRKSt9type_info",
   "name" : "const std::type_info &",
   "referenced_type" : "_ZTIKSt9type_info",
   "self_type" : "_ZTIRKSt9type_info",
   "size" : 4,
   "source_file" : "external/libcxx/include/typeinfo"
  },
  {
   "alignment" : 4,
   "linker_set_key" : "_ZTIRKc",
   "name" : "const char &",
   "referenced_type" : "_ZTIKc",
   "self_type" : "_ZTIRKc",
   "size" : 4,
   "source_file" : "external/libcxx/include/type_traits"
  },
  {
   "alignment" : 4,
   "linker_set_key" : "_ZTIRKj",
   "name" : "const unsigned int &",
   "referenced_type" : "_ZTIKj",
   "self_type" : "_ZTIRKj",
   "size" : 4,
   "source_file" : "external/libcxx/include/utility"
  },
  {
   "alignment" : 4,
   "linker_set_key" : "_ZTIRKw",
   "name" : "const wchar_t &",
   "referenced_type" : "_ZTIKw",
   "self_type" : "_ZTIRKw",
   "size" : 4,
   "source_file" : "external/libcxx/include/__string"
  },
  {
   "alignment" : 4,
   "linker_set_key" : "_ZTIRN4llvm13StringMapImplE",
   "name" : "llvm::StringMapImpl &",
   "referenced_type" : "_ZTIN4llvm13StringMapImplE",
   "self_type" : "_ZTIRN4llvm13StringMapImplE",
   "size" : 4,
   "source_file" : "external/llvm/include/llvm/ADT/StringMap.h"
  },
  {
   "alignment" : 4,
   "linker_set_key" : "_ZTIRN4llvm3sys17OwningMemoryBlockE",
   "name" : "llvm::sys::OwningMemoryBlock &",
   "referenced_type" : "_ZTIN4llvm3sys17OwningMemoryBlockE",
   "self_type" : "_ZTIRN4llvm3sys17OwningMemoryBlockE",
   "size" : 4,
   "source_file" : "external/llvm/include/llvm/Support/Memory.h"
  },
  {
   "alignment" : 4,
   "linker_set_key" : "_ZTIRN4llvm9StringRefE",
   "name" : "llvm::StringRef &",
   "referenced_type" : "_ZTIN4llvm9StringRefE",
   "self_type" : "_ZTIRN4llvm9StringRefE",
   "size" : 4,
   "source_file" : "external/libcxx/include/type_traits"
  },
  {
   "alignment" : 4,
   "linker_set_key" : "_ZTIRNSt3__110error_codeE",
   "name" : "std::error_code &",
   "referenced_type" : "_ZTINSt3__110error_codeE",
   "self_type" : "_ZTIRNSt3__110error_codeE",
   "size" : 4,
   "source_file" : "external/libcxx/include/type_traits"
  },
  {
   "alignment" : 4,
   "linker_set_key" : "_ZTIRNSt3__112basic_stringIcNS_11char_traitsIcEENS_9allocatorIcEEE5__repE",
   "name" : "std::basic_string<char>::__rep &",
   "referenced_type" : "_ZTINSt3__112basic_stringIcNS_11char_traitsIcEENS_9allocatorIcEEE5__repE",
   "self_type" : "_ZTIRNSt3__112basic_stringIcNS_11char_traitsIcEENS_9allocatorIcEEE5__repE",
   "size" : 4,
   "source_file" : "external/libcxx/include/memory"
  },
  {
   "alignment" : 4,
   "linker_set_key" : "_ZTIRNSt3__112basic_stringIcNS_11char_traitsIcEENS_9allocatorIcEEEE",
   "name" : "std::basic_string<char, std::char_traits<char>, std::allocator<char>> &",
   "referenced_type" : "_ZTINSt3__112basic_stringIcNS_11char_traitsIcEENS_9allocatorIcEEEE",
   "self_type" : "_ZTIRNSt3__112basic_stringIcNS_11char_traitsIcEENS_9allocatorIcEEEE",
   "size" : 4,
   "source_file" : "external/libcxx/include/type_traits"
  },
  {
   "alignment" : 4,
